   1              		.cpu cortex-a9
   2              		.eabi_attribute 28, 1
   3              		.eabi_attribute 20, 1
   4              		.eabi_attribute 21, 1
   5              		.eabi_attribute 23, 3
   6              		.eabi_attribute 24, 1
   7              		.eabi_attribute 25, 1
   8              		.eabi_attribute 26, 1
   9              		.eabi_attribute 30, 4
  10              		.eabi_attribute 34, 0
  11              		.eabi_attribute 18, 4
  12              		.file	"r_cpg_drv_api.c"
  13              		.text
  14              	.Ltext0:
  15              		.cfi_sections	.debug_frame
  16              		.section	.text.cpg_close,"ax",%progbits
  17              		.align	2
  18              		.syntax unified
  19              		.arm
  20              		.fpu neon
  22              	cpg_close:
  23              	.LFB2:
  24              		.file 1 "D:/Work/DeviceTester/amazon-freertos/lib/third_party/mcu_vendor/renesas/rz_mcu_boards/cor
   1:D:/Work/DeviceTester/amazon-freertos/lib/third_party/mcu_vendor/renesas/rz_mcu_boards/core_package/generate/drivers/r_cpg/src/hld\r_cpg_drv_api.c **** /**************************************************************************************************
   2:D:/Work/DeviceTester/amazon-freertos/lib/third_party/mcu_vendor/renesas/rz_mcu_boards/core_package/generate/drivers/r_cpg/src/hld\r_cpg_drv_api.c ****  * DISCLAIMER
   3:D:/Work/DeviceTester/amazon-freertos/lib/third_party/mcu_vendor/renesas/rz_mcu_boards/core_package/generate/drivers/r_cpg/src/hld\r_cpg_drv_api.c ****  * This software is supplied by Renesas Electronics Corporation and is only intended for use with R
   4:D:/Work/DeviceTester/amazon-freertos/lib/third_party/mcu_vendor/renesas/rz_mcu_boards/core_package/generate/drivers/r_cpg/src/hld\r_cpg_drv_api.c ****  * other uses are authorized. This software is owned by Renesas Electronics Corporation and is prot
   5:D:/Work/DeviceTester/amazon-freertos/lib/third_party/mcu_vendor/renesas/rz_mcu_boards/core_package/generate/drivers/r_cpg/src/hld\r_cpg_drv_api.c ****  * applicable laws, including copyright laws.
   6:D:/Work/DeviceTester/amazon-freertos/lib/third_party/mcu_vendor/renesas/rz_mcu_boards/core_package/generate/drivers/r_cpg/src/hld\r_cpg_drv_api.c ****  * THIS SOFTWARE IS PROVIDED "AS IS" AND RENESAS MAKES NO WARRANTIES REGARDING
   7:D:/Work/DeviceTester/amazon-freertos/lib/third_party/mcu_vendor/renesas/rz_mcu_boards/core_package/generate/drivers/r_cpg/src/hld\r_cpg_drv_api.c ****  * THIS SOFTWARE, WHETHER EXPRESS, IMPLIED OR STATUTORY, INCLUDING BUT NOT LIMITED TO WARRANTIES OF
   8:D:/Work/DeviceTester/amazon-freertos/lib/third_party/mcu_vendor/renesas/rz_mcu_boards/core_package/generate/drivers/r_cpg/src/hld\r_cpg_drv_api.c ****  * FITNESS FOR A PARTICULAR PURPOSE AND NON-INFRINGEMENT. ALL SUCH WARRANTIES ARE EXPRESSLY DISCLAI
   9:D:/Work/DeviceTester/amazon-freertos/lib/third_party/mcu_vendor/renesas/rz_mcu_boards/core_package/generate/drivers/r_cpg/src/hld\r_cpg_drv_api.c ****  * EXTENT PERMITTED NOT PROHIBITED BY LAW, NEITHER RENESAS ELECTRONICS CORPORATION NOR ANY OF ITS A
  10:D:/Work/DeviceTester/amazon-freertos/lib/third_party/mcu_vendor/renesas/rz_mcu_boards/core_package/generate/drivers/r_cpg/src/hld\r_cpg_drv_api.c ****  * SHALL BE LIABLE FOR ANY DIRECT, INDIRECT, SPECIAL, INCIDENTAL OR CONSEQUENTIAL DAMAGES FOR ANY R
  11:D:/Work/DeviceTester/amazon-freertos/lib/third_party/mcu_vendor/renesas/rz_mcu_boards/core_package/generate/drivers/r_cpg/src/hld\r_cpg_drv_api.c ****  * THIS SOFTWARE, EVEN IF RENESAS OR ITS AFFILIATES HAVE BEEN ADVISED OF THE POSSIBILITY OF SUCH DA
  12:D:/Work/DeviceTester/amazon-freertos/lib/third_party/mcu_vendor/renesas/rz_mcu_boards/core_package/generate/drivers/r_cpg/src/hld\r_cpg_drv_api.c ****  * Renesas reserves the right, without notice, to make changes to this software and to discontinue 
  13:D:/Work/DeviceTester/amazon-freertos/lib/third_party/mcu_vendor/renesas/rz_mcu_boards/core_package/generate/drivers/r_cpg/src/hld\r_cpg_drv_api.c ****  * this software. By using this software, you agree to the additional terms and conditions found by
  14:D:/Work/DeviceTester/amazon-freertos/lib/third_party/mcu_vendor/renesas/rz_mcu_boards/core_package/generate/drivers/r_cpg/src/hld\r_cpg_drv_api.c ****  * following link:
  15:D:/Work/DeviceTester/amazon-freertos/lib/third_party/mcu_vendor/renesas/rz_mcu_boards/core_package/generate/drivers/r_cpg/src/hld\r_cpg_drv_api.c ****  * http://www.renesas.com/disclaimer
  16:D:/Work/DeviceTester/amazon-freertos/lib/third_party/mcu_vendor/renesas/rz_mcu_boards/core_package/generate/drivers/r_cpg/src/hld\r_cpg_drv_api.c ****  *
  17:D:/Work/DeviceTester/amazon-freertos/lib/third_party/mcu_vendor/renesas/rz_mcu_boards/core_package/generate/drivers/r_cpg/src/hld\r_cpg_drv_api.c ****  * Copyright (C) 2020 Renesas Electronics Corporation. All rights reserved.
  18:D:/Work/DeviceTester/amazon-freertos/lib/third_party/mcu_vendor/renesas/rz_mcu_boards/core_package/generate/drivers/r_cpg/src/hld\r_cpg_drv_api.c ****  **************************************************************************************************
  19:D:/Work/DeviceTester/amazon-freertos/lib/third_party/mcu_vendor/renesas/rz_mcu_boards/core_package/generate/drivers/r_cpg/src/hld\r_cpg_drv_api.c **** /**************************************************************************************************
  20:D:/Work/DeviceTester/amazon-freertos/lib/third_party/mcu_vendor/renesas/rz_mcu_boards/core_package/generate/drivers/r_cpg/src/hld\r_cpg_drv_api.c ****  * File Name   : r_cpg_drv_api.c
  21:D:/Work/DeviceTester/amazon-freertos/lib/third_party/mcu_vendor/renesas/rz_mcu_boards/core_package/generate/drivers/r_cpg/src/hld\r_cpg_drv_api.c ****  * Description : Clock Pulse Generator high layer driver
  22:D:/Work/DeviceTester/amazon-freertos/lib/third_party/mcu_vendor/renesas/rz_mcu_boards/core_package/generate/drivers/r_cpg/src/hld\r_cpg_drv_api.c ****  **************************************************************************************************
  23:D:/Work/DeviceTester/amazon-freertos/lib/third_party/mcu_vendor/renesas/rz_mcu_boards/core_package/generate/drivers/r_cpg/src/hld\r_cpg_drv_api.c **** 
  24:D:/Work/DeviceTester/amazon-freertos/lib/third_party/mcu_vendor/renesas/rz_mcu_boards/core_package/generate/drivers/r_cpg/src/hld\r_cpg_drv_api.c **** /**************************************************************************************************
  25:D:/Work/DeviceTester/amazon-freertos/lib/third_party/mcu_vendor/renesas/rz_mcu_boards/core_package/generate/drivers/r_cpg/src/hld\r_cpg_drv_api.c ****  Includes   <System Includes> , "Project Includes"
  26:D:/Work/DeviceTester/amazon-freertos/lib/third_party/mcu_vendor/renesas/rz_mcu_boards/core_package/generate/drivers/r_cpg/src/hld\r_cpg_drv_api.c ****  **************************************************************************************************
  27:D:/Work/DeviceTester/amazon-freertos/lib/third_party/mcu_vendor/renesas/rz_mcu_boards/core_package/generate/drivers/r_cpg/src/hld\r_cpg_drv_api.c **** #include <string.h>
  28:D:/Work/DeviceTester/amazon-freertos/lib/third_party/mcu_vendor/renesas/rz_mcu_boards/core_package/generate/drivers/r_cpg/src/hld\r_cpg_drv_api.c **** #include "r_cpg_drv_link.h"
  29:D:/Work/DeviceTester/amazon-freertos/lib/third_party/mcu_vendor/renesas/rz_mcu_boards/core_package/generate/drivers/r_cpg/src/hld\r_cpg_drv_api.c **** #include "r_cpg_hld_api.h"
  30:D:/Work/DeviceTester/amazon-freertos/lib/third_party/mcu_vendor/renesas/rz_mcu_boards/core_package/generate/drivers/r_cpg/src/hld\r_cpg_drv_api.c **** #include "r_cpg_drv_api.h"
  31:D:/Work/DeviceTester/amazon-freertos/lib/third_party/mcu_vendor/renesas/rz_mcu_boards/core_package/generate/drivers/r_cpg/src/hld\r_cpg_drv_api.c **** #include "r_cpg_drv_sc_cfg.h"
  32:D:/Work/DeviceTester/amazon-freertos/lib/third_party/mcu_vendor/renesas/rz_mcu_boards/core_package/generate/drivers/r_cpg/src/hld\r_cpg_drv_api.c **** 
  33:D:/Work/DeviceTester/amazon-freertos/lib/third_party/mcu_vendor/renesas/rz_mcu_boards/core_package/generate/drivers/r_cpg/src/hld\r_cpg_drv_api.c **** /**************************************************************************************************
  34:D:/Work/DeviceTester/amazon-freertos/lib/third_party/mcu_vendor/renesas/rz_mcu_boards/core_package/generate/drivers/r_cpg/src/hld\r_cpg_drv_api.c ****  Typedef definitions
  35:D:/Work/DeviceTester/amazon-freertos/lib/third_party/mcu_vendor/renesas/rz_mcu_boards/core_package/generate/drivers/r_cpg/src/hld\r_cpg_drv_api.c ****  **************************************************************************************************
  36:D:/Work/DeviceTester/amazon-freertos/lib/third_party/mcu_vendor/renesas/rz_mcu_boards/core_package/generate/drivers/r_cpg/src/hld\r_cpg_drv_api.c **** 
  37:D:/Work/DeviceTester/amazon-freertos/lib/third_party/mcu_vendor/renesas/rz_mcu_boards/core_package/generate/drivers/r_cpg/src/hld\r_cpg_drv_api.c **** /**************************************************************************************************
  38:D:/Work/DeviceTester/amazon-freertos/lib/third_party/mcu_vendor/renesas/rz_mcu_boards/core_package/generate/drivers/r_cpg/src/hld\r_cpg_drv_api.c ****  Macro definitions
  39:D:/Work/DeviceTester/amazon-freertos/lib/third_party/mcu_vendor/renesas/rz_mcu_boards/core_package/generate/drivers/r_cpg/src/hld\r_cpg_drv_api.c ****  **************************************************************************************************
  40:D:/Work/DeviceTester/amazon-freertos/lib/third_party/mcu_vendor/renesas/rz_mcu_boards/core_package/generate/drivers/r_cpg/src/hld\r_cpg_drv_api.c **** /* List channels supported */
  41:D:/Work/DeviceTester/amazon-freertos/lib/third_party/mcu_vendor/renesas/rz_mcu_boards/core_package/generate/drivers/r_cpg/src/hld\r_cpg_drv_api.c **** #define R_CFG_CPG_CHANNELS_SUPPORTED         (0)
  42:D:/Work/DeviceTester/amazon-freertos/lib/third_party/mcu_vendor/renesas/rz_mcu_boards/core_package/generate/drivers/r_cpg/src/hld\r_cpg_drv_api.c **** 
  43:D:/Work/DeviceTester/amazon-freertos/lib/third_party/mcu_vendor/renesas/rz_mcu_boards/core_package/generate/drivers/r_cpg/src/hld\r_cpg_drv_api.c **** /* Maximum number of modules that can be granted simultaneous write access to this driver  */
  44:D:/Work/DeviceTester/amazon-freertos/lib/third_party/mcu_vendor/renesas/rz_mcu_boards/core_package/generate/drivers/r_cpg/src/hld\r_cpg_drv_api.c **** #define  R_CFG_CPG_DRV_MAXIMUM_WRITE_ACCESS_PRV    (1)
  45:D:/Work/DeviceTester/amazon-freertos/lib/third_party/mcu_vendor/renesas/rz_mcu_boards/core_package/generate/drivers/r_cpg/src/hld\r_cpg_drv_api.c **** 
  46:D:/Work/DeviceTester/amazon-freertos/lib/third_party/mcu_vendor/renesas/rz_mcu_boards/core_package/generate/drivers/r_cpg/src/hld\r_cpg_drv_api.c **** /**************************************************************************************************
  47:D:/Work/DeviceTester/amazon-freertos/lib/third_party/mcu_vendor/renesas/rz_mcu_boards/core_package/generate/drivers/r_cpg/src/hld\r_cpg_drv_api.c ****  Enumerated Types
  48:D:/Work/DeviceTester/amazon-freertos/lib/third_party/mcu_vendor/renesas/rz_mcu_boards/core_package/generate/drivers/r_cpg/src/hld\r_cpg_drv_api.c ****  **************************************************************************************************
  49:D:/Work/DeviceTester/amazon-freertos/lib/third_party/mcu_vendor/renesas/rz_mcu_boards/core_package/generate/drivers/r_cpg/src/hld\r_cpg_drv_api.c **** 
  50:D:/Work/DeviceTester/amazon-freertos/lib/third_party/mcu_vendor/renesas/rz_mcu_boards/core_package/generate/drivers/r_cpg/src/hld\r_cpg_drv_api.c **** /**************************************************************************************************
  51:D:/Work/DeviceTester/amazon-freertos/lib/third_party/mcu_vendor/renesas/rz_mcu_boards/core_package/generate/drivers/r_cpg/src/hld\r_cpg_drv_api.c ****  Typedefs
  52:D:/Work/DeviceTester/amazon-freertos/lib/third_party/mcu_vendor/renesas/rz_mcu_boards/core_package/generate/drivers/r_cpg/src/hld\r_cpg_drv_api.c ****  **************************************************************************************************
  53:D:/Work/DeviceTester/amazon-freertos/lib/third_party/mcu_vendor/renesas/rz_mcu_boards/core_package/generate/drivers/r_cpg/src/hld\r_cpg_drv_api.c **** typedef struct r_drvcpg
  54:D:/Work/DeviceTester/amazon-freertos/lib/third_party/mcu_vendor/renesas/rz_mcu_boards/core_package/generate/drivers/r_cpg/src/hld\r_cpg_drv_api.c **** {
  55:D:/Work/DeviceTester/amazon-freertos/lib/third_party/mcu_vendor/renesas/rz_mcu_boards/core_package/generate/drivers/r_cpg/src/hld\r_cpg_drv_api.c ****     uint32_t access_handles_available;
  56:D:/Work/DeviceTester/amazon-freertos/lib/third_party/mcu_vendor/renesas/rz_mcu_boards/core_package/generate/drivers/r_cpg/src/hld\r_cpg_drv_api.c ****     uint8_t  drv_free;
  57:D:/Work/DeviceTester/amazon-freertos/lib/third_party/mcu_vendor/renesas/rz_mcu_boards/core_package/generate/drivers/r_cpg/src/hld\r_cpg_drv_api.c **** } st_r_drv_res_map_t;
  58:D:/Work/DeviceTester/amazon-freertos/lib/third_party/mcu_vendor/renesas/rz_mcu_boards/core_package/generate/drivers/r_cpg/src/hld\r_cpg_drv_api.c **** 
  59:D:/Work/DeviceTester/amazon-freertos/lib/third_party/mcu_vendor/renesas/rz_mcu_boards/core_package/generate/drivers/r_cpg/src/hld\r_cpg_drv_api.c **** typedef struct
  60:D:/Work/DeviceTester/amazon-freertos/lib/third_party/mcu_vendor/renesas/rz_mcu_boards/core_package/generate/drivers/r_cpg/src/hld\r_cpg_drv_api.c **** {
  61:D:/Work/DeviceTester/amazon-freertos/lib/third_party/mcu_vendor/renesas/rz_mcu_boards/core_package/generate/drivers/r_cpg/src/hld\r_cpg_drv_api.c ****     uint16_t gs_channel_open;
  62:D:/Work/DeviceTester/amazon-freertos/lib/third_party/mcu_vendor/renesas/rz_mcu_boards/core_package/generate/drivers/r_cpg/src/hld\r_cpg_drv_api.c **** } st_internal_configuration_t;
  63:D:/Work/DeviceTester/amazon-freertos/lib/third_party/mcu_vendor/renesas/rz_mcu_boards/core_package/generate/drivers/r_cpg/src/hld\r_cpg_drv_api.c **** 
  64:D:/Work/DeviceTester/amazon-freertos/lib/third_party/mcu_vendor/renesas/rz_mcu_boards/core_package/generate/drivers/r_cpg/src/hld\r_cpg_drv_api.c **** /**************************************************************************************************
  65:D:/Work/DeviceTester/amazon-freertos/lib/third_party/mcu_vendor/renesas/rz_mcu_boards/core_package/generate/drivers/r_cpg/src/hld\r_cpg_drv_api.c ****  Function Prototypes
  66:D:/Work/DeviceTester/amazon-freertos/lib/third_party/mcu_vendor/renesas/rz_mcu_boards/core_package/generate/drivers/r_cpg/src/hld\r_cpg_drv_api.c ****  **************************************************************************************************
  67:D:/Work/DeviceTester/amazon-freertos/lib/third_party/mcu_vendor/renesas/rz_mcu_boards/core_package/generate/drivers/r_cpg/src/hld\r_cpg_drv_api.c **** static int_t cpg_open (st_stream_ptr_t stream_ptr);
  68:D:/Work/DeviceTester/amazon-freertos/lib/third_party/mcu_vendor/renesas/rz_mcu_boards/core_package/generate/drivers/r_cpg/src/hld\r_cpg_drv_api.c **** static void cpg_close (st_stream_ptr_t stream_ptr);
  69:D:/Work/DeviceTester/amazon-freertos/lib/third_party/mcu_vendor/renesas/rz_mcu_boards/core_package/generate/drivers/r_cpg/src/hld\r_cpg_drv_api.c **** static int_t cpg_control (st_stream_ptr_t stream_ptr, uint32_t ctrl_code, void *ctrl_ptr);
  70:D:/Work/DeviceTester/amazon-freertos/lib/third_party/mcu_vendor/renesas/rz_mcu_boards/core_package/generate/drivers/r_cpg/src/hld\r_cpg_drv_api.c **** static int_t cpg_get_version (st_stream_ptr_t stream_ptr, st_ver_info_t *pVerInfo);
  71:D:/Work/DeviceTester/amazon-freertos/lib/third_party/mcu_vendor/renesas/rz_mcu_boards/core_package/generate/drivers/r_cpg/src/hld\r_cpg_drv_api.c **** 
  72:D:/Work/DeviceTester/amazon-freertos/lib/third_party/mcu_vendor/renesas/rz_mcu_boards/core_package/generate/drivers/r_cpg/src/hld\r_cpg_drv_api.c **** /**************************************************************************************************
  73:D:/Work/DeviceTester/amazon-freertos/lib/third_party/mcu_vendor/renesas/rz_mcu_boards/core_package/generate/drivers/r_cpg/src/hld\r_cpg_drv_api.c ****  Constant Data
  74:D:/Work/DeviceTester/amazon-freertos/lib/third_party/mcu_vendor/renesas/rz_mcu_boards/core_package/generate/drivers/r_cpg/src/hld\r_cpg_drv_api.c ****  **************************************************************************************************
  75:D:/Work/DeviceTester/amazon-freertos/lib/third_party/mcu_vendor/renesas/rz_mcu_boards/core_package/generate/drivers/r_cpg/src/hld\r_cpg_drv_api.c **** 
  76:D:/Work/DeviceTester/amazon-freertos/lib/third_party/mcu_vendor/renesas/rz_mcu_boards/core_package/generate/drivers/r_cpg/src/hld\r_cpg_drv_api.c **** /**************************************************************************************************
  77:D:/Work/DeviceTester/amazon-freertos/lib/third_party/mcu_vendor/renesas/rz_mcu_boards/core_package/generate/drivers/r_cpg/src/hld\r_cpg_drv_api.c ****  Private global variables and functions
  78:D:/Work/DeviceTester/amazon-freertos/lib/third_party/mcu_vendor/renesas/rz_mcu_boards/core_package/generate/drivers/r_cpg/src/hld\r_cpg_drv_api.c ****  **************************************************************************************************
  79:D:/Work/DeviceTester/amazon-freertos/lib/third_party/mcu_vendor/renesas/rz_mcu_boards/core_package/generate/drivers/r_cpg/src/hld\r_cpg_drv_api.c **** /*! Version Information */
  80:D:/Work/DeviceTester/amazon-freertos/lib/third_party/mcu_vendor/renesas/rz_mcu_boards/core_package/generate/drivers/r_cpg/src/hld\r_cpg_drv_api.c **** static const st_drv_info_t gs_hld_info =
  81:D:/Work/DeviceTester/amazon-freertos/lib/third_party/mcu_vendor/renesas/rz_mcu_boards/core_package/generate/drivers/r_cpg/src/hld\r_cpg_drv_api.c **** {
  82:D:/Work/DeviceTester/amazon-freertos/lib/third_party/mcu_vendor/renesas/rz_mcu_boards/core_package/generate/drivers/r_cpg/src/hld\r_cpg_drv_api.c ****     {
  83:D:/Work/DeviceTester/amazon-freertos/lib/third_party/mcu_vendor/renesas/rz_mcu_boards/core_package/generate/drivers/r_cpg/src/hld\r_cpg_drv_api.c ****         ((STDIO_CPG_RZ_HLD_VERSION_MAJOR << 16) + STDIO_CPG_RZ_HLD_VERSION_MINOR)
  84:D:/Work/DeviceTester/amazon-freertos/lib/third_party/mcu_vendor/renesas/rz_mcu_boards/core_package/generate/drivers/r_cpg/src/hld\r_cpg_drv_api.c ****     },
  85:D:/Work/DeviceTester/amazon-freertos/lib/third_party/mcu_vendor/renesas/rz_mcu_boards/core_package/generate/drivers/r_cpg/src/hld\r_cpg_drv_api.c ****     STDIO_CPG_RZ_HLD_BUILD_NUM,
  86:D:/Work/DeviceTester/amazon-freertos/lib/third_party/mcu_vendor/renesas/rz_mcu_boards/core_package/generate/drivers/r_cpg/src/hld\r_cpg_drv_api.c ****     STDIO_CPG_RZ_HLD_DRV_NAME
  87:D:/Work/DeviceTester/amazon-freertos/lib/third_party/mcu_vendor/renesas/rz_mcu_boards/core_package/generate/drivers/r_cpg/src/hld\r_cpg_drv_api.c **** };
  88:D:/Work/DeviceTester/amazon-freertos/lib/third_party/mcu_vendor/renesas/rz_mcu_boards/core_package/generate/drivers/r_cpg/src/hld\r_cpg_drv_api.c **** 
  89:D:/Work/DeviceTester/amazon-freertos/lib/third_party/mcu_vendor/renesas/rz_mcu_boards/core_package/generate/drivers/r_cpg/src/hld\r_cpg_drv_api.c **** static bool_t gs_drv_cpg_is_initialized = false;
  90:D:/Work/DeviceTester/amazon-freertos/lib/third_party/mcu_vendor/renesas/rz_mcu_boards/core_package/generate/drivers/r_cpg/src/hld\r_cpg_drv_api.c **** static st_internal_configuration_t s_drv_config =
  91:D:/Work/DeviceTester/amazon-freertos/lib/third_party/mcu_vendor/renesas/rz_mcu_boards/core_package/generate/drivers/r_cpg/src/hld\r_cpg_drv_api.c **** {
  92:D:/Work/DeviceTester/amazon-freertos/lib/third_party/mcu_vendor/renesas/rz_mcu_boards/core_package/generate/drivers/r_cpg/src/hld\r_cpg_drv_api.c ****     0 /* R_CFG_CPG_DRV_MAXIMUM_ACCESS_PRV */
  93:D:/Work/DeviceTester/amazon-freertos/lib/third_party/mcu_vendor/renesas/rz_mcu_boards/core_package/generate/drivers/r_cpg/src/hld\r_cpg_drv_api.c **** };
  94:D:/Work/DeviceTester/amazon-freertos/lib/third_party/mcu_vendor/renesas/rz_mcu_boards/core_package/generate/drivers/r_cpg/src/hld\r_cpg_drv_api.c **** 
  95:D:/Work/DeviceTester/amazon-freertos/lib/third_party/mcu_vendor/renesas/rz_mcu_boards/core_package/generate/drivers/r_cpg/src/hld\r_cpg_drv_api.c **** /* Define the driver function table for this implementation */
  96:D:/Work/DeviceTester/amazon-freertos/lib/third_party/mcu_vendor/renesas/rz_mcu_boards/core_package/generate/drivers/r_cpg/src/hld\r_cpg_drv_api.c **** /* GSCE Warning (global variable 'g_cpg_Driver' not declared static [9.3a])
  97:D:/Work/DeviceTester/amazon-freertos/lib/third_party/mcu_vendor/renesas/rz_mcu_boards/core_package/generate/drivers/r_cpg/src/hld\r_cpg_drv_api.c ****  * can be safely ignored */
  98:D:/Work/DeviceTester/amazon-freertos/lib/third_party/mcu_vendor/renesas/rz_mcu_boards/core_package/generate/drivers/r_cpg/src/hld\r_cpg_drv_api.c **** const st_r_driver_t g_cpg_driver =
  99:D:/Work/DeviceTester/amazon-freertos/lib/third_party/mcu_vendor/renesas/rz_mcu_boards/core_package/generate/drivers/r_cpg/src/hld\r_cpg_drv_api.c **** {
 100:D:/Work/DeviceTester/amazon-freertos/lib/third_party/mcu_vendor/renesas/rz_mcu_boards/core_package/generate/drivers/r_cpg/src/hld\r_cpg_drv_api.c ****     /* st_r_driver_t p_device */
 101:D:/Work/DeviceTester/amazon-freertos/lib/third_party/mcu_vendor/renesas/rz_mcu_boards/core_package/generate/drivers/r_cpg/src/hld\r_cpg_drv_api.c ****     "CPG Device Driver", cpg_open, cpg_close, no_dev_read, no_dev_write, cpg_control, cpg_get_versi
 102:D:/Work/DeviceTester/amazon-freertos/lib/third_party/mcu_vendor/renesas/rz_mcu_boards/core_package/generate/drivers/r_cpg/src/hld\r_cpg_drv_api.c **** };
 103:D:/Work/DeviceTester/amazon-freertos/lib/third_party/mcu_vendor/renesas/rz_mcu_boards/core_package/generate/drivers/r_cpg/src/hld\r_cpg_drv_api.c **** 
 104:D:/Work/DeviceTester/amazon-freertos/lib/third_party/mcu_vendor/renesas/rz_mcu_boards/core_package/generate/drivers/r_cpg/src/hld\r_cpg_drv_api.c **** /******************************************************************************
 105:D:/Work/DeviceTester/amazon-freertos/lib/third_party/mcu_vendor/renesas/rz_mcu_boards/core_package/generate/drivers/r_cpg/src/hld\r_cpg_drv_api.c ****  Function Name: cpg_open
 106:D:/Work/DeviceTester/amazon-freertos/lib/third_party/mcu_vendor/renesas/rz_mcu_boards/core_package/generate/drivers/r_cpg/src/hld\r_cpg_drv_api.c ****  Description:   Function to open the CPG device driver
 107:D:/Work/DeviceTester/amazon-freertos/lib/third_party/mcu_vendor/renesas/rz_mcu_boards/core_package/generate/drivers/r_cpg/src/hld\r_cpg_drv_api.c ****  Arguments:     IN  stream_ptr - Pointer to the file stream
 108:D:/Work/DeviceTester/amazon-freertos/lib/third_party/mcu_vendor/renesas/rz_mcu_boards/core_package/generate/drivers/r_cpg/src/hld\r_cpg_drv_api.c ****  Return value:  DRV_SUCCESS : Success when attempting to initialise CPG
 109:D:/Work/DeviceTester/amazon-freertos/lib/third_party/mcu_vendor/renesas/rz_mcu_boards/core_package/generate/drivers/r_cpg/src/hld\r_cpg_drv_api.c ****  *              DRV_ERROR   : Failure to initialise CPG
 110:D:/Work/DeviceTester/amazon-freertos/lib/third_party/mcu_vendor/renesas/rz_mcu_boards/core_package/generate/drivers/r_cpg/src/hld\r_cpg_drv_api.c ****  ******************************************************************************/
 111:D:/Work/DeviceTester/amazon-freertos/lib/third_party/mcu_vendor/renesas/rz_mcu_boards/core_package/generate/drivers/r_cpg/src/hld\r_cpg_drv_api.c **** static int_t cpg_open (st_stream_ptr_t stream_ptr)
 112:D:/Work/DeviceTester/amazon-freertos/lib/third_party/mcu_vendor/renesas/rz_mcu_boards/core_package/generate/drivers/r_cpg/src/hld\r_cpg_drv_api.c **** {
 113:D:/Work/DeviceTester/amazon-freertos/lib/third_party/mcu_vendor/renesas/rz_mcu_boards/core_package/generate/drivers/r_cpg/src/hld\r_cpg_drv_api.c ****     int_t ret = DRV_SUCCESS;
 114:D:/Work/DeviceTester/amazon-freertos/lib/third_party/mcu_vendor/renesas/rz_mcu_boards/core_package/generate/drivers/r_cpg/src/hld\r_cpg_drv_api.c **** 
 115:D:/Work/DeviceTester/amazon-freertos/lib/third_party/mcu_vendor/renesas/rz_mcu_boards/core_package/generate/drivers/r_cpg/src/hld\r_cpg_drv_api.c ****     if (!gs_drv_cpg_is_initialized)
 116:D:/Work/DeviceTester/amazon-freertos/lib/third_party/mcu_vendor/renesas/rz_mcu_boards/core_package/generate/drivers/r_cpg/src/hld\r_cpg_drv_api.c ****     {
 117:D:/Work/DeviceTester/amazon-freertos/lib/third_party/mcu_vendor/renesas/rz_mcu_boards/core_package/generate/drivers/r_cpg/src/hld\r_cpg_drv_api.c ****         gs_drv_cpg_is_initialized = true;
 118:D:/Work/DeviceTester/amazon-freertos/lib/third_party/mcu_vendor/renesas/rz_mcu_boards/core_package/generate/drivers/r_cpg/src/hld\r_cpg_drv_api.c ****         R_CPG_InitialiseHwIf();
 119:D:/Work/DeviceTester/amazon-freertos/lib/third_party/mcu_vendor/renesas/rz_mcu_boards/core_package/generate/drivers/r_cpg/src/hld\r_cpg_drv_api.c ****     }
 120:D:/Work/DeviceTester/amazon-freertos/lib/third_party/mcu_vendor/renesas/rz_mcu_boards/core_package/generate/drivers/r_cpg/src/hld\r_cpg_drv_api.c **** 
 121:D:/Work/DeviceTester/amazon-freertos/lib/third_party/mcu_vendor/renesas/rz_mcu_boards/core_package/generate/drivers/r_cpg/src/hld\r_cpg_drv_api.c ****     if ((stream_ptr->file_mode & __SWR) > 0)
 122:D:/Work/DeviceTester/amazon-freertos/lib/third_party/mcu_vendor/renesas/rz_mcu_boards/core_package/generate/drivers/r_cpg/src/hld\r_cpg_drv_api.c ****     {
 123:D:/Work/DeviceTester/amazon-freertos/lib/third_party/mcu_vendor/renesas/rz_mcu_boards/core_package/generate/drivers/r_cpg/src/hld\r_cpg_drv_api.c ****         /* write access requested */
 124:D:/Work/DeviceTester/amazon-freertos/lib/third_party/mcu_vendor/renesas/rz_mcu_boards/core_package/generate/drivers/r_cpg/src/hld\r_cpg_drv_api.c **** 
 125:D:/Work/DeviceTester/amazon-freertos/lib/third_party/mcu_vendor/renesas/rz_mcu_boards/core_package/generate/drivers/r_cpg/src/hld\r_cpg_drv_api.c ****         if (s_drv_config.gs_channel_open < R_CFG_CPG_DRV_MAXIMUM_WRITE_ACCESS_PRV)
 126:D:/Work/DeviceTester/amazon-freertos/lib/third_party/mcu_vendor/renesas/rz_mcu_boards/core_package/generate/drivers/r_cpg/src/hld\r_cpg_drv_api.c ****         {
 127:D:/Work/DeviceTester/amazon-freertos/lib/third_party/mcu_vendor/renesas/rz_mcu_boards/core_package/generate/drivers/r_cpg/src/hld\r_cpg_drv_api.c ****             /* driver already opened, just store the reference count */
 128:D:/Work/DeviceTester/amazon-freertos/lib/third_party/mcu_vendor/renesas/rz_mcu_boards/core_package/generate/drivers/r_cpg/src/hld\r_cpg_drv_api.c ****             s_drv_config.gs_channel_open++;
 129:D:/Work/DeviceTester/amazon-freertos/lib/third_party/mcu_vendor/renesas/rz_mcu_boards/core_package/generate/drivers/r_cpg/src/hld\r_cpg_drv_api.c ****         }
 130:D:/Work/DeviceTester/amazon-freertos/lib/third_party/mcu_vendor/renesas/rz_mcu_boards/core_package/generate/drivers/r_cpg/src/hld\r_cpg_drv_api.c ****         else
 131:D:/Work/DeviceTester/amazon-freertos/lib/third_party/mcu_vendor/renesas/rz_mcu_boards/core_package/generate/drivers/r_cpg/src/hld\r_cpg_drv_api.c ****         {
 132:D:/Work/DeviceTester/amazon-freertos/lib/third_party/mcu_vendor/renesas/rz_mcu_boards/core_package/generate/drivers/r_cpg/src/hld\r_cpg_drv_api.c ****             /* return DRV_ERROR when too many write references to the driver are attempted */
 133:D:/Work/DeviceTester/amazon-freertos/lib/third_party/mcu_vendor/renesas/rz_mcu_boards/core_package/generate/drivers/r_cpg/src/hld\r_cpg_drv_api.c ****             ret = DRV_ERROR;
 134:D:/Work/DeviceTester/amazon-freertos/lib/third_party/mcu_vendor/renesas/rz_mcu_boards/core_package/generate/drivers/r_cpg/src/hld\r_cpg_drv_api.c ****         }
 135:D:/Work/DeviceTester/amazon-freertos/lib/third_party/mcu_vendor/renesas/rz_mcu_boards/core_package/generate/drivers/r_cpg/src/hld\r_cpg_drv_api.c ****     }
 136:D:/Work/DeviceTester/amazon-freertos/lib/third_party/mcu_vendor/renesas/rz_mcu_boards/core_package/generate/drivers/r_cpg/src/hld\r_cpg_drv_api.c **** 
 137:D:/Work/DeviceTester/amazon-freertos/lib/third_party/mcu_vendor/renesas/rz_mcu_boards/core_package/generate/drivers/r_cpg/src/hld\r_cpg_drv_api.c ****     return (ret);
 138:D:/Work/DeviceTester/amazon-freertos/lib/third_party/mcu_vendor/renesas/rz_mcu_boards/core_package/generate/drivers/r_cpg/src/hld\r_cpg_drv_api.c **** }
 139:D:/Work/DeviceTester/amazon-freertos/lib/third_party/mcu_vendor/renesas/rz_mcu_boards/core_package/generate/drivers/r_cpg/src/hld\r_cpg_drv_api.c **** /******************************************************************************
 140:D:/Work/DeviceTester/amazon-freertos/lib/third_party/mcu_vendor/renesas/rz_mcu_boards/core_package/generate/drivers/r_cpg/src/hld\r_cpg_drv_api.c ****  End of function  cpg_open
 141:D:/Work/DeviceTester/amazon-freertos/lib/third_party/mcu_vendor/renesas/rz_mcu_boards/core_package/generate/drivers/r_cpg/src/hld\r_cpg_drv_api.c ****  ******************************************************************************/
 142:D:/Work/DeviceTester/amazon-freertos/lib/third_party/mcu_vendor/renesas/rz_mcu_boards/core_package/generate/drivers/r_cpg/src/hld\r_cpg_drv_api.c **** 
 143:D:/Work/DeviceTester/amazon-freertos/lib/third_party/mcu_vendor/renesas/rz_mcu_boards/core_package/generate/drivers/r_cpg/src/hld\r_cpg_drv_api.c **** /******************************************************************************
 144:D:/Work/DeviceTester/amazon-freertos/lib/third_party/mcu_vendor/renesas/rz_mcu_boards/core_package/generate/drivers/r_cpg/src/hld\r_cpg_drv_api.c ****  Function Name: cpg_close
 145:D:/Work/DeviceTester/amazon-freertos/lib/third_party/mcu_vendor/renesas/rz_mcu_boards/core_package/generate/drivers/r_cpg/src/hld\r_cpg_drv_api.c ****  Description:   Function to close the standard IN driver. All open devices
 146:D:/Work/DeviceTester/amazon-freertos/lib/third_party/mcu_vendor/renesas/rz_mcu_boards/core_package/generate/drivers/r_cpg/src/hld\r_cpg_drv_api.c ****  connected to the led are closed.
 147:D:/Work/DeviceTester/amazon-freertos/lib/third_party/mcu_vendor/renesas/rz_mcu_boards/core_package/generate/drivers/r_cpg/src/hld\r_cpg_drv_api.c ****  Arguments:     IN  stream_ptr - Pointer to the file stream
 148:D:/Work/DeviceTester/amazon-freertos/lib/third_party/mcu_vendor/renesas/rz_mcu_boards/core_package/generate/drivers/r_cpg/src/hld\r_cpg_drv_api.c ****  Return value:  none
 149:D:/Work/DeviceTester/amazon-freertos/lib/third_party/mcu_vendor/renesas/rz_mcu_boards/core_package/generate/drivers/r_cpg/src/hld\r_cpg_drv_api.c ****  ******************************************************************************/
 150:D:/Work/DeviceTester/amazon-freertos/lib/third_party/mcu_vendor/renesas/rz_mcu_boards/core_package/generate/drivers/r_cpg/src/hld\r_cpg_drv_api.c **** static void cpg_close (st_stream_ptr_t stream_ptr)
 151:D:/Work/DeviceTester/amazon-freertos/lib/third_party/mcu_vendor/renesas/rz_mcu_boards/core_package/generate/drivers/r_cpg/src/hld\r_cpg_drv_api.c **** {
  25              		.loc 1 151 0
  26              		.cfi_startproc
  27              		@ args = 0, pretend = 0, frame = 0
  28              		@ frame_needed = 0, uses_anonymous_args = 0
  29              		@ link register save eliminated.
  30              	.LVL0:
 152:D:/Work/DeviceTester/amazon-freertos/lib/third_party/mcu_vendor/renesas/rz_mcu_boards/core_package/generate/drivers/r_cpg/src/hld\r_cpg_drv_api.c ****     if ( (0 != s_drv_config.gs_channel_open)
  31              		.loc 1 152 0
  32 0000 1C209FE5 		ldr	r2, .L9
  33 0004 B030D2E1 		ldrh	r3, [r2]
  34 0008 000053E3 		cmp	r3, #0
  35 000c 1EFF2F01 		bxeq	lr
 153:D:/Work/DeviceTester/amazon-freertos/lib/third_party/mcu_vendor/renesas/rz_mcu_boards/core_package/generate/drivers/r_cpg/src/hld\r_cpg_drv_api.c ****       && ( (stream_ptr->file_mode & __SWR) > 0 ) )
  36              		.loc 1 153 0
  37 0010 141090E5 		ldr	r1, [r0, #20]
  38 0014 080011E3 		tst	r1, #8
 154:D:/Work/DeviceTester/amazon-freertos/lib/third_party/mcu_vendor/renesas/rz_mcu_boards/core_package/generate/drivers/r_cpg/src/hld\r_cpg_drv_api.c ****     {
 155:D:/Work/DeviceTester/amazon-freertos/lib/third_party/mcu_vendor/renesas/rz_mcu_boards/core_package/generate/drivers/r_cpg/src/hld\r_cpg_drv_api.c ****         s_drv_config.gs_channel_open--;
  39              		.loc 1 155 0
  40 0018 01304312 		subne	r3, r3, #1
  41 001c B030C211 		strhne	r3, [r2]	@ movhi
  42 0020 1EFF2FE1 		bx	lr
  43              	.L10:
  44              		.align	2
  45              	.L9:
  46 0024 00000000 		.word	.LANCHOR0
  47              		.cfi_endproc
  48              	.LFE2:
  50              		.section	.text.cpg_get_version,"ax",%progbits
  51              		.align	2
  52              		.syntax unified
  53              		.arm
  54              		.fpu neon
  56              	cpg_get_version:
  57              	.LFB4:
 156:D:/Work/DeviceTester/amazon-freertos/lib/third_party/mcu_vendor/renesas/rz_mcu_boards/core_package/generate/drivers/r_cpg/src/hld\r_cpg_drv_api.c ****     }
 157:D:/Work/DeviceTester/amazon-freertos/lib/third_party/mcu_vendor/renesas/rz_mcu_boards/core_package/generate/drivers/r_cpg/src/hld\r_cpg_drv_api.c **** }
 158:D:/Work/DeviceTester/amazon-freertos/lib/third_party/mcu_vendor/renesas/rz_mcu_boards/core_package/generate/drivers/r_cpg/src/hld\r_cpg_drv_api.c **** /******************************************************************************
 159:D:/Work/DeviceTester/amazon-freertos/lib/third_party/mcu_vendor/renesas/rz_mcu_boards/core_package/generate/drivers/r_cpg/src/hld\r_cpg_drv_api.c ****  End of function  cpg_close
 160:D:/Work/DeviceTester/amazon-freertos/lib/third_party/mcu_vendor/renesas/rz_mcu_boards/core_package/generate/drivers/r_cpg/src/hld\r_cpg_drv_api.c ****  ******************************************************************************/
 161:D:/Work/DeviceTester/amazon-freertos/lib/third_party/mcu_vendor/renesas/rz_mcu_boards/core_package/generate/drivers/r_cpg/src/hld\r_cpg_drv_api.c **** 
 162:D:/Work/DeviceTester/amazon-freertos/lib/third_party/mcu_vendor/renesas/rz_mcu_boards/core_package/generate/drivers/r_cpg/src/hld\r_cpg_drv_api.c **** /******************************************************************************
 163:D:/Work/DeviceTester/amazon-freertos/lib/third_party/mcu_vendor/renesas/rz_mcu_boards/core_package/generate/drivers/r_cpg/src/hld\r_cpg_drv_api.c ****  Function Name: cpg_control
 164:D:/Work/DeviceTester/amazon-freertos/lib/third_party/mcu_vendor/renesas/rz_mcu_boards/core_package/generate/drivers/r_cpg/src/hld\r_cpg_drv_api.c ****  Description:   Function to handle custom controls for the standard IN device
 165:D:/Work/DeviceTester/amazon-freertos/lib/third_party/mcu_vendor/renesas/rz_mcu_boards/core_package/generate/drivers/r_cpg/src/hld\r_cpg_drv_api.c ****  Arguments:     IN  stream_ptr - Pointer to the file stream
 166:D:/Work/DeviceTester/amazon-freertos/lib/third_party/mcu_vendor/renesas/rz_mcu_boards/core_package/generate/drivers/r_cpg/src/hld\r_cpg_drv_api.c ****  IN  ctrl_code - The custom control code
 167:D:/Work/DeviceTester/amazon-freertos/lib/third_party/mcu_vendor/renesas/rz_mcu_boards/core_package/generate/drivers/r_cpg/src/hld\r_cpg_drv_api.c ****  IN  ctrl_ptr - Pointer to the custom control structure
 168:D:/Work/DeviceTester/amazon-freertos/lib/third_party/mcu_vendor/renesas/rz_mcu_boards/core_package/generate/drivers/r_cpg/src/hld\r_cpg_drv_api.c ****  Return value:  0 for success -1 on error
 169:D:/Work/DeviceTester/amazon-freertos/lib/third_party/mcu_vendor/renesas/rz_mcu_boards/core_package/generate/drivers/r_cpg/src/hld\r_cpg_drv_api.c ****  ******************************************************************************/
 170:D:/Work/DeviceTester/amazon-freertos/lib/third_party/mcu_vendor/renesas/rz_mcu_boards/core_package/generate/drivers/r_cpg/src/hld\r_cpg_drv_api.c **** static int_t cpg_control (st_stream_ptr_t stream_ptr, uint32_t ctrl_code, void *ctrl_ptr)
 171:D:/Work/DeviceTester/amazon-freertos/lib/third_party/mcu_vendor/renesas/rz_mcu_boards/core_package/generate/drivers/r_cpg/src/hld\r_cpg_drv_api.c **** {
 172:D:/Work/DeviceTester/amazon-freertos/lib/third_party/mcu_vendor/renesas/rz_mcu_boards/core_package/generate/drivers/r_cpg/src/hld\r_cpg_drv_api.c ****     int_t retval = DRV_ERROR;
 173:D:/Work/DeviceTester/amazon-freertos/lib/third_party/mcu_vendor/renesas/rz_mcu_boards/core_package/generate/drivers/r_cpg/src/hld\r_cpg_drv_api.c **** 
 174:D:/Work/DeviceTester/amazon-freertos/lib/third_party/mcu_vendor/renesas/rz_mcu_boards/core_package/generate/drivers/r_cpg/src/hld\r_cpg_drv_api.c ****     /* fail if the ctrl_ptr parameter is NULL */
 175:D:/Work/DeviceTester/amazon-freertos/lib/third_party/mcu_vendor/renesas/rz_mcu_boards/core_package/generate/drivers/r_cpg/src/hld\r_cpg_drv_api.c ****     if (NULL == ctrl_ptr)
 176:D:/Work/DeviceTester/amazon-freertos/lib/third_party/mcu_vendor/renesas/rz_mcu_boards/core_package/generate/drivers/r_cpg/src/hld\r_cpg_drv_api.c ****     {
 177:D:/Work/DeviceTester/amazon-freertos/lib/third_party/mcu_vendor/renesas/rz_mcu_boards/core_package/generate/drivers/r_cpg/src/hld\r_cpg_drv_api.c ****         return (DRV_ERROR);
 178:D:/Work/DeviceTester/amazon-freertos/lib/third_party/mcu_vendor/renesas/rz_mcu_boards/core_package/generate/drivers/r_cpg/src/hld\r_cpg_drv_api.c ****     }
 179:D:/Work/DeviceTester/amazon-freertos/lib/third_party/mcu_vendor/renesas/rz_mcu_boards/core_package/generate/drivers/r_cpg/src/hld\r_cpg_drv_api.c **** 
 180:D:/Work/DeviceTester/amazon-freertos/lib/third_party/mcu_vendor/renesas/rz_mcu_boards/core_package/generate/drivers/r_cpg/src/hld\r_cpg_drv_api.c ****     /* check if handle has write access */
 181:D:/Work/DeviceTester/amazon-freertos/lib/third_party/mcu_vendor/renesas/rz_mcu_boards/core_package/generate/drivers/r_cpg/src/hld\r_cpg_drv_api.c ****     if (0 == (stream_ptr->file_mode & __SWR))
 182:D:/Work/DeviceTester/amazon-freertos/lib/third_party/mcu_vendor/renesas/rz_mcu_boards/core_package/generate/drivers/r_cpg/src/hld\r_cpg_drv_api.c ****     {
 183:D:/Work/DeviceTester/amazon-freertos/lib/third_party/mcu_vendor/renesas/rz_mcu_boards/core_package/generate/drivers/r_cpg/src/hld\r_cpg_drv_api.c ****         /* no write access - fail as handle trying to call a write function */
 184:D:/Work/DeviceTester/amazon-freertos/lib/third_party/mcu_vendor/renesas/rz_mcu_boards/core_package/generate/drivers/r_cpg/src/hld\r_cpg_drv_api.c ****         if (CTL_CPG_GET_CLK != ctrl_code)
 185:D:/Work/DeviceTester/amazon-freertos/lib/third_party/mcu_vendor/renesas/rz_mcu_boards/core_package/generate/drivers/r_cpg/src/hld\r_cpg_drv_api.c ****         {
 186:D:/Work/DeviceTester/amazon-freertos/lib/third_party/mcu_vendor/renesas/rz_mcu_boards/core_package/generate/drivers/r_cpg/src/hld\r_cpg_drv_api.c ****             return (DRV_ERROR);
 187:D:/Work/DeviceTester/amazon-freertos/lib/third_party/mcu_vendor/renesas/rz_mcu_boards/core_package/generate/drivers/r_cpg/src/hld\r_cpg_drv_api.c ****         }
 188:D:/Work/DeviceTester/amazon-freertos/lib/third_party/mcu_vendor/renesas/rz_mcu_boards/core_package/generate/drivers/r_cpg/src/hld\r_cpg_drv_api.c ****     }
 189:D:/Work/DeviceTester/amazon-freertos/lib/third_party/mcu_vendor/renesas/rz_mcu_boards/core_package/generate/drivers/r_cpg/src/hld\r_cpg_drv_api.c ****     else
 190:D:/Work/DeviceTester/amazon-freertos/lib/third_party/mcu_vendor/renesas/rz_mcu_boards/core_package/generate/drivers/r_cpg/src/hld\r_cpg_drv_api.c ****     {
 191:D:/Work/DeviceTester/amazon-freertos/lib/third_party/mcu_vendor/renesas/rz_mcu_boards/core_package/generate/drivers/r_cpg/src/hld\r_cpg_drv_api.c ****         /* This is a writeable stream */
 192:D:/Work/DeviceTester/amazon-freertos/lib/third_party/mcu_vendor/renesas/rz_mcu_boards/core_package/generate/drivers/r_cpg/src/hld\r_cpg_drv_api.c ****         /* fail if the channel is not open */
 193:D:/Work/DeviceTester/amazon-freertos/lib/third_party/mcu_vendor/renesas/rz_mcu_boards/core_package/generate/drivers/r_cpg/src/hld\r_cpg_drv_api.c ****         if (0 == s_drv_config.gs_channel_open)
 194:D:/Work/DeviceTester/amazon-freertos/lib/third_party/mcu_vendor/renesas/rz_mcu_boards/core_package/generate/drivers/r_cpg/src/hld\r_cpg_drv_api.c ****         {
 195:D:/Work/DeviceTester/amazon-freertos/lib/third_party/mcu_vendor/renesas/rz_mcu_boards/core_package/generate/drivers/r_cpg/src/hld\r_cpg_drv_api.c ****             return (DRV_ERROR);
 196:D:/Work/DeviceTester/amazon-freertos/lib/third_party/mcu_vendor/renesas/rz_mcu_boards/core_package/generate/drivers/r_cpg/src/hld\r_cpg_drv_api.c ****         }
 197:D:/Work/DeviceTester/amazon-freertos/lib/third_party/mcu_vendor/renesas/rz_mcu_boards/core_package/generate/drivers/r_cpg/src/hld\r_cpg_drv_api.c ****     }
 198:D:/Work/DeviceTester/amazon-freertos/lib/third_party/mcu_vendor/renesas/rz_mcu_boards/core_package/generate/drivers/r_cpg/src/hld\r_cpg_drv_api.c **** 
 199:D:/Work/DeviceTester/amazon-freertos/lib/third_party/mcu_vendor/renesas/rz_mcu_boards/core_package/generate/drivers/r_cpg/src/hld\r_cpg_drv_api.c ****     /* check if handle has read access */
 200:D:/Work/DeviceTester/amazon-freertos/lib/third_party/mcu_vendor/renesas/rz_mcu_boards/core_package/generate/drivers/r_cpg/src/hld\r_cpg_drv_api.c ****     if (0 == (stream_ptr->file_mode & __SRD))
 201:D:/Work/DeviceTester/amazon-freertos/lib/third_party/mcu_vendor/renesas/rz_mcu_boards/core_package/generate/drivers/r_cpg/src/hld\r_cpg_drv_api.c ****     {
 202:D:/Work/DeviceTester/amazon-freertos/lib/third_party/mcu_vendor/renesas/rz_mcu_boards/core_package/generate/drivers/r_cpg/src/hld\r_cpg_drv_api.c ****         /* no read access - fail as handle trying to call a read function */
 203:D:/Work/DeviceTester/amazon-freertos/lib/third_party/mcu_vendor/renesas/rz_mcu_boards/core_package/generate/drivers/r_cpg/src/hld\r_cpg_drv_api.c ****         if (CTL_CPG_GET_CLK == ctrl_code)
 204:D:/Work/DeviceTester/amazon-freertos/lib/third_party/mcu_vendor/renesas/rz_mcu_boards/core_package/generate/drivers/r_cpg/src/hld\r_cpg_drv_api.c ****         {
 205:D:/Work/DeviceTester/amazon-freertos/lib/third_party/mcu_vendor/renesas/rz_mcu_boards/core_package/generate/drivers/r_cpg/src/hld\r_cpg_drv_api.c ****             return (DRV_ERROR);
 206:D:/Work/DeviceTester/amazon-freertos/lib/third_party/mcu_vendor/renesas/rz_mcu_boards/core_package/generate/drivers/r_cpg/src/hld\r_cpg_drv_api.c ****         }
 207:D:/Work/DeviceTester/amazon-freertos/lib/third_party/mcu_vendor/renesas/rz_mcu_boards/core_package/generate/drivers/r_cpg/src/hld\r_cpg_drv_api.c ****     }
 208:D:/Work/DeviceTester/amazon-freertos/lib/third_party/mcu_vendor/renesas/rz_mcu_boards/core_package/generate/drivers/r_cpg/src/hld\r_cpg_drv_api.c **** 
 209:D:/Work/DeviceTester/amazon-freertos/lib/third_party/mcu_vendor/renesas/rz_mcu_boards/core_package/generate/drivers/r_cpg/src/hld\r_cpg_drv_api.c ****     switch (ctrl_code)
 210:D:/Work/DeviceTester/amazon-freertos/lib/third_party/mcu_vendor/renesas/rz_mcu_boards/core_package/generate/drivers/r_cpg/src/hld\r_cpg_drv_api.c ****     {
 211:D:/Work/DeviceTester/amazon-freertos/lib/third_party/mcu_vendor/renesas/rz_mcu_boards/core_package/generate/drivers/r_cpg/src/hld\r_cpg_drv_api.c ****         case CTL_CPG_SET_XTAL_KHZ:
 212:D:/Work/DeviceTester/amazon-freertos/lib/third_party/mcu_vendor/renesas/rz_mcu_boards/core_package/generate/drivers/r_cpg/src/hld\r_cpg_drv_api.c ****         {
 213:D:/Work/DeviceTester/amazon-freertos/lib/third_party/mcu_vendor/renesas/rz_mcu_boards/core_package/generate/drivers/r_cpg/src/hld\r_cpg_drv_api.c ****             retval = R_CPG_SetXtalClock(*(float64_t *) ctrl_ptr);
 214:D:/Work/DeviceTester/amazon-freertos/lib/third_party/mcu_vendor/renesas/rz_mcu_boards/core_package/generate/drivers/r_cpg/src/hld\r_cpg_drv_api.c ****             break;
 215:D:/Work/DeviceTester/amazon-freertos/lib/third_party/mcu_vendor/renesas/rz_mcu_boards/core_package/generate/drivers/r_cpg/src/hld\r_cpg_drv_api.c ****         }
 216:D:/Work/DeviceTester/amazon-freertos/lib/third_party/mcu_vendor/renesas/rz_mcu_boards/core_package/generate/drivers/r_cpg/src/hld\r_cpg_drv_api.c **** 
 217:D:/Work/DeviceTester/amazon-freertos/lib/third_party/mcu_vendor/renesas/rz_mcu_boards/core_package/generate/drivers/r_cpg/src/hld\r_cpg_drv_api.c ****         case CTL_CPG_SET_MAIN_CLK:
 218:D:/Work/DeviceTester/amazon-freertos/lib/third_party/mcu_vendor/renesas/rz_mcu_boards/core_package/generate/drivers/r_cpg/src/hld\r_cpg_drv_api.c ****         {
 219:D:/Work/DeviceTester/amazon-freertos/lib/third_party/mcu_vendor/renesas/rz_mcu_boards/core_package/generate/drivers/r_cpg/src/hld\r_cpg_drv_api.c ****             /* set input clock */
 220:D:/Work/DeviceTester/amazon-freertos/lib/third_party/mcu_vendor/renesas/rz_mcu_boards/core_package/generate/drivers/r_cpg/src/hld\r_cpg_drv_api.c ****             retval = R_CPG_SetMainClock((st_r_drv_cpg_set_main_t *) ctrl_ptr);
 221:D:/Work/DeviceTester/amazon-freertos/lib/third_party/mcu_vendor/renesas/rz_mcu_boards/core_package/generate/drivers/r_cpg/src/hld\r_cpg_drv_api.c ****             break;
 222:D:/Work/DeviceTester/amazon-freertos/lib/third_party/mcu_vendor/renesas/rz_mcu_boards/core_package/generate/drivers/r_cpg/src/hld\r_cpg_drv_api.c ****         }
 223:D:/Work/DeviceTester/amazon-freertos/lib/third_party/mcu_vendor/renesas/rz_mcu_boards/core_package/generate/drivers/r_cpg/src/hld\r_cpg_drv_api.c **** 
 224:D:/Work/DeviceTester/amazon-freertos/lib/third_party/mcu_vendor/renesas/rz_mcu_boards/core_package/generate/drivers/r_cpg/src/hld\r_cpg_drv_api.c ****         case CTL_CPG_SET_SUB_CLK:
 225:D:/Work/DeviceTester/amazon-freertos/lib/third_party/mcu_vendor/renesas/rz_mcu_boards/core_package/generate/drivers/r_cpg/src/hld\r_cpg_drv_api.c ****         {
 226:D:/Work/DeviceTester/amazon-freertos/lib/third_party/mcu_vendor/renesas/rz_mcu_boards/core_package/generate/drivers/r_cpg/src/hld\r_cpg_drv_api.c ****             retval = R_CPG_SetSubClockDividers((st_r_drv_cpg_set_sub_t *) ctrl_ptr, 1);
 227:D:/Work/DeviceTester/amazon-freertos/lib/third_party/mcu_vendor/renesas/rz_mcu_boards/core_package/generate/drivers/r_cpg/src/hld\r_cpg_drv_api.c ****             break;
 228:D:/Work/DeviceTester/amazon-freertos/lib/third_party/mcu_vendor/renesas/rz_mcu_boards/core_package/generate/drivers/r_cpg/src/hld\r_cpg_drv_api.c ****         }
 229:D:/Work/DeviceTester/amazon-freertos/lib/third_party/mcu_vendor/renesas/rz_mcu_boards/core_package/generate/drivers/r_cpg/src/hld\r_cpg_drv_api.c **** 
 230:D:/Work/DeviceTester/amazon-freertos/lib/third_party/mcu_vendor/renesas/rz_mcu_boards/core_package/generate/drivers/r_cpg/src/hld\r_cpg_drv_api.c ****         case CTL_CPG_SET_CLK_SRC:
 231:D:/Work/DeviceTester/amazon-freertos/lib/third_party/mcu_vendor/renesas/rz_mcu_boards/core_package/generate/drivers/r_cpg/src/hld\r_cpg_drv_api.c ****         {
 232:D:/Work/DeviceTester/amazon-freertos/lib/third_party/mcu_vendor/renesas/rz_mcu_boards/core_package/generate/drivers/r_cpg/src/hld\r_cpg_drv_api.c ****             retval = R_CPG_SetSubClockSource((st_r_drv_cpg_set_src_t *) ctrl_ptr, 1);
 233:D:/Work/DeviceTester/amazon-freertos/lib/third_party/mcu_vendor/renesas/rz_mcu_boards/core_package/generate/drivers/r_cpg/src/hld\r_cpg_drv_api.c ****             break;
 234:D:/Work/DeviceTester/amazon-freertos/lib/third_party/mcu_vendor/renesas/rz_mcu_boards/core_package/generate/drivers/r_cpg/src/hld\r_cpg_drv_api.c ****         }
 235:D:/Work/DeviceTester/amazon-freertos/lib/third_party/mcu_vendor/renesas/rz_mcu_boards/core_package/generate/drivers/r_cpg/src/hld\r_cpg_drv_api.c **** 
 236:D:/Work/DeviceTester/amazon-freertos/lib/third_party/mcu_vendor/renesas/rz_mcu_boards/core_package/generate/drivers/r_cpg/src/hld\r_cpg_drv_api.c ****         case CTL_CPG_SET_EXT_CLK:
 237:D:/Work/DeviceTester/amazon-freertos/lib/third_party/mcu_vendor/renesas/rz_mcu_boards/core_package/generate/drivers/r_cpg/src/hld\r_cpg_drv_api.c ****         {
 238:D:/Work/DeviceTester/amazon-freertos/lib/third_party/mcu_vendor/renesas/rz_mcu_boards/core_package/generate/drivers/r_cpg/src/hld\r_cpg_drv_api.c ****             retval = R_CPG_ConfigExtClockPin((st_r_drv_cpg_ext_clk_t *) ctrl_ptr);
 239:D:/Work/DeviceTester/amazon-freertos/lib/third_party/mcu_vendor/renesas/rz_mcu_boards/core_package/generate/drivers/r_cpg/src/hld\r_cpg_drv_api.c ****             break;
 240:D:/Work/DeviceTester/amazon-freertos/lib/third_party/mcu_vendor/renesas/rz_mcu_boards/core_package/generate/drivers/r_cpg/src/hld\r_cpg_drv_api.c ****         }
 241:D:/Work/DeviceTester/amazon-freertos/lib/third_party/mcu_vendor/renesas/rz_mcu_boards/core_package/generate/drivers/r_cpg/src/hld\r_cpg_drv_api.c **** 
 242:D:/Work/DeviceTester/amazon-freertos/lib/third_party/mcu_vendor/renesas/rz_mcu_boards/core_package/generate/drivers/r_cpg/src/hld\r_cpg_drv_api.c ****         case CTL_CPG_GET_CLK:
 243:D:/Work/DeviceTester/amazon-freertos/lib/third_party/mcu_vendor/renesas/rz_mcu_boards/core_package/generate/drivers/r_cpg/src/hld\r_cpg_drv_api.c ****         {
 244:D:/Work/DeviceTester/amazon-freertos/lib/third_party/mcu_vendor/renesas/rz_mcu_boards/core_package/generate/drivers/r_cpg/src/hld\r_cpg_drv_api.c ****             st_r_drv_cpg_get_clk_t * p_cpg_get_clock_t = (st_r_drv_cpg_get_clk_t *) ctrl_ptr;
 245:D:/Work/DeviceTester/amazon-freertos/lib/third_party/mcu_vendor/renesas/rz_mcu_boards/core_package/generate/drivers/r_cpg/src/hld\r_cpg_drv_api.c **** 
 246:D:/Work/DeviceTester/amazon-freertos/lib/third_party/mcu_vendor/renesas/rz_mcu_boards/core_package/generate/drivers/r_cpg/src/hld\r_cpg_drv_api.c ****             retval = R_CPG_GetClock(p_cpg_get_clock_t->freq_src, &p_cpg_get_clock_t->clk_frequency_
 247:D:/Work/DeviceTester/amazon-freertos/lib/third_party/mcu_vendor/renesas/rz_mcu_boards/core_package/generate/drivers/r_cpg/src/hld\r_cpg_drv_api.c ****             break;
 248:D:/Work/DeviceTester/amazon-freertos/lib/third_party/mcu_vendor/renesas/rz_mcu_boards/core_package/generate/drivers/r_cpg/src/hld\r_cpg_drv_api.c ****         }
 249:D:/Work/DeviceTester/amazon-freertos/lib/third_party/mcu_vendor/renesas/rz_mcu_boards/core_package/generate/drivers/r_cpg/src/hld\r_cpg_drv_api.c **** 
 250:D:/Work/DeviceTester/amazon-freertos/lib/third_party/mcu_vendor/renesas/rz_mcu_boards/core_package/generate/drivers/r_cpg/src/hld\r_cpg_drv_api.c ****         case CTL_CPG_SET_SUB_CLK_MULTI:
 251:D:/Work/DeviceTester/amazon-freertos/lib/third_party/mcu_vendor/renesas/rz_mcu_boards/core_package/generate/drivers/r_cpg/src/hld\r_cpg_drv_api.c ****         {
 252:D:/Work/DeviceTester/amazon-freertos/lib/third_party/mcu_vendor/renesas/rz_mcu_boards/core_package/generate/drivers/r_cpg/src/hld\r_cpg_drv_api.c ****             /* get array of settings and length integer */
 253:D:/Work/DeviceTester/amazon-freertos/lib/third_party/mcu_vendor/renesas/rz_mcu_boards/core_package/generate/drivers/r_cpg/src/hld\r_cpg_drv_api.c ****             st_r_drv_cpg_set_sub_multi_t * p_sub_set_multi = (st_r_drv_cpg_set_sub_multi_t *) ctrl_
 254:D:/Work/DeviceTester/amazon-freertos/lib/third_party/mcu_vendor/renesas/rz_mcu_boards/core_package/generate/drivers/r_cpg/src/hld\r_cpg_drv_api.c **** 
 255:D:/Work/DeviceTester/amazon-freertos/lib/third_party/mcu_vendor/renesas/rz_mcu_boards/core_package/generate/drivers/r_cpg/src/hld\r_cpg_drv_api.c ****             /* set sub clocks */
 256:D:/Work/DeviceTester/amazon-freertos/lib/third_party/mcu_vendor/renesas/rz_mcu_boards/core_package/generate/drivers/r_cpg/src/hld\r_cpg_drv_api.c ****             retval = R_CPG_SetSubClockDividers(p_sub_set_multi->p_sub_clk_settings,
 257:D:/Work/DeviceTester/amazon-freertos/lib/third_party/mcu_vendor/renesas/rz_mcu_boards/core_package/generate/drivers/r_cpg/src/hld\r_cpg_drv_api.c ****                     p_sub_set_multi->number_of_settings);
 258:D:/Work/DeviceTester/amazon-freertos/lib/third_party/mcu_vendor/renesas/rz_mcu_boards/core_package/generate/drivers/r_cpg/src/hld\r_cpg_drv_api.c ****             break;
 259:D:/Work/DeviceTester/amazon-freertos/lib/third_party/mcu_vendor/renesas/rz_mcu_boards/core_package/generate/drivers/r_cpg/src/hld\r_cpg_drv_api.c ****         }
 260:D:/Work/DeviceTester/amazon-freertos/lib/third_party/mcu_vendor/renesas/rz_mcu_boards/core_package/generate/drivers/r_cpg/src/hld\r_cpg_drv_api.c **** 
 261:D:/Work/DeviceTester/amazon-freertos/lib/third_party/mcu_vendor/renesas/rz_mcu_boards/core_package/generate/drivers/r_cpg/src/hld\r_cpg_drv_api.c ****         default:
 262:D:/Work/DeviceTester/amazon-freertos/lib/third_party/mcu_vendor/renesas/rz_mcu_boards/core_package/generate/drivers/r_cpg/src/hld\r_cpg_drv_api.c ****         {
 263:D:/Work/DeviceTester/amazon-freertos/lib/third_party/mcu_vendor/renesas/rz_mcu_boards/core_package/generate/drivers/r_cpg/src/hld\r_cpg_drv_api.c ****             break;
 264:D:/Work/DeviceTester/amazon-freertos/lib/third_party/mcu_vendor/renesas/rz_mcu_boards/core_package/generate/drivers/r_cpg/src/hld\r_cpg_drv_api.c ****         }
 265:D:/Work/DeviceTester/amazon-freertos/lib/third_party/mcu_vendor/renesas/rz_mcu_boards/core_package/generate/drivers/r_cpg/src/hld\r_cpg_drv_api.c ****     }
 266:D:/Work/DeviceTester/amazon-freertos/lib/third_party/mcu_vendor/renesas/rz_mcu_boards/core_package/generate/drivers/r_cpg/src/hld\r_cpg_drv_api.c **** 
 267:D:/Work/DeviceTester/amazon-freertos/lib/third_party/mcu_vendor/renesas/rz_mcu_boards/core_package/generate/drivers/r_cpg/src/hld\r_cpg_drv_api.c ****     return (retval);
 268:D:/Work/DeviceTester/amazon-freertos/lib/third_party/mcu_vendor/renesas/rz_mcu_boards/core_package/generate/drivers/r_cpg/src/hld\r_cpg_drv_api.c **** }
 269:D:/Work/DeviceTester/amazon-freertos/lib/third_party/mcu_vendor/renesas/rz_mcu_boards/core_package/generate/drivers/r_cpg/src/hld\r_cpg_drv_api.c **** /******************************************************************************
 270:D:/Work/DeviceTester/amazon-freertos/lib/third_party/mcu_vendor/renesas/rz_mcu_boards/core_package/generate/drivers/r_cpg/src/hld\r_cpg_drv_api.c ****  End of function  cpg_control
 271:D:/Work/DeviceTester/amazon-freertos/lib/third_party/mcu_vendor/renesas/rz_mcu_boards/core_package/generate/drivers/r_cpg/src/hld\r_cpg_drv_api.c ****  ******************************************************************************/
 272:D:/Work/DeviceTester/amazon-freertos/lib/third_party/mcu_vendor/renesas/rz_mcu_boards/core_package/generate/drivers/r_cpg/src/hld\r_cpg_drv_api.c **** 
 273:D:/Work/DeviceTester/amazon-freertos/lib/third_party/mcu_vendor/renesas/rz_mcu_boards/core_package/generate/drivers/r_cpg/src/hld\r_cpg_drv_api.c **** /*******************************************************************************
 274:D:/Work/DeviceTester/amazon-freertos/lib/third_party/mcu_vendor/renesas/rz_mcu_boards/core_package/generate/drivers/r_cpg/src/hld\r_cpg_drv_api.c ****  * Function Name: cpg_get_version
 275:D:/Work/DeviceTester/amazon-freertos/lib/third_party/mcu_vendor/renesas/rz_mcu_boards/core_package/generate/drivers/r_cpg/src/hld\r_cpg_drv_api.c ****  * Description  : Provides build information even if driver fails to open
 276:D:/Work/DeviceTester/amazon-freertos/lib/third_party/mcu_vendor/renesas/rz_mcu_boards/core_package/generate/drivers/r_cpg/src/hld\r_cpg_drv_api.c ****  *                version information is updated by developer
 277:D:/Work/DeviceTester/amazon-freertos/lib/third_party/mcu_vendor/renesas/rz_mcu_boards/core_package/generate/drivers/r_cpg/src/hld\r_cpg_drv_api.c ****  * Arguments    : none
 278:D:/Work/DeviceTester/amazon-freertos/lib/third_party/mcu_vendor/renesas/rz_mcu_boards/core_package/generate/drivers/r_cpg/src/hld\r_cpg_drv_api.c ****  * Return Value : 0 (never fails)
 279:D:/Work/DeviceTester/amazon-freertos/lib/third_party/mcu_vendor/renesas/rz_mcu_boards/core_package/generate/drivers/r_cpg/src/hld\r_cpg_drv_api.c ****  ******************************************************************************/
 280:D:/Work/DeviceTester/amazon-freertos/lib/third_party/mcu_vendor/renesas/rz_mcu_boards/core_package/generate/drivers/r_cpg/src/hld\r_cpg_drv_api.c **** static int_t cpg_get_version (st_stream_ptr_t stream_ptr, st_ver_info_t *pVerInfo)
 281:D:/Work/DeviceTester/amazon-freertos/lib/third_party/mcu_vendor/renesas/rz_mcu_boards/core_package/generate/drivers/r_cpg/src/hld\r_cpg_drv_api.c **** {
  58              		.loc 1 281 0
  59              		.cfi_startproc
  60              		@ args = 0, pretend = 0, frame = 0
  61              		@ frame_needed = 0, uses_anonymous_args = 0
  62              		@ link register save eliminated.
  63              	.LVL1:
 282:D:/Work/DeviceTester/amazon-freertos/lib/third_party/mcu_vendor/renesas/rz_mcu_boards/core_package/generate/drivers/r_cpg/src/hld\r_cpg_drv_api.c ****     /* unused argument, kept to maintain defined API */
 283:D:/Work/DeviceTester/amazon-freertos/lib/third_party/mcu_vendor/renesas/rz_mcu_boards/core_package/generate/drivers/r_cpg/src/hld\r_cpg_drv_api.c ****     (void) stream_ptr;
 284:D:/Work/DeviceTester/amazon-freertos/lib/third_party/mcu_vendor/renesas/rz_mcu_boards/core_package/generate/drivers/r_cpg/src/hld\r_cpg_drv_api.c **** 
 285:D:/Work/DeviceTester/amazon-freertos/lib/third_party/mcu_vendor/renesas/rz_mcu_boards/core_package/generate/drivers/r_cpg/src/hld\r_cpg_drv_api.c ****     pVerInfo->hld.version.sub.major = gs_hld_info.version.sub.major;
  64              		.loc 1 285 0
  65 0000 0130A0E3 		mov	r3, #1
 286:D:/Work/DeviceTester/amazon-freertos/lib/third_party/mcu_vendor/renesas/rz_mcu_boards/core_package/generate/drivers/r_cpg/src/hld\r_cpg_drv_api.c ****     pVerInfo->hld.version.sub.minor = gs_hld_info.version.sub.minor;
 287:D:/Work/DeviceTester/amazon-freertos/lib/third_party/mcu_vendor/renesas/rz_mcu_boards/core_package/generate/drivers/r_cpg/src/hld\r_cpg_drv_api.c ****     pVerInfo->hld.build = gs_hld_info.build;
 288:D:/Work/DeviceTester/amazon-freertos/lib/third_party/mcu_vendor/renesas/rz_mcu_boards/core_package/generate/drivers/r_cpg/src/hld\r_cpg_drv_api.c ****     pVerInfo->hld.p_szdriver_name = gs_hld_info.p_szdriver_name;
 289:D:/Work/DeviceTester/amazon-freertos/lib/third_party/mcu_vendor/renesas/rz_mcu_boards/core_package/generate/drivers/r_cpg/src/hld\r_cpg_drv_api.c **** 
 290:D:/Work/DeviceTester/amazon-freertos/lib/third_party/mcu_vendor/renesas/rz_mcu_boards/core_package/generate/drivers/r_cpg/src/hld\r_cpg_drv_api.c ****     /* Obtain version information from Low layer Driver */
 291:D:/Work/DeviceTester/amazon-freertos/lib/third_party/mcu_vendor/renesas/rz_mcu_boards/core_package/generate/drivers/r_cpg/src/hld\r_cpg_drv_api.c ****     return (R_CPG_GetVersion(pVerInfo));
  66              		.loc 1 291 0
  67 0004 0100A0E1 		mov	r0, r1
  68              	.LVL2:
 285:D:/Work/DeviceTester/amazon-freertos/lib/third_party/mcu_vendor/renesas/rz_mcu_boards/core_package/generate/drivers/r_cpg/src/hld\r_cpg_drv_api.c ****     pVerInfo->hld.version.sub.minor = gs_hld_info.version.sub.minor;
  69              		.loc 1 285 0
  70 0008 B230C1E1 		strh	r3, [r1, #2]	@ movhi
 286:D:/Work/DeviceTester/amazon-freertos/lib/third_party/mcu_vendor/renesas/rz_mcu_boards/core_package/generate/drivers/r_cpg/src/hld\r_cpg_drv_api.c ****     pVerInfo->hld.version.sub.minor = gs_hld_info.version.sub.minor;
  71              		.loc 1 286 0
  72 000c 0530A0E3 		mov	r3, #5
  73 0010 B030C1E1 		strh	r3, [r1]	@ movhi
 287:D:/Work/DeviceTester/amazon-freertos/lib/third_party/mcu_vendor/renesas/rz_mcu_boards/core_package/generate/drivers/r_cpg/src/hld\r_cpg_drv_api.c ****     pVerInfo->hld.p_szdriver_name = gs_hld_info.p_szdriver_name;
  74              		.loc 1 287 0
  75 0014 0030A0E3 		mov	r3, #0
  76 0018 043081E5 		str	r3, [r1, #4]
 288:D:/Work/DeviceTester/amazon-freertos/lib/third_party/mcu_vendor/renesas/rz_mcu_boards/core_package/generate/drivers/r_cpg/src/hld\r_cpg_drv_api.c **** 
  77              		.loc 1 288 0
  78 001c 04309FE5 		ldr	r3, .L12
  79 0020 083081E5 		str	r3, [r1, #8]
  80              		.loc 1 291 0
  81 0024 FEFFFFEA 		b	R_CPG_GetVersion
  82              	.LVL3:
  83              	.L13:
  84              		.align	2
  85              	.L12:
  86 0028 00000000 		.word	.LC0
  87              		.cfi_endproc
  88              	.LFE4:
  90              		.section	.text.cpg_control,"ax",%progbits
  91              		.align	2
  92              		.syntax unified
  93              		.arm
  94              		.fpu neon
  96              	cpg_control:
  97              	.LFB3:
 171:D:/Work/DeviceTester/amazon-freertos/lib/third_party/mcu_vendor/renesas/rz_mcu_boards/core_package/generate/drivers/r_cpg/src/hld\r_cpg_drv_api.c ****     int_t retval = DRV_ERROR;
  98              		.loc 1 171 0
  99              		.cfi_startproc
 100              		@ args = 0, pretend = 0, frame = 0
 101              		@ frame_needed = 0, uses_anonymous_args = 0
 102              		@ link register save eliminated.
 103              	.LVL4:
 171:D:/Work/DeviceTester/amazon-freertos/lib/third_party/mcu_vendor/renesas/rz_mcu_boards/core_package/generate/drivers/r_cpg/src/hld\r_cpg_drv_api.c ****     int_t retval = DRV_ERROR;
 104              		.loc 1 171 0
 105 0000 0030A0E1 		mov	r3, r0
 175:D:/Work/DeviceTester/amazon-freertos/lib/third_party/mcu_vendor/renesas/rz_mcu_boards/core_package/generate/drivers/r_cpg/src/hld\r_cpg_drv_api.c ****     {
 106              		.loc 1 175 0
 107 0004 000052E2 		subs	r0, r2, #0
 108              	.LVL5:
 109 0008 0400000A 		beq	.L14
 181:D:/Work/DeviceTester/amazon-freertos/lib/third_party/mcu_vendor/renesas/rz_mcu_boards/core_package/generate/drivers/r_cpg/src/hld\r_cpg_drv_api.c ****     {
 110              		.loc 1 181 0
 111 000c 143093E5 		ldr	r3, [r3, #20]
 112              	.LVL6:
 113 0010 080013E3 		tst	r3, #8
 114 0014 0300001A 		bne	.L16
 184:D:/Work/DeviceTester/amazon-freertos/lib/third_party/mcu_vendor/renesas/rz_mcu_boards/core_package/generate/drivers/r_cpg/src/hld\r_cpg_drv_api.c ****         {
 115              		.loc 1 184 0
 116 0018 060051E3 		cmp	r1, #6
 117 001c 0500000A 		beq	.L17
 118              	.LVL7:
 119              	.L14:
 268:D:/Work/DeviceTester/amazon-freertos/lib/third_party/mcu_vendor/renesas/rz_mcu_boards/core_package/generate/drivers/r_cpg/src/hld\r_cpg_drv_api.c **** /******************************************************************************
 120              		.loc 1 268 0
 121 0020 0000E0E3 		mvn	r0, #0
 122              	.LVL8:
 123 0024 1EFF2FE1 		bx	lr
 124              	.LVL9:
 125              	.L16:
 193:D:/Work/DeviceTester/amazon-freertos/lib/third_party/mcu_vendor/renesas/rz_mcu_boards/core_package/generate/drivers/r_cpg/src/hld\r_cpg_drv_api.c ****         {
 126              		.loc 1 193 0
 127 0028 80209FE5 		ldr	r2, .L34
 128 002c B020D2E1 		ldrh	r2, [r2]
 129 0030 000052E3 		cmp	r2, #0
 130 0034 F9FFFF0A 		beq	.L14
 131              	.L17:
 203:D:/Work/DeviceTester/amazon-freertos/lib/third_party/mcu_vendor/renesas/rz_mcu_boards/core_package/generate/drivers/r_cpg/src/hld\r_cpg_drv_api.c ****         {
 132              		.loc 1 203 0
 133 0038 062041E2 		sub	r2, r1, #6
 200:D:/Work/DeviceTester/amazon-freertos/lib/third_party/mcu_vendor/renesas/rz_mcu_boards/core_package/generate/drivers/r_cpg/src/hld\r_cpg_drv_api.c ****     {
 134              		.loc 1 200 0
 135 003c 043023E2 		eor	r3, r3, #4
 203:D:/Work/DeviceTester/amazon-freertos/lib/third_party/mcu_vendor/renesas/rz_mcu_boards/core_package/generate/drivers/r_cpg/src/hld\r_cpg_drv_api.c ****         {
 136              		.loc 1 203 0
 137 0040 122F6FE1 		clz	r2, r2
 138 0044 A222A0E1 		lsr	r2, r2, #5
 139 0048 233112E0 		ands	r3, r2, r3, lsr #2
 140 004c F3FFFF1A 		bne	.L14
 209:D:/Work/DeviceTester/amazon-freertos/lib/third_party/mcu_vendor/renesas/rz_mcu_boards/core_package/generate/drivers/r_cpg/src/hld\r_cpg_drv_api.c ****     {
 141              		.loc 1 209 0
 142 0050 011041E2 		sub	r1, r1, #1
 143              	.LVL10:
 144 0054 060051E3 		cmp	r1, #6
 145 0058 01F19F97 		ldrls	pc, [pc, r1, asl #2]
 146 005c EFFFFFEA 		b	.L14
 147              	.L19:
 148 0060 7C000000 		.word	.L18
 149 0064 84000000 		.word	.L20
 150 0068 88000000 		.word	.L21
 151 006c 90000000 		.word	.L22
 152 0070 98000000 		.word	.L23
 153 0074 9C000000 		.word	.L24
 154 0078 A8000000 		.word	.L25
 155              	.L18:
 213:D:/Work/DeviceTester/amazon-freertos/lib/third_party/mcu_vendor/renesas/rz_mcu_boards/core_package/generate/drivers/r_cpg/src/hld\r_cpg_drv_api.c ****             break;
 156              		.loc 1 213 0
 157 007c 000B90ED 		vldr.64	d0, [r0]
 158 0080 FEFFFFEA 		b	R_CPG_SetXtalClock
 159              	.LVL11:
 160              	.L20:
 220:D:/Work/DeviceTester/amazon-freertos/lib/third_party/mcu_vendor/renesas/rz_mcu_boards/core_package/generate/drivers/r_cpg/src/hld\r_cpg_drv_api.c ****             break;
 161              		.loc 1 220 0
 162 0084 FEFFFFEA 		b	R_CPG_SetMainClock
 163              	.LVL12:
 164              	.L21:
 226:D:/Work/DeviceTester/amazon-freertos/lib/third_party/mcu_vendor/renesas/rz_mcu_boards/core_package/generate/drivers/r_cpg/src/hld\r_cpg_drv_api.c ****             break;
 165              		.loc 1 226 0
 166 0088 0110A0E3 		mov	r1, #1
 167              	.LVL13:
 168              	.L33:
 169              	.LBB2:
 256:D:/Work/DeviceTester/amazon-freertos/lib/third_party/mcu_vendor/renesas/rz_mcu_boards/core_package/generate/drivers/r_cpg/src/hld\r_cpg_drv_api.c ****                     p_sub_set_multi->number_of_settings);
 170              		.loc 1 256 0
 171 008c FEFFFFEA 		b	R_CPG_SetSubClockDividers
 172              	.LVL14:
 173              	.L22:
 174              	.LBE2:
 232:D:/Work/DeviceTester/amazon-freertos/lib/third_party/mcu_vendor/renesas/rz_mcu_boards/core_package/generate/drivers/r_cpg/src/hld\r_cpg_drv_api.c ****             break;
 175              		.loc 1 232 0
 176 0090 0110A0E3 		mov	r1, #1
 177 0094 FEFFFFEA 		b	R_CPG_SetSubClockSource
 178              	.LVL15:
 179              	.L23:
 238:D:/Work/DeviceTester/amazon-freertos/lib/third_party/mcu_vendor/renesas/rz_mcu_boards/core_package/generate/drivers/r_cpg/src/hld\r_cpg_drv_api.c ****             break;
 180              		.loc 1 238 0
 181 0098 FEFFFFEA 		b	R_CPG_ConfigExtClockPin
 182              	.LVL16:
 183              	.L24:
 184              	.LBB3:
 246:D:/Work/DeviceTester/amazon-freertos/lib/third_party/mcu_vendor/renesas/rz_mcu_boards/core_package/generate/drivers/r_cpg/src/hld\r_cpg_drv_api.c ****             break;
 185              		.loc 1 246 0
 186 009c 081080E2 		add	r1, r0, #8
 187 00a0 0000D0E5 		ldrb	r0, [r0]	@ zero_extendqisi2
 188              	.LVL17:
 189 00a4 FEFFFFEA 		b	R_CPG_GetClock
 190              	.LVL18:
 191              	.L25:
 192              	.LBE3:
 193              	.LBB4:
 256:D:/Work/DeviceTester/amazon-freertos/lib/third_party/mcu_vendor/renesas/rz_mcu_boards/core_package/generate/drivers/r_cpg/src/hld\r_cpg_drv_api.c ****                     p_sub_set_multi->number_of_settings);
 194              		.loc 1 256 0
 195 00a8 030090E8 		ldm	r0, {r0, r1}
 196              	.LVL19:
 197 00ac F6FFFFEA 		b	.L33
 198              	.L35:
 199              		.align	2
 200              	.L34:
 201 00b0 00000000 		.word	.LANCHOR0
 202              	.LBE4:
 203              		.cfi_endproc
 204              	.LFE3:
 206              		.section	.text.cpg_open,"ax",%progbits
 207              		.align	2
 208              		.syntax unified
 209              		.arm
 210              		.fpu neon
 212              	cpg_open:
 213              	.LFB1:
 112:D:/Work/DeviceTester/amazon-freertos/lib/third_party/mcu_vendor/renesas/rz_mcu_boards/core_package/generate/drivers/r_cpg/src/hld\r_cpg_drv_api.c ****     int_t ret = DRV_SUCCESS;
 214              		.loc 1 112 0
 215              		.cfi_startproc
 216              		@ args = 0, pretend = 0, frame = 0
 217              		@ frame_needed = 0, uses_anonymous_args = 0
 218              	.LVL20:
 115:D:/Work/DeviceTester/amazon-freertos/lib/third_party/mcu_vendor/renesas/rz_mcu_boards/core_package/generate/drivers/r_cpg/src/hld\r_cpg_drv_api.c ****     {
 219              		.loc 1 115 0
 220 0000 44309FE5 		ldr	r3, .L44
 112:D:/Work/DeviceTester/amazon-freertos/lib/third_party/mcu_vendor/renesas/rz_mcu_boards/core_package/generate/drivers/r_cpg/src/hld\r_cpg_drv_api.c ****     int_t ret = DRV_SUCCESS;
 221              		.loc 1 112 0
 222 0004 10402DE9 		push	{r4, lr}
 223              		.cfi_def_cfa_offset 8
 224              		.cfi_offset 4, -8
 225              		.cfi_offset 14, -4
 112:D:/Work/DeviceTester/amazon-freertos/lib/third_party/mcu_vendor/renesas/rz_mcu_boards/core_package/generate/drivers/r_cpg/src/hld\r_cpg_drv_api.c ****     int_t ret = DRV_SUCCESS;
 226              		.loc 1 112 0
 227 0008 0040A0E1 		mov	r4, r0
 115:D:/Work/DeviceTester/amazon-freertos/lib/third_party/mcu_vendor/renesas/rz_mcu_boards/core_package/generate/drivers/r_cpg/src/hld\r_cpg_drv_api.c ****     {
 228              		.loc 1 115 0
 229 000c 002093E5 		ldr	r2, [r3]
 230 0010 000052E3 		cmp	r2, #0
 231 0014 0200001A 		bne	.L37
 117:D:/Work/DeviceTester/amazon-freertos/lib/third_party/mcu_vendor/renesas/rz_mcu_boards/core_package/generate/drivers/r_cpg/src/hld\r_cpg_drv_api.c ****         R_CPG_InitialiseHwIf();
 232              		.loc 1 117 0
 233 0018 0120A0E3 		mov	r2, #1
 234 001c 002083E5 		str	r2, [r3]
 118:D:/Work/DeviceTester/amazon-freertos/lib/third_party/mcu_vendor/renesas/rz_mcu_boards/core_package/generate/drivers/r_cpg/src/hld\r_cpg_drv_api.c ****     }
 235              		.loc 1 118 0
 236 0020 FEFFFFEB 		bl	R_CPG_InitialiseHwIf
 237              	.LVL21:
 238              	.L37:
 121:D:/Work/DeviceTester/amazon-freertos/lib/third_party/mcu_vendor/renesas/rz_mcu_boards/core_package/generate/drivers/r_cpg/src/hld\r_cpg_drv_api.c ****     {
 239              		.loc 1 121 0
 240 0024 140094E5 		ldr	r0, [r4, #20]
 241 0028 080010E2 		ands	r0, r0, #8
 242 002c 1080BD08 		popeq	{r4, pc}
 125:D:/Work/DeviceTester/amazon-freertos/lib/third_party/mcu_vendor/renesas/rz_mcu_boards/core_package/generate/drivers/r_cpg/src/hld\r_cpg_drv_api.c ****         {
 243              		.loc 1 125 0
 244 0030 18309FE5 		ldr	r3, .L44+4
 245 0034 B000D3E1 		ldrh	r0, [r3]
 246 0038 000050E3 		cmp	r0, #0
 128:D:/Work/DeviceTester/amazon-freertos/lib/third_party/mcu_vendor/renesas/rz_mcu_boards/core_package/generate/drivers/r_cpg/src/hld\r_cpg_drv_api.c ****         }
 247              		.loc 1 128 0
 248 003c 0120A003 		moveq	r2, #1
 133:D:/Work/DeviceTester/amazon-freertos/lib/third_party/mcu_vendor/renesas/rz_mcu_boards/core_package/generate/drivers/r_cpg/src/hld\r_cpg_drv_api.c ****         }
 249              		.loc 1 133 0
 250 0040 0000E013 		mvnne	r0, #0
 251              	.LVL22:
 128:D:/Work/DeviceTester/amazon-freertos/lib/third_party/mcu_vendor/renesas/rz_mcu_boards/core_package/generate/drivers/r_cpg/src/hld\r_cpg_drv_api.c ****         }
 252              		.loc 1 128 0
 253 0044 B020C301 		strheq	r2, [r3]	@ movhi
 138:D:/Work/DeviceTester/amazon-freertos/lib/third_party/mcu_vendor/renesas/rz_mcu_boards/core_package/generate/drivers/r_cpg/src/hld\r_cpg_drv_api.c **** /******************************************************************************
 254              		.loc 1 138 0
 255 0048 1080BDE8 		pop	{r4, pc}
 256              	.L45:
 257              		.align	2
 258              	.L44:
 259 004c 00000000 		.word	.LANCHOR1
 260 0050 00000000 		.word	.LANCHOR0
 261              		.cfi_endproc
 262              	.LFE1:
 264              		.global	g_cpg_driver
 265              		.section	.bss.gs_drv_cpg_is_initialized,"aw",%nobits
 266              		.align	2
 267              		.set	.LANCHOR1,. + 0
 270              	gs_drv_cpg_is_initialized:
 271 0000 00000000 		.space	4
 272              		.section	.bss.s_drv_config,"aw",%nobits
 273              		.align	1
 274              		.set	.LANCHOR0,. + 0
 277              	s_drv_config:
 278 0000 0000     		.space	2
 279              		.section	.rodata.cpg_get_version.str1.1,"aMS",%progbits,1
 280              	.LC0:
 281 0000 484C4420 		.ascii	"HLD CPG\000"
 281      43504700 
 282              		.section	.rodata.g_cpg_driver,"a",%progbits
 283              		.align	2
 286              	g_cpg_driver:
 287 0000 00000000 		.word	.LC1
 288 0004 00000000 		.word	cpg_open
 289 0008 00000000 		.word	cpg_close
 290 000c 00000000 		.word	no_dev_read
 291 0010 00000000 		.word	no_dev_write
 292 0014 00000000 		.word	cpg_control
 293 0018 00000000 		.word	cpg_get_version
 294              		.section	.rodata.str1.1,"aMS",%progbits,1
 295              	.LC1:
 296 0000 43504720 		.ascii	"CPG Device Driver\000"
 296      44657669 
 296      63652044 
 296      72697665 
 296      7200
 297              		.text
 298              	.Letext0:
 299              		.file 2 "c:\\program files (x86)\\gnu tools arm embedded\\6 2017-q2-update\\arm-none-eabi\\include
 300              		.file 3 "c:\\program files (x86)\\gnu tools arm embedded\\6 2017-q2-update\\arm-none-eabi\\include
 301              		.file 4 "c:\\program files (x86)\\gnu tools arm embedded\\6 2017-q2-update\\arm-none-eabi\\include
 302              		.file 5 "c:\\program files (x86)\\gnu tools arm embedded\\6 2017-q2-update\\lib\\gcc\\arm-none-eab
 303              		.file 6 "c:\\program files (x86)\\gnu tools arm embedded\\6 2017-q2-update\\arm-none-eabi\\include
 304              		.file 7 "c:\\program files (x86)\\gnu tools arm embedded\\6 2017-q2-update\\arm-none-eabi\\include
 305              		.file 8 "c:\\program files (x86)\\gnu tools arm embedded\\6 2017-q2-update\\arm-none-eabi\\include
 306              		.file 9 "D:\\Work\\DeviceTester\\amazon-freertos\\lib\\third_party\\mcu_vendor\\renesas\\rz_mcu_bo
 307              		.file 10 "c:\\program files (x86)\\gnu tools arm embedded\\6 2017-q2-update\\arm-none-eabi\\includ
 308              		.file 11 "c:\\program files (x86)\\gnu tools arm embedded\\6 2017-q2-update\\arm-none-eabi\\includ
 309              		.file 12 "D:\\Work\\DeviceTester\\amazon-freertos\\lib\\third_party\\mcu_vendor\\renesas\\rz_mcu_b
 310              		.file 13 "D:\\Work\\DeviceTester\\amazon-freertos\\lib\\third_party\\mcu_vendor\\renesas\\rz_mcu_b
 311              		.file 14 "D:\\Work\\DeviceTester\\amazon-freertos\\lib\\third_party\\mcu_vendor\\renesas\\rz_mcu_b
 312              		.file 15 "D:\\Work\\DeviceTester\\amazon-freertos\\lib\\third_party\\mcu_vendor\\renesas\\rz_mcu_b