   1              		.cpu cortex-a9
   2              		.eabi_attribute 28, 1
   3              		.eabi_attribute 20, 1
   4              		.eabi_attribute 21, 1
   5              		.eabi_attribute 23, 3
   6              		.eabi_attribute 24, 1
   7              		.eabi_attribute 25, 1
   8              		.eabi_attribute 26, 1
   9              		.eabi_attribute 30, 4
  10              		.eabi_attribute 34, 0
  11              		.eabi_attribute 18, 4
  12              		.file	"r_rza2_scifa_lld.c"
  13              		.text
  14              	.Ltext0:
  15              		.cfi_sections	.debug_frame
  16              		.section	.text.R_SCIFA_Start,"ax",%progbits
  17              		.align	2
  18              		.global	R_SCIFA_Start
  19              		.syntax unified
  20              		.arm
  21              		.fpu neon
  23              	R_SCIFA_Start:
  24              	.LFB1:
  25              		.file 1 "D:/Work/DeviceTester/amazon-freertos/lib/third_party/mcu_vendor/renesas/rz_mcu_boards/cor
   1:D:/Work/DeviceTester/amazon-freertos/lib/third_party/mcu_vendor/renesas/rz_mcu_boards/core_package/generate/sc_drivers/r_scifa/src/lld\r_rza2_scifa_lld.c **** /**************************************************************************************************
   2:D:/Work/DeviceTester/amazon-freertos/lib/third_party/mcu_vendor/renesas/rz_mcu_boards/core_package/generate/sc_drivers/r_scifa/src/lld\r_rza2_scifa_lld.c ****  * DISCLAIMER
   3:D:/Work/DeviceTester/amazon-freertos/lib/third_party/mcu_vendor/renesas/rz_mcu_boards/core_package/generate/sc_drivers/r_scifa/src/lld\r_rza2_scifa_lld.c ****  * This software is supplied by Renesas Electronics Corporation and is only
   4:D:/Work/DeviceTester/amazon-freertos/lib/third_party/mcu_vendor/renesas/rz_mcu_boards/core_package/generate/sc_drivers/r_scifa/src/lld\r_rza2_scifa_lld.c ****  * intended for use with Renesas products. No other uses are authorized. This
   5:D:/Work/DeviceTester/amazon-freertos/lib/third_party/mcu_vendor/renesas/rz_mcu_boards/core_package/generate/sc_drivers/r_scifa/src/lld\r_rza2_scifa_lld.c ****  * software is owned by Renesas Electronics Corporation and is protected under
   6:D:/Work/DeviceTester/amazon-freertos/lib/third_party/mcu_vendor/renesas/rz_mcu_boards/core_package/generate/sc_drivers/r_scifa/src/lld\r_rza2_scifa_lld.c ****  * all applicable laws, including copyright laws.
   7:D:/Work/DeviceTester/amazon-freertos/lib/third_party/mcu_vendor/renesas/rz_mcu_boards/core_package/generate/sc_drivers/r_scifa/src/lld\r_rza2_scifa_lld.c ****  * THIS SOFTWARE IS PROVIDED "AS IS" AND RENESAS MAKES NO WARRANTIES REGARDING
   8:D:/Work/DeviceTester/amazon-freertos/lib/third_party/mcu_vendor/renesas/rz_mcu_boards/core_package/generate/sc_drivers/r_scifa/src/lld\r_rza2_scifa_lld.c ****  * THIS SOFTWARE, WHETHER EXPRESS, IMPLIED OR STATUTORY, INCLUDING BUT NOT
   9:D:/Work/DeviceTester/amazon-freertos/lib/third_party/mcu_vendor/renesas/rz_mcu_boards/core_package/generate/sc_drivers/r_scifa/src/lld\r_rza2_scifa_lld.c ****  * LIMITED TO WARRANTIES OF MERCHANTABILITY, FITNESS FOR A PARTICULAR PURPOSE
  10:D:/Work/DeviceTester/amazon-freertos/lib/third_party/mcu_vendor/renesas/rz_mcu_boards/core_package/generate/sc_drivers/r_scifa/src/lld\r_rza2_scifa_lld.c ****  * AND NON-INFRINGEMENT. ALL SUCH WARRANTIES ARE EXPRESSLY DISCLAIMED.
  11:D:/Work/DeviceTester/amazon-freertos/lib/third_party/mcu_vendor/renesas/rz_mcu_boards/core_package/generate/sc_drivers/r_scifa/src/lld\r_rza2_scifa_lld.c ****  * TO THE MAXIMUM EXTENT PERMITTED NOT PROHIBITED BY LAW, NEITHER RENESAS
  12:D:/Work/DeviceTester/amazon-freertos/lib/third_party/mcu_vendor/renesas/rz_mcu_boards/core_package/generate/sc_drivers/r_scifa/src/lld\r_rza2_scifa_lld.c ****  * ELECTRONICS CORPORATION NOR ANY OF ITS AFFILIATED COMPANIES SHALL BE LIABLE
  13:D:/Work/DeviceTester/amazon-freertos/lib/third_party/mcu_vendor/renesas/rz_mcu_boards/core_package/generate/sc_drivers/r_scifa/src/lld\r_rza2_scifa_lld.c ****  * FOR ANY DIRECT, INDIRECT, SPECIAL, INCIDENTAL OR CONSEQUENTIAL DAMAGES FOR
  14:D:/Work/DeviceTester/amazon-freertos/lib/third_party/mcu_vendor/renesas/rz_mcu_boards/core_package/generate/sc_drivers/r_scifa/src/lld\r_rza2_scifa_lld.c ****  * ANY REASON RELATED TO THIS SOFTWARE, EVEN IF RENESAS OR ITS AFFILIATES HAVE
  15:D:/Work/DeviceTester/amazon-freertos/lib/third_party/mcu_vendor/renesas/rz_mcu_boards/core_package/generate/sc_drivers/r_scifa/src/lld\r_rza2_scifa_lld.c ****  * BEEN ADVISED OF THE POSSIBILITY OF SUCH DAMAGES.
  16:D:/Work/DeviceTester/amazon-freertos/lib/third_party/mcu_vendor/renesas/rz_mcu_boards/core_package/generate/sc_drivers/r_scifa/src/lld\r_rza2_scifa_lld.c ****  * Renesas reserves the right, without notice, to make changes to this software
  17:D:/Work/DeviceTester/amazon-freertos/lib/third_party/mcu_vendor/renesas/rz_mcu_boards/core_package/generate/sc_drivers/r_scifa/src/lld\r_rza2_scifa_lld.c ****  * and to discontinue the availability of this software. By using this software,
  18:D:/Work/DeviceTester/amazon-freertos/lib/third_party/mcu_vendor/renesas/rz_mcu_boards/core_package/generate/sc_drivers/r_scifa/src/lld\r_rza2_scifa_lld.c ****  * you agree to the additional terms and conditions found by accessing the
  19:D:/Work/DeviceTester/amazon-freertos/lib/third_party/mcu_vendor/renesas/rz_mcu_boards/core_package/generate/sc_drivers/r_scifa/src/lld\r_rza2_scifa_lld.c ****  * following link:
  20:D:/Work/DeviceTester/amazon-freertos/lib/third_party/mcu_vendor/renesas/rz_mcu_boards/core_package/generate/sc_drivers/r_scifa/src/lld\r_rza2_scifa_lld.c ****  * http://www.renesas.com/disclaimer
  21:D:/Work/DeviceTester/amazon-freertos/lib/third_party/mcu_vendor/renesas/rz_mcu_boards/core_package/generate/sc_drivers/r_scifa/src/lld\r_rza2_scifa_lld.c ****  *
  22:D:/Work/DeviceTester/amazon-freertos/lib/third_party/mcu_vendor/renesas/rz_mcu_boards/core_package/generate/sc_drivers/r_scifa/src/lld\r_rza2_scifa_lld.c ****  * Copyright (C) 2019 Renesas Electronics Corporation. All rights reserved.
  23:D:/Work/DeviceTester/amazon-freertos/lib/third_party/mcu_vendor/renesas/rz_mcu_boards/core_package/generate/sc_drivers/r_scifa/src/lld\r_rza2_scifa_lld.c ****  **************************************************************************************************
  24:D:/Work/DeviceTester/amazon-freertos/lib/third_party/mcu_vendor/renesas/rz_mcu_boards/core_package/generate/sc_drivers/r_scifa/src/lld\r_rza2_scifa_lld.c **** /**************************************************************************************************
  25:D:/Work/DeviceTester/amazon-freertos/lib/third_party/mcu_vendor/renesas/rz_mcu_boards/core_package/generate/sc_drivers/r_scifa/src/lld\r_rza2_scifa_lld.c ****  * @file          r_rza2_scifa_lld.c
  26:D:/Work/DeviceTester/amazon-freertos/lib/third_party/mcu_vendor/renesas/rz_mcu_boards/core_package/generate/sc_drivers/r_scifa/src/lld\r_rza2_scifa_lld.c ****  * Device(s)      RZ/A2
  27:D:/Work/DeviceTester/amazon-freertos/lib/third_party/mcu_vendor/renesas/rz_mcu_boards/core_package/generate/sc_drivers/r_scifa/src/lld\r_rza2_scifa_lld.c ****  * Tool-Chain     GCC ARM Embedded 5.4 2016q3
  28:D:/Work/DeviceTester/amazon-freertos/lib/third_party/mcu_vendor/renesas/rz_mcu_boards/core_package/generate/sc_drivers/r_scifa/src/lld\r_rza2_scifa_lld.c ****  * H/W Platform   RZ/A2
  29:D:/Work/DeviceTester/amazon-freertos/lib/third_party/mcu_vendor/renesas/rz_mcu_boards/core_package/generate/sc_drivers/r_scifa/src/lld\r_rza2_scifa_lld.c ****  * @brief         SCIFA Low Layer Driver
  30:D:/Work/DeviceTester/amazon-freertos/lib/third_party/mcu_vendor/renesas/rz_mcu_boards/core_package/generate/sc_drivers/r_scifa/src/lld\r_rza2_scifa_lld.c ****  **************************************************************************************************
  31:D:/Work/DeviceTester/amazon-freertos/lib/third_party/mcu_vendor/renesas/rz_mcu_boards/core_package/generate/sc_drivers/r_scifa/src/lld\r_rza2_scifa_lld.c **** /**************************************************************************************************
  32:D:/Work/DeviceTester/amazon-freertos/lib/third_party/mcu_vendor/renesas/rz_mcu_boards/core_package/generate/sc_drivers/r_scifa/src/lld\r_rza2_scifa_lld.c ****  * History      : DD.MM.YYYY Version Description
  33:D:/Work/DeviceTester/amazon-freertos/lib/third_party/mcu_vendor/renesas/rz_mcu_boards/core_package/generate/sc_drivers/r_scifa/src/lld\r_rza2_scifa_lld.c ****  *              : 15.05.2018 1.00    Release
  34:D:/Work/DeviceTester/amazon-freertos/lib/third_party/mcu_vendor/renesas/rz_mcu_boards/core_package/generate/sc_drivers/r_scifa/src/lld\r_rza2_scifa_lld.c ****  *              : 23.05.2019 1.01    Restructuring to ensure that other LLDs are only accessed from
  35:D:/Work/DeviceTester/amazon-freertos/lib/third_party/mcu_vendor/renesas/rz_mcu_boards/core_package/generate/sc_drivers/r_scifa/src/lld\r_rza2_scifa_lld.c ****  **************************************************************************************************
  36:D:/Work/DeviceTester/amazon-freertos/lib/third_party/mcu_vendor/renesas/rz_mcu_boards/core_package/generate/sc_drivers/r_scifa/src/lld\r_rza2_scifa_lld.c **** 
  37:D:/Work/DeviceTester/amazon-freertos/lib/third_party/mcu_vendor/renesas/rz_mcu_boards/core_package/generate/sc_drivers/r_scifa/src/lld\r_rza2_scifa_lld.c **** /**************************************************************************************************
  38:D:/Work/DeviceTester/amazon-freertos/lib/third_party/mcu_vendor/renesas/rz_mcu_boards/core_package/generate/sc_drivers/r_scifa/src/lld\r_rza2_scifa_lld.c ****  Includes   <System Includes> , "Project Includes"
  39:D:/Work/DeviceTester/amazon-freertos/lib/third_party/mcu_vendor/renesas/rz_mcu_boards/core_package/generate/sc_drivers/r_scifa/src/lld\r_rza2_scifa_lld.c ****  **************************************************************************************************
  40:D:/Work/DeviceTester/amazon-freertos/lib/third_party/mcu_vendor/renesas/rz_mcu_boards/core_package/generate/sc_drivers/r_scifa/src/lld\r_rza2_scifa_lld.c **** #include <string.h>
  41:D:/Work/DeviceTester/amazon-freertos/lib/third_party/mcu_vendor/renesas/rz_mcu_boards/core_package/generate/sc_drivers/r_scifa/src/lld\r_rza2_scifa_lld.c **** 
  42:D:/Work/DeviceTester/amazon-freertos/lib/third_party/mcu_vendor/renesas/rz_mcu_boards/core_package/generate/sc_drivers/r_scifa/src/lld\r_rza2_scifa_lld.c **** #include "r_typedefs.h"
  43:D:/Work/DeviceTester/amazon-freertos/lib/third_party/mcu_vendor/renesas/rz_mcu_boards/core_package/generate/sc_drivers/r_scifa/src/lld\r_rza2_scifa_lld.c **** #include "iodefine.h"
  44:D:/Work/DeviceTester/amazon-freertos/lib/third_party/mcu_vendor/renesas/rz_mcu_boards/core_package/generate/sc_drivers/r_scifa/src/lld\r_rza2_scifa_lld.c **** #include "iobitmask.h"
  45:D:/Work/DeviceTester/amazon-freertos/lib/third_party/mcu_vendor/renesas/rz_mcu_boards/core_package/generate/sc_drivers/r_scifa/src/lld\r_rza2_scifa_lld.c **** #include "rza_io_regrw.h"              /* Low level register read/write header */
  46:D:/Work/DeviceTester/amazon-freertos/lib/third_party/mcu_vendor/renesas/rz_mcu_boards/core_package/generate/sc_drivers/r_scifa/src/lld\r_rza2_scifa_lld.c **** 
  47:D:/Work/DeviceTester/amazon-freertos/lib/third_party/mcu_vendor/renesas/rz_mcu_boards/core_package/generate/sc_drivers/r_scifa/src/lld\r_rza2_scifa_lld.c **** /* Driver Includes */
  48:D:/Work/DeviceTester/amazon-freertos/lib/third_party/mcu_vendor/renesas/rz_mcu_boards/core_package/generate/sc_drivers/r_scifa/src/lld\r_rza2_scifa_lld.c **** #include "driver.h"                    /* Device driver header */
  49:D:/Work/DeviceTester/amazon-freertos/lib/third_party/mcu_vendor/renesas/rz_mcu_boards/core_package/generate/sc_drivers/r_scifa/src/lld\r_rza2_scifa_lld.c **** #include "r_rza2_scifa_lld.h"          /* Low Layer Driver header */
  50:D:/Work/DeviceTester/amazon-freertos/lib/third_party/mcu_vendor/renesas/rz_mcu_boards/core_package/generate/sc_drivers/r_scifa/src/lld\r_rza2_scifa_lld.c **** #include "r_rza2_scifa_lld_cfg.h"      /* Low Layer Driver configuration header */
  51:D:/Work/DeviceTester/amazon-freertos/lib/third_party/mcu_vendor/renesas/rz_mcu_boards/core_package/generate/sc_drivers/r_scifa/src/lld\r_rza2_scifa_lld.c **** #include "r_scifa_drv_sc_cfg.h"
  52:D:/Work/DeviceTester/amazon-freertos/lib/third_party/mcu_vendor/renesas/rz_mcu_boards/core_package/generate/sc_drivers/r_scifa/src/lld\r_rza2_scifa_lld.c **** #include "r_stb_drv_link.h"            /* STB driver */
  53:D:/Work/DeviceTester/amazon-freertos/lib/third_party/mcu_vendor/renesas/rz_mcu_boards/core_package/generate/sc_drivers/r_scifa/src/lld\r_rza2_scifa_lld.c **** #include "r_cpg_drv_api.h"             /* CPG driver */
  54:D:/Work/DeviceTester/amazon-freertos/lib/third_party/mcu_vendor/renesas/rz_mcu_boards/core_package/generate/sc_drivers/r_scifa/src/lld\r_rza2_scifa_lld.c **** 
  55:D:/Work/DeviceTester/amazon-freertos/lib/third_party/mcu_vendor/renesas/rz_mcu_boards/core_package/generate/sc_drivers/r_scifa/src/lld\r_rza2_scifa_lld.c **** /**************************************************************************************************
  56:D:/Work/DeviceTester/amazon-freertos/lib/third_party/mcu_vendor/renesas/rz_mcu_boards/core_package/generate/sc_drivers/r_scifa/src/lld\r_rza2_scifa_lld.c ****  Macro definitions
  57:D:/Work/DeviceTester/amazon-freertos/lib/third_party/mcu_vendor/renesas/rz_mcu_boards/core_package/generate/sc_drivers/r_scifa/src/lld\r_rza2_scifa_lld.c ****  **************************************************************************************************
  58:D:/Work/DeviceTester/amazon-freertos/lib/third_party/mcu_vendor/renesas/rz_mcu_boards/core_package/generate/sc_drivers/r_scifa/src/lld\r_rza2_scifa_lld.c **** 
  59:D:/Work/DeviceTester/amazon-freertos/lib/third_party/mcu_vendor/renesas/rz_mcu_boards/core_package/generate/sc_drivers/r_scifa/src/lld\r_rza2_scifa_lld.c **** #define R_PRV_TX_FIFO_LENGTH        (16)
  60:D:/Work/DeviceTester/amazon-freertos/lib/third_party/mcu_vendor/renesas/rz_mcu_boards/core_package/generate/sc_drivers/r_scifa/src/lld\r_rza2_scifa_lld.c **** #define R_PRV_RX_FIFO_EMPTY         (0)
  61:D:/Work/DeviceTester/amazon-freertos/lib/third_party/mcu_vendor/renesas/rz_mcu_boards/core_package/generate/sc_drivers/r_scifa/src/lld\r_rza2_scifa_lld.c **** 
  62:D:/Work/DeviceTester/amazon-freertos/lib/third_party/mcu_vendor/renesas/rz_mcu_boards/core_package/generate/sc_drivers/r_scifa/src/lld\r_rza2_scifa_lld.c **** #define R_PRV_TX_FIFO_MAX_TRG       (0x0Fu)
  63:D:/Work/DeviceTester/amazon-freertos/lib/third_party/mcu_vendor/renesas/rz_mcu_boards/core_package/generate/sc_drivers/r_scifa/src/lld\r_rza2_scifa_lld.c **** #define R_PRV_TX_FIFO_MIN_TRG       (0x00u)
  64:D:/Work/DeviceTester/amazon-freertos/lib/third_party/mcu_vendor/renesas/rz_mcu_boards/core_package/generate/sc_drivers/r_scifa/src/lld\r_rza2_scifa_lld.c **** #define R_PRV_RX_FIFO_MAX_TRG       (0x10u)
  65:D:/Work/DeviceTester/amazon-freertos/lib/third_party/mcu_vendor/renesas/rz_mcu_boards/core_package/generate/sc_drivers/r_scifa/src/lld\r_rza2_scifa_lld.c **** #define R_PRV_RX_FIFO_MIN_TRG       (0x01u)
  66:D:/Work/DeviceTester/amazon-freertos/lib/third_party/mcu_vendor/renesas/rz_mcu_boards/core_package/generate/sc_drivers/r_scifa/src/lld\r_rza2_scifa_lld.c **** 
  67:D:/Work/DeviceTester/amazon-freertos/lib/third_party/mcu_vendor/renesas/rz_mcu_boards/core_package/generate/sc_drivers/r_scifa/src/lld\r_rza2_scifa_lld.c **** #define R_PRV_SCIFA_CHANNEL_0       (0)
  68:D:/Work/DeviceTester/amazon-freertos/lib/third_party/mcu_vendor/renesas/rz_mcu_boards/core_package/generate/sc_drivers/r_scifa/src/lld\r_rza2_scifa_lld.c **** #define R_PRV_SCIFA_CHANNEL_1       (1)
  69:D:/Work/DeviceTester/amazon-freertos/lib/third_party/mcu_vendor/renesas/rz_mcu_boards/core_package/generate/sc_drivers/r_scifa/src/lld\r_rza2_scifa_lld.c **** #define R_PRV_SCIFA_CHANNEL_2       (2)
  70:D:/Work/DeviceTester/amazon-freertos/lib/third_party/mcu_vendor/renesas/rz_mcu_boards/core_package/generate/sc_drivers/r_scifa/src/lld\r_rza2_scifa_lld.c **** #define R_PRV_SCIFA_CHANNEL_3       (3)
  71:D:/Work/DeviceTester/amazon-freertos/lib/third_party/mcu_vendor/renesas/rz_mcu_boards/core_package/generate/sc_drivers/r_scifa/src/lld\r_rza2_scifa_lld.c **** #define R_PRV_SCIFA_CHANNEL_4       (4)
  72:D:/Work/DeviceTester/amazon-freertos/lib/third_party/mcu_vendor/renesas/rz_mcu_boards/core_package/generate/sc_drivers/r_scifa/src/lld\r_rza2_scifa_lld.c **** 
  73:D:/Work/DeviceTester/amazon-freertos/lib/third_party/mcu_vendor/renesas/rz_mcu_boards/core_package/generate/sc_drivers/r_scifa/src/lld\r_rza2_scifa_lld.c **** 
  74:D:/Work/DeviceTester/amazon-freertos/lib/third_party/mcu_vendor/renesas/rz_mcu_boards/core_package/generate/sc_drivers/r_scifa/src/lld\r_rza2_scifa_lld.c **** /**************************************************************************************************
  75:D:/Work/DeviceTester/amazon-freertos/lib/third_party/mcu_vendor/renesas/rz_mcu_boards/core_package/generate/sc_drivers/r_scifa/src/lld\r_rza2_scifa_lld.c ****  Typedefs
  76:D:/Work/DeviceTester/amazon-freertos/lib/third_party/mcu_vendor/renesas/rz_mcu_boards/core_package/generate/sc_drivers/r_scifa/src/lld\r_rza2_scifa_lld.c ****  **************************************************************************************************
  77:D:/Work/DeviceTester/amazon-freertos/lib/third_party/mcu_vendor/renesas/rz_mcu_boards/core_package/generate/sc_drivers/r_scifa/src/lld\r_rza2_scifa_lld.c **** 
  78:D:/Work/DeviceTester/amazon-freertos/lib/third_party/mcu_vendor/renesas/rz_mcu_boards/core_package/generate/sc_drivers/r_scifa/src/lld\r_rza2_scifa_lld.c **** /**************************************************************************************************
  79:D:/Work/DeviceTester/amazon-freertos/lib/third_party/mcu_vendor/renesas/rz_mcu_boards/core_package/generate/sc_drivers/r_scifa/src/lld\r_rza2_scifa_lld.c ****  Private global variables and functions
  80:D:/Work/DeviceTester/amazon-freertos/lib/third_party/mcu_vendor/renesas/rz_mcu_boards/core_package/generate/sc_drivers/r_scifa/src/lld\r_rza2_scifa_lld.c ****  **************************************************************************************************
  81:D:/Work/DeviceTester/amazon-freertos/lib/third_party/mcu_vendor/renesas/rz_mcu_boards/core_package/generate/sc_drivers/r_scifa/src/lld\r_rza2_scifa_lld.c **** /**
  82:D:/Work/DeviceTester/amazon-freertos/lib/third_party/mcu_vendor/renesas/rz_mcu_boards/core_package/generate/sc_drivers/r_scifa/src/lld\r_rza2_scifa_lld.c ****  * @section st_scifa structure used for register access of SCIFA channels
  83:D:/Work/DeviceTester/amazon-freertos/lib/third_party/mcu_vendor/renesas/rz_mcu_boards/core_package/generate/sc_drivers/r_scifa/src/lld\r_rza2_scifa_lld.c ****  */
  84:D:/Work/DeviceTester/amazon-freertos/lib/third_party/mcu_vendor/renesas/rz_mcu_boards/core_package/generate/sc_drivers/r_scifa/src/lld\r_rza2_scifa_lld.c **** static volatile struct st_scifa *gsp_scifa[SCIFA_CFG_LLD_NUM_CHANNELS] =
  85:D:/Work/DeviceTester/amazon-freertos/lib/third_party/mcu_vendor/renesas/rz_mcu_boards/core_package/generate/sc_drivers/r_scifa/src/lld\r_rza2_scifa_lld.c **** {
  86:D:/Work/DeviceTester/amazon-freertos/lib/third_party/mcu_vendor/renesas/rz_mcu_boards/core_package/generate/sc_drivers/r_scifa/src/lld\r_rza2_scifa_lld.c ****     /* SCIFA channels */
  87:D:/Work/DeviceTester/amazon-freertos/lib/third_party/mcu_vendor/renesas/rz_mcu_boards/core_package/generate/sc_drivers/r_scifa/src/lld\r_rza2_scifa_lld.c ****     &SCIFA0, &SCIFA1, &SCIFA2, &SCIFA3, &SCIFA4
  88:D:/Work/DeviceTester/amazon-freertos/lib/third_party/mcu_vendor/renesas/rz_mcu_boards/core_package/generate/sc_drivers/r_scifa/src/lld\r_rza2_scifa_lld.c **** };
  89:D:/Work/DeviceTester/amazon-freertos/lib/third_party/mcu_vendor/renesas/rz_mcu_boards/core_package/generate/sc_drivers/r_scifa/src/lld\r_rza2_scifa_lld.c **** 
  90:D:/Work/DeviceTester/amazon-freertos/lib/third_party/mcu_vendor/renesas/rz_mcu_boards/core_package/generate/sc_drivers/r_scifa/src/lld\r_rza2_scifa_lld.c **** /**************************************************************************************************
  91:D:/Work/DeviceTester/amazon-freertos/lib/third_party/mcu_vendor/renesas/rz_mcu_boards/core_package/generate/sc_drivers/r_scifa/src/lld\r_rza2_scifa_lld.c ****  Prototypes
  92:D:/Work/DeviceTester/amazon-freertos/lib/third_party/mcu_vendor/renesas/rz_mcu_boards/core_package/generate/sc_drivers/r_scifa/src/lld\r_rza2_scifa_lld.c ****  **************************************************************************************************
  93:D:/Work/DeviceTester/amazon-freertos/lib/third_party/mcu_vendor/renesas/rz_mcu_boards/core_package/generate/sc_drivers/r_scifa/src/lld\r_rza2_scifa_lld.c **** 
  94:D:/Work/DeviceTester/amazon-freertos/lib/third_party/mcu_vendor/renesas/rz_mcu_boards/core_package/generate/sc_drivers/r_scifa/src/lld\r_rza2_scifa_lld.c **** /**************************************************************************************************
  95:D:/Work/DeviceTester/amazon-freertos/lib/third_party/mcu_vendor/renesas/rz_mcu_boards/core_package/generate/sc_drivers/r_scifa/src/lld\r_rza2_scifa_lld.c ****  Public Function Definitions
  96:D:/Work/DeviceTester/amazon-freertos/lib/third_party/mcu_vendor/renesas/rz_mcu_boards/core_package/generate/sc_drivers/r_scifa/src/lld\r_rza2_scifa_lld.c ****  **************************************************************************************************
  97:D:/Work/DeviceTester/amazon-freertos/lib/third_party/mcu_vendor/renesas/rz_mcu_boards/core_package/generate/sc_drivers/r_scifa/src/lld\r_rza2_scifa_lld.c **** 
  98:D:/Work/DeviceTester/amazon-freertos/lib/third_party/mcu_vendor/renesas/rz_mcu_boards/core_package/generate/sc_drivers/r_scifa/src/lld\r_rza2_scifa_lld.c **** /**
  99:D:/Work/DeviceTester/amazon-freertos/lib/third_party/mcu_vendor/renesas/rz_mcu_boards/core_package/generate/sc_drivers/r_scifa/src/lld\r_rza2_scifa_lld.c ****  * @brief Starts the SCIFA channel allowing reading/writing
 100:D:/Work/DeviceTester/amazon-freertos/lib/third_party/mcu_vendor/renesas/rz_mcu_boards/core_package/generate/sc_drivers/r_scifa/src/lld\r_rza2_scifa_lld.c ****  *
 101:D:/Work/DeviceTester/amazon-freertos/lib/third_party/mcu_vendor/renesas/rz_mcu_boards/core_package/generate/sc_drivers/r_scifa/src/lld\r_rza2_scifa_lld.c ****  * R_SCIFA_Start starts an SCIFA channel according to the
 102:D:/Work/DeviceTester/amazon-freertos/lib/third_party/mcu_vendor/renesas/rz_mcu_boards/core_package/generate/sc_drivers/r_scifa/src/lld\r_rza2_scifa_lld.c ****  * read_write variable, this determines whether Transmit
 103:D:/Work/DeviceTester/amazon-freertos/lib/third_party/mcu_vendor/renesas/rz_mcu_boards/core_package/generate/sc_drivers/r_scifa/src/lld\r_rza2_scifa_lld.c ****  * Enable and Receive Enable are turned on. Or just one,
 104:D:/Work/DeviceTester/amazon-freertos/lib/third_party/mcu_vendor/renesas/rz_mcu_boards/core_package/generate/sc_drivers/r_scifa/src/lld\r_rza2_scifa_lld.c ****  * for read-only or write-only access
 105:D:/Work/DeviceTester/amazon-freertos/lib/third_party/mcu_vendor/renesas/rz_mcu_boards/core_package/generate/sc_drivers/r_scifa/src/lld\r_rza2_scifa_lld.c ****  *
 106:D:/Work/DeviceTester/amazon-freertos/lib/third_party/mcu_vendor/renesas/rz_mcu_boards/core_package/generate/sc_drivers/r_scifa/src/lld\r_rza2_scifa_lld.c ****  * @param[in] channel: SCIFA channel to be started
 107:D:/Work/DeviceTester/amazon-freertos/lib/third_party/mcu_vendor/renesas/rz_mcu_boards/core_package/generate/sc_drivers/r_scifa/src/lld\r_rza2_scifa_lld.c ****  * @param[in] read_write: read/write permission setting
 108:D:/Work/DeviceTester/amazon-freertos/lib/third_party/mcu_vendor/renesas/rz_mcu_boards/core_package/generate/sc_drivers/r_scifa/src/lld\r_rza2_scifa_lld.c ****  *
 109:D:/Work/DeviceTester/amazon-freertos/lib/third_party/mcu_vendor/renesas/rz_mcu_boards/core_package/generate/sc_drivers/r_scifa/src/lld\r_rza2_scifa_lld.c ****  * @retval  0 DRV_SUCCESS
 110:D:/Work/DeviceTester/amazon-freertos/lib/third_party/mcu_vendor/renesas/rz_mcu_boards/core_package/generate/sc_drivers/r_scifa/src/lld\r_rza2_scifa_lld.c ****  * @retval -1 DRV_ERROR 
 111:D:/Work/DeviceTester/amazon-freertos/lib/third_party/mcu_vendor/renesas/rz_mcu_boards/core_package/generate/sc_drivers/r_scifa/src/lld\r_rza2_scifa_lld.c ****  */
 112:D:/Work/DeviceTester/amazon-freertos/lib/third_party/mcu_vendor/renesas/rz_mcu_boards/core_package/generate/sc_drivers/r_scifa/src/lld\r_rza2_scifa_lld.c **** int_t R_SCIFA_Start (r_channel_t channel, int_t read_write)
 113:D:/Work/DeviceTester/amazon-freertos/lib/third_party/mcu_vendor/renesas/rz_mcu_boards/core_package/generate/sc_drivers/r_scifa/src/lld\r_rza2_scifa_lld.c **** {
  26              		.loc 1 113 0
  27              		.cfi_startproc
  28              		@ args = 0, pretend = 0, frame = 0
  29              		@ frame_needed = 0, uses_anonymous_args = 0
  30              	.LVL0:
 114:D:/Work/DeviceTester/amazon-freertos/lib/third_party/mcu_vendor/renesas/rz_mcu_boards/core_package/generate/sc_drivers/r_scifa/src/lld\r_rza2_scifa_lld.c ****     /* check arguments */
 115:D:/Work/DeviceTester/amazon-freertos/lib/third_party/mcu_vendor/renesas/rz_mcu_boards/core_package/generate/sc_drivers/r_scifa/src/lld\r_rza2_scifa_lld.c ****     if ((channel >= SCIFA_CFG_LLD_NUM_CHANNELS) || (channel < 0))
  31              		.loc 1 115 0
  32 0000 7030EFE6 		uxtb	r3, r0
  33 0004 040053E3 		cmp	r3, #4
  34 0008 2200008A 		bhi	.L4
 116:D:/Work/DeviceTester/amazon-freertos/lib/third_party/mcu_vendor/renesas/rz_mcu_boards/core_package/generate/sc_drivers/r_scifa/src/lld\r_rza2_scifa_lld.c ****     {
 117:D:/Work/DeviceTester/amazon-freertos/lib/third_party/mcu_vendor/renesas/rz_mcu_boards/core_package/generate/sc_drivers/r_scifa/src/lld\r_rza2_scifa_lld.c ****         return (DRV_ERROR);
 118:D:/Work/DeviceTester/amazon-freertos/lib/third_party/mcu_vendor/renesas/rz_mcu_boards/core_package/generate/sc_drivers/r_scifa/src/lld\r_rza2_scifa_lld.c ****     }
 119:D:/Work/DeviceTester/amazon-freertos/lib/third_party/mcu_vendor/renesas/rz_mcu_boards/core_package/generate/sc_drivers/r_scifa/src/lld\r_rza2_scifa_lld.c **** 
 120:D:/Work/DeviceTester/amazon-freertos/lib/third_party/mcu_vendor/renesas/rz_mcu_boards/core_package/generate/sc_drivers/r_scifa/src/lld\r_rza2_scifa_lld.c ****     if ((read_write & __SWR) > 0)
  35              		.loc 1 120 0
  36 000c 080011E3 		tst	r1, #8
 113:D:/Work/DeviceTester/amazon-freertos/lib/third_party/mcu_vendor/renesas/rz_mcu_boards/core_package/generate/sc_drivers/r_scifa/src/lld\r_rza2_scifa_lld.c ****     /* check arguments */
  37              		.loc 1 113 0
  38 0010 70402DE9 		push	{r4, r5, r6, lr}
  39              		.cfi_def_cfa_offset 16
  40              		.cfi_offset 4, -16
  41              		.cfi_offset 5, -12
  42              		.cfi_offset 6, -8
  43              		.cfi_offset 14, -4
  44 0014 0140A0E1 		mov	r4, r1
  45 0018 0050A0E1 		mov	r5, r0
  46              		.loc 1 120 0
  47 001c 0C00000A 		beq	.L3
 121:D:/Work/DeviceTester/amazon-freertos/lib/third_party/mcu_vendor/renesas/rz_mcu_boards/core_package/generate/sc_drivers/r_scifa/src/lld\r_rza2_scifa_lld.c ****     {
 122:D:/Work/DeviceTester/amazon-freertos/lib/third_party/mcu_vendor/renesas/rz_mcu_boards/core_package/generate/sc_drivers/r_scifa/src/lld\r_rza2_scifa_lld.c ****         /* Enable transmit */
 123:D:/Work/DeviceTester/amazon-freertos/lib/third_party/mcu_vendor/renesas/rz_mcu_boards/core_package/generate/sc_drivers/r_scifa/src/lld\r_rza2_scifa_lld.c ****         RZA_IO_RegWrite_16((volatile uint16_t *) &gsp_scifa[channel]->SCR.WORD, (uint16_t) 1, SCIFA
  48              		.loc 1 123 0
  49 0020 78309FE5 		ldr	r3, .L13
  50 0024 0520A0E3 		mov	r2, #5
  51 0028 0110A0E3 		mov	r1, #1
  52              	.LVL1:
  53 002c 006193E7 		ldr	r6, [r3, r0, lsl #2]
  54 0030 2030A0E3 		mov	r3, #32
  55 0034 046086E2 		add	r6, r6, #4
  56 0038 0600A0E1 		mov	r0, r6
  57              	.LVL2:
  58 003c FEFFFFEB 		bl	RZA_IO_RegWrite_16
  59              	.LVL3:
 124:D:/Work/DeviceTester/amazon-freertos/lib/third_party/mcu_vendor/renesas/rz_mcu_boards/core_package/generate/sc_drivers/r_scifa/src/lld\r_rza2_scifa_lld.c **** 
 125:D:/Work/DeviceTester/amazon-freertos/lib/third_party/mcu_vendor/renesas/rz_mcu_boards/core_package/generate/sc_drivers/r_scifa/src/lld\r_rza2_scifa_lld.c ****         /* Disable transmit interrupt */
 126:D:/Work/DeviceTester/amazon-freertos/lib/third_party/mcu_vendor/renesas/rz_mcu_boards/core_package/generate/sc_drivers/r_scifa/src/lld\r_rza2_scifa_lld.c ****         RZA_IO_RegWrite_16((volatile uint16_t *) &gsp_scifa[channel]->SCR.WORD, (uint16_t) 0, SCIFA
  60              		.loc 1 126 0
  61 0040 8030A0E3 		mov	r3, #128
  62 0044 0720A0E3 		mov	r2, #7
  63 0048 0010A0E3 		mov	r1, #0
  64 004c 0600A0E1 		mov	r0, r6
  65 0050 FEFFFFEB 		bl	RZA_IO_RegWrite_16
  66              	.LVL4:
  67              	.L3:
 127:D:/Work/DeviceTester/amazon-freertos/lib/third_party/mcu_vendor/renesas/rz_mcu_boards/core_package/generate/sc_drivers/r_scifa/src/lld\r_rza2_scifa_lld.c ****     }
 128:D:/Work/DeviceTester/amazon-freertos/lib/third_party/mcu_vendor/renesas/rz_mcu_boards/core_package/generate/sc_drivers/r_scifa/src/lld\r_rza2_scifa_lld.c **** 
 129:D:/Work/DeviceTester/amazon-freertos/lib/third_party/mcu_vendor/renesas/rz_mcu_boards/core_package/generate/sc_drivers/r_scifa/src/lld\r_rza2_scifa_lld.c ****     if ((read_write & __SRD) > 0)
  68              		.loc 1 129 0
  69 0054 040014E2 		ands	r0, r4, #4
  70 0058 7080BD08 		popeq	{r4, r5, r6, pc}
 130:D:/Work/DeviceTester/amazon-freertos/lib/third_party/mcu_vendor/renesas/rz_mcu_boards/core_package/generate/sc_drivers/r_scifa/src/lld\r_rza2_scifa_lld.c ****     {
 131:D:/Work/DeviceTester/amazon-freertos/lib/third_party/mcu_vendor/renesas/rz_mcu_boards/core_package/generate/sc_drivers/r_scifa/src/lld\r_rza2_scifa_lld.c ****         /* Enable receive */
 132:D:/Work/DeviceTester/amazon-freertos/lib/third_party/mcu_vendor/renesas/rz_mcu_boards/core_package/generate/sc_drivers/r_scifa/src/lld\r_rza2_scifa_lld.c ****         RZA_IO_RegWrite_16((volatile uint16_t *) &gsp_scifa[channel]->SCR.WORD, (uint16_t) 1, SCIFA
  71              		.loc 1 132 0
  72 005c 3C309FE5 		ldr	r3, .L13
  73 0060 0420A0E3 		mov	r2, #4
  74 0064 0110A0E3 		mov	r1, #1
  75 0068 054193E7 		ldr	r4, [r3, r5, lsl #2]
  76              	.LVL5:
  77 006c 1030A0E3 		mov	r3, #16
  78 0070 044084E2 		add	r4, r4, #4
  79 0074 0400A0E1 		mov	r0, r4
  80 0078 FEFFFFEB 		bl	RZA_IO_RegWrite_16
  81              	.LVL6:
 133:D:/Work/DeviceTester/amazon-freertos/lib/third_party/mcu_vendor/renesas/rz_mcu_boards/core_package/generate/sc_drivers/r_scifa/src/lld\r_rza2_scifa_lld.c **** 
 134:D:/Work/DeviceTester/amazon-freertos/lib/third_party/mcu_vendor/renesas/rz_mcu_boards/core_package/generate/sc_drivers/r_scifa/src/lld\r_rza2_scifa_lld.c ****         /* Enable receive interrupt */
 135:D:/Work/DeviceTester/amazon-freertos/lib/third_party/mcu_vendor/renesas/rz_mcu_boards/core_package/generate/sc_drivers/r_scifa/src/lld\r_rza2_scifa_lld.c ****         RZA_IO_RegWrite_16((volatile uint16_t *) &gsp_scifa[channel]->SCR.WORD, (uint16_t) 1, SCIFA
  82              		.loc 1 135 0
  83 007c 0400A0E1 		mov	r0, r4
  84 0080 4030A0E3 		mov	r3, #64
  85 0084 0620A0E3 		mov	r2, #6
  86 0088 0110A0E3 		mov	r1, #1
  87 008c FEFFFFEB 		bl	RZA_IO_RegWrite_16
  88              	.LVL7:
 136:D:/Work/DeviceTester/amazon-freertos/lib/third_party/mcu_vendor/renesas/rz_mcu_boards/core_package/generate/sc_drivers/r_scifa/src/lld\r_rza2_scifa_lld.c ****     }
 137:D:/Work/DeviceTester/amazon-freertos/lib/third_party/mcu_vendor/renesas/rz_mcu_boards/core_package/generate/sc_drivers/r_scifa/src/lld\r_rza2_scifa_lld.c **** 
 138:D:/Work/DeviceTester/amazon-freertos/lib/third_party/mcu_vendor/renesas/rz_mcu_boards/core_package/generate/sc_drivers/r_scifa/src/lld\r_rza2_scifa_lld.c ****     return (DRV_SUCCESS);
  89              		.loc 1 138 0
  90 0090 0000A0E3 		mov	r0, #0
  91 0094 7080BDE8 		pop	{r4, r5, r6, pc}
  92              	.LVL8:
  93              	.L4:
  94              		.cfi_def_cfa_offset 0
  95              		.cfi_restore 4
  96              		.cfi_restore 5
  97              		.cfi_restore 6
  98              		.cfi_restore 14
 117:D:/Work/DeviceTester/amazon-freertos/lib/third_party/mcu_vendor/renesas/rz_mcu_boards/core_package/generate/sc_drivers/r_scifa/src/lld\r_rza2_scifa_lld.c ****     }
  99              		.loc 1 117 0
 100 0098 0000E0E3 		mvn	r0, #0
 101              	.LVL9:
 102 009c 1EFF2FE1 		bx	lr
 103              	.L14:
 104              		.align	2
 105              	.L13:
 106 00a0 00000000 		.word	.LANCHOR0
 107              		.cfi_endproc
 108              	.LFE1:
 110              		.section	.text.R_SCIFA_Stop,"ax",%progbits
 111              		.align	2
 112              		.global	R_SCIFA_Stop
 113              		.syntax unified
 114              		.arm
 115              		.fpu neon
 117              	R_SCIFA_Stop:
 118              	.LFB2:
 139:D:/Work/DeviceTester/amazon-freertos/lib/third_party/mcu_vendor/renesas/rz_mcu_boards/core_package/generate/sc_drivers/r_scifa/src/lld\r_rza2_scifa_lld.c **** }
 140:D:/Work/DeviceTester/amazon-freertos/lib/third_party/mcu_vendor/renesas/rz_mcu_boards/core_package/generate/sc_drivers/r_scifa/src/lld\r_rza2_scifa_lld.c **** /**************************************************************************************************
 141:D:/Work/DeviceTester/amazon-freertos/lib/third_party/mcu_vendor/renesas/rz_mcu_boards/core_package/generate/sc_drivers/r_scifa/src/lld\r_rza2_scifa_lld.c ****  * End of Function R_SCIFA_Start
 142:D:/Work/DeviceTester/amazon-freertos/lib/third_party/mcu_vendor/renesas/rz_mcu_boards/core_package/generate/sc_drivers/r_scifa/src/lld\r_rza2_scifa_lld.c ****   *************************************************************************************************
 143:D:/Work/DeviceTester/amazon-freertos/lib/third_party/mcu_vendor/renesas/rz_mcu_boards/core_package/generate/sc_drivers/r_scifa/src/lld\r_rza2_scifa_lld.c **** 
 144:D:/Work/DeviceTester/amazon-freertos/lib/third_party/mcu_vendor/renesas/rz_mcu_boards/core_package/generate/sc_drivers/r_scifa/src/lld\r_rza2_scifa_lld.c **** /**
 145:D:/Work/DeviceTester/amazon-freertos/lib/third_party/mcu_vendor/renesas/rz_mcu_boards/core_package/generate/sc_drivers/r_scifa/src/lld\r_rza2_scifa_lld.c ****  * @brief Stops SCIFA channel operation
 146:D:/Work/DeviceTester/amazon-freertos/lib/third_party/mcu_vendor/renesas/rz_mcu_boards/core_package/generate/sc_drivers/r_scifa/src/lld\r_rza2_scifa_lld.c ****  *
 147:D:/Work/DeviceTester/amazon-freertos/lib/third_party/mcu_vendor/renesas/rz_mcu_boards/core_package/generate/sc_drivers/r_scifa/src/lld\r_rza2_scifa_lld.c ****  * R_SCIFA_Stop will turn off the Transmit/Receive enable for a given
 148:D:/Work/DeviceTester/amazon-freertos/lib/third_party/mcu_vendor/renesas/rz_mcu_boards/core_package/generate/sc_drivers/r_scifa/src/lld\r_rza2_scifa_lld.c ****  * channel, it also prevents the device from triggering TXI and RXI
 149:D:/Work/DeviceTester/amazon-freertos/lib/third_party/mcu_vendor/renesas/rz_mcu_boards/core_package/generate/sc_drivers/r_scifa/src/lld\r_rza2_scifa_lld.c ****  *
 150:D:/Work/DeviceTester/amazon-freertos/lib/third_party/mcu_vendor/renesas/rz_mcu_boards/core_package/generate/sc_drivers/r_scifa/src/lld\r_rza2_scifa_lld.c ****  * @param[in] Channel: the channel to stop operation for
 151:D:/Work/DeviceTester/amazon-freertos/lib/third_party/mcu_vendor/renesas/rz_mcu_boards/core_package/generate/sc_drivers/r_scifa/src/lld\r_rza2_scifa_lld.c ****  *
 152:D:/Work/DeviceTester/amazon-freertos/lib/third_party/mcu_vendor/renesas/rz_mcu_boards/core_package/generate/sc_drivers/r_scifa/src/lld\r_rza2_scifa_lld.c ****  * @retval  0 DRV_SUCCESS
 153:D:/Work/DeviceTester/amazon-freertos/lib/third_party/mcu_vendor/renesas/rz_mcu_boards/core_package/generate/sc_drivers/r_scifa/src/lld\r_rza2_scifa_lld.c ****  * @retval -1 DRV_ERROR 
 154:D:/Work/DeviceTester/amazon-freertos/lib/third_party/mcu_vendor/renesas/rz_mcu_boards/core_package/generate/sc_drivers/r_scifa/src/lld\r_rza2_scifa_lld.c ****  */
 155:D:/Work/DeviceTester/amazon-freertos/lib/third_party/mcu_vendor/renesas/rz_mcu_boards/core_package/generate/sc_drivers/r_scifa/src/lld\r_rza2_scifa_lld.c **** int_t R_SCIFA_Stop (r_channel_t channel)
 156:D:/Work/DeviceTester/amazon-freertos/lib/third_party/mcu_vendor/renesas/rz_mcu_boards/core_package/generate/sc_drivers/r_scifa/src/lld\r_rza2_scifa_lld.c **** {
 119              		.loc 1 156 0
 120              		.cfi_startproc
 121              		@ args = 0, pretend = 0, frame = 0
 122              		@ frame_needed = 0, uses_anonymous_args = 0
 123              	.LVL10:
 157:D:/Work/DeviceTester/amazon-freertos/lib/third_party/mcu_vendor/renesas/rz_mcu_boards/core_package/generate/sc_drivers/r_scifa/src/lld\r_rza2_scifa_lld.c ****     /* check arguments */
 158:D:/Work/DeviceTester/amazon-freertos/lib/third_party/mcu_vendor/renesas/rz_mcu_boards/core_package/generate/sc_drivers/r_scifa/src/lld\r_rza2_scifa_lld.c ****     if ((channel >= SCIFA_CFG_LLD_NUM_CHANNELS) || (channel < 0))
 124              		.loc 1 158 0
 125 0000 7030EFE6 		uxtb	r3, r0
 126 0004 040053E3 		cmp	r3, #4
 127 0008 1900008A 		bhi	.L17
 159:D:/Work/DeviceTester/amazon-freertos/lib/third_party/mcu_vendor/renesas/rz_mcu_boards/core_package/generate/sc_drivers/r_scifa/src/lld\r_rza2_scifa_lld.c ****     {
 160:D:/Work/DeviceTester/amazon-freertos/lib/third_party/mcu_vendor/renesas/rz_mcu_boards/core_package/generate/sc_drivers/r_scifa/src/lld\r_rza2_scifa_lld.c ****         return (DRV_ERROR);
 161:D:/Work/DeviceTester/amazon-freertos/lib/third_party/mcu_vendor/renesas/rz_mcu_boards/core_package/generate/sc_drivers/r_scifa/src/lld\r_rza2_scifa_lld.c ****     }
 162:D:/Work/DeviceTester/amazon-freertos/lib/third_party/mcu_vendor/renesas/rz_mcu_boards/core_package/generate/sc_drivers/r_scifa/src/lld\r_rza2_scifa_lld.c **** 
 163:D:/Work/DeviceTester/amazon-freertos/lib/third_party/mcu_vendor/renesas/rz_mcu_boards/core_package/generate/sc_drivers/r_scifa/src/lld\r_rza2_scifa_lld.c ****     /* Disable transmit interrupt */
 164:D:/Work/DeviceTester/amazon-freertos/lib/third_party/mcu_vendor/renesas/rz_mcu_boards/core_package/generate/sc_drivers/r_scifa/src/lld\r_rza2_scifa_lld.c ****     RZA_IO_RegWrite_16((volatile uint16_t *) &gsp_scifa[channel]->SCR.WORD, (uint16_t) 0, SCIFA_SCR
 128              		.loc 1 164 0
 129 000c 68309FE5 		ldr	r3, .L22
 130 0010 0720A0E3 		mov	r2, #7
 156:D:/Work/DeviceTester/amazon-freertos/lib/third_party/mcu_vendor/renesas/rz_mcu_boards/core_package/generate/sc_drivers/r_scifa/src/lld\r_rza2_scifa_lld.c ****     /* check arguments */
 131              		.loc 1 156 0
 132 0014 10402DE9 		push	{r4, lr}
 133              		.cfi_def_cfa_offset 8
 134              		.cfi_offset 4, -8
 135              		.cfi_offset 14, -4
 136              		.loc 1 164 0
 137 0018 0010A0E3 		mov	r1, #0
 138 001c 004193E7 		ldr	r4, [r3, r0, lsl #2]
 139 0020 8030A0E3 		mov	r3, #128
 140 0024 044084E2 		add	r4, r4, #4
 141 0028 0400A0E1 		mov	r0, r4
 142              	.LVL11:
 143 002c FEFFFFEB 		bl	RZA_IO_RegWrite_16
 144              	.LVL12:
 165:D:/Work/DeviceTester/amazon-freertos/lib/third_party/mcu_vendor/renesas/rz_mcu_boards/core_package/generate/sc_drivers/r_scifa/src/lld\r_rza2_scifa_lld.c **** 
 166:D:/Work/DeviceTester/amazon-freertos/lib/third_party/mcu_vendor/renesas/rz_mcu_boards/core_package/generate/sc_drivers/r_scifa/src/lld\r_rza2_scifa_lld.c ****     /* Disable transmit */
 167:D:/Work/DeviceTester/amazon-freertos/lib/third_party/mcu_vendor/renesas/rz_mcu_boards/core_package/generate/sc_drivers/r_scifa/src/lld\r_rza2_scifa_lld.c ****     RZA_IO_RegWrite_16((volatile uint16_t *) &gsp_scifa[channel]->SCR.WORD, (uint16_t) 0, SCIFA_SCR
 145              		.loc 1 167 0
 146 0030 0400A0E1 		mov	r0, r4
 147 0034 2030A0E3 		mov	r3, #32
 148 0038 0520A0E3 		mov	r2, #5
 149 003c 0010A0E3 		mov	r1, #0
 150 0040 FEFFFFEB 		bl	RZA_IO_RegWrite_16
 151              	.LVL13:
 168:D:/Work/DeviceTester/amazon-freertos/lib/third_party/mcu_vendor/renesas/rz_mcu_boards/core_package/generate/sc_drivers/r_scifa/src/lld\r_rza2_scifa_lld.c **** 
 169:D:/Work/DeviceTester/amazon-freertos/lib/third_party/mcu_vendor/renesas/rz_mcu_boards/core_package/generate/sc_drivers/r_scifa/src/lld\r_rza2_scifa_lld.c ****     /* Disable receive interrupt */
 170:D:/Work/DeviceTester/amazon-freertos/lib/third_party/mcu_vendor/renesas/rz_mcu_boards/core_package/generate/sc_drivers/r_scifa/src/lld\r_rza2_scifa_lld.c ****     RZA_IO_RegWrite_16((volatile uint16_t *) &gsp_scifa[channel]->SCR.WORD, (uint16_t) 0, SCIFA_SCR
 152              		.loc 1 170 0
 153 0044 0400A0E1 		mov	r0, r4
 154 0048 4030A0E3 		mov	r3, #64
 155 004c 0620A0E3 		mov	r2, #6
 156 0050 0010A0E3 		mov	r1, #0
 157 0054 FEFFFFEB 		bl	RZA_IO_RegWrite_16
 158              	.LVL14:
 171:D:/Work/DeviceTester/amazon-freertos/lib/third_party/mcu_vendor/renesas/rz_mcu_boards/core_package/generate/sc_drivers/r_scifa/src/lld\r_rza2_scifa_lld.c **** 
 172:D:/Work/DeviceTester/amazon-freertos/lib/third_party/mcu_vendor/renesas/rz_mcu_boards/core_package/generate/sc_drivers/r_scifa/src/lld\r_rza2_scifa_lld.c ****     /* Disable receive */
 173:D:/Work/DeviceTester/amazon-freertos/lib/third_party/mcu_vendor/renesas/rz_mcu_boards/core_package/generate/sc_drivers/r_scifa/src/lld\r_rza2_scifa_lld.c ****     RZA_IO_RegWrite_16((volatile uint16_t *) &gsp_scifa[channel]->SCR.WORD, (uint16_t) 0, SCIFA_SCR
 159              		.loc 1 173 0
 160 0058 0400A0E1 		mov	r0, r4
 161 005c 1030A0E3 		mov	r3, #16
 162 0060 0420A0E3 		mov	r2, #4
 163 0064 0010A0E3 		mov	r1, #0
 164 0068 FEFFFFEB 		bl	RZA_IO_RegWrite_16
 165              	.LVL15:
 174:D:/Work/DeviceTester/amazon-freertos/lib/third_party/mcu_vendor/renesas/rz_mcu_boards/core_package/generate/sc_drivers/r_scifa/src/lld\r_rza2_scifa_lld.c **** 
 175:D:/Work/DeviceTester/amazon-freertos/lib/third_party/mcu_vendor/renesas/rz_mcu_boards/core_package/generate/sc_drivers/r_scifa/src/lld\r_rza2_scifa_lld.c ****     return (DRV_SUCCESS);
 166              		.loc 1 175 0
 167 006c 0000A0E3 		mov	r0, #0
 168 0070 1080BDE8 		pop	{r4, pc}
 169              	.LVL16:
 170              	.L17:
 171              		.cfi_def_cfa_offset 0
 172              		.cfi_restore 4
 173              		.cfi_restore 14
 160:D:/Work/DeviceTester/amazon-freertos/lib/third_party/mcu_vendor/renesas/rz_mcu_boards/core_package/generate/sc_drivers/r_scifa/src/lld\r_rza2_scifa_lld.c ****     }
 174              		.loc 1 160 0
 175 0074 0000E0E3 		mvn	r0, #0
 176              	.LVL17:
 177 0078 1EFF2FE1 		bx	lr
 178              	.L23:
 179              		.align	2
 180              	.L22:
 181 007c 00000000 		.word	.LANCHOR0
 182              		.cfi_endproc
 183              	.LFE2:
 185              		.section	.text.R_SCIFA_GetChannel,"ax",%progbits
 186              		.align	2
 187              		.global	R_SCIFA_GetChannel
 188              		.syntax unified
 189              		.arm
 190              		.fpu neon
 192              	R_SCIFA_GetChannel:
 193              	.LFB3:
 176:D:/Work/DeviceTester/amazon-freertos/lib/third_party/mcu_vendor/renesas/rz_mcu_boards/core_package/generate/sc_drivers/r_scifa/src/lld\r_rza2_scifa_lld.c **** }
 177:D:/Work/DeviceTester/amazon-freertos/lib/third_party/mcu_vendor/renesas/rz_mcu_boards/core_package/generate/sc_drivers/r_scifa/src/lld\r_rza2_scifa_lld.c **** /**************************************************************************************************
 178:D:/Work/DeviceTester/amazon-freertos/lib/third_party/mcu_vendor/renesas/rz_mcu_boards/core_package/generate/sc_drivers/r_scifa/src/lld\r_rza2_scifa_lld.c ****  * End of Function R_SCIFA_Stop
 179:D:/Work/DeviceTester/amazon-freertos/lib/third_party/mcu_vendor/renesas/rz_mcu_boards/core_package/generate/sc_drivers/r_scifa/src/lld\r_rza2_scifa_lld.c ****  **************************************************************************************************
 180:D:/Work/DeviceTester/amazon-freertos/lib/third_party/mcu_vendor/renesas/rz_mcu_boards/core_package/generate/sc_drivers/r_scifa/src/lld\r_rza2_scifa_lld.c **** 
 181:D:/Work/DeviceTester/amazon-freertos/lib/third_party/mcu_vendor/renesas/rz_mcu_boards/core_package/generate/sc_drivers/r_scifa/src/lld\r_rza2_scifa_lld.c **** /**
 182:D:/Work/DeviceTester/amazon-freertos/lib/third_party/mcu_vendor/renesas/rz_mcu_boards/core_package/generate/sc_drivers/r_scifa/src/lld\r_rza2_scifa_lld.c ****  * @brief R_SCIFA_GetChannel Converts SC table index into SCIFA channel
 183:D:/Work/DeviceTester/amazon-freertos/lib/third_party/mcu_vendor/renesas/rz_mcu_boards/core_package/generate/sc_drivers/r_scifa/src/lld\r_rza2_scifa_lld.c ****  *
 184:D:/Work/DeviceTester/amazon-freertos/lib/third_party/mcu_vendor/renesas/rz_mcu_boards/core_package/generate/sc_drivers/r_scifa/src/lld\r_rza2_scifa_lld.c ****  * This function interrogates SC table to determine which
 185:D:/Work/DeviceTester/amazon-freertos/lib/third_party/mcu_vendor/renesas/rz_mcu_boards/core_package/generate/sc_drivers/r_scifa/src/lld\r_rza2_scifa_lld.c ****  * channel is described by sc_config
 186:D:/Work/DeviceTester/amazon-freertos/lib/third_party/mcu_vendor/renesas/rz_mcu_boards/core_package/generate/sc_drivers/r_scifa/src/lld\r_rza2_scifa_lld.c ****  *
 187:D:/Work/DeviceTester/amazon-freertos/lib/third_party/mcu_vendor/renesas/rz_mcu_boards/core_package/generate/sc_drivers/r_scifa/src/lld\r_rza2_scifa_lld.c ****  * @param[in] sc_config: configuration ID
 188:D:/Work/DeviceTester/amazon-freertos/lib/third_party/mcu_vendor/renesas/rz_mcu_boards/core_package/generate/sc_drivers/r_scifa/src/lld\r_rza2_scifa_lld.c ****  *
 189:D:/Work/DeviceTester/amazon-freertos/lib/third_party/mcu_vendor/renesas/rz_mcu_boards/core_package/generate/sc_drivers/r_scifa/src/lld\r_rza2_scifa_lld.c ****  * @retval  =>0: corresponding SCIFA channel
 190:D:/Work/DeviceTester/amazon-freertos/lib/third_party/mcu_vendor/renesas/rz_mcu_boards/core_package/generate/sc_drivers/r_scifa/src/lld\r_rza2_scifa_lld.c ****  * @retval  -1 DRV_ERROR
 191:D:/Work/DeviceTester/amazon-freertos/lib/third_party/mcu_vendor/renesas/rz_mcu_boards/core_package/generate/sc_drivers/r_scifa/src/lld\r_rza2_scifa_lld.c ****  */
 192:D:/Work/DeviceTester/amazon-freertos/lib/third_party/mcu_vendor/renesas/rz_mcu_boards/core_package/generate/sc_drivers/r_scifa/src/lld\r_rza2_scifa_lld.c **** r_channel_t R_SCIFA_GetChannel (r_sc_index_t sc_config_index)
 193:D:/Work/DeviceTester/amazon-freertos/lib/third_party/mcu_vendor/renesas/rz_mcu_boards/core_package/generate/sc_drivers/r_scifa/src/lld\r_rza2_scifa_lld.c **** {
 194              		.loc 1 193 0
 195              		.cfi_startproc
 196              		@ args = 0, pretend = 0, frame = 0
 197              		@ frame_needed = 0, uses_anonymous_args = 0
 198              		@ link register save eliminated.
 199              	.LVL18:
 194:D:/Work/DeviceTester/amazon-freertos/lib/third_party/mcu_vendor/renesas/rz_mcu_boards/core_package/generate/sc_drivers/r_scifa/src/lld\r_rza2_scifa_lld.c ****     r_channel_t ret = DRV_ERROR;
 195:D:/Work/DeviceTester/amazon-freertos/lib/third_party/mcu_vendor/renesas/rz_mcu_boards/core_package/generate/sc_drivers/r_scifa/src/lld\r_rza2_scifa_lld.c ****     r_sc_index_t sc_table_size = (sizeof(SCIFA_SC_TABLE)) / sizeof(st_r_drv_scifa_sc_config_t);
 196:D:/Work/DeviceTester/amazon-freertos/lib/third_party/mcu_vendor/renesas/rz_mcu_boards/core_package/generate/sc_drivers/r_scifa/src/lld\r_rza2_scifa_lld.c **** 
 197:D:/Work/DeviceTester/amazon-freertos/lib/third_party/mcu_vendor/renesas/rz_mcu_boards/core_package/generate/sc_drivers/r_scifa/src/lld\r_rza2_scifa_lld.c ****     /* Perform range check of sc_config to determine if index is available in st_r_drv_scifa_sc_con
 198:D:/Work/DeviceTester/amazon-freertos/lib/third_party/mcu_vendor/renesas/rz_mcu_boards/core_package/generate/sc_drivers/r_scifa/src/lld\r_rza2_scifa_lld.c ****     if ((sc_config_index >= 0) && (sc_config_index < sc_table_size))
 200              		.loc 1 198 0
 201 0000 7030FFE6 		uxth	r3, r0
 202 0004 010053E3 		cmp	r3, #1
 199:D:/Work/DeviceTester/amazon-freertos/lib/third_party/mcu_vendor/renesas/rz_mcu_boards/core_package/generate/sc_drivers/r_scifa/src/lld\r_rza2_scifa_lld.c ****     {
 200:D:/Work/DeviceTester/amazon-freertos/lib/third_party/mcu_vendor/renesas/rz_mcu_boards/core_package/generate/sc_drivers/r_scifa/src/lld\r_rza2_scifa_lld.c ****         ret = SCIFA_SC_TABLE[sc_config_index].channel;
 203              		.loc 1 200 0
 204 0008 4830A093 		movls	r3, #72
 205 000c 93000090 		mulls	r0, r3, r0
 206              	.LVL19:
 207 0010 08309F95 		ldrls	r3, .L27
 208 0014 D0009391 		ldrsbls	r0, [r3, r0]
 209              	.LVL20:
 194:D:/Work/DeviceTester/amazon-freertos/lib/third_party/mcu_vendor/renesas/rz_mcu_boards/core_package/generate/sc_drivers/r_scifa/src/lld\r_rza2_scifa_lld.c ****     r_channel_t ret = DRV_ERROR;
 210              		.loc 1 194 0
 211 0018 0000E083 		mvnhi	r0, #0
 212              	.LVL21:
 201:D:/Work/DeviceTester/amazon-freertos/lib/third_party/mcu_vendor/renesas/rz_mcu_boards/core_package/generate/sc_drivers/r_scifa/src/lld\r_rza2_scifa_lld.c ****     }
 202:D:/Work/DeviceTester/amazon-freertos/lib/third_party/mcu_vendor/renesas/rz_mcu_boards/core_package/generate/sc_drivers/r_scifa/src/lld\r_rza2_scifa_lld.c **** 
 203:D:/Work/DeviceTester/amazon-freertos/lib/third_party/mcu_vendor/renesas/rz_mcu_boards/core_package/generate/sc_drivers/r_scifa/src/lld\r_rza2_scifa_lld.c ****     return (ret);
 204:D:/Work/DeviceTester/amazon-freertos/lib/third_party/mcu_vendor/renesas/rz_mcu_boards/core_package/generate/sc_drivers/r_scifa/src/lld\r_rza2_scifa_lld.c **** }
 213              		.loc 1 204 0
 214 001c 1EFF2FE1 		bx	lr
 215              	.L28:
 216              		.align	2
 217              	.L27:
 218 0020 00000000 		.word	.LANCHOR1
 219              		.cfi_endproc
 220              	.LFE3:
 222              		.section	.text.R_SCIFA_Init,"ax",%progbits
 223              		.align	2
 224              		.global	R_SCIFA_Init
 225              		.syntax unified
 226              		.arm
 227              		.fpu neon
 229              	R_SCIFA_Init:
 230              	.LFB4:
 205:D:/Work/DeviceTester/amazon-freertos/lib/third_party/mcu_vendor/renesas/rz_mcu_boards/core_package/generate/sc_drivers/r_scifa/src/lld\r_rza2_scifa_lld.c **** /**************************************************************************************************
 206:D:/Work/DeviceTester/amazon-freertos/lib/third_party/mcu_vendor/renesas/rz_mcu_boards/core_package/generate/sc_drivers/r_scifa/src/lld\r_rza2_scifa_lld.c ****  End of function R_SCIFA_GetChannel
 207:D:/Work/DeviceTester/amazon-freertos/lib/third_party/mcu_vendor/renesas/rz_mcu_boards/core_package/generate/sc_drivers/r_scifa/src/lld\r_rza2_scifa_lld.c ****  **************************************************************************************************
 208:D:/Work/DeviceTester/amazon-freertos/lib/third_party/mcu_vendor/renesas/rz_mcu_boards/core_package/generate/sc_drivers/r_scifa/src/lld\r_rza2_scifa_lld.c **** 
 209:D:/Work/DeviceTester/amazon-freertos/lib/third_party/mcu_vendor/renesas/rz_mcu_boards/core_package/generate/sc_drivers/r_scifa/src/lld\r_rza2_scifa_lld.c **** /**
 210:D:/Work/DeviceTester/amazon-freertos/lib/third_party/mcu_vendor/renesas/rz_mcu_boards/core_package/generate/sc_drivers/r_scifa/src/lld\r_rza2_scifa_lld.c ****  * @brief R_SCIFA_Init initialises a channel for set-up
 211:D:/Work/DeviceTester/amazon-freertos/lib/third_party/mcu_vendor/renesas/rz_mcu_boards/core_package/generate/sc_drivers/r_scifa/src/lld\r_rza2_scifa_lld.c ****  * This function configures device registers in preparation for
 212:D:/Work/DeviceTester/amazon-freertos/lib/third_party/mcu_vendor/renesas/rz_mcu_boards/core_package/generate/sc_drivers/r_scifa/src/lld\r_rza2_scifa_lld.c ****  * configuration
 213:D:/Work/DeviceTester/amazon-freertos/lib/third_party/mcu_vendor/renesas/rz_mcu_boards/core_package/generate/sc_drivers/r_scifa/src/lld\r_rza2_scifa_lld.c ****  *
 214:D:/Work/DeviceTester/amazon-freertos/lib/third_party/mcu_vendor/renesas/rz_mcu_boards/core_package/generate/sc_drivers/r_scifa/src/lld\r_rza2_scifa_lld.c ****  * @param[in] channel Channel to initialise.
 215:D:/Work/DeviceTester/amazon-freertos/lib/third_party/mcu_vendor/renesas/rz_mcu_boards/core_package/generate/sc_drivers/r_scifa/src/lld\r_rza2_scifa_lld.c ****  *
 216:D:/Work/DeviceTester/amazon-freertos/lib/third_party/mcu_vendor/renesas/rz_mcu_boards/core_package/generate/sc_drivers/r_scifa/src/lld\r_rza2_scifa_lld.c ****  * @retval  0 DRV_SUCCESS
 217:D:/Work/DeviceTester/amazon-freertos/lib/third_party/mcu_vendor/renesas/rz_mcu_boards/core_package/generate/sc_drivers/r_scifa/src/lld\r_rza2_scifa_lld.c ****  * @retval -1 DRV_ERROR 
 218:D:/Work/DeviceTester/amazon-freertos/lib/third_party/mcu_vendor/renesas/rz_mcu_boards/core_package/generate/sc_drivers/r_scifa/src/lld\r_rza2_scifa_lld.c ****  */
 219:D:/Work/DeviceTester/amazon-freertos/lib/third_party/mcu_vendor/renesas/rz_mcu_boards/core_package/generate/sc_drivers/r_scifa/src/lld\r_rza2_scifa_lld.c **** int_t R_SCIFA_Init (r_channel_t channel)
 220:D:/Work/DeviceTester/amazon-freertos/lib/third_party/mcu_vendor/renesas/rz_mcu_boards/core_package/generate/sc_drivers/r_scifa/src/lld\r_rza2_scifa_lld.c **** {
 231              		.loc 1 220 0
 232              		.cfi_startproc
 233              		@ args = 0, pretend = 0, frame = 0
 234              		@ frame_needed = 0, uses_anonymous_args = 0
 235              	.LVL22:
 221:D:/Work/DeviceTester/amazon-freertos/lib/third_party/mcu_vendor/renesas/rz_mcu_boards/core_package/generate/sc_drivers/r_scifa/src/lld\r_rza2_scifa_lld.c ****     /* check arguments */
 222:D:/Work/DeviceTester/amazon-freertos/lib/third_party/mcu_vendor/renesas/rz_mcu_boards/core_package/generate/sc_drivers/r_scifa/src/lld\r_rza2_scifa_lld.c ****     if ((channel >= SCIFA_CFG_LLD_NUM_CHANNELS) || (channel < 0))
 236              		.loc 1 222 0
 237 0000 7030EFE6 		uxtb	r3, r0
 238 0004 040053E3 		cmp	r3, #4
 239 0008 2D00008A 		bhi	.L31
 223:D:/Work/DeviceTester/amazon-freertos/lib/third_party/mcu_vendor/renesas/rz_mcu_boards/core_package/generate/sc_drivers/r_scifa/src/lld\r_rza2_scifa_lld.c ****     {
 224:D:/Work/DeviceTester/amazon-freertos/lib/third_party/mcu_vendor/renesas/rz_mcu_boards/core_package/generate/sc_drivers/r_scifa/src/lld\r_rza2_scifa_lld.c ****         return (DRV_ERROR);
 225:D:/Work/DeviceTester/amazon-freertos/lib/third_party/mcu_vendor/renesas/rz_mcu_boards/core_package/generate/sc_drivers/r_scifa/src/lld\r_rza2_scifa_lld.c ****     }
 226:D:/Work/DeviceTester/amazon-freertos/lib/third_party/mcu_vendor/renesas/rz_mcu_boards/core_package/generate/sc_drivers/r_scifa/src/lld\r_rza2_scifa_lld.c **** 
 227:D:/Work/DeviceTester/amazon-freertos/lib/third_party/mcu_vendor/renesas/rz_mcu_boards/core_package/generate/sc_drivers/r_scifa/src/lld\r_rza2_scifa_lld.c ****     /* Set SCR.TE and SCR.RE -> 0 */
 228:D:/Work/DeviceTester/amazon-freertos/lib/third_party/mcu_vendor/renesas/rz_mcu_boards/core_package/generate/sc_drivers/r_scifa/src/lld\r_rza2_scifa_lld.c ****     RZA_IO_RegWrite_16((volatile uint16_t *) &gsp_scifa[channel]->SCR.WORD, (uint16_t) 0, IOREG_NON
 240              		.loc 1 228 0
 241 000c B8309FE5 		ldr	r3, .L36
 242 0010 0020A0E3 		mov	r2, #0
 220:D:/Work/DeviceTester/amazon-freertos/lib/third_party/mcu_vendor/renesas/rz_mcu_boards/core_package/generate/sc_drivers/r_scifa/src/lld\r_rza2_scifa_lld.c ****     /* check arguments */
 243              		.loc 1 220 0
 244 0014 70402DE9 		push	{r4, r5, r6, lr}
 245              		.cfi_def_cfa_offset 16
 246              		.cfi_offset 4, -16
 247              		.cfi_offset 5, -12
 248              		.cfi_offset 6, -8
 249              		.cfi_offset 14, -4
 250              		.loc 1 228 0
 251 0018 0210A0E1 		mov	r1, r2
 252 001c 004193E7 		ldr	r4, [r3, r0, lsl #2]
 253 0020 0030E0E3 		mvn	r3, #0
 229:D:/Work/DeviceTester/amazon-freertos/lib/third_party/mcu_vendor/renesas/rz_mcu_boards/core_package/generate/sc_drivers/r_scifa/src/lld\r_rza2_scifa_lld.c **** 
 230:D:/Work/DeviceTester/amazon-freertos/lib/third_party/mcu_vendor/renesas/rz_mcu_boards/core_package/generate/sc_drivers/r_scifa/src/lld\r_rza2_scifa_lld.c ****     /* Reset TFRST */
 231:D:/Work/DeviceTester/amazon-freertos/lib/third_party/mcu_vendor/renesas/rz_mcu_boards/core_package/generate/sc_drivers/r_scifa/src/lld\r_rza2_scifa_lld.c ****     RZA_IO_RegWrite_16((volatile uint16_t *) &gsp_scifa[channel]->FCR.WORD, (uint16_t) 1, SCIFA_FCR
 254              		.loc 1 231 0
 255 0024 0C5084E2 		add	r5, r4, #12
 228:D:/Work/DeviceTester/amazon-freertos/lib/third_party/mcu_vendor/renesas/rz_mcu_boards/core_package/generate/sc_drivers/r_scifa/src/lld\r_rza2_scifa_lld.c **** 
 256              		.loc 1 228 0
 257 0028 040084E2 		add	r0, r4, #4
 258              	.LVL23:
 259 002c FEFFFFEB 		bl	RZA_IO_RegWrite_16
 260              	.LVL24:
 261              		.loc 1 231 0
 262 0030 0500A0E1 		mov	r0, r5
 263 0034 0430A0E3 		mov	r3, #4
 264 0038 0220A0E3 		mov	r2, #2
 265 003c 0110A0E3 		mov	r1, #1
 266 0040 FEFFFFEB 		bl	RZA_IO_RegWrite_16
 267              	.LVL25:
 232:D:/Work/DeviceTester/amazon-freertos/lib/third_party/mcu_vendor/renesas/rz_mcu_boards/core_package/generate/sc_drivers/r_scifa/src/lld\r_rza2_scifa_lld.c **** 
 233:D:/Work/DeviceTester/amazon-freertos/lib/third_party/mcu_vendor/renesas/rz_mcu_boards/core_package/generate/sc_drivers/r_scifa/src/lld\r_rza2_scifa_lld.c ****     /* Reset FRDR */
 234:D:/Work/DeviceTester/amazon-freertos/lib/third_party/mcu_vendor/renesas/rz_mcu_boards/core_package/generate/sc_drivers/r_scifa/src/lld\r_rza2_scifa_lld.c ****     RZA_IO_RegWrite_16((volatile uint16_t *) &gsp_scifa[channel]->FCR.WORD, (uint16_t) 1, SCIFA_FCR
 268              		.loc 1 234 0
 269 0044 0120A0E3 		mov	r2, #1
 270 0048 0230A0E3 		mov	r3, #2
 271 004c 0210A0E1 		mov	r1, r2
 272 0050 0500A0E1 		mov	r0, r5
 235:D:/Work/DeviceTester/amazon-freertos/lib/third_party/mcu_vendor/renesas/rz_mcu_boards/core_package/generate/sc_drivers/r_scifa/src/lld\r_rza2_scifa_lld.c **** 
 236:D:/Work/DeviceTester/amazon-freertos/lib/third_party/mcu_vendor/renesas/rz_mcu_boards/core_package/generate/sc_drivers/r_scifa/src/lld\r_rza2_scifa_lld.c ****     /* Read error flag first*/
 237:D:/Work/DeviceTester/amazon-freertos/lib/third_party/mcu_vendor/renesas/rz_mcu_boards/core_package/generate/sc_drivers/r_scifa/src/lld\r_rza2_scifa_lld.c ****     RZA_IO_RegRead_16((volatile uint16_t *) &gsp_scifa[channel]->FSR.WORD, IOREG_NONSHIFT_ACCESS, I
 273              		.loc 1 237 0
 274 0054 085084E2 		add	r5, r4, #8
 234:D:/Work/DeviceTester/amazon-freertos/lib/third_party/mcu_vendor/renesas/rz_mcu_boards/core_package/generate/sc_drivers/r_scifa/src/lld\r_rza2_scifa_lld.c **** 
 275              		.loc 1 234 0
 276 0058 FEFFFFEB 		bl	RZA_IO_RegWrite_16
 277              	.LVL26:
 278              		.loc 1 237 0
 279 005c 0020E0E3 		mvn	r2, #0
 280 0060 0010A0E3 		mov	r1, #0
 281 0064 0500A0E1 		mov	r0, r5
 282 0068 FEFFFFEB 		bl	RZA_IO_RegRead_16
 283              	.LVL27:
 238:D:/Work/DeviceTester/amazon-freertos/lib/third_party/mcu_vendor/renesas/rz_mcu_boards/core_package/generate/sc_drivers/r_scifa/src/lld\r_rza2_scifa_lld.c **** 
 239:D:/Work/DeviceTester/amazon-freertos/lib/third_party/mcu_vendor/renesas/rz_mcu_boards/core_package/generate/sc_drivers/r_scifa/src/lld\r_rza2_scifa_lld.c ****     /* Clear all error flags of FSR */
 240:D:/Work/DeviceTester/amazon-freertos/lib/third_party/mcu_vendor/renesas/rz_mcu_boards/core_package/generate/sc_drivers/r_scifa/src/lld\r_rza2_scifa_lld.c ****     RZA_IO_RegWrite_16((volatile uint16_t *) &gsp_scifa[channel]->FSR.WORD, (uint16_t) 0, IOREG_NON
 284              		.loc 1 240 0
 285 006c 0020A0E3 		mov	r2, #0
 286 0070 0030E0E3 		mvn	r3, #0
 287 0074 0210A0E1 		mov	r1, r2
 288 0078 0500A0E1 		mov	r0, r5
 241:D:/Work/DeviceTester/amazon-freertos/lib/third_party/mcu_vendor/renesas/rz_mcu_boards/core_package/generate/sc_drivers/r_scifa/src/lld\r_rza2_scifa_lld.c **** 
 242:D:/Work/DeviceTester/amazon-freertos/lib/third_party/mcu_vendor/renesas/rz_mcu_boards/core_package/generate/sc_drivers/r_scifa/src/lld\r_rza2_scifa_lld.c ****     /* Read error flag first */
 243:D:/Work/DeviceTester/amazon-freertos/lib/third_party/mcu_vendor/renesas/rz_mcu_boards/core_package/generate/sc_drivers/r_scifa/src/lld\r_rza2_scifa_lld.c ****     RZA_IO_RegRead_16((volatile uint16_t *) &gsp_scifa[channel]->LSR.WORD, IOREG_NONSHIFT_ACCESS, I
 289              		.loc 1 243 0
 290 007c 125084E2 		add	r5, r4, #18
 240:D:/Work/DeviceTester/amazon-freertos/lib/third_party/mcu_vendor/renesas/rz_mcu_boards/core_package/generate/sc_drivers/r_scifa/src/lld\r_rza2_scifa_lld.c **** 
 291              		.loc 1 240 0
 292 0080 FEFFFFEB 		bl	RZA_IO_RegWrite_16
 293              	.LVL28:
 294              		.loc 1 243 0
 295 0084 0020E0E3 		mvn	r2, #0
 296 0088 0010A0E3 		mov	r1, #0
 297 008c 0500A0E1 		mov	r0, r5
 298 0090 FEFFFFEB 		bl	RZA_IO_RegRead_16
 299              	.LVL29:
 244:D:/Work/DeviceTester/amazon-freertos/lib/third_party/mcu_vendor/renesas/rz_mcu_boards/core_package/generate/sc_drivers/r_scifa/src/lld\r_rza2_scifa_lld.c **** 
 245:D:/Work/DeviceTester/amazon-freertos/lib/third_party/mcu_vendor/renesas/rz_mcu_boards/core_package/generate/sc_drivers/r_scifa/src/lld\r_rza2_scifa_lld.c ****     /* clear error flag of LSR */
 246:D:/Work/DeviceTester/amazon-freertos/lib/third_party/mcu_vendor/renesas/rz_mcu_boards/core_package/generate/sc_drivers/r_scifa/src/lld\r_rza2_scifa_lld.c ****     RZA_IO_RegWrite_16((volatile uint16_t *) &gsp_scifa[channel]->LSR.WORD, (uint16_t) 0, SCIFA_LSR
 300              		.loc 1 246 0
 301 0094 0020A0E3 		mov	r2, #0
 302 0098 0500A0E1 		mov	r0, r5
 303 009c 0210A0E1 		mov	r1, r2
 304 00a0 0130A0E3 		mov	r3, #1
 305 00a4 FEFFFFEB 		bl	RZA_IO_RegWrite_16
 306              	.LVL30:
 307              	.LBB8:
 308              	.LBB9:
 309              	.LBB10:
 247:D:/Work/DeviceTester/amazon-freertos/lib/third_party/mcu_vendor/renesas/rz_mcu_boards/core_package/generate/sc_drivers/r_scifa/src/lld\r_rza2_scifa_lld.c **** 
 248:D:/Work/DeviceTester/amazon-freertos/lib/third_party/mcu_vendor/renesas/rz_mcu_boards/core_package/generate/sc_drivers/r_scifa/src/lld\r_rza2_scifa_lld.c ****     /* set TXD output high */
 249:D:/Work/DeviceTester/amazon-freertos/lib/third_party/mcu_vendor/renesas/rz_mcu_boards/core_package/generate/sc_drivers/r_scifa/src/lld\r_rza2_scifa_lld.c ****     R_SCIFA_SetTXDOutput(channel, SCIFA_SPTR_INIT_HIGH);
 250:D:/Work/DeviceTester/amazon-freertos/lib/third_party/mcu_vendor/renesas/rz_mcu_boards/core_package/generate/sc_drivers/r_scifa/src/lld\r_rza2_scifa_lld.c **** 
 251:D:/Work/DeviceTester/amazon-freertos/lib/third_party/mcu_vendor/renesas/rz_mcu_boards/core_package/generate/sc_drivers/r_scifa/src/lld\r_rza2_scifa_lld.c ****     return (DRV_SUCCESS);
 252:D:/Work/DeviceTester/amazon-freertos/lib/third_party/mcu_vendor/renesas/rz_mcu_boards/core_package/generate/sc_drivers/r_scifa/src/lld\r_rza2_scifa_lld.c **** }
 253:D:/Work/DeviceTester/amazon-freertos/lib/third_party/mcu_vendor/renesas/rz_mcu_boards/core_package/generate/sc_drivers/r_scifa/src/lld\r_rza2_scifa_lld.c **** /**************************************************************************************************
 254:D:/Work/DeviceTester/amazon-freertos/lib/third_party/mcu_vendor/renesas/rz_mcu_boards/core_package/generate/sc_drivers/r_scifa/src/lld\r_rza2_scifa_lld.c ****  * End of Function R_SCIFA_Init
 255:D:/Work/DeviceTester/amazon-freertos/lib/third_party/mcu_vendor/renesas/rz_mcu_boards/core_package/generate/sc_drivers/r_scifa/src/lld\r_rza2_scifa_lld.c ****  **************************************************************************************************
 256:D:/Work/DeviceTester/amazon-freertos/lib/third_party/mcu_vendor/renesas/rz_mcu_boards/core_package/generate/sc_drivers/r_scifa/src/lld\r_rza2_scifa_lld.c **** 
 257:D:/Work/DeviceTester/amazon-freertos/lib/third_party/mcu_vendor/renesas/rz_mcu_boards/core_package/generate/sc_drivers/r_scifa/src/lld\r_rza2_scifa_lld.c **** /**
 258:D:/Work/DeviceTester/amazon-freertos/lib/third_party/mcu_vendor/renesas/rz_mcu_boards/core_package/generate/sc_drivers/r_scifa/src/lld\r_rza2_scifa_lld.c ****  * @brief R_SCIFA_SetParity Sets the channel parity
 259:D:/Work/DeviceTester/amazon-freertos/lib/third_party/mcu_vendor/renesas/rz_mcu_boards/core_package/generate/sc_drivers/r_scifa/src/lld\r_rza2_scifa_lld.c ****  * This function configures the channel parity to a setting
 260:D:/Work/DeviceTester/amazon-freertos/lib/third_party/mcu_vendor/renesas/rz_mcu_boards/core_package/generate/sc_drivers/r_scifa/src/lld\r_rza2_scifa_lld.c ****  * specified in e_scifa_parity_t
 261:D:/Work/DeviceTester/amazon-freertos/lib/third_party/mcu_vendor/renesas/rz_mcu_boards/core_package/generate/sc_drivers/r_scifa/src/lld\r_rza2_scifa_lld.c ****  *
 262:D:/Work/DeviceTester/amazon-freertos/lib/third_party/mcu_vendor/renesas/rz_mcu_boards/core_package/generate/sc_drivers/r_scifa/src/lld\r_rza2_scifa_lld.c ****  * @param[in] channel: channel to configure parity for
 263:D:/Work/DeviceTester/amazon-freertos/lib/third_party/mcu_vendor/renesas/rz_mcu_boards/core_package/generate/sc_drivers/r_scifa/src/lld\r_rza2_scifa_lld.c ****  * @param[in] desired_parity: parity to configure channel with
 264:D:/Work/DeviceTester/amazon-freertos/lib/third_party/mcu_vendor/renesas/rz_mcu_boards/core_package/generate/sc_drivers/r_scifa/src/lld\r_rza2_scifa_lld.c ****  *
 265:D:/Work/DeviceTester/amazon-freertos/lib/third_party/mcu_vendor/renesas/rz_mcu_boards/core_package/generate/sc_drivers/r_scifa/src/lld\r_rza2_scifa_lld.c ****  * @retval  0 DRV_SUCCESS
 266:D:/Work/DeviceTester/amazon-freertos/lib/third_party/mcu_vendor/renesas/rz_mcu_boards/core_package/generate/sc_drivers/r_scifa/src/lld\r_rza2_scifa_lld.c ****  * @retval -1 DRV_ERROR
 267:D:/Work/DeviceTester/amazon-freertos/lib/third_party/mcu_vendor/renesas/rz_mcu_boards/core_package/generate/sc_drivers/r_scifa/src/lld\r_rza2_scifa_lld.c ****  */
 268:D:/Work/DeviceTester/amazon-freertos/lib/third_party/mcu_vendor/renesas/rz_mcu_boards/core_package/generate/sc_drivers/r_scifa/src/lld\r_rza2_scifa_lld.c **** int_t R_SCIFA_SetParity (r_channel_t channel, scifa_parity_t desired_parity)
 269:D:/Work/DeviceTester/amazon-freertos/lib/third_party/mcu_vendor/renesas/rz_mcu_boards/core_package/generate/sc_drivers/r_scifa/src/lld\r_rza2_scifa_lld.c **** {
 270:D:/Work/DeviceTester/amazon-freertos/lib/third_party/mcu_vendor/renesas/rz_mcu_boards/core_package/generate/sc_drivers/r_scifa/src/lld\r_rza2_scifa_lld.c ****     if ((channel > R_PRV_CFG_SCIF_LAST_CHANNEL) || (channel < 0))
 271:D:/Work/DeviceTester/amazon-freertos/lib/third_party/mcu_vendor/renesas/rz_mcu_boards/core_package/generate/sc_drivers/r_scifa/src/lld\r_rza2_scifa_lld.c ****     {
 272:D:/Work/DeviceTester/amazon-freertos/lib/third_party/mcu_vendor/renesas/rz_mcu_boards/core_package/generate/sc_drivers/r_scifa/src/lld\r_rza2_scifa_lld.c ****         return (DRV_ERROR);
 273:D:/Work/DeviceTester/amazon-freertos/lib/third_party/mcu_vendor/renesas/rz_mcu_boards/core_package/generate/sc_drivers/r_scifa/src/lld\r_rza2_scifa_lld.c ****     }
 274:D:/Work/DeviceTester/amazon-freertos/lib/third_party/mcu_vendor/renesas/rz_mcu_boards/core_package/generate/sc_drivers/r_scifa/src/lld\r_rza2_scifa_lld.c **** 
 275:D:/Work/DeviceTester/amazon-freertos/lib/third_party/mcu_vendor/renesas/rz_mcu_boards/core_package/generate/sc_drivers/r_scifa/src/lld\r_rza2_scifa_lld.c ****     switch (desired_parity)
 276:D:/Work/DeviceTester/amazon-freertos/lib/third_party/mcu_vendor/renesas/rz_mcu_boards/core_package/generate/sc_drivers/r_scifa/src/lld\r_rza2_scifa_lld.c ****     {
 277:D:/Work/DeviceTester/amazon-freertos/lib/third_party/mcu_vendor/renesas/rz_mcu_boards/core_package/generate/sc_drivers/r_scifa/src/lld\r_rza2_scifa_lld.c ****         default:
 278:D:/Work/DeviceTester/amazon-freertos/lib/third_party/mcu_vendor/renesas/rz_mcu_boards/core_package/generate/sc_drivers/r_scifa/src/lld\r_rza2_scifa_lld.c ****         {
 279:D:/Work/DeviceTester/amazon-freertos/lib/third_party/mcu_vendor/renesas/rz_mcu_boards/core_package/generate/sc_drivers/r_scifa/src/lld\r_rza2_scifa_lld.c ****             /* invalid desired_parity value */
 280:D:/Work/DeviceTester/amazon-freertos/lib/third_party/mcu_vendor/renesas/rz_mcu_boards/core_package/generate/sc_drivers/r_scifa/src/lld\r_rza2_scifa_lld.c ****             return (DRV_ERROR);
 281:D:/Work/DeviceTester/amazon-freertos/lib/third_party/mcu_vendor/renesas/rz_mcu_boards/core_package/generate/sc_drivers/r_scifa/src/lld\r_rza2_scifa_lld.c ****         }
 282:D:/Work/DeviceTester/amazon-freertos/lib/third_party/mcu_vendor/renesas/rz_mcu_boards/core_package/generate/sc_drivers/r_scifa/src/lld\r_rza2_scifa_lld.c **** 
 283:D:/Work/DeviceTester/amazon-freertos/lib/third_party/mcu_vendor/renesas/rz_mcu_boards/core_package/generate/sc_drivers/r_scifa/src/lld\r_rza2_scifa_lld.c ****         case SCIFA_NONE_PARITY:
 284:D:/Work/DeviceTester/amazon-freertos/lib/third_party/mcu_vendor/renesas/rz_mcu_boards/core_package/generate/sc_drivers/r_scifa/src/lld\r_rza2_scifa_lld.c ****         {
 285:D:/Work/DeviceTester/amazon-freertos/lib/third_party/mcu_vendor/renesas/rz_mcu_boards/core_package/generate/sc_drivers/r_scifa/src/lld\r_rza2_scifa_lld.c ****             /* Parity enable bit */
 286:D:/Work/DeviceTester/amazon-freertos/lib/third_party/mcu_vendor/renesas/rz_mcu_boards/core_package/generate/sc_drivers/r_scifa/src/lld\r_rza2_scifa_lld.c ****             RZA_IO_RegWrite_16((volatile uint16_t *) &gsp_scifa[channel]->SMR.WORD, (uint16_t) 0, S
 287:D:/Work/DeviceTester/amazon-freertos/lib/third_party/mcu_vendor/renesas/rz_mcu_boards/core_package/generate/sc_drivers/r_scifa/src/lld\r_rza2_scifa_lld.c ****             break;
 288:D:/Work/DeviceTester/amazon-freertos/lib/third_party/mcu_vendor/renesas/rz_mcu_boards/core_package/generate/sc_drivers/r_scifa/src/lld\r_rza2_scifa_lld.c ****         }
 289:D:/Work/DeviceTester/amazon-freertos/lib/third_party/mcu_vendor/renesas/rz_mcu_boards/core_package/generate/sc_drivers/r_scifa/src/lld\r_rza2_scifa_lld.c **** 
 290:D:/Work/DeviceTester/amazon-freertos/lib/third_party/mcu_vendor/renesas/rz_mcu_boards/core_package/generate/sc_drivers/r_scifa/src/lld\r_rza2_scifa_lld.c ****         case SCIFA_ODD_PARITY:
 291:D:/Work/DeviceTester/amazon-freertos/lib/third_party/mcu_vendor/renesas/rz_mcu_boards/core_package/generate/sc_drivers/r_scifa/src/lld\r_rza2_scifa_lld.c ****         {
 292:D:/Work/DeviceTester/amazon-freertos/lib/third_party/mcu_vendor/renesas/rz_mcu_boards/core_package/generate/sc_drivers/r_scifa/src/lld\r_rza2_scifa_lld.c ****             /* Parity enable bit */
 293:D:/Work/DeviceTester/amazon-freertos/lib/third_party/mcu_vendor/renesas/rz_mcu_boards/core_package/generate/sc_drivers/r_scifa/src/lld\r_rza2_scifa_lld.c ****             RZA_IO_RegWrite_16((volatile uint16_t *) &gsp_scifa[channel]->SMR.WORD, (uint16_t) 1, S
 294:D:/Work/DeviceTester/amazon-freertos/lib/third_party/mcu_vendor/renesas/rz_mcu_boards/core_package/generate/sc_drivers/r_scifa/src/lld\r_rza2_scifa_lld.c **** 
 295:D:/Work/DeviceTester/amazon-freertos/lib/third_party/mcu_vendor/renesas/rz_mcu_boards/core_package/generate/sc_drivers/r_scifa/src/lld\r_rza2_scifa_lld.c ****             /* Parity mode bit */
 296:D:/Work/DeviceTester/amazon-freertos/lib/third_party/mcu_vendor/renesas/rz_mcu_boards/core_package/generate/sc_drivers/r_scifa/src/lld\r_rza2_scifa_lld.c ****             RZA_IO_RegWrite_16((volatile uint16_t *) &gsp_scifa[channel]->SMR.WORD, (uint16_t) 1, S
 297:D:/Work/DeviceTester/amazon-freertos/lib/third_party/mcu_vendor/renesas/rz_mcu_boards/core_package/generate/sc_drivers/r_scifa/src/lld\r_rza2_scifa_lld.c ****             break;
 298:D:/Work/DeviceTester/amazon-freertos/lib/third_party/mcu_vendor/renesas/rz_mcu_boards/core_package/generate/sc_drivers/r_scifa/src/lld\r_rza2_scifa_lld.c ****         }
 299:D:/Work/DeviceTester/amazon-freertos/lib/third_party/mcu_vendor/renesas/rz_mcu_boards/core_package/generate/sc_drivers/r_scifa/src/lld\r_rza2_scifa_lld.c **** 
 300:D:/Work/DeviceTester/amazon-freertos/lib/third_party/mcu_vendor/renesas/rz_mcu_boards/core_package/generate/sc_drivers/r_scifa/src/lld\r_rza2_scifa_lld.c ****         case SCIFA_EVEN_PARITY:
 301:D:/Work/DeviceTester/amazon-freertos/lib/third_party/mcu_vendor/renesas/rz_mcu_boards/core_package/generate/sc_drivers/r_scifa/src/lld\r_rza2_scifa_lld.c ****         {
 302:D:/Work/DeviceTester/amazon-freertos/lib/third_party/mcu_vendor/renesas/rz_mcu_boards/core_package/generate/sc_drivers/r_scifa/src/lld\r_rza2_scifa_lld.c ****             /* Parity enable bit */
 303:D:/Work/DeviceTester/amazon-freertos/lib/third_party/mcu_vendor/renesas/rz_mcu_boards/core_package/generate/sc_drivers/r_scifa/src/lld\r_rza2_scifa_lld.c ****             RZA_IO_RegWrite_16((volatile uint16_t *) &gsp_scifa[channel]->SMR.WORD, (uint16_t) 1, S
 304:D:/Work/DeviceTester/amazon-freertos/lib/third_party/mcu_vendor/renesas/rz_mcu_boards/core_package/generate/sc_drivers/r_scifa/src/lld\r_rza2_scifa_lld.c **** 
 305:D:/Work/DeviceTester/amazon-freertos/lib/third_party/mcu_vendor/renesas/rz_mcu_boards/core_package/generate/sc_drivers/r_scifa/src/lld\r_rza2_scifa_lld.c ****             /* Parity mode bit */
 306:D:/Work/DeviceTester/amazon-freertos/lib/third_party/mcu_vendor/renesas/rz_mcu_boards/core_package/generate/sc_drivers/r_scifa/src/lld\r_rza2_scifa_lld.c ****             RZA_IO_RegWrite_16((volatile uint16_t *) &gsp_scifa[channel]->SMR.WORD, (uint16_t) 0, S
 307:D:/Work/DeviceTester/amazon-freertos/lib/third_party/mcu_vendor/renesas/rz_mcu_boards/core_package/generate/sc_drivers/r_scifa/src/lld\r_rza2_scifa_lld.c ****             break;
 308:D:/Work/DeviceTester/amazon-freertos/lib/third_party/mcu_vendor/renesas/rz_mcu_boards/core_package/generate/sc_drivers/r_scifa/src/lld\r_rza2_scifa_lld.c ****         }
 309:D:/Work/DeviceTester/amazon-freertos/lib/third_party/mcu_vendor/renesas/rz_mcu_boards/core_package/generate/sc_drivers/r_scifa/src/lld\r_rza2_scifa_lld.c ****     }
 310:D:/Work/DeviceTester/amazon-freertos/lib/third_party/mcu_vendor/renesas/rz_mcu_boards/core_package/generate/sc_drivers/r_scifa/src/lld\r_rza2_scifa_lld.c **** 
 311:D:/Work/DeviceTester/amazon-freertos/lib/third_party/mcu_vendor/renesas/rz_mcu_boards/core_package/generate/sc_drivers/r_scifa/src/lld\r_rza2_scifa_lld.c ****     return (DRV_SUCCESS);
 312:D:/Work/DeviceTester/amazon-freertos/lib/third_party/mcu_vendor/renesas/rz_mcu_boards/core_package/generate/sc_drivers/r_scifa/src/lld\r_rza2_scifa_lld.c **** }
 313:D:/Work/DeviceTester/amazon-freertos/lib/third_party/mcu_vendor/renesas/rz_mcu_boards/core_package/generate/sc_drivers/r_scifa/src/lld\r_rza2_scifa_lld.c **** /**************************************************************************************************
 314:D:/Work/DeviceTester/amazon-freertos/lib/third_party/mcu_vendor/renesas/rz_mcu_boards/core_package/generate/sc_drivers/r_scifa/src/lld\r_rza2_scifa_lld.c ****  * End of Function R_SCIFA_SetParity
 315:D:/Work/DeviceTester/amazon-freertos/lib/third_party/mcu_vendor/renesas/rz_mcu_boards/core_package/generate/sc_drivers/r_scifa/src/lld\r_rza2_scifa_lld.c ****  **************************************************************************************************
 316:D:/Work/DeviceTester/amazon-freertos/lib/third_party/mcu_vendor/renesas/rz_mcu_boards/core_package/generate/sc_drivers/r_scifa/src/lld\r_rza2_scifa_lld.c **** 
 317:D:/Work/DeviceTester/amazon-freertos/lib/third_party/mcu_vendor/renesas/rz_mcu_boards/core_package/generate/sc_drivers/r_scifa/src/lld\r_rza2_scifa_lld.c **** /**
 318:D:/Work/DeviceTester/amazon-freertos/lib/third_party/mcu_vendor/renesas/rz_mcu_boards/core_package/generate/sc_drivers/r_scifa/src/lld\r_rza2_scifa_lld.c ****  * @brief R_SICFA_SetTransmissionMode sets the transmission mode for a channel
 319:D:/Work/DeviceTester/amazon-freertos/lib/third_party/mcu_vendor/renesas/rz_mcu_boards/core_package/generate/sc_drivers/r_scifa/src/lld\r_rza2_scifa_lld.c ****  * This function configures the channel parity to a setting
 320:D:/Work/DeviceTester/amazon-freertos/lib/third_party/mcu_vendor/renesas/rz_mcu_boards/core_package/generate/sc_drivers/r_scifa/src/lld\r_rza2_scifa_lld.c ****  * specified in e_scifa_mode_t
 321:D:/Work/DeviceTester/amazon-freertos/lib/third_party/mcu_vendor/renesas/rz_mcu_boards/core_package/generate/sc_drivers/r_scifa/src/lld\r_rza2_scifa_lld.c ****  *
 322:D:/Work/DeviceTester/amazon-freertos/lib/third_party/mcu_vendor/renesas/rz_mcu_boards/core_package/generate/sc_drivers/r_scifa/src/lld\r_rza2_scifa_lld.c ****  * @param[in] channel: channel to set transmission mode for
 323:D:/Work/DeviceTester/amazon-freertos/lib/third_party/mcu_vendor/renesas/rz_mcu_boards/core_package/generate/sc_drivers/r_scifa/src/lld\r_rza2_scifa_lld.c ****  * @param[in] desired_mode: the desired transmission mode for the channel
 324:D:/Work/DeviceTester/amazon-freertos/lib/third_party/mcu_vendor/renesas/rz_mcu_boards/core_package/generate/sc_drivers/r_scifa/src/lld\r_rza2_scifa_lld.c ****  *
 325:D:/Work/DeviceTester/amazon-freertos/lib/third_party/mcu_vendor/renesas/rz_mcu_boards/core_package/generate/sc_drivers/r_scifa/src/lld\r_rza2_scifa_lld.c ****  * @retval  0 DRV_SUCCESS
 326:D:/Work/DeviceTester/amazon-freertos/lib/third_party/mcu_vendor/renesas/rz_mcu_boards/core_package/generate/sc_drivers/r_scifa/src/lld\r_rza2_scifa_lld.c ****  * @retval -1 DRV_ERROR
 327:D:/Work/DeviceTester/amazon-freertos/lib/third_party/mcu_vendor/renesas/rz_mcu_boards/core_package/generate/sc_drivers/r_scifa/src/lld\r_rza2_scifa_lld.c ****  */
 328:D:/Work/DeviceTester/amazon-freertos/lib/third_party/mcu_vendor/renesas/rz_mcu_boards/core_package/generate/sc_drivers/r_scifa/src/lld\r_rza2_scifa_lld.c **** int_t R_SICFA_SetTransmissionMode (r_channel_t channel, scifa_sync_mode_t desired_mode)
 329:D:/Work/DeviceTester/amazon-freertos/lib/third_party/mcu_vendor/renesas/rz_mcu_boards/core_package/generate/sc_drivers/r_scifa/src/lld\r_rza2_scifa_lld.c **** {
 330:D:/Work/DeviceTester/amazon-freertos/lib/third_party/mcu_vendor/renesas/rz_mcu_boards/core_package/generate/sc_drivers/r_scifa/src/lld\r_rza2_scifa_lld.c ****     if ((channel > R_PRV_CFG_SCIF_LAST_CHANNEL) || (channel < 0))
 331:D:/Work/DeviceTester/amazon-freertos/lib/third_party/mcu_vendor/renesas/rz_mcu_boards/core_package/generate/sc_drivers/r_scifa/src/lld\r_rza2_scifa_lld.c ****     {
 332:D:/Work/DeviceTester/amazon-freertos/lib/third_party/mcu_vendor/renesas/rz_mcu_boards/core_package/generate/sc_drivers/r_scifa/src/lld\r_rza2_scifa_lld.c ****         return (DRV_ERROR);
 333:D:/Work/DeviceTester/amazon-freertos/lib/third_party/mcu_vendor/renesas/rz_mcu_boards/core_package/generate/sc_drivers/r_scifa/src/lld\r_rza2_scifa_lld.c ****     }
 334:D:/Work/DeviceTester/amazon-freertos/lib/third_party/mcu_vendor/renesas/rz_mcu_boards/core_package/generate/sc_drivers/r_scifa/src/lld\r_rza2_scifa_lld.c **** 
 335:D:/Work/DeviceTester/amazon-freertos/lib/third_party/mcu_vendor/renesas/rz_mcu_boards/core_package/generate/sc_drivers/r_scifa/src/lld\r_rza2_scifa_lld.c ****     switch (desired_mode)
 336:D:/Work/DeviceTester/amazon-freertos/lib/third_party/mcu_vendor/renesas/rz_mcu_boards/core_package/generate/sc_drivers/r_scifa/src/lld\r_rza2_scifa_lld.c ****     {
 337:D:/Work/DeviceTester/amazon-freertos/lib/third_party/mcu_vendor/renesas/rz_mcu_boards/core_package/generate/sc_drivers/r_scifa/src/lld\r_rza2_scifa_lld.c ****         default:
 338:D:/Work/DeviceTester/amazon-freertos/lib/third_party/mcu_vendor/renesas/rz_mcu_boards/core_package/generate/sc_drivers/r_scifa/src/lld\r_rza2_scifa_lld.c ****         {
 339:D:/Work/DeviceTester/amazon-freertos/lib/third_party/mcu_vendor/renesas/rz_mcu_boards/core_package/generate/sc_drivers/r_scifa/src/lld\r_rza2_scifa_lld.c ****             /* invalid desired_mode value */
 340:D:/Work/DeviceTester/amazon-freertos/lib/third_party/mcu_vendor/renesas/rz_mcu_boards/core_package/generate/sc_drivers/r_scifa/src/lld\r_rza2_scifa_lld.c ****             return (DRV_ERROR);
 341:D:/Work/DeviceTester/amazon-freertos/lib/third_party/mcu_vendor/renesas/rz_mcu_boards/core_package/generate/sc_drivers/r_scifa/src/lld\r_rza2_scifa_lld.c ****         }
 342:D:/Work/DeviceTester/amazon-freertos/lib/third_party/mcu_vendor/renesas/rz_mcu_boards/core_package/generate/sc_drivers/r_scifa/src/lld\r_rza2_scifa_lld.c **** 
 343:D:/Work/DeviceTester/amazon-freertos/lib/third_party/mcu_vendor/renesas/rz_mcu_boards/core_package/generate/sc_drivers/r_scifa/src/lld\r_rza2_scifa_lld.c ****         case SCIFA_MODE_ASYNC:
 344:D:/Work/DeviceTester/amazon-freertos/lib/third_party/mcu_vendor/renesas/rz_mcu_boards/core_package/generate/sc_drivers/r_scifa/src/lld\r_rza2_scifa_lld.c ****         {
 345:D:/Work/DeviceTester/amazon-freertos/lib/third_party/mcu_vendor/renesas/rz_mcu_boards/core_package/generate/sc_drivers/r_scifa/src/lld\r_rza2_scifa_lld.c ****             /* Communication mode : Asynchronous */
 346:D:/Work/DeviceTester/amazon-freertos/lib/third_party/mcu_vendor/renesas/rz_mcu_boards/core_package/generate/sc_drivers/r_scifa/src/lld\r_rza2_scifa_lld.c ****             RZA_IO_RegWrite_16((volatile uint16_t *) &gsp_scifa[channel]->SMR.WORD, (uint16_t) 0, S
 347:D:/Work/DeviceTester/amazon-freertos/lib/third_party/mcu_vendor/renesas/rz_mcu_boards/core_package/generate/sc_drivers/r_scifa/src/lld\r_rza2_scifa_lld.c ****             break;
 348:D:/Work/DeviceTester/amazon-freertos/lib/third_party/mcu_vendor/renesas/rz_mcu_boards/core_package/generate/sc_drivers/r_scifa/src/lld\r_rza2_scifa_lld.c ****         }
 349:D:/Work/DeviceTester/amazon-freertos/lib/third_party/mcu_vendor/renesas/rz_mcu_boards/core_package/generate/sc_drivers/r_scifa/src/lld\r_rza2_scifa_lld.c **** 
 350:D:/Work/DeviceTester/amazon-freertos/lib/third_party/mcu_vendor/renesas/rz_mcu_boards/core_package/generate/sc_drivers/r_scifa/src/lld\r_rza2_scifa_lld.c ****         case SCIFA_MODE_SYNC:
 351:D:/Work/DeviceTester/amazon-freertos/lib/third_party/mcu_vendor/renesas/rz_mcu_boards/core_package/generate/sc_drivers/r_scifa/src/lld\r_rza2_scifa_lld.c ****         {
 352:D:/Work/DeviceTester/amazon-freertos/lib/third_party/mcu_vendor/renesas/rz_mcu_boards/core_package/generate/sc_drivers/r_scifa/src/lld\r_rza2_scifa_lld.c ****             /* Communication mode : Synchronous */
 353:D:/Work/DeviceTester/amazon-freertos/lib/third_party/mcu_vendor/renesas/rz_mcu_boards/core_package/generate/sc_drivers/r_scifa/src/lld\r_rza2_scifa_lld.c ****             RZA_IO_RegWrite_16((volatile uint16_t *) &gsp_scifa[channel]->SMR.WORD, (uint16_t) 1, S
 354:D:/Work/DeviceTester/amazon-freertos/lib/third_party/mcu_vendor/renesas/rz_mcu_boards/core_package/generate/sc_drivers/r_scifa/src/lld\r_rza2_scifa_lld.c ****             break;
 355:D:/Work/DeviceTester/amazon-freertos/lib/third_party/mcu_vendor/renesas/rz_mcu_boards/core_package/generate/sc_drivers/r_scifa/src/lld\r_rza2_scifa_lld.c ****         }
 356:D:/Work/DeviceTester/amazon-freertos/lib/third_party/mcu_vendor/renesas/rz_mcu_boards/core_package/generate/sc_drivers/r_scifa/src/lld\r_rza2_scifa_lld.c ****     }
 357:D:/Work/DeviceTester/amazon-freertos/lib/third_party/mcu_vendor/renesas/rz_mcu_boards/core_package/generate/sc_drivers/r_scifa/src/lld\r_rza2_scifa_lld.c **** 
 358:D:/Work/DeviceTester/amazon-freertos/lib/third_party/mcu_vendor/renesas/rz_mcu_boards/core_package/generate/sc_drivers/r_scifa/src/lld\r_rza2_scifa_lld.c ****     return (DRV_SUCCESS);
 359:D:/Work/DeviceTester/amazon-freertos/lib/third_party/mcu_vendor/renesas/rz_mcu_boards/core_package/generate/sc_drivers/r_scifa/src/lld\r_rza2_scifa_lld.c **** }
 360:D:/Work/DeviceTester/amazon-freertos/lib/third_party/mcu_vendor/renesas/rz_mcu_boards/core_package/generate/sc_drivers/r_scifa/src/lld\r_rza2_scifa_lld.c **** /**************************************************************************************************
 361:D:/Work/DeviceTester/amazon-freertos/lib/third_party/mcu_vendor/renesas/rz_mcu_boards/core_package/generate/sc_drivers/r_scifa/src/lld\r_rza2_scifa_lld.c ****  * End of Function R_SICFA_SetTransmissionMode
 362:D:/Work/DeviceTester/amazon-freertos/lib/third_party/mcu_vendor/renesas/rz_mcu_boards/core_package/generate/sc_drivers/r_scifa/src/lld\r_rza2_scifa_lld.c ****  **************************************************************************************************
 363:D:/Work/DeviceTester/amazon-freertos/lib/third_party/mcu_vendor/renesas/rz_mcu_boards/core_package/generate/sc_drivers/r_scifa/src/lld\r_rza2_scifa_lld.c **** 
 364:D:/Work/DeviceTester/amazon-freertos/lib/third_party/mcu_vendor/renesas/rz_mcu_boards/core_package/generate/sc_drivers/r_scifa/src/lld\r_rza2_scifa_lld.c **** /**
 365:D:/Work/DeviceTester/amazon-freertos/lib/third_party/mcu_vendor/renesas/rz_mcu_boards/core_package/generate/sc_drivers/r_scifa/src/lld\r_rza2_scifa_lld.c ****  * @brief R_SCIFA_SetStopBits Sets the number of stop bits for a channel
 366:D:/Work/DeviceTester/amazon-freertos/lib/third_party/mcu_vendor/renesas/rz_mcu_boards/core_package/generate/sc_drivers/r_scifa/src/lld\r_rza2_scifa_lld.c ****  * This function configures the channel stop bits to a setting
 367:D:/Work/DeviceTester/amazon-freertos/lib/third_party/mcu_vendor/renesas/rz_mcu_boards/core_package/generate/sc_drivers/r_scifa/src/lld\r_rza2_scifa_lld.c ****  * specified in e_scifa_stop_bits_t
 368:D:/Work/DeviceTester/amazon-freertos/lib/third_party/mcu_vendor/renesas/rz_mcu_boards/core_package/generate/sc_drivers/r_scifa/src/lld\r_rza2_scifa_lld.c ****  *
 369:D:/Work/DeviceTester/amazon-freertos/lib/third_party/mcu_vendor/renesas/rz_mcu_boards/core_package/generate/sc_drivers/r_scifa/src/lld\r_rza2_scifa_lld.c ****  * @param[in] channel: channel to set stop bits for
 370:D:/Work/DeviceTester/amazon-freertos/lib/third_party/mcu_vendor/renesas/rz_mcu_boards/core_package/generate/sc_drivers/r_scifa/src/lld\r_rza2_scifa_lld.c ****  * @param[in] desired_stop_bits: number of stop bits to set for channel
 371:D:/Work/DeviceTester/amazon-freertos/lib/third_party/mcu_vendor/renesas/rz_mcu_boards/core_package/generate/sc_drivers/r_scifa/src/lld\r_rza2_scifa_lld.c ****  *
 372:D:/Work/DeviceTester/amazon-freertos/lib/third_party/mcu_vendor/renesas/rz_mcu_boards/core_package/generate/sc_drivers/r_scifa/src/lld\r_rza2_scifa_lld.c ****  * @retval  0 DRV_SUCCESS
 373:D:/Work/DeviceTester/amazon-freertos/lib/third_party/mcu_vendor/renesas/rz_mcu_boards/core_package/generate/sc_drivers/r_scifa/src/lld\r_rza2_scifa_lld.c ****  * @retval -1 DRV_ERROR
 374:D:/Work/DeviceTester/amazon-freertos/lib/third_party/mcu_vendor/renesas/rz_mcu_boards/core_package/generate/sc_drivers/r_scifa/src/lld\r_rza2_scifa_lld.c ****  */
 375:D:/Work/DeviceTester/amazon-freertos/lib/third_party/mcu_vendor/renesas/rz_mcu_boards/core_package/generate/sc_drivers/r_scifa/src/lld\r_rza2_scifa_lld.c **** int_t R_SCIFA_SetStopBits (r_channel_t channel, scifa_stop_t desired_stop_bits)
 376:D:/Work/DeviceTester/amazon-freertos/lib/third_party/mcu_vendor/renesas/rz_mcu_boards/core_package/generate/sc_drivers/r_scifa/src/lld\r_rza2_scifa_lld.c **** {
 377:D:/Work/DeviceTester/amazon-freertos/lib/third_party/mcu_vendor/renesas/rz_mcu_boards/core_package/generate/sc_drivers/r_scifa/src/lld\r_rza2_scifa_lld.c ****     if ((channel > R_PRV_CFG_SCIF_LAST_CHANNEL) || (channel < 0))
 378:D:/Work/DeviceTester/amazon-freertos/lib/third_party/mcu_vendor/renesas/rz_mcu_boards/core_package/generate/sc_drivers/r_scifa/src/lld\r_rza2_scifa_lld.c ****     {
 379:D:/Work/DeviceTester/amazon-freertos/lib/third_party/mcu_vendor/renesas/rz_mcu_boards/core_package/generate/sc_drivers/r_scifa/src/lld\r_rza2_scifa_lld.c ****         return (DRV_ERROR);
 380:D:/Work/DeviceTester/amazon-freertos/lib/third_party/mcu_vendor/renesas/rz_mcu_boards/core_package/generate/sc_drivers/r_scifa/src/lld\r_rza2_scifa_lld.c ****     }
 381:D:/Work/DeviceTester/amazon-freertos/lib/third_party/mcu_vendor/renesas/rz_mcu_boards/core_package/generate/sc_drivers/r_scifa/src/lld\r_rza2_scifa_lld.c **** 
 382:D:/Work/DeviceTester/amazon-freertos/lib/third_party/mcu_vendor/renesas/rz_mcu_boards/core_package/generate/sc_drivers/r_scifa/src/lld\r_rza2_scifa_lld.c ****     switch (desired_stop_bits)
 383:D:/Work/DeviceTester/amazon-freertos/lib/third_party/mcu_vendor/renesas/rz_mcu_boards/core_package/generate/sc_drivers/r_scifa/src/lld\r_rza2_scifa_lld.c ****     {
 384:D:/Work/DeviceTester/amazon-freertos/lib/third_party/mcu_vendor/renesas/rz_mcu_boards/core_package/generate/sc_drivers/r_scifa/src/lld\r_rza2_scifa_lld.c ****         default:
 385:D:/Work/DeviceTester/amazon-freertos/lib/third_party/mcu_vendor/renesas/rz_mcu_boards/core_package/generate/sc_drivers/r_scifa/src/lld\r_rza2_scifa_lld.c ****         {
 386:D:/Work/DeviceTester/amazon-freertos/lib/third_party/mcu_vendor/renesas/rz_mcu_boards/core_package/generate/sc_drivers/r_scifa/src/lld\r_rza2_scifa_lld.c ****             /* invalid desired_stop_bits value */
 387:D:/Work/DeviceTester/amazon-freertos/lib/third_party/mcu_vendor/renesas/rz_mcu_boards/core_package/generate/sc_drivers/r_scifa/src/lld\r_rza2_scifa_lld.c ****             return (DRV_ERROR);
 388:D:/Work/DeviceTester/amazon-freertos/lib/third_party/mcu_vendor/renesas/rz_mcu_boards/core_package/generate/sc_drivers/r_scifa/src/lld\r_rza2_scifa_lld.c ****         }
 389:D:/Work/DeviceTester/amazon-freertos/lib/third_party/mcu_vendor/renesas/rz_mcu_boards/core_package/generate/sc_drivers/r_scifa/src/lld\r_rza2_scifa_lld.c **** 
 390:D:/Work/DeviceTester/amazon-freertos/lib/third_party/mcu_vendor/renesas/rz_mcu_boards/core_package/generate/sc_drivers/r_scifa/src/lld\r_rza2_scifa_lld.c ****         case SCIFA_STOPBITS_1:
 391:D:/Work/DeviceTester/amazon-freertos/lib/third_party/mcu_vendor/renesas/rz_mcu_boards/core_package/generate/sc_drivers/r_scifa/src/lld\r_rza2_scifa_lld.c ****         {
 392:D:/Work/DeviceTester/amazon-freertos/lib/third_party/mcu_vendor/renesas/rz_mcu_boards/core_package/generate/sc_drivers/r_scifa/src/lld\r_rza2_scifa_lld.c ****             /* Stop bit length : 1 stop bit */
 393:D:/Work/DeviceTester/amazon-freertos/lib/third_party/mcu_vendor/renesas/rz_mcu_boards/core_package/generate/sc_drivers/r_scifa/src/lld\r_rza2_scifa_lld.c ****             RZA_IO_RegWrite_16((volatile uint16_t *) &gsp_scifa[channel]->SMR.WORD, (uint16_t) 0, S
 394:D:/Work/DeviceTester/amazon-freertos/lib/third_party/mcu_vendor/renesas/rz_mcu_boards/core_package/generate/sc_drivers/r_scifa/src/lld\r_rza2_scifa_lld.c ****             break;
 395:D:/Work/DeviceTester/amazon-freertos/lib/third_party/mcu_vendor/renesas/rz_mcu_boards/core_package/generate/sc_drivers/r_scifa/src/lld\r_rza2_scifa_lld.c ****         }
 396:D:/Work/DeviceTester/amazon-freertos/lib/third_party/mcu_vendor/renesas/rz_mcu_boards/core_package/generate/sc_drivers/r_scifa/src/lld\r_rza2_scifa_lld.c **** 
 397:D:/Work/DeviceTester/amazon-freertos/lib/third_party/mcu_vendor/renesas/rz_mcu_boards/core_package/generate/sc_drivers/r_scifa/src/lld\r_rza2_scifa_lld.c ****         case SCIFA_STOPBITS_2:
 398:D:/Work/DeviceTester/amazon-freertos/lib/third_party/mcu_vendor/renesas/rz_mcu_boards/core_package/generate/sc_drivers/r_scifa/src/lld\r_rza2_scifa_lld.c ****         {
 399:D:/Work/DeviceTester/amazon-freertos/lib/third_party/mcu_vendor/renesas/rz_mcu_boards/core_package/generate/sc_drivers/r_scifa/src/lld\r_rza2_scifa_lld.c ****             /* Stop bit length : 2 stop bits */
 400:D:/Work/DeviceTester/amazon-freertos/lib/third_party/mcu_vendor/renesas/rz_mcu_boards/core_package/generate/sc_drivers/r_scifa/src/lld\r_rza2_scifa_lld.c ****             RZA_IO_RegWrite_16((volatile uint16_t *) &gsp_scifa[channel]->SMR.WORD, (uint16_t) 1, S
 401:D:/Work/DeviceTester/amazon-freertos/lib/third_party/mcu_vendor/renesas/rz_mcu_boards/core_package/generate/sc_drivers/r_scifa/src/lld\r_rza2_scifa_lld.c ****             break;
 402:D:/Work/DeviceTester/amazon-freertos/lib/third_party/mcu_vendor/renesas/rz_mcu_boards/core_package/generate/sc_drivers/r_scifa/src/lld\r_rza2_scifa_lld.c ****         }
 403:D:/Work/DeviceTester/amazon-freertos/lib/third_party/mcu_vendor/renesas/rz_mcu_boards/core_package/generate/sc_drivers/r_scifa/src/lld\r_rza2_scifa_lld.c ****     }
 404:D:/Work/DeviceTester/amazon-freertos/lib/third_party/mcu_vendor/renesas/rz_mcu_boards/core_package/generate/sc_drivers/r_scifa/src/lld\r_rza2_scifa_lld.c **** 
 405:D:/Work/DeviceTester/amazon-freertos/lib/third_party/mcu_vendor/renesas/rz_mcu_boards/core_package/generate/sc_drivers/r_scifa/src/lld\r_rza2_scifa_lld.c ****     return (DRV_SUCCESS);
 406:D:/Work/DeviceTester/amazon-freertos/lib/third_party/mcu_vendor/renesas/rz_mcu_boards/core_package/generate/sc_drivers/r_scifa/src/lld\r_rza2_scifa_lld.c **** }
 407:D:/Work/DeviceTester/amazon-freertos/lib/third_party/mcu_vendor/renesas/rz_mcu_boards/core_package/generate/sc_drivers/r_scifa/src/lld\r_rza2_scifa_lld.c **** /**************************************************************************************************
 408:D:/Work/DeviceTester/amazon-freertos/lib/third_party/mcu_vendor/renesas/rz_mcu_boards/core_package/generate/sc_drivers/r_scifa/src/lld\r_rza2_scifa_lld.c ****  * End of Function R_SCIFA_SetStopBits
 409:D:/Work/DeviceTester/amazon-freertos/lib/third_party/mcu_vendor/renesas/rz_mcu_boards/core_package/generate/sc_drivers/r_scifa/src/lld\r_rza2_scifa_lld.c ****  **************************************************************************************************
 410:D:/Work/DeviceTester/amazon-freertos/lib/third_party/mcu_vendor/renesas/rz_mcu_boards/core_package/generate/sc_drivers/r_scifa/src/lld\r_rza2_scifa_lld.c **** 
 411:D:/Work/DeviceTester/amazon-freertos/lib/third_party/mcu_vendor/renesas/rz_mcu_boards/core_package/generate/sc_drivers/r_scifa/src/lld\r_rza2_scifa_lld.c **** /**
 412:D:/Work/DeviceTester/amazon-freertos/lib/third_party/mcu_vendor/renesas/rz_mcu_boards/core_package/generate/sc_drivers/r_scifa/src/lld\r_rza2_scifa_lld.c ****  * @brief R_SCIFA_SetDataBits sets the number of data bits for a channel
 413:D:/Work/DeviceTester/amazon-freertos/lib/third_party/mcu_vendor/renesas/rz_mcu_boards/core_package/generate/sc_drivers/r_scifa/src/lld\r_rza2_scifa_lld.c ****  * This function configures the channel data bits to a value defined in
 414:D:/Work/DeviceTester/amazon-freertos/lib/third_party/mcu_vendor/renesas/rz_mcu_boards/core_package/generate/sc_drivers/r_scifa/src/lld\r_rza2_scifa_lld.c ****  * e_scifa_data_bits_t
 415:D:/Work/DeviceTester/amazon-freertos/lib/third_party/mcu_vendor/renesas/rz_mcu_boards/core_package/generate/sc_drivers/r_scifa/src/lld\r_rza2_scifa_lld.c ****  *
 416:D:/Work/DeviceTester/amazon-freertos/lib/third_party/mcu_vendor/renesas/rz_mcu_boards/core_package/generate/sc_drivers/r_scifa/src/lld\r_rza2_scifa_lld.c ****  * @param[in] channel: channel to set data bits for
 417:D:/Work/DeviceTester/amazon-freertos/lib/third_party/mcu_vendor/renesas/rz_mcu_boards/core_package/generate/sc_drivers/r_scifa/src/lld\r_rza2_scifa_lld.c ****  * @param[in] desired_data_bits: number of data bits to set for channel
 418:D:/Work/DeviceTester/amazon-freertos/lib/third_party/mcu_vendor/renesas/rz_mcu_boards/core_package/generate/sc_drivers/r_scifa/src/lld\r_rza2_scifa_lld.c ****  *
 419:D:/Work/DeviceTester/amazon-freertos/lib/third_party/mcu_vendor/renesas/rz_mcu_boards/core_package/generate/sc_drivers/r_scifa/src/lld\r_rza2_scifa_lld.c ****  * @retval  0 DRV_SUCCESS
 420:D:/Work/DeviceTester/amazon-freertos/lib/third_party/mcu_vendor/renesas/rz_mcu_boards/core_package/generate/sc_drivers/r_scifa/src/lld\r_rza2_scifa_lld.c ****  * @retval -1 DRV_ERROR 
 421:D:/Work/DeviceTester/amazon-freertos/lib/third_party/mcu_vendor/renesas/rz_mcu_boards/core_package/generate/sc_drivers/r_scifa/src/lld\r_rza2_scifa_lld.c ****  */
 422:D:/Work/DeviceTester/amazon-freertos/lib/third_party/mcu_vendor/renesas/rz_mcu_boards/core_package/generate/sc_drivers/r_scifa/src/lld\r_rza2_scifa_lld.c **** int_t R_SCIFA_SetDataBits (r_channel_t channel, scifa_size_t desired_data_bits)
 423:D:/Work/DeviceTester/amazon-freertos/lib/third_party/mcu_vendor/renesas/rz_mcu_boards/core_package/generate/sc_drivers/r_scifa/src/lld\r_rza2_scifa_lld.c **** {
 424:D:/Work/DeviceTester/amazon-freertos/lib/third_party/mcu_vendor/renesas/rz_mcu_boards/core_package/generate/sc_drivers/r_scifa/src/lld\r_rza2_scifa_lld.c ****     if ((channel > R_PRV_CFG_SCIF_LAST_CHANNEL) || (channel < 0))
 425:D:/Work/DeviceTester/amazon-freertos/lib/third_party/mcu_vendor/renesas/rz_mcu_boards/core_package/generate/sc_drivers/r_scifa/src/lld\r_rza2_scifa_lld.c ****     {
 426:D:/Work/DeviceTester/amazon-freertos/lib/third_party/mcu_vendor/renesas/rz_mcu_boards/core_package/generate/sc_drivers/r_scifa/src/lld\r_rza2_scifa_lld.c ****         return (DRV_ERROR);
 427:D:/Work/DeviceTester/amazon-freertos/lib/third_party/mcu_vendor/renesas/rz_mcu_boards/core_package/generate/sc_drivers/r_scifa/src/lld\r_rza2_scifa_lld.c ****     }
 428:D:/Work/DeviceTester/amazon-freertos/lib/third_party/mcu_vendor/renesas/rz_mcu_boards/core_package/generate/sc_drivers/r_scifa/src/lld\r_rza2_scifa_lld.c **** 
 429:D:/Work/DeviceTester/amazon-freertos/lib/third_party/mcu_vendor/renesas/rz_mcu_boards/core_package/generate/sc_drivers/r_scifa/src/lld\r_rza2_scifa_lld.c ****     switch (desired_data_bits)
 430:D:/Work/DeviceTester/amazon-freertos/lib/third_party/mcu_vendor/renesas/rz_mcu_boards/core_package/generate/sc_drivers/r_scifa/src/lld\r_rza2_scifa_lld.c ****     {
 431:D:/Work/DeviceTester/amazon-freertos/lib/third_party/mcu_vendor/renesas/rz_mcu_boards/core_package/generate/sc_drivers/r_scifa/src/lld\r_rza2_scifa_lld.c ****         default:
 432:D:/Work/DeviceTester/amazon-freertos/lib/third_party/mcu_vendor/renesas/rz_mcu_boards/core_package/generate/sc_drivers/r_scifa/src/lld\r_rza2_scifa_lld.c ****         {
 433:D:/Work/DeviceTester/amazon-freertos/lib/third_party/mcu_vendor/renesas/rz_mcu_boards/core_package/generate/sc_drivers/r_scifa/src/lld\r_rza2_scifa_lld.c ****             /* invalid desired_data_bits value */
 434:D:/Work/DeviceTester/amazon-freertos/lib/third_party/mcu_vendor/renesas/rz_mcu_boards/core_package/generate/sc_drivers/r_scifa/src/lld\r_rza2_scifa_lld.c ****             return (DRV_ERROR);
 435:D:/Work/DeviceTester/amazon-freertos/lib/third_party/mcu_vendor/renesas/rz_mcu_boards/core_package/generate/sc_drivers/r_scifa/src/lld\r_rza2_scifa_lld.c ****         }
 436:D:/Work/DeviceTester/amazon-freertos/lib/third_party/mcu_vendor/renesas/rz_mcu_boards/core_package/generate/sc_drivers/r_scifa/src/lld\r_rza2_scifa_lld.c **** 
 437:D:/Work/DeviceTester/amazon-freertos/lib/third_party/mcu_vendor/renesas/rz_mcu_boards/core_package/generate/sc_drivers/r_scifa/src/lld\r_rza2_scifa_lld.c ****         case SCIFA_DATA_7BIT:
 438:D:/Work/DeviceTester/amazon-freertos/lib/third_party/mcu_vendor/renesas/rz_mcu_boards/core_package/generate/sc_drivers/r_scifa/src/lld\r_rza2_scifa_lld.c ****         {
 439:D:/Work/DeviceTester/amazon-freertos/lib/third_party/mcu_vendor/renesas/rz_mcu_boards/core_package/generate/sc_drivers/r_scifa/src/lld\r_rza2_scifa_lld.c ****             /* Character length: 7-bit data */
 440:D:/Work/DeviceTester/amazon-freertos/lib/third_party/mcu_vendor/renesas/rz_mcu_boards/core_package/generate/sc_drivers/r_scifa/src/lld\r_rza2_scifa_lld.c ****             RZA_IO_RegWrite_16((volatile uint16_t *) &gsp_scifa[channel]->SMR.WORD, (uint16_t) 1, S
 441:D:/Work/DeviceTester/amazon-freertos/lib/third_party/mcu_vendor/renesas/rz_mcu_boards/core_package/generate/sc_drivers/r_scifa/src/lld\r_rza2_scifa_lld.c ****             break;
 442:D:/Work/DeviceTester/amazon-freertos/lib/third_party/mcu_vendor/renesas/rz_mcu_boards/core_package/generate/sc_drivers/r_scifa/src/lld\r_rza2_scifa_lld.c ****         }
 443:D:/Work/DeviceTester/amazon-freertos/lib/third_party/mcu_vendor/renesas/rz_mcu_boards/core_package/generate/sc_drivers/r_scifa/src/lld\r_rza2_scifa_lld.c **** 
 444:D:/Work/DeviceTester/amazon-freertos/lib/third_party/mcu_vendor/renesas/rz_mcu_boards/core_package/generate/sc_drivers/r_scifa/src/lld\r_rza2_scifa_lld.c ****         case SCIFA_DATA_8BIT:
 445:D:/Work/DeviceTester/amazon-freertos/lib/third_party/mcu_vendor/renesas/rz_mcu_boards/core_package/generate/sc_drivers/r_scifa/src/lld\r_rza2_scifa_lld.c ****         {
 446:D:/Work/DeviceTester/amazon-freertos/lib/third_party/mcu_vendor/renesas/rz_mcu_boards/core_package/generate/sc_drivers/r_scifa/src/lld\r_rza2_scifa_lld.c ****             /* Character length: 8-bit data */
 447:D:/Work/DeviceTester/amazon-freertos/lib/third_party/mcu_vendor/renesas/rz_mcu_boards/core_package/generate/sc_drivers/r_scifa/src/lld\r_rza2_scifa_lld.c ****             RZA_IO_RegWrite_16((volatile uint16_t *) &gsp_scifa[channel]->SMR.WORD, (uint16_t) 0, S
 448:D:/Work/DeviceTester/amazon-freertos/lib/third_party/mcu_vendor/renesas/rz_mcu_boards/core_package/generate/sc_drivers/r_scifa/src/lld\r_rza2_scifa_lld.c ****             break;
 449:D:/Work/DeviceTester/amazon-freertos/lib/third_party/mcu_vendor/renesas/rz_mcu_boards/core_package/generate/sc_drivers/r_scifa/src/lld\r_rza2_scifa_lld.c ****         }
 450:D:/Work/DeviceTester/amazon-freertos/lib/third_party/mcu_vendor/renesas/rz_mcu_boards/core_package/generate/sc_drivers/r_scifa/src/lld\r_rza2_scifa_lld.c ****     }
 451:D:/Work/DeviceTester/amazon-freertos/lib/third_party/mcu_vendor/renesas/rz_mcu_boards/core_package/generate/sc_drivers/r_scifa/src/lld\r_rza2_scifa_lld.c **** 
 452:D:/Work/DeviceTester/amazon-freertos/lib/third_party/mcu_vendor/renesas/rz_mcu_boards/core_package/generate/sc_drivers/r_scifa/src/lld\r_rza2_scifa_lld.c ****     return (DRV_SUCCESS);
 453:D:/Work/DeviceTester/amazon-freertos/lib/third_party/mcu_vendor/renesas/rz_mcu_boards/core_package/generate/sc_drivers/r_scifa/src/lld\r_rza2_scifa_lld.c **** }
 454:D:/Work/DeviceTester/amazon-freertos/lib/third_party/mcu_vendor/renesas/rz_mcu_boards/core_package/generate/sc_drivers/r_scifa/src/lld\r_rza2_scifa_lld.c **** /**************************************************************************************************
 455:D:/Work/DeviceTester/amazon-freertos/lib/third_party/mcu_vendor/renesas/rz_mcu_boards/core_package/generate/sc_drivers/r_scifa/src/lld\r_rza2_scifa_lld.c ****  * End of Function R_SCIFA_SetDataBits
 456:D:/Work/DeviceTester/amazon-freertos/lib/third_party/mcu_vendor/renesas/rz_mcu_boards/core_package/generate/sc_drivers/r_scifa/src/lld\r_rza2_scifa_lld.c ****  **************************************************************************************************
 457:D:/Work/DeviceTester/amazon-freertos/lib/third_party/mcu_vendor/renesas/rz_mcu_boards/core_package/generate/sc_drivers/r_scifa/src/lld\r_rza2_scifa_lld.c **** 
 458:D:/Work/DeviceTester/amazon-freertos/lib/third_party/mcu_vendor/renesas/rz_mcu_boards/core_package/generate/sc_drivers/r_scifa/src/lld\r_rza2_scifa_lld.c **** /**
 459:D:/Work/DeviceTester/amazon-freertos/lib/third_party/mcu_vendor/renesas/rz_mcu_boards/core_package/generate/sc_drivers/r_scifa/src/lld\r_rza2_scifa_lld.c ****  * @brief R_SCIFA_SetLoopBack enables loop back mode on a channel
 460:D:/Work/DeviceTester/amazon-freertos/lib/third_party/mcu_vendor/renesas/rz_mcu_boards/core_package/generate/sc_drivers/r_scifa/src/lld\r_rza2_scifa_lld.c ****  * This function enables loop back mode on a channel,
 461:D:/Work/DeviceTester/amazon-freertos/lib/third_party/mcu_vendor/renesas/rz_mcu_boards/core_package/generate/sc_drivers/r_scifa/src/lld\r_rza2_scifa_lld.c ****  * loop back, connects TX to RX for a given channel,
 462:D:/Work/DeviceTester/amazon-freertos/lib/third_party/mcu_vendor/renesas/rz_mcu_boards/core_package/generate/sc_drivers/r_scifa/src/lld\r_rza2_scifa_lld.c ****  * this can be useful for testing whether a channel is 
 463:D:/Work/DeviceTester/amazon-freertos/lib/third_party/mcu_vendor/renesas/rz_mcu_boards/core_package/generate/sc_drivers/r_scifa/src/lld\r_rza2_scifa_lld.c ****  * sending/receiving correctly
 464:D:/Work/DeviceTester/amazon-freertos/lib/third_party/mcu_vendor/renesas/rz_mcu_boards/core_package/generate/sc_drivers/r_scifa/src/lld\r_rza2_scifa_lld.c ****  *
 465:D:/Work/DeviceTester/amazon-freertos/lib/third_party/mcu_vendor/renesas/rz_mcu_boards/core_package/generate/sc_drivers/r_scifa/src/lld\r_rza2_scifa_lld.c ****  * @param[in] channel: channel to enable loop back for
 466:D:/Work/DeviceTester/amazon-freertos/lib/third_party/mcu_vendor/renesas/rz_mcu_boards/core_package/generate/sc_drivers/r_scifa/src/lld\r_rza2_scifa_lld.c ****  * @param[in] loopback: setting for channel loop back
 467:D:/Work/DeviceTester/amazon-freertos/lib/third_party/mcu_vendor/renesas/rz_mcu_boards/core_package/generate/sc_drivers/r_scifa/src/lld\r_rza2_scifa_lld.c ****  *
 468:D:/Work/DeviceTester/amazon-freertos/lib/third_party/mcu_vendor/renesas/rz_mcu_boards/core_package/generate/sc_drivers/r_scifa/src/lld\r_rza2_scifa_lld.c ****  * @retval  0 DRV_SUCCESS
 469:D:/Work/DeviceTester/amazon-freertos/lib/third_party/mcu_vendor/renesas/rz_mcu_boards/core_package/generate/sc_drivers/r_scifa/src/lld\r_rza2_scifa_lld.c ****  * @retval -1 DRV_ERROR
 470:D:/Work/DeviceTester/amazon-freertos/lib/third_party/mcu_vendor/renesas/rz_mcu_boards/core_package/generate/sc_drivers/r_scifa/src/lld\r_rza2_scifa_lld.c ****  */
 471:D:/Work/DeviceTester/amazon-freertos/lib/third_party/mcu_vendor/renesas/rz_mcu_boards/core_package/generate/sc_drivers/r_scifa/src/lld\r_rza2_scifa_lld.c **** int_t R_SCIFA_SetLoopBack (r_channel_t channel, scifa_loop_t loopback)
 472:D:/Work/DeviceTester/amazon-freertos/lib/third_party/mcu_vendor/renesas/rz_mcu_boards/core_package/generate/sc_drivers/r_scifa/src/lld\r_rza2_scifa_lld.c **** {
 473:D:/Work/DeviceTester/amazon-freertos/lib/third_party/mcu_vendor/renesas/rz_mcu_boards/core_package/generate/sc_drivers/r_scifa/src/lld\r_rza2_scifa_lld.c ****     if ((channel > R_PRV_CFG_SCIF_LAST_CHANNEL) || (channel < 0))
 474:D:/Work/DeviceTester/amazon-freertos/lib/third_party/mcu_vendor/renesas/rz_mcu_boards/core_package/generate/sc_drivers/r_scifa/src/lld\r_rza2_scifa_lld.c ****     {
 475:D:/Work/DeviceTester/amazon-freertos/lib/third_party/mcu_vendor/renesas/rz_mcu_boards/core_package/generate/sc_drivers/r_scifa/src/lld\r_rza2_scifa_lld.c ****         return (DRV_ERROR);
 476:D:/Work/DeviceTester/amazon-freertos/lib/third_party/mcu_vendor/renesas/rz_mcu_boards/core_package/generate/sc_drivers/r_scifa/src/lld\r_rza2_scifa_lld.c ****     }
 477:D:/Work/DeviceTester/amazon-freertos/lib/third_party/mcu_vendor/renesas/rz_mcu_boards/core_package/generate/sc_drivers/r_scifa/src/lld\r_rza2_scifa_lld.c **** 
 478:D:/Work/DeviceTester/amazon-freertos/lib/third_party/mcu_vendor/renesas/rz_mcu_boards/core_package/generate/sc_drivers/r_scifa/src/lld\r_rza2_scifa_lld.c ****     switch (loopback)
 479:D:/Work/DeviceTester/amazon-freertos/lib/third_party/mcu_vendor/renesas/rz_mcu_boards/core_package/generate/sc_drivers/r_scifa/src/lld\r_rza2_scifa_lld.c ****     {
 480:D:/Work/DeviceTester/amazon-freertos/lib/third_party/mcu_vendor/renesas/rz_mcu_boards/core_package/generate/sc_drivers/r_scifa/src/lld\r_rza2_scifa_lld.c ****         default:
 481:D:/Work/DeviceTester/amazon-freertos/lib/third_party/mcu_vendor/renesas/rz_mcu_boards/core_package/generate/sc_drivers/r_scifa/src/lld\r_rza2_scifa_lld.c ****         {
 482:D:/Work/DeviceTester/amazon-freertos/lib/third_party/mcu_vendor/renesas/rz_mcu_boards/core_package/generate/sc_drivers/r_scifa/src/lld\r_rza2_scifa_lld.c ****             /* invalid loopback value */
 483:D:/Work/DeviceTester/amazon-freertos/lib/third_party/mcu_vendor/renesas/rz_mcu_boards/core_package/generate/sc_drivers/r_scifa/src/lld\r_rza2_scifa_lld.c ****             return (DRV_ERROR);
 484:D:/Work/DeviceTester/amazon-freertos/lib/third_party/mcu_vendor/renesas/rz_mcu_boards/core_package/generate/sc_drivers/r_scifa/src/lld\r_rza2_scifa_lld.c ****         }
 485:D:/Work/DeviceTester/amazon-freertos/lib/third_party/mcu_vendor/renesas/rz_mcu_boards/core_package/generate/sc_drivers/r_scifa/src/lld\r_rza2_scifa_lld.c **** 
 486:D:/Work/DeviceTester/amazon-freertos/lib/third_party/mcu_vendor/renesas/rz_mcu_boards/core_package/generate/sc_drivers/r_scifa/src/lld\r_rza2_scifa_lld.c ****         case SCIFA_LOOPBACK_DISABLE:
 487:D:/Work/DeviceTester/amazon-freertos/lib/third_party/mcu_vendor/renesas/rz_mcu_boards/core_package/generate/sc_drivers/r_scifa/src/lld\r_rza2_scifa_lld.c ****         {
 488:D:/Work/DeviceTester/amazon-freertos/lib/third_party/mcu_vendor/renesas/rz_mcu_boards/core_package/generate/sc_drivers/r_scifa/src/lld\r_rza2_scifa_lld.c ****             /* Loop back disabled */
 489:D:/Work/DeviceTester/amazon-freertos/lib/third_party/mcu_vendor/renesas/rz_mcu_boards/core_package/generate/sc_drivers/r_scifa/src/lld\r_rza2_scifa_lld.c ****             RZA_IO_RegWrite_16((volatile uint16_t *) &gsp_scifa[channel]->FCR.WORD, 0u, SCIFA_FCR_L
 490:D:/Work/DeviceTester/amazon-freertos/lib/third_party/mcu_vendor/renesas/rz_mcu_boards/core_package/generate/sc_drivers/r_scifa/src/lld\r_rza2_scifa_lld.c ****             break;
 491:D:/Work/DeviceTester/amazon-freertos/lib/third_party/mcu_vendor/renesas/rz_mcu_boards/core_package/generate/sc_drivers/r_scifa/src/lld\r_rza2_scifa_lld.c ****         }
 492:D:/Work/DeviceTester/amazon-freertos/lib/third_party/mcu_vendor/renesas/rz_mcu_boards/core_package/generate/sc_drivers/r_scifa/src/lld\r_rza2_scifa_lld.c **** 
 493:D:/Work/DeviceTester/amazon-freertos/lib/third_party/mcu_vendor/renesas/rz_mcu_boards/core_package/generate/sc_drivers/r_scifa/src/lld\r_rza2_scifa_lld.c ****         case SCIFA_LOOPBACK_ENABLE:
 494:D:/Work/DeviceTester/amazon-freertos/lib/third_party/mcu_vendor/renesas/rz_mcu_boards/core_package/generate/sc_drivers/r_scifa/src/lld\r_rza2_scifa_lld.c ****         {
 495:D:/Work/DeviceTester/amazon-freertos/lib/third_party/mcu_vendor/renesas/rz_mcu_boards/core_package/generate/sc_drivers/r_scifa/src/lld\r_rza2_scifa_lld.c ****             /* Loop back enabled */
 496:D:/Work/DeviceTester/amazon-freertos/lib/third_party/mcu_vendor/renesas/rz_mcu_boards/core_package/generate/sc_drivers/r_scifa/src/lld\r_rza2_scifa_lld.c ****             RZA_IO_RegWrite_16((volatile uint16_t *) &gsp_scifa[channel]->FCR.WORD, 1u, SCIFA_FCR_L
 497:D:/Work/DeviceTester/amazon-freertos/lib/third_party/mcu_vendor/renesas/rz_mcu_boards/core_package/generate/sc_drivers/r_scifa/src/lld\r_rza2_scifa_lld.c ****             break;
 498:D:/Work/DeviceTester/amazon-freertos/lib/third_party/mcu_vendor/renesas/rz_mcu_boards/core_package/generate/sc_drivers/r_scifa/src/lld\r_rza2_scifa_lld.c ****         }
 499:D:/Work/DeviceTester/amazon-freertos/lib/third_party/mcu_vendor/renesas/rz_mcu_boards/core_package/generate/sc_drivers/r_scifa/src/lld\r_rza2_scifa_lld.c ****     }
 500:D:/Work/DeviceTester/amazon-freertos/lib/third_party/mcu_vendor/renesas/rz_mcu_boards/core_package/generate/sc_drivers/r_scifa/src/lld\r_rza2_scifa_lld.c **** 
 501:D:/Work/DeviceTester/amazon-freertos/lib/third_party/mcu_vendor/renesas/rz_mcu_boards/core_package/generate/sc_drivers/r_scifa/src/lld\r_rza2_scifa_lld.c ****     return (DRV_SUCCESS);
 502:D:/Work/DeviceTester/amazon-freertos/lib/third_party/mcu_vendor/renesas/rz_mcu_boards/core_package/generate/sc_drivers/r_scifa/src/lld\r_rza2_scifa_lld.c **** }
 503:D:/Work/DeviceTester/amazon-freertos/lib/third_party/mcu_vendor/renesas/rz_mcu_boards/core_package/generate/sc_drivers/r_scifa/src/lld\r_rza2_scifa_lld.c **** /**************************************************************************************************
 504:D:/Work/DeviceTester/amazon-freertos/lib/third_party/mcu_vendor/renesas/rz_mcu_boards/core_package/generate/sc_drivers/r_scifa/src/lld\r_rza2_scifa_lld.c ****  * End of Function R_SCIFA_SetLoopBack
 505:D:/Work/DeviceTester/amazon-freertos/lib/third_party/mcu_vendor/renesas/rz_mcu_boards/core_package/generate/sc_drivers/r_scifa/src/lld\r_rza2_scifa_lld.c ****  **************************************************************************************************
 506:D:/Work/DeviceTester/amazon-freertos/lib/third_party/mcu_vendor/renesas/rz_mcu_boards/core_package/generate/sc_drivers/r_scifa/src/lld\r_rza2_scifa_lld.c **** 
 507:D:/Work/DeviceTester/amazon-freertos/lib/third_party/mcu_vendor/renesas/rz_mcu_boards/core_package/generate/sc_drivers/r_scifa/src/lld\r_rza2_scifa_lld.c **** /**
 508:D:/Work/DeviceTester/amazon-freertos/lib/third_party/mcu_vendor/renesas/rz_mcu_boards/core_package/generate/sc_drivers/r_scifa/src/lld\r_rza2_scifa_lld.c ****  * @brief R_SCIFA_SetDataOrder Sets the data order for a given channel
 509:D:/Work/DeviceTester/amazon-freertos/lib/third_party/mcu_vendor/renesas/rz_mcu_boards/core_package/generate/sc_drivers/r_scifa/src/lld\r_rza2_scifa_lld.c ****  * This function sets the data order for a given channel,
 510:D:/Work/DeviceTester/amazon-freertos/lib/third_party/mcu_vendor/renesas/rz_mcu_boards/core_package/generate/sc_drivers/r_scifa/src/lld\r_rza2_scifa_lld.c ****  * this is either MSB or LSB first as defined in e_scifa_data_order_t
 511:D:/Work/DeviceTester/amazon-freertos/lib/third_party/mcu_vendor/renesas/rz_mcu_boards/core_package/generate/sc_drivers/r_scifa/src/lld\r_rza2_scifa_lld.c ****  *
 512:D:/Work/DeviceTester/amazon-freertos/lib/third_party/mcu_vendor/renesas/rz_mcu_boards/core_package/generate/sc_drivers/r_scifa/src/lld\r_rza2_scifa_lld.c ****  * @param[in] channel: channel to set data order for
 513:D:/Work/DeviceTester/amazon-freertos/lib/third_party/mcu_vendor/renesas/rz_mcu_boards/core_package/generate/sc_drivers/r_scifa/src/lld\r_rza2_scifa_lld.c ****  * @param[in] desired_data_order: data order setting for channel
 514:D:/Work/DeviceTester/amazon-freertos/lib/third_party/mcu_vendor/renesas/rz_mcu_boards/core_package/generate/sc_drivers/r_scifa/src/lld\r_rza2_scifa_lld.c ****  *
 515:D:/Work/DeviceTester/amazon-freertos/lib/third_party/mcu_vendor/renesas/rz_mcu_boards/core_package/generate/sc_drivers/r_scifa/src/lld\r_rza2_scifa_lld.c ****  * @retval  0 DRV_SUCCESS
 516:D:/Work/DeviceTester/amazon-freertos/lib/third_party/mcu_vendor/renesas/rz_mcu_boards/core_package/generate/sc_drivers/r_scifa/src/lld\r_rza2_scifa_lld.c ****  * @retval -1 DRV_ERROR
 517:D:/Work/DeviceTester/amazon-freertos/lib/third_party/mcu_vendor/renesas/rz_mcu_boards/core_package/generate/sc_drivers/r_scifa/src/lld\r_rza2_scifa_lld.c ****  */
 518:D:/Work/DeviceTester/amazon-freertos/lib/third_party/mcu_vendor/renesas/rz_mcu_boards/core_package/generate/sc_drivers/r_scifa/src/lld\r_rza2_scifa_lld.c **** int_t R_SCIFA_SetDataOrder (r_channel_t channel, scifa_dir_t desired_data_order)
 519:D:/Work/DeviceTester/amazon-freertos/lib/third_party/mcu_vendor/renesas/rz_mcu_boards/core_package/generate/sc_drivers/r_scifa/src/lld\r_rza2_scifa_lld.c **** {
 520:D:/Work/DeviceTester/amazon-freertos/lib/third_party/mcu_vendor/renesas/rz_mcu_boards/core_package/generate/sc_drivers/r_scifa/src/lld\r_rza2_scifa_lld.c ****     if ((channel > R_PRV_CFG_SCIF_LAST_CHANNEL) || (channel < 0))
 521:D:/Work/DeviceTester/amazon-freertos/lib/third_party/mcu_vendor/renesas/rz_mcu_boards/core_package/generate/sc_drivers/r_scifa/src/lld\r_rza2_scifa_lld.c ****     {
 522:D:/Work/DeviceTester/amazon-freertos/lib/third_party/mcu_vendor/renesas/rz_mcu_boards/core_package/generate/sc_drivers/r_scifa/src/lld\r_rza2_scifa_lld.c ****         return (DRV_ERROR);
 523:D:/Work/DeviceTester/amazon-freertos/lib/third_party/mcu_vendor/renesas/rz_mcu_boards/core_package/generate/sc_drivers/r_scifa/src/lld\r_rza2_scifa_lld.c ****     }
 524:D:/Work/DeviceTester/amazon-freertos/lib/third_party/mcu_vendor/renesas/rz_mcu_boards/core_package/generate/sc_drivers/r_scifa/src/lld\r_rza2_scifa_lld.c **** 
 525:D:/Work/DeviceTester/amazon-freertos/lib/third_party/mcu_vendor/renesas/rz_mcu_boards/core_package/generate/sc_drivers/r_scifa/src/lld\r_rza2_scifa_lld.c ****     switch (desired_data_order)
 526:D:/Work/DeviceTester/amazon-freertos/lib/third_party/mcu_vendor/renesas/rz_mcu_boards/core_package/generate/sc_drivers/r_scifa/src/lld\r_rza2_scifa_lld.c ****     {
 527:D:/Work/DeviceTester/amazon-freertos/lib/third_party/mcu_vendor/renesas/rz_mcu_boards/core_package/generate/sc_drivers/r_scifa/src/lld\r_rza2_scifa_lld.c ****         default:
 528:D:/Work/DeviceTester/amazon-freertos/lib/third_party/mcu_vendor/renesas/rz_mcu_boards/core_package/generate/sc_drivers/r_scifa/src/lld\r_rza2_scifa_lld.c ****         {
 529:D:/Work/DeviceTester/amazon-freertos/lib/third_party/mcu_vendor/renesas/rz_mcu_boards/core_package/generate/sc_drivers/r_scifa/src/lld\r_rza2_scifa_lld.c ****             /* invalid desired_data_order value */
 530:D:/Work/DeviceTester/amazon-freertos/lib/third_party/mcu_vendor/renesas/rz_mcu_boards/core_package/generate/sc_drivers/r_scifa/src/lld\r_rza2_scifa_lld.c ****             return (DRV_ERROR);
 531:D:/Work/DeviceTester/amazon-freertos/lib/third_party/mcu_vendor/renesas/rz_mcu_boards/core_package/generate/sc_drivers/r_scifa/src/lld\r_rza2_scifa_lld.c ****         }
 532:D:/Work/DeviceTester/amazon-freertos/lib/third_party/mcu_vendor/renesas/rz_mcu_boards/core_package/generate/sc_drivers/r_scifa/src/lld\r_rza2_scifa_lld.c **** 
 533:D:/Work/DeviceTester/amazon-freertos/lib/third_party/mcu_vendor/renesas/rz_mcu_boards/core_package/generate/sc_drivers/r_scifa/src/lld\r_rza2_scifa_lld.c ****         case SCIFA_LSB_FIRST:
 534:D:/Work/DeviceTester/amazon-freertos/lib/third_party/mcu_vendor/renesas/rz_mcu_boards/core_package/generate/sc_drivers/r_scifa/src/lld\r_rza2_scifa_lld.c ****         {
 535:D:/Work/DeviceTester/amazon-freertos/lib/third_party/mcu_vendor/renesas/rz_mcu_boards/core_package/generate/sc_drivers/r_scifa/src/lld\r_rza2_scifa_lld.c ****             /* LSB first */
 536:D:/Work/DeviceTester/amazon-freertos/lib/third_party/mcu_vendor/renesas/rz_mcu_boards/core_package/generate/sc_drivers/r_scifa/src/lld\r_rza2_scifa_lld.c ****             RZA_IO_RegWrite_8((volatile uint8_t *) &gsp_scifa[channel]->SEMR.BYTE, 0u, SCIFA_SEMR_D
 537:D:/Work/DeviceTester/amazon-freertos/lib/third_party/mcu_vendor/renesas/rz_mcu_boards/core_package/generate/sc_drivers/r_scifa/src/lld\r_rza2_scifa_lld.c ****             break;
 538:D:/Work/DeviceTester/amazon-freertos/lib/third_party/mcu_vendor/renesas/rz_mcu_boards/core_package/generate/sc_drivers/r_scifa/src/lld\r_rza2_scifa_lld.c ****         }
 539:D:/Work/DeviceTester/amazon-freertos/lib/third_party/mcu_vendor/renesas/rz_mcu_boards/core_package/generate/sc_drivers/r_scifa/src/lld\r_rza2_scifa_lld.c **** 
 540:D:/Work/DeviceTester/amazon-freertos/lib/third_party/mcu_vendor/renesas/rz_mcu_boards/core_package/generate/sc_drivers/r_scifa/src/lld\r_rza2_scifa_lld.c ****         case SCIFA_MSB_FIRST:
 541:D:/Work/DeviceTester/amazon-freertos/lib/third_party/mcu_vendor/renesas/rz_mcu_boards/core_package/generate/sc_drivers/r_scifa/src/lld\r_rza2_scifa_lld.c ****         {
 542:D:/Work/DeviceTester/amazon-freertos/lib/third_party/mcu_vendor/renesas/rz_mcu_boards/core_package/generate/sc_drivers/r_scifa/src/lld\r_rza2_scifa_lld.c ****             /* MSB first */
 543:D:/Work/DeviceTester/amazon-freertos/lib/third_party/mcu_vendor/renesas/rz_mcu_boards/core_package/generate/sc_drivers/r_scifa/src/lld\r_rza2_scifa_lld.c ****             RZA_IO_RegWrite_8((volatile uint8_t *) &gsp_scifa[channel]->SEMR.BYTE, 1u, SCIFA_SEMR_D
 544:D:/Work/DeviceTester/amazon-freertos/lib/third_party/mcu_vendor/renesas/rz_mcu_boards/core_package/generate/sc_drivers/r_scifa/src/lld\r_rza2_scifa_lld.c ****             break;
 545:D:/Work/DeviceTester/amazon-freertos/lib/third_party/mcu_vendor/renesas/rz_mcu_boards/core_package/generate/sc_drivers/r_scifa/src/lld\r_rza2_scifa_lld.c ****         }
 546:D:/Work/DeviceTester/amazon-freertos/lib/third_party/mcu_vendor/renesas/rz_mcu_boards/core_package/generate/sc_drivers/r_scifa/src/lld\r_rza2_scifa_lld.c ****     }
 547:D:/Work/DeviceTester/amazon-freertos/lib/third_party/mcu_vendor/renesas/rz_mcu_boards/core_package/generate/sc_drivers/r_scifa/src/lld\r_rza2_scifa_lld.c **** 
 548:D:/Work/DeviceTester/amazon-freertos/lib/third_party/mcu_vendor/renesas/rz_mcu_boards/core_package/generate/sc_drivers/r_scifa/src/lld\r_rza2_scifa_lld.c ****     return (DRV_SUCCESS);
 549:D:/Work/DeviceTester/amazon-freertos/lib/third_party/mcu_vendor/renesas/rz_mcu_boards/core_package/generate/sc_drivers/r_scifa/src/lld\r_rza2_scifa_lld.c **** }
 550:D:/Work/DeviceTester/amazon-freertos/lib/third_party/mcu_vendor/renesas/rz_mcu_boards/core_package/generate/sc_drivers/r_scifa/src/lld\r_rza2_scifa_lld.c **** /**************************************************************************************************
 551:D:/Work/DeviceTester/amazon-freertos/lib/third_party/mcu_vendor/renesas/rz_mcu_boards/core_package/generate/sc_drivers/r_scifa/src/lld\r_rza2_scifa_lld.c ****  * End of Function R_SCIFA_SetDataOrder
 552:D:/Work/DeviceTester/amazon-freertos/lib/third_party/mcu_vendor/renesas/rz_mcu_boards/core_package/generate/sc_drivers/r_scifa/src/lld\r_rza2_scifa_lld.c ****  **************************************************************************************************
 553:D:/Work/DeviceTester/amazon-freertos/lib/third_party/mcu_vendor/renesas/rz_mcu_boards/core_package/generate/sc_drivers/r_scifa/src/lld\r_rza2_scifa_lld.c **** 
 554:D:/Work/DeviceTester/amazon-freertos/lib/third_party/mcu_vendor/renesas/rz_mcu_boards/core_package/generate/sc_drivers/r_scifa/src/lld\r_rza2_scifa_lld.c **** /**
 555:D:/Work/DeviceTester/amazon-freertos/lib/third_party/mcu_vendor/renesas/rz_mcu_boards/core_package/generate/sc_drivers/r_scifa/src/lld\r_rza2_scifa_lld.c ****  * @brief R_SCIFA_Open is to be called when opening a channel
 556:D:/Work/DeviceTester/amazon-freertos/lib/third_party/mcu_vendor/renesas/rz_mcu_boards/core_package/generate/sc_drivers/r_scifa/src/lld\r_rza2_scifa_lld.c ****  *
 557:D:/Work/DeviceTester/amazon-freertos/lib/third_party/mcu_vendor/renesas/rz_mcu_boards/core_package/generate/sc_drivers/r_scifa/src/lld\r_rza2_scifa_lld.c ****  * @param[in] sc_config_index: smart Configuration index to open
 558:D:/Work/DeviceTester/amazon-freertos/lib/third_party/mcu_vendor/renesas/rz_mcu_boards/core_package/generate/sc_drivers/r_scifa/src/lld\r_rza2_scifa_lld.c ****  * @param[out] p_config_set: configuration settings that will be updated
 559:D:/Work/DeviceTester/amazon-freertos/lib/third_party/mcu_vendor/renesas/rz_mcu_boards/core_package/generate/sc_drivers/r_scifa/src/lld\r_rza2_scifa_lld.c ****  *                            with the values from the SC table
 560:D:/Work/DeviceTester/amazon-freertos/lib/third_party/mcu_vendor/renesas/rz_mcu_boards/core_package/generate/sc_drivers/r_scifa/src/lld\r_rza2_scifa_lld.c ****  *
 561:D:/Work/DeviceTester/amazon-freertos/lib/third_party/mcu_vendor/renesas/rz_mcu_boards/core_package/generate/sc_drivers/r_scifa/src/lld\r_rza2_scifa_lld.c ****  * @retval  0 DRV_SUCCESS
 562:D:/Work/DeviceTester/amazon-freertos/lib/third_party/mcu_vendor/renesas/rz_mcu_boards/core_package/generate/sc_drivers/r_scifa/src/lld\r_rza2_scifa_lld.c ****  * @retval -1 DRV_ERROR
 563:D:/Work/DeviceTester/amazon-freertos/lib/third_party/mcu_vendor/renesas/rz_mcu_boards/core_package/generate/sc_drivers/r_scifa/src/lld\r_rza2_scifa_lld.c ****  */
 564:D:/Work/DeviceTester/amazon-freertos/lib/third_party/mcu_vendor/renesas/rz_mcu_boards/core_package/generate/sc_drivers/r_scifa/src/lld\r_rza2_scifa_lld.c **** int_t R_SCIFA_Open (r_sc_index_t sc_config_index, scifa_config_t *p_config_set)
 565:D:/Work/DeviceTester/amazon-freertos/lib/third_party/mcu_vendor/renesas/rz_mcu_boards/core_package/generate/sc_drivers/r_scifa/src/lld\r_rza2_scifa_lld.c **** {
 566:D:/Work/DeviceTester/amazon-freertos/lib/third_party/mcu_vendor/renesas/rz_mcu_boards/core_package/generate/sc_drivers/r_scifa/src/lld\r_rza2_scifa_lld.c ****     const scifa_config_t * p_config;
 567:D:/Work/DeviceTester/amazon-freertos/lib/third_party/mcu_vendor/renesas/rz_mcu_boards/core_package/generate/sc_drivers/r_scifa/src/lld\r_rza2_scifa_lld.c ****     r_channel_t channel;
 568:D:/Work/DeviceTester/amazon-freertos/lib/third_party/mcu_vendor/renesas/rz_mcu_boards/core_package/generate/sc_drivers/r_scifa/src/lld\r_rza2_scifa_lld.c ****     int_t result;
 569:D:/Work/DeviceTester/amazon-freertos/lib/third_party/mcu_vendor/renesas/rz_mcu_boards/core_package/generate/sc_drivers/r_scifa/src/lld\r_rza2_scifa_lld.c ****     uint32_t achieved_baud_rate;
 570:D:/Work/DeviceTester/amazon-freertos/lib/third_party/mcu_vendor/renesas/rz_mcu_boards/core_package/generate/sc_drivers/r_scifa/src/lld\r_rza2_scifa_lld.c **** 
 571:D:/Work/DeviceTester/amazon-freertos/lib/third_party/mcu_vendor/renesas/rz_mcu_boards/core_package/generate/sc_drivers/r_scifa/src/lld\r_rza2_scifa_lld.c ****     /* get the channel for this configuration */
 572:D:/Work/DeviceTester/amazon-freertos/lib/third_party/mcu_vendor/renesas/rz_mcu_boards/core_package/generate/sc_drivers/r_scifa/src/lld\r_rza2_scifa_lld.c ****     channel = R_SCIFA_GetChannel(sc_config_index);
 573:D:/Work/DeviceTester/amazon-freertos/lib/third_party/mcu_vendor/renesas/rz_mcu_boards/core_package/generate/sc_drivers/r_scifa/src/lld\r_rza2_scifa_lld.c **** 
 574:D:/Work/DeviceTester/amazon-freertos/lib/third_party/mcu_vendor/renesas/rz_mcu_boards/core_package/generate/sc_drivers/r_scifa/src/lld\r_rza2_scifa_lld.c ****     if (DRV_ERROR == channel)
 575:D:/Work/DeviceTester/amazon-freertos/lib/third_party/mcu_vendor/renesas/rz_mcu_boards/core_package/generate/sc_drivers/r_scifa/src/lld\r_rza2_scifa_lld.c ****     {
 576:D:/Work/DeviceTester/amazon-freertos/lib/third_party/mcu_vendor/renesas/rz_mcu_boards/core_package/generate/sc_drivers/r_scifa/src/lld\r_rza2_scifa_lld.c ****         return (DRV_ERROR);
 577:D:/Work/DeviceTester/amazon-freertos/lib/third_party/mcu_vendor/renesas/rz_mcu_boards/core_package/generate/sc_drivers/r_scifa/src/lld\r_rza2_scifa_lld.c ****     }
 578:D:/Work/DeviceTester/amazon-freertos/lib/third_party/mcu_vendor/renesas/rz_mcu_boards/core_package/generate/sc_drivers/r_scifa/src/lld\r_rza2_scifa_lld.c **** 
 579:D:/Work/DeviceTester/amazon-freertos/lib/third_party/mcu_vendor/renesas/rz_mcu_boards/core_package/generate/sc_drivers/r_scifa/src/lld\r_rza2_scifa_lld.c ****     /* get the configuration settings from the Smart Configuration table */
 580:D:/Work/DeviceTester/amazon-freertos/lib/third_party/mcu_vendor/renesas/rz_mcu_boards/core_package/generate/sc_drivers/r_scifa/src/lld\r_rza2_scifa_lld.c ****     p_config = &SCIFA_SC_TABLE[sc_config_index].config;
 581:D:/Work/DeviceTester/amazon-freertos/lib/third_party/mcu_vendor/renesas/rz_mcu_boards/core_package/generate/sc_drivers/r_scifa/src/lld\r_rza2_scifa_lld.c **** 
 582:D:/Work/DeviceTester/amazon-freertos/lib/third_party/mcu_vendor/renesas/rz_mcu_boards/core_package/generate/sc_drivers/r_scifa/src/lld\r_rza2_scifa_lld.c ****     /* configure the channel */
 583:D:/Work/DeviceTester/amazon-freertos/lib/third_party/mcu_vendor/renesas/rz_mcu_boards/core_package/generate/sc_drivers/r_scifa/src/lld\r_rza2_scifa_lld.c ****     result = R_SCIFA_ChannelConfigure(channel, p_config, &achieved_baud_rate);
 584:D:/Work/DeviceTester/amazon-freertos/lib/third_party/mcu_vendor/renesas/rz_mcu_boards/core_package/generate/sc_drivers/r_scifa/src/lld\r_rza2_scifa_lld.c **** 
 585:D:/Work/DeviceTester/amazon-freertos/lib/third_party/mcu_vendor/renesas/rz_mcu_boards/core_package/generate/sc_drivers/r_scifa/src/lld\r_rza2_scifa_lld.c ****     /* configure GPIO */
 586:D:/Work/DeviceTester/amazon-freertos/lib/third_party/mcu_vendor/renesas/rz_mcu_boards/core_package/generate/sc_drivers/r_scifa/src/lld\r_rza2_scifa_lld.c ****     if (DRV_SUCCESS == result)
 587:D:/Work/DeviceTester/amazon-freertos/lib/third_party/mcu_vendor/renesas/rz_mcu_boards/core_package/generate/sc_drivers/r_scifa/src/lld\r_rza2_scifa_lld.c ****     {
 588:D:/Work/DeviceTester/amazon-freertos/lib/third_party/mcu_vendor/renesas/rz_mcu_boards/core_package/generate/sc_drivers/r_scifa/src/lld\r_rza2_scifa_lld.c ****         int_t gpio_handle;
 589:D:/Work/DeviceTester/amazon-freertos/lib/third_party/mcu_vendor/renesas/rz_mcu_boards/core_package/generate/sc_drivers/r_scifa/src/lld\r_rza2_scifa_lld.c ****         gpio_handle = direct_open("gpio", O_RDONLY);
 590:D:/Work/DeviceTester/amazon-freertos/lib/third_party/mcu_vendor/renesas/rz_mcu_boards/core_package/generate/sc_drivers/r_scifa/src/lld\r_rza2_scifa_lld.c ****         
 591:D:/Work/DeviceTester/amazon-freertos/lib/third_party/mcu_vendor/renesas/rz_mcu_boards/core_package/generate/sc_drivers/r_scifa/src/lld\r_rza2_scifa_lld.c ****         if (gpio_handle > 0)
 592:D:/Work/DeviceTester/amazon-freertos/lib/third_party/mcu_vendor/renesas/rz_mcu_boards/core_package/generate/sc_drivers/r_scifa/src/lld\r_rza2_scifa_lld.c ****         {
 593:D:/Work/DeviceTester/amazon-freertos/lib/third_party/mcu_vendor/renesas/rz_mcu_boards/core_package/generate/sc_drivers/r_scifa/src/lld\r_rza2_scifa_lld.c ****             /* direct_control as direct_control assumes parameter 3 is i/o, but using the parameter
 594:D:/Work/DeviceTester/amazon-freertos/lib/third_party/mcu_vendor/renesas/rz_mcu_boards/core_package/generate/sc_drivers/r_scifa/src/lld\r_rza2_scifa_lld.c ****             direct_control(gpio_handle, CTL_GPIO_INIT_BY_TABLE, (void *) &SCIFA_SC_TABLE[sc_config_
 595:D:/Work/DeviceTester/amazon-freertos/lib/third_party/mcu_vendor/renesas/rz_mcu_boards/core_package/generate/sc_drivers/r_scifa/src/lld\r_rza2_scifa_lld.c ****             direct_close(gpio_handle);
 596:D:/Work/DeviceTester/amazon-freertos/lib/third_party/mcu_vendor/renesas/rz_mcu_boards/core_package/generate/sc_drivers/r_scifa/src/lld\r_rza2_scifa_lld.c ****         }
 597:D:/Work/DeviceTester/amazon-freertos/lib/third_party/mcu_vendor/renesas/rz_mcu_boards/core_package/generate/sc_drivers/r_scifa/src/lld\r_rza2_scifa_lld.c ****         else
 598:D:/Work/DeviceTester/amazon-freertos/lib/third_party/mcu_vendor/renesas/rz_mcu_boards/core_package/generate/sc_drivers/r_scifa/src/lld\r_rza2_scifa_lld.c ****         {
 599:D:/Work/DeviceTester/amazon-freertos/lib/third_party/mcu_vendor/renesas/rz_mcu_boards/core_package/generate/sc_drivers/r_scifa/src/lld\r_rza2_scifa_lld.c ****             result = DRV_ERROR;
 600:D:/Work/DeviceTester/amazon-freertos/lib/third_party/mcu_vendor/renesas/rz_mcu_boards/core_package/generate/sc_drivers/r_scifa/src/lld\r_rza2_scifa_lld.c ****         }
 601:D:/Work/DeviceTester/amazon-freertos/lib/third_party/mcu_vendor/renesas/rz_mcu_boards/core_package/generate/sc_drivers/r_scifa/src/lld\r_rza2_scifa_lld.c ****     }
 602:D:/Work/DeviceTester/amazon-freertos/lib/third_party/mcu_vendor/renesas/rz_mcu_boards/core_package/generate/sc_drivers/r_scifa/src/lld\r_rza2_scifa_lld.c **** 
 603:D:/Work/DeviceTester/amazon-freertos/lib/third_party/mcu_vendor/renesas/rz_mcu_boards/core_package/generate/sc_drivers/r_scifa/src/lld\r_rza2_scifa_lld.c ****     /* if we were successful, then update the stored configuration data */
 604:D:/Work/DeviceTester/amazon-freertos/lib/third_party/mcu_vendor/renesas/rz_mcu_boards/core_package/generate/sc_drivers/r_scifa/src/lld\r_rza2_scifa_lld.c ****     if (DRV_SUCCESS == result)
 605:D:/Work/DeviceTester/amazon-freertos/lib/third_party/mcu_vendor/renesas/rz_mcu_boards/core_package/generate/sc_drivers/r_scifa/src/lld\r_rza2_scifa_lld.c ****     {
 606:D:/Work/DeviceTester/amazon-freertos/lib/third_party/mcu_vendor/renesas/rz_mcu_boards/core_package/generate/sc_drivers/r_scifa/src/lld\r_rza2_scifa_lld.c ****         memcpy(p_config_set, p_config, sizeof(scifa_config_t));
 607:D:/Work/DeviceTester/amazon-freertos/lib/third_party/mcu_vendor/renesas/rz_mcu_boards/core_package/generate/sc_drivers/r_scifa/src/lld\r_rza2_scifa_lld.c ****         p_config_set->baud_rate = achieved_baud_rate;
 608:D:/Work/DeviceTester/amazon-freertos/lib/third_party/mcu_vendor/renesas/rz_mcu_boards/core_package/generate/sc_drivers/r_scifa/src/lld\r_rza2_scifa_lld.c ****     }
 609:D:/Work/DeviceTester/amazon-freertos/lib/third_party/mcu_vendor/renesas/rz_mcu_boards/core_package/generate/sc_drivers/r_scifa/src/lld\r_rza2_scifa_lld.c **** 
 610:D:/Work/DeviceTester/amazon-freertos/lib/third_party/mcu_vendor/renesas/rz_mcu_boards/core_package/generate/sc_drivers/r_scifa/src/lld\r_rza2_scifa_lld.c ****     return (result);
 611:D:/Work/DeviceTester/amazon-freertos/lib/third_party/mcu_vendor/renesas/rz_mcu_boards/core_package/generate/sc_drivers/r_scifa/src/lld\r_rza2_scifa_lld.c **** }
 612:D:/Work/DeviceTester/amazon-freertos/lib/third_party/mcu_vendor/renesas/rz_mcu_boards/core_package/generate/sc_drivers/r_scifa/src/lld\r_rza2_scifa_lld.c **** /**************************************************************************************************
 613:D:/Work/DeviceTester/amazon-freertos/lib/third_party/mcu_vendor/renesas/rz_mcu_boards/core_package/generate/sc_drivers/r_scifa/src/lld\r_rza2_scifa_lld.c ****  * End of Function R_SCIFA_Open
 614:D:/Work/DeviceTester/amazon-freertos/lib/third_party/mcu_vendor/renesas/rz_mcu_boards/core_package/generate/sc_drivers/r_scifa/src/lld\r_rza2_scifa_lld.c ****  **************************************************************************************************
 615:D:/Work/DeviceTester/amazon-freertos/lib/third_party/mcu_vendor/renesas/rz_mcu_boards/core_package/generate/sc_drivers/r_scifa/src/lld\r_rza2_scifa_lld.c **** 
 616:D:/Work/DeviceTester/amazon-freertos/lib/third_party/mcu_vendor/renesas/rz_mcu_boards/core_package/generate/sc_drivers/r_scifa/src/lld\r_rza2_scifa_lld.c **** /**
 617:D:/Work/DeviceTester/amazon-freertos/lib/third_party/mcu_vendor/renesas/rz_mcu_boards/core_package/generate/sc_drivers/r_scifa/src/lld\r_rza2_scifa_lld.c ****  * @brief R_SCIFA_ChannelConfigure configures a channel
 618:D:/Work/DeviceTester/amazon-freertos/lib/third_party/mcu_vendor/renesas/rz_mcu_boards/core_package/generate/sc_drivers/r_scifa/src/lld\r_rza2_scifa_lld.c ****  *
 619:D:/Work/DeviceTester/amazon-freertos/lib/third_party/mcu_vendor/renesas/rz_mcu_boards/core_package/generate/sc_drivers/r_scifa/src/lld\r_rza2_scifa_lld.c ****  * @param[in] channel: channel to configure
 620:D:/Work/DeviceTester/amazon-freertos/lib/third_party/mcu_vendor/renesas/rz_mcu_boards/core_package/generate/sc_drivers/r_scifa/src/lld\r_rza2_scifa_lld.c ****  * @param[in] p_configuration: configuration data
 621:D:/Work/DeviceTester/amazon-freertos/lib/third_party/mcu_vendor/renesas/rz_mcu_boards/core_package/generate/sc_drivers/r_scifa/src/lld\r_rza2_scifa_lld.c ****  * @param[out] p_achieved_baud_rate: achieved baud rate
 622:D:/Work/DeviceTester/amazon-freertos/lib/third_party/mcu_vendor/renesas/rz_mcu_boards/core_package/generate/sc_drivers/r_scifa/src/lld\r_rza2_scifa_lld.c ****  *
 623:D:/Work/DeviceTester/amazon-freertos/lib/third_party/mcu_vendor/renesas/rz_mcu_boards/core_package/generate/sc_drivers/r_scifa/src/lld\r_rza2_scifa_lld.c ****  * @retval  0 DRV_SUCCESS
 624:D:/Work/DeviceTester/amazon-freertos/lib/third_party/mcu_vendor/renesas/rz_mcu_boards/core_package/generate/sc_drivers/r_scifa/src/lld\r_rza2_scifa_lld.c ****  * @retval -1 DRV_ERROR
 625:D:/Work/DeviceTester/amazon-freertos/lib/third_party/mcu_vendor/renesas/rz_mcu_boards/core_package/generate/sc_drivers/r_scifa/src/lld\r_rza2_scifa_lld.c ****  */
 626:D:/Work/DeviceTester/amazon-freertos/lib/third_party/mcu_vendor/renesas/rz_mcu_boards/core_package/generate/sc_drivers/r_scifa/src/lld\r_rza2_scifa_lld.c **** int_t R_SCIFA_ChannelConfigure (r_channel_t channel, const scifa_config_t *p_configuration, uint32_
 627:D:/Work/DeviceTester/amazon-freertos/lib/third_party/mcu_vendor/renesas/rz_mcu_boards/core_package/generate/sc_drivers/r_scifa/src/lld\r_rza2_scifa_lld.c **** {
 628:D:/Work/DeviceTester/amazon-freertos/lib/third_party/mcu_vendor/renesas/rz_mcu_boards/core_package/generate/sc_drivers/r_scifa/src/lld\r_rza2_scifa_lld.c ****     int_t result;
 629:D:/Work/DeviceTester/amazon-freertos/lib/third_party/mcu_vendor/renesas/rz_mcu_boards/core_package/generate/sc_drivers/r_scifa/src/lld\r_rza2_scifa_lld.c **** 
 630:D:/Work/DeviceTester/amazon-freertos/lib/third_party/mcu_vendor/renesas/rz_mcu_boards/core_package/generate/sc_drivers/r_scifa/src/lld\r_rza2_scifa_lld.c ****     /* stop the device */
 631:D:/Work/DeviceTester/amazon-freertos/lib/third_party/mcu_vendor/renesas/rz_mcu_boards/core_package/generate/sc_drivers/r_scifa/src/lld\r_rza2_scifa_lld.c ****     result = R_SCIFA_Stop(channel);
 632:D:/Work/DeviceTester/amazon-freertos/lib/third_party/mcu_vendor/renesas/rz_mcu_boards/core_package/generate/sc_drivers/r_scifa/src/lld\r_rza2_scifa_lld.c **** 
 633:D:/Work/DeviceTester/amazon-freertos/lib/third_party/mcu_vendor/renesas/rz_mcu_boards/core_package/generate/sc_drivers/r_scifa/src/lld\r_rza2_scifa_lld.c ****     if (DRV_SUCCESS != result)
 634:D:/Work/DeviceTester/amazon-freertos/lib/third_party/mcu_vendor/renesas/rz_mcu_boards/core_package/generate/sc_drivers/r_scifa/src/lld\r_rza2_scifa_lld.c ****     {
 635:D:/Work/DeviceTester/amazon-freertos/lib/third_party/mcu_vendor/renesas/rz_mcu_boards/core_package/generate/sc_drivers/r_scifa/src/lld\r_rza2_scifa_lld.c ****         return (result);
 636:D:/Work/DeviceTester/amazon-freertos/lib/third_party/mcu_vendor/renesas/rz_mcu_boards/core_package/generate/sc_drivers/r_scifa/src/lld\r_rza2_scifa_lld.c ****     }
 637:D:/Work/DeviceTester/amazon-freertos/lib/third_party/mcu_vendor/renesas/rz_mcu_boards/core_package/generate/sc_drivers/r_scifa/src/lld\r_rza2_scifa_lld.c **** 
 638:D:/Work/DeviceTester/amazon-freertos/lib/third_party/mcu_vendor/renesas/rz_mcu_boards/core_package/generate/sc_drivers/r_scifa/src/lld\r_rza2_scifa_lld.c ****     /* start the SCIFA module */
 639:D:/Work/DeviceTester/amazon-freertos/lib/third_party/mcu_vendor/renesas/rz_mcu_boards/core_package/generate/sc_drivers/r_scifa/src/lld\r_rza2_scifa_lld.c ****     result = R_SCIFA_StartModule(channel, true);
 640:D:/Work/DeviceTester/amazon-freertos/lib/third_party/mcu_vendor/renesas/rz_mcu_boards/core_package/generate/sc_drivers/r_scifa/src/lld\r_rza2_scifa_lld.c **** 
 641:D:/Work/DeviceTester/amazon-freertos/lib/third_party/mcu_vendor/renesas/rz_mcu_boards/core_package/generate/sc_drivers/r_scifa/src/lld\r_rza2_scifa_lld.c ****     if (DRV_SUCCESS != result)
 642:D:/Work/DeviceTester/amazon-freertos/lib/third_party/mcu_vendor/renesas/rz_mcu_boards/core_package/generate/sc_drivers/r_scifa/src/lld\r_rza2_scifa_lld.c ****     {
 643:D:/Work/DeviceTester/amazon-freertos/lib/third_party/mcu_vendor/renesas/rz_mcu_boards/core_package/generate/sc_drivers/r_scifa/src/lld\r_rza2_scifa_lld.c ****         return (result);
 644:D:/Work/DeviceTester/amazon-freertos/lib/third_party/mcu_vendor/renesas/rz_mcu_boards/core_package/generate/sc_drivers/r_scifa/src/lld\r_rza2_scifa_lld.c ****     }
 645:D:/Work/DeviceTester/amazon-freertos/lib/third_party/mcu_vendor/renesas/rz_mcu_boards/core_package/generate/sc_drivers/r_scifa/src/lld\r_rza2_scifa_lld.c **** 
 646:D:/Work/DeviceTester/amazon-freertos/lib/third_party/mcu_vendor/renesas/rz_mcu_boards/core_package/generate/sc_drivers/r_scifa/src/lld\r_rza2_scifa_lld.c ****     /* initialise the device for setup */
 647:D:/Work/DeviceTester/amazon-freertos/lib/third_party/mcu_vendor/renesas/rz_mcu_boards/core_package/generate/sc_drivers/r_scifa/src/lld\r_rza2_scifa_lld.c ****     result = R_SCIFA_Init(channel);
 648:D:/Work/DeviceTester/amazon-freertos/lib/third_party/mcu_vendor/renesas/rz_mcu_boards/core_package/generate/sc_drivers/r_scifa/src/lld\r_rza2_scifa_lld.c **** 
 649:D:/Work/DeviceTester/amazon-freertos/lib/third_party/mcu_vendor/renesas/rz_mcu_boards/core_package/generate/sc_drivers/r_scifa/src/lld\r_rza2_scifa_lld.c ****     if (DRV_SUCCESS != result)
 650:D:/Work/DeviceTester/amazon-freertos/lib/third_party/mcu_vendor/renesas/rz_mcu_boards/core_package/generate/sc_drivers/r_scifa/src/lld\r_rza2_scifa_lld.c ****     {
 651:D:/Work/DeviceTester/amazon-freertos/lib/third_party/mcu_vendor/renesas/rz_mcu_boards/core_package/generate/sc_drivers/r_scifa/src/lld\r_rza2_scifa_lld.c ****         return (result);
 652:D:/Work/DeviceTester/amazon-freertos/lib/third_party/mcu_vendor/renesas/rz_mcu_boards/core_package/generate/sc_drivers/r_scifa/src/lld\r_rza2_scifa_lld.c ****     }
 653:D:/Work/DeviceTester/amazon-freertos/lib/third_party/mcu_vendor/renesas/rz_mcu_boards/core_package/generate/sc_drivers/r_scifa/src/lld\r_rza2_scifa_lld.c **** 
 654:D:/Work/DeviceTester/amazon-freertos/lib/third_party/mcu_vendor/renesas/rz_mcu_boards/core_package/generate/sc_drivers/r_scifa/src/lld\r_rza2_scifa_lld.c ****     if (SCIFA_PARITY_ON == p_configuration->parity_en)
 655:D:/Work/DeviceTester/amazon-freertos/lib/third_party/mcu_vendor/renesas/rz_mcu_boards/core_package/generate/sc_drivers/r_scifa/src/lld\r_rza2_scifa_lld.c ****     {
 656:D:/Work/DeviceTester/amazon-freertos/lib/third_party/mcu_vendor/renesas/rz_mcu_boards/core_package/generate/sc_drivers/r_scifa/src/lld\r_rza2_scifa_lld.c ****         result = R_SCIFA_SetParity(channel, p_configuration->parity_type);
 657:D:/Work/DeviceTester/amazon-freertos/lib/third_party/mcu_vendor/renesas/rz_mcu_boards/core_package/generate/sc_drivers/r_scifa/src/lld\r_rza2_scifa_lld.c ****     }
 658:D:/Work/DeviceTester/amazon-freertos/lib/third_party/mcu_vendor/renesas/rz_mcu_boards/core_package/generate/sc_drivers/r_scifa/src/lld\r_rza2_scifa_lld.c ****     else
 659:D:/Work/DeviceTester/amazon-freertos/lib/third_party/mcu_vendor/renesas/rz_mcu_boards/core_package/generate/sc_drivers/r_scifa/src/lld\r_rza2_scifa_lld.c ****     {
 660:D:/Work/DeviceTester/amazon-freertos/lib/third_party/mcu_vendor/renesas/rz_mcu_boards/core_package/generate/sc_drivers/r_scifa/src/lld\r_rza2_scifa_lld.c ****         /* set parity off as SCIFA_PARITY_NONE no longer supported */
 661:D:/Work/DeviceTester/amazon-freertos/lib/third_party/mcu_vendor/renesas/rz_mcu_boards/core_package/generate/sc_drivers/r_scifa/src/lld\r_rza2_scifa_lld.c ****         result = R_SCIFA_SetParity(channel, SCIFA_NONE_PARITY);
 662:D:/Work/DeviceTester/amazon-freertos/lib/third_party/mcu_vendor/renesas/rz_mcu_boards/core_package/generate/sc_drivers/r_scifa/src/lld\r_rza2_scifa_lld.c ****     }
 663:D:/Work/DeviceTester/amazon-freertos/lib/third_party/mcu_vendor/renesas/rz_mcu_boards/core_package/generate/sc_drivers/r_scifa/src/lld\r_rza2_scifa_lld.c **** 
 664:D:/Work/DeviceTester/amazon-freertos/lib/third_party/mcu_vendor/renesas/rz_mcu_boards/core_package/generate/sc_drivers/r_scifa/src/lld\r_rza2_scifa_lld.c ****     if (DRV_SUCCESS != result)
 665:D:/Work/DeviceTester/amazon-freertos/lib/third_party/mcu_vendor/renesas/rz_mcu_boards/core_package/generate/sc_drivers/r_scifa/src/lld\r_rza2_scifa_lld.c ****     {
 666:D:/Work/DeviceTester/amazon-freertos/lib/third_party/mcu_vendor/renesas/rz_mcu_boards/core_package/generate/sc_drivers/r_scifa/src/lld\r_rza2_scifa_lld.c ****         return (result);
 667:D:/Work/DeviceTester/amazon-freertos/lib/third_party/mcu_vendor/renesas/rz_mcu_boards/core_package/generate/sc_drivers/r_scifa/src/lld\r_rza2_scifa_lld.c ****     }
 668:D:/Work/DeviceTester/amazon-freertos/lib/third_party/mcu_vendor/renesas/rz_mcu_boards/core_package/generate/sc_drivers/r_scifa/src/lld\r_rza2_scifa_lld.c **** 
 669:D:/Work/DeviceTester/amazon-freertos/lib/third_party/mcu_vendor/renesas/rz_mcu_boards/core_package/generate/sc_drivers/r_scifa/src/lld\r_rza2_scifa_lld.c ****     result = R_SCIFA_SetStopBits(channel, p_configuration->stop_bits);
 670:D:/Work/DeviceTester/amazon-freertos/lib/third_party/mcu_vendor/renesas/rz_mcu_boards/core_package/generate/sc_drivers/r_scifa/src/lld\r_rza2_scifa_lld.c **** 
 671:D:/Work/DeviceTester/amazon-freertos/lib/third_party/mcu_vendor/renesas/rz_mcu_boards/core_package/generate/sc_drivers/r_scifa/src/lld\r_rza2_scifa_lld.c ****     if (DRV_SUCCESS != result)
 672:D:/Work/DeviceTester/amazon-freertos/lib/third_party/mcu_vendor/renesas/rz_mcu_boards/core_package/generate/sc_drivers/r_scifa/src/lld\r_rza2_scifa_lld.c ****     {
 673:D:/Work/DeviceTester/amazon-freertos/lib/third_party/mcu_vendor/renesas/rz_mcu_boards/core_package/generate/sc_drivers/r_scifa/src/lld\r_rza2_scifa_lld.c ****         return (result);
 674:D:/Work/DeviceTester/amazon-freertos/lib/third_party/mcu_vendor/renesas/rz_mcu_boards/core_package/generate/sc_drivers/r_scifa/src/lld\r_rza2_scifa_lld.c ****     }
 675:D:/Work/DeviceTester/amazon-freertos/lib/third_party/mcu_vendor/renesas/rz_mcu_boards/core_package/generate/sc_drivers/r_scifa/src/lld\r_rza2_scifa_lld.c **** 
 676:D:/Work/DeviceTester/amazon-freertos/lib/third_party/mcu_vendor/renesas/rz_mcu_boards/core_package/generate/sc_drivers/r_scifa/src/lld\r_rza2_scifa_lld.c ****     result = R_SICFA_SetTransmissionMode(channel, p_configuration->sync_mode);
 677:D:/Work/DeviceTester/amazon-freertos/lib/third_party/mcu_vendor/renesas/rz_mcu_boards/core_package/generate/sc_drivers/r_scifa/src/lld\r_rza2_scifa_lld.c **** 
 678:D:/Work/DeviceTester/amazon-freertos/lib/third_party/mcu_vendor/renesas/rz_mcu_boards/core_package/generate/sc_drivers/r_scifa/src/lld\r_rza2_scifa_lld.c ****     if (DRV_SUCCESS != result)
 679:D:/Work/DeviceTester/amazon-freertos/lib/third_party/mcu_vendor/renesas/rz_mcu_boards/core_package/generate/sc_drivers/r_scifa/src/lld\r_rza2_scifa_lld.c ****     {
 680:D:/Work/DeviceTester/amazon-freertos/lib/third_party/mcu_vendor/renesas/rz_mcu_boards/core_package/generate/sc_drivers/r_scifa/src/lld\r_rza2_scifa_lld.c ****         return (result);
 681:D:/Work/DeviceTester/amazon-freertos/lib/third_party/mcu_vendor/renesas/rz_mcu_boards/core_package/generate/sc_drivers/r_scifa/src/lld\r_rza2_scifa_lld.c ****     }
 682:D:/Work/DeviceTester/amazon-freertos/lib/third_party/mcu_vendor/renesas/rz_mcu_boards/core_package/generate/sc_drivers/r_scifa/src/lld\r_rza2_scifa_lld.c **** 
 683:D:/Work/DeviceTester/amazon-freertos/lib/third_party/mcu_vendor/renesas/rz_mcu_boards/core_package/generate/sc_drivers/r_scifa/src/lld\r_rza2_scifa_lld.c ****     result = R_SCIFA_SetDataBits(channel, p_configuration->data_size);
 684:D:/Work/DeviceTester/amazon-freertos/lib/third_party/mcu_vendor/renesas/rz_mcu_boards/core_package/generate/sc_drivers/r_scifa/src/lld\r_rza2_scifa_lld.c **** 
 685:D:/Work/DeviceTester/amazon-freertos/lib/third_party/mcu_vendor/renesas/rz_mcu_boards/core_package/generate/sc_drivers/r_scifa/src/lld\r_rza2_scifa_lld.c ****     if (DRV_SUCCESS != result)
 686:D:/Work/DeviceTester/amazon-freertos/lib/third_party/mcu_vendor/renesas/rz_mcu_boards/core_package/generate/sc_drivers/r_scifa/src/lld\r_rza2_scifa_lld.c ****     {
 687:D:/Work/DeviceTester/amazon-freertos/lib/third_party/mcu_vendor/renesas/rz_mcu_boards/core_package/generate/sc_drivers/r_scifa/src/lld\r_rza2_scifa_lld.c ****         return (result);
 688:D:/Work/DeviceTester/amazon-freertos/lib/third_party/mcu_vendor/renesas/rz_mcu_boards/core_package/generate/sc_drivers/r_scifa/src/lld\r_rza2_scifa_lld.c ****     }
 689:D:/Work/DeviceTester/amazon-freertos/lib/third_party/mcu_vendor/renesas/rz_mcu_boards/core_package/generate/sc_drivers/r_scifa/src/lld\r_rza2_scifa_lld.c **** 
 690:D:/Work/DeviceTester/amazon-freertos/lib/third_party/mcu_vendor/renesas/rz_mcu_boards/core_package/generate/sc_drivers/r_scifa/src/lld\r_rza2_scifa_lld.c ****     int_t cpg_handle;
 691:D:/Work/DeviceTester/amazon-freertos/lib/third_party/mcu_vendor/renesas/rz_mcu_boards/core_package/generate/sc_drivers/r_scifa/src/lld\r_rza2_scifa_lld.c ****     st_r_drv_cpg_get_clk_t cpg_get_clock_t;
 692:D:/Work/DeviceTester/amazon-freertos/lib/third_party/mcu_vendor/renesas/rz_mcu_boards/core_package/generate/sc_drivers/r_scifa/src/lld\r_rza2_scifa_lld.c ****     uint32_t current_clk_hz;
 693:D:/Work/DeviceTester/amazon-freertos/lib/third_party/mcu_vendor/renesas/rz_mcu_boards/core_package/generate/sc_drivers/r_scifa/src/lld\r_rza2_scifa_lld.c **** 
 694:D:/Work/DeviceTester/amazon-freertos/lib/third_party/mcu_vendor/renesas/rz_mcu_boards/core_package/generate/sc_drivers/r_scifa/src/lld\r_rza2_scifa_lld.c ****     /* open the CPG driver */
 695:D:/Work/DeviceTester/amazon-freertos/lib/third_party/mcu_vendor/renesas/rz_mcu_boards/core_package/generate/sc_drivers/r_scifa/src/lld\r_rza2_scifa_lld.c ****     cpg_handle = direct_open("cpg", O_RDONLY);
 696:D:/Work/DeviceTester/amazon-freertos/lib/third_party/mcu_vendor/renesas/rz_mcu_boards/core_package/generate/sc_drivers/r_scifa/src/lld\r_rza2_scifa_lld.c **** 
 697:D:/Work/DeviceTester/amazon-freertos/lib/third_party/mcu_vendor/renesas/rz_mcu_boards/core_package/generate/sc_drivers/r_scifa/src/lld\r_rza2_scifa_lld.c ****     if (cpg_handle < 0)
 698:D:/Work/DeviceTester/amazon-freertos/lib/third_party/mcu_vendor/renesas/rz_mcu_boards/core_package/generate/sc_drivers/r_scifa/src/lld\r_rza2_scifa_lld.c ****     {
 699:D:/Work/DeviceTester/amazon-freertos/lib/third_party/mcu_vendor/renesas/rz_mcu_boards/core_package/generate/sc_drivers/r_scifa/src/lld\r_rza2_scifa_lld.c ****         return (DRV_ERROR);
 700:D:/Work/DeviceTester/amazon-freertos/lib/third_party/mcu_vendor/renesas/rz_mcu_boards/core_package/generate/sc_drivers/r_scifa/src/lld\r_rza2_scifa_lld.c ****     }
 701:D:/Work/DeviceTester/amazon-freertos/lib/third_party/mcu_vendor/renesas/rz_mcu_boards/core_package/generate/sc_drivers/r_scifa/src/lld\r_rza2_scifa_lld.c **** 
 702:D:/Work/DeviceTester/amazon-freertos/lib/third_party/mcu_vendor/renesas/rz_mcu_boards/core_package/generate/sc_drivers/r_scifa/src/lld\r_rza2_scifa_lld.c ****     /* interrogate the CPG driver for the P1 clock frequency */
 703:D:/Work/DeviceTester/amazon-freertos/lib/third_party/mcu_vendor/renesas/rz_mcu_boards/core_package/generate/sc_drivers/r_scifa/src/lld\r_rza2_scifa_lld.c ****     cpg_get_clock_t.freq_src = CPG_FREQ_P1CLK;
 704:D:/Work/DeviceTester/amazon-freertos/lib/third_party/mcu_vendor/renesas/rz_mcu_boards/core_package/generate/sc_drivers/r_scifa/src/lld\r_rza2_scifa_lld.c ****     if (control(cpg_handle, CTL_CPG_GET_CLK, &cpg_get_clock_t) != DRV_SUCCESS)
 705:D:/Work/DeviceTester/amazon-freertos/lib/third_party/mcu_vendor/renesas/rz_mcu_boards/core_package/generate/sc_drivers/r_scifa/src/lld\r_rza2_scifa_lld.c ****     {
 706:D:/Work/DeviceTester/amazon-freertos/lib/third_party/mcu_vendor/renesas/rz_mcu_boards/core_package/generate/sc_drivers/r_scifa/src/lld\r_rza2_scifa_lld.c ****         return (DRV_ERROR);
 707:D:/Work/DeviceTester/amazon-freertos/lib/third_party/mcu_vendor/renesas/rz_mcu_boards/core_package/generate/sc_drivers/r_scifa/src/lld\r_rza2_scifa_lld.c ****     }
 708:D:/Work/DeviceTester/amazon-freertos/lib/third_party/mcu_vendor/renesas/rz_mcu_boards/core_package/generate/sc_drivers/r_scifa/src/lld\r_rza2_scifa_lld.c **** 
 709:D:/Work/DeviceTester/amazon-freertos/lib/third_party/mcu_vendor/renesas/rz_mcu_boards/core_package/generate/sc_drivers/r_scifa/src/lld\r_rza2_scifa_lld.c ****     /* close the CPG driver */
 710:D:/Work/DeviceTester/amazon-freertos/lib/third_party/mcu_vendor/renesas/rz_mcu_boards/core_package/generate/sc_drivers/r_scifa/src/lld\r_rza2_scifa_lld.c ****     direct_close(cpg_handle);
 711:D:/Work/DeviceTester/amazon-freertos/lib/third_party/mcu_vendor/renesas/rz_mcu_boards/core_package/generate/sc_drivers/r_scifa/src/lld\r_rza2_scifa_lld.c **** 
 712:D:/Work/DeviceTester/amazon-freertos/lib/third_party/mcu_vendor/renesas/rz_mcu_boards/core_package/generate/sc_drivers/r_scifa/src/lld\r_rza2_scifa_lld.c ****     /* convert data from CPG (KHz) to SCIFA (Hz) requirements */
 713:D:/Work/DeviceTester/amazon-freertos/lib/third_party/mcu_vendor/renesas/rz_mcu_boards/core_package/generate/sc_drivers/r_scifa/src/lld\r_rza2_scifa_lld.c ****     current_clk_hz = ((uint32_t) (cpg_get_clock_t.clk_frequency_khz)) * 1000;
 714:D:/Work/DeviceTester/amazon-freertos/lib/third_party/mcu_vendor/renesas/rz_mcu_boards/core_package/generate/sc_drivers/r_scifa/src/lld\r_rza2_scifa_lld.c **** 
 715:D:/Work/DeviceTester/amazon-freertos/lib/third_party/mcu_vendor/renesas/rz_mcu_boards/core_package/generate/sc_drivers/r_scifa/src/lld\r_rza2_scifa_lld.c ****     result = R_SCIFA_SetBaud(channel, p_configuration->baud_rate, current_clk_hz, p_configuration->
 716:D:/Work/DeviceTester/amazon-freertos/lib/third_party/mcu_vendor/renesas/rz_mcu_boards/core_package/generate/sc_drivers/r_scifa/src/lld\r_rza2_scifa_lld.c **** 
 717:D:/Work/DeviceTester/amazon-freertos/lib/third_party/mcu_vendor/renesas/rz_mcu_boards/core_package/generate/sc_drivers/r_scifa/src/lld\r_rza2_scifa_lld.c ****     if (DRV_SUCCESS != result)
 718:D:/Work/DeviceTester/amazon-freertos/lib/third_party/mcu_vendor/renesas/rz_mcu_boards/core_package/generate/sc_drivers/r_scifa/src/lld\r_rza2_scifa_lld.c ****     {
 719:D:/Work/DeviceTester/amazon-freertos/lib/third_party/mcu_vendor/renesas/rz_mcu_boards/core_package/generate/sc_drivers/r_scifa/src/lld\r_rza2_scifa_lld.c ****         return (result);
 720:D:/Work/DeviceTester/amazon-freertos/lib/third_party/mcu_vendor/renesas/rz_mcu_boards/core_package/generate/sc_drivers/r_scifa/src/lld\r_rza2_scifa_lld.c ****     }
 721:D:/Work/DeviceTester/amazon-freertos/lib/third_party/mcu_vendor/renesas/rz_mcu_boards/core_package/generate/sc_drivers/r_scifa/src/lld\r_rza2_scifa_lld.c **** 
 722:D:/Work/DeviceTester/amazon-freertos/lib/third_party/mcu_vendor/renesas/rz_mcu_boards/core_package/generate/sc_drivers/r_scifa/src/lld\r_rza2_scifa_lld.c ****     result = R_SCIFA_SetLoopBack(channel, p_configuration->loopback);
 723:D:/Work/DeviceTester/amazon-freertos/lib/third_party/mcu_vendor/renesas/rz_mcu_boards/core_package/generate/sc_drivers/r_scifa/src/lld\r_rza2_scifa_lld.c **** 
 724:D:/Work/DeviceTester/amazon-freertos/lib/third_party/mcu_vendor/renesas/rz_mcu_boards/core_package/generate/sc_drivers/r_scifa/src/lld\r_rza2_scifa_lld.c ****     if (DRV_SUCCESS != result)
 725:D:/Work/DeviceTester/amazon-freertos/lib/third_party/mcu_vendor/renesas/rz_mcu_boards/core_package/generate/sc_drivers/r_scifa/src/lld\r_rza2_scifa_lld.c ****     {
 726:D:/Work/DeviceTester/amazon-freertos/lib/third_party/mcu_vendor/renesas/rz_mcu_boards/core_package/generate/sc_drivers/r_scifa/src/lld\r_rza2_scifa_lld.c ****         return (result);
 727:D:/Work/DeviceTester/amazon-freertos/lib/third_party/mcu_vendor/renesas/rz_mcu_boards/core_package/generate/sc_drivers/r_scifa/src/lld\r_rza2_scifa_lld.c ****     }
 728:D:/Work/DeviceTester/amazon-freertos/lib/third_party/mcu_vendor/renesas/rz_mcu_boards/core_package/generate/sc_drivers/r_scifa/src/lld\r_rza2_scifa_lld.c **** 
 729:D:/Work/DeviceTester/amazon-freertos/lib/third_party/mcu_vendor/renesas/rz_mcu_boards/core_package/generate/sc_drivers/r_scifa/src/lld\r_rza2_scifa_lld.c ****     result = R_SCIFA_SetDataOrder(channel, p_configuration->data_direction);
 730:D:/Work/DeviceTester/amazon-freertos/lib/third_party/mcu_vendor/renesas/rz_mcu_boards/core_package/generate/sc_drivers/r_scifa/src/lld\r_rza2_scifa_lld.c **** 
 731:D:/Work/DeviceTester/amazon-freertos/lib/third_party/mcu_vendor/renesas/rz_mcu_boards/core_package/generate/sc_drivers/r_scifa/src/lld\r_rza2_scifa_lld.c ****     if (DRV_SUCCESS != result)
 732:D:/Work/DeviceTester/amazon-freertos/lib/third_party/mcu_vendor/renesas/rz_mcu_boards/core_package/generate/sc_drivers/r_scifa/src/lld\r_rza2_scifa_lld.c ****     {
 733:D:/Work/DeviceTester/amazon-freertos/lib/third_party/mcu_vendor/renesas/rz_mcu_boards/core_package/generate/sc_drivers/r_scifa/src/lld\r_rza2_scifa_lld.c ****         return (result);
 734:D:/Work/DeviceTester/amazon-freertos/lib/third_party/mcu_vendor/renesas/rz_mcu_boards/core_package/generate/sc_drivers/r_scifa/src/lld\r_rza2_scifa_lld.c ****     }
 735:D:/Work/DeviceTester/amazon-freertos/lib/third_party/mcu_vendor/renesas/rz_mcu_boards/core_package/generate/sc_drivers/r_scifa/src/lld\r_rza2_scifa_lld.c **** 
 736:D:/Work/DeviceTester/amazon-freertos/lib/third_party/mcu_vendor/renesas/rz_mcu_boards/core_package/generate/sc_drivers/r_scifa/src/lld\r_rza2_scifa_lld.c ****     result = R_SCIFA_SetTXDOutput(channel, p_configuration->txd_init_value);
 737:D:/Work/DeviceTester/amazon-freertos/lib/third_party/mcu_vendor/renesas/rz_mcu_boards/core_package/generate/sc_drivers/r_scifa/src/lld\r_rza2_scifa_lld.c **** 
 738:D:/Work/DeviceTester/amazon-freertos/lib/third_party/mcu_vendor/renesas/rz_mcu_boards/core_package/generate/sc_drivers/r_scifa/src/lld\r_rza2_scifa_lld.c ****     if (DRV_SUCCESS != result)
 739:D:/Work/DeviceTester/amazon-freertos/lib/third_party/mcu_vendor/renesas/rz_mcu_boards/core_package/generate/sc_drivers/r_scifa/src/lld\r_rza2_scifa_lld.c ****     {
 740:D:/Work/DeviceTester/amazon-freertos/lib/third_party/mcu_vendor/renesas/rz_mcu_boards/core_package/generate/sc_drivers/r_scifa/src/lld\r_rza2_scifa_lld.c ****         return (result);
 741:D:/Work/DeviceTester/amazon-freertos/lib/third_party/mcu_vendor/renesas/rz_mcu_boards/core_package/generate/sc_drivers/r_scifa/src/lld\r_rza2_scifa_lld.c ****     }
 742:D:/Work/DeviceTester/amazon-freertos/lib/third_party/mcu_vendor/renesas/rz_mcu_boards/core_package/generate/sc_drivers/r_scifa/src/lld\r_rza2_scifa_lld.c **** 
 743:D:/Work/DeviceTester/amazon-freertos/lib/third_party/mcu_vendor/renesas/rz_mcu_boards/core_package/generate/sc_drivers/r_scifa/src/lld\r_rza2_scifa_lld.c ****     result = R_SCIFA_SetSCKOutput(channel, p_configuration->sck_init_value);
 744:D:/Work/DeviceTester/amazon-freertos/lib/third_party/mcu_vendor/renesas/rz_mcu_boards/core_package/generate/sc_drivers/r_scifa/src/lld\r_rza2_scifa_lld.c **** 
 745:D:/Work/DeviceTester/amazon-freertos/lib/third_party/mcu_vendor/renesas/rz_mcu_boards/core_package/generate/sc_drivers/r_scifa/src/lld\r_rza2_scifa_lld.c ****     if (DRV_SUCCESS != result)
 746:D:/Work/DeviceTester/amazon-freertos/lib/third_party/mcu_vendor/renesas/rz_mcu_boards/core_package/generate/sc_drivers/r_scifa/src/lld\r_rza2_scifa_lld.c ****     {
 747:D:/Work/DeviceTester/amazon-freertos/lib/third_party/mcu_vendor/renesas/rz_mcu_boards/core_package/generate/sc_drivers/r_scifa/src/lld\r_rza2_scifa_lld.c ****         return (result);
 748:D:/Work/DeviceTester/amazon-freertos/lib/third_party/mcu_vendor/renesas/rz_mcu_boards/core_package/generate/sc_drivers/r_scifa/src/lld\r_rza2_scifa_lld.c ****     }
 749:D:/Work/DeviceTester/amazon-freertos/lib/third_party/mcu_vendor/renesas/rz_mcu_boards/core_package/generate/sc_drivers/r_scifa/src/lld\r_rza2_scifa_lld.c **** 
 750:D:/Work/DeviceTester/amazon-freertos/lib/third_party/mcu_vendor/renesas/rz_mcu_boards/core_package/generate/sc_drivers/r_scifa/src/lld\r_rza2_scifa_lld.c ****     /* RTS not available on channel 3 or channel 4 */
 751:D:/Work/DeviceTester/amazon-freertos/lib/third_party/mcu_vendor/renesas/rz_mcu_boards/core_package/generate/sc_drivers/r_scifa/src/lld\r_rza2_scifa_lld.c ****     if ((R_PRV_SCIFA_CHANNEL_3 != channel) && (R_PRV_SCIFA_CHANNEL_4 != channel))
 752:D:/Work/DeviceTester/amazon-freertos/lib/third_party/mcu_vendor/renesas/rz_mcu_boards/core_package/generate/sc_drivers/r_scifa/src/lld\r_rza2_scifa_lld.c ****     {
 753:D:/Work/DeviceTester/amazon-freertos/lib/third_party/mcu_vendor/renesas/rz_mcu_boards/core_package/generate/sc_drivers/r_scifa/src/lld\r_rza2_scifa_lld.c ****         result = R_SCIFA_SetRTSOutput(channel, p_configuration->rts_init_value);
 754:D:/Work/DeviceTester/amazon-freertos/lib/third_party/mcu_vendor/renesas/rz_mcu_boards/core_package/generate/sc_drivers/r_scifa/src/lld\r_rza2_scifa_lld.c ****     }
 755:D:/Work/DeviceTester/amazon-freertos/lib/third_party/mcu_vendor/renesas/rz_mcu_boards/core_package/generate/sc_drivers/r_scifa/src/lld\r_rza2_scifa_lld.c **** 
 756:D:/Work/DeviceTester/amazon-freertos/lib/third_party/mcu_vendor/renesas/rz_mcu_boards/core_package/generate/sc_drivers/r_scifa/src/lld\r_rza2_scifa_lld.c ****     if (DRV_SUCCESS != result)
 757:D:/Work/DeviceTester/amazon-freertos/lib/third_party/mcu_vendor/renesas/rz_mcu_boards/core_package/generate/sc_drivers/r_scifa/src/lld\r_rza2_scifa_lld.c ****     {
 758:D:/Work/DeviceTester/amazon-freertos/lib/third_party/mcu_vendor/renesas/rz_mcu_boards/core_package/generate/sc_drivers/r_scifa/src/lld\r_rza2_scifa_lld.c ****         return (result);
 759:D:/Work/DeviceTester/amazon-freertos/lib/third_party/mcu_vendor/renesas/rz_mcu_boards/core_package/generate/sc_drivers/r_scifa/src/lld\r_rza2_scifa_lld.c ****     }
 760:D:/Work/DeviceTester/amazon-freertos/lib/third_party/mcu_vendor/renesas/rz_mcu_boards/core_package/generate/sc_drivers/r_scifa/src/lld\r_rza2_scifa_lld.c **** 
 761:D:/Work/DeviceTester/amazon-freertos/lib/third_party/mcu_vendor/renesas/rz_mcu_boards/core_package/generate/sc_drivers/r_scifa/src/lld\r_rza2_scifa_lld.c ****     /* CTS not available on channel 3 or channel 4 */
 762:D:/Work/DeviceTester/amazon-freertos/lib/third_party/mcu_vendor/renesas/rz_mcu_boards/core_package/generate/sc_drivers/r_scifa/src/lld\r_rza2_scifa_lld.c ****     if ((R_PRV_SCIFA_CHANNEL_3 != channel) && (R_PRV_SCIFA_CHANNEL_4 != channel))
 763:D:/Work/DeviceTester/amazon-freertos/lib/third_party/mcu_vendor/renesas/rz_mcu_boards/core_package/generate/sc_drivers/r_scifa/src/lld\r_rza2_scifa_lld.c ****     {
 764:D:/Work/DeviceTester/amazon-freertos/lib/third_party/mcu_vendor/renesas/rz_mcu_boards/core_package/generate/sc_drivers/r_scifa/src/lld\r_rza2_scifa_lld.c ****         result = R_SCIFA_SetCTSOutput(channel, p_configuration->cts_init_value);
 765:D:/Work/DeviceTester/amazon-freertos/lib/third_party/mcu_vendor/renesas/rz_mcu_boards/core_package/generate/sc_drivers/r_scifa/src/lld\r_rza2_scifa_lld.c ****     }
 766:D:/Work/DeviceTester/amazon-freertos/lib/third_party/mcu_vendor/renesas/rz_mcu_boards/core_package/generate/sc_drivers/r_scifa/src/lld\r_rza2_scifa_lld.c **** 
 767:D:/Work/DeviceTester/amazon-freertos/lib/third_party/mcu_vendor/renesas/rz_mcu_boards/core_package/generate/sc_drivers/r_scifa/src/lld\r_rza2_scifa_lld.c ****     if (DRV_SUCCESS != result)
 768:D:/Work/DeviceTester/amazon-freertos/lib/third_party/mcu_vendor/renesas/rz_mcu_boards/core_package/generate/sc_drivers/r_scifa/src/lld\r_rza2_scifa_lld.c ****     {
 769:D:/Work/DeviceTester/amazon-freertos/lib/third_party/mcu_vendor/renesas/rz_mcu_boards/core_package/generate/sc_drivers/r_scifa/src/lld\r_rza2_scifa_lld.c ****         return (result);
 770:D:/Work/DeviceTester/amazon-freertos/lib/third_party/mcu_vendor/renesas/rz_mcu_boards/core_package/generate/sc_drivers/r_scifa/src/lld\r_rza2_scifa_lld.c ****     }
 771:D:/Work/DeviceTester/amazon-freertos/lib/third_party/mcu_vendor/renesas/rz_mcu_boards/core_package/generate/sc_drivers/r_scifa/src/lld\r_rza2_scifa_lld.c **** 
 772:D:/Work/DeviceTester/amazon-freertos/lib/third_party/mcu_vendor/renesas/rz_mcu_boards/core_package/generate/sc_drivers/r_scifa/src/lld\r_rza2_scifa_lld.c ****     /* set extended features */
 773:D:/Work/DeviceTester/amazon-freertos/lib/third_party/mcu_vendor/renesas/rz_mcu_boards/core_package/generate/sc_drivers/r_scifa/src/lld\r_rza2_scifa_lld.c ****     result = R_SCIFA_SetExtendedCfg(channel, p_configuration);
 774:D:/Work/DeviceTester/amazon-freertos/lib/third_party/mcu_vendor/renesas/rz_mcu_boards/core_package/generate/sc_drivers/r_scifa/src/lld\r_rza2_scifa_lld.c **** 
 775:D:/Work/DeviceTester/amazon-freertos/lib/third_party/mcu_vendor/renesas/rz_mcu_boards/core_package/generate/sc_drivers/r_scifa/src/lld\r_rza2_scifa_lld.c ****     return (result);
 776:D:/Work/DeviceTester/amazon-freertos/lib/third_party/mcu_vendor/renesas/rz_mcu_boards/core_package/generate/sc_drivers/r_scifa/src/lld\r_rza2_scifa_lld.c **** }
 777:D:/Work/DeviceTester/amazon-freertos/lib/third_party/mcu_vendor/renesas/rz_mcu_boards/core_package/generate/sc_drivers/r_scifa/src/lld\r_rza2_scifa_lld.c **** /**************************************************************************************************
 778:D:/Work/DeviceTester/amazon-freertos/lib/third_party/mcu_vendor/renesas/rz_mcu_boards/core_package/generate/sc_drivers/r_scifa/src/lld\r_rza2_scifa_lld.c ****  * End of Function R_SCIFA_ChannelConfigure
 779:D:/Work/DeviceTester/amazon-freertos/lib/third_party/mcu_vendor/renesas/rz_mcu_boards/core_package/generate/sc_drivers/r_scifa/src/lld\r_rza2_scifa_lld.c ****  **************************************************************************************************
 780:D:/Work/DeviceTester/amazon-freertos/lib/third_party/mcu_vendor/renesas/rz_mcu_boards/core_package/generate/sc_drivers/r_scifa/src/lld\r_rza2_scifa_lld.c **** 
 781:D:/Work/DeviceTester/amazon-freertos/lib/third_party/mcu_vendor/renesas/rz_mcu_boards/core_package/generate/sc_drivers/r_scifa/src/lld\r_rza2_scifa_lld.c **** /**
 782:D:/Work/DeviceTester/amazon-freertos/lib/third_party/mcu_vendor/renesas/rz_mcu_boards/core_package/generate/sc_drivers/r_scifa/src/lld\r_rza2_scifa_lld.c ****  * @brief R_SCIFA_Close is to be called when closing a channel
 783:D:/Work/DeviceTester/amazon-freertos/lib/third_party/mcu_vendor/renesas/rz_mcu_boards/core_package/generate/sc_drivers/r_scifa/src/lld\r_rza2_scifa_lld.c ****  * This function is currently stubbed, in case a developer may wish
 784:D:/Work/DeviceTester/amazon-freertos/lib/third_party/mcu_vendor/renesas/rz_mcu_boards/core_package/generate/sc_drivers/r_scifa/src/lld\r_rza2_scifa_lld.c ****  * to implement it in a future driver update
 785:D:/Work/DeviceTester/amazon-freertos/lib/third_party/mcu_vendor/renesas/rz_mcu_boards/core_package/generate/sc_drivers/r_scifa/src/lld\r_rza2_scifa_lld.c ****  *
 786:D:/Work/DeviceTester/amazon-freertos/lib/third_party/mcu_vendor/renesas/rz_mcu_boards/core_package/generate/sc_drivers/r_scifa/src/lld\r_rza2_scifa_lld.c ****  * @param[in] channel: channel to close
 787:D:/Work/DeviceTester/amazon-freertos/lib/third_party/mcu_vendor/renesas/rz_mcu_boards/core_package/generate/sc_drivers/r_scifa/src/lld\r_rza2_scifa_lld.c ****  *
 788:D:/Work/DeviceTester/amazon-freertos/lib/third_party/mcu_vendor/renesas/rz_mcu_boards/core_package/generate/sc_drivers/r_scifa/src/lld\r_rza2_scifa_lld.c ****  * @retval  0 DRV_SUCCESS
 789:D:/Work/DeviceTester/amazon-freertos/lib/third_party/mcu_vendor/renesas/rz_mcu_boards/core_package/generate/sc_drivers/r_scifa/src/lld\r_rza2_scifa_lld.c ****  * @retval -1 DRV_ERROR
 790:D:/Work/DeviceTester/amazon-freertos/lib/third_party/mcu_vendor/renesas/rz_mcu_boards/core_package/generate/sc_drivers/r_scifa/src/lld\r_rza2_scifa_lld.c ****  */
 791:D:/Work/DeviceTester/amazon-freertos/lib/third_party/mcu_vendor/renesas/rz_mcu_boards/core_package/generate/sc_drivers/r_scifa/src/lld\r_rza2_scifa_lld.c **** int_t R_SCIFA_Close (r_channel_t channel)
 792:D:/Work/DeviceTester/amazon-freertos/lib/third_party/mcu_vendor/renesas/rz_mcu_boards/core_package/generate/sc_drivers/r_scifa/src/lld\r_rza2_scifa_lld.c **** {
 793:D:/Work/DeviceTester/amazon-freertos/lib/third_party/mcu_vendor/renesas/rz_mcu_boards/core_package/generate/sc_drivers/r_scifa/src/lld\r_rza2_scifa_lld.c ****     if ((channel > R_PRV_CFG_SCIF_LAST_CHANNEL) || (channel < 0))
 794:D:/Work/DeviceTester/amazon-freertos/lib/third_party/mcu_vendor/renesas/rz_mcu_boards/core_package/generate/sc_drivers/r_scifa/src/lld\r_rza2_scifa_lld.c ****     {
 795:D:/Work/DeviceTester/amazon-freertos/lib/third_party/mcu_vendor/renesas/rz_mcu_boards/core_package/generate/sc_drivers/r_scifa/src/lld\r_rza2_scifa_lld.c ****         return (DRV_ERROR);
 796:D:/Work/DeviceTester/amazon-freertos/lib/third_party/mcu_vendor/renesas/rz_mcu_boards/core_package/generate/sc_drivers/r_scifa/src/lld\r_rza2_scifa_lld.c ****     }
 797:D:/Work/DeviceTester/amazon-freertos/lib/third_party/mcu_vendor/renesas/rz_mcu_boards/core_package/generate/sc_drivers/r_scifa/src/lld\r_rza2_scifa_lld.c **** 
 798:D:/Work/DeviceTester/amazon-freertos/lib/third_party/mcu_vendor/renesas/rz_mcu_boards/core_package/generate/sc_drivers/r_scifa/src/lld\r_rza2_scifa_lld.c ****     return (DRV_SUCCESS);
 799:D:/Work/DeviceTester/amazon-freertos/lib/third_party/mcu_vendor/renesas/rz_mcu_boards/core_package/generate/sc_drivers/r_scifa/src/lld\r_rza2_scifa_lld.c **** }
 800:D:/Work/DeviceTester/amazon-freertos/lib/third_party/mcu_vendor/renesas/rz_mcu_boards/core_package/generate/sc_drivers/r_scifa/src/lld\r_rza2_scifa_lld.c **** /**************************************************************************************************
 801:D:/Work/DeviceTester/amazon-freertos/lib/third_party/mcu_vendor/renesas/rz_mcu_boards/core_package/generate/sc_drivers/r_scifa/src/lld\r_rza2_scifa_lld.c ****  * End of Function R_SCIFA_Close
 802:D:/Work/DeviceTester/amazon-freertos/lib/third_party/mcu_vendor/renesas/rz_mcu_boards/core_package/generate/sc_drivers/r_scifa/src/lld\r_rza2_scifa_lld.c ****  **************************************************************************************************
 803:D:/Work/DeviceTester/amazon-freertos/lib/third_party/mcu_vendor/renesas/rz_mcu_boards/core_package/generate/sc_drivers/r_scifa/src/lld\r_rza2_scifa_lld.c **** 
 804:D:/Work/DeviceTester/amazon-freertos/lib/third_party/mcu_vendor/renesas/rz_mcu_boards/core_package/generate/sc_drivers/r_scifa/src/lld\r_rza2_scifa_lld.c **** /**
 805:D:/Work/DeviceTester/amazon-freertos/lib/third_party/mcu_vendor/renesas/rz_mcu_boards/core_package/generate/sc_drivers/r_scifa/src/lld\r_rza2_scifa_lld.c ****  * @brief R_SCIFA_StopTransmit stops transmission at the end of a DMA transmit
 806:D:/Work/DeviceTester/amazon-freertos/lib/third_party/mcu_vendor/renesas/rz_mcu_boards/core_package/generate/sc_drivers/r_scifa/src/lld\r_rza2_scifa_lld.c ****  *
 807:D:/Work/DeviceTester/amazon-freertos/lib/third_party/mcu_vendor/renesas/rz_mcu_boards/core_package/generate/sc_drivers/r_scifa/src/lld\r_rza2_scifa_lld.c ****  * @param[in] channel Channel to stop
 808:D:/Work/DeviceTester/amazon-freertos/lib/third_party/mcu_vendor/renesas/rz_mcu_boards/core_package/generate/sc_drivers/r_scifa/src/lld\r_rza2_scifa_lld.c ****  *
 809:D:/Work/DeviceTester/amazon-freertos/lib/third_party/mcu_vendor/renesas/rz_mcu_boards/core_package/generate/sc_drivers/r_scifa/src/lld\r_rza2_scifa_lld.c ****  * @retval  0 DRV_SUCCESS
 810:D:/Work/DeviceTester/amazon-freertos/lib/third_party/mcu_vendor/renesas/rz_mcu_boards/core_package/generate/sc_drivers/r_scifa/src/lld\r_rza2_scifa_lld.c ****  * @retval -1 DRV_ERROR
 811:D:/Work/DeviceTester/amazon-freertos/lib/third_party/mcu_vendor/renesas/rz_mcu_boards/core_package/generate/sc_drivers/r_scifa/src/lld\r_rza2_scifa_lld.c ****  */
 812:D:/Work/DeviceTester/amazon-freertos/lib/third_party/mcu_vendor/renesas/rz_mcu_boards/core_package/generate/sc_drivers/r_scifa/src/lld\r_rza2_scifa_lld.c **** int_t R_SCIFA_StopTransmit (r_channel_t channel)
 813:D:/Work/DeviceTester/amazon-freertos/lib/third_party/mcu_vendor/renesas/rz_mcu_boards/core_package/generate/sc_drivers/r_scifa/src/lld\r_rza2_scifa_lld.c **** {
 814:D:/Work/DeviceTester/amazon-freertos/lib/third_party/mcu_vendor/renesas/rz_mcu_boards/core_package/generate/sc_drivers/r_scifa/src/lld\r_rza2_scifa_lld.c ****     /* check arguments */
 815:D:/Work/DeviceTester/amazon-freertos/lib/third_party/mcu_vendor/renesas/rz_mcu_boards/core_package/generate/sc_drivers/r_scifa/src/lld\r_rza2_scifa_lld.c ****     if ((channel > SCIFA_CFG_LLD_NUM_CHANNELS) || (channel < 0))
 816:D:/Work/DeviceTester/amazon-freertos/lib/third_party/mcu_vendor/renesas/rz_mcu_boards/core_package/generate/sc_drivers/r_scifa/src/lld\r_rza2_scifa_lld.c ****     {
 817:D:/Work/DeviceTester/amazon-freertos/lib/third_party/mcu_vendor/renesas/rz_mcu_boards/core_package/generate/sc_drivers/r_scifa/src/lld\r_rza2_scifa_lld.c ****         return (DRV_ERROR);
 818:D:/Work/DeviceTester/amazon-freertos/lib/third_party/mcu_vendor/renesas/rz_mcu_boards/core_package/generate/sc_drivers/r_scifa/src/lld\r_rza2_scifa_lld.c ****     }
 819:D:/Work/DeviceTester/amazon-freertos/lib/third_party/mcu_vendor/renesas/rz_mcu_boards/core_package/generate/sc_drivers/r_scifa/src/lld\r_rza2_scifa_lld.c **** 
 820:D:/Work/DeviceTester/amazon-freertos/lib/third_party/mcu_vendor/renesas/rz_mcu_boards/core_package/generate/sc_drivers/r_scifa/src/lld\r_rza2_scifa_lld.c ****     /* Disable transmit interrupt */
 821:D:/Work/DeviceTester/amazon-freertos/lib/third_party/mcu_vendor/renesas/rz_mcu_boards/core_package/generate/sc_drivers/r_scifa/src/lld\r_rza2_scifa_lld.c ****     RZA_IO_RegWrite_16((volatile uint16_t *) &gsp_scifa[channel]->SCR.WORD, (uint16_t) 0, SCIFA_SCR
 822:D:/Work/DeviceTester/amazon-freertos/lib/third_party/mcu_vendor/renesas/rz_mcu_boards/core_package/generate/sc_drivers/r_scifa/src/lld\r_rza2_scifa_lld.c **** 
 823:D:/Work/DeviceTester/amazon-freertos/lib/third_party/mcu_vendor/renesas/rz_mcu_boards/core_package/generate/sc_drivers/r_scifa/src/lld\r_rza2_scifa_lld.c ****     /* Disable transmit */
 824:D:/Work/DeviceTester/amazon-freertos/lib/third_party/mcu_vendor/renesas/rz_mcu_boards/core_package/generate/sc_drivers/r_scifa/src/lld\r_rza2_scifa_lld.c ****     RZA_IO_RegWrite_16((volatile uint16_t *) &gsp_scifa[channel]->SCR.WORD, (uint16_t) 0, SCIFA_SCR
 825:D:/Work/DeviceTester/amazon-freertos/lib/third_party/mcu_vendor/renesas/rz_mcu_boards/core_package/generate/sc_drivers/r_scifa/src/lld\r_rza2_scifa_lld.c **** 
 826:D:/Work/DeviceTester/amazon-freertos/lib/third_party/mcu_vendor/renesas/rz_mcu_boards/core_package/generate/sc_drivers/r_scifa/src/lld\r_rza2_scifa_lld.c ****     /* disable transmit end interrupt enable */
 827:D:/Work/DeviceTester/amazon-freertos/lib/third_party/mcu_vendor/renesas/rz_mcu_boards/core_package/generate/sc_drivers/r_scifa/src/lld\r_rza2_scifa_lld.c ****     RZA_IO_RegWrite_16((volatile uint16_t *) &gsp_scifa[channel]->SCR.WORD, 0, SCIFA_SCR_TEIE_SHIFT
 828:D:/Work/DeviceTester/amazon-freertos/lib/third_party/mcu_vendor/renesas/rz_mcu_boards/core_package/generate/sc_drivers/r_scifa/src/lld\r_rza2_scifa_lld.c **** 
 829:D:/Work/DeviceTester/amazon-freertos/lib/third_party/mcu_vendor/renesas/rz_mcu_boards/core_package/generate/sc_drivers/r_scifa/src/lld\r_rza2_scifa_lld.c ****     /* clear the TEND bit */
 830:D:/Work/DeviceTester/amazon-freertos/lib/third_party/mcu_vendor/renesas/rz_mcu_boards/core_package/generate/sc_drivers/r_scifa/src/lld\r_rza2_scifa_lld.c ****      RZA_IO_RegWrite_16((volatile uint16_t *) &gsp_scifa[channel]->FSR.WORD, 0, SCIFA_FSR_TEND_SHIF
 831:D:/Work/DeviceTester/amazon-freertos/lib/third_party/mcu_vendor/renesas/rz_mcu_boards/core_package/generate/sc_drivers/r_scifa/src/lld\r_rza2_scifa_lld.c **** 
 832:D:/Work/DeviceTester/amazon-freertos/lib/third_party/mcu_vendor/renesas/rz_mcu_boards/core_package/generate/sc_drivers/r_scifa/src/lld\r_rza2_scifa_lld.c ****     /* flush the transmit FIFO */
 833:D:/Work/DeviceTester/amazon-freertos/lib/third_party/mcu_vendor/renesas/rz_mcu_boards/core_package/generate/sc_drivers/r_scifa/src/lld\r_rza2_scifa_lld.c ****     gsp_scifa[channel]->FCR.BIT.TFRST = 1;
 834:D:/Work/DeviceTester/amazon-freertos/lib/third_party/mcu_vendor/renesas/rz_mcu_boards/core_package/generate/sc_drivers/r_scifa/src/lld\r_rza2_scifa_lld.c ****     gsp_scifa[channel]->FCR.BIT.TFRST = 0;
 835:D:/Work/DeviceTester/amazon-freertos/lib/third_party/mcu_vendor/renesas/rz_mcu_boards/core_package/generate/sc_drivers/r_scifa/src/lld\r_rza2_scifa_lld.c **** 
 836:D:/Work/DeviceTester/amazon-freertos/lib/third_party/mcu_vendor/renesas/rz_mcu_boards/core_package/generate/sc_drivers/r_scifa/src/lld\r_rza2_scifa_lld.c ****     return (DRV_SUCCESS);
 837:D:/Work/DeviceTester/amazon-freertos/lib/third_party/mcu_vendor/renesas/rz_mcu_boards/core_package/generate/sc_drivers/r_scifa/src/lld\r_rza2_scifa_lld.c **** }
 838:D:/Work/DeviceTester/amazon-freertos/lib/third_party/mcu_vendor/renesas/rz_mcu_boards/core_package/generate/sc_drivers/r_scifa/src/lld\r_rza2_scifa_lld.c **** /**************************************************************************************************
 839:D:/Work/DeviceTester/amazon-freertos/lib/third_party/mcu_vendor/renesas/rz_mcu_boards/core_package/generate/sc_drivers/r_scifa/src/lld\r_rza2_scifa_lld.c ****  * End of Function R_SCIFA_StopTransmit
 840:D:/Work/DeviceTester/amazon-freertos/lib/third_party/mcu_vendor/renesas/rz_mcu_boards/core_package/generate/sc_drivers/r_scifa/src/lld\r_rza2_scifa_lld.c ****  **************************************************************************************************
 841:D:/Work/DeviceTester/amazon-freertos/lib/third_party/mcu_vendor/renesas/rz_mcu_boards/core_package/generate/sc_drivers/r_scifa/src/lld\r_rza2_scifa_lld.c **** 
 842:D:/Work/DeviceTester/amazon-freertos/lib/third_party/mcu_vendor/renesas/rz_mcu_boards/core_package/generate/sc_drivers/r_scifa/src/lld\r_rza2_scifa_lld.c **** /**
 843:D:/Work/DeviceTester/amazon-freertos/lib/third_party/mcu_vendor/renesas/rz_mcu_boards/core_package/generate/sc_drivers/r_scifa/src/lld\r_rza2_scifa_lld.c ****  * @brief R_SCIFA_GetTXEIState Determines the current TXEI state for a channel
 844:D:/Work/DeviceTester/amazon-freertos/lib/third_party/mcu_vendor/renesas/rz_mcu_boards/core_package/generate/sc_drivers/r_scifa/src/lld\r_rza2_scifa_lld.c ****  *
 845:D:/Work/DeviceTester/amazon-freertos/lib/third_party/mcu_vendor/renesas/rz_mcu_boards/core_package/generate/sc_drivers/r_scifa/src/lld\r_rza2_scifa_lld.c ****  * This function will determine whether a channel has recently triggered
 846:D:/Work/DeviceTester/amazon-freertos/lib/third_party/mcu_vendor/renesas/rz_mcu_boards/core_package/generate/sc_drivers/r_scifa/src/lld\r_rza2_scifa_lld.c ****  * a TXEI interrupt event.
 847:D:/Work/DeviceTester/amazon-freertos/lib/third_party/mcu_vendor/renesas/rz_mcu_boards/core_package/generate/sc_drivers/r_scifa/src/lld\r_rza2_scifa_lld.c ****  *
 848:D:/Work/DeviceTester/amazon-freertos/lib/third_party/mcu_vendor/renesas/rz_mcu_boards/core_package/generate/sc_drivers/r_scifa/src/lld\r_rza2_scifa_lld.c ****  * @param[in] channel  Channel to check TXEI status for
 849:D:/Work/DeviceTester/amazon-freertos/lib/third_party/mcu_vendor/renesas/rz_mcu_boards/core_package/generate/sc_drivers/r_scifa/src/lld\r_rza2_scifa_lld.c ****  *
 850:D:/Work/DeviceTester/amazon-freertos/lib/third_party/mcu_vendor/renesas/rz_mcu_boards/core_package/generate/sc_drivers/r_scifa/src/lld\r_rza2_scifa_lld.c ****  * @retval  SCIFA_INTERRUPTING or SCIFA_NOT_INTERRUPTING
 851:D:/Work/DeviceTester/amazon-freertos/lib/third_party/mcu_vendor/renesas/rz_mcu_boards/core_package/generate/sc_drivers/r_scifa/src/lld\r_rza2_scifa_lld.c ****  * @retval -1 DRV_ERROR
 852:D:/Work/DeviceTester/amazon-freertos/lib/third_party/mcu_vendor/renesas/rz_mcu_boards/core_package/generate/sc_drivers/r_scifa/src/lld\r_rza2_scifa_lld.c ****  */
 853:D:/Work/DeviceTester/amazon-freertos/lib/third_party/mcu_vendor/renesas/rz_mcu_boards/core_package/generate/sc_drivers/r_scifa/src/lld\r_rza2_scifa_lld.c **** scifa_interrupting_state_t R_SCIFA_GetTXEIState (r_channel_t channel)
 854:D:/Work/DeviceTester/amazon-freertos/lib/third_party/mcu_vendor/renesas/rz_mcu_boards/core_package/generate/sc_drivers/r_scifa/src/lld\r_rza2_scifa_lld.c **** {
 855:D:/Work/DeviceTester/amazon-freertos/lib/third_party/mcu_vendor/renesas/rz_mcu_boards/core_package/generate/sc_drivers/r_scifa/src/lld\r_rza2_scifa_lld.c ****     if ((channel > R_PRV_CFG_SCIF_LAST_CHANNEL) || (channel < 0))
 856:D:/Work/DeviceTester/amazon-freertos/lib/third_party/mcu_vendor/renesas/rz_mcu_boards/core_package/generate/sc_drivers/r_scifa/src/lld\r_rza2_scifa_lld.c ****     {
 857:D:/Work/DeviceTester/amazon-freertos/lib/third_party/mcu_vendor/renesas/rz_mcu_boards/core_package/generate/sc_drivers/r_scifa/src/lld\r_rza2_scifa_lld.c ****         return (DRV_ERROR);
 858:D:/Work/DeviceTester/amazon-freertos/lib/third_party/mcu_vendor/renesas/rz_mcu_boards/core_package/generate/sc_drivers/r_scifa/src/lld\r_rza2_scifa_lld.c ****     }
 859:D:/Work/DeviceTester/amazon-freertos/lib/third_party/mcu_vendor/renesas/rz_mcu_boards/core_package/generate/sc_drivers/r_scifa/src/lld\r_rza2_scifa_lld.c **** 
 860:D:/Work/DeviceTester/amazon-freertos/lib/third_party/mcu_vendor/renesas/rz_mcu_boards/core_package/generate/sc_drivers/r_scifa/src/lld\r_rza2_scifa_lld.c ****     uint16_t txend_interrupt_state;
 861:D:/Work/DeviceTester/amazon-freertos/lib/third_party/mcu_vendor/renesas/rz_mcu_boards/core_package/generate/sc_drivers/r_scifa/src/lld\r_rza2_scifa_lld.c **** 
 862:D:/Work/DeviceTester/amazon-freertos/lib/third_party/mcu_vendor/renesas/rz_mcu_boards/core_package/generate/sc_drivers/r_scifa/src/lld\r_rza2_scifa_lld.c ****     /* Get transmit end interrupt state */
 863:D:/Work/DeviceTester/amazon-freertos/lib/third_party/mcu_vendor/renesas/rz_mcu_boards/core_package/generate/sc_drivers/r_scifa/src/lld\r_rza2_scifa_lld.c ****     txend_interrupt_state = gsp_scifa[channel]->FSR.BIT.TEND;
 864:D:/Work/DeviceTester/amazon-freertos/lib/third_party/mcu_vendor/renesas/rz_mcu_boards/core_package/generate/sc_drivers/r_scifa/src/lld\r_rza2_scifa_lld.c **** 
 865:D:/Work/DeviceTester/amazon-freertos/lib/third_party/mcu_vendor/renesas/rz_mcu_boards/core_package/generate/sc_drivers/r_scifa/src/lld\r_rza2_scifa_lld.c ****     return (txend_interrupt_state ? SCIFA_INTERRUPTING : SCIFA_NOT_INTERRUPTING);
 866:D:/Work/DeviceTester/amazon-freertos/lib/third_party/mcu_vendor/renesas/rz_mcu_boards/core_package/generate/sc_drivers/r_scifa/src/lld\r_rza2_scifa_lld.c **** }
 867:D:/Work/DeviceTester/amazon-freertos/lib/third_party/mcu_vendor/renesas/rz_mcu_boards/core_package/generate/sc_drivers/r_scifa/src/lld\r_rza2_scifa_lld.c **** /**************************************************************************************************
 868:D:/Work/DeviceTester/amazon-freertos/lib/third_party/mcu_vendor/renesas/rz_mcu_boards/core_package/generate/sc_drivers/r_scifa/src/lld\r_rza2_scifa_lld.c ****  * End of Function R_SCIFA_GetTXEIState
 869:D:/Work/DeviceTester/amazon-freertos/lib/third_party/mcu_vendor/renesas/rz_mcu_boards/core_package/generate/sc_drivers/r_scifa/src/lld\r_rza2_scifa_lld.c ****  **************************************************************************************************
 870:D:/Work/DeviceTester/amazon-freertos/lib/third_party/mcu_vendor/renesas/rz_mcu_boards/core_package/generate/sc_drivers/r_scifa/src/lld\r_rza2_scifa_lld.c **** 
 871:D:/Work/DeviceTester/amazon-freertos/lib/third_party/mcu_vendor/renesas/rz_mcu_boards/core_package/generate/sc_drivers/r_scifa/src/lld\r_rza2_scifa_lld.c **** /**
 872:D:/Work/DeviceTester/amazon-freertos/lib/third_party/mcu_vendor/renesas/rz_mcu_boards/core_package/generate/sc_drivers/r_scifa/src/lld\r_rza2_scifa_lld.c ****  * @brief R_SCIFA_GetTXIState Determines the current TXI state for a channel.
 873:D:/Work/DeviceTester/amazon-freertos/lib/third_party/mcu_vendor/renesas/rz_mcu_boards/core_package/generate/sc_drivers/r_scifa/src/lld\r_rza2_scifa_lld.c ****  * This function will determine whether a channel has recently triggered
 874:D:/Work/DeviceTester/amazon-freertos/lib/third_party/mcu_vendor/renesas/rz_mcu_boards/core_package/generate/sc_drivers/r_scifa/src/lld\r_rza2_scifa_lld.c ****  * a TXI interrupt event
 875:D:/Work/DeviceTester/amazon-freertos/lib/third_party/mcu_vendor/renesas/rz_mcu_boards/core_package/generate/sc_drivers/r_scifa/src/lld\r_rza2_scifa_lld.c ****  *
 876:D:/Work/DeviceTester/amazon-freertos/lib/third_party/mcu_vendor/renesas/rz_mcu_boards/core_package/generate/sc_drivers/r_scifa/src/lld\r_rza2_scifa_lld.c ****  * @param[in] channel: channel to check TXI status for
 877:D:/Work/DeviceTester/amazon-freertos/lib/third_party/mcu_vendor/renesas/rz_mcu_boards/core_package/generate/sc_drivers/r_scifa/src/lld\r_rza2_scifa_lld.c ****  *
 878:D:/Work/DeviceTester/amazon-freertos/lib/third_party/mcu_vendor/renesas/rz_mcu_boards/core_package/generate/sc_drivers/r_scifa/src/lld\r_rza2_scifa_lld.c ****  * @retval  SCIFA_INTERRUPTING or SCIFA_NOT_INTERRUPTING
 879:D:/Work/DeviceTester/amazon-freertos/lib/third_party/mcu_vendor/renesas/rz_mcu_boards/core_package/generate/sc_drivers/r_scifa/src/lld\r_rza2_scifa_lld.c ****  * @retval -1 DRV_ERROR
 880:D:/Work/DeviceTester/amazon-freertos/lib/third_party/mcu_vendor/renesas/rz_mcu_boards/core_package/generate/sc_drivers/r_scifa/src/lld\r_rza2_scifa_lld.c ****  */
 881:D:/Work/DeviceTester/amazon-freertos/lib/third_party/mcu_vendor/renesas/rz_mcu_boards/core_package/generate/sc_drivers/r_scifa/src/lld\r_rza2_scifa_lld.c **** scifa_interrupting_state_t R_SCIFA_GetTXIState (r_channel_t channel)
 882:D:/Work/DeviceTester/amazon-freertos/lib/third_party/mcu_vendor/renesas/rz_mcu_boards/core_package/generate/sc_drivers/r_scifa/src/lld\r_rza2_scifa_lld.c **** {
 883:D:/Work/DeviceTester/amazon-freertos/lib/third_party/mcu_vendor/renesas/rz_mcu_boards/core_package/generate/sc_drivers/r_scifa/src/lld\r_rza2_scifa_lld.c ****     if ((channel > R_PRV_CFG_SCIF_LAST_CHANNEL) || (channel < 0))
 884:D:/Work/DeviceTester/amazon-freertos/lib/third_party/mcu_vendor/renesas/rz_mcu_boards/core_package/generate/sc_drivers/r_scifa/src/lld\r_rza2_scifa_lld.c ****     {
 885:D:/Work/DeviceTester/amazon-freertos/lib/third_party/mcu_vendor/renesas/rz_mcu_boards/core_package/generate/sc_drivers/r_scifa/src/lld\r_rza2_scifa_lld.c ****         return (DRV_ERROR);
 886:D:/Work/DeviceTester/amazon-freertos/lib/third_party/mcu_vendor/renesas/rz_mcu_boards/core_package/generate/sc_drivers/r_scifa/src/lld\r_rza2_scifa_lld.c ****     }
 887:D:/Work/DeviceTester/amazon-freertos/lib/third_party/mcu_vendor/renesas/rz_mcu_boards/core_package/generate/sc_drivers/r_scifa/src/lld\r_rza2_scifa_lld.c **** 
 888:D:/Work/DeviceTester/amazon-freertos/lib/third_party/mcu_vendor/renesas/rz_mcu_boards/core_package/generate/sc_drivers/r_scifa/src/lld\r_rza2_scifa_lld.c ****     uint16_t tx_interrupt_state;
 889:D:/Work/DeviceTester/amazon-freertos/lib/third_party/mcu_vendor/renesas/rz_mcu_boards/core_package/generate/sc_drivers/r_scifa/src/lld\r_rza2_scifa_lld.c ****     uint16_t tx_interrupt_enable_state;
 890:D:/Work/DeviceTester/amazon-freertos/lib/third_party/mcu_vendor/renesas/rz_mcu_boards/core_package/generate/sc_drivers/r_scifa/src/lld\r_rza2_scifa_lld.c **** 
 891:D:/Work/DeviceTester/amazon-freertos/lib/third_party/mcu_vendor/renesas/rz_mcu_boards/core_package/generate/sc_drivers/r_scifa/src/lld\r_rza2_scifa_lld.c ****     /* Get FIFO empty status */
 892:D:/Work/DeviceTester/amazon-freertos/lib/third_party/mcu_vendor/renesas/rz_mcu_boards/core_package/generate/sc_drivers/r_scifa/src/lld\r_rza2_scifa_lld.c ****     tx_interrupt_state = RZA_IO_RegRead_16((volatile uint16_t *) &gsp_scifa[channel]->FSR.WORD, SCI
 893:D:/Work/DeviceTester/amazon-freertos/lib/third_party/mcu_vendor/renesas/rz_mcu_boards/core_package/generate/sc_drivers/r_scifa/src/lld\r_rza2_scifa_lld.c **** 
 894:D:/Work/DeviceTester/amazon-freertos/lib/third_party/mcu_vendor/renesas/rz_mcu_boards/core_package/generate/sc_drivers/r_scifa/src/lld\r_rza2_scifa_lld.c ****     /* Get interrupt enable status */
 895:D:/Work/DeviceTester/amazon-freertos/lib/third_party/mcu_vendor/renesas/rz_mcu_boards/core_package/generate/sc_drivers/r_scifa/src/lld\r_rza2_scifa_lld.c ****     tx_interrupt_enable_state = RZA_IO_RegRead_16((volatile uint16_t *) &gsp_scifa[channel]->SCR.WO
 896:D:/Work/DeviceTester/amazon-freertos/lib/third_party/mcu_vendor/renesas/rz_mcu_boards/core_package/generate/sc_drivers/r_scifa/src/lld\r_rza2_scifa_lld.c **** 
 897:D:/Work/DeviceTester/amazon-freertos/lib/third_party/mcu_vendor/renesas/rz_mcu_boards/core_package/generate/sc_drivers/r_scifa/src/lld\r_rza2_scifa_lld.c ****     return ((tx_interrupt_state && tx_interrupt_enable_state) ? SCIFA_INTERRUPTING : SCIFA_NOT_INTE
 898:D:/Work/DeviceTester/amazon-freertos/lib/third_party/mcu_vendor/renesas/rz_mcu_boards/core_package/generate/sc_drivers/r_scifa/src/lld\r_rza2_scifa_lld.c **** }
 899:D:/Work/DeviceTester/amazon-freertos/lib/third_party/mcu_vendor/renesas/rz_mcu_boards/core_package/generate/sc_drivers/r_scifa/src/lld\r_rza2_scifa_lld.c **** /**************************************************************************************************
 900:D:/Work/DeviceTester/amazon-freertos/lib/third_party/mcu_vendor/renesas/rz_mcu_boards/core_package/generate/sc_drivers/r_scifa/src/lld\r_rza2_scifa_lld.c ****  * End of Function R_SCIFA_GetTXIState
 901:D:/Work/DeviceTester/amazon-freertos/lib/third_party/mcu_vendor/renesas/rz_mcu_boards/core_package/generate/sc_drivers/r_scifa/src/lld\r_rza2_scifa_lld.c ****  **************************************************************************************************
 902:D:/Work/DeviceTester/amazon-freertos/lib/third_party/mcu_vendor/renesas/rz_mcu_boards/core_package/generate/sc_drivers/r_scifa/src/lld\r_rza2_scifa_lld.c **** 
 903:D:/Work/DeviceTester/amazon-freertos/lib/third_party/mcu_vendor/renesas/rz_mcu_boards/core_package/generate/sc_drivers/r_scifa/src/lld\r_rza2_scifa_lld.c **** /**
 904:D:/Work/DeviceTester/amazon-freertos/lib/third_party/mcu_vendor/renesas/rz_mcu_boards/core_package/generate/sc_drivers/r_scifa/src/lld\r_rza2_scifa_lld.c ****  * @brief R_SCIFA_ClearTXIFlags removes TXI flags on a channel
 905:D:/Work/DeviceTester/amazon-freertos/lib/third_party/mcu_vendor/renesas/rz_mcu_boards/core_package/generate/sc_drivers/r_scifa/src/lld\r_rza2_scifa_lld.c ****  * This function is called at the end of an TXI handler routine
 906:D:/Work/DeviceTester/amazon-freertos/lib/third_party/mcu_vendor/renesas/rz_mcu_boards/core_package/generate/sc_drivers/r_scifa/src/lld\r_rza2_scifa_lld.c ****  * it will clear necessary TXI flag to mark TXI as handled.
 907:D:/Work/DeviceTester/amazon-freertos/lib/third_party/mcu_vendor/renesas/rz_mcu_boards/core_package/generate/sc_drivers/r_scifa/src/lld\r_rza2_scifa_lld.c ****  *
 908:D:/Work/DeviceTester/amazon-freertos/lib/third_party/mcu_vendor/renesas/rz_mcu_boards/core_package/generate/sc_drivers/r_scifa/src/lld\r_rza2_scifa_lld.c ****  * @param[in] channel: channel to clear TXI flags for
 909:D:/Work/DeviceTester/amazon-freertos/lib/third_party/mcu_vendor/renesas/rz_mcu_boards/core_package/generate/sc_drivers/r_scifa/src/lld\r_rza2_scifa_lld.c ****  *
 910:D:/Work/DeviceTester/amazon-freertos/lib/third_party/mcu_vendor/renesas/rz_mcu_boards/core_package/generate/sc_drivers/r_scifa/src/lld\r_rza2_scifa_lld.c ****  * @retval  0 DRV_SUCCESS
 911:D:/Work/DeviceTester/amazon-freertos/lib/third_party/mcu_vendor/renesas/rz_mcu_boards/core_package/generate/sc_drivers/r_scifa/src/lld\r_rza2_scifa_lld.c ****  * @retval -1 DRV_ERROR
 912:D:/Work/DeviceTester/amazon-freertos/lib/third_party/mcu_vendor/renesas/rz_mcu_boards/core_package/generate/sc_drivers/r_scifa/src/lld\r_rza2_scifa_lld.c ****  */
 913:D:/Work/DeviceTester/amazon-freertos/lib/third_party/mcu_vendor/renesas/rz_mcu_boards/core_package/generate/sc_drivers/r_scifa/src/lld\r_rza2_scifa_lld.c **** int_t R_SCIFA_ClearTXIFlags (r_channel_t channel)
 914:D:/Work/DeviceTester/amazon-freertos/lib/third_party/mcu_vendor/renesas/rz_mcu_boards/core_package/generate/sc_drivers/r_scifa/src/lld\r_rza2_scifa_lld.c **** {
 915:D:/Work/DeviceTester/amazon-freertos/lib/third_party/mcu_vendor/renesas/rz_mcu_boards/core_package/generate/sc_drivers/r_scifa/src/lld\r_rza2_scifa_lld.c ****     uint16_t dummy;
 916:D:/Work/DeviceTester/amazon-freertos/lib/third_party/mcu_vendor/renesas/rz_mcu_boards/core_package/generate/sc_drivers/r_scifa/src/lld\r_rza2_scifa_lld.c **** 
 917:D:/Work/DeviceTester/amazon-freertos/lib/third_party/mcu_vendor/renesas/rz_mcu_boards/core_package/generate/sc_drivers/r_scifa/src/lld\r_rza2_scifa_lld.c ****     if ((channel > R_PRV_CFG_SCIF_LAST_CHANNEL) || (channel < 0))
 918:D:/Work/DeviceTester/amazon-freertos/lib/third_party/mcu_vendor/renesas/rz_mcu_boards/core_package/generate/sc_drivers/r_scifa/src/lld\r_rza2_scifa_lld.c ****     {
 919:D:/Work/DeviceTester/amazon-freertos/lib/third_party/mcu_vendor/renesas/rz_mcu_boards/core_package/generate/sc_drivers/r_scifa/src/lld\r_rza2_scifa_lld.c ****         return (DRV_ERROR);
 920:D:/Work/DeviceTester/amazon-freertos/lib/third_party/mcu_vendor/renesas/rz_mcu_boards/core_package/generate/sc_drivers/r_scifa/src/lld\r_rza2_scifa_lld.c ****     }
 921:D:/Work/DeviceTester/amazon-freertos/lib/third_party/mcu_vendor/renesas/rz_mcu_boards/core_package/generate/sc_drivers/r_scifa/src/lld\r_rza2_scifa_lld.c **** 
 922:D:/Work/DeviceTester/amazon-freertos/lib/third_party/mcu_vendor/renesas/rz_mcu_boards/core_package/generate/sc_drivers/r_scifa/src/lld\r_rza2_scifa_lld.c ****     /* Dummy read */
 923:D:/Work/DeviceTester/amazon-freertos/lib/third_party/mcu_vendor/renesas/rz_mcu_boards/core_package/generate/sc_drivers/r_scifa/src/lld\r_rza2_scifa_lld.c ****     dummy = RZA_IO_RegRead_16((volatile uint16_t *) &gsp_scifa[channel]->FSR.WORD, SCIFA_FSR_TDFE_S
 924:D:/Work/DeviceTester/amazon-freertos/lib/third_party/mcu_vendor/renesas/rz_mcu_boards/core_package/generate/sc_drivers/r_scifa/src/lld\r_rza2_scifa_lld.c **** 
 925:D:/Work/DeviceTester/amazon-freertos/lib/third_party/mcu_vendor/renesas/rz_mcu_boards/core_package/generate/sc_drivers/r_scifa/src/lld\r_rza2_scifa_lld.c ****     /* The TDFE flag can only be reset after a 1 is read from it */
 926:D:/Work/DeviceTester/amazon-freertos/lib/third_party/mcu_vendor/renesas/rz_mcu_boards/core_package/generate/sc_drivers/r_scifa/src/lld\r_rza2_scifa_lld.c ****     if (1 == dummy)
 927:D:/Work/DeviceTester/amazon-freertos/lib/third_party/mcu_vendor/renesas/rz_mcu_boards/core_package/generate/sc_drivers/r_scifa/src/lld\r_rza2_scifa_lld.c ****     {
 928:D:/Work/DeviceTester/amazon-freertos/lib/third_party/mcu_vendor/renesas/rz_mcu_boards/core_package/generate/sc_drivers/r_scifa/src/lld\r_rza2_scifa_lld.c ****         /* Reset the TDFE flag */
 929:D:/Work/DeviceTester/amazon-freertos/lib/third_party/mcu_vendor/renesas/rz_mcu_boards/core_package/generate/sc_drivers/r_scifa/src/lld\r_rza2_scifa_lld.c ****         RZA_IO_RegWrite_16((volatile uint16_t *) &gsp_scifa[channel]->FSR.WORD, 0, SCIFA_FSR_TDFE_S
 930:D:/Work/DeviceTester/amazon-freertos/lib/third_party/mcu_vendor/renesas/rz_mcu_boards/core_package/generate/sc_drivers/r_scifa/src/lld\r_rza2_scifa_lld.c ****     }
 931:D:/Work/DeviceTester/amazon-freertos/lib/third_party/mcu_vendor/renesas/rz_mcu_boards/core_package/generate/sc_drivers/r_scifa/src/lld\r_rza2_scifa_lld.c **** 
 932:D:/Work/DeviceTester/amazon-freertos/lib/third_party/mcu_vendor/renesas/rz_mcu_boards/core_package/generate/sc_drivers/r_scifa/src/lld\r_rza2_scifa_lld.c ****     return (DRV_SUCCESS);
 933:D:/Work/DeviceTester/amazon-freertos/lib/third_party/mcu_vendor/renesas/rz_mcu_boards/core_package/generate/sc_drivers/r_scifa/src/lld\r_rza2_scifa_lld.c **** }
 934:D:/Work/DeviceTester/amazon-freertos/lib/third_party/mcu_vendor/renesas/rz_mcu_boards/core_package/generate/sc_drivers/r_scifa/src/lld\r_rza2_scifa_lld.c **** /**************************************************************************************************
 935:D:/Work/DeviceTester/amazon-freertos/lib/third_party/mcu_vendor/renesas/rz_mcu_boards/core_package/generate/sc_drivers/r_scifa/src/lld\r_rza2_scifa_lld.c ****  * End of Function R_SCIFA_ClearTXIFlags
 936:D:/Work/DeviceTester/amazon-freertos/lib/third_party/mcu_vendor/renesas/rz_mcu_boards/core_package/generate/sc_drivers/r_scifa/src/lld\r_rza2_scifa_lld.c ****  **************************************************************************************************
 937:D:/Work/DeviceTester/amazon-freertos/lib/third_party/mcu_vendor/renesas/rz_mcu_boards/core_package/generate/sc_drivers/r_scifa/src/lld\r_rza2_scifa_lld.c **** 
 938:D:/Work/DeviceTester/amazon-freertos/lib/third_party/mcu_vendor/renesas/rz_mcu_boards/core_package/generate/sc_drivers/r_scifa/src/lld\r_rza2_scifa_lld.c **** /**
 939:D:/Work/DeviceTester/amazon-freertos/lib/third_party/mcu_vendor/renesas/rz_mcu_boards/core_package/generate/sc_drivers/r_scifa/src/lld\r_rza2_scifa_lld.c ****  * @brief R_SCIFA_CheckRXIError Determines error status of channel receive
 940:D:/Work/DeviceTester/amazon-freertos/lib/third_party/mcu_vendor/renesas/rz_mcu_boards/core_package/generate/sc_drivers/r_scifa/src/lld\r_rza2_scifa_lld.c ****  * This function will determine whether a channel has recently experienced
 941:D:/Work/DeviceTester/amazon-freertos/lib/third_party/mcu_vendor/renesas/rz_mcu_boards/core_package/generate/sc_drivers/r_scifa/src/lld\r_rza2_scifa_lld.c ****  * any overflow/parity/framing errors when receiving data
 942:D:/Work/DeviceTester/amazon-freertos/lib/third_party/mcu_vendor/renesas/rz_mcu_boards/core_package/generate/sc_drivers/r_scifa/src/lld\r_rza2_scifa_lld.c ****  * It returns this information in a error data structure
 943:D:/Work/DeviceTester/amazon-freertos/lib/third_party/mcu_vendor/renesas/rz_mcu_boards/core_package/generate/sc_drivers/r_scifa/src/lld\r_rza2_scifa_lld.c ****  *
 944:D:/Work/DeviceTester/amazon-freertos/lib/third_party/mcu_vendor/renesas/rz_mcu_boards/core_package/generate/sc_drivers/r_scifa/src/lld\r_rza2_scifa_lld.c ****  * @param[in] channel: channel to check RXI error status for
 945:D:/Work/DeviceTester/amazon-freertos/lib/third_party/mcu_vendor/renesas/rz_mcu_boards/core_package/generate/sc_drivers/r_scifa/src/lld\r_rza2_scifa_lld.c ****  * @param[out] p_rx_err: error info struct to populate with any error details
 946:D:/Work/DeviceTester/amazon-freertos/lib/third_party/mcu_vendor/renesas/rz_mcu_boards/core_package/generate/sc_drivers/r_scifa/src/lld\r_rza2_scifa_lld.c ****  *
 947:D:/Work/DeviceTester/amazon-freertos/lib/third_party/mcu_vendor/renesas/rz_mcu_boards/core_package/generate/sc_drivers/r_scifa/src/lld\r_rza2_scifa_lld.c ****  * @retval  0 DRV_SUCCESS
 948:D:/Work/DeviceTester/amazon-freertos/lib/third_party/mcu_vendor/renesas/rz_mcu_boards/core_package/generate/sc_drivers/r_scifa/src/lld\r_rza2_scifa_lld.c ****  * @retval -1 DRV_ERROR
 949:D:/Work/DeviceTester/amazon-freertos/lib/third_party/mcu_vendor/renesas/rz_mcu_boards/core_package/generate/sc_drivers/r_scifa/src/lld\r_rza2_scifa_lld.c ****  */
 950:D:/Work/DeviceTester/amazon-freertos/lib/third_party/mcu_vendor/renesas/rz_mcu_boards/core_package/generate/sc_drivers/r_scifa/src/lld\r_rza2_scifa_lld.c **** int_t R_SCIFA_CheckRXIError(r_channel_t channel, st_scifa_rx_error_t *p_rx_err)
 951:D:/Work/DeviceTester/amazon-freertos/lib/third_party/mcu_vendor/renesas/rz_mcu_boards/core_package/generate/sc_drivers/r_scifa/src/lld\r_rza2_scifa_lld.c **** {
 952:D:/Work/DeviceTester/amazon-freertos/lib/third_party/mcu_vendor/renesas/rz_mcu_boards/core_package/generate/sc_drivers/r_scifa/src/lld\r_rza2_scifa_lld.c ****     int_t ret = DRV_SUCCESS;
 953:D:/Work/DeviceTester/amazon-freertos/lib/third_party/mcu_vendor/renesas/rz_mcu_boards/core_package/generate/sc_drivers/r_scifa/src/lld\r_rza2_scifa_lld.c ****     uint32_t framing_errors;
 954:D:/Work/DeviceTester/amazon-freertos/lib/third_party/mcu_vendor/renesas/rz_mcu_boards/core_package/generate/sc_drivers/r_scifa/src/lld\r_rza2_scifa_lld.c ****     uint32_t parity_errors;
 955:D:/Work/DeviceTester/amazon-freertos/lib/third_party/mcu_vendor/renesas/rz_mcu_boards/core_package/generate/sc_drivers/r_scifa/src/lld\r_rza2_scifa_lld.c ****     bool_t framing_errors_present;
 956:D:/Work/DeviceTester/amazon-freertos/lib/third_party/mcu_vendor/renesas/rz_mcu_boards/core_package/generate/sc_drivers/r_scifa/src/lld\r_rza2_scifa_lld.c ****     bool_t parity_errors_present;
 957:D:/Work/DeviceTester/amazon-freertos/lib/third_party/mcu_vendor/renesas/rz_mcu_boards/core_package/generate/sc_drivers/r_scifa/src/lld\r_rza2_scifa_lld.c **** 
 958:D:/Work/DeviceTester/amazon-freertos/lib/third_party/mcu_vendor/renesas/rz_mcu_boards/core_package/generate/sc_drivers/r_scifa/src/lld\r_rza2_scifa_lld.c ****     /* read the ER flag; this tells us if there were any framing or parity errors */
 959:D:/Work/DeviceTester/amazon-freertos/lib/third_party/mcu_vendor/renesas/rz_mcu_boards/core_package/generate/sc_drivers/r_scifa/src/lld\r_rza2_scifa_lld.c ****     if (1 == RZA_IO_RegRead_16((volatile uint16_t *) &gsp_scifa[channel]->FSR.WORD, SCIFA_FSR_ER_SH
 960:D:/Work/DeviceTester/amazon-freertos/lib/third_party/mcu_vendor/renesas/rz_mcu_boards/core_package/generate/sc_drivers/r_scifa/src/lld\r_rza2_scifa_lld.c ****     {
 961:D:/Work/DeviceTester/amazon-freertos/lib/third_party/mcu_vendor/renesas/rz_mcu_boards/core_package/generate/sc_drivers/r_scifa/src/lld\r_rza2_scifa_lld.c ****         /* read the FER flag for framing errors */
 962:D:/Work/DeviceTester/amazon-freertos/lib/third_party/mcu_vendor/renesas/rz_mcu_boards/core_package/generate/sc_drivers/r_scifa/src/lld\r_rza2_scifa_lld.c ****         framing_errors_present = RZA_IO_RegRead_16((volatile uint16_t *) &gsp_scifa[channel]->FSR.W
 963:D:/Work/DeviceTester/amazon-freertos/lib/third_party/mcu_vendor/renesas/rz_mcu_boards/core_package/generate/sc_drivers/r_scifa/src/lld\r_rza2_scifa_lld.c **** 
 964:D:/Work/DeviceTester/amazon-freertos/lib/third_party/mcu_vendor/renesas/rz_mcu_boards/core_package/generate/sc_drivers/r_scifa/src/lld\r_rza2_scifa_lld.c ****         /* read the PER flag for parity errors */
 965:D:/Work/DeviceTester/amazon-freertos/lib/third_party/mcu_vendor/renesas/rz_mcu_boards/core_package/generate/sc_drivers/r_scifa/src/lld\r_rza2_scifa_lld.c ****         parity_errors_present = RZA_IO_RegRead_16((volatile uint16_t *) &gsp_scifa[channel]->FSR.WO
 966:D:/Work/DeviceTester/amazon-freertos/lib/third_party/mcu_vendor/renesas/rz_mcu_boards/core_package/generate/sc_drivers/r_scifa/src/lld\r_rza2_scifa_lld.c **** 
 967:D:/Work/DeviceTester/amazon-freertos/lib/third_party/mcu_vendor/renesas/rz_mcu_boards/core_package/generate/sc_drivers/r_scifa/src/lld\r_rza2_scifa_lld.c ****         /* if there were any framing errors, then get the framing error count and update our total 
 968:D:/Work/DeviceTester/amazon-freertos/lib/third_party/mcu_vendor/renesas/rz_mcu_boards/core_package/generate/sc_drivers/r_scifa/src/lld\r_rza2_scifa_lld.c ****         if (framing_errors_present)
 969:D:/Work/DeviceTester/amazon-freertos/lib/third_party/mcu_vendor/renesas/rz_mcu_boards/core_package/generate/sc_drivers/r_scifa/src/lld\r_rza2_scifa_lld.c ****         {
 970:D:/Work/DeviceTester/amazon-freertos/lib/third_party/mcu_vendor/renesas/rz_mcu_boards/core_package/generate/sc_drivers/r_scifa/src/lld\r_rza2_scifa_lld.c ****             /* count framing errors */
 971:D:/Work/DeviceTester/amazon-freertos/lib/third_party/mcu_vendor/renesas/rz_mcu_boards/core_package/generate/sc_drivers/r_scifa/src/lld\r_rza2_scifa_lld.c ****             framing_errors = RZA_IO_RegRead_16((volatile uint16_t *) &gsp_scifa[channel]->LSR.WORD,
 972:D:/Work/DeviceTester/amazon-freertos/lib/third_party/mcu_vendor/renesas/rz_mcu_boards/core_package/generate/sc_drivers/r_scifa/src/lld\r_rza2_scifa_lld.c **** 
 973:D:/Work/DeviceTester/amazon-freertos/lib/third_party/mcu_vendor/renesas/rz_mcu_boards/core_package/generate/sc_drivers/r_scifa/src/lld\r_rza2_scifa_lld.c ****             /* 0 actually means that there were 16 framing errors */
 974:D:/Work/DeviceTester/amazon-freertos/lib/third_party/mcu_vendor/renesas/rz_mcu_boards/core_package/generate/sc_drivers/r_scifa/src/lld\r_rza2_scifa_lld.c ****             if (0 == framing_errors)
 975:D:/Work/DeviceTester/amazon-freertos/lib/third_party/mcu_vendor/renesas/rz_mcu_boards/core_package/generate/sc_drivers/r_scifa/src/lld\r_rza2_scifa_lld.c ****             {
 976:D:/Work/DeviceTester/amazon-freertos/lib/third_party/mcu_vendor/renesas/rz_mcu_boards/core_package/generate/sc_drivers/r_scifa/src/lld\r_rza2_scifa_lld.c ****                 framing_errors = 16;
 977:D:/Work/DeviceTester/amazon-freertos/lib/third_party/mcu_vendor/renesas/rz_mcu_boards/core_package/generate/sc_drivers/r_scifa/src/lld\r_rza2_scifa_lld.c ****             }
 978:D:/Work/DeviceTester/amazon-freertos/lib/third_party/mcu_vendor/renesas/rz_mcu_boards/core_package/generate/sc_drivers/r_scifa/src/lld\r_rza2_scifa_lld.c **** 
 979:D:/Work/DeviceTester/amazon-freertos/lib/third_party/mcu_vendor/renesas/rz_mcu_boards/core_package/generate/sc_drivers/r_scifa/src/lld\r_rza2_scifa_lld.c ****             p_rx_err->cnt_framing += framing_errors;
 980:D:/Work/DeviceTester/amazon-freertos/lib/third_party/mcu_vendor/renesas/rz_mcu_boards/core_package/generate/sc_drivers/r_scifa/src/lld\r_rza2_scifa_lld.c ****         }
 981:D:/Work/DeviceTester/amazon-freertos/lib/third_party/mcu_vendor/renesas/rz_mcu_boards/core_package/generate/sc_drivers/r_scifa/src/lld\r_rza2_scifa_lld.c **** 
 982:D:/Work/DeviceTester/amazon-freertos/lib/third_party/mcu_vendor/renesas/rz_mcu_boards/core_package/generate/sc_drivers/r_scifa/src/lld\r_rza2_scifa_lld.c ****         /* if there were any parity errors, then get the parity error count and update our total */
 983:D:/Work/DeviceTester/amazon-freertos/lib/third_party/mcu_vendor/renesas/rz_mcu_boards/core_package/generate/sc_drivers/r_scifa/src/lld\r_rza2_scifa_lld.c ****         if (parity_errors_present)
 984:D:/Work/DeviceTester/amazon-freertos/lib/third_party/mcu_vendor/renesas/rz_mcu_boards/core_package/generate/sc_drivers/r_scifa/src/lld\r_rza2_scifa_lld.c ****         {
 985:D:/Work/DeviceTester/amazon-freertos/lib/third_party/mcu_vendor/renesas/rz_mcu_boards/core_package/generate/sc_drivers/r_scifa/src/lld\r_rza2_scifa_lld.c ****             /* count parity errors */
 986:D:/Work/DeviceTester/amazon-freertos/lib/third_party/mcu_vendor/renesas/rz_mcu_boards/core_package/generate/sc_drivers/r_scifa/src/lld\r_rza2_scifa_lld.c ****             parity_errors = RZA_IO_RegRead_16((volatile uint16_t *) &gsp_scifa[channel]->LSR.WORD, 
 987:D:/Work/DeviceTester/amazon-freertos/lib/third_party/mcu_vendor/renesas/rz_mcu_boards/core_package/generate/sc_drivers/r_scifa/src/lld\r_rza2_scifa_lld.c **** 
 988:D:/Work/DeviceTester/amazon-freertos/lib/third_party/mcu_vendor/renesas/rz_mcu_boards/core_package/generate/sc_drivers/r_scifa/src/lld\r_rza2_scifa_lld.c ****             /* 0 actually means that there were 16 parity errors */
 989:D:/Work/DeviceTester/amazon-freertos/lib/third_party/mcu_vendor/renesas/rz_mcu_boards/core_package/generate/sc_drivers/r_scifa/src/lld\r_rza2_scifa_lld.c ****             if (0 == parity_errors)
 990:D:/Work/DeviceTester/amazon-freertos/lib/third_party/mcu_vendor/renesas/rz_mcu_boards/core_package/generate/sc_drivers/r_scifa/src/lld\r_rza2_scifa_lld.c ****             {
 991:D:/Work/DeviceTester/amazon-freertos/lib/third_party/mcu_vendor/renesas/rz_mcu_boards/core_package/generate/sc_drivers/r_scifa/src/lld\r_rza2_scifa_lld.c ****                 parity_errors = 16;
 992:D:/Work/DeviceTester/amazon-freertos/lib/third_party/mcu_vendor/renesas/rz_mcu_boards/core_package/generate/sc_drivers/r_scifa/src/lld\r_rza2_scifa_lld.c ****             }
 993:D:/Work/DeviceTester/amazon-freertos/lib/third_party/mcu_vendor/renesas/rz_mcu_boards/core_package/generate/sc_drivers/r_scifa/src/lld\r_rza2_scifa_lld.c **** 
 994:D:/Work/DeviceTester/amazon-freertos/lib/third_party/mcu_vendor/renesas/rz_mcu_boards/core_package/generate/sc_drivers/r_scifa/src/lld\r_rza2_scifa_lld.c ****             p_rx_err->cnt_parity += parity_errors;
 995:D:/Work/DeviceTester/amazon-freertos/lib/third_party/mcu_vendor/renesas/rz_mcu_boards/core_package/generate/sc_drivers/r_scifa/src/lld\r_rza2_scifa_lld.c ****         }
 996:D:/Work/DeviceTester/amazon-freertos/lib/third_party/mcu_vendor/renesas/rz_mcu_boards/core_package/generate/sc_drivers/r_scifa/src/lld\r_rza2_scifa_lld.c **** 
 997:D:/Work/DeviceTester/amazon-freertos/lib/third_party/mcu_vendor/renesas/rz_mcu_boards/core_package/generate/sc_drivers/r_scifa/src/lld\r_rza2_scifa_lld.c ****         /* clear the ER flag */
 998:D:/Work/DeviceTester/amazon-freertos/lib/third_party/mcu_vendor/renesas/rz_mcu_boards/core_package/generate/sc_drivers/r_scifa/src/lld\r_rza2_scifa_lld.c ****         RZA_IO_RegWrite_16((volatile uint16_t *) &gsp_scifa[channel]->FSR.WORD, 0, SCIFA_FSR_ER_SHI
 999:D:/Work/DeviceTester/amazon-freertos/lib/third_party/mcu_vendor/renesas/rz_mcu_boards/core_package/generate/sc_drivers/r_scifa/src/lld\r_rza2_scifa_lld.c ****     }
1000:D:/Work/DeviceTester/amazon-freertos/lib/third_party/mcu_vendor/renesas/rz_mcu_boards/core_package/generate/sc_drivers/r_scifa/src/lld\r_rza2_scifa_lld.c **** 
1001:D:/Work/DeviceTester/amazon-freertos/lib/third_party/mcu_vendor/renesas/rz_mcu_boards/core_package/generate/sc_drivers/r_scifa/src/lld\r_rza2_scifa_lld.c ****     /* Count break errors */
1002:D:/Work/DeviceTester/amazon-freertos/lib/third_party/mcu_vendor/renesas/rz_mcu_boards/core_package/generate/sc_drivers/r_scifa/src/lld\r_rza2_scifa_lld.c ****     if (1 == RZA_IO_RegRead_16((volatile uint16_t *) &gsp_scifa[channel]->FSR.WORD, SCIFA_FSR_BRK_S
1003:D:/Work/DeviceTester/amazon-freertos/lib/third_party/mcu_vendor/renesas/rz_mcu_boards/core_package/generate/sc_drivers/r_scifa/src/lld\r_rza2_scifa_lld.c ****     {
1004:D:/Work/DeviceTester/amazon-freertos/lib/third_party/mcu_vendor/renesas/rz_mcu_boards/core_package/generate/sc_drivers/r_scifa/src/lld\r_rza2_scifa_lld.c ****         p_rx_err->cnt_break++;
1005:D:/Work/DeviceTester/amazon-freertos/lib/third_party/mcu_vendor/renesas/rz_mcu_boards/core_package/generate/sc_drivers/r_scifa/src/lld\r_rza2_scifa_lld.c ****     }
1006:D:/Work/DeviceTester/amazon-freertos/lib/third_party/mcu_vendor/renesas/rz_mcu_boards/core_package/generate/sc_drivers/r_scifa/src/lld\r_rza2_scifa_lld.c **** 
1007:D:/Work/DeviceTester/amazon-freertos/lib/third_party/mcu_vendor/renesas/rz_mcu_boards/core_package/generate/sc_drivers/r_scifa/src/lld\r_rza2_scifa_lld.c ****     /* Count overrun errors */
1008:D:/Work/DeviceTester/amazon-freertos/lib/third_party/mcu_vendor/renesas/rz_mcu_boards/core_package/generate/sc_drivers/r_scifa/src/lld\r_rza2_scifa_lld.c ****     if (1 == RZA_IO_RegRead_16((volatile uint16_t *) &gsp_scifa[channel]->LSR.WORD, SCIFA_LSR_ORER_
1009:D:/Work/DeviceTester/amazon-freertos/lib/third_party/mcu_vendor/renesas/rz_mcu_boards/core_package/generate/sc_drivers/r_scifa/src/lld\r_rza2_scifa_lld.c ****     {
1010:D:/Work/DeviceTester/amazon-freertos/lib/third_party/mcu_vendor/renesas/rz_mcu_boards/core_package/generate/sc_drivers/r_scifa/src/lld\r_rza2_scifa_lld.c ****         p_rx_err->cnt_overrun++;
1011:D:/Work/DeviceTester/amazon-freertos/lib/third_party/mcu_vendor/renesas/rz_mcu_boards/core_package/generate/sc_drivers/r_scifa/src/lld\r_rza2_scifa_lld.c **** 
1012:D:/Work/DeviceTester/amazon-freertos/lib/third_party/mcu_vendor/renesas/rz_mcu_boards/core_package/generate/sc_drivers/r_scifa/src/lld\r_rza2_scifa_lld.c ****         /* clear the overrun flag */
1013:D:/Work/DeviceTester/amazon-freertos/lib/third_party/mcu_vendor/renesas/rz_mcu_boards/core_package/generate/sc_drivers/r_scifa/src/lld\r_rza2_scifa_lld.c ****         RZA_IO_RegWrite_16((volatile uint16_t *) &gsp_scifa[channel]->LSR.WORD, 0, SCIFA_LSR_ORER_S
1014:D:/Work/DeviceTester/amazon-freertos/lib/third_party/mcu_vendor/renesas/rz_mcu_boards/core_package/generate/sc_drivers/r_scifa/src/lld\r_rza2_scifa_lld.c ****     }
1015:D:/Work/DeviceTester/amazon-freertos/lib/third_party/mcu_vendor/renesas/rz_mcu_boards/core_package/generate/sc_drivers/r_scifa/src/lld\r_rza2_scifa_lld.c **** 
1016:D:/Work/DeviceTester/amazon-freertos/lib/third_party/mcu_vendor/renesas/rz_mcu_boards/core_package/generate/sc_drivers/r_scifa/src/lld\r_rza2_scifa_lld.c ****     /* Is data ready? */
1017:D:/Work/DeviceTester/amazon-freertos/lib/third_party/mcu_vendor/renesas/rz_mcu_boards/core_package/generate/sc_drivers/r_scifa/src/lld\r_rza2_scifa_lld.c ****     if (1 == RZA_IO_RegRead_16((volatile uint16_t *) &gsp_scifa[channel]->FSR.WORD, SCIFA_FSR_DR_SH
1018:D:/Work/DeviceTester/amazon-freertos/lib/third_party/mcu_vendor/renesas/rz_mcu_boards/core_package/generate/sc_drivers/r_scifa/src/lld\r_rza2_scifa_lld.c ****     {
1019:D:/Work/DeviceTester/amazon-freertos/lib/third_party/mcu_vendor/renesas/rz_mcu_boards/core_package/generate/sc_drivers/r_scifa/src/lld\r_rza2_scifa_lld.c ****         ret = DRV_ERROR;
1020:D:/Work/DeviceTester/amazon-freertos/lib/third_party/mcu_vendor/renesas/rz_mcu_boards/core_package/generate/sc_drivers/r_scifa/src/lld\r_rza2_scifa_lld.c ****     }
1021:D:/Work/DeviceTester/amazon-freertos/lib/third_party/mcu_vendor/renesas/rz_mcu_boards/core_package/generate/sc_drivers/r_scifa/src/lld\r_rza2_scifa_lld.c **** 
1022:D:/Work/DeviceTester/amazon-freertos/lib/third_party/mcu_vendor/renesas/rz_mcu_boards/core_package/generate/sc_drivers/r_scifa/src/lld\r_rza2_scifa_lld.c ****     return (ret);
1023:D:/Work/DeviceTester/amazon-freertos/lib/third_party/mcu_vendor/renesas/rz_mcu_boards/core_package/generate/sc_drivers/r_scifa/src/lld\r_rza2_scifa_lld.c **** }
1024:D:/Work/DeviceTester/amazon-freertos/lib/third_party/mcu_vendor/renesas/rz_mcu_boards/core_package/generate/sc_drivers/r_scifa/src/lld\r_rza2_scifa_lld.c **** /**************************************************************************************************
1025:D:/Work/DeviceTester/amazon-freertos/lib/third_party/mcu_vendor/renesas/rz_mcu_boards/core_package/generate/sc_drivers/r_scifa/src/lld\r_rza2_scifa_lld.c ****  * End of Function R_SCIFA_CheckRXIError
1026:D:/Work/DeviceTester/amazon-freertos/lib/third_party/mcu_vendor/renesas/rz_mcu_boards/core_package/generate/sc_drivers/r_scifa/src/lld\r_rza2_scifa_lld.c ****  **************************************************************************************************
1027:D:/Work/DeviceTester/amazon-freertos/lib/third_party/mcu_vendor/renesas/rz_mcu_boards/core_package/generate/sc_drivers/r_scifa/src/lld\r_rza2_scifa_lld.c **** 
1028:D:/Work/DeviceTester/amazon-freertos/lib/third_party/mcu_vendor/renesas/rz_mcu_boards/core_package/generate/sc_drivers/r_scifa/src/lld\r_rza2_scifa_lld.c **** /**
1029:D:/Work/DeviceTester/amazon-freertos/lib/third_party/mcu_vendor/renesas/rz_mcu_boards/core_package/generate/sc_drivers/r_scifa/src/lld\r_rza2_scifa_lld.c ****  * @brief R_SCIFA_GetRXIState Determines the current RXI state for a channel
1030:D:/Work/DeviceTester/amazon-freertos/lib/third_party/mcu_vendor/renesas/rz_mcu_boards/core_package/generate/sc_drivers/r_scifa/src/lld\r_rza2_scifa_lld.c ****  * This function will determine whether a channel has recently triggered
1031:D:/Work/DeviceTester/amazon-freertos/lib/third_party/mcu_vendor/renesas/rz_mcu_boards/core_package/generate/sc_drivers/r_scifa/src/lld\r_rza2_scifa_lld.c ****  * a RXI interrupt event
1032:D:/Work/DeviceTester/amazon-freertos/lib/third_party/mcu_vendor/renesas/rz_mcu_boards/core_package/generate/sc_drivers/r_scifa/src/lld\r_rza2_scifa_lld.c ****  *
1033:D:/Work/DeviceTester/amazon-freertos/lib/third_party/mcu_vendor/renesas/rz_mcu_boards/core_package/generate/sc_drivers/r_scifa/src/lld\r_rza2_scifa_lld.c ****  * @param[in] channel: channel to check RXI state for
1034:D:/Work/DeviceTester/amazon-freertos/lib/third_party/mcu_vendor/renesas/rz_mcu_boards/core_package/generate/sc_drivers/r_scifa/src/lld\r_rza2_scifa_lld.c ****  *
1035:D:/Work/DeviceTester/amazon-freertos/lib/third_party/mcu_vendor/renesas/rz_mcu_boards/core_package/generate/sc_drivers/r_scifa/src/lld\r_rza2_scifa_lld.c ****  * @retval  SCIFA_INTERRUPTING or SCIFA_NOT_INTERRUPTING
1036:D:/Work/DeviceTester/amazon-freertos/lib/third_party/mcu_vendor/renesas/rz_mcu_boards/core_package/generate/sc_drivers/r_scifa/src/lld\r_rza2_scifa_lld.c ****  * @retval -1 DRV_ERROR
1037:D:/Work/DeviceTester/amazon-freertos/lib/third_party/mcu_vendor/renesas/rz_mcu_boards/core_package/generate/sc_drivers/r_scifa/src/lld\r_rza2_scifa_lld.c ****  */
1038:D:/Work/DeviceTester/amazon-freertos/lib/third_party/mcu_vendor/renesas/rz_mcu_boards/core_package/generate/sc_drivers/r_scifa/src/lld\r_rza2_scifa_lld.c **** scifa_interrupting_state_t R_SCIFA_GetRXIState (r_channel_t channel)
1039:D:/Work/DeviceTester/amazon-freertos/lib/third_party/mcu_vendor/renesas/rz_mcu_boards/core_package/generate/sc_drivers/r_scifa/src/lld\r_rza2_scifa_lld.c **** {
1040:D:/Work/DeviceTester/amazon-freertos/lib/third_party/mcu_vendor/renesas/rz_mcu_boards/core_package/generate/sc_drivers/r_scifa/src/lld\r_rza2_scifa_lld.c ****     if ((channel > R_PRV_CFG_SCIF_LAST_CHANNEL) || (channel < 0))
1041:D:/Work/DeviceTester/amazon-freertos/lib/third_party/mcu_vendor/renesas/rz_mcu_boards/core_package/generate/sc_drivers/r_scifa/src/lld\r_rza2_scifa_lld.c ****     {
1042:D:/Work/DeviceTester/amazon-freertos/lib/third_party/mcu_vendor/renesas/rz_mcu_boards/core_package/generate/sc_drivers/r_scifa/src/lld\r_rza2_scifa_lld.c ****         return (DRV_ERROR);
1043:D:/Work/DeviceTester/amazon-freertos/lib/third_party/mcu_vendor/renesas/rz_mcu_boards/core_package/generate/sc_drivers/r_scifa/src/lld\r_rza2_scifa_lld.c ****     }
1044:D:/Work/DeviceTester/amazon-freertos/lib/third_party/mcu_vendor/renesas/rz_mcu_boards/core_package/generate/sc_drivers/r_scifa/src/lld\r_rza2_scifa_lld.c **** 
1045:D:/Work/DeviceTester/amazon-freertos/lib/third_party/mcu_vendor/renesas/rz_mcu_boards/core_package/generate/sc_drivers/r_scifa/src/lld\r_rza2_scifa_lld.c ****     uint16_t rx_interrupt_state;              // RDF
1046:D:/Work/DeviceTester/amazon-freertos/lib/third_party/mcu_vendor/renesas/rz_mcu_boards/core_package/generate/sc_drivers/r_scifa/src/lld\r_rza2_scifa_lld.c ****     uint16_t rx_enable_state;                 // RE
1047:D:/Work/DeviceTester/amazon-freertos/lib/third_party/mcu_vendor/renesas/rz_mcu_boards/core_package/generate/sc_drivers/r_scifa/src/lld\r_rza2_scifa_lld.c ****     uint16_t rx_interrupt_enable_state;       // RIE
1048:D:/Work/DeviceTester/amazon-freertos/lib/third_party/mcu_vendor/renesas/rz_mcu_boards/core_package/generate/sc_drivers/r_scifa/src/lld\r_rza2_scifa_lld.c **** 
1049:D:/Work/DeviceTester/amazon-freertos/lib/third_party/mcu_vendor/renesas/rz_mcu_boards/core_package/generate/sc_drivers/r_scifa/src/lld\r_rza2_scifa_lld.c ****     /* Get FIFO full status */
1050:D:/Work/DeviceTester/amazon-freertos/lib/third_party/mcu_vendor/renesas/rz_mcu_boards/core_package/generate/sc_drivers/r_scifa/src/lld\r_rza2_scifa_lld.c ****     rx_interrupt_state = RZA_IO_RegRead_16((volatile uint16_t *) &gsp_scifa[channel]->FSR.WORD, SCI
1051:D:/Work/DeviceTester/amazon-freertos/lib/third_party/mcu_vendor/renesas/rz_mcu_boards/core_package/generate/sc_drivers/r_scifa/src/lld\r_rza2_scifa_lld.c **** 
1052:D:/Work/DeviceTester/amazon-freertos/lib/third_party/mcu_vendor/renesas/rz_mcu_boards/core_package/generate/sc_drivers/r_scifa/src/lld\r_rza2_scifa_lld.c ****     /* Get receive enable status */
1053:D:/Work/DeviceTester/amazon-freertos/lib/third_party/mcu_vendor/renesas/rz_mcu_boards/core_package/generate/sc_drivers/r_scifa/src/lld\r_rza2_scifa_lld.c ****     rx_enable_state = RZA_IO_RegRead_16((volatile uint16_t *) &gsp_scifa[channel]->SCR.WORD, SCIFA_
1054:D:/Work/DeviceTester/amazon-freertos/lib/third_party/mcu_vendor/renesas/rz_mcu_boards/core_package/generate/sc_drivers/r_scifa/src/lld\r_rza2_scifa_lld.c **** 
1055:D:/Work/DeviceTester/amazon-freertos/lib/third_party/mcu_vendor/renesas/rz_mcu_boards/core_package/generate/sc_drivers/r_scifa/src/lld\r_rza2_scifa_lld.c ****     /* Get interrupt enable status */
1056:D:/Work/DeviceTester/amazon-freertos/lib/third_party/mcu_vendor/renesas/rz_mcu_boards/core_package/generate/sc_drivers/r_scifa/src/lld\r_rza2_scifa_lld.c ****     rx_interrupt_enable_state = RZA_IO_RegRead_16((volatile uint16_t *) &gsp_scifa[channel]->SCR.WO
1057:D:/Work/DeviceTester/amazon-freertos/lib/third_party/mcu_vendor/renesas/rz_mcu_boards/core_package/generate/sc_drivers/r_scifa/src/lld\r_rza2_scifa_lld.c **** 
1058:D:/Work/DeviceTester/amazon-freertos/lib/third_party/mcu_vendor/renesas/rz_mcu_boards/core_package/generate/sc_drivers/r_scifa/src/lld\r_rza2_scifa_lld.c ****     return ((rx_interrupt_state && rx_enable_state && rx_interrupt_enable_state) ? SCIFA_INTERRUPTI
1059:D:/Work/DeviceTester/amazon-freertos/lib/third_party/mcu_vendor/renesas/rz_mcu_boards/core_package/generate/sc_drivers/r_scifa/src/lld\r_rza2_scifa_lld.c **** }
1060:D:/Work/DeviceTester/amazon-freertos/lib/third_party/mcu_vendor/renesas/rz_mcu_boards/core_package/generate/sc_drivers/r_scifa/src/lld\r_rza2_scifa_lld.c **** /**************************************************************************************************
1061:D:/Work/DeviceTester/amazon-freertos/lib/third_party/mcu_vendor/renesas/rz_mcu_boards/core_package/generate/sc_drivers/r_scifa/src/lld\r_rza2_scifa_lld.c ****  * End of Function R_SCIFA_GetRXIState
1062:D:/Work/DeviceTester/amazon-freertos/lib/third_party/mcu_vendor/renesas/rz_mcu_boards/core_package/generate/sc_drivers/r_scifa/src/lld\r_rza2_scifa_lld.c ****  **************************************************************************************************
1063:D:/Work/DeviceTester/amazon-freertos/lib/third_party/mcu_vendor/renesas/rz_mcu_boards/core_package/generate/sc_drivers/r_scifa/src/lld\r_rza2_scifa_lld.c **** 
1064:D:/Work/DeviceTester/amazon-freertos/lib/third_party/mcu_vendor/renesas/rz_mcu_boards/core_package/generate/sc_drivers/r_scifa/src/lld\r_rza2_scifa_lld.c **** /**
1065:D:/Work/DeviceTester/amazon-freertos/lib/third_party/mcu_vendor/renesas/rz_mcu_boards/core_package/generate/sc_drivers/r_scifa/src/lld\r_rza2_scifa_lld.c ****  * @brief R_SCIFA_ClearRXIFlags removes RXI flags on a channel
1066:D:/Work/DeviceTester/amazon-freertos/lib/third_party/mcu_vendor/renesas/rz_mcu_boards/core_package/generate/sc_drivers/r_scifa/src/lld\r_rza2_scifa_lld.c ****  * This function is called at the end of an RXI handler routine
1067:D:/Work/DeviceTester/amazon-freertos/lib/third_party/mcu_vendor/renesas/rz_mcu_boards/core_package/generate/sc_drivers/r_scifa/src/lld\r_rza2_scifa_lld.c ****  * it will clear necessary RXI flag to mark RXI as handled
1068:D:/Work/DeviceTester/amazon-freertos/lib/third_party/mcu_vendor/renesas/rz_mcu_boards/core_package/generate/sc_drivers/r_scifa/src/lld\r_rza2_scifa_lld.c ****  *
1069:D:/Work/DeviceTester/amazon-freertos/lib/third_party/mcu_vendor/renesas/rz_mcu_boards/core_package/generate/sc_drivers/r_scifa/src/lld\r_rza2_scifa_lld.c ****  * @param[in] channel: channel to clear RXI flags for
1070:D:/Work/DeviceTester/amazon-freertos/lib/third_party/mcu_vendor/renesas/rz_mcu_boards/core_package/generate/sc_drivers/r_scifa/src/lld\r_rza2_scifa_lld.c ****  *
1071:D:/Work/DeviceTester/amazon-freertos/lib/third_party/mcu_vendor/renesas/rz_mcu_boards/core_package/generate/sc_drivers/r_scifa/src/lld\r_rza2_scifa_lld.c ****  * @retval  0  DRV_SUCCESS
1072:D:/Work/DeviceTester/amazon-freertos/lib/third_party/mcu_vendor/renesas/rz_mcu_boards/core_package/generate/sc_drivers/r_scifa/src/lld\r_rza2_scifa_lld.c ****  * @retval -1 DRV_ERROR
1073:D:/Work/DeviceTester/amazon-freertos/lib/third_party/mcu_vendor/renesas/rz_mcu_boards/core_package/generate/sc_drivers/r_scifa/src/lld\r_rza2_scifa_lld.c ****  */
1074:D:/Work/DeviceTester/amazon-freertos/lib/third_party/mcu_vendor/renesas/rz_mcu_boards/core_package/generate/sc_drivers/r_scifa/src/lld\r_rza2_scifa_lld.c **** int_t R_SCIFA_ClearRXIFlags (r_channel_t channel)
1075:D:/Work/DeviceTester/amazon-freertos/lib/third_party/mcu_vendor/renesas/rz_mcu_boards/core_package/generate/sc_drivers/r_scifa/src/lld\r_rza2_scifa_lld.c **** {
1076:D:/Work/DeviceTester/amazon-freertos/lib/third_party/mcu_vendor/renesas/rz_mcu_boards/core_package/generate/sc_drivers/r_scifa/src/lld\r_rza2_scifa_lld.c ****     uint16_t dummy;
1077:D:/Work/DeviceTester/amazon-freertos/lib/third_party/mcu_vendor/renesas/rz_mcu_boards/core_package/generate/sc_drivers/r_scifa/src/lld\r_rza2_scifa_lld.c **** 
1078:D:/Work/DeviceTester/amazon-freertos/lib/third_party/mcu_vendor/renesas/rz_mcu_boards/core_package/generate/sc_drivers/r_scifa/src/lld\r_rza2_scifa_lld.c ****     if ((channel > R_PRV_CFG_SCIF_LAST_CHANNEL) || (channel < 0))
1079:D:/Work/DeviceTester/amazon-freertos/lib/third_party/mcu_vendor/renesas/rz_mcu_boards/core_package/generate/sc_drivers/r_scifa/src/lld\r_rza2_scifa_lld.c ****     {
1080:D:/Work/DeviceTester/amazon-freertos/lib/third_party/mcu_vendor/renesas/rz_mcu_boards/core_package/generate/sc_drivers/r_scifa/src/lld\r_rza2_scifa_lld.c ****         return (DRV_ERROR);
1081:D:/Work/DeviceTester/amazon-freertos/lib/third_party/mcu_vendor/renesas/rz_mcu_boards/core_package/generate/sc_drivers/r_scifa/src/lld\r_rza2_scifa_lld.c ****     }
1082:D:/Work/DeviceTester/amazon-freertos/lib/third_party/mcu_vendor/renesas/rz_mcu_boards/core_package/generate/sc_drivers/r_scifa/src/lld\r_rza2_scifa_lld.c **** 
1083:D:/Work/DeviceTester/amazon-freertos/lib/third_party/mcu_vendor/renesas/rz_mcu_boards/core_package/generate/sc_drivers/r_scifa/src/lld\r_rza2_scifa_lld.c ****     /* Clear receive data ready */
1084:D:/Work/DeviceTester/amazon-freertos/lib/third_party/mcu_vendor/renesas/rz_mcu_boards/core_package/generate/sc_drivers/r_scifa/src/lld\r_rza2_scifa_lld.c ****     dummy = RZA_IO_RegRead_16((volatile uint16_t *) &gsp_scifa[channel]->FSR.WORD, SCIFA_FSR_DR_SHI
1085:D:/Work/DeviceTester/amazon-freertos/lib/third_party/mcu_vendor/renesas/rz_mcu_boards/core_package/generate/sc_drivers/r_scifa/src/lld\r_rza2_scifa_lld.c **** 
1086:D:/Work/DeviceTester/amazon-freertos/lib/third_party/mcu_vendor/renesas/rz_mcu_boards/core_package/generate/sc_drivers/r_scifa/src/lld\r_rza2_scifa_lld.c **** 
1087:D:/Work/DeviceTester/amazon-freertos/lib/third_party/mcu_vendor/renesas/rz_mcu_boards/core_package/generate/sc_drivers/r_scifa/src/lld\r_rza2_scifa_lld.c ****     if (1 == dummy)
1088:D:/Work/DeviceTester/amazon-freertos/lib/third_party/mcu_vendor/renesas/rz_mcu_boards/core_package/generate/sc_drivers/r_scifa/src/lld\r_rza2_scifa_lld.c ****     {
1089:D:/Work/DeviceTester/amazon-freertos/lib/third_party/mcu_vendor/renesas/rz_mcu_boards/core_package/generate/sc_drivers/r_scifa/src/lld\r_rza2_scifa_lld.c ****         /* Clear DR only if 1 read */
1090:D:/Work/DeviceTester/amazon-freertos/lib/third_party/mcu_vendor/renesas/rz_mcu_boards/core_package/generate/sc_drivers/r_scifa/src/lld\r_rza2_scifa_lld.c ****         RZA_IO_RegWrite_16((volatile uint16_t *) &gsp_scifa[channel]->FSR.WORD, 0, SCIFA_FSR_DR_SHI
1091:D:/Work/DeviceTester/amazon-freertos/lib/third_party/mcu_vendor/renesas/rz_mcu_boards/core_package/generate/sc_drivers/r_scifa/src/lld\r_rza2_scifa_lld.c ****     }
1092:D:/Work/DeviceTester/amazon-freertos/lib/third_party/mcu_vendor/renesas/rz_mcu_boards/core_package/generate/sc_drivers/r_scifa/src/lld\r_rza2_scifa_lld.c **** 
1093:D:/Work/DeviceTester/amazon-freertos/lib/third_party/mcu_vendor/renesas/rz_mcu_boards/core_package/generate/sc_drivers/r_scifa/src/lld\r_rza2_scifa_lld.c ****     return (DRV_SUCCESS);
1094:D:/Work/DeviceTester/amazon-freertos/lib/third_party/mcu_vendor/renesas/rz_mcu_boards/core_package/generate/sc_drivers/r_scifa/src/lld\r_rza2_scifa_lld.c **** }
1095:D:/Work/DeviceTester/amazon-freertos/lib/third_party/mcu_vendor/renesas/rz_mcu_boards/core_package/generate/sc_drivers/r_scifa/src/lld\r_rza2_scifa_lld.c **** /**************************************************************************************************
1096:D:/Work/DeviceTester/amazon-freertos/lib/third_party/mcu_vendor/renesas/rz_mcu_boards/core_package/generate/sc_drivers/r_scifa/src/lld\r_rza2_scifa_lld.c ****  * End of Function R_SCIFA_ClearRXIFlags
1097:D:/Work/DeviceTester/amazon-freertos/lib/third_party/mcu_vendor/renesas/rz_mcu_boards/core_package/generate/sc_drivers/r_scifa/src/lld\r_rza2_scifa_lld.c ****  **************************************************************************************************
1098:D:/Work/DeviceTester/amazon-freertos/lib/third_party/mcu_vendor/renesas/rz_mcu_boards/core_package/generate/sc_drivers/r_scifa/src/lld\r_rza2_scifa_lld.c **** 
1099:D:/Work/DeviceTester/amazon-freertos/lib/third_party/mcu_vendor/renesas/rz_mcu_boards/core_package/generate/sc_drivers/r_scifa/src/lld\r_rza2_scifa_lld.c **** /**
1100:D:/Work/DeviceTester/amazon-freertos/lib/third_party/mcu_vendor/renesas/rz_mcu_boards/core_package/generate/sc_drivers/r_scifa/src/lld\r_rza2_scifa_lld.c ****  * @brief R_SCIFA_IsRxFifoEmpty checks if the RX FIFO is empty
1101:D:/Work/DeviceTester/amazon-freertos/lib/third_party/mcu_vendor/renesas/rz_mcu_boards/core_package/generate/sc_drivers/r_scifa/src/lld\r_rza2_scifa_lld.c ****  * This function checks the current amount of bytes in the RX FIFO
1102:D:/Work/DeviceTester/amazon-freertos/lib/third_party/mcu_vendor/renesas/rz_mcu_boards/core_package/generate/sc_drivers/r_scifa/src/lld\r_rza2_scifa_lld.c ****  * it will then return false if data is in the FIFO, or true if it's empty
1103:D:/Work/DeviceTester/amazon-freertos/lib/third_party/mcu_vendor/renesas/rz_mcu_boards/core_package/generate/sc_drivers/r_scifa/src/lld\r_rza2_scifa_lld.c ****  *
1104:D:/Work/DeviceTester/amazon-freertos/lib/third_party/mcu_vendor/renesas/rz_mcu_boards/core_package/generate/sc_drivers/r_scifa/src/lld\r_rza2_scifa_lld.c ****  * @param[in] channel: channel to check FIFO
1105:D:/Work/DeviceTester/amazon-freertos/lib/third_party/mcu_vendor/renesas/rz_mcu_boards/core_package/generate/sc_drivers/r_scifa/src/lld\r_rza2_scifa_lld.c ****  * @param[out] p_fifo_empty: false if data in the FIFO, true if it's empty
1106:D:/Work/DeviceTester/amazon-freertos/lib/third_party/mcu_vendor/renesas/rz_mcu_boards/core_package/generate/sc_drivers/r_scifa/src/lld\r_rza2_scifa_lld.c ****  *
1107:D:/Work/DeviceTester/amazon-freertos/lib/third_party/mcu_vendor/renesas/rz_mcu_boards/core_package/generate/sc_drivers/r_scifa/src/lld\r_rza2_scifa_lld.c ****  * @retval  0 DRV_SUCCESS
1108:D:/Work/DeviceTester/amazon-freertos/lib/third_party/mcu_vendor/renesas/rz_mcu_boards/core_package/generate/sc_drivers/r_scifa/src/lld\r_rza2_scifa_lld.c ****  * @retval -1 DRV_ERROR
1109:D:/Work/DeviceTester/amazon-freertos/lib/third_party/mcu_vendor/renesas/rz_mcu_boards/core_package/generate/sc_drivers/r_scifa/src/lld\r_rza2_scifa_lld.c ****  */
1110:D:/Work/DeviceTester/amazon-freertos/lib/third_party/mcu_vendor/renesas/rz_mcu_boards/core_package/generate/sc_drivers/r_scifa/src/lld\r_rza2_scifa_lld.c **** int_t R_SCIFA_IsRxFifoEmpty(r_channel_t channel, bool_t *p_fifo_empty)
1111:D:/Work/DeviceTester/amazon-freertos/lib/third_party/mcu_vendor/renesas/rz_mcu_boards/core_package/generate/sc_drivers/r_scifa/src/lld\r_rza2_scifa_lld.c **** {
1112:D:/Work/DeviceTester/amazon-freertos/lib/third_party/mcu_vendor/renesas/rz_mcu_boards/core_package/generate/sc_drivers/r_scifa/src/lld\r_rza2_scifa_lld.c ****     uint16_t fifo_bytes;
1113:D:/Work/DeviceTester/amazon-freertos/lib/third_party/mcu_vendor/renesas/rz_mcu_boards/core_package/generate/sc_drivers/r_scifa/src/lld\r_rza2_scifa_lld.c **** 
1114:D:/Work/DeviceTester/amazon-freertos/lib/third_party/mcu_vendor/renesas/rz_mcu_boards/core_package/generate/sc_drivers/r_scifa/src/lld\r_rza2_scifa_lld.c ****     if ((channel > R_PRV_CFG_SCIF_LAST_CHANNEL) || (channel < 0))
1115:D:/Work/DeviceTester/amazon-freertos/lib/third_party/mcu_vendor/renesas/rz_mcu_boards/core_package/generate/sc_drivers/r_scifa/src/lld\r_rza2_scifa_lld.c ****     {
1116:D:/Work/DeviceTester/amazon-freertos/lib/third_party/mcu_vendor/renesas/rz_mcu_boards/core_package/generate/sc_drivers/r_scifa/src/lld\r_rza2_scifa_lld.c ****         return (DRV_ERROR);
1117:D:/Work/DeviceTester/amazon-freertos/lib/third_party/mcu_vendor/renesas/rz_mcu_boards/core_package/generate/sc_drivers/r_scifa/src/lld\r_rza2_scifa_lld.c ****     }
1118:D:/Work/DeviceTester/amazon-freertos/lib/third_party/mcu_vendor/renesas/rz_mcu_boards/core_package/generate/sc_drivers/r_scifa/src/lld\r_rza2_scifa_lld.c **** 
1119:D:/Work/DeviceTester/amazon-freertos/lib/third_party/mcu_vendor/renesas/rz_mcu_boards/core_package/generate/sc_drivers/r_scifa/src/lld\r_rza2_scifa_lld.c ****     /* get the number of bytes in the FIFO */
1120:D:/Work/DeviceTester/amazon-freertos/lib/third_party/mcu_vendor/renesas/rz_mcu_boards/core_package/generate/sc_drivers/r_scifa/src/lld\r_rza2_scifa_lld.c ****     fifo_bytes = RZA_IO_RegRead_16((volatile uint16_t *) &gsp_scifa[channel]->FDR.WORD, SCIFA_FDR_R
1121:D:/Work/DeviceTester/amazon-freertos/lib/third_party/mcu_vendor/renesas/rz_mcu_boards/core_package/generate/sc_drivers/r_scifa/src/lld\r_rza2_scifa_lld.c **** 
1122:D:/Work/DeviceTester/amazon-freertos/lib/third_party/mcu_vendor/renesas/rz_mcu_boards/core_package/generate/sc_drivers/r_scifa/src/lld\r_rza2_scifa_lld.c ****     if (R_PRV_RX_FIFO_EMPTY == fifo_bytes)
1123:D:/Work/DeviceTester/amazon-freertos/lib/third_party/mcu_vendor/renesas/rz_mcu_boards/core_package/generate/sc_drivers/r_scifa/src/lld\r_rza2_scifa_lld.c ****     {
1124:D:/Work/DeviceTester/amazon-freertos/lib/third_party/mcu_vendor/renesas/rz_mcu_boards/core_package/generate/sc_drivers/r_scifa/src/lld\r_rza2_scifa_lld.c ****         *p_fifo_empty = true;
1125:D:/Work/DeviceTester/amazon-freertos/lib/third_party/mcu_vendor/renesas/rz_mcu_boards/core_package/generate/sc_drivers/r_scifa/src/lld\r_rza2_scifa_lld.c ****     }
1126:D:/Work/DeviceTester/amazon-freertos/lib/third_party/mcu_vendor/renesas/rz_mcu_boards/core_package/generate/sc_drivers/r_scifa/src/lld\r_rza2_scifa_lld.c ****     else
1127:D:/Work/DeviceTester/amazon-freertos/lib/third_party/mcu_vendor/renesas/rz_mcu_boards/core_package/generate/sc_drivers/r_scifa/src/lld\r_rza2_scifa_lld.c ****     {
1128:D:/Work/DeviceTester/amazon-freertos/lib/third_party/mcu_vendor/renesas/rz_mcu_boards/core_package/generate/sc_drivers/r_scifa/src/lld\r_rza2_scifa_lld.c ****         *p_fifo_empty = false;
1129:D:/Work/DeviceTester/amazon-freertos/lib/third_party/mcu_vendor/renesas/rz_mcu_boards/core_package/generate/sc_drivers/r_scifa/src/lld\r_rza2_scifa_lld.c ****     }
1130:D:/Work/DeviceTester/amazon-freertos/lib/third_party/mcu_vendor/renesas/rz_mcu_boards/core_package/generate/sc_drivers/r_scifa/src/lld\r_rza2_scifa_lld.c **** 
1131:D:/Work/DeviceTester/amazon-freertos/lib/third_party/mcu_vendor/renesas/rz_mcu_boards/core_package/generate/sc_drivers/r_scifa/src/lld\r_rza2_scifa_lld.c ****     return (DRV_SUCCESS);
1132:D:/Work/DeviceTester/amazon-freertos/lib/third_party/mcu_vendor/renesas/rz_mcu_boards/core_package/generate/sc_drivers/r_scifa/src/lld\r_rza2_scifa_lld.c **** }
1133:D:/Work/DeviceTester/amazon-freertos/lib/third_party/mcu_vendor/renesas/rz_mcu_boards/core_package/generate/sc_drivers/r_scifa/src/lld\r_rza2_scifa_lld.c **** /**************************************************************************************************
1134:D:/Work/DeviceTester/amazon-freertos/lib/third_party/mcu_vendor/renesas/rz_mcu_boards/core_package/generate/sc_drivers/r_scifa/src/lld\r_rza2_scifa_lld.c ****  * End of Function R_SCIFA_IsRxFifoEmpty
1135:D:/Work/DeviceTester/amazon-freertos/lib/third_party/mcu_vendor/renesas/rz_mcu_boards/core_package/generate/sc_drivers/r_scifa/src/lld\r_rza2_scifa_lld.c ****  **************************************************************************************************
1136:D:/Work/DeviceTester/amazon-freertos/lib/third_party/mcu_vendor/renesas/rz_mcu_boards/core_package/generate/sc_drivers/r_scifa/src/lld\r_rza2_scifa_lld.c **** 
1137:D:/Work/DeviceTester/amazon-freertos/lib/third_party/mcu_vendor/renesas/rz_mcu_boards/core_package/generate/sc_drivers/r_scifa/src/lld\r_rza2_scifa_lld.c **** /**
1138:D:/Work/DeviceTester/amazon-freertos/lib/third_party/mcu_vendor/renesas/rz_mcu_boards/core_package/generate/sc_drivers/r_scifa/src/lld\r_rza2_scifa_lld.c ****  * @brief R_SCIFA_StopTXI stops TXI for a given channel
1139:D:/Work/DeviceTester/amazon-freertos/lib/third_party/mcu_vendor/renesas/rz_mcu_boards/core_package/generate/sc_drivers/r_scifa/src/lld\r_rza2_scifa_lld.c ****  *
1140:D:/Work/DeviceTester/amazon-freertos/lib/third_party/mcu_vendor/renesas/rz_mcu_boards/core_package/generate/sc_drivers/r_scifa/src/lld\r_rza2_scifa_lld.c ****  * @param[in] channel: channel to disable TXI for
1141:D:/Work/DeviceTester/amazon-freertos/lib/third_party/mcu_vendor/renesas/rz_mcu_boards/core_package/generate/sc_drivers/r_scifa/src/lld\r_rza2_scifa_lld.c ****  *
1142:D:/Work/DeviceTester/amazon-freertos/lib/third_party/mcu_vendor/renesas/rz_mcu_boards/core_package/generate/sc_drivers/r_scifa/src/lld\r_rza2_scifa_lld.c ****  * @retval  0 DRV_SUCCESS
1143:D:/Work/DeviceTester/amazon-freertos/lib/third_party/mcu_vendor/renesas/rz_mcu_boards/core_package/generate/sc_drivers/r_scifa/src/lld\r_rza2_scifa_lld.c ****  * @retval -1 DRV_ERROR
1144:D:/Work/DeviceTester/amazon-freertos/lib/third_party/mcu_vendor/renesas/rz_mcu_boards/core_package/generate/sc_drivers/r_scifa/src/lld\r_rza2_scifa_lld.c ****  */
1145:D:/Work/DeviceTester/amazon-freertos/lib/third_party/mcu_vendor/renesas/rz_mcu_boards/core_package/generate/sc_drivers/r_scifa/src/lld\r_rza2_scifa_lld.c **** int_t R_SCIFA_StopTXI (r_channel_t channel)
1146:D:/Work/DeviceTester/amazon-freertos/lib/third_party/mcu_vendor/renesas/rz_mcu_boards/core_package/generate/sc_drivers/r_scifa/src/lld\r_rza2_scifa_lld.c **** {
1147:D:/Work/DeviceTester/amazon-freertos/lib/third_party/mcu_vendor/renesas/rz_mcu_boards/core_package/generate/sc_drivers/r_scifa/src/lld\r_rza2_scifa_lld.c ****     if ((channel > R_PRV_CFG_SCIF_LAST_CHANNEL) || (channel < 0))
1148:D:/Work/DeviceTester/amazon-freertos/lib/third_party/mcu_vendor/renesas/rz_mcu_boards/core_package/generate/sc_drivers/r_scifa/src/lld\r_rza2_scifa_lld.c ****     {
1149:D:/Work/DeviceTester/amazon-freertos/lib/third_party/mcu_vendor/renesas/rz_mcu_boards/core_package/generate/sc_drivers/r_scifa/src/lld\r_rza2_scifa_lld.c ****         return (DRV_ERROR);
1150:D:/Work/DeviceTester/amazon-freertos/lib/third_party/mcu_vendor/renesas/rz_mcu_boards/core_package/generate/sc_drivers/r_scifa/src/lld\r_rza2_scifa_lld.c ****     }
1151:D:/Work/DeviceTester/amazon-freertos/lib/third_party/mcu_vendor/renesas/rz_mcu_boards/core_package/generate/sc_drivers/r_scifa/src/lld\r_rza2_scifa_lld.c **** 
1152:D:/Work/DeviceTester/amazon-freertos/lib/third_party/mcu_vendor/renesas/rz_mcu_boards/core_package/generate/sc_drivers/r_scifa/src/lld\r_rza2_scifa_lld.c ****     /* disable transmit interrupt enable */
1153:D:/Work/DeviceTester/amazon-freertos/lib/third_party/mcu_vendor/renesas/rz_mcu_boards/core_package/generate/sc_drivers/r_scifa/src/lld\r_rza2_scifa_lld.c ****     RZA_IO_RegWrite_16((volatile uint16_t *) &gsp_scifa[channel]->SCR.WORD, 0, SCIFA_SCR_TIE_SHIFT,
1154:D:/Work/DeviceTester/amazon-freertos/lib/third_party/mcu_vendor/renesas/rz_mcu_boards/core_package/generate/sc_drivers/r_scifa/src/lld\r_rza2_scifa_lld.c **** 
1155:D:/Work/DeviceTester/amazon-freertos/lib/third_party/mcu_vendor/renesas/rz_mcu_boards/core_package/generate/sc_drivers/r_scifa/src/lld\r_rza2_scifa_lld.c ****     /* disable transmit end interrupt enable */
1156:D:/Work/DeviceTester/amazon-freertos/lib/third_party/mcu_vendor/renesas/rz_mcu_boards/core_package/generate/sc_drivers/r_scifa/src/lld\r_rza2_scifa_lld.c ****     RZA_IO_RegWrite_16((volatile uint16_t *) &gsp_scifa[channel]->SCR.WORD, 0, SCIFA_SCR_TEIE_SHIFT
1157:D:/Work/DeviceTester/amazon-freertos/lib/third_party/mcu_vendor/renesas/rz_mcu_boards/core_package/generate/sc_drivers/r_scifa/src/lld\r_rza2_scifa_lld.c **** 
1158:D:/Work/DeviceTester/amazon-freertos/lib/third_party/mcu_vendor/renesas/rz_mcu_boards/core_package/generate/sc_drivers/r_scifa/src/lld\r_rza2_scifa_lld.c ****     return (DRV_SUCCESS);
1159:D:/Work/DeviceTester/amazon-freertos/lib/third_party/mcu_vendor/renesas/rz_mcu_boards/core_package/generate/sc_drivers/r_scifa/src/lld\r_rza2_scifa_lld.c **** }
1160:D:/Work/DeviceTester/amazon-freertos/lib/third_party/mcu_vendor/renesas/rz_mcu_boards/core_package/generate/sc_drivers/r_scifa/src/lld\r_rza2_scifa_lld.c **** /**************************************************************************************************
1161:D:/Work/DeviceTester/amazon-freertos/lib/third_party/mcu_vendor/renesas/rz_mcu_boards/core_package/generate/sc_drivers/r_scifa/src/lld\r_rza2_scifa_lld.c ****  * End of Function R_SCIFA_StopTXI
1162:D:/Work/DeviceTester/amazon-freertos/lib/third_party/mcu_vendor/renesas/rz_mcu_boards/core_package/generate/sc_drivers/r_scifa/src/lld\r_rza2_scifa_lld.c ****  **************************************************************************************************
1163:D:/Work/DeviceTester/amazon-freertos/lib/third_party/mcu_vendor/renesas/rz_mcu_boards/core_package/generate/sc_drivers/r_scifa/src/lld\r_rza2_scifa_lld.c **** 
1164:D:/Work/DeviceTester/amazon-freertos/lib/third_party/mcu_vendor/renesas/rz_mcu_boards/core_package/generate/sc_drivers/r_scifa/src/lld\r_rza2_scifa_lld.c **** /**
1165:D:/Work/DeviceTester/amazon-freertos/lib/third_party/mcu_vendor/renesas/rz_mcu_boards/core_package/generate/sc_drivers/r_scifa/src/lld\r_rza2_scifa_lld.c ****  * @brief R_SCIFA_StartRX enable receive and receive interrupts
1166:D:/Work/DeviceTester/amazon-freertos/lib/third_party/mcu_vendor/renesas/rz_mcu_boards/core_package/generate/sc_drivers/r_scifa/src/lld\r_rza2_scifa_lld.c ****  *
1167:D:/Work/DeviceTester/amazon-freertos/lib/third_party/mcu_vendor/renesas/rz_mcu_boards/core_package/generate/sc_drivers/r_scifa/src/lld\r_rza2_scifa_lld.c ****  * @param[in] channel to start receive
1168:D:/Work/DeviceTester/amazon-freertos/lib/third_party/mcu_vendor/renesas/rz_mcu_boards/core_package/generate/sc_drivers/r_scifa/src/lld\r_rza2_scifa_lld.c ****  *
1169:D:/Work/DeviceTester/amazon-freertos/lib/third_party/mcu_vendor/renesas/rz_mcu_boards/core_package/generate/sc_drivers/r_scifa/src/lld\r_rza2_scifa_lld.c ****  * @retval  0 DRV_SUCCESS
1170:D:/Work/DeviceTester/amazon-freertos/lib/third_party/mcu_vendor/renesas/rz_mcu_boards/core_package/generate/sc_drivers/r_scifa/src/lld\r_rza2_scifa_lld.c ****  * @retval -1 DRV_ERROR
1171:D:/Work/DeviceTester/amazon-freertos/lib/third_party/mcu_vendor/renesas/rz_mcu_boards/core_package/generate/sc_drivers/r_scifa/src/lld\r_rza2_scifa_lld.c ****  */
1172:D:/Work/DeviceTester/amazon-freertos/lib/third_party/mcu_vendor/renesas/rz_mcu_boards/core_package/generate/sc_drivers/r_scifa/src/lld\r_rza2_scifa_lld.c **** int_t R_SCIFA_StartRX (r_channel_t channel)
1173:D:/Work/DeviceTester/amazon-freertos/lib/third_party/mcu_vendor/renesas/rz_mcu_boards/core_package/generate/sc_drivers/r_scifa/src/lld\r_rza2_scifa_lld.c **** {
1174:D:/Work/DeviceTester/amazon-freertos/lib/third_party/mcu_vendor/renesas/rz_mcu_boards/core_package/generate/sc_drivers/r_scifa/src/lld\r_rza2_scifa_lld.c ****     if ((channel > R_PRV_CFG_SCIF_LAST_CHANNEL) || (channel < 0))
1175:D:/Work/DeviceTester/amazon-freertos/lib/third_party/mcu_vendor/renesas/rz_mcu_boards/core_package/generate/sc_drivers/r_scifa/src/lld\r_rza2_scifa_lld.c ****     {
1176:D:/Work/DeviceTester/amazon-freertos/lib/third_party/mcu_vendor/renesas/rz_mcu_boards/core_package/generate/sc_drivers/r_scifa/src/lld\r_rza2_scifa_lld.c ****         return (DRV_ERROR);
1177:D:/Work/DeviceTester/amazon-freertos/lib/third_party/mcu_vendor/renesas/rz_mcu_boards/core_package/generate/sc_drivers/r_scifa/src/lld\r_rza2_scifa_lld.c ****     }
1178:D:/Work/DeviceTester/amazon-freertos/lib/third_party/mcu_vendor/renesas/rz_mcu_boards/core_package/generate/sc_drivers/r_scifa/src/lld\r_rza2_scifa_lld.c **** 
1179:D:/Work/DeviceTester/amazon-freertos/lib/third_party/mcu_vendor/renesas/rz_mcu_boards/core_package/generate/sc_drivers/r_scifa/src/lld\r_rza2_scifa_lld.c ****     /* receive enable */
1180:D:/Work/DeviceTester/amazon-freertos/lib/third_party/mcu_vendor/renesas/rz_mcu_boards/core_package/generate/sc_drivers/r_scifa/src/lld\r_rza2_scifa_lld.c ****     RZA_IO_RegWrite_16((volatile uint16_t *) &gsp_scifa[channel]->SCR.WORD, 1, SCIFA_SCR_RE_SHIFT, 
1181:D:/Work/DeviceTester/amazon-freertos/lib/third_party/mcu_vendor/renesas/rz_mcu_boards/core_package/generate/sc_drivers/r_scifa/src/lld\r_rza2_scifa_lld.c **** 
1182:D:/Work/DeviceTester/amazon-freertos/lib/third_party/mcu_vendor/renesas/rz_mcu_boards/core_package/generate/sc_drivers/r_scifa/src/lld\r_rza2_scifa_lld.c ****     /* enable interrupts to trigger DMA */
1183:D:/Work/DeviceTester/amazon-freertos/lib/third_party/mcu_vendor/renesas/rz_mcu_boards/core_package/generate/sc_drivers/r_scifa/src/lld\r_rza2_scifa_lld.c ****     RZA_IO_RegWrite_16((volatile uint16_t *) &gsp_scifa[channel]->SCR.WORD, 1, SCIFA_SCR_RIE_SHIFT,
1184:D:/Work/DeviceTester/amazon-freertos/lib/third_party/mcu_vendor/renesas/rz_mcu_boards/core_package/generate/sc_drivers/r_scifa/src/lld\r_rza2_scifa_lld.c **** 
1185:D:/Work/DeviceTester/amazon-freertos/lib/third_party/mcu_vendor/renesas/rz_mcu_boards/core_package/generate/sc_drivers/r_scifa/src/lld\r_rza2_scifa_lld.c ****     return (DRV_SUCCESS);
1186:D:/Work/DeviceTester/amazon-freertos/lib/third_party/mcu_vendor/renesas/rz_mcu_boards/core_package/generate/sc_drivers/r_scifa/src/lld\r_rza2_scifa_lld.c **** }
1187:D:/Work/DeviceTester/amazon-freertos/lib/third_party/mcu_vendor/renesas/rz_mcu_boards/core_package/generate/sc_drivers/r_scifa/src/lld\r_rza2_scifa_lld.c **** /**************************************************************************************************
1188:D:/Work/DeviceTester/amazon-freertos/lib/third_party/mcu_vendor/renesas/rz_mcu_boards/core_package/generate/sc_drivers/r_scifa/src/lld\r_rza2_scifa_lld.c ****  * End of Function R_SCIFA_StartRX
1189:D:/Work/DeviceTester/amazon-freertos/lib/third_party/mcu_vendor/renesas/rz_mcu_boards/core_package/generate/sc_drivers/r_scifa/src/lld\r_rza2_scifa_lld.c ****  **************************************************************************************************
1190:D:/Work/DeviceTester/amazon-freertos/lib/third_party/mcu_vendor/renesas/rz_mcu_boards/core_package/generate/sc_drivers/r_scifa/src/lld\r_rza2_scifa_lld.c **** 
1191:D:/Work/DeviceTester/amazon-freertos/lib/third_party/mcu_vendor/renesas/rz_mcu_boards/core_package/generate/sc_drivers/r_scifa/src/lld\r_rza2_scifa_lld.c **** /**
1192:D:/Work/DeviceTester/amazon-freertos/lib/third_party/mcu_vendor/renesas/rz_mcu_boards/core_package/generate/sc_drivers/r_scifa/src/lld\r_rza2_scifa_lld.c ****  * @brief R_SCIFA_StopRX disable receive
1193:D:/Work/DeviceTester/amazon-freertos/lib/third_party/mcu_vendor/renesas/rz_mcu_boards/core_package/generate/sc_drivers/r_scifa/src/lld\r_rza2_scifa_lld.c ****  *
1194:D:/Work/DeviceTester/amazon-freertos/lib/third_party/mcu_vendor/renesas/rz_mcu_boards/core_package/generate/sc_drivers/r_scifa/src/lld\r_rza2_scifa_lld.c ****  * @param[in] channel to stop receive
1195:D:/Work/DeviceTester/amazon-freertos/lib/third_party/mcu_vendor/renesas/rz_mcu_boards/core_package/generate/sc_drivers/r_scifa/src/lld\r_rza2_scifa_lld.c ****  *
1196:D:/Work/DeviceTester/amazon-freertos/lib/third_party/mcu_vendor/renesas/rz_mcu_boards/core_package/generate/sc_drivers/r_scifa/src/lld\r_rza2_scifa_lld.c ****  * @retval  0 DRV_SUCCESS
1197:D:/Work/DeviceTester/amazon-freertos/lib/third_party/mcu_vendor/renesas/rz_mcu_boards/core_package/generate/sc_drivers/r_scifa/src/lld\r_rza2_scifa_lld.c ****  * @retval -1 DRV_ERROR
1198:D:/Work/DeviceTester/amazon-freertos/lib/third_party/mcu_vendor/renesas/rz_mcu_boards/core_package/generate/sc_drivers/r_scifa/src/lld\r_rza2_scifa_lld.c ****  */
1199:D:/Work/DeviceTester/amazon-freertos/lib/third_party/mcu_vendor/renesas/rz_mcu_boards/core_package/generate/sc_drivers/r_scifa/src/lld\r_rza2_scifa_lld.c **** int_t R_SCIFA_StopRX (r_channel_t channel)
1200:D:/Work/DeviceTester/amazon-freertos/lib/third_party/mcu_vendor/renesas/rz_mcu_boards/core_package/generate/sc_drivers/r_scifa/src/lld\r_rza2_scifa_lld.c **** {
1201:D:/Work/DeviceTester/amazon-freertos/lib/third_party/mcu_vendor/renesas/rz_mcu_boards/core_package/generate/sc_drivers/r_scifa/src/lld\r_rza2_scifa_lld.c ****     if ((channel > R_PRV_CFG_SCIF_LAST_CHANNEL) || (channel < 0))
1202:D:/Work/DeviceTester/amazon-freertos/lib/third_party/mcu_vendor/renesas/rz_mcu_boards/core_package/generate/sc_drivers/r_scifa/src/lld\r_rza2_scifa_lld.c ****     {
1203:D:/Work/DeviceTester/amazon-freertos/lib/third_party/mcu_vendor/renesas/rz_mcu_boards/core_package/generate/sc_drivers/r_scifa/src/lld\r_rza2_scifa_lld.c ****         return (DRV_ERROR);
1204:D:/Work/DeviceTester/amazon-freertos/lib/third_party/mcu_vendor/renesas/rz_mcu_boards/core_package/generate/sc_drivers/r_scifa/src/lld\r_rza2_scifa_lld.c ****     }
1205:D:/Work/DeviceTester/amazon-freertos/lib/third_party/mcu_vendor/renesas/rz_mcu_boards/core_package/generate/sc_drivers/r_scifa/src/lld\r_rza2_scifa_lld.c **** 
1206:D:/Work/DeviceTester/amazon-freertos/lib/third_party/mcu_vendor/renesas/rz_mcu_boards/core_package/generate/sc_drivers/r_scifa/src/lld\r_rza2_scifa_lld.c ****     RZA_IO_RegWrite_16((volatile uint16_t *) &gsp_scifa[channel]->SCR.WORD, 0, SCIFA_SCR_RE_SHIFT, 
1207:D:/Work/DeviceTester/amazon-freertos/lib/third_party/mcu_vendor/renesas/rz_mcu_boards/core_package/generate/sc_drivers/r_scifa/src/lld\r_rza2_scifa_lld.c **** 
1208:D:/Work/DeviceTester/amazon-freertos/lib/third_party/mcu_vendor/renesas/rz_mcu_boards/core_package/generate/sc_drivers/r_scifa/src/lld\r_rza2_scifa_lld.c ****     return (DRV_SUCCESS);
