   1              		.cpu cortex-a9
   2              		.eabi_attribute 28, 1
   3              		.eabi_attribute 20, 1
   4              		.eabi_attribute 21, 1
   5              		.eabi_attribute 23, 3
   6              		.eabi_attribute 24, 1
   7              		.eabi_attribute 25, 1
   8              		.eabi_attribute 26, 1
   9              		.eabi_attribute 30, 4
  10              		.eabi_attribute 34, 0
  11              		.eabi_attribute 18, 4
  12              		.file	"r_adc_lld_rza2m.c"
  13              		.text
  14              	.Ltext0:
  15              		.cfi_sections	.debug_frame
  16              		.section	.text.R_ADC_GetVersion,"ax",%progbits
  17              		.align	2
  18              		.global	R_ADC_GetVersion
  19              		.syntax unified
  20              		.arm
  21              		.fpu neon
  23              	R_ADC_GetVersion:
  24              	.LFB4:
  25              		.file 1 "D:/Work/DeviceTester/amazon-freertos/lib/third_party/mcu_vendor/renesas/rz_mcu_boards/cor
   1:D:/Work/DeviceTester/amazon-freertos/lib/third_party/mcu_vendor/renesas/rz_mcu_boards/core_package/generate/sc_drivers/r_adc/src/lld\r_adc_lld_rza2m.c **** /**************************************************************************************************
   2:D:/Work/DeviceTester/amazon-freertos/lib/third_party/mcu_vendor/renesas/rz_mcu_boards/core_package/generate/sc_drivers/r_adc/src/lld\r_adc_lld_rza2m.c ****  * DISCLAIMER
   3:D:/Work/DeviceTester/amazon-freertos/lib/third_party/mcu_vendor/renesas/rz_mcu_boards/core_package/generate/sc_drivers/r_adc/src/lld\r_adc_lld_rza2m.c ****  * This software is supplied by Renesas Electronics Corporation and is only
   4:D:/Work/DeviceTester/amazon-freertos/lib/third_party/mcu_vendor/renesas/rz_mcu_boards/core_package/generate/sc_drivers/r_adc/src/lld\r_adc_lld_rza2m.c ****  * intended for use with Renesas products. No other uses are authorized. This
   5:D:/Work/DeviceTester/amazon-freertos/lib/third_party/mcu_vendor/renesas/rz_mcu_boards/core_package/generate/sc_drivers/r_adc/src/lld\r_adc_lld_rza2m.c ****  * software is owned by Renesas Electronics Corporation and is protected under
   6:D:/Work/DeviceTester/amazon-freertos/lib/third_party/mcu_vendor/renesas/rz_mcu_boards/core_package/generate/sc_drivers/r_adc/src/lld\r_adc_lld_rza2m.c ****  * all applicable laws, including copyright laws.
   7:D:/Work/DeviceTester/amazon-freertos/lib/third_party/mcu_vendor/renesas/rz_mcu_boards/core_package/generate/sc_drivers/r_adc/src/lld\r_adc_lld_rza2m.c ****  * THIS SOFTWARE IS PROVIDED "AS IS" AND RENESAS MAKES NO WARRANTIES REGARDING
   8:D:/Work/DeviceTester/amazon-freertos/lib/third_party/mcu_vendor/renesas/rz_mcu_boards/core_package/generate/sc_drivers/r_adc/src/lld\r_adc_lld_rza2m.c ****  * THIS SOFTWARE, WHETHER EXPRESS, IMPLIED OR STATUTORY, INCLUDING BUT NOT
   9:D:/Work/DeviceTester/amazon-freertos/lib/third_party/mcu_vendor/renesas/rz_mcu_boards/core_package/generate/sc_drivers/r_adc/src/lld\r_adc_lld_rza2m.c ****  * LIMITED TO WARRANTIES OF MERCHANTABILITY, FITNESS FOR A PARTICULAR PURPOSE
  10:D:/Work/DeviceTester/amazon-freertos/lib/third_party/mcu_vendor/renesas/rz_mcu_boards/core_package/generate/sc_drivers/r_adc/src/lld\r_adc_lld_rza2m.c ****  * AND NON-INFRINGEMENT. ALL SUCH WARRANTIES ARE EXPRESSLY DISCLAIMED.
  11:D:/Work/DeviceTester/amazon-freertos/lib/third_party/mcu_vendor/renesas/rz_mcu_boards/core_package/generate/sc_drivers/r_adc/src/lld\r_adc_lld_rza2m.c ****  * TO THE MAXIMUM EXTENT PERMITTED NOT PROHIBITED BY LAW, NEITHER RENESAS
  12:D:/Work/DeviceTester/amazon-freertos/lib/third_party/mcu_vendor/renesas/rz_mcu_boards/core_package/generate/sc_drivers/r_adc/src/lld\r_adc_lld_rza2m.c ****  * ELECTRONICS CORPORATION NOR ANY OF ITS AFFILIATED COMPANIES SHALL BE LIABLE
  13:D:/Work/DeviceTester/amazon-freertos/lib/third_party/mcu_vendor/renesas/rz_mcu_boards/core_package/generate/sc_drivers/r_adc/src/lld\r_adc_lld_rza2m.c ****  * FOR ANY DIRECT, INDIRECT, SPECIAL, INCIDENTAL OR CONSEQUENTIAL DAMAGES FOR
  14:D:/Work/DeviceTester/amazon-freertos/lib/third_party/mcu_vendor/renesas/rz_mcu_boards/core_package/generate/sc_drivers/r_adc/src/lld\r_adc_lld_rza2m.c ****  * ANY REASON RELATED TO THIS SOFTWARE, EVEN IF RENESAS OR ITS AFFILIATES HAVE
  15:D:/Work/DeviceTester/amazon-freertos/lib/third_party/mcu_vendor/renesas/rz_mcu_boards/core_package/generate/sc_drivers/r_adc/src/lld\r_adc_lld_rza2m.c ****  * BEEN ADVISED OF THE POSSIBILITY OF SUCH DAMAGES.
  16:D:/Work/DeviceTester/amazon-freertos/lib/third_party/mcu_vendor/renesas/rz_mcu_boards/core_package/generate/sc_drivers/r_adc/src/lld\r_adc_lld_rza2m.c ****  * Renesas reserves the right, without notice, to make changes to this software
  17:D:/Work/DeviceTester/amazon-freertos/lib/third_party/mcu_vendor/renesas/rz_mcu_boards/core_package/generate/sc_drivers/r_adc/src/lld\r_adc_lld_rza2m.c ****  * and to discontinue the availability of this software. By using this software,
  18:D:/Work/DeviceTester/amazon-freertos/lib/third_party/mcu_vendor/renesas/rz_mcu_boards/core_package/generate/sc_drivers/r_adc/src/lld\r_adc_lld_rza2m.c ****  * you agree to the additional terms and conditions found by accessing the
  19:D:/Work/DeviceTester/amazon-freertos/lib/third_party/mcu_vendor/renesas/rz_mcu_boards/core_package/generate/sc_drivers/r_adc/src/lld\r_adc_lld_rza2m.c ****  * following link:
  20:D:/Work/DeviceTester/amazon-freertos/lib/third_party/mcu_vendor/renesas/rz_mcu_boards/core_package/generate/sc_drivers/r_adc/src/lld\r_adc_lld_rza2m.c ****  * http://www.renesas.com/disclaimer
  21:D:/Work/DeviceTester/amazon-freertos/lib/third_party/mcu_vendor/renesas/rz_mcu_boards/core_package/generate/sc_drivers/r_adc/src/lld\r_adc_lld_rza2m.c ****  *
  22:D:/Work/DeviceTester/amazon-freertos/lib/third_party/mcu_vendor/renesas/rz_mcu_boards/core_package/generate/sc_drivers/r_adc/src/lld\r_adc_lld_rza2m.c ****  * Copyright (C) 2019 Renesas Electronics Corporation. All rights reserved.
  23:D:/Work/DeviceTester/amazon-freertos/lib/third_party/mcu_vendor/renesas/rz_mcu_boards/core_package/generate/sc_drivers/r_adc/src/lld\r_adc_lld_rza2m.c ****  **************************************************************************************************
  24:D:/Work/DeviceTester/amazon-freertos/lib/third_party/mcu_vendor/renesas/rz_mcu_boards/core_package/generate/sc_drivers/r_adc/src/lld\r_adc_lld_rza2m.c **** /**************************************************************************************************
  25:D:/Work/DeviceTester/amazon-freertos/lib/third_party/mcu_vendor/renesas/rz_mcu_boards/core_package/generate/sc_drivers/r_adc/src/lld\r_adc_lld_rza2m.c ****  * File Name     : r_adc_lld_rza2m.c
  26:D:/Work/DeviceTester/amazon-freertos/lib/third_party/mcu_vendor/renesas/rz_mcu_boards/core_package/generate/sc_drivers/r_adc/src/lld\r_adc_lld_rza2m.c ****  * Device(s)     : RZ/A2M
  27:D:/Work/DeviceTester/amazon-freertos/lib/third_party/mcu_vendor/renesas/rz_mcu_boards/core_package/generate/sc_drivers/r_adc/src/lld\r_adc_lld_rza2m.c ****  * Tool-Chain    : GCC Arm Embedded 6.3.1
  28:D:/Work/DeviceTester/amazon-freertos/lib/third_party/mcu_vendor/renesas/rz_mcu_boards/core_package/generate/sc_drivers/r_adc/src/lld\r_adc_lld_rza2m.c ****  * H/W Platform  : RZ/A2M EBK board
  29:D:/Work/DeviceTester/amazon-freertos/lib/third_party/mcu_vendor/renesas/rz_mcu_boards/core_package/generate/sc_drivers/r_adc/src/lld\r_adc_lld_rza2m.c ****  * Description   : ADC driver
  30:D:/Work/DeviceTester/amazon-freertos/lib/third_party/mcu_vendor/renesas/rz_mcu_boards/core_package/generate/sc_drivers/r_adc/src/lld\r_adc_lld_rza2m.c ****  **************************************************************************************************
  31:D:/Work/DeviceTester/amazon-freertos/lib/third_party/mcu_vendor/renesas/rz_mcu_boards/core_package/generate/sc_drivers/r_adc/src/lld\r_adc_lld_rza2m.c **** /**************************************************************************************************
  32:D:/Work/DeviceTester/amazon-freertos/lib/third_party/mcu_vendor/renesas/rz_mcu_boards/core_package/generate/sc_drivers/r_adc/src/lld\r_adc_lld_rza2m.c ****  * History       : DD.MM.YYYY Version Description
  33:D:/Work/DeviceTester/amazon-freertos/lib/third_party/mcu_vendor/renesas/rz_mcu_boards/core_package/generate/sc_drivers/r_adc/src/lld\r_adc_lld_rza2m.c ****  *               : 19.02.2019 1.00
  34:D:/Work/DeviceTester/amazon-freertos/lib/third_party/mcu_vendor/renesas/rz_mcu_boards/core_package/generate/sc_drivers/r_adc/src/lld\r_adc_lld_rza2m.c ****  **************************************************************************************************
  35:D:/Work/DeviceTester/amazon-freertos/lib/third_party/mcu_vendor/renesas/rz_mcu_boards/core_package/generate/sc_drivers/r_adc/src/lld\r_adc_lld_rza2m.c **** 
  36:D:/Work/DeviceTester/amazon-freertos/lib/third_party/mcu_vendor/renesas/rz_mcu_boards/core_package/generate/sc_drivers/r_adc/src/lld\r_adc_lld_rza2m.c **** /**************************************************************************************************
  37:D:/Work/DeviceTester/amazon-freertos/lib/third_party/mcu_vendor/renesas/rz_mcu_boards/core_package/generate/sc_drivers/r_adc/src/lld\r_adc_lld_rza2m.c ****  Includes   <System Includes> , "Project Includes"
  38:D:/Work/DeviceTester/amazon-freertos/lib/third_party/mcu_vendor/renesas/rz_mcu_boards/core_package/generate/sc_drivers/r_adc/src/lld\r_adc_lld_rza2m.c ****  **************************************************************************************************
  39:D:/Work/DeviceTester/amazon-freertos/lib/third_party/mcu_vendor/renesas/rz_mcu_boards/core_package/generate/sc_drivers/r_adc/src/lld\r_adc_lld_rza2m.c **** #include <stdio.h>
  40:D:/Work/DeviceTester/amazon-freertos/lib/third_party/mcu_vendor/renesas/rz_mcu_boards/core_package/generate/sc_drivers/r_adc/src/lld\r_adc_lld_rza2m.c **** #include <unistd.h>
  41:D:/Work/DeviceTester/amazon-freertos/lib/third_party/mcu_vendor/renesas/rz_mcu_boards/core_package/generate/sc_drivers/r_adc/src/lld\r_adc_lld_rza2m.c **** 
  42:D:/Work/DeviceTester/amazon-freertos/lib/third_party/mcu_vendor/renesas/rz_mcu_boards/core_package/generate/sc_drivers/r_adc/src/lld\r_adc_lld_rza2m.c **** #include "rza_io_regrw.h"
  43:D:/Work/DeviceTester/amazon-freertos/lib/third_party/mcu_vendor/renesas/rz_mcu_boards/core_package/generate/sc_drivers/r_adc/src/lld\r_adc_lld_rza2m.c **** #include "iodefine.h"
  44:D:/Work/DeviceTester/amazon-freertos/lib/third_party/mcu_vendor/renesas/rz_mcu_boards/core_package/generate/sc_drivers/r_adc/src/lld\r_adc_lld_rza2m.c **** #include "iobitmask.h"
  45:D:/Work/DeviceTester/amazon-freertos/lib/third_party/mcu_vendor/renesas/rz_mcu_boards/core_package/generate/sc_drivers/r_adc/src/lld\r_adc_lld_rza2m.c **** 
  46:D:/Work/DeviceTester/amazon-freertos/lib/third_party/mcu_vendor/renesas/rz_mcu_boards/core_package/generate/sc_drivers/r_adc/src/lld\r_adc_lld_rza2m.c **** #include "r_stb_drv_api.h"
  47:D:/Work/DeviceTester/amazon-freertos/lib/third_party/mcu_vendor/renesas/rz_mcu_boards/core_package/generate/sc_drivers/r_adc/src/lld\r_adc_lld_rza2m.c **** 
  48:D:/Work/DeviceTester/amazon-freertos/lib/third_party/mcu_vendor/renesas/rz_mcu_boards/core_package/generate/sc_drivers/r_adc/src/lld\r_adc_lld_rza2m.c **** #include "r_adc_drv_link.h"
  49:D:/Work/DeviceTester/amazon-freertos/lib/third_party/mcu_vendor/renesas/rz_mcu_boards/core_package/generate/sc_drivers/r_adc/src/lld\r_adc_lld_rza2m.c **** 
  50:D:/Work/DeviceTester/amazon-freertos/lib/third_party/mcu_vendor/renesas/rz_mcu_boards/core_package/generate/sc_drivers/r_adc/src/lld\r_adc_lld_rza2m.c **** #include "r_gpio_drv_api.h"
  51:D:/Work/DeviceTester/amazon-freertos/lib/third_party/mcu_vendor/renesas/rz_mcu_boards/core_package/generate/sc_drivers/r_adc/src/lld\r_adc_lld_rza2m.c **** #include "r_compiler_abstraction_api.h"
  52:D:/Work/DeviceTester/amazon-freertos/lib/third_party/mcu_vendor/renesas/rz_mcu_boards/core_package/generate/sc_drivers/r_adc/src/lld\r_adc_lld_rza2m.c **** #include "r_adc_drv_sc_cfg.h"
  53:D:/Work/DeviceTester/amazon-freertos/lib/third_party/mcu_vendor/renesas/rz_mcu_boards/core_package/generate/sc_drivers/r_adc/src/lld\r_adc_lld_rza2m.c **** 
  54:D:/Work/DeviceTester/amazon-freertos/lib/third_party/mcu_vendor/renesas/rz_mcu_boards/core_package/generate/sc_drivers/r_adc/src/lld\r_adc_lld_rza2m.c **** #include "driver.h"
  55:D:/Work/DeviceTester/amazon-freertos/lib/third_party/mcu_vendor/renesas/rz_mcu_boards/core_package/generate/sc_drivers/r_adc/src/lld\r_adc_lld_rza2m.c **** 
  56:D:/Work/DeviceTester/amazon-freertos/lib/third_party/mcu_vendor/renesas/rz_mcu_boards/core_package/generate/sc_drivers/r_adc/src/lld\r_adc_lld_rza2m.c **** /**************************************************************************************************
  57:D:/Work/DeviceTester/amazon-freertos/lib/third_party/mcu_vendor/renesas/rz_mcu_boards/core_package/generate/sc_drivers/r_adc/src/lld\r_adc_lld_rza2m.c ****  Macro definitions
  58:D:/Work/DeviceTester/amazon-freertos/lib/third_party/mcu_vendor/renesas/rz_mcu_boards/core_package/generate/sc_drivers/r_adc/src/lld\r_adc_lld_rza2m.c ****  **************************************************************************************************
  59:D:/Work/DeviceTester/amazon-freertos/lib/third_party/mcu_vendor/renesas/rz_mcu_boards/core_package/generate/sc_drivers/r_adc/src/lld\r_adc_lld_rza2m.c **** 
  60:D:/Work/DeviceTester/amazon-freertos/lib/third_party/mcu_vendor/renesas/rz_mcu_boards/core_package/generate/sc_drivers/r_adc/src/lld\r_adc_lld_rza2m.c **** #define R_ADC_PRV_ADCER_ADC_RESOLUTION_12           (0u)
  61:D:/Work/DeviceTester/amazon-freertos/lib/third_party/mcu_vendor/renesas/rz_mcu_boards/core_package/generate/sc_drivers/r_adc/src/lld\r_adc_lld_rza2m.c **** #define R_ADC_PRV_ADCER_ADC_RESOLUTION_10           (1u)
  62:D:/Work/DeviceTester/amazon-freertos/lib/third_party/mcu_vendor/renesas/rz_mcu_boards/core_package/generate/sc_drivers/r_adc/src/lld\r_adc_lld_rza2m.c **** #define R_ADC_PRV_ADCER_ADC_RESOLUTION_8            (2u)
  63:D:/Work/DeviceTester/amazon-freertos/lib/third_party/mcu_vendor/renesas/rz_mcu_boards/core_package/generate/sc_drivers/r_adc/src/lld\r_adc_lld_rza2m.c **** 
  64:D:/Work/DeviceTester/amazon-freertos/lib/third_party/mcu_vendor/renesas/rz_mcu_boards/core_package/generate/sc_drivers/r_adc/src/lld\r_adc_lld_rza2m.c **** #define R_ADC_PRV_ADCER_ADC_DATA_FORMAT_RIGHT_ALIGN (0u)
  65:D:/Work/DeviceTester/amazon-freertos/lib/third_party/mcu_vendor/renesas/rz_mcu_boards/core_package/generate/sc_drivers/r_adc/src/lld\r_adc_lld_rza2m.c **** #define R_ADC_PRV_ADCER_ADC_DATA_FORMAT_LEFT_ALIGN  (1u)
  66:D:/Work/DeviceTester/amazon-freertos/lib/third_party/mcu_vendor/renesas/rz_mcu_boards/core_package/generate/sc_drivers/r_adc/src/lld\r_adc_lld_rza2m.c **** 
  67:D:/Work/DeviceTester/amazon-freertos/lib/third_party/mcu_vendor/renesas/rz_mcu_boards/core_package/generate/sc_drivers/r_adc/src/lld\r_adc_lld_rza2m.c **** #define R_ADC_PRV_ADCSR_ADC_SCAN_MODE_SINGLE        (0u)
  68:D:/Work/DeviceTester/amazon-freertos/lib/third_party/mcu_vendor/renesas/rz_mcu_boards/core_package/generate/sc_drivers/r_adc/src/lld\r_adc_lld_rza2m.c **** #define R_ADC_PRV_ADCSR_ADC_SCAN_MODE_GROUP         (1u)
  69:D:/Work/DeviceTester/amazon-freertos/lib/third_party/mcu_vendor/renesas/rz_mcu_boards/core_package/generate/sc_drivers/r_adc/src/lld\r_adc_lld_rza2m.c **** #define R_ADC_PRV_ADCSR_ADC_SCAN_MODE_CONTINUOUS    (2u)
  70:D:/Work/DeviceTester/amazon-freertos/lib/third_party/mcu_vendor/renesas/rz_mcu_boards/core_package/generate/sc_drivers/r_adc/src/lld\r_adc_lld_rza2m.c **** 
  71:D:/Work/DeviceTester/amazon-freertos/lib/third_party/mcu_vendor/renesas/rz_mcu_boards/core_package/generate/sc_drivers/r_adc/src/lld\r_adc_lld_rza2m.c **** #define R_ADC_PRV_ADC_MINIMUM_SAMPLE_TIME           (5u)
  72:D:/Work/DeviceTester/amazon-freertos/lib/third_party/mcu_vendor/renesas/rz_mcu_boards/core_package/generate/sc_drivers/r_adc/src/lld\r_adc_lld_rza2m.c **** #define R_ADC_PRV_ADC_MAXIMUM_SAMPLE_TIME           (255u)
  73:D:/Work/DeviceTester/amazon-freertos/lib/third_party/mcu_vendor/renesas/rz_mcu_boards/core_package/generate/sc_drivers/r_adc/src/lld\r_adc_lld_rza2m.c **** 
  74:D:/Work/DeviceTester/amazon-freertos/lib/third_party/mcu_vendor/renesas/rz_mcu_boards/core_package/generate/sc_drivers/r_adc/src/lld\r_adc_lld_rza2m.c **** #define R_ADC_PRV_DEFAULT_INTERRUPT_PRIORITY        (INTC_PRIORITY_20)
  75:D:/Work/DeviceTester/amazon-freertos/lib/third_party/mcu_vendor/renesas/rz_mcu_boards/core_package/generate/sc_drivers/r_adc/src/lld\r_adc_lld_rza2m.c **** 
  76:D:/Work/DeviceTester/amazon-freertos/lib/third_party/mcu_vendor/renesas/rz_mcu_boards/core_package/generate/sc_drivers/r_adc/src/lld\r_adc_lld_rza2m.c **** /**************************************************************************************************
  77:D:/Work/DeviceTester/amazon-freertos/lib/third_party/mcu_vendor/renesas/rz_mcu_boards/core_package/generate/sc_drivers/r_adc/src/lld\r_adc_lld_rza2m.c ****  Enumerated Types
  78:D:/Work/DeviceTester/amazon-freertos/lib/third_party/mcu_vendor/renesas/rz_mcu_boards/core_package/generate/sc_drivers/r_adc/src/lld\r_adc_lld_rza2m.c ****  **************************************************************************************************
  79:D:/Work/DeviceTester/amazon-freertos/lib/third_party/mcu_vendor/renesas/rz_mcu_boards/core_package/generate/sc_drivers/r_adc/src/lld\r_adc_lld_rza2m.c **** 
  80:D:/Work/DeviceTester/amazon-freertos/lib/third_party/mcu_vendor/renesas/rz_mcu_boards/core_package/generate/sc_drivers/r_adc/src/lld\r_adc_lld_rza2m.c **** 
  81:D:/Work/DeviceTester/amazon-freertos/lib/third_party/mcu_vendor/renesas/rz_mcu_boards/core_package/generate/sc_drivers/r_adc/src/lld\r_adc_lld_rza2m.c **** /**************************************************************************************************
  82:D:/Work/DeviceTester/amazon-freertos/lib/third_party/mcu_vendor/renesas/rz_mcu_boards/core_package/generate/sc_drivers/r_adc/src/lld\r_adc_lld_rza2m.c ****  Structures
  83:D:/Work/DeviceTester/amazon-freertos/lib/third_party/mcu_vendor/renesas/rz_mcu_boards/core_package/generate/sc_drivers/r_adc/src/lld\r_adc_lld_rza2m.c ****  **************************************************************************************************
  84:D:/Work/DeviceTester/amazon-freertos/lib/third_party/mcu_vendor/renesas/rz_mcu_boards/core_package/generate/sc_drivers/r_adc/src/lld\r_adc_lld_rza2m.c **** 
  85:D:/Work/DeviceTester/amazon-freertos/lib/third_party/mcu_vendor/renesas/rz_mcu_boards/core_package/generate/sc_drivers/r_adc/src/lld\r_adc_lld_rza2m.c **** 
  86:D:/Work/DeviceTester/amazon-freertos/lib/third_party/mcu_vendor/renesas/rz_mcu_boards/core_package/generate/sc_drivers/r_adc/src/lld\r_adc_lld_rza2m.c **** /**************************************************************************************************
  87:D:/Work/DeviceTester/amazon-freertos/lib/third_party/mcu_vendor/renesas/rz_mcu_boards/core_package/generate/sc_drivers/r_adc/src/lld\r_adc_lld_rza2m.c ****  Private variables
  88:D:/Work/DeviceTester/amazon-freertos/lib/third_party/mcu_vendor/renesas/rz_mcu_boards/core_package/generate/sc_drivers/r_adc/src/lld\r_adc_lld_rza2m.c ****  **************************************************************************************************
  89:D:/Work/DeviceTester/amazon-freertos/lib/third_party/mcu_vendor/renesas/rz_mcu_boards/core_package/generate/sc_drivers/r_adc/src/lld\r_adc_lld_rza2m.c **** 
  90:D:/Work/DeviceTester/amazon-freertos/lib/third_party/mcu_vendor/renesas/rz_mcu_boards/core_package/generate/sc_drivers/r_adc/src/lld\r_adc_lld_rza2m.c **** static const st_drv_info_t s_lld_info =
  91:D:/Work/DeviceTester/amazon-freertos/lib/third_party/mcu_vendor/renesas/rz_mcu_boards/core_package/generate/sc_drivers/r_adc/src/lld\r_adc_lld_rza2m.c **** {
  92:D:/Work/DeviceTester/amazon-freertos/lib/third_party/mcu_vendor/renesas/rz_mcu_boards/core_package/generate/sc_drivers/r_adc/src/lld\r_adc_lld_rza2m.c ****     {
  93:D:/Work/DeviceTester/amazon-freertos/lib/third_party/mcu_vendor/renesas/rz_mcu_boards/core_package/generate/sc_drivers/r_adc/src/lld\r_adc_lld_rza2m.c ****         ((R_DRV_ADC_LLD_VERSION_MAJOR << 16) + R_DRV_ADC_LLD_VERSION_MINOR)
  94:D:/Work/DeviceTester/amazon-freertos/lib/third_party/mcu_vendor/renesas/rz_mcu_boards/core_package/generate/sc_drivers/r_adc/src/lld\r_adc_lld_rza2m.c ****     },
  95:D:/Work/DeviceTester/amazon-freertos/lib/third_party/mcu_vendor/renesas/rz_mcu_boards/core_package/generate/sc_drivers/r_adc/src/lld\r_adc_lld_rza2m.c ****     R_DRV_ADC_LLD_BUILD_NUM,
  96:D:/Work/DeviceTester/amazon-freertos/lib/third_party/mcu_vendor/renesas/rz_mcu_boards/core_package/generate/sc_drivers/r_adc/src/lld\r_adc_lld_rza2m.c ****     R_DRV_ADC_LLD_DRV_NAME
  97:D:/Work/DeviceTester/amazon-freertos/lib/third_party/mcu_vendor/renesas/rz_mcu_boards/core_package/generate/sc_drivers/r_adc/src/lld\r_adc_lld_rza2m.c **** };
  98:D:/Work/DeviceTester/amazon-freertos/lib/third_party/mcu_vendor/renesas/rz_mcu_boards/core_package/generate/sc_drivers/r_adc/src/lld\r_adc_lld_rza2m.c **** 
  99:D:/Work/DeviceTester/amazon-freertos/lib/third_party/mcu_vendor/renesas/rz_mcu_boards/core_package/generate/sc_drivers/r_adc/src/lld\r_adc_lld_rza2m.c **** /**************************************************************************************************
 100:D:/Work/DeviceTester/amazon-freertos/lib/third_party/mcu_vendor/renesas/rz_mcu_boards/core_package/generate/sc_drivers/r_adc/src/lld\r_adc_lld_rza2m.c ****  Private functions
 101:D:/Work/DeviceTester/amazon-freertos/lib/third_party/mcu_vendor/renesas/rz_mcu_boards/core_package/generate/sc_drivers/r_adc/src/lld\r_adc_lld_rza2m.c ****  **************************************************************************************************
 102:D:/Work/DeviceTester/amazon-freertos/lib/third_party/mcu_vendor/renesas/rz_mcu_boards/core_package/generate/sc_drivers/r_adc/src/lld\r_adc_lld_rza2m.c **** 
 103:D:/Work/DeviceTester/amazon-freertos/lib/third_party/mcu_vendor/renesas/rz_mcu_boards/core_package/generate/sc_drivers/r_adc/src/lld\r_adc_lld_rza2m.c **** static void adc_set_resolution (e_r_drv_adc_resolution_t resolution);
 104:D:/Work/DeviceTester/amazon-freertos/lib/third_party/mcu_vendor/renesas/rz_mcu_boards/core_package/generate/sc_drivers/r_adc/src/lld\r_adc_lld_rza2m.c **** static void adc_set_data_alignment (e_r_drv_adc_alignment_t alignment);
 105:D:/Work/DeviceTester/amazon-freertos/lib/third_party/mcu_vendor/renesas/rz_mcu_boards/core_package/generate/sc_drivers/r_adc/src/lld\r_adc_lld_rza2m.c **** static void adc_set_scan_mode (e_r_drv_adc_scan_mode_t scan_mode);
 106:D:/Work/DeviceTester/amazon-freertos/lib/third_party/mcu_vendor/renesas/rz_mcu_boards/core_package/generate/sc_drivers/r_adc/src/lld\r_adc_lld_rza2m.c **** static bool_t is_valid_configuration (st_r_drv_adc_unit_config_t * p_config);
 107:D:/Work/DeviceTester/amazon-freertos/lib/third_party/mcu_vendor/renesas/rz_mcu_boards/core_package/generate/sc_drivers/r_adc/src/lld\r_adc_lld_rza2m.c **** static e_r_drv_adc_resolution_t adc_get_resolution (void);
 108:D:/Work/DeviceTester/amazon-freertos/lib/third_party/mcu_vendor/renesas/rz_mcu_boards/core_package/generate/sc_drivers/r_adc/src/lld\r_adc_lld_rza2m.c **** static e_r_drv_adc_alignment_t adc_get_data_alignment (void);
 109:D:/Work/DeviceTester/amazon-freertos/lib/third_party/mcu_vendor/renesas/rz_mcu_boards/core_package/generate/sc_drivers/r_adc/src/lld\r_adc_lld_rza2m.c **** static e_r_drv_adc_scan_mode_t adc_get_scan_mode (void);
 110:D:/Work/DeviceTester/amazon-freertos/lib/third_party/mcu_vendor/renesas/rz_mcu_boards/core_package/generate/sc_drivers/r_adc/src/lld\r_adc_lld_rza2m.c **** 
 111:D:/Work/DeviceTester/amazon-freertos/lib/third_party/mcu_vendor/renesas/rz_mcu_boards/core_package/generate/sc_drivers/r_adc/src/lld\r_adc_lld_rza2m.c **** /**************************************************************************************************
 112:D:/Work/DeviceTester/amazon-freertos/lib/third_party/mcu_vendor/renesas/rz_mcu_boards/core_package/generate/sc_drivers/r_adc/src/lld\r_adc_lld_rza2m.c ****  Global variables
 113:D:/Work/DeviceTester/amazon-freertos/lib/third_party/mcu_vendor/renesas/rz_mcu_boards/core_package/generate/sc_drivers/r_adc/src/lld\r_adc_lld_rza2m.c ****  **************************************************************************************************
 114:D:/Work/DeviceTester/amazon-freertos/lib/third_party/mcu_vendor/renesas/rz_mcu_boards/core_package/generate/sc_drivers/r_adc/src/lld\r_adc_lld_rza2m.c **** 
 115:D:/Work/DeviceTester/amazon-freertos/lib/third_party/mcu_vendor/renesas/rz_mcu_boards/core_package/generate/sc_drivers/r_adc/src/lld\r_adc_lld_rza2m.c **** /**************************************************************************************************
 116:D:/Work/DeviceTester/amazon-freertos/lib/third_party/mcu_vendor/renesas/rz_mcu_boards/core_package/generate/sc_drivers/r_adc/src/lld\r_adc_lld_rza2m.c ****  * Function Name: R_ADC_GetVersion
 117:D:/Work/DeviceTester/amazon-freertos/lib/third_party/mcu_vendor/renesas/rz_mcu_boards/core_package/generate/sc_drivers/r_adc/src/lld\r_adc_lld_rza2m.c ****  * Description  : Gets the version number of this Low Layer Driver
 118:D:/Work/DeviceTester/amazon-freertos/lib/third_party/mcu_vendor/renesas/rz_mcu_boards/core_package/generate/sc_drivers/r_adc/src/lld\r_adc_lld_rza2m.c ****  * Arguments    : pinfo[out] - returns the driver information
 119:D:/Work/DeviceTester/amazon-freertos/lib/third_party/mcu_vendor/renesas/rz_mcu_boards/core_package/generate/sc_drivers/r_adc/src/lld\r_adc_lld_rza2m.c ****  * Return Value : DRV_SUCCESS always returned
 120:D:/Work/DeviceTester/amazon-freertos/lib/third_party/mcu_vendor/renesas/rz_mcu_boards/core_package/generate/sc_drivers/r_adc/src/lld\r_adc_lld_rza2m.c ****  **************************************************************************************************
 121:D:/Work/DeviceTester/amazon-freertos/lib/third_party/mcu_vendor/renesas/rz_mcu_boards/core_package/generate/sc_drivers/r_adc/src/lld\r_adc_lld_rza2m.c **** uint32_t R_ADC_GetVersion(st_drv_info_t *pinfo)
 122:D:/Work/DeviceTester/amazon-freertos/lib/third_party/mcu_vendor/renesas/rz_mcu_boards/core_package/generate/sc_drivers/r_adc/src/lld\r_adc_lld_rza2m.c **** {
  26              		.loc 1 122 0
  27              		.cfi_startproc
  28              		@ args = 0, pretend = 0, frame = 0
  29              		@ frame_needed = 0, uses_anonymous_args = 0
  30              		@ link register save eliminated.
  31              	.LVL0:
 123:D:/Work/DeviceTester/amazon-freertos/lib/third_party/mcu_vendor/renesas/rz_mcu_boards/core_package/generate/sc_drivers/r_adc/src/lld\r_adc_lld_rza2m.c ****     pinfo->version.sub.major = s_lld_info.version.sub.major;
  32              		.loc 1 123 0
  33 0000 0120A0E3 		mov	r2, #1
 122:D:/Work/DeviceTester/amazon-freertos/lib/third_party/mcu_vendor/renesas/rz_mcu_boards/core_package/generate/sc_drivers/r_adc/src/lld\r_adc_lld_rza2m.c ****     pinfo->version.sub.major = s_lld_info.version.sub.major;
  34              		.loc 1 122 0
  35 0004 0030A0E1 		mov	r3, r0
  36              		.loc 1 123 0
  37 0008 B220C0E1 		strh	r2, [r0, #2]	@ movhi
 124:D:/Work/DeviceTester/amazon-freertos/lib/third_party/mcu_vendor/renesas/rz_mcu_boards/core_package/generate/sc_drivers/r_adc/src/lld\r_adc_lld_rza2m.c ****     pinfo->version.sub.minor = s_lld_info.version.sub.minor;
  38              		.loc 1 124 0
  39 000c 0000A0E3 		mov	r0, #0
  40              	.LVL1:
 125:D:/Work/DeviceTester/amazon-freertos/lib/third_party/mcu_vendor/renesas/rz_mcu_boards/core_package/generate/sc_drivers/r_adc/src/lld\r_adc_lld_rza2m.c ****     pinfo->build = s_lld_info.build;
 126:D:/Work/DeviceTester/amazon-freertos/lib/third_party/mcu_vendor/renesas/rz_mcu_boards/core_package/generate/sc_drivers/r_adc/src/lld\r_adc_lld_rza2m.c ****     pinfo->p_szdriver_name = s_lld_info.p_szdriver_name;
  41              		.loc 1 126 0
  42 0010 0C209FE5 		ldr	r2, .L2
 124:D:/Work/DeviceTester/amazon-freertos/lib/third_party/mcu_vendor/renesas/rz_mcu_boards/core_package/generate/sc_drivers/r_adc/src/lld\r_adc_lld_rza2m.c ****     pinfo->version.sub.minor = s_lld_info.version.sub.minor;
  43              		.loc 1 124 0
  44 0014 B000C3E1 		strh	r0, [r3]	@ movhi
 125:D:/Work/DeviceTester/amazon-freertos/lib/third_party/mcu_vendor/renesas/rz_mcu_boards/core_package/generate/sc_drivers/r_adc/src/lld\r_adc_lld_rza2m.c ****     pinfo->build = s_lld_info.build;
  45              		.loc 1 125 0
  46 0018 040083E5 		str	r0, [r3, #4]
  47              		.loc 1 126 0
  48 001c 082083E5 		str	r2, [r3, #8]
 127:D:/Work/DeviceTester/amazon-freertos/lib/third_party/mcu_vendor/renesas/rz_mcu_boards/core_package/generate/sc_drivers/r_adc/src/lld\r_adc_lld_rza2m.c **** 
 128:D:/Work/DeviceTester/amazon-freertos/lib/third_party/mcu_vendor/renesas/rz_mcu_boards/core_package/generate/sc_drivers/r_adc/src/lld\r_adc_lld_rza2m.c ****     return (DRV_SUCCESS);
 129:D:/Work/DeviceTester/amazon-freertos/lib/third_party/mcu_vendor/renesas/rz_mcu_boards/core_package/generate/sc_drivers/r_adc/src/lld\r_adc_lld_rza2m.c **** }
  49              		.loc 1 129 0
  50 0020 1EFF2FE1 		bx	lr
  51              	.L3:
  52              		.align	2
  53              	.L2:
  54 0024 00000000 		.word	.LC0
  55              		.cfi_endproc
  56              	.LFE4:
  58              		.section	.text.R_ADC_HWInitialise,"ax",%progbits
  59              		.align	2
  60              		.global	R_ADC_HWInitialise
  61              		.syntax unified
  62              		.arm
  63              		.fpu neon
  65              	R_ADC_HWInitialise:
  66              	.LFB5:
 130:D:/Work/DeviceTester/amazon-freertos/lib/third_party/mcu_vendor/renesas/rz_mcu_boards/core_package/generate/sc_drivers/r_adc/src/lld\r_adc_lld_rza2m.c **** /**************************************************************************************************
 131:D:/Work/DeviceTester/amazon-freertos/lib/third_party/mcu_vendor/renesas/rz_mcu_boards/core_package/generate/sc_drivers/r_adc/src/lld\r_adc_lld_rza2m.c ****  * End of function R_ADC_GetVersion
 132:D:/Work/DeviceTester/amazon-freertos/lib/third_party/mcu_vendor/renesas/rz_mcu_boards/core_package/generate/sc_drivers/r_adc/src/lld\r_adc_lld_rza2m.c ****  **************************************************************************************************
 133:D:/Work/DeviceTester/amazon-freertos/lib/third_party/mcu_vendor/renesas/rz_mcu_boards/core_package/generate/sc_drivers/r_adc/src/lld\r_adc_lld_rza2m.c **** 
 134:D:/Work/DeviceTester/amazon-freertos/lib/third_party/mcu_vendor/renesas/rz_mcu_boards/core_package/generate/sc_drivers/r_adc/src/lld\r_adc_lld_rza2m.c **** /**************************************************************************************************
 135:D:/Work/DeviceTester/amazon-freertos/lib/third_party/mcu_vendor/renesas/rz_mcu_boards/core_package/generate/sc_drivers/r_adc/src/lld\r_adc_lld_rza2m.c ****  * Function Name: R_ADC_HWInitialise
 136:D:/Work/DeviceTester/amazon-freertos/lib/third_party/mcu_vendor/renesas/rz_mcu_boards/core_package/generate/sc_drivers/r_adc/src/lld\r_adc_lld_rza2m.c ****  * Description  : Initialise the hardware
 137:D:/Work/DeviceTester/amazon-freertos/lib/third_party/mcu_vendor/renesas/rz_mcu_boards/core_package/generate/sc_drivers/r_adc/src/lld\r_adc_lld_rza2m.c ****  * Arguments    : None
 138:D:/Work/DeviceTester/amazon-freertos/lib/third_party/mcu_vendor/renesas/rz_mcu_boards/core_package/generate/sc_drivers/r_adc/src/lld\r_adc_lld_rza2m.c ****  * Return Value : ADC_ERR_FAILED or ADC_SUCCESS
 139:D:/Work/DeviceTester/amazon-freertos/lib/third_party/mcu_vendor/renesas/rz_mcu_boards/core_package/generate/sc_drivers/r_adc/src/lld\r_adc_lld_rza2m.c ****  **************************************************************************************************
 140:D:/Work/DeviceTester/amazon-freertos/lib/third_party/mcu_vendor/renesas/rz_mcu_boards/core_package/generate/sc_drivers/r_adc/src/lld\r_adc_lld_rza2m.c **** e_r_drv_adc_err_t R_ADC_HWInitialise(void)
 141:D:/Work/DeviceTester/amazon-freertos/lib/third_party/mcu_vendor/renesas/rz_mcu_boards/core_package/generate/sc_drivers/r_adc/src/lld\r_adc_lld_rza2m.c **** {
  67              		.loc 1 141 0
  68              		.cfi_startproc
  69              		@ args = 0, pretend = 0, frame = 0
  70              		@ frame_needed = 0, uses_anonymous_args = 0
  71 0000 70402DE9 		push	{r4, r5, r6, lr}
  72              		.cfi_def_cfa_offset 16
  73              		.cfi_offset 4, -16
  74              		.cfi_offset 5, -12
  75              		.cfi_offset 6, -8
  76              		.cfi_offset 14, -4
 142:D:/Work/DeviceTester/amazon-freertos/lib/third_party/mcu_vendor/renesas/rz_mcu_boards/core_package/generate/sc_drivers/r_adc/src/lld\r_adc_lld_rza2m.c ****     e_r_drv_adc_channel_t channel;
 143:D:/Work/DeviceTester/amazon-freertos/lib/third_party/mcu_vendor/renesas/rz_mcu_boards/core_package/generate/sc_drivers/r_adc/src/lld\r_adc_lld_rza2m.c ****     int_t delay;
 144:D:/Work/DeviceTester/amazon-freertos/lib/third_party/mcu_vendor/renesas/rz_mcu_boards/core_package/generate/sc_drivers/r_adc/src/lld\r_adc_lld_rza2m.c **** 
 145:D:/Work/DeviceTester/amazon-freertos/lib/third_party/mcu_vendor/renesas/rz_mcu_boards/core_package/generate/sc_drivers/r_adc/src/lld\r_adc_lld_rza2m.c ****     e_stb_err_t stb_return;
 146:D:/Work/DeviceTester/amazon-freertos/lib/third_party/mcu_vendor/renesas/rz_mcu_boards/core_package/generate/sc_drivers/r_adc/src/lld\r_adc_lld_rza2m.c **** 
 147:D:/Work/DeviceTester/amazon-freertos/lib/third_party/mcu_vendor/renesas/rz_mcu_boards/core_package/generate/sc_drivers/r_adc/src/lld\r_adc_lld_rza2m.c ****     /* enable the ADC module */
 148:D:/Work/DeviceTester/amazon-freertos/lib/third_party/mcu_vendor/renesas/rz_mcu_boards/core_package/generate/sc_drivers/r_adc/src/lld\r_adc_lld_rza2m.c ****     stb_return = R_STB_StartModule(MODULE_ADC);
  77              		.loc 1 148 0
  78 0004 0700A0E3 		mov	r0, #7
  79 0008 FEFFFFEB 		bl	R_STB_StartModule
  80              	.LVL2:
 149:D:/Work/DeviceTester/amazon-freertos/lib/third_party/mcu_vendor/renesas/rz_mcu_boards/core_package/generate/sc_drivers/r_adc/src/lld\r_adc_lld_rza2m.c **** 
 150:D:/Work/DeviceTester/amazon-freertos/lib/third_party/mcu_vendor/renesas/rz_mcu_boards/core_package/generate/sc_drivers/r_adc/src/lld\r_adc_lld_rza2m.c ****     if (STB_SUCCESS != stb_return)
  81              		.loc 1 150 0
  82 000c 000050E3 		cmp	r0, #0
  83 0010 8700001A 		bne	.L8
  84 0014 104702E3 		movw	r4, #10000
  85              	.L6:
  86              	.LVL3:
  87              	.LBB6:
  88              	.LBB7:
  89              		.file 2 "D:\\Work\\DeviceTester\\amazon-freertos\\lib\\third_party\\mcu_vendor\\renesas\\rz_mcu_bo
   1:D:\Work\DeviceTester\amazon-freertos\lib\third_party\mcu_vendor\renesas\rz_mcu_boards\core_package\generate\compiler\inc\r_compiler_abstraction_api.h **** /**************************************************************************************************
   2:D:\Work\DeviceTester\amazon-freertos\lib\third_party\mcu_vendor\renesas\rz_mcu_boards\core_package\generate\compiler\inc\r_compiler_abstraction_api.h ****  * DISCLAIMER
   3:D:\Work\DeviceTester\amazon-freertos\lib\third_party\mcu_vendor\renesas\rz_mcu_boards\core_package\generate\compiler\inc\r_compiler_abstraction_api.h ****  * This software is supplied by Renesas Electronics Corporation and is only intended for use with R
   4:D:\Work\DeviceTester\amazon-freertos\lib\third_party\mcu_vendor\renesas\rz_mcu_boards\core_package\generate\compiler\inc\r_compiler_abstraction_api.h ****  * other uses are authorized. This software is owned by Renesas Electronics Corporation and is prot
   5:D:\Work\DeviceTester\amazon-freertos\lib\third_party\mcu_vendor\renesas\rz_mcu_boards\core_package\generate\compiler\inc\r_compiler_abstraction_api.h ****  * applicable laws, including copyright laws.
   6:D:\Work\DeviceTester\amazon-freertos\lib\third_party\mcu_vendor\renesas\rz_mcu_boards\core_package\generate\compiler\inc\r_compiler_abstraction_api.h ****  * THIS SOFTWARE IS PROVIDED "AS IS" AND RENESAS MAKES NO WARRANTIES REGARDING
   7:D:\Work\DeviceTester\amazon-freertos\lib\third_party\mcu_vendor\renesas\rz_mcu_boards\core_package\generate\compiler\inc\r_compiler_abstraction_api.h ****  * THIS SOFTWARE, WHETHER EXPRESS, IMPLIED OR STATUTORY, INCLUDING BUT NOT LIMITED TO WARRANTIES OF
   8:D:\Work\DeviceTester\amazon-freertos\lib\third_party\mcu_vendor\renesas\rz_mcu_boards\core_package\generate\compiler\inc\r_compiler_abstraction_api.h ****  * FITNESS FOR A PARTICULAR PURPOSE AND NON-INFRINGEMENT. ALL SUCH WARRANTIES ARE EXPRESSLY DISCLAI
   9:D:\Work\DeviceTester\amazon-freertos\lib\third_party\mcu_vendor\renesas\rz_mcu_boards\core_package\generate\compiler\inc\r_compiler_abstraction_api.h ****  * EXTENT PERMITTED NOT PROHIBITED BY LAW, NEITHER RENESAS ELECTRONICS CORPORATION NOR ANY OF ITS A
  10:D:\Work\DeviceTester\amazon-freertos\lib\third_party\mcu_vendor\renesas\rz_mcu_boards\core_package\generate\compiler\inc\r_compiler_abstraction_api.h ****  * SHALL BE LIABLE FOR ANY DIRECT, INDIRECT, SPECIAL, INCIDENTAL OR CONSEQUENTIAL DAMAGES FOR ANY R
  11:D:\Work\DeviceTester\amazon-freertos\lib\third_party\mcu_vendor\renesas\rz_mcu_boards\core_package\generate\compiler\inc\r_compiler_abstraction_api.h ****  * SOFTWARE, EVEN IF RENESAS OR ITS AFFILIATES HAVE BEEN ADVISED OF THE POSSIBILITY OF SUCH DAMAGES
  12:D:\Work\DeviceTester\amazon-freertos\lib\third_party\mcu_vendor\renesas\rz_mcu_boards\core_package\generate\compiler\inc\r_compiler_abstraction_api.h ****  * Renesas reserves the right, without notice, to make changes to this software and to discontinue 
  13:D:\Work\DeviceTester\amazon-freertos\lib\third_party\mcu_vendor\renesas\rz_mcu_boards\core_package\generate\compiler\inc\r_compiler_abstraction_api.h ****  * this software. By using this software, you agree to the additional terms and conditions found by
  14:D:\Work\DeviceTester\amazon-freertos\lib\third_party\mcu_vendor\renesas\rz_mcu_boards\core_package\generate\compiler\inc\r_compiler_abstraction_api.h ****  * following link:
  15:D:\Work\DeviceTester\amazon-freertos\lib\third_party\mcu_vendor\renesas\rz_mcu_boards\core_package\generate\compiler\inc\r_compiler_abstraction_api.h ****  * http://www.renesas.com/disclaimer
  16:D:\Work\DeviceTester\amazon-freertos\lib\third_party\mcu_vendor\renesas\rz_mcu_boards\core_package\generate\compiler\inc\r_compiler_abstraction_api.h ****  *
  17:D:\Work\DeviceTester\amazon-freertos\lib\third_party\mcu_vendor\renesas\rz_mcu_boards\core_package\generate\compiler\inc\r_compiler_abstraction_api.h ****  * Copyright (C) 2020 Renesas Electronics Corporation. All rights reserved.
  18:D:\Work\DeviceTester\amazon-freertos\lib\third_party\mcu_vendor\renesas\rz_mcu_boards\core_package\generate\compiler\inc\r_compiler_abstraction_api.h ****  **************************************************************************************************
  19:D:\Work\DeviceTester\amazon-freertos\lib\third_party\mcu_vendor\renesas\rz_mcu_boards\core_package\generate\compiler\inc\r_compiler_abstraction_api.h **** /**************************************************************************************************
  20:D:\Work\DeviceTester\amazon-freertos\lib\third_party\mcu_vendor\renesas\rz_mcu_boards\core_package\generate\compiler\inc\r_compiler_abstraction_api.h ****  * File Name    : r_compiler_abstraction_api.h
  21:D:\Work\DeviceTester\amazon-freertos\lib\third_party\mcu_vendor\renesas\rz_mcu_boards\core_package\generate\compiler\inc\r_compiler_abstraction_api.h ****  * Description  : Provides a common API for frequently used compiler specific operations
  22:D:\Work\DeviceTester\amazon-freertos\lib\third_party\mcu_vendor\renesas\rz_mcu_boards\core_package\generate\compiler\inc\r_compiler_abstraction_api.h ****  **************************************************************************************************
  23:D:\Work\DeviceTester\amazon-freertos\lib\third_party\mcu_vendor\renesas\rz_mcu_boards\core_package\generate\compiler\inc\r_compiler_abstraction_api.h **** #include  "r_typedefs.h"
  24:D:\Work\DeviceTester\amazon-freertos\lib\third_party\mcu_vendor\renesas\rz_mcu_boards\core_package\generate\compiler\inc\r_compiler_abstraction_api.h **** 
  25:D:\Work\DeviceTester\amazon-freertos\lib\third_party\mcu_vendor\renesas\rz_mcu_boards\core_package\generate\compiler\inc\r_compiler_abstraction_api.h **** #ifndef SRC_PRV_RENESAS_COMPILER_INC_R_COMPILER_ABSTRACTION_API_H_
  26:D:\Work\DeviceTester\amazon-freertos\lib\third_party\mcu_vendor\renesas\rz_mcu_boards\core_package\generate\compiler\inc\r_compiler_abstraction_api.h **** #define SRC_PRV_RENESAS_COMPILER_INC_R_COMPILER_ABSTRACTION_API_H_
  27:D:\Work\DeviceTester\amazon-freertos\lib\third_party\mcu_vendor\renesas\rz_mcu_boards\core_package\generate\compiler\inc\r_compiler_abstraction_api.h **** 
  28:D:\Work\DeviceTester\amazon-freertos\lib\third_party\mcu_vendor\renesas\rz_mcu_boards\core_package\generate\compiler\inc\r_compiler_abstraction_api.h **** /* Macro is used to declare linkage to a function as weak so that it can be overridden by a normall
  29:D:\Work\DeviceTester\amazon-freertos\lib\third_party\mcu_vendor\renesas\rz_mcu_boards\core_package\generate\compiler\inc\r_compiler_abstraction_api.h ****  * Update this when using a different compiler. */
  30:D:\Work\DeviceTester\amazon-freertos\lib\third_party\mcu_vendor\renesas\rz_mcu_boards\core_package\generate\compiler\inc\r_compiler_abstraction_api.h **** #define R_COMPILER_WEAK __attribute__((weak))
  31:D:\Work\DeviceTester\amazon-freertos\lib\third_party\mcu_vendor\renesas\rz_mcu_boards\core_package\generate\compiler\inc\r_compiler_abstraction_api.h **** 
  32:D:\Work\DeviceTester\amazon-freertos\lib\third_party\mcu_vendor\renesas\rz_mcu_boards\core_package\generate\compiler\inc\r_compiler_abstraction_api.h **** #define R_COMPILER_INLINE static inline
  33:D:\Work\DeviceTester\amazon-freertos\lib\third_party\mcu_vendor\renesas\rz_mcu_boards\core_package\generate\compiler\inc\r_compiler_abstraction_api.h **** 
  34:D:\Work\DeviceTester\amazon-freertos\lib\third_party\mcu_vendor\renesas\rz_mcu_boards\core_package\generate\compiler\inc\r_compiler_abstraction_api.h **** extern void __enable_irq (void);
  35:D:\Work\DeviceTester\amazon-freertos\lib\third_party\mcu_vendor\renesas\rz_mcu_boards\core_package\generate\compiler\inc\r_compiler_abstraction_api.h **** extern uint32_t __disable_irq (void);
  36:D:\Work\DeviceTester\amazon-freertos\lib\third_party\mcu_vendor\renesas\rz_mcu_boards\core_package\generate\compiler\inc\r_compiler_abstraction_api.h **** extern void __enable_fiq (void);
  37:D:\Work\DeviceTester\amazon-freertos\lib\third_party\mcu_vendor\renesas\rz_mcu_boards\core_package\generate\compiler\inc\r_compiler_abstraction_api.h **** extern void __disable_fiq (void);
  38:D:\Work\DeviceTester\amazon-freertos\lib\third_party\mcu_vendor\renesas\rz_mcu_boards\core_package\generate\compiler\inc\r_compiler_abstraction_api.h **** 
  39:D:\Work\DeviceTester\amazon-freertos\lib\third_party\mcu_vendor\renesas\rz_mcu_boards\core_package\generate\compiler\inc\r_compiler_abstraction_api.h **** /**************************************************************************************************
  40:D:\Work\DeviceTester\amazon-freertos\lib\third_party\mcu_vendor\renesas\rz_mcu_boards\core_package\generate\compiler\inc\r_compiler_abstraction_api.h ****  * Function Name: R_COMPILER_Nop
  41:D:\Work\DeviceTester\amazon-freertos\lib\third_party\mcu_vendor\renesas\rz_mcu_boards\core_package\generate\compiler\inc\r_compiler_abstraction_api.h ****  * Description  : Abstracting a compiler No Operation opcode into a C function. Update this when us
  42:D:\Work\DeviceTester\amazon-freertos\lib\third_party\mcu_vendor\renesas\rz_mcu_boards\core_package\generate\compiler\inc\r_compiler_abstraction_api.h ****  *                compiler.
  43:D:\Work\DeviceTester\amazon-freertos\lib\third_party\mcu_vendor\renesas\rz_mcu_boards\core_package\generate\compiler\inc\r_compiler_abstraction_api.h ****  * Return Value : None.
  44:D:\Work\DeviceTester\amazon-freertos\lib\third_party\mcu_vendor\renesas\rz_mcu_boards\core_package\generate\compiler\inc\r_compiler_abstraction_api.h ****  **************************************************************************************************
  45:D:\Work\DeviceTester\amazon-freertos\lib\third_party\mcu_vendor\renesas\rz_mcu_boards\core_package\generate\compiler\inc\r_compiler_abstraction_api.h **** R_COMPILER_INLINE void R_COMPILER_Nop (void)
  46:D:\Work\DeviceTester\amazon-freertos\lib\third_party\mcu_vendor\renesas\rz_mcu_boards\core_package\generate\compiler\inc\r_compiler_abstraction_api.h ****     {
  47:D:\Work\DeviceTester\amazon-freertos\lib\third_party\mcu_vendor\renesas\rz_mcu_boards\core_package\generate\compiler\inc\r_compiler_abstraction_api.h ****         __asm volatile ("nop");
  90              		.loc 2 47 0
  91              		.syntax divided
  92              	@ 47 "D:\Work\DeviceTester\amazon-freertos\lib\third_party\mcu_vendor\renesas\rz_mcu_boards\core_pa
  93 0018 00F020E3 		nop
  94              	@ 0 "" 2
  95              	.LVL4:
  96              		.arm
  97              		.syntax unified
  98              	.LBE7:
  99              	.LBE6:
 151:D:/Work/DeviceTester/amazon-freertos/lib/third_party/mcu_vendor/renesas/rz_mcu_boards/core_package/generate/sc_drivers/r_adc/src/lld\r_adc_lld_rza2m.c ****     {
 152:D:/Work/DeviceTester/amazon-freertos/lib/third_party/mcu_vendor/renesas/rz_mcu_boards/core_package/generate/sc_drivers/r_adc/src/lld\r_adc_lld_rza2m.c ****         return ADC_ERR_FAILED;
 153:D:/Work/DeviceTester/amazon-freertos/lib/third_party/mcu_vendor/renesas/rz_mcu_boards/core_package/generate/sc_drivers/r_adc/src/lld\r_adc_lld_rza2m.c ****     }
 154:D:/Work/DeviceTester/amazon-freertos/lib/third_party/mcu_vendor/renesas/rz_mcu_boards/core_package/generate/sc_drivers/r_adc/src/lld\r_adc_lld_rza2m.c **** 
 155:D:/Work/DeviceTester/amazon-freertos/lib/third_party/mcu_vendor/renesas/rz_mcu_boards/core_package/generate/sc_drivers/r_adc/src/lld\r_adc_lld_rza2m.c ****     /* a delay to allow the converter to settle */
 156:D:/Work/DeviceTester/amazon-freertos/lib/third_party/mcu_vendor/renesas/rz_mcu_boards/core_package/generate/sc_drivers/r_adc/src/lld\r_adc_lld_rza2m.c ****     for (delay = 0; delay < 10000; delay++)
 100              		.loc 1 156 0
 101 001c 014054E2 		subs	r4, r4, #1
 102              	.LVL5:
 103 0020 FCFFFF1A 		bne	.L6
 157:D:/Work/DeviceTester/amazon-freertos/lib/third_party/mcu_vendor/renesas/rz_mcu_boards/core_package/generate/sc_drivers/r_adc/src/lld\r_adc_lld_rza2m.c ****     {
 158:D:/Work/DeviceTester/amazon-freertos/lib/third_party/mcu_vendor/renesas/rz_mcu_boards/core_package/generate/sc_drivers/r_adc/src/lld\r_adc_lld_rza2m.c ****         R_COMPILER_Nop();
 159:D:/Work/DeviceTester/amazon-freertos/lib/third_party/mcu_vendor/renesas/rz_mcu_boards/core_package/generate/sc_drivers/r_adc/src/lld\r_adc_lld_rza2m.c ****     }
 160:D:/Work/DeviceTester/amazon-freertos/lib/third_party/mcu_vendor/renesas/rz_mcu_boards/core_package/generate/sc_drivers/r_adc/src/lld\r_adc_lld_rza2m.c **** 
 161:D:/Work/DeviceTester/amazon-freertos/lib/third_party/mcu_vendor/renesas/rz_mcu_boards/core_package/generate/sc_drivers/r_adc/src/lld\r_adc_lld_rza2m.c ****     /* write zero to all registers */
 162:D:/Work/DeviceTester/amazon-freertos/lib/third_party/mcu_vendor/renesas/rz_mcu_boards/core_package/generate/sc_drivers/r_adc/src/lld\r_adc_lld_rza2m.c ****     RZA_IO_RegWrite_16(&ADC.ADCSR.WORD, 0, IOREG_NONSHIFT_ACCESS, IOREG_NONMASK_ACCESS);
 104              		.loc 1 162 0
 105 0024 0420A0E1 		mov	r2, r4
 106 0028 0410A0E1 		mov	r1, r4
 107 002c 0030E0E3 		mvn	r3, #0
 108 0030 04029FE5 		ldr	r0, .L12
 109              	.LVL6:
 110 0034 FEFFFFEB 		bl	RZA_IO_RegWrite_16
 111              	.LVL7:
 163:D:/Work/DeviceTester/amazon-freertos/lib/third_party/mcu_vendor/renesas/rz_mcu_boards/core_package/generate/sc_drivers/r_adc/src/lld\r_adc_lld_rza2m.c ****     RZA_IO_RegWrite_16(&ADC.ADANSA0.WORD, 0, IOREG_NONSHIFT_ACCESS, IOREG_NONMASK_ACCESS);
 112              		.loc 1 163 0
 113 0038 0420A0E1 		mov	r2, r4
 114 003c 0410A0E1 		mov	r1, r4
 115 0040 0030E0E3 		mvn	r3, #0
 116 0044 F4019FE5 		ldr	r0, .L12+4
 117 0048 FEFFFFEB 		bl	RZA_IO_RegWrite_16
 118              	.LVL8:
 164:D:/Work/DeviceTester/amazon-freertos/lib/third_party/mcu_vendor/renesas/rz_mcu_boards/core_package/generate/sc_drivers/r_adc/src/lld\r_adc_lld_rza2m.c ****     RZA_IO_RegWrite_16(&ADC.ADADS0.WORD, 0, IOREG_NONSHIFT_ACCESS, IOREG_NONMASK_ACCESS);
 119              		.loc 1 164 0
 120 004c 0420A0E1 		mov	r2, r4
 121 0050 0410A0E1 		mov	r1, r4
 122 0054 0030E0E3 		mvn	r3, #0
 123 0058 E4019FE5 		ldr	r0, .L12+8
 124 005c FEFFFFEB 		bl	RZA_IO_RegWrite_16
 125              	.LVL9:
 165:D:/Work/DeviceTester/amazon-freertos/lib/third_party/mcu_vendor/renesas/rz_mcu_boards/core_package/generate/sc_drivers/r_adc/src/lld\r_adc_lld_rza2m.c ****     RZA_IO_RegWrite_8(&ADC.ADADC.BYTE, 0, IOREG_NONSHIFT_ACCESS, IOREG_NONMASK_ACCESS);
 126              		.loc 1 165 0
 127 0060 0420A0E1 		mov	r2, r4
 128 0064 0410A0E1 		mov	r1, r4
 129 0068 0030E0E3 		mvn	r3, #0
 130 006c D4019FE5 		ldr	r0, .L12+12
 131 0070 FEFFFFEB 		bl	RZA_IO_RegWrite_8
 132              	.LVL10:
 166:D:/Work/DeviceTester/amazon-freertos/lib/third_party/mcu_vendor/renesas/rz_mcu_boards/core_package/generate/sc_drivers/r_adc/src/lld\r_adc_lld_rza2m.c ****     RZA_IO_RegWrite_16(&ADC.ADCER.WORD, 0, IOREG_NONSHIFT_ACCESS, IOREG_NONMASK_ACCESS);
 133              		.loc 1 166 0
 134 0074 0420A0E1 		mov	r2, r4
 135 0078 0410A0E1 		mov	r1, r4
 136 007c 0030E0E3 		mvn	r3, #0
 137 0080 C4019FE5 		ldr	r0, .L12+16
 138 0084 FEFFFFEB 		bl	RZA_IO_RegWrite_16
 139              	.LVL11:
 167:D:/Work/DeviceTester/amazon-freertos/lib/third_party/mcu_vendor/renesas/rz_mcu_boards/core_package/generate/sc_drivers/r_adc/src/lld\r_adc_lld_rza2m.c ****     RZA_IO_RegWrite_16(&ADC.ADSTRGR.WORD, 0, IOREG_NONSHIFT_ACCESS, IOREG_NONMASK_ACCESS);
 140              		.loc 1 167 0
 141 0088 0420A0E1 		mov	r2, r4
 142 008c 0410A0E1 		mov	r1, r4
 143 0090 0030E0E3 		mvn	r3, #0
 144 0094 B4019FE5 		ldr	r0, .L12+20
 145 0098 FEFFFFEB 		bl	RZA_IO_RegWrite_16
 146              	.LVL12:
 168:D:/Work/DeviceTester/amazon-freertos/lib/third_party/mcu_vendor/renesas/rz_mcu_boards/core_package/generate/sc_drivers/r_adc/src/lld\r_adc_lld_rza2m.c ****     RZA_IO_RegWrite_16(&ADC.ADANSB0.WORD, 0, IOREG_NONSHIFT_ACCESS, IOREG_NONMASK_ACCESS);
 147              		.loc 1 168 0
 148 009c 0420A0E1 		mov	r2, r4
 149 00a0 0410A0E1 		mov	r1, r4
 150 00a4 0030E0E3 		mvn	r3, #0
 151 00a8 A4019FE5 		ldr	r0, .L12+24
 152 00ac FEFFFFEB 		bl	RZA_IO_RegWrite_16
 153              	.LVL13:
 169:D:/Work/DeviceTester/amazon-freertos/lib/third_party/mcu_vendor/renesas/rz_mcu_boards/core_package/generate/sc_drivers/r_adc/src/lld\r_adc_lld_rza2m.c ****     RZA_IO_RegWrite_16(&ADC.ADDBLDR.WORD, 0, IOREG_NONSHIFT_ACCESS, IOREG_NONMASK_ACCESS);
 154              		.loc 1 169 0
 155 00b0 0420A0E1 		mov	r2, r4
 156 00b4 0410A0E1 		mov	r1, r4
 157 00b8 0030E0E3 		mvn	r3, #0
 158 00bc 94019FE5 		ldr	r0, .L12+28
 159 00c0 FEFFFFEB 		bl	RZA_IO_RegWrite_16
 160              	.LVL14:
 170:D:/Work/DeviceTester/amazon-freertos/lib/third_party/mcu_vendor/renesas/rz_mcu_boards/core_package/generate/sc_drivers/r_adc/src/lld\r_adc_lld_rza2m.c ****     RZA_IO_RegWrite_16(&ADC.ADRD.WORD, 0, IOREG_NONSHIFT_ACCESS, IOREG_NONMASK_ACCESS);
 161              		.loc 1 170 0
 162 00c4 0420A0E1 		mov	r2, r4
 163 00c8 0410A0E1 		mov	r1, r4
 164 00cc 0030E0E3 		mvn	r3, #0
 165 00d0 84019FE5 		ldr	r0, .L12+32
 166 00d4 FEFFFFEB 		bl	RZA_IO_RegWrite_16
 167              	.LVL15:
 171:D:/Work/DeviceTester/amazon-freertos/lib/third_party/mcu_vendor/renesas/rz_mcu_boards/core_package/generate/sc_drivers/r_adc/src/lld\r_adc_lld_rza2m.c ****     RZA_IO_RegWrite_8(&ADC.ADDISCR.BYTE, 0, IOREG_NONSHIFT_ACCESS, IOREG_NONMASK_ACCESS);
 168              		.loc 1 171 0
 169 00d8 0420A0E1 		mov	r2, r4
 170 00dc 0410A0E1 		mov	r1, r4
 171 00e0 0030E0E3 		mvn	r3, #0
 172 00e4 74019FE5 		ldr	r0, .L12+36
 173 00e8 FEFFFFEB 		bl	RZA_IO_RegWrite_8
 174              	.LVL16:
 172:D:/Work/DeviceTester/amazon-freertos/lib/third_party/mcu_vendor/renesas/rz_mcu_boards/core_package/generate/sc_drivers/r_adc/src/lld\r_adc_lld_rza2m.c ****     RZA_IO_RegWrite_16(&ADC.ADGSPCR.WORD, 0, IOREG_NONSHIFT_ACCESS, IOREG_NONMASK_ACCESS);
 175              		.loc 1 172 0
 176 00ec 0420A0E1 		mov	r2, r4
 177 00f0 0410A0E1 		mov	r1, r4
 178 00f4 0030E0E3 		mvn	r3, #0
 179 00f8 64019FE5 		ldr	r0, .L12+40
 180 00fc FEFFFFEB 		bl	RZA_IO_RegWrite_16
 181              	.LVL17:
 173:D:/Work/DeviceTester/amazon-freertos/lib/third_party/mcu_vendor/renesas/rz_mcu_boards/core_package/generate/sc_drivers/r_adc/src/lld\r_adc_lld_rza2m.c ****     RZA_IO_RegWrite_16(&ADC.ADDBLDRA.WORD, 0, IOREG_NONSHIFT_ACCESS, IOREG_NONMASK_ACCESS);
 182              		.loc 1 173 0
 183 0100 0420A0E1 		mov	r2, r4
 184 0104 0410A0E1 		mov	r1, r4
 185 0108 0030E0E3 		mvn	r3, #0
 186 010c 54019FE5 		ldr	r0, .L12+44
 187 0110 FEFFFFEB 		bl	RZA_IO_RegWrite_16
 188              	.LVL18:
 174:D:/Work/DeviceTester/amazon-freertos/lib/third_party/mcu_vendor/renesas/rz_mcu_boards/core_package/generate/sc_drivers/r_adc/src/lld\r_adc_lld_rza2m.c ****     RZA_IO_RegWrite_16(&ADC.ADDBLDRB.WORD, 0, IOREG_NONSHIFT_ACCESS, IOREG_NONMASK_ACCESS);
 189              		.loc 1 174 0
 190 0114 0420A0E1 		mov	r2, r4
 191 0118 0410A0E1 		mov	r1, r4
 192 011c 0030E0E3 		mvn	r3, #0
 193 0120 44019FE5 		ldr	r0, .L12+48
 194 0124 FEFFFFEB 		bl	RZA_IO_RegWrite_16
 195              	.LVL19:
 175:D:/Work/DeviceTester/amazon-freertos/lib/third_party/mcu_vendor/renesas/rz_mcu_boards/core_package/generate/sc_drivers/r_adc/src/lld\r_adc_lld_rza2m.c ****     RZA_IO_RegWrite_16(&ADC.ADCMPCR.WORD, 0, IOREG_NONSHIFT_ACCESS, IOREG_NONMASK_ACCESS);
 196              		.loc 1 175 0
 197 0128 0420A0E1 		mov	r2, r4
 198 012c 0410A0E1 		mov	r1, r4
 199 0130 0030E0E3 		mvn	r3, #0
 200 0134 34019FE5 		ldr	r0, .L12+52
 201 0138 FEFFFFEB 		bl	RZA_IO_RegWrite_16
 202              	.LVL20:
 176:D:/Work/DeviceTester/amazon-freertos/lib/third_party/mcu_vendor/renesas/rz_mcu_boards/core_package/generate/sc_drivers/r_adc/src/lld\r_adc_lld_rza2m.c ****     RZA_IO_RegWrite_16(&ADC.ADCMPANSR0.WORD, 0, IOREG_NONSHIFT_ACCESS, IOREG_NONMASK_ACCESS);
 203              		.loc 1 176 0
 204 013c 0420A0E1 		mov	r2, r4
 205 0140 0410A0E1 		mov	r1, r4
 206 0144 0030E0E3 		mvn	r3, #0
 207 0148 24019FE5 		ldr	r0, .L12+56
 208 014c FEFFFFEB 		bl	RZA_IO_RegWrite_16
 209              	.LVL21:
 177:D:/Work/DeviceTester/amazon-freertos/lib/third_party/mcu_vendor/renesas/rz_mcu_boards/core_package/generate/sc_drivers/r_adc/src/lld\r_adc_lld_rza2m.c ****     RZA_IO_RegWrite_16(&ADC.ADCMPLR0.WORD, 0, IOREG_NONSHIFT_ACCESS, IOREG_NONMASK_ACCESS);
 210              		.loc 1 177 0
 211 0150 0420A0E1 		mov	r2, r4
 212 0154 0410A0E1 		mov	r1, r4
 213 0158 0030E0E3 		mvn	r3, #0
 214 015c 14019FE5 		ldr	r0, .L12+60
 215 0160 FEFFFFEB 		bl	RZA_IO_RegWrite_16
 216              	.LVL22:
 178:D:/Work/DeviceTester/amazon-freertos/lib/third_party/mcu_vendor/renesas/rz_mcu_boards/core_package/generate/sc_drivers/r_adc/src/lld\r_adc_lld_rza2m.c ****     RZA_IO_RegWrite_16(&ADC.ADCMPDR0.WORD, 0, IOREG_NONSHIFT_ACCESS, IOREG_NONMASK_ACCESS);
 217              		.loc 1 178 0
 218 0164 0420A0E1 		mov	r2, r4
 219 0168 0410A0E1 		mov	r1, r4
 220 016c 0030E0E3 		mvn	r3, #0
 221 0170 04019FE5 		ldr	r0, .L12+64
 222 0174 FEFFFFEB 		bl	RZA_IO_RegWrite_16
 223              	.LVL23:
 179:D:/Work/DeviceTester/amazon-freertos/lib/third_party/mcu_vendor/renesas/rz_mcu_boards/core_package/generate/sc_drivers/r_adc/src/lld\r_adc_lld_rza2m.c ****     RZA_IO_RegWrite_16(&ADC.ADCMPDR1.WORD, 0, IOREG_NONSHIFT_ACCESS, IOREG_NONMASK_ACCESS);
 224              		.loc 1 179 0
 225 0178 0420A0E1 		mov	r2, r4
 226 017c 0410A0E1 		mov	r1, r4
 227 0180 0030E0E3 		mvn	r3, #0
 228 0184 F4009FE5 		ldr	r0, .L12+68
 229 0188 FEFFFFEB 		bl	RZA_IO_RegWrite_16
 230              	.LVL24:
 180:D:/Work/DeviceTester/amazon-freertos/lib/third_party/mcu_vendor/renesas/rz_mcu_boards/core_package/generate/sc_drivers/r_adc/src/lld\r_adc_lld_rza2m.c ****     RZA_IO_RegWrite_16(&ADC.ADCMPSR0.WORD, 0, IOREG_NONSHIFT_ACCESS, IOREG_NONMASK_ACCESS);
 231              		.loc 1 180 0
 232 018c 0420A0E1 		mov	r2, r4
 233 0190 0410A0E1 		mov	r1, r4
 234 0194 0030E0E3 		mvn	r3, #0
 235 0198 E4009FE5 		ldr	r0, .L12+72
 236 019c FEFFFFEB 		bl	RZA_IO_RegWrite_16
 237              	.LVL25:
 181:D:/Work/DeviceTester/amazon-freertos/lib/third_party/mcu_vendor/renesas/rz_mcu_boards/core_package/generate/sc_drivers/r_adc/src/lld\r_adc_lld_rza2m.c ****     RZA_IO_RegWrite_8(&ADC.ADCMPBNSR.BYTE, 0, IOREG_NONSHIFT_ACCESS, IOREG_NONMASK_ACCESS);
 238              		.loc 1 181 0
 239 01a0 0420A0E1 		mov	r2, r4
 240 01a4 0410A0E1 		mov	r1, r4
 241 01a8 0030E0E3 		mvn	r3, #0
 242 01ac D4009FE5 		ldr	r0, .L12+76
 243 01b0 FEFFFFEB 		bl	RZA_IO_RegWrite_8
 244              	.LVL26:
 182:D:/Work/DeviceTester/amazon-freertos/lib/third_party/mcu_vendor/renesas/rz_mcu_boards/core_package/generate/sc_drivers/r_adc/src/lld\r_adc_lld_rza2m.c ****     RZA_IO_RegWrite_16(&ADC.ADWINLLB.WORD, 0, IOREG_NONSHIFT_ACCESS, IOREG_NONMASK_ACCESS);
 245              		.loc 1 182 0
 246 01b4 0420A0E1 		mov	r2, r4
 247 01b8 0410A0E1 		mov	r1, r4
 248 01bc 0030E0E3 		mvn	r3, #0
 249 01c0 C4009FE5 		ldr	r0, .L12+80
 250 01c4 FEFFFFEB 		bl	RZA_IO_RegWrite_16
 251              	.LVL27:
 183:D:/Work/DeviceTester/amazon-freertos/lib/third_party/mcu_vendor/renesas/rz_mcu_boards/core_package/generate/sc_drivers/r_adc/src/lld\r_adc_lld_rza2m.c ****     RZA_IO_RegWrite_16(&ADC.ADWINULB.WORD, 0, IOREG_NONSHIFT_ACCESS, IOREG_NONMASK_ACCESS);
 252              		.loc 1 183 0
 253 01c8 0420A0E1 		mov	r2, r4
 254 01cc 0410A0E1 		mov	r1, r4
 255 01d0 0030E0E3 		mvn	r3, #0
 256 01d4 B4009FE5 		ldr	r0, .L12+84
 257 01d8 FEFFFFEB 		bl	RZA_IO_RegWrite_16
 258              	.LVL28:
 184:D:/Work/DeviceTester/amazon-freertos/lib/third_party/mcu_vendor/renesas/rz_mcu_boards/core_package/generate/sc_drivers/r_adc/src/lld\r_adc_lld_rza2m.c ****     RZA_IO_RegWrite_16(&ADC.ADANSC0.WORD, 0, IOREG_NONSHIFT_ACCESS, IOREG_NONMASK_ACCESS);
 259              		.loc 1 184 0
 260 01dc 0420A0E1 		mov	r2, r4
 261 01e0 0410A0E1 		mov	r1, r4
 262 01e4 0030E0E3 		mvn	r3, #0
 263 01e8 A4009FE5 		ldr	r0, .L12+88
 264 01ec FEFFFFEB 		bl	RZA_IO_RegWrite_16
 265              	.LVL29:
 185:D:/Work/DeviceTester/amazon-freertos/lib/third_party/mcu_vendor/renesas/rz_mcu_boards/core_package/generate/sc_drivers/r_adc/src/lld\r_adc_lld_rza2m.c ****     RZA_IO_RegWrite_8(&ADC.ADGCTRGR.BYTE, 0, IOREG_NONSHIFT_ACCESS, IOREG_NONMASK_ACCESS);
 186:D:/Work/DeviceTester/amazon-freertos/lib/third_party/mcu_vendor/renesas/rz_mcu_boards/core_package/generate/sc_drivers/r_adc/src/lld\r_adc_lld_rza2m.c **** 
 187:D:/Work/DeviceTester/amazon-freertos/lib/third_party/mcu_vendor/renesas/rz_mcu_boards/core_package/generate/sc_drivers/r_adc/src/lld\r_adc_lld_rza2m.c ****     /* A/D Sampling State Register n */
 188:D:/Work/DeviceTester/amazon-freertos/lib/third_party/mcu_vendor/renesas/rz_mcu_boards/core_package/generate/sc_drivers/r_adc/src/lld\r_adc_lld_rza2m.c ****     for (channel = ADC_CHANNEL_AN000; channel < ADC_CHANNELS; channel++)
 266              		.loc 1 188 0
 267 01f0 A0509FE5 		ldr	r5, .L12+92
 185:D:/Work/DeviceTester/amazon-freertos/lib/third_party/mcu_vendor/renesas/rz_mcu_boards/core_package/generate/sc_drivers/r_adc/src/lld\r_adc_lld_rza2m.c ****     RZA_IO_RegWrite_8(&ADC.ADGCTRGR.BYTE, 0, IOREG_NONSHIFT_ACCESS, IOREG_NONMASK_ACCESS);
 268              		.loc 1 185 0
 269 01f4 0420A0E1 		mov	r2, r4
 270 01f8 0410A0E1 		mov	r1, r4
 271 01fc 98409FE5 		ldr	r4, .L12+96
 272              	.LVL30:
 273 0200 0030E0E3 		mvn	r3, #0
 274 0204 94009FE5 		ldr	r0, .L12+100
 275 0208 FEFFFFEB 		bl	RZA_IO_RegWrite_8
 276              	.LVL31:
 277              	.L7:
 189:D:/Work/DeviceTester/amazon-freertos/lib/third_party/mcu_vendor/renesas/rz_mcu_boards/core_package/generate/sc_drivers/r_adc/src/lld\r_adc_lld_rza2m.c ****     {
 190:D:/Work/DeviceTester/amazon-freertos/lib/third_party/mcu_vendor/renesas/rz_mcu_boards/core_package/generate/sc_drivers/r_adc/src/lld\r_adc_lld_rza2m.c ****         RZA_IO_RegWrite_8((&ADC.ADSSTR0.BYTE) + channel, 0, IOREG_NONSHIFT_ACCESS, IOREG_NONMASK_AC
 278              		.loc 1 190 0 discriminator 3
 279 020c 0020A0E3 		mov	r2, #0
 280 0210 0400A0E1 		mov	r0, r4
 281 0214 0030E0E3 		mvn	r3, #0
 282 0218 0210A0E1 		mov	r1, r2
 283 021c 014084E2 		add	r4, r4, #1
 284              	.LVL32:
 285 0220 FEFFFFEB 		bl	RZA_IO_RegWrite_8
 286              	.LVL33:
 188:D:/Work/DeviceTester/amazon-freertos/lib/third_party/mcu_vendor/renesas/rz_mcu_boards/core_package/generate/sc_drivers/r_adc/src/lld\r_adc_lld_rza2m.c ****     {
 287              		.loc 1 188 0 discriminator 3
 288 0224 050054E1 		cmp	r4, r5
 289 0228 F7FFFF1A 		bne	.L7
 191:D:/Work/DeviceTester/amazon-freertos/lib/third_party/mcu_vendor/renesas/rz_mcu_boards/core_package/generate/sc_drivers/r_adc/src/lld\r_adc_lld_rza2m.c ****     }
 192:D:/Work/DeviceTester/amazon-freertos/lib/third_party/mcu_vendor/renesas/rz_mcu_boards/core_package/generate/sc_drivers/r_adc/src/lld\r_adc_lld_rza2m.c **** 
 193:D:/Work/DeviceTester/amazon-freertos/lib/third_party/mcu_vendor/renesas/rz_mcu_boards/core_package/generate/sc_drivers/r_adc/src/lld\r_adc_lld_rza2m.c ****     return ADC_SUCCESS;
 290              		.loc 1 193 0
 291 022c 0000A0E3 		mov	r0, #0
 292 0230 7080BDE8 		pop	{r4, r5, r6, pc}
 293              	.LVL34:
 294              	.L8:
 152:D:/Work/DeviceTester/amazon-freertos/lib/third_party/mcu_vendor/renesas/rz_mcu_boards/core_package/generate/sc_drivers/r_adc/src/lld\r_adc_lld_rza2m.c ****     }
 295              		.loc 1 152 0
 296 0234 0000E0E3 		mvn	r0, #0
 297              	.LVL35:
 194:D:/Work/DeviceTester/amazon-freertos/lib/third_party/mcu_vendor/renesas/rz_mcu_boards/core_package/generate/sc_drivers/r_adc/src/lld\r_adc_lld_rza2m.c **** }
 298              		.loc 1 194 0
 299 0238 7080BDE8 		pop	{r4, r5, r6, pc}
 300              	.L13:
 301              		.align	2
 302              	.L12:
 303 023c 005800E8 		.word	-402630656
 304 0240 045800E8 		.word	-402630652
 305 0244 085800E8 		.word	-402630648
 306 0248 0C5800E8 		.word	-402630644
 307 024c 0E5800E8 		.word	-402630642
 308 0250 105800E8 		.word	-402630640
 309 0254 145800E8 		.word	-402630636
 310 0258 185800E8 		.word	-402630632
 311 025c 1E5800E8 		.word	-402630626
 312 0260 7A5800E8 		.word	-402630534
 313 0264 805800E8 		.word	-402630528
 314 0268 845800E8 		.word	-402630524
 315 026c 865800E8 		.word	-402630522
 316 0270 905800E8 		.word	-402630512
 317 0274 945800E8 		.word	-402630508
 318 0278 985800E8 		.word	-402630504
 319 027c 9C5800E8 		.word	-402630500
 320 0280 9E5800E8 		.word	-402630498
 321 0284 A05800E8 		.word	-402630496
 322 0288 A65800E8 		.word	-402630490
 323 028c A85800E8 		.word	-402630488
 324 0290 AA5800E8 		.word	-402630486
 325 0294 D45800E8 		.word	-402630444
 326 0298 E85800E8 		.word	-402630424
 327 029c E05800E8 		.word	-402630432
 328 02a0 D95800E8 		.word	-402630439
 329              		.cfi_endproc
 330              	.LFE5:
 332              		.section	.text.R_ADC_HWUninitialise,"ax",%progbits
 333              		.align	2
 334              		.global	R_ADC_HWUninitialise
 335              		.syntax unified
 336              		.arm
 337              		.fpu neon
 339              	R_ADC_HWUninitialise:
 340              	.LFB7:
 195:D:/Work/DeviceTester/amazon-freertos/lib/third_party/mcu_vendor/renesas/rz_mcu_boards/core_package/generate/sc_drivers/r_adc/src/lld\r_adc_lld_rza2m.c **** /**************************************************************************************************
 196:D:/Work/DeviceTester/amazon-freertos/lib/third_party/mcu_vendor/renesas/rz_mcu_boards/core_package/generate/sc_drivers/r_adc/src/lld\r_adc_lld_rza2m.c ****  * End of function R_ADC_HWInitialise
 197:D:/Work/DeviceTester/amazon-freertos/lib/third_party/mcu_vendor/renesas/rz_mcu_boards/core_package/generate/sc_drivers/r_adc/src/lld\r_adc_lld_rza2m.c ****  **************************************************************************************************
 198:D:/Work/DeviceTester/amazon-freertos/lib/third_party/mcu_vendor/renesas/rz_mcu_boards/core_package/generate/sc_drivers/r_adc/src/lld\r_adc_lld_rza2m.c **** 
 199:D:/Work/DeviceTester/amazon-freertos/lib/third_party/mcu_vendor/renesas/rz_mcu_boards/core_package/generate/sc_drivers/r_adc/src/lld\r_adc_lld_rza2m.c **** /**************************************************************************************************
 200:D:/Work/DeviceTester/amazon-freertos/lib/third_party/mcu_vendor/renesas/rz_mcu_boards/core_package/generate/sc_drivers/r_adc/src/lld\r_adc_lld_rza2m.c ****  * Function Name: R_ADC_LoadInitialConfiguration
 201:D:/Work/DeviceTester/amazon-freertos/lib/third_party/mcu_vendor/renesas/rz_mcu_boards/core_package/generate/sc_drivers/r_adc/src/lld\r_adc_lld_rza2m.c ****  * Description  : Load the initial configuration from the SC style table
 202:D:/Work/DeviceTester/amazon-freertos/lib/third_party/mcu_vendor/renesas/rz_mcu_boards/core_package/generate/sc_drivers/r_adc/src/lld\r_adc_lld_rza2m.c ****  * Arguments    : p_userCallback[out] - pointer to user callback function pointer
 203:D:/Work/DeviceTester/amazon-freertos/lib/third_party/mcu_vendor/renesas/rz_mcu_boards/core_package/generate/sc_drivers/r_adc/src/lld\r_adc_lld_rza2m.c ****  * Return Value : ADC_SUCCESS or ADC_ERR_INVALID_CFG
 204:D:/Work/DeviceTester/amazon-freertos/lib/third_party/mcu_vendor/renesas/rz_mcu_boards/core_package/generate/sc_drivers/r_adc/src/lld\r_adc_lld_rza2m.c ****  **************************************************************************************************
 205:D:/Work/DeviceTester/amazon-freertos/lib/third_party/mcu_vendor/renesas/rz_mcu_boards/core_package/generate/sc_drivers/r_adc/src/lld\r_adc_lld_rza2m.c **** e_r_drv_adc_err_t R_ADC_LoadInitialConfiguration(void (**p_userCallback)(e_r_drv_adc_callback_reaso
 206:D:/Work/DeviceTester/amazon-freertos/lib/third_party/mcu_vendor/renesas/rz_mcu_boards/core_package/generate/sc_drivers/r_adc/src/lld\r_adc_lld_rza2m.c **** {
 207:D:/Work/DeviceTester/amazon-freertos/lib/third_party/mcu_vendor/renesas/rz_mcu_boards/core_package/generate/sc_drivers/r_adc/src/lld\r_adc_lld_rza2m.c ****     st_r_drv_adc_unit_config_t adc_config;
 208:D:/Work/DeviceTester/amazon-freertos/lib/third_party/mcu_vendor/renesas/rz_mcu_boards/core_package/generate/sc_drivers/r_adc/src/lld\r_adc_lld_rza2m.c **** 
 209:D:/Work/DeviceTester/amazon-freertos/lib/third_party/mcu_vendor/renesas/rz_mcu_boards/core_package/generate/sc_drivers/r_adc/src/lld\r_adc_lld_rza2m.c ****     /* Smart Configuration style initialisation */
 210:D:/Work/DeviceTester/amazon-freertos/lib/third_party/mcu_vendor/renesas/rz_mcu_boards/core_package/generate/sc_drivers/r_adc/src/lld\r_adc_lld_rza2m.c ****     adc_config.resolution = ADC_SC_TABLE.resolution;
 211:D:/Work/DeviceTester/amazon-freertos/lib/third_party/mcu_vendor/renesas/rz_mcu_boards/core_package/generate/sc_drivers/r_adc/src/lld\r_adc_lld_rza2m.c ****     adc_config.alignment = ADC_SC_TABLE.alignment;
 212:D:/Work/DeviceTester/amazon-freertos/lib/third_party/mcu_vendor/renesas/rz_mcu_boards/core_package/generate/sc_drivers/r_adc/src/lld\r_adc_lld_rza2m.c ****     adc_config.scan_mode = ADC_SC_TABLE.scan_mode;
 213:D:/Work/DeviceTester/amazon-freertos/lib/third_party/mcu_vendor/renesas/rz_mcu_boards/core_package/generate/sc_drivers/r_adc/src/lld\r_adc_lld_rza2m.c ****     adc_config.p_adcCallback = ADC_SC_TABLE.p_adcCallback;
 214:D:/Work/DeviceTester/amazon-freertos/lib/third_party/mcu_vendor/renesas/rz_mcu_boards/core_package/generate/sc_drivers/r_adc/src/lld\r_adc_lld_rza2m.c ****     adc_config.interrupt_priority = ADC_SC_TABLE.interrupt_priority;
 215:D:/Work/DeviceTester/amazon-freertos/lib/third_party/mcu_vendor/renesas/rz_mcu_boards/core_package/generate/sc_drivers/r_adc/src/lld\r_adc_lld_rza2m.c ****     adc_config.channels[ADC_CHANNEL_AN000].sample_time = ADC_SC_TABLE.sample_time_chan_0;
 216:D:/Work/DeviceTester/amazon-freertos/lib/third_party/mcu_vendor/renesas/rz_mcu_boards/core_package/generate/sc_drivers/r_adc/src/lld\r_adc_lld_rza2m.c ****     adc_config.channels[ADC_CHANNEL_AN000].trigger_source = ADC_SC_TABLE.trigger_source_chan_0;
 217:D:/Work/DeviceTester/amazon-freertos/lib/third_party/mcu_vendor/renesas/rz_mcu_boards/core_package/generate/sc_drivers/r_adc/src/lld\r_adc_lld_rza2m.c ****     adc_config.channels[ADC_CHANNEL_AN001].sample_time = ADC_SC_TABLE.sample_time_chan_1;
 218:D:/Work/DeviceTester/amazon-freertos/lib/third_party/mcu_vendor/renesas/rz_mcu_boards/core_package/generate/sc_drivers/r_adc/src/lld\r_adc_lld_rza2m.c ****     adc_config.channels[ADC_CHANNEL_AN001].trigger_source = ADC_SC_TABLE.trigger_source_chan_1;
 219:D:/Work/DeviceTester/amazon-freertos/lib/third_party/mcu_vendor/renesas/rz_mcu_boards/core_package/generate/sc_drivers/r_adc/src/lld\r_adc_lld_rza2m.c ****     adc_config.channels[ADC_CHANNEL_AN002].sample_time = ADC_SC_TABLE.sample_time_chan_2;
 220:D:/Work/DeviceTester/amazon-freertos/lib/third_party/mcu_vendor/renesas/rz_mcu_boards/core_package/generate/sc_drivers/r_adc/src/lld\r_adc_lld_rza2m.c ****     adc_config.channels[ADC_CHANNEL_AN002].trigger_source = ADC_SC_TABLE.trigger_source_chan_2;
 221:D:/Work/DeviceTester/amazon-freertos/lib/third_party/mcu_vendor/renesas/rz_mcu_boards/core_package/generate/sc_drivers/r_adc/src/lld\r_adc_lld_rza2m.c ****     adc_config.channels[ADC_CHANNEL_AN003].sample_time = ADC_SC_TABLE.sample_time_chan_3;
 222:D:/Work/DeviceTester/amazon-freertos/lib/third_party/mcu_vendor/renesas/rz_mcu_boards/core_package/generate/sc_drivers/r_adc/src/lld\r_adc_lld_rza2m.c ****     adc_config.channels[ADC_CHANNEL_AN003].trigger_source = ADC_SC_TABLE.trigger_source_chan_3;
 223:D:/Work/DeviceTester/amazon-freertos/lib/third_party/mcu_vendor/renesas/rz_mcu_boards/core_package/generate/sc_drivers/r_adc/src/lld\r_adc_lld_rza2m.c ****     adc_config.channels[ADC_CHANNEL_AN004].sample_time = ADC_SC_TABLE.sample_time_chan_4;
 224:D:/Work/DeviceTester/amazon-freertos/lib/third_party/mcu_vendor/renesas/rz_mcu_boards/core_package/generate/sc_drivers/r_adc/src/lld\r_adc_lld_rza2m.c ****     adc_config.channels[ADC_CHANNEL_AN004].trigger_source = ADC_SC_TABLE.trigger_source_chan_4;
 225:D:/Work/DeviceTester/amazon-freertos/lib/third_party/mcu_vendor/renesas/rz_mcu_boards/core_package/generate/sc_drivers/r_adc/src/lld\r_adc_lld_rza2m.c ****     adc_config.channels[ADC_CHANNEL_AN005].sample_time = ADC_SC_TABLE.sample_time_chan_5;
 226:D:/Work/DeviceTester/amazon-freertos/lib/third_party/mcu_vendor/renesas/rz_mcu_boards/core_package/generate/sc_drivers/r_adc/src/lld\r_adc_lld_rza2m.c ****     adc_config.channels[ADC_CHANNEL_AN005].trigger_source = ADC_SC_TABLE.trigger_source_chan_5;
 227:D:/Work/DeviceTester/amazon-freertos/lib/third_party/mcu_vendor/renesas/rz_mcu_boards/core_package/generate/sc_drivers/r_adc/src/lld\r_adc_lld_rza2m.c ****     adc_config.channels[ADC_CHANNEL_AN006].sample_time = ADC_SC_TABLE.sample_time_chan_6;
 228:D:/Work/DeviceTester/amazon-freertos/lib/third_party/mcu_vendor/renesas/rz_mcu_boards/core_package/generate/sc_drivers/r_adc/src/lld\r_adc_lld_rza2m.c ****     adc_config.channels[ADC_CHANNEL_AN006].trigger_source = ADC_SC_TABLE.trigger_source_chan_6;
 229:D:/Work/DeviceTester/amazon-freertos/lib/third_party/mcu_vendor/renesas/rz_mcu_boards/core_package/generate/sc_drivers/r_adc/src/lld\r_adc_lld_rza2m.c ****     adc_config.channels[ADC_CHANNEL_AN007].sample_time = ADC_SC_TABLE.sample_time_chan_7;
 230:D:/Work/DeviceTester/amazon-freertos/lib/third_party/mcu_vendor/renesas/rz_mcu_boards/core_package/generate/sc_drivers/r_adc/src/lld\r_adc_lld_rza2m.c ****     adc_config.channels[ADC_CHANNEL_AN007].trigger_source = ADC_SC_TABLE.trigger_source_chan_7;
 231:D:/Work/DeviceTester/amazon-freertos/lib/third_party/mcu_vendor/renesas/rz_mcu_boards/core_package/generate/sc_drivers/r_adc/src/lld\r_adc_lld_rza2m.c **** 
 232:D:/Work/DeviceTester/amazon-freertos/lib/third_party/mcu_vendor/renesas/rz_mcu_boards/core_package/generate/sc_drivers/r_adc/src/lld\r_adc_lld_rza2m.c ****     if (R_ADC_SetConfiguration(&adc_config) != ADC_SUCCESS)
 233:D:/Work/DeviceTester/amazon-freertos/lib/third_party/mcu_vendor/renesas/rz_mcu_boards/core_package/generate/sc_drivers/r_adc/src/lld\r_adc_lld_rza2m.c ****     {
 234:D:/Work/DeviceTester/amazon-freertos/lib/third_party/mcu_vendor/renesas/rz_mcu_boards/core_package/generate/sc_drivers/r_adc/src/lld\r_adc_lld_rza2m.c ****         return ADC_ERR_INVALID_CFG;
 235:D:/Work/DeviceTester/amazon-freertos/lib/third_party/mcu_vendor/renesas/rz_mcu_boards/core_package/generate/sc_drivers/r_adc/src/lld\r_adc_lld_rza2m.c ****     }
 236:D:/Work/DeviceTester/amazon-freertos/lib/third_party/mcu_vendor/renesas/rz_mcu_boards/core_package/generate/sc_drivers/r_adc/src/lld\r_adc_lld_rza2m.c **** 
 237:D:/Work/DeviceTester/amazon-freertos/lib/third_party/mcu_vendor/renesas/rz_mcu_boards/core_package/generate/sc_drivers/r_adc/src/lld\r_adc_lld_rza2m.c ****     /* pass the address of the user callback function back to the HLD */
 238:D:/Work/DeviceTester/amazon-freertos/lib/third_party/mcu_vendor/renesas/rz_mcu_boards/core_package/generate/sc_drivers/r_adc/src/lld\r_adc_lld_rza2m.c ****     *p_userCallback = ADC_SC_TABLE.p_adcCallback;
 239:D:/Work/DeviceTester/amazon-freertos/lib/third_party/mcu_vendor/renesas/rz_mcu_boards/core_package/generate/sc_drivers/r_adc/src/lld\r_adc_lld_rza2m.c **** 
 240:D:/Work/DeviceTester/amazon-freertos/lib/third_party/mcu_vendor/renesas/rz_mcu_boards/core_package/generate/sc_drivers/r_adc/src/lld\r_adc_lld_rza2m.c ****     return ADC_SUCCESS;
 241:D:/Work/DeviceTester/amazon-freertos/lib/third_party/mcu_vendor/renesas/rz_mcu_boards/core_package/generate/sc_drivers/r_adc/src/lld\r_adc_lld_rza2m.c **** }
 242:D:/Work/DeviceTester/amazon-freertos/lib/third_party/mcu_vendor/renesas/rz_mcu_boards/core_package/generate/sc_drivers/r_adc/src/lld\r_adc_lld_rza2m.c **** /**************************************************************************************************
 243:D:/Work/DeviceTester/amazon-freertos/lib/third_party/mcu_vendor/renesas/rz_mcu_boards/core_package/generate/sc_drivers/r_adc/src/lld\r_adc_lld_rza2m.c ****  * End of function R_ADC_LoadInitialConfiguration
 244:D:/Work/DeviceTester/amazon-freertos/lib/third_party/mcu_vendor/renesas/rz_mcu_boards/core_package/generate/sc_drivers/r_adc/src/lld\r_adc_lld_rza2m.c ****  **************************************************************************************************
 245:D:/Work/DeviceTester/amazon-freertos/lib/third_party/mcu_vendor/renesas/rz_mcu_boards/core_package/generate/sc_drivers/r_adc/src/lld\r_adc_lld_rza2m.c **** 
 246:D:/Work/DeviceTester/amazon-freertos/lib/third_party/mcu_vendor/renesas/rz_mcu_boards/core_package/generate/sc_drivers/r_adc/src/lld\r_adc_lld_rza2m.c **** /**************************************************************************************************
 247:D:/Work/DeviceTester/amazon-freertos/lib/third_party/mcu_vendor/renesas/rz_mcu_boards/core_package/generate/sc_drivers/r_adc/src/lld\r_adc_lld_rza2m.c ****  * Function Name: R_ADC_HWUninitialise
 248:D:/Work/DeviceTester/amazon-freertos/lib/third_party/mcu_vendor/renesas/rz_mcu_boards/core_package/generate/sc_drivers/r_adc/src/lld\r_adc_lld_rza2m.c ****  * Description  : Uninitialise the hardware
 249:D:/Work/DeviceTester/amazon-freertos/lib/third_party/mcu_vendor/renesas/rz_mcu_boards/core_package/generate/sc_drivers/r_adc/src/lld\r_adc_lld_rza2m.c ****  * Arguments    : None
 250:D:/Work/DeviceTester/amazon-freertos/lib/third_party/mcu_vendor/renesas/rz_mcu_boards/core_package/generate/sc_drivers/r_adc/src/lld\r_adc_lld_rza2m.c ****  * Return Value : ADC_SUCCESS always returned
 251:D:/Work/DeviceTester/amazon-freertos/lib/third_party/mcu_vendor/renesas/rz_mcu_boards/core_package/generate/sc_drivers/r_adc/src/lld\r_adc_lld_rza2m.c ****  **************************************************************************************************
 252:D:/Work/DeviceTester/amazon-freertos/lib/third_party/mcu_vendor/renesas/rz_mcu_boards/core_package/generate/sc_drivers/r_adc/src/lld\r_adc_lld_rza2m.c **** e_r_drv_adc_err_t R_ADC_HWUninitialise(void)
 253:D:/Work/DeviceTester/amazon-freertos/lib/third_party/mcu_vendor/renesas/rz_mcu_boards/core_package/generate/sc_drivers/r_adc/src/lld\r_adc_lld_rza2m.c **** {
 341              		.loc 1 253 0
 342              		.cfi_startproc
 343              		@ args = 0, pretend = 0, frame = 0
 344              		@ frame_needed = 0, uses_anonymous_args = 0
 345 0000 10402DE9 		push	{r4, lr}
 346              		.cfi_def_cfa_offset 8
 347              		.cfi_offset 4, -8
 348              		.cfi_offset 14, -4
 254:D:/Work/DeviceTester/amazon-freertos/lib/third_party/mcu_vendor/renesas/rz_mcu_boards/core_package/generate/sc_drivers/r_adc/src/lld\r_adc_lld_rza2m.c ****     int_t i;
 255:D:/Work/DeviceTester/amazon-freertos/lib/third_party/mcu_vendor/renesas/rz_mcu_boards/core_package/generate/sc_drivers/r_adc/src/lld\r_adc_lld_rza2m.c **** 
 256:D:/Work/DeviceTester/amazon-freertos/lib/third_party/mcu_vendor/renesas/rz_mcu_boards/core_package/generate/sc_drivers/r_adc/src/lld\r_adc_lld_rza2m.c ****     /* write a 0 to ADST to ensure that the converter is stopped */
 257:D:/Work/DeviceTester/amazon-freertos/lib/third_party/mcu_vendor/renesas/rz_mcu_boards/core_package/generate/sc_drivers/r_adc/src/lld\r_adc_lld_rza2m.c ****     RZA_IO_RegWrite_16(&ADC.ADCSR.WORD, 0, ADC_ADCSR_ADST_SHIFT, ADC_ADCSR_ADST);
 349              		.loc 1 257 0
 350 0004 104702E3 		movw	r4, #10000
 351 0008 0239A0E3 		mov	r3, #32768
 352 000c 0F20A0E3 		mov	r2, #15
 353 0010 0010A0E3 		mov	r1, #0
 354 0014 1C009FE5 		ldr	r0, .L18
 355 0018 FEFFFFEB 		bl	RZA_IO_RegWrite_16
 356              	.LVL36:
 357              	.L15:
 358              	.LBB8:
 359              	.LBB9:
 360              		.loc 2 47 0
 361              		.syntax divided
 362              	@ 47 "D:\Work\DeviceTester\amazon-freertos\lib\third_party\mcu_vendor\renesas\rz_mcu_boards\core_pa
 363 001c 00F020E3 		nop
 364              	@ 0 "" 2
 365              	.LVL37:
 366              		.arm
 367              		.syntax unified
 368              	.LBE9:
 369              	.LBE8:
 258:D:/Work/DeviceTester/amazon-freertos/lib/third_party/mcu_vendor/renesas/rz_mcu_boards/core_package/generate/sc_drivers/r_adc/src/lld\r_adc_lld_rza2m.c **** 
 259:D:/Work/DeviceTester/amazon-freertos/lib/third_party/mcu_vendor/renesas/rz_mcu_boards/core_package/generate/sc_drivers/r_adc/src/lld\r_adc_lld_rza2m.c ****     /* wait for the converter to stop */
 260:D:/Work/DeviceTester/amazon-freertos/lib/third_party/mcu_vendor/renesas/rz_mcu_boards/core_package/generate/sc_drivers/r_adc/src/lld\r_adc_lld_rza2m.c ****     for (i = 0; i < 10000; i++)
 370              		.loc 1 260 0
 371 0020 014054E2 		subs	r4, r4, #1
 372              	.LVL38:
 373 0024 FCFFFF1A 		bne	.L15
 261:D:/Work/DeviceTester/amazon-freertos/lib/third_party/mcu_vendor/renesas/rz_mcu_boards/core_package/generate/sc_drivers/r_adc/src/lld\r_adc_lld_rza2m.c ****     {
 262:D:/Work/DeviceTester/amazon-freertos/lib/third_party/mcu_vendor/renesas/rz_mcu_boards/core_package/generate/sc_drivers/r_adc/src/lld\r_adc_lld_rza2m.c ****         R_COMPILER_Nop();
 263:D:/Work/DeviceTester/amazon-freertos/lib/third_party/mcu_vendor/renesas/rz_mcu_boards/core_package/generate/sc_drivers/r_adc/src/lld\r_adc_lld_rza2m.c ****     }
 264:D:/Work/DeviceTester/amazon-freertos/lib/third_party/mcu_vendor/renesas/rz_mcu_boards/core_package/generate/sc_drivers/r_adc/src/lld\r_adc_lld_rza2m.c **** 
 265:D:/Work/DeviceTester/amazon-freertos/lib/third_party/mcu_vendor/renesas/rz_mcu_boards/core_package/generate/sc_drivers/r_adc/src/lld\r_adc_lld_rza2m.c ****     /* power the module down */
 266:D:/Work/DeviceTester/amazon-freertos/lib/third_party/mcu_vendor/renesas/rz_mcu_boards/core_package/generate/sc_drivers/r_adc/src/lld\r_adc_lld_rza2m.c ****     R_STB_StopModule(MODULE_ADC);
 374              		.loc 1 266 0
 375 0028 0700A0E3 		mov	r0, #7
 376 002c FEFFFFEB 		bl	R_STB_StopModule
 377              	.LVL39:
 267:D:/Work/DeviceTester/amazon-freertos/lib/third_party/mcu_vendor/renesas/rz_mcu_boards/core_package/generate/sc_drivers/r_adc/src/lld\r_adc_lld_rza2m.c **** 
 268:D:/Work/DeviceTester/amazon-freertos/lib/third_party/mcu_vendor/renesas/rz_mcu_boards/core_package/generate/sc_drivers/r_adc/src/lld\r_adc_lld_rza2m.c ****     return ADC_SUCCESS;
 269:D:/Work/DeviceTester/amazon-freertos/lib/third_party/mcu_vendor/renesas/rz_mcu_boards/core_package/generate/sc_drivers/r_adc/src/lld\r_adc_lld_rza2m.c **** }
 378              		.loc 1 269 0
 379 0030 0400A0E1 		mov	r0, r4
 380 0034 1080BDE8 		pop	{r4, pc}
 381              	.L19:
 382              		.align	2
 383              	.L18:
 384 0038 005800E8 		.word	-402630656
 385              		.cfi_endproc
 386              	.LFE7:
 388              		.section	.text.R_ADC_SoftwareTrigger,"ax",%progbits
 389              		.align	2
 390              		.global	R_ADC_SoftwareTrigger
 391              		.syntax unified
 392              		.arm
 393              		.fpu neon
 395              	R_ADC_SoftwareTrigger:
 396              	.LFB8:
 270:D:/Work/DeviceTester/amazon-freertos/lib/third_party/mcu_vendor/renesas/rz_mcu_boards/core_package/generate/sc_drivers/r_adc/src/lld\r_adc_lld_rza2m.c **** /**************************************************************************************************
 271:D:/Work/DeviceTester/amazon-freertos/lib/third_party/mcu_vendor/renesas/rz_mcu_boards/core_package/generate/sc_drivers/r_adc/src/lld\r_adc_lld_rza2m.c ****  * End of function R_ADC_HWUninitialise
 272:D:/Work/DeviceTester/amazon-freertos/lib/third_party/mcu_vendor/renesas/rz_mcu_boards/core_package/generate/sc_drivers/r_adc/src/lld\r_adc_lld_rza2m.c ****  **************************************************************************************************
 273:D:/Work/DeviceTester/amazon-freertos/lib/third_party/mcu_vendor/renesas/rz_mcu_boards/core_package/generate/sc_drivers/r_adc/src/lld\r_adc_lld_rza2m.c **** 
 274:D:/Work/DeviceTester/amazon-freertos/lib/third_party/mcu_vendor/renesas/rz_mcu_boards/core_package/generate/sc_drivers/r_adc/src/lld\r_adc_lld_rza2m.c **** /**************************************************************************************************
 275:D:/Work/DeviceTester/amazon-freertos/lib/third_party/mcu_vendor/renesas/rz_mcu_boards/core_package/generate/sc_drivers/r_adc/src/lld\r_adc_lld_rza2m.c ****  * Function Name: R_ADC_SoftwareTrigger
 276:D:/Work/DeviceTester/amazon-freertos/lib/third_party/mcu_vendor/renesas/rz_mcu_boards/core_package/generate/sc_drivers/r_adc/src/lld\r_adc_lld_rza2m.c ****  * Description  : Trigger an ADC conversion scan
 277:D:/Work/DeviceTester/amazon-freertos/lib/third_party/mcu_vendor/renesas/rz_mcu_boards/core_package/generate/sc_drivers/r_adc/src/lld\r_adc_lld_rza2m.c ****  * Arguments    : None
 278:D:/Work/DeviceTester/amazon-freertos/lib/third_party/mcu_vendor/renesas/rz_mcu_boards/core_package/generate/sc_drivers/r_adc/src/lld\r_adc_lld_rza2m.c ****  * Return Value : ADC_SUCCESS always returned
 279:D:/Work/DeviceTester/amazon-freertos/lib/third_party/mcu_vendor/renesas/rz_mcu_boards/core_package/generate/sc_drivers/r_adc/src/lld\r_adc_lld_rza2m.c ****  **************************************************************************************************
 280:D:/Work/DeviceTester/amazon-freertos/lib/third_party/mcu_vendor/renesas/rz_mcu_boards/core_package/generate/sc_drivers/r_adc/src/lld\r_adc_lld_rza2m.c **** e_r_drv_adc_err_t R_ADC_SoftwareTrigger(void)
 281:D:/Work/DeviceTester/amazon-freertos/lib/third_party/mcu_vendor/renesas/rz_mcu_boards/core_package/generate/sc_drivers/r_adc/src/lld\r_adc_lld_rza2m.c **** {
 397              		.loc 1 281 0
 398              		.cfi_startproc
 399              		@ args = 0, pretend = 0, frame = 0
 400              		@ frame_needed = 0, uses_anonymous_args = 0
 401 0000 10402DE9 		push	{r4, lr}
 402              		.cfi_def_cfa_offset 8
 403              		.cfi_offset 4, -8
 404              		.cfi_offset 14, -4
 282:D:/Work/DeviceTester/amazon-freertos/lib/third_party/mcu_vendor/renesas/rz_mcu_boards/core_package/generate/sc_drivers/r_adc/src/lld\r_adc_lld_rza2m.c ****     /* write a 0 to the ADCSR register TRGE bit to disable synchronous and asynchronous triggering 
 283:D:/Work/DeviceTester/amazon-freertos/lib/third_party/mcu_vendor/renesas/rz_mcu_boards/core_package/generate/sc_drivers/r_adc/src/lld\r_adc_lld_rza2m.c ****     RZA_IO_RegWrite_16(&ADC.ADCSR.WORD, 0, ADC_ADCSR_TRGE_SHIFT, ADC_ADCSR_TRGE);
 405              		.loc 1 283 0
 406 0004 023CA0E3 		mov	r3, #512
 407 0008 28409FE5 		ldr	r4, .L22
 408 000c 0920A0E3 		mov	r2, #9
 409 0010 0010A0E3 		mov	r1, #0
 410 0014 0400A0E1 		mov	r0, r4
 411 0018 FEFFFFEB 		bl	RZA_IO_RegWrite_16
 412              	.LVL40:
 284:D:/Work/DeviceTester/amazon-freertos/lib/third_party/mcu_vendor/renesas/rz_mcu_boards/core_package/generate/sc_drivers/r_adc/src/lld\r_adc_lld_rza2m.c **** 
 285:D:/Work/DeviceTester/amazon-freertos/lib/third_party/mcu_vendor/renesas/rz_mcu_boards/core_package/generate/sc_drivers/r_adc/src/lld\r_adc_lld_rza2m.c ****     /* write a 1 to the ADCSR register ADST bit to trigger a conversion */
 286:D:/Work/DeviceTester/amazon-freertos/lib/third_party/mcu_vendor/renesas/rz_mcu_boards/core_package/generate/sc_drivers/r_adc/src/lld\r_adc_lld_rza2m.c ****     RZA_IO_RegWrite_16(&ADC.ADCSR.WORD, 1, ADC_ADCSR_ADST_SHIFT, ADC_ADCSR_ADST);
 413              		.loc 1 286 0
 414 001c 0400A0E1 		mov	r0, r4
 415 0020 0239A0E3 		mov	r3, #32768
 416 0024 0F20A0E3 		mov	r2, #15
 417 0028 0110A0E3 		mov	r1, #1
 418 002c FEFFFFEB 		bl	RZA_IO_RegWrite_16
 419              	.LVL41:
 287:D:/Work/DeviceTester/amazon-freertos/lib/third_party/mcu_vendor/renesas/rz_mcu_boards/core_package/generate/sc_drivers/r_adc/src/lld\r_adc_lld_rza2m.c **** 
 288:D:/Work/DeviceTester/amazon-freertos/lib/third_party/mcu_vendor/renesas/rz_mcu_boards/core_package/generate/sc_drivers/r_adc/src/lld\r_adc_lld_rza2m.c ****     return ADC_SUCCESS;
 289:D:/Work/DeviceTester/amazon-freertos/lib/third_party/mcu_vendor/renesas/rz_mcu_boards/core_package/generate/sc_drivers/r_adc/src/lld\r_adc_lld_rza2m.c **** }
 420              		.loc 1 289 0
 421 0030 0000A0E3 		mov	r0, #0
 422 0034 1080BDE8 		pop	{r4, pc}
 423              	.L23:
 424              		.align	2
 425              	.L22:
 426 0038 005800E8 		.word	-402630656
 427              		.cfi_endproc
 428              	.LFE8:
 430              		.section	.text.R_ADC_SetConfiguration,"ax",%progbits
 431              		.align	2
 432              		.global	R_ADC_SetConfiguration
 433              		.syntax unified
 434              		.arm
 435              		.fpu neon
 437              	R_ADC_SetConfiguration:
 438              	.LFB13:
 290:D:/Work/DeviceTester/amazon-freertos/lib/third_party/mcu_vendor/renesas/rz_mcu_boards/core_package/generate/sc_drivers/r_adc/src/lld\r_adc_lld_rza2m.c **** /******************************************************************************
 291:D:/Work/DeviceTester/amazon-freertos/lib/third_party/mcu_vendor/renesas/rz_mcu_boards/core_package/generate/sc_drivers/r_adc/src/lld\r_adc_lld_rza2m.c ****  * End of function R_ADC_SoftwareTrigger
 292:D:/Work/DeviceTester/amazon-freertos/lib/third_party/mcu_vendor/renesas/rz_mcu_boards/core_package/generate/sc_drivers/r_adc/src/lld\r_adc_lld_rza2m.c ****  ******************************************************************************/
 293:D:/Work/DeviceTester/amazon-freertos/lib/third_party/mcu_vendor/renesas/rz_mcu_boards/core_package/generate/sc_drivers/r_adc/src/lld\r_adc_lld_rza2m.c **** 
 294:D:/Work/DeviceTester/amazon-freertos/lib/third_party/mcu_vendor/renesas/rz_mcu_boards/core_package/generate/sc_drivers/r_adc/src/lld\r_adc_lld_rza2m.c **** /**************************************************************************************************
 295:D:/Work/DeviceTester/amazon-freertos/lib/third_party/mcu_vendor/renesas/rz_mcu_boards/core_package/generate/sc_drivers/r_adc/src/lld\r_adc_lld_rza2m.c ****  * Function Name: adc_set_resolution
 296:D:/Work/DeviceTester/amazon-freertos/lib/third_party/mcu_vendor/renesas/rz_mcu_boards/core_package/generate/sc_drivers/r_adc/src/lld\r_adc_lld_rza2m.c ****  * Description  : Sets the register ADC resolution value
 297:D:/Work/DeviceTester/amazon-freertos/lib/third_party/mcu_vendor/renesas/rz_mcu_boards/core_package/generate/sc_drivers/r_adc/src/lld\r_adc_lld_rza2m.c ****  * Arguments    : resolution: The ADC resolution (8, 10 or 12 bits)
 298:D:/Work/DeviceTester/amazon-freertos/lib/third_party/mcu_vendor/renesas/rz_mcu_boards/core_package/generate/sc_drivers/r_adc/src/lld\r_adc_lld_rza2m.c ****  * Return Value : None
 299:D:/Work/DeviceTester/amazon-freertos/lib/third_party/mcu_vendor/renesas/rz_mcu_boards/core_package/generate/sc_drivers/r_adc/src/lld\r_adc_lld_rza2m.c ****  **************************************************************************************************
 300:D:/Work/DeviceTester/amazon-freertos/lib/third_party/mcu_vendor/renesas/rz_mcu_boards/core_package/generate/sc_drivers/r_adc/src/lld\r_adc_lld_rza2m.c **** static void adc_set_resolution(e_r_drv_adc_resolution_t resolution)
 301:D:/Work/DeviceTester/amazon-freertos/lib/third_party/mcu_vendor/renesas/rz_mcu_boards/core_package/generate/sc_drivers/r_adc/src/lld\r_adc_lld_rza2m.c **** {
 302:D:/Work/DeviceTester/amazon-freertos/lib/third_party/mcu_vendor/renesas/rz_mcu_boards/core_package/generate/sc_drivers/r_adc/src/lld\r_adc_lld_rza2m.c ****     uint16_t adprc;
 303:D:/Work/DeviceTester/amazon-freertos/lib/third_party/mcu_vendor/renesas/rz_mcu_boards/core_package/generate/sc_drivers/r_adc/src/lld\r_adc_lld_rza2m.c **** 
 304:D:/Work/DeviceTester/amazon-freertos/lib/third_party/mcu_vendor/renesas/rz_mcu_boards/core_package/generate/sc_drivers/r_adc/src/lld\r_adc_lld_rza2m.c ****     switch (resolution)
 305:D:/Work/DeviceTester/amazon-freertos/lib/third_party/mcu_vendor/renesas/rz_mcu_boards/core_package/generate/sc_drivers/r_adc/src/lld\r_adc_lld_rza2m.c ****     {
 306:D:/Work/DeviceTester/amazon-freertos/lib/third_party/mcu_vendor/renesas/rz_mcu_boards/core_package/generate/sc_drivers/r_adc/src/lld\r_adc_lld_rza2m.c ****         default:
 307:D:/Work/DeviceTester/amazon-freertos/lib/third_party/mcu_vendor/renesas/rz_mcu_boards/core_package/generate/sc_drivers/r_adc/src/lld\r_adc_lld_rza2m.c ****         case ADC_RESOLUTION_12:
 308:D:/Work/DeviceTester/amazon-freertos/lib/third_party/mcu_vendor/renesas/rz_mcu_boards/core_package/generate/sc_drivers/r_adc/src/lld\r_adc_lld_rza2m.c ****         {
 309:D:/Work/DeviceTester/amazon-freertos/lib/third_party/mcu_vendor/renesas/rz_mcu_boards/core_package/generate/sc_drivers/r_adc/src/lld\r_adc_lld_rza2m.c ****             adprc = R_ADC_PRV_ADCER_ADC_RESOLUTION_12;
 310:D:/Work/DeviceTester/amazon-freertos/lib/third_party/mcu_vendor/renesas/rz_mcu_boards/core_package/generate/sc_drivers/r_adc/src/lld\r_adc_lld_rza2m.c ****             break;
 311:D:/Work/DeviceTester/amazon-freertos/lib/third_party/mcu_vendor/renesas/rz_mcu_boards/core_package/generate/sc_drivers/r_adc/src/lld\r_adc_lld_rza2m.c ****         }
 312:D:/Work/DeviceTester/amazon-freertos/lib/third_party/mcu_vendor/renesas/rz_mcu_boards/core_package/generate/sc_drivers/r_adc/src/lld\r_adc_lld_rza2m.c **** 
 313:D:/Work/DeviceTester/amazon-freertos/lib/third_party/mcu_vendor/renesas/rz_mcu_boards/core_package/generate/sc_drivers/r_adc/src/lld\r_adc_lld_rza2m.c ****         case ADC_RESOLUTION_10:
 314:D:/Work/DeviceTester/amazon-freertos/lib/third_party/mcu_vendor/renesas/rz_mcu_boards/core_package/generate/sc_drivers/r_adc/src/lld\r_adc_lld_rza2m.c ****         {
 315:D:/Work/DeviceTester/amazon-freertos/lib/third_party/mcu_vendor/renesas/rz_mcu_boards/core_package/generate/sc_drivers/r_adc/src/lld\r_adc_lld_rza2m.c ****             adprc = R_ADC_PRV_ADCER_ADC_RESOLUTION_10;
 316:D:/Work/DeviceTester/amazon-freertos/lib/third_party/mcu_vendor/renesas/rz_mcu_boards/core_package/generate/sc_drivers/r_adc/src/lld\r_adc_lld_rza2m.c ****             break;
 317:D:/Work/DeviceTester/amazon-freertos/lib/third_party/mcu_vendor/renesas/rz_mcu_boards/core_package/generate/sc_drivers/r_adc/src/lld\r_adc_lld_rza2m.c ****         }
 318:D:/Work/DeviceTester/amazon-freertos/lib/third_party/mcu_vendor/renesas/rz_mcu_boards/core_package/generate/sc_drivers/r_adc/src/lld\r_adc_lld_rza2m.c **** 
 319:D:/Work/DeviceTester/amazon-freertos/lib/third_party/mcu_vendor/renesas/rz_mcu_boards/core_package/generate/sc_drivers/r_adc/src/lld\r_adc_lld_rza2m.c ****         case ADC_RESOLUTION_8:
 320:D:/Work/DeviceTester/amazon-freertos/lib/third_party/mcu_vendor/renesas/rz_mcu_boards/core_package/generate/sc_drivers/r_adc/src/lld\r_adc_lld_rza2m.c ****         {
 321:D:/Work/DeviceTester/amazon-freertos/lib/third_party/mcu_vendor/renesas/rz_mcu_boards/core_package/generate/sc_drivers/r_adc/src/lld\r_adc_lld_rza2m.c ****             adprc = R_ADC_PRV_ADCER_ADC_RESOLUTION_8;
 322:D:/Work/DeviceTester/amazon-freertos/lib/third_party/mcu_vendor/renesas/rz_mcu_boards/core_package/generate/sc_drivers/r_adc/src/lld\r_adc_lld_rza2m.c ****             break;
 323:D:/Work/DeviceTester/amazon-freertos/lib/third_party/mcu_vendor/renesas/rz_mcu_boards/core_package/generate/sc_drivers/r_adc/src/lld\r_adc_lld_rza2m.c ****         }
 324:D:/Work/DeviceTester/amazon-freertos/lib/third_party/mcu_vendor/renesas/rz_mcu_boards/core_package/generate/sc_drivers/r_adc/src/lld\r_adc_lld_rza2m.c ****     }
 325:D:/Work/DeviceTester/amazon-freertos/lib/third_party/mcu_vendor/renesas/rz_mcu_boards/core_package/generate/sc_drivers/r_adc/src/lld\r_adc_lld_rza2m.c **** 
 326:D:/Work/DeviceTester/amazon-freertos/lib/third_party/mcu_vendor/renesas/rz_mcu_boards/core_package/generate/sc_drivers/r_adc/src/lld\r_adc_lld_rza2m.c ****     RZA_IO_RegWrite_16(&ADC.ADCER.WORD, adprc, ADC_ADCER_ADPRC_SHIFT, ADC_ADCER_ADPRC);
 327:D:/Work/DeviceTester/amazon-freertos/lib/third_party/mcu_vendor/renesas/rz_mcu_boards/core_package/generate/sc_drivers/r_adc/src/lld\r_adc_lld_rza2m.c **** }
 328:D:/Work/DeviceTester/amazon-freertos/lib/third_party/mcu_vendor/renesas/rz_mcu_boards/core_package/generate/sc_drivers/r_adc/src/lld\r_adc_lld_rza2m.c **** /**************************************************************************************************
 329:D:/Work/DeviceTester/amazon-freertos/lib/third_party/mcu_vendor/renesas/rz_mcu_boards/core_package/generate/sc_drivers/r_adc/src/lld\r_adc_lld_rza2m.c ****  * End of function adc_set_resolution
 330:D:/Work/DeviceTester/amazon-freertos/lib/third_party/mcu_vendor/renesas/rz_mcu_boards/core_package/generate/sc_drivers/r_adc/src/lld\r_adc_lld_rza2m.c ****  **************************************************************************************************
 331:D:/Work/DeviceTester/amazon-freertos/lib/third_party/mcu_vendor/renesas/rz_mcu_boards/core_package/generate/sc_drivers/r_adc/src/lld\r_adc_lld_rza2m.c **** 
 332:D:/Work/DeviceTester/amazon-freertos/lib/third_party/mcu_vendor/renesas/rz_mcu_boards/core_package/generate/sc_drivers/r_adc/src/lld\r_adc_lld_rza2m.c **** /**************************************************************************************************
 333:D:/Work/DeviceTester/amazon-freertos/lib/third_party/mcu_vendor/renesas/rz_mcu_boards/core_package/generate/sc_drivers/r_adc/src/lld\r_adc_lld_rza2m.c ****  * Function Name: adc_set_data_alignment
 334:D:/Work/DeviceTester/amazon-freertos/lib/third_party/mcu_vendor/renesas/rz_mcu_boards/core_package/generate/sc_drivers/r_adc/src/lld\r_adc_lld_rza2m.c ****  * Description  : Sets the register ADC data alignment value
 335:D:/Work/DeviceTester/amazon-freertos/lib/third_party/mcu_vendor/renesas/rz_mcu_boards/core_package/generate/sc_drivers/r_adc/src/lld\r_adc_lld_rza2m.c ****  * Arguments    : alignment - The ADC data alignment (left or right)
 336:D:/Work/DeviceTester/amazon-freertos/lib/third_party/mcu_vendor/renesas/rz_mcu_boards/core_package/generate/sc_drivers/r_adc/src/lld\r_adc_lld_rza2m.c ****  * Return Value : None
 337:D:/Work/DeviceTester/amazon-freertos/lib/third_party/mcu_vendor/renesas/rz_mcu_boards/core_package/generate/sc_drivers/r_adc/src/lld\r_adc_lld_rza2m.c ****  **************************************************************************************************
 338:D:/Work/DeviceTester/amazon-freertos/lib/third_party/mcu_vendor/renesas/rz_mcu_boards/core_package/generate/sc_drivers/r_adc/src/lld\r_adc_lld_rza2m.c **** static void adc_set_data_alignment(e_r_drv_adc_alignment_t alignment)
 339:D:/Work/DeviceTester/amazon-freertos/lib/third_party/mcu_vendor/renesas/rz_mcu_boards/core_package/generate/sc_drivers/r_adc/src/lld\r_adc_lld_rza2m.c **** {
 340:D:/Work/DeviceTester/amazon-freertos/lib/third_party/mcu_vendor/renesas/rz_mcu_boards/core_package/generate/sc_drivers/r_adc/src/lld\r_adc_lld_rza2m.c ****     uint16_t adcer;
 341:D:/Work/DeviceTester/amazon-freertos/lib/third_party/mcu_vendor/renesas/rz_mcu_boards/core_package/generate/sc_drivers/r_adc/src/lld\r_adc_lld_rza2m.c **** 
 342:D:/Work/DeviceTester/amazon-freertos/lib/third_party/mcu_vendor/renesas/rz_mcu_boards/core_package/generate/sc_drivers/r_adc/src/lld\r_adc_lld_rza2m.c ****     switch (alignment)
 343:D:/Work/DeviceTester/amazon-freertos/lib/third_party/mcu_vendor/renesas/rz_mcu_boards/core_package/generate/sc_drivers/r_adc/src/lld\r_adc_lld_rza2m.c ****     {
 344:D:/Work/DeviceTester/amazon-freertos/lib/third_party/mcu_vendor/renesas/rz_mcu_boards/core_package/generate/sc_drivers/r_adc/src/lld\r_adc_lld_rza2m.c ****         case ADC_ALIGN_LEFT:
 345:D:/Work/DeviceTester/amazon-freertos/lib/third_party/mcu_vendor/renesas/rz_mcu_boards/core_package/generate/sc_drivers/r_adc/src/lld\r_adc_lld_rza2m.c ****         {
 346:D:/Work/DeviceTester/amazon-freertos/lib/third_party/mcu_vendor/renesas/rz_mcu_boards/core_package/generate/sc_drivers/r_adc/src/lld\r_adc_lld_rza2m.c ****             adcer = R_ADC_PRV_ADCER_ADC_DATA_FORMAT_LEFT_ALIGN;
 347:D:/Work/DeviceTester/amazon-freertos/lib/third_party/mcu_vendor/renesas/rz_mcu_boards/core_package/generate/sc_drivers/r_adc/src/lld\r_adc_lld_rza2m.c ****             break;
 348:D:/Work/DeviceTester/amazon-freertos/lib/third_party/mcu_vendor/renesas/rz_mcu_boards/core_package/generate/sc_drivers/r_adc/src/lld\r_adc_lld_rza2m.c ****         }
 349:D:/Work/DeviceTester/amazon-freertos/lib/third_party/mcu_vendor/renesas/rz_mcu_boards/core_package/generate/sc_drivers/r_adc/src/lld\r_adc_lld_rza2m.c **** 
 350:D:/Work/DeviceTester/amazon-freertos/lib/third_party/mcu_vendor/renesas/rz_mcu_boards/core_package/generate/sc_drivers/r_adc/src/lld\r_adc_lld_rza2m.c ****         default:
 351:D:/Work/DeviceTester/amazon-freertos/lib/third_party/mcu_vendor/renesas/rz_mcu_boards/core_package/generate/sc_drivers/r_adc/src/lld\r_adc_lld_rza2m.c ****         case ADC_ALIGN_RIGHT:
 352:D:/Work/DeviceTester/amazon-freertos/lib/third_party/mcu_vendor/renesas/rz_mcu_boards/core_package/generate/sc_drivers/r_adc/src/lld\r_adc_lld_rza2m.c ****         {
 353:D:/Work/DeviceTester/amazon-freertos/lib/third_party/mcu_vendor/renesas/rz_mcu_boards/core_package/generate/sc_drivers/r_adc/src/lld\r_adc_lld_rza2m.c ****             adcer = R_ADC_PRV_ADCER_ADC_DATA_FORMAT_RIGHT_ALIGN;
 354:D:/Work/DeviceTester/amazon-freertos/lib/third_party/mcu_vendor/renesas/rz_mcu_boards/core_package/generate/sc_drivers/r_adc/src/lld\r_adc_lld_rza2m.c ****             break;
 355:D:/Work/DeviceTester/amazon-freertos/lib/third_party/mcu_vendor/renesas/rz_mcu_boards/core_package/generate/sc_drivers/r_adc/src/lld\r_adc_lld_rza2m.c ****         }
 356:D:/Work/DeviceTester/amazon-freertos/lib/third_party/mcu_vendor/renesas/rz_mcu_boards/core_package/generate/sc_drivers/r_adc/src/lld\r_adc_lld_rza2m.c ****     }
 357:D:/Work/DeviceTester/amazon-freertos/lib/third_party/mcu_vendor/renesas/rz_mcu_boards/core_package/generate/sc_drivers/r_adc/src/lld\r_adc_lld_rza2m.c **** 
 358:D:/Work/DeviceTester/amazon-freertos/lib/third_party/mcu_vendor/renesas/rz_mcu_boards/core_package/generate/sc_drivers/r_adc/src/lld\r_adc_lld_rza2m.c ****     RZA_IO_RegWrite_16(&ADC.ADCER.WORD, adcer, ADC_ADCER_ADRFMT_SHIFT, ADC_ADCER_ADRFMT);
 359:D:/Work/DeviceTester/amazon-freertos/lib/third_party/mcu_vendor/renesas/rz_mcu_boards/core_package/generate/sc_drivers/r_adc/src/lld\r_adc_lld_rza2m.c **** }
 360:D:/Work/DeviceTester/amazon-freertos/lib/third_party/mcu_vendor/renesas/rz_mcu_boards/core_package/generate/sc_drivers/r_adc/src/lld\r_adc_lld_rza2m.c **** /******************************************************************************
 361:D:/Work/DeviceTester/amazon-freertos/lib/third_party/mcu_vendor/renesas/rz_mcu_boards/core_package/generate/sc_drivers/r_adc/src/lld\r_adc_lld_rza2m.c ****  * End of function adc_set_data_alignment
 362:D:/Work/DeviceTester/amazon-freertos/lib/third_party/mcu_vendor/renesas/rz_mcu_boards/core_package/generate/sc_drivers/r_adc/src/lld\r_adc_lld_rza2m.c ****  ******************************************************************************/
 363:D:/Work/DeviceTester/amazon-freertos/lib/third_party/mcu_vendor/renesas/rz_mcu_boards/core_package/generate/sc_drivers/r_adc/src/lld\r_adc_lld_rza2m.c **** 
 364:D:/Work/DeviceTester/amazon-freertos/lib/third_party/mcu_vendor/renesas/rz_mcu_boards/core_package/generate/sc_drivers/r_adc/src/lld\r_adc_lld_rza2m.c **** /**************************************************************************************************
 365:D:/Work/DeviceTester/amazon-freertos/lib/third_party/mcu_vendor/renesas/rz_mcu_boards/core_package/generate/sc_drivers/r_adc/src/lld\r_adc_lld_rza2m.c ****  * Function Name: adc_set_scan_mode
 366:D:/Work/DeviceTester/amazon-freertos/lib/third_party/mcu_vendor/renesas/rz_mcu_boards/core_package/generate/sc_drivers/r_adc/src/lld\r_adc_lld_rza2m.c ****  * Description  : Sets the register ADC scan mode value
 367:D:/Work/DeviceTester/amazon-freertos/lib/third_party/mcu_vendor/renesas/rz_mcu_boards/core_package/generate/sc_drivers/r_adc/src/lld\r_adc_lld_rza2m.c ****  * Arguments    : scan_mode - The ADC scan mode (single, group or continuous)
 368:D:/Work/DeviceTester/amazon-freertos/lib/third_party/mcu_vendor/renesas/rz_mcu_boards/core_package/generate/sc_drivers/r_adc/src/lld\r_adc_lld_rza2m.c ****  * Return Value : None
 369:D:/Work/DeviceTester/amazon-freertos/lib/third_party/mcu_vendor/renesas/rz_mcu_boards/core_package/generate/sc_drivers/r_adc/src/lld\r_adc_lld_rza2m.c ****  **************************************************************************************************
 370:D:/Work/DeviceTester/amazon-freertos/lib/third_party/mcu_vendor/renesas/rz_mcu_boards/core_package/generate/sc_drivers/r_adc/src/lld\r_adc_lld_rza2m.c **** static void adc_set_scan_mode(e_r_drv_adc_scan_mode_t scan_mode)
 371:D:/Work/DeviceTester/amazon-freertos/lib/third_party/mcu_vendor/renesas/rz_mcu_boards/core_package/generate/sc_drivers/r_adc/src/lld\r_adc_lld_rza2m.c **** {
 372:D:/Work/DeviceTester/amazon-freertos/lib/third_party/mcu_vendor/renesas/rz_mcu_boards/core_package/generate/sc_drivers/r_adc/src/lld\r_adc_lld_rza2m.c ****     uint16_t adcsr;
 373:D:/Work/DeviceTester/amazon-freertos/lib/third_party/mcu_vendor/renesas/rz_mcu_boards/core_package/generate/sc_drivers/r_adc/src/lld\r_adc_lld_rza2m.c **** 
 374:D:/Work/DeviceTester/amazon-freertos/lib/third_party/mcu_vendor/renesas/rz_mcu_boards/core_package/generate/sc_drivers/r_adc/src/lld\r_adc_lld_rza2m.c ****     switch (scan_mode)
 375:D:/Work/DeviceTester/amazon-freertos/lib/third_party/mcu_vendor/renesas/rz_mcu_boards/core_package/generate/sc_drivers/r_adc/src/lld\r_adc_lld_rza2m.c ****     {
 376:D:/Work/DeviceTester/amazon-freertos/lib/third_party/mcu_vendor/renesas/rz_mcu_boards/core_package/generate/sc_drivers/r_adc/src/lld\r_adc_lld_rza2m.c ****         default:
 377:D:/Work/DeviceTester/amazon-freertos/lib/third_party/mcu_vendor/renesas/rz_mcu_boards/core_package/generate/sc_drivers/r_adc/src/lld\r_adc_lld_rza2m.c ****         case ADC_SCAN_MODE_SINGLE:
 378:D:/Work/DeviceTester/amazon-freertos/lib/third_party/mcu_vendor/renesas/rz_mcu_boards/core_package/generate/sc_drivers/r_adc/src/lld\r_adc_lld_rza2m.c ****         {
 379:D:/Work/DeviceTester/amazon-freertos/lib/third_party/mcu_vendor/renesas/rz_mcu_boards/core_package/generate/sc_drivers/r_adc/src/lld\r_adc_lld_rza2m.c ****             adcsr = R_ADC_PRV_ADCSR_ADC_SCAN_MODE_SINGLE;
 380:D:/Work/DeviceTester/amazon-freertos/lib/third_party/mcu_vendor/renesas/rz_mcu_boards/core_package/generate/sc_drivers/r_adc/src/lld\r_adc_lld_rza2m.c ****             break;
 381:D:/Work/DeviceTester/amazon-freertos/lib/third_party/mcu_vendor/renesas/rz_mcu_boards/core_package/generate/sc_drivers/r_adc/src/lld\r_adc_lld_rza2m.c ****         }
 382:D:/Work/DeviceTester/amazon-freertos/lib/third_party/mcu_vendor/renesas/rz_mcu_boards/core_package/generate/sc_drivers/r_adc/src/lld\r_adc_lld_rza2m.c **** 
 383:D:/Work/DeviceTester/amazon-freertos/lib/third_party/mcu_vendor/renesas/rz_mcu_boards/core_package/generate/sc_drivers/r_adc/src/lld\r_adc_lld_rza2m.c ****         case ADC_SCAN_MODE_GROUP:
 384:D:/Work/DeviceTester/amazon-freertos/lib/third_party/mcu_vendor/renesas/rz_mcu_boards/core_package/generate/sc_drivers/r_adc/src/lld\r_adc_lld_rza2m.c ****         {
 385:D:/Work/DeviceTester/amazon-freertos/lib/third_party/mcu_vendor/renesas/rz_mcu_boards/core_package/generate/sc_drivers/r_adc/src/lld\r_adc_lld_rza2m.c ****             adcsr = R_ADC_PRV_ADCSR_ADC_SCAN_MODE_GROUP;
 386:D:/Work/DeviceTester/amazon-freertos/lib/third_party/mcu_vendor/renesas/rz_mcu_boards/core_package/generate/sc_drivers/r_adc/src/lld\r_adc_lld_rza2m.c ****             break;
 387:D:/Work/DeviceTester/amazon-freertos/lib/third_party/mcu_vendor/renesas/rz_mcu_boards/core_package/generate/sc_drivers/r_adc/src/lld\r_adc_lld_rza2m.c ****         }
 388:D:/Work/DeviceTester/amazon-freertos/lib/third_party/mcu_vendor/renesas/rz_mcu_boards/core_package/generate/sc_drivers/r_adc/src/lld\r_adc_lld_rza2m.c **** 
 389:D:/Work/DeviceTester/amazon-freertos/lib/third_party/mcu_vendor/renesas/rz_mcu_boards/core_package/generate/sc_drivers/r_adc/src/lld\r_adc_lld_rza2m.c ****         case ADC_SCAN_MODE_CONTINUOUS:
 390:D:/Work/DeviceTester/amazon-freertos/lib/third_party/mcu_vendor/renesas/rz_mcu_boards/core_package/generate/sc_drivers/r_adc/src/lld\r_adc_lld_rza2m.c ****         {
 391:D:/Work/DeviceTester/amazon-freertos/lib/third_party/mcu_vendor/renesas/rz_mcu_boards/core_package/generate/sc_drivers/r_adc/src/lld\r_adc_lld_rza2m.c ****             adcsr = R_ADC_PRV_ADCSR_ADC_SCAN_MODE_CONTINUOUS;
 392:D:/Work/DeviceTester/amazon-freertos/lib/third_party/mcu_vendor/renesas/rz_mcu_boards/core_package/generate/sc_drivers/r_adc/src/lld\r_adc_lld_rza2m.c ****             break;
 393:D:/Work/DeviceTester/amazon-freertos/lib/third_party/mcu_vendor/renesas/rz_mcu_boards/core_package/generate/sc_drivers/r_adc/src/lld\r_adc_lld_rza2m.c ****         }
 394:D:/Work/DeviceTester/amazon-freertos/lib/third_party/mcu_vendor/renesas/rz_mcu_boards/core_package/generate/sc_drivers/r_adc/src/lld\r_adc_lld_rza2m.c ****     }
 395:D:/Work/DeviceTester/amazon-freertos/lib/third_party/mcu_vendor/renesas/rz_mcu_boards/core_package/generate/sc_drivers/r_adc/src/lld\r_adc_lld_rza2m.c **** 
 396:D:/Work/DeviceTester/amazon-freertos/lib/third_party/mcu_vendor/renesas/rz_mcu_boards/core_package/generate/sc_drivers/r_adc/src/lld\r_adc_lld_rza2m.c ****     RZA_IO_RegWrite_16(&ADC.ADCSR.WORD, adcsr, ADC_ADCSR_ADCS_SHIFT, ADC_ADCSR_ADCS);
 397:D:/Work/DeviceTester/amazon-freertos/lib/third_party/mcu_vendor/renesas/rz_mcu_boards/core_package/generate/sc_drivers/r_adc/src/lld\r_adc_lld_rza2m.c **** }
 398:D:/Work/DeviceTester/amazon-freertos/lib/third_party/mcu_vendor/renesas/rz_mcu_boards/core_package/generate/sc_drivers/r_adc/src/lld\r_adc_lld_rza2m.c **** /**************************************************************************************************
 399:D:/Work/DeviceTester/amazon-freertos/lib/third_party/mcu_vendor/renesas/rz_mcu_boards/core_package/generate/sc_drivers/r_adc/src/lld\r_adc_lld_rza2m.c ****  * End of function adc_set_scan_mode
 400:D:/Work/DeviceTester/amazon-freertos/lib/third_party/mcu_vendor/renesas/rz_mcu_boards/core_package/generate/sc_drivers/r_adc/src/lld\r_adc_lld_rza2m.c ****  **************************************************************************************************
 401:D:/Work/DeviceTester/amazon-freertos/lib/third_party/mcu_vendor/renesas/rz_mcu_boards/core_package/generate/sc_drivers/r_adc/src/lld\r_adc_lld_rza2m.c **** 
 402:D:/Work/DeviceTester/amazon-freertos/lib/third_party/mcu_vendor/renesas/rz_mcu_boards/core_package/generate/sc_drivers/r_adc/src/lld\r_adc_lld_rza2m.c **** /**************************************************************************************************
 403:D:/Work/DeviceTester/amazon-freertos/lib/third_party/mcu_vendor/renesas/rz_mcu_boards/core_package/generate/sc_drivers/r_adc/src/lld\r_adc_lld_rza2m.c ****  * Function Name: is_valid_configuration
 404:D:/Work/DeviceTester/amazon-freertos/lib/third_party/mcu_vendor/renesas/rz_mcu_boards/core_package/generate/sc_drivers/r_adc/src/lld\r_adc_lld_rza2m.c ****  * Description  : Validates the configuration settings
 405:D:/Work/DeviceTester/amazon-freertos/lib/third_party/mcu_vendor/renesas/rz_mcu_boards/core_package/generate/sc_drivers/r_adc/src/lld\r_adc_lld_rza2m.c ****  * Arguments    : p_config[in] - pointer to configuration structure
 406:D:/Work/DeviceTester/amazon-freertos/lib/third_party/mcu_vendor/renesas/rz_mcu_boards/core_package/generate/sc_drivers/r_adc/src/lld\r_adc_lld_rza2m.c ****  * Return Value : true if the settings are valid, false otherwise
 407:D:/Work/DeviceTester/amazon-freertos/lib/third_party/mcu_vendor/renesas/rz_mcu_boards/core_package/generate/sc_drivers/r_adc/src/lld\r_adc_lld_rza2m.c ****  **************************************************************************************************
 408:D:/Work/DeviceTester/amazon-freertos/lib/third_party/mcu_vendor/renesas/rz_mcu_boards/core_package/generate/sc_drivers/r_adc/src/lld\r_adc_lld_rza2m.c **** static bool_t is_valid_configuration(st_r_drv_adc_unit_config_t * p_config)
 409:D:/Work/DeviceTester/amazon-freertos/lib/third_party/mcu_vendor/renesas/rz_mcu_boards/core_package/generate/sc_drivers/r_adc/src/lld\r_adc_lld_rza2m.c **** {
 410:D:/Work/DeviceTester/amazon-freertos/lib/third_party/mcu_vendor/renesas/rz_mcu_boards/core_package/generate/sc_drivers/r_adc/src/lld\r_adc_lld_rza2m.c ****     e_r_drv_adc_channel_t channel;
 411:D:/Work/DeviceTester/amazon-freertos/lib/third_party/mcu_vendor/renesas/rz_mcu_boards/core_package/generate/sc_drivers/r_adc/src/lld\r_adc_lld_rza2m.c **** 
 412:D:/Work/DeviceTester/amazon-freertos/lib/third_party/mcu_vendor/renesas/rz_mcu_boards/core_package/generate/sc_drivers/r_adc/src/lld\r_adc_lld_rza2m.c ****     if ((ADC_RESOLUTION_12 != p_config->resolution) && (ADC_RESOLUTION_10 != p_config->resolution)
 413:D:/Work/DeviceTester/amazon-freertos/lib/third_party/mcu_vendor/renesas/rz_mcu_boards/core_package/generate/sc_drivers/r_adc/src/lld\r_adc_lld_rza2m.c ****             && (ADC_RESOLUTION_8 != p_config->resolution))
 414:D:/Work/DeviceTester/amazon-freertos/lib/third_party/mcu_vendor/renesas/rz_mcu_boards/core_package/generate/sc_drivers/r_adc/src/lld\r_adc_lld_rza2m.c ****     {
 415:D:/Work/DeviceTester/amazon-freertos/lib/third_party/mcu_vendor/renesas/rz_mcu_boards/core_package/generate/sc_drivers/r_adc/src/lld\r_adc_lld_rza2m.c ****         return false;
 416:D:/Work/DeviceTester/amazon-freertos/lib/third_party/mcu_vendor/renesas/rz_mcu_boards/core_package/generate/sc_drivers/r_adc/src/lld\r_adc_lld_rza2m.c ****     }
 417:D:/Work/DeviceTester/amazon-freertos/lib/third_party/mcu_vendor/renesas/rz_mcu_boards/core_package/generate/sc_drivers/r_adc/src/lld\r_adc_lld_rza2m.c **** 
 418:D:/Work/DeviceTester/amazon-freertos/lib/third_party/mcu_vendor/renesas/rz_mcu_boards/core_package/generate/sc_drivers/r_adc/src/lld\r_adc_lld_rza2m.c ****     if ((ADC_ALIGN_RIGHT != p_config->alignment) && (ADC_ALIGN_LEFT != p_config->alignment))
 419:D:/Work/DeviceTester/amazon-freertos/lib/third_party/mcu_vendor/renesas/rz_mcu_boards/core_package/generate/sc_drivers/r_adc/src/lld\r_adc_lld_rza2m.c ****     {
 420:D:/Work/DeviceTester/amazon-freertos/lib/third_party/mcu_vendor/renesas/rz_mcu_boards/core_package/generate/sc_drivers/r_adc/src/lld\r_adc_lld_rza2m.c ****         return false;
 421:D:/Work/DeviceTester/amazon-freertos/lib/third_party/mcu_vendor/renesas/rz_mcu_boards/core_package/generate/sc_drivers/r_adc/src/lld\r_adc_lld_rza2m.c ****     }
 422:D:/Work/DeviceTester/amazon-freertos/lib/third_party/mcu_vendor/renesas/rz_mcu_boards/core_package/generate/sc_drivers/r_adc/src/lld\r_adc_lld_rza2m.c **** 
 423:D:/Work/DeviceTester/amazon-freertos/lib/third_party/mcu_vendor/renesas/rz_mcu_boards/core_package/generate/sc_drivers/r_adc/src/lld\r_adc_lld_rza2m.c ****     if ((ADC_SCAN_MODE_SINGLE != p_config->scan_mode) && (ADC_SCAN_MODE_GROUP != p_config->scan_mod
 424:D:/Work/DeviceTester/amazon-freertos/lib/third_party/mcu_vendor/renesas/rz_mcu_boards/core_package/generate/sc_drivers/r_adc/src/lld\r_adc_lld_rza2m.c ****             && (ADC_SCAN_MODE_CONTINUOUS != p_config->scan_mode))
 425:D:/Work/DeviceTester/amazon-freertos/lib/third_party/mcu_vendor/renesas/rz_mcu_boards/core_package/generate/sc_drivers/r_adc/src/lld\r_adc_lld_rza2m.c ****     {
 426:D:/Work/DeviceTester/amazon-freertos/lib/third_party/mcu_vendor/renesas/rz_mcu_boards/core_package/generate/sc_drivers/r_adc/src/lld\r_adc_lld_rza2m.c ****         return false;
 427:D:/Work/DeviceTester/amazon-freertos/lib/third_party/mcu_vendor/renesas/rz_mcu_boards/core_package/generate/sc_drivers/r_adc/src/lld\r_adc_lld_rza2m.c ****     }
 428:D:/Work/DeviceTester/amazon-freertos/lib/third_party/mcu_vendor/renesas/rz_mcu_boards/core_package/generate/sc_drivers/r_adc/src/lld\r_adc_lld_rza2m.c **** 
 429:D:/Work/DeviceTester/amazon-freertos/lib/third_party/mcu_vendor/renesas/rz_mcu_boards/core_package/generate/sc_drivers/r_adc/src/lld\r_adc_lld_rza2m.c ****     for (channel = ADC_CHANNEL_AN000; channel < ADC_CHANNELS; channel++)
 430:D:/Work/DeviceTester/amazon-freertos/lib/third_party/mcu_vendor/renesas/rz_mcu_boards/core_package/generate/sc_drivers/r_adc/src/lld\r_adc_lld_rza2m.c ****     {
 431:D:/Work/DeviceTester/amazon-freertos/lib/third_party/mcu_vendor/renesas/rz_mcu_boards/core_package/generate/sc_drivers/r_adc/src/lld\r_adc_lld_rza2m.c ****         if ((ADC_TRIGGER_DISABLED != p_config->channels[channel].trigger_source) &&
 432:D:/Work/DeviceTester/amazon-freertos/lib/third_party/mcu_vendor/renesas/rz_mcu_boards/core_package/generate/sc_drivers/r_adc/src/lld\r_adc_lld_rza2m.c ****                 ((p_config->channels[channel].sample_time < R_ADC_PRV_ADC_MINIMUM_SAMPLE_TIME) ||
 433:D:/Work/DeviceTester/amazon-freertos/lib/third_party/mcu_vendor/renesas/rz_mcu_boards/core_package/generate/sc_drivers/r_adc/src/lld\r_adc_lld_rza2m.c ****                 (p_config->channels[channel].sample_time > R_ADC_PRV_ADC_MAXIMUM_SAMPLE_TIME)))
 434:D:/Work/DeviceTester/amazon-freertos/lib/third_party/mcu_vendor/renesas/rz_mcu_boards/core_package/generate/sc_drivers/r_adc/src/lld\r_adc_lld_rza2m.c ****         {
 435:D:/Work/DeviceTester/amazon-freertos/lib/third_party/mcu_vendor/renesas/rz_mcu_boards/core_package/generate/sc_drivers/r_adc/src/lld\r_adc_lld_rza2m.c ****             return false;
 436:D:/Work/DeviceTester/amazon-freertos/lib/third_party/mcu_vendor/renesas/rz_mcu_boards/core_package/generate/sc_drivers/r_adc/src/lld\r_adc_lld_rza2m.c ****         }
 437:D:/Work/DeviceTester/amazon-freertos/lib/third_party/mcu_vendor/renesas/rz_mcu_boards/core_package/generate/sc_drivers/r_adc/src/lld\r_adc_lld_rza2m.c **** 
 438:D:/Work/DeviceTester/amazon-freertos/lib/third_party/mcu_vendor/renesas/rz_mcu_boards/core_package/generate/sc_drivers/r_adc/src/lld\r_adc_lld_rza2m.c ****         if (p_config->channels[channel].trigger_source > ADC_TRIGGER_GROUPC)
 439:D:/Work/DeviceTester/amazon-freertos/lib/third_party/mcu_vendor/renesas/rz_mcu_boards/core_package/generate/sc_drivers/r_adc/src/lld\r_adc_lld_rza2m.c ****         {
 440:D:/Work/DeviceTester/amazon-freertos/lib/third_party/mcu_vendor/renesas/rz_mcu_boards/core_package/generate/sc_drivers/r_adc/src/lld\r_adc_lld_rza2m.c ****             return false;
 441:D:/Work/DeviceTester/amazon-freertos/lib/third_party/mcu_vendor/renesas/rz_mcu_boards/core_package/generate/sc_drivers/r_adc/src/lld\r_adc_lld_rza2m.c ****         }
 442:D:/Work/DeviceTester/amazon-freertos/lib/third_party/mcu_vendor/renesas/rz_mcu_boards/core_package/generate/sc_drivers/r_adc/src/lld\r_adc_lld_rza2m.c ****     }
 443:D:/Work/DeviceTester/amazon-freertos/lib/third_party/mcu_vendor/renesas/rz_mcu_boards/core_package/generate/sc_drivers/r_adc/src/lld\r_adc_lld_rza2m.c **** 
 444:D:/Work/DeviceTester/amazon-freertos/lib/third_party/mcu_vendor/renesas/rz_mcu_boards/core_package/generate/sc_drivers/r_adc/src/lld\r_adc_lld_rza2m.c ****     return true;
 445:D:/Work/DeviceTester/amazon-freertos/lib/third_party/mcu_vendor/renesas/rz_mcu_boards/core_package/generate/sc_drivers/r_adc/src/lld\r_adc_lld_rza2m.c **** }
 446:D:/Work/DeviceTester/amazon-freertos/lib/third_party/mcu_vendor/renesas/rz_mcu_boards/core_package/generate/sc_drivers/r_adc/src/lld\r_adc_lld_rza2m.c **** /**************************************************************************************************
 447:D:/Work/DeviceTester/amazon-freertos/lib/third_party/mcu_vendor/renesas/rz_mcu_boards/core_package/generate/sc_drivers/r_adc/src/lld\r_adc_lld_rza2m.c ****  * End of function is_valid_configuration
 448:D:/Work/DeviceTester/amazon-freertos/lib/third_party/mcu_vendor/renesas/rz_mcu_boards/core_package/generate/sc_drivers/r_adc/src/lld\r_adc_lld_rza2m.c ****  **************************************************************************************************
 449:D:/Work/DeviceTester/amazon-freertos/lib/third_party/mcu_vendor/renesas/rz_mcu_boards/core_package/generate/sc_drivers/r_adc/src/lld\r_adc_lld_rza2m.c **** 
 450:D:/Work/DeviceTester/amazon-freertos/lib/third_party/mcu_vendor/renesas/rz_mcu_boards/core_package/generate/sc_drivers/r_adc/src/lld\r_adc_lld_rza2m.c **** /**************************************************************************************************
 451:D:/Work/DeviceTester/amazon-freertos/lib/third_party/mcu_vendor/renesas/rz_mcu_boards/core_package/generate/sc_drivers/r_adc/src/lld\r_adc_lld_rza2m.c ****  * Function Name: R_ADC_SetConfiguration
 452:D:/Work/DeviceTester/amazon-freertos/lib/third_party/mcu_vendor/renesas/rz_mcu_boards/core_package/generate/sc_drivers/r_adc/src/lld\r_adc_lld_rza2m.c ****  * Description  : Set the ADC configuration
 453:D:/Work/DeviceTester/amazon-freertos/lib/third_party/mcu_vendor/renesas/rz_mcu_boards/core_package/generate/sc_drivers/r_adc/src/lld\r_adc_lld_rza2m.c ****  * Arguments    : p_config[in] - pointer to configuration structure
 454:D:/Work/DeviceTester/amazon-freertos/lib/third_party/mcu_vendor/renesas/rz_mcu_boards/core_package/generate/sc_drivers/r_adc/src/lld\r_adc_lld_rza2m.c ****  * Return Value : ADC_SUCCESS or the error code on failure
 455:D:/Work/DeviceTester/amazon-freertos/lib/third_party/mcu_vendor/renesas/rz_mcu_boards/core_package/generate/sc_drivers/r_adc/src/lld\r_adc_lld_rza2m.c ****  **************************************************************************************************
 456:D:/Work/DeviceTester/amazon-freertos/lib/third_party/mcu_vendor/renesas/rz_mcu_boards/core_package/generate/sc_drivers/r_adc/src/lld\r_adc_lld_rza2m.c **** e_r_drv_adc_err_t R_ADC_SetConfiguration(st_r_drv_adc_unit_config_t * p_config)
 457:D:/Work/DeviceTester/amazon-freertos/lib/third_party/mcu_vendor/renesas/rz_mcu_boards/core_package/generate/sc_drivers/r_adc/src/lld\r_adc_lld_rza2m.c **** {
 439              		.loc 1 457 0
 440              		.cfi_startproc
 441              		@ args = 0, pretend = 0, frame = 0
 442              		@ frame_needed = 0, uses_anonymous_args = 0
 443              	.LVL42:
 444              	.LBB20:
 445              	.LBB21:
 412:D:/Work/DeviceTester/amazon-freertos/lib/third_party/mcu_vendor/renesas/rz_mcu_boards/core_package/generate/sc_drivers/r_adc/src/lld\r_adc_lld_rza2m.c ****             && (ADC_RESOLUTION_8 != p_config->resolution))
 446              		.loc 1 412 0
 447 0000 0010D0E5 		ldrb	r1, [r0]	@ zero_extendqisi2
 448 0004 020051E3 		cmp	r1, #2
 449 0008 4F00008A 		bhi	.L42
 418:D:/Work/DeviceTester/amazon-freertos/lib/third_party/mcu_vendor/renesas/rz_mcu_boards/core_package/generate/sc_drivers/r_adc/src/lld\r_adc_lld_rza2m.c ****     {
 450              		.loc 1 418 0
 451 000c 0130D0E5 		ldrb	r3, [r0, #1]	@ zero_extendqisi2
 452 0010 010053E3 		cmp	r3, #1
 453 0014 4C00008A 		bhi	.L42
 423:D:/Work/DeviceTester/amazon-freertos/lib/third_party/mcu_vendor/renesas/rz_mcu_boards/core_package/generate/sc_drivers/r_adc/src/lld\r_adc_lld_rza2m.c ****             && (ADC_SCAN_MODE_CONTINUOUS != p_config->scan_mode))
 454              		.loc 1 423 0
 455 0018 0230D0E5 		ldrb	r3, [r0, #2]	@ zero_extendqisi2
 456 001c 020053E3 		cmp	r3, #2
 457 0020 4900008A 		bhi	.L42
 458              	.LBE21:
 459              	.LBE20:
 460              		.loc 1 457 0
 461 0024 F0412DE9 		push	{r4, r5, r6, r7, r8, lr}
 462              		.cfi_def_cfa_offset 24
 463              		.cfi_offset 4, -24
 464              		.cfi_offset 5, -20
 465              		.cfi_offset 6, -16
 466              		.cfi_offset 7, -12
 467              		.cfi_offset 8, -8
 468              		.cfi_offset 14, -4
 469              	.LBB23:
 470              	.LBB22:
 423:D:/Work/DeviceTester/amazon-freertos/lib/third_party/mcu_vendor/renesas/rz_mcu_boards/core_package/generate/sc_drivers/r_adc/src/lld\r_adc_lld_rza2m.c ****             && (ADC_SCAN_MODE_CONTINUOUS != p_config->scan_mode))
 471              		.loc 1 423 0
 472 0028 0030A0E1 		mov	r3, r0
 473 002c 0050A0E1 		mov	r5, r0
 474 0030 40E080E2 		add	lr, r0, #64
 475              	.L27:
 431:D:/Work/DeviceTester/amazon-freertos/lib/third_party/mcu_vendor/renesas/rz_mcu_boards/core_package/generate/sc_drivers/r_adc/src/lld\r_adc_lld_rza2m.c ****                 ((p_config->channels[channel].sample_time < R_ADC_PRV_ADC_MINIMUM_SAMPLE_TIME) ||
 476              		.loc 1 431 0
 477 0034 10C0D3E5 		ldrb	ip, [r3, #16]	@ zero_extendqisi2
 478 0038 00005CE3 		cmp	ip, #0
 479 003c 0400000A 		beq	.L26
 432:D:/Work/DeviceTester/amazon-freertos/lib/third_party/mcu_vendor/renesas/rz_mcu_boards/core_package/generate/sc_drivers/r_adc/src/lld\r_adc_lld_rza2m.c ****                 (p_config->channels[channel].sample_time > R_ADC_PRV_ADC_MAXIMUM_SAMPLE_TIME)))
 480              		.loc 1 432 0
 481 0040 0C2093E5 		ldr	r2, [r3, #12]
 482 0044 052042E2 		sub	r2, r2, #5
 438:D:/Work/DeviceTester/amazon-freertos/lib/third_party/mcu_vendor/renesas/rz_mcu_boards/core_package/generate/sc_drivers/r_adc/src/lld\r_adc_lld_rza2m.c ****         {
 483              		.loc 1 438 0
 484 0048 04005CE3 		cmp	ip, #4
 485 004c FA005293 		cmpls	r2, #250
 486 0050 3F00008A 		bhi	.L43
 487              	.L26:
 488              	.LVL43:
 489 0054 083083E2 		add	r3, r3, #8
 429:D:/Work/DeviceTester/amazon-freertos/lib/third_party/mcu_vendor/renesas/rz_mcu_boards/core_package/generate/sc_drivers/r_adc/src/lld\r_adc_lld_rza2m.c ****     {
 490              		.loc 1 429 0
 491 0058 0E0053E1 		cmp	r3, lr
 492 005c F4FFFF1A 		bne	.L27
 493              	.LVL44:
 494              	.LBE22:
 495              	.LBE23:
 496              	.LBB24:
 497              	.LBB25:
 304:D:/Work/DeviceTester/amazon-freertos/lib/third_party/mcu_vendor/renesas/rz_mcu_boards/core_package/generate/sc_drivers/r_adc/src/lld\r_adc_lld_rza2m.c ****     {
 498              		.loc 1 304 0
 499 0060 010051E3 		cmp	r1, #1
 500 0064 0200000A 		beq	.L29
 309:D:/Work/DeviceTester/amazon-freertos/lib/third_party/mcu_vendor/renesas/rz_mcu_boards/core_package/generate/sc_drivers/r_adc/src/lld\r_adc_lld_rza2m.c ****             break;
 501              		.loc 1 309 0
 502 0068 020051E3 		cmp	r1, #2
 503 006c 0210A003 		moveq	r1, #2
 504              	.LVL45:
 505 0070 0010A013 		movne	r1, #0
 506              	.L29:
 507 0074 0040A0E1 		mov	r4, r0
 508              	.LVL46:
 326:D:/Work/DeviceTester/amazon-freertos/lib/third_party/mcu_vendor/renesas/rz_mcu_boards/core_package/generate/sc_drivers/r_adc/src/lld\r_adc_lld_rza2m.c **** }
 509              		.loc 1 326 0
 510 0078 0630A0E3 		mov	r3, #6
 511 007c 0120A0E3 		mov	r2, #1
 512 0080 D4009FE5 		ldr	r0, .L61
 513              	.LVL47:
 514 0084 FEFFFFEB 		bl	RZA_IO_RegWrite_16
 515              	.LVL48:
 516              	.LBE25:
 517              	.LBE24:
 518              	.LBB26:
 519              	.LBB27:
 342:D:/Work/DeviceTester/amazon-freertos/lib/third_party/mcu_vendor/renesas/rz_mcu_boards/core_package/generate/sc_drivers/r_adc/src/lld\r_adc_lld_rza2m.c ****     {
 520              		.loc 1 342 0
 521 0088 0110D4E5 		ldrb	r1, [r4, #1]	@ zero_extendqisi2
 522              	.LVL49:
 358:D:/Work/DeviceTester/amazon-freertos/lib/third_party/mcu_vendor/renesas/rz_mcu_boards/core_package/generate/sc_drivers/r_adc/src/lld\r_adc_lld_rza2m.c **** }
 523              		.loc 1 358 0
 524 008c 0239A0E3 		mov	r3, #32768
 525 0090 0F20A0E3 		mov	r2, #15
 526 0094 C0009FE5 		ldr	r0, .L61
 527 0098 011041E2 		sub	r1, r1, #1
 528              	.LVL50:
 529 009c 111F6FE1 		clz	r1, r1
 530              	.LVL51:
 531 00a0 A112A0E1 		lsr	r1, r1, #5
 532 00a4 FEFFFFEB 		bl	RZA_IO_RegWrite_16
 533              	.LVL52:
 534              	.LBE27:
 535              	.LBE26:
 536              	.LBB28:
 537              	.LBB29:
 374:D:/Work/DeviceTester/amazon-freertos/lib/third_party/mcu_vendor/renesas/rz_mcu_boards/core_package/generate/sc_drivers/r_adc/src/lld\r_adc_lld_rza2m.c ****     {
 538              		.loc 1 374 0
 539 00a8 0210D4E5 		ldrb	r1, [r4, #2]	@ zero_extendqisi2
 540 00ac 010051E3 		cmp	r1, #1
 541 00b0 0200000A 		beq	.L32
 542              	.LVL53:
 379:D:/Work/DeviceTester/amazon-freertos/lib/third_party/mcu_vendor/renesas/rz_mcu_boards/core_package/generate/sc_drivers/r_adc/src/lld\r_adc_lld_rza2m.c ****             break;
 543              		.loc 1 379 0
 544 00b4 020051E3 		cmp	r1, #2
 545 00b8 0210A003 		moveq	r1, #2
 546 00bc 0010A013 		movne	r1, #0
 547              	.L32:
 548              	.LVL54:
 549              	.LBE29:
 550              	.LBE28:
 458:D:/Work/DeviceTester/amazon-freertos/lib/third_party/mcu_vendor/renesas/rz_mcu_boards/core_package/generate/sc_drivers/r_adc/src/lld\r_adc_lld_rza2m.c ****     e_r_drv_adc_channel_t channel;
 459:D:/Work/DeviceTester/amazon-freertos/lib/third_party/mcu_vendor/renesas/rz_mcu_boards/core_package/generate/sc_drivers/r_adc/src/lld\r_adc_lld_rza2m.c ****     uint16_t mask;
 460:D:/Work/DeviceTester/amazon-freertos/lib/third_party/mcu_vendor/renesas/rz_mcu_boards/core_package/generate/sc_drivers/r_adc/src/lld\r_adc_lld_rza2m.c ****     uint16_t ansa0;
 461:D:/Work/DeviceTester/amazon-freertos/lib/third_party/mcu_vendor/renesas/rz_mcu_boards/core_package/generate/sc_drivers/r_adc/src/lld\r_adc_lld_rza2m.c **** 
 462:D:/Work/DeviceTester/amazon-freertos/lib/third_party/mcu_vendor/renesas/rz_mcu_boards/core_package/generate/sc_drivers/r_adc/src/lld\r_adc_lld_rza2m.c ****     if (!is_valid_configuration(p_config))
 463:D:/Work/DeviceTester/amazon-freertos/lib/third_party/mcu_vendor/renesas/rz_mcu_boards/core_package/generate/sc_drivers/r_adc/src/lld\r_adc_lld_rza2m.c ****     {
 464:D:/Work/DeviceTester/amazon-freertos/lib/third_party/mcu_vendor/renesas/rz_mcu_boards/core_package/generate/sc_drivers/r_adc/src/lld\r_adc_lld_rza2m.c ****         return ADC_ERR_INVALID_CFG;
 465:D:/Work/DeviceTester/amazon-freertos/lib/third_party/mcu_vendor/renesas/rz_mcu_boards/core_package/generate/sc_drivers/r_adc/src/lld\r_adc_lld_rza2m.c ****     }
 466:D:/Work/DeviceTester/amazon-freertos/lib/third_party/mcu_vendor/renesas/rz_mcu_boards/core_package/generate/sc_drivers/r_adc/src/lld\r_adc_lld_rza2m.c **** 
 467:D:/Work/DeviceTester/amazon-freertos/lib/third_party/mcu_vendor/renesas/rz_mcu_boards/core_package/generate/sc_drivers/r_adc/src/lld\r_adc_lld_rza2m.c ****     /* configure settings that apply to all channels */
 468:D:/Work/DeviceTester/amazon-freertos/lib/third_party/mcu_vendor/renesas/rz_mcu_boards/core_package/generate/sc_drivers/r_adc/src/lld\r_adc_lld_rza2m.c ****     adc_set_resolution(p_config->resolution);
 469:D:/Work/DeviceTester/amazon-freertos/lib/third_party/mcu_vendor/renesas/rz_mcu_boards/core_package/generate/sc_drivers/r_adc/src/lld\r_adc_lld_rza2m.c ****     adc_set_data_alignment(p_config->alignment);
 470:D:/Work/DeviceTester/amazon-freertos/lib/third_party/mcu_vendor/renesas/rz_mcu_boards/core_package/generate/sc_drivers/r_adc/src/lld\r_adc_lld_rza2m.c ****     adc_set_scan_mode(p_config->scan_mode);
 471:D:/Work/DeviceTester/amazon-freertos/lib/third_party/mcu_vendor/renesas/rz_mcu_boards/core_package/generate/sc_drivers/r_adc/src/lld\r_adc_lld_rza2m.c **** 
 472:D:/Work/DeviceTester/amazon-freertos/lib/third_party/mcu_vendor/renesas/rz_mcu_boards/core_package/generate/sc_drivers/r_adc/src/lld\r_adc_lld_rza2m.c ****     R_INTC_SetPriority(INTC_ID_ADC_S12ADI0, p_config->interrupt_priority);
 551              		.loc 1 472 0
 552 00c0 98609FE5 		ldr	r6, .L61+4
 553              	.LBB33:
 554              	.LBB30:
 396:D:/Work/DeviceTester/amazon-freertos/lib/third_party/mcu_vendor/renesas/rz_mcu_boards/core_package/generate/sc_drivers/r_adc/src/lld\r_adc_lld_rza2m.c **** }
 555              		.loc 1 396 0
 556 00c4 063AA0E3 		mov	r3, #24576
 557              	.LBE30:
 558              	.LBE33:
 559              	.LBB34:
 560              	.LBB35:
 473:D:/Work/DeviceTester/amazon-freertos/lib/third_party/mcu_vendor/renesas/rz_mcu_boards/core_package/generate/sc_drivers/r_adc/src/lld\r_adc_lld_rza2m.c **** 
 474:D:/Work/DeviceTester/amazon-freertos/lib/third_party/mcu_vendor/renesas/rz_mcu_boards/core_package/generate/sc_drivers/r_adc/src/lld\r_adc_lld_rza2m.c ****     ansa0 = 0;
 475:D:/Work/DeviceTester/amazon-freertos/lib/third_party/mcu_vendor/renesas/rz_mcu_boards/core_package/generate/sc_drivers/r_adc/src/lld\r_adc_lld_rza2m.c ****     mask = 1;
 476:D:/Work/DeviceTester/amazon-freertos/lib/third_party/mcu_vendor/renesas/rz_mcu_boards/core_package/generate/sc_drivers/r_adc/src/lld\r_adc_lld_rza2m.c **** 
 477:D:/Work/DeviceTester/amazon-freertos/lib/third_party/mcu_vendor/renesas/rz_mcu_boards/core_package/generate/sc_drivers/r_adc/src/lld\r_adc_lld_rza2m.c ****     /* configure the input channels */
 478:D:/Work/DeviceTester/amazon-freertos/lib/third_party/mcu_vendor/renesas/rz_mcu_boards/core_package/generate/sc_drivers/r_adc/src/lld\r_adc_lld_rza2m.c ****     for (channel = ADC_CHANNEL_AN000; channel < ADC_CHANNELS; channel++)
 561              		.loc 1 478 0
 562 00c8 94809FE5 		ldr	r8, .L61+8
 563              	.LBE35:
 564              	.LBE34:
 565              	.LBB39:
 566              	.LBB31:
 396:D:/Work/DeviceTester/amazon-freertos/lib/third_party/mcu_vendor/renesas/rz_mcu_boards/core_package/generate/sc_drivers/r_adc/src/lld\r_adc_lld_rza2m.c **** }
 567              		.loc 1 396 0
 568 00cc 0D20A0E3 		mov	r2, #13
 569 00d0 90009FE5 		ldr	r0, .L61+12
 570              	.LBE31:
 571              	.LBE39:
 572              	.LBB40:
 573              	.LBB36:
 474:D:/Work/DeviceTester/amazon-freertos/lib/third_party/mcu_vendor/renesas/rz_mcu_boards/core_package/generate/sc_drivers/r_adc/src/lld\r_adc_lld_rza2m.c ****     mask = 1;
 574              		.loc 1 474 0
 575 00d4 0070A0E3 		mov	r7, #0
 576              	.LBE36:
 577              	.LBE40:
 578              	.LBB41:
 579              	.LBB32:
 396:D:/Work/DeviceTester/amazon-freertos/lib/third_party/mcu_vendor/renesas/rz_mcu_boards/core_package/generate/sc_drivers/r_adc/src/lld\r_adc_lld_rza2m.c **** }
 580              		.loc 1 396 0
 581 00d8 FEFFFFEB 		bl	RZA_IO_RegWrite_16
 582              	.LVL55:
 583              	.LBE32:
 584              	.LBE41:
 472:D:/Work/DeviceTester/amazon-freertos/lib/third_party/mcu_vendor/renesas/rz_mcu_boards/core_package/generate/sc_drivers/r_adc/src/lld\r_adc_lld_rza2m.c **** 
 585              		.loc 1 472 0
 586 00dc 0810D4E5 		ldrb	r1, [r4, #8]	@ zero_extendqisi2
 587              	.LBB42:
 588              	.LBB37:
 475:D:/Work/DeviceTester/amazon-freertos/lib/third_party/mcu_vendor/renesas/rz_mcu_boards/core_package/generate/sc_drivers/r_adc/src/lld\r_adc_lld_rza2m.c **** 
 589              		.loc 1 475 0
 590 00e0 0140A0E3 		mov	r4, #1
 591              	.LVL56:
 592              	.LBE37:
 593              	.LBE42:
 472:D:/Work/DeviceTester/amazon-freertos/lib/third_party/mcu_vendor/renesas/rz_mcu_boards/core_package/generate/sc_drivers/r_adc/src/lld\r_adc_lld_rza2m.c **** 
 594              		.loc 1 472 0
 595 00e4 F700A0E3 		mov	r0, #247
 596 00e8 FEFFFFEB 		bl	R_INTC_SetPriority
 597              	.LVL57:
 598              	.L37:
 599              	.LBB43:
 600              	.LBB38:
 479:D:/Work/DeviceTester/amazon-freertos/lib/third_party/mcu_vendor/renesas/rz_mcu_boards/core_package/generate/sc_drivers/r_adc/src/lld\r_adc_lld_rza2m.c ****     {
 480:D:/Work/DeviceTester/amazon-freertos/lib/third_party/mcu_vendor/renesas/rz_mcu_boards/core_package/generate/sc_drivers/r_adc/src/lld\r_adc_lld_rza2m.c ****         if (ADC_TRIGGER_DISABLED != p_config->channels[channel].trigger_source)
 601              		.loc 1 480 0
 602 00ec 1030D5E5 		ldrb	r3, [r5, #16]	@ zero_extendqisi2
 603 00f0 000053E3 		cmp	r3, #0
 604 00f4 0400000A 		beq	.L35
 481:D:/Work/DeviceTester/amazon-freertos/lib/third_party/mcu_vendor/renesas/rz_mcu_boards/core_package/generate/sc_drivers/r_adc/src/lld\r_adc_lld_rza2m.c ****         {
 482:D:/Work/DeviceTester/amazon-freertos/lib/third_party/mcu_vendor/renesas/rz_mcu_boards/core_package/generate/sc_drivers/r_adc/src/lld\r_adc_lld_rza2m.c ****             /* set the channel sample time */
 483:D:/Work/DeviceTester/amazon-freertos/lib/third_party/mcu_vendor/renesas/rz_mcu_boards/core_package/generate/sc_drivers/r_adc/src/lld\r_adc_lld_rza2m.c ****             RZA_IO_RegWrite_8((&ADC.ADSSTR0.BYTE) + channel, (uint8_t) p_config->channels[channel].
 605              		.loc 1 483 0
 606 00f8 0030E0E3 		mvn	r3, #0
 607 00fc 0020A0E3 		mov	r2, #0
 608 0100 0C10D5E5 		ldrb	r1, [r5, #12]	@ zero_extendqisi2
 609 0104 0600A0E1 		mov	r0, r6
 610 0108 FEFFFFEB 		bl	RZA_IO_RegWrite_8
 611              	.LVL58:
 612              	.L35:
 484:D:/Work/DeviceTester/amazon-freertos/lib/third_party/mcu_vendor/renesas/rz_mcu_boards/core_package/generate/sc_drivers/r_adc/src/lld\r_adc_lld_rza2m.c ****                     IOREG_NONSHIFT_ACCESS, IOREG_NONMASK_ACCESS);
 485:D:/Work/DeviceTester/amazon-freertos/lib/third_party/mcu_vendor/renesas/rz_mcu_boards/core_package/generate/sc_drivers/r_adc/src/lld\r_adc_lld_rza2m.c ****         }
 486:D:/Work/DeviceTester/amazon-freertos/lib/third_party/mcu_vendor/renesas/rz_mcu_boards/core_package/generate/sc_drivers/r_adc/src/lld\r_adc_lld_rza2m.c **** 
 487:D:/Work/DeviceTester/amazon-freertos/lib/third_party/mcu_vendor/renesas/rz_mcu_boards/core_package/generate/sc_drivers/r_adc/src/lld\r_adc_lld_rza2m.c ****         if (ADC_TRIGGER_NORMAL == p_config->channels[channel].trigger_source)
 613              		.loc 1 487 0
 614 010c 1030D5E5 		ldrb	r3, [r5, #16]	@ zero_extendqisi2
 615 0110 016086E2 		add	r6, r6, #1
 616              	.LVL59:
 617 0114 085085E2 		add	r5, r5, #8
 618 0118 010053E3 		cmp	r3, #1
 488:D:/Work/DeviceTester/amazon-freertos/lib/third_party/mcu_vendor/renesas/rz_mcu_boards/core_package/generate/sc_drivers/r_adc/src/lld\r_adc_lld_rza2m.c ****         {
 489:D:/Work/DeviceTester/amazon-freertos/lib/third_party/mcu_vendor/renesas/rz_mcu_boards/core_package/generate/sc_drivers/r_adc/src/lld\r_adc_lld_rza2m.c ****             ansa0 |= mask;
 619              		.loc 1 489 0
 620 011c 07708401 		orreq	r7, r4, r7
 621              	.LVL60:
 490:D:/Work/DeviceTester/amazon-freertos/lib/third_party/mcu_vendor/renesas/rz_mcu_boards/core_package/generate/sc_drivers/r_adc/src/lld\r_adc_lld_rza2m.c ****         }
 491:D:/Work/DeviceTester/amazon-freertos/lib/third_party/mcu_vendor/renesas/rz_mcu_boards/core_package/generate/sc_drivers/r_adc/src/lld\r_adc_lld_rza2m.c **** 
 492:D:/Work/DeviceTester/amazon-freertos/lib/third_party/mcu_vendor/renesas/rz_mcu_boards/core_package/generate/sc_drivers/r_adc/src/lld\r_adc_lld_rza2m.c ****         /* the compiler promotes the variable to signed integer for the shift, so cast it back */
 493:D:/Work/DeviceTester/amazon-freertos/lib/third_party/mcu_vendor/renesas/rz_mcu_boards/core_package/generate/sc_drivers/r_adc/src/lld\r_adc_lld_rza2m.c ****         mask = (uint16_t) (mask << 1u);
 622              		.loc 1 493 0
 623 0120 8440A0E1 		lsl	r4, r4, #1
 624              	.LVL61:
 478:D:/Work/DeviceTester/amazon-freertos/lib/third_party/mcu_vendor/renesas/rz_mcu_boards/core_package/generate/sc_drivers/r_adc/src/lld\r_adc_lld_rza2m.c ****     {
 625              		.loc 1 478 0
 626 0124 080056E1 		cmp	r6, r8
 627              		.loc 1 493 0
 628 0128 7440FFE6 		uxth	r4, r4
 629              	.LVL62:
 478:D:/Work/DeviceTester/amazon-freertos/lib/third_party/mcu_vendor/renesas/rz_mcu_boards/core_package/generate/sc_drivers/r_adc/src/lld\r_adc_lld_rza2m.c ****     {
 630              		.loc 1 478 0
 631 012c EEFFFF1A 		bne	.L37
 494:D:/Work/DeviceTester/amazon-freertos/lib/third_party/mcu_vendor/renesas/rz_mcu_boards/core_package/generate/sc_drivers/r_adc/src/lld\r_adc_lld_rza2m.c ****     }
 495:D:/Work/DeviceTester/amazon-freertos/lib/third_party/mcu_vendor/renesas/rz_mcu_boards/core_package/generate/sc_drivers/r_adc/src/lld\r_adc_lld_rza2m.c **** 
 496:D:/Work/DeviceTester/amazon-freertos/lib/third_party/mcu_vendor/renesas/rz_mcu_boards/core_package/generate/sc_drivers/r_adc/src/lld\r_adc_lld_rza2m.c ****     RZA_IO_RegWrite_16(&ADC.ADANSA0.WORD, ansa0, ADC_ADANSA0_ANSA0_SHIFT, ADC_ADANSA0_ANSA0);
 632              		.loc 1 496 0
 633 0130 FF30A0E3 		mov	r3, #255
 634 0134 0020A0E3 		mov	r2, #0
 635 0138 0710A0E1 		mov	r1, r7
 636 013c 28009FE5 		ldr	r0, .L61+16
 637 0140 FEFFFFEB 		bl	RZA_IO_RegWrite_16
 638              	.LVL63:
 639 0144 0000A0E3 		mov	r0, #0
 640 0148 F081BDE8 		pop	{r4, r5, r6, r7, r8, pc}
 641              	.LVL64:
 642              	.L42:
 643              		.cfi_def_cfa_offset 0
 644              		.cfi_restore 4
 645              		.cfi_restore 5
 646              		.cfi_restore 6
 647              		.cfi_restore 7
 648              		.cfi_restore 8
 649              		.cfi_restore 14
 650              	.LBE38:
 651              	.LBE43:
 464:D:/Work/DeviceTester/amazon-freertos/lib/third_party/mcu_vendor/renesas/rz_mcu_boards/core_package/generate/sc_drivers/r_adc/src/lld\r_adc_lld_rza2m.c ****     }
 652              		.loc 1 464 0
 653 014c 0100E0E3 		mvn	r0, #1
 654              	.LVL65:
 655 0150 1EFF2FE1 		bx	lr
 656              	.LVL66:
 657              	.L43:
 658              		.cfi_def_cfa_offset 24
 659              		.cfi_offset 4, -24
 660              		.cfi_offset 5, -20
 661              		.cfi_offset 6, -16
 662              		.cfi_offset 7, -12
 663              		.cfi_offset 8, -8
 664              		.cfi_offset 14, -4
 665 0154 0100E0E3 		mvn	r0, #1
 666              	.LVL67:
 667 0158 F081BDE8 		pop	{r4, r5, r6, r7, r8, pc}
 668              	.L62:
 669              		.align	2
 670              	.L61:
 671 015c 0E5800E8 		.word	-402630642
 672 0160 E05800E8 		.word	-402630432
 673 0164 E85800E8 		.word	-402630424
 674 0168 005800E8 		.word	-402630656
 675 016c 045800E8 		.word	-402630652
 676              		.cfi_endproc
 677              	.LFE13:
 679              		.section	.text.R_ADC_LoadInitialConfiguration,"ax",%progbits
 680              		.align	2
 681              		.global	R_ADC_LoadInitialConfiguration
 682              		.syntax unified
 683              		.arm
 684              		.fpu neon
 686              	R_ADC_LoadInitialConfiguration:
 687              	.LFB6:
 206:D:/Work/DeviceTester/amazon-freertos/lib/third_party/mcu_vendor/renesas/rz_mcu_boards/core_package/generate/sc_drivers/r_adc/src/lld\r_adc_lld_rza2m.c ****     st_r_drv_adc_unit_config_t adc_config;
 688              		.loc 1 206 0
 689              		.cfi_startproc
 690              		@ args = 0, pretend = 0, frame = 80
 691              		@ frame_needed = 0, uses_anonymous_args = 0
 692              	.LVL68:
 693 0000 10402DE9 		push	{r4, lr}
 694              		.cfi_def_cfa_offset 8
 695              		.cfi_offset 4, -8
 696              		.cfi_offset 14, -4
 211:D:/Work/DeviceTester/amazon-freertos/lib/third_party/mcu_vendor/renesas/rz_mcu_boards/core_package/generate/sc_drivers/r_adc/src/lld\r_adc_lld_rza2m.c ****     adc_config.scan_mode = ADC_SC_TABLE.scan_mode;
 697              		.loc 1 211 0
 698 0004 0120A0E3 		mov	r2, #1
 206:D:/Work/DeviceTester/amazon-freertos/lib/third_party/mcu_vendor/renesas/rz_mcu_boards/core_package/generate/sc_drivers/r_adc/src/lld\r_adc_lld_rza2m.c ****     st_r_drv_adc_unit_config_t adc_config;
 699              		.loc 1 206 0
 700 0008 50D04DE2 		sub	sp, sp, #80
 701              		.cfi_def_cfa_offset 88
 210:D:/Work/DeviceTester/amazon-freertos/lib/third_party/mcu_vendor/renesas/rz_mcu_boards/core_package/generate/sc_drivers/r_adc/src/lld\r_adc_lld_rza2m.c ****     adc_config.alignment = ADC_SC_TABLE.alignment;
 702              		.loc 1 210 0
 703 000c 0030A0E3 		mov	r3, #0
 206:D:/Work/DeviceTester/amazon-freertos/lib/third_party/mcu_vendor/renesas/rz_mcu_boards/core_package/generate/sc_drivers/r_adc/src/lld\r_adc_lld_rza2m.c ****     st_r_drv_adc_unit_config_t adc_config;
 704              		.loc 1 206 0
 705 0010 0040A0E1 		mov	r4, r0
 232:D:/Work/DeviceTester/amazon-freertos/lib/third_party/mcu_vendor/renesas/rz_mcu_boards/core_package/generate/sc_drivers/r_adc/src/lld\r_adc_lld_rza2m.c ****     {
 706              		.loc 1 232 0
 707 0014 04008DE2 		add	r0, sp, #4
 708              	.LVL69:
 211:D:/Work/DeviceTester/amazon-freertos/lib/third_party/mcu_vendor/renesas/rz_mcu_boards/core_package/generate/sc_drivers/r_adc/src/lld\r_adc_lld_rza2m.c ****     adc_config.scan_mode = ADC_SC_TABLE.scan_mode;
 709              		.loc 1 211 0
 710 0018 0520CDE5 		strb	r2, [sp, #5]
 214:D:/Work/DeviceTester/amazon-freertos/lib/third_party/mcu_vendor/renesas/rz_mcu_boards/core_package/generate/sc_drivers/r_adc/src/lld\r_adc_lld_rza2m.c ****     adc_config.channels[ADC_CHANNEL_AN000].sample_time = ADC_SC_TABLE.sample_time_chan_0;
 711              		.loc 1 214 0
 712 001c 1420A0E3 		mov	r2, #20
 210:D:/Work/DeviceTester/amazon-freertos/lib/third_party/mcu_vendor/renesas/rz_mcu_boards/core_package/generate/sc_drivers/r_adc/src/lld\r_adc_lld_rza2m.c ****     adc_config.alignment = ADC_SC_TABLE.alignment;
 713              		.loc 1 210 0
 714 0020 0430CDE5 		strb	r3, [sp, #4]
 212:D:/Work/DeviceTester/amazon-freertos/lib/third_party/mcu_vendor/renesas/rz_mcu_boards/core_package/generate/sc_drivers/r_adc/src/lld\r_adc_lld_rza2m.c ****     adc_config.p_adcCallback = ADC_SC_TABLE.p_adcCallback;
 715              		.loc 1 212 0
 716 0024 0630CDE5 		strb	r3, [sp, #6]
 213:D:/Work/DeviceTester/amazon-freertos/lib/third_party/mcu_vendor/renesas/rz_mcu_boards/core_package/generate/sc_drivers/r_adc/src/lld\r_adc_lld_rza2m.c ****     adc_config.interrupt_priority = ADC_SC_TABLE.interrupt_priority;
 717              		.loc 1 213 0
 718 0028 08308DE5 		str	r3, [sp, #8]
 214:D:/Work/DeviceTester/amazon-freertos/lib/third_party/mcu_vendor/renesas/rz_mcu_boards/core_package/generate/sc_drivers/r_adc/src/lld\r_adc_lld_rza2m.c ****     adc_config.channels[ADC_CHANNEL_AN000].sample_time = ADC_SC_TABLE.sample_time_chan_0;
 719              		.loc 1 214 0
 720 002c 0C20CDE5 		strb	r2, [sp, #12]
 215:D:/Work/DeviceTester/amazon-freertos/lib/third_party/mcu_vendor/renesas/rz_mcu_boards/core_package/generate/sc_drivers/r_adc/src/lld\r_adc_lld_rza2m.c ****     adc_config.channels[ADC_CHANNEL_AN000].trigger_source = ADC_SC_TABLE.trigger_source_chan_0;
 721              		.loc 1 215 0
 722 0030 10308DE5 		str	r3, [sp, #16]
 216:D:/Work/DeviceTester/amazon-freertos/lib/third_party/mcu_vendor/renesas/rz_mcu_boards/core_package/generate/sc_drivers/r_adc/src/lld\r_adc_lld_rza2m.c ****     adc_config.channels[ADC_CHANNEL_AN001].sample_time = ADC_SC_TABLE.sample_time_chan_1;
 723              		.loc 1 216 0
 724 0034 1430CDE5 		strb	r3, [sp, #20]
 217:D:/Work/DeviceTester/amazon-freertos/lib/third_party/mcu_vendor/renesas/rz_mcu_boards/core_package/generate/sc_drivers/r_adc/src/lld\r_adc_lld_rza2m.c ****     adc_config.channels[ADC_CHANNEL_AN001].trigger_source = ADC_SC_TABLE.trigger_source_chan_1;
 725              		.loc 1 217 0
 726 0038 18308DE5 		str	r3, [sp, #24]
 218:D:/Work/DeviceTester/amazon-freertos/lib/third_party/mcu_vendor/renesas/rz_mcu_boards/core_package/generate/sc_drivers/r_adc/src/lld\r_adc_lld_rza2m.c ****     adc_config.channels[ADC_CHANNEL_AN002].sample_time = ADC_SC_TABLE.sample_time_chan_2;
 727              		.loc 1 218 0
 728 003c 1C30CDE5 		strb	r3, [sp, #28]
 219:D:/Work/DeviceTester/amazon-freertos/lib/third_party/mcu_vendor/renesas/rz_mcu_boards/core_package/generate/sc_drivers/r_adc/src/lld\r_adc_lld_rza2m.c ****     adc_config.channels[ADC_CHANNEL_AN002].trigger_source = ADC_SC_TABLE.trigger_source_chan_2;
 729              		.loc 1 219 0
 730 0040 20308DE5 		str	r3, [sp, #32]
 220:D:/Work/DeviceTester/amazon-freertos/lib/third_party/mcu_vendor/renesas/rz_mcu_boards/core_package/generate/sc_drivers/r_adc/src/lld\r_adc_lld_rza2m.c ****     adc_config.channels[ADC_CHANNEL_AN003].sample_time = ADC_SC_TABLE.sample_time_chan_3;
 731              		.loc 1 220 0
 732 0044 2430CDE5 		strb	r3, [sp, #36]
 221:D:/Work/DeviceTester/amazon-freertos/lib/third_party/mcu_vendor/renesas/rz_mcu_boards/core_package/generate/sc_drivers/r_adc/src/lld\r_adc_lld_rza2m.c ****     adc_config.channels[ADC_CHANNEL_AN003].trigger_source = ADC_SC_TABLE.trigger_source_chan_3;
 733              		.loc 1 221 0
 734 0048 28308DE5 		str	r3, [sp, #40]
 222:D:/Work/DeviceTester/amazon-freertos/lib/third_party/mcu_vendor/renesas/rz_mcu_boards/core_package/generate/sc_drivers/r_adc/src/lld\r_adc_lld_rza2m.c ****     adc_config.channels[ADC_CHANNEL_AN004].sample_time = ADC_SC_TABLE.sample_time_chan_4;
 735              		.loc 1 222 0
 736 004c 2C30CDE5 		strb	r3, [sp, #44]
 223:D:/Work/DeviceTester/amazon-freertos/lib/third_party/mcu_vendor/renesas/rz_mcu_boards/core_package/generate/sc_drivers/r_adc/src/lld\r_adc_lld_rza2m.c ****     adc_config.channels[ADC_CHANNEL_AN004].trigger_source = ADC_SC_TABLE.trigger_source_chan_4;
 737              		.loc 1 223 0
 738 0050 30308DE5 		str	r3, [sp, #48]
 224:D:/Work/DeviceTester/amazon-freertos/lib/third_party/mcu_vendor/renesas/rz_mcu_boards/core_package/generate/sc_drivers/r_adc/src/lld\r_adc_lld_rza2m.c ****     adc_config.channels[ADC_CHANNEL_AN005].sample_time = ADC_SC_TABLE.sample_time_chan_5;
 739              		.loc 1 224 0
 740 0054 3430CDE5 		strb	r3, [sp, #52]
 225:D:/Work/DeviceTester/amazon-freertos/lib/third_party/mcu_vendor/renesas/rz_mcu_boards/core_package/generate/sc_drivers/r_adc/src/lld\r_adc_lld_rza2m.c ****     adc_config.channels[ADC_CHANNEL_AN005].trigger_source = ADC_SC_TABLE.trigger_source_chan_5;
 741              		.loc 1 225 0
 742 0058 38308DE5 		str	r3, [sp, #56]
 226:D:/Work/DeviceTester/amazon-freertos/lib/third_party/mcu_vendor/renesas/rz_mcu_boards/core_package/generate/sc_drivers/r_adc/src/lld\r_adc_lld_rza2m.c ****     adc_config.channels[ADC_CHANNEL_AN006].sample_time = ADC_SC_TABLE.sample_time_chan_6;
 743              		.loc 1 226 0
 744 005c 3C30CDE5 		strb	r3, [sp, #60]
 227:D:/Work/DeviceTester/amazon-freertos/lib/third_party/mcu_vendor/renesas/rz_mcu_boards/core_package/generate/sc_drivers/r_adc/src/lld\r_adc_lld_rza2m.c ****     adc_config.channels[ADC_CHANNEL_AN006].trigger_source = ADC_SC_TABLE.trigger_source_chan_6;
 745              		.loc 1 227 0
 746 0060 40308DE5 		str	r3, [sp, #64]
 228:D:/Work/DeviceTester/amazon-freertos/lib/third_party/mcu_vendor/renesas/rz_mcu_boards/core_package/generate/sc_drivers/r_adc/src/lld\r_adc_lld_rza2m.c ****     adc_config.channels[ADC_CHANNEL_AN007].sample_time = ADC_SC_TABLE.sample_time_chan_7;
 747              		.loc 1 228 0
 748 0064 4430CDE5 		strb	r3, [sp, #68]
 229:D:/Work/DeviceTester/amazon-freertos/lib/third_party/mcu_vendor/renesas/rz_mcu_boards/core_package/generate/sc_drivers/r_adc/src/lld\r_adc_lld_rza2m.c ****     adc_config.channels[ADC_CHANNEL_AN007].trigger_source = ADC_SC_TABLE.trigger_source_chan_7;
 749              		.loc 1 229 0
 750 0068 48308DE5 		str	r3, [sp, #72]
 230:D:/Work/DeviceTester/amazon-freertos/lib/third_party/mcu_vendor/renesas/rz_mcu_boards/core_package/generate/sc_drivers/r_adc/src/lld\r_adc_lld_rza2m.c **** 
 751              		.loc 1 230 0
 752 006c 4C30CDE5 		strb	r3, [sp, #76]
 232:D:/Work/DeviceTester/amazon-freertos/lib/third_party/mcu_vendor/renesas/rz_mcu_boards/core_package/generate/sc_drivers/r_adc/src/lld\r_adc_lld_rza2m.c ****     {
 753              		.loc 1 232 0
 754 0070 FEFFFFEB 		bl	R_ADC_SetConfiguration
 755              	.LVL70:
 756 0074 000050E3 		cmp	r0, #0
 234:D:/Work/DeviceTester/amazon-freertos/lib/third_party/mcu_vendor/renesas/rz_mcu_boards/core_package/generate/sc_drivers/r_adc/src/lld\r_adc_lld_rza2m.c ****     }
 757              		.loc 1 234 0
 758 0078 0100E013 		mvnne	r0, #1
 238:D:/Work/DeviceTester/amazon-freertos/lib/third_party/mcu_vendor/renesas/rz_mcu_boards/core_package/generate/sc_drivers/r_adc/src/lld\r_adc_lld_rza2m.c **** 
 759              		.loc 1 238 0
 760 007c 00008405 		streq	r0, [r4]
 241:D:/Work/DeviceTester/amazon-freertos/lib/third_party/mcu_vendor/renesas/rz_mcu_boards/core_package/generate/sc_drivers/r_adc/src/lld\r_adc_lld_rza2m.c **** /**************************************************************************************************
 761              		.loc 1 241 0
 762 0080 50D08DE2 		add	sp, sp, #80
 763              		.cfi_def_cfa_offset 8
 764              		@ sp needed
 765 0084 1080BDE8 		pop	{r4, pc}
 766              		.cfi_endproc
 767              	.LFE6:
 769              		.section	.text.R_ADC_GetConfiguration,"ax",%progbits
 770              		.align	2
 771              		.global	R_ADC_GetConfiguration
 772              		.syntax unified
 773              		.arm
 774              		.fpu neon
 776              	R_ADC_GetConfiguration:
 777              	.LFB17:
 497:D:/Work/DeviceTester/amazon-freertos/lib/third_party/mcu_vendor/renesas/rz_mcu_boards/core_package/generate/sc_drivers/r_adc/src/lld\r_adc_lld_rza2m.c **** 
 498:D:/Work/DeviceTester/amazon-freertos/lib/third_party/mcu_vendor/renesas/rz_mcu_boards/core_package/generate/sc_drivers/r_adc/src/lld\r_adc_lld_rza2m.c ****     return ADC_SUCCESS;
 499:D:/Work/DeviceTester/amazon-freertos/lib/third_party/mcu_vendor/renesas/rz_mcu_boards/core_package/generate/sc_drivers/r_adc/src/lld\r_adc_lld_rza2m.c **** }
 500:D:/Work/DeviceTester/amazon-freertos/lib/third_party/mcu_vendor/renesas/rz_mcu_boards/core_package/generate/sc_drivers/r_adc/src/lld\r_adc_lld_rza2m.c **** /**************************************************************************************************
 501:D:/Work/DeviceTester/amazon-freertos/lib/third_party/mcu_vendor/renesas/rz_mcu_boards/core_package/generate/sc_drivers/r_adc/src/lld\r_adc_lld_rza2m.c ****  * End of function R_ADC_SetConfiguration
 502:D:/Work/DeviceTester/amazon-freertos/lib/third_party/mcu_vendor/renesas/rz_mcu_boards/core_package/generate/sc_drivers/r_adc/src/lld\r_adc_lld_rza2m.c ****  **************************************************************************************************
 503:D:/Work/DeviceTester/amazon-freertos/lib/third_party/mcu_vendor/renesas/rz_mcu_boards/core_package/generate/sc_drivers/r_adc/src/lld\r_adc_lld_rza2m.c **** 
 504:D:/Work/DeviceTester/amazon-freertos/lib/third_party/mcu_vendor/renesas/rz_mcu_boards/core_package/generate/sc_drivers/r_adc/src/lld\r_adc_lld_rza2m.c **** /**************************************************************************************************
 505:D:/Work/DeviceTester/amazon-freertos/lib/third_party/mcu_vendor/renesas/rz_mcu_boards/core_package/generate/sc_drivers/r_adc/src/lld\r_adc_lld_rza2m.c ****  * Function Name: adc_get_resolution
 506:D:/Work/DeviceTester/amazon-freertos/lib/third_party/mcu_vendor/renesas/rz_mcu_boards/core_package/generate/sc_drivers/r_adc/src/lld\r_adc_lld_rza2m.c ****  * Description  : Gets the ADC resolution setting
 507:D:/Work/DeviceTester/amazon-freertos/lib/third_party/mcu_vendor/renesas/rz_mcu_boards/core_package/generate/sc_drivers/r_adc/src/lld\r_adc_lld_rza2m.c ****  * Arguments    : None
 508:D:/Work/DeviceTester/amazon-freertos/lib/third_party/mcu_vendor/renesas/rz_mcu_boards/core_package/generate/sc_drivers/r_adc/src/lld\r_adc_lld_rza2m.c ****  * Return Value : The ADC resolution (8, 10 or 12 bits)
 509:D:/Work/DeviceTester/amazon-freertos/lib/third_party/mcu_vendor/renesas/rz_mcu_boards/core_package/generate/sc_drivers/r_adc/src/lld\r_adc_lld_rza2m.c ****  **************************************************************************************************
 510:D:/Work/DeviceTester/amazon-freertos/lib/third_party/mcu_vendor/renesas/rz_mcu_boards/core_package/generate/sc_drivers/r_adc/src/lld\r_adc_lld_rza2m.c **** static e_r_drv_adc_resolution_t adc_get_resolution(void)
 511:D:/Work/DeviceTester/amazon-freertos/lib/third_party/mcu_vendor/renesas/rz_mcu_boards/core_package/generate/sc_drivers/r_adc/src/lld\r_adc_lld_rza2m.c **** {
 512:D:/Work/DeviceTester/amazon-freertos/lib/third_party/mcu_vendor/renesas/rz_mcu_boards/core_package/generate/sc_drivers/r_adc/src/lld\r_adc_lld_rza2m.c ****     uint16_t adprc;
 513:D:/Work/DeviceTester/amazon-freertos/lib/third_party/mcu_vendor/renesas/rz_mcu_boards/core_package/generate/sc_drivers/r_adc/src/lld\r_adc_lld_rza2m.c ****     e_r_drv_adc_resolution_t resolution;
 514:D:/Work/DeviceTester/amazon-freertos/lib/third_party/mcu_vendor/renesas/rz_mcu_boards/core_package/generate/sc_drivers/r_adc/src/lld\r_adc_lld_rza2m.c **** 
 515:D:/Work/DeviceTester/amazon-freertos/lib/third_party/mcu_vendor/renesas/rz_mcu_boards/core_package/generate/sc_drivers/r_adc/src/lld\r_adc_lld_rza2m.c ****     /* read the ADPRC value from the ADCER register */
 516:D:/Work/DeviceTester/amazon-freertos/lib/third_party/mcu_vendor/renesas/rz_mcu_boards/core_package/generate/sc_drivers/r_adc/src/lld\r_adc_lld_rza2m.c ****     adprc = RZA_IO_RegRead_16(&ADC.ADCER.WORD, ADC_ADCER_ADPRC_SHIFT, ADC_ADCER_ADPRC);
 517:D:/Work/DeviceTester/amazon-freertos/lib/third_party/mcu_vendor/renesas/rz_mcu_boards/core_package/generate/sc_drivers/r_adc/src/lld\r_adc_lld_rza2m.c **** 
 518:D:/Work/DeviceTester/amazon-freertos/lib/third_party/mcu_vendor/renesas/rz_mcu_boards/core_package/generate/sc_drivers/r_adc/src/lld\r_adc_lld_rza2m.c ****     /* map to our enumerated type */
 519:D:/Work/DeviceTester/amazon-freertos/lib/third_party/mcu_vendor/renesas/rz_mcu_boards/core_package/generate/sc_drivers/r_adc/src/lld\r_adc_lld_rza2m.c ****     switch (adprc)
 520:D:/Work/DeviceTester/amazon-freertos/lib/third_party/mcu_vendor/renesas/rz_mcu_boards/core_package/generate/sc_drivers/r_adc/src/lld\r_adc_lld_rza2m.c ****     {
 521:D:/Work/DeviceTester/amazon-freertos/lib/third_party/mcu_vendor/renesas/rz_mcu_boards/core_package/generate/sc_drivers/r_adc/src/lld\r_adc_lld_rza2m.c ****         default:
 522:D:/Work/DeviceTester/amazon-freertos/lib/third_party/mcu_vendor/renesas/rz_mcu_boards/core_package/generate/sc_drivers/r_adc/src/lld\r_adc_lld_rza2m.c ****         case R_ADC_PRV_ADCER_ADC_RESOLUTION_12:
 523:D:/Work/DeviceTester/amazon-freertos/lib/third_party/mcu_vendor/renesas/rz_mcu_boards/core_package/generate/sc_drivers/r_adc/src/lld\r_adc_lld_rza2m.c ****         {
 524:D:/Work/DeviceTester/amazon-freertos/lib/third_party/mcu_vendor/renesas/rz_mcu_boards/core_package/generate/sc_drivers/r_adc/src/lld\r_adc_lld_rza2m.c ****             resolution = ADC_RESOLUTION_12;
 525:D:/Work/DeviceTester/amazon-freertos/lib/third_party/mcu_vendor/renesas/rz_mcu_boards/core_package/generate/sc_drivers/r_adc/src/lld\r_adc_lld_rza2m.c ****             break;
 526:D:/Work/DeviceTester/amazon-freertos/lib/third_party/mcu_vendor/renesas/rz_mcu_boards/core_package/generate/sc_drivers/r_adc/src/lld\r_adc_lld_rza2m.c ****         }
 527:D:/Work/DeviceTester/amazon-freertos/lib/third_party/mcu_vendor/renesas/rz_mcu_boards/core_package/generate/sc_drivers/r_adc/src/lld\r_adc_lld_rza2m.c **** 
 528:D:/Work/DeviceTester/amazon-freertos/lib/third_party/mcu_vendor/renesas/rz_mcu_boards/core_package/generate/sc_drivers/r_adc/src/lld\r_adc_lld_rza2m.c ****         case R_ADC_PRV_ADCER_ADC_RESOLUTION_10:
 529:D:/Work/DeviceTester/amazon-freertos/lib/third_party/mcu_vendor/renesas/rz_mcu_boards/core_package/generate/sc_drivers/r_adc/src/lld\r_adc_lld_rza2m.c ****         {
 530:D:/Work/DeviceTester/amazon-freertos/lib/third_party/mcu_vendor/renesas/rz_mcu_boards/core_package/generate/sc_drivers/r_adc/src/lld\r_adc_lld_rza2m.c ****             resolution = ADC_RESOLUTION_10;
 531:D:/Work/DeviceTester/amazon-freertos/lib/third_party/mcu_vendor/renesas/rz_mcu_boards/core_package/generate/sc_drivers/r_adc/src/lld\r_adc_lld_rza2m.c ****             break;
 532:D:/Work/DeviceTester/amazon-freertos/lib/third_party/mcu_vendor/renesas/rz_mcu_boards/core_package/generate/sc_drivers/r_adc/src/lld\r_adc_lld_rza2m.c ****         }
 533:D:/Work/DeviceTester/amazon-freertos/lib/third_party/mcu_vendor/renesas/rz_mcu_boards/core_package/generate/sc_drivers/r_adc/src/lld\r_adc_lld_rza2m.c **** 
 534:D:/Work/DeviceTester/amazon-freertos/lib/third_party/mcu_vendor/renesas/rz_mcu_boards/core_package/generate/sc_drivers/r_adc/src/lld\r_adc_lld_rza2m.c ****         case R_ADC_PRV_ADCER_ADC_RESOLUTION_8:
 535:D:/Work/DeviceTester/amazon-freertos/lib/third_party/mcu_vendor/renesas/rz_mcu_boards/core_package/generate/sc_drivers/r_adc/src/lld\r_adc_lld_rza2m.c ****         {
 536:D:/Work/DeviceTester/amazon-freertos/lib/third_party/mcu_vendor/renesas/rz_mcu_boards/core_package/generate/sc_drivers/r_adc/src/lld\r_adc_lld_rza2m.c ****             resolution = ADC_RESOLUTION_8;
 537:D:/Work/DeviceTester/amazon-freertos/lib/third_party/mcu_vendor/renesas/rz_mcu_boards/core_package/generate/sc_drivers/r_adc/src/lld\r_adc_lld_rza2m.c ****             break;
 538:D:/Work/DeviceTester/amazon-freertos/lib/third_party/mcu_vendor/renesas/rz_mcu_boards/core_package/generate/sc_drivers/r_adc/src/lld\r_adc_lld_rza2m.c ****         }
 539:D:/Work/DeviceTester/amazon-freertos/lib/third_party/mcu_vendor/renesas/rz_mcu_boards/core_package/generate/sc_drivers/r_adc/src/lld\r_adc_lld_rza2m.c ****     }
 540:D:/Work/DeviceTester/amazon-freertos/lib/third_party/mcu_vendor/renesas/rz_mcu_boards/core_package/generate/sc_drivers/r_adc/src/lld\r_adc_lld_rza2m.c **** 
 541:D:/Work/DeviceTester/amazon-freertos/lib/third_party/mcu_vendor/renesas/rz_mcu_boards/core_package/generate/sc_drivers/r_adc/src/lld\r_adc_lld_rza2m.c ****     return resolution;
 542:D:/Work/DeviceTester/amazon-freertos/lib/third_party/mcu_vendor/renesas/rz_mcu_boards/core_package/generate/sc_drivers/r_adc/src/lld\r_adc_lld_rza2m.c **** }
 543:D:/Work/DeviceTester/amazon-freertos/lib/third_party/mcu_vendor/renesas/rz_mcu_boards/core_package/generate/sc_drivers/r_adc/src/lld\r_adc_lld_rza2m.c **** /**************************************************************************************************
 544:D:/Work/DeviceTester/amazon-freertos/lib/third_party/mcu_vendor/renesas/rz_mcu_boards/core_package/generate/sc_drivers/r_adc/src/lld\r_adc_lld_rza2m.c ****  * End of function adc_get_resolution
 545:D:/Work/DeviceTester/amazon-freertos/lib/third_party/mcu_vendor/renesas/rz_mcu_boards/core_package/generate/sc_drivers/r_adc/src/lld\r_adc_lld_rza2m.c ****  **************************************************************************************************
 546:D:/Work/DeviceTester/amazon-freertos/lib/third_party/mcu_vendor/renesas/rz_mcu_boards/core_package/generate/sc_drivers/r_adc/src/lld\r_adc_lld_rza2m.c **** 
 547:D:/Work/DeviceTester/amazon-freertos/lib/third_party/mcu_vendor/renesas/rz_mcu_boards/core_package/generate/sc_drivers/r_adc/src/lld\r_adc_lld_rza2m.c **** /**************************************************************************************************
 548:D:/Work/DeviceTester/amazon-freertos/lib/third_party/mcu_vendor/renesas/rz_mcu_boards/core_package/generate/sc_drivers/r_adc/src/lld\r_adc_lld_rza2m.c ****  * Function Name: adc_get_data_alignment
 549:D:/Work/DeviceTester/amazon-freertos/lib/third_party/mcu_vendor/renesas/rz_mcu_boards/core_package/generate/sc_drivers/r_adc/src/lld\r_adc_lld_rza2m.c ****  * Description  : Gets the ADC data alignment setting
 550:D:/Work/DeviceTester/amazon-freertos/lib/third_party/mcu_vendor/renesas/rz_mcu_boards/core_package/generate/sc_drivers/r_adc/src/lld\r_adc_lld_rza2m.c ****  * Arguments    : None
 551:D:/Work/DeviceTester/amazon-freertos/lib/third_party/mcu_vendor/renesas/rz_mcu_boards/core_package/generate/sc_drivers/r_adc/src/lld\r_adc_lld_rza2m.c ****  * Return Value : The ADC data alignment (left or right)
 552:D:/Work/DeviceTester/amazon-freertos/lib/third_party/mcu_vendor/renesas/rz_mcu_boards/core_package/generate/sc_drivers/r_adc/src/lld\r_adc_lld_rza2m.c ****  **************************************************************************************************
 553:D:/Work/DeviceTester/amazon-freertos/lib/third_party/mcu_vendor/renesas/rz_mcu_boards/core_package/generate/sc_drivers/r_adc/src/lld\r_adc_lld_rza2m.c **** static e_r_drv_adc_alignment_t adc_get_data_alignment(void)
 554:D:/Work/DeviceTester/amazon-freertos/lib/third_party/mcu_vendor/renesas/rz_mcu_boards/core_package/generate/sc_drivers/r_adc/src/lld\r_adc_lld_rza2m.c **** {
 555:D:/Work/DeviceTester/amazon-freertos/lib/third_party/mcu_vendor/renesas/rz_mcu_boards/core_package/generate/sc_drivers/r_adc/src/lld\r_adc_lld_rza2m.c ****     uint16_t adrfmt;
 556:D:/Work/DeviceTester/amazon-freertos/lib/third_party/mcu_vendor/renesas/rz_mcu_boards/core_package/generate/sc_drivers/r_adc/src/lld\r_adc_lld_rza2m.c ****     e_r_drv_adc_alignment_t alignment;
 557:D:/Work/DeviceTester/amazon-freertos/lib/third_party/mcu_vendor/renesas/rz_mcu_boards/core_package/generate/sc_drivers/r_adc/src/lld\r_adc_lld_rza2m.c **** 
 558:D:/Work/DeviceTester/amazon-freertos/lib/third_party/mcu_vendor/renesas/rz_mcu_boards/core_package/generate/sc_drivers/r_adc/src/lld\r_adc_lld_rza2m.c ****     /* read the ADRFMT value from the ADCER register */
 559:D:/Work/DeviceTester/amazon-freertos/lib/third_party/mcu_vendor/renesas/rz_mcu_boards/core_package/generate/sc_drivers/r_adc/src/lld\r_adc_lld_rza2m.c ****     adrfmt = RZA_IO_RegRead_16(&ADC.ADCER.WORD, ADC_ADCER_ADRFMT_SHIFT, ADC_ADCER_ADRFMT);
 560:D:/Work/DeviceTester/amazon-freertos/lib/third_party/mcu_vendor/renesas/rz_mcu_boards/core_package/generate/sc_drivers/r_adc/src/lld\r_adc_lld_rza2m.c **** 
 561:D:/Work/DeviceTester/amazon-freertos/lib/third_party/mcu_vendor/renesas/rz_mcu_boards/core_package/generate/sc_drivers/r_adc/src/lld\r_adc_lld_rza2m.c ****     /* map to our enumerated type */
 562:D:/Work/DeviceTester/amazon-freertos/lib/third_party/mcu_vendor/renesas/rz_mcu_boards/core_package/generate/sc_drivers/r_adc/src/lld\r_adc_lld_rza2m.c ****     switch (adrfmt)
 563:D:/Work/DeviceTester/amazon-freertos/lib/third_party/mcu_vendor/renesas/rz_mcu_boards/core_package/generate/sc_drivers/r_adc/src/lld\r_adc_lld_rza2m.c ****     {
 564:D:/Work/DeviceTester/amazon-freertos/lib/third_party/mcu_vendor/renesas/rz_mcu_boards/core_package/generate/sc_drivers/r_adc/src/lld\r_adc_lld_rza2m.c ****         case R_ADC_PRV_ADCER_ADC_DATA_FORMAT_LEFT_ALIGN:
 565:D:/Work/DeviceTester/amazon-freertos/lib/third_party/mcu_vendor/renesas/rz_mcu_boards/core_package/generate/sc_drivers/r_adc/src/lld\r_adc_lld_rza2m.c ****         {
 566:D:/Work/DeviceTester/amazon-freertos/lib/third_party/mcu_vendor/renesas/rz_mcu_boards/core_package/generate/sc_drivers/r_adc/src/lld\r_adc_lld_rza2m.c ****             alignment = ADC_ALIGN_LEFT;
 567:D:/Work/DeviceTester/amazon-freertos/lib/third_party/mcu_vendor/renesas/rz_mcu_boards/core_package/generate/sc_drivers/r_adc/src/lld\r_adc_lld_rza2m.c ****             break;
 568:D:/Work/DeviceTester/amazon-freertos/lib/third_party/mcu_vendor/renesas/rz_mcu_boards/core_package/generate/sc_drivers/r_adc/src/lld\r_adc_lld_rza2m.c ****         }
 569:D:/Work/DeviceTester/amazon-freertos/lib/third_party/mcu_vendor/renesas/rz_mcu_boards/core_package/generate/sc_drivers/r_adc/src/lld\r_adc_lld_rza2m.c **** 
 570:D:/Work/DeviceTester/amazon-freertos/lib/third_party/mcu_vendor/renesas/rz_mcu_boards/core_package/generate/sc_drivers/r_adc/src/lld\r_adc_lld_rza2m.c ****         default:
 571:D:/Work/DeviceTester/amazon-freertos/lib/third_party/mcu_vendor/renesas/rz_mcu_boards/core_package/generate/sc_drivers/r_adc/src/lld\r_adc_lld_rza2m.c ****         case R_ADC_PRV_ADCER_ADC_DATA_FORMAT_RIGHT_ALIGN:
 572:D:/Work/DeviceTester/amazon-freertos/lib/third_party/mcu_vendor/renesas/rz_mcu_boards/core_package/generate/sc_drivers/r_adc/src/lld\r_adc_lld_rza2m.c ****         {
 573:D:/Work/DeviceTester/amazon-freertos/lib/third_party/mcu_vendor/renesas/rz_mcu_boards/core_package/generate/sc_drivers/r_adc/src/lld\r_adc_lld_rza2m.c ****             alignment = ADC_ALIGN_RIGHT;
 574:D:/Work/DeviceTester/amazon-freertos/lib/third_party/mcu_vendor/renesas/rz_mcu_boards/core_package/generate/sc_drivers/r_adc/src/lld\r_adc_lld_rza2m.c ****             break;
 575:D:/Work/DeviceTester/amazon-freertos/lib/third_party/mcu_vendor/renesas/rz_mcu_boards/core_package/generate/sc_drivers/r_adc/src/lld\r_adc_lld_rza2m.c ****         }
 576:D:/Work/DeviceTester/amazon-freertos/lib/third_party/mcu_vendor/renesas/rz_mcu_boards/core_package/generate/sc_drivers/r_adc/src/lld\r_adc_lld_rza2m.c ****     }
 577:D:/Work/DeviceTester/amazon-freertos/lib/third_party/mcu_vendor/renesas/rz_mcu_boards/core_package/generate/sc_drivers/r_adc/src/lld\r_adc_lld_rza2m.c **** 
 578:D:/Work/DeviceTester/amazon-freertos/lib/third_party/mcu_vendor/renesas/rz_mcu_boards/core_package/generate/sc_drivers/r_adc/src/lld\r_adc_lld_rza2m.c ****     return alignment;
 579:D:/Work/DeviceTester/amazon-freertos/lib/third_party/mcu_vendor/renesas/rz_mcu_boards/core_package/generate/sc_drivers/r_adc/src/lld\r_adc_lld_rza2m.c **** }
 580:D:/Work/DeviceTester/amazon-freertos/lib/third_party/mcu_vendor/renesas/rz_mcu_boards/core_package/generate/sc_drivers/r_adc/src/lld\r_adc_lld_rza2m.c **** /**************************************************************************************************
 581:D:/Work/DeviceTester/amazon-freertos/lib/third_party/mcu_vendor/renesas/rz_mcu_boards/core_package/generate/sc_drivers/r_adc/src/lld\r_adc_lld_rza2m.c ****  * End of function adc_get_data_alignment
 582:D:/Work/DeviceTester/amazon-freertos/lib/third_party/mcu_vendor/renesas/rz_mcu_boards/core_package/generate/sc_drivers/r_adc/src/lld\r_adc_lld_rza2m.c ****  **************************************************************************************************
 583:D:/Work/DeviceTester/amazon-freertos/lib/third_party/mcu_vendor/renesas/rz_mcu_boards/core_package/generate/sc_drivers/r_adc/src/lld\r_adc_lld_rza2m.c **** 
 584:D:/Work/DeviceTester/amazon-freertos/lib/third_party/mcu_vendor/renesas/rz_mcu_boards/core_package/generate/sc_drivers/r_adc/src/lld\r_adc_lld_rza2m.c **** /**************************************************************************************************
 585:D:/Work/DeviceTester/amazon-freertos/lib/third_party/mcu_vendor/renesas/rz_mcu_boards/core_package/generate/sc_drivers/r_adc/src/lld\r_adc_lld_rza2m.c ****  * Function Name: adc_get_scan_mode
 586:D:/Work/DeviceTester/amazon-freertos/lib/third_party/mcu_vendor/renesas/rz_mcu_boards/core_package/generate/sc_drivers/r_adc/src/lld\r_adc_lld_rza2m.c ****  * Description  : Gets the ADC scan mode setting
 587:D:/Work/DeviceTester/amazon-freertos/lib/third_party/mcu_vendor/renesas/rz_mcu_boards/core_package/generate/sc_drivers/r_adc/src/lld\r_adc_lld_rza2m.c ****  * Arguments    : None
 588:D:/Work/DeviceTester/amazon-freertos/lib/third_party/mcu_vendor/renesas/rz_mcu_boards/core_package/generate/sc_drivers/r_adc/src/lld\r_adc_lld_rza2m.c ****  * Return Value : The ADC scan mode (single, group or continuous)
 589:D:/Work/DeviceTester/amazon-freertos/lib/third_party/mcu_vendor/renesas/rz_mcu_boards/core_package/generate/sc_drivers/r_adc/src/lld\r_adc_lld_rza2m.c ****  **************************************************************************************************
 590:D:/Work/DeviceTester/amazon-freertos/lib/third_party/mcu_vendor/renesas/rz_mcu_boards/core_package/generate/sc_drivers/r_adc/src/lld\r_adc_lld_rza2m.c **** static e_r_drv_adc_scan_mode_t adc_get_scan_mode(void)
 591:D:/Work/DeviceTester/amazon-freertos/lib/third_party/mcu_vendor/renesas/rz_mcu_boards/core_package/generate/sc_drivers/r_adc/src/lld\r_adc_lld_rza2m.c **** {
 592:D:/Work/DeviceTester/amazon-freertos/lib/third_party/mcu_vendor/renesas/rz_mcu_boards/core_package/generate/sc_drivers/r_adc/src/lld\r_adc_lld_rza2m.c ****     uint16_t adcs;
 593:D:/Work/DeviceTester/amazon-freertos/lib/third_party/mcu_vendor/renesas/rz_mcu_boards/core_package/generate/sc_drivers/r_adc/src/lld\r_adc_lld_rza2m.c ****     e_r_drv_adc_scan_mode_t scan_mode;
 594:D:/Work/DeviceTester/amazon-freertos/lib/third_party/mcu_vendor/renesas/rz_mcu_boards/core_package/generate/sc_drivers/r_adc/src/lld\r_adc_lld_rza2m.c **** 
 595:D:/Work/DeviceTester/amazon-freertos/lib/third_party/mcu_vendor/renesas/rz_mcu_boards/core_package/generate/sc_drivers/r_adc/src/lld\r_adc_lld_rza2m.c ****     /* read the ADCS value from the ADCSR register */
 596:D:/Work/DeviceTester/amazon-freertos/lib/third_party/mcu_vendor/renesas/rz_mcu_boards/core_package/generate/sc_drivers/r_adc/src/lld\r_adc_lld_rza2m.c ****     adcs = RZA_IO_RegRead_16(&ADC.ADCSR.WORD, ADC_ADCSR_ADCS_SHIFT, ADC_ADCSR_ADCS);
 597:D:/Work/DeviceTester/amazon-freertos/lib/third_party/mcu_vendor/renesas/rz_mcu_boards/core_package/generate/sc_drivers/r_adc/src/lld\r_adc_lld_rza2m.c **** 
 598:D:/Work/DeviceTester/amazon-freertos/lib/third_party/mcu_vendor/renesas/rz_mcu_boards/core_package/generate/sc_drivers/r_adc/src/lld\r_adc_lld_rza2m.c ****     switch (adcs)
 599:D:/Work/DeviceTester/amazon-freertos/lib/third_party/mcu_vendor/renesas/rz_mcu_boards/core_package/generate/sc_drivers/r_adc/src/lld\r_adc_lld_rza2m.c ****     {
 600:D:/Work/DeviceTester/amazon-freertos/lib/third_party/mcu_vendor/renesas/rz_mcu_boards/core_package/generate/sc_drivers/r_adc/src/lld\r_adc_lld_rza2m.c ****         default:
 601:D:/Work/DeviceTester/amazon-freertos/lib/third_party/mcu_vendor/renesas/rz_mcu_boards/core_package/generate/sc_drivers/r_adc/src/lld\r_adc_lld_rza2m.c ****         case R_ADC_PRV_ADCSR_ADC_SCAN_MODE_SINGLE:
 602:D:/Work/DeviceTester/amazon-freertos/lib/third_party/mcu_vendor/renesas/rz_mcu_boards/core_package/generate/sc_drivers/r_adc/src/lld\r_adc_lld_rza2m.c ****         {
 603:D:/Work/DeviceTester/amazon-freertos/lib/third_party/mcu_vendor/renesas/rz_mcu_boards/core_package/generate/sc_drivers/r_adc/src/lld\r_adc_lld_rza2m.c ****             scan_mode = ADC_SCAN_MODE_SINGLE;
 604:D:/Work/DeviceTester/amazon-freertos/lib/third_party/mcu_vendor/renesas/rz_mcu_boards/core_package/generate/sc_drivers/r_adc/src/lld\r_adc_lld_rza2m.c ****             break;
 605:D:/Work/DeviceTester/amazon-freertos/lib/third_party/mcu_vendor/renesas/rz_mcu_boards/core_package/generate/sc_drivers/r_adc/src/lld\r_adc_lld_rza2m.c ****         }
 606:D:/Work/DeviceTester/amazon-freertos/lib/third_party/mcu_vendor/renesas/rz_mcu_boards/core_package/generate/sc_drivers/r_adc/src/lld\r_adc_lld_rza2m.c **** 
 607:D:/Work/DeviceTester/amazon-freertos/lib/third_party/mcu_vendor/renesas/rz_mcu_boards/core_package/generate/sc_drivers/r_adc/src/lld\r_adc_lld_rza2m.c ****         case R_ADC_PRV_ADCSR_ADC_SCAN_MODE_GROUP:
 608:D:/Work/DeviceTester/amazon-freertos/lib/third_party/mcu_vendor/renesas/rz_mcu_boards/core_package/generate/sc_drivers/r_adc/src/lld\r_adc_lld_rza2m.c ****         {
 609:D:/Work/DeviceTester/amazon-freertos/lib/third_party/mcu_vendor/renesas/rz_mcu_boards/core_package/generate/sc_drivers/r_adc/src/lld\r_adc_lld_rza2m.c ****             scan_mode = ADC_SCAN_MODE_GROUP;
 610:D:/Work/DeviceTester/amazon-freertos/lib/third_party/mcu_vendor/renesas/rz_mcu_boards/core_package/generate/sc_drivers/r_adc/src/lld\r_adc_lld_rza2m.c ****             break;
 611:D:/Work/DeviceTester/amazon-freertos/lib/third_party/mcu_vendor/renesas/rz_mcu_boards/core_package/generate/sc_drivers/r_adc/src/lld\r_adc_lld_rza2m.c ****         }
 612:D:/Work/DeviceTester/amazon-freertos/lib/third_party/mcu_vendor/renesas/rz_mcu_boards/core_package/generate/sc_drivers/r_adc/src/lld\r_adc_lld_rza2m.c **** 
 613:D:/Work/DeviceTester/amazon-freertos/lib/third_party/mcu_vendor/renesas/rz_mcu_boards/core_package/generate/sc_drivers/r_adc/src/lld\r_adc_lld_rza2m.c ****         case R_ADC_PRV_ADCSR_ADC_SCAN_MODE_CONTINUOUS:
 614:D:/Work/DeviceTester/amazon-freertos/lib/third_party/mcu_vendor/renesas/rz_mcu_boards/core_package/generate/sc_drivers/r_adc/src/lld\r_adc_lld_rza2m.c ****         {
 615:D:/Work/DeviceTester/amazon-freertos/lib/third_party/mcu_vendor/renesas/rz_mcu_boards/core_package/generate/sc_drivers/r_adc/src/lld\r_adc_lld_rza2m.c ****             scan_mode = ADC_SCAN_MODE_CONTINUOUS;
 616:D:/Work/DeviceTester/amazon-freertos/lib/third_party/mcu_vendor/renesas/rz_mcu_boards/core_package/generate/sc_drivers/r_adc/src/lld\r_adc_lld_rza2m.c ****             break;
 617:D:/Work/DeviceTester/amazon-freertos/lib/third_party/mcu_vendor/renesas/rz_mcu_boards/core_package/generate/sc_drivers/r_adc/src/lld\r_adc_lld_rza2m.c ****         }
 618:D:/Work/DeviceTester/amazon-freertos/lib/third_party/mcu_vendor/renesas/rz_mcu_boards/core_package/generate/sc_drivers/r_adc/src/lld\r_adc_lld_rza2m.c ****     }
 619:D:/Work/DeviceTester/amazon-freertos/lib/third_party/mcu_vendor/renesas/rz_mcu_boards/core_package/generate/sc_drivers/r_adc/src/lld\r_adc_lld_rza2m.c **** 
 620:D:/Work/DeviceTester/amazon-freertos/lib/third_party/mcu_vendor/renesas/rz_mcu_boards/core_package/generate/sc_drivers/r_adc/src/lld\r_adc_lld_rza2m.c ****     return scan_mode;
 621:D:/Work/DeviceTester/amazon-freertos/lib/third_party/mcu_vendor/renesas/rz_mcu_boards/core_package/generate/sc_drivers/r_adc/src/lld\r_adc_lld_rza2m.c **** }
 622:D:/Work/DeviceTester/amazon-freertos/lib/third_party/mcu_vendor/renesas/rz_mcu_boards/core_package/generate/sc_drivers/r_adc/src/lld\r_adc_lld_rza2m.c **** /**************************************************************************************************
 623:D:/Work/DeviceTester/amazon-freertos/lib/third_party/mcu_vendor/renesas/rz_mcu_boards/core_package/generate/sc_drivers/r_adc/src/lld\r_adc_lld_rza2m.c ****  * End of function adc_get_scan_mode
 624:D:/Work/DeviceTester/amazon-freertos/lib/third_party/mcu_vendor/renesas/rz_mcu_boards/core_package/generate/sc_drivers/r_adc/src/lld\r_adc_lld_rza2m.c ****  **************************************************************************************************
 625:D:/Work/DeviceTester/amazon-freertos/lib/third_party/mcu_vendor/renesas/rz_mcu_boards/core_package/generate/sc_drivers/r_adc/src/lld\r_adc_lld_rza2m.c **** 
 626:D:/Work/DeviceTester/amazon-freertos/lib/third_party/mcu_vendor/renesas/rz_mcu_boards/core_package/generate/sc_drivers/r_adc/src/lld\r_adc_lld_rza2m.c **** /**************************************************************************************************
 627:D:/Work/DeviceTester/amazon-freertos/lib/third_party/mcu_vendor/renesas/rz_mcu_boards/core_package/generate/sc_drivers/r_adc/src/lld\r_adc_lld_rza2m.c ****  * Function Name: R_ADC_GetConfiguration
 628:D:/Work/DeviceTester/amazon-freertos/lib/third_party/mcu_vendor/renesas/rz_mcu_boards/core_package/generate/sc_drivers/r_adc/src/lld\r_adc_lld_rza2m.c ****  * Description  : Get the ADC configuration
 629:D:/Work/DeviceTester/amazon-freertos/lib/third_party/mcu_vendor/renesas/rz_mcu_boards/core_package/generate/sc_drivers/r_adc/src/lld\r_adc_lld_rza2m.c ****  * Arguments    : p_config[in] - pointer to configuration structure
 630:D:/Work/DeviceTester/amazon-freertos/lib/third_party/mcu_vendor/renesas/rz_mcu_boards/core_package/generate/sc_drivers/r_adc/src/lld\r_adc_lld_rza2m.c ****  * Return Value : ADC_SUCCESS always returned
 631:D:/Work/DeviceTester/amazon-freertos/lib/third_party/mcu_vendor/renesas/rz_mcu_boards/core_package/generate/sc_drivers/r_adc/src/lld\r_adc_lld_rza2m.c ****  **************************************************************************************************
 632:D:/Work/DeviceTester/amazon-freertos/lib/third_party/mcu_vendor/renesas/rz_mcu_boards/core_package/generate/sc_drivers/r_adc/src/lld\r_adc_lld_rza2m.c **** e_r_drv_adc_err_t R_ADC_GetConfiguration(st_r_drv_adc_unit_config_t * p_config)
 633:D:/Work/DeviceTester/amazon-freertos/lib/third_party/mcu_vendor/renesas/rz_mcu_boards/core_package/generate/sc_drivers/r_adc/src/lld\r_adc_lld_rza2m.c **** {
 778              		.loc 1 633 0
 779              		.cfi_startproc
 780              		@ args = 0, pretend = 0, frame = 0
 781              		@ frame_needed = 0, uses_anonymous_args = 0
 782              	.LVL71:
 783 0000 F0412DE9 		push	{r4, r5, r6, r7, r8, lr}
 784              		.cfi_def_cfa_offset 24
 785              		.cfi_offset 4, -24
 786              		.cfi_offset 5, -20
 787              		.cfi_offset 6, -16
 788              		.cfi_offset 7, -12
 789              		.cfi_offset 8, -8
 790              		.cfi_offset 14, -4
 791              	.LBB50:
 792              	.LBB51:
 516:D:/Work/DeviceTester/amazon-freertos/lib/third_party/mcu_vendor/renesas/rz_mcu_boards/core_package/generate/sc_drivers/r_adc/src/lld\r_adc_lld_rza2m.c **** 
 793              		.loc 1 516 0
 794 0004 0620A0E3 		mov	r2, #6
 795              	.LBE51:
 796              	.LBE50:
 797              		.loc 1 633 0
 798 0008 0040A0E1 		mov	r4, r0
 799              	.LBB53:
 800              	.LBB52:
 516:D:/Work/DeviceTester/amazon-freertos/lib/third_party/mcu_vendor/renesas/rz_mcu_boards/core_package/generate/sc_drivers/r_adc/src/lld\r_adc_lld_rza2m.c **** 
 801              		.loc 1 516 0
 802 000c 0110A0E3 		mov	r1, #1
 803 0010 D0009FE5 		ldr	r0, .L82
 804              	.LVL72:
 805 0014 FEFFFFEB 		bl	RZA_IO_RegRead_16
 806              	.LVL73:
 519:D:/Work/DeviceTester/amazon-freertos/lib/third_party/mcu_vendor/renesas/rz_mcu_boards/core_package/generate/sc_drivers/r_adc/src/lld\r_adc_lld_rza2m.c ****     {
 807              		.loc 1 519 0
 808 0018 010050E3 		cmp	r0, #1
 809 001c 0200000A 		beq	.L68
 524:D:/Work/DeviceTester/amazon-freertos/lib/third_party/mcu_vendor/renesas/rz_mcu_boards/core_package/generate/sc_drivers/r_adc/src/lld\r_adc_lld_rza2m.c ****             break;
 810              		.loc 1 524 0
 811 0020 020050E3 		cmp	r0, #2
 812 0024 0200A003 		moveq	r0, #2
 813              	.LVL74:
 814 0028 0000A013 		movne	r0, #0
 815              	.L68:
 816              	.LBE52:
 817              	.LBE53:
 634:D:/Work/DeviceTester/amazon-freertos/lib/third_party/mcu_vendor/renesas/rz_mcu_boards/core_package/generate/sc_drivers/r_adc/src/lld\r_adc_lld_rza2m.c ****     uint16_t ansa0;
 635:D:/Work/DeviceTester/amazon-freertos/lib/third_party/mcu_vendor/renesas/rz_mcu_boards/core_package/generate/sc_drivers/r_adc/src/lld\r_adc_lld_rza2m.c ****     uint16_t mask;
 636:D:/Work/DeviceTester/amazon-freertos/lib/third_party/mcu_vendor/renesas/rz_mcu_boards/core_package/generate/sc_drivers/r_adc/src/lld\r_adc_lld_rza2m.c ****     e_r_drv_adc_channel_t channel;
 637:D:/Work/DeviceTester/amazon-freertos/lib/third_party/mcu_vendor/renesas/rz_mcu_boards/core_package/generate/sc_drivers/r_adc/src/lld\r_adc_lld_rza2m.c **** 
 638:D:/Work/DeviceTester/amazon-freertos/lib/third_party/mcu_vendor/renesas/rz_mcu_boards/core_package/generate/sc_drivers/r_adc/src/lld\r_adc_lld_rza2m.c ****     p_config->resolution = adc_get_resolution();
 818              		.loc 1 638 0
 819 002c 0000C4E5 		strb	r0, [r4]
 820              	.LBB54:
 821              	.LBB55:
 559:D:/Work/DeviceTester/amazon-freertos/lib/third_party/mcu_vendor/renesas/rz_mcu_boards/core_package/generate/sc_drivers/r_adc/src/lld\r_adc_lld_rza2m.c **** 
 822              		.loc 1 559 0
 823 0030 0229A0E3 		mov	r2, #32768
 824 0034 0F10A0E3 		mov	r1, #15
 825 0038 A8009FE5 		ldr	r0, .L82
 826 003c FEFFFFEB 		bl	RZA_IO_RegRead_16
 827              	.LVL75:
 573:D:/Work/DeviceTester/amazon-freertos/lib/third_party/mcu_vendor/renesas/rz_mcu_boards/core_package/generate/sc_drivers/r_adc/src/lld\r_adc_lld_rza2m.c ****             break;
 828              		.loc 1 573 0
 829 0040 010040E2 		sub	r0, r0, #1
 830              	.LVL76:
 831              	.LBE55:
 832              	.LBE54:
 833              	.LBB58:
 834              	.LBB59:
 596:D:/Work/DeviceTester/amazon-freertos/lib/third_party/mcu_vendor/renesas/rz_mcu_boards/core_package/generate/sc_drivers/r_adc/src/lld\r_adc_lld_rza2m.c **** 
 835              		.loc 1 596 0
 836 0044 062AA0E3 		mov	r2, #24576
 837              	.LBE59:
 838              	.LBE58:
 839              	.LBB62:
 840              	.LBB56:
 573:D:/Work/DeviceTester/amazon-freertos/lib/third_party/mcu_vendor/renesas/rz_mcu_boards/core_package/generate/sc_drivers/r_adc/src/lld\r_adc_lld_rza2m.c ****             break;
 841              		.loc 1 573 0
 842 0048 100F6FE1 		clz	r0, r0
 843              	.LBE56:
 844              	.LBE62:
 845              	.LBB63:
 846              	.LBB60:
 596:D:/Work/DeviceTester/amazon-freertos/lib/third_party/mcu_vendor/renesas/rz_mcu_boards/core_package/generate/sc_drivers/r_adc/src/lld\r_adc_lld_rza2m.c **** 
 847              		.loc 1 596 0
 848 004c 0D10A0E3 		mov	r1, #13
 849              	.LBE60:
 850              	.LBE63:
 851              	.LBB64:
 852              	.LBB57:
 573:D:/Work/DeviceTester/amazon-freertos/lib/third_party/mcu_vendor/renesas/rz_mcu_boards/core_package/generate/sc_drivers/r_adc/src/lld\r_adc_lld_rza2m.c ****             break;
 853              		.loc 1 573 0
 854 0050 A002A0E1 		lsr	r0, r0, #5
 855              	.LBE57:
 856              	.LBE64:
 639:D:/Work/DeviceTester/amazon-freertos/lib/third_party/mcu_vendor/renesas/rz_mcu_boards/core_package/generate/sc_drivers/r_adc/src/lld\r_adc_lld_rza2m.c ****     p_config->alignment = adc_get_data_alignment();
 857              		.loc 1 639 0
 858 0054 0100C4E5 		strb	r0, [r4, #1]
 859              	.LBB65:
 860              	.LBB61:
 596:D:/Work/DeviceTester/amazon-freertos/lib/third_party/mcu_vendor/renesas/rz_mcu_boards/core_package/generate/sc_drivers/r_adc/src/lld\r_adc_lld_rza2m.c **** 
 861              		.loc 1 596 0
 862 0058 8C009FE5 		ldr	r0, .L82+4
 863 005c FEFFFFEB 		bl	RZA_IO_RegRead_16
 864              	.LVL77:
 598:D:/Work/DeviceTester/amazon-freertos/lib/third_party/mcu_vendor/renesas/rz_mcu_boards/core_package/generate/sc_drivers/r_adc/src/lld\r_adc_lld_rza2m.c ****     {
 865              		.loc 1 598 0
 866 0060 010050E3 		cmp	r0, #1
 867 0064 0200000A 		beq	.L73
 603:D:/Work/DeviceTester/amazon-freertos/lib/third_party/mcu_vendor/renesas/rz_mcu_boards/core_package/generate/sc_drivers/r_adc/src/lld\r_adc_lld_rza2m.c ****             break;
 868              		.loc 1 603 0
 869 0068 020050E3 		cmp	r0, #2
 870 006c 0200A003 		moveq	r0, #2
 871              	.LVL78:
 872 0070 0000A013 		movne	r0, #0
 873              	.L73:
 874              	.LBE61:
 875              	.LBE65:
 640:D:/Work/DeviceTester/amazon-freertos/lib/third_party/mcu_vendor/renesas/rz_mcu_boards/core_package/generate/sc_drivers/r_adc/src/lld\r_adc_lld_rza2m.c ****     p_config->scan_mode = adc_get_scan_mode();
 876              		.loc 1 640 0
 877 0074 0200C4E5 		strb	r0, [r4, #2]
 641:D:/Work/DeviceTester/amazon-freertos/lib/third_party/mcu_vendor/renesas/rz_mcu_boards/core_package/generate/sc_drivers/r_adc/src/lld\r_adc_lld_rza2m.c ****     R_INTC_GetPriority(INTC_ID_ADC_S12ADI0, &p_config->interrupt_priority);
 878              		.loc 1 641 0
 879 0078 081084E2 		add	r1, r4, #8
 880 007c F700A0E3 		mov	r0, #247
 642:D:/Work/DeviceTester/amazon-freertos/lib/third_party/mcu_vendor/renesas/rz_mcu_boards/core_package/generate/sc_drivers/r_adc/src/lld\r_adc_lld_rza2m.c **** 
 643:D:/Work/DeviceTester/amazon-freertos/lib/third_party/mcu_vendor/renesas/rz_mcu_boards/core_package/generate/sc_drivers/r_adc/src/lld\r_adc_lld_rza2m.c ****     /* read the ANSA0 field value from the ADANSA0 register */
 644:D:/Work/DeviceTester/amazon-freertos/lib/third_party/mcu_vendor/renesas/rz_mcu_boards/core_package/generate/sc_drivers/r_adc/src/lld\r_adc_lld_rza2m.c ****     ansa0 = RZA_IO_RegRead_16(&ADC.ADANSA0.WORD, ADC_ADANSA0_ANSA0_SHIFT, ADC_ADANSA0_ANSA0);
 881              		.loc 1 644 0
 882 0080 68609FE5 		ldr	r6, .L82+8
 645:D:/Work/DeviceTester/amazon-freertos/lib/third_party/mcu_vendor/renesas/rz_mcu_boards/core_package/generate/sc_drivers/r_adc/src/lld\r_adc_lld_rza2m.c **** 
 646:D:/Work/DeviceTester/amazon-freertos/lib/third_party/mcu_vendor/renesas/rz_mcu_boards/core_package/generate/sc_drivers/r_adc/src/lld\r_adc_lld_rza2m.c ****     mask = 1;
 647:D:/Work/DeviceTester/amazon-freertos/lib/third_party/mcu_vendor/renesas/rz_mcu_boards/core_package/generate/sc_drivers/r_adc/src/lld\r_adc_lld_rza2m.c **** 
 648:D:/Work/DeviceTester/amazon-freertos/lib/third_party/mcu_vendor/renesas/rz_mcu_boards/core_package/generate/sc_drivers/r_adc/src/lld\r_adc_lld_rza2m.c ****     for (channel = ADC_CHANNEL_AN000; channel < ADC_CHANNELS; channel++)
 883              		.loc 1 648 0
 884 0084 68709FE5 		ldr	r7, .L82+12
 646:D:/Work/DeviceTester/amazon-freertos/lib/third_party/mcu_vendor/renesas/rz_mcu_boards/core_package/generate/sc_drivers/r_adc/src/lld\r_adc_lld_rza2m.c **** 
 885              		.loc 1 646 0
 886 0088 0150A0E3 		mov	r5, #1
 641:D:/Work/DeviceTester/amazon-freertos/lib/third_party/mcu_vendor/renesas/rz_mcu_boards/core_package/generate/sc_drivers/r_adc/src/lld\r_adc_lld_rza2m.c **** 
 887              		.loc 1 641 0
 888 008c FEFFFFEB 		bl	R_INTC_GetPriority
 889              	.LVL79:
 644:D:/Work/DeviceTester/amazon-freertos/lib/third_party/mcu_vendor/renesas/rz_mcu_boards/core_package/generate/sc_drivers/r_adc/src/lld\r_adc_lld_rza2m.c **** 
 890              		.loc 1 644 0
 891 0090 FF20A0E3 		mov	r2, #255
 892 0094 0010A0E3 		mov	r1, #0
 893 0098 58009FE5 		ldr	r0, .L82+16
 894 009c FEFFFFEB 		bl	RZA_IO_RegRead_16
 895              	.LVL80:
 896 00a0 0080A0E1 		mov	r8, r0
 897              	.LVL81:
 898              	.L76:
 649:D:/Work/DeviceTester/amazon-freertos/lib/third_party/mcu_vendor/renesas/rz_mcu_boards/core_package/generate/sc_drivers/r_adc/src/lld\r_adc_lld_rza2m.c ****     {
 650:D:/Work/DeviceTester/amazon-freertos/lib/third_party/mcu_vendor/renesas/rz_mcu_boards/core_package/generate/sc_drivers/r_adc/src/lld\r_adc_lld_rza2m.c ****         /* determine whether or not the channel is enabled */
 651:D:/Work/DeviceTester/amazon-freertos/lib/third_party/mcu_vendor/renesas/rz_mcu_boards/core_package/generate/sc_drivers/r_adc/src/lld\r_adc_lld_rza2m.c ****         p_config->channels[channel].trigger_source = ((ansa0 & mask) == 0) ? ADC_TRIGGER_DISABLED :
 899              		.loc 1 651 0 discriminator 3
 900 00a4 080015E1 		tst	r5, r8
 652:D:/Work/DeviceTester/amazon-freertos/lib/third_party/mcu_vendor/renesas/rz_mcu_boards/core_package/generate/sc_drivers/r_adc/src/lld\r_adc_lld_rza2m.c **** 
 653:D:/Work/DeviceTester/amazon-freertos/lib/third_party/mcu_vendor/renesas/rz_mcu_boards/core_package/generate/sc_drivers/r_adc/src/lld\r_adc_lld_rza2m.c ****         /* the compiler promotes the variable to signed integer for the shift, so cast it back */
 654:D:/Work/DeviceTester/amazon-freertos/lib/third_party/mcu_vendor/renesas/rz_mcu_boards/core_package/generate/sc_drivers/r_adc/src/lld\r_adc_lld_rza2m.c ****         mask = (uint16_t) (mask << 1u);
 655:D:/Work/DeviceTester/amazon-freertos/lib/third_party/mcu_vendor/renesas/rz_mcu_boards/core_package/generate/sc_drivers/r_adc/src/lld\r_adc_lld_rza2m.c **** 
 656:D:/Work/DeviceTester/amazon-freertos/lib/third_party/mcu_vendor/renesas/rz_mcu_boards/core_package/generate/sc_drivers/r_adc/src/lld\r_adc_lld_rza2m.c ****         /* read the sample time setting */
 657:D:/Work/DeviceTester/amazon-freertos/lib/third_party/mcu_vendor/renesas/rz_mcu_boards/core_package/generate/sc_drivers/r_adc/src/lld\r_adc_lld_rza2m.c ****         p_config->channels[channel].sample_time = RZA_IO_RegRead_8((&ADC.ADSSTR0.BYTE) + channel,
 901              		.loc 1 657 0 discriminator 3
 902 00a8 0600A0E1 		mov	r0, r6
 651:D:/Work/DeviceTester/amazon-freertos/lib/third_party/mcu_vendor/renesas/rz_mcu_boards/core_package/generate/sc_drivers/r_adc/src/lld\r_adc_lld_rza2m.c **** 
 903              		.loc 1 651 0 discriminator 3
 904 00ac 0130A013 		movne	r3, #1
 905 00b0 0030A003 		moveq	r3, #0
 906 00b4 1030C4E5 		strb	r3, [r4, #16]
 907              		.loc 1 657 0 discriminator 3
 908 00b8 0020E0E3 		mvn	r2, #0
 909 00bc 0010A0E3 		mov	r1, #0
 910 00c0 016086E2 		add	r6, r6, #1
 911              	.LVL82:
 912 00c4 FEFFFFEB 		bl	RZA_IO_RegRead_8
 913              	.LVL83:
 654:D:/Work/DeviceTester/amazon-freertos/lib/third_party/mcu_vendor/renesas/rz_mcu_boards/core_package/generate/sc_drivers/r_adc/src/lld\r_adc_lld_rza2m.c **** 
 914              		.loc 1 654 0 discriminator 3
 915 00c8 8550A0E1 		lsl	r5, r5, #1
 916              	.LVL84:
 648:D:/Work/DeviceTester/amazon-freertos/lib/third_party/mcu_vendor/renesas/rz_mcu_boards/core_package/generate/sc_drivers/r_adc/src/lld\r_adc_lld_rza2m.c ****     {
 917              		.loc 1 648 0 discriminator 3
 918 00cc 070056E1 		cmp	r6, r7
 919              		.loc 1 657 0 discriminator 3
 920 00d0 0C0084E5 		str	r0, [r4, #12]
 921 00d4 084084E2 		add	r4, r4, #8
 654:D:/Work/DeviceTester/amazon-freertos/lib/third_party/mcu_vendor/renesas/rz_mcu_boards/core_package/generate/sc_drivers/r_adc/src/lld\r_adc_lld_rza2m.c **** 
 922              		.loc 1 654 0 discriminator 3
 923 00d8 7550FFE6 		uxth	r5, r5
 924              	.LVL85:
 648:D:/Work/DeviceTester/amazon-freertos/lib/third_party/mcu_vendor/renesas/rz_mcu_boards/core_package/generate/sc_drivers/r_adc/src/lld\r_adc_lld_rza2m.c ****     {
 925              		.loc 1 648 0 discriminator 3
 926 00dc F0FFFF1A 		bne	.L76
 658:D:/Work/DeviceTester/amazon-freertos/lib/third_party/mcu_vendor/renesas/rz_mcu_boards/core_package/generate/sc_drivers/r_adc/src/lld\r_adc_lld_rza2m.c ****                 IOREG_NONSHIFT_ACCESS, IOREG_NONMASK_ACCESS);
 659:D:/Work/DeviceTester/amazon-freertos/lib/third_party/mcu_vendor/renesas/rz_mcu_boards/core_package/generate/sc_drivers/r_adc/src/lld\r_adc_lld_rza2m.c ****     }
 660:D:/Work/DeviceTester/amazon-freertos/lib/third_party/mcu_vendor/renesas/rz_mcu_boards/core_package/generate/sc_drivers/r_adc/src/lld\r_adc_lld_rza2m.c **** 
 661:D:/Work/DeviceTester/amazon-freertos/lib/third_party/mcu_vendor/renesas/rz_mcu_boards/core_package/generate/sc_drivers/r_adc/src/lld\r_adc_lld_rza2m.c ****     return ADC_SUCCESS;
 662:D:/Work/DeviceTester/amazon-freertos/lib/third_party/mcu_vendor/renesas/rz_mcu_boards/core_package/generate/sc_drivers/r_adc/src/lld\r_adc_lld_rza2m.c **** }
 927              		.loc 1 662 0
 928 00e0 0000A0E3 		mov	r0, #0
 929 00e4 F081BDE8 		pop	{r4, r5, r6, r7, r8, pc}
 930              	.L83:
 931              		.align	2
 932              	.L82:
 933 00e8 0E5800E8 		.word	-402630642
 934 00ec 005800E8 		.word	-402630656
 935 00f0 E05800E8 		.word	-402630432
 936 00f4 E85800E8 		.word	-402630424
 937 00f8 045800E8 		.word	-402630652
 938              		.cfi_endproc
 939              	.LFE17:
 941              		.section	.text.R_ADC_ReadConversion,"ax",%progbits
 942              		.align	2
 943              		.global	R_ADC_ReadConversion
 944              		.syntax unified
 945              		.arm
 946              		.fpu neon
 948              	R_ADC_ReadConversion:
 949              	.LFB18:
 663:D:/Work/DeviceTester/amazon-freertos/lib/third_party/mcu_vendor/renesas/rz_mcu_boards/core_package/generate/sc_drivers/r_adc/src/lld\r_adc_lld_rza2m.c **** /**************************************************************************************************
 664:D:/Work/DeviceTester/amazon-freertos/lib/third_party/mcu_vendor/renesas/rz_mcu_boards/core_package/generate/sc_drivers/r_adc/src/lld\r_adc_lld_rza2m.c ****  * End of function R_ADC_GetConfiguration
 665:D:/Work/DeviceTester/amazon-freertos/lib/third_party/mcu_vendor/renesas/rz_mcu_boards/core_package/generate/sc_drivers/r_adc/src/lld\r_adc_lld_rza2m.c ****  **************************************************************************************************
 666:D:/Work/DeviceTester/amazon-freertos/lib/third_party/mcu_vendor/renesas/rz_mcu_boards/core_package/generate/sc_drivers/r_adc/src/lld\r_adc_lld_rza2m.c **** 
 667:D:/Work/DeviceTester/amazon-freertos/lib/third_party/mcu_vendor/renesas/rz_mcu_boards/core_package/generate/sc_drivers/r_adc/src/lld\r_adc_lld_rza2m.c **** /**************************************************************************************************
 668:D:/Work/DeviceTester/amazon-freertos/lib/third_party/mcu_vendor/renesas/rz_mcu_boards/core_package/generate/sc_drivers/r_adc/src/lld\r_adc_lld_rza2m.c ****  * Function Name: R_ADC_ReadConversion
 669:D:/Work/DeviceTester/amazon-freertos/lib/third_party/mcu_vendor/renesas/rz_mcu_boards/core_package/generate/sc_drivers/r_adc/src/lld\r_adc_lld_rza2m.c ****  * Description  : Read ADC conversion value
 670:D:/Work/DeviceTester/amazon-freertos/lib/third_party/mcu_vendor/renesas/rz_mcu_boards/core_package/generate/sc_drivers/r_adc/src/lld\r_adc_lld_rza2m.c ****  * Arguments    : channel[in] - channel to get conversion value for
 671:D:/Work/DeviceTester/amazon-freertos/lib/third_party/mcu_vendor/renesas/rz_mcu_boards/core_package/generate/sc_drivers/r_adc/src/lld\r_adc_lld_rza2m.c ****  *                p_value[out] - pointer to variable to receive conversion value
 672:D:/Work/DeviceTester/amazon-freertos/lib/third_party/mcu_vendor/renesas/rz_mcu_boards/core_package/generate/sc_drivers/r_adc/src/lld\r_adc_lld_rza2m.c ****  * Return Value : ADC_SUCCESS or ADC_ERR_FAILED
 673:D:/Work/DeviceTester/amazon-freertos/lib/third_party/mcu_vendor/renesas/rz_mcu_boards/core_package/generate/sc_drivers/r_adc/src/lld\r_adc_lld_rza2m.c ****  **************************************************************************************************
 674:D:/Work/DeviceTester/amazon-freertos/lib/third_party/mcu_vendor/renesas/rz_mcu_boards/core_package/generate/sc_drivers/r_adc/src/lld\r_adc_lld_rza2m.c **** e_r_drv_adc_err_t R_ADC_ReadConversion(e_r_drv_adc_channel_t channel, uint32_t *p_value)
 675:D:/Work/DeviceTester/amazon-freertos/lib/third_party/mcu_vendor/renesas/rz_mcu_boards/core_package/generate/sc_drivers/r_adc/src/lld\r_adc_lld_rza2m.c **** {
 950              		.loc 1 675 0
 951              		.cfi_startproc
 952              		@ args = 0, pretend = 0, frame = 0
 953              		@ frame_needed = 0, uses_anonymous_args = 0
 954              	.LVL86:
 676:D:/Work/DeviceTester/amazon-freertos/lib/third_party/mcu_vendor/renesas/rz_mcu_boards/core_package/generate/sc_drivers/r_adc/src/lld\r_adc_lld_rza2m.c ****     if (channel > ADC_CHANNEL_AN007)
 955              		.loc 1 676 0
 956 0000 070050E3 		cmp	r0, #7
 957 0004 0900008A 		bhi	.L86
 677:D:/Work/DeviceTester/amazon-freertos/lib/third_party/mcu_vendor/renesas/rz_mcu_boards/core_package/generate/sc_drivers/r_adc/src/lld\r_adc_lld_rza2m.c ****     {
 678:D:/Work/DeviceTester/amazon-freertos/lib/third_party/mcu_vendor/renesas/rz_mcu_boards/core_package/generate/sc_drivers/r_adc/src/lld\r_adc_lld_rza2m.c ****         return ADC_ERR_FAILED;
 679:D:/Work/DeviceTester/amazon-freertos/lib/third_party/mcu_vendor/renesas/rz_mcu_boards/core_package/generate/sc_drivers/r_adc/src/lld\r_adc_lld_rza2m.c ****     }
 680:D:/Work/DeviceTester/amazon-freertos/lib/third_party/mcu_vendor/renesas/rz_mcu_boards/core_package/generate/sc_drivers/r_adc/src/lld\r_adc_lld_rza2m.c **** 
 681:D:/Work/DeviceTester/amazon-freertos/lib/third_party/mcu_vendor/renesas/rz_mcu_boards/core_package/generate/sc_drivers/r_adc/src/lld\r_adc_lld_rza2m.c ****     /* retrieve the ADC conversion value */
 682:D:/Work/DeviceTester/amazon-freertos/lib/third_party/mcu_vendor/renesas/rz_mcu_boards/core_package/generate/sc_drivers/r_adc/src/lld\r_adc_lld_rza2m.c ****     *p_value = RZA_IO_RegRead_16((&ADC.ADDR0.WORD) + channel, IOREG_NONSHIFT_ACCESS, IOREG_NONMASK_
 958              		.loc 1 682 0
 959 0008 28309FE5 		ldr	r3, .L91
 960 000c 0020E0E3 		mvn	r2, #0
 675:D:/Work/DeviceTester/amazon-freertos/lib/third_party/mcu_vendor/renesas/rz_mcu_boards/core_package/generate/sc_drivers/r_adc/src/lld\r_adc_lld_rza2m.c ****     if (channel > ADC_CHANNEL_AN007)
 961              		.loc 1 675 0
 962 0010 10402DE9 		push	{r4, lr}
 963              		.cfi_def_cfa_offset 8
 964              		.cfi_offset 4, -8
 965              		.cfi_offset 14, -4
 966 0014 0140A0E1 		mov	r4, r1
 967              		.loc 1 682 0
 968 0018 0010A0E3 		mov	r1, #0
 969              	.LVL87:
 970 001c 800083E0 		add	r0, r3, r0, lsl #1
 971              	.LVL88:
 972 0020 FEFFFFEB 		bl	RZA_IO_RegRead_16
 973              	.LVL89:
 974 0024 000084E5 		str	r0, [r4]
 683:D:/Work/DeviceTester/amazon-freertos/lib/third_party/mcu_vendor/renesas/rz_mcu_boards/core_package/generate/sc_drivers/r_adc/src/lld\r_adc_lld_rza2m.c **** 
 684:D:/Work/DeviceTester/amazon-freertos/lib/third_party/mcu_vendor/renesas/rz_mcu_boards/core_package/generate/sc_drivers/r_adc/src/lld\r_adc_lld_rza2m.c ****     return ADC_SUCCESS;
 975              		.loc 1 684 0
 976 0028 0000A0E3 		mov	r0, #0
 977 002c 1080BDE8 		pop	{r4, pc}
 978              	.LVL90:
 979              	.L86:
 980              		.cfi_def_cfa_offset 0
 981              		.cfi_restore 4
 982              		.cfi_restore 14
 678:D:/Work/DeviceTester/amazon-freertos/lib/third_party/mcu_vendor/renesas/rz_mcu_boards/core_package/generate/sc_drivers/r_adc/src/lld\r_adc_lld_rza2m.c ****     }
 983              		.loc 1 678 0
 984 0030 0000E0E3 		mvn	r0, #0
 985              	.LVL91:
 986 0034 1EFF2FE1 		bx	lr
 987              	.L92:
 988              		.align	2
 989              	.L91:
 990 0038 205800E8 		.word	-402630624
 991              		.cfi_endproc
 992              	.LFE18:
 994              		.section	.text.R_ADC_IsConversionComplete,"ax",%progbits
 995              		.align	2
 996              		.global	R_ADC_IsConversionComplete
 997              		.syntax unified
 998              		.arm
 999              		.fpu neon
 1001              	R_ADC_IsConversionComplete:
 1002              	.LFB19:
 685:D:/Work/DeviceTester/amazon-freertos/lib/third_party/mcu_vendor/renesas/rz_mcu_boards/core_package/generate/sc_drivers/r_adc/src/lld\r_adc_lld_rza2m.c **** }
 686:D:/Work/DeviceTester/amazon-freertos/lib/third_party/mcu_vendor/renesas/rz_mcu_boards/core_package/generate/sc_drivers/r_adc/src/lld\r_adc_lld_rza2m.c **** /**************************************************************************************************
 687:D:/Work/DeviceTester/amazon-freertos/lib/third_party/mcu_vendor/renesas/rz_mcu_boards/core_package/generate/sc_drivers/r_adc/src/lld\r_adc_lld_rza2m.c ****  * End of function R_ADC_ReadConversion
 688:D:/Work/DeviceTester/amazon-freertos/lib/third_party/mcu_vendor/renesas/rz_mcu_boards/core_package/generate/sc_drivers/r_adc/src/lld\r_adc_lld_rza2m.c ****  **************************************************************************************************
 689:D:/Work/DeviceTester/amazon-freertos/lib/third_party/mcu_vendor/renesas/rz_mcu_boards/core_package/generate/sc_drivers/r_adc/src/lld\r_adc_lld_rza2m.c **** 
 690:D:/Work/DeviceTester/amazon-freertos/lib/third_party/mcu_vendor/renesas/rz_mcu_boards/core_package/generate/sc_drivers/r_adc/src/lld\r_adc_lld_rza2m.c **** /**************************************************************************************************
 691:D:/Work/DeviceTester/amazon-freertos/lib/third_party/mcu_vendor/renesas/rz_mcu_boards/core_package/generate/sc_drivers/r_adc/src/lld\r_adc_lld_rza2m.c ****  * Function Name: R_ADC_IsConversionComplete
 692:D:/Work/DeviceTester/amazon-freertos/lib/third_party/mcu_vendor/renesas/rz_mcu_boards/core_package/generate/sc_drivers/r_adc/src/lld\r_adc_lld_rza2m.c ****  * Description  : Returns true if the conversion scan has completed
 693:D:/Work/DeviceTester/amazon-freertos/lib/third_party/mcu_vendor/renesas/rz_mcu_boards/core_package/generate/sc_drivers/r_adc/src/lld\r_adc_lld_rza2m.c ****  * Arguments    : None
 694:D:/Work/DeviceTester/amazon-freertos/lib/third_party/mcu_vendor/renesas/rz_mcu_boards/core_package/generate/sc_drivers/r_adc/src/lld\r_adc_lld_rza2m.c ****  * Return Value : true if the conversion scan has completed, false if the conversion scan is ongoin
 695:D:/Work/DeviceTester/amazon-freertos/lib/third_party/mcu_vendor/renesas/rz_mcu_boards/core_package/generate/sc_drivers/r_adc/src/lld\r_adc_lld_rza2m.c ****  **************************************************************************************************
 696:D:/Work/DeviceTester/amazon-freertos/lib/third_party/mcu_vendor/renesas/rz_mcu_boards/core_package/generate/sc_drivers/r_adc/src/lld\r_adc_lld_rza2m.c **** bool_t R_ADC_IsConversionComplete(void)
 697:D:/Work/DeviceTester/amazon-freertos/lib/third_party/mcu_vendor/renesas/rz_mcu_boards/core_package/generate/sc_drivers/r_adc/src/lld\r_adc_lld_rza2m.c **** {
 1003              		.loc 1 697 0
 1004              		.cfi_startproc
 1005              		@ args = 0, pretend = 0, frame = 0
 1006              		@ frame_needed = 0, uses_anonymous_args = 0
 1007 0000 10402DE9 		push	{r4, lr}
 1008              		.cfi_def_cfa_offset 8
 1009              		.cfi_offset 4, -8
 1010              		.cfi_offset 14, -4
 698:D:/Work/DeviceTester/amazon-freertos/lib/third_party/mcu_vendor/renesas/rz_mcu_boards/core_package/generate/sc_drivers/r_adc/src/lld\r_adc_lld_rza2m.c ****     /* read the value of the ADCSR register ADST bit - it will be 1 if a scan is in progress */
 699:D:/Work/DeviceTester/amazon-freertos/lib/third_party/mcu_vendor/renesas/rz_mcu_boards/core_package/generate/sc_drivers/r_adc/src/lld\r_adc_lld_rza2m.c ****     if (RZA_IO_RegRead_16(&ADC.ADCSR.WORD, ADC_ADCSR_ADST_SHIFT, ADC_ADCSR_ADST) == 0)
 1011              		.loc 1 699 0
 1012 0004 0229A0E3 		mov	r2, #32768
 1013 0008 0F10A0E3 		mov	r1, #15
 1014 000c 0C009FE5 		ldr	r0, .L95
 1015 0010 FEFFFFEB 		bl	RZA_IO_RegRead_16
 1016              	.LVL92:
 700:D:/Work/DeviceTester/amazon-freertos/lib/third_party/mcu_vendor/renesas/rz_mcu_boards/core_package/generate/sc_drivers/r_adc/src/lld\r_adc_lld_rza2m.c ****     {
 701:D:/Work/DeviceTester/amazon-freertos/lib/third_party/mcu_vendor/renesas/rz_mcu_boards/core_package/generate/sc_drivers/r_adc/src/lld\r_adc_lld_rza2m.c ****         return true;
 702:D:/Work/DeviceTester/amazon-freertos/lib/third_party/mcu_vendor/renesas/rz_mcu_boards/core_package/generate/sc_drivers/r_adc/src/lld\r_adc_lld_rza2m.c ****     }
 703:D:/Work/DeviceTester/amazon-freertos/lib/third_party/mcu_vendor/renesas/rz_mcu_boards/core_package/generate/sc_drivers/r_adc/src/lld\r_adc_lld_rza2m.c **** 
 704:D:/Work/DeviceTester/amazon-freertos/lib/third_party/mcu_vendor/renesas/rz_mcu_boards/core_package/generate/sc_drivers/r_adc/src/lld\r_adc_lld_rza2m.c ****     return false;
 705:D:/Work/DeviceTester/amazon-freertos/lib/third_party/mcu_vendor/renesas/rz_mcu_boards/core_package/generate/sc_drivers/r_adc/src/lld\r_adc_lld_rza2m.c **** }
 1017              		.loc 1 705 0
 1018 0014 100F6FE1 		clz	r0, r0
 1019 0018 A002A0E1 		lsr	r0, r0, #5
 1020 001c 1080BDE8 		pop	{r4, pc}
 1021              	.L96:
 1022              		.align	2
 1023              	.L95:
 1024 0020 005800E8 		.word	-402630656
 1025              		.cfi_endproc
 1026              	.LFE19:
 1028              		.section	.text.R_ADC_ConfigureInterrupts,"ax",%progbits
 1029              		.align	2
 1030              		.global	R_ADC_ConfigureInterrupts
 1031              		.syntax unified
 1032              		.arm
 1033              		.fpu neon
 1035              	R_ADC_ConfigureInterrupts:
 1036              	.LFB20:
 706:D:/Work/DeviceTester/amazon-freertos/lib/third_party/mcu_vendor/renesas/rz_mcu_boards/core_package/generate/sc_drivers/r_adc/src/lld\r_adc_lld_rza2m.c **** /**************************************************************************************************
 707:D:/Work/DeviceTester/amazon-freertos/lib/third_party/mcu_vendor/renesas/rz_mcu_boards/core_package/generate/sc_drivers/r_adc/src/lld\r_adc_lld_rza2m.c ****  * End of function R_ADC_IsConversionComplete
 708:D:/Work/DeviceTester/amazon-freertos/lib/third_party/mcu_vendor/renesas/rz_mcu_boards/core_package/generate/sc_drivers/r_adc/src/lld\r_adc_lld_rza2m.c ****  **************************************************************************************************
 709:D:/Work/DeviceTester/amazon-freertos/lib/third_party/mcu_vendor/renesas/rz_mcu_boards/core_package/generate/sc_drivers/r_adc/src/lld\r_adc_lld_rza2m.c **** 
 710:D:/Work/DeviceTester/amazon-freertos/lib/third_party/mcu_vendor/renesas/rz_mcu_boards/core_package/generate/sc_drivers/r_adc/src/lld\r_adc_lld_rza2m.c **** /**************************************************************************************************
 711:D:/Work/DeviceTester/amazon-freertos/lib/third_party/mcu_vendor/renesas/rz_mcu_boards/core_package/generate/sc_drivers/r_adc/src/lld\r_adc_lld_rza2m.c ****  * Function Name: R_ADC_ConfigureInterrupts
 712:D:/Work/DeviceTester/amazon-freertos/lib/third_party/mcu_vendor/renesas/rz_mcu_boards/core_package/generate/sc_drivers/r_adc/src/lld\r_adc_lld_rza2m.c ****  * Description  : Configure ADC interrupts
 713:D:/Work/DeviceTester/amazon-freertos/lib/third_party/mcu_vendor/renesas/rz_mcu_boards/core_package/generate/sc_drivers/r_adc/src/lld\r_adc_lld_rza2m.c ****  * Arguments    : p_interrupt_handler[in] - pointer to interrupt handler function
 714:D:/Work/DeviceTester/amazon-freertos/lib/third_party/mcu_vendor/renesas/rz_mcu_boards/core_package/generate/sc_drivers/r_adc/src/lld\r_adc_lld_rza2m.c ****  * Return Value : ADC_SUCCESS or ASC_ERR_FAILED
 715:D:/Work/DeviceTester/amazon-freertos/lib/third_party/mcu_vendor/renesas/rz_mcu_boards/core_package/generate/sc_drivers/r_adc/src/lld\r_adc_lld_rza2m.c ****  **************************************************************************************************
 716:D:/Work/DeviceTester/amazon-freertos/lib/third_party/mcu_vendor/renesas/rz_mcu_boards/core_package/generate/sc_drivers/r_adc/src/lld\r_adc_lld_rza2m.c **** e_r_drv_adc_err_t R_ADC_ConfigureInterrupts(void (*p_interrupt_handler)(uint32_t sense))
 717:D:/Work/DeviceTester/amazon-freertos/lib/third_party/mcu_vendor/renesas/rz_mcu_boards/core_package/generate/sc_drivers/r_adc/src/lld\r_adc_lld_rza2m.c **** {
 1037              		.loc 1 717 0
 1038              		.cfi_startproc
 1039              		@ args = 0, pretend = 0, frame = 0
 1040              		@ frame_needed = 0, uses_anonymous_args = 0
 1041              	.LVL93:
 718:D:/Work/DeviceTester/amazon-freertos/lib/third_party/mcu_vendor/renesas/rz_mcu_boards/core_package/generate/sc_drivers/r_adc/src/lld\r_adc_lld_rza2m.c ****     e_r_drv_intc_err_t err;
 719:D:/Work/DeviceTester/amazon-freertos/lib/third_party/mcu_vendor/renesas/rz_mcu_boards/core_package/generate/sc_drivers/r_adc/src/lld\r_adc_lld_rza2m.c **** 
 720:D:/Work/DeviceTester/amazon-freertos/lib/third_party/mcu_vendor/renesas/rz_mcu_boards/core_package/generate/sc_drivers/r_adc/src/lld\r_adc_lld_rza2m.c ****     err = R_INTC_RegistIntFunc(INTC_ID_ADC_S12ADI0, p_interrupt_handler);
 1042              		.loc 1 720 0
 1043 0000 0010A0E1 		mov	r1, r0
 717:D:/Work/DeviceTester/amazon-freertos/lib/third_party/mcu_vendor/renesas/rz_mcu_boards/core_package/generate/sc_drivers/r_adc/src/lld\r_adc_lld_rza2m.c ****     e_r_drv_intc_err_t err;
 1044              		.loc 1 717 0
 1045 0004 10402DE9 		push	{r4, lr}
 1046              		.cfi_def_cfa_offset 8
 1047              		.cfi_offset 4, -8
 1048              		.cfi_offset 14, -4
 1049              		.loc 1 720 0
 1050 0008 F700A0E3 		mov	r0, #247
 1051              	.LVL94:
 1052 000c FEFFFFEB 		bl	R_INTC_RegistIntFunc
 1053              	.LVL95:
 721:D:/Work/DeviceTester/amazon-freertos/lib/third_party/mcu_vendor/renesas/rz_mcu_boards/core_package/generate/sc_drivers/r_adc/src/lld\r_adc_lld_rza2m.c **** 
 722:D:/Work/DeviceTester/amazon-freertos/lib/third_party/mcu_vendor/renesas/rz_mcu_boards/core_package/generate/sc_drivers/r_adc/src/lld\r_adc_lld_rza2m.c ****     if (INTC_SUCCESS != err)
 1054              		.loc 1 722 0
 1055 0010 000050E3 		cmp	r0, #0
 1056 0014 0100000A 		beq	.L98
 1057              	.L100:
 723:D:/Work/DeviceTester/amazon-freertos/lib/third_party/mcu_vendor/renesas/rz_mcu_boards/core_package/generate/sc_drivers/r_adc/src/lld\r_adc_lld_rza2m.c ****     {
 724:D:/Work/DeviceTester/amazon-freertos/lib/third_party/mcu_vendor/renesas/rz_mcu_boards/core_package/generate/sc_drivers/r_adc/src/lld\r_adc_lld_rza2m.c ****         return ADC_ERR_FAILED;
 1058              		.loc 1 724 0
 1059 0018 0000E0E3 		mvn	r0, #0
 1060              	.LVL96:
 1061 001c 1080BDE8 		pop	{r4, pc}
 1062              	.LVL97:
 1063              	.L98:
 725:D:/Work/DeviceTester/amazon-freertos/lib/third_party/mcu_vendor/renesas/rz_mcu_boards/core_package/generate/sc_drivers/r_adc/src/lld\r_adc_lld_rza2m.c ****     }
 726:D:/Work/DeviceTester/amazon-freertos/lib/third_party/mcu_vendor/renesas/rz_mcu_boards/core_package/generate/sc_drivers/r_adc/src/lld\r_adc_lld_rza2m.c **** 
 727:D:/Work/DeviceTester/amazon-freertos/lib/third_party/mcu_vendor/renesas/rz_mcu_boards/core_package/generate/sc_drivers/r_adc/src/lld\r_adc_lld_rza2m.c ****     err = R_INTC_Enable(INTC_ID_ADC_S12ADI0);
 1064              		.loc 1 727 0
 1065 0020 F700A0E3 		mov	r0, #247
 1066              	.LVL98:
 1067 0024 FEFFFFEB 		bl	R_INTC_Enable
 1068              	.LVL99:
 728:D:/Work/DeviceTester/amazon-freertos/lib/third_party/mcu_vendor/renesas/rz_mcu_boards/core_package/generate/sc_drivers/r_adc/src/lld\r_adc_lld_rza2m.c **** 
 729:D:/Work/DeviceTester/amazon-freertos/lib/third_party/mcu_vendor/renesas/rz_mcu_boards/core_package/generate/sc_drivers/r_adc/src/lld\r_adc_lld_rza2m.c ****     if (INTC_SUCCESS != err)
 1069              		.loc 1 729 0
 1070 0028 000050E3 		cmp	r0, #0
 1071 002c F9FFFF1A 		bne	.L100
 730:D:/Work/DeviceTester/amazon-freertos/lib/third_party/mcu_vendor/renesas/rz_mcu_boards/core_package/generate/sc_drivers/r_adc/src/lld\r_adc_lld_rza2m.c ****     {
 731:D:/Work/DeviceTester/amazon-freertos/lib/third_party/mcu_vendor/renesas/rz_mcu_boards/core_package/generate/sc_drivers/r_adc/src/lld\r_adc_lld_rza2m.c ****         return ADC_ERR_FAILED;
 732:D:/Work/DeviceTester/amazon-freertos/lib/third_party/mcu_vendor/renesas/rz_mcu_boards/core_package/generate/sc_drivers/r_adc/src/lld\r_adc_lld_rza2m.c ****     }
 733:D:/Work/DeviceTester/amazon-freertos/lib/third_party/mcu_vendor/renesas/rz_mcu_boards/core_package/generate/sc_drivers/r_adc/src/lld\r_adc_lld_rza2m.c **** 
 734:D:/Work/DeviceTester/amazon-freertos/lib/third_party/mcu_vendor/renesas/rz_mcu_boards/core_package/generate/sc_drivers/r_adc/src/lld\r_adc_lld_rza2m.c ****     err = R_INTC_SetPriority(INTC_ID_ADC_S12ADI0, R_ADC_PRV_DEFAULT_INTERRUPT_PRIORITY);
 1072              		.loc 1 734 0
 1073 0030 1410A0E3 		mov	r1, #20
 1074 0034 F700A0E3 		mov	r0, #247
 1075              	.LVL100:
 1076 0038 FEFFFFEB 		bl	R_INTC_SetPriority
 1077              	.LVL101:
 735:D:/Work/DeviceTester/amazon-freertos/lib/third_party/mcu_vendor/renesas/rz_mcu_boards/core_package/generate/sc_drivers/r_adc/src/lld\r_adc_lld_rza2m.c **** 
 736:D:/Work/DeviceTester/amazon-freertos/lib/third_party/mcu_vendor/renesas/rz_mcu_boards/core_package/generate/sc_drivers/r_adc/src/lld\r_adc_lld_rza2m.c ****     if (INTC_SUCCESS != err)
 1078              		.loc 1 736 0
 1079 003c 004050E2 		subs	r4, r0, #0
 1080 0040 F4FFFF1A 		bne	.L100
 737:D:/Work/DeviceTester/amazon-freertos/lib/third_party/mcu_vendor/renesas/rz_mcu_boards/core_package/generate/sc_drivers/r_adc/src/lld\r_adc_lld_rza2m.c ****     {
 738:D:/Work/DeviceTester/amazon-freertos/lib/third_party/mcu_vendor/renesas/rz_mcu_boards/core_package/generate/sc_drivers/r_adc/src/lld\r_adc_lld_rza2m.c ****         return ADC_ERR_FAILED;
 739:D:/Work/DeviceTester/amazon-freertos/lib/third_party/mcu_vendor/renesas/rz_mcu_boards/core_package/generate/sc_drivers/r_adc/src/lld\r_adc_lld_rza2m.c ****     }
 740:D:/Work/DeviceTester/amazon-freertos/lib/third_party/mcu_vendor/renesas/rz_mcu_boards/core_package/generate/sc_drivers/r_adc/src/lld\r_adc_lld_rza2m.c **** 
 741:D:/Work/DeviceTester/amazon-freertos/lib/third_party/mcu_vendor/renesas/rz_mcu_boards/core_package/generate/sc_drivers/r_adc/src/lld\r_adc_lld_rza2m.c ****     /* enable conversion complete interrupt */
 742:D:/Work/DeviceTester/amazon-freertos/lib/third_party/mcu_vendor/renesas/rz_mcu_boards/core_package/generate/sc_drivers/r_adc/src/lld\r_adc_lld_rza2m.c ****     RZA_IO_RegWrite_16(&ADC.ADCSR.WORD, 1, ADC_ADCSR_ADIE_SHIFT, ADC_ADCSR_ADIE);
 1081              		.loc 1 742 0
 1082 0044 013AA0E3 		mov	r3, #4096
 1083 0048 0C20A0E3 		mov	r2, #12
 1084 004c 0110A0E3 		mov	r1, #1
 1085 0050 08009FE5 		ldr	r0, .L102
 1086              	.LVL102:
 1087 0054 FEFFFFEB 		bl	RZA_IO_RegWrite_16
 1088              	.LVL103:
 743:D:/Work/DeviceTester/amazon-freertos/lib/third_party/mcu_vendor/renesas/rz_mcu_boards/core_package/generate/sc_drivers/r_adc/src/lld\r_adc_lld_rza2m.c **** 
 744:D:/Work/DeviceTester/amazon-freertos/lib/third_party/mcu_vendor/renesas/rz_mcu_boards/core_package/generate/sc_drivers/r_adc/src/lld\r_adc_lld_rza2m.c ****     return ADC_SUCCESS;
 1089              		.loc 1 744 0
 1090 0058 0400A0E1 		mov	r0, r4
 745:D:/Work/DeviceTester/amazon-freertos/lib/third_party/mcu_vendor/renesas/rz_mcu_boards/core_package/generate/sc_drivers/r_adc/src/lld\r_adc_lld_rza2m.c **** }
 1091              		.loc 1 745 0
 1092 005c 1080BDE8 		pop	{r4, pc}
 1093              	.L103:
 1094              		.align	2
 1095              	.L102:
 1096 0060 005800E8 		.word	-402630656
 1097              		.cfi_endproc
 1098              	.LFE20:
 1100              		.section	.text.R_ADC_GetConversionWidth,"ax",%progbits
 1101              		.align	2
 1102              		.global	R_ADC_GetConversionWidth
 1103              		.syntax unified
 1104              		.arm
 1105              		.fpu neon
 1107              	R_ADC_GetConversionWidth:
 1108              	.LFB21:
 746:D:/Work/DeviceTester/amazon-freertos/lib/third_party/mcu_vendor/renesas/rz_mcu_boards/core_package/generate/sc_drivers/r_adc/src/lld\r_adc_lld_rza2m.c **** /**************************************************************************************************
 747:D:/Work/DeviceTester/amazon-freertos/lib/third_party/mcu_vendor/renesas/rz_mcu_boards/core_package/generate/sc_drivers/r_adc/src/lld\r_adc_lld_rza2m.c ****  * End of function R_ADC_ConfigureInterrupts
 748:D:/Work/DeviceTester/amazon-freertos/lib/third_party/mcu_vendor/renesas/rz_mcu_boards/core_package/generate/sc_drivers/r_adc/src/lld\r_adc_lld_rza2m.c ****  **************************************************************************************************
 749:D:/Work/DeviceTester/amazon-freertos/lib/third_party/mcu_vendor/renesas/rz_mcu_boards/core_package/generate/sc_drivers/r_adc/src/lld\r_adc_lld_rza2m.c **** 
 750:D:/Work/DeviceTester/amazon-freertos/lib/third_party/mcu_vendor/renesas/rz_mcu_boards/core_package/generate/sc_drivers/r_adc/src/lld\r_adc_lld_rza2m.c **** /**************************************************************************************************
 751:D:/Work/DeviceTester/amazon-freertos/lib/third_party/mcu_vendor/renesas/rz_mcu_boards/core_package/generate/sc_drivers/r_adc/src/lld\r_adc_lld_rza2m.c ****  * Function Name: R_ADC_GetConversionWidth
 752:D:/Work/DeviceTester/amazon-freertos/lib/third_party/mcu_vendor/renesas/rz_mcu_boards/core_package/generate/sc_drivers/r_adc/src/lld\r_adc_lld_rza2m.c ****  * Description  : Gets the ADC conversion width in bytes
 753:D:/Work/DeviceTester/amazon-freertos/lib/third_party/mcu_vendor/renesas/rz_mcu_boards/core_package/generate/sc_drivers/r_adc/src/lld\r_adc_lld_rza2m.c ****  * Arguments    : p_width[out] - pointer to the conversion width
 754:D:/Work/DeviceTester/amazon-freertos/lib/third_party/mcu_vendor/renesas/rz_mcu_boards/core_package/generate/sc_drivers/r_adc/src/lld\r_adc_lld_rza2m.c ****  * Return Value : ADC_SUCCESS always returned
 755:D:/Work/DeviceTester/amazon-freertos/lib/third_party/mcu_vendor/renesas/rz_mcu_boards/core_package/generate/sc_drivers/r_adc/src/lld\r_adc_lld_rza2m.c ****  **************************************************************************************************
 756:D:/Work/DeviceTester/amazon-freertos/lib/third_party/mcu_vendor/renesas/rz_mcu_boards/core_package/generate/sc_drivers/r_adc/src/lld\r_adc_lld_rza2m.c **** e_r_drv_adc_err_t R_ADC_GetConversionWidth(uint8_t * p_width)
 757:D:/Work/DeviceTester/amazon-freertos/lib/third_party/mcu_vendor/renesas/rz_mcu_boards/core_package/generate/sc_drivers/r_adc/src/lld\r_adc_lld_rza2m.c **** {
 1109              		.loc 1 757 0
 1110              		.cfi_startproc
 1111              		@ args = 0, pretend = 0, frame = 0
 1112              		@ frame_needed = 0, uses_anonymous_args = 0
 1113              	.LVL104:
 1114 0000 10402DE9 		push	{r4, lr}
 1115              		.cfi_def_cfa_offset 8
 1116              		.cfi_offset 4, -8
 1117              		.cfi_offset 14, -4
 758:D:/Work/DeviceTester/amazon-freertos/lib/third_party/mcu_vendor/renesas/rz_mcu_boards/core_package/generate/sc_drivers/r_adc/src/lld\r_adc_lld_rza2m.c ****     uint16_t adprc;
 759:D:/Work/DeviceTester/amazon-freertos/lib/third_party/mcu_vendor/renesas/rz_mcu_boards/core_package/generate/sc_drivers/r_adc/src/lld\r_adc_lld_rza2m.c **** 
 760:D:/Work/DeviceTester/amazon-freertos/lib/third_party/mcu_vendor/renesas/rz_mcu_boards/core_package/generate/sc_drivers/r_adc/src/lld\r_adc_lld_rza2m.c ****     /* read the ADPRC value from the ADCER register */
 761:D:/Work/DeviceTester/amazon-freertos/lib/third_party/mcu_vendor/renesas/rz_mcu_boards/core_package/generate/sc_drivers/r_adc/src/lld\r_adc_lld_rza2m.c ****     adprc = RZA_IO_RegRead_16(&ADC.ADCER.WORD, ADC_ADCER_ADPRC_SHIFT, ADC_ADCER_ADPRC);
 1118              		.loc 1 761 0
 1119 0004 0620A0E3 		mov	r2, #6
 757:D:/Work/DeviceTester/amazon-freertos/lib/third_party/mcu_vendor/renesas/rz_mcu_boards/core_package/generate/sc_drivers/r_adc/src/lld\r_adc_lld_rza2m.c ****     uint16_t adprc;
 1120              		.loc 1 757 0
 1121 0008 0040A0E1 		mov	r4, r0
 1122              		.loc 1 761 0
 1123 000c 0110A0E3 		mov	r1, #1
 1124 0010 24009FE5 		ldr	r0, .L111
 1125              	.LVL105:
 1126 0014 FEFFFFEB 		bl	RZA_IO_RegRead_16
 1127              	.LVL106:
 762:D:/Work/DeviceTester/amazon-freertos/lib/third_party/mcu_vendor/renesas/rz_mcu_boards/core_package/generate/sc_drivers/r_adc/src/lld\r_adc_lld_rza2m.c **** 
 763:D:/Work/DeviceTester/amazon-freertos/lib/third_party/mcu_vendor/renesas/rz_mcu_boards/core_package/generate/sc_drivers/r_adc/src/lld\r_adc_lld_rza2m.c ****     /* map to width in bytes */
 764:D:/Work/DeviceTester/amazon-freertos/lib/third_party/mcu_vendor/renesas/rz_mcu_boards/core_package/generate/sc_drivers/r_adc/src/lld\r_adc_lld_rza2m.c ****     switch (adprc)
 1128              		.loc 1 764 0
 1129 0018 010050E3 		cmp	r0, #1
 1130 001c 0200000A 		beq	.L106
 1131 0020 020050E3 		cmp	r0, #2
 765:D:/Work/DeviceTester/amazon-freertos/lib/third_party/mcu_vendor/renesas/rz_mcu_boards/core_package/generate/sc_drivers/r_adc/src/lld\r_adc_lld_rza2m.c ****     {
 766:D:/Work/DeviceTester/amazon-freertos/lib/third_party/mcu_vendor/renesas/rz_mcu_boards/core_package/generate/sc_drivers/r_adc/src/lld\r_adc_lld_rza2m.c ****         default:
 767:D:/Work/DeviceTester/amazon-freertos/lib/third_party/mcu_vendor/renesas/rz_mcu_boards/core_package/generate/sc_drivers/r_adc/src/lld\r_adc_lld_rza2m.c ****         case R_ADC_PRV_ADCER_ADC_RESOLUTION_12:
 768:D:/Work/DeviceTester/amazon-freertos/lib/third_party/mcu_vendor/renesas/rz_mcu_boards/core_package/generate/sc_drivers/r_adc/src/lld\r_adc_lld_rza2m.c ****         {
 769:D:/Work/DeviceTester/amazon-freertos/lib/third_party/mcu_vendor/renesas/rz_mcu_boards/core_package/generate/sc_drivers/r_adc/src/lld\r_adc_lld_rza2m.c ****             *p_width = 2;
 770:D:/Work/DeviceTester/amazon-freertos/lib/third_party/mcu_vendor/renesas/rz_mcu_boards/core_package/generate/sc_drivers/r_adc/src/lld\r_adc_lld_rza2m.c ****             break;
 771:D:/Work/DeviceTester/amazon-freertos/lib/third_party/mcu_vendor/renesas/rz_mcu_boards/core_package/generate/sc_drivers/r_adc/src/lld\r_adc_lld_rza2m.c ****         }
 772:D:/Work/DeviceTester/amazon-freertos/lib/third_party/mcu_vendor/renesas/rz_mcu_boards/core_package/generate/sc_drivers/r_adc/src/lld\r_adc_lld_rza2m.c **** 
 773:D:/Work/DeviceTester/amazon-freertos/lib/third_party/mcu_vendor/renesas/rz_mcu_boards/core_package/generate/sc_drivers/r_adc/src/lld\r_adc_lld_rza2m.c ****         case R_ADC_PRV_ADCER_ADC_RESOLUTION_10:
 774:D:/Work/DeviceTester/amazon-freertos/lib/third_party/mcu_vendor/renesas/rz_mcu_boards/core_package/generate/sc_drivers/r_adc/src/lld\r_adc_lld_rza2m.c ****         {
 775:D:/Work/DeviceTester/amazon-freertos/lib/third_party/mcu_vendor/renesas/rz_mcu_boards/core_package/generate/sc_drivers/r_adc/src/lld\r_adc_lld_rza2m.c ****             *p_width = 2;
 776:D:/Work/DeviceTester/amazon-freertos/lib/third_party/mcu_vendor/renesas/rz_mcu_boards/core_package/generate/sc_drivers/r_adc/src/lld\r_adc_lld_rza2m.c ****             break;
 777:D:/Work/DeviceTester/amazon-freertos/lib/third_party/mcu_vendor/renesas/rz_mcu_boards/core_package/generate/sc_drivers/r_adc/src/lld\r_adc_lld_rza2m.c ****         }
 778:D:/Work/DeviceTester/amazon-freertos/lib/third_party/mcu_vendor/renesas/rz_mcu_boards/core_package/generate/sc_drivers/r_adc/src/lld\r_adc_lld_rza2m.c **** 
 779:D:/Work/DeviceTester/amazon-freertos/lib/third_party/mcu_vendor/renesas/rz_mcu_boards/core_package/generate/sc_drivers/r_adc/src/lld\r_adc_lld_rza2m.c ****         case R_ADC_PRV_ADCER_ADC_RESOLUTION_8:
 780:D:/Work/DeviceTester/amazon-freertos/lib/third_party/mcu_vendor/renesas/rz_mcu_boards/core_package/generate/sc_drivers/r_adc/src/lld\r_adc_lld_rza2m.c ****         {
 781:D:/Work/DeviceTester/amazon-freertos/lib/third_party/mcu_vendor/renesas/rz_mcu_boards/core_package/generate/sc_drivers/r_adc/src/lld\r_adc_lld_rza2m.c ****             *p_width = 1;
 1132              		.loc 1 781 0
 1133 0024 0130A003 		moveq	r3, #1
 764:D:/Work/DeviceTester/amazon-freertos/lib/third_party/mcu_vendor/renesas/rz_mcu_boards/core_package/generate/sc_drivers/r_adc/src/lld\r_adc_lld_rza2m.c ****     {
 1134              		.loc 1 764 0
 1135 0028 0000000A 		beq	.L110
 1136              	.L106:
 775:D:/Work/DeviceTester/amazon-freertos/lib/third_party/mcu_vendor/renesas/rz_mcu_boards/core_package/generate/sc_drivers/r_adc/src/lld\r_adc_lld_rza2m.c ****             break;
 1137              		.loc 1 775 0
 1138 002c 0230A0E3 		mov	r3, #2
 1139              	.L110:
 1140              		.loc 1 781 0
 1141 0030 0030C4E5 		strb	r3, [r4]
 782:D:/Work/DeviceTester/amazon-freertos/lib/third_party/mcu_vendor/renesas/rz_mcu_boards/core_package/generate/sc_drivers/r_adc/src/lld\r_adc_lld_rza2m.c ****             break;
 783:D:/Work/DeviceTester/amazon-freertos/lib/third_party/mcu_vendor/renesas/rz_mcu_boards/core_package/generate/sc_drivers/r_adc/src/lld\r_adc_lld_rza2m.c ****         }
 784:D:/Work/DeviceTester/amazon-freertos/lib/third_party/mcu_vendor/renesas/rz_mcu_boards/core_package/generate/sc_drivers/r_adc/src/lld\r_adc_lld_rza2m.c ****     }
 785:D:/Work/DeviceTester/amazon-freertos/lib/third_party/mcu_vendor/renesas/rz_mcu_boards/core_package/generate/sc_drivers/r_adc/src/lld\r_adc_lld_rza2m.c **** 
 786:D:/Work/DeviceTester/amazon-freertos/lib/third_party/mcu_vendor/renesas/rz_mcu_boards/core_package/generate/sc_drivers/r_adc/src/lld\r_adc_lld_rza2m.c ****     return ADC_SUCCESS;
 787:D:/Work/DeviceTester/amazon-freertos/lib/third_party/mcu_vendor/renesas/rz_mcu_boards/core_package/generate/sc_drivers/r_adc/src/lld\r_adc_lld_rza2m.c **** }
 1142              		.loc 1 787 0
 1143 0034 0000A0E3 		mov	r0, #0
 1144              	.LVL107:
 1145 0038 1080BDE8 		pop	{r4, pc}
 1146              	.L112:
 1147              		.align	2
 1148              	.L111:
 1149 003c 0E5800E8 		.word	-402630642
 1150              		.cfi_endproc
 1151              	.LFE21:
 1153              		.section	.text.R_ADC_IsChannelEnabled,"ax",%progbits
 1154              		.align	2
 1155              		.global	R_ADC_IsChannelEnabled
 1156              		.syntax unified
 1157              		.arm
 1158              		.fpu neon
 1160              	R_ADC_IsChannelEnabled:
 1161              	.LFB22:
 788:D:/Work/DeviceTester/amazon-freertos/lib/third_party/mcu_vendor/renesas/rz_mcu_boards/core_package/generate/sc_drivers/r_adc/src/lld\r_adc_lld_rza2m.c **** /**************************************************************************************************
 789:D:/Work/DeviceTester/amazon-freertos/lib/third_party/mcu_vendor/renesas/rz_mcu_boards/core_package/generate/sc_drivers/r_adc/src/lld\r_adc_lld_rza2m.c ****  * End of function R_ADC_GetConversionWidth
 790:D:/Work/DeviceTester/amazon-freertos/lib/third_party/mcu_vendor/renesas/rz_mcu_boards/core_package/generate/sc_drivers/r_adc/src/lld\r_adc_lld_rza2m.c ****  **************************************************************************************************
 791:D:/Work/DeviceTester/amazon-freertos/lib/third_party/mcu_vendor/renesas/rz_mcu_boards/core_package/generate/sc_drivers/r_adc/src/lld\r_adc_lld_rza2m.c **** 
 792:D:/Work/DeviceTester/amazon-freertos/lib/third_party/mcu_vendor/renesas/rz_mcu_boards/core_package/generate/sc_drivers/r_adc/src/lld\r_adc_lld_rza2m.c **** /**************************************************************************************************
 793:D:/Work/DeviceTester/amazon-freertos/lib/third_party/mcu_vendor/renesas/rz_mcu_boards/core_package/generate/sc_drivers/r_adc/src/lld\r_adc_lld_rza2m.c ****  * Function Name: R_ADC_IsChannelEnabled
 794:D:/Work/DeviceTester/amazon-freertos/lib/third_party/mcu_vendor/renesas/rz_mcu_boards/core_package/generate/sc_drivers/r_adc/src/lld\r_adc_lld_rza2m.c ****  * Description  : Determines if a channel is enabled
 795:D:/Work/DeviceTester/amazon-freertos/lib/third_party/mcu_vendor/renesas/rz_mcu_boards/core_package/generate/sc_drivers/r_adc/src/lld\r_adc_lld_rza2m.c ****  * Arguments    : channel[in] - the channel to check
 796:D:/Work/DeviceTester/amazon-freertos/lib/third_party/mcu_vendor/renesas/rz_mcu_boards/core_package/generate/sc_drivers/r_adc/src/lld\r_adc_lld_rza2m.c ****  *                p_enabled[out] - pointer to channel enabled flag
 797:D:/Work/DeviceTester/amazon-freertos/lib/third_party/mcu_vendor/renesas/rz_mcu_boards/core_package/generate/sc_drivers/r_adc/src/lld\r_adc_lld_rza2m.c ****  *                                 true:  channel is enabled
 798:D:/Work/DeviceTester/amazon-freertos/lib/third_party/mcu_vendor/renesas/rz_mcu_boards/core_package/generate/sc_drivers/r_adc/src/lld\r_adc_lld_rza2m.c ****  *                                 false: channel is disabled
 799:D:/Work/DeviceTester/amazon-freertos/lib/third_party/mcu_vendor/renesas/rz_mcu_boards/core_package/generate/sc_drivers/r_adc/src/lld\r_adc_lld_rza2m.c ****  * Return Value : ADC_SUCCESS or ADC_ERR_FAILED
 800:D:/Work/DeviceTester/amazon-freertos/lib/third_party/mcu_vendor/renesas/rz_mcu_boards/core_package/generate/sc_drivers/r_adc/src/lld\r_adc_lld_rza2m.c ****  **************************************************************************************************
 801:D:/Work/DeviceTester/amazon-freertos/lib/third_party/mcu_vendor/renesas/rz_mcu_boards/core_package/generate/sc_drivers/r_adc/src/lld\r_adc_lld_rza2m.c **** e_r_drv_adc_err_t R_ADC_IsChannelEnabled(e_r_drv_adc_channel_t channel, bool_t * p_enabled)
 802:D:/Work/DeviceTester/amazon-freertos/lib/third_party/mcu_vendor/renesas/rz_mcu_boards/core_package/generate/sc_drivers/r_adc/src/lld\r_adc_lld_rza2m.c **** {
 1162              		.loc 1 802 0
 1163              		.cfi_startproc
 1164              		@ args = 0, pretend = 0, frame = 0
 1165              		@ frame_needed = 0, uses_anonymous_args = 0
 1166              	.LVL108:
 803:D:/Work/DeviceTester/amazon-freertos/lib/third_party/mcu_vendor/renesas/rz_mcu_boards/core_package/generate/sc_drivers/r_adc/src/lld\r_adc_lld_rza2m.c ****     uint16_t ansa0;
 804:D:/Work/DeviceTester/amazon-freertos/lib/third_party/mcu_vendor/renesas/rz_mcu_boards/core_package/generate/sc_drivers/r_adc/src/lld\r_adc_lld_rza2m.c **** 
 805:D:/Work/DeviceTester/amazon-freertos/lib/third_party/mcu_vendor/renesas/rz_mcu_boards/core_package/generate/sc_drivers/r_adc/src/lld\r_adc_lld_rza2m.c ****     if (channel > ADC_CHANNEL_AN007)
 1167              		.loc 1 805 0
 1168 0000 070050E3 		cmp	r0, #7
 1169 0004 0D00008A 		bhi	.L116
 802:D:/Work/DeviceTester/amazon-freertos/lib/third_party/mcu_vendor/renesas/rz_mcu_boards/core_package/generate/sc_drivers/r_adc/src/lld\r_adc_lld_rza2m.c ****     uint16_t ansa0;
 1170              		.loc 1 802 0
 1171 0008 70402DE9 		push	{r4, r5, r6, lr}
 1172              		.cfi_def_cfa_offset 16
 1173              		.cfi_offset 4, -16
 1174              		.cfi_offset 5, -12
 1175              		.cfi_offset 6, -8
 1176              		.cfi_offset 14, -4
 806:D:/Work/DeviceTester/amazon-freertos/lib/third_party/mcu_vendor/renesas/rz_mcu_boards/core_package/generate/sc_drivers/r_adc/src/lld\r_adc_lld_rza2m.c ****     {
 807:D:/Work/DeviceTester/amazon-freertos/lib/third_party/mcu_vendor/renesas/rz_mcu_boards/core_package/generate/sc_drivers/r_adc/src/lld\r_adc_lld_rza2m.c ****         return ADC_ERR_FAILED;
 808:D:/Work/DeviceTester/amazon-freertos/lib/third_party/mcu_vendor/renesas/rz_mcu_boards/core_package/generate/sc_drivers/r_adc/src/lld\r_adc_lld_rza2m.c ****     }
 809:D:/Work/DeviceTester/amazon-freertos/lib/third_party/mcu_vendor/renesas/rz_mcu_boards/core_package/generate/sc_drivers/r_adc/src/lld\r_adc_lld_rza2m.c **** 
 810:D:/Work/DeviceTester/amazon-freertos/lib/third_party/mcu_vendor/renesas/rz_mcu_boards/core_package/generate/sc_drivers/r_adc/src/lld\r_adc_lld_rza2m.c ****     /* read the mask of enabled channels */
 811:D:/Work/DeviceTester/amazon-freertos/lib/third_party/mcu_vendor/renesas/rz_mcu_boards/core_package/generate/sc_drivers/r_adc/src/lld\r_adc_lld_rza2m.c ****     ansa0 = RZA_IO_RegRead_16(&ADC.ADANSA0.WORD, ADC_ADANSA0_ANSA0_SHIFT, ADC_ADANSA0_ANSA0);
 1177              		.loc 1 811 0
 1178 000c FF20A0E3 		mov	r2, #255
 1179 0010 0150A0E1 		mov	r5, r1
 1180 0014 0040A0E1 		mov	r4, r0
 1181 0018 0010A0E3 		mov	r1, #0
 1182              	.LVL109:
 1183 001c 24009FE5 		ldr	r0, .L121
 1184              	.LVL110:
 1185 0020 FEFFFFEB 		bl	RZA_IO_RegRead_16
 1186              	.LVL111:
 812:D:/Work/DeviceTester/amazon-freertos/lib/third_party/mcu_vendor/renesas/rz_mcu_boards/core_package/generate/sc_drivers/r_adc/src/lld\r_adc_lld_rza2m.c **** 
 813:D:/Work/DeviceTester/amazon-freertos/lib/third_party/mcu_vendor/renesas/rz_mcu_boards/core_package/generate/sc_drivers/r_adc/src/lld\r_adc_lld_rza2m.c ****     if ((ansa0 & (1u << channel)) == 0)
 1187              		.loc 1 813 0
 1188 0024 3004A0E1 		lsr	r0, r0, r4
 1189              	.LVL112:
 1190 0028 010010E2 		ands	r0, r0, #1
 814:D:/Work/DeviceTester/amazon-freertos/lib/third_party/mcu_vendor/renesas/rz_mcu_boards/core_package/generate/sc_drivers/r_adc/src/lld\r_adc_lld_rza2m.c ****     {
 815:D:/Work/DeviceTester/amazon-freertos/lib/third_party/mcu_vendor/renesas/rz_mcu_boards/core_package/generate/sc_drivers/r_adc/src/lld\r_adc_lld_rza2m.c ****         *p_enabled = false;
 816:D:/Work/DeviceTester/amazon-freertos/lib/third_party/mcu_vendor/renesas/rz_mcu_boards/core_package/generate/sc_drivers/r_adc/src/lld\r_adc_lld_rza2m.c ****     }
 817:D:/Work/DeviceTester/amazon-freertos/lib/third_party/mcu_vendor/renesas/rz_mcu_boards/core_package/generate/sc_drivers/r_adc/src/lld\r_adc_lld_rza2m.c ****     else
 818:D:/Work/DeviceTester/amazon-freertos/lib/third_party/mcu_vendor/renesas/rz_mcu_boards/core_package/generate/sc_drivers/r_adc/src/lld\r_adc_lld_rza2m.c ****     {
 819:D:/Work/DeviceTester/amazon-freertos/lib/third_party/mcu_vendor/renesas/rz_mcu_boards/core_package/generate/sc_drivers/r_adc/src/lld\r_adc_lld_rza2m.c ****         *p_enabled = true;
 1191              		.loc 1 819 0
 1192 002c 0130A013 		movne	r3, #1
 815:D:/Work/DeviceTester/amazon-freertos/lib/third_party/mcu_vendor/renesas/rz_mcu_boards/core_package/generate/sc_drivers/r_adc/src/lld\r_adc_lld_rza2m.c ****     }
 1193              		.loc 1 815 0
 1194 0030 00008505 		streq	r0, [r5]
 1195              		.loc 1 819 0
 1196 0034 00308515 		strne	r3, [r5]
 820:D:/Work/DeviceTester/amazon-freertos/lib/third_party/mcu_vendor/renesas/rz_mcu_boards/core_package/generate/sc_drivers/r_adc/src/lld\r_adc_lld_rza2m.c ****     }
 821:D:/Work/DeviceTester/amazon-freertos/lib/third_party/mcu_vendor/renesas/rz_mcu_boards/core_package/generate/sc_drivers/r_adc/src/lld\r_adc_lld_rza2m.c **** 
 822:D:/Work/DeviceTester/amazon-freertos/lib/third_party/mcu_vendor/renesas/rz_mcu_boards/core_package/generate/sc_drivers/r_adc/src/lld\r_adc_lld_rza2m.c ****     return ADC_SUCCESS;
 1197              		.loc 1 822 0
 1198 0038 0000A013 		movne	r0, #0
 1199 003c 7080BDE8 		pop	{r4, r5, r6, pc}
 1200              	.LVL113:
 1201              	.L116:
 1202              		.cfi_def_cfa_offset 0
 1203              		.cfi_restore 4
 1204              		.cfi_restore 5
 1205              		.cfi_restore 6
 1206              		.cfi_restore 14
 807:D:/Work/DeviceTester/amazon-freertos/lib/third_party/mcu_vendor/renesas/rz_mcu_boards/core_package/generate/sc_drivers/r_adc/src/lld\r_adc_lld_rza2m.c ****     }
 1207              		.loc 1 807 0
 1208 0040 0000E0E3 		mvn	r0, #0
 1209              	.LVL114:
 1210 0044 1EFF2FE1 		bx	lr
 1211              	.L122:
 1212              		.align	2
 1213              	.L121:
 1214 0048 045800E8 		.word	-402630652
 1215              		.cfi_endproc
 1216              	.LFE22:
 1218              		.section	.text.R_ADC_ConfigureAnalogueInputs,"ax",%progbits
 1219              		.align	2
 1220              		.global	R_ADC_ConfigureAnalogueInputs
 1221              		.syntax unified
 1222              		.arm
 1223              		.fpu neon
 1225              	R_ADC_ConfigureAnalogueInputs:
 1226              	.LFB23:
 823:D:/Work/DeviceTester/amazon-freertos/lib/third_party/mcu_vendor/renesas/rz_mcu_boards/core_package/generate/sc_drivers/r_adc/src/lld\r_adc_lld_rza2m.c **** }
 824:D:/Work/DeviceTester/amazon-freertos/lib/third_party/mcu_vendor/renesas/rz_mcu_boards/core_package/generate/sc_drivers/r_adc/src/lld\r_adc_lld_rza2m.c **** /**************************************************************************************************
 825:D:/Work/DeviceTester/amazon-freertos/lib/third_party/mcu_vendor/renesas/rz_mcu_boards/core_package/generate/sc_drivers/r_adc/src/lld\r_adc_lld_rza2m.c ****  * End of function R_ADC_IsChannelEnabled
 826:D:/Work/DeviceTester/amazon-freertos/lib/third_party/mcu_vendor/renesas/rz_mcu_boards/core_package/generate/sc_drivers/r_adc/src/lld\r_adc_lld_rza2m.c ****  **************************************************************************************************
 827:D:/Work/DeviceTester/amazon-freertos/lib/third_party/mcu_vendor/renesas/rz_mcu_boards/core_package/generate/sc_drivers/r_adc/src/lld\r_adc_lld_rza2m.c **** 
 828:D:/Work/DeviceTester/amazon-freertos/lib/third_party/mcu_vendor/renesas/rz_mcu_boards/core_package/generate/sc_drivers/r_adc/src/lld\r_adc_lld_rza2m.c **** /**************************************************************************************************
 829:D:/Work/DeviceTester/amazon-freertos/lib/third_party/mcu_vendor/renesas/rz_mcu_boards/core_package/generate/sc_drivers/r_adc/src/lld\r_adc_lld_rza2m.c ****  * Function Name: R_ADC_ConfigureAnalogueInputs
 830:D:/Work/DeviceTester/amazon-freertos/lib/third_party/mcu_vendor/renesas/rz_mcu_boards/core_package/generate/sc_drivers/r_adc/src/lld\r_adc_lld_rza2m.c ****  * Description  : Sets the pins on enabled channels to analogue input
 831:D:/Work/DeviceTester/amazon-freertos/lib/third_party/mcu_vendor/renesas/rz_mcu_boards/core_package/generate/sc_drivers/r_adc/src/lld\r_adc_lld_rza2m.c ****  * Arguments    : None
 832:D:/Work/DeviceTester/amazon-freertos/lib/third_party/mcu_vendor/renesas/rz_mcu_boards/core_package/generate/sc_drivers/r_adc/src/lld\r_adc_lld_rza2m.c ****  * Return Value : ADC_SUCCESS or ADC_ERR_FAILED
 833:D:/Work/DeviceTester/amazon-freertos/lib/third_party/mcu_vendor/renesas/rz_mcu_boards/core_package/generate/sc_drivers/r_adc/src/lld\r_adc_lld_rza2m.c ****  **************************************************************************************************
 834:D:/Work/DeviceTester/amazon-freertos/lib/third_party/mcu_vendor/renesas/rz_mcu_boards/core_package/generate/sc_drivers/r_adc/src/lld\r_adc_lld_rza2m.c **** e_r_drv_adc_err_t R_ADC_ConfigureAnalogueInputs(void)
 835:D:/Work/DeviceTester/amazon-freertos/lib/third_party/mcu_vendor/renesas/rz_mcu_boards/core_package/generate/sc_drivers/r_adc/src/lld\r_adc_lld_rza2m.c **** {
 1227              		.loc 1 835 0
 1228              		.cfi_startproc
 1229              		@ args = 0, pretend = 0, frame = 16
 1230              		@ frame_needed = 0, uses_anonymous_args = 0
 1231              	.LVL115:
 1232 0000 FF412DE9 		push	{r0, r1, r2, r3, r4, r5, r6, r7, r8, lr}
 1233              		.cfi_def_cfa_offset 40
 1234              		.cfi_offset 4, -24
 1235              		.cfi_offset 5, -20
 1236              		.cfi_offset 6, -16
 1237              		.cfi_offset 7, -12
 1238              		.cfi_offset 8, -8
 1239              		.cfi_offset 14, -4
 836:D:/Work/DeviceTester/amazon-freertos/lib/third_party/mcu_vendor/renesas/rz_mcu_boards/core_package/generate/sc_drivers/r_adc/src/lld\r_adc_lld_rza2m.c ****     int_t handle;
 837:D:/Work/DeviceTester/amazon-freertos/lib/third_party/mcu_vendor/renesas/rz_mcu_boards/core_package/generate/sc_drivers/r_adc/src/lld\r_adc_lld_rza2m.c ****     st_r_drv_gpio_config_t pin_configuration;
 838:D:/Work/DeviceTester/amazon-freertos/lib/third_party/mcu_vendor/renesas/rz_mcu_boards/core_package/generate/sc_drivers/r_adc/src/lld\r_adc_lld_rza2m.c ****     int_t result;
 839:D:/Work/DeviceTester/amazon-freertos/lib/third_party/mcu_vendor/renesas/rz_mcu_boards/core_package/generate/sc_drivers/r_adc/src/lld\r_adc_lld_rza2m.c ****     e_r_drv_adc_channel_t channel;
 840:D:/Work/DeviceTester/amazon-freertos/lib/third_party/mcu_vendor/renesas/rz_mcu_boards/core_package/generate/sc_drivers/r_adc/src/lld\r_adc_lld_rza2m.c ****     bool_t enabled;
 841:D:/Work/DeviceTester/amazon-freertos/lib/third_party/mcu_vendor/renesas/rz_mcu_boards/core_package/generate/sc_drivers/r_adc/src/lld\r_adc_lld_rza2m.c ****     bool_t success = true;
 842:D:/Work/DeviceTester/amazon-freertos/lib/third_party/mcu_vendor/renesas/rz_mcu_boards/core_package/generate/sc_drivers/r_adc/src/lld\r_adc_lld_rza2m.c **** 
 843:D:/Work/DeviceTester/amazon-freertos/lib/third_party/mcu_vendor/renesas/rz_mcu_boards/core_package/generate/sc_drivers/r_adc/src/lld\r_adc_lld_rza2m.c ****     /* open the GPIO driver */
 844:D:/Work/DeviceTester/amazon-freertos/lib/third_party/mcu_vendor/renesas/rz_mcu_boards/core_package/generate/sc_drivers/r_adc/src/lld\r_adc_lld_rza2m.c ****     handle = open("\\\\.\\gpio", O_RDWR);
 1240              		.loc 1 844 0
 1241 0004 0210A0E3 		mov	r1, #2
 1242 0008 8C009FE5 		ldr	r0, .L135
 1243 000c FEFFFFEB 		bl	open
 1244              	.LVL116:
 845:D:/Work/DeviceTester/amazon-freertos/lib/third_party/mcu_vendor/renesas/rz_mcu_boards/core_package/generate/sc_drivers/r_adc/src/lld\r_adc_lld_rza2m.c **** 
 846:D:/Work/DeviceTester/amazon-freertos/lib/third_party/mcu_vendor/renesas/rz_mcu_boards/core_package/generate/sc_drivers/r_adc/src/lld\r_adc_lld_rza2m.c ****     if (handle < 0)
 1245              		.loc 1 846 0
 1246 0010 006050E2 		subs	r6, r0, #0
 847:D:/Work/DeviceTester/amazon-freertos/lib/third_party/mcu_vendor/renesas/rz_mcu_boards/core_package/generate/sc_drivers/r_adc/src/lld\r_adc_lld_rza2m.c ****     {
 848:D:/Work/DeviceTester/amazon-freertos/lib/third_party/mcu_vendor/renesas/rz_mcu_boards/core_package/generate/sc_drivers/r_adc/src/lld\r_adc_lld_rza2m.c ****         return ADC_ERR_FAILED;
 1247              		.loc 1 848 0
 1248 0014 0000E0B3 		mvnlt	r0, #0
 1249              	.LVL117:
 846:D:/Work/DeviceTester/amazon-freertos/lib/third_party/mcu_vendor/renesas/rz_mcu_boards/core_package/generate/sc_drivers/r_adc/src/lld\r_adc_lld_rza2m.c ****     {
 1250              		.loc 1 846 0
 1251 0018 1D0000BA 		blt	.L124
 1252 001c 055CA0E3 		mov	r5, #1280
 1253 0020 0140A0E3 		mov	r4, #1
 849:D:/Work/DeviceTester/amazon-freertos/lib/third_party/mcu_vendor/renesas/rz_mcu_boards/core_package/generate/sc_drivers/r_adc/src/lld\r_adc_lld_rza2m.c ****     }
 850:D:/Work/DeviceTester/amazon-freertos/lib/third_party/mcu_vendor/renesas/rz_mcu_boards/core_package/generate/sc_drivers/r_adc/src/lld\r_adc_lld_rza2m.c **** 
 851:D:/Work/DeviceTester/amazon-freertos/lib/third_party/mcu_vendor/renesas/rz_mcu_boards/core_package/generate/sc_drivers/r_adc/src/lld\r_adc_lld_rza2m.c ****     for (channel = ADC_CHANNEL_AN000; channel < ADC_CHANNELS; channel++)
 852:D:/Work/DeviceTester/amazon-freertos/lib/third_party/mcu_vendor/renesas/rz_mcu_boards/core_package/generate/sc_drivers/r_adc/src/lld\r_adc_lld_rza2m.c ****     {
 853:D:/Work/DeviceTester/amazon-freertos/lib/third_party/mcu_vendor/renesas/rz_mcu_boards/core_package/generate/sc_drivers/r_adc/src/lld\r_adc_lld_rza2m.c ****         R_ADC_IsChannelEnabled(channel, &enabled);
 854:D:/Work/DeviceTester/amazon-freertos/lib/third_party/mcu_vendor/renesas/rz_mcu_boards/core_package/generate/sc_drivers/r_adc/src/lld\r_adc_lld_rza2m.c **** 
 855:D:/Work/DeviceTester/amazon-freertos/lib/third_party/mcu_vendor/renesas/rz_mcu_boards/core_package/generate/sc_drivers/r_adc/src/lld\r_adc_lld_rza2m.c ****         if (enabled)
 856:D:/Work/DeviceTester/amazon-freertos/lib/third_party/mcu_vendor/renesas/rz_mcu_boards/core_package/generate/sc_drivers/r_adc/src/lld\r_adc_lld_rza2m.c ****         {
 857:D:/Work/DeviceTester/amazon-freertos/lib/third_party/mcu_vendor/renesas/rz_mcu_boards/core_package/generate/sc_drivers/r_adc/src/lld\r_adc_lld_rza2m.c ****             /* set port to analogue input */
 858:D:/Work/DeviceTester/amazon-freertos/lib/third_party/mcu_vendor/renesas/rz_mcu_boards/core_package/generate/sc_drivers/r_adc/src/lld\r_adc_lld_rza2m.c ****             /* all analogue input pins are on port 5 */
 859:D:/Work/DeviceTester/amazon-freertos/lib/third_party/mcu_vendor/renesas/rz_mcu_boards/core_package/generate/sc_drivers/r_adc/src/lld\r_adc_lld_rza2m.c ****             pin_configuration.config.pin = (r_gpio_port_pin_t) (GPIO_PORT_5_PIN_0 + channel);
 860:D:/Work/DeviceTester/amazon-freertos/lib/third_party/mcu_vendor/renesas/rz_mcu_boards/core_package/generate/sc_drivers/r_adc/src/lld\r_adc_lld_rza2m.c ****             pin_configuration.config.configuration.function = GPIO_FUNC_PERIPHERAL1;
 1254              		.loc 1 860 0
 1255 0024 0770A0E3 		mov	r7, #7
 861:D:/Work/DeviceTester/amazon-freertos/lib/third_party/mcu_vendor/renesas/rz_mcu_boards/core_package/generate/sc_drivers/r_adc/src/lld\r_adc_lld_rza2m.c ****             pin_configuration.config.configuration.current = GPIO_CURRENT_RESERVED;
 1256              		.loc 1 861 0
 1257 0028 0580A0E3 		mov	r8, #5
 1258              	.LVL118:
 1259              	.L126:
 853:D:/Work/DeviceTester/amazon-freertos/lib/third_party/mcu_vendor/renesas/rz_mcu_boards/core_package/generate/sc_drivers/r_adc/src/lld\r_adc_lld_rza2m.c **** 
 1260              		.loc 1 853 0
 1261 002c 04108DE2 		add	r1, sp, #4
 1262 0030 7500EFE6 		uxtb	r0, r5
 1263 0034 FEFFFFEB 		bl	R_ADC_IsChannelEnabled
 1264              	.LVL119:
 855:D:/Work/DeviceTester/amazon-freertos/lib/third_party/mcu_vendor/renesas/rz_mcu_boards/core_package/generate/sc_drivers/r_adc/src/lld\r_adc_lld_rza2m.c ****         {
 1265              		.loc 1 855 0
 1266 0038 04309DE5 		ldr	r3, [sp, #4]
 1267 003c 000053E3 		cmp	r3, #0
 1268 0040 0A00000A 		beq	.L125
 862:D:/Work/DeviceTester/amazon-freertos/lib/third_party/mcu_vendor/renesas/rz_mcu_boards/core_package/generate/sc_drivers/r_adc/src/lld\r_adc_lld_rza2m.c ****             pin_configuration.config.configuration.tint = GPIO_TINT_DISABLE;
 1269              		.loc 1 862 0
 1270 0044 0130A0E3 		mov	r3, #1
 863:D:/Work/DeviceTester/amazon-freertos/lib/third_party/mcu_vendor/renesas/rz_mcu_boards/core_package/generate/sc_drivers/r_adc/src/lld\r_adc_lld_rza2m.c **** 
 864:D:/Work/DeviceTester/amazon-freertos/lib/third_party/mcu_vendor/renesas/rz_mcu_boards/core_package/generate/sc_drivers/r_adc/src/lld\r_adc_lld_rza2m.c ****             /* cast configuration structure to void pointer */
 865:D:/Work/DeviceTester/amazon-freertos/lib/third_party/mcu_vendor/renesas/rz_mcu_boards/core_package/generate/sc_drivers/r_adc/src/lld\r_adc_lld_rza2m.c ****             result = control(handle, CTL_GPIO_SET_CONFIGURATION, (void *) &pin_configuration);
 1271              		.loc 1 865 0
 1272 0048 08208DE2 		add	r2, sp, #8
 1273 004c 0010A0E3 		mov	r1, #0
 1274 0050 0600A0E1 		mov	r0, r6
 859:D:/Work/DeviceTester/amazon-freertos/lib/third_party/mcu_vendor/renesas/rz_mcu_boards/core_package/generate/sc_drivers/r_adc/src/lld\r_adc_lld_rza2m.c ****             pin_configuration.config.configuration.function = GPIO_FUNC_PERIPHERAL1;
 1275              		.loc 1 859 0
 1276 0054 B850CDE1 		strh	r5, [sp, #8]	@ movhi
 860:D:/Work/DeviceTester/amazon-freertos/lib/third_party/mcu_vendor/renesas/rz_mcu_boards/core_package/generate/sc_drivers/r_adc/src/lld\r_adc_lld_rza2m.c ****             pin_configuration.config.configuration.current = GPIO_CURRENT_RESERVED;
 1277              		.loc 1 860 0
 1278 0058 0A70CDE5 		strb	r7, [sp, #10]
 861:D:/Work/DeviceTester/amazon-freertos/lib/third_party/mcu_vendor/renesas/rz_mcu_boards/core_package/generate/sc_drivers/r_adc/src/lld\r_adc_lld_rza2m.c ****             pin_configuration.config.configuration.tint = GPIO_TINT_DISABLE;
 1279              		.loc 1 861 0
 1280 005c 0C80CDE5 		strb	r8, [sp, #12]
 862:D:/Work/DeviceTester/amazon-freertos/lib/third_party/mcu_vendor/renesas/rz_mcu_boards/core_package/generate/sc_drivers/r_adc/src/lld\r_adc_lld_rza2m.c **** 
 1281              		.loc 1 862 0
 1282 0060 0B30CDE5 		strb	r3, [sp, #11]
 1283              		.loc 1 865 0
 1284 0064 FEFFFFEB 		bl	control
 1285              	.LVL120:
 866:D:/Work/DeviceTester/amazon-freertos/lib/third_party/mcu_vendor/renesas/rz_mcu_boards/core_package/generate/sc_drivers/r_adc/src/lld\r_adc_lld_rza2m.c **** 
 867:D:/Work/DeviceTester/amazon-freertos/lib/third_party/mcu_vendor/renesas/rz_mcu_boards/core_package/generate/sc_drivers/r_adc/src/lld\r_adc_lld_rza2m.c ****             if (DRV_SUCCESS != result)
 868:D:/Work/DeviceTester/amazon-freertos/lib/third_party/mcu_vendor/renesas/rz_mcu_boards/core_package/generate/sc_drivers/r_adc/src/lld\r_adc_lld_rza2m.c ****             {
 869:D:/Work/DeviceTester/amazon-freertos/lib/third_party/mcu_vendor/renesas/rz_mcu_boards/core_package/generate/sc_drivers/r_adc/src/lld\r_adc_lld_rza2m.c ****                 success = false;
 1286              		.loc 1 869 0
 1287 0068 000050E3 		cmp	r0, #0
 1288 006c 0040A013 		movne	r4, #0
 1289              	.LVL121:
 1290              	.L125:
 1291 0070 015085E2 		add	r5, r5, #1
 1292              	.LVL122:
 851:D:/Work/DeviceTester/amazon-freertos/lib/third_party/mcu_vendor/renesas/rz_mcu_boards/core_package/generate/sc_drivers/r_adc/src/lld\r_adc_lld_rza2m.c ****     {
 1293              		.loc 1 851 0 discriminator 2
 1294 0074 083500E3 		movw	r3, #1288
 1295 0078 7550FFE6 		uxth	r5, r5
 1296 007c 030055E1 		cmp	r5, r3
 1297 0080 E9FFFF1A 		bne	.L126
