   1              		.cpu cortex-a9
   2              		.eabi_attribute 28, 1
   3              		.eabi_attribute 20, 1
   4              		.eabi_attribute 21, 1
   5              		.eabi_attribute 23, 3
   6              		.eabi_attribute 24, 1
   7              		.eabi_attribute 25, 1
   8              		.eabi_attribute 26, 1
   9              		.eabi_attribute 30, 4
  10              		.eabi_attribute 34, 0
  11              		.eabi_attribute 18, 4
  12              		.file	"aws_test_helper_secure_connect.c"
  13              		.text
  14              	.Ltext0:
  15              		.cfi_sections	.debug_frame
  16              		.section	.text.TEST_Full_GGD_Helper_TEAR_DOWN,"ax",%progbits
  17              		.align	2
  18              		.global	TEST_Full_GGD_Helper_TEAR_DOWN
  19              		.syntax unified
  20              		.arm
  21              		.fpu neon
  23              	TEST_Full_GGD_Helper_TEAR_DOWN:
  24              	.LFB1:
  25              		.file 1 "D:/Work/DeviceTester/amazon-freertos/tests/common/greengrass/aws_test_helper_secure_conne
   1:D:/Work/DeviceTester/amazon-freertos/tests/common/greengrass\aws_test_helper_secure_connect.c **** /*
   2:D:/Work/DeviceTester/amazon-freertos/tests/common/greengrass\aws_test_helper_secure_connect.c ****  * Amazon FreeRTOS Greegrass Discovery Test V1.1.4
   3:D:/Work/DeviceTester/amazon-freertos/tests/common/greengrass\aws_test_helper_secure_connect.c ****  * Copyright (C) 2017 Amazon.com, Inc. or its affiliates.  All Rights Reserved.
   4:D:/Work/DeviceTester/amazon-freertos/tests/common/greengrass\aws_test_helper_secure_connect.c ****  *
   5:D:/Work/DeviceTester/amazon-freertos/tests/common/greengrass\aws_test_helper_secure_connect.c ****  * Permission is hereby granted, free of charge, to any person obtaining a copy of
   6:D:/Work/DeviceTester/amazon-freertos/tests/common/greengrass\aws_test_helper_secure_connect.c ****  * this software and associated documentation files (the "Software"), to deal in
   7:D:/Work/DeviceTester/amazon-freertos/tests/common/greengrass\aws_test_helper_secure_connect.c ****  * the Software without restriction, including without limitation the rights to
   8:D:/Work/DeviceTester/amazon-freertos/tests/common/greengrass\aws_test_helper_secure_connect.c ****  * use, copy, modify, merge, publish, distribute, sublicense, and/or sell copies of
   9:D:/Work/DeviceTester/amazon-freertos/tests/common/greengrass\aws_test_helper_secure_connect.c ****  * the Software, and to permit persons to whom the Software is furnished to do so,
  10:D:/Work/DeviceTester/amazon-freertos/tests/common/greengrass\aws_test_helper_secure_connect.c ****  * subject to the following conditions:
  11:D:/Work/DeviceTester/amazon-freertos/tests/common/greengrass\aws_test_helper_secure_connect.c ****  *
  12:D:/Work/DeviceTester/amazon-freertos/tests/common/greengrass\aws_test_helper_secure_connect.c ****  * The above copyright notice and this permission notice shall be included in all
  13:D:/Work/DeviceTester/amazon-freertos/tests/common/greengrass\aws_test_helper_secure_connect.c ****  * copies or substantial portions of the Software.
  14:D:/Work/DeviceTester/amazon-freertos/tests/common/greengrass\aws_test_helper_secure_connect.c ****  *
  15:D:/Work/DeviceTester/amazon-freertos/tests/common/greengrass\aws_test_helper_secure_connect.c ****  * THE SOFTWARE IS PROVIDED "AS IS", WITHOUT WARRANTY OF ANY KIND, EXPRESS OR
  16:D:/Work/DeviceTester/amazon-freertos/tests/common/greengrass\aws_test_helper_secure_connect.c ****  * IMPLIED, INCLUDING BUT NOT LIMITED TO THE WARRANTIES OF MERCHANTABILITY, FITNESS
  17:D:/Work/DeviceTester/amazon-freertos/tests/common/greengrass\aws_test_helper_secure_connect.c ****  * FOR A PARTICULAR PURPOSE AND NONINFRINGEMENT. IN NO EVENT SHALL THE AUTHORS OR
  18:D:/Work/DeviceTester/amazon-freertos/tests/common/greengrass\aws_test_helper_secure_connect.c ****  * COPYRIGHT HOLDERS BE LIABLE FOR ANY CLAIM, DAMAGES OR OTHER LIABILITY, WHETHER
  19:D:/Work/DeviceTester/amazon-freertos/tests/common/greengrass\aws_test_helper_secure_connect.c ****  * IN AN ACTION OF CONTRACT, TORT OR OTHERWISE, ARISING FROM, OUT OF OR IN
  20:D:/Work/DeviceTester/amazon-freertos/tests/common/greengrass\aws_test_helper_secure_connect.c ****  * CONNECTION WITH THE SOFTWARE OR THE USE OR OTHER DEALINGS IN THE SOFTWARE.
  21:D:/Work/DeviceTester/amazon-freertos/tests/common/greengrass\aws_test_helper_secure_connect.c ****  *
  22:D:/Work/DeviceTester/amazon-freertos/tests/common/greengrass\aws_test_helper_secure_connect.c ****  * http://aws.amazon.com/freertos
  23:D:/Work/DeviceTester/amazon-freertos/tests/common/greengrass\aws_test_helper_secure_connect.c ****  * http://www.FreeRTOS.org
  24:D:/Work/DeviceTester/amazon-freertos/tests/common/greengrass\aws_test_helper_secure_connect.c ****  */
  25:D:/Work/DeviceTester/amazon-freertos/tests/common/greengrass\aws_test_helper_secure_connect.c **** #include <string.h>
  26:D:/Work/DeviceTester/amazon-freertos/tests/common/greengrass\aws_test_helper_secure_connect.c **** #include "aws_helper_secure_connect.h"
  27:D:/Work/DeviceTester/amazon-freertos/tests/common/greengrass\aws_test_helper_secure_connect.c **** #include "unity.h"
  28:D:/Work/DeviceTester/amazon-freertos/tests/common/greengrass\aws_test_helper_secure_connect.c **** #include "unity_fixture.h"
  29:D:/Work/DeviceTester/amazon-freertos/tests/common/greengrass\aws_test_helper_secure_connect.c **** #include "aws_ggd_config.h"
  30:D:/Work/DeviceTester/amazon-freertos/tests/common/greengrass\aws_test_helper_secure_connect.c **** #include "aws_ggd_config_defaults.h"
  31:D:/Work/DeviceTester/amazon-freertos/tests/common/greengrass\aws_test_helper_secure_connect.c **** 
  32:D:/Work/DeviceTester/amazon-freertos/tests/common/greengrass\aws_test_helper_secure_connect.c **** TEST_GROUP( Full_GGD_Helper );
  33:D:/Work/DeviceTester/amazon-freertos/tests/common/greengrass\aws_test_helper_secure_connect.c **** 
  34:D:/Work/DeviceTester/amazon-freertos/tests/common/greengrass\aws_test_helper_secure_connect.c **** TEST_SETUP( Full_GGD_Helper )
  35:D:/Work/DeviceTester/amazon-freertos/tests/common/greengrass\aws_test_helper_secure_connect.c **** {
  36:D:/Work/DeviceTester/amazon-freertos/tests/common/greengrass\aws_test_helper_secure_connect.c **** }
  37:D:/Work/DeviceTester/amazon-freertos/tests/common/greengrass\aws_test_helper_secure_connect.c **** 
  38:D:/Work/DeviceTester/amazon-freertos/tests/common/greengrass\aws_test_helper_secure_connect.c **** TEST_TEAR_DOWN( Full_GGD_Helper )
  39:D:/Work/DeviceTester/amazon-freertos/tests/common/greengrass\aws_test_helper_secure_connect.c **** {
  26              		.loc 1 39 0
  27              		.cfi_startproc
  28              		@ args = 0, pretend = 0, frame = 0
  29              		@ frame_needed = 0, uses_anonymous_args = 0
  30              		@ link register save eliminated.
  31 0000 1EFF2FE1 		bx	lr
  32              		.cfi_endproc
  33              	.LFE1:
  35              		.section	.text.TEST_Full_GGD_Helper_SecureConnect_Connect_Disconnect_,"ax",%progbits
  36              		.align	2
  37              		.global	TEST_Full_GGD_Helper_SecureConnect_Connect_Disconnect_
  38              		.syntax unified
  39              		.arm
  40              		.fpu neon
  42              	TEST_Full_GGD_Helper_SecureConnect_Connect_Disconnect_:
  43              	.LFB4:
  40:D:/Work/DeviceTester/amazon-freertos/tests/common/greengrass\aws_test_helper_secure_connect.c **** }
  41:D:/Work/DeviceTester/amazon-freertos/tests/common/greengrass\aws_test_helper_secure_connect.c **** 
  42:D:/Work/DeviceTester/amazon-freertos/tests/common/greengrass\aws_test_helper_secure_connect.c **** 
  43:D:/Work/DeviceTester/amazon-freertos/tests/common/greengrass\aws_test_helper_secure_connect.c **** TEST_GROUP_RUNNER( Full_GGD_Helper )
  44:D:/Work/DeviceTester/amazon-freertos/tests/common/greengrass\aws_test_helper_secure_connect.c **** {
  45:D:/Work/DeviceTester/amazon-freertos/tests/common/greengrass\aws_test_helper_secure_connect.c ****     RUN_TEST_CASE( Full_GGD_Helper, SecureConnect_Connect_Disconnect );
  46:D:/Work/DeviceTester/amazon-freertos/tests/common/greengrass\aws_test_helper_secure_connect.c ****     RUN_TEST_CASE( Full_GGD_Helper, SecureConnect_Send );
  47:D:/Work/DeviceTester/amazon-freertos/tests/common/greengrass\aws_test_helper_secure_connect.c **** }
  48:D:/Work/DeviceTester/amazon-freertos/tests/common/greengrass\aws_test_helper_secure_connect.c **** 
  49:D:/Work/DeviceTester/amazon-freertos/tests/common/greengrass\aws_test_helper_secure_connect.c **** TEST( Full_GGD_Helper, SecureConnect_Connect_Disconnect )
  50:D:/Work/DeviceTester/amazon-freertos/tests/common/greengrass\aws_test_helper_secure_connect.c **** {
  44              		.loc 1 50 0
  45              		.cfi_startproc
  46              		@ args = 0, pretend = 0, frame = 24
  47              		@ frame_needed = 0, uses_anonymous_args = 0
  48              		.loc 1 50 0
  49 0000 10402DE9 		push	{r4, lr}
  50              		.cfi_def_cfa_offset 8
  51              		.cfi_offset 4, -8
  52              		.cfi_offset 14, -4
  51:D:/Work/DeviceTester/amazon-freertos/tests/common/greengrass\aws_test_helper_secure_connect.c ****     GGD_HostAddressData_t xHostAddressData = { 0 };
  53              		.loc 1 51 0
  54 0004 1020A0E3 		mov	r2, #16
  50:D:/Work/DeviceTester/amazon-freertos/tests/common/greengrass\aws_test_helper_secure_connect.c ****     GGD_HostAddressData_t xHostAddressData = { 0 };
  55              		.loc 1 50 0
  56 0008 20D04DE2 		sub	sp, sp, #32
  57              		.cfi_def_cfa_offset 40
  58              		.loc 1 51 0
  59 000c 0010A0E3 		mov	r1, #0
  60 0010 02008DE0 		add	r0, sp, r2
  61 0014 FEFFFFEB 		bl	memset
  62              	.LVL0:
  52:D:/Work/DeviceTester/amazon-freertos/tests/common/greengrass\aws_test_helper_secure_connect.c ****     Socket_t xSocket;
  53:D:/Work/DeviceTester/amazon-freertos/tests/common/greengrass\aws_test_helper_secure_connect.c ****     BaseType_t xStatus;
  54:D:/Work/DeviceTester/amazon-freertos/tests/common/greengrass\aws_test_helper_secure_connect.c **** 
  55:D:/Work/DeviceTester/amazon-freertos/tests/common/greengrass\aws_test_helper_secure_connect.c ****     xHostAddressData.pcCertificate = NULL;
  56:D:/Work/DeviceTester/amazon-freertos/tests/common/greengrass\aws_test_helper_secure_connect.c ****     xHostAddressData.ulCertificateSize = 0;
  57:D:/Work/DeviceTester/amazon-freertos/tests/common/greengrass\aws_test_helper_secure_connect.c ****     xHostAddressData.pcHostAddress = clientcredentialMQTT_BROKER_ENDPOINT;
  63              		.loc 1 57 0
  64 0018 C4309FE5 		ldr	r3, .L14
  58:D:/Work/DeviceTester/amazon-freertos/tests/common/greengrass\aws_test_helper_secure_connect.c ****     xHostAddressData.usPort = clientcredentialMQTT_BROKER_PORT;
  59:D:/Work/DeviceTester/amazon-freertos/tests/common/greengrass\aws_test_helper_secure_connect.c **** 
  60:D:/Work/DeviceTester/amazon-freertos/tests/common/greengrass\aws_test_helper_secure_connect.c ****     if( TEST_PROTECT() )
  65              		.loc 1 60 0
  66 001c C4009FE5 		ldr	r0, .L14+4
  57:D:/Work/DeviceTester/amazon-freertos/tests/common/greengrass\aws_test_helper_secure_connect.c ****     xHostAddressData.usPort = clientcredentialMQTT_BROKER_PORT;
  67              		.loc 1 57 0
  68 0020 10308DE5 		str	r3, [sp, #16]
  58:D:/Work/DeviceTester/amazon-freertos/tests/common/greengrass\aws_test_helper_secure_connect.c ****     xHostAddressData.usPort = clientcredentialMQTT_BROKER_PORT;
  69              		.loc 1 58 0
  70 0024 B33202E3 		movw	r3, #8883
  71 0028 BC31CDE1 		strh	r3, [sp, #28]	@ movhi
  72              		.loc 1 60 0
  73 002c FEFFFFEB 		bl	setjmp
  74              	.LVL1:
  75 0030 004050E2 		subs	r4, r0, #0
  76 0034 2600001A 		bne	.L12
  61:D:/Work/DeviceTester/amazon-freertos/tests/common/greengrass\aws_test_helper_secure_connect.c ****     {
  62:D:/Work/DeviceTester/amazon-freertos/tests/common/greengrass\aws_test_helper_secure_connect.c ****         /** @brief Check ideal case, everything passes.
  63:D:/Work/DeviceTester/amazon-freertos/tests/common/greengrass\aws_test_helper_secure_connect.c ****          *  @{
  64:D:/Work/DeviceTester/amazon-freertos/tests/common/greengrass\aws_test_helper_secure_connect.c ****          */
  65:D:/Work/DeviceTester/amazon-freertos/tests/common/greengrass\aws_test_helper_secure_connect.c **** 
  66:D:/Work/DeviceTester/amazon-freertos/tests/common/greengrass\aws_test_helper_secure_connect.c ****         xStatus = GGD_SecureConnect_Connect( &xHostAddressData,
  77              		.loc 1 66 0
  78 0038 883301E3 		movw	r3, #5000
  79 003c 0C108DE2 		add	r1, sp, #12
  80 0040 0320A0E1 		mov	r2, r3
  81 0044 10008DE2 		add	r0, sp, #16
  82 0048 FEFFFFEB 		bl	GGD_SecureConnect_Connect
  83              	.LVL2:
  67:D:/Work/DeviceTester/amazon-freertos/tests/common/greengrass\aws_test_helper_secure_connect.c ****                                              &xSocket,
  68:D:/Work/DeviceTester/amazon-freertos/tests/common/greengrass\aws_test_helper_secure_connect.c ****                                              ggdconfigTCP_RECEIVE_TIMEOUT_MS,
  69:D:/Work/DeviceTester/amazon-freertos/tests/common/greengrass\aws_test_helper_secure_connect.c ****                                              ggdconfigTCP_SEND_TIMEOUT_MS );
  70:D:/Work/DeviceTester/amazon-freertos/tests/common/greengrass\aws_test_helper_secure_connect.c ****         TEST_ASSERT_EQUAL_INT32( pdPASS, xStatus );
  84              		.loc 1 70 0
  85 004c 1430A0E3 		mov	r3, #20
  86 0050 0010A0E1 		mov	r1, r0
  87 0054 00308DE5 		str	r3, [sp]
  88 0058 0100A0E3 		mov	r0, #1
  89              	.LVL3:
  90 005c 4630A0E3 		mov	r3, #70
  91 0060 0420A0E1 		mov	r2, r4
  92 0064 FEFFFFEB 		bl	UnityAssertEqualNumber
  93              	.LVL4:
  71:D:/Work/DeviceTester/amazon-freertos/tests/common/greengrass\aws_test_helper_secure_connect.c **** 
  72:D:/Work/DeviceTester/amazon-freertos/tests/common/greengrass\aws_test_helper_secure_connect.c ****         GGD_SecureConnect_Disconnect( &xSocket );
  94              		.loc 1 72 0
  95 0068 0C008DE2 		add	r0, sp, #12
  96 006c FEFFFFEB 		bl	GGD_SecureConnect_Disconnect
  97              	.LVL5:
  98              	.L5:
  73:D:/Work/DeviceTester/amazon-freertos/tests/common/greengrass\aws_test_helper_secure_connect.c ****         /** @}*/
  74:D:/Work/DeviceTester/amazon-freertos/tests/common/greengrass\aws_test_helper_secure_connect.c ****     }
  75:D:/Work/DeviceTester/amazon-freertos/tests/common/greengrass\aws_test_helper_secure_connect.c ****     else
  76:D:/Work/DeviceTester/amazon-freertos/tests/common/greengrass\aws_test_helper_secure_connect.c ****     {
  77:D:/Work/DeviceTester/amazon-freertos/tests/common/greengrass\aws_test_helper_secure_connect.c ****         TEST_FAIL();
  78:D:/Work/DeviceTester/amazon-freertos/tests/common/greengrass\aws_test_helper_secure_connect.c ****     }
  79:D:/Work/DeviceTester/amazon-freertos/tests/common/greengrass\aws_test_helper_secure_connect.c **** 
  80:D:/Work/DeviceTester/amazon-freertos/tests/common/greengrass\aws_test_helper_secure_connect.c ****     /** @brief Check Statility by passing in NULL pointers.
  81:D:/Work/DeviceTester/amazon-freertos/tests/common/greengrass\aws_test_helper_secure_connect.c ****      *  @{
  82:D:/Work/DeviceTester/amazon-freertos/tests/common/greengrass\aws_test_helper_secure_connect.c ****      */
  83:D:/Work/DeviceTester/amazon-freertos/tests/common/greengrass\aws_test_helper_secure_connect.c ****     if( TEST_PROTECT() )
  99              		.loc 1 83 0
 100 0070 70009FE5 		ldr	r0, .L14+4
 101 0074 FEFFFFEB 		bl	setjmp
 102              	.LVL6:
 103 0078 004050E2 		subs	r4, r0, #0
 104 007c 0700001A 		bne	.L8
  84:D:/Work/DeviceTester/amazon-freertos/tests/common/greengrass\aws_test_helper_secure_connect.c ****     {
  85:D:/Work/DeviceTester/amazon-freertos/tests/common/greengrass\aws_test_helper_secure_connect.c ****         xStatus = GGD_SecureConnect_Connect( &xHostAddressData,
 105              		.loc 1 85 0
 106 0080 883301E3 		movw	r3, #5000
 107 0084 0410A0E1 		mov	r1, r4
 108 0088 0320A0E1 		mov	r2, r3
 109 008c 10008DE2 		add	r0, sp, #16
 110 0090 FEFFFFEB 		bl	GGD_SecureConnect_Connect
 111              	.LVL7:
  86:D:/Work/DeviceTester/amazon-freertos/tests/common/greengrass\aws_test_helper_secure_connect.c ****                                              NULL,
  87:D:/Work/DeviceTester/amazon-freertos/tests/common/greengrass\aws_test_helper_secure_connect.c ****                                              ggdconfigTCP_RECEIVE_TIMEOUT_MS,
  88:D:/Work/DeviceTester/amazon-freertos/tests/common/greengrass\aws_test_helper_secure_connect.c ****                                              ggdconfigTCP_SEND_TIMEOUT_MS );
  89:D:/Work/DeviceTester/amazon-freertos/tests/common/greengrass\aws_test_helper_secure_connect.c ****         TEST_FAIL();
 112              		.loc 1 89 0
 113 0094 5910A0E3 		mov	r1, #89
 114 0098 0400A0E1 		mov	r0, r4
 115 009c FEFFFFEB 		bl	UnityFail
 116              	.LVL8:
 117              	.L8:
  90:D:/Work/DeviceTester/amazon-freertos/tests/common/greengrass\aws_test_helper_secure_connect.c ****     }
  91:D:/Work/DeviceTester/amazon-freertos/tests/common/greengrass\aws_test_helper_secure_connect.c **** 
  92:D:/Work/DeviceTester/amazon-freertos/tests/common/greengrass\aws_test_helper_secure_connect.c ****     if( TEST_PROTECT() )
 118              		.loc 1 92 0
 119 00a0 40009FE5 		ldr	r0, .L14+4
 120 00a4 FEFFFFEB 		bl	setjmp
 121              	.LVL9:
 122 00a8 004050E2 		subs	r4, r0, #0
 123 00ac 0600001A 		bne	.L2
  93:D:/Work/DeviceTester/amazon-freertos/tests/common/greengrass\aws_test_helper_secure_connect.c ****     {
  94:D:/Work/DeviceTester/amazon-freertos/tests/common/greengrass\aws_test_helper_secure_connect.c ****         xStatus = GGD_SecureConnect_Connect( NULL,
 124              		.loc 1 94 0
 125 00b0 883301E3 		movw	r3, #5000
 126 00b4 0C108DE2 		add	r1, sp, #12
 127 00b8 0320A0E1 		mov	r2, r3
 128 00bc FEFFFFEB 		bl	GGD_SecureConnect_Connect
 129              	.LVL10:
  95:D:/Work/DeviceTester/amazon-freertos/tests/common/greengrass\aws_test_helper_secure_connect.c ****                                              &xSocket,
  96:D:/Work/DeviceTester/amazon-freertos/tests/common/greengrass\aws_test_helper_secure_connect.c ****                                              ggdconfigTCP_RECEIVE_TIMEOUT_MS,
  97:D:/Work/DeviceTester/amazon-freertos/tests/common/greengrass\aws_test_helper_secure_connect.c ****                                              ggdconfigTCP_SEND_TIMEOUT_MS );
  98:D:/Work/DeviceTester/amazon-freertos/tests/common/greengrass\aws_test_helper_secure_connect.c ****         TEST_FAIL();
 130              		.loc 1 98 0
 131 00c0 6210A0E3 		mov	r1, #98
 132 00c4 0400A0E1 		mov	r0, r4
 133 00c8 FEFFFFEB 		bl	UnityFail
 134              	.LVL11:
 135              	.L2:
  99:D:/Work/DeviceTester/amazon-freertos/tests/common/greengrass\aws_test_helper_secure_connect.c ****     }
 100:D:/Work/DeviceTester/amazon-freertos/tests/common/greengrass\aws_test_helper_secure_connect.c **** 
 101:D:/Work/DeviceTester/amazon-freertos/tests/common/greengrass\aws_test_helper_secure_connect.c ****     /** @}*/
 102:D:/Work/DeviceTester/amazon-freertos/tests/common/greengrass\aws_test_helper_secure_connect.c **** }
 136              		.loc 1 102 0
 137 00cc 20D08DE2 		add	sp, sp, #32
 138              		.cfi_remember_state
 139              		.cfi_def_cfa_offset 8
 140              		@ sp needed
 141 00d0 1080BDE8 		pop	{r4, pc}
 142              	.L12:
 143              		.cfi_restore_state
  77:D:/Work/DeviceTester/amazon-freertos/tests/common/greengrass\aws_test_helper_secure_connect.c ****     }
 144              		.loc 1 77 0
 145 00d4 4D10A0E3 		mov	r1, #77
 146 00d8 0000A0E3 		mov	r0, #0
 147 00dc FEFFFFEB 		bl	UnityFail
 148              	.LVL12:
 149 00e0 E2FFFFEA 		b	.L5
 150              	.L15:
 151              		.align	2
 152              	.L14:
 153 00e4 00000000 		.word	.LANCHOR0
 154 00e8 28000000 		.word	Unity+40
 155              		.cfi_endproc
 156              	.LFE4:
 158              		.section	.text.TEST_Full_GGD_Helper_SecureConnect_Send_,"ax",%progbits
 159              		.align	2
 160              		.global	TEST_Full_GGD_Helper_SecureConnect_Send_
 161              		.syntax unified
 162              		.arm
 163              		.fpu neon
 165              	TEST_Full_GGD_Helper_SecureConnect_Send_:
 166              	.LFB6:
 103:D:/Work/DeviceTester/amazon-freertos/tests/common/greengrass\aws_test_helper_secure_connect.c **** 
 104:D:/Work/DeviceTester/amazon-freertos/tests/common/greengrass\aws_test_helper_secure_connect.c **** TEST( Full_GGD_Helper, SecureConnect_Send )
 105:D:/Work/DeviceTester/amazon-freertos/tests/common/greengrass\aws_test_helper_secure_connect.c **** {
 167              		.loc 1 105 0
 168              		.cfi_startproc
 169              		@ args = 0, pretend = 0, frame = 32
 170              		@ frame_needed = 0, uses_anonymous_args = 0
 171 0000 10402DE9 		push	{r4, lr}
 172              		.cfi_def_cfa_offset 8
 173              		.cfi_offset 4, -8
 174              		.cfi_offset 14, -4
 175 0004 28D04DE2 		sub	sp, sp, #40
 176              		.cfi_def_cfa_offset 48
 106:D:/Work/DeviceTester/amazon-freertos/tests/common/greengrass\aws_test_helper_secure_connect.c **** #define PAYLOAD    "Hello"
 107:D:/Work/DeviceTester/amazon-freertos/tests/common/greengrass\aws_test_helper_secure_connect.c ****     char cPayload[] = PAYLOAD;
 177              		.loc 1 107 0
 178 0008 0620A0E3 		mov	r2, #6
 179 000c B0109FE5 		ldr	r1, .L25
 180 0010 10008DE2 		add	r0, sp, #16
 181 0014 FEFFFFEB 		bl	memcpy
 182              	.LVL13:
 108:D:/Work/DeviceTester/amazon-freertos/tests/common/greengrass\aws_test_helper_secure_connect.c ****     Socket_t xSocket;
 109:D:/Work/DeviceTester/amazon-freertos/tests/common/greengrass\aws_test_helper_secure_connect.c ****     BaseType_t xStatus;
 110:D:/Work/DeviceTester/amazon-freertos/tests/common/greengrass\aws_test_helper_secure_connect.c ****     uint32_t ulPayLoadSize = strlen( PAYLOAD );
 111:D:/Work/DeviceTester/amazon-freertos/tests/common/greengrass\aws_test_helper_secure_connect.c ****     GGD_HostAddressData_t xHostAddressData = { 0 };
 183              		.loc 1 111 0
 184 0018 1020A0E3 		mov	r2, #16
 185 001c 0010A0E3 		mov	r1, #0
 186 0020 18008DE2 		add	r0, sp, #24
 187 0024 FEFFFFEB 		bl	memset
 188              	.LVL14:
 112:D:/Work/DeviceTester/amazon-freertos/tests/common/greengrass\aws_test_helper_secure_connect.c **** 
 113:D:/Work/DeviceTester/amazon-freertos/tests/common/greengrass\aws_test_helper_secure_connect.c ****     xHostAddressData.pcCertificate = NULL;
 114:D:/Work/DeviceTester/amazon-freertos/tests/common/greengrass\aws_test_helper_secure_connect.c ****     xHostAddressData.ulCertificateSize = 0;
 115:D:/Work/DeviceTester/amazon-freertos/tests/common/greengrass\aws_test_helper_secure_connect.c ****     xHostAddressData.pcHostAddress = clientcredentialMQTT_BROKER_ENDPOINT;
 189              		.loc 1 115 0
 190 0028 98309FE5 		ldr	r3, .L25+4
 116:D:/Work/DeviceTester/amazon-freertos/tests/common/greengrass\aws_test_helper_secure_connect.c ****     xHostAddressData.usPort = clientcredentialMQTT_BROKER_PORT;
 117:D:/Work/DeviceTester/amazon-freertos/tests/common/greengrass\aws_test_helper_secure_connect.c **** 
 118:D:/Work/DeviceTester/amazon-freertos/tests/common/greengrass\aws_test_helper_secure_connect.c ****     if( TEST_PROTECT() )
 191              		.loc 1 118 0
 192 002c 98009FE5 		ldr	r0, .L25+8
 115:D:/Work/DeviceTester/amazon-freertos/tests/common/greengrass\aws_test_helper_secure_connect.c ****     xHostAddressData.usPort = clientcredentialMQTT_BROKER_PORT;
 193              		.loc 1 115 0
 194 0030 18308DE5 		str	r3, [sp, #24]
 116:D:/Work/DeviceTester/amazon-freertos/tests/common/greengrass\aws_test_helper_secure_connect.c ****     xHostAddressData.usPort = clientcredentialMQTT_BROKER_PORT;
 195              		.loc 1 116 0
 196 0034 B33202E3 		movw	r3, #8883
 197 0038 B432CDE1 		strh	r3, [sp, #36]	@ movhi
 198              		.loc 1 118 0
 199 003c FEFFFFEB 		bl	setjmp
 200              	.LVL15:
 201 0040 004050E2 		subs	r4, r0, #0
 202 0044 1A00001A 		bne	.L23
 119:D:/Work/DeviceTester/amazon-freertos/tests/common/greengrass\aws_test_helper_secure_connect.c ****     {
 120:D:/Work/DeviceTester/amazon-freertos/tests/common/greengrass\aws_test_helper_secure_connect.c ****         /** @brief Check ideal case 1 character sent correctly.
 121:D:/Work/DeviceTester/amazon-freertos/tests/common/greengrass\aws_test_helper_secure_connect.c ****          *  @{
 122:D:/Work/DeviceTester/amazon-freertos/tests/common/greengrass\aws_test_helper_secure_connect.c ****          */
 123:D:/Work/DeviceTester/amazon-freertos/tests/common/greengrass\aws_test_helper_secure_connect.c ****         xStatus = GGD_SecureConnect_Connect( &xHostAddressData,
 203              		.loc 1 123 0
 204 0048 883301E3 		movw	r3, #5000
 205 004c 0C108DE2 		add	r1, sp, #12
 206 0050 0320A0E1 		mov	r2, r3
 207 0054 18008DE2 		add	r0, sp, #24
 208 0058 FEFFFFEB 		bl	GGD_SecureConnect_Connect
 209              	.LVL16:
 124:D:/Work/DeviceTester/amazon-freertos/tests/common/greengrass\aws_test_helper_secure_connect.c ****                                              &xSocket,
 125:D:/Work/DeviceTester/amazon-freertos/tests/common/greengrass\aws_test_helper_secure_connect.c ****                                              ggdconfigTCP_RECEIVE_TIMEOUT_MS,
 126:D:/Work/DeviceTester/amazon-freertos/tests/common/greengrass\aws_test_helper_secure_connect.c ****                                              ggdconfigTCP_SEND_TIMEOUT_MS );
 127:D:/Work/DeviceTester/amazon-freertos/tests/common/greengrass\aws_test_helper_secure_connect.c ****         xStatus = GGD_SecureConnect_Send( cPayload,
 210              		.loc 1 127 0
 211 005c 0C209DE5 		ldr	r2, [sp, #12]
 212 0060 0510A0E3 		mov	r1, #5
 213 0064 10008DE2 		add	r0, sp, #16
 214 0068 FEFFFFEB 		bl	GGD_SecureConnect_Send
 215              	.LVL17:
 128:D:/Work/DeviceTester/amazon-freertos/tests/common/greengrass\aws_test_helper_secure_connect.c ****                                           ulPayLoadSize,
 129:D:/Work/DeviceTester/amazon-freertos/tests/common/greengrass\aws_test_helper_secure_connect.c ****                                           xSocket );
 130:D:/Work/DeviceTester/amazon-freertos/tests/common/greengrass\aws_test_helper_secure_connect.c **** 
 131:D:/Work/DeviceTester/amazon-freertos/tests/common/greengrass\aws_test_helper_secure_connect.c ****         TEST_ASSERT_EQUAL_INT32( pdPASS, xStatus );
 216              		.loc 1 131 0
 217 006c 1430A0E3 		mov	r3, #20
 218 0070 0010A0E1 		mov	r1, r0
 219 0074 00308DE5 		str	r3, [sp]
 220 0078 0100A0E3 		mov	r0, #1
 221              	.LVL18:
 222 007c 8330A0E3 		mov	r3, #131
 223 0080 0420A0E1 		mov	r2, r4
 224 0084 FEFFFFEB 		bl	UnityAssertEqualNumber
 225              	.LVL19:
 132:D:/Work/DeviceTester/amazon-freertos/tests/common/greengrass\aws_test_helper_secure_connect.c ****         GGD_SecureConnect_Disconnect( &xSocket );
 226              		.loc 1 132 0
 227 0088 0C008DE2 		add	r0, sp, #12
 228 008c FEFFFFEB 		bl	GGD_SecureConnect_Disconnect
 229              	.LVL20:
 230              	.L19:
 133:D:/Work/DeviceTester/amazon-freertos/tests/common/greengrass\aws_test_helper_secure_connect.c ****         /** @}*/
 134:D:/Work/DeviceTester/amazon-freertos/tests/common/greengrass\aws_test_helper_secure_connect.c ****     }
 135:D:/Work/DeviceTester/amazon-freertos/tests/common/greengrass\aws_test_helper_secure_connect.c ****     else
 136:D:/Work/DeviceTester/amazon-freertos/tests/common/greengrass\aws_test_helper_secure_connect.c ****     {
 137:D:/Work/DeviceTester/amazon-freertos/tests/common/greengrass\aws_test_helper_secure_connect.c ****         TEST_FAIL();
 138:D:/Work/DeviceTester/amazon-freertos/tests/common/greengrass\aws_test_helper_secure_connect.c ****     }
 139:D:/Work/DeviceTester/amazon-freertos/tests/common/greengrass\aws_test_helper_secure_connect.c **** 
 140:D:/Work/DeviceTester/amazon-freertos/tests/common/greengrass\aws_test_helper_secure_connect.c ****     /** @brief Check Statility by passing in NULL pointers.
 141:D:/Work/DeviceTester/amazon-freertos/tests/common/greengrass\aws_test_helper_secure_connect.c ****      *  @{
 142:D:/Work/DeviceTester/amazon-freertos/tests/common/greengrass\aws_test_helper_secure_connect.c ****      */
 143:D:/Work/DeviceTester/amazon-freertos/tests/common/greengrass\aws_test_helper_secure_connect.c ****     if( TEST_PROTECT() )
 231              		.loc 1 143 0
 232 0090 34009FE5 		ldr	r0, .L25+8
 233 0094 FEFFFFEB 		bl	setjmp
 234              	.LVL21:
 235 0098 000050E3 		cmp	r0, #0
 236 009c 0200001A 		bne	.L16
 144:D:/Work/DeviceTester/amazon-freertos/tests/common/greengrass\aws_test_helper_secure_connect.c ****     {
 145:D:/Work/DeviceTester/amazon-freertos/tests/common/greengrass\aws_test_helper_secure_connect.c ****         xStatus = GGD_SecureConnect_Send( NULL,
 237              		.loc 1 145 0
 238 00a0 0C209DE5 		ldr	r2, [sp, #12]
 239 00a4 0510A0E3 		mov	r1, #5
 240 00a8 FEFFFFEB 		bl	GGD_SecureConnect_Send
 241              	.LVL22:
 242              	.L16:
 146:D:/Work/DeviceTester/amazon-freertos/tests/common/greengrass\aws_test_helper_secure_connect.c ****                                           ulPayLoadSize,
 147:D:/Work/DeviceTester/amazon-freertos/tests/common/greengrass\aws_test_helper_secure_connect.c ****                                           xSocket );
 148:D:/Work/DeviceTester/amazon-freertos/tests/common/greengrass\aws_test_helper_secure_connect.c ****     }
 149:D:/Work/DeviceTester/amazon-freertos/tests/common/greengrass\aws_test_helper_secure_connect.c **** 
 150:D:/Work/DeviceTester/amazon-freertos/tests/common/greengrass\aws_test_helper_secure_connect.c ****     /** @}*/
 151:D:/Work/DeviceTester/amazon-freertos/tests/common/greengrass\aws_test_helper_secure_connect.c **** }
 243              		.loc 1 151 0
 244 00ac 28D08DE2 		add	sp, sp, #40
 245              		.cfi_remember_state
 246              		.cfi_def_cfa_offset 8
 247              		@ sp needed
 248 00b0 1080BDE8 		pop	{r4, pc}
 249              	.L23:
 250              		.cfi_restore_state
 137:D:/Work/DeviceTester/amazon-freertos/tests/common/greengrass\aws_test_helper_secure_connect.c ****     }
 251              		.loc 1 137 0
 252 00b4 8910A0E3 		mov	r1, #137
 253 00b8 0000A0E3 		mov	r0, #0
 254 00bc FEFFFFEB 		bl	UnityFail
 255              	.LVL23:
 256 00c0 F2FFFFEA 		b	.L19
 257              	.L26:
 258              		.align	2
 259              	.L25:
 260 00c4 00000000 		.word	.LC0
 261 00c8 00000000 		.word	.LANCHOR0
 262 00cc 28000000 		.word	Unity+40
 263              		.cfi_endproc
 264              	.LFE6:
 266              		.section	.text.TEST_Full_GGD_Helper_SETUP,"ax",%progbits
 267              		.align	2
 268              		.global	TEST_Full_GGD_Helper_SETUP
 269              		.syntax unified
 270              		.arm
 271              		.fpu neon
 273              	TEST_Full_GGD_Helper_SETUP:
 274              	.LFB8:
 275              		.cfi_startproc
 276              		@ args = 0, pretend = 0, frame = 0
 277              		@ frame_needed = 0, uses_anonymous_args = 0
 278              		@ link register save eliminated.
 279 0000 1EFF2FE1 		bx	lr
 280              		.cfi_endproc
 281              	.LFE8:
 283              		.section	.text.TEST_Full_GGD_Helper_SecureConnect_Connect_Disconnect_run,"ax",%progbits
 284              		.align	2
 285              		.global	TEST_Full_GGD_Helper_SecureConnect_Connect_Disconnect_run
 286              		.syntax unified
 287              		.arm
 288              		.fpu neon
 290              	TEST_Full_GGD_Helper_SecureConnect_Connect_Disconnect_run:
 291              	.LFB3:
  49:D:/Work/DeviceTester/amazon-freertos/tests/common/greengrass\aws_test_helper_secure_connect.c **** {
 292              		.loc 1 49 0
 293              		.cfi_startproc
 294              		@ args = 0, pretend = 0, frame = 0
 295              		@ frame_needed = 0, uses_anonymous_args = 0
  49:D:/Work/DeviceTester/amazon-freertos/tests/common/greengrass\aws_test_helper_secure_connect.c **** {
 296              		.loc 1 49 0
 297 0000 1F402DE9 		push	{r0, r1, r2, r3, r4, lr}
 298              		.cfi_def_cfa_offset 24
 299              		.cfi_offset 14, -4
  49:D:/Work/DeviceTester/amazon-freertos/tests/common/greengrass\aws_test_helper_secure_connect.c **** {
 300              		.loc 1 49 0
 301 0004 3130A0E3 		mov	r3, #49
 302 0008 0C308DE5 		str	r3, [sp, #12]
 303 000c 2C309FE5 		ldr	r3, .L30
 304 0010 2C209FE5 		ldr	r2, .L30+4
 305 0014 2C109FE5 		ldr	r1, .L30+8
 306 0018 08308DE5 		str	r3, [sp, #8]
 307 001c 28309FE5 		ldr	r3, .L30+12
 308 0020 28009FE5 		ldr	r0, .L30+16
 309 0024 04308DE5 		str	r3, [sp, #4]
 310 0028 24309FE5 		ldr	r3, .L30+20
 311 002c 00308DE5 		str	r3, [sp]
 312 0030 20309FE5 		ldr	r3, .L30+24
 313 0034 FEFFFFEB 		bl	UnityTestRunner
 314              	.LVL24:
 315 0038 14D08DE2 		add	sp, sp, #20
 316              		.cfi_def_cfa_offset 4
 317              		@ sp needed
 318 003c 04F09DE4 		ldr	pc, [sp], #4
 319              	.L31:
 320              		.align	2
 321              	.L30:
 322 0040 38000000 		.word	.LC2
 323 0044 00000000 		.word	TEST_Full_GGD_Helper_TEAR_DOWN
 324 0048 00000000 		.word	TEST_Full_GGD_Helper_SecureConnect_Connect_Disconnect_
 325 004c 96000000 		.word	.LC3
 326 0050 00000000 		.word	TEST_Full_GGD_Helper_SETUP
 327 0054 B7000000 		.word	.LC4
 328 0058 00000000 		.word	.LC1
 329              		.cfi_endproc
 330              	.LFE3:
 332              		.section	.text.TEST_Full_GGD_Helper_SecureConnect_Send_run,"ax",%progbits
 333              		.align	2
 334              		.global	TEST_Full_GGD_Helper_SecureConnect_Send_run
 335              		.syntax unified
 336              		.arm
 337              		.fpu neon
 339              	TEST_Full_GGD_Helper_SecureConnect_Send_run:
 340              	.LFB5:
 104:D:/Work/DeviceTester/amazon-freertos/tests/common/greengrass\aws_test_helper_secure_connect.c **** {
 341              		.loc 1 104 0
 342              		.cfi_startproc
 343              		@ args = 0, pretend = 0, frame = 0
 344              		@ frame_needed = 0, uses_anonymous_args = 0
 345 0000 1F402DE9 		push	{r0, r1, r2, r3, r4, lr}
 346              		.cfi_def_cfa_offset 24
 347              		.cfi_offset 14, -4
 104:D:/Work/DeviceTester/amazon-freertos/tests/common/greengrass\aws_test_helper_secure_connect.c **** {
 348              		.loc 1 104 0
 349 0004 6830A0E3 		mov	r3, #104
 350 0008 0C308DE5 		str	r3, [sp, #12]
 351 000c 2C309FE5 		ldr	r3, .L34
 352 0010 2C209FE5 		ldr	r2, .L34+4
 353 0014 2C109FE5 		ldr	r1, .L34+8
 354 0018 08308DE5 		str	r3, [sp, #8]
 355 001c 28309FE5 		ldr	r3, .L34+12
 356 0020 28009FE5 		ldr	r0, .L34+16
 357 0024 04308DE5 		str	r3, [sp, #4]
 358 0028 24309FE5 		ldr	r3, .L34+20
 359 002c 00308DE5 		str	r3, [sp]
 360 0030 20309FE5 		ldr	r3, .L34+24
 361 0034 FEFFFFEB 		bl	UnityTestRunner
 362              	.LVL25:
 363 0038 14D08DE2 		add	sp, sp, #20
 364              		.cfi_def_cfa_offset 4
 365              		@ sp needed
 366 003c 04F09DE4 		ldr	pc, [sp], #4
 367              	.L35:
 368              		.align	2
 369              	.L34:
 370 0040 38000000 		.word	.LC2
 371 0044 00000000 		.word	TEST_Full_GGD_Helper_TEAR_DOWN
 372 0048 00000000 		.word	TEST_Full_GGD_Helper_SecureConnect_Send_
 373 004c 2A000000 		.word	.LC6
 374 0050 00000000 		.word	TEST_Full_GGD_Helper_SETUP
 375 0054 B7000000 		.word	.LC4
 376 0058 00000000 		.word	.LC5
 377              		.cfi_endproc
 378              	.LFE5:
 380              		.section	.text.TEST_Full_GGD_Helper_GROUP_RUNNER,"ax",%progbits
 381              		.align	2
 382              		.global	TEST_Full_GGD_Helper_GROUP_RUNNER
 383              		.syntax unified
 384              		.arm
 385              		.fpu neon
 387              	TEST_Full_GGD_Helper_GROUP_RUNNER:
 388              	.LFB2:
  44:D:/Work/DeviceTester/amazon-freertos/tests/common/greengrass\aws_test_helper_secure_connect.c ****     RUN_TEST_CASE( Full_GGD_Helper, SecureConnect_Connect_Disconnect );
 389              		.loc 1 44 0
 390              		.cfi_startproc
 391              		@ args = 0, pretend = 0, frame = 0
 392              		@ frame_needed = 0, uses_anonymous_args = 0
 393 0000 10402DE9 		push	{r4, lr}
 394              		.cfi_def_cfa_offset 8
 395              		.cfi_offset 4, -8
 396              		.cfi_offset 14, -4
 397              	.LBB2:
  45:D:/Work/DeviceTester/amazon-freertos/tests/common/greengrass\aws_test_helper_secure_connect.c ****     RUN_TEST_CASE( Full_GGD_Helper, SecureConnect_Send );
 398              		.loc 1 45 0
 399 0004 FEFFFFEB 		bl	TEST_Full_GGD_Helper_SecureConnect_Connect_Disconnect_run
 400              	.LVL26:
 401              	.LBE2:
  47:D:/Work/DeviceTester/amazon-freertos/tests/common/greengrass\aws_test_helper_secure_connect.c **** 
 402              		.loc 1 47 0
 403 0008 1040BDE8 		pop	{r4, lr}
 404              		.cfi_restore 14
 405              		.cfi_restore 4
 406              		.cfi_def_cfa_offset 0
 407              	.LBB3:
  46:D:/Work/DeviceTester/amazon-freertos/tests/common/greengrass\aws_test_helper_secure_connect.c **** }
 408              		.loc 1 46 0
 409 000c FEFFFFEA 		b	TEST_Full_GGD_Helper_SecureConnect_Send_run
 410              	.LVL27:
 411              	.LBE3:
 412              		.cfi_endproc
 413              	.LFE2:
 415              		.section	.rodata.TEST_Full_GGD_Helper_SecureConnect_Connect_Disconnect_run.str1.1,"aMS",%progbits,
 416              	.LC1:
 417 0000 54455354 		.ascii	"TEST(Full_GGD_Helper, SecureConnect_Connect_Disconn"
 417      2846756C 
 417      6C5F4747 
 417      445F4865 
 417      6C706572 
 418 0033 65637429 		.ascii	"ect)\000"
 418      00
 419              	.LC2:
 420 0038 443A2F57 		.ascii	"D:/Work/DeviceTester/amazon-freertos/tests/common/g"
 420      6F726B2F 
 420      44657669 
 420      63655465 
 420      73746572 
 421 006b 7265656E 		.ascii	"reengrass/aws_test_helper_secure_connect.c\000"
 421      67726173 
 421      732F6177 
 421      735F7465 
 421      73745F68 
 422              	.LC3:
 423 0096 53656375 		.ascii	"SecureConnect_Connect_Disconnect\000"
 423      7265436F 
 423      6E6E6563 
 423      745F436F 
 423      6E6E6563 
 424              	.LC4:
 425 00b7 46756C6C 		.ascii	"Full_GGD_Helper\000"
 425      5F474744 
 425      5F48656C 
 425      70657200 
 426              		.section	.rodata.TEST_Full_GGD_Helper_SecureConnect_Send_.str1.1,"aMS",%progbits,1
 427              	.LC0:
 428 0000 48656C6C 		.ascii	"Hello\000"
 428      6F00
 429              		.section	.rodata.TEST_Full_GGD_Helper_SecureConnect_Send_run.str1.1,"aMS",%progbits,1
 430              	.LC5:
 431 0000 54455354 		.ascii	"TEST(Full_GGD_Helper, SecureConnect_Send)\000"
 431      2846756C 
 431      6C5F4747 
 431      445F4865 
 431      6C706572 
 432              	.LC6:
 433 002a 53656375 		.ascii	"SecureConnect_Send\000"
 433      7265436F 
 433      6E6E6563 
 433      745F5365 
 433      6E6400
 434              		.section	.rodata.clientcredentialMQTT_BROKER_ENDPOINT,"a",%progbits
 435              		.set	.LANCHOR0,. + 0
 438              	clientcredentialMQTT_BROKER_ENDPOINT:
 439 0000 61333369 		.ascii	"a33i4lqfcxqo2.iot.ap-northeast-1.amazonaws.com\000"
 439      346C7166 
 439      6378716F 
 439      322E696F 
 439      742E6170 
 440              		.text
 441              	.Letext0:
 442              		.file 2 "c:\\program files (x86)\\gnu tools arm embedded\\6 2017-q2-update\\arm-none-eabi\\include
 443              		.file 3 "c:\\program files (x86)\\gnu tools arm embedded\\6 2017-q2-update\\arm-none-eabi\\include
 444              		.file 4 "c:\\program files (x86)\\gnu tools arm embedded\\6 2017-q2-update\\arm-none-eabi\\include
 445              		.file 5 "c:\\program files (x86)\\gnu tools arm embedded\\6 2017-q2-update\\lib\\gcc\\arm-none-eab
 446              		.file 6 "c:\\program files (x86)\\gnu tools arm embedded\\6 2017-q2-update\\arm-none-eabi\\include
 447              		.file 7 "c:\\program files (x86)\\gnu tools arm embedded\\6 2017-q2-update\\arm-none-eabi\\include
 448              		.file 8 "c:\\program files (x86)\\gnu tools arm embedded\\6 2017-q2-update\\arm-none-eabi\\include
 449              		.file 9 "c:\\program files (x86)\\gnu tools arm embedded\\6 2017-q2-update\\arm-none-eabi\\include
 450              		.file 10 "D:\\Work\\DeviceTester\\amazon-freertos\\lib\\third_party\\unity\\src/unity_internals.h"
 451              		.file 11 "D:\\Work\\DeviceTester\\amazon-freertos\\lib\\FreeRTOS\\portable\\GCC\\ARM_CA9_RZA2M/por
 452              		.file 12 "D:\\Work\\DeviceTester\\amazon-freertos\\tests\\common\\include/aws_clientcredential_key
 453              		.file 13 "D:\\Work\\DeviceTester\\amazon-freertos\\lib\\include/aws_secure_sockets.h"
 454              		.file 14 "D:\\Work\\DeviceTester\\amazon-freertos\\lib\\include/aws_greengrass_discovery.h"
 455              		.file 15 "c:\\program files (x86)\\gnu tools arm embedded\\6 2017-q2-update\\arm-none-eabi\\includ
 456              		.file 16 "D:\\Work\\DeviceTester\\amazon-freertos\\lib\\third_party\\unity\\extras\\fixture\\src/u
 457              		.file 17 "D:\\Work\\DeviceTester\\amazon-freertos\\tests\\common\\include/aws_clientcredential.h"
 458              		.file 18 "c:\\program files (x86)\\gnu tools arm embedded\\6 2017-q2-update\\arm-none-eabi\\includ
 459              		.file 19 "D:\\Work\\DeviceTester\\amazon-freertos\\lib\\include\\private/aws_helper_secure_connect