   1              		.cpu cortex-a9
   2              		.eabi_attribute 28, 1
   3              		.eabi_attribute 20, 1
   4              		.eabi_attribute 21, 1
   5              		.eabi_attribute 23, 3
   6              		.eabi_attribute 24, 1
   7              		.eabi_attribute 25, 1
   8              		.eabi_attribute 26, 1
   9              		.eabi_attribute 30, 4
  10              		.eabi_attribute 34, 0
  11              		.eabi_attribute 18, 4
  12              		.file	"aws_test_greengrass_discovery.c"
  13              		.text
  14              	.Ltext0:
  15              		.cfi_sections	.debug_frame
  16              		.section	.text.TEST_Full_GGD_SETUP,"ax",%progbits
  17              		.align	2
  18              		.global	TEST_Full_GGD_SETUP
  19              		.syntax unified
  20              		.arm
  21              		.fpu neon
  23              	TEST_Full_GGD_SETUP:
  24              	.LFB1:
  25              		.file 1 "D:/Work/DeviceTester/amazon-freertos/tests/common/greengrass/aws_test_greengrass_discover
   1:D:/Work/DeviceTester/amazon-freertos/tests/common/greengrass\aws_test_greengrass_discovery.c **** /*
   2:D:/Work/DeviceTester/amazon-freertos/tests/common/greengrass\aws_test_greengrass_discovery.c ****  * Amazon FreeRTOS Greegrass Discovery Test V1.1.4
   3:D:/Work/DeviceTester/amazon-freertos/tests/common/greengrass\aws_test_greengrass_discovery.c ****  * Copyright (C) 2017 Amazon.com, Inc. or its affiliates.  All Rights Reserved.
   4:D:/Work/DeviceTester/amazon-freertos/tests/common/greengrass\aws_test_greengrass_discovery.c ****  *
   5:D:/Work/DeviceTester/amazon-freertos/tests/common/greengrass\aws_test_greengrass_discovery.c ****  * Permission is hereby granted, free of charge, to any person obtaining a copy of
   6:D:/Work/DeviceTester/amazon-freertos/tests/common/greengrass\aws_test_greengrass_discovery.c ****  * this software and associated documentation files (the "Software"), to deal in
   7:D:/Work/DeviceTester/amazon-freertos/tests/common/greengrass\aws_test_greengrass_discovery.c ****  * the Software without restriction, including without limitation the rights to
   8:D:/Work/DeviceTester/amazon-freertos/tests/common/greengrass\aws_test_greengrass_discovery.c ****  * use, copy, modify, merge, publish, distribute, sublicense, and/or sell copies of
   9:D:/Work/DeviceTester/amazon-freertos/tests/common/greengrass\aws_test_greengrass_discovery.c ****  * the Software, and to permit persons to whom the Software is furnished to do so,
  10:D:/Work/DeviceTester/amazon-freertos/tests/common/greengrass\aws_test_greengrass_discovery.c ****  * subject to the following conditions:
  11:D:/Work/DeviceTester/amazon-freertos/tests/common/greengrass\aws_test_greengrass_discovery.c ****  *
  12:D:/Work/DeviceTester/amazon-freertos/tests/common/greengrass\aws_test_greengrass_discovery.c ****  * The above copyright notice and this permission notice shall be included in all
  13:D:/Work/DeviceTester/amazon-freertos/tests/common/greengrass\aws_test_greengrass_discovery.c ****  * copies or substantial portions of the Software.
  14:D:/Work/DeviceTester/amazon-freertos/tests/common/greengrass\aws_test_greengrass_discovery.c ****  *
  15:D:/Work/DeviceTester/amazon-freertos/tests/common/greengrass\aws_test_greengrass_discovery.c ****  * THE SOFTWARE IS PROVIDED "AS IS", WITHOUT WARRANTY OF ANY KIND, EXPRESS OR
  16:D:/Work/DeviceTester/amazon-freertos/tests/common/greengrass\aws_test_greengrass_discovery.c ****  * IMPLIED, INCLUDING BUT NOT LIMITED TO THE WARRANTIES OF MERCHANTABILITY, FITNESS
  17:D:/Work/DeviceTester/amazon-freertos/tests/common/greengrass\aws_test_greengrass_discovery.c ****  * FOR A PARTICULAR PURPOSE AND NONINFRINGEMENT. IN NO EVENT SHALL THE AUTHORS OR
  18:D:/Work/DeviceTester/amazon-freertos/tests/common/greengrass\aws_test_greengrass_discovery.c ****  * COPYRIGHT HOLDERS BE LIABLE FOR ANY CLAIM, DAMAGES OR OTHER LIABILITY, WHETHER
  19:D:/Work/DeviceTester/amazon-freertos/tests/common/greengrass\aws_test_greengrass_discovery.c ****  * IN AN ACTION OF CONTRACT, TORT OR OTHERWISE, ARISING FROM, OUT OF OR IN
  20:D:/Work/DeviceTester/amazon-freertos/tests/common/greengrass\aws_test_greengrass_discovery.c ****  * CONNECTION WITH THE SOFTWARE OR THE USE OR OTHER DEALINGS IN THE SOFTWARE.
  21:D:/Work/DeviceTester/amazon-freertos/tests/common/greengrass\aws_test_greengrass_discovery.c ****  *
  22:D:/Work/DeviceTester/amazon-freertos/tests/common/greengrass\aws_test_greengrass_discovery.c ****  * http://aws.amazon.com/freertos
  23:D:/Work/DeviceTester/amazon-freertos/tests/common/greengrass\aws_test_greengrass_discovery.c ****  * http://www.FreeRTOS.org
  24:D:/Work/DeviceTester/amazon-freertos/tests/common/greengrass\aws_test_greengrass_discovery.c ****  */
  25:D:/Work/DeviceTester/amazon-freertos/tests/common/greengrass\aws_test_greengrass_discovery.c **** #include <stdio.h>
  26:D:/Work/DeviceTester/amazon-freertos/tests/common/greengrass\aws_test_greengrass_discovery.c **** #include <string.h>
  27:D:/Work/DeviceTester/amazon-freertos/tests/common/greengrass\aws_test_greengrass_discovery.c **** 
  28:D:/Work/DeviceTester/amazon-freertos/tests/common/greengrass\aws_test_greengrass_discovery.c **** #include "aws_greengrass_discovery.h"
  29:D:/Work/DeviceTester/amazon-freertos/tests/common/greengrass\aws_test_greengrass_discovery.c **** #include "aws_helper_secure_connect.h"
  30:D:/Work/DeviceTester/amazon-freertos/tests/common/greengrass\aws_test_greengrass_discovery.c **** #include "jsmn.h"
  31:D:/Work/DeviceTester/amazon-freertos/tests/common/greengrass\aws_test_greengrass_discovery.c **** #include "unity_fixture.h"
  32:D:/Work/DeviceTester/amazon-freertos/tests/common/greengrass\aws_test_greengrass_discovery.c **** #include "unity.h"
  33:D:/Work/DeviceTester/amazon-freertos/tests/common/greengrass\aws_test_greengrass_discovery.c **** #include "aws_greengrass_discovery_test_access_declare.h"
  34:D:/Work/DeviceTester/amazon-freertos/tests/common/greengrass\aws_test_greengrass_discovery.c **** #include "aws_test_runner.h"
  35:D:/Work/DeviceTester/amazon-freertos/tests/common/greengrass\aws_test_greengrass_discovery.c **** 
  36:D:/Work/DeviceTester/amazon-freertos/tests/common/greengrass\aws_test_greengrass_discovery.c **** #define ggdLOOP_BACK_IP                    "127.0.0.1"
  37:D:/Work/DeviceTester/amazon-freertos/tests/common/greengrass\aws_test_greengrass_discovery.c **** #define ggdHTTP_CONTENT_LENGTH_STRING      "content-length:"
  38:D:/Work/DeviceTester/amazon-freertos/tests/common/greengrass\aws_test_greengrass_discovery.c **** #define cJSON_FILE_SIZE                    " 2193"
  39:D:/Work/DeviceTester/amazon-freertos/tests/common/greengrass\aws_test_greengrass_discovery.c **** #define END_OF_HTTP_RESPONSE               "\r\n\r\n"
  40:D:/Work/DeviceTester/amazon-freertos/tests/common/greengrass\aws_test_greengrass_discovery.c **** #define ggdJSON_FILE                       "{\"GGGroups\":[{\"GGGroupId\":\"myGroupID\",\"Cores\":[
  41:D:/Work/DeviceTester/amazon-freertos/tests/common/greengrass\aws_test_greengrass_discovery.c **** #define ggdTestJSON_MAX_TOKENS             128       /* Size of the array used by jsmn to store the
  42:D:/Work/DeviceTester/amazon-freertos/tests/common/greengrass\aws_test_greengrass_discovery.c **** #define ggdTestJSON_GROUPID_TOKEN_INDEX    4
  43:D:/Work/DeviceTester/amazon-freertos/tests/common/greengrass\aws_test_greengrass_discovery.c **** #define ggdTestJSON_CORE_TOKEN_INDEX       9
  44:D:/Work/DeviceTester/amazon-freertos/tests/common/greengrass\aws_test_greengrass_discovery.c **** #define ggdTestJSON_PORT_ADRESS_1          1234
  45:D:/Work/DeviceTester/amazon-freertos/tests/common/greengrass\aws_test_greengrass_discovery.c **** #define ggdTestJSON_PORT_ADRESS_3          4321
  46:D:/Work/DeviceTester/amazon-freertos/tests/common/greengrass\aws_test_greengrass_discovery.c **** #define ggdTestLOOP_NUMBER                 10
  47:D:/Work/DeviceTester/amazon-freertos/tests/common/greengrass\aws_test_greengrass_discovery.c **** 
  48:D:/Work/DeviceTester/amazon-freertos/tests/common/greengrass\aws_test_greengrass_discovery.c **** #define ggdJSON_FILE_GROUPID               "GGGroupId"
  49:D:/Work/DeviceTester/amazon-freertos/tests/common/greengrass\aws_test_greengrass_discovery.c **** #define ggdJSON_FILE_THING_ARN             "thingArn"
  50:D:/Work/DeviceTester/amazon-freertos/tests/common/greengrass\aws_test_greengrass_discovery.c **** #define ggdJSON_FILE_HOST_ADDRESS          "HostAddress"
  51:D:/Work/DeviceTester/amazon-freertos/tests/common/greengrass\aws_test_greengrass_discovery.c **** #define ggdJSON_FILE_CERTIFICATE           "CAs"
  52:D:/Work/DeviceTester/amazon-freertos/tests/common/greengrass\aws_test_greengrass_discovery.c **** #define ggdJSON_FILE_PORT_NUMBER           "PortNumber"
  53:D:/Work/DeviceTester/amazon-freertos/tests/common/greengrass\aws_test_greengrass_discovery.c **** 
  54:D:/Work/DeviceTester/amazon-freertos/tests/common/greengrass\aws_test_greengrass_discovery.c **** static const char cJSON_FILE[] = ggdJSON_FILE;
  55:D:/Work/DeviceTester/amazon-freertos/tests/common/greengrass\aws_test_greengrass_discovery.c **** static const char cCERTIFICATE[] = "-----BEGIN CERTIFICATE-----\nMIIEFTCCAv2gAwIBAgIVAPRru+NqCDr0r6
  56:D:/Work/DeviceTester/amazon-freertos/tests/common/greengrass\aws_test_greengrass_discovery.c **** static const char cMyGroupID[] = "myGroupID";
  57:D:/Work/DeviceTester/amazon-freertos/tests/common/greengrass\aws_test_greengrass_discovery.c **** static const char cIP_ADDRESS_3[] = "01.23.456.789";
  58:D:/Work/DeviceTester/amazon-freertos/tests/common/greengrass\aws_test_greengrass_discovery.c **** static const char cIP_ADDRESS_1[] = "44.44.44.44";
  59:D:/Work/DeviceTester/amazon-freertos/tests/common/greengrass\aws_test_greengrass_discovery.c **** static const char cMY_CORE_ARN[] = "myGreenGrassCoreArn";
  60:D:/Work/DeviceTester/amazon-freertos/tests/common/greengrass\aws_test_greengrass_discovery.c **** 
  61:D:/Work/DeviceTester/amazon-freertos/tests/common/greengrass\aws_test_greengrass_discovery.c **** static jsmntok_t pxTok[ ggdTestJSON_MAX_TOKENS ];
  62:D:/Work/DeviceTester/amazon-freertos/tests/common/greengrass\aws_test_greengrass_discovery.c **** static Socket_t xSocket;
  63:D:/Work/DeviceTester/amazon-freertos/tests/common/greengrass\aws_test_greengrass_discovery.c **** 
  64:D:/Work/DeviceTester/amazon-freertos/tests/common/greengrass\aws_test_greengrass_discovery.c **** TEST_GROUP( Full_GGD );
  65:D:/Work/DeviceTester/amazon-freertos/tests/common/greengrass\aws_test_greengrass_discovery.c **** 
  66:D:/Work/DeviceTester/amazon-freertos/tests/common/greengrass\aws_test_greengrass_discovery.c **** TEST_SETUP( Full_GGD )
  67:D:/Work/DeviceTester/amazon-freertos/tests/common/greengrass\aws_test_greengrass_discovery.c **** {
  26              		.loc 1 67 0
  27              		.cfi_startproc
  28              		@ args = 0, pretend = 0, frame = 0
  29              		@ frame_needed = 0, uses_anonymous_args = 0
  30              		@ link register save eliminated.
  31 0000 1EFF2FE1 		bx	lr
  32              		.cfi_endproc
  33              	.LFE1:
  35              		.section	.text.TEST_Full_GGD_TEAR_DOWN,"ax",%progbits
  36              		.align	2
  37              		.global	TEST_Full_GGD_TEAR_DOWN
  38              		.syntax unified
  39              		.arm
  40              		.fpu neon
  42              	TEST_Full_GGD_TEAR_DOWN:
  43              	.LFB2:
  68:D:/Work/DeviceTester/amazon-freertos/tests/common/greengrass\aws_test_greengrass_discovery.c **** }
  69:D:/Work/DeviceTester/amazon-freertos/tests/common/greengrass\aws_test_greengrass_discovery.c **** 
  70:D:/Work/DeviceTester/amazon-freertos/tests/common/greengrass\aws_test_greengrass_discovery.c **** TEST_TEAR_DOWN( Full_GGD )
  71:D:/Work/DeviceTester/amazon-freertos/tests/common/greengrass\aws_test_greengrass_discovery.c **** {
  44              		.loc 1 71 0
  45              		.cfi_startproc
  46              		@ args = 0, pretend = 0, frame = 0
  47              		@ frame_needed = 0, uses_anonymous_args = 0
  48              		@ link register save eliminated.
  72:D:/Work/DeviceTester/amazon-freertos/tests/common/greengrass\aws_test_greengrass_discovery.c ****     if( xSocket != SOCKETS_INVALID_SOCKET )
  49              		.loc 1 72 0
  50 0000 0C309FE5 		ldr	r3, .L4
  51 0004 000093E5 		ldr	r0, [r3]
  52 0008 010070E3 		cmn	r0, #1
  53 000c 1EFF2F01 		bxeq	lr
  73:D:/Work/DeviceTester/amazon-freertos/tests/common/greengrass\aws_test_greengrass_discovery.c ****     {
  74:D:/Work/DeviceTester/amazon-freertos/tests/common/greengrass\aws_test_greengrass_discovery.c ****         /* Close the socket. */
  75:D:/Work/DeviceTester/amazon-freertos/tests/common/greengrass\aws_test_greengrass_discovery.c ****         ( void ) SOCKETS_Close( xSocket );
  54              		.loc 1 75 0
  55 0010 FEFFFFEA 		b	SOCKETS_Close
  56              	.LVL0:
  57              	.L5:
  58              		.align	2
  59              	.L4:
  60 0014 00000000 		.word	.LANCHOR0
  61              		.cfi_endproc
  62              	.LFE2:
  64              		.section	.text.TEST_Full_GGD_JSONRequestAbort_,"ax",%progbits
  65              		.align	2
  66              		.global	TEST_Full_GGD_JSONRequestAbort_
  67              		.syntax unified
  68              		.arm
  69              		.fpu neon
  71              	TEST_Full_GGD_JSONRequestAbort_:
  72              	.LFB5:
  76:D:/Work/DeviceTester/amazon-freertos/tests/common/greengrass\aws_test_greengrass_discovery.c ****     }
  77:D:/Work/DeviceTester/amazon-freertos/tests/common/greengrass\aws_test_greengrass_discovery.c **** }
  78:D:/Work/DeviceTester/amazon-freertos/tests/common/greengrass\aws_test_greengrass_discovery.c **** 
  79:D:/Work/DeviceTester/amazon-freertos/tests/common/greengrass\aws_test_greengrass_discovery.c **** 
  80:D:/Work/DeviceTester/amazon-freertos/tests/common/greengrass\aws_test_greengrass_discovery.c **** TEST_GROUP_RUNNER( Full_GGD )
  81:D:/Work/DeviceTester/amazon-freertos/tests/common/greengrass\aws_test_greengrass_discovery.c **** {
  82:D:/Work/DeviceTester/amazon-freertos/tests/common/greengrass\aws_test_greengrass_discovery.c ****     RUN_TEST_CASE( Full_GGD, JSONRequestStart );
  83:D:/Work/DeviceTester/amazon-freertos/tests/common/greengrass\aws_test_greengrass_discovery.c ****     RUN_TEST_CASE( Full_GGD, JSONRequestAbort );
  84:D:/Work/DeviceTester/amazon-freertos/tests/common/greengrass\aws_test_greengrass_discovery.c ****     RUN_TEST_CASE( Full_GGD, GetIPandCertificateFromJSON );
  85:D:/Work/DeviceTester/amazon-freertos/tests/common/greengrass\aws_test_greengrass_discovery.c ****     RUN_TEST_CASE( Full_GGD, GetIPOnInterface );
  86:D:/Work/DeviceTester/amazon-freertos/tests/common/greengrass\aws_test_greengrass_discovery.c ****     RUN_TEST_CASE( Full_GGD, JSONRequestGetSize );
  87:D:/Work/DeviceTester/amazon-freertos/tests/common/greengrass\aws_test_greengrass_discovery.c ****     RUN_TEST_CASE( Full_GGD, JSONRequestGetFile );
  88:D:/Work/DeviceTester/amazon-freertos/tests/common/greengrass\aws_test_greengrass_discovery.c ****     RUN_TEST_CASE( Full_GGD, CheckForContentLengthString );
  89:D:/Work/DeviceTester/amazon-freertos/tests/common/greengrass\aws_test_greengrass_discovery.c ****     RUN_TEST_CASE( Full_GGD, Jsoneq );
  90:D:/Work/DeviceTester/amazon-freertos/tests/common/greengrass\aws_test_greengrass_discovery.c ****     RUN_TEST_CASE( Full_GGD, CheckMatch );
  91:D:/Work/DeviceTester/amazon-freertos/tests/common/greengrass\aws_test_greengrass_discovery.c ****     RUN_TEST_CASE( Full_GGD, GetCertificate );
  92:D:/Work/DeviceTester/amazon-freertos/tests/common/greengrass\aws_test_greengrass_discovery.c ****     RUN_TEST_CASE( Full_GGD, GetCore );
  93:D:/Work/DeviceTester/amazon-freertos/tests/common/greengrass\aws_test_greengrass_discovery.c ****     RUN_TEST_CASE( Full_GGD, prvIsIPvalid );
  94:D:/Work/DeviceTester/amazon-freertos/tests/common/greengrass\aws_test_greengrass_discovery.c ****     RUN_TEST_CASE( Full_GGD, GetGGCIPandCertificate );
  95:D:/Work/DeviceTester/amazon-freertos/tests/common/greengrass\aws_test_greengrass_discovery.c **** }
  96:D:/Work/DeviceTester/amazon-freertos/tests/common/greengrass\aws_test_greengrass_discovery.c **** 
  97:D:/Work/DeviceTester/amazon-freertos/tests/common/greengrass\aws_test_greengrass_discovery.c **** TEST( Full_GGD, JSONRequestAbort )
  98:D:/Work/DeviceTester/amazon-freertos/tests/common/greengrass\aws_test_greengrass_discovery.c **** {
  73              		.loc 1 98 0
  74              		.cfi_startproc
  75              		@ args = 0, pretend = 0, frame = 0
  76              		@ frame_needed = 0, uses_anonymous_args = 0
  99:D:/Work/DeviceTester/amazon-freertos/tests/common/greengrass\aws_test_greengrass_discovery.c ****     /** @brief check for stability for all meaningfull values of socket.
 100:D:/Work/DeviceTester/amazon-freertos/tests/common/greengrass\aws_test_greengrass_discovery.c ****      * 1. Invalid
 101:D:/Work/DeviceTester/amazon-freertos/tests/common/greengrass\aws_test_greengrass_discovery.c ****      * 2. Correct
 102:D:/Work/DeviceTester/amazon-freertos/tests/common/greengrass\aws_test_greengrass_discovery.c ****      * 3. NULL
 103:D:/Work/DeviceTester/amazon-freertos/tests/common/greengrass\aws_test_greengrass_discovery.c ****      *  @{
 104:D:/Work/DeviceTester/amazon-freertos/tests/common/greengrass\aws_test_greengrass_discovery.c ****      */
 105:D:/Work/DeviceTester/amazon-freertos/tests/common/greengrass\aws_test_greengrass_discovery.c ****     if( TEST_PROTECT() )
  77              		.loc 1 105 0
  78 0000 64009FE5 		ldr	r0, .L15
  98:D:/Work/DeviceTester/amazon-freertos/tests/common/greengrass\aws_test_greengrass_discovery.c ****     /** @brief check for stability for all meaningfull values of socket.
  79              		.loc 1 98 0
  80 0004 10402DE9 		push	{r4, lr}
  81              		.cfi_def_cfa_offset 8
  82              		.cfi_offset 4, -8
  83              		.cfi_offset 14, -4
  84              		.loc 1 105 0
  85 0008 FEFFFFEB 		bl	setjmp
  86              	.LVL1:
  87 000c 000050E3 		cmp	r0, #0
  88 0010 1100001A 		bne	.L13
 106:D:/Work/DeviceTester/amazon-freertos/tests/common/greengrass\aws_test_greengrass_discovery.c ****     {
 107:D:/Work/DeviceTester/amazon-freertos/tests/common/greengrass\aws_test_greengrass_discovery.c ****         xSocket = SOCKETS_INVALID_SOCKET;
  89              		.loc 1 107 0
  90 0014 54409FE5 		ldr	r4, .L15+4
  91 0018 0030E0E3 		mvn	r3, #0
 108:D:/Work/DeviceTester/amazon-freertos/tests/common/greengrass\aws_test_greengrass_discovery.c ****         GGD_JSONRequestAbort( &xSocket );
  92              		.loc 1 108 0
  93 001c 0400A0E1 		mov	r0, r4
 107:D:/Work/DeviceTester/amazon-freertos/tests/common/greengrass\aws_test_greengrass_discovery.c ****         GGD_JSONRequestAbort( &xSocket );
  94              		.loc 1 107 0
  95 0020 003084E5 		str	r3, [r4]
  96              		.loc 1 108 0
  97 0024 FEFFFFEB 		bl	GGD_JSONRequestAbort
  98              	.LVL2:
 109:D:/Work/DeviceTester/amazon-freertos/tests/common/greengrass\aws_test_greengrass_discovery.c **** 
 110:D:/Work/DeviceTester/amazon-freertos/tests/common/greengrass\aws_test_greengrass_discovery.c ****         GGD_JSONRequestStart( &xSocket );
  99              		.loc 1 110 0
 100 0028 0400A0E1 		mov	r0, r4
 101 002c FEFFFFEB 		bl	GGD_JSONRequestStart
 102              	.LVL3:
 111:D:/Work/DeviceTester/amazon-freertos/tests/common/greengrass\aws_test_greengrass_discovery.c ****         GGD_JSONRequestAbort( &xSocket );
 103              		.loc 1 111 0
 104 0030 0400A0E1 		mov	r0, r4
 105 0034 FEFFFFEB 		bl	GGD_JSONRequestAbort
 106              	.LVL4:
 107              	.L9:
 112:D:/Work/DeviceTester/amazon-freertos/tests/common/greengrass\aws_test_greengrass_discovery.c ****     }
 113:D:/Work/DeviceTester/amazon-freertos/tests/common/greengrass\aws_test_greengrass_discovery.c ****     else
 114:D:/Work/DeviceTester/amazon-freertos/tests/common/greengrass\aws_test_greengrass_discovery.c ****     {
 115:D:/Work/DeviceTester/amazon-freertos/tests/common/greengrass\aws_test_greengrass_discovery.c ****         TEST_FAIL();
 116:D:/Work/DeviceTester/amazon-freertos/tests/common/greengrass\aws_test_greengrass_discovery.c ****     }
 117:D:/Work/DeviceTester/amazon-freertos/tests/common/greengrass\aws_test_greengrass_discovery.c **** 
 118:D:/Work/DeviceTester/amazon-freertos/tests/common/greengrass\aws_test_greengrass_discovery.c ****     if( TEST_PROTECT() )
 108              		.loc 1 118 0
 109 0038 2C009FE5 		ldr	r0, .L15
 110 003c FEFFFFEB 		bl	setjmp
 111              	.LVL5:
 112 0040 004050E2 		subs	r4, r0, #0
 113 0044 1080BD18 		popne	{r4, pc}
 119:D:/Work/DeviceTester/amazon-freertos/tests/common/greengrass\aws_test_greengrass_discovery.c ****     {
 120:D:/Work/DeviceTester/amazon-freertos/tests/common/greengrass\aws_test_greengrass_discovery.c ****         GGD_JSONRequestAbort( NULL );
 114              		.loc 1 120 0
 115 0048 FEFFFFEB 		bl	GGD_JSONRequestAbort
 116              	.LVL6:
 121:D:/Work/DeviceTester/amazon-freertos/tests/common/greengrass\aws_test_greengrass_discovery.c ****         TEST_FAIL();
 117              		.loc 1 121 0
 118 004c 7910A0E3 		mov	r1, #121
 119 0050 0400A0E1 		mov	r0, r4
 120 0054 FEFFFFEB 		bl	UnityFail
 121              	.LVL7:
 122 0058 1080BDE8 		pop	{r4, pc}
 123              	.L13:
 115:D:/Work/DeviceTester/amazon-freertos/tests/common/greengrass\aws_test_greengrass_discovery.c ****     }
 124              		.loc 1 115 0
 125 005c 7310A0E3 		mov	r1, #115
 126 0060 0000A0E3 		mov	r0, #0
 127 0064 FEFFFFEB 		bl	UnityFail
 128              	.LVL8:
 129 0068 F2FFFFEA 		b	.L9
 130              	.L16:
 131              		.align	2
 132              	.L15:
 133 006c 28000000 		.word	Unity+40
 134 0070 00000000 		.word	.LANCHOR0
 135              		.cfi_endproc
 136              	.LFE5:
 138              		.section	.text.TEST_Full_GGD_prvIsIPvalid_,"ax",%progbits
 139              		.align	2
 140              		.global	TEST_Full_GGD_prvIsIPvalid_
 141              		.syntax unified
 142              		.arm
 143              		.fpu neon
 145              	TEST_Full_GGD_prvIsIPvalid_:
 146              	.LFB7:
 122:D:/Work/DeviceTester/amazon-freertos/tests/common/greengrass\aws_test_greengrass_discovery.c ****     }
 123:D:/Work/DeviceTester/amazon-freertos/tests/common/greengrass\aws_test_greengrass_discovery.c **** 
 124:D:/Work/DeviceTester/amazon-freertos/tests/common/greengrass\aws_test_greengrass_discovery.c ****     /** @}*/
 125:D:/Work/DeviceTester/amazon-freertos/tests/common/greengrass\aws_test_greengrass_discovery.c **** }
 126:D:/Work/DeviceTester/amazon-freertos/tests/common/greengrass\aws_test_greengrass_discovery.c **** 
 127:D:/Work/DeviceTester/amazon-freertos/tests/common/greengrass\aws_test_greengrass_discovery.c **** TEST( Full_GGD, prvIsIPvalid )
 128:D:/Work/DeviceTester/amazon-freertos/tests/common/greengrass\aws_test_greengrass_discovery.c **** {
 147              		.loc 1 128 0
 148              		.cfi_startproc
 149              		@ args = 0, pretend = 0, frame = 0
 150              		@ frame_needed = 0, uses_anonymous_args = 0
 129:D:/Work/DeviceTester/amazon-freertos/tests/common/greengrass\aws_test_greengrass_discovery.c ****     BaseType_t xStatus;
 130:D:/Work/DeviceTester/amazon-freertos/tests/common/greengrass\aws_test_greengrass_discovery.c **** 
 131:D:/Work/DeviceTester/amazon-freertos/tests/common/greengrass\aws_test_greengrass_discovery.c ****     if( TEST_PROTECT() )
 151              		.loc 1 131 0
 152 0000 60009FE5 		ldr	r0, .L28
 128:D:/Work/DeviceTester/amazon-freertos/tests/common/greengrass\aws_test_greengrass_discovery.c ****     BaseType_t xStatus;
 153              		.loc 1 128 0
 154 0004 10402DE9 		push	{r4, lr}
 155              		.cfi_def_cfa_offset 8
 156              		.cfi_offset 4, -8
 157              		.cfi_offset 14, -4
 158              		.loc 1 131 0
 159 0008 FEFFFFEB 		bl	setjmp
 160              	.LVL9:
 161 000c 000050E3 		cmp	r0, #0
 162 0010 1000001A 		bne	.L25
 132:D:/Work/DeviceTester/amazon-freertos/tests/common/greengrass\aws_test_greengrass_discovery.c ****     {
 133:D:/Work/DeviceTester/amazon-freertos/tests/common/greengrass\aws_test_greengrass_discovery.c ****         /** @brief Check IP is correctly filtered if a loopback address is given.
 134:D:/Work/DeviceTester/amazon-freertos/tests/common/greengrass\aws_test_greengrass_discovery.c ****          *  @{
 135:D:/Work/DeviceTester/amazon-freertos/tests/common/greengrass\aws_test_greengrass_discovery.c ****          */
 136:D:/Work/DeviceTester/amazon-freertos/tests/common/greengrass\aws_test_greengrass_discovery.c ****         xStatus = test_prvIsIPvalid( ggdLOOP_BACK_IP, sizeof( ggdLOOP_BACK_IP ) );
 163              		.loc 1 136 0
 164 0014 0A10A0E3 		mov	r1, #10
 165 0018 4C009FE5 		ldr	r0, .L28+4
 166 001c FEFFFFEB 		bl	test_prvIsIPvalid
 167              	.LVL10:
 137:D:/Work/DeviceTester/amazon-freertos/tests/common/greengrass\aws_test_greengrass_discovery.c ****         TEST_ASSERT_TRUE( xStatus == pdFALSE );
 168              		.loc 1 137 0
 169 0020 000050E3 		cmp	r0, #0
 170 0024 0700001A 		bne	.L20
 171              	.LVL11:
 172              	.L22:
 138:D:/Work/DeviceTester/amazon-freertos/tests/common/greengrass\aws_test_greengrass_discovery.c ****         /** @}*/
 139:D:/Work/DeviceTester/amazon-freertos/tests/common/greengrass\aws_test_greengrass_discovery.c **** 
 140:D:/Work/DeviceTester/amazon-freertos/tests/common/greengrass\aws_test_greengrass_discovery.c ****         /** @brief Check IP is not filtered if correct IP is given.
 141:D:/Work/DeviceTester/amazon-freertos/tests/common/greengrass\aws_test_greengrass_discovery.c ****          *  @{
 142:D:/Work/DeviceTester/amazon-freertos/tests/common/greengrass\aws_test_greengrass_discovery.c ****          */
 143:D:/Work/DeviceTester/amazon-freertos/tests/common/greengrass\aws_test_greengrass_discovery.c ****         xStatus = test_prvIsIPvalid( clientcredentialMQTT_BROKER_ENDPOINT, sizeof( clientcredential
 173              		.loc 1 143 0
 174 0028 2F10A0E3 		mov	r1, #47
 175 002c 3C009FE5 		ldr	r0, .L28+8
 176 0030 FEFFFFEB 		bl	test_prvIsIPvalid
 177              	.LVL12:
 144:D:/Work/DeviceTester/amazon-freertos/tests/common/greengrass\aws_test_greengrass_discovery.c ****         TEST_ASSERT_TRUE( xStatus == pdTRUE );
 178              		.loc 1 144 0
 179 0034 010050E3 		cmp	r0, #1
 180 0038 9010A013 		movne	r1, #144
 181 003c 30009F15 		ldrne	r0, .L28+12
 182              	.LVL13:
 183 0040 0600001A 		bne	.L27
 184 0044 1080BDE8 		pop	{r4, pc}
 185              	.LVL14:
 186              	.L20:
 137:D:/Work/DeviceTester/amazon-freertos/tests/common/greengrass\aws_test_greengrass_discovery.c ****         TEST_ASSERT_TRUE( xStatus == pdFALSE );
 187              		.loc 1 137 0 discriminator 1
 188 0048 8910A0E3 		mov	r1, #137
 189 004c 20009FE5 		ldr	r0, .L28+12
 190              	.LVL15:
 191 0050 FEFFFFEB 		bl	UnityFail
 192              	.LVL16:
 193 0054 F3FFFFEA 		b	.L22
 194              	.L25:
 145:D:/Work/DeviceTester/amazon-freertos/tests/common/greengrass\aws_test_greengrass_discovery.c ****         /** @}*/
 146:D:/Work/DeviceTester/amazon-freertos/tests/common/greengrass\aws_test_greengrass_discovery.c ****     }
 147:D:/Work/DeviceTester/amazon-freertos/tests/common/greengrass\aws_test_greengrass_discovery.c ****     else
 148:D:/Work/DeviceTester/amazon-freertos/tests/common/greengrass\aws_test_greengrass_discovery.c ****     {
 149:D:/Work/DeviceTester/amazon-freertos/tests/common/greengrass\aws_test_greengrass_discovery.c ****         TEST_FAIL();
 195              		.loc 1 149 0
 196 0058 9510A0E3 		mov	r1, #149
 197 005c 0000A0E3 		mov	r0, #0
 198              	.L27:
 199 0060 FEFFFFEB 		bl	UnityFail
 200              	.LVL17:
 201 0064 1080BDE8 		pop	{r4, pc}
 202              	.L29:
 203              		.align	2
 204              	.L28:
 205 0068 28000000 		.word	Unity+40
 206 006c 00000000 		.word	.LC0
 207 0070 00000000 		.word	.LANCHOR1
 208 0074 0A000000 		.word	.LC1
 209              		.cfi_endproc
 210              	.LFE7:
 212              		.section	.text.TEST_Full_GGD_GetGGCIPandCertificate_,"ax",%progbits
 213              		.align	2
 214              		.global	TEST_Full_GGD_GetGGCIPandCertificate_
 215              		.syntax unified
 216              		.arm
 217              		.fpu neon
 219              	TEST_Full_GGD_GetGGCIPandCertificate_:
 220              	.LFB9:
 150:D:/Work/DeviceTester/amazon-freertos/tests/common/greengrass\aws_test_greengrass_discovery.c ****     }
 151:D:/Work/DeviceTester/amazon-freertos/tests/common/greengrass\aws_test_greengrass_discovery.c **** }
 152:D:/Work/DeviceTester/amazon-freertos/tests/common/greengrass\aws_test_greengrass_discovery.c **** 
 153:D:/Work/DeviceTester/amazon-freertos/tests/common/greengrass\aws_test_greengrass_discovery.c **** 
 154:D:/Work/DeviceTester/amazon-freertos/tests/common/greengrass\aws_test_greengrass_discovery.c **** TEST( Full_GGD, GetGGCIPandCertificate )
 155:D:/Work/DeviceTester/amazon-freertos/tests/common/greengrass\aws_test_greengrass_discovery.c **** {
 221              		.loc 1 155 0
 222              		.cfi_startproc
 223              		@ args = 0, pretend = 0, frame = 144
 224              		@ frame_needed = 0, uses_anonymous_args = 0
 225              	.LVL18:
 156:D:/Work/DeviceTester/amazon-freertos/tests/common/greengrass\aws_test_greengrass_discovery.c ****     BaseType_t i;
 157:D:/Work/DeviceTester/amazon-freertos/tests/common/greengrass\aws_test_greengrass_discovery.c ****     BaseType_t xStatus;
 158:D:/Work/DeviceTester/amazon-freertos/tests/common/greengrass\aws_test_greengrass_discovery.c ****     char cMsgBuffer[ 128 ];
 159:D:/Work/DeviceTester/amazon-freertos/tests/common/greengrass\aws_test_greengrass_discovery.c ****     GGD_HostAddressData_t xHostAddressData;
 160:D:/Work/DeviceTester/amazon-freertos/tests/common/greengrass\aws_test_greengrass_discovery.c ****     int16_t nBufferLength = 128;
 161:D:/Work/DeviceTester/amazon-freertos/tests/common/greengrass\aws_test_greengrass_discovery.c ****     uint32_t ulBufferSize = testrunnerBUFFER_SIZE;
 162:D:/Work/DeviceTester/amazon-freertos/tests/common/greengrass\aws_test_greengrass_discovery.c **** 
 163:D:/Work/DeviceTester/amazon-freertos/tests/common/greengrass\aws_test_greengrass_discovery.c ****     if( TEST_PROTECT() )
 226              		.loc 1 163 0
 227 0000 04019FE5 		ldr	r0, .L44
 155:D:/Work/DeviceTester/amazon-freertos/tests/common/greengrass\aws_test_greengrass_discovery.c ****     BaseType_t i;
 228              		.loc 1 155 0
 229 0004 F0412DE9 		push	{r4, r5, r6, r7, r8, lr}
 230              		.cfi_def_cfa_offset 24
 231              		.cfi_offset 4, -24
 232              		.cfi_offset 5, -20
 233              		.cfi_offset 6, -16
 234              		.cfi_offset 7, -12
 235              		.cfi_offset 8, -8
 236              		.cfi_offset 14, -4
 237 0008 98D04DE2 		sub	sp, sp, #152
 238              		.cfi_def_cfa_offset 176
 239              		.loc 1 163 0
 240 000c FEFFFFEB 		bl	setjmp
 241              	.LVL19:
 242 0010 004050E2 		subs	r4, r0, #0
 243 0014 3800001A 		bne	.L42
 164:D:/Work/DeviceTester/amazon-freertos/tests/common/greengrass\aws_test_greengrass_discovery.c ****     {
 165:D:/Work/DeviceTester/amazon-freertos/tests/common/greengrass\aws_test_greengrass_discovery.c ****         /** @brief Check function works in ideal scenario.
 166:D:/Work/DeviceTester/amazon-freertos/tests/common/greengrass\aws_test_greengrass_discovery.c ****          * Provided with known JSON file and checking output.
 167:D:/Work/DeviceTester/amazon-freertos/tests/common/greengrass\aws_test_greengrass_discovery.c ****          * Check with auto-search flag set to false and true
 168:D:/Work/DeviceTester/amazon-freertos/tests/common/greengrass\aws_test_greengrass_discovery.c ****          *  @{
 169:D:/Work/DeviceTester/amazon-freertos/tests/common/greengrass\aws_test_greengrass_discovery.c ****          */
 170:D:/Work/DeviceTester/amazon-freertos/tests/common/greengrass\aws_test_greengrass_discovery.c ****         for( i = 0; i < ggdTestLOOP_NUMBER; i++ )
 171:D:/Work/DeviceTester/amazon-freertos/tests/common/greengrass\aws_test_greengrass_discovery.c ****         {
 172:D:/Work/DeviceTester/amazon-freertos/tests/common/greengrass\aws_test_greengrass_discovery.c ****             xStatus = GGD_GetGGCIPandCertificate( cBuffer, /*lint !e971 can use char without signed
 244              		.loc 1 172 0
 245 0018 F0509FE5 		ldr	r5, .L44+4
 173:D:/Work/DeviceTester/amazon-freertos/tests/common/greengrass\aws_test_greengrass_discovery.c ****                                                   ulBufferSize,
 174:D:/Work/DeviceTester/amazon-freertos/tests/common/greengrass\aws_test_greengrass_discovery.c ****                                                   &xHostAddressData );
 175:D:/Work/DeviceTester/amazon-freertos/tests/common/greengrass\aws_test_greengrass_discovery.c **** 
 176:D:/Work/DeviceTester/amazon-freertos/tests/common/greengrass\aws_test_greengrass_discovery.c ****             snprintf( cMsgBuffer, nBufferLength,
 246              		.loc 1 176 0
 247 001c F0809FE5 		ldr	r8, .L44+8
 248              	.L33:
 249              	.LVL20:
 172:D:/Work/DeviceTester/amazon-freertos/tests/common/greengrass\aws_test_greengrass_discovery.c ****                                                   ulBufferSize,
 250              		.loc 1 172 0
 251 0020 08208DE2 		add	r2, sp, #8
 252 0024 FA1EA0E3 		mov	r1, #4000
 253 0028 0500A0E1 		mov	r0, r5
 177:D:/Work/DeviceTester/amazon-freertos/tests/common/greengrass\aws_test_greengrass_discovery.c ****                       "GGD_GetGGCIPandCertificate returned %d on iteration %d",
 178:D:/Work/DeviceTester/amazon-freertos/tests/common/greengrass\aws_test_greengrass_discovery.c ****                       ( int )xStatus, ( int )i );
 179:D:/Work/DeviceTester/amazon-freertos/tests/common/greengrass\aws_test_greengrass_discovery.c ****             TEST_ASSERT_EQUAL_INT32_MESSAGE( pdPASS, xStatus, cBuffer );
 254              		.loc 1 179 0
 255 002c 1460A0E3 		mov	r6, #20
 172:D:/Work/DeviceTester/amazon-freertos/tests/common/greengrass\aws_test_greengrass_discovery.c ****                                                   ulBufferSize,
 256              		.loc 1 172 0
 257 0030 FEFFFFEB 		bl	GGD_GetGGCIPandCertificate
 258              	.LVL21:
 176:D:/Work/DeviceTester/amazon-freertos/tests/common/greengrass\aws_test_greengrass_discovery.c ****                       "GGD_GetGGCIPandCertificate returned %d on iteration %d",
 259              		.loc 1 176 0
 260 0034 00408DE5 		str	r4, [sp]
 261 0038 0030A0E1 		mov	r3, r0
 172:D:/Work/DeviceTester/amazon-freertos/tests/common/greengrass\aws_test_greengrass_discovery.c ****                                                   ulBufferSize,
 262              		.loc 1 172 0
 263 003c 0070A0E1 		mov	r7, r0
 264              	.LVL22:
 176:D:/Work/DeviceTester/amazon-freertos/tests/common/greengrass\aws_test_greengrass_discovery.c ****                       "GGD_GetGGCIPandCertificate returned %d on iteration %d",
 265              		.loc 1 176 0
 266 0040 0820A0E1 		mov	r2, r8
 267 0044 8010A0E3 		mov	r1, #128
 268 0048 18008DE2 		add	r0, sp, #24
 269              	.LVL23:
 270 004c FEFFFFEB 		bl	snprintf
 271              	.LVL24:
 170:D:/Work/DeviceTester/amazon-freertos/tests/common/greengrass\aws_test_greengrass_discovery.c ****         {
 272              		.loc 1 170 0
 273 0050 014084E2 		add	r4, r4, #1
 274              	.LVL25:
 275              		.loc 1 179 0
 276 0054 00608DE5 		str	r6, [sp]
 277 0058 B330A0E3 		mov	r3, #179
 278 005c 0520A0E1 		mov	r2, r5
 279 0060 0710A0E1 		mov	r1, r7
 280 0064 0100A0E3 		mov	r0, #1
 281 0068 FEFFFFEB 		bl	UnityAssertEqualNumber
 282              	.LVL26:
 170:D:/Work/DeviceTester/amazon-freertos/tests/common/greengrass\aws_test_greengrass_discovery.c ****         {
 283              		.loc 1 170 0
 284 006c 0A0054E3 		cmp	r4, #10
 285 0070 EAFFFF1A 		bne	.L33
 180:D:/Work/DeviceTester/amazon-freertos/tests/common/greengrass\aws_test_greengrass_discovery.c ****         }
 181:D:/Work/DeviceTester/amazon-freertos/tests/common/greengrass\aws_test_greengrass_discovery.c **** 
 182:D:/Work/DeviceTester/amazon-freertos/tests/common/greengrass\aws_test_greengrass_discovery.c ****         /** @}*/
 183:D:/Work/DeviceTester/amazon-freertos/tests/common/greengrass\aws_test_greengrass_discovery.c **** 
 184:D:/Work/DeviceTester/amazon-freertos/tests/common/greengrass\aws_test_greengrass_discovery.c ****         /** @brief Check fail is returned if provided buffer is too small
 185:D:/Work/DeviceTester/amazon-freertos/tests/common/greengrass\aws_test_greengrass_discovery.c ****          *  @{
 186:D:/Work/DeviceTester/amazon-freertos/tests/common/greengrass\aws_test_greengrass_discovery.c ****          */
 187:D:/Work/DeviceTester/amazon-freertos/tests/common/greengrass\aws_test_greengrass_discovery.c ****         xStatus = GGD_GetGGCIPandCertificate( cBuffer, /*lint !e971 can use char without signed/uns
 286              		.loc 1 187 0
 287 0074 10109DE5 		ldr	r1, [sp, #16]
 288 0078 08208DE2 		add	r2, sp, #8
 289 007c 0500A0E1 		mov	r0, r5
 290 0080 011041E2 		sub	r1, r1, #1
 291 0084 FEFFFFEB 		bl	GGD_GetGGCIPandCertificate
 292              	.LVL27:
 188:D:/Work/DeviceTester/amazon-freertos/tests/common/greengrass\aws_test_greengrass_discovery.c ****                                               xHostAddressData.ulCertificateSize - 1,
 189:D:/Work/DeviceTester/amazon-freertos/tests/common/greengrass\aws_test_greengrass_discovery.c ****                                               &xHostAddressData );
 190:D:/Work/DeviceTester/amazon-freertos/tests/common/greengrass\aws_test_greengrass_discovery.c ****         TEST_ASSERT_EQUAL_INT32_MESSAGE( pdFAIL, xStatus, "GGD_GetGGCIPandCertificate() passed when
 293              		.loc 1 190 0
 294 0088 00608DE5 		str	r6, [sp]
 295 008c 0010A0E1 		mov	r1, r0
 296 0090 BE30A0E3 		mov	r3, #190
 297 0094 7C209FE5 		ldr	r2, .L44+12
 298 0098 0000A0E3 		mov	r0, #0
 299              	.LVL28:
 300 009c FEFFFFEB 		bl	UnityAssertEqualNumber
 301              	.LVL29:
 302              	.L34:
 191:D:/Work/DeviceTester/amazon-freertos/tests/common/greengrass\aws_test_greengrass_discovery.c ****         /** @}*/
 192:D:/Work/DeviceTester/amazon-freertos/tests/common/greengrass\aws_test_greengrass_discovery.c ****     }
 193:D:/Work/DeviceTester/amazon-freertos/tests/common/greengrass\aws_test_greengrass_discovery.c ****     else
 194:D:/Work/DeviceTester/amazon-freertos/tests/common/greengrass\aws_test_greengrass_discovery.c ****     {
 195:D:/Work/DeviceTester/amazon-freertos/tests/common/greengrass\aws_test_greengrass_discovery.c ****         TEST_FAIL();
 196:D:/Work/DeviceTester/amazon-freertos/tests/common/greengrass\aws_test_greengrass_discovery.c ****     }
 197:D:/Work/DeviceTester/amazon-freertos/tests/common/greengrass\aws_test_greengrass_discovery.c **** 
 198:D:/Work/DeviceTester/amazon-freertos/tests/common/greengrass\aws_test_greengrass_discovery.c ****     /** @brief Check stability.
 199:D:/Work/DeviceTester/amazon-freertos/tests/common/greengrass\aws_test_greengrass_discovery.c ****      *
 200:D:/Work/DeviceTester/amazon-freertos/tests/common/greengrass\aws_test_greengrass_discovery.c ****      *  @{
 201:D:/Work/DeviceTester/amazon-freertos/tests/common/greengrass\aws_test_greengrass_discovery.c ****      */
 202:D:/Work/DeviceTester/amazon-freertos/tests/common/greengrass\aws_test_greengrass_discovery.c ****     if( TEST_PROTECT() )
 303              		.loc 1 202 0
 304 00a0 64009FE5 		ldr	r0, .L44
 305 00a4 FEFFFFEB 		bl	setjmp
 306              	.LVL30:
 307 00a8 004050E2 		subs	r4, r0, #0
 308 00ac 0500001A 		bne	.L37
 203:D:/Work/DeviceTester/amazon-freertos/tests/common/greengrass\aws_test_greengrass_discovery.c ****     {
 204:D:/Work/DeviceTester/amazon-freertos/tests/common/greengrass\aws_test_greengrass_discovery.c ****         xStatus = GGD_GetGGCIPandCertificate( NULL,
 309              		.loc 1 204 0
 310 00b0 FA1EA0E3 		mov	r1, #4000
 311 00b4 08208DE2 		add	r2, sp, #8
 312 00b8 FEFFFFEB 		bl	GGD_GetGGCIPandCertificate
 313              	.LVL31:
 205:D:/Work/DeviceTester/amazon-freertos/tests/common/greengrass\aws_test_greengrass_discovery.c ****                                               ulBufferSize,
 206:D:/Work/DeviceTester/amazon-freertos/tests/common/greengrass\aws_test_greengrass_discovery.c ****                                               &xHostAddressData );
 207:D:/Work/DeviceTester/amazon-freertos/tests/common/greengrass\aws_test_greengrass_discovery.c ****         TEST_FAIL();
 314              		.loc 1 207 0
 315 00bc CF10A0E3 		mov	r1, #207
 316 00c0 0400A0E1 		mov	r0, r4
 317 00c4 FEFFFFEB 		bl	UnityFail
 318              	.LVL32:
 319              	.L37:
 208:D:/Work/DeviceTester/amazon-freertos/tests/common/greengrass\aws_test_greengrass_discovery.c ****     }
 209:D:/Work/DeviceTester/amazon-freertos/tests/common/greengrass\aws_test_greengrass_discovery.c **** 
 210:D:/Work/DeviceTester/amazon-freertos/tests/common/greengrass\aws_test_greengrass_discovery.c ****     if( TEST_PROTECT() )
 320              		.loc 1 210 0
 321 00c8 3C009FE5 		ldr	r0, .L44
 322 00cc FEFFFFEB 		bl	setjmp
 323              	.LVL33:
 324 00d0 004050E2 		subs	r4, r0, #0
 325 00d4 0600001A 		bne	.L30
 211:D:/Work/DeviceTester/amazon-freertos/tests/common/greengrass\aws_test_greengrass_discovery.c ****     {
 212:D:/Work/DeviceTester/amazon-freertos/tests/common/greengrass\aws_test_greengrass_discovery.c ****         xStatus = GGD_GetGGCIPandCertificate( cBuffer,
 326              		.loc 1 212 0
 327 00d8 FA1EA0E3 		mov	r1, #4000
 328 00dc 0420A0E1 		mov	r2, r4
 329 00e0 28009FE5 		ldr	r0, .L44+4
 330 00e4 FEFFFFEB 		bl	GGD_GetGGCIPandCertificate
 331              	.LVL34:
 213:D:/Work/DeviceTester/amazon-freertos/tests/common/greengrass\aws_test_greengrass_discovery.c ****                                               ulBufferSize,
 214:D:/Work/DeviceTester/amazon-freertos/tests/common/greengrass\aws_test_greengrass_discovery.c ****                                               NULL );
 215:D:/Work/DeviceTester/amazon-freertos/tests/common/greengrass\aws_test_greengrass_discovery.c ****         TEST_FAIL();
 332              		.loc 1 215 0
 333 00e8 D710A0E3 		mov	r1, #215
 334 00ec 0400A0E1 		mov	r0, r4
 335 00f0 FEFFFFEB 		bl	UnityFail
 336              	.LVL35:
 337              	.L30:
 216:D:/Work/DeviceTester/amazon-freertos/tests/common/greengrass\aws_test_greengrass_discovery.c ****     }
 217:D:/Work/DeviceTester/amazon-freertos/tests/common/greengrass\aws_test_greengrass_discovery.c **** 
 218:D:/Work/DeviceTester/amazon-freertos/tests/common/greengrass\aws_test_greengrass_discovery.c ****     /** @}*/
 219:D:/Work/DeviceTester/amazon-freertos/tests/common/greengrass\aws_test_greengrass_discovery.c **** }
 338              		.loc 1 219 0
 339 00f4 98D08DE2 		add	sp, sp, #152
 340              		.cfi_remember_state
 341              		.cfi_def_cfa_offset 24
 342              		@ sp needed
 343 00f8 F081BDE8 		pop	{r4, r5, r6, r7, r8, pc}
 344              	.L42:
 345              		.cfi_restore_state
 195:D:/Work/DeviceTester/amazon-freertos/tests/common/greengrass\aws_test_greengrass_discovery.c ****     }
 346              		.loc 1 195 0
 347 00fc C310A0E3 		mov	r1, #195
 348 0100 0000A0E3 		mov	r0, #0
 349 0104 FEFFFFEB 		bl	UnityFail
 350              	.LVL36:
 351 0108 E4FFFFEA 		b	.L34
 352              	.L45:
 353              		.align	2
 354              	.L44:
 355 010c 28000000 		.word	Unity+40
 356 0110 00000000 		.word	cBuffer
 357 0114 00000000 		.word	.LC2
 358 0118 37000000 		.word	.LC3
 359              		.cfi_endproc
 360              	.LFE9:
 362              		.section	.text.TEST_Full_GGD_GetIPandCertificateFromJSON_,"ax",%progbits
 363              		.align	2
 364              		.global	TEST_Full_GGD_GetIPandCertificateFromJSON_
 365              		.syntax unified
 366              		.arm
 367              		.fpu neon
 369              	TEST_Full_GGD_GetIPandCertificateFromJSON_:
 370              	.LFB11:
 220:D:/Work/DeviceTester/amazon-freertos/tests/common/greengrass\aws_test_greengrass_discovery.c **** 
 221:D:/Work/DeviceTester/amazon-freertos/tests/common/greengrass\aws_test_greengrass_discovery.c **** 
 222:D:/Work/DeviceTester/amazon-freertos/tests/common/greengrass\aws_test_greengrass_discovery.c **** TEST( Full_GGD, GetIPandCertificateFromJSON )
 223:D:/Work/DeviceTester/amazon-freertos/tests/common/greengrass\aws_test_greengrass_discovery.c **** {
 371              		.loc 1 223 0
 372              		.cfi_startproc
 373              		@ args = 0, pretend = 0, frame = 80
 374              		@ frame_needed = 0, uses_anonymous_args = 0
 375 0000 F04F2DE9 		push	{r4, r5, r6, r7, r8, r9, r10, fp, lr}
 376              		.cfi_def_cfa_offset 36
 377              		.cfi_offset 4, -36
 378              		.cfi_offset 5, -32
 379              		.cfi_offset 6, -28
 380              		.cfi_offset 7, -24
 381              		.cfi_offset 8, -20
 382              		.cfi_offset 9, -16
 383              		.cfi_offset 10, -12
 384              		.cfi_offset 11, -8
 385              		.cfi_offset 14, -4
 224:D:/Work/DeviceTester/amazon-freertos/tests/common/greengrass\aws_test_greengrass_discovery.c ****     uint32_t ulJSONFileSize = strlen( cJSON_FILE );
 225:D:/Work/DeviceTester/amazon-freertos/tests/common/greengrass\aws_test_greengrass_discovery.c ****     BaseType_t xStatus;
 226:D:/Work/DeviceTester/amazon-freertos/tests/common/greengrass\aws_test_greengrass_discovery.c ****     HostParameters_t xHostParameters;
 227:D:/Work/DeviceTester/amazon-freertos/tests/common/greengrass\aws_test_greengrass_discovery.c ****     GGD_HostAddressData_t xHostAddressData;
 228:D:/Work/DeviceTester/amazon-freertos/tests/common/greengrass\aws_test_greengrass_discovery.c ****     BaseType_t xAutoSearchFlag;
 229:D:/Work/DeviceTester/amazon-freertos/tests/common/greengrass\aws_test_greengrass_discovery.c ****     char cBadGroupId[] = "myBadGroupID";
 386              		.loc 1 229 0
 387 0004 0D40A0E3 		mov	r4, #13
 223:D:/Work/DeviceTester/amazon-freertos/tests/common/greengrass\aws_test_greengrass_discovery.c ****     uint32_t ulJSONFileSize = strlen( cJSON_FILE );
 388              		.loc 1 223 0
 389 0008 5CD04DE2 		sub	sp, sp, #92
 390              		.cfi_def_cfa_offset 128
 224:D:/Work/DeviceTester/amazon-freertos/tests/common/greengrass\aws_test_greengrass_discovery.c ****     uint32_t ulJSONFileSize = strlen( cJSON_FILE );
 391              		.loc 1 224 0
 392 000c 913800E3 		movw	r3, #2193
 393              		.loc 1 229 0
 394 0010 0420A0E1 		mov	r2, r4
 395 0014 28008DE2 		add	r0, sp, #40
 396 0018 74139FE5 		ldr	r1, .L59
 224:D:/Work/DeviceTester/amazon-freertos/tests/common/greengrass\aws_test_greengrass_discovery.c ****     uint32_t ulJSONFileSize = strlen( cJSON_FILE );
 397              		.loc 1 224 0
 398 001c 10308DE5 		str	r3, [sp, #16]
 399              		.loc 1 229 0
 400 0020 FEFFFFEB 		bl	memcpy
 401              	.LVL37:
 230:D:/Work/DeviceTester/amazon-freertos/tests/common/greengrass\aws_test_greengrass_discovery.c ****     char cBadCoreARN[] = "myBadCoreARN";
 402              		.loc 1 230 0
 403 0024 0420A0E1 		mov	r2, r4
 404 0028 68139FE5 		ldr	r1, .L59+4
 405 002c 38008DE2 		add	r0, sp, #56
 406 0030 FEFFFFEB 		bl	memcpy
 407              	.LVL38:
 231:D:/Work/DeviceTester/amazon-freertos/tests/common/greengrass\aws_test_greengrass_discovery.c ****     uint32_t ulBufferSize = testrunnerBUFFER_SIZE;
 232:D:/Work/DeviceTester/amazon-freertos/tests/common/greengrass\aws_test_greengrass_discovery.c ****     uint32_t ulByteRead;
 233:D:/Work/DeviceTester/amazon-freertos/tests/common/greengrass\aws_test_greengrass_discovery.c ****     BaseType_t xJSONFileRetrieveCompleted;
 234:D:/Work/DeviceTester/amazon-freertos/tests/common/greengrass\aws_test_greengrass_discovery.c **** 
 235:D:/Work/DeviceTester/amazon-freertos/tests/common/greengrass\aws_test_greengrass_discovery.c ****     if( TEST_PROTECT() )
 408              		.loc 1 235 0
 409 0034 60039FE5 		ldr	r0, .L59+8
 410 0038 FEFFFFEB 		bl	setjmp
 411              	.LVL39:
 412 003c 004050E2 		subs	r4, r0, #0
 413 0040 CF00001A 		bne	.L56
 236:D:/Work/DeviceTester/amazon-freertos/tests/common/greengrass\aws_test_greengrass_discovery.c ****     {
 237:D:/Work/DeviceTester/amazon-freertos/tests/common/greengrass\aws_test_greengrass_discovery.c ****         /** @brief Prepare test.
 238:D:/Work/DeviceTester/amazon-freertos/tests/common/greengrass\aws_test_greengrass_discovery.c ****          *  @{
 239:D:/Work/DeviceTester/amazon-freertos/tests/common/greengrass\aws_test_greengrass_discovery.c ****          */
 240:D:/Work/DeviceTester/amazon-freertos/tests/common/greengrass\aws_test_greengrass_discovery.c ****         memcpy( cBuffer, cJSON_FILE, strlen( cJSON_FILE ) );
 414              		.loc 1 240 0
 415 0044 54639FE5 		ldr	r6, .L59+12
 416 0048 912800E3 		movw	r2, #2193
 417 004c 50139FE5 		ldr	r1, .L59+16
 241:D:/Work/DeviceTester/amazon-freertos/tests/common/greengrass\aws_test_greengrass_discovery.c ****         /** @}*/
 242:D:/Work/DeviceTester/amazon-freertos/tests/common/greengrass\aws_test_greengrass_discovery.c **** 
 243:D:/Work/DeviceTester/amazon-freertos/tests/common/greengrass\aws_test_greengrass_discovery.c ****         /** @brief Check function works in ideal scenario.
 244:D:/Work/DeviceTester/amazon-freertos/tests/common/greengrass\aws_test_greengrass_discovery.c ****          * Provided with known JSON file and checking output.
 245:D:/Work/DeviceTester/amazon-freertos/tests/common/greengrass\aws_test_greengrass_discovery.c ****          * Check with auto-search flag set to false and true
 246:D:/Work/DeviceTester/amazon-freertos/tests/common/greengrass\aws_test_greengrass_discovery.c ****          *  @{
 247:D:/Work/DeviceTester/amazon-freertos/tests/common/greengrass\aws_test_greengrass_discovery.c ****          */
 248:D:/Work/DeviceTester/amazon-freertos/tests/common/greengrass\aws_test_greengrass_discovery.c ****         xHostParameters.pcCoreAddress = ( char * ) cMY_CORE_ARN;
 249:D:/Work/DeviceTester/amazon-freertos/tests/common/greengrass\aws_test_greengrass_discovery.c ****         xHostParameters.pcGroupName = ( char * ) cMyGroupID;
 250:D:/Work/DeviceTester/amazon-freertos/tests/common/greengrass\aws_test_greengrass_discovery.c ****         xHostParameters.ucInterface = 3;
 251:D:/Work/DeviceTester/amazon-freertos/tests/common/greengrass\aws_test_greengrass_discovery.c ****         xAutoSearchFlag = pdFALSE;
 252:D:/Work/DeviceTester/amazon-freertos/tests/common/greengrass\aws_test_greengrass_discovery.c ****         xStatus = GGD_GetIPandCertificateFromJSON( cBuffer, /*lint !e971 can use char without signe
 253:D:/Work/DeviceTester/amazon-freertos/tests/common/greengrass\aws_test_greengrass_discovery.c ****                                                    ulJSONFileSize,
 254:D:/Work/DeviceTester/amazon-freertos/tests/common/greengrass\aws_test_greengrass_discovery.c ****                                                    &xHostParameters,
 255:D:/Work/DeviceTester/amazon-freertos/tests/common/greengrass\aws_test_greengrass_discovery.c ****                                                    &xHostAddressData,
 256:D:/Work/DeviceTester/amazon-freertos/tests/common/greengrass\aws_test_greengrass_discovery.c ****                                                    xAutoSearchFlag );
 257:D:/Work/DeviceTester/amazon-freertos/tests/common/greengrass\aws_test_greengrass_discovery.c ****         TEST_ASSERT_EQUAL_INT32( pdPASS, xStatus );
 418              		.loc 1 257 0
 419 0050 1450A0E3 		mov	r5, #20
 240:D:/Work/DeviceTester/amazon-freertos/tests/common/greengrass\aws_test_greengrass_discovery.c ****         /** @}*/
 420              		.loc 1 240 0
 421 0054 0600A0E1 		mov	r0, r6
 422 0058 FEFFFFEB 		bl	memcpy
 423              	.LVL40:
 248:D:/Work/DeviceTester/amazon-freertos/tests/common/greengrass\aws_test_greengrass_discovery.c ****         xHostParameters.pcGroupName = ( char * ) cMyGroupID;
 424              		.loc 1 248 0
 425 005c 44339FE5 		ldr	r3, .L59+20
 252:D:/Work/DeviceTester/amazon-freertos/tests/common/greengrass\aws_test_greengrass_discovery.c ****                                                    ulJSONFileSize,
 426              		.loc 1 252 0
 427 0060 1C208DE2 		add	r2, sp, #28
 428 0064 10109DE5 		ldr	r1, [sp, #16]
 429 0068 0600A0E1 		mov	r0, r6
 430 006c 00408DE5 		str	r4, [sp]
 248:D:/Work/DeviceTester/amazon-freertos/tests/common/greengrass\aws_test_greengrass_discovery.c ****         xHostParameters.pcGroupName = ( char * ) cMyGroupID;
 431              		.loc 1 248 0
 432 0070 20308DE5 		str	r3, [sp, #32]
 249:D:/Work/DeviceTester/amazon-freertos/tests/common/greengrass\aws_test_greengrass_discovery.c ****         xHostParameters.ucInterface = 3;
 433              		.loc 1 249 0
 434 0074 30339FE5 		ldr	r3, .L59+24
 435 0078 1C308DE5 		str	r3, [sp, #28]
 250:D:/Work/DeviceTester/amazon-freertos/tests/common/greengrass\aws_test_greengrass_discovery.c ****         xAutoSearchFlag = pdFALSE;
 436              		.loc 1 250 0
 437 007c 0330A0E3 		mov	r3, #3
 438 0080 2430CDE5 		strb	r3, [sp, #36]
 439              	.LVL41:
 252:D:/Work/DeviceTester/amazon-freertos/tests/common/greengrass\aws_test_greengrass_discovery.c ****                                                    ulJSONFileSize,
 440              		.loc 1 252 0
 441 0084 48308DE2 		add	r3, sp, #72
 442 0088 FEFFFFEB 		bl	GGD_GetIPandCertificateFromJSON
 443              	.LVL42:
 444              		.loc 1 257 0
 445 008c 00508DE5 		str	r5, [sp]
 446 0090 0010A0E1 		mov	r1, r0
 447 0094 013100E3 		movw	r3, #257
 448 0098 0420A0E1 		mov	r2, r4
 449 009c 0100A0E3 		mov	r0, #1
 450              	.LVL43:
 451 00a0 FEFFFFEB 		bl	UnityAssertEqualNumber
 452              	.LVL44:
 258:D:/Work/DeviceTester/amazon-freertos/tests/common/greengrass\aws_test_greengrass_discovery.c ****         TEST_ASSERT_EQUAL_STRING( cIP_ADDRESS_3, xHostAddressData.pcHostAddress );
 453              		.loc 1 258 0
 454 00a4 023100E3 		movw	r3, #258
 455 00a8 0420A0E1 		mov	r2, r4
 456 00ac 48109DE5 		ldr	r1, [sp, #72]
 457 00b0 F8029FE5 		ldr	r0, .L59+28
 458 00b4 FEFFFFEB 		bl	UnityAssertEqualString
 459              	.LVL45:
 259:D:/Work/DeviceTester/amazon-freertos/tests/common/greengrass\aws_test_greengrass_discovery.c ****         TEST_ASSERT_EQUAL_STRING( cCERTIFICATE, xHostAddressData.pcCertificate );
 460              		.loc 1 259 0
 461 00b8 033100E3 		movw	r3, #259
 462 00bc 0420A0E1 		mov	r2, r4
 463 00c0 4C109DE5 		ldr	r1, [sp, #76]
 464 00c4 E8029FE5 		ldr	r0, .L59+32
 465 00c8 FEFFFFEB 		bl	UnityAssertEqualString
 466              	.LVL46:
 260:D:/Work/DeviceTester/amazon-freertos/tests/common/greengrass\aws_test_greengrass_discovery.c ****         TEST_ASSERT_EQUAL_INT32( strlen( cCERTIFICATE ) + 1, xHostAddressData.ulCertificateSize );
 467              		.loc 1 260 0
 468 00cc 00508DE5 		str	r5, [sp]
 469 00d0 413FA0E3 		mov	r3, #260
 261:D:/Work/DeviceTester/amazon-freertos/tests/common/greengrass\aws_test_greengrass_discovery.c **** 
 262:D:/Work/DeviceTester/amazon-freertos/tests/common/greengrass\aws_test_greengrass_discovery.c ****         xAutoSearchFlag = pdTRUE;
 263:D:/Work/DeviceTester/amazon-freertos/tests/common/greengrass\aws_test_greengrass_discovery.c ****         xStatus = GGD_JSONRequestStart( &xSocket );
 470              		.loc 1 263 0
 471 00d4 DC529FE5 		ldr	r5, .L59+36
 260:D:/Work/DeviceTester/amazon-freertos/tests/common/greengrass\aws_test_greengrass_discovery.c ****         TEST_ASSERT_EQUAL_INT32( strlen( cCERTIFICATE ) + 1, xHostAddressData.ulCertificateSize );
 472              		.loc 1 260 0
 473 00d8 0420A0E1 		mov	r2, r4
 474 00dc 50109DE5 		ldr	r1, [sp, #80]
 475 00e0 C50500E3 		movw	r0, #1477
 476 00e4 FEFFFFEB 		bl	UnityAssertEqualNumber
 477              	.LVL47:
 478              		.loc 1 263 0
 479 00e8 0500A0E1 		mov	r0, r5
 480 00ec FEFFFFEB 		bl	GGD_JSONRequestStart
 481              	.LVL48:
 264:D:/Work/DeviceTester/amazon-freertos/tests/common/greengrass\aws_test_greengrass_discovery.c **** 
 265:D:/Work/DeviceTester/amazon-freertos/tests/common/greengrass\aws_test_greengrass_discovery.c ****         if( xStatus == pdPASS )
 482              		.loc 1 265 0
 483 00f0 010050E3 		cmp	r0, #1
 484 00f4 0E00001A 		bne	.L49
 266:D:/Work/DeviceTester/amazon-freertos/tests/common/greengrass\aws_test_greengrass_discovery.c ****         {
 267:D:/Work/DeviceTester/amazon-freertos/tests/common/greengrass\aws_test_greengrass_discovery.c ****             xStatus = GGD_JSONRequestGetSize( &xSocket, &ulJSONFileSize );
 485              		.loc 1 267 0
 486 00f8 10108DE2 		add	r1, sp, #16
 487 00fc 0500A0E1 		mov	r0, r5
 488              	.LVL49:
 489 0100 FEFFFFEB 		bl	GGD_JSONRequestGetSize
 490              	.LVL50:
 268:D:/Work/DeviceTester/amazon-freertos/tests/common/greengrass\aws_test_greengrass_discovery.c ****         }
 269:D:/Work/DeviceTester/amazon-freertos/tests/common/greengrass\aws_test_greengrass_discovery.c **** 
 270:D:/Work/DeviceTester/amazon-freertos/tests/common/greengrass\aws_test_greengrass_discovery.c ****         if( xStatus == pdPASS )
 491              		.loc 1 270 0
 492 0104 010050E3 		cmp	r0, #1
 493 0108 0900001A 		bne	.L49
 271:D:/Work/DeviceTester/amazon-freertos/tests/common/greengrass\aws_test_greengrass_discovery.c ****         {
 272:D:/Work/DeviceTester/amazon-freertos/tests/common/greengrass\aws_test_greengrass_discovery.c ****             ulByteRead = 0;
 273:D:/Work/DeviceTester/amazon-freertos/tests/common/greengrass\aws_test_greengrass_discovery.c ****             xStatus = GGD_JSONRequestGetFile( &xSocket,
 494              		.loc 1 273 0
 495 010c 10209DE5 		ldr	r2, [sp, #16]
 272:D:/Work/DeviceTester/amazon-freertos/tests/common/greengrass\aws_test_greengrass_discovery.c ****             xStatus = GGD_JSONRequestGetFile( &xSocket,
 496              		.loc 1 272 0
 497 0110 58308DE2 		add	r3, sp, #88
 498 0114 444023E5 		str	r4, [r3, #-68]!
 499              		.loc 1 273 0
 500 0118 0610A0E1 		mov	r1, r6
 501 011c 0500A0E1 		mov	r0, r5
 502              	.LVL51:
 503 0120 04208DE5 		str	r2, [sp, #4]
 504 0124 18208DE2 		add	r2, sp, #24
 505 0128 00208DE5 		str	r2, [sp]
 506 012c FA2EA0E3 		mov	r2, #4000
 507 0130 FEFFFFEB 		bl	GGD_JSONRequestGetFile
 508              	.LVL52:
 509              	.L49:
 274:D:/Work/DeviceTester/amazon-freertos/tests/common/greengrass\aws_test_greengrass_discovery.c ****                                               cBuffer,
 275:D:/Work/DeviceTester/amazon-freertos/tests/common/greengrass\aws_test_greengrass_discovery.c ****                                               ulBufferSize,
 276:D:/Work/DeviceTester/amazon-freertos/tests/common/greengrass\aws_test_greengrass_discovery.c ****                                               &ulByteRead,
 277:D:/Work/DeviceTester/amazon-freertos/tests/common/greengrass\aws_test_greengrass_discovery.c ****                                               &xJSONFileRetrieveCompleted,
 278:D:/Work/DeviceTester/amazon-freertos/tests/common/greengrass\aws_test_greengrass_discovery.c ****                                               ulJSONFileSize );
 279:D:/Work/DeviceTester/amazon-freertos/tests/common/greengrass\aws_test_greengrass_discovery.c ****         }
 280:D:/Work/DeviceTester/amazon-freertos/tests/common/greengrass\aws_test_greengrass_discovery.c **** 
 281:D:/Work/DeviceTester/amazon-freertos/tests/common/greengrass\aws_test_greengrass_discovery.c ****         TEST_ASSERT_EQUAL_INT32( pdPASS, xStatus );
 282:D:/Work/DeviceTester/amazon-freertos/tests/common/greengrass\aws_test_greengrass_discovery.c **** 
 283:D:/Work/DeviceTester/amazon-freertos/tests/common/greengrass\aws_test_greengrass_discovery.c ****         xStatus = GGD_GetIPandCertificateFromJSON( cBuffer, /*lint !e971 can use char without signe
 510              		.loc 1 283 0
 511 0134 64529FE5 		ldr	r5, .L59+12
 281:D:/Work/DeviceTester/amazon-freertos/tests/common/greengrass\aws_test_greengrass_discovery.c **** 
 512              		.loc 1 281 0
 513 0138 1460A0E3 		mov	r6, #20
 514 013c 0010A0E1 		mov	r1, r0
 515              		.loc 1 283 0
 516 0140 0140A0E3 		mov	r4, #1
 284:D:/Work/DeviceTester/amazon-freertos/tests/common/greengrass\aws_test_greengrass_discovery.c ****                                                    ulJSONFileSize,
 285:D:/Work/DeviceTester/amazon-freertos/tests/common/greengrass\aws_test_greengrass_discovery.c ****                                                    &xHostParameters,
 286:D:/Work/DeviceTester/amazon-freertos/tests/common/greengrass\aws_test_greengrass_discovery.c ****                                                    &xHostAddressData,
 287:D:/Work/DeviceTester/amazon-freertos/tests/common/greengrass\aws_test_greengrass_discovery.c ****                                                    xAutoSearchFlag );
 288:D:/Work/DeviceTester/amazon-freertos/tests/common/greengrass\aws_test_greengrass_discovery.c ****         TEST_ASSERT_EQUAL_INT32( pdPASS, xStatus );
 289:D:/Work/DeviceTester/amazon-freertos/tests/common/greengrass\aws_test_greengrass_discovery.c ****         /** @}*/
 290:D:/Work/DeviceTester/amazon-freertos/tests/common/greengrass\aws_test_greengrass_discovery.c **** 
 291:D:/Work/DeviceTester/amazon-freertos/tests/common/greengrass\aws_test_greengrass_discovery.c ****         /** @brief Check manual connect fails if host parameters not found in JSON
 292:D:/Work/DeviceTester/amazon-freertos/tests/common/greengrass\aws_test_greengrass_discovery.c ****          *  @{
 293:D:/Work/DeviceTester/amazon-freertos/tests/common/greengrass\aws_test_greengrass_discovery.c ****          */
 294:D:/Work/DeviceTester/amazon-freertos/tests/common/greengrass\aws_test_greengrass_discovery.c ****         xAutoSearchFlag = pdFALSE;
 295:D:/Work/DeviceTester/amazon-freertos/tests/common/greengrass\aws_test_greengrass_discovery.c ****         memcpy( cBuffer, cJSON_FILE, strlen( cJSON_FILE ) );
 517              		.loc 1 295 0
 518 0144 58729FE5 		ldr	r7, .L59+16
 281:D:/Work/DeviceTester/amazon-freertos/tests/common/greengrass\aws_test_greengrass_discovery.c **** 
 519              		.loc 1 281 0
 520 0148 193100E3 		movw	r3, #281
 521 014c 0020A0E3 		mov	r2, #0
 522 0150 0100A0E3 		mov	r0, #1
 523              	.LVL53:
 524 0154 00608DE5 		str	r6, [sp]
 525              		.loc 1 295 0
 526 0158 918800E3 		movw	r8, #2193
 281:D:/Work/DeviceTester/amazon-freertos/tests/common/greengrass\aws_test_greengrass_discovery.c **** 
 527              		.loc 1 281 0
 528 015c FEFFFFEB 		bl	UnityAssertEqualNumber
 529              	.LVL54:
 283:D:/Work/DeviceTester/amazon-freertos/tests/common/greengrass\aws_test_greengrass_discovery.c ****                                                    ulJSONFileSize,
 530              		.loc 1 283 0
 531 0160 00408DE5 		str	r4, [sp]
 532 0164 48308DE2 		add	r3, sp, #72
 533 0168 1C208DE2 		add	r2, sp, #28
 534 016c 10109DE5 		ldr	r1, [sp, #16]
 535 0170 0500A0E1 		mov	r0, r5
 296:D:/Work/DeviceTester/amazon-freertos/tests/common/greengrass\aws_test_greengrass_discovery.c ****         xHostParameters.pcCoreAddress = ( char * ) cMY_CORE_ARN;
 536              		.loc 1 296 0
 537 0174 2CA29FE5 		ldr	r10, .L59+20
 283:D:/Work/DeviceTester/amazon-freertos/tests/common/greengrass\aws_test_greengrass_discovery.c ****                                                    ulJSONFileSize,
 538              		.loc 1 283 0
 539 0178 FEFFFFEB 		bl	GGD_GetIPandCertificateFromJSON
 540              	.LVL55:
 288:D:/Work/DeviceTester/amazon-freertos/tests/common/greengrass\aws_test_greengrass_discovery.c ****         /** @}*/
 541              		.loc 1 288 0
 542 017c 123EA0E3 		mov	r3, #288
 543 0180 0010A0E1 		mov	r1, r0
 544 0184 0020A0E3 		mov	r2, #0
 545 0188 0400A0E1 		mov	r0, r4
 546              	.LVL56:
 547 018c 00608DE5 		str	r6, [sp]
 297:D:/Work/DeviceTester/amazon-freertos/tests/common/greengrass\aws_test_greengrass_discovery.c ****         xHostParameters.pcGroupName = ( char * ) cBadGroupId;
 298:D:/Work/DeviceTester/amazon-freertos/tests/common/greengrass\aws_test_greengrass_discovery.c ****         xHostParameters.ucInterface = 3;
 299:D:/Work/DeviceTester/amazon-freertos/tests/common/greengrass\aws_test_greengrass_discovery.c ****         xStatus = GGD_GetIPandCertificateFromJSON( cBuffer, /*lint !e971 can use char without signe
 548              		.loc 1 299 0
 549 0190 0040A0E3 		mov	r4, #0
 288:D:/Work/DeviceTester/amazon-freertos/tests/common/greengrass\aws_test_greengrass_discovery.c ****         /** @}*/
 550              		.loc 1 288 0
 551 0194 FEFFFFEB 		bl	UnityAssertEqualNumber
 552              	.LVL57:
 295:D:/Work/DeviceTester/amazon-freertos/tests/common/greengrass\aws_test_greengrass_discovery.c ****         xHostParameters.pcCoreAddress = ( char * ) cMY_CORE_ARN;
 553              		.loc 1 295 0
 554 0198 0820A0E1 		mov	r2, r8
 555 019c 0710A0E1 		mov	r1, r7
 556 01a0 0500A0E1 		mov	r0, r5
 298:D:/Work/DeviceTester/amazon-freertos/tests/common/greengrass\aws_test_greengrass_discovery.c ****         xStatus = GGD_GetIPandCertificateFromJSON( cBuffer, /*lint !e971 can use char without signe
 557              		.loc 1 298 0
 558 01a4 03B0A0E3 		mov	fp, #3
 295:D:/Work/DeviceTester/amazon-freertos/tests/common/greengrass\aws_test_greengrass_discovery.c ****         xHostParameters.pcCoreAddress = ( char * ) cMY_CORE_ARN;
 559              		.loc 1 295 0
 560 01a8 FEFFFFEB 		bl	memcpy
 561              	.LVL58:
 297:D:/Work/DeviceTester/amazon-freertos/tests/common/greengrass\aws_test_greengrass_discovery.c ****         xHostParameters.pcGroupName = ( char * ) cBadGroupId;
 562              		.loc 1 297 0
 563 01ac 28308DE2 		add	r3, sp, #40
 564              		.loc 1 299 0
 565 01b0 1C208DE2 		add	r2, sp, #28
 297:D:/Work/DeviceTester/amazon-freertos/tests/common/greengrass\aws_test_greengrass_discovery.c ****         xHostParameters.pcGroupName = ( char * ) cBadGroupId;
 566              		.loc 1 297 0
 567 01b4 1C308DE5 		str	r3, [sp, #28]
 568              		.loc 1 299 0
 569 01b8 0500A0E1 		mov	r0, r5
 570 01bc 48308DE2 		add	r3, sp, #72
 571 01c0 10109DE5 		ldr	r1, [sp, #16]
 572 01c4 00408DE5 		str	r4, [sp]
 296:D:/Work/DeviceTester/amazon-freertos/tests/common/greengrass\aws_test_greengrass_discovery.c ****         xHostParameters.pcGroupName = ( char * ) cBadGroupId;
 573              		.loc 1 296 0
 574 01c8 20A08DE5 		str	r10, [sp, #32]
 298:D:/Work/DeviceTester/amazon-freertos/tests/common/greengrass\aws_test_greengrass_discovery.c ****         xStatus = GGD_GetIPandCertificateFromJSON( cBuffer, /*lint !e971 can use char without signe
 575              		.loc 1 298 0
 576 01cc 24B0CDE5 		strb	fp, [sp, #36]
 577              		.loc 1 299 0
 578 01d0 FEFFFFEB 		bl	GGD_GetIPandCertificateFromJSON
 579              	.LVL59:
 300:D:/Work/DeviceTester/amazon-freertos/tests/common/greengrass\aws_test_greengrass_discovery.c ****                                                    ulJSONFileSize,
 301:D:/Work/DeviceTester/amazon-freertos/tests/common/greengrass\aws_test_greengrass_discovery.c ****                                                    &xHostParameters,
 302:D:/Work/DeviceTester/amazon-freertos/tests/common/greengrass\aws_test_greengrass_discovery.c ****                                                    &xHostAddressData,
 303:D:/Work/DeviceTester/amazon-freertos/tests/common/greengrass\aws_test_greengrass_discovery.c ****                                                    xAutoSearchFlag );
 304:D:/Work/DeviceTester/amazon-freertos/tests/common/greengrass\aws_test_greengrass_discovery.c ****         TEST_ASSERT_EQUAL_INT32( pdFAIL, xStatus );
 580              		.loc 1 304 0
 581 01d4 133EA0E3 		mov	r3, #304
 582 01d8 0010A0E1 		mov	r1, r0
 583 01dc 0420A0E1 		mov	r2, r4
 584 01e0 0400A0E1 		mov	r0, r4
 585              	.LVL60:
 586 01e4 00608DE5 		str	r6, [sp]
 587 01e8 FEFFFFEB 		bl	UnityAssertEqualNumber
 588              	.LVL61:
 305:D:/Work/DeviceTester/amazon-freertos/tests/common/greengrass\aws_test_greengrass_discovery.c **** 
 306:D:/Work/DeviceTester/amazon-freertos/tests/common/greengrass\aws_test_greengrass_discovery.c ****         xAutoSearchFlag = pdFALSE;
 307:D:/Work/DeviceTester/amazon-freertos/tests/common/greengrass\aws_test_greengrass_discovery.c ****         memcpy( cBuffer, cJSON_FILE, strlen( cJSON_FILE ) );
 308:D:/Work/DeviceTester/amazon-freertos/tests/common/greengrass\aws_test_greengrass_discovery.c ****         xHostParameters.pcCoreAddress = ( char * ) cBadCoreARN;
 309:D:/Work/DeviceTester/amazon-freertos/tests/common/greengrass\aws_test_greengrass_discovery.c ****         xHostParameters.pcGroupName = ( char * ) cMyGroupID;
 589              		.loc 1 309 0
 590 01ec B8919FE5 		ldr	r9, .L59+24
 307:D:/Work/DeviceTester/amazon-freertos/tests/common/greengrass\aws_test_greengrass_discovery.c ****         xHostParameters.pcCoreAddress = ( char * ) cBadCoreARN;
 591              		.loc 1 307 0
 592 01f0 0820A0E1 		mov	r2, r8
 593 01f4 0710A0E1 		mov	r1, r7
 594 01f8 0500A0E1 		mov	r0, r5
 595 01fc FEFFFFEB 		bl	memcpy
 596              	.LVL62:
 308:D:/Work/DeviceTester/amazon-freertos/tests/common/greengrass\aws_test_greengrass_discovery.c ****         xHostParameters.pcGroupName = ( char * ) cMyGroupID;
 597              		.loc 1 308 0
 598 0200 38308DE2 		add	r3, sp, #56
 310:D:/Work/DeviceTester/amazon-freertos/tests/common/greengrass\aws_test_greengrass_discovery.c ****         xHostParameters.ucInterface = 3;
 311:D:/Work/DeviceTester/amazon-freertos/tests/common/greengrass\aws_test_greengrass_discovery.c ****         xStatus = GGD_GetIPandCertificateFromJSON( cBuffer, /*lint !e971 can use char without signe
 599              		.loc 1 311 0
 600 0204 1C208DE2 		add	r2, sp, #28
 308:D:/Work/DeviceTester/amazon-freertos/tests/common/greengrass\aws_test_greengrass_discovery.c ****         xHostParameters.pcGroupName = ( char * ) cMyGroupID;
 601              		.loc 1 308 0
 602 0208 20308DE5 		str	r3, [sp, #32]
 603              		.loc 1 311 0
 604 020c 0500A0E1 		mov	r0, r5
 605 0210 48308DE2 		add	r3, sp, #72
 606 0214 10109DE5 		ldr	r1, [sp, #16]
 607 0218 00408DE5 		str	r4, [sp]
 309:D:/Work/DeviceTester/amazon-freertos/tests/common/greengrass\aws_test_greengrass_discovery.c ****         xHostParameters.ucInterface = 3;
 608              		.loc 1 309 0
 609 021c 1C908DE5 		str	r9, [sp, #28]
 310:D:/Work/DeviceTester/amazon-freertos/tests/common/greengrass\aws_test_greengrass_discovery.c ****         xHostParameters.ucInterface = 3;
 610              		.loc 1 310 0
 611 0220 24B0CDE5 		strb	fp, [sp, #36]
 612              		.loc 1 311 0
 613 0224 FEFFFFEB 		bl	GGD_GetIPandCertificateFromJSON
 614              	.LVL63:
 312:D:/Work/DeviceTester/amazon-freertos/tests/common/greengrass\aws_test_greengrass_discovery.c ****                                                    ulJSONFileSize,
 313:D:/Work/DeviceTester/amazon-freertos/tests/common/greengrass\aws_test_greengrass_discovery.c ****                                                    &xHostParameters,
 314:D:/Work/DeviceTester/amazon-freertos/tests/common/greengrass\aws_test_greengrass_discovery.c ****                                                    &xHostAddressData,
 315:D:/Work/DeviceTester/amazon-freertos/tests/common/greengrass\aws_test_greengrass_discovery.c ****                                                    xAutoSearchFlag );
 316:D:/Work/DeviceTester/amazon-freertos/tests/common/greengrass\aws_test_greengrass_discovery.c ****         TEST_ASSERT_EQUAL_INT32( pdFAIL, xStatus );
 615              		.loc 1 316 0
 616 0228 4F3FA0E3 		mov	r3, #316
 617 022c 0010A0E1 		mov	r1, r0
 618 0230 0420A0E1 		mov	r2, r4
 619 0234 0400A0E1 		mov	r0, r4
 620              	.LVL64:
 621 0238 00608DE5 		str	r6, [sp]
 622 023c FEFFFFEB 		bl	UnityAssertEqualNumber
 623              	.LVL65:
 317:D:/Work/DeviceTester/amazon-freertos/tests/common/greengrass\aws_test_greengrass_discovery.c **** 
 318:D:/Work/DeviceTester/amazon-freertos/tests/common/greengrass\aws_test_greengrass_discovery.c ****         xAutoSearchFlag = pdFALSE;
 319:D:/Work/DeviceTester/amazon-freertos/tests/common/greengrass\aws_test_greengrass_discovery.c ****         memcpy( cBuffer, cJSON_FILE, strlen( cJSON_FILE ) );
 624              		.loc 1 319 0
 625 0240 0820A0E1 		mov	r2, r8
 626 0244 0710A0E1 		mov	r1, r7
 627 0248 0500A0E1 		mov	r0, r5
 628 024c FEFFFFEB 		bl	memcpy
 629              	.LVL66:
 320:D:/Work/DeviceTester/amazon-freertos/tests/common/greengrass\aws_test_greengrass_discovery.c ****         xHostParameters.pcCoreAddress = ( char * ) cMY_CORE_ARN;
 321:D:/Work/DeviceTester/amazon-freertos/tests/common/greengrass\aws_test_greengrass_discovery.c ****         xHostParameters.pcGroupName = ( char * ) cMyGroupID;
 322:D:/Work/DeviceTester/amazon-freertos/tests/common/greengrass\aws_test_greengrass_discovery.c ****         xHostParameters.ucInterface = 100;
 630              		.loc 1 322 0
 631 0250 6430A0E3 		mov	r3, #100
 323:D:/Work/DeviceTester/amazon-freertos/tests/common/greengrass\aws_test_greengrass_discovery.c ****         xStatus = GGD_GetIPandCertificateFromJSON( cBuffer, /*lint !e971 can use char without signe
 632              		.loc 1 323 0
 633 0254 1C208DE2 		add	r2, sp, #28
 322:D:/Work/DeviceTester/amazon-freertos/tests/common/greengrass\aws_test_greengrass_discovery.c ****         xStatus = GGD_GetIPandCertificateFromJSON( cBuffer, /*lint !e971 can use char without signe
 634              		.loc 1 322 0
 635 0258 2430CDE5 		strb	r3, [sp, #36]
 636              		.loc 1 323 0
 637 025c 0500A0E1 		mov	r0, r5
 638 0260 48308DE2 		add	r3, sp, #72
 639 0264 10109DE5 		ldr	r1, [sp, #16]
 640 0268 00408DE5 		str	r4, [sp]
 320:D:/Work/DeviceTester/amazon-freertos/tests/common/greengrass\aws_test_greengrass_discovery.c ****         xHostParameters.pcCoreAddress = ( char * ) cMY_CORE_ARN;
 641              		.loc 1 320 0
 642 026c 20A08DE5 		str	r10, [sp, #32]
 321:D:/Work/DeviceTester/amazon-freertos/tests/common/greengrass\aws_test_greengrass_discovery.c ****         xHostParameters.ucInterface = 100;
 643              		.loc 1 321 0
 644 0270 1C908DE5 		str	r9, [sp, #28]
 645              		.loc 1 323 0
 646 0274 FEFFFFEB 		bl	GGD_GetIPandCertificateFromJSON
 647              	.LVL67:
 324:D:/Work/DeviceTester/amazon-freertos/tests/common/greengrass\aws_test_greengrass_discovery.c ****                                                    ulJSONFileSize,
 325:D:/Work/DeviceTester/amazon-freertos/tests/common/greengrass\aws_test_greengrass_discovery.c ****                                                    &xHostParameters,
 326:D:/Work/DeviceTester/amazon-freertos/tests/common/greengrass\aws_test_greengrass_discovery.c ****                                                    &xHostAddressData,
 327:D:/Work/DeviceTester/amazon-freertos/tests/common/greengrass\aws_test_greengrass_discovery.c ****                                                    xAutoSearchFlag );
 328:D:/Work/DeviceTester/amazon-freertos/tests/common/greengrass\aws_test_greengrass_discovery.c ****         TEST_ASSERT_EQUAL_INT32( pdFAIL, xStatus );
 648              		.loc 1 328 0
 649 0278 00608DE5 		str	r6, [sp]
 650 027c 0010A0E1 		mov	r1, r0
 651 0280 523FA0E3 		mov	r3, #328
 652 0284 0420A0E1 		mov	r2, r4
 653 0288 0400A0E1 		mov	r0, r4
 654              	.LVL68:
 655 028c FEFFFFEB 		bl	UnityAssertEqualNumber
 656              	.LVL69:
 657              	.L51:
 329:D:/Work/DeviceTester/amazon-freertos/tests/common/greengrass\aws_test_greengrass_discovery.c ****         /** @}*/
 330:D:/Work/DeviceTester/amazon-freertos/tests/common/greengrass\aws_test_greengrass_discovery.c ****     }
 331:D:/Work/DeviceTester/amazon-freertos/tests/common/greengrass\aws_test_greengrass_discovery.c ****     else
 332:D:/Work/DeviceTester/amazon-freertos/tests/common/greengrass\aws_test_greengrass_discovery.c ****     {
 333:D:/Work/DeviceTester/amazon-freertos/tests/common/greengrass\aws_test_greengrass_discovery.c ****         TEST_FAIL();
 334:D:/Work/DeviceTester/amazon-freertos/tests/common/greengrass\aws_test_greengrass_discovery.c ****     }
 335:D:/Work/DeviceTester/amazon-freertos/tests/common/greengrass\aws_test_greengrass_discovery.c **** 
 336:D:/Work/DeviceTester/amazon-freertos/tests/common/greengrass\aws_test_greengrass_discovery.c ****     /** @brief Check stability if NULL pointers are passed.
 337:D:/Work/DeviceTester/amazon-freertos/tests/common/greengrass\aws_test_greengrass_discovery.c ****      *
 338:D:/Work/DeviceTester/amazon-freertos/tests/common/greengrass\aws_test_greengrass_discovery.c ****      *  @{
 339:D:/Work/DeviceTester/amazon-freertos/tests/common/greengrass\aws_test_greengrass_discovery.c ****      */
 340:D:/Work/DeviceTester/amazon-freertos/tests/common/greengrass\aws_test_greengrass_discovery.c ****     xAutoSearchFlag = pdFALSE;
 658              		.loc 1 340 0
 659 0290 0030A0E3 		mov	r3, #0
 341:D:/Work/DeviceTester/amazon-freertos/tests/common/greengrass\aws_test_greengrass_discovery.c **** 
 342:D:/Work/DeviceTester/amazon-freertos/tests/common/greengrass\aws_test_greengrass_discovery.c ****     if( TEST_PROTECT() )
 660              		.loc 1 342 0
 661 0294 00019FE5 		ldr	r0, .L59+8
 340:D:/Work/DeviceTester/amazon-freertos/tests/common/greengrass\aws_test_greengrass_discovery.c **** 
 662              		.loc 1 340 0
 663 0298 0C308DE5 		str	r3, [sp, #12]
 664              	.LVL70:
 665              		.loc 1 342 0
 666 029c FEFFFFEB 		bl	setjmp
 667              	.LVL71:
 668 02a0 003050E2 		subs	r3, r0, #0
 669 02a4 0E00001A 		bne	.L52
 343:D:/Work/DeviceTester/amazon-freertos/tests/common/greengrass\aws_test_greengrass_discovery.c ****     {
 344:D:/Work/DeviceTester/amazon-freertos/tests/common/greengrass\aws_test_greengrass_discovery.c ****         xHostParameters.pcCoreAddress = ( char * ) cMY_CORE_ARN;
 670              		.loc 1 344 0
 671 02a8 F8209FE5 		ldr	r2, .L59+20
 345:D:/Work/DeviceTester/amazon-freertos/tests/common/greengrass\aws_test_greengrass_discovery.c ****         xHostParameters.pcGroupName = ( char * ) cMyGroupID;
 346:D:/Work/DeviceTester/amazon-freertos/tests/common/greengrass\aws_test_greengrass_discovery.c ****         xHostParameters.ucInterface = 3;
 347:D:/Work/DeviceTester/amazon-freertos/tests/common/greengrass\aws_test_greengrass_discovery.c ****         xAutoSearchFlag = pdFALSE;
 672              		.loc 1 347 0
 673 02ac 0C308DE5 		str	r3, [sp, #12]
 348:D:/Work/DeviceTester/amazon-freertos/tests/common/greengrass\aws_test_greengrass_discovery.c ****         xStatus = GGD_GetIPandCertificateFromJSON( NULL, /*lint !e971 can use char without signed/u
 674              		.loc 1 348 0
 675 02b0 00308DE5 		str	r3, [sp]
 676 02b4 48308DE2 		add	r3, sp, #72
 344:D:/Work/DeviceTester/amazon-freertos/tests/common/greengrass\aws_test_greengrass_discovery.c ****         xHostParameters.pcGroupName = ( char * ) cMyGroupID;
 677              		.loc 1 344 0
 678 02b8 20208DE5 		str	r2, [sp, #32]
 345:D:/Work/DeviceTester/amazon-freertos/tests/common/greengrass\aws_test_greengrass_discovery.c ****         xHostParameters.pcGroupName = ( char * ) cMyGroupID;
 679              		.loc 1 345 0
 680 02bc E8209FE5 		ldr	r2, .L59+24
 681              		.loc 1 348 0
 682 02c0 10109DE5 		ldr	r1, [sp, #16]
 345:D:/Work/DeviceTester/amazon-freertos/tests/common/greengrass\aws_test_greengrass_discovery.c ****         xHostParameters.pcGroupName = ( char * ) cMyGroupID;
 683              		.loc 1 345 0
 684 02c4 1C208DE5 		str	r2, [sp, #28]
 346:D:/Work/DeviceTester/amazon-freertos/tests/common/greengrass\aws_test_greengrass_discovery.c ****         xAutoSearchFlag = pdFALSE;
 685              		.loc 1 346 0
 686 02c8 0320A0E3 		mov	r2, #3
 687 02cc 2420CDE5 		strb	r2, [sp, #36]
 688              		.loc 1 348 0
 689 02d0 1C208DE2 		add	r2, sp, #28
 690 02d4 FEFFFFEB 		bl	GGD_GetIPandCertificateFromJSON
 691              	.LVL72:
 349:D:/Work/DeviceTester/amazon-freertos/tests/common/greengrass\aws_test_greengrass_discovery.c ****                                                    ulJSONFileSize,
 350:D:/Work/DeviceTester/amazon-freertos/tests/common/greengrass\aws_test_greengrass_discovery.c ****                                                    &xHostParameters,
 351:D:/Work/DeviceTester/amazon-freertos/tests/common/greengrass\aws_test_greengrass_discovery.c ****                                                    &xHostAddressData,
 352:D:/Work/DeviceTester/amazon-freertos/tests/common/greengrass\aws_test_greengrass_discovery.c ****                                                    xAutoSearchFlag );
 353:D:/Work/DeviceTester/amazon-freertos/tests/common/greengrass\aws_test_greengrass_discovery.c ****         TEST_FAIL();
 692              		.loc 1 353 0
 693 02d8 611100E3 		movw	r1, #353
 694 02dc 0C009DE5 		ldr	r0, [sp, #12]
 695 02e0 FEFFFFEB 		bl	UnityFail
 696              	.LVL73:
 697              	.L52:
 354:D:/Work/DeviceTester/amazon-freertos/tests/common/greengrass\aws_test_greengrass_discovery.c ****     }
 355:D:/Work/DeviceTester/amazon-freertos/tests/common/greengrass\aws_test_greengrass_discovery.c **** 
 356:D:/Work/DeviceTester/amazon-freertos/tests/common/greengrass\aws_test_greengrass_discovery.c ****     if( TEST_PROTECT() )
 698              		.loc 1 356 0
 699 02e4 B0009FE5 		ldr	r0, .L59+8
 700 02e8 FEFFFFEB 		bl	setjmp
 701              	.LVL74:
 702 02ec 004050E2 		subs	r4, r0, #0
 703 02f0 0E00001A 		bne	.L53
 357:D:/Work/DeviceTester/amazon-freertos/tests/common/greengrass\aws_test_greengrass_discovery.c ****     {
 358:D:/Work/DeviceTester/amazon-freertos/tests/common/greengrass\aws_test_greengrass_discovery.c ****         memcpy( cBuffer, cJSON_FILE, strlen( cJSON_FILE ) );
 704              		.loc 1 358 0
 705 02f4 A4509FE5 		ldr	r5, .L59+12
 706 02f8 912800E3 		movw	r2, #2193
 707 02fc A0109FE5 		ldr	r1, .L59+16
 708 0300 0500A0E1 		mov	r0, r5
 709 0304 FEFFFFEB 		bl	memcpy
 710              	.LVL75:
 359:D:/Work/DeviceTester/amazon-freertos/tests/common/greengrass\aws_test_greengrass_discovery.c ****         xStatus = GGD_GetIPandCertificateFromJSON( cBuffer, /*lint !e971 can use char without signe
 711              		.loc 1 359 0
 712 0308 0C309DE5 		ldr	r3, [sp, #12]
 713 030c 0420A0E1 		mov	r2, r4
 714 0310 10109DE5 		ldr	r1, [sp, #16]
 715 0314 0500A0E1 		mov	r0, r5
 716 0318 00308DE5 		str	r3, [sp]
 717 031c 48308DE2 		add	r3, sp, #72
 718 0320 FEFFFFEB 		bl	GGD_GetIPandCertificateFromJSON
 719              	.LVL76:
 360:D:/Work/DeviceTester/amazon-freertos/tests/common/greengrass\aws_test_greengrass_discovery.c ****                                                    ulJSONFileSize,
 361:D:/Work/DeviceTester/amazon-freertos/tests/common/greengrass\aws_test_greengrass_discovery.c ****                                                    NULL,
 362:D:/Work/DeviceTester/amazon-freertos/tests/common/greengrass\aws_test_greengrass_discovery.c ****                                                    &xHostAddressData,
 363:D:/Work/DeviceTester/amazon-freertos/tests/common/greengrass\aws_test_greengrass_discovery.c ****                                                    xAutoSearchFlag );
 364:D:/Work/DeviceTester/amazon-freertos/tests/common/greengrass\aws_test_greengrass_discovery.c ****         TEST_FAIL();
 720              		.loc 1 364 0
 721 0324 5B1FA0E3 		mov	r1, #364
 722 0328 0400A0E1 		mov	r0, r4
 723 032c FEFFFFEB 		bl	UnityFail
 724              	.LVL77:
 725              	.L53:
 365:D:/Work/DeviceTester/amazon-freertos/tests/common/greengrass\aws_test_greengrass_discovery.c ****     }
 366:D:/Work/DeviceTester/amazon-freertos/tests/common/greengrass\aws_test_greengrass_discovery.c **** 
 367:D:/Work/DeviceTester/amazon-freertos/tests/common/greengrass\aws_test_greengrass_discovery.c ****     if( TEST_PROTECT() )
 726              		.loc 1 367 0
 727 0330 64009FE5 		ldr	r0, .L59+8
 728 0334 FEFFFFEB 		bl	setjmp
 729              	.LVL78:
 730 0338 004050E2 		subs	r4, r0, #0
 731 033c 0E00001A 		bne	.L46
 368:D:/Work/DeviceTester/amazon-freertos/tests/common/greengrass\aws_test_greengrass_discovery.c ****     {
 369:D:/Work/DeviceTester/amazon-freertos/tests/common/greengrass\aws_test_greengrass_discovery.c ****         memcpy( cBuffer, cJSON_FILE, strlen( cJSON_FILE ) );
 732              		.loc 1 369 0
 733 0340 58509FE5 		ldr	r5, .L59+12
 734 0344 912800E3 		movw	r2, #2193
 735 0348 54109FE5 		ldr	r1, .L59+16
 736 034c 0500A0E1 		mov	r0, r5
 737 0350 FEFFFFEB 		bl	memcpy
 738              	.LVL79:
 370:D:/Work/DeviceTester/amazon-freertos/tests/common/greengrass\aws_test_greengrass_discovery.c ****         xStatus = GGD_GetIPandCertificateFromJSON( cBuffer, /*lint !e971 can use char without signe
 739              		.loc 1 370 0
 740 0354 0C309DE5 		ldr	r3, [sp, #12]
 741 0358 1C208DE2 		add	r2, sp, #28
 742 035c 10109DE5 		ldr	r1, [sp, #16]
 743 0360 0500A0E1 		mov	r0, r5
 744 0364 00308DE5 		str	r3, [sp]
 745 0368 0430A0E1 		mov	r3, r4
 746 036c FEFFFFEB 		bl	GGD_GetIPandCertificateFromJSON
 747              	.LVL80:
 371:D:/Work/DeviceTester/amazon-freertos/tests/common/greengrass\aws_test_greengrass_discovery.c ****                                                    ulJSONFileSize,
 372:D:/Work/DeviceTester/amazon-freertos/tests/common/greengrass\aws_test_greengrass_discovery.c ****                                                    &xHostParameters,
 373:D:/Work/DeviceTester/amazon-freertos/tests/common/greengrass\aws_test_greengrass_discovery.c ****                                                    NULL,
 374:D:/Work/DeviceTester/amazon-freertos/tests/common/greengrass\aws_test_greengrass_discovery.c ****                                                    xAutoSearchFlag );
 375:D:/Work/DeviceTester/amazon-freertos/tests/common/greengrass\aws_test_greengrass_discovery.c ****         TEST_FAIL();
 748              		.loc 1 375 0
 749 0370 771100E3 		movw	r1, #375
 750 0374 0400A0E1 		mov	r0, r4
 751 0378 FEFFFFEB 		bl	UnityFail
 752              	.LVL81:
 753              	.L46:
 376:D:/Work/DeviceTester/amazon-freertos/tests/common/greengrass\aws_test_greengrass_discovery.c ****     }
 377:D:/Work/DeviceTester/amazon-freertos/tests/common/greengrass\aws_test_greengrass_discovery.c **** 
 378:D:/Work/DeviceTester/amazon-freertos/tests/common/greengrass\aws_test_greengrass_discovery.c ****     /** @}*/
 379:D:/Work/DeviceTester/amazon-freertos/tests/common/greengrass\aws_test_greengrass_discovery.c **** }
 754              		.loc 1 379 0
 755 037c 5CD08DE2 		add	sp, sp, #92
 756              		.cfi_remember_state
 757              		.cfi_def_cfa_offset 36
 758              		@ sp needed
 759 0380 F08FBDE8 		pop	{r4, r5, r6, r7, r8, r9, r10, fp, pc}
 760              	.LVL82:
 761              	.L56:
 762              		.cfi_restore_state
 333:D:/Work/DeviceTester/amazon-freertos/tests/common/greengrass\aws_test_greengrass_discovery.c ****     }
 763              		.loc 1 333 0
 764 0384 4D1100E3 		movw	r1, #333
 765 0388 0000A0E3 		mov	r0, #0
 766 038c FEFFFFEB 		bl	UnityFail
 767              	.LVL83:
 768 0390 BEFFFFEA 		b	.L51
 769              	.L60:
 770              		.align	2
 771              	.L59:
 772 0394 00000000 		.word	.LC4
 773 0398 0D000000 		.word	.LC5
 774 039c 28000000 		.word	Unity+40
 775 03a0 00000000 		.word	cBuffer
 776 03a4 00000000 		.word	.LANCHOR2
 777 03a8 00000000 		.word	.LANCHOR3
 778 03ac 00000000 		.word	.LANCHOR4
 779 03b0 00000000 		.word	.LANCHOR5
 780 03b4 00000000 		.word	.LANCHOR6
 781 03b8 00000000 		.word	.LANCHOR0
 782              		.cfi_endproc
 783              	.LFE11:
 785              		.section	.text.TEST_Full_GGD_JSONRequestGetFile_,"ax",%progbits
 786              		.align	2
 787              		.global	TEST_Full_GGD_JSONRequestGetFile_
 788              		.syntax unified
 789              		.arm
 790              		.fpu neon
 792              	TEST_Full_GGD_JSONRequestGetFile_:
 793              	.LFB25:
 380:D:/Work/DeviceTester/amazon-freertos/tests/common/greengrass\aws_test_greengrass_discovery.c **** 
 381:D:/Work/DeviceTester/amazon-freertos/tests/common/greengrass\aws_test_greengrass_discovery.c **** TEST( Full_GGD, GetCore )
 382:D:/Work/DeviceTester/amazon-freertos/tests/common/greengrass\aws_test_greengrass_discovery.c **** {
 383:D:/Work/DeviceTester/amazon-freertos/tests/common/greengrass\aws_test_greengrass_discovery.c ****     BaseType_t xStatus;
 384:D:/Work/DeviceTester/amazon-freertos/tests/common/greengrass\aws_test_greengrass_discovery.c ****     BaseType_t xAutoConnectFlag = pdTRUE;
 385:D:/Work/DeviceTester/amazon-freertos/tests/common/greengrass\aws_test_greengrass_discovery.c ****     int32_t lNbTokens;
 386:D:/Work/DeviceTester/amazon-freertos/tests/common/greengrass\aws_test_greengrass_discovery.c ****     uint32_t ulJSONFileSize = strlen( cJSON_FILE );
 387:D:/Work/DeviceTester/amazon-freertos/tests/common/greengrass\aws_test_greengrass_discovery.c ****     HostParameters_t xHostParameters;
 388:D:/Work/DeviceTester/amazon-freertos/tests/common/greengrass\aws_test_greengrass_discovery.c ****     uint32_t ulTokenIndex;
 389:D:/Work/DeviceTester/amazon-freertos/tests/common/greengrass\aws_test_greengrass_discovery.c ****     jsmn_parser xParser;
 390:D:/Work/DeviceTester/amazon-freertos/tests/common/greengrass\aws_test_greengrass_discovery.c ****     char cBadGroupId[] = "myBadGroupID";
 391:D:/Work/DeviceTester/amazon-freertos/tests/common/greengrass\aws_test_greengrass_discovery.c ****     char cBadCoreARN[] = "myBadCoreARN";
 392:D:/Work/DeviceTester/amazon-freertos/tests/common/greengrass\aws_test_greengrass_discovery.c **** 
 393:D:/Work/DeviceTester/amazon-freertos/tests/common/greengrass\aws_test_greengrass_discovery.c ****     if( TEST_PROTECT() )
 394:D:/Work/DeviceTester/amazon-freertos/tests/common/greengrass\aws_test_greengrass_discovery.c ****     {
 395:D:/Work/DeviceTester/amazon-freertos/tests/common/greengrass\aws_test_greengrass_discovery.c ****         /** @brief Prepare test.
 396:D:/Work/DeviceTester/amazon-freertos/tests/common/greengrass\aws_test_greengrass_discovery.c ****          *  @{
 397:D:/Work/DeviceTester/amazon-freertos/tests/common/greengrass\aws_test_greengrass_discovery.c ****          */
 398:D:/Work/DeviceTester/amazon-freertos/tests/common/greengrass\aws_test_greengrass_discovery.c ****         jsmn_init( &xParser );
 399:D:/Work/DeviceTester/amazon-freertos/tests/common/greengrass\aws_test_greengrass_discovery.c **** 
 400:D:/Work/DeviceTester/amazon-freertos/tests/common/greengrass\aws_test_greengrass_discovery.c ****         /* From jsmn, parse the JSON file. */
 401:D:/Work/DeviceTester/amazon-freertos/tests/common/greengrass\aws_test_greengrass_discovery.c ****         lNbTokens = ( int32_t ) jsmn_parse( &xParser,
 402:D:/Work/DeviceTester/amazon-freertos/tests/common/greengrass\aws_test_greengrass_discovery.c ****                                             cJSON_FILE, /*lint !e971 can use char without signed/un
 403:D:/Work/DeviceTester/amazon-freertos/tests/common/greengrass\aws_test_greengrass_discovery.c ****                                             ( size_t ) ulJSONFileSize,
 404:D:/Work/DeviceTester/amazon-freertos/tests/common/greengrass\aws_test_greengrass_discovery.c ****                                             pxTok,
 405:D:/Work/DeviceTester/amazon-freertos/tests/common/greengrass\aws_test_greengrass_discovery.c ****                                             ( unsigned int ) ggdTestJSON_MAX_TOKENS ); /*lint !e961
 406:D:/Work/DeviceTester/amazon-freertos/tests/common/greengrass\aws_test_greengrass_discovery.c **** /** @}*/
 407:D:/Work/DeviceTester/amazon-freertos/tests/common/greengrass\aws_test_greengrass_discovery.c **** 
 408:D:/Work/DeviceTester/amazon-freertos/tests/common/greengrass\aws_test_greengrass_discovery.c **** /** @brief Check core is found and returned index is correct
 409:D:/Work/DeviceTester/amazon-freertos/tests/common/greengrass\aws_test_greengrass_discovery.c ****  * when given a know JSON file.
 410:D:/Work/DeviceTester/amazon-freertos/tests/common/greengrass\aws_test_greengrass_discovery.c ****  *  @{
 411:D:/Work/DeviceTester/amazon-freertos/tests/common/greengrass\aws_test_greengrass_discovery.c ****  */
 412:D:/Work/DeviceTester/amazon-freertos/tests/common/greengrass\aws_test_greengrass_discovery.c ****         xAutoConnectFlag = pdFALSE;
 413:D:/Work/DeviceTester/amazon-freertos/tests/common/greengrass\aws_test_greengrass_discovery.c ****         xHostParameters.pcCoreAddress = ( char * ) cMY_CORE_ARN;
 414:D:/Work/DeviceTester/amazon-freertos/tests/common/greengrass\aws_test_greengrass_discovery.c ****         xHostParameters.pcGroupName = ( char * ) cMyGroupID;
 415:D:/Work/DeviceTester/amazon-freertos/tests/common/greengrass\aws_test_greengrass_discovery.c ****         xStatus = test_prvGGDGetCore( cJSON_FILE,
 416:D:/Work/DeviceTester/amazon-freertos/tests/common/greengrass\aws_test_greengrass_discovery.c ****                                       &xHostParameters,
 417:D:/Work/DeviceTester/amazon-freertos/tests/common/greengrass\aws_test_greengrass_discovery.c ****                                       xAutoConnectFlag,
 418:D:/Work/DeviceTester/amazon-freertos/tests/common/greengrass\aws_test_greengrass_discovery.c ****                                       pxTok,
 419:D:/Work/DeviceTester/amazon-freertos/tests/common/greengrass\aws_test_greengrass_discovery.c ****                                       lNbTokens,
 420:D:/Work/DeviceTester/amazon-freertos/tests/common/greengrass\aws_test_greengrass_discovery.c ****                                       &ulTokenIndex );
 421:D:/Work/DeviceTester/amazon-freertos/tests/common/greengrass\aws_test_greengrass_discovery.c ****         TEST_ASSERT_EQUAL_INT32( pdPASS, xStatus );
 422:D:/Work/DeviceTester/amazon-freertos/tests/common/greengrass\aws_test_greengrass_discovery.c ****         TEST_ASSERT_EQUAL_INT32( ggdTestJSON_CORE_TOKEN_INDEX, ulTokenIndex );
 423:D:/Work/DeviceTester/amazon-freertos/tests/common/greengrass\aws_test_greengrass_discovery.c ****         /** @}*/
 424:D:/Work/DeviceTester/amazon-freertos/tests/common/greengrass\aws_test_greengrass_discovery.c **** 
 425:D:/Work/DeviceTester/amazon-freertos/tests/common/greengrass\aws_test_greengrass_discovery.c ****         /** @brief Check core search is failed when provided wrong groupID or ARN
 426:D:/Work/DeviceTester/amazon-freertos/tests/common/greengrass\aws_test_greengrass_discovery.c ****          * when given a know JSON file.
 427:D:/Work/DeviceTester/amazon-freertos/tests/common/greengrass\aws_test_greengrass_discovery.c ****          *  @{
 428:D:/Work/DeviceTester/amazon-freertos/tests/common/greengrass\aws_test_greengrass_discovery.c ****          */
 429:D:/Work/DeviceTester/amazon-freertos/tests/common/greengrass\aws_test_greengrass_discovery.c ****         xAutoConnectFlag = pdFALSE;
 430:D:/Work/DeviceTester/amazon-freertos/tests/common/greengrass\aws_test_greengrass_discovery.c ****         xHostParameters.pcCoreAddress = ( char * ) cMY_CORE_ARN;
 431:D:/Work/DeviceTester/amazon-freertos/tests/common/greengrass\aws_test_greengrass_discovery.c ****         xHostParameters.pcGroupName = ( char * ) cBadGroupId;
 432:D:/Work/DeviceTester/amazon-freertos/tests/common/greengrass\aws_test_greengrass_discovery.c ****         xStatus = test_prvGGDGetCore( cJSON_FILE,
 433:D:/Work/DeviceTester/amazon-freertos/tests/common/greengrass\aws_test_greengrass_discovery.c ****                                       &xHostParameters,
 434:D:/Work/DeviceTester/amazon-freertos/tests/common/greengrass\aws_test_greengrass_discovery.c ****                                       xAutoConnectFlag,
 435:D:/Work/DeviceTester/amazon-freertos/tests/common/greengrass\aws_test_greengrass_discovery.c ****                                       pxTok,
 436:D:/Work/DeviceTester/amazon-freertos/tests/common/greengrass\aws_test_greengrass_discovery.c ****                                       lNbTokens,
 437:D:/Work/DeviceTester/amazon-freertos/tests/common/greengrass\aws_test_greengrass_discovery.c ****                                       &ulTokenIndex );
 438:D:/Work/DeviceTester/amazon-freertos/tests/common/greengrass\aws_test_greengrass_discovery.c ****         TEST_ASSERT_EQUAL_INT32( pdFAIL, xStatus );
 439:D:/Work/DeviceTester/amazon-freertos/tests/common/greengrass\aws_test_greengrass_discovery.c **** 
 440:D:/Work/DeviceTester/amazon-freertos/tests/common/greengrass\aws_test_greengrass_discovery.c ****         xAutoConnectFlag = pdFALSE;
 441:D:/Work/DeviceTester/amazon-freertos/tests/common/greengrass\aws_test_greengrass_discovery.c ****         xHostParameters.pcCoreAddress = ( char * ) cBadCoreARN;
 442:D:/Work/DeviceTester/amazon-freertos/tests/common/greengrass\aws_test_greengrass_discovery.c ****         xHostParameters.pcGroupName = ( char * ) cMyGroupID;
 443:D:/Work/DeviceTester/amazon-freertos/tests/common/greengrass\aws_test_greengrass_discovery.c ****         xStatus = test_prvGGDGetCore( cJSON_FILE,
 444:D:/Work/DeviceTester/amazon-freertos/tests/common/greengrass\aws_test_greengrass_discovery.c ****                                       &xHostParameters,
 445:D:/Work/DeviceTester/amazon-freertos/tests/common/greengrass\aws_test_greengrass_discovery.c ****                                       xAutoConnectFlag,
 446:D:/Work/DeviceTester/amazon-freertos/tests/common/greengrass\aws_test_greengrass_discovery.c ****                                       pxTok,
 447:D:/Work/DeviceTester/amazon-freertos/tests/common/greengrass\aws_test_greengrass_discovery.c ****                                       lNbTokens,
 448:D:/Work/DeviceTester/amazon-freertos/tests/common/greengrass\aws_test_greengrass_discovery.c ****                                       &ulTokenIndex );
 449:D:/Work/DeviceTester/amazon-freertos/tests/common/greengrass\aws_test_greengrass_discovery.c ****         TEST_ASSERT_EQUAL_INT32( pdFAIL, xStatus );
 450:D:/Work/DeviceTester/amazon-freertos/tests/common/greengrass\aws_test_greengrass_discovery.c ****         /** @}*/
 451:D:/Work/DeviceTester/amazon-freertos/tests/common/greengrass\aws_test_greengrass_discovery.c **** 
 452:D:/Work/DeviceTester/amazon-freertos/tests/common/greengrass\aws_test_greengrass_discovery.c ****         /** @brief Check core search succeeds when auto-search is enabled
 453:D:/Work/DeviceTester/amazon-freertos/tests/common/greengrass\aws_test_greengrass_discovery.c ****          * irrelevant of Host parameters.
 454:D:/Work/DeviceTester/amazon-freertos/tests/common/greengrass\aws_test_greengrass_discovery.c ****          * Check code doesn't crash if NULL is passed
 455:D:/Work/DeviceTester/amazon-freertos/tests/common/greengrass\aws_test_greengrass_discovery.c ****          *  @{
 456:D:/Work/DeviceTester/amazon-freertos/tests/common/greengrass\aws_test_greengrass_discovery.c ****          */
 457:D:/Work/DeviceTester/amazon-freertos/tests/common/greengrass\aws_test_greengrass_discovery.c ****         xAutoConnectFlag = pdTRUE;
 458:D:/Work/DeviceTester/amazon-freertos/tests/common/greengrass\aws_test_greengrass_discovery.c ****         xStatus = test_prvGGDGetCore( cJSON_FILE,
 459:D:/Work/DeviceTester/amazon-freertos/tests/common/greengrass\aws_test_greengrass_discovery.c ****                                       NULL,
 460:D:/Work/DeviceTester/amazon-freertos/tests/common/greengrass\aws_test_greengrass_discovery.c ****                                       xAutoConnectFlag,
 461:D:/Work/DeviceTester/amazon-freertos/tests/common/greengrass\aws_test_greengrass_discovery.c ****                                       pxTok,
 462:D:/Work/DeviceTester/amazon-freertos/tests/common/greengrass\aws_test_greengrass_discovery.c ****                                       lNbTokens,
 463:D:/Work/DeviceTester/amazon-freertos/tests/common/greengrass\aws_test_greengrass_discovery.c ****                                       &ulTokenIndex );
 464:D:/Work/DeviceTester/amazon-freertos/tests/common/greengrass\aws_test_greengrass_discovery.c ****         TEST_ASSERT_EQUAL_INT32( pdTRUE, xStatus );
 465:D:/Work/DeviceTester/amazon-freertos/tests/common/greengrass\aws_test_greengrass_discovery.c ****         /** @}*/
 466:D:/Work/DeviceTester/amazon-freertos/tests/common/greengrass\aws_test_greengrass_discovery.c ****     }
 467:D:/Work/DeviceTester/amazon-freertos/tests/common/greengrass\aws_test_greengrass_discovery.c ****     else
 468:D:/Work/DeviceTester/amazon-freertos/tests/common/greengrass\aws_test_greengrass_discovery.c ****     {
 469:D:/Work/DeviceTester/amazon-freertos/tests/common/greengrass\aws_test_greengrass_discovery.c ****         TEST_FAIL();
 470:D:/Work/DeviceTester/amazon-freertos/tests/common/greengrass\aws_test_greengrass_discovery.c ****     }
 471:D:/Work/DeviceTester/amazon-freertos/tests/common/greengrass\aws_test_greengrass_discovery.c **** }
 472:D:/Work/DeviceTester/amazon-freertos/tests/common/greengrass\aws_test_greengrass_discovery.c **** 
 473:D:/Work/DeviceTester/amazon-freertos/tests/common/greengrass\aws_test_greengrass_discovery.c **** TEST( Full_GGD, GetIPOnInterface )
 474:D:/Work/DeviceTester/amazon-freertos/tests/common/greengrass\aws_test_greengrass_discovery.c **** {
 475:D:/Work/DeviceTester/amazon-freertos/tests/common/greengrass\aws_test_greengrass_discovery.c ****     BaseType_t xStatus;
 476:D:/Work/DeviceTester/amazon-freertos/tests/common/greengrass\aws_test_greengrass_discovery.c ****     int32_t lNbTokens;
 477:D:/Work/DeviceTester/amazon-freertos/tests/common/greengrass\aws_test_greengrass_discovery.c ****     uint32_t ulJSONFileSize = strlen( cJSON_FILE );
 478:D:/Work/DeviceTester/amazon-freertos/tests/common/greengrass\aws_test_greengrass_discovery.c ****     GGD_HostAddressData_t xHostAddressData;
 479:D:/Work/DeviceTester/amazon-freertos/tests/common/greengrass\aws_test_greengrass_discovery.c ****     uint8_t ucTargetInterface;
 480:D:/Work/DeviceTester/amazon-freertos/tests/common/greengrass\aws_test_greengrass_discovery.c ****     uint8_t usCurrentInterface;
 481:D:/Work/DeviceTester/amazon-freertos/tests/common/greengrass\aws_test_greengrass_discovery.c ****     uint32_t ulTokenIndex;
 482:D:/Work/DeviceTester/amazon-freertos/tests/common/greengrass\aws_test_greengrass_discovery.c ****     jsmn_parser xParser;
 483:D:/Work/DeviceTester/amazon-freertos/tests/common/greengrass\aws_test_greengrass_discovery.c **** 
 484:D:/Work/DeviceTester/amazon-freertos/tests/common/greengrass\aws_test_greengrass_discovery.c ****     if( TEST_PROTECT() )
 485:D:/Work/DeviceTester/amazon-freertos/tests/common/greengrass\aws_test_greengrass_discovery.c ****     {
 486:D:/Work/DeviceTester/amazon-freertos/tests/common/greengrass\aws_test_greengrass_discovery.c ****         /** @brief Prepare test.
 487:D:/Work/DeviceTester/amazon-freertos/tests/common/greengrass\aws_test_greengrass_discovery.c ****          *  @{
 488:D:/Work/DeviceTester/amazon-freertos/tests/common/greengrass\aws_test_greengrass_discovery.c ****          */
 489:D:/Work/DeviceTester/amazon-freertos/tests/common/greengrass\aws_test_greengrass_discovery.c ****         jsmn_init( &xParser );
 490:D:/Work/DeviceTester/amazon-freertos/tests/common/greengrass\aws_test_greengrass_discovery.c **** 
 491:D:/Work/DeviceTester/amazon-freertos/tests/common/greengrass\aws_test_greengrass_discovery.c ****         /* From jsmn, parse the JSON file. */
 492:D:/Work/DeviceTester/amazon-freertos/tests/common/greengrass\aws_test_greengrass_discovery.c ****         lNbTokens = ( int32_t ) jsmn_parse( &xParser,
 493:D:/Work/DeviceTester/amazon-freertos/tests/common/greengrass\aws_test_greengrass_discovery.c ****                                             cJSON_FILE, /*lint !e971 can use char without signed/un
 494:D:/Work/DeviceTester/amazon-freertos/tests/common/greengrass\aws_test_greengrass_discovery.c ****                                             ( size_t ) ulJSONFileSize,
 495:D:/Work/DeviceTester/amazon-freertos/tests/common/greengrass\aws_test_greengrass_discovery.c ****                                             pxTok,
 496:D:/Work/DeviceTester/amazon-freertos/tests/common/greengrass\aws_test_greengrass_discovery.c ****                                             ( unsigned int ) ggdTestJSON_MAX_TOKENS ); /*lint !e961
 497:D:/Work/DeviceTester/amazon-freertos/tests/common/greengrass\aws_test_greengrass_discovery.c **** 
 498:D:/Work/DeviceTester/amazon-freertos/tests/common/greengrass\aws_test_greengrass_discovery.c ****         memcpy( cBuffer, cJSON_FILE, strlen( cJSON_FILE ) );
 499:D:/Work/DeviceTester/amazon-freertos/tests/common/greengrass\aws_test_greengrass_discovery.c ****         /** @}*/
 500:D:/Work/DeviceTester/amazon-freertos/tests/common/greengrass\aws_test_greengrass_discovery.c **** 
 501:D:/Work/DeviceTester/amazon-freertos/tests/common/greengrass\aws_test_greengrass_discovery.c ****         /** @brief Check that IP is found,
 502:D:/Work/DeviceTester/amazon-freertos/tests/common/greengrass\aws_test_greengrass_discovery.c ****          * the function can be re-used and still get a match without reseting current interface.
 503:D:/Work/DeviceTester/amazon-freertos/tests/common/greengrass\aws_test_greengrass_discovery.c ****          *  @{
 504:D:/Work/DeviceTester/amazon-freertos/tests/common/greengrass\aws_test_greengrass_discovery.c ****          */
 505:D:/Work/DeviceTester/amazon-freertos/tests/common/greengrass\aws_test_greengrass_discovery.c ****         usCurrentInterface = 0;
 506:D:/Work/DeviceTester/amazon-freertos/tests/common/greengrass\aws_test_greengrass_discovery.c ****         ucTargetInterface = 1;
 507:D:/Work/DeviceTester/amazon-freertos/tests/common/greengrass\aws_test_greengrass_discovery.c ****         ulTokenIndex = ggdTestJSON_CORE_TOKEN_INDEX;
 508:D:/Work/DeviceTester/amazon-freertos/tests/common/greengrass\aws_test_greengrass_discovery.c ****         xStatus = test_prvGGDGetIPOnInterface( cBuffer,
 509:D:/Work/DeviceTester/amazon-freertos/tests/common/greengrass\aws_test_greengrass_discovery.c ****                                                ucTargetInterface,
 510:D:/Work/DeviceTester/amazon-freertos/tests/common/greengrass\aws_test_greengrass_discovery.c ****                                                pxTok,
 511:D:/Work/DeviceTester/amazon-freertos/tests/common/greengrass\aws_test_greengrass_discovery.c ****                                                lNbTokens,
 512:D:/Work/DeviceTester/amazon-freertos/tests/common/greengrass\aws_test_greengrass_discovery.c ****                                                &xHostAddressData,
 513:D:/Work/DeviceTester/amazon-freertos/tests/common/greengrass\aws_test_greengrass_discovery.c ****                                                &ulTokenIndex,
 514:D:/Work/DeviceTester/amazon-freertos/tests/common/greengrass\aws_test_greengrass_discovery.c ****                                                &usCurrentInterface );
 515:D:/Work/DeviceTester/amazon-freertos/tests/common/greengrass\aws_test_greengrass_discovery.c ****         TEST_ASSERT_EQUAL_INT32( pdPASS, xStatus );
 516:D:/Work/DeviceTester/amazon-freertos/tests/common/greengrass\aws_test_greengrass_discovery.c ****         TEST_ASSERT_EQUAL_STRING( cIP_ADDRESS_1, xHostAddressData.pcHostAddress );
 517:D:/Work/DeviceTester/amazon-freertos/tests/common/greengrass\aws_test_greengrass_discovery.c ****         TEST_ASSERT_EQUAL_INT32( ggdTestJSON_PORT_ADRESS_1, xHostAddressData.usPort );
 518:D:/Work/DeviceTester/amazon-freertos/tests/common/greengrass\aws_test_greengrass_discovery.c **** 
 519:D:/Work/DeviceTester/amazon-freertos/tests/common/greengrass\aws_test_greengrass_discovery.c ****         /* Do not reset current interface and token index here. */
 520:D:/Work/DeviceTester/amazon-freertos/tests/common/greengrass\aws_test_greengrass_discovery.c ****         ucTargetInterface = 3;
 521:D:/Work/DeviceTester/amazon-freertos/tests/common/greengrass\aws_test_greengrass_discovery.c ****         xStatus = test_prvGGDGetIPOnInterface( cBuffer,
 522:D:/Work/DeviceTester/amazon-freertos/tests/common/greengrass\aws_test_greengrass_discovery.c ****                                                ucTargetInterface,
 523:D:/Work/DeviceTester/amazon-freertos/tests/common/greengrass\aws_test_greengrass_discovery.c ****                                                pxTok,
 524:D:/Work/DeviceTester/amazon-freertos/tests/common/greengrass\aws_test_greengrass_discovery.c ****                                                lNbTokens,
 525:D:/Work/DeviceTester/amazon-freertos/tests/common/greengrass\aws_test_greengrass_discovery.c ****                                                &xHostAddressData,
 526:D:/Work/DeviceTester/amazon-freertos/tests/common/greengrass\aws_test_greengrass_discovery.c ****                                                &ulTokenIndex,
 527:D:/Work/DeviceTester/amazon-freertos/tests/common/greengrass\aws_test_greengrass_discovery.c ****                                                &usCurrentInterface );
 528:D:/Work/DeviceTester/amazon-freertos/tests/common/greengrass\aws_test_greengrass_discovery.c ****         TEST_ASSERT_EQUAL_INT32( pdPASS, xStatus );
 529:D:/Work/DeviceTester/amazon-freertos/tests/common/greengrass\aws_test_greengrass_discovery.c ****         TEST_ASSERT_EQUAL_STRING( cIP_ADDRESS_3, xHostAddressData.pcHostAddress );
 530:D:/Work/DeviceTester/amazon-freertos/tests/common/greengrass\aws_test_greengrass_discovery.c ****         TEST_ASSERT_EQUAL_INT32( ggdTestJSON_PORT_ADRESS_3, xHostAddressData.usPort );
 531:D:/Work/DeviceTester/amazon-freertos/tests/common/greengrass\aws_test_greengrass_discovery.c ****         /** @}*/
 532:D:/Work/DeviceTester/amazon-freertos/tests/common/greengrass\aws_test_greengrass_discovery.c **** 
 533:D:/Work/DeviceTester/amazon-freertos/tests/common/greengrass\aws_test_greengrass_discovery.c ****         /** @brief Check status returns failed if not host Address is found
 534:D:/Work/DeviceTester/amazon-freertos/tests/common/greengrass\aws_test_greengrass_discovery.c ****          *  @{
 535:D:/Work/DeviceTester/amazon-freertos/tests/common/greengrass\aws_test_greengrass_discovery.c ****          */
 536:D:/Work/DeviceTester/amazon-freertos/tests/common/greengrass\aws_test_greengrass_discovery.c ****         usCurrentInterface = 0;
 537:D:/Work/DeviceTester/amazon-freertos/tests/common/greengrass\aws_test_greengrass_discovery.c ****         ucTargetInterface = 1;
 538:D:/Work/DeviceTester/amazon-freertos/tests/common/greengrass\aws_test_greengrass_discovery.c ****         ulTokenIndex = lNbTokens - 2; /* Set to the end of JSON file*/
 539:D:/Work/DeviceTester/amazon-freertos/tests/common/greengrass\aws_test_greengrass_discovery.c ****         xStatus = test_prvGGDGetIPOnInterface( cBuffer,
 540:D:/Work/DeviceTester/amazon-freertos/tests/common/greengrass\aws_test_greengrass_discovery.c ****                                                ucTargetInterface,
 541:D:/Work/DeviceTester/amazon-freertos/tests/common/greengrass\aws_test_greengrass_discovery.c ****                                                pxTok,
 542:D:/Work/DeviceTester/amazon-freertos/tests/common/greengrass\aws_test_greengrass_discovery.c ****                                                lNbTokens,
 543:D:/Work/DeviceTester/amazon-freertos/tests/common/greengrass\aws_test_greengrass_discovery.c ****                                                &xHostAddressData,
 544:D:/Work/DeviceTester/amazon-freertos/tests/common/greengrass\aws_test_greengrass_discovery.c ****                                                &ulTokenIndex,
 545:D:/Work/DeviceTester/amazon-freertos/tests/common/greengrass\aws_test_greengrass_discovery.c ****                                                &usCurrentInterface );
 546:D:/Work/DeviceTester/amazon-freertos/tests/common/greengrass\aws_test_greengrass_discovery.c ****         TEST_ASSERT_EQUAL_INT32( pdFAIL, xStatus );
 547:D:/Work/DeviceTester/amazon-freertos/tests/common/greengrass\aws_test_greengrass_discovery.c ****         /** @}*/
 548:D:/Work/DeviceTester/amazon-freertos/tests/common/greengrass\aws_test_greengrass_discovery.c **** 
 549:D:/Work/DeviceTester/amazon-freertos/tests/common/greengrass\aws_test_greengrass_discovery.c ****         /** @brief Check status returns failed if interface is not found
 550:D:/Work/DeviceTester/amazon-freertos/tests/common/greengrass\aws_test_greengrass_discovery.c ****          *  @{
 551:D:/Work/DeviceTester/amazon-freertos/tests/common/greengrass\aws_test_greengrass_discovery.c ****          */
 552:D:/Work/DeviceTester/amazon-freertos/tests/common/greengrass\aws_test_greengrass_discovery.c ****         usCurrentInterface = 0;
 553:D:/Work/DeviceTester/amazon-freertos/tests/common/greengrass\aws_test_greengrass_discovery.c ****         ucTargetInterface = 100;
 554:D:/Work/DeviceTester/amazon-freertos/tests/common/greengrass\aws_test_greengrass_discovery.c ****         ulTokenIndex = ggdTestJSON_CORE_TOKEN_INDEX; /* Set to the end of JSON file*/
 555:D:/Work/DeviceTester/amazon-freertos/tests/common/greengrass\aws_test_greengrass_discovery.c ****         xStatus = test_prvGGDGetIPOnInterface( cBuffer,
 556:D:/Work/DeviceTester/amazon-freertos/tests/common/greengrass\aws_test_greengrass_discovery.c ****                                                ucTargetInterface,
 557:D:/Work/DeviceTester/amazon-freertos/tests/common/greengrass\aws_test_greengrass_discovery.c ****                                                pxTok,
 558:D:/Work/DeviceTester/amazon-freertos/tests/common/greengrass\aws_test_greengrass_discovery.c ****                                                lNbTokens,
 559:D:/Work/DeviceTester/amazon-freertos/tests/common/greengrass\aws_test_greengrass_discovery.c ****                                                &xHostAddressData,
 560:D:/Work/DeviceTester/amazon-freertos/tests/common/greengrass\aws_test_greengrass_discovery.c ****                                                &ulTokenIndex,
 561:D:/Work/DeviceTester/amazon-freertos/tests/common/greengrass\aws_test_greengrass_discovery.c ****                                                &usCurrentInterface );
 562:D:/Work/DeviceTester/amazon-freertos/tests/common/greengrass\aws_test_greengrass_discovery.c ****         TEST_ASSERT_EQUAL_INT32( pdFAIL, xStatus );
 563:D:/Work/DeviceTester/amazon-freertos/tests/common/greengrass\aws_test_greengrass_discovery.c ****         /** @}*/
 564:D:/Work/DeviceTester/amazon-freertos/tests/common/greengrass\aws_test_greengrass_discovery.c ****     }
 565:D:/Work/DeviceTester/amazon-freertos/tests/common/greengrass\aws_test_greengrass_discovery.c ****     else
 566:D:/Work/DeviceTester/amazon-freertos/tests/common/greengrass\aws_test_greengrass_discovery.c ****     {
 567:D:/Work/DeviceTester/amazon-freertos/tests/common/greengrass\aws_test_greengrass_discovery.c ****         TEST_FAIL();
 568:D:/Work/DeviceTester/amazon-freertos/tests/common/greengrass\aws_test_greengrass_discovery.c ****     }
 569:D:/Work/DeviceTester/amazon-freertos/tests/common/greengrass\aws_test_greengrass_discovery.c **** }
 570:D:/Work/DeviceTester/amazon-freertos/tests/common/greengrass\aws_test_greengrass_discovery.c **** 
 571:D:/Work/DeviceTester/amazon-freertos/tests/common/greengrass\aws_test_greengrass_discovery.c **** TEST( Full_GGD, GetCertificate )
 572:D:/Work/DeviceTester/amazon-freertos/tests/common/greengrass\aws_test_greengrass_discovery.c **** {
 573:D:/Work/DeviceTester/amazon-freertos/tests/common/greengrass\aws_test_greengrass_discovery.c ****     BaseType_t xStatus;
 574:D:/Work/DeviceTester/amazon-freertos/tests/common/greengrass\aws_test_greengrass_discovery.c ****     BaseType_t xAutoConnectFlag = pdTRUE;
 575:D:/Work/DeviceTester/amazon-freertos/tests/common/greengrass\aws_test_greengrass_discovery.c ****     int32_t lNbTokens;
 576:D:/Work/DeviceTester/amazon-freertos/tests/common/greengrass\aws_test_greengrass_discovery.c ****     uint32_t ulJSONFileSize = strlen( cJSON_FILE );
 577:D:/Work/DeviceTester/amazon-freertos/tests/common/greengrass\aws_test_greengrass_discovery.c ****     HostParameters_t xHostParameters;
 578:D:/Work/DeviceTester/amazon-freertos/tests/common/greengrass\aws_test_greengrass_discovery.c ****     GGD_HostAddressData_t xHostAddressData;
 579:D:/Work/DeviceTester/amazon-freertos/tests/common/greengrass\aws_test_greengrass_discovery.c ****     char cBadGroupId[] = "myBadGroupID";
 580:D:/Work/DeviceTester/amazon-freertos/tests/common/greengrass\aws_test_greengrass_discovery.c ****     jsmn_parser xParser;
 581:D:/Work/DeviceTester/amazon-freertos/tests/common/greengrass\aws_test_greengrass_discovery.c **** 
 582:D:/Work/DeviceTester/amazon-freertos/tests/common/greengrass\aws_test_greengrass_discovery.c ****     if( TEST_PROTECT() )
 583:D:/Work/DeviceTester/amazon-freertos/tests/common/greengrass\aws_test_greengrass_discovery.c ****     {
 584:D:/Work/DeviceTester/amazon-freertos/tests/common/greengrass\aws_test_greengrass_discovery.c ****         /** @brief Prepare test.
 585:D:/Work/DeviceTester/amazon-freertos/tests/common/greengrass\aws_test_greengrass_discovery.c ****          *  @{
 586:D:/Work/DeviceTester/amazon-freertos/tests/common/greengrass\aws_test_greengrass_discovery.c ****          */
 587:D:/Work/DeviceTester/amazon-freertos/tests/common/greengrass\aws_test_greengrass_discovery.c ****         jsmn_init( &xParser );
 588:D:/Work/DeviceTester/amazon-freertos/tests/common/greengrass\aws_test_greengrass_discovery.c **** 
 589:D:/Work/DeviceTester/amazon-freertos/tests/common/greengrass\aws_test_greengrass_discovery.c ****         /* From jsmn, parse the JSON file. */
 590:D:/Work/DeviceTester/amazon-freertos/tests/common/greengrass\aws_test_greengrass_discovery.c ****         lNbTokens = ( int32_t ) jsmn_parse( &xParser,
 591:D:/Work/DeviceTester/amazon-freertos/tests/common/greengrass\aws_test_greengrass_discovery.c ****                                             cJSON_FILE, /*lint !e971 can use char without signed/un
 592:D:/Work/DeviceTester/amazon-freertos/tests/common/greengrass\aws_test_greengrass_discovery.c ****                                             ( size_t ) ulJSONFileSize,
 593:D:/Work/DeviceTester/amazon-freertos/tests/common/greengrass\aws_test_greengrass_discovery.c ****                                             pxTok,
 594:D:/Work/DeviceTester/amazon-freertos/tests/common/greengrass\aws_test_greengrass_discovery.c ****                                             ( unsigned int ) ggdTestJSON_MAX_TOKENS ); /*lint !e961
 595:D:/Work/DeviceTester/amazon-freertos/tests/common/greengrass\aws_test_greengrass_discovery.c **** 
 596:D:/Work/DeviceTester/amazon-freertos/tests/common/greengrass\aws_test_greengrass_discovery.c ****         xHostParameters.pcGroupName = ( char * ) cMyGroupID;
 597:D:/Work/DeviceTester/amazon-freertos/tests/common/greengrass\aws_test_greengrass_discovery.c ****         memcpy( cBuffer, cJSON_FILE, strlen( cJSON_FILE ) );
 598:D:/Work/DeviceTester/amazon-freertos/tests/common/greengrass\aws_test_greengrass_discovery.c ****         /** @}*/
 599:D:/Work/DeviceTester/amazon-freertos/tests/common/greengrass\aws_test_greengrass_discovery.c **** 
 600:D:/Work/DeviceTester/amazon-freertos/tests/common/greengrass\aws_test_greengrass_discovery.c ****         /** @brief Check Certificate is found provided correct data input
 601:D:/Work/DeviceTester/amazon-freertos/tests/common/greengrass\aws_test_greengrass_discovery.c ****          *  @{
 602:D:/Work/DeviceTester/amazon-freertos/tests/common/greengrass\aws_test_greengrass_discovery.c ****          */
 603:D:/Work/DeviceTester/amazon-freertos/tests/common/greengrass\aws_test_greengrass_discovery.c ****         xAutoConnectFlag = pdFALSE;
 604:D:/Work/DeviceTester/amazon-freertos/tests/common/greengrass\aws_test_greengrass_discovery.c ****         xStatus = test_prvGGDGetCertificate( cBuffer,
 605:D:/Work/DeviceTester/amazon-freertos/tests/common/greengrass\aws_test_greengrass_discovery.c ****                                              &xHostParameters,
 606:D:/Work/DeviceTester/amazon-freertos/tests/common/greengrass\aws_test_greengrass_discovery.c ****                                              xAutoConnectFlag,
 607:D:/Work/DeviceTester/amazon-freertos/tests/common/greengrass\aws_test_greengrass_discovery.c ****                                              pxTok,
 608:D:/Work/DeviceTester/amazon-freertos/tests/common/greengrass\aws_test_greengrass_discovery.c ****                                              lNbTokens,
 609:D:/Work/DeviceTester/amazon-freertos/tests/common/greengrass\aws_test_greengrass_discovery.c ****                                              &xHostAddressData );
 610:D:/Work/DeviceTester/amazon-freertos/tests/common/greengrass\aws_test_greengrass_discovery.c ****         TEST_ASSERT_EQUAL_INT32( pdPASS, xStatus );
 611:D:/Work/DeviceTester/amazon-freertos/tests/common/greengrass\aws_test_greengrass_discovery.c ****         TEST_ASSERT_EQUAL_MEMORY( cCERTIFICATE, xHostAddressData.pcCertificate, strlen( cCERTIFICAT
 612:D:/Work/DeviceTester/amazon-freertos/tests/common/greengrass\aws_test_greengrass_discovery.c ****         TEST_ASSERT_EQUAL_INT32( strlen( cCERTIFICATE ) + 1, xHostAddressData.ulCertificateSize );
 613:D:/Work/DeviceTester/amazon-freertos/tests/common/greengrass\aws_test_greengrass_discovery.c ****         /** @}*/
 614:D:/Work/DeviceTester/amazon-freertos/tests/common/greengrass\aws_test_greengrass_discovery.c **** 
 615:D:/Work/DeviceTester/amazon-freertos/tests/common/greengrass\aws_test_greengrass_discovery.c ****         /** @brief Check Certificate is not found provided it can't find group id in JSON file
 616:D:/Work/DeviceTester/amazon-freertos/tests/common/greengrass\aws_test_greengrass_discovery.c ****          *  @{
 617:D:/Work/DeviceTester/amazon-freertos/tests/common/greengrass\aws_test_greengrass_discovery.c ****          */
 618:D:/Work/DeviceTester/amazon-freertos/tests/common/greengrass\aws_test_greengrass_discovery.c ****         xHostParameters.pcGroupName = ( char * ) cBadGroupId;
 619:D:/Work/DeviceTester/amazon-freertos/tests/common/greengrass\aws_test_greengrass_discovery.c ****         xAutoConnectFlag = pdFALSE;
 620:D:/Work/DeviceTester/amazon-freertos/tests/common/greengrass\aws_test_greengrass_discovery.c ****         memcpy( cBuffer, cJSON_FILE, strlen( cJSON_FILE ) );
 621:D:/Work/DeviceTester/amazon-freertos/tests/common/greengrass\aws_test_greengrass_discovery.c ****         xStatus = test_prvGGDGetCertificate( cBuffer,
 622:D:/Work/DeviceTester/amazon-freertos/tests/common/greengrass\aws_test_greengrass_discovery.c ****                                              &xHostParameters,
 623:D:/Work/DeviceTester/amazon-freertos/tests/common/greengrass\aws_test_greengrass_discovery.c ****                                              xAutoConnectFlag,
 624:D:/Work/DeviceTester/amazon-freertos/tests/common/greengrass\aws_test_greengrass_discovery.c ****                                              pxTok,
 625:D:/Work/DeviceTester/amazon-freertos/tests/common/greengrass\aws_test_greengrass_discovery.c ****                                              lNbTokens,
 626:D:/Work/DeviceTester/amazon-freertos/tests/common/greengrass\aws_test_greengrass_discovery.c ****                                              &xHostAddressData );
 627:D:/Work/DeviceTester/amazon-freertos/tests/common/greengrass\aws_test_greengrass_discovery.c ****         TEST_ASSERT_EQUAL_INT32( pdFALSE, xStatus );
 628:D:/Work/DeviceTester/amazon-freertos/tests/common/greengrass\aws_test_greengrass_discovery.c ****         /** @}*/
 629:D:/Work/DeviceTester/amazon-freertos/tests/common/greengrass\aws_test_greengrass_discovery.c **** 
 630:D:/Work/DeviceTester/amazon-freertos/tests/common/greengrass\aws_test_greengrass_discovery.c ****         /** @brief Check Certificate is found provided independant of xHostParameters
 631:D:/Work/DeviceTester/amazon-freertos/tests/common/greengrass\aws_test_greengrass_discovery.c ****          * if xAutoConnectFlag is set to true.
 632:D:/Work/DeviceTester/amazon-freertos/tests/common/greengrass\aws_test_greengrass_discovery.c ****          * Should not crash if a NULL is provided when doing auto connect
 633:D:/Work/DeviceTester/amazon-freertos/tests/common/greengrass\aws_test_greengrass_discovery.c ****          *  @{
 634:D:/Work/DeviceTester/amazon-freertos/tests/common/greengrass\aws_test_greengrass_discovery.c ****          */
 635:D:/Work/DeviceTester/amazon-freertos/tests/common/greengrass\aws_test_greengrass_discovery.c ****         xAutoConnectFlag = pdTRUE;
 636:D:/Work/DeviceTester/amazon-freertos/tests/common/greengrass\aws_test_greengrass_discovery.c ****         memcpy( cBuffer, cJSON_FILE, strlen( cJSON_FILE ) );
 637:D:/Work/DeviceTester/amazon-freertos/tests/common/greengrass\aws_test_greengrass_discovery.c ****         xStatus = test_prvGGDGetCertificate( cBuffer,
 638:D:/Work/DeviceTester/amazon-freertos/tests/common/greengrass\aws_test_greengrass_discovery.c ****                                              NULL, /* HostParameters set to NULL */
 639:D:/Work/DeviceTester/amazon-freertos/tests/common/greengrass\aws_test_greengrass_discovery.c ****                                              xAutoConnectFlag,
 640:D:/Work/DeviceTester/amazon-freertos/tests/common/greengrass\aws_test_greengrass_discovery.c ****                                              pxTok,
 641:D:/Work/DeviceTester/amazon-freertos/tests/common/greengrass\aws_test_greengrass_discovery.c ****                                              lNbTokens,
 642:D:/Work/DeviceTester/amazon-freertos/tests/common/greengrass\aws_test_greengrass_discovery.c ****                                              &xHostAddressData );
 643:D:/Work/DeviceTester/amazon-freertos/tests/common/greengrass\aws_test_greengrass_discovery.c ****         TEST_ASSERT_EQUAL_INT32( pdTRUE, xStatus );
 644:D:/Work/DeviceTester/amazon-freertos/tests/common/greengrass\aws_test_greengrass_discovery.c ****         /** @}*/
 645:D:/Work/DeviceTester/amazon-freertos/tests/common/greengrass\aws_test_greengrass_discovery.c ****     }
 646:D:/Work/DeviceTester/amazon-freertos/tests/common/greengrass\aws_test_greengrass_discovery.c ****     else
 647:D:/Work/DeviceTester/amazon-freertos/tests/common/greengrass\aws_test_greengrass_discovery.c ****     {
 648:D:/Work/DeviceTester/amazon-freertos/tests/common/greengrass\aws_test_greengrass_discovery.c ****         TEST_FAIL();
 649:D:/Work/DeviceTester/amazon-freertos/tests/common/greengrass\aws_test_greengrass_discovery.c ****     }
 650:D:/Work/DeviceTester/amazon-freertos/tests/common/greengrass\aws_test_greengrass_discovery.c **** }
 651:D:/Work/DeviceTester/amazon-freertos/tests/common/greengrass\aws_test_greengrass_discovery.c **** 
 652:D:/Work/DeviceTester/amazon-freertos/tests/common/greengrass\aws_test_greengrass_discovery.c **** TEST( Full_GGD, CheckMatch )
 653:D:/Work/DeviceTester/amazon-freertos/tests/common/greengrass\aws_test_greengrass_discovery.c **** {
 654:D:/Work/DeviceTester/amazon-freertos/tests/common/greengrass\aws_test_greengrass_discovery.c ****     BaseType_t xMatch;
 655:D:/Work/DeviceTester/amazon-freertos/tests/common/greengrass\aws_test_greengrass_discovery.c ****     BaseType_t xAutoConnectFlag = pdTRUE;
 656:D:/Work/DeviceTester/amazon-freertos/tests/common/greengrass\aws_test_greengrass_discovery.c ****     int32_t lNbTokens;
 657:D:/Work/DeviceTester/amazon-freertos/tests/common/greengrass\aws_test_greengrass_discovery.c ****     uint32_t ulTokenIndex;
 658:D:/Work/DeviceTester/amazon-freertos/tests/common/greengrass\aws_test_greengrass_discovery.c ****     uint32_t ulJSONFileSize = strlen( cJSON_FILE );
 659:D:/Work/DeviceTester/amazon-freertos/tests/common/greengrass\aws_test_greengrass_discovery.c ****     jsmn_parser xParser;
 660:D:/Work/DeviceTester/amazon-freertos/tests/common/greengrass\aws_test_greengrass_discovery.c **** 
 661:D:/Work/DeviceTester/amazon-freertos/tests/common/greengrass\aws_test_greengrass_discovery.c ****     if( TEST_PROTECT() )
 662:D:/Work/DeviceTester/amazon-freertos/tests/common/greengrass\aws_test_greengrass_discovery.c ****     {
 663:D:/Work/DeviceTester/amazon-freertos/tests/common/greengrass\aws_test_greengrass_discovery.c ****         /** @brief Prepare test.
 664:D:/Work/DeviceTester/amazon-freertos/tests/common/greengrass\aws_test_greengrass_discovery.c ****          *  @{
 665:D:/Work/DeviceTester/amazon-freertos/tests/common/greengrass\aws_test_greengrass_discovery.c ****          */
 666:D:/Work/DeviceTester/amazon-freertos/tests/common/greengrass\aws_test_greengrass_discovery.c ****         jsmn_init( &xParser );
 667:D:/Work/DeviceTester/amazon-freertos/tests/common/greengrass\aws_test_greengrass_discovery.c **** 
 668:D:/Work/DeviceTester/amazon-freertos/tests/common/greengrass\aws_test_greengrass_discovery.c ****         /* From jsmn, parse the JSON file. */
 669:D:/Work/DeviceTester/amazon-freertos/tests/common/greengrass\aws_test_greengrass_discovery.c ****         lNbTokens = ( int32_t ) jsmn_parse( &xParser,
 670:D:/Work/DeviceTester/amazon-freertos/tests/common/greengrass\aws_test_greengrass_discovery.c ****                                             cJSON_FILE, /*lint !e971 can use char without signed/un
 671:D:/Work/DeviceTester/amazon-freertos/tests/common/greengrass\aws_test_greengrass_discovery.c ****                                             ( size_t ) ulJSONFileSize,
 672:D:/Work/DeviceTester/amazon-freertos/tests/common/greengrass\aws_test_greengrass_discovery.c ****                                             pxTok,
 673:D:/Work/DeviceTester/amazon-freertos/tests/common/greengrass\aws_test_greengrass_discovery.c ****                                             ( unsigned int ) ggdTestJSON_MAX_TOKENS ); /*lint !e961
 674:D:/Work/DeviceTester/amazon-freertos/tests/common/greengrass\aws_test_greengrass_discovery.c ****         TEST_ASSERT_GREATER_THAN( 0, lNbTokens );
 675:D:/Work/DeviceTester/amazon-freertos/tests/common/greengrass\aws_test_greengrass_discovery.c **** /** @}*/
 676:D:/Work/DeviceTester/amazon-freertos/tests/common/greengrass\aws_test_greengrass_discovery.c **** 
 677:D:/Work/DeviceTester/amazon-freertos/tests/common/greengrass\aws_test_greengrass_discovery.c **** /** @brief Check we have a match finding the group ID.
 678:D:/Work/DeviceTester/amazon-freertos/tests/common/greengrass\aws_test_greengrass_discovery.c ****  *  @{
 679:D:/Work/DeviceTester/amazon-freertos/tests/common/greengrass\aws_test_greengrass_discovery.c ****  */
 680:D:/Work/DeviceTester/amazon-freertos/tests/common/greengrass\aws_test_greengrass_discovery.c ****         xAutoConnectFlag = pdFALSE;
 681:D:/Work/DeviceTester/amazon-freertos/tests/common/greengrass\aws_test_greengrass_discovery.c ****         ulTokenIndex = ggdTestJSON_GROUPID_TOKEN_INDEX;
 682:D:/Work/DeviceTester/amazon-freertos/tests/common/greengrass\aws_test_greengrass_discovery.c ****         test_prvCheckMatch( cJSON_FILE,
 683:D:/Work/DeviceTester/amazon-freertos/tests/common/greengrass\aws_test_greengrass_discovery.c ****                             pxTok,
 684:D:/Work/DeviceTester/amazon-freertos/tests/common/greengrass\aws_test_greengrass_discovery.c ****                             ulTokenIndex,
 685:D:/Work/DeviceTester/amazon-freertos/tests/common/greengrass\aws_test_greengrass_discovery.c ****                             &xMatch,
 686:D:/Work/DeviceTester/amazon-freertos/tests/common/greengrass\aws_test_greengrass_discovery.c ****                             ggdJSON_FILE_GROUPID,
 687:D:/Work/DeviceTester/amazon-freertos/tests/common/greengrass\aws_test_greengrass_discovery.c ****                             cMyGroupID,
 688:D:/Work/DeviceTester/amazon-freertos/tests/common/greengrass\aws_test_greengrass_discovery.c ****                             xAutoConnectFlag );
 689:D:/Work/DeviceTester/amazon-freertos/tests/common/greengrass\aws_test_greengrass_discovery.c ****         TEST_ASSERT_EQUAL_INT32( pdTRUE, xMatch );
 690:D:/Work/DeviceTester/amazon-freertos/tests/common/greengrass\aws_test_greengrass_discovery.c ****         /** @}*/
 691:D:/Work/DeviceTester/amazon-freertos/tests/common/greengrass\aws_test_greengrass_discovery.c **** 
 692:D:/Work/DeviceTester/amazon-freertos/tests/common/greengrass\aws_test_greengrass_discovery.c ****         /** @brief Check we don't have a match finding the group ID,
 693:D:/Work/DeviceTester/amazon-freertos/tests/common/greengrass\aws_test_greengrass_discovery.c ****          * if we pass the wrong index
 694:D:/Work/DeviceTester/amazon-freertos/tests/common/greengrass\aws_test_greengrass_discovery.c ****          *  @{
 695:D:/Work/DeviceTester/amazon-freertos/tests/common/greengrass\aws_test_greengrass_discovery.c ****          */
 696:D:/Work/DeviceTester/amazon-freertos/tests/common/greengrass\aws_test_greengrass_discovery.c ****         xAutoConnectFlag = pdFALSE;
 697:D:/Work/DeviceTester/amazon-freertos/tests/common/greengrass\aws_test_greengrass_discovery.c ****         ulTokenIndex = ggdTestJSON_GROUPID_TOKEN_INDEX + 1;
 698:D:/Work/DeviceTester/amazon-freertos/tests/common/greengrass\aws_test_greengrass_discovery.c ****         test_prvCheckMatch( cJSON_FILE,
 699:D:/Work/DeviceTester/amazon-freertos/tests/common/greengrass\aws_test_greengrass_discovery.c ****                             pxTok,
 700:D:/Work/DeviceTester/amazon-freertos/tests/common/greengrass\aws_test_greengrass_discovery.c ****                             ulTokenIndex,
 701:D:/Work/DeviceTester/amazon-freertos/tests/common/greengrass\aws_test_greengrass_discovery.c ****                             &xMatch,
 702:D:/Work/DeviceTester/amazon-freertos/tests/common/greengrass\aws_test_greengrass_discovery.c ****                             ggdJSON_FILE_GROUPID,
 703:D:/Work/DeviceTester/amazon-freertos/tests/common/greengrass\aws_test_greengrass_discovery.c ****                             cMyGroupID,
 704:D:/Work/DeviceTester/amazon-freertos/tests/common/greengrass\aws_test_greengrass_discovery.c ****                             xAutoConnectFlag );
 705:D:/Work/DeviceTester/amazon-freertos/tests/common/greengrass\aws_test_greengrass_discovery.c ****         TEST_ASSERT_EQUAL_INT32( pdFALSE, xMatch );
 706:D:/Work/DeviceTester/amazon-freertos/tests/common/greengrass\aws_test_greengrass_discovery.c ****         /** @}*/
 707:D:/Work/DeviceTester/amazon-freertos/tests/common/greengrass\aws_test_greengrass_discovery.c **** 
 708:D:/Work/DeviceTester/amazon-freertos/tests/common/greengrass\aws_test_greengrass_discovery.c ****         /** @brief Auto-connect should find the index then conect to any string.
 709:D:/Work/DeviceTester/amazon-freertos/tests/common/greengrass\aws_test_greengrass_discovery.c ****          *  Check that function match return false if the index is not found,
 710:D:/Work/DeviceTester/amazon-freertos/tests/common/greengrass\aws_test_greengrass_discovery.c ****          * but returns true for any random string, as long as index is found.
 711:D:/Work/DeviceTester/amazon-freertos/tests/common/greengrass\aws_test_greengrass_discovery.c ****          *
 712:D:/Work/DeviceTester/amazon-freertos/tests/common/greengrass\aws_test_greengrass_discovery.c ****          *  @{
 713:D:/Work/DeviceTester/amazon-freertos/tests/common/greengrass\aws_test_greengrass_discovery.c ****          */
 714:D:/Work/DeviceTester/amazon-freertos/tests/common/greengrass\aws_test_greengrass_discovery.c ****         xAutoConnectFlag = pdTRUE;
 715:D:/Work/DeviceTester/amazon-freertos/tests/common/greengrass\aws_test_greengrass_discovery.c ****         ulTokenIndex = ggdTestJSON_GROUPID_TOKEN_INDEX + 1;
 716:D:/Work/DeviceTester/amazon-freertos/tests/common/greengrass\aws_test_greengrass_discovery.c ****         test_prvCheckMatch( cJSON_FILE,
 717:D:/Work/DeviceTester/amazon-freertos/tests/common/greengrass\aws_test_greengrass_discovery.c ****                             pxTok,
 718:D:/Work/DeviceTester/amazon-freertos/tests/common/greengrass\aws_test_greengrass_discovery.c ****                             ulTokenIndex,
 719:D:/Work/DeviceTester/amazon-freertos/tests/common/greengrass\aws_test_greengrass_discovery.c ****                             &xMatch,
 720:D:/Work/DeviceTester/amazon-freertos/tests/common/greengrass\aws_test_greengrass_discovery.c ****                             "randomString",
 721:D:/Work/DeviceTester/amazon-freertos/tests/common/greengrass\aws_test_greengrass_discovery.c ****                             cMyGroupID,
 722:D:/Work/DeviceTester/amazon-freertos/tests/common/greengrass\aws_test_greengrass_discovery.c ****                             xAutoConnectFlag );
 723:D:/Work/DeviceTester/amazon-freertos/tests/common/greengrass\aws_test_greengrass_discovery.c ****         TEST_ASSERT_EQUAL_INT32( pdFALSE, xMatch );
 724:D:/Work/DeviceTester/amazon-freertos/tests/common/greengrass\aws_test_greengrass_discovery.c **** 
 725:D:/Work/DeviceTester/amazon-freertos/tests/common/greengrass\aws_test_greengrass_discovery.c ****         xAutoConnectFlag = pdTRUE;
 726:D:/Work/DeviceTester/amazon-freertos/tests/common/greengrass\aws_test_greengrass_discovery.c ****         ulTokenIndex = ggdTestJSON_GROUPID_TOKEN_INDEX;
 727:D:/Work/DeviceTester/amazon-freertos/tests/common/greengrass\aws_test_greengrass_discovery.c ****         test_prvCheckMatch( cJSON_FILE,
 728:D:/Work/DeviceTester/amazon-freertos/tests/common/greengrass\aws_test_greengrass_discovery.c ****                             pxTok,
 729:D:/Work/DeviceTester/amazon-freertos/tests/common/greengrass\aws_test_greengrass_discovery.c ****                             ulTokenIndex,
 730:D:/Work/DeviceTester/amazon-freertos/tests/common/greengrass\aws_test_greengrass_discovery.c ****                             &xMatch,
 731:D:/Work/DeviceTester/amazon-freertos/tests/common/greengrass\aws_test_greengrass_discovery.c ****                             ggdJSON_FILE_GROUPID,
 732:D:/Work/DeviceTester/amazon-freertos/tests/common/greengrass\aws_test_greengrass_discovery.c ****                             "randomString",
 733:D:/Work/DeviceTester/amazon-freertos/tests/common/greengrass\aws_test_greengrass_discovery.c ****                             xAutoConnectFlag );
 734:D:/Work/DeviceTester/amazon-freertos/tests/common/greengrass\aws_test_greengrass_discovery.c ****         TEST_ASSERT_EQUAL_INT32( pdTRUE, xMatch );
 735:D:/Work/DeviceTester/amazon-freertos/tests/common/greengrass\aws_test_greengrass_discovery.c ****         /** @}*/
 736:D:/Work/DeviceTester/amazon-freertos/tests/common/greengrass\aws_test_greengrass_discovery.c **** 
 737:D:/Work/DeviceTester/amazon-freertos/tests/common/greengrass\aws_test_greengrass_discovery.c ****         /** @brief Check we don't have a match finding the group ID,
 738:D:/Work/DeviceTester/amazon-freertos/tests/common/greengrass\aws_test_greengrass_discovery.c ****          * if we pass the wrong string
 739:D:/Work/DeviceTester/amazon-freertos/tests/common/greengrass\aws_test_greengrass_discovery.c ****          *  @{
 740:D:/Work/DeviceTester/amazon-freertos/tests/common/greengrass\aws_test_greengrass_discovery.c ****          */
 741:D:/Work/DeviceTester/amazon-freertos/tests/common/greengrass\aws_test_greengrass_discovery.c ****         xAutoConnectFlag = pdFALSE;
 742:D:/Work/DeviceTester/amazon-freertos/tests/common/greengrass\aws_test_greengrass_discovery.c ****         ulTokenIndex = ggdTestJSON_GROUPID_TOKEN_INDEX;
 743:D:/Work/DeviceTester/amazon-freertos/tests/common/greengrass\aws_test_greengrass_discovery.c ****         test_prvCheckMatch( cJSON_FILE,
 744:D:/Work/DeviceTester/amazon-freertos/tests/common/greengrass\aws_test_greengrass_discovery.c ****                             pxTok,
 745:D:/Work/DeviceTester/amazon-freertos/tests/common/greengrass\aws_test_greengrass_discovery.c ****                             ulTokenIndex,
 746:D:/Work/DeviceTester/amazon-freertos/tests/common/greengrass\aws_test_greengrass_discovery.c ****                             &xMatch,
 747:D:/Work/DeviceTester/amazon-freertos/tests/common/greengrass\aws_test_greengrass_discovery.c ****                             "randomString",
 748:D:/Work/DeviceTester/amazon-freertos/tests/common/greengrass\aws_test_greengrass_discovery.c ****                             cMyGroupID,
 749:D:/Work/DeviceTester/amazon-freertos/tests/common/greengrass\aws_test_greengrass_discovery.c ****                             xAutoConnectFlag );
 750:D:/Work/DeviceTester/amazon-freertos/tests/common/greengrass\aws_test_greengrass_discovery.c ****         TEST_ASSERT_EQUAL_INT32( pdFALSE, xMatch );
 751:D:/Work/DeviceTester/amazon-freertos/tests/common/greengrass\aws_test_greengrass_discovery.c ****         /** @}*/
 752:D:/Work/DeviceTester/amazon-freertos/tests/common/greengrass\aws_test_greengrass_discovery.c ****     }
 753:D:/Work/DeviceTester/amazon-freertos/tests/common/greengrass\aws_test_greengrass_discovery.c ****     else
 754:D:/Work/DeviceTester/amazon-freertos/tests/common/greengrass\aws_test_greengrass_discovery.c ****     {
 755:D:/Work/DeviceTester/amazon-freertos/tests/common/greengrass\aws_test_greengrass_discovery.c ****         TEST_FAIL();
 756:D:/Work/DeviceTester/amazon-freertos/tests/common/greengrass\aws_test_greengrass_discovery.c ****     }
 757:D:/Work/DeviceTester/amazon-freertos/tests/common/greengrass\aws_test_greengrass_discovery.c **** }
 758:D:/Work/DeviceTester/amazon-freertos/tests/common/greengrass\aws_test_greengrass_discovery.c **** 
 759:D:/Work/DeviceTester/amazon-freertos/tests/common/greengrass\aws_test_greengrass_discovery.c **** TEST( Full_GGD, Jsoneq )
 760:D:/Work/DeviceTester/amazon-freertos/tests/common/greengrass\aws_test_greengrass_discovery.c **** {
 761:D:/Work/DeviceTester/amazon-freertos/tests/common/greengrass\aws_test_greengrass_discovery.c ****     BaseType_t xStatus;
 762:D:/Work/DeviceTester/amazon-freertos/tests/common/greengrass\aws_test_greengrass_discovery.c ****     jsmn_parser xParser;
 763:D:/Work/DeviceTester/amazon-freertos/tests/common/greengrass\aws_test_greengrass_discovery.c ****     int32_t lNbTokens;
 764:D:/Work/DeviceTester/amazon-freertos/tests/common/greengrass\aws_test_greengrass_discovery.c ****     uint32_t ulJSONFileSize = strlen( cJSON_FILE );
 765:D:/Work/DeviceTester/amazon-freertos/tests/common/greengrass\aws_test_greengrass_discovery.c ****     jsmntok_t pxTok[ ggdTestJSON_MAX_TOKENS ];
 766:D:/Work/DeviceTester/amazon-freertos/tests/common/greengrass\aws_test_greengrass_discovery.c **** 
 767:D:/Work/DeviceTester/amazon-freertos/tests/common/greengrass\aws_test_greengrass_discovery.c **** 
 768:D:/Work/DeviceTester/amazon-freertos/tests/common/greengrass\aws_test_greengrass_discovery.c ****     if( TEST_PROTECT() )
 769:D:/Work/DeviceTester/amazon-freertos/tests/common/greengrass\aws_test_greengrass_discovery.c ****     {
 770:D:/Work/DeviceTester/amazon-freertos/tests/common/greengrass\aws_test_greengrass_discovery.c ****         /** @brief Prepare test.
 771:D:/Work/DeviceTester/amazon-freertos/tests/common/greengrass\aws_test_greengrass_discovery.c ****          *  @{
 772:D:/Work/DeviceTester/amazon-freertos/tests/common/greengrass\aws_test_greengrass_discovery.c ****          */
 773:D:/Work/DeviceTester/amazon-freertos/tests/common/greengrass\aws_test_greengrass_discovery.c ****         jsmn_init( &xParser );
 774:D:/Work/DeviceTester/amazon-freertos/tests/common/greengrass\aws_test_greengrass_discovery.c **** 
 775:D:/Work/DeviceTester/amazon-freertos/tests/common/greengrass\aws_test_greengrass_discovery.c ****         /* From jsmn, parse the JSON file. */
 776:D:/Work/DeviceTester/amazon-freertos/tests/common/greengrass\aws_test_greengrass_discovery.c ****         lNbTokens = ( int32_t ) jsmn_parse( &xParser,
 777:D:/Work/DeviceTester/amazon-freertos/tests/common/greengrass\aws_test_greengrass_discovery.c ****                                             cJSON_FILE, /*lint !e971 can use char without signed/un
 778:D:/Work/DeviceTester/amazon-freertos/tests/common/greengrass\aws_test_greengrass_discovery.c ****                                             ( size_t ) ulJSONFileSize,
 779:D:/Work/DeviceTester/amazon-freertos/tests/common/greengrass\aws_test_greengrass_discovery.c ****                                             pxTok,
 780:D:/Work/DeviceTester/amazon-freertos/tests/common/greengrass\aws_test_greengrass_discovery.c ****                                             ( unsigned int ) ggdTestJSON_MAX_TOKENS ); /*lint !e961
 781:D:/Work/DeviceTester/amazon-freertos/tests/common/greengrass\aws_test_greengrass_discovery.c ****         TEST_ASSERT_GREATER_THAN( 0, lNbTokens );
 782:D:/Work/DeviceTester/amazon-freertos/tests/common/greengrass\aws_test_greengrass_discovery.c **** /** @}*/
 783:D:/Work/DeviceTester/amazon-freertos/tests/common/greengrass\aws_test_greengrass_discovery.c **** 
 784:D:/Work/DeviceTester/amazon-freertos/tests/common/greengrass\aws_test_greengrass_discovery.c **** /** @brief Check return status and value in ideal case.
 785:D:/Work/DeviceTester/amazon-freertos/tests/common/greengrass\aws_test_greengrass_discovery.c ****  *  @{
 786:D:/Work/DeviceTester/amazon-freertos/tests/common/greengrass\aws_test_greengrass_discovery.c ****  */
 787:D:/Work/DeviceTester/amazon-freertos/tests/common/greengrass\aws_test_greengrass_discovery.c ****         xStatus = test_prvGGDJsoneq( cJSON_FILE,
 788:D:/Work/DeviceTester/amazon-freertos/tests/common/greengrass\aws_test_greengrass_discovery.c ****                                      &pxTok[ ggdTestJSON_GROUPID_TOKEN_INDEX ],
 789:D:/Work/DeviceTester/amazon-freertos/tests/common/greengrass\aws_test_greengrass_discovery.c ****                                      ggdJSON_FILE_GROUPID );
 790:D:/Work/DeviceTester/amazon-freertos/tests/common/greengrass\aws_test_greengrass_discovery.c ****         TEST_ASSERT_EQUAL_INT32( pdPASS, xStatus );
 791:D:/Work/DeviceTester/amazon-freertos/tests/common/greengrass\aws_test_greengrass_discovery.c ****         /** @}*/
 792:D:/Work/DeviceTester/amazon-freertos/tests/common/greengrass\aws_test_greengrass_discovery.c **** 
 793:D:/Work/DeviceTester/amazon-freertos/tests/common/greengrass\aws_test_greengrass_discovery.c ****         /** @brief Check return fail if another index is passed.
 794:D:/Work/DeviceTester/amazon-freertos/tests/common/greengrass\aws_test_greengrass_discovery.c ****          *  @{
 795:D:/Work/DeviceTester/amazon-freertos/tests/common/greengrass\aws_test_greengrass_discovery.c ****          */
 796:D:/Work/DeviceTester/amazon-freertos/tests/common/greengrass\aws_test_greengrass_discovery.c ****         xStatus = test_prvGGDJsoneq( cJSON_FILE,
 797:D:/Work/DeviceTester/amazon-freertos/tests/common/greengrass\aws_test_greengrass_discovery.c ****                                      &pxTok[ ggdTestJSON_GROUPID_TOKEN_INDEX + 1 ],
 798:D:/Work/DeviceTester/amazon-freertos/tests/common/greengrass\aws_test_greengrass_discovery.c ****                                      ggdJSON_FILE_GROUPID );
 799:D:/Work/DeviceTester/amazon-freertos/tests/common/greengrass\aws_test_greengrass_discovery.c ****         TEST_ASSERT_EQUAL_INT32( pdFAIL, xStatus );
 800:D:/Work/DeviceTester/amazon-freertos/tests/common/greengrass\aws_test_greengrass_discovery.c ****         /** @}*/
 801:D:/Work/DeviceTester/amazon-freertos/tests/common/greengrass\aws_test_greengrass_discovery.c **** 
 802:D:/Work/DeviceTester/amazon-freertos/tests/common/greengrass\aws_test_greengrass_discovery.c ****         /* No need to check for stability here.
 803:D:/Work/DeviceTester/amazon-freertos/tests/common/greengrass\aws_test_greengrass_discovery.c ****          * NULL pointers being passed would be a bug from higher levels.
 804:D:/Work/DeviceTester/amazon-freertos/tests/common/greengrass\aws_test_greengrass_discovery.c ****          */
 805:D:/Work/DeviceTester/amazon-freertos/tests/common/greengrass\aws_test_greengrass_discovery.c ****     }
 806:D:/Work/DeviceTester/amazon-freertos/tests/common/greengrass\aws_test_greengrass_discovery.c ****     else
 807:D:/Work/DeviceTester/amazon-freertos/tests/common/greengrass\aws_test_greengrass_discovery.c ****     {
 808:D:/Work/DeviceTester/amazon-freertos/tests/common/greengrass\aws_test_greengrass_discovery.c ****         TEST_FAIL();
 809:D:/Work/DeviceTester/amazon-freertos/tests/common/greengrass\aws_test_greengrass_discovery.c ****     }
 810:D:/Work/DeviceTester/amazon-freertos/tests/common/greengrass\aws_test_greengrass_discovery.c **** }
 811:D:/Work/DeviceTester/amazon-freertos/tests/common/greengrass\aws_test_greengrass_discovery.c **** 
 812:D:/Work/DeviceTester/amazon-freertos/tests/common/greengrass\aws_test_greengrass_discovery.c **** TEST( Full_GGD, CheckForContentLengthString )
 813:D:/Work/DeviceTester/amazon-freertos/tests/common/greengrass\aws_test_greengrass_discovery.c **** {
 814:D:/Work/DeviceTester/amazon-freertos/tests/common/greengrass\aws_test_greengrass_discovery.c ****     BaseType_t xStatus;
 815:D:/Work/DeviceTester/amazon-freertos/tests/common/greengrass\aws_test_greengrass_discovery.c ****     uint8_t ucIndex = 0;
 816:D:/Work/DeviceTester/amazon-freertos/tests/common/greengrass\aws_test_greengrass_discovery.c ****     uint32_t ulI;
 817:D:/Work/DeviceTester/amazon-freertos/tests/common/greengrass\aws_test_greengrass_discovery.c ****     char cHTTPContentString[] = ggdHTTP_CONTENT_LENGTH_STRING;
 818:D:/Work/DeviceTester/amazon-freertos/tests/common/greengrass\aws_test_greengrass_discovery.c **** 
 819:D:/Work/DeviceTester/amazon-freertos/tests/common/greengrass\aws_test_greengrass_discovery.c ****     if( TEST_PROTECT() )
 820:D:/Work/DeviceTester/amazon-freertos/tests/common/greengrass\aws_test_greengrass_discovery.c ****     {
 821:D:/Work/DeviceTester/amazon-freertos/tests/common/greengrass\aws_test_greengrass_discovery.c ****         /** @brief Check return status and value in ideal case.
 822:D:/Work/DeviceTester/amazon-freertos/tests/common/greengrass\aws_test_greengrass_discovery.c ****          *  @{
 823:D:/Work/DeviceTester/amazon-freertos/tests/common/greengrass\aws_test_greengrass_discovery.c ****          */
 824:D:/Work/DeviceTester/amazon-freertos/tests/common/greengrass\aws_test_greengrass_discovery.c ****         for( ulI = 0;
 825:D:/Work/DeviceTester/amazon-freertos/tests/common/greengrass\aws_test_greengrass_discovery.c ****              ulI < strlen( ggdHTTP_CONTENT_LENGTH_STRING ) - 1;
 826:D:/Work/DeviceTester/amazon-freertos/tests/common/greengrass\aws_test_greengrass_discovery.c ****              ulI++ )
 827:D:/Work/DeviceTester/amazon-freertos/tests/common/greengrass\aws_test_greengrass_discovery.c ****         {
 828:D:/Work/DeviceTester/amazon-freertos/tests/common/greengrass\aws_test_greengrass_discovery.c ****             xStatus = test_prvCheckForContentLengthString( &ucIndex,
 829:D:/Work/DeviceTester/amazon-freertos/tests/common/greengrass\aws_test_greengrass_discovery.c ****                                                            cHTTPContentString[ ulI ] );
 830:D:/Work/DeviceTester/amazon-freertos/tests/common/greengrass\aws_test_greengrass_discovery.c ****             TEST_ASSERT_EQUAL_INT32( pdFAIL, xStatus );
 831:D:/Work/DeviceTester/amazon-freertos/tests/common/greengrass\aws_test_greengrass_discovery.c ****             TEST_ASSERT_EQUAL_INT32( ulI + 1, ucIndex );
 832:D:/Work/DeviceTester/amazon-freertos/tests/common/greengrass\aws_test_greengrass_discovery.c ****         }
 833:D:/Work/DeviceTester/amazon-freertos/tests/common/greengrass\aws_test_greengrass_discovery.c **** 
 834:D:/Work/DeviceTester/amazon-freertos/tests/common/greengrass\aws_test_greengrass_discovery.c ****         xStatus = test_prvCheckForContentLengthString( &ucIndex,
 835:D:/Work/DeviceTester/amazon-freertos/tests/common/greengrass\aws_test_greengrass_discovery.c ****                                                        cHTTPContentString[ ulI ] );
 836:D:/Work/DeviceTester/amazon-freertos/tests/common/greengrass\aws_test_greengrass_discovery.c ****         TEST_ASSERT_EQUAL_INT32( pdPASS, xStatus );
 837:D:/Work/DeviceTester/amazon-freertos/tests/common/greengrass\aws_test_greengrass_discovery.c ****         /** @}*/
 838:D:/Work/DeviceTester/amazon-freertos/tests/common/greengrass\aws_test_greengrass_discovery.c **** 
 839:D:/Work/DeviceTester/amazon-freertos/tests/common/greengrass\aws_test_greengrass_discovery.c ****         /** @brief Check index start back to 0 when a wrong char is given.
 840:D:/Work/DeviceTester/amazon-freertos/tests/common/greengrass\aws_test_greengrass_discovery.c ****          *  @{
 841:D:/Work/DeviceTester/amazon-freertos/tests/common/greengrass\aws_test_greengrass_discovery.c ****          */
 842:D:/Work/DeviceTester/amazon-freertos/tests/common/greengrass\aws_test_greengrass_discovery.c ****         ucIndex = 0;
 843:D:/Work/DeviceTester/amazon-freertos/tests/common/greengrass\aws_test_greengrass_discovery.c **** 
 844:D:/Work/DeviceTester/amazon-freertos/tests/common/greengrass\aws_test_greengrass_discovery.c ****         for( ulI = 0;
 845:D:/Work/DeviceTester/amazon-freertos/tests/common/greengrass\aws_test_greengrass_discovery.c ****              ulI < strlen( ggdHTTP_CONTENT_LENGTH_STRING ) - 1;
 846:D:/Work/DeviceTester/amazon-freertos/tests/common/greengrass\aws_test_greengrass_discovery.c ****              ulI++ )
 847:D:/Work/DeviceTester/amazon-freertos/tests/common/greengrass\aws_test_greengrass_discovery.c ****         {
 848:D:/Work/DeviceTester/amazon-freertos/tests/common/greengrass\aws_test_greengrass_discovery.c ****             xStatus = test_prvCheckForContentLengthString( &ucIndex,
 849:D:/Work/DeviceTester/amazon-freertos/tests/common/greengrass\aws_test_greengrass_discovery.c ****                                                            cHTTPContentString[ ulI ] );
 850:D:/Work/DeviceTester/amazon-freertos/tests/common/greengrass\aws_test_greengrass_discovery.c ****             TEST_ASSERT_EQUAL_INT32( pdFAIL, xStatus );
 851:D:/Work/DeviceTester/amazon-freertos/tests/common/greengrass\aws_test_greengrass_discovery.c ****             TEST_ASSERT_EQUAL_INT32( ulI + 1, ucIndex );
 852:D:/Work/DeviceTester/amazon-freertos/tests/common/greengrass\aws_test_greengrass_discovery.c ****         }
 853:D:/Work/DeviceTester/amazon-freertos/tests/common/greengrass\aws_test_greengrass_discovery.c **** 
 854:D:/Work/DeviceTester/amazon-freertos/tests/common/greengrass\aws_test_greengrass_discovery.c ****         xStatus = test_prvCheckForContentLengthString( &ucIndex,
 855:D:/Work/DeviceTester/amazon-freertos/tests/common/greengrass\aws_test_greengrass_discovery.c ****                                                        '0' ); /* Send a random character. */
 856:D:/Work/DeviceTester/amazon-freertos/tests/common/greengrass\aws_test_greengrass_discovery.c ****         TEST_ASSERT_EQUAL_INT32( pdFAIL, xStatus );
 857:D:/Work/DeviceTester/amazon-freertos/tests/common/greengrass\aws_test_greengrass_discovery.c ****         TEST_ASSERT_EQUAL_INT32( 0, ucIndex );
 858:D:/Work/DeviceTester/amazon-freertos/tests/common/greengrass\aws_test_greengrass_discovery.c ****         /** @}*/
 859:D:/Work/DeviceTester/amazon-freertos/tests/common/greengrass\aws_test_greengrass_discovery.c ****     }
 860:D:/Work/DeviceTester/amazon-freertos/tests/common/greengrass\aws_test_greengrass_discovery.c **** }
 861:D:/Work/DeviceTester/amazon-freertos/tests/common/greengrass\aws_test_greengrass_discovery.c **** 
 862:D:/Work/DeviceTester/amazon-freertos/tests/common/greengrass\aws_test_greengrass_discovery.c **** TEST( Full_GGD, JSONRequestGetFile )
 863:D:/Work/DeviceTester/amazon-freertos/tests/common/greengrass\aws_test_greengrass_discovery.c **** {
 794              		.loc 1 863 0
 795              		.cfi_startproc
 796              		@ args = 0, pretend = 0, frame = 16
 797              		@ frame_needed = 0, uses_anonymous_args = 0
 798              	.LVL84:
 864:D:/Work/DeviceTester/amazon-freertos/tests/common/greengrass\aws_test_greengrass_discovery.c ****     BaseType_t xStatus;
 865:D:/Work/DeviceTester/amazon-freertos/tests/common/greengrass\aws_test_greengrass_discovery.c ****     uint32_t ulBufferSize = testrunnerBUFFER_SIZE;
 866:D:/Work/DeviceTester/amazon-freertos/tests/common/greengrass\aws_test_greengrass_discovery.c ****     uint32_t ulByteRead;
 867:D:/Work/DeviceTester/amazon-freertos/tests/common/greengrass\aws_test_greengrass_discovery.c ****     BaseType_t xJSONFileRetrieveCompleted;
 868:D:/Work/DeviceTester/amazon-freertos/tests/common/greengrass\aws_test_greengrass_discovery.c ****     uint32_t ulJSONFileSize;
 869:D:/Work/DeviceTester/amazon-freertos/tests/common/greengrass\aws_test_greengrass_discovery.c **** 
 870:D:/Work/DeviceTester/amazon-freertos/tests/common/greengrass\aws_test_greengrass_discovery.c ****     if( TEST_PROTECT() )
 799              		.loc 1 870 0
 800 0000 4C039FE5 		ldr	r0, .L79
 863:D:/Work/DeviceTester/amazon-freertos/tests/common/greengrass\aws_test_greengrass_discovery.c ****     BaseType_t xStatus;
 801              		.loc 1 863 0
 802 0004 F0432DE9 		push	{r4, r5, r6, r7, r8, r9, lr}
 803              		.cfi_def_cfa_offset 28
 804              		.cfi_offset 4, -28
 805              		.cfi_offset 5, -24
 806              		.cfi_offset 6, -20
 807              		.cfi_offset 7, -16
 808              		.cfi_offset 8, -12
 809              		.cfi_offset 9, -8
 810              		.cfi_offset 14, -4
 811 0008 1CD04DE2 		sub	sp, sp, #28
 812              		.cfi_def_cfa_offset 56
 813              		.loc 1 870 0
 814 000c FEFFFFEB 		bl	setjmp
 815              	.LVL85:
 816 0010 006050E2 		subs	r6, r0, #0
 817 0014 CA00001A 		bne	.L77
 871:D:/Work/DeviceTester/amazon-freertos/tests/common/greengrass\aws_test_greengrass_discovery.c ****     {
 872:D:/Work/DeviceTester/amazon-freertos/tests/common/greengrass\aws_test_greengrass_discovery.c ****         /** @brief Check return status and value in ideal case.
 873:D:/Work/DeviceTester/amazon-freertos/tests/common/greengrass\aws_test_greengrass_discovery.c ****          *  @{
 874:D:/Work/DeviceTester/amazon-freertos/tests/common/greengrass\aws_test_greengrass_discovery.c ****          */
 875:D:/Work/DeviceTester/amazon-freertos/tests/common/greengrass\aws_test_greengrass_discovery.c ****         xStatus = GGD_JSONRequestStart( &xSocket );
 818              		.loc 1 875 0
 819 0018 38539FE5 		ldr	r5, .L79+4
 820 001c 0500A0E1 		mov	r0, r5
 821 0020 FEFFFFEB 		bl	GGD_JSONRequestStart
 822              	.LVL86:
 876:D:/Work/DeviceTester/amazon-freertos/tests/common/greengrass\aws_test_greengrass_discovery.c **** 
 877:D:/Work/DeviceTester/amazon-freertos/tests/common/greengrass\aws_test_greengrass_discovery.c ****         if( xStatus == pdPASS )
 823              		.loc 1 877 0
 824 0024 010050E3 		cmp	r0, #1
 875:D:/Work/DeviceTester/amazon-freertos/tests/common/greengrass\aws_test_greengrass_discovery.c **** 
 825              		.loc 1 875 0
 826 0028 0040A0E1 		mov	r4, r0
 827              	.LVL87:
 828              		.loc 1 877 0
 829 002c 1000001A 		bne	.L64
 878:D:/Work/DeviceTester/amazon-freertos/tests/common/greengrass\aws_test_greengrass_discovery.c ****         {
 879:D:/Work/DeviceTester/amazon-freertos/tests/common/greengrass\aws_test_greengrass_discovery.c ****             xStatus = GGD_JSONRequestGetSize( &xSocket, &ulJSONFileSize );
 830              		.loc 1 879 0
 831 0030 14108DE2 		add	r1, sp, #20
 832 0034 0500A0E1 		mov	r0, r5
 833              	.LVL88:
 834 0038 FEFFFFEB 		bl	GGD_JSONRequestGetSize
 835              	.LVL89:
 880:D:/Work/DeviceTester/amazon-freertos/tests/common/greengrass\aws_test_greengrass_discovery.c ****         }
 881:D:/Work/DeviceTester/amazon-freertos/tests/common/greengrass\aws_test_greengrass_discovery.c **** 
 882:D:/Work/DeviceTester/amazon-freertos/tests/common/greengrass\aws_test_greengrass_discovery.c ****         if( xStatus == pdPASS )
 836              		.loc 1 882 0
 837 003c 010050E3 		cmp	r0, #1
 879:D:/Work/DeviceTester/amazon-freertos/tests/common/greengrass\aws_test_greengrass_discovery.c ****         }
 838              		.loc 1 879 0
 839 0040 0040A0E1 		mov	r4, r0
 840              	.LVL90:
 841              		.loc 1 882 0
 842 0044 0A00001A 		bne	.L64
 883:D:/Work/DeviceTester/amazon-freertos/tests/common/greengrass\aws_test_greengrass_discovery.c ****         {
 884:D:/Work/DeviceTester/amazon-freertos/tests/common/greengrass\aws_test_greengrass_discovery.c ****             ulByteRead = 0;
 885:D:/Work/DeviceTester/amazon-freertos/tests/common/greengrass\aws_test_greengrass_discovery.c ****             xStatus = GGD_JSONRequestGetFile( &xSocket,
 843              		.loc 1 885 0
 844 0048 14209DE5 		ldr	r2, [sp, #20]
 884:D:/Work/DeviceTester/amazon-freertos/tests/common/greengrass\aws_test_greengrass_discovery.c ****             xStatus = GGD_JSONRequestGetFile( &xSocket,
 845              		.loc 1 884 0
 846 004c 18308DE2 		add	r3, sp, #24
 847 0050 0C6023E5 		str	r6, [r3, #-12]!
 848              		.loc 1 885 0
 849 0054 0500A0E1 		mov	r0, r5
 850              	.LVL91:
 851 0058 FC129FE5 		ldr	r1, .L79+8
 852 005c 04208DE5 		str	r2, [sp, #4]
 853 0060 10208DE2 		add	r2, sp, #16
 854 0064 00208DE5 		str	r2, [sp]
 855 0068 FA2EA0E3 		mov	r2, #4000
 856 006c FEFFFFEB 		bl	GGD_JSONRequestGetFile
 857              	.LVL92:
 858 0070 0040A0E1 		mov	r4, r0
 859              	.LVL93:
 860              	.L64:
 886:D:/Work/DeviceTester/amazon-freertos/tests/common/greengrass\aws_test_greengrass_discovery.c ****                                               cBuffer,
 887:D:/Work/DeviceTester/amazon-freertos/tests/common/greengrass\aws_test_greengrass_discovery.c ****                                               ulBufferSize,
 888:D:/Work/DeviceTester/amazon-freertos/tests/common/greengrass\aws_test_greengrass_discovery.c ****                                               &ulByteRead,
 889:D:/Work/DeviceTester/amazon-freertos/tests/common/greengrass\aws_test_greengrass_discovery.c ****                                               &xJSONFileRetrieveCompleted,
 890:D:/Work/DeviceTester/amazon-freertos/tests/common/greengrass\aws_test_greengrass_discovery.c ****                                               ulJSONFileSize );
 891:D:/Work/DeviceTester/amazon-freertos/tests/common/greengrass\aws_test_greengrass_discovery.c ****         }
 892:D:/Work/DeviceTester/amazon-freertos/tests/common/greengrass\aws_test_greengrass_discovery.c **** 
 893:D:/Work/DeviceTester/amazon-freertos/tests/common/greengrass\aws_test_greengrass_discovery.c ****         TEST_ASSERT_EQUAL_INT32( SOCKETS_INVALID_SOCKET, xSocket );
 861              		.loc 1 893 0
 862 0074 DC629FE5 		ldr	r6, .L79+4
 863 0078 1450A0E3 		mov	r5, #20
 864 007c 00508DE5 		str	r5, [sp]
 865 0080 7D3300E3 		movw	r3, #893
 866 0084 0020A0E3 		mov	r2, #0
 867 0088 0000E0E3 		mvn	r0, #0
 868 008c 001096E5 		ldr	r1, [r6]
 869 0090 FEFFFFEB 		bl	UnityAssertEqualNumber
 870              	.LVL94:
 894:D:/Work/DeviceTester/amazon-freertos/tests/common/greengrass\aws_test_greengrass_discovery.c ****         TEST_ASSERT_EQUAL_INT32( pdPASS, xStatus );
 871              		.loc 1 894 0
 872 0094 0410A0E1 		mov	r1, r4
 873 0098 7E3300E3 		movw	r3, #894
 874 009c 0020A0E3 		mov	r2, #0
 875 00a0 0100A0E3 		mov	r0, #1
 876 00a4 00508DE5 		str	r5, [sp]
 877 00a8 FEFFFFEB 		bl	UnityAssertEqualNumber
 878              	.LVL95:
 895:D:/Work/DeviceTester/amazon-freertos/tests/common/greengrass\aws_test_greengrass_discovery.c ****         TEST_ASSERT_EQUAL_INT32( pdTRUE, xJSONFileRetrieveCompleted );
 879              		.loc 1 895 0
 880 00ac 7F3300E3 		movw	r3, #895
 881 00b0 0020A0E3 		mov	r2, #0
 882 00b4 10109DE5 		ldr	r1, [sp, #16]
 883 00b8 0100A0E3 		mov	r0, #1
 884 00bc 00508DE5 		str	r5, [sp]
 885 00c0 FEFFFFEB 		bl	UnityAssertEqualNumber
 886              	.LVL96:
 896:D:/Work/DeviceTester/amazon-freertos/tests/common/greengrass\aws_test_greengrass_discovery.c ****         TEST_ASSERT_EQUAL_INT32( ulJSONFileSize, ulByteRead + 1 );
 887              		.loc 1 896 0
 888 00c4 0C109DE5 		ldr	r1, [sp, #12]
 889 00c8 0E3DA0E3 		mov	r3, #896
 890 00cc 0020A0E3 		mov	r2, #0
 891 00d0 14009DE5 		ldr	r0, [sp, #20]
 892 00d4 00508DE5 		str	r5, [sp]
 893 00d8 011081E2 		add	r1, r1, #1
 894 00dc FEFFFFEB 		bl	UnityAssertEqualNumber
 895              	.LVL97:
 897:D:/Work/DeviceTester/amazon-freertos/tests/common/greengrass\aws_test_greengrass_discovery.c **** 
 898:D:/Work/DeviceTester/amazon-freertos/tests/common/greengrass\aws_test_greengrass_discovery.c ****         /** @}*/
 899:D:/Work/DeviceTester/amazon-freertos/tests/common/greengrass\aws_test_greengrass_discovery.c **** 
 900:D:/Work/DeviceTester/amazon-freertos/tests/common/greengrass\aws_test_greengrass_discovery.c ****         /** @brief Retrieve the JSON file in two separate chunks.
 901:D:/Work/DeviceTester/amazon-freertos/tests/common/greengrass\aws_test_greengrass_discovery.c ****          *  @{
 902:D:/Work/DeviceTester/amazon-freertos/tests/common/greengrass\aws_test_greengrass_discovery.c ****          */
 903:D:/Work/DeviceTester/amazon-freertos/tests/common/greengrass\aws_test_greengrass_discovery.c ****         xStatus = GGD_JSONRequestStart( &xSocket );
 896              		.loc 1 903 0
 897 00e0 0600A0E1 		mov	r0, r6
 898 00e4 FEFFFFEB 		bl	GGD_JSONRequestStart
 899              	.LVL98:
 904:D:/Work/DeviceTester/amazon-freertos/tests/common/greengrass\aws_test_greengrass_discovery.c **** 
 905:D:/Work/DeviceTester/amazon-freertos/tests/common/greengrass\aws_test_greengrass_discovery.c ****         if( xStatus == pdPASS )
 900              		.loc 1 905 0
 901 00e8 010050E3 		cmp	r0, #1
 903:D:/Work/DeviceTester/amazon-freertos/tests/common/greengrass\aws_test_greengrass_discovery.c **** 
 902              		.loc 1 903 0
 903 00ec 0040A0E1 		mov	r4, r0
 904              	.LVL99:
 905              		.loc 1 905 0
 906 00f0 2800001A 		bne	.L65
 906:D:/Work/DeviceTester/amazon-freertos/tests/common/greengrass\aws_test_greengrass_discovery.c ****         {
 907:D:/Work/DeviceTester/amazon-freertos/tests/common/greengrass\aws_test_greengrass_discovery.c ****             xStatus = GGD_JSONRequestGetSize( &xSocket, &ulJSONFileSize );
 907              		.loc 1 907 0
 908 00f4 05108DE0 		add	r1, sp, r5
 909 00f8 0600A0E1 		mov	r0, r6
 910              	.LVL100:
 911 00fc FEFFFFEB 		bl	GGD_JSONRequestGetSize
 912              	.LVL101:
 908:D:/Work/DeviceTester/amazon-freertos/tests/common/greengrass\aws_test_greengrass_discovery.c ****         }
 909:D:/Work/DeviceTester/amazon-freertos/tests/common/greengrass\aws_test_greengrass_discovery.c **** 
 910:D:/Work/DeviceTester/amazon-freertos/tests/common/greengrass\aws_test_greengrass_discovery.c ****         if( xStatus == pdPASS )
 913              		.loc 1 910 0
 914 0100 010050E3 		cmp	r0, #1
 907:D:/Work/DeviceTester/amazon-freertos/tests/common/greengrass\aws_test_greengrass_discovery.c ****         }
 915              		.loc 1 907 0
 916 0104 0040A0E1 		mov	r4, r0
 917              	.LVL102:
 918              		.loc 1 910 0
 919 0108 2200001A 		bne	.L65
 911:D:/Work/DeviceTester/amazon-freertos/tests/common/greengrass\aws_test_greengrass_discovery.c ****         {
 912:D:/Work/DeviceTester/amazon-freertos/tests/common/greengrass\aws_test_greengrass_discovery.c ****             ulByteRead = 0;
 913:D:/Work/DeviceTester/amazon-freertos/tests/common/greengrass\aws_test_greengrass_discovery.c ****             xStatus = GGD_JSONRequestGetFile( &xSocket,
 920              		.loc 1 913 0
 921 010c 14209DE5 		ldr	r2, [sp, #20]
 922 0110 10908DE2 		add	r9, sp, #16
 923 0114 40829FE5 		ldr	r8, .L79+8
 912:D:/Work/DeviceTester/amazon-freertos/tests/common/greengrass\aws_test_greengrass_discovery.c ****             xStatus = GGD_JSONRequestGetFile( &xSocket,
 924              		.loc 1 912 0
 925 0118 0070A0E3 		mov	r7, #0
 926              		.loc 1 913 0
 927 011c 0C308DE2 		add	r3, sp, #12
 928 0120 00908DE5 		str	r9, [sp]
 929 0124 04208DE5 		str	r2, [sp, #4]
 930 0128 0600A0E1 		mov	r0, r6
 931              	.LVL103:
 932 012c A220A0E1 		lsr	r2, r2, #1
 933 0130 0810A0E1 		mov	r1, r8
 912:D:/Work/DeviceTester/amazon-freertos/tests/common/greengrass\aws_test_greengrass_discovery.c ****             xStatus = GGD_JSONRequestGetFile( &xSocket,
 934              		.loc 1 912 0
 935 0134 0C708DE5 		str	r7, [sp, #12]
 936              		.loc 1 913 0
 937 0138 FEFFFFEB 		bl	GGD_JSONRequestGetFile
 938              	.LVL104:
 914:D:/Work/DeviceTester/amazon-freertos/tests/common/greengrass\aws_test_greengrass_discovery.c ****                                               cBuffer,
 915:D:/Work/DeviceTester/amazon-freertos/tests/common/greengrass\aws_test_greengrass_discovery.c ****                                               ulJSONFileSize / 2,
 916:D:/Work/DeviceTester/amazon-freertos/tests/common/greengrass\aws_test_greengrass_discovery.c ****                                               &ulByteRead,
 917:D:/Work/DeviceTester/amazon-freertos/tests/common/greengrass\aws_test_greengrass_discovery.c ****                                               &xJSONFileRetrieveCompleted,
 918:D:/Work/DeviceTester/amazon-freertos/tests/common/greengrass\aws_test_greengrass_discovery.c ****                                               ulJSONFileSize );
 919:D:/Work/DeviceTester/amazon-freertos/tests/common/greengrass\aws_test_greengrass_discovery.c **** 
 920:D:/Work/DeviceTester/amazon-freertos/tests/common/greengrass\aws_test_greengrass_discovery.c **** 
 921:D:/Work/DeviceTester/amazon-freertos/tests/common/greengrass\aws_test_greengrass_discovery.c ****             TEST_ASSERT_EQUAL_INT32( pdPASS, xStatus );
 939              		.loc 1 921 0
 940 013c 993300E3 		movw	r3, #921
 941 0140 0010A0E1 		mov	r1, r0
 942 0144 0720A0E1 		mov	r2, r7
 943 0148 0400A0E1 		mov	r0, r4
 944              	.LVL105:
 945 014c 00508DE5 		str	r5, [sp]
 946 0150 FEFFFFEB 		bl	UnityAssertEqualNumber
 947              	.LVL106:
 922:D:/Work/DeviceTester/amazon-freertos/tests/common/greengrass\aws_test_greengrass_discovery.c ****             TEST_ASSERT_EQUAL_INT32( pdFALSE, xJSONFileRetrieveCompleted ); /* Not yet retrieved - 
 948              		.loc 1 922 0
 949 0154 9A3300E3 		movw	r3, #922
 950 0158 0720A0E1 		mov	r2, r7
 951 015c 10109DE5 		ldr	r1, [sp, #16]
 952 0160 0700A0E1 		mov	r0, r7
 953 0164 00508DE5 		str	r5, [sp]
 954 0168 FEFFFFEB 		bl	UnityAssertEqualNumber
 955              	.LVL107:
 923:D:/Work/DeviceTester/amazon-freertos/tests/common/greengrass\aws_test_greengrass_discovery.c **** 
 924:D:/Work/DeviceTester/amazon-freertos/tests/common/greengrass\aws_test_greengrass_discovery.c ****             xStatus = GGD_JSONRequestGetFile( &xSocket,
 925:D:/Work/DeviceTester/amazon-freertos/tests/common/greengrass\aws_test_greengrass_discovery.c ****                                               &cBuffer[ ulByteRead ],
 926:D:/Work/DeviceTester/amazon-freertos/tests/common/greengrass\aws_test_greengrass_discovery.c ****                                               ulBufferSize - ( ulJSONFileSize / 2 ),
 956              		.loc 1 926 0
 957 016c 14309DE5 		ldr	r3, [sp, #20]
 924:D:/Work/DeviceTester/amazon-freertos/tests/common/greengrass\aws_test_greengrass_discovery.c ****                                               &cBuffer[ ulByteRead ],
 958              		.loc 1 924 0
 959 0170 0600A0E1 		mov	r0, r6
 960 0174 0C109DE5 		ldr	r1, [sp, #12]
 961 0178 00908DE5 		str	r9, [sp]
 962 017c 04308DE5 		str	r3, [sp, #4]
 963              		.loc 1 926 0
 964 0180 A320A0E1 		lsr	r2, r3, #1
 924:D:/Work/DeviceTester/amazon-freertos/tests/common/greengrass\aws_test_greengrass_discovery.c ****                                               &cBuffer[ ulByteRead ],
 965              		.loc 1 924 0
 966 0184 011088E0 		add	r1, r8, r1
 967 0188 0C308DE2 		add	r3, sp, #12
 968 018c FA2E62E2 		rsb	r2, r2, #4000
 969 0190 FEFFFFEB 		bl	GGD_JSONRequestGetFile
 970              	.LVL108:
 971 0194 0040A0E1 		mov	r4, r0
 972              	.L65:
 973              	.LVL109:
 927:D:/Work/DeviceTester/amazon-freertos/tests/common/greengrass\aws_test_greengrass_discovery.c ****                                               &ulByteRead,
 928:D:/Work/DeviceTester/amazon-freertos/tests/common/greengrass\aws_test_greengrass_discovery.c ****                                               &xJSONFileRetrieveCompleted,
 929:D:/Work/DeviceTester/amazon-freertos/tests/common/greengrass\aws_test_greengrass_discovery.c ****                                               ulJSONFileSize );
 930:D:/Work/DeviceTester/amazon-freertos/tests/common/greengrass\aws_test_greengrass_discovery.c ****         }
 931:D:/Work/DeviceTester/amazon-freertos/tests/common/greengrass\aws_test_greengrass_discovery.c **** 
 932:D:/Work/DeviceTester/amazon-freertos/tests/common/greengrass\aws_test_greengrass_discovery.c ****         TEST_ASSERT_EQUAL_INT32_MESSAGE( pdPASS, xStatus, "GGD_JSONRequestGetFile() failed to retur
 974              		.loc 1 932 0
 975 0198 1450A0E3 		mov	r5, #20
 976 019c 0410A0E1 		mov	r1, r4
 977 01a0 E93FA0E3 		mov	r3, #932
 978 01a4 B4219FE5 		ldr	r2, .L79+12
 979 01a8 0100A0E3 		mov	r0, #1
 980 01ac 00508DE5 		str	r5, [sp]
 981 01b0 FEFFFFEB 		bl	UnityAssertEqualNumber
 982              	.LVL110:
 933:D:/Work/DeviceTester/amazon-freertos/tests/common/greengrass\aws_test_greengrass_discovery.c ****         TEST_ASSERT_EQUAL_INT32_MESSAGE( pdTRUE, xJSONFileRetrieveCompleted, "GGD_JSONRequestGetFil
 983              		.loc 1 933 0
 984 01b4 A53300E3 		movw	r3, #933
 985 01b8 A4219FE5 		ldr	r2, .L79+16
 986 01bc 10109DE5 		ldr	r1, [sp, #16]
 987 01c0 0100A0E3 		mov	r0, #1
 988 01c4 00508DE5 		str	r5, [sp]
 989 01c8 FEFFFFEB 		bl	UnityAssertEqualNumber
 990              	.LVL111:
 934:D:/Work/DeviceTester/amazon-freertos/tests/common/greengrass\aws_test_greengrass_discovery.c ****         TEST_ASSERT_EQUAL_INT32_MESSAGE( ulJSONFileSize, ulByteRead + 1, "GGD_JSONRequestGetFile() 
 991              		.loc 1 934 0
 992 01cc 0C109DE5 		ldr	r1, [sp, #12]
 993 01d0 A63300E3 		movw	r3, #934
 935:D:/Work/DeviceTester/amazon-freertos/tests/common/greengrass\aws_test_greengrass_discovery.c ****         /** @}*/
 936:D:/Work/DeviceTester/amazon-freertos/tests/common/greengrass\aws_test_greengrass_discovery.c **** 
 937:D:/Work/DeviceTester/amazon-freertos/tests/common/greengrass\aws_test_greengrass_discovery.c ****         /** @brief Check fail if we receive more bytes than expected.
 938:D:/Work/DeviceTester/amazon-freertos/tests/common/greengrass\aws_test_greengrass_discovery.c ****          *  @{
 939:D:/Work/DeviceTester/amazon-freertos/tests/common/greengrass\aws_test_greengrass_discovery.c ****          */
 940:D:/Work/DeviceTester/amazon-freertos/tests/common/greengrass\aws_test_greengrass_discovery.c ****         xStatus = GGD_JSONRequestStart( &xSocket );
 994              		.loc 1 940 0
 995 01d4 7C419FE5 		ldr	r4, .L79+4
 996              	.LVL112:
 934:D:/Work/DeviceTester/amazon-freertos/tests/common/greengrass\aws_test_greengrass_discovery.c ****         TEST_ASSERT_EQUAL_INT32_MESSAGE( ulJSONFileSize, ulByteRead + 1, "GGD_JSONRequestGetFile() 
 997              		.loc 1 934 0
 998 01d8 88219FE5 		ldr	r2, .L79+20
 999 01dc 011081E2 		add	r1, r1, #1
 1000 01e0 14009DE5 		ldr	r0, [sp, #20]
 1001 01e4 00508DE5 		str	r5, [sp]
 1002 01e8 FEFFFFEB 		bl	UnityAssertEqualNumber
 1003              	.LVL113:
 1004              		.loc 1 940 0
 1005 01ec 0400A0E1 		mov	r0, r4
 1006 01f0 FEFFFFEB 		bl	GGD_JSONRequestStart
 1007              	.LVL114:
 941:D:/Work/DeviceTester/amazon-freertos/tests/common/greengrass\aws_test_greengrass_discovery.c **** 
 942:D:/Work/DeviceTester/amazon-freertos/tests/common/greengrass\aws_test_greengrass_discovery.c ****         if( xStatus == pdPASS )
 1008              		.loc 1 942 0
 1009 01f4 010050E3 		cmp	r0, #1
 1010 01f8 1000001A 		bne	.L66
 943:D:/Work/DeviceTester/amazon-freertos/tests/common/greengrass\aws_test_greengrass_discovery.c ****         {
 944:D:/Work/DeviceTester/amazon-freertos/tests/common/greengrass\aws_test_greengrass_discovery.c ****             xStatus = GGD_JSONRequestGetSize( &xSocket, &ulJSONFileSize );
 1011              		.loc 1 944 0
 1012 01fc 05108DE0 		add	r1, sp, r5
 1013 0200 0400A0E1 		mov	r0, r4
 1014              	.LVL115:
 1015 0204 FEFFFFEB 		bl	GGD_JSONRequestGetSize
 1016              	.LVL116:
 945:D:/Work/DeviceTester/amazon-freertos/tests/common/greengrass\aws_test_greengrass_discovery.c ****         }
 946:D:/Work/DeviceTester/amazon-freertos/tests/common/greengrass\aws_test_greengrass_discovery.c **** 
 947:D:/Work/DeviceTester/amazon-freertos/tests/common/greengrass\aws_test_greengrass_discovery.c ****         if( xStatus == pdPASS )
 1017              		.loc 1 947 0
 1018 0208 010050E3 		cmp	r0, #1
 1019 020c 0B00001A 		bne	.L66
 948:D:/Work/DeviceTester/amazon-freertos/tests/common/greengrass\aws_test_greengrass_discovery.c ****         {
 949:D:/Work/DeviceTester/amazon-freertos/tests/common/greengrass\aws_test_greengrass_discovery.c ****             ulByteRead = 0;
 1020              		.loc 1 949 0
 1021 0210 0020A0E3 		mov	r2, #0
 1022 0214 18308DE2 		add	r3, sp, #24
 1023 0218 0C2023E5 		str	r2, [r3, #-12]!
 950:D:/Work/DeviceTester/amazon-freertos/tests/common/greengrass\aws_test_greengrass_discovery.c ****             xStatus = GGD_JSONRequestGetFile( &xSocket,
 1024              		.loc 1 950 0
 1025 021c 0400A0E1 		mov	r0, r4
 1026              	.LVL117:
 1027 0220 14209DE5 		ldr	r2, [sp, #20]
 1028 0224 30119FE5 		ldr	r1, .L79+8
 1029 0228 012042E2 		sub	r2, r2, #1
 1030 022c 04208DE5 		str	r2, [sp, #4]
 1031 0230 10208DE2 		add	r2, sp, #16
 1032 0234 00208DE5 		str	r2, [sp]
 1033 0238 FA2EA0E3 		mov	r2, #4000
 1034 023c FEFFFFEB 		bl	GGD_JSONRequestGetFile
 1035              	.LVL118:
 1036              	.L66:
 951:D:/Work/DeviceTester/amazon-freertos/tests/common/greengrass\aws_test_greengrass_discovery.c ****                                               cBuffer,
 952:D:/Work/DeviceTester/amazon-freertos/tests/common/greengrass\aws_test_greengrass_discovery.c ****                                               ulBufferSize,
 953:D:/Work/DeviceTester/amazon-freertos/tests/common/greengrass\aws_test_greengrass_discovery.c ****                                               &ulByteRead,
 954:D:/Work/DeviceTester/amazon-freertos/tests/common/greengrass\aws_test_greengrass_discovery.c ****                                               &xJSONFileRetrieveCompleted,
 955:D:/Work/DeviceTester/amazon-freertos/tests/common/greengrass\aws_test_greengrass_discovery.c ****                                               ulJSONFileSize - 1 ); /* Remove one byte to the expec
 956:D:/Work/DeviceTester/amazon-freertos/tests/common/greengrass\aws_test_greengrass_discovery.c ****         }
 957:D:/Work/DeviceTester/amazon-freertos/tests/common/greengrass\aws_test_greengrass_discovery.c **** 
 958:D:/Work/DeviceTester/amazon-freertos/tests/common/greengrass\aws_test_greengrass_discovery.c ****         TEST_ASSERT_EQUAL_INT32( pdFAIL, xStatus );
 1037              		.loc 1 958 0
 1038 0240 0020A0E3 		mov	r2, #0
 1039 0244 1440A0E3 		mov	r4, #20
 1040 0248 0010A0E1 		mov	r1, r0
 1041 024c BE3300E3 		movw	r3, #958
 1042 0250 0200A0E1 		mov	r0, r2
 1043              	.LVL119:
 1044 0254 00408DE5 		str	r4, [sp]
 1045 0258 FEFFFFEB 		bl	UnityAssertEqualNumber
 1046              	.LVL120:
 959:D:/Work/DeviceTester/amazon-freertos/tests/common/greengrass\aws_test_greengrass_discovery.c ****         TEST_ASSERT_EQUAL_INT32( pdFAIL, xJSONFileRetrieveCompleted ); /* Failed. */
 1047              		.loc 1 959 0
 1048 025c 0020A0E3 		mov	r2, #0
 1049 0260 00408DE5 		str	r4, [sp]
 1050 0264 BF3300E3 		movw	r3, #959
 1051 0268 10109DE5 		ldr	r1, [sp, #16]
 1052 026c 0200A0E1 		mov	r0, r2
 1053 0270 FEFFFFEB 		bl	UnityAssertEqualNumber
 1054              	.LVL121:
 1055              	.L67:
 960:D:/Work/DeviceTester/amazon-freertos/tests/common/greengrass\aws_test_greengrass_discovery.c ****         /** @}*/
 961:D:/Work/DeviceTester/amazon-freertos/tests/common/greengrass\aws_test_greengrass_discovery.c ****     }
 962:D:/Work/DeviceTester/amazon-freertos/tests/common/greengrass\aws_test_greengrass_discovery.c ****     else
 963:D:/Work/DeviceTester/amazon-freertos/tests/common/greengrass\aws_test_greengrass_discovery.c ****     {
 964:D:/Work/DeviceTester/amazon-freertos/tests/common/greengrass\aws_test_greengrass_discovery.c ****         TEST_FAIL();
 965:D:/Work/DeviceTester/amazon-freertos/tests/common/greengrass\aws_test_greengrass_discovery.c ****     }
 966:D:/Work/DeviceTester/amazon-freertos/tests/common/greengrass\aws_test_greengrass_discovery.c **** 
 967:D:/Work/DeviceTester/amazon-freertos/tests/common/greengrass\aws_test_greengrass_discovery.c ****     /** @brief Check Statility by passing in NULL pointers or buffers too small
 968:D:/Work/DeviceTester/amazon-freertos/tests/common/greengrass\aws_test_greengrass_discovery.c ****      *  @{
 969:D:/Work/DeviceTester/amazon-freertos/tests/common/greengrass\aws_test_greengrass_discovery.c ****      */
 970:D:/Work/DeviceTester/amazon-freertos/tests/common/greengrass\aws_test_greengrass_discovery.c ****     if( TEST_PROTECT() )
 1056              		.loc 1 970 0
 1057 0274 D8009FE5 		ldr	r0, .L79
 1058 0278 FEFFFFEB 		bl	setjmp
 1059              	.LVL122:
 1060 027c 004050E2 		subs	r4, r0, #0
 1061 0280 0C00001A 		bne	.L70
 971:D:/Work/DeviceTester/amazon-freertos/tests/common/greengrass\aws_test_greengrass_discovery.c ****     {
 972:D:/Work/DeviceTester/amazon-freertos/tests/common/greengrass\aws_test_greengrass_discovery.c ****         ulByteRead = 0;
 973:D:/Work/DeviceTester/amazon-freertos/tests/common/greengrass\aws_test_greengrass_discovery.c ****         xStatus = GGD_JSONRequestGetFile( &xSocket,
 1062              		.loc 1 973 0
 1063 0284 14309DE5 		ldr	r3, [sp, #20]
 1064 0288 FA2EA0E3 		mov	r2, #4000
 1065 028c C8109FE5 		ldr	r1, .L79+8
 1066 0290 C0009FE5 		ldr	r0, .L79+4
 1067 0294 04308DE5 		str	r3, [sp, #4]
 1068 0298 10308DE2 		add	r3, sp, #16
 1069 029c 00308DE5 		str	r3, [sp]
 1070 02a0 0430A0E1 		mov	r3, r4
 972:D:/Work/DeviceTester/amazon-freertos/tests/common/greengrass\aws_test_greengrass_discovery.c ****         xStatus = GGD_JSONRequestGetFile( &xSocket,
 1071              		.loc 1 972 0
 1072 02a4 0C408DE5 		str	r4, [sp, #12]
 1073              		.loc 1 973 0
 1074 02a8 FEFFFFEB 		bl	GGD_JSONRequestGetFile
 1075              	.LVL123:
 974:D:/Work/DeviceTester/amazon-freertos/tests/common/greengrass\aws_test_greengrass_discovery.c ****                                           cBuffer,
 975:D:/Work/DeviceTester/amazon-freertos/tests/common/greengrass\aws_test_greengrass_discovery.c ****                                           ulBufferSize,
 976:D:/Work/DeviceTester/amazon-freertos/tests/common/greengrass\aws_test_greengrass_discovery.c ****                                           NULL,
 977:D:/Work/DeviceTester/amazon-freertos/tests/common/greengrass\aws_test_greengrass_discovery.c ****                                           &xJSONFileRetrieveCompleted,
 978:D:/Work/DeviceTester/amazon-freertos/tests/common/greengrass\aws_test_greengrass_discovery.c ****                                           ulJSONFileSize );
 979:D:/Work/DeviceTester/amazon-freertos/tests/common/greengrass\aws_test_greengrass_discovery.c ****         TEST_FAIL();
 1076              		.loc 1 979 0
 1077 02ac D31300E3 		movw	r1, #979
 1078 02b0 0400A0E1 		mov	r0, r4
 1079 02b4 FEFFFFEB 		bl	UnityFail
 1080              	.LVL124:
 1081              	.L70:
 980:D:/Work/DeviceTester/amazon-freertos/tests/common/greengrass\aws_test_greengrass_discovery.c ****     }
 981:D:/Work/DeviceTester/amazon-freertos/tests/common/greengrass\aws_test_greengrass_discovery.c **** 
 982:D:/Work/DeviceTester/amazon-freertos/tests/common/greengrass\aws_test_greengrass_discovery.c ****     if( TEST_PROTECT() )
 1082              		.loc 1 982 0
 1083 02b8 94009FE5 		ldr	r0, .L79
 1084 02bc FEFFFFEB 		bl	setjmp
 1085              	.LVL125:
 1086 02c0 004050E2 		subs	r4, r0, #0
 1087 02c4 0C00001A 		bne	.L73
 983:D:/Work/DeviceTester/amazon-freertos/tests/common/greengrass\aws_test_greengrass_discovery.c ****     {
 984:D:/Work/DeviceTester/amazon-freertos/tests/common/greengrass\aws_test_greengrass_discovery.c ****         ulByteRead = 0;
 985:D:/Work/DeviceTester/amazon-freertos/tests/common/greengrass\aws_test_greengrass_discovery.c ****         xStatus = GGD_JSONRequestGetFile( &xSocket,
 1088              		.loc 1 985 0
 1089 02c8 14209DE5 		ldr	r2, [sp, #20]
 984:D:/Work/DeviceTester/amazon-freertos/tests/common/greengrass\aws_test_greengrass_discovery.c ****         xStatus = GGD_JSONRequestGetFile( &xSocket,
 1090              		.loc 1 984 0
 1091 02cc 18308DE2 		add	r3, sp, #24
 1092 02d0 0C4023E5 		str	r4, [r3, #-12]!
 1093              		.loc 1 985 0
 1094 02d4 0410A0E1 		mov	r1, r4
 1095 02d8 78009FE5 		ldr	r0, .L79+4
 1096 02dc 04208DE5 		str	r2, [sp, #4]
 1097 02e0 10208DE2 		add	r2, sp, #16
 1098 02e4 00208DE5 		str	r2, [sp]
 1099 02e8 FA2EA0E3 		mov	r2, #4000
 1100 02ec FEFFFFEB 		bl	GGD_JSONRequestGetFile
 1101              	.LVL126:
 986:D:/Work/DeviceTester/amazon-freertos/tests/common/greengrass\aws_test_greengrass_discovery.c ****                                           NULL,
 987:D:/Work/DeviceTester/amazon-freertos/tests/common/greengrass\aws_test_greengrass_discovery.c ****                                           ulBufferSize,
 988:D:/Work/DeviceTester/amazon-freertos/tests/common/greengrass\aws_test_greengrass_discovery.c ****                                           &ulByteRead,
 989:D:/Work/DeviceTester/amazon-freertos/tests/common/greengrass\aws_test_greengrass_discovery.c ****                                           &xJSONFileRetrieveCompleted,
 990:D:/Work/DeviceTester/amazon-freertos/tests/common/greengrass\aws_test_greengrass_discovery.c ****                                           ulJSONFileSize );
 991:D:/Work/DeviceTester/amazon-freertos/tests/common/greengrass\aws_test_greengrass_discovery.c ****         TEST_FAIL();
 1102              		.loc 1 991 0
 1103 02f0 DF1300E3 		movw	r1, #991
 1104 02f4 0400A0E1 		mov	r0, r4
 1105 02f8 FEFFFFEB 		bl	UnityFail
 1106              	.LVL127:
 1107              	.L73:
 992:D:/Work/DeviceTester/amazon-freertos/tests/common/greengrass\aws_test_greengrass_discovery.c ****     }
 993:D:/Work/DeviceTester/amazon-freertos/tests/common/greengrass\aws_test_greengrass_discovery.c **** 
 994:D:/Work/DeviceTester/amazon-freertos/tests/common/greengrass\aws_test_greengrass_discovery.c ****     if( TEST_PROTECT() )
 1108              		.loc 1 994 0
 1109 02fc 50009FE5 		ldr	r0, .L79
 1110 0300 FEFFFFEB 		bl	setjmp
 1111              	.LVL128:
 1112 0304 004050E2 		subs	r4, r0, #0
 1113 0308 0B00001A 		bne	.L61
 995:D:/Work/DeviceTester/amazon-freertos/tests/common/greengrass\aws_test_greengrass_discovery.c ****     {
 996:D:/Work/DeviceTester/amazon-freertos/tests/common/greengrass\aws_test_greengrass_discovery.c ****         ulByteRead = 0;
 997:D:/Work/DeviceTester/amazon-freertos/tests/common/greengrass\aws_test_greengrass_discovery.c ****         xStatus = GGD_JSONRequestGetFile( &xSocket,
 1114              		.loc 1 997 0
 1115 030c 14209DE5 		ldr	r2, [sp, #20]
 996:D:/Work/DeviceTester/amazon-freertos/tests/common/greengrass\aws_test_greengrass_discovery.c ****         xStatus = GGD_JSONRequestGetFile( &xSocket,
 1116              		.loc 1 996 0
 1117 0310 18308DE2 		add	r3, sp, #24
 1118 0314 0C4023E5 		str	r4, [r3, #-12]!
 1119              		.loc 1 997 0
 1120 0318 3C109FE5 		ldr	r1, .L79+8
 1121 031c 04208DE5 		str	r2, [sp, #4]
 1122 0320 FA2EA0E3 		mov	r2, #4000
 1123 0324 00408DE5 		str	r4, [sp]
 1124 0328 28009FE5 		ldr	r0, .L79+4
 1125 032c FEFFFFEB 		bl	GGD_JSONRequestGetFile
 1126              	.LVL129:
 998:D:/Work/DeviceTester/amazon-freertos/tests/common/greengrass\aws_test_greengrass_discovery.c ****                                           cBuffer,
 999:D:/Work/DeviceTester/amazon-freertos/tests/common/greengrass\aws_test_greengrass_discovery.c ****                                           ulBufferSize,
1000:D:/Work/DeviceTester/amazon-freertos/tests/common/greengrass\aws_test_greengrass_discovery.c ****                                           &ulByteRead,
1001:D:/Work/DeviceTester/amazon-freertos/tests/common/greengrass\aws_test_greengrass_discovery.c ****                                           NULL,
1002:D:/Work/DeviceTester/amazon-freertos/tests/common/greengrass\aws_test_greengrass_discovery.c ****                                           ulJSONFileSize );
1003:D:/Work/DeviceTester/amazon-freertos/tests/common/greengrass\aws_test_greengrass_discovery.c ****         TEST_FAIL();
 1127              		.loc 1 1003 0
 1128 0330 EB1300E3 		movw	r1, #1003
 1129 0334 0400A0E1 		mov	r0, r4
 1130 0338 FEFFFFEB 		bl	UnityFail
 1131              	.LVL130:
 1132              	.L61:
1004:D:/Work/DeviceTester/amazon-freertos/tests/common/greengrass\aws_test_greengrass_discovery.c ****     }
1005:D:/Work/DeviceTester/amazon-freertos/tests/common/greengrass\aws_test_greengrass_discovery.c **** 
1006:D:/Work/DeviceTester/amazon-freertos/tests/common/greengrass\aws_test_greengrass_discovery.c ****     /** @}*/
1007:D:/Work/DeviceTester/amazon-freertos/tests/common/greengrass\aws_test_greengrass_discovery.c **** }
 1133              		.loc 1 1007 0
 1134 033c 1CD08DE2 		add	sp, sp, #28
 1135              		.cfi_remember_state
 1136              		.cfi_def_cfa_offset 28
 1137              		@ sp needed
 1138 0340 F083BDE8 		pop	{r4, r5, r6, r7, r8, r9, pc}
 1139              	.L77:
 1140              		.cfi_restore_state
 964:D:/Work/DeviceTester/amazon-freertos/tests/common/greengrass\aws_test_greengrass_discovery.c ****     }
 1141              		.loc 1 964 0
 1142 0344 F11FA0E3 		mov	r1, #964
 1143 0348 0000A0E3 		mov	r0, #0
 1144 034c FEFFFFEB 		bl	UnityFail
 1145              	.LVL131:
 1146 0350 C7FFFFEA 		b	.L67
 1147              	.L80:
 1148              		.align	2
 1149              	.L79:
 1150 0354 28000000 		.word	Unity+40
 1151 0358 00000000 		.word	.LANCHOR0
 1152 035c 00000000 		.word	cBuffer
 1153 0360 00000000 		.word	.LC6
 1154 0364 32000000 		.word	.LC7
 1155 0368 79000000 		.word	.LC8
 1156              		.cfi_endproc
 1157              	.LFE25:
 1159              		.section	.text.TEST_Full_GGD_GetCore_,"ax",%progbits
 1160              		.align	2
 1161              		.global	TEST_Full_GGD_GetCore_
 1162              		.syntax unified
 1163              		.arm
 1164              		.fpu neon
 1166              	TEST_Full_GGD_GetCore_:
 1167              	.LFB13:
 382:D:/Work/DeviceTester/amazon-freertos/tests/common/greengrass\aws_test_greengrass_discovery.c ****     BaseType_t xStatus;
 1168              		.loc 1 382 0
 1169              		.cfi_startproc
 1170              		@ args = 0, pretend = 0, frame = 64
 1171              		@ frame_needed = 0, uses_anonymous_args = 0
 1172              	.LVL132:
 1173 0000 F04F2DE9 		push	{r4, r5, r6, r7, r8, r9, r10, fp, lr}
 1174              		.cfi_def_cfa_offset 36
 1175              		.cfi_offset 4, -36
 1176              		.cfi_offset 5, -32
 1177              		.cfi_offset 6, -28
 1178              		.cfi_offset 7, -24
 1179              		.cfi_offset 8, -20
 1180              		.cfi_offset 9, -16
 1181              		.cfi_offset 10, -12
 1182              		.cfi_offset 11, -8
 1183              		.cfi_offset 14, -4
 390:D:/Work/DeviceTester/amazon-freertos/tests/common/greengrass\aws_test_greengrass_discovery.c ****     char cBadCoreARN[] = "myBadCoreARN";
 1184              		.loc 1 390 0
 1185 0004 0D40A0E3 		mov	r4, #13
 382:D:/Work/DeviceTester/amazon-freertos/tests/common/greengrass\aws_test_greengrass_discovery.c ****     BaseType_t xStatus;
 1186              		.loc 1 382 0
 1187 0008 4CD04DE2 		sub	sp, sp, #76
 1188              		.cfi_def_cfa_offset 112
 390:D:/Work/DeviceTester/amazon-freertos/tests/common/greengrass\aws_test_greengrass_discovery.c ****     char cBadCoreARN[] = "myBadCoreARN";
 1189              		.loc 1 390 0
 1190 000c 0420A0E1 		mov	r2, r4
 1191 0010 28008DE2 		add	r0, sp, #40
 1192 0014 78119FE5 		ldr	r1, .L87
 1193 0018 FEFFFFEB 		bl	memcpy
 1194              	.LVL133:
 391:D:/Work/DeviceTester/amazon-freertos/tests/common/greengrass\aws_test_greengrass_discovery.c **** 
 1195              		.loc 1 391 0
 1196 001c 0420A0E1 		mov	r2, r4
 1197 0020 70119FE5 		ldr	r1, .L87+4
 1198 0024 38008DE2 		add	r0, sp, #56
 1199 0028 FEFFFFEB 		bl	memcpy
 1200              	.LVL134:
 393:D:/Work/DeviceTester/amazon-freertos/tests/common/greengrass\aws_test_greengrass_discovery.c ****     {
 1201              		.loc 1 393 0
 1202 002c 68019FE5 		ldr	r0, .L87+8
 1203 0030 FEFFFFEB 		bl	setjmp
 1204              	.LVL135:
 1205 0034 004050E2 		subs	r4, r0, #0
 1206 0038 5100001A 		bne	.L85
 401:D:/Work/DeviceTester/amazon-freertos/tests/common/greengrass\aws_test_greengrass_discovery.c ****                                             cJSON_FILE, /*lint !e971 can use char without signed/un
 1207              		.loc 1 401 0
 1208 003c 5C719FE5 		ldr	r7, .L87+12
 398:D:/Work/DeviceTester/amazon-freertos/tests/common/greengrass\aws_test_greengrass_discovery.c **** 
 1209              		.loc 1 398 0
 1210 0040 1C008DE2 		add	r0, sp, #28
 401:D:/Work/DeviceTester/amazon-freertos/tests/common/greengrass\aws_test_greengrass_discovery.c ****                                             cJSON_FILE, /*lint !e971 can use char without signed/un
 1211              		.loc 1 401 0
 1212 0044 58619FE5 		ldr	r6, .L87+16
 414:D:/Work/DeviceTester/amazon-freertos/tests/common/greengrass\aws_test_greengrass_discovery.c ****         xStatus = test_prvGGDGetCore( cJSON_FILE,
 1213              		.loc 1 414 0
 1214 0048 48808DE2 		add	r8, sp, #72
 398:D:/Work/DeviceTester/amazon-freertos/tests/common/greengrass\aws_test_greengrass_discovery.c **** 
 1215              		.loc 1 398 0
 1216 004c FEFFFFEB 		bl	jsmn_init
 1217              	.LVL136:
 401:D:/Work/DeviceTester/amazon-freertos/tests/common/greengrass\aws_test_greengrass_discovery.c ****                                             cJSON_FILE, /*lint !e971 can use char without signed/un
 1218              		.loc 1 401 0
 1219 0050 8030A0E3 		mov	r3, #128
 1220 0054 912800E3 		movw	r2, #2193
 1221 0058 00308DE5 		str	r3, [sp]
 1222 005c 0610A0E1 		mov	r1, r6
 1223 0060 0730A0E1 		mov	r3, r7
 1224 0064 1C008DE2 		add	r0, sp, #28
 1225 0068 FEFFFFEB 		bl	jsmn_parse
 1226              	.LVL137:
 414:D:/Work/DeviceTester/amazon-freertos/tests/common/greengrass\aws_test_greengrass_discovery.c ****         xStatus = test_prvGGDGetCore( cJSON_FILE,
 1227              		.loc 1 414 0
 1228 006c 34319FE5 		ldr	r3, .L87+20
 401:D:/Work/DeviceTester/amazon-freertos/tests/common/greengrass\aws_test_greengrass_discovery.c ****                                             cJSON_FILE, /*lint !e971 can use char without signed/un
 1229              		.loc 1 401 0
 1230 0070 0090A0E1 		mov	r9, r0
 1231              	.LVL138:
 413:D:/Work/DeviceTester/amazon-freertos/tests/common/greengrass\aws_test_greengrass_discovery.c ****         xHostParameters.pcGroupName = ( char * ) cMyGroupID;
 1232              		.loc 1 413 0
 1233 0074 30B19FE5 		ldr	fp, .L87+24
 415:D:/Work/DeviceTester/amazon-freertos/tests/common/greengrass\aws_test_greengrass_discovery.c ****                                       &xHostParameters,
 1234              		.loc 1 415 0
 1235 0078 0CA08DE2 		add	r10, sp, #12
 421:D:/Work/DeviceTester/amazon-freertos/tests/common/greengrass\aws_test_greengrass_discovery.c ****         TEST_ASSERT_EQUAL_INT32( ggdTestJSON_CORE_TOKEN_INDEX, ulTokenIndex );
 1236              		.loc 1 421 0
 1237 007c 1450A0E3 		mov	r5, #20
 415:D:/Work/DeviceTester/amazon-freertos/tests/common/greengrass\aws_test_greengrass_discovery.c ****                                       &xHostParameters,
 1238              		.loc 1 415 0
 1239 0080 0420A0E1 		mov	r2, r4
 414:D:/Work/DeviceTester/amazon-freertos/tests/common/greengrass\aws_test_greengrass_discovery.c ****         xStatus = test_prvGGDGetCore( cJSON_FILE,
 1240              		.loc 1 414 0
 1241 0084 383028E5 		str	r3, [r8, #-56]!
 415:D:/Work/DeviceTester/amazon-freertos/tests/common/greengrass\aws_test_greengrass_discovery.c ****                                       &xHostParameters,
 1242              		.loc 1 415 0
 1243 0088 0600A0E1 		mov	r0, r6
 1244              	.LVL139:
 1245 008c 0730A0E1 		mov	r3, r7
 1246 0090 0810A0E1 		mov	r1, r8
 1247 0094 00068DE8 		stm	sp, {r9, r10}
 413:D:/Work/DeviceTester/amazon-freertos/tests/common/greengrass\aws_test_greengrass_discovery.c ****         xHostParameters.pcGroupName = ( char * ) cMyGroupID;
 1248              		.loc 1 413 0
 1249 0098 14B08DE5 		str	fp, [sp, #20]
 415:D:/Work/DeviceTester/amazon-freertos/tests/common/greengrass\aws_test_greengrass_discovery.c ****                                       &xHostParameters,
 1250              		.loc 1 415 0
 1251 009c FEFFFFEB 		bl	test_prvGGDGetCore
 1252              	.LVL140:
 421:D:/Work/DeviceTester/amazon-freertos/tests/common/greengrass\aws_test_greengrass_discovery.c ****         TEST_ASSERT_EQUAL_INT32( ggdTestJSON_CORE_TOKEN_INDEX, ulTokenIndex );
 1253              		.loc 1 421 0
 1254 00a0 A53100E3 		movw	r3, #421
 1255 00a4 0010A0E1 		mov	r1, r0
 1256 00a8 0420A0E1 		mov	r2, r4
 1257 00ac 0100A0E3 		mov	r0, #1
 1258              	.LVL141:
 1259 00b0 00508DE5 		str	r5, [sp]
 1260 00b4 FEFFFFEB 		bl	UnityAssertEqualNumber
 1261              	.LVL142:
 422:D:/Work/DeviceTester/amazon-freertos/tests/common/greengrass\aws_test_greengrass_discovery.c ****         /** @}*/
 1262              		.loc 1 422 0
 1263 00b8 A63100E3 		movw	r3, #422
 1264 00bc 0420A0E1 		mov	r2, r4
 1265 00c0 0C109DE5 		ldr	r1, [sp, #12]
 1266 00c4 0900A0E3 		mov	r0, #9
 1267 00c8 00508DE5 		str	r5, [sp]
 1268 00cc FEFFFFEB 		bl	UnityAssertEqualNumber
 1269              	.LVL143:
 431:D:/Work/DeviceTester/amazon-freertos/tests/common/greengrass\aws_test_greengrass_discovery.c ****         xStatus = test_prvGGDGetCore( cJSON_FILE,
 1270              		.loc 1 431 0
 1271 00d0 28308DE2 		add	r3, sp, #40
 432:D:/Work/DeviceTester/amazon-freertos/tests/common/greengrass\aws_test_greengrass_discovery.c ****                                       &xHostParameters,
 1272              		.loc 1 432 0
 1273 00d4 0420A0E1 		mov	r2, r4
 431:D:/Work/DeviceTester/amazon-freertos/tests/common/greengrass\aws_test_greengrass_discovery.c ****         xStatus = test_prvGGDGetCore( cJSON_FILE,
 1274              		.loc 1 431 0
 1275 00d8 10308DE5 		str	r3, [sp, #16]
 432:D:/Work/DeviceTester/amazon-freertos/tests/common/greengrass\aws_test_greengrass_discovery.c ****                                       &xHostParameters,
 1276              		.loc 1 432 0
 1277 00dc 0810A0E1 		mov	r1, r8
 1278 00e0 0730A0E1 		mov	r3, r7
 1279 00e4 00068DE8 		stm	sp, {r9, r10}
 1280 00e8 0600A0E1 		mov	r0, r6
 430:D:/Work/DeviceTester/amazon-freertos/tests/common/greengrass\aws_test_greengrass_discovery.c ****         xHostParameters.pcGroupName = ( char * ) cBadGroupId;
 1281              		.loc 1 430 0
 1282 00ec 14B08DE5 		str	fp, [sp, #20]
 432:D:/Work/DeviceTester/amazon-freertos/tests/common/greengrass\aws_test_greengrass_discovery.c ****                                       &xHostParameters,
 1283              		.loc 1 432 0
 1284 00f0 FEFFFFEB 		bl	test_prvGGDGetCore
 1285              	.LVL144:
 438:D:/Work/DeviceTester/amazon-freertos/tests/common/greengrass\aws_test_greengrass_discovery.c **** 
 1286              		.loc 1 438 0
 1287 00f4 B63100E3 		movw	r3, #438
 1288 00f8 0010A0E1 		mov	r1, r0
 1289 00fc 0420A0E1 		mov	r2, r4
 1290 0100 0400A0E1 		mov	r0, r4
 1291              	.LVL145:
 1292 0104 00508DE5 		str	r5, [sp]
 1293 0108 FEFFFFEB 		bl	UnityAssertEqualNumber
 1294              	.LVL146:
 441:D:/Work/DeviceTester/amazon-freertos/tests/common/greengrass\aws_test_greengrass_discovery.c ****         xHostParameters.pcGroupName = ( char * ) cMyGroupID;
 1295              		.loc 1 441 0
 1296 010c 38308DE2 		add	r3, sp, #56
 443:D:/Work/DeviceTester/amazon-freertos/tests/common/greengrass\aws_test_greengrass_discovery.c ****                                       &xHostParameters,
 1297              		.loc 1 443 0
 1298 0110 0420A0E1 		mov	r2, r4
 441:D:/Work/DeviceTester/amazon-freertos/tests/common/greengrass\aws_test_greengrass_discovery.c ****         xHostParameters.pcGroupName = ( char * ) cMyGroupID;
 1299              		.loc 1 441 0
 1300 0114 14308DE5 		str	r3, [sp, #20]
 443:D:/Work/DeviceTester/amazon-freertos/tests/common/greengrass\aws_test_greengrass_discovery.c ****                                       &xHostParameters,
 1301              		.loc 1 443 0
 1302 0118 0810A0E1 		mov	r1, r8
 442:D:/Work/DeviceTester/amazon-freertos/tests/common/greengrass\aws_test_greengrass_discovery.c ****         xStatus = test_prvGGDGetCore( cJSON_FILE,
 1303              		.loc 1 442 0
 1304 011c 84309FE5 		ldr	r3, .L87+20
 443:D:/Work/DeviceTester/amazon-freertos/tests/common/greengrass\aws_test_greengrass_discovery.c ****                                       &xHostParameters,
 1305              		.loc 1 443 0
 1306 0120 0600A0E1 		mov	r0, r6
 1307 0124 00068DE8 		stm	sp, {r9, r10}
 442:D:/Work/DeviceTester/amazon-freertos/tests/common/greengrass\aws_test_greengrass_discovery.c ****         xStatus = test_prvGGDGetCore( cJSON_FILE,
 1308              		.loc 1 442 0
 1309 0128 10308DE5 		str	r3, [sp, #16]
 443:D:/Work/DeviceTester/amazon-freertos/tests/common/greengrass\aws_test_greengrass_discovery.c ****                                       &xHostParameters,
 1310              		.loc 1 443 0
 1311 012c 0730A0E1 		mov	r3, r7
 1312 0130 FEFFFFEB 		bl	test_prvGGDGetCore
 1313              	.LVL147:
 449:D:/Work/DeviceTester/amazon-freertos/tests/common/greengrass\aws_test_greengrass_discovery.c ****         /** @}*/
 1314              		.loc 1 449 0
 1315 0134 C13100E3 		movw	r3, #449
 1316 0138 0010A0E1 		mov	r1, r0
 1317 013c 0420A0E1 		mov	r2, r4
 1318 0140 0400A0E1 		mov	r0, r4
 1319              	.LVL148:
 1320 0144 00508DE5 		str	r5, [sp]
 1321 0148 FEFFFFEB 		bl	UnityAssertEqualNumber
 1322              	.LVL149:
 458:D:/Work/DeviceTester/amazon-freertos/tests/common/greengrass\aws_test_greengrass_discovery.c ****                                       NULL,
 1323              		.loc 1 458 0
 1324 014c 0730A0E1 		mov	r3, r7
 1325 0150 0120A0E3 		mov	r2, #1
 1326 0154 0410A0E1 		mov	r1, r4
 1327 0158 00068DE8 		stm	sp, {r9, r10}
 1328 015c 0600A0E1 		mov	r0, r6
 1329 0160 FEFFFFEB 		bl	test_prvGGDGetCore
 1330              	.LVL150:
 464:D:/Work/DeviceTester/amazon-freertos/tests/common/greengrass\aws_test_greengrass_discovery.c ****         /** @}*/
 1331              		.loc 1 464 0
 1332 0164 00508DE5 		str	r5, [sp]
 1333 0168 0010A0E1 		mov	r1, r0
 1334 016c 1D3EA0E3 		mov	r3, #464
 1335 0170 0420A0E1 		mov	r2, r4
 1336 0174 0100A0E3 		mov	r0, #1
 1337              	.LVL151:
 1338 0178 FEFFFFEB 		bl	UnityAssertEqualNumber
 1339              	.LVL152:
 1340              	.L81:
 471:D:/Work/DeviceTester/amazon-freertos/tests/common/greengrass\aws_test_greengrass_discovery.c **** 
 1341              		.loc 1 471 0
 1342 017c 4CD08DE2 		add	sp, sp, #76
 1343              		.cfi_remember_state
 1344              		.cfi_def_cfa_offset 36
 1345              		@ sp needed
 1346 0180 F08FBDE8 		pop	{r4, r5, r6, r7, r8, r9, r10, fp, pc}
 1347              	.L85:
 1348              		.cfi_restore_state
 469:D:/Work/DeviceTester/amazon-freertos/tests/common/greengrass\aws_test_greengrass_discovery.c ****     }
 1349              		.loc 1 469 0
 1350 0184 D51100E3 		movw	r1, #469
 1351 0188 0000A0E3 		mov	r0, #0
 1352 018c FEFFFFEB 		bl	UnityFail
 1353              	.LVL153:
 1354 0190 F9FFFFEA 		b	.L81
 1355              	.L88:
 1356              		.align	2
 1357              	.L87:
 1358 0194 00000000 		.word	.LC4
 1359 0198 0D000000 		.word	.LC5
 1360 019c 28000000 		.word	Unity+40
 1361 01a0 00000000 		.word	.LANCHOR7
 1362 01a4 00000000 		.word	.LANCHOR2
 1363 01a8 00000000 		.word	.LANCHOR4
 1364 01ac 00000000 		.word	.LANCHOR3
 1365              		.cfi_endproc
 1366              	.LFE13:
 1368              		.section	.text.TEST_Full_GGD_GetIPOnInterface_,"ax",%progbits
 1369              		.align	2
 1370              		.global	TEST_Full_GGD_GetIPOnInterface_
 1371              		.syntax unified
 1372              		.arm
 1373              		.fpu neon
 1375              	TEST_Full_GGD_GetIPOnInterface_:
 1376              	.LFB15:
 474:D:/Work/DeviceTester/amazon-freertos/tests/common/greengrass\aws_test_greengrass_discovery.c ****     BaseType_t xStatus;
 1377              		.loc 1 474 0
 1378              		.cfi_startproc
 1379              		@ args = 0, pretend = 0, frame = 40
 1380              		@ frame_needed = 0, uses_anonymous_args = 0
 1381              	.LVL154:
 484:D:/Work/DeviceTester/amazon-freertos/tests/common/greengrass\aws_test_greengrass_discovery.c ****     {
 1382              		.loc 1 484 0
 1383 0000 C0019FE5 		ldr	r0, .L95
 474:D:/Work/DeviceTester/amazon-freertos/tests/common/greengrass\aws_test_greengrass_discovery.c ****     BaseType_t xStatus;
 1384              		.loc 1 474 0
 1385 0004 F04F2DE9 		push	{r4, r5, r6, r7, r8, r9, r10, fp, lr}
 1386              		.cfi_def_cfa_offset 36
 1387              		.cfi_offset 4, -36
 1388              		.cfi_offset 5, -32
 1389              		.cfi_offset 6, -28
 1390              		.cfi_offset 7, -24
 1391              		.cfi_offset 8, -20
 1392              		.cfi_offset 9, -16
 1393              		.cfi_offset 10, -12
 1394              		.cfi_offset 11, -8
 1395              		.cfi_offset 14, -4
 1396 0008 3CD04DE2 		sub	sp, sp, #60
 1397              		.cfi_def_cfa_offset 96
 484:D:/Work/DeviceTester/amazon-freertos/tests/common/greengrass\aws_test_greengrass_discovery.c ****     {
 1398              		.loc 1 484 0
 1399 000c FEFFFFEB 		bl	setjmp
 1400              	.LVL155:
 1401 0010 004050E2 		subs	r4, r0, #0
 1402 0014 6700001A 		bne	.L93
 492:D:/Work/DeviceTester/amazon-freertos/tests/common/greengrass\aws_test_greengrass_discovery.c ****                                             cJSON_FILE, /*lint !e971 can use char without signed/un
 1403              		.loc 1 492 0
 1404 0018 AC719FE5 		ldr	r7, .L95+4
 489:D:/Work/DeviceTester/amazon-freertos/tests/common/greengrass\aws_test_greengrass_discovery.c **** 
 1405              		.loc 1 489 0
 1406 001c 1C008DE2 		add	r0, sp, #28
 492:D:/Work/DeviceTester/amazon-freertos/tests/common/greengrass\aws_test_greengrass_discovery.c ****                                             cJSON_FILE, /*lint !e971 can use char without signed/un
 1407              		.loc 1 492 0
 1408 0020 A8519FE5 		ldr	r5, .L95+8
 508:D:/Work/DeviceTester/amazon-freertos/tests/common/greengrass\aws_test_greengrass_discovery.c ****                                                ucTargetInterface,
 1409              		.loc 1 508 0
 1410 0024 17B08DE2 		add	fp, sp, #23
 498:D:/Work/DeviceTester/amazon-freertos/tests/common/greengrass\aws_test_greengrass_discovery.c ****         /** @}*/
 1411              		.loc 1 498 0
 1412 0028 A4619FE5 		ldr	r6, .L95+12
 508:D:/Work/DeviceTester/amazon-freertos/tests/common/greengrass\aws_test_greengrass_discovery.c ****                                                ucTargetInterface,
 1413              		.loc 1 508 0
 1414 002c 18A08DE2 		add	r10, sp, #24
 489:D:/Work/DeviceTester/amazon-freertos/tests/common/greengrass\aws_test_greengrass_discovery.c **** 
 1415              		.loc 1 489 0
 1416 0030 FEFFFFEB 		bl	jsmn_init
 1417              	.LVL156:
 492:D:/Work/DeviceTester/amazon-freertos/tests/common/greengrass\aws_test_greengrass_discovery.c ****                                             cJSON_FILE, /*lint !e971 can use char without signed/un
 1418              		.loc 1 492 0
 1419 0034 8030A0E3 		mov	r3, #128
 1420 0038 0510A0E1 		mov	r1, r5
 1421 003c 00308DE5 		str	r3, [sp]
 1422 0040 912800E3 		movw	r2, #2193
 1423 0044 0730A0E1 		mov	r3, r7
 1424 0048 1C008DE2 		add	r0, sp, #28
 1425 004c FEFFFFEB 		bl	jsmn_parse
 1426              	.LVL157:
 498:D:/Work/DeviceTester/amazon-freertos/tests/common/greengrass\aws_test_greengrass_discovery.c ****         /** @}*/
 1427              		.loc 1 498 0
 1428 0050 0510A0E1 		mov	r1, r5
 492:D:/Work/DeviceTester/amazon-freertos/tests/common/greengrass\aws_test_greengrass_discovery.c ****                                             cJSON_FILE, /*lint !e971 can use char without signed/un
 1429              		.loc 1 492 0
 1430 0054 0080A0E1 		mov	r8, r0
 1431              	.LVL158:
 498:D:/Work/DeviceTester/amazon-freertos/tests/common/greengrass\aws_test_greengrass_discovery.c ****         /** @}*/
 1432              		.loc 1 498 0
 1433 0058 912800E3 		movw	r2, #2193
 1434 005c 0600A0E1 		mov	r0, r6
 1435              	.LVL159:
 1436 0060 FEFFFFEB 		bl	memcpy
 1437              	.LVL160:
 508:D:/Work/DeviceTester/amazon-freertos/tests/common/greengrass\aws_test_greengrass_discovery.c ****                                                ucTargetInterface,
 1438              		.loc 1 508 0
 1439 0064 28908DE2 		add	r9, sp, #40
 507:D:/Work/DeviceTester/amazon-freertos/tests/common/greengrass\aws_test_greengrass_discovery.c ****         xStatus = test_prvGGDGetIPOnInterface( cBuffer,
 1440              		.loc 1 507 0
 1441 0068 0930A0E3 		mov	r3, #9
 515:D:/Work/DeviceTester/amazon-freertos/tests/common/greengrass\aws_test_greengrass_discovery.c ****         TEST_ASSERT_EQUAL_STRING( cIP_ADDRESS_1, xHostAddressData.pcHostAddress );
 1442              		.loc 1 515 0
 1443 006c 1450A0E3 		mov	r5, #20
 507:D:/Work/DeviceTester/amazon-freertos/tests/common/greengrass\aws_test_greengrass_discovery.c ****         xStatus = test_prvGGDGetIPOnInterface( cBuffer,
 1444              		.loc 1 507 0
 1445 0070 18308DE5 		str	r3, [sp, #24]
 508:D:/Work/DeviceTester/amazon-freertos/tests/common/greengrass\aws_test_greengrass_discovery.c ****                                                ucTargetInterface,
 1446              		.loc 1 508 0
 1447 0074 0720A0E1 		mov	r2, r7
 1448 0078 0830A0E1 		mov	r3, r8
 1449 007c 0110A0E3 		mov	r1, #1
 1450 0080 08B08DE5 		str	fp, [sp, #8]
 1451 0084 04A08DE5 		str	r10, [sp, #4]
 1452 0088 0600A0E1 		mov	r0, r6
 1453 008c 00908DE5 		str	r9, [sp]
 505:D:/Work/DeviceTester/amazon-freertos/tests/common/greengrass\aws_test_greengrass_discovery.c ****         ucTargetInterface = 1;
 1454              		.loc 1 505 0
 1455 0090 1740CDE5 		strb	r4, [sp, #23]
 1456              	.LVL161:
 508:D:/Work/DeviceTester/amazon-freertos/tests/common/greengrass\aws_test_greengrass_discovery.c ****                                                ucTargetInterface,
 1457              		.loc 1 508 0
 1458 0094 FEFFFFEB 		bl	test_prvGGDGetIPOnInterface
 1459              	.LVL162:
 515:D:/Work/DeviceTester/amazon-freertos/tests/common/greengrass\aws_test_greengrass_discovery.c ****         TEST_ASSERT_EQUAL_STRING( cIP_ADDRESS_1, xHostAddressData.pcHostAddress );
 1460              		.loc 1 515 0
 1461 0098 033200E3 		movw	r3, #515
 1462 009c 0010A0E1 		mov	r1, r0
 1463 00a0 0420A0E1 		mov	r2, r4
 1464 00a4 0100A0E3 		mov	r0, #1
 1465              	.LVL163:
 1466 00a8 00508DE5 		str	r5, [sp]
 1467 00ac FEFFFFEB 		bl	UnityAssertEqualNumber
 1468              	.LVL164:
 516:D:/Work/DeviceTester/amazon-freertos/tests/common/greengrass\aws_test_greengrass_discovery.c ****         TEST_ASSERT_EQUAL_INT32( ggdTestJSON_PORT_ADRESS_1, xHostAddressData.usPort );
 1469              		.loc 1 516 0
 1470 00b0 813FA0E3 		mov	r3, #516
 1471 00b4 0420A0E1 		mov	r2, r4
 1472 00b8 28109DE5 		ldr	r1, [sp, #40]
 1473 00bc 14019FE5 		ldr	r0, .L95+16
 1474 00c0 FEFFFFEB 		bl	UnityAssertEqualString
 1475              	.LVL165:
 517:D:/Work/DeviceTester/amazon-freertos/tests/common/greengrass\aws_test_greengrass_discovery.c **** 
 1476              		.loc 1 517 0
 1477 00c4 B413DDE1 		ldrh	r1, [sp, #52]
 1478 00c8 053200E3 		movw	r3, #517
 1479 00cc 0420A0E1 		mov	r2, r4
 1480 00d0 D20400E3 		movw	r0, #1234
 1481 00d4 00508DE5 		str	r5, [sp]
 1482 00d8 FEFFFFEB 		bl	UnityAssertEqualNumber
 1483              	.LVL166:
 521:D:/Work/DeviceTester/amazon-freertos/tests/common/greengrass\aws_test_greengrass_discovery.c ****                                                ucTargetInterface,
 1484              		.loc 1 521 0
 1485 00dc 0830A0E1 		mov	r3, r8
 1486 00e0 0720A0E1 		mov	r2, r7
 1487 00e4 0310A0E3 		mov	r1, #3
 1488 00e8 000E8DE8 		stm	sp, {r9, r10, fp}
 1489 00ec 0600A0E1 		mov	r0, r6
 1490 00f0 FEFFFFEB 		bl	test_prvGGDGetIPOnInterface
 1491              	.LVL167:
 528:D:/Work/DeviceTester/amazon-freertos/tests/common/greengrass\aws_test_greengrass_discovery.c ****         TEST_ASSERT_EQUAL_STRING( cIP_ADDRESS_3, xHostAddressData.pcHostAddress );
 1492              		.loc 1 528 0
 1493 00f4 213EA0E3 		mov	r3, #528
 1494 00f8 0010A0E1 		mov	r1, r0
 1495 00fc 0420A0E1 		mov	r2, r4
 1496 0100 0100A0E3 		mov	r0, #1
 1497              	.LVL168:
 1498 0104 00508DE5 		str	r5, [sp]
 1499 0108 FEFFFFEB 		bl	UnityAssertEqualNumber
 1500              	.LVL169:
 529:D:/Work/DeviceTester/amazon-freertos/tests/common/greengrass\aws_test_greengrass_discovery.c ****         TEST_ASSERT_EQUAL_INT32( ggdTestJSON_PORT_ADRESS_3, xHostAddressData.usPort );
 1501              		.loc 1 529 0
 1502 010c 113200E3 		movw	r3, #529
 1503 0110 0420A0E1 		mov	r2, r4
 1504 0114 28109DE5 		ldr	r1, [sp, #40]
 1505 0118 BC009FE5 		ldr	r0, .L95+20
 1506 011c FEFFFFEB 		bl	UnityAssertEqualString
 1507              	.LVL170:
 530:D:/Work/DeviceTester/amazon-freertos/tests/common/greengrass\aws_test_greengrass_discovery.c ****         /** @}*/
 1508              		.loc 1 530 0
 1509 0120 B413DDE1 		ldrh	r1, [sp, #52]
 1510 0124 123200E3 		movw	r3, #530
 1511 0128 0420A0E1 		mov	r2, r4
 1512 012c E10001E3 		movw	r0, #4321
 1513 0130 00508DE5 		str	r5, [sp]
 1514 0134 FEFFFFEB 		bl	UnityAssertEqualNumber
 1515              	.LVL171:
 538:D:/Work/DeviceTester/amazon-freertos/tests/common/greengrass\aws_test_greengrass_discovery.c ****         xStatus = test_prvGGDGetIPOnInterface( cBuffer,
 1516              		.loc 1 538 0
 1517 0138 023048E2 		sub	r3, r8, #2
 539:D:/Work/DeviceTester/amazon-freertos/tests/common/greengrass\aws_test_greengrass_discovery.c ****                                                ucTargetInterface,
 1518              		.loc 1 539 0
 1519 013c 0720A0E1 		mov	r2, r7
 538:D:/Work/DeviceTester/amazon-freertos/tests/common/greengrass\aws_test_greengrass_discovery.c ****         xStatus = test_prvGGDGetIPOnInterface( cBuffer,
 1520              		.loc 1 538 0
 1521 0140 18308DE5 		str	r3, [sp, #24]
 539:D:/Work/DeviceTester/amazon-freertos/tests/common/greengrass\aws_test_greengrass_discovery.c ****                                                ucTargetInterface,
 1522              		.loc 1 539 0
 1523 0144 0110A0E3 		mov	r1, #1
 1524 0148 0830A0E1 		mov	r3, r8
 1525 014c 000E8DE8 		stm	sp, {r9, r10, fp}
 1526 0150 0600A0E1 		mov	r0, r6
 536:D:/Work/DeviceTester/amazon-freertos/tests/common/greengrass\aws_test_greengrass_discovery.c ****         ucTargetInterface = 1;
 1527              		.loc 1 536 0
 1528 0154 1740CDE5 		strb	r4, [sp, #23]
 1529              	.LVL172:
 539:D:/Work/DeviceTester/amazon-freertos/tests/common/greengrass\aws_test_greengrass_discovery.c ****                                                ucTargetInterface,
 1530              		.loc 1 539 0
 1531 0158 FEFFFFEB 		bl	test_prvGGDGetIPOnInterface
 1532              	.LVL173:
 546:D:/Work/DeviceTester/amazon-freertos/tests/common/greengrass\aws_test_greengrass_discovery.c ****         /** @}*/
 1533              		.loc 1 546 0
 1534 015c 223200E3 		movw	r3, #546
 1535 0160 0010A0E1 		mov	r1, r0
 1536 0164 0420A0E1 		mov	r2, r4
 1537 0168 0400A0E1 		mov	r0, r4
 1538              	.LVL174:
 1539 016c 00508DE5 		str	r5, [sp]
 1540 0170 FEFFFFEB 		bl	UnityAssertEqualNumber
 1541              	.LVL175:
 554:D:/Work/DeviceTester/amazon-freertos/tests/common/greengrass\aws_test_greengrass_discovery.c ****         xStatus = test_prvGGDGetIPOnInterface( cBuffer,
 1542              		.loc 1 554 0
 1543 0174 0930A0E3 		mov	r3, #9
 555:D:/Work/DeviceTester/amazon-freertos/tests/common/greengrass\aws_test_greengrass_discovery.c ****                                                ucTargetInterface,
 1544              		.loc 1 555 0
 1545 0178 0720A0E1 		mov	r2, r7
 554:D:/Work/DeviceTester/amazon-freertos/tests/common/greengrass\aws_test_greengrass_discovery.c ****         xStatus = test_prvGGDGetIPOnInterface( cBuffer,
 1546              		.loc 1 554 0
 1547 017c 18308DE5 		str	r3, [sp, #24]
 555:D:/Work/DeviceTester/amazon-freertos/tests/common/greengrass\aws_test_greengrass_discovery.c ****                                                ucTargetInterface,
 1548              		.loc 1 555 0
 1549 0180 6410A0E3 		mov	r1, #100
 1550 0184 0830A0E1 		mov	r3, r8
 1551 0188 000E8DE8 		stm	sp, {r9, r10, fp}
 1552 018c 0600A0E1 		mov	r0, r6
 552:D:/Work/DeviceTester/amazon-freertos/tests/common/greengrass\aws_test_greengrass_discovery.c ****         ucTargetInterface = 100;
 1553              		.loc 1 552 0
 1554 0190 1740CDE5 		strb	r4, [sp, #23]
 1555              	.LVL176:
 555:D:/Work/DeviceTester/amazon-freertos/tests/common/greengrass\aws_test_greengrass_discovery.c ****                                                ucTargetInterface,
 1556              		.loc 1 555 0
 1557 0194 FEFFFFEB 		bl	test_prvGGDGetIPOnInterface
 1558              	.LVL177:
 562:D:/Work/DeviceTester/amazon-freertos/tests/common/greengrass\aws_test_greengrass_discovery.c ****         /** @}*/
 1559              		.loc 1 562 0
 1560 0198 00508DE5 		str	r5, [sp]
 1561 019c 0010A0E1 		mov	r1, r0
 1562 01a0 323200E3 		movw	r3, #562
 1563 01a4 0420A0E1 		mov	r2, r4
 1564 01a8 0400A0E1 		mov	r0, r4
 1565              	.LVL178:
 1566 01ac FEFFFFEB 		bl	UnityAssertEqualNumber
 1567              	.LVL179:
 1568              	.L89:
 569:D:/Work/DeviceTester/amazon-freertos/tests/common/greengrass\aws_test_greengrass_discovery.c **** 
 1569              		.loc 1 569 0
 1570 01b0 3CD08DE2 		add	sp, sp, #60
 1571              		.cfi_remember_state
 1572              		.cfi_def_cfa_offset 36
 1573              		@ sp needed
 1574 01b4 F08FBDE8 		pop	{r4, r5, r6, r7, r8, r9, r10, fp, pc}
 1575              	.L93:
 1576              		.cfi_restore_state
 567:D:/Work/DeviceTester/amazon-freertos/tests/common/greengrass\aws_test_greengrass_discovery.c ****     }
 1577              		.loc 1 567 0
 1578 01b8 371200E3 		movw	r1, #567
 1579 01bc 0000A0E3 		mov	r0, #0
 1580 01c0 FEFFFFEB 		bl	UnityFail
 1581              	.LVL180:
 1582 01c4 F9FFFFEA 		b	.L89
 1583              	.L96:
 1584              		.align	2
 1585              	.L95:
 1586 01c8 28000000 		.word	Unity+40
 1587 01cc 00000000 		.word	.LANCHOR7
 1588 01d0 00000000 		.word	.LANCHOR2
 1589 01d4 00000000 		.word	cBuffer
 1590 01d8 00000000 		.word	.LANCHOR8
 1591 01dc 00000000 		.word	.LANCHOR5
 1592              		.cfi_endproc
 1593              	.LFE15:
 1595              		.section	.text.TEST_Full_GGD_GetCertificate_,"ax",%progbits
 1596              		.align	2
 1597              		.global	TEST_Full_GGD_GetCertificate_
 1598              		.syntax unified
 1599              		.arm
 1600              		.fpu neon
 1602              	TEST_Full_GGD_GetCertificate_:
 1603              	.LFB17:
 572:D:/Work/DeviceTester/amazon-freertos/tests/common/greengrass\aws_test_greengrass_discovery.c ****     BaseType_t xStatus;
 1604              		.loc 1 572 0
 1605              		.cfi_startproc
 1606              		@ args = 0, pretend = 0, frame = 64
 1607              		@ frame_needed = 0, uses_anonymous_args = 0
 1608              	.LVL181:
 1609 0000 F04F2DE9 		push	{r4, r5, r6, r7, r8, r9, r10, fp, lr}
 1610              		.cfi_def_cfa_offset 36
 1611              		.cfi_offset 4, -36
 1612              		.cfi_offset 5, -32
 1613              		.cfi_offset 6, -28
 1614              		.cfi_offset 7, -24
 1615              		.cfi_offset 8, -20
 1616              		.cfi_offset 9, -16
 1617              		.cfi_offset 10, -12
 1618              		.cfi_offset 11, -8
 1619              		.cfi_offset 14, -4
 1620 0004 54D04DE2 		sub	sp, sp, #84
 1621              		.cfi_def_cfa_offset 120
 579:D:/Work/DeviceTester/amazon-freertos/tests/common/greengrass\aws_test_greengrass_discovery.c ****     jsmn_parser xParser;
 1622              		.loc 1 579 0
 1623 0008 0D20A0E3 		mov	r2, #13
 1624 000c 9C119FE5 		ldr	r1, .L103
 1625 0010 30008DE2 		add	r0, sp, #48
 1626 0014 FEFFFFEB 		bl	memcpy
 1627              	.LVL182:
 582:D:/Work/DeviceTester/amazon-freertos/tests/common/greengrass\aws_test_greengrass_discovery.c ****     {
 1628              		.loc 1 582 0
 1629 0018 94019FE5 		ldr	r0, .L103+4
 1630 001c FEFFFFEB 		bl	setjmp
 1631              	.LVL183:
 1632 0020 004050E2 		subs	r4, r0, #0
 1633 0024 5D00001A 		bne	.L101
 590:D:/Work/DeviceTester/amazon-freertos/tests/common/greengrass\aws_test_greengrass_discovery.c ****                                             cJSON_FILE, /*lint !e971 can use char without signed/un
 1634              		.loc 1 590 0
 1635 0028 88819FE5 		ldr	r8, .L103+8
 587:D:/Work/DeviceTester/amazon-freertos/tests/common/greengrass\aws_test_greengrass_discovery.c **** 
 1636              		.loc 1 587 0
 1637 002c 24008DE2 		add	r0, sp, #36
 590:D:/Work/DeviceTester/amazon-freertos/tests/common/greengrass\aws_test_greengrass_discovery.c ****                                             cJSON_FILE, /*lint !e971 can use char without signed/un
 1638              		.loc 1 590 0
 1639 0030 84919FE5 		ldr	r9, .L103+12
 597:D:/Work/DeviceTester/amazon-freertos/tests/common/greengrass\aws_test_greengrass_discovery.c ****         /** @}*/
 1640              		.loc 1 597 0
 1641 0034 91B800E3 		movw	fp, #2193
 587:D:/Work/DeviceTester/amazon-freertos/tests/common/greengrass\aws_test_greengrass_discovery.c **** 
 1642              		.loc 1 587 0
 1643 0038 FEFFFFEB 		bl	jsmn_init
 1644              	.LVL184:
 590:D:/Work/DeviceTester/amazon-freertos/tests/common/greengrass\aws_test_greengrass_discovery.c ****                                             cJSON_FILE, /*lint !e971 can use char without signed/un
 1645              		.loc 1 590 0
 1646 003c 8030A0E3 		mov	r3, #128
 597:D:/Work/DeviceTester/amazon-freertos/tests/common/greengrass\aws_test_greengrass_discovery.c ****         /** @}*/
 1647              		.loc 1 597 0
 1648 0040 78519FE5 		ldr	r5, .L103+16
 590:D:/Work/DeviceTester/amazon-freertos/tests/common/greengrass\aws_test_greengrass_discovery.c ****                                             cJSON_FILE, /*lint !e971 can use char without signed/un
 1649              		.loc 1 590 0
 1650 0044 00308DE5 		str	r3, [sp]
 1651 0048 912800E3 		movw	r2, #2193
 1652 004c 0830A0E1 		mov	r3, r8
 1653 0050 0910A0E1 		mov	r1, r9
 1654 0054 24008DE2 		add	r0, sp, #36
 596:D:/Work/DeviceTester/amazon-freertos/tests/common/greengrass\aws_test_greengrass_discovery.c ****         memcpy( cBuffer, cJSON_FILE, strlen( cJSON_FILE ) );
 1655              		.loc 1 596 0
 1656 0058 50A08DE2 		add	r10, sp, #80
 590:D:/Work/DeviceTester/amazon-freertos/tests/common/greengrass\aws_test_greengrass_discovery.c ****                                             cJSON_FILE, /*lint !e971 can use char without signed/un
 1657              		.loc 1 590 0
 1658 005c FEFFFFEB 		bl	jsmn_parse
 1659              	.LVL185:
 596:D:/Work/DeviceTester/amazon-freertos/tests/common/greengrass\aws_test_greengrass_discovery.c ****         memcpy( cBuffer, cJSON_FILE, strlen( cJSON_FILE ) );
 1660              		.loc 1 596 0
 1661 0060 5C319FE5 		ldr	r3, .L103+20
 597:D:/Work/DeviceTester/amazon-freertos/tests/common/greengrass\aws_test_greengrass_discovery.c ****         /** @}*/
 1662              		.loc 1 597 0
 1663 0064 0B20A0E1 		mov	r2, fp
 590:D:/Work/DeviceTester/amazon-freertos/tests/common/greengrass\aws_test_greengrass_discovery.c ****                                             cJSON_FILE, /*lint !e971 can use char without signed/un
 1664              		.loc 1 590 0
 1665 0068 14008DE5 		str	r0, [sp, #20]
 1666              	.LVL186:
 597:D:/Work/DeviceTester/amazon-freertos/tests/common/greengrass\aws_test_greengrass_discovery.c ****         /** @}*/
 1667              		.loc 1 597 0
 1668 006c 0910A0E1 		mov	r1, r9
 1669 0070 0500A0E1 		mov	r0, r5
 1670              	.LVL187:
 610:D:/Work/DeviceTester/amazon-freertos/tests/common/greengrass\aws_test_greengrass_discovery.c ****         TEST_ASSERT_EQUAL_MEMORY( cCERTIFICATE, xHostAddressData.pcCertificate, strlen( cCERTIFICAT
 1671              		.loc 1 610 0
 1672 0074 1470A0E3 		mov	r7, #20
 596:D:/Work/DeviceTester/amazon-freertos/tests/common/greengrass\aws_test_greengrass_discovery.c ****         memcpy( cBuffer, cJSON_FILE, strlen( cJSON_FILE ) );
 1673              		.loc 1 596 0
 1674 0078 38302AE5 		str	r3, [r10, #-56]!
 611:D:/Work/DeviceTester/amazon-freertos/tests/common/greengrass\aws_test_greengrass_discovery.c ****         TEST_ASSERT_EQUAL_INT32( strlen( cCERTIFICATE ) + 1, xHostAddressData.ulCertificateSize );
 1675              		.loc 1 611 0
 1676 007c 0160A0E3 		mov	r6, #1
 597:D:/Work/DeviceTester/amazon-freertos/tests/common/greengrass\aws_test_greengrass_discovery.c ****         /** @}*/
 1677              		.loc 1 597 0
 1678 0080 FEFFFFEB 		bl	memcpy
 1679              	.LVL188:
 604:D:/Work/DeviceTester/amazon-freertos/tests/common/greengrass\aws_test_greengrass_discovery.c ****                                              &xHostParameters,
 1680              		.loc 1 604 0
 1681 0084 40308DE2 		add	r3, sp, #64
 1682 0088 0420A0E1 		mov	r2, r4
 1683 008c 04308DE5 		str	r3, [sp, #4]
 1684 0090 0A10A0E1 		mov	r1, r10
 1685 0094 14309DE5 		ldr	r3, [sp, #20]
 1686 0098 0500A0E1 		mov	r0, r5
 1687 009c 00308DE5 		str	r3, [sp]
 1688 00a0 0830A0E1 		mov	r3, r8
 1689 00a4 FEFFFFEB 		bl	test_prvGGDGetCertificate
 1690              	.LVL189:
 610:D:/Work/DeviceTester/amazon-freertos/tests/common/greengrass\aws_test_greengrass_discovery.c ****         TEST_ASSERT_EQUAL_MEMORY( cCERTIFICATE, xHostAddressData.pcCertificate, strlen( cCERTIFICAT
 1691              		.loc 1 610 0
 1692 00a8 623200E3 		movw	r3, #610
 1693 00ac 0010A0E1 		mov	r1, r0
 1694 00b0 0420A0E1 		mov	r2, r4
 1695 00b4 0100A0E3 		mov	r0, #1
 1696              	.LVL190:
 1697 00b8 00708DE5 		str	r7, [sp]
 1698 00bc FEFFFFEB 		bl	UnityAssertEqualNumber
 1699              	.LVL191:
 611:D:/Work/DeviceTester/amazon-freertos/tests/common/greengrass\aws_test_greengrass_discovery.c ****         TEST_ASSERT_EQUAL_INT32( strlen( cCERTIFICATE ) + 1, xHostAddressData.ulCertificateSize );
 1700              		.loc 1 611 0
 1701 00c0 633200E3 		movw	r3, #611
 1702 00c4 C42500E3 		movw	r2, #1476
 1703 00c8 48008DE9 		stmib	sp, {r3, r6}
 1704 00cc 0630A0E1 		mov	r3, r6
 1705 00d0 44109DE5 		ldr	r1, [sp, #68]
 1706 00d4 EC009FE5 		ldr	r0, .L103+24
 1707 00d8 00408DE5 		str	r4, [sp]
 1708 00dc FEFFFFEB 		bl	UnityAssertEqualMemory
 1709              	.LVL192:
 612:D:/Work/DeviceTester/amazon-freertos/tests/common/greengrass\aws_test_greengrass_discovery.c ****         /** @}*/
 1710              		.loc 1 612 0
 1711 00e0 993FA0E3 		mov	r3, #612
 1712 00e4 0420A0E1 		mov	r2, r4
 1713 00e8 48109DE5 		ldr	r1, [sp, #72]
 1714 00ec C50500E3 		movw	r0, #1477
 1715 00f0 00708DE5 		str	r7, [sp]
 1716 00f4 FEFFFFEB 		bl	UnityAssertEqualNumber
 1717              	.LVL193:
 618:D:/Work/DeviceTester/amazon-freertos/tests/common/greengrass\aws_test_greengrass_discovery.c ****         xAutoConnectFlag = pdFALSE;
 1718              		.loc 1 618 0
 1719 00f8 30308DE2 		add	r3, sp, #48
 620:D:/Work/DeviceTester/amazon-freertos/tests/common/greengrass\aws_test_greengrass_discovery.c ****         xStatus = test_prvGGDGetCertificate( cBuffer,
 1720              		.loc 1 620 0
 1721 00fc 0B20A0E1 		mov	r2, fp
 1722 0100 0910A0E1 		mov	r1, r9
 1723 0104 0500A0E1 		mov	r0, r5
 618:D:/Work/DeviceTester/amazon-freertos/tests/common/greengrass\aws_test_greengrass_discovery.c ****         xAutoConnectFlag = pdFALSE;
 1724              		.loc 1 618 0
 1725 0108 18308DE5 		str	r3, [sp, #24]
 620:D:/Work/DeviceTester/amazon-freertos/tests/common/greengrass\aws_test_greengrass_discovery.c ****         xStatus = test_prvGGDGetCertificate( cBuffer,
 1726              		.loc 1 620 0
 1727 010c FEFFFFEB 		bl	memcpy
 1728              	.LVL194:
 621:D:/Work/DeviceTester/amazon-freertos/tests/common/greengrass\aws_test_greengrass_discovery.c ****                                              &xHostParameters,
 1729              		.loc 1 621 0
 1730 0110 40308DE2 		add	r3, sp, #64
 1731 0114 0420A0E1 		mov	r2, r4
 1732 0118 04308DE5 		str	r3, [sp, #4]
 1733 011c 0A10A0E1 		mov	r1, r10
 1734 0120 14309DE5 		ldr	r3, [sp, #20]
 1735 0124 0500A0E1 		mov	r0, r5
 1736 0128 00308DE5 		str	r3, [sp]
 1737 012c 0830A0E1 		mov	r3, r8
 1738 0130 FEFFFFEB 		bl	test_prvGGDGetCertificate
 1739              	.LVL195:
 627:D:/Work/DeviceTester/amazon-freertos/tests/common/greengrass\aws_test_greengrass_discovery.c ****         /** @}*/
 1740              		.loc 1 627 0
 1741 0134 733200E3 		movw	r3, #627
 1742 0138 0010A0E1 		mov	r1, r0
 1743 013c 0420A0E1 		mov	r2, r4
 1744 0140 0400A0E1 		mov	r0, r4
 1745              	.LVL196:
 1746 0144 00708DE5 		str	r7, [sp]
 1747 0148 FEFFFFEB 		bl	UnityAssertEqualNumber
 1748              	.LVL197:
 636:D:/Work/DeviceTester/amazon-freertos/tests/common/greengrass\aws_test_greengrass_discovery.c ****         xStatus = test_prvGGDGetCertificate( cBuffer,
 1749              		.loc 1 636 0
 1750 014c 0B20A0E1 		mov	r2, fp
 1751 0150 0910A0E1 		mov	r1, r9
 1752 0154 0500A0E1 		mov	r0, r5
 1753 0158 FEFFFFEB 		bl	memcpy
 1754              	.LVL198:
 637:D:/Work/DeviceTester/amazon-freertos/tests/common/greengrass\aws_test_greengrass_discovery.c ****                                              NULL, /* HostParameters set to NULL */
 1755              		.loc 1 637 0
 1756 015c 40308DE2 		add	r3, sp, #64
 1757 0160 0620A0E1 		mov	r2, r6
 1758 0164 04308DE5 		str	r3, [sp, #4]
 1759 0168 0410A0E1 		mov	r1, r4
 1760 016c 14309DE5 		ldr	r3, [sp, #20]
 1761 0170 0500A0E1 		mov	r0, r5
 1762 0174 00308DE5 		str	r3, [sp]
 1763 0178 0830A0E1 		mov	r3, r8
 1764 017c FEFFFFEB 		bl	test_prvGGDGetCertificate
 1765              	.LVL199:
 643:D:/Work/DeviceTester/amazon-freertos/tests/common/greengrass\aws_test_greengrass_discovery.c ****         /** @}*/
 1766              		.loc 1 643 0
 1767 0180 00708DE5 		str	r7, [sp]
 1768 0184 0010A0E1 		mov	r1, r0
 1769 0188 833200E3 		movw	r3, #643
 1770 018c 0420A0E1 		mov	r2, r4
 1771 0190 0600A0E1 		mov	r0, r6
 1772              	.LVL200:
 1773 0194 FEFFFFEB 		bl	UnityAssertEqualNumber
 1774              	.LVL201:
 1775              	.L97:
 650:D:/Work/DeviceTester/amazon-freertos/tests/common/greengrass\aws_test_greengrass_discovery.c **** 
 1776              		.loc 1 650 0
 1777 0198 54D08DE2 		add	sp, sp, #84
 1778              		.cfi_remember_state
 1779              		.cfi_def_cfa_offset 36
 1780              		@ sp needed
 1781 019c F08FBDE8 		pop	{r4, r5, r6, r7, r8, r9, r10, fp, pc}
 1782              	.L101:
 1783              		.cfi_restore_state
 648:D:/Work/DeviceTester/amazon-freertos/tests/common/greengrass\aws_test_greengrass_discovery.c ****     }
 1784              		.loc 1 648 0
 1785 01a0 A21FA0E3 		mov	r1, #648
 1786 01a4 0000A0E3 		mov	r0, #0
 1787 01a8 FEFFFFEB 		bl	UnityFail
 1788              	.LVL202:
 1789 01ac F9FFFFEA 		b	.L97
 1790              	.L104:
 1791              		.align	2
 1792              	.L103:
 1793 01b0 00000000 		.word	.LC4
 1794 01b4 28000000 		.word	Unity+40
 1795 01b8 00000000 		.word	.LANCHOR7
 1796 01bc 00000000 		.word	.LANCHOR2
 1797 01c0 00000000 		.word	cBuffer
 1798 01c4 00000000 		.word	.LANCHOR4
 1799 01c8 00000000 		.word	.LANCHOR6
 1800              		.cfi_endproc
 1801              	.LFE17:
 1803              		.section	.text.TEST_Full_GGD_CheckMatch_,"ax",%progbits
 1804              		.align	2
 1805              		.global	TEST_Full_GGD_CheckMatch_
 1806              		.syntax unified
 1807              		.arm
 1808              		.fpu neon
 1810              	TEST_Full_GGD_CheckMatch_:
 1811              	.LFB19:
 653:D:/Work/DeviceTester/amazon-freertos/tests/common/greengrass\aws_test_greengrass_discovery.c ****     BaseType_t xMatch;
 1812              		.loc 1 653 0
 1813              		.cfi_startproc
 1814              		@ args = 0, pretend = 0, frame = 16
 1815              		@ frame_needed = 0, uses_anonymous_args = 0
 1816              	.LVL203:
 661:D:/Work/DeviceTester/amazon-freertos/tests/common/greengrass\aws_test_greengrass_discovery.c ****     {
 1817              		.loc 1 661 0
 1818 0000 90019FE5 		ldr	r0, .L111
 653:D:/Work/DeviceTester/amazon-freertos/tests/common/greengrass\aws_test_greengrass_discovery.c ****     BaseType_t xMatch;
 1819              		.loc 1 653 0
 1820 0004 F04F2DE9 		push	{r4, r5, r6, r7, r8, r9, r10, fp, lr}
 1821              		.cfi_def_cfa_offset 36
 1822              		.cfi_offset 4, -36
 1823              		.cfi_offset 5, -32
 1824              		.cfi_offset 6, -28
 1825              		.cfi_offset 7, -24
 1826              		.cfi_offset 8, -20
 1827              		.cfi_offset 9, -16
 1828              		.cfi_offset 10, -12
 1829              		.cfi_offset 11, -8
 1830              		.cfi_offset 14, -4
 1831 0008 24D04DE2 		sub	sp, sp, #36
 1832              		.cfi_def_cfa_offset 72
 661:D:/Work/DeviceTester/amazon-freertos/tests/common/greengrass\aws_test_greengrass_discovery.c ****     {
 1833              		.loc 1 661 0
 1834 000c FEFFFFEB 		bl	setjmp
 1835              	.LVL204:
 1836 0010 004050E2 		subs	r4, r0, #0
 1837 0014 5B00001A 		bne	.L109
 669:D:/Work/DeviceTester/amazon-freertos/tests/common/greengrass\aws_test_greengrass_discovery.c ****                                             cJSON_FILE, /*lint !e971 can use char without signed/un
 1838              		.loc 1 669 0
 1839 0018 7C719FE5 		ldr	r7, .L111+4
 666:D:/Work/DeviceTester/amazon-freertos/tests/common/greengrass\aws_test_greengrass_discovery.c **** 
 1840              		.loc 1 666 0
 1841 001c 14008DE2 		add	r0, sp, #20
 669:D:/Work/DeviceTester/amazon-freertos/tests/common/greengrass\aws_test_greengrass_discovery.c ****                                             cJSON_FILE, /*lint !e971 can use char without signed/un
 1842              		.loc 1 669 0
 1843 0020 78619FE5 		ldr	r6, .L111+8
 674:D:/Work/DeviceTester/amazon-freertos/tests/common/greengrass\aws_test_greengrass_discovery.c **** /** @}*/
 1844              		.loc 1 674 0
 1845 0024 1450A0E3 		mov	r5, #20
 666:D:/Work/DeviceTester/amazon-freertos/tests/common/greengrass\aws_test_greengrass_discovery.c **** 
 1846              		.loc 1 666 0
 1847 0028 FEFFFFEB 		bl	jsmn_init
 1848              	.LVL205:
 682:D:/Work/DeviceTester/amazon-freertos/tests/common/greengrass\aws_test_greengrass_discovery.c ****                             pxTok,
 1849              		.loc 1 682 0
 1850 002c 70819FE5 		ldr	r8, .L111+12
 669:D:/Work/DeviceTester/amazon-freertos/tests/common/greengrass\aws_test_greengrass_discovery.c ****                                             cJSON_FILE, /*lint !e971 can use char without signed/un
 1851              		.loc 1 669 0
 1852 0030 8030A0E3 		mov	r3, #128
 682:D:/Work/DeviceTester/amazon-freertos/tests/common/greengrass\aws_test_greengrass_discovery.c ****                             pxTok,
 1853              		.loc 1 682 0
 1854 0034 6CB19FE5 		ldr	fp, .L111+16
 669:D:/Work/DeviceTester/amazon-freertos/tests/common/greengrass\aws_test_greengrass_discovery.c ****                                             cJSON_FILE, /*lint !e971 can use char without signed/un
 1855              		.loc 1 669 0
 1856 0038 912800E3 		movw	r2, #2193
 1857 003c 00308DE5 		str	r3, [sp]
 1858 0040 0610A0E1 		mov	r1, r6
 1859 0044 0730A0E1 		mov	r3, r7
 1860 0048 14008DE2 		add	r0, sp, #20
 1861 004c FEFFFFEB 		bl	jsmn_parse
 1862              	.LVL206:
 674:D:/Work/DeviceTester/amazon-freertos/tests/common/greengrass\aws_test_greengrass_discovery.c **** /** @}*/
 1863              		.loc 1 674 0
 1864 0050 A23200E3 		movw	r3, #674
 1865 0054 0010A0E1 		mov	r1, r0
 1866 0058 0420A0E1 		mov	r2, r4
 1867 005c 0400A0E1 		mov	r0, r4
 1868              	.LVL207:
 1869 0060 00508DE5 		str	r5, [sp]
 716:D:/Work/DeviceTester/amazon-freertos/tests/common/greengrass\aws_test_greengrass_discovery.c ****                             pxTok,
 1870              		.loc 1 716 0
 1871 0064 01A0A0E3 		mov	r10, #1
 674:D:/Work/DeviceTester/amazon-freertos/tests/common/greengrass\aws_test_greengrass_discovery.c **** /** @}*/
 1872              		.loc 1 674 0
 1873 0068 FEFFFFEB 		bl	UnityAssertGreaterNumber
 1874              	.LVL208:
 682:D:/Work/DeviceTester/amazon-freertos/tests/common/greengrass\aws_test_greengrass_discovery.c ****                             pxTok,
 1875              		.loc 1 682 0
 1876 006c 10308DE2 		add	r3, sp, #16
 1877 0070 0420A0E3 		mov	r2, #4
 1878 0074 0710A0E1 		mov	r1, r7
 1879 0078 0600A0E1 		mov	r0, r6
 1880 007c 08408DE5 		str	r4, [sp, #8]
 1881 0080 04808DE5 		str	r8, [sp, #4]
 1882 0084 00B08DE5 		str	fp, [sp]
 1883 0088 FEFFFFEB 		bl	test_prvCheckMatch
 1884              	.LVL209:
 716:D:/Work/DeviceTester/amazon-freertos/tests/common/greengrass\aws_test_greengrass_discovery.c ****                             pxTok,
 1885              		.loc 1 716 0
 1886 008c 18919FE5 		ldr	r9, .L111+20
 689:D:/Work/DeviceTester/amazon-freertos/tests/common/greengrass\aws_test_greengrass_discovery.c ****         /** @}*/
 1887              		.loc 1 689 0
 1888 0090 B13200E3 		movw	r3, #689
 1889 0094 0420A0E1 		mov	r2, r4
 1890 0098 10109DE5 		ldr	r1, [sp, #16]
 1891 009c 0100A0E3 		mov	r0, #1
 1892 00a0 00508DE5 		str	r5, [sp]
 1893 00a4 FEFFFFEB 		bl	UnityAssertEqualNumber
 1894              	.LVL210:
 698:D:/Work/DeviceTester/amazon-freertos/tests/common/greengrass\aws_test_greengrass_discovery.c ****                             pxTok,
 1895              		.loc 1 698 0
 1896 00a8 10308DE2 		add	r3, sp, #16
 1897 00ac 0520A0E3 		mov	r2, #5
 1898 00b0 0710A0E1 		mov	r1, r7
 1899 00b4 0600A0E1 		mov	r0, r6
 1900 00b8 08408DE5 		str	r4, [sp, #8]
 1901 00bc 04808DE5 		str	r8, [sp, #4]
 1902 00c0 00B08DE5 		str	fp, [sp]
 1903 00c4 FEFFFFEB 		bl	test_prvCheckMatch
 1904              	.LVL211:
 705:D:/Work/DeviceTester/amazon-freertos/tests/common/greengrass\aws_test_greengrass_discovery.c ****         /** @}*/
 1905              		.loc 1 705 0
 1906 00c8 C13200E3 		movw	r3, #705
 1907 00cc 0420A0E1 		mov	r2, r4
 1908 00d0 10109DE5 		ldr	r1, [sp, #16]
 1909 00d4 0400A0E1 		mov	r0, r4
 1910 00d8 00508DE5 		str	r5, [sp]
 1911 00dc FEFFFFEB 		bl	UnityAssertEqualNumber
 1912              	.LVL212:
 716:D:/Work/DeviceTester/amazon-freertos/tests/common/greengrass\aws_test_greengrass_discovery.c ****                             pxTok,
 1913              		.loc 1 716 0
 1914 00e0 10308DE2 		add	r3, sp, #16
 1915 00e4 0520A0E3 		mov	r2, #5
 1916 00e8 0710A0E1 		mov	r1, r7
 1917 00ec 0600A0E1 		mov	r0, r6
 1918 00f0 00058DE9 		stmib	sp, {r8, r10}
 1919 00f4 00908DE5 		str	r9, [sp]
 1920 00f8 FEFFFFEB 		bl	test_prvCheckMatch
 1921              	.LVL213:
 723:D:/Work/DeviceTester/amazon-freertos/tests/common/greengrass\aws_test_greengrass_discovery.c **** 
 1922              		.loc 1 723 0
 1923 00fc D33200E3 		movw	r3, #723
 1924 0100 0420A0E1 		mov	r2, r4
 1925 0104 10109DE5 		ldr	r1, [sp, #16]
 1926 0108 0400A0E1 		mov	r0, r4
 1927 010c 00508DE5 		str	r5, [sp]
 1928 0110 FEFFFFEB 		bl	UnityAssertEqualNumber
 1929              	.LVL214:
 727:D:/Work/DeviceTester/amazon-freertos/tests/common/greengrass\aws_test_greengrass_discovery.c ****                             pxTok,
 1930              		.loc 1 727 0
 1931 0114 10308DE2 		add	r3, sp, #16
 1932 0118 0420A0E3 		mov	r2, #4
 1933 011c 0710A0E1 		mov	r1, r7
 1934 0120 0600A0E1 		mov	r0, r6
 1935 0124 00068DE9 		stmib	sp, {r9, r10}
 1936 0128 00B08DE5 		str	fp, [sp]
 1937 012c FEFFFFEB 		bl	test_prvCheckMatch
 1938              	.LVL215:
 734:D:/Work/DeviceTester/amazon-freertos/tests/common/greengrass\aws_test_greengrass_discovery.c ****         /** @}*/
 1939              		.loc 1 734 0
 1940 0130 DE3200E3 		movw	r3, #734
 1941 0134 0420A0E1 		mov	r2, r4
 1942 0138 10109DE5 		ldr	r1, [sp, #16]
 1943 013c 0A00A0E1 		mov	r0, r10
 1944 0140 00508DE5 		str	r5, [sp]
 1945 0144 FEFFFFEB 		bl	UnityAssertEqualNumber
 1946              	.LVL216:
 743:D:/Work/DeviceTester/amazon-freertos/tests/common/greengrass\aws_test_greengrass_discovery.c ****                             pxTok,
 1947              		.loc 1 743 0
 1948 0148 10308DE2 		add	r3, sp, #16
 1949 014c 0420A0E3 		mov	r2, #4
 1950 0150 0710A0E1 		mov	r1, r7
 1951 0154 0600A0E1 		mov	r0, r6
 1952 0158 08408DE5 		str	r4, [sp, #8]
 1953 015c 04808DE5 		str	r8, [sp, #4]
 1954 0160 00908DE5 		str	r9, [sp]
 1955 0164 FEFFFFEB 		bl	test_prvCheckMatch
 1956              	.LVL217:
 750:D:/Work/DeviceTester/amazon-freertos/tests/common/greengrass\aws_test_greengrass_discovery.c ****         /** @}*/
 1957              		.loc 1 750 0
 1958 0168 00508DE5 		str	r5, [sp]
 1959 016c EE3200E3 		movw	r3, #750
 1960 0170 0420A0E1 		mov	r2, r4
 1961 0174 10109DE5 		ldr	r1, [sp, #16]
 1962 0178 0400A0E1 		mov	r0, r4
 1963 017c FEFFFFEB 		bl	UnityAssertEqualNumber
 1964              	.LVL218:
 1965              	.L105:
 757:D:/Work/DeviceTester/amazon-freertos/tests/common/greengrass\aws_test_greengrass_discovery.c **** 
 1966              		.loc 1 757 0
 1967 0180 24D08DE2 		add	sp, sp, #36
 1968              		.cfi_remember_state
 1969              		.cfi_def_cfa_offset 36
 1970              		@ sp needed
 1971 0184 F08FBDE8 		pop	{r4, r5, r6, r7, r8, r9, r10, fp, pc}
 1972              	.LVL219:
 1973              	.L109:
 1974              		.cfi_restore_state
 755:D:/Work/DeviceTester/amazon-freertos/tests/common/greengrass\aws_test_greengrass_discovery.c ****     }
 1975              		.loc 1 755 0
 1976 0188 F31200E3 		movw	r1, #755
 1977 018c 0000A0E3 		mov	r0, #0
 1978 0190 FEFFFFEB 		bl	UnityFail
 1979              	.LVL220:
 1980 0194 F9FFFFEA 		b	.L105
 1981              	.L112:
 1982              		.align	2
 1983              	.L111:
 1984 0198 28000000 		.word	Unity+40
 1985 019c 00000000 		.word	.LANCHOR7
 1986 01a0 00000000 		.word	.LANCHOR2
 1987 01a4 00000000 		.word	.LANCHOR4
 1988 01a8 00000000 		.word	.LC9
 1989 01ac 0A000000 		.word	.LC10
 1990              		.cfi_endproc
 1991              	.LFE19:
 1993              		.section	.text.TEST_Full_GGD_Jsoneq_,"ax",%progbits
 1994              		.align	2
 1995              		.global	TEST_Full_GGD_Jsoneq_
 1996              		.syntax unified
 1997              		.arm
 1998              		.fpu neon
 2000              	TEST_Full_GGD_Jsoneq_:
 2001              	.LFB21:
 760:D:/Work/DeviceTester/amazon-freertos/tests/common/greengrass\aws_test_greengrass_discovery.c ****     BaseType_t xStatus;
 2002              		.loc 1 760 0
 2003              		.cfi_startproc
 2004              		@ args = 0, pretend = 0, frame = 2576
 2005              		@ frame_needed = 0, uses_anonymous_args = 0
 2006              	.LVL221:
 2007 0000 F0402DE9 		push	{r4, r5, r6, r7, lr}
 2008              		.cfi_def_cfa_offset 20
 2009              		.cfi_offset 4, -20
 2010              		.cfi_offset 5, -16
 2011              		.cfi_offset 6, -12
 2012              		.cfi_offset 7, -8
 2013              		.cfi_offset 14, -4
 2014 0004 A1DE4DE2 		sub	sp, sp, #2576
 2015              		.cfi_def_cfa_offset 2596
 768:D:/Work/DeviceTester/amazon-freertos/tests/common/greengrass\aws_test_greengrass_discovery.c ****     {
 2016              		.loc 1 768 0
 2017 0008 C0009FE5 		ldr	r0, .L119
 760:D:/Work/DeviceTester/amazon-freertos/tests/common/greengrass\aws_test_greengrass_discovery.c ****     BaseType_t xStatus;
 2018              		.loc 1 760 0
 2019 000c 0CD04DE2 		sub	sp, sp, #12
 2020              		.cfi_def_cfa_offset 2608
 768:D:/Work/DeviceTester/amazon-freertos/tests/common/greengrass\aws_test_greengrass_discovery.c ****     {
 2021              		.loc 1 768 0
 2022 0010 FEFFFFEB 		bl	setjmp
 2023              	.LVL222:
 2024 0014 004050E2 		subs	r4, r0, #0
 2025 0018 2800001A 		bne	.L117
 776:D:/Work/DeviceTester/amazon-freertos/tests/common/greengrass\aws_test_greengrass_discovery.c ****                                             cJSON_FILE, /*lint !e971 can use char without signed/un
 2026              		.loc 1 776 0
 2027 001c B0609FE5 		ldr	r6, .L119+4
 773:D:/Work/DeviceTester/amazon-freertos/tests/common/greengrass\aws_test_greengrass_discovery.c **** 
 2028              		.loc 1 773 0
 2029 0020 0C008DE2 		add	r0, sp, #12
 2030 0024 FEFFFFEB 		bl	jsmn_init
 2031              	.LVL223:
 787:D:/Work/DeviceTester/amazon-freertos/tests/common/greengrass\aws_test_greengrass_discovery.c ****                                      &pxTok[ ggdTestJSON_GROUPID_TOKEN_INDEX ],
 2032              		.loc 1 787 0
 2033 0028 A8709FE5 		ldr	r7, .L119+8
 776:D:/Work/DeviceTester/amazon-freertos/tests/common/greengrass\aws_test_greengrass_discovery.c ****                                             cJSON_FILE, /*lint !e971 can use char without signed/un
 2034              		.loc 1 776 0
 2035 002c 8030A0E3 		mov	r3, #128
 781:D:/Work/DeviceTester/amazon-freertos/tests/common/greengrass\aws_test_greengrass_discovery.c **** /** @}*/
 2036              		.loc 1 781 0
 2037 0030 1450A0E3 		mov	r5, #20
 776:D:/Work/DeviceTester/amazon-freertos/tests/common/greengrass\aws_test_greengrass_discovery.c ****                                             cJSON_FILE, /*lint !e971 can use char without signed/un
 2038              		.loc 1 776 0
 2039 0034 00308DE5 		str	r3, [sp]
 2040 0038 912800E3 		movw	r2, #2193
 2041 003c 18308DE2 		add	r3, sp, #24
 2042 0040 0610A0E1 		mov	r1, r6
 2043 0044 0C008DE2 		add	r0, sp, #12
 2044 0048 FEFFFFEB 		bl	jsmn_parse
 2045              	.LVL224:
 781:D:/Work/DeviceTester/amazon-freertos/tests/common/greengrass\aws_test_greengrass_discovery.c **** /** @}*/
 2046              		.loc 1 781 0
 2047 004c 0D3300E3 		movw	r3, #781
 2048 0050 0010A0E1 		mov	r1, r0
 2049 0054 0420A0E1 		mov	r2, r4
 2050 0058 0400A0E1 		mov	r0, r4
 2051              	.LVL225:
 2052 005c 00508DE5 		str	r5, [sp]
 2053 0060 FEFFFFEB 		bl	UnityAssertGreaterNumber
 2054              	.LVL226:
 787:D:/Work/DeviceTester/amazon-freertos/tests/common/greengrass\aws_test_greengrass_discovery.c ****                                      &pxTok[ ggdTestJSON_GROUPID_TOKEN_INDEX ],
 2055              		.loc 1 787 0
 2056 0064 0720A0E1 		mov	r2, r7
 2057 0068 68108DE2 		add	r1, sp, #104
 2058 006c 0600A0E1 		mov	r0, r6
 2059 0070 FEFFFFEB 		bl	test_prvGGDJsoneq
 2060              	.LVL227:
 790:D:/Work/DeviceTester/amazon-freertos/tests/common/greengrass\aws_test_greengrass_discovery.c ****         /** @}*/
 2061              		.loc 1 790 0
 2062 0074 163300E3 		movw	r3, #790
 2063 0078 0010A0E1 		mov	r1, r0
 2064 007c 0420A0E1 		mov	r2, r4
 2065 0080 0100A0E3 		mov	r0, #1
 2066              	.LVL228:
 2067 0084 00508DE5 		str	r5, [sp]
 2068 0088 FEFFFFEB 		bl	UnityAssertEqualNumber
 2069              	.LVL229:
 796:D:/Work/DeviceTester/amazon-freertos/tests/common/greengrass\aws_test_greengrass_discovery.c ****                                      &pxTok[ ggdTestJSON_GROUPID_TOKEN_INDEX + 1 ],
 2070              		.loc 1 796 0
 2071 008c 0720A0E1 		mov	r2, r7
 2072 0090 7C108DE2 		add	r1, sp, #124
 2073 0094 0600A0E1 		mov	r0, r6
 2074 0098 FEFFFFEB 		bl	test_prvGGDJsoneq
 2075              	.LVL230:
 799:D:/Work/DeviceTester/amazon-freertos/tests/common/greengrass\aws_test_greengrass_discovery.c ****         /** @}*/
 2076              		.loc 1 799 0
 2077 009c 00508DE5 		str	r5, [sp]
 2078 00a0 0010A0E1 		mov	r1, r0
 2079 00a4 1F3300E3 		movw	r3, #799
 2080 00a8 0420A0E1 		mov	r2, r4
 2081 00ac 0400A0E1 		mov	r0, r4
 2082              	.LVL231:
 2083 00b0 FEFFFFEB 		bl	UnityAssertEqualNumber
 2084              	.LVL232:
 2085              	.L113:
 810:D:/Work/DeviceTester/amazon-freertos/tests/common/greengrass\aws_test_greengrass_discovery.c **** 
 2086              		.loc 1 810 0
 2087 00b4 A1DE8DE2 		add	sp, sp, #2576
 2088 00b8 0CD08DE2 		add	sp, sp, #12
 2089              		.cfi_remember_state
 2090              		.cfi_def_cfa_offset 20
 2091              		@ sp needed
 2092 00bc F080BDE8 		pop	{r4, r5, r6, r7, pc}
 2093              	.L117:
 2094              		.cfi_restore_state
 808:D:/Work/DeviceTester/amazon-freertos/tests/common/greengrass\aws_test_greengrass_discovery.c ****     }
 2095              		.loc 1 808 0
 2096 00c0 CA1FA0E3 		mov	r1, #808
 2097 00c4 0000A0E3 		mov	r0, #0
 2098 00c8 FEFFFFEB 		bl	UnityFail
 2099              	.LVL233:
 2100 00cc F8FFFFEA 		b	.L113
 2101              	.L120:
 2102              		.align	2
 2103              	.L119:
 2104 00d0 28000000 		.word	Unity+40
 2105 00d4 00000000 		.word	.LANCHOR2
 2106 00d8 00000000 		.word	.LC9
 2107              		.cfi_endproc
 2108              	.LFE21:
 2110              		.section	.text.TEST_Full_GGD_CheckForContentLengthString_,"ax",%progbits
 2111              		.align	2
 2112              		.global	TEST_Full_GGD_CheckForContentLengthString_
 2113              		.syntax unified
 2114              		.arm
 2115              		.fpu neon
 2117              	TEST_Full_GGD_CheckForContentLengthString_:
 2118              	.LFB23:
 813:D:/Work/DeviceTester/amazon-freertos/tests/common/greengrass\aws_test_greengrass_discovery.c ****     BaseType_t xStatus;
 2119              		.loc 1 813 0
 2120              		.cfi_startproc
 2121              		@ args = 0, pretend = 0, frame = 24
 2122              		@ frame_needed = 0, uses_anonymous_args = 0
 2123 0000 F0412DE9 		push	{r4, r5, r6, r7, r8, lr}
 2124              		.cfi_def_cfa_offset 24
 2125              		.cfi_offset 4, -24
 2126              		.cfi_offset 5, -20
 2127              		.cfi_offset 6, -16
 2128              		.cfi_offset 7, -12
 2129              		.cfi_offset 8, -8
 2130              		.cfi_offset 14, -4
 817:D:/Work/DeviceTester/amazon-freertos/tests/common/greengrass\aws_test_greengrass_discovery.c **** 
 2131              		.loc 1 817 0
 2132 0004 1020A0E3 		mov	r2, #16
 813:D:/Work/DeviceTester/amazon-freertos/tests/common/greengrass\aws_test_greengrass_discovery.c ****     BaseType_t xStatus;
 2133              		.loc 1 813 0
 2134 0008 20D04DE2 		sub	sp, sp, #32
 2135              		.cfi_def_cfa_offset 56
 815:D:/Work/DeviceTester/amazon-freertos/tests/common/greengrass\aws_test_greengrass_discovery.c ****     uint32_t ulI;
 2136              		.loc 1 815 0
 2137 000c 0030A0E3 		mov	r3, #0
 817:D:/Work/DeviceTester/amazon-freertos/tests/common/greengrass\aws_test_greengrass_discovery.c **** 
 2138              		.loc 1 817 0
 2139 0010 02008DE0 		add	r0, sp, r2
 2140 0014 2C119FE5 		ldr	r1, .L129
 815:D:/Work/DeviceTester/amazon-freertos/tests/common/greengrass\aws_test_greengrass_discovery.c ****     uint32_t ulI;
 2141              		.loc 1 815 0
 2142 0018 0F30CDE5 		strb	r3, [sp, #15]
 817:D:/Work/DeviceTester/amazon-freertos/tests/common/greengrass\aws_test_greengrass_discovery.c **** 
 2143              		.loc 1 817 0
 2144 001c FEFFFFEB 		bl	memcpy
 2145              	.LVL234:
 819:D:/Work/DeviceTester/amazon-freertos/tests/common/greengrass\aws_test_greengrass_discovery.c ****     {
 2146              		.loc 1 819 0
 2147 0020 24019FE5 		ldr	r0, .L129+4
 2148 0024 FEFFFFEB 		bl	setjmp
 2149              	.LVL235:
 2150 0028 005050E2 		subs	r5, r0, #0
 2151 002c 4300001A 		bne	.L121
 828:D:/Work/DeviceTester/amazon-freertos/tests/common/greengrass\aws_test_greengrass_discovery.c ****                                                            cHTTPContentString[ ulI ] );
 2152              		.loc 1 828 0
 2153 0030 10808DE2 		add	r8, sp, #16
 2154 0034 0F608DE2 		add	r6, sp, #15
 830:D:/Work/DeviceTester/amazon-freertos/tests/common/greengrass\aws_test_greengrass_discovery.c ****             TEST_ASSERT_EQUAL_INT32( ulI + 1, ucIndex );
 2155              		.loc 1 830 0
 2156 0038 0540A0E1 		mov	r4, r5
 2157              	.L123:
 2158              	.LVL236:
 828:D:/Work/DeviceTester/amazon-freertos/tests/common/greengrass\aws_test_greengrass_discovery.c ****                                                            cHTTPContentString[ ulI ] );
 2159              		.loc 1 828 0
 2160 003c 0510D8E7 		ldrb	r1, [r8, r5]	@ zero_extendqisi2
 830:D:/Work/DeviceTester/amazon-freertos/tests/common/greengrass\aws_test_greengrass_discovery.c ****             TEST_ASSERT_EQUAL_INT32( ulI + 1, ucIndex );
 2161              		.loc 1 830 0
 2162 0040 1470A0E3 		mov	r7, #20
 828:D:/Work/DeviceTester/amazon-freertos/tests/common/greengrass\aws_test_greengrass_discovery.c ****                                                            cHTTPContentString[ ulI ] );
 2163              		.loc 1 828 0
 2164 0044 0600A0E1 		mov	r0, r6
 831:D:/Work/DeviceTester/amazon-freertos/tests/common/greengrass\aws_test_greengrass_discovery.c ****         }
 2165              		.loc 1 831 0
 2166 0048 015085E2 		add	r5, r5, #1
 2167              	.LVL237:
 828:D:/Work/DeviceTester/amazon-freertos/tests/common/greengrass\aws_test_greengrass_discovery.c ****                                                            cHTTPContentString[ ulI ] );
 2168              		.loc 1 828 0
 2169 004c FEFFFFEB 		bl	test_prvCheckForContentLengthString
 2170              	.LVL238:
 830:D:/Work/DeviceTester/amazon-freertos/tests/common/greengrass\aws_test_greengrass_discovery.c ****             TEST_ASSERT_EQUAL_INT32( ulI + 1, ucIndex );
 2171              		.loc 1 830 0
 2172 0050 3E3300E3 		movw	r3, #830
 2173 0054 0010A0E1 		mov	r1, r0
 2174 0058 0420A0E1 		mov	r2, r4
 2175 005c 0400A0E1 		mov	r0, r4
 2176              	.LVL239:
 2177 0060 00708DE5 		str	r7, [sp]
 2178 0064 FEFFFFEB 		bl	UnityAssertEqualNumber
 2179              	.LVL240:
 831:D:/Work/DeviceTester/amazon-freertos/tests/common/greengrass\aws_test_greengrass_discovery.c ****         }
 2180              		.loc 1 831 0
 2181 0068 0F10DDE5 		ldrb	r1, [sp, #15]	@ zero_extendqisi2
 2182 006c 3F3300E3 		movw	r3, #831
 2183 0070 00708DE5 		str	r7, [sp]
 2184 0074 0420A0E1 		mov	r2, r4
 2185 0078 0500A0E1 		mov	r0, r5
 2186 007c FEFFFFEB 		bl	UnityAssertEqualNumber
 2187              	.LVL241:
 824:D:/Work/DeviceTester/amazon-freertos/tests/common/greengrass\aws_test_greengrass_discovery.c ****              ulI < strlen( ggdHTTP_CONTENT_LENGTH_STRING ) - 1;
 2188              		.loc 1 824 0
 2189 0080 0E0055E3 		cmp	r5, #14
 2190 0084 ECFFFF1A 		bne	.L123
 834:D:/Work/DeviceTester/amazon-freertos/tests/common/greengrass\aws_test_greengrass_discovery.c ****                                                        cHTTPContentString[ ulI ] );
 2191              		.loc 1 834 0
 2192 0088 1E10DDE5 		ldrb	r1, [sp, #30]	@ zero_extendqisi2
 2193 008c 0600A0E1 		mov	r0, r6
 848:D:/Work/DeviceTester/amazon-freertos/tests/common/greengrass\aws_test_greengrass_discovery.c ****                                                            cHTTPContentString[ ulI ] );
 2194              		.loc 1 848 0
 2195 0090 10808DE2 		add	r8, sp, #16
 850:D:/Work/DeviceTester/amazon-freertos/tests/common/greengrass\aws_test_greengrass_discovery.c ****             TEST_ASSERT_EQUAL_INT32( ulI + 1, ucIndex );
 2196              		.loc 1 850 0
 2197 0094 0450A0E1 		mov	r5, r4
 2198              	.LVL242:
 834:D:/Work/DeviceTester/amazon-freertos/tests/common/greengrass\aws_test_greengrass_discovery.c ****                                                        cHTTPContentString[ ulI ] );
 2199              		.loc 1 834 0
 2200 0098 FEFFFFEB 		bl	test_prvCheckForContentLengthString
 2201              	.LVL243:
 836:D:/Work/DeviceTester/amazon-freertos/tests/common/greengrass\aws_test_greengrass_discovery.c ****         /** @}*/
 2202              		.loc 1 836 0
 2203 009c 00708DE5 		str	r7, [sp]
 2204 00a0 0010A0E1 		mov	r1, r0
 2205 00a4 D13FA0E3 		mov	r3, #836
 2206 00a8 0420A0E1 		mov	r2, r4
 2207 00ac 0100A0E3 		mov	r0, #1
 2208              	.LVL244:
 2209 00b0 FEFFFFEB 		bl	UnityAssertEqualNumber
 2210              	.LVL245:
 842:D:/Work/DeviceTester/amazon-freertos/tests/common/greengrass\aws_test_greengrass_discovery.c **** 
 2211              		.loc 1 842 0
 2212 00b4 0F40CDE5 		strb	r4, [sp, #15]
 2213              	.LVL246:
 2214              	.L124:
 848:D:/Work/DeviceTester/amazon-freertos/tests/common/greengrass\aws_test_greengrass_discovery.c ****                                                            cHTTPContentString[ ulI ] );
 2215              		.loc 1 848 0
 2216 00b8 0410D8E7 		ldrb	r1, [r8, r4]	@ zero_extendqisi2
 850:D:/Work/DeviceTester/amazon-freertos/tests/common/greengrass\aws_test_greengrass_discovery.c ****             TEST_ASSERT_EQUAL_INT32( ulI + 1, ucIndex );
 2217              		.loc 1 850 0
 2218 00bc 1470A0E3 		mov	r7, #20
 848:D:/Work/DeviceTester/amazon-freertos/tests/common/greengrass\aws_test_greengrass_discovery.c ****                                                            cHTTPContentString[ ulI ] );
 2219              		.loc 1 848 0
 2220 00c0 0600A0E1 		mov	r0, r6
 851:D:/Work/DeviceTester/amazon-freertos/tests/common/greengrass\aws_test_greengrass_discovery.c ****         }
 2221              		.loc 1 851 0
 2222 00c4 014084E2 		add	r4, r4, #1
 2223              	.LVL247:
 848:D:/Work/DeviceTester/amazon-freertos/tests/common/greengrass\aws_test_greengrass_discovery.c ****                                                            cHTTPContentString[ ulI ] );
 2224              		.loc 1 848 0
 2225 00c8 FEFFFFEB 		bl	test_prvCheckForContentLengthString
 2226              	.LVL248:
 850:D:/Work/DeviceTester/amazon-freertos/tests/common/greengrass\aws_test_greengrass_discovery.c ****             TEST_ASSERT_EQUAL_INT32( ulI + 1, ucIndex );
 2227              		.loc 1 850 0
 2228 00cc 523300E3 		movw	r3, #850
 2229 00d0 0010A0E1 		mov	r1, r0
 2230 00d4 0520A0E1 		mov	r2, r5
 2231 00d8 0500A0E1 		mov	r0, r5
 2232              	.LVL249:
 2233 00dc 00708DE5 		str	r7, [sp]
 2234 00e0 FEFFFFEB 		bl	UnityAssertEqualNumber
 2235              	.LVL250:
 851:D:/Work/DeviceTester/amazon-freertos/tests/common/greengrass\aws_test_greengrass_discovery.c ****         }
 2236              		.loc 1 851 0
 2237 00e4 0F10DDE5 		ldrb	r1, [sp, #15]	@ zero_extendqisi2
 2238 00e8 533300E3 		movw	r3, #851
 2239 00ec 00708DE5 		str	r7, [sp]
 2240 00f0 0520A0E1 		mov	r2, r5
 2241 00f4 0400A0E1 		mov	r0, r4
 2242 00f8 FEFFFFEB 		bl	UnityAssertEqualNumber
 2243              	.LVL251:
 844:D:/Work/DeviceTester/amazon-freertos/tests/common/greengrass\aws_test_greengrass_discovery.c ****              ulI < strlen( ggdHTTP_CONTENT_LENGTH_STRING ) - 1;
 2244              		.loc 1 844 0
 2245 00fc 0E0054E3 		cmp	r4, #14
 2246 0100 ECFFFF1A 		bne	.L124
 854:D:/Work/DeviceTester/amazon-freertos/tests/common/greengrass\aws_test_greengrass_discovery.c ****                                                        '0' ); /* Send a random character. */
 2247              		.loc 1 854 0
 2248 0104 3010A0E3 		mov	r1, #48
 2249 0108 0600A0E1 		mov	r0, r6
 2250 010c FEFFFFEB 		bl	test_prvCheckForContentLengthString
 2251              	.LVL252:
 856:D:/Work/DeviceTester/amazon-freertos/tests/common/greengrass\aws_test_greengrass_discovery.c ****         TEST_ASSERT_EQUAL_INT32( 0, ucIndex );
 2252              		.loc 1 856 0
 2253 0110 D63FA0E3 		mov	r3, #856
 2254 0114 0010A0E1 		mov	r1, r0
 2255 0118 0520A0E1 		mov	r2, r5
 2256 011c 0500A0E1 		mov	r0, r5
 2257              	.LVL253:
 2258 0120 00708DE5 		str	r7, [sp]
 2259 0124 FEFFFFEB 		bl	UnityAssertEqualNumber
 2260              	.LVL254:
 857:D:/Work/DeviceTester/amazon-freertos/tests/common/greengrass\aws_test_greengrass_discovery.c ****         /** @}*/
 2261              		.loc 1 857 0
 2262 0128 0F10DDE5 		ldrb	r1, [sp, #15]	@ zero_extendqisi2
 2263 012c 593300E3 		movw	r3, #857
 2264 0130 00708DE5 		str	r7, [sp]
 2265 0134 0520A0E1 		mov	r2, r5
 2266 0138 0500A0E1 		mov	r0, r5
 2267 013c FEFFFFEB 		bl	UnityAssertEqualNumber
 2268              	.LVL255:
 2269              	.L121:
 860:D:/Work/DeviceTester/amazon-freertos/tests/common/greengrass\aws_test_greengrass_discovery.c **** 
 2270              		.loc 1 860 0
 2271 0140 20D08DE2 		add	sp, sp, #32
 2272              		.cfi_def_cfa_offset 24
 2273              		@ sp needed
 2274 0144 F081BDE8 		pop	{r4, r5, r6, r7, r8, pc}
 2275              	.L130:
 2276              		.align	2
 2277              	.L129:
 2278 0148 00000000 		.word	.LC11
 2279 014c 28000000 		.word	Unity+40
 2280              		.cfi_endproc
 2281              	.LFE23:
 2283              		.section	.text.TEST_Full_GGD_JSONRequestGetSize_,"ax",%progbits
 2284              		.align	2
 2285              		.global	TEST_Full_GGD_JSONRequestGetSize_
 2286              		.syntax unified
 2287              		.arm
 2288              		.fpu neon
 2290              	TEST_Full_GGD_JSONRequestGetSize_:
 2291              	.LFB27:
1008:D:/Work/DeviceTester/amazon-freertos/tests/common/greengrass\aws_test_greengrass_discovery.c **** 
1009:D:/Work/DeviceTester/amazon-freertos/tests/common/greengrass\aws_test_greengrass_discovery.c **** TEST( Full_GGD, JSONRequestGetSize )
1010:D:/Work/DeviceTester/amazon-freertos/tests/common/greengrass\aws_test_greengrass_discovery.c **** {
 2292              		.loc 1 1010 0
 2293              		.cfi_startproc
 2294              		@ args = 0, pretend = 0, frame = 8
 2295              		@ frame_needed = 0, uses_anonymous_args = 0
1011:D:/Work/DeviceTester/amazon-freertos/tests/common/greengrass\aws_test_greengrass_discovery.c ****     BaseType_t xStatus;
1012:D:/Work/DeviceTester/amazon-freertos/tests/common/greengrass\aws_test_greengrass_discovery.c ****     uint32_t ulJSONFileSize;
1013:D:/Work/DeviceTester/amazon-freertos/tests/common/greengrass\aws_test_greengrass_discovery.c **** 
1014:D:/Work/DeviceTester/amazon-freertos/tests/common/greengrass\aws_test_greengrass_discovery.c ****     if( TEST_PROTECT() )
 2296              		.loc 1 1014 0
 2297 0000 C0009FE5 		ldr	r0, .L140
1010:D:/Work/DeviceTester/amazon-freertos/tests/common/greengrass\aws_test_greengrass_discovery.c ****     BaseType_t xStatus;
 2298              		.loc 1 1010 0
 2299 0004 F0402DE9 		push	{r4, r5, r6, r7, lr}
 2300              		.cfi_def_cfa_offset 20
 2301              		.cfi_offset 4, -20
 2302              		.cfi_offset 5, -16
 2303              		.cfi_offset 6, -12
 2304              		.cfi_offset 7, -8
 2305              		.cfi_offset 14, -4
 2306 0008 14D04DE2 		sub	sp, sp, #20
 2307              		.cfi_def_cfa_offset 40
 2308              		.loc 1 1014 0
 2309 000c FEFFFFEB 		bl	setjmp
 2310              	.LVL256:
 2311 0010 005050E2 		subs	r5, r0, #0
 2312 0014 2700001A 		bne	.L138
1015:D:/Work/DeviceTester/amazon-freertos/tests/common/greengrass\aws_test_greengrass_discovery.c ****     {
1016:D:/Work/DeviceTester/amazon-freertos/tests/common/greengrass\aws_test_greengrass_discovery.c ****         /** @brief Check return status and value in ideal case
1017:D:/Work/DeviceTester/amazon-freertos/tests/common/greengrass\aws_test_greengrass_discovery.c ****          *  @{
1018:D:/Work/DeviceTester/amazon-freertos/tests/common/greengrass\aws_test_greengrass_discovery.c ****          */
1019:D:/Work/DeviceTester/amazon-freertos/tests/common/greengrass\aws_test_greengrass_discovery.c ****         xStatus = GGD_JSONRequestStart( &xSocket );
 2313              		.loc 1 1019 0
 2314 0018 AC409FE5 		ldr	r4, .L140+4
1020:D:/Work/DeviceTester/amazon-freertos/tests/common/greengrass\aws_test_greengrass_discovery.c ****         TEST_ASSERT_EQUAL_INT32( pdPASS, xStatus );
 2315              		.loc 1 1020 0
 2316 001c 1460A0E3 		mov	r6, #20
1019:D:/Work/DeviceTester/amazon-freertos/tests/common/greengrass\aws_test_greengrass_discovery.c ****         TEST_ASSERT_EQUAL_INT32( pdPASS, xStatus );
 2317              		.loc 1 1019 0
 2318 0020 0400A0E1 		mov	r0, r4
 2319 0024 FEFFFFEB 		bl	GGD_JSONRequestStart
 2320              	.LVL257:
 2321              		.loc 1 1020 0
 2322 0028 FF3FA0E3 		mov	r3, #1020
 2323 002c 0520A0E1 		mov	r2, r5
 2324 0030 0010A0E1 		mov	r1, r0
 2325 0034 00608DE5 		str	r6, [sp]
 2326 0038 0100A0E3 		mov	r0, #1
 2327              	.LVL258:
 2328 003c FEFFFFEB 		bl	UnityAssertEqualNumber
 2329              	.LVL259:
1021:D:/Work/DeviceTester/amazon-freertos/tests/common/greengrass\aws_test_greengrass_discovery.c **** 
1022:D:/Work/DeviceTester/amazon-freertos/tests/common/greengrass\aws_test_greengrass_discovery.c ****         xStatus = GGD_JSONRequestGetSize( &xSocket, &ulJSONFileSize );
 2330              		.loc 1 1022 0
 2331 0040 0C108DE2 		add	r1, sp, #12
 2332 0044 0400A0E1 		mov	r0, r4
 2333 0048 FEFFFFEB 		bl	GGD_JSONRequestGetSize
 2334              	.LVL260:
1023:D:/Work/DeviceTester/amazon-freertos/tests/common/greengrass\aws_test_greengrass_discovery.c ****         TEST_ASSERT_GREATER_THAN( 1000, ulJSONFileSize );
 2335              		.loc 1 1023 0
 2336 004c FF3300E3 		movw	r3, #1023
1022:D:/Work/DeviceTester/amazon-freertos/tests/common/greengrass\aws_test_greengrass_discovery.c ****         TEST_ASSERT_GREATER_THAN( 1000, ulJSONFileSize );
 2337              		.loc 1 1022 0
 2338 0050 0070A0E1 		mov	r7, r0
 2339              	.LVL261:
 2340              		.loc 1 1023 0
 2341 0054 0520A0E1 		mov	r2, r5
 2342 0058 0C109DE5 		ldr	r1, [sp, #12]
 2343 005c FA0FA0E3 		mov	r0, #1000
 2344              	.LVL262:
 2345 0060 00608DE5 		str	r6, [sp]
 2346 0064 FEFFFFEB 		bl	UnityAssertGreaterNumber
 2347              	.LVL263:
1024:D:/Work/DeviceTester/amazon-freertos/tests/common/greengrass\aws_test_greengrass_discovery.c ****         TEST_ASSERT_EQUAL_INT32( pdPASS, xStatus );
 2348              		.loc 1 1024 0
 2349 0068 0100A0E3 		mov	r0, #1
 2350 006c 00608DE5 		str	r6, [sp]
 2351 0070 013BA0E3 		mov	r3, #1024
 2352 0074 0520A0E1 		mov	r2, r5
 2353 0078 0710A0E1 		mov	r1, r7
 2354 007c FEFFFFEB 		bl	UnityAssertEqualNumber
 2355              	.LVL264:
1025:D:/Work/DeviceTester/amazon-freertos/tests/common/greengrass\aws_test_greengrass_discovery.c ****         GGD_SecureConnect_Disconnect( &xSocket );
 2356              		.loc 1 1025 0
 2357 0080 0400A0E1 		mov	r0, r4
 2358 0084 FEFFFFEB 		bl	GGD_SecureConnect_Disconnect
 2359              	.LVL265:
 2360              	.L134:
1026:D:/Work/DeviceTester/amazon-freertos/tests/common/greengrass\aws_test_greengrass_discovery.c ****         /* Check no disconnect after a pass. */
1027:D:/Work/DeviceTester/amazon-freertos/tests/common/greengrass\aws_test_greengrass_discovery.c ****         /** @}*/
1028:D:/Work/DeviceTester/amazon-freertos/tests/common/greengrass\aws_test_greengrass_discovery.c ****     }
1029:D:/Work/DeviceTester/amazon-freertos/tests/common/greengrass\aws_test_greengrass_discovery.c ****     else
1030:D:/Work/DeviceTester/amazon-freertos/tests/common/greengrass\aws_test_greengrass_discovery.c ****     {
1031:D:/Work/DeviceTester/amazon-freertos/tests/common/greengrass\aws_test_greengrass_discovery.c ****         TEST_FAIL();
1032:D:/Work/DeviceTester/amazon-freertos/tests/common/greengrass\aws_test_greengrass_discovery.c ****     }
1033:D:/Work/DeviceTester/amazon-freertos/tests/common/greengrass\aws_test_greengrass_discovery.c **** 
1034:D:/Work/DeviceTester/amazon-freertos/tests/common/greengrass\aws_test_greengrass_discovery.c ****     /** @brief Check Statility by passing in NULL pointers
1035:D:/Work/DeviceTester/amazon-freertos/tests/common/greengrass\aws_test_greengrass_discovery.c ****      *  @{
1036:D:/Work/DeviceTester/amazon-freertos/tests/common/greengrass\aws_test_greengrass_discovery.c ****      */
1037:D:/Work/DeviceTester/amazon-freertos/tests/common/greengrass\aws_test_greengrass_discovery.c ****     if( TEST_PROTECT() )
 2361              		.loc 1 1037 0
 2362 0088 38009FE5 		ldr	r0, .L140
 2363 008c FEFFFFEB 		bl	setjmp
 2364              	.LVL266:
 2365 0090 004050E2 		subs	r4, r0, #0
 2366 0094 0500001A 		bne	.L131
1038:D:/Work/DeviceTester/amazon-freertos/tests/common/greengrass\aws_test_greengrass_discovery.c ****     {
1039:D:/Work/DeviceTester/amazon-freertos/tests/common/greengrass\aws_test_greengrass_discovery.c ****         xStatus = GGD_JSONRequestGetSize( &xSocket, NULL );
 2367              		.loc 1 1039 0
 2368 0098 0410A0E1 		mov	r1, r4
 2369 009c 28009FE5 		ldr	r0, .L140+4
 2370 00a0 FEFFFFEB 		bl	GGD_JSONRequestGetSize
 2371              	.LVL267:
1040:D:/Work/DeviceTester/amazon-freertos/tests/common/greengrass\aws_test_greengrass_discovery.c ****         TEST_FAIL();
 2372              		.loc 1 1040 0
 2373 00a4 411EA0E3 		mov	r1, #1040
 2374 00a8 0400A0E1 		mov	r0, r4
 2375 00ac FEFFFFEB 		bl	UnityFail
 2376              	.LVL268:
 2377              	.L131:
1041:D:/Work/DeviceTester/amazon-freertos/tests/common/greengrass\aws_test_greengrass_discovery.c ****     }
1042:D:/Work/DeviceTester/amazon-freertos/tests/common/greengrass\aws_test_greengrass_discovery.c **** 
1043:D:/Work/DeviceTester/amazon-freertos/tests/common/greengrass\aws_test_greengrass_discovery.c ****     /** @}*/
1044:D:/Work/DeviceTester/amazon-freertos/tests/common/greengrass\aws_test_greengrass_discovery.c **** }
 2378              		.loc 1 1044 0
 2379 00b0 14D08DE2 		add	sp, sp, #20
 2380              		.cfi_remember_state
 2381              		.cfi_def_cfa_offset 20
 2382              		@ sp needed
 2383 00b4 F080BDE8 		pop	{r4, r5, r6, r7, pc}
 2384              	.L138:
 2385              		.cfi_restore_state
1031:D:/Work/DeviceTester/amazon-freertos/tests/common/greengrass\aws_test_greengrass_discovery.c ****     }
 2386              		.loc 1 1031 0
 2387 00b8 071400E3 		movw	r1, #1031
 2388 00bc 0000A0E3 		mov	r0, #0
 2389 00c0 FEFFFFEB 		bl	UnityFail
 2390              	.LVL269:
 2391 00c4 EFFFFFEA 		b	.L134
 2392              	.L141:
 2393              		.align	2
 2394              	.L140:
 2395 00c8 28000000 		.word	Unity+40
 2396 00cc 00000000 		.word	.LANCHOR0
 2397              		.cfi_endproc
 2398              	.LFE27:
 2400              		.section	.text.TEST_Full_GGD_JSONRequestStart_,"ax",%progbits
 2401              		.align	2
 2402              		.global	TEST_Full_GGD_JSONRequestStart_
 2403              		.syntax unified
 2404              		.arm
 2405              		.fpu neon
 2407              	TEST_Full_GGD_JSONRequestStart_:
 2408              	.LFB29:
1045:D:/Work/DeviceTester/amazon-freertos/tests/common/greengrass\aws_test_greengrass_discovery.c **** 
1046:D:/Work/DeviceTester/amazon-freertos/tests/common/greengrass\aws_test_greengrass_discovery.c **** TEST( Full_GGD, JSONRequestStart )
1047:D:/Work/DeviceTester/amazon-freertos/tests/common/greengrass\aws_test_greengrass_discovery.c **** {
 2409              		.loc 1 1047 0
 2410              		.cfi_startproc
 2411              		@ args = 0, pretend = 0, frame = 0
 2412              		@ frame_needed = 0, uses_anonymous_args = 0
 2413 0000 37402DE9 		push	{r0, r1, r2, r4, r5, lr}
 2414              		.cfi_def_cfa_offset 24
 2415              		.cfi_offset 4, -12
 2416              		.cfi_offset 5, -8
 2417              		.cfi_offset 14, -4
1048:D:/Work/DeviceTester/amazon-freertos/tests/common/greengrass\aws_test_greengrass_discovery.c ****     BaseType_t xStatus;
1049:D:/Work/DeviceTester/amazon-freertos/tests/common/greengrass\aws_test_greengrass_discovery.c **** 
1050:D:/Work/DeviceTester/amazon-freertos/tests/common/greengrass\aws_test_greengrass_discovery.c ****     if( TEST_PROTECT() )
 2418              		.loc 1 1050 0
 2419 0004 70009FE5 		ldr	r0, .L151
 2420 0008 FEFFFFEB 		bl	setjmp
 2421              	.LVL270:
 2422 000c 005050E2 		subs	r5, r0, #0
 2423 0010 1500001A 		bne	.L149
1051:D:/Work/DeviceTester/amazon-freertos/tests/common/greengrass\aws_test_greengrass_discovery.c ****     {
1052:D:/Work/DeviceTester/amazon-freertos/tests/common/greengrass\aws_test_greengrass_discovery.c ****         /** @brief Check return status and value in ideal case
1053:D:/Work/DeviceTester/amazon-freertos/tests/common/greengrass\aws_test_greengrass_discovery.c ****          *  @{
1054:D:/Work/DeviceTester/amazon-freertos/tests/common/greengrass\aws_test_greengrass_discovery.c ****          */
1055:D:/Work/DeviceTester/amazon-freertos/tests/common/greengrass\aws_test_greengrass_discovery.c ****         xStatus = GGD_JSONRequestStart( &xSocket );
 2424              		.loc 1 1055 0
 2425 0014 64409FE5 		ldr	r4, .L151+4
 2426 0018 0400A0E1 		mov	r0, r4
 2427 001c FEFFFFEB 		bl	GGD_JSONRequestStart
 2428              	.LVL271:
1056:D:/Work/DeviceTester/amazon-freertos/tests/common/greengrass\aws_test_greengrass_discovery.c ****         TEST_ASSERT_EQUAL_INT32( pdPASS, xStatus );
 2429              		.loc 1 1056 0
 2430 0020 1430A0E3 		mov	r3, #20
 2431 0024 0010A0E1 		mov	r1, r0
 2432 0028 00308DE5 		str	r3, [sp]
 2433 002c 0100A0E3 		mov	r0, #1
 2434              	.LVL272:
 2435 0030 423EA0E3 		mov	r3, #1056
 2436 0034 0520A0E1 		mov	r2, r5
 2437 0038 FEFFFFEB 		bl	UnityAssertEqualNumber
 2438              	.LVL273:
1057:D:/Work/DeviceTester/amazon-freertos/tests/common/greengrass\aws_test_greengrass_discovery.c ****         GGD_SecureConnect_Disconnect( &xSocket );
 2439              		.loc 1 1057 0
 2440 003c 0400A0E1 		mov	r0, r4
 2441 0040 FEFFFFEB 		bl	GGD_SecureConnect_Disconnect
 2442              	.LVL274:
 2443              	.L145:
1058:D:/Work/DeviceTester/amazon-freertos/tests/common/greengrass\aws_test_greengrass_discovery.c ****         /** @}*/
1059:D:/Work/DeviceTester/amazon-freertos/tests/common/greengrass\aws_test_greengrass_discovery.c ****     }
1060:D:/Work/DeviceTester/amazon-freertos/tests/common/greengrass\aws_test_greengrass_discovery.c ****     else
1061:D:/Work/DeviceTester/amazon-freertos/tests/common/greengrass\aws_test_greengrass_discovery.c ****     {
1062:D:/Work/DeviceTester/amazon-freertos/tests/common/greengrass\aws_test_greengrass_discovery.c ****         TEST_FAIL();
1063:D:/Work/DeviceTester/amazon-freertos/tests/common/greengrass\aws_test_greengrass_discovery.c ****     }
1064:D:/Work/DeviceTester/amazon-freertos/tests/common/greengrass\aws_test_greengrass_discovery.c **** 
1065:D:/Work/DeviceTester/amazon-freertos/tests/common/greengrass\aws_test_greengrass_discovery.c ****     /** @brief Check Statility by passing in NULL pointers
1066:D:/Work/DeviceTester/amazon-freertos/tests/common/greengrass\aws_test_greengrass_discovery.c ****      *  @{
1067:D:/Work/DeviceTester/amazon-freertos/tests/common/greengrass\aws_test_greengrass_discovery.c ****      */
1068:D:/Work/DeviceTester/amazon-freertos/tests/common/greengrass\aws_test_greengrass_discovery.c ****     if( TEST_PROTECT() )
 2444              		.loc 1 1068 0
 2445 0044 30009FE5 		ldr	r0, .L151
 2446 0048 FEFFFFEB 		bl	setjmp
 2447              	.LVL275:
 2448 004c 004050E2 		subs	r4, r0, #0
 2449 0050 0300001A 		bne	.L142
1069:D:/Work/DeviceTester/amazon-freertos/tests/common/greengrass\aws_test_greengrass_discovery.c ****     {
1070:D:/Work/DeviceTester/amazon-freertos/tests/common/greengrass\aws_test_greengrass_discovery.c ****         xStatus = GGD_JSONRequestStart( NULL );
 2450              		.loc 1 1070 0
 2451 0054 FEFFFFEB 		bl	GGD_JSONRequestStart
 2452              	.LVL276:
1071:D:/Work/DeviceTester/amazon-freertos/tests/common/greengrass\aws_test_greengrass_discovery.c ****         TEST_FAIL();
 2453              		.loc 1 1071 0
 2454 0058 2F1400E3 		movw	r1, #1071
 2455 005c 0400A0E1 		mov	r0, r4
 2456 0060 FEFFFFEB 		bl	UnityFail
 2457              	.LVL277:
 2458              	.L142:
1072:D:/Work/DeviceTester/amazon-freertos/tests/common/greengrass\aws_test_greengrass_discovery.c ****     }
1073:D:/Work/DeviceTester/amazon-freertos/tests/common/greengrass\aws_test_greengrass_discovery.c **** 
1074:D:/Work/DeviceTester/amazon-freertos/tests/common/greengrass\aws_test_greengrass_discovery.c ****     /** @}*/
1075:D:/Work/DeviceTester/amazon-freertos/tests/common/greengrass\aws_test_greengrass_discovery.c **** }
 2459              		.loc 1 1075 0
 2460 0064 0CD08DE2 		add	sp, sp, #12
 2461              		.cfi_remember_state
 2462              		.cfi_def_cfa_offset 12
 2463              		@ sp needed
 2464 0068 3080BDE8 		pop	{r4, r5, pc}
 2465              	.L149:
 2466              		.cfi_restore_state
1062:D:/Work/DeviceTester/amazon-freertos/tests/common/greengrass\aws_test_greengrass_discovery.c ****     }
 2467              		.loc 1 1062 0
 2468 006c 261400E3 		movw	r1, #1062
 2469 0070 0000A0E3 		mov	r0, #0
 2470 0074 FEFFFFEB 		bl	UnityFail
 2471              	.LVL278:
 2472 0078 F1FFFFEA 		b	.L145
 2473              	.L152:
 2474              		.align	2
 2475              	.L151:
 2476 007c 28000000 		.word	Unity+40
 2477 0080 00000000 		.word	.LANCHOR0
 2478              		.cfi_endproc
 2479              	.LFE29:
 2481              		.section	.text.TEST_Full_GGD_JSONRequestAbort_run,"ax",%progbits
 2482              		.align	2
 2483              		.global	TEST_Full_GGD_JSONRequestAbort_run
 2484              		.syntax unified
 2485              		.arm
 2486              		.fpu neon
 2488              	TEST_Full_GGD_JSONRequestAbort_run:
 2489              	.LFB4:
  97:D:/Work/DeviceTester/amazon-freertos/tests/common/greengrass\aws_test_greengrass_discovery.c **** {
 2490              		.loc 1 97 0
 2491              		.cfi_startproc
 2492              		@ args = 0, pretend = 0, frame = 0
 2493              		@ frame_needed = 0, uses_anonymous_args = 0
 2494 0000 1F402DE9 		push	{r0, r1, r2, r3, r4, lr}
 2495              		.cfi_def_cfa_offset 24
 2496              		.cfi_offset 14, -4
  97:D:/Work/DeviceTester/amazon-freertos/tests/common/greengrass\aws_test_greengrass_discovery.c **** {
 2497              		.loc 1 97 0
 2498 0004 6130A0E3 		mov	r3, #97
 2499 0008 0C308DE5 		str	r3, [sp, #12]
 2500 000c 2C309FE5 		ldr	r3, .L155
 2501 0010 2C209FE5 		ldr	r2, .L155+4
 2502 0014 2C109FE5 		ldr	r1, .L155+8
 2503 0018 08308DE5 		str	r3, [sp, #8]
 2504 001c 28309FE5 		ldr	r3, .L155+12
 2505 0020 28009FE5 		ldr	r0, .L155+16
 2506 0024 04308DE5 		str	r3, [sp, #4]
 2507 0028 24309FE5 		ldr	r3, .L155+20
 2508 002c 00308DE5 		str	r3, [sp]
 2509 0030 20309FE5 		ldr	r3, .L155+24
 2510 0034 FEFFFFEB 		bl	UnityTestRunner
 2511              	.LVL279:
 2512 0038 14D08DE2 		add	sp, sp, #20
 2513              		.cfi_def_cfa_offset 4
 2514              		@ sp needed
 2515 003c 04F09DE4 		ldr	pc, [sp], #4
 2516              	.L156:
 2517              		.align	2
 2518              	.L155:
 2519 0040 21000000 		.word	.LC13
 2520 0044 00000000 		.word	TEST_Full_GGD_TEAR_DOWN
 2521 0048 00000000 		.word	TEST_Full_GGD_JSONRequestAbort_
 2522 004c 7E000000 		.word	.LC14
 2523 0050 00000000 		.word	TEST_Full_GGD_SETUP
 2524 0054 8F000000 		.word	.LC15
 2525 0058 00000000 		.word	.LC12
 2526              		.cfi_endproc
 2527              	.LFE4:
 2529              		.section	.text.TEST_Full_GGD_prvIsIPvalid_run,"ax",%progbits
 2530              		.align	2
 2531              		.global	TEST_Full_GGD_prvIsIPvalid_run
 2532              		.syntax unified
 2533              		.arm
 2534              		.fpu neon
 2536              	TEST_Full_GGD_prvIsIPvalid_run:
 2537              	.LFB6:
 127:D:/Work/DeviceTester/amazon-freertos/tests/common/greengrass\aws_test_greengrass_discovery.c **** {
 2538              		.loc 1 127 0
 2539              		.cfi_startproc
 2540              		@ args = 0, pretend = 0, frame = 0
 2541              		@ frame_needed = 0, uses_anonymous_args = 0
 2542 0000 1F402DE9 		push	{r0, r1, r2, r3, r4, lr}
 2543              		.cfi_def_cfa_offset 24
 2544              		.cfi_offset 14, -4
 127:D:/Work/DeviceTester/amazon-freertos/tests/common/greengrass\aws_test_greengrass_discovery.c **** {
 2545              		.loc 1 127 0
 2546 0004 7F30A0E3 		mov	r3, #127
 2547 0008 0C308DE5 		str	r3, [sp, #12]
 2548 000c 2C309FE5 		ldr	r3, .L159
 2549 0010 2C209FE5 		ldr	r2, .L159+4
 2550 0014 2C109FE5 		ldr	r1, .L159+8
 2551 0018 08308DE5 		str	r3, [sp, #8]
 2552 001c 28309FE5 		ldr	r3, .L159+12
 2553 0020 28009FE5 		ldr	r0, .L159+16
 2554 0024 04308DE5 		str	r3, [sp, #4]
 2555 0028 24309FE5 		ldr	r3, .L159+20
 2556 002c 00308DE5 		str	r3, [sp]
 2557 0030 20309FE5 		ldr	r3, .L159+24
 2558 0034 FEFFFFEB 		bl	UnityTestRunner
 2559              	.LVL280:
 2560 0038 14D08DE2 		add	sp, sp, #20
 2561              		.cfi_def_cfa_offset 4
 2562              		@ sp needed
 2563 003c 04F09DE4 		ldr	pc, [sp], #4
 2564              	.L160:
 2565              		.align	2
 2566              	.L159:
 2567 0040 21000000 		.word	.LC13
 2568 0044 00000000 		.word	TEST_Full_GGD_TEAR_DOWN
 2569 0048 00000000 		.word	TEST_Full_GGD_prvIsIPvalid_
 2570 004c 1D000000 		.word	.LC17
 2571 0050 00000000 		.word	TEST_Full_GGD_SETUP
 2572 0054 8F000000 		.word	.LC15
 2573 0058 00000000 		.word	.LC16
 2574              		.cfi_endproc
 2575              	.LFE6:
 2577              		.section	.text.TEST_Full_GGD_GetGGCIPandCertificate_run,"ax",%progbits
 2578              		.align	2
 2579              		.global	TEST_Full_GGD_GetGGCIPandCertificate_run
 2580              		.syntax unified
 2581              		.arm
 2582              		.fpu neon
 2584              	TEST_Full_GGD_GetGGCIPandCertificate_run:
 2585              	.LFB8:
 154:D:/Work/DeviceTester/amazon-freertos/tests/common/greengrass\aws_test_greengrass_discovery.c **** {
 2586              		.loc 1 154 0
 2587              		.cfi_startproc
 2588              		@ args = 0, pretend = 0, frame = 0
 2589              		@ frame_needed = 0, uses_anonymous_args = 0
 2590 0000 1F402DE9 		push	{r0, r1, r2, r3, r4, lr}
 2591              		.cfi_def_cfa_offset 24
 2592              		.cfi_offset 14, -4
 154:D:/Work/DeviceTester/amazon-freertos/tests/common/greengrass\aws_test_greengrass_discovery.c **** {
 2593              		.loc 1 154 0
 2594 0004 9A30A0E3 		mov	r3, #154
 2595 0008 0C308DE5 		str	r3, [sp, #12]
 2596 000c 2C309FE5 		ldr	r3, .L163
 2597 0010 2C209FE5 		ldr	r2, .L163+4
 2598 0014 2C109FE5 		ldr	r1, .L163+8
 2599 0018 08308DE5 		str	r3, [sp, #8]
 2600 001c 28309FE5 		ldr	r3, .L163+12
 2601 0020 28009FE5 		ldr	r0, .L163+16
 2602 0024 04308DE5 		str	r3, [sp, #4]
 2603 0028 24309FE5 		ldr	r3, .L163+20
 2604 002c 00308DE5 		str	r3, [sp]
 2605 0030 20309FE5 		ldr	r3, .L163+24
 2606 0034 FEFFFFEB 		bl	UnityTestRunner
 2607              	.LVL281:
 2608 0038 14D08DE2 		add	sp, sp, #20
 2609              		.cfi_def_cfa_offset 4
 2610              		@ sp needed
 2611 003c 04F09DE4 		ldr	pc, [sp], #4
 2612              	.L164:
 2613              		.align	2
 2614              	.L163:
 2615 0040 21000000 		.word	.LC13
 2616 0044 00000000 		.word	TEST_Full_GGD_TEAR_DOWN
 2617 0048 00000000 		.word	TEST_Full_GGD_GetGGCIPandCertificate_
 2618 004c 27000000 		.word	.LC19
 2619 0050 00000000 		.word	TEST_Full_GGD_SETUP
 2620 0054 8F000000 		.word	.LC15
 2621 0058 00000000 		.word	.LC18
 2622              		.cfi_endproc
 2623              	.LFE8:
 2625              		.section	.text.TEST_Full_GGD_GetIPandCertificateFromJSON_run,"ax",%progbits
 2626              		.align	2
 2627              		.global	TEST_Full_GGD_GetIPandCertificateFromJSON_run
 2628              		.syntax unified
 2629              		.arm
 2630              		.fpu neon
 2632              	TEST_Full_GGD_GetIPandCertificateFromJSON_run:
 2633              	.LFB10:
 222:D:/Work/DeviceTester/amazon-freertos/tests/common/greengrass\aws_test_greengrass_discovery.c **** {
 2634              		.loc 1 222 0
 2635              		.cfi_startproc
 2636              		@ args = 0, pretend = 0, frame = 0
 2637              		@ frame_needed = 0, uses_anonymous_args = 0
 2638 0000 1F402DE9 		push	{r0, r1, r2, r3, r4, lr}
 2639              		.cfi_def_cfa_offset 24
 2640              		.cfi_offset 14, -4
 222:D:/Work/DeviceTester/amazon-freertos/tests/common/greengrass\aws_test_greengrass_discovery.c **** {
 2641              		.loc 1 222 0
 2642 0004 DE30A0E3 		mov	r3, #222
 2643 0008 0C308DE5 		str	r3, [sp, #12]
 2644 000c 2C309FE5 		ldr	r3, .L167
 2645 0010 2C209FE5 		ldr	r2, .L167+4
 2646 0014 2C109FE5 		ldr	r1, .L167+8
 2647 0018 08308DE5 		str	r3, [sp, #8]
 2648 001c 28309FE5 		ldr	r3, .L167+12
 2649 0020 28009FE5 		ldr	r0, .L167+16
 2650 0024 04308DE5 		str	r3, [sp, #4]
 2651 0028 24309FE5 		ldr	r3, .L167+20
 2652 002c 00308DE5 		str	r3, [sp]
 2653 0030 20309FE5 		ldr	r3, .L167+24
 2654 0034 FEFFFFEB 		bl	UnityTestRunner
 2655              	.LVL282:
 2656 0038 14D08DE2 		add	sp, sp, #20
 2657              		.cfi_def_cfa_offset 4
 2658              		@ sp needed
 2659 003c 04F09DE4 		ldr	pc, [sp], #4
 2660              	.L168:
 2661              		.align	2
 2662              	.L167:
 2663 0040 21000000 		.word	.LC13
 2664 0044 00000000 		.word	TEST_Full_GGD_TEAR_DOWN
 2665 0048 00000000 		.word	TEST_Full_GGD_GetIPandCertificateFromJSON_
 2666 004c 2C000000 		.word	.LC21
 2667 0050 00000000 		.word	TEST_Full_GGD_SETUP
 2668 0054 8F000000 		.word	.LC15
 2669 0058 00000000 		.word	.LC20
 2670              		.cfi_endproc
 2671              	.LFE10:
 2673              		.section	.text.TEST_Full_GGD_GetCore_run,"ax",%progbits
 2674              		.align	2
 2675              		.global	TEST_Full_GGD_GetCore_run
 2676              		.syntax unified
 2677              		.arm
 2678              		.fpu neon
 2680              	TEST_Full_GGD_GetCore_run:
 2681              	.LFB12:
 381:D:/Work/DeviceTester/amazon-freertos/tests/common/greengrass\aws_test_greengrass_discovery.c **** {
 2682              		.loc 1 381 0
 2683              		.cfi_startproc
 2684              		@ args = 0, pretend = 0, frame = 0
 2685              		@ frame_needed = 0, uses_anonymous_args = 0
 2686 0000 1F402DE9 		push	{r0, r1, r2, r3, r4, lr}
 2687              		.cfi_def_cfa_offset 24
 2688              		.cfi_offset 14, -4
 381:D:/Work/DeviceTester/amazon-freertos/tests/common/greengrass\aws_test_greengrass_discovery.c **** {
 2689              		.loc 1 381 0
 2690 0004 7D3100E3 		movw	r3, #381
 2691 0008 0C308DE5 		str	r3, [sp, #12]
 2692 000c 2C309FE5 		ldr	r3, .L171
 2693 0010 2C209FE5 		ldr	r2, .L171+4
 2694 0014 2C109FE5 		ldr	r1, .L171+8
 2695 0018 08308DE5 		str	r3, [sp, #8]
 2696 001c 28309FE5 		ldr	r3, .L171+12
 2697 0020 28009FE5 		ldr	r0, .L171+16
 2698 0024 04308DE5 		str	r3, [sp, #4]
 2699 0028 24309FE5 		ldr	r3, .L171+20
 2700 002c 00308DE5 		str	r3, [sp]
 2701 0030 20309FE5 		ldr	r3, .L171+24
 2702 0034 FEFFFFEB 		bl	UnityTestRunner
 2703              	.LVL283:
 2704 0038 14D08DE2 		add	sp, sp, #20
 2705              		.cfi_def_cfa_offset 4
 2706              		@ sp needed
 2707 003c 04F09DE4 		ldr	pc, [sp], #4
 2708              	.L172:
 2709              		.align	2
 2710              	.L171:
 2711 0040 21000000 		.word	.LC13
 2712 0044 00000000 		.word	TEST_Full_GGD_TEAR_DOWN
 2713 0048 00000000 		.word	TEST_Full_GGD_GetCore_
 2714 004c 18000000 		.word	.LC23
 2715 0050 00000000 		.word	TEST_Full_GGD_SETUP
 2716 0054 8F000000 		.word	.LC15
 2717 0058 00000000 		.word	.LC22
 2718              		.cfi_endproc
 2719              	.LFE12:
 2721              		.section	.text.TEST_Full_GGD_GetIPOnInterface_run,"ax",%progbits
 2722              		.align	2
 2723              		.global	TEST_Full_GGD_GetIPOnInterface_run
 2724              		.syntax unified
 2725              		.arm
 2726              		.fpu neon
 2728              	TEST_Full_GGD_GetIPOnInterface_run:
 2729              	.LFB14:
 473:D:/Work/DeviceTester/amazon-freertos/tests/common/greengrass\aws_test_greengrass_discovery.c **** {
 2730              		.loc 1 473 0
 2731              		.cfi_startproc
 2732              		@ args = 0, pretend = 0, frame = 0
 2733              		@ frame_needed = 0, uses_anonymous_args = 0
 2734 0000 1F402DE9 		push	{r0, r1, r2, r3, r4, lr}
 2735              		.cfi_def_cfa_offset 24
 2736              		.cfi_offset 14, -4
 473:D:/Work/DeviceTester/amazon-freertos/tests/common/greengrass\aws_test_greengrass_discovery.c **** {
 2737              		.loc 1 473 0
 2738 0004 D93100E3 		movw	r3, #473
 2739 0008 0C308DE5 		str	r3, [sp, #12]
 2740 000c 2C309FE5 		ldr	r3, .L175
 2741 0010 2C209FE5 		ldr	r2, .L175+4
 2742 0014 2C109FE5 		ldr	r1, .L175+8
 2743 0018 08308DE5 		str	r3, [sp, #8]
 2744 001c 28309FE5 		ldr	r3, .L175+12
 2745 0020 28009FE5 		ldr	r0, .L175+16
 2746 0024 04308DE5 		str	r3, [sp, #4]
 2747 0028 24309FE5 		ldr	r3, .L175+20
 2748 002c 00308DE5 		str	r3, [sp]
 2749 0030 20309FE5 		ldr	r3, .L175+24
 2750 0034 FEFFFFEB 		bl	UnityTestRunner
 2751              	.LVL284:
 2752 0038 14D08DE2 		add	sp, sp, #20
 2753              		.cfi_def_cfa_offset 4
 2754              		@ sp needed
 2755 003c 04F09DE4 		ldr	pc, [sp], #4
 2756              	.L176:
 2757              		.align	2
 2758              	.L175:
 2759 0040 21000000 		.word	.LC13
 2760 0044 00000000 		.word	TEST_Full_GGD_TEAR_DOWN
 2761 0048 00000000 		.word	TEST_Full_GGD_GetIPOnInterface_
 2762 004c 21000000 		.word	.LC25
 2763 0050 00000000 		.word	TEST_Full_GGD_SETUP
 2764 0054 8F000000 		.word	.LC15
 2765 0058 00000000 		.word	.LC24
 2766              		.cfi_endproc
 2767              	.LFE14:
 2769              		.section	.text.TEST_Full_GGD_GetCertificate_run,"ax",%progbits
 2770              		.align	2
 2771              		.global	TEST_Full_GGD_GetCertificate_run
 2772              		.syntax unified
 2773              		.arm
 2774              		.fpu neon
 2776              	TEST_Full_GGD_GetCertificate_run:
 2777              	.LFB16:
 571:D:/Work/DeviceTester/amazon-freertos/tests/common/greengrass\aws_test_greengrass_discovery.c **** {
 2778              		.loc 1 571 0
 2779              		.cfi_startproc
 2780              		@ args = 0, pretend = 0, frame = 0
 2781              		@ frame_needed = 0, uses_anonymous_args = 0
 2782 0000 1F402DE9 		push	{r0, r1, r2, r3, r4, lr}
 2783              		.cfi_def_cfa_offset 24
 2784              		.cfi_offset 14, -4
 571:D:/Work/DeviceTester/amazon-freertos/tests/common/greengrass\aws_test_greengrass_discovery.c **** {
 2785              		.loc 1 571 0
 2786 0004 3B3200E3 		movw	r3, #571
 2787 0008 0C308DE5 		str	r3, [sp, #12]
 2788 000c 2C309FE5 		ldr	r3, .L179
 2789 0010 2C209FE5 		ldr	r2, .L179+4
 2790 0014 2C109FE5 		ldr	r1, .L179+8
 2791 0018 08308DE5 		str	r3, [sp, #8]
 2792 001c 28309FE5 		ldr	r3, .L179+12
 2793 0020 28009FE5 		ldr	r0, .L179+16
 2794 0024 04308DE5 		str	r3, [sp, #4]
 2795 0028 24309FE5 		ldr	r3, .L179+20
 2796 002c 00308DE5 		str	r3, [sp]
 2797 0030 20309FE5 		ldr	r3, .L179+24
 2798 0034 FEFFFFEB 		bl	UnityTestRunner
 2799              	.LVL285:
 2800 0038 14D08DE2 		add	sp, sp, #20
 2801              		.cfi_def_cfa_offset 4
 2802              		@ sp needed
 2803 003c 04F09DE4 		ldr	pc, [sp], #4
 2804              	.L180:
 2805              		.align	2
 2806              	.L179:
 2807 0040 21000000 		.word	.LC13
 2808 0044 00000000 		.word	TEST_Full_GGD_TEAR_DOWN
 2809 0048 00000000 		.word	TEST_Full_GGD_GetCertificate_
 2810 004c 1F000000 		.word	.LC27
 2811 0050 00000000 		.word	TEST_Full_GGD_SETUP
 2812 0054 8F000000 		.word	.LC15
 2813 0058 00000000 		.word	.LC26
 2814              		.cfi_endproc
 2815              	.LFE16:
 2817              		.section	.text.TEST_Full_GGD_CheckMatch_run,"ax",%progbits
 2818              		.align	2
 2819              		.global	TEST_Full_GGD_CheckMatch_run
 2820              		.syntax unified
 2821              		.arm
 2822              		.fpu neon
 2824              	TEST_Full_GGD_CheckMatch_run:
 2825              	.LFB18:
 652:D:/Work/DeviceTester/amazon-freertos/tests/common/greengrass\aws_test_greengrass_discovery.c **** {
 2826              		.loc 1 652 0
 2827              		.cfi_startproc
 2828              		@ args = 0, pretend = 0, frame = 0
 2829              		@ frame_needed = 0, uses_anonymous_args = 0
 2830 0000 1F402DE9 		push	{r0, r1, r2, r3, r4, lr}
 2831              		.cfi_def_cfa_offset 24
 2832              		.cfi_offset 14, -4
 652:D:/Work/DeviceTester/amazon-freertos/tests/common/greengrass\aws_test_greengrass_discovery.c **** {
 2833              		.loc 1 652 0
 2834 0004 A33FA0E3 		mov	r3, #652
 2835 0008 0C308DE5 		str	r3, [sp, #12]
 2836 000c 2C309FE5 		ldr	r3, .L183
 2837 0010 2C209FE5 		ldr	r2, .L183+4
 2838 0014 2C109FE5 		ldr	r1, .L183+8
 2839 0018 08308DE5 		str	r3, [sp, #8]
 2840 001c 28309FE5 		ldr	r3, .L183+12
 2841 0020 28009FE5 		ldr	r0, .L183+16
 2842 0024 04308DE5 		str	r3, [sp, #4]
 2843 0028 24309FE5 		ldr	r3, .L183+20
 2844 002c 00308DE5 		str	r3, [sp]
 2845 0030 20309FE5 		ldr	r3, .L183+24
 2846 0034 FEFFFFEB 		bl	UnityTestRunner
 2847              	.LVL286:
 2848 0038 14D08DE2 		add	sp, sp, #20
 2849              		.cfi_def_cfa_offset 4
 2850              		@ sp needed
 2851 003c 04F09DE4 		ldr	pc, [sp], #4
 2852              	.L184:
 2853              		.align	2
 2854              	.L183:
 2855 0040 21000000 		.word	.LC13
 2856 0044 00000000 		.word	TEST_Full_GGD_TEAR_DOWN
 2857 0048 00000000 		.word	TEST_Full_GGD_CheckMatch_
 2858 004c 1B000000 		.word	.LC29
 2859 0050 00000000 		.word	TEST_Full_GGD_SETUP
 2860 0054 8F000000 		.word	.LC15
 2861 0058 00000000 		.word	.LC28
 2862              		.cfi_endproc
 2863              	.LFE18:
 2865              		.section	.text.TEST_Full_GGD_Jsoneq_run,"ax",%progbits
 2866              		.align	2
 2867              		.global	TEST_Full_GGD_Jsoneq_run
 2868              		.syntax unified
 2869              		.arm
 2870              		.fpu neon
 2872              	TEST_Full_GGD_Jsoneq_run:
 2873              	.LFB20:
 759:D:/Work/DeviceTester/amazon-freertos/tests/common/greengrass\aws_test_greengrass_discovery.c **** {
 2874              		.loc 1 759 0
 2875              		.cfi_startproc
 2876              		@ args = 0, pretend = 0, frame = 0
 2877              		@ frame_needed = 0, uses_anonymous_args = 0
 2878 0000 1F402DE9 		push	{r0, r1, r2, r3, r4, lr}
 2879              		.cfi_def_cfa_offset 24
 2880              		.cfi_offset 14, -4
 759:D:/Work/DeviceTester/amazon-freertos/tests/common/greengrass\aws_test_greengrass_discovery.c **** {
 2881              		.loc 1 759 0
 2882 0004 F73200E3 		movw	r3, #759
 2883 0008 0C308DE5 		str	r3, [sp, #12]
 2884 000c 2C309FE5 		ldr	r3, .L187
 2885 0010 2C209FE5 		ldr	r2, .L187+4
 2886 0014 2C109FE5 		ldr	r1, .L187+8
 2887 0018 08308DE5 		str	r3, [sp, #8]
 2888 001c 28309FE5 		ldr	r3, .L187+12
 2889 0020 28009FE5 		ldr	r0, .L187+16
 2890 0024 04308DE5 		str	r3, [sp, #4]
 2891 0028 24309FE5 		ldr	r3, .L187+20
 2892 002c 00308DE5 		str	r3, [sp]
 2893 0030 20309FE5 		ldr	r3, .L187+24
 2894 0034 FEFFFFEB 		bl	UnityTestRunner
 2895              	.LVL287:
 2896 0038 14D08DE2 		add	sp, sp, #20
 2897              		.cfi_def_cfa_offset 4
 2898              		@ sp needed
 2899 003c 04F09DE4 		ldr	pc, [sp], #4
 2900              	.L188:
 2901              		.align	2
 2902              	.L187:
 2903 0040 21000000 		.word	.LC13
 2904 0044 00000000 		.word	TEST_Full_GGD_TEAR_DOWN
 2905 0048 00000000 		.word	TEST_Full_GGD_Jsoneq_
 2906 004c 17000000 		.word	.LC31
 2907 0050 00000000 		.word	TEST_Full_GGD_SETUP
 2908 0054 8F000000 		.word	.LC15
 2909 0058 00000000 		.word	.LC30
 2910              		.cfi_endproc
 2911              	.LFE20:
 2913              		.section	.text.TEST_Full_GGD_CheckForContentLengthString_run,"ax",%progbits
 2914              		.align	2
 2915              		.global	TEST_Full_GGD_CheckForContentLengthString_run
 2916              		.syntax unified
 2917              		.arm
 2918              		.fpu neon
 2920              	TEST_Full_GGD_CheckForContentLengthString_run:
 2921              	.LFB22:
 812:D:/Work/DeviceTester/amazon-freertos/tests/common/greengrass\aws_test_greengrass_discovery.c **** {
 2922              		.loc 1 812 0
 2923              		.cfi_startproc
 2924              		@ args = 0, pretend = 0, frame = 0
 2925              		@ frame_needed = 0, uses_anonymous_args = 0
 2926 0000 1F402DE9 		push	{r0, r1, r2, r3, r4, lr}
 2927              		.cfi_def_cfa_offset 24
 2928              		.cfi_offset 14, -4
 812:D:/Work/DeviceTester/amazon-freertos/tests/common/greengrass\aws_test_greengrass_discovery.c **** {
 2929              		.loc 1 812 0
 2930 0004 CB3FA0E3 		mov	r3, #812
 2931 0008 0C308DE5 		str	r3, [sp, #12]
 2932 000c 2C309FE5 		ldr	r3, .L191
 2933 0010 2C209FE5 		ldr	r2, .L191+4
 2934 0014 2C109FE5 		ldr	r1, .L191+8
 2935 0018 08308DE5 		str	r3, [sp, #8]
 2936 001c 28309FE5 		ldr	r3, .L191+12
 2937 0020 28009FE5 		ldr	r0, .L191+16
 2938 0024 04308DE5 		str	r3, [sp, #4]
 2939 0028 24309FE5 		ldr	r3, .L191+20
 2940 002c 00308DE5 		str	r3, [sp]
 2941 0030 20309FE5 		ldr	r3, .L191+24
 2942 0034 FEFFFFEB 		bl	UnityTestRunner
 2943              	.LVL288:
 2944 0038 14D08DE2 		add	sp, sp, #20
 2945              		.cfi_def_cfa_offset 4
 2946              		@ sp needed
 2947 003c 04F09DE4 		ldr	pc, [sp], #4
 2948              	.L192:
 2949              		.align	2
 2950              	.L191:
 2951 0040 21000000 		.word	.LC13
 2952 0044 00000000 		.word	TEST_Full_GGD_TEAR_DOWN
 2953 0048 00000000 		.word	TEST_Full_GGD_CheckForContentLengthString_
 2954 004c 2C000000 		.word	.LC33
 2955 0050 00000000 		.word	TEST_Full_GGD_SETUP
 2956 0054 8F000000 		.word	.LC15
 2957 0058 00000000 		.word	.LC32
 2958              		.cfi_endproc
 2959              	.LFE22:
 2961              		.section	.text.TEST_Full_GGD_JSONRequestGetFile_run,"ax",%progbits
 2962              		.align	2
 2963              		.global	TEST_Full_GGD_JSONRequestGetFile_run
 2964              		.syntax unified
 2965              		.arm
 2966              		.fpu neon
 2968              	TEST_Full_GGD_JSONRequestGetFile_run:
 2969              	.LFB24:
 862:D:/Work/DeviceTester/amazon-freertos/tests/common/greengrass\aws_test_greengrass_discovery.c **** {
 2970              		.loc 1 862 0
 2971              		.cfi_startproc
 2972              		@ args = 0, pretend = 0, frame = 0
 2973              		@ frame_needed = 0, uses_anonymous_args = 0
 2974 0000 1F402DE9 		push	{r0, r1, r2, r3, r4, lr}
 2975              		.cfi_def_cfa_offset 24
 2976              		.cfi_offset 14, -4
 862:D:/Work/DeviceTester/amazon-freertos/tests/common/greengrass\aws_test_greengrass_discovery.c **** {
 2977              		.loc 1 862 0
 2978 0004 5E3300E3 		movw	r3, #862
 2979 0008 0C308DE5 		str	r3, [sp, #12]
 2980 000c 2C309FE5 		ldr	r3, .L195
 2981 0010 2C209FE5 		ldr	r2, .L195+4
 2982 0014 2C109FE5 		ldr	r1, .L195+8
 2983 0018 08308DE5 		str	r3, [sp, #8]
 2984 001c 28309FE5 		ldr	r3, .L195+12
 2985 0020 28009FE5 		ldr	r0, .L195+16
 2986 0024 04308DE5 		str	r3, [sp, #4]
 2987 0028 24309FE5 		ldr	r3, .L195+20
 2988 002c 00308DE5 		str	r3, [sp]
 2989 0030 20309FE5 		ldr	r3, .L195+24
 2990 0034 FEFFFFEB 		bl	UnityTestRunner
 2991              	.LVL289:
 2992 0038 14D08DE2 		add	sp, sp, #20
 2993              		.cfi_def_cfa_offset 4
 2994              		@ sp needed
 2995 003c 04F09DE4 		ldr	pc, [sp], #4
 2996              	.L196:
 2997              		.align	2
 2998              	.L195:
 2999 0040 21000000 		.word	.LC13
 3000 0044 00000000 		.word	TEST_Full_GGD_TEAR_DOWN
 3001 0048 00000000 		.word	TEST_Full_GGD_JSONRequestGetFile_
 3002 004c 23000000 		.word	.LC35
 3003 0050 00000000 		.word	TEST_Full_GGD_SETUP
 3004 0054 8F000000 		.word	.LC15
 3005 0058 00000000 		.word	.LC34
 3006              		.cfi_endproc
 3007              	.LFE24:
 3009              		.section	.text.TEST_Full_GGD_JSONRequestGetSize_run,"ax",%progbits
 3010              		.align	2
 3011              		.global	TEST_Full_GGD_JSONRequestGetSize_run
 3012              		.syntax unified
 3013              		.arm
 3014              		.fpu neon
 3016              	TEST_Full_GGD_JSONRequestGetSize_run:
 3017              	.LFB26:
1009:D:/Work/DeviceTester/amazon-freertos/tests/common/greengrass\aws_test_greengrass_discovery.c **** {
 3018              		.loc 1 1009 0
 3019              		.cfi_startproc
 3020              		@ args = 0, pretend = 0, frame = 0
 3021              		@ frame_needed = 0, uses_anonymous_args = 0
 3022 0000 1F402DE9 		push	{r0, r1, r2, r3, r4, lr}
 3023              		.cfi_def_cfa_offset 24
 3024              		.cfi_offset 14, -4
1009:D:/Work/DeviceTester/amazon-freertos/tests/common/greengrass\aws_test_greengrass_discovery.c **** {
 3025              		.loc 1 1009 0
 3026 0004 F13300E3 		movw	r3, #1009
 3027 0008 0C308DE5 		str	r3, [sp, #12]
 3028 000c 2C309FE5 		ldr	r3, .L199
 3029 0010 2C209FE5 		ldr	r2, .L199+4
 3030 0014 2C109FE5 		ldr	r1, .L199+8
 3031 0018 08308DE5 		str	r3, [sp, #8]
 3032 001c 28309FE5 		ldr	r3, .L199+12
 3033 0020 28009FE5 		ldr	r0, .L199+16
 3034 0024 04308DE5 		str	r3, [sp, #4]
 3035 0028 24309FE5 		ldr	r3, .L199+20
 3036 002c 00308DE5 		str	r3, [sp]
 3037 0030 20309FE5 		ldr	r3, .L199+24
 3038 0034 FEFFFFEB 		bl	UnityTestRunner
 3039              	.LVL290:
 3040 0038 14D08DE2 		add	sp, sp, #20
 3041              		.cfi_def_cfa_offset 4
 3042              		@ sp needed
 3043 003c 04F09DE4 		ldr	pc, [sp], #4
 3044              	.L200:
 3045              		.align	2
 3046              	.L199:
 3047 0040 21000000 		.word	.LC13
 3048 0044 00000000 		.word	TEST_Full_GGD_TEAR_DOWN
 3049 0048 00000000 		.word	TEST_Full_GGD_JSONRequestGetSize_
 3050 004c 23000000 		.word	.LC37
 3051 0050 00000000 		.word	TEST_Full_GGD_SETUP
 3052 0054 8F000000 		.word	.LC15
 3053 0058 00000000 		.word	.LC36
 3054              		.cfi_endproc
 3055              	.LFE26:
 3057              		.section	.text.TEST_Full_GGD_JSONRequestStart_run,"ax",%progbits
 3058              		.align	2
 3059              		.global	TEST_Full_GGD_JSONRequestStart_run
 3060              		.syntax unified
 3061              		.arm
 3062              		.fpu neon
 3064              	TEST_Full_GGD_JSONRequestStart_run:
 3065              	.LFB28:
1046:D:/Work/DeviceTester/amazon-freertos/tests/common/greengrass\aws_test_greengrass_discovery.c **** {
 3066              		.loc 1 1046 0
 3067              		.cfi_startproc
 3068              		@ args = 0, pretend = 0, frame = 0
 3069              		@ frame_needed = 0, uses_anonymous_args = 0
 3070 0000 1F402DE9 		push	{r0, r1, r2, r3, r4, lr}
 3071              		.cfi_def_cfa_offset 24
 3072              		.cfi_offset 14, -4
1046:D:/Work/DeviceTester/amazon-freertos/tests/common/greengrass\aws_test_greengrass_discovery.c **** {
 3073              		.loc 1 1046 0
 3074 0004 163400E3 		movw	r3, #1046
 3075 0008 0C308DE5 		str	r3, [sp, #12]
 3076 000c 2C309FE5 		ldr	r3, .L203
 3077 0010 2C209FE5 		ldr	r2, .L203+4
 3078 0014 2C109FE5 		ldr	r1, .L203+8
 3079 0018 08308DE5 		str	r3, [sp, #8]
 3080 001c 28309FE5 		ldr	r3, .L203+12
 3081 0020 28009FE5 		ldr	r0, .L203+16
 3082 0024 04308DE5 		str	r3, [sp, #4]
 3083 0028 24309FE5 		ldr	r3, .L203+20
 3084 002c 00308DE5 		str	r3, [sp]
 3085 0030 20309FE5 		ldr	r3, .L203+24
 3086 0034 FEFFFFEB 		bl	UnityTestRunner
 3087              	.LVL291:
 3088 0038 14D08DE2 		add	sp, sp, #20
 3089              		.cfi_def_cfa_offset 4
 3090              		@ sp needed
 3091 003c 04F09DE4 		ldr	pc, [sp], #4
 3092              	.L204:
 3093              		.align	2
 3094              	.L203:
 3095 0040 21000000 		.word	.LC13
 3096 0044 00000000 		.word	TEST_Full_GGD_TEAR_DOWN
 3097 0048 00000000 		.word	TEST_Full_GGD_JSONRequestStart_
 3098 004c 21000000 		.word	.LC39
 3099 0050 00000000 		.word	TEST_Full_GGD_SETUP
 3100 0054 8F000000 		.word	.LC15
 3101 0058 00000000 		.word	.LC38
 3102              		.cfi_endproc
 3103              	.LFE28:
 3105              		.section	.text.TEST_Full_GGD_GROUP_RUNNER,"ax",%progbits
 3106              		.align	2
 3107              		.global	TEST_Full_GGD_GROUP_RUNNER
 3108              		.syntax unified
 3109              		.arm
 3110              		.fpu neon
 3112              	TEST_Full_GGD_GROUP_RUNNER:
 3113              	.LFB3:
  81:D:/Work/DeviceTester/amazon-freertos/tests/common/greengrass\aws_test_greengrass_discovery.c ****     RUN_TEST_CASE( Full_GGD, JSONRequestStart );
 3114              		.loc 1 81 0
 3115              		.cfi_startproc
 3116              		@ args = 0, pretend = 0, frame = 0
 3117              		@ frame_needed = 0, uses_anonymous_args = 0
 3118 0000 10402DE9 		push	{r4, lr}
 3119              		.cfi_def_cfa_offset 8
 3120              		.cfi_offset 4, -8
 3121              		.cfi_offset 14, -4
 3122              	.LBB2:
  82:D:/Work/DeviceTester/amazon-freertos/tests/common/greengrass\aws_test_greengrass_discovery.c ****     RUN_TEST_CASE( Full_GGD, JSONRequestAbort );
 3123              		.loc 1 82 0
 3124 0004 FEFFFFEB 		bl	TEST_Full_GGD_JSONRequestStart_run
 3125              	.LVL292:
 3126              	.LBE2:
 3127              	.LBB3:
  83:D:/Work/DeviceTester/amazon-freertos/tests/common/greengrass\aws_test_greengrass_discovery.c ****     RUN_TEST_CASE( Full_GGD, GetIPandCertificateFromJSON );
 3128              		.loc 1 83 0
 3129 0008 FEFFFFEB 		bl	TEST_Full_GGD_JSONRequestAbort_run
 3130              	.LVL293:
 3131              	.LBE3:
 3132              	.LBB4:
  84:D:/Work/DeviceTester/amazon-freertos/tests/common/greengrass\aws_test_greengrass_discovery.c ****     RUN_TEST_CASE( Full_GGD, GetIPOnInterface );
 3133              		.loc 1 84 0
 3134 000c FEFFFFEB 		bl	TEST_Full_GGD_GetIPandCertificateFromJSON_run
 3135              	.LVL294:
 3136              	.LBE4:
 3137              	.LBB5:
  85:D:/Work/DeviceTester/amazon-freertos/tests/common/greengrass\aws_test_greengrass_discovery.c ****     RUN_TEST_CASE( Full_GGD, JSONRequestGetSize );
 3138              		.loc 1 85 0
 3139 0010 FEFFFFEB 		bl	TEST_Full_GGD_GetIPOnInterface_run
 3140              	.LVL295:
 3141              	.LBE5:
 3142              	.LBB6:
  86:D:/Work/DeviceTester/amazon-freertos/tests/common/greengrass\aws_test_greengrass_discovery.c ****     RUN_TEST_CASE( Full_GGD, JSONRequestGetFile );
 3143              		.loc 1 86 0
 3144 0014 FEFFFFEB 		bl	TEST_Full_GGD_JSONRequestGetSize_run
 3145              	.LVL296:
 3146              	.LBE6:
 3147              	.LBB7:
  87:D:/Work/DeviceTester/amazon-freertos/tests/common/greengrass\aws_test_greengrass_discovery.c ****     RUN_TEST_CASE( Full_GGD, CheckForContentLengthString );
 3148              		.loc 1 87 0
 3149 0018 FEFFFFEB 		bl	TEST_Full_GGD_JSONRequestGetFile_run
 3150              	.LVL297:
 3151              	.LBE7:
 3152              	.LBB8:
  88:D:/Work/DeviceTester/amazon-freertos/tests/common/greengrass\aws_test_greengrass_discovery.c ****     RUN_TEST_CASE( Full_GGD, Jsoneq );
 3153              		.loc 1 88 0
 3154 001c FEFFFFEB 		bl	TEST_Full_GGD_CheckForContentLengthString_run
 3155              	.LVL298:
 3156              	.LBE8:
 3157              	.LBB9:
  89:D:/Work/DeviceTester/amazon-freertos/tests/common/greengrass\aws_test_greengrass_discovery.c ****     RUN_TEST_CASE( Full_GGD, CheckMatch );
 3158              		.loc 1 89 0
 3159 0020 FEFFFFEB 		bl	TEST_Full_GGD_Jsoneq_run
 3160              	.LVL299:
 3161              	.LBE9:
 3162              	.LBB10:
  90:D:/Work/DeviceTester/amazon-freertos/tests/common/greengrass\aws_test_greengrass_discovery.c ****     RUN_TEST_CASE( Full_GGD, GetCertificate );
 3163              		.loc 1 90 0
 3164 0024 FEFFFFEB 		bl	TEST_Full_GGD_CheckMatch_run
 3165              	.LVL300:
 3166              	.LBE10:
 3167              	.LBB11:
  91:D:/Work/DeviceTester/amazon-freertos/tests/common/greengrass\aws_test_greengrass_discovery.c ****     RUN_TEST_CASE( Full_GGD, GetCore );
 3168              		.loc 1 91 0
 3169 0028 FEFFFFEB 		bl	TEST_Full_GGD_GetCertificate_run
 3170              	.LVL301:
 3171              	.LBE11:
 3172              	.LBB12:
  92:D:/Work/DeviceTester/amazon-freertos/tests/common/greengrass\aws_test_greengrass_discovery.c ****     RUN_TEST_CASE( Full_GGD, prvIsIPvalid );
 3173              		.loc 1 92 0
 3174 002c FEFFFFEB 		bl	TEST_Full_GGD_GetCore_run
 3175              	.LVL302:
 3176              	.LBE12:
 3177              	.LBB13:
  93:D:/Work/DeviceTester/amazon-freertos/tests/common/greengrass\aws_test_greengrass_discovery.c ****     RUN_TEST_CASE( Full_GGD, GetGGCIPandCertificate );
 3178              		.loc 1 93 0
 3179 0030 FEFFFFEB 		bl	TEST_Full_GGD_prvIsIPvalid_run
 3180              	.LVL303:
 3181              	.LBE13:
  95:D:/Work/DeviceTester/amazon-freertos/tests/common/greengrass\aws_test_greengrass_discovery.c **** 
 3182              		.loc 1 95 0
 3183 0034 1040BDE8 		pop	{r4, lr}
 3184              		.cfi_restore 14
 3185              		.cfi_restore 4
 3186              		.cfi_def_cfa_offset 0
 3187              	.LBB14:
  94:D:/Work/DeviceTester/amazon-freertos/tests/common/greengrass\aws_test_greengrass_discovery.c **** }
 3188              		.loc 1 94 0
 3189 0038 FEFFFFEA 		b	TEST_Full_GGD_GetGGCIPandCertificate_run
 3190              	.LVL304:
 3191              	.LBE14:
 3192              		.cfi_endproc
 3193              	.LFE3:
 3195              		.section	.bss.pxTok,"aw",%nobits
 3196              		.align	2
 3197              		.set	.LANCHOR7,. + 0
 3200              	pxTok:
 3201 0000 00000000 		.space	2560
 3201      00000000 
 3201      00000000 
 3201      00000000 
 3201      00000000 
 3202              		.section	.bss.xSocket,"aw",%nobits
 3203              		.align	2
 3204              		.set	.LANCHOR0,. + 0
 3207              	xSocket:
 3208 0000 00000000 		.space	4
 3209              		.section	.rodata.TEST_Full_GGD_CheckForContentLengthString_.str1.1,"aMS",%progbits,1
 3210              	.LC11:
 3211 0000 636F6E74 		.ascii	"content-length:\000"
 3211      656E742D 
 3211      6C656E67 
 3211      74683A00 
 3212              		.section	.rodata.TEST_Full_GGD_CheckForContentLengthString_run.str1.1,"aMS",%progbits,1
 3213              	.LC32:
 3214 0000 54455354 		.ascii	"TEST(Full_GGD, CheckForContentLengthString)\000"
 3214      2846756C 
 3214      6C5F4747 
 3214      442C2043 
 3214      6865636B 
 3215              	.LC33:
 3216 002c 43686563 		.ascii	"CheckForContentLengthString\000"
 3216      6B466F72 
 3216      436F6E74 
 3216      656E744C 
 3216      656E6774 
 3217              		.section	.rodata.TEST_Full_GGD_CheckMatch_.str1.1,"aMS",%progbits,1
 3218              	.LC9:
 3219 0000 47474772 		.ascii	"GGGroupId\000"
 3219      6F757049 
 3219      6400
 3220              	.LC10:
 3221 000a 72616E64 		.ascii	"randomString\000"
 3221      6F6D5374 
 3221      72696E67 
 3221      00
 3222              		.section	.rodata.TEST_Full_GGD_CheckMatch_run.str1.1,"aMS",%progbits,1
 3223              	.LC28:
 3224 0000 54455354 		.ascii	"TEST(Full_GGD, CheckMatch)\000"
 3224      2846756C 
 3224      6C5F4747 
 3224      442C2043 
 3224      6865636B 
 3225              	.LC29:
 3226 001b 43686563 		.ascii	"CheckMatch\000"
 3226      6B4D6174 
 3226      636800
 3227              		.section	.rodata.TEST_Full_GGD_GetCertificate_run.str1.1,"aMS",%progbits,1
 3228              	.LC26:
 3229 0000 54455354 		.ascii	"TEST(Full_GGD, GetCertificate)\000"
 3229      2846756C 
 3229      6C5F4747 
 3229      442C2047 
 3229      65744365 
 3230              	.LC27:
 3231 001f 47657443 		.ascii	"GetCertificate\000"
 3231      65727469 
 3231      66696361 
 3231      746500
 3232              		.section	.rodata.TEST_Full_GGD_GetCore_run.str1.1,"aMS",%progbits,1
 3233              	.LC22:
 3234 0000 54455354 		.ascii	"TEST(Full_GGD, GetCore)\000"
 3234      2846756C 
 3234      6C5F4747 
 3234      442C2047 
 3234      6574436F 
 3235              	.LC23:
 3236 0018 47657443 		.ascii	"GetCore\000"
 3236      6F726500 
 3237              		.section	.rodata.TEST_Full_GGD_GetGGCIPandCertificate_.str1.1,"aMS",%progbits,1
 3238              	.LC2:
 3239 0000 4747445F 		.ascii	"GGD_GetGGCIPandCertificate returned %d on iteration"
 3239      47657447 
 3239      47434950 
 3239      616E6443 
 3239      65727469 
 3240 0033 20256400 		.ascii	" %d\000"
 3241              	.LC3:
 3242 0037 4747445F 		.ascii	"GGD_GetGGCIPandCertificate() passed when the input "
 3242      47657447 
 3242      47434950 
 3242      616E6443 
 3242      65727469 
 3243 006a 62756666 		.ascii	"buffer was too small.\000"
 3243      65722077 
 3243      61732074 
 3243      6F6F2073 
 3243      6D616C6C 
 3244              		.section	.rodata.TEST_Full_GGD_GetGGCIPandCertificate_run.str1.1,"aMS",%progbits,1
 3245              	.LC18:
 3246 0000 54455354 		.ascii	"TEST(Full_GGD, GetGGCIPandCertificate)\000"
 3246      2846756C 
 3246      6C5F4747 
 3246      442C2047 
 3246      65744747 
 3247              	.LC19:
 3248 0027 47657447 		.ascii	"GetGGCIPandCertificate\000"
 3248      47434950 
 3248      616E6443 
 3248      65727469 
 3248      66696361 
 3249              		.section	.rodata.TEST_Full_GGD_GetIPOnInterface_run.str1.1,"aMS",%progbits,1
 3250              	.LC24:
 3251 0000 54455354 		.ascii	"TEST(Full_GGD, GetIPOnInterface)\000"
 3251      2846756C 
 3251      6C5F4747 
 3251      442C2047 
 3251      65744950 
 3252              	.LC25:
 3253 0021 47657449 		.ascii	"GetIPOnInterface\000"
 3253      504F6E49 
 3253      6E746572 
 3253      66616365 
 3253      00
 3254              		.section	.rodata.TEST_Full_GGD_GetIPandCertificateFromJSON_.str1.1,"aMS",%progbits,1
 3255              	.LC4:
 3256 0000 6D794261 		.ascii	"myBadGroupID\000"
 3256      6447726F 
 3256      75704944 
 3256      00
 3257              	.LC5:
 3258 000d 6D794261 		.ascii	"myBadCoreARN\000"
 3258      64436F72 
 3258      6541524E 
 3258      00
 3259              		.section	.rodata.TEST_Full_GGD_GetIPandCertificateFromJSON_run.str1.1,"aMS",%progbits,1
 3260              	.LC20:
 3261 0000 54455354 		.ascii	"TEST(Full_GGD, GetIPandCertificateFromJSON)\000"
 3261      2846756C 
 3261      6C5F4747 
 3261      442C2047 
 3261      65744950 
 3262              	.LC21:
 3263 002c 47657449 		.ascii	"GetIPandCertificateFromJSON\000"
 3263      50616E64 
 3263      43657274 
 3263      69666963 
 3263      61746546 
 3264              		.section	.rodata.TEST_Full_GGD_JSONRequestAbort_run.str1.1,"aMS",%progbits,1
 3265              	.LC12:
 3266 0000 54455354 		.ascii	"TEST(Full_GGD, JSONRequestAbort)\000"
 3266      2846756C 
 3266      6C5F4747 
 3266      442C204A 
 3266      534F4E52 
 3267              	.LC13:
 3268 0021 443A2F57 		.ascii	"D:/Work/DeviceTester/amazon-freertos/tests/common/g"
 3268      6F726B2F 
 3268      44657669 
 3268      63655465 
 3268      73746572 
 3269 0054 7265656E 		.ascii	"reengrass/aws_test_greengrass_discovery.c\000"
 3269      67726173 
 3269      732F6177 
 3269      735F7465 
 3269      73745F67 
 3270              	.LC14:
 3271 007e 4A534F4E 		.ascii	"JSONRequestAbort\000"
 3271      52657175 
 3271      65737441 
 3271      626F7274 
 3271      00
 3272              	.LC15:
 3273 008f 46756C6C 		.ascii	"Full_GGD\000"
 3273      5F474744 
 3273      00
 3274              		.section	.rodata.TEST_Full_GGD_JSONRequestGetFile_.str1.1,"aMS",%progbits,1
 3275              	.LC6:
 3276 0000 4747445F 		.ascii	"GGD_JSONRequestGetFile() failed to return pdPASS.\000"
 3276      4A534F4E 
 3276      52657175 
 3276      65737447 
 3276      65744669 
 3277              	.LC7:
 3278 0032 4747445F 		.ascii	"GGD_JSONRequestGetFile() return pdFALSE in xJSONFil"
 3278      4A534F4E 
 3278      52657175 
 3278      65737447 
 3278      65744669 
 3279 0065 65526574 		.ascii	"eRetrieveCompleted.\000"
 3279      72696576 
 3279      65436F6D 
 3279      706C6574 
 3279      65642E00 
 3280              	.LC8:
 3281 0079 4747445F 		.ascii	"GGD_JSONRequestGetFile() returned ulJSONFileSize th"
 3281      4A534F4E 
 3281      52657175 
 3281      65737447 
 3281      65744669 
 3282 00ac 61742069 		.ascii	"at is not ulByteRead + 1.\000"
 3282      73206E6F 
 3282      7420756C 
 3282      42797465 
 3282      52656164 
 3283              		.section	.rodata.TEST_Full_GGD_JSONRequestGetFile_run.str1.1,"aMS",%progbits,1
 3284              	.LC34:
 3285 0000 54455354 		.ascii	"TEST(Full_GGD, JSONRequestGetFile)\000"
 3285      2846756C 
 3285      6C5F4747 
 3285      442C204A 
 3285      534F4E52 
 3286              	.LC35:
 3287 0023 4A534F4E 		.ascii	"JSONRequestGetFile\000"
 3287      52657175 
 3287      65737447 
 3287      65744669 
 3287      6C6500
 3288              		.section	.rodata.TEST_Full_GGD_JSONRequestGetSize_run.str1.1,"aMS",%progbits,1
 3289              	.LC36:
 3290 0000 54455354 		.ascii	"TEST(Full_GGD, JSONRequestGetSize)\000"
 3290      2846756C 
 3290      6C5F4747 
 3290      442C204A 
 3290      534F4E52 
 3291              	.LC37:
 3292 0023 4A534F4E 		.ascii	"JSONRequestGetSize\000"
 3292      52657175 
 3292      65737447 
 3292      65745369 
 3292      7A6500
 3293              		.section	.rodata.TEST_Full_GGD_JSONRequestStart_run.str1.1,"aMS",%progbits,1
 3294              	.LC38:
 3295 0000 54455354 		.ascii	"TEST(Full_GGD, JSONRequestStart)\000"
 3295      2846756C 
 3295      6C5F4747 
 3295      442C204A 
 3295      534F4E52 
 3296              	.LC39:
 3297 0021 4A534F4E 		.ascii	"JSONRequestStart\000"
 3297      52657175 
 3297      65737453 
 3297      74617274 
 3297      00
 3298              		.section	.rodata.TEST_Full_GGD_Jsoneq_run.str1.1,"aMS",%progbits,1
 3299              	.LC30:
 3300 0000 54455354 		.ascii	"TEST(Full_GGD, Jsoneq)\000"
 3300      2846756C 
 3300      6C5F4747 
 3300      442C204A 
 3300      736F6E65 
 3301              	.LC31:
 3302 0017 4A736F6E 		.ascii	"Jsoneq\000"
 3302      657100
 3303              		.section	.rodata.TEST_Full_GGD_prvIsIPvalid_.str1.1,"aMS",%progbits,1
 3304              	.LC0:
 3305 0000 3132372E 		.ascii	"127.0.0.1\000"
 3305      302E302E 
 3305      3100
 3306              	.LC1:
 3307 000a 20457870 		.ascii	" Expected TRUE Was FALSE\000"
 3307      65637465 
 3307      64205452 
 3307      55452057 
 3307      61732046 
 3308              		.section	.rodata.TEST_Full_GGD_prvIsIPvalid_run.str1.1,"aMS",%progbits,1
 3309              	.LC16:
 3310 0000 54455354 		.ascii	"TEST(Full_GGD, prvIsIPvalid)\000"
 3310      2846756C 
 3310      6C5F4747 
 3310      442C2070 
 3310      72764973 
 3311              	.LC17:
 3312 001d 70727649 		.ascii	"prvIsIPvalid\000"
 3312      73495076 
 3312      616C6964 
 3312      00
 3313              		.section	.rodata.cCERTIFICATE,"a",%progbits
 3314              		.set	.LANCHOR6,. + 0
 3317              	cCERTIFICATE:
 3318 0000 2D2D2D2D 		.ascii	"-----BEGIN CERTIFICATE-----\012MIIEFTCCAv2gAwIBAgIV"
 3318      2D424547 
 3318      494E2043 
 3318      45525449 
 3318      46494341 
 3319 0030 41505272 		.ascii	"APRru+NqCDr0r6oD6PnTG05rWuY+MA0GCSqGSIb3DQEB\012CwU"
 3319      752B4E71 
 3319      43447230 
 3319      72366F44 
 3319      36506E54 
 3320 0060 414D4947 		.ascii	"AMIGoMQswCQYDVQQGEwJVUzEYMBYGA1UECgwPQW1hem9uLmNvbS"
 3320      6F4D5173 
 3320      77435159 
 3320      44565151 
 3320      4745774A 
 3321 0093 424A626D 		.ascii	"BJbmMuMRww\012GgYDVQQLDBNBbWF6b24gV2ViIFNlcnZpY2VzM"
 3321      4D754D52 
 3321      77770A47 
 3321      67594456 
 3321      51514C44 
 3322 00c3 524D7745 		.ascii	"RMwEQYDVQQIDApXYXNoaW5ndG9u\012MRAwDgYDVQQHDAdTZWF0"
 3322      51594456 
 3322      51514944 
 3322      41705859 
 3322      584E6F61 
 3323 00f3 6447786C 		.ascii	"dGxlMTowOAYDVQQDDDE5NDI5MjczNzY5NjU6ZDk3ZmZl\012ZmU"
 3323      4D546F77 
 3323      4F415944 
 3323      56515144 
 3323      44444535 
 3324 0123 744E5449 		.ascii	"tNTI4MS00ZWM5LTk4NDYtYjNlZTQxMDRjMjAxMCAXDTE3MDcwNj"
 3324      344D5330 
 3324      305A574D 
 3324      354C546B 
 3324      344E4459 
 3325 0156 49774D44 		.ascii	"IwMDczOFoY\012DzIwOTcwNzA2MjAwNzM3WjCBqDELMAkGA1UEB"
 3325      637A4F46 
 3325      6F590A44 
 3325      7A49774F 
 3325      5463774E 
 3326 0186 684D4356 		.ascii	"hMCVVMxGDAWBgNVBAoMD0FtYXpv\012bi5jb20gSW5jLjEcMBoG"
 3326      564D7847 
 3326      44415742 
 3326      674E5642 
 3326      416F4D44 
 3327 01b6 41315545 		.ascii	"A1UECwwTQW1hem9uIFdlYiBTZXJ2aWNlczETMBEGA1UE\012CAw"
 3327      43777754 
 3327      51573168 
 3327      656D3975 
 3327      4946646C 
 3328 01e6 4B563246 		.ascii	"KV2FzaGluZ3RvbjEQMA4GA1UEBwwHU2VhdHRsZTE6MDgGA1UEAw"
 3328      7A61476C 
 3328      755A3352 
 3328      76626A45 
 3328      514D4134 
 3329 0219 77784F54 		.ascii	"wxOTQyOTI3\012Mzc2OTY1OmQ5N2ZmZWZlLTUyODEtNGVjOS05O"
 3329      51794F54 
 3329      49330A4D 
 3329      7A63324F 
 3329      5459314F 
 3330 0249 4451324C 		.ascii	"DQ2LWIzZWU0MTA0YzIwMTCCASIw\012DQYJKoZIhvcNAQEBBQAD"
 3330      57497A5A 
 3330      5755304D 
 3330      54413059 
 3330      7A49774D 
 3331 0279 67674550 		.ascii	"ggEPADCCAQoCggEBAKxzJpXU2DZDEglh/FT01epAWby6\012p4Y"
 3331      41444343 
 3331      41516F43 
 3331      67674542 
 3331      414B787A 
 3332 02a9 6D773736 		.ascii	"mw76icyMzBUJzafibABJ3cTyjDQE6ZqbSl1ryBxGwQBsveIgj8S"
 3332      6963794D 
 3332      7A42554A 
 3332      7A616669 
 3332      6241424A 
 3333 02dc 56567476 		.ascii	"VVtv927wk7\012lncgD+EghfTZgSfscND653AJeVFQlCeHipZI3"
 3333      39323777 
 3333      6B370A6C 
 3333      6E636744 
 3333      2B456768 
 3334 030c 32777A58 		.ascii	"2wzXyPmwglFrWp9vsrY/8BO1Kjk\012SAs4o8fDVVMAaZCJDMuc"
 3334      79506D77 
 3334      676C4672 
 3334      57703976 
 3334      7372592F 
 3335 033c 35637363 		.ascii	"5csc3CQ2OJYLOl+SZisGNM1h0xHpWieM38KDDrp99x8Q\012TwD"
 3335      33435132 
 3335      4F4A594C 
 3335      4F6C2B53 
 3335      5A697347 
 3336 036c 6D67614D 		.ascii	"mgaMjtdIJR7Y9Nzm0N78gTf3gTazEO9iUKojVCNubxK/lQ6KjJ0"
 3336      6A746449 
 3336      4A523759 
 3336      394E7A6D 
 3336      304E3738 
 3337 039f 4A637673 		.ascii	"JcvsljPpVp\012uzjOmn91xmNoHEQCboa7YoYNNbdAbftGeUl16"
 3337      6C6A5070 
 3337      56700A75 
 3337      7A6A4F6D 
 3337      6E393178 
 3338 03cf 77466454 		.ascii	"wFdTgbuUS9vakk5idVoC2ECAwEA\012AaMyMDAwDwYDVR0TAQH/"
 3338      67627555 
 3338      53397661 
 3338      6B6B3569 
 3338      64566F43 
 3339 03ff 42415577 		.ascii	"BAUwAwEB/zAdBgNVHQ4EFgQUmcz4OlH9+mlpnTKG3taI\012w+6"
 3339      41774542 
 3339      2F7A4164 
 3339      42674E56 
 3339      48513445 
 3340 042f 46536B30 		.ascii	"FSk0wDQYJKoZIhvcNAQELBQADggEBACeiQ6MxiktsU0sLNmP1cN"
 3340      77445159 
 3340      4A4B6F5A 
 3340      49687663 
 3340      4E415145 
 3341 0462 62697542 		.ascii	"biuBuutjoq\012ymk476Bhr4E2WSE0B9W1TFOSLIYx9oN63T3lX"
 3341      7575746A 
 3341      6F710A79 
 3341      6D6B3437 
 3341      36426872 
 3342 0492 7A734748 		.ascii	"zsGHP/MznueIbqbwFf/o5aXI7th\012+J+i9LgBrViNvzkze7G0"
 3342      502F4D7A 
 3342      6E756549 
 3342      62716277 
 3342      46662F6F 
 3343 04c2 47695075 		.ascii	"GiPuEQ7ox4XnPBJAFtTZxa8gXL95QfcypERpQs28lg7W\012Qpd"
 3343      4551376F 
 3343      7834586E 
 3343      50424A41 
 3343      4674545A 
 3344 04f2 4E686942 		.ascii	"NhiBN+c4o1aSOzJ474sjXnjtI1G2jRTKucm0buYYeAeVT7kpBq9"
 3344      4E2B6334 
 3344      6F316153 
 3344      4F7A4A34 
 3344      3734736A 
 3345 0525 594C3767 		.ascii	"YL7gGfOcyj\012sPxQEgyQV2Mk+b1q7lYDS4tnzoRkUfNLgAtDK"
 3345      47664F63 
 3345      796A0A73 
 3345      50785145 
 3345      67795156 
 3346 0555 53683853 		.ascii	"Sh8S8iVhAR6wRR2G3aMySKrOxbg\012alghO3OqfeuTwIj9w17J"
 3346      38695668 
 3346      41523677 
 3346      52523247 
 3346      33614D79 
 3347 0585 54417959 		.ascii	"TAyYAME22RJQ6oxEJ8rHp/9PaYnOmiSkP7M=\012-----END CE"
 3347      414D4532 
 3347      32524A51 
 3347      366F7845 
 3347      4A387248 
 3348 05b5 52544946 		.ascii	"RTIFICATE-----\012\000"
 3348      49434154 
 3348      452D2D2D 
 3348      2D2D0A00 
 3349              		.section	.rodata.cIP_ADDRESS_1,"a",%progbits
 3350              		.set	.LANCHOR8,. + 0
 3353              	cIP_ADDRESS_1:
 3354 0000 34342E34 		.ascii	"44.44.44.44\000"
 3354      342E3434 
 3354      2E343400 
 3355              		.section	.rodata.cIP_ADDRESS_3,"a",%progbits
 3356              		.set	.LANCHOR5,. + 0
 3359              	cIP_ADDRESS_3:
 3360 0000 30312E32 		.ascii	"01.23.456.789\000"
 3360      332E3435 
 3360      362E3738 
 3360      3900
 3361              		.section	.rodata.cJSON_FILE,"a",%progbits
 3362              		.set	.LANCHOR2,. + 0
 3365              	cJSON_FILE:
 3366 0000 7B224747 		.ascii	"{\"GGGroups\":[{\"GGGroupId\":\"myGroupID\",\"Cores"
 3366      47726F75 
 3366      7073223A 
 3366      5B7B2247 
 3366      4747726F 
 3367 002c 223A5B7B 		.ascii	"\":[{\"thingArn\":\"myGreenGrassCoreArn\",\"Connect"
 3367      22746869 
 3367      6E674172 
 3367      6E223A22 
 3367      6D794772 
 3368 0059 69766974 		.ascii	"ivity\":[{\"Id\":\"AUTOIP_10.60.212.138_0\",\"HostA"
 3368      79223A5B 
 3368      7B224964 
 3368      223A2241 
 3368      55544F49 
 3369 0086 64647265 		.ascii	"ddress\":\"44.44.44.44\",\"PortNumber\":1234,\"Meta"
 3369      7373223A 
 3369      2234342E 
 3369      34342E34 
 3369      342E3434 
 3370 00b3 64617461 		.ascii	"data\":\"\"},{\"Id\":\"AUTOIP_127.0.0.1_1\",\"HostA"
 3370      223A2222 
 3370      7D2C7B22 
 3370      4964223A 
 3370      22415554 
 3371 00de 64647265 		.ascii	"ddress\":\"127.0.0.1\",\"PortNumber\":8883,\"Metada"
 3371      7373223A 
 3371      22313237 
 3371      2E302E30 
 3371      2E31222C 
 3372 010b 7461223A 		.ascii	"ta\":\"\"},{\"Id\":\"AUTOIP_192.168.2.2_2\",\"HostA"
 3372      22227D2C 
 3372      7B224964 
 3372      223A2241 
 3372      55544F49 
 3373 0136 64647265 		.ascii	"ddress\":\"01.23.456.789\",\"PortNumber\":4321,\"Me"
 3373      7373223A 
 3373      2230312E 
 3373      32332E34 
 3373      35362E37 
 3374 0163 74616461 		.ascii	"tadata\":\"\"},{\"Id\":\"AUTOIP_::1_3\",\"HostAddre"
 3374      7461223A 
 3374      22227D2C 
 3374      7B224964 
 3374      223A2241 
 3375 018e 7373223A 		.ascii	"ss\":\"::1\",\"PortNumber\":8883,\"Metadata\":\"\"}"
 3375      223A3A31 
 3375      222C2250 
 3375      6F72744E 
 3375      756D6265 
 3376 01b8 2C7B2249 		.ascii	",{\"Id\":\"AUTOIP_fe80::bfda:8f62:7b4b:f358_4\",\"H"
 3376      64223A22 
 3376      4155544F 
 3376      49505F66 
 3376      6538303A 
 3377 01e6 6F737441 		.ascii	"ostAddress\":\"fe80::bfda:8f62:7b4b:f358\",\"PortNu"
 3377      64647265 
 3377      7373223A 
 3377      22666538 
 3377      303A3A62 
 3378 0215 6D626572 		.ascii	"mber\":8883,\"Metadata\":\"\"},{\"Id\":\"AUTOIP_fe8"
 3378      223A3838 
 3378      38332C22 
 3378      4D657461 
 3378      64617461 
 3379 0240 303A3A65 		.ascii	"0::e234:cff9:f53f:6216_5\",\"HostAddress\":\"fe80::"
 3379      3233343A 
 3379      63666639 
 3379      3A663533 
 3379      663A3632 
 3380 026f 65323334 		.ascii	"e234:cff9:f53f:6216\",\"PortNumber\":8883,\"Metadat"
 3380      3A636666 
 3380      393A6635 
 3380      33663A36 
 3380      32313622 
 3381 029e 61223A22 		.ascii	"a\":\"\"}]}],\"CAs\":[\"-----BEGIN CERTIFICATE-----"
 3381      227D5D7D 
 3381      5D2C2243 
 3381      4173223A 
 3381      5B222D2D 
 3382 02cb 5C6E4D49 		.ascii	"\\nMIIEFTCCAv2gAwIBAgIVAPRru+NqCDr0r6oD6PnTG05rWuY+"
 3382      49454654 
 3382      43434176 
 3382      32674177 
 3382      49424167 
 3383 02fd 4D413047 		.ascii	"MA0GCSqGSIb3DQEB\\nCwUAMIGoMQswCQYDVQQGEwJVUzEYMBYG"
 3383      43537147 
 3383      53496233 
 3383      44514542 
 3383      5C6E4377 
 3384 032f 41315545 		.ascii	"A1UECgwPQW1hem9uLmNvbSBJbmMuMRww\\nGgYDVQQLDBNBbWF6"
 3384      43677750 
 3384      51573168 
 3384      656D3975 
 3384      4C6D4E76 
 3385 0361 62323467 		.ascii	"b24gV2ViIFNlcnZpY2VzMRMwEQYDVQQIDApXYXNoaW5ndG9u\\n"
 3385      56325669 
 3385      49464E6C 
 3385      636E5A70 
 3385      5932567A 
 3386 0393 4D524177 		.ascii	"MRAwDgYDVQQHDAdTZWF0dGxlMTowOAYDVQQDDDE5NDI5MjczNzY"
 3386      44675944 
 3386      56515148 
 3386      44416454 
 3386      5A574630 
 3387 03c6 354E6A55 		.ascii	"5NjU6ZDk3ZmZl\\nZmUtNTI4MS00ZWM5LTk4NDYtYjNlZTQxMDR"
 3387      365A446B 
 3387      335A6D5A 
 3387      6C5C6E5A 
 3387      6D55744E 
 3388 03f8 6A4D6A41 		.ascii	"jMjAxMCAXDTE3MDcwNjIwMDczOFoY\\nDzIwOTcwNzA2MjAwNzM"
 3388      784D4341 
 3388      58445445 
 3388      334D4463 
 3388      774E6A49 
 3389 042a 33576A43 		.ascii	"3WjCBqDELMAkGA1UEBhMCVVMxGDAWBgNVBAoMD0FtYXpv\\nbi5"
 3389      42714445 
 3389      4C4D416B 
 3389      47413155 
 3389      4542684D 
 3390 045c 6A623230 		.ascii	"jb20gSW5jLjEcMBoGA1UECwwTQW1hem9uIFdlYiBTZXJ2aWNlcz"
 3390      67535735 
 3390      6A4C6A45 
 3390      634D426F 
 3390      47413155 
 3391 048f 45544D42 		.ascii	"ETMBEGA1UE\\nCAwKV2FzaGluZ3RvbjEQMA4GA1UEBwwHU2VhdH"
 3391      45474131 
 3391      55455C6E 
 3391      4341774B 
 3391      5632467A 
 3392 04c1 52735A54 		.ascii	"RsZTE6MDgGA1UEAwwxOTQyOTI3\\nMzc2OTY1OmQ5N2ZmZWZlLT"
 3392      45364D44 
 3392      67474131 
 3392      55454177 
 3392      77784F54 
 3393 04f3 55794F44 		.ascii	"UyODEtNGVjOS05ODQ2LWIzZWU0MTA0YzIwMTCCASIw\\nDQYJKo"
 3393      45744E47 
 3393      566A4F53 
 3393      30354F44 
 3393      51324C57 
 3394 0525 5A496876 		.ascii	"ZIhvcNAQEBBQADggEPADCCAQoCggEBAKxzJpXU2DZDEglh/FT01"
 3394      634E4151 
 3394      45424251 
 3394      41446767 
 3394      45504144 
 3395 0558 65704157 		.ascii	"epAWby6\\np4Ymw76icyMzBUJzafibABJ3cTyjDQE6ZqbSl1ryB"
 3395      6279365C 
 3395      6E703459 
 3395      6D773736 
 3395      6963794D 
 3396 058a 78477751 		.ascii	"xGwQBsveIgj8SVVtv927wk7\\nlncgD+EghfTZgSfscND653AJe"
 3396      42737665 
 3396      49676A38 
 3396      53565674 
 3396      76393237 
 3397 05bc 5646516C 		.ascii	"VFQlCeHipZI32wzXyPmwglFrWp9vsrY/8BO1Kjk\\nSAs4o8fDV"
 3397      43654869 
 3397      705A4933 
 3397      32777A58 
 3397      79506D77 
 3398 05ee 564D4161 		.ascii	"VMAaZCJDMuc5csc3CQ2OJYLOl+SZisGNM1h0xHpWieM38KDDrp9"
 3398      5A434A44 
 3398      4D756335 
 3398      63736333 
 3398      4351324F 
 3399 0621 39783851 		.ascii	"9x8Q\\nTwDmgaMjtdIJR7Y9Nzm0N78gTf3gTazEO9iUKojVCNub"
 3399      5C6E5477 
 3399      446D6761 
 3399      4D6A7464 
 3399      494A5237 
 3400 0653 784B2F6C 		.ascii	"xK/lQ6KjJ0JcvsljPpVp\\nuzjOmn91xmNoHEQCboa7YoYNNbdA"
 3400      51364B6A 
 3400      4A304A63 
 3400      76736C6A 
 3400      50705670 
 3401 0685 62667447 		.ascii	"bftGeUl16wFdTgbuUS9vakk5idVoC2ECAwEA\\nAaMyMDAwDwYD"
 3401      65556C31 
 3401      36774664 
 3401      54676275 
 3401      55533976 
 3402 06b7 56523054 		.ascii	"VR0TAQH/BAUwAwEB/zAdBgNVHQ4EFgQUmcz4OlH9+mlpnTKG3ta"
 3402      4151482F 
 3402      42415577 
 3402      41774542 
 3402      2F7A4164 
 3403 06ea 495C6E77 		.ascii	"I\\nw+6FSk0wDQYJKoZIhvcNAQELBQADggEBACeiQ6MxiktsU0s"
 3403      2B364653 
 3403      6B307744 
 3403      51594A4B 
 3403      6F5A4968 
 3404 071c 4C4E6D50 		.ascii	"LNmP1cNbiuBuutjoq\\nymk476Bhr4E2WSE0B9W1TFOSLIYx9oN"
 3404      31634E62 
 3404      69754275 
 3404      75746A6F 
 3404      715C6E79 
 3405 074e 36335433 		.ascii	"63T3lXzsGHP/MznueIbqbwFf/o5aXI7th\\n+J+i9LgBrViNvzk"
 3405      6C587A73 
 3405      4748502F 
 3405      4D7A6E75 
 3405      65496271 
 3406 0780 7A653747 		.ascii	"ze7G0GiPuEQ7ox4XnPBJAFtTZxa8gXL95QfcypERpQs28lg7W\\"
 3406      30476950 
 3406      75455137 
 3406      6F783458 
 3406      6E50424A 
 3407 07b2 6E517064 		.ascii	"nQpdNhiBN+c4o1aSOzJ474sjXnjtI1"
 3407      4E686942 
 3407      4E2B6334 
 3407      6F316153 
 3407      4F7A4A34 
 3408 07d0 47326A52 		.ascii	"G2jRTKucm0buYYeAeVT7kpBq9YL7gGfOcyj\\nsPxQEgyQV2Mk+"
 3408      544B7563 
 3408      6D306275 
 3408      59596541 
 3408      65565437 
 3409 0802 62317137 		.ascii	"b1q7lYDS4tnzoRkUfNLgAtDKSh8S8iVhAR6wRR2G3aMySKrOxbg"
 3409      6C594453 
 3409      34746E7A 
 3409      6F526B55 
 3409      664E4C67 
 3410 0835 5C6E616C 		.ascii	"\\nalghO3OqfeuTwIj9w17JTAyYAME22RJQ6oxEJ8rHp/9PaYnO"
 3410      67684F33 
 3410      4F716665 
 3410      75547749 
 3410      6A397731 
 3411 0867 6D69536B 		.ascii	"miSkP7M=\\n-----END CERTIFICATE-----\\n\"]}]}\000"
 3411      50374D3D 
 3411      5C6E2D2D 
 3411      2D2D2D45 
 3411      4E442043 
 3412              		.section	.rodata.cMY_CORE_ARN,"a",%progbits
 3413              		.set	.LANCHOR3,. + 0
 3416              	cMY_CORE_ARN:
 3417 0000 6D794772 		.ascii	"myGreenGrassCoreArn\000"
 3417      65656E47 
 3417      72617373 
 3417      436F7265 
 3417      41726E00 
 3418              		.section	.rodata.cMyGroupID,"a",%progbits
 3419              		.set	.LANCHOR4,. + 0
 3422              	cMyGroupID:
 3423 0000 6D794772 		.ascii	"myGroupID\000"
 3423      6F757049 
 3423      4400
 3424              		.section	.rodata.clientcredentialMQTT_BROKER_ENDPOINT,"a",%progbits
 3425              		.set	.LANCHOR1,. + 0
 3428              	clientcredentialMQTT_BROKER_ENDPOINT:
 3429 0000 61333369 		.ascii	"a33i4lqfcxqo2.iot.ap-northeast-1.amazonaws.com\000"
 3429      346C7166 
 3429      6378716F 
 3429      322E696F 
 3429      742E6170 
 3430              		.text
 3431              	.Letext0:
 3432              		.file 2 "c:\\program files (x86)\\gnu tools arm embedded\\6 2017-q2-update\\arm-none-eabi\\include
 3433              		.file 3 "c:\\program files (x86)\\gnu tools arm embedded\\6 2017-q2-update\\lib\\gcc\\arm-none-eab
 3434              		.file 4 "c:\\program files (x86)\\gnu tools arm embedded\\6 2017-q2-update\\arm-none-eabi\\include
 3435              		.file 5 "c:\\program files (x86)\\gnu tools arm embedded\\6 2017-q2-update\\arm-none-eabi\\include
 3436              		.file 6 "c:\\program files (x86)\\gnu tools arm embedded\\6 2017-q2-update\\arm-none-eabi\\include
 3437              		.file 7 "c:\\program files (x86)\\gnu tools arm embedded\\6 2017-q2-update\\arm-none-eabi\\include
 3438              		.file 8 "c:\\program files (x86)\\gnu tools arm embedded\\6 2017-q2-update\\arm-none-eabi\\include
 3439              		.file 9 "c:\\program files (x86)\\gnu tools arm embedded\\6 2017-q2-update\\arm-none-eabi\\include
 3440              		.file 10 "D:\\Work\\DeviceTester\\amazon-freertos\\lib\\third_party\\unity\\src/unity_internals.h"
 3441              		.file 11 "D:\\Work\\DeviceTester\\amazon-freertos\\lib\\FreeRTOS\\portable\\GCC\\ARM_CA9_RZA2M/por
 3442              		.file 12 "D:\\Work\\DeviceTester\\amazon-freertos\\tests\\common\\include/aws_clientcredential_key
 3443              		.file 13 "D:\\Work\\DeviceTester\\amazon-freertos\\lib\\include/aws_secure_sockets.h"
 3444              		.file 14 "D:\\Work\\DeviceTester\\amazon-freertos\\lib\\include/aws_greengrass_discovery.h"
 3445              		.file 15 "D:\\Work\\DeviceTester\\amazon-freertos\\lib\\third_party\\jsmn/jsmn.h"
 3446              		.file 16 "c:\\program files (x86)\\gnu tools arm embedded\\6 2017-q2-update\\arm-none-eabi\\includ
 3447              		.file 17 "D:\\Work\\DeviceTester\\amazon-freertos\\lib\\third_party\\unity\\extras\\fixture\\src/u
 3448              		.file 18 "D:\\Work\\DeviceTester\\amazon-freertos\\tests\\common\\include/aws_test_runner.h"
 3449              		.file 19 "D:\\Work\\DeviceTester\\amazon-freertos\\tests\\common\\include/aws_clientcredential.h"
 3450              		.file 20 "c:\\program files (x86)\\gnu tools arm embedded\\6 2017-q2-update\\arm-none-eabi\\includ
 3451              		.file 21 "D:\\Work\\DeviceTester\\amazon-freertos\\lib\\include\\private/aws_helper_secure_connect
 3452              		.file 22 "D:\\Work\\DeviceTester\\amazon-freertos\\tests\\common\\include/aws_greengrass_discovery
 3453              		.file 23 "c:\\program files (x86)\\gnu tools arm embedded\\6 2017-q2-update\\arm-none-eabi\\includ
DEFINED SYMBOLS
                            *ABS*:00000000 aws_test_greengrass_discovery.c
C:\Users\a5089698\AppData\Local\Temp\ccdAkntz.s:17     .text.TEST_Full_GGD_SETUP:00000000 $a
C:\Users\a5089698\AppData\Local\Temp\ccdAkntz.s:23     .text.TEST_Full_GGD_SETUP:00000000 TEST_Full_GGD_SETUP
C:\Users\a5089698\AppData\Local\Temp\ccdAkntz.s:36     .text.TEST_Full_GGD_TEAR_DOWN:00000000 $a
C:\Users\a5089698\AppData\Local\Temp\ccdAkntz.s:42     .text.TEST_Full_GGD_TEAR_DOWN:00000000 TEST_Full_GGD_TEAR_DOWN
C:\Users\a5089698\AppData\Local\Temp\ccdAkntz.s:60     .text.TEST_Full_GGD_TEAR_DOWN:00000014 $d
C:\Users\a5089698\AppData\Local\Temp\ccdAkntz.s:65     .text.TEST_Full_GGD_JSONRequestAbort_:00000000 $a
C:\Users\a5089698\AppData\Local\Temp\ccdAkntz.s:71     .text.TEST_Full_GGD_JSONRequestAbort_:00000000 TEST_Full_GGD_JSONRequestAbort_
C:\Users\a5089698\AppData\Local\Temp\ccdAkntz.s:133    .text.TEST_Full_GGD_JSONRequestAbort_:0000006c $d
C:\Users\a5089698\AppData\Local\Temp\ccdAkntz.s:139    .text.TEST_Full_GGD_prvIsIPvalid_:00000000 $a
C:\Users\a5089698\AppData\Local\Temp\ccdAkntz.s:145    .text.TEST_Full_GGD_prvIsIPvalid_:00000000 TEST_Full_GGD_prvIsIPvalid_
C:\Users\a5089698\AppData\Local\Temp\ccdAkntz.s:205    .text.TEST_Full_GGD_prvIsIPvalid_:00000068 $d
C:\Users\a5089698\AppData\Local\Temp\ccdAkntz.s:213    .text.TEST_Full_GGD_GetGGCIPandCertificate_:00000000 $a
C:\Users\a5089698\AppData\Local\Temp\ccdAkntz.s:219    .text.TEST_Full_GGD_GetGGCIPandCertificate_:00000000 TEST_Full_GGD_GetGGCIPandCertificate_
C:\Users\a5089698\AppData\Local\Temp\ccdAkntz.s:355    .text.TEST_Full_GGD_GetGGCIPandCertificate_:0000010c $d
C:\Users\a5089698\AppData\Local\Temp\ccdAkntz.s:363    .text.TEST_Full_GGD_GetIPandCertificateFromJSON_:00000000 $a
C:\Users\a5089698\AppData\Local\Temp\ccdAkntz.s:369    .text.TEST_Full_GGD_GetIPandCertificateFromJSON_:00000000 TEST_Full_GGD_GetIPandCertificateFromJSON_
C:\Users\a5089698\AppData\Local\Temp\ccdAkntz.s:772    .text.TEST_Full_GGD_GetIPandCertificateFromJSON_:00000394 $d
C:\Users\a5089698\AppData\Local\Temp\ccdAkntz.s:786    .text.TEST_Full_GGD_JSONRequestGetFile_:00000000 $a
C:\Users\a5089698\AppData\Local\Temp\ccdAkntz.s:792    .text.TEST_Full_GGD_JSONRequestGetFile_:00000000 TEST_Full_GGD_JSONRequestGetFile_
C:\Users\a5089698\AppData\Local\Temp\ccdAkntz.s:1150   .text.TEST_Full_GGD_JSONRequestGetFile_:00000354 $d
C:\Users\a5089698\AppData\Local\Temp\ccdAkntz.s:1160   .text.TEST_Full_GGD_GetCore_:00000000 $a
C:\Users\a5089698\AppData\Local\Temp\ccdAkntz.s:1166   .text.TEST_Full_GGD_GetCore_:00000000 TEST_Full_GGD_GetCore_
C:\Users\a5089698\AppData\Local\Temp\ccdAkntz.s:1358   .text.TEST_Full_GGD_GetCore_:00000194 $d
C:\Users\a5089698\AppData\Local\Temp\ccdAkntz.s:1369   .text.TEST_Full_GGD_GetIPOnInterface_:00000000 $a
C:\Users\a5089698\AppData\Local\Temp\ccdAkntz.s:1375   .text.TEST_Full_GGD_GetIPOnInterface_:00000000 TEST_Full_GGD_GetIPOnInterface_
C:\Users\a5089698\AppData\Local\Temp\ccdAkntz.s:1586   .text.TEST_Full_GGD_GetIPOnInterface_:000001c8 $d
C:\Users\a5089698\AppData\Local\Temp\ccdAkntz.s:1596   .text.TEST_Full_GGD_GetCertificate_:00000000 $a
C:\Users\a5089698\AppData\Local\Temp\ccdAkntz.s:1602   .text.TEST_Full_GGD_GetCertificate_:00000000 TEST_Full_GGD_GetCertificate_
C:\Users\a5089698\AppData\Local\Temp\ccdAkntz.s:1793   .text.TEST_Full_GGD_GetCertificate_:000001b0 $d
C:\Users\a5089698\AppData\Local\Temp\ccdAkntz.s:1804   .text.TEST_Full_GGD_CheckMatch_:00000000 $a
C:\Users\a5089698\AppData\Local\Temp\ccdAkntz.s:1810   .text.TEST_Full_GGD_CheckMatch_:00000000 TEST_Full_GGD_CheckMatch_
C:\Users\a5089698\AppData\Local\Temp\ccdAkntz.s:1984   .text.TEST_Full_GGD_CheckMatch_:00000198 $d
C:\Users\a5089698\AppData\Local\Temp\ccdAkntz.s:1994   .text.TEST_Full_GGD_Jsoneq_:00000000 $a
C:\Users\a5089698\AppData\Local\Temp\ccdAkntz.s:2000   .text.TEST_Full_GGD_Jsoneq_:00000000 TEST_Full_GGD_Jsoneq_
C:\Users\a5089698\AppData\Local\Temp\ccdAkntz.s:2104   .text.TEST_Full_GGD_Jsoneq_:000000d0 $d
C:\Users\a5089698\AppData\Local\Temp\ccdAkntz.s:2111   .text.TEST_Full_GGD_CheckForContentLengthString_:00000000 $a
C:\Users\a5089698\AppData\Local\Temp\ccdAkntz.s:2117   .text.TEST_Full_GGD_CheckForContentLengthString_:00000000 TEST_Full_GGD_CheckForContentLengthString_
C:\Users\a5089698\AppData\Local\Temp\ccdAkntz.s:2278   .text.TEST_Full_GGD_CheckForContentLengthString_:00000148 $d
C:\Users\a5089698\AppData\Local\Temp\ccdAkntz.s:2284   .text.TEST_Full_GGD_JSONRequestGetSize_:00000000 $a
C:\Users\a5089698\AppData\Local\Temp\ccdAkntz.s:2290   .text.TEST_Full_GGD_JSONRequestGetSize_:00000000 TEST_Full_GGD_JSONRequestGetSize_
C:\Users\a5089698\AppData\Local\Temp\ccdAkntz.s:2395   .text.TEST_Full_GGD_JSONRequestGetSize_:000000c8 $d
C:\Users\a5089698\AppData\Local\Temp\ccdAkntz.s:2401   .text.TEST_Full_GGD_JSONRequestStart_:00000000 $a
C:\Users\a5089698\AppData\Local\Temp\ccdAkntz.s:2407   .text.TEST_Full_GGD_JSONRequestStart_:00000000 TEST_Full_GGD_JSONRequestStart_
C:\Users\a5089698\AppData\Local\Temp\ccdAkntz.s:2476   .text.TEST_Full_GGD_JSONRequestStart_:0000007c $d
C:\Users\a5089698\AppData\Local\Temp\ccdAkntz.s:2482   .text.TEST_Full_GGD_JSONRequestAbort_run:00000000 $a
C:\Users\a5089698\AppData\Local\Temp\ccdAkntz.s:2488   .text.TEST_Full_GGD_JSONRequestAbort_run:00000000 TEST_Full_GGD_JSONRequestAbort_run
C:\Users\a5089698\AppData\Local\Temp\ccdAkntz.s:2519   .text.TEST_Full_GGD_JSONRequestAbort_run:00000040 $d
C:\Users\a5089698\AppData\Local\Temp\ccdAkntz.s:2530   .text.TEST_Full_GGD_prvIsIPvalid_run:00000000 $a
C:\Users\a5089698\AppData\Local\Temp\ccdAkntz.s:2536   .text.TEST_Full_GGD_prvIsIPvalid_run:00000000 TEST_Full_GGD_prvIsIPvalid_run
C:\Users\a5089698\AppData\Local\Temp\ccdAkntz.s:2567   .text.TEST_Full_GGD_prvIsIPvalid_run:00000040 $d
C:\Users\a5089698\AppData\Local\Temp\ccdAkntz.s:2578   .text.TEST_Full_GGD_GetGGCIPandCertificate_run:00000000 $a
C:\Users\a5089698\AppData\Local\Temp\ccdAkntz.s:2584   .text.TEST_Full_GGD_GetGGCIPandCertificate_run:00000000 TEST_Full_GGD_GetGGCIPandCertificate_run
C:\Users\a5089698\AppData\Local\Temp\ccdAkntz.s:2615   .text.TEST_Full_GGD_GetGGCIPandCertificate_run:00000040 $d
C:\Users\a5089698\AppData\Local\Temp\ccdAkntz.s:2626   .text.TEST_Full_GGD_GetIPandCertificateFromJSON_run:00000000 $a
C:\Users\a5089698\AppData\Local\Temp\ccdAkntz.s:2632   .text.TEST_Full_GGD_GetIPandCertificateFromJSON_run:00000000 TEST_Full_GGD_GetIPandCertificateFromJSON_run
C:\Users\a5089698\AppData\Local\Temp\ccdAkntz.s:2663   .text.TEST_Full_GGD_GetIPandCertificateFromJSON_run:00000040 $d
C:\Users\a5089698\AppData\Local\Temp\ccdAkntz.s:2674   .text.TEST_Full_GGD_GetCore_run:00000000 $a
C:\Users\a5089698\AppData\Local\Temp\ccdAkntz.s:2680   .text.TEST_Full_GGD_GetCore_run:00000000 TEST_Full_GGD_GetCore_run
C:\Users\a5089698\AppData\Local\Temp\ccdAkntz.s:2711   .text.TEST_Full_GGD_GetCore_run:00000040 $d
C:\Users\a5089698\AppData\Local\Temp\ccdAkntz.s:2722   .text.TEST_Full_GGD_GetIPOnInterface_run:00000000 $a
C:\Users\a5089698\AppData\Local\Temp\ccdAkntz.s:2728   .text.TEST_Full_GGD_GetIPOnInterface_run:00000000 TEST_Full_GGD_GetIPOnInterface_run
C:\Users\a5089698\AppData\Local\Temp\ccdAkntz.s:2759   .text.TEST_Full_GGD_GetIPOnInterface_run:00000040 $d
C:\Users\a5089698\AppData\Local\Temp\ccdAkntz.s:2770   .text.TEST_Full_GGD_GetCertificate_run:00000000 $a
C:\Users\a5089698\AppData\Local\Temp\ccdAkntz.s:2776   .text.TEST_Full_GGD_GetCertificate_run:00000000 TEST_Full_GGD_GetCertificate_run
C:\Users\a5089698\AppData\Local\Temp\ccdAkntz.s:2807   .text.TEST_Full_GGD_GetCertificate_run:00000040 $d
C:\Users\a5089698\AppData\Local\Temp\ccdAkntz.s:2818   .text.TEST_Full_GGD_CheckMatch_run:00000000 $a
C:\Users\a5089698\AppData\Local\Temp\ccdAkntz.s:2824   .text.TEST_Full_GGD_CheckMatch_run:00000000 TEST_Full_GGD_CheckMatch_run
C:\Users\a5089698\AppData\Local\Temp\ccdAkntz.s:2855   .text.TEST_Full_GGD_CheckMatch_run:00000040 $d
C:\Users\a5089698\AppData\Local\Temp\ccdAkntz.s:2866   .text.TEST_Full_GGD_Jsoneq_run:00000000 $a
C:\Users\a5089698\AppData\Local\Temp\ccdAkntz.s:2872   .text.TEST_Full_GGD_Jsoneq_run:00000000 TEST_Full_GGD_Jsoneq_run
C:\Users\a5089698\AppData\Local\Temp\ccdAkntz.s:2903   .text.TEST_Full_GGD_Jsoneq_run:00000040 $d
C:\Users\a5089698\AppData\Local\Temp\ccdAkntz.s:2914   .text.TEST_Full_GGD_CheckForContentLengthString_run:00000000 $a
C:\Users\a5089698\AppData\Local\Temp\ccdAkntz.s:2920   .text.TEST_Full_GGD_CheckForContentLengthString_run:00000000 TEST_Full_GGD_CheckForContentLengthString_run
C:\Users\a5089698\AppData\Local\Temp\ccdAkntz.s:2951   .text.TEST_Full_GGD_CheckForContentLengthString_run:00000040 $d
C:\Users\a5089698\AppData\Local\Temp\ccdAkntz.s:2962   .text.TEST_Full_GGD_JSONRequestGetFile_run:00000000 $a
C:\Users\a5089698\AppData\Local\Temp\ccdAkntz.s:2968   .text.TEST_Full_GGD_JSONRequestGetFile_run:00000000 TEST_Full_GGD_JSONRequestGetFile_run
C:\Users\a5089698\AppData\Local\Temp\ccdAkntz.s:2999   .text.TEST_Full_GGD_JSONRequestGetFile_run:00000040 $d
C:\Users\a5089698\AppData\Local\Temp\ccdAkntz.s:3010   .text.TEST_Full_GGD_JSONRequestGetSize_run:00000000 $a
C:\Users\a5089698\AppData\Local\Temp\ccdAkntz.s:3016   .text.TEST_Full_GGD_JSONRequestGetSize_run:00000000 TEST_Full_GGD_JSONRequestGetSize_run
C:\Users\a5089698\AppData\Local\Temp\ccdAkntz.s:3047   .text.TEST_Full_GGD_JSONRequestGetSize_run:00000040 $d
C:\Users\a5089698\AppData\Local\Temp\ccdAkntz.s:3058   .text.TEST_Full_GGD_JSONRequestStart_run:00000000 $a
C:\Users\a5089698\AppData\Local\Temp\ccdAkntz.s:3064   .text.TEST_Full_GGD_JSONRequestStart_run:00000000 TEST_Full_GGD_JSONRequestStart_run
C:\Users\a5089698\AppData\Local\Temp\ccdAkntz.s:3095   .text.TEST_Full_GGD_JSONRequestStart_run:00000040 $d
C:\Users\a5089698\AppData\Local\Temp\ccdAkntz.s:3106   .text.TEST_Full_GGD_GROUP_RUNNER:00000000 $a
C:\Users\a5089698\AppData\Local\Temp\ccdAkntz.s:3112   .text.TEST_Full_GGD_GROUP_RUNNER:00000000 TEST_Full_GGD_GROUP_RUNNER
C:\Users\a5089698\AppData\Local\Temp\ccdAkntz.s:3196   .bss.pxTok:00000000 $d
C:\Users\a5089698\AppData\Local\Temp\ccdAkntz.s:3200   .bss.pxTok:00000000 pxTok
C:\Users\a5089698\AppData\Local\Temp\ccdAkntz.s:3203   .bss.xSocket:00000000 $d
C:\Users\a5089698\AppData\Local\Temp\ccdAkntz.s:3207   .bss.xSocket:00000000 xSocket
C:\Users\a5089698\AppData\Local\Temp\ccdAkntz.s:3317   .rodata.cCERTIFICATE:00000000 cCERTIFICATE
C:\Users\a5089698\AppData\Local\Temp\ccdAkntz.s:3353   .rodata.cIP_ADDRESS_1:00000000 cIP_ADDRESS_1
C:\Users\a5089698\AppData\Local\Temp\ccdAkntz.s:3359   .rodata.cIP_ADDRESS_3:00000000 cIP_ADDRESS_3
C:\Users\a5089698\AppData\Local\Temp\ccdAkntz.s:3365   .rodata.cJSON_FILE:00000000 cJSON_FILE
C:\Users\a5089698\AppData\Local\Temp\ccdAkntz.s:3416   .rodata.cMY_CORE_ARN:00000000 cMY_CORE_ARN
C:\Users\a5089698\AppData\Local\Temp\ccdAkntz.s:3422   .rodata.cMyGroupID:00000000 cMyGroupID
C:\Users\a5089698\AppData\Local\Temp\ccdAkntz.s:3428   .rodata.clientcredentialMQTT_BROKER_ENDPOINT:00000000 clientcredentialMQTT_BROKER_ENDPOINT
                     .debug_frame:00000010 $d

UNDEFINED SYMBOLS
SOCKETS_Close
setjmp
GGD_JSONRequestAbort
GGD_JSONRequestStart
UnityFail
Unity
test_prvIsIPvalid
GGD_GetGGCIPandCertificate
snprintf
UnityAssertEqualNumber
cBuffer
memcpy
GGD_GetIPandCertificateFromJSON
UnityAssertEqualString
GGD_JSONRequestGetSize
GGD_JSONRequestGetFile
jsmn_init
jsmn_parse
test_prvGGDGetCore
test_prvGGDGetIPOnInterface
test_prvGGDGetCertificate
UnityAssertEqualMemory
UnityAssertGreaterNumber
test_prvCheckMatch
test_prvGGDJsoneq
test_prvCheckForContentLengthString
GGD_SecureConnect_Disconnect
UnityTestRunner
