   1              		.cpu cortex-a9
   2              		.eabi_attribute 28, 1
   3              		.eabi_attribute 20, 1
   4              		.eabi_attribute 21, 1
   5              		.eabi_attribute 23, 3
   6              		.eabi_attribute 24, 1
   7              		.eabi_attribute 25, 1
   8              		.eabi_attribute 26, 1
   9              		.eabi_attribute 30, 4
  10              		.eabi_attribute 34, 0
  11              		.eabi_attribute 18, 4
  12              		.file	"resetprg.c"
  13              		.text
  14              	.Ltext0:
  15              		.cfi_sections	.debug_frame
  16              		.section	.text.disable_rtc.part.0,"ax",%progbits
  17              		.align	2
  18              		.syntax unified
  19              		.arm
  20              		.fpu neon
  22              	disable_rtc.part.0:
  23              	.LFB6:
  24              		.file 1 "D:/Work/DeviceTester/amazon-freertos/lib/third_party/mcu_vendor/renesas/rz_mcu_boards/cor
   1:D:/Work/DeviceTester/amazon-freertos/lib/third_party/mcu_vendor/renesas/rz_mcu_boards/core_package/generate/compiler/init\resetprg.c **** /**************************************************************************************************
   2:D:/Work/DeviceTester/amazon-freertos/lib/third_party/mcu_vendor/renesas/rz_mcu_boards/core_package/generate/compiler/init\resetprg.c ****  * DISCLAIMER
   3:D:/Work/DeviceTester/amazon-freertos/lib/third_party/mcu_vendor/renesas/rz_mcu_boards/core_package/generate/compiler/init\resetprg.c ****  * This software is supplied by Renesas Electronics Corporation and is only intended for use with R
   4:D:/Work/DeviceTester/amazon-freertos/lib/third_party/mcu_vendor/renesas/rz_mcu_boards/core_package/generate/compiler/init\resetprg.c ****  * other uses are authorized. This software is owned by Renesas Electronics Corporation and is prot
   5:D:/Work/DeviceTester/amazon-freertos/lib/third_party/mcu_vendor/renesas/rz_mcu_boards/core_package/generate/compiler/init\resetprg.c ****  * applicable laws, including copyright laws.
   6:D:/Work/DeviceTester/amazon-freertos/lib/third_party/mcu_vendor/renesas/rz_mcu_boards/core_package/generate/compiler/init\resetprg.c ****  * THIS SOFTWARE IS PROVIDED "AS IS" AND RENESAS MAKES NO WARRANTIES REGARDING
   7:D:/Work/DeviceTester/amazon-freertos/lib/third_party/mcu_vendor/renesas/rz_mcu_boards/core_package/generate/compiler/init\resetprg.c ****  * THIS SOFTWARE, WHETHER EXPRESS, IMPLIED OR STATUTORY, INCLUDING BUT NOT LIMITED TO WARRANTIES OF
   8:D:/Work/DeviceTester/amazon-freertos/lib/third_party/mcu_vendor/renesas/rz_mcu_boards/core_package/generate/compiler/init\resetprg.c ****  * FITNESS FOR A PARTICULAR PURPOSE AND NON-INFRINGEMENT. ALL SUCH WARRANTIES ARE EXPRESSLY DISCLAI
   9:D:/Work/DeviceTester/amazon-freertos/lib/third_party/mcu_vendor/renesas/rz_mcu_boards/core_package/generate/compiler/init\resetprg.c ****  * EXTENT PERMITTED NOT PROHIBITED BY LAW, NEITHER RENESAS ELECTRONICS CORPORATION NOR ANY OF ITS A
  10:D:/Work/DeviceTester/amazon-freertos/lib/third_party/mcu_vendor/renesas/rz_mcu_boards/core_package/generate/compiler/init\resetprg.c ****  * SHALL BE LIABLE FOR ANY DIRECT, INDIRECT, SPECIAL, INCIDENTAL OR CONSEQUENTIAL DAMAGES FOR ANY R
  11:D:/Work/DeviceTester/amazon-freertos/lib/third_party/mcu_vendor/renesas/rz_mcu_boards/core_package/generate/compiler/init\resetprg.c ****  * THIS SOFTWARE, EVEN IF RENESAS OR ITS AFFILIATES HAVE BEEN ADVISED OF THE POSSIBILITY OF SUCH DA
  12:D:/Work/DeviceTester/amazon-freertos/lib/third_party/mcu_vendor/renesas/rz_mcu_boards/core_package/generate/compiler/init\resetprg.c ****  * Renesas reserves the right, without notice, to make changes to this software and to discontinue 
  13:D:/Work/DeviceTester/amazon-freertos/lib/third_party/mcu_vendor/renesas/rz_mcu_boards/core_package/generate/compiler/init\resetprg.c ****  * this software. By using this software, you agree to the additional terms and conditions found by
  14:D:/Work/DeviceTester/amazon-freertos/lib/third_party/mcu_vendor/renesas/rz_mcu_boards/core_package/generate/compiler/init\resetprg.c ****  * following link:
  15:D:/Work/DeviceTester/amazon-freertos/lib/third_party/mcu_vendor/renesas/rz_mcu_boards/core_package/generate/compiler/init\resetprg.c ****  * http://www.renesas.com/disclaimer
  16:D:/Work/DeviceTester/amazon-freertos/lib/third_party/mcu_vendor/renesas/rz_mcu_boards/core_package/generate/compiler/init\resetprg.c ****  *
  17:D:/Work/DeviceTester/amazon-freertos/lib/third_party/mcu_vendor/renesas/rz_mcu_boards/core_package/generate/compiler/init\resetprg.c ****  * Copyright (C) 2018 Renesas Electronics Corporation. All rights reserved.
  18:D:/Work/DeviceTester/amazon-freertos/lib/third_party/mcu_vendor/renesas/rz_mcu_boards/core_package/generate/compiler/init\resetprg.c ****  **************************************************************************************************
  19:D:/Work/DeviceTester/amazon-freertos/lib/third_party/mcu_vendor/renesas/rz_mcu_boards/core_package/generate/compiler/init\resetprg.c **** /**************************************************************************************************
  20:D:/Work/DeviceTester/amazon-freertos/lib/third_party/mcu_vendor/renesas/rz_mcu_boards/core_package/generate/compiler/init\resetprg.c ****  * File Name    : resetprg.c
  21:D:/Work/DeviceTester/amazon-freertos/lib/third_party/mcu_vendor/renesas/rz_mcu_boards/core_package/generate/compiler/init\resetprg.c ****  * Device(s)    : RZ/A2M
  22:D:/Work/DeviceTester/amazon-freertos/lib/third_party/mcu_vendor/renesas/rz_mcu_boards/core_package/generate/compiler/init\resetprg.c ****  * Tool-Chain   : e2Studio Ver 7.5.0
  23:D:/Work/DeviceTester/amazon-freertos/lib/third_party/mcu_vendor/renesas/rz_mcu_boards/core_package/generate/compiler/init\resetprg.c ****  *              : GNU Arm Embedded Toolchain 6-2017-q2-update
  24:D:/Work/DeviceTester/amazon-freertos/lib/third_party/mcu_vendor/renesas/rz_mcu_boards/core_package/generate/compiler/init\resetprg.c ****  * OS           : None
  25:D:/Work/DeviceTester/amazon-freertos/lib/third_party/mcu_vendor/renesas/rz_mcu_boards/core_package/generate/compiler/init\resetprg.c ****  * H/W Platform : RZ/A2M Evaluation Board
  26:D:/Work/DeviceTester/amazon-freertos/lib/third_party/mcu_vendor/renesas/rz_mcu_boards/core_package/generate/compiler/init\resetprg.c ****  * Description  : RZ/A2M Sample Program - C library entry point
  27:D:/Work/DeviceTester/amazon-freertos/lib/third_party/mcu_vendor/renesas/rz_mcu_boards/core_package/generate/compiler/init\resetprg.c ****  *              : Variants of this file must be created for each compiler
  28:D:/Work/DeviceTester/amazon-freertos/lib/third_party/mcu_vendor/renesas/rz_mcu_boards/core_package/generate/compiler/init\resetprg.c ****  * Operation    :
  29:D:/Work/DeviceTester/amazon-freertos/lib/third_party/mcu_vendor/renesas/rz_mcu_boards/core_package/generate/compiler/init\resetprg.c ****  * Limitations  :
  30:D:/Work/DeviceTester/amazon-freertos/lib/third_party/mcu_vendor/renesas/rz_mcu_boards/core_package/generate/compiler/init\resetprg.c ****  **************************************************************************************************
  31:D:/Work/DeviceTester/amazon-freertos/lib/third_party/mcu_vendor/renesas/rz_mcu_boards/core_package/generate/compiler/init\resetprg.c **** 
  32:D:/Work/DeviceTester/amazon-freertos/lib/third_party/mcu_vendor/renesas/rz_mcu_boards/core_package/generate/compiler/init\resetprg.c **** /**************************************************************************************************
  33:D:/Work/DeviceTester/amazon-freertos/lib/third_party/mcu_vendor/renesas/rz_mcu_boards/core_package/generate/compiler/init\resetprg.c ****  Includes   <System Includes> , "Project Includes"
  34:D:/Work/DeviceTester/amazon-freertos/lib/third_party/mcu_vendor/renesas/rz_mcu_boards/core_package/generate/compiler/init\resetprg.c ****  **************************************************************************************************
  35:D:/Work/DeviceTester/amazon-freertos/lib/third_party/mcu_vendor/renesas/rz_mcu_boards/core_package/generate/compiler/init\resetprg.c **** #include "r_typedefs.h"
  36:D:/Work/DeviceTester/amazon-freertos/lib/third_party/mcu_vendor/renesas/rz_mcu_boards/core_package/generate/compiler/init\resetprg.c **** #include "compiler_settings.h"
  37:D:/Work/DeviceTester/amazon-freertos/lib/third_party/mcu_vendor/renesas/rz_mcu_boards/core_package/generate/compiler/init\resetprg.c **** #include "r_compiler_abstraction_api.h"
  38:D:/Work/DeviceTester/amazon-freertos/lib/third_party/mcu_vendor/renesas/rz_mcu_boards/core_package/generate/compiler/init\resetprg.c **** #include "r_cache_lld_rza2m.h"
  39:D:/Work/DeviceTester/amazon-freertos/lib/third_party/mcu_vendor/renesas/rz_mcu_boards/core_package/generate/compiler/init\resetprg.c **** #include "r_intc_drv_api.h"
  40:D:/Work/DeviceTester/amazon-freertos/lib/third_party/mcu_vendor/renesas/rz_mcu_boards/core_package/generate/compiler/init\resetprg.c **** #include "iodefine.h"
  41:D:/Work/DeviceTester/amazon-freertos/lib/third_party/mcu_vendor/renesas/rz_mcu_boards/core_package/generate/compiler/init\resetprg.c **** #include "iobitmask.h"
  42:D:/Work/DeviceTester/amazon-freertos/lib/third_party/mcu_vendor/renesas/rz_mcu_boards/core_package/generate/compiler/init\resetprg.c **** #include "rza_io_regrw.h"
  43:D:/Work/DeviceTester/amazon-freertos/lib/third_party/mcu_vendor/renesas/rz_mcu_boards/core_package/generate/compiler/init\resetprg.c **** #include "r_startup_config.h"
  44:D:/Work/DeviceTester/amazon-freertos/lib/third_party/mcu_vendor/renesas/rz_mcu_boards/core_package/generate/compiler/init\resetprg.c **** #include "resetprg.h"
  45:D:/Work/DeviceTester/amazon-freertos/lib/third_party/mcu_vendor/renesas/rz_mcu_boards/core_package/generate/compiler/init\resetprg.c **** 
  46:D:/Work/DeviceTester/amazon-freertos/lib/third_party/mcu_vendor/renesas/rz_mcu_boards/core_package/generate/compiler/init\resetprg.c **** /**************************************************************************************************
  47:D:/Work/DeviceTester/amazon-freertos/lib/third_party/mcu_vendor/renesas/rz_mcu_boards/core_package/generate/compiler/init\resetprg.c ****  Macro definitions
  48:D:/Work/DeviceTester/amazon-freertos/lib/third_party/mcu_vendor/renesas/rz_mcu_boards/core_package/generate/compiler/init\resetprg.c ****  **************************************************************************************************
  49:D:/Work/DeviceTester/amazon-freertos/lib/third_party/mcu_vendor/renesas/rz_mcu_boards/core_package/generate/compiler/init\resetprg.c **** #define R_PRV_RTC_COUNT (2)
  50:D:/Work/DeviceTester/amazon-freertos/lib/third_party/mcu_vendor/renesas/rz_mcu_boards/core_package/generate/compiler/init\resetprg.c **** #define R_PRV_USB_COUNT (2)
  51:D:/Work/DeviceTester/amazon-freertos/lib/third_party/mcu_vendor/renesas/rz_mcu_boards/core_package/generate/compiler/init\resetprg.c **** 
  52:D:/Work/DeviceTester/amazon-freertos/lib/third_party/mcu_vendor/renesas/rz_mcu_boards/core_package/generate/compiler/init\resetprg.c **** /**************************************************************************************************
  53:D:/Work/DeviceTester/amazon-freertos/lib/third_party/mcu_vendor/renesas/rz_mcu_boards/core_package/generate/compiler/init\resetprg.c ****  Exported global variables
  54:D:/Work/DeviceTester/amazon-freertos/lib/third_party/mcu_vendor/renesas/rz_mcu_boards/core_package/generate/compiler/init\resetprg.c ****  **************************************************************************************************
  55:D:/Work/DeviceTester/amazon-freertos/lib/third_party/mcu_vendor/renesas/rz_mcu_boards/core_package/generate/compiler/init\resetprg.c **** extern uint32_t __vector_mirror_table_base;
  56:D:/Work/DeviceTester/amazon-freertos/lib/third_party/mcu_vendor/renesas/rz_mcu_boards/core_package/generate/compiler/init\resetprg.c **** 
  57:D:/Work/DeviceTester/amazon-freertos/lib/third_party/mcu_vendor/renesas/rz_mcu_boards/core_package/generate/compiler/init\resetprg.c **** /**************************************************************************************************
  58:D:/Work/DeviceTester/amazon-freertos/lib/third_party/mcu_vendor/renesas/rz_mcu_boards/core_package/generate/compiler/init\resetprg.c ****  Private (static) variables and functions
  59:D:/Work/DeviceTester/amazon-freertos/lib/third_party/mcu_vendor/renesas/rz_mcu_boards/core_package/generate/compiler/init\resetprg.c ****  **************************************************************************************************
  60:D:/Work/DeviceTester/amazon-freertos/lib/third_party/mcu_vendor/renesas/rz_mcu_boards/core_package/generate/compiler/init\resetprg.c **** static void disable_rtc(uint32_t ch);
  61:D:/Work/DeviceTester/amazon-freertos/lib/third_party/mcu_vendor/renesas/rz_mcu_boards/core_package/generate/compiler/init\resetprg.c **** static void disable_usb(uint32_t ch);
  62:D:/Work/DeviceTester/amazon-freertos/lib/third_party/mcu_vendor/renesas/rz_mcu_boards/core_package/generate/compiler/init\resetprg.c **** 
  63:D:/Work/DeviceTester/amazon-freertos/lib/third_party/mcu_vendor/renesas/rz_mcu_boards/core_package/generate/compiler/init\resetprg.c **** /**************************************************************************************************
  64:D:/Work/DeviceTester/amazon-freertos/lib/third_party/mcu_vendor/renesas/rz_mcu_boards/core_package/generate/compiler/init\resetprg.c ****  * Function Name: resetprg
  65:D:/Work/DeviceTester/amazon-freertos/lib/third_party/mcu_vendor/renesas/rz_mcu_boards/core_package/generate/compiler/init\resetprg.c ****  * Description  : Program entry point after basic peripheral init.
  66:D:/Work/DeviceTester/amazon-freertos/lib/third_party/mcu_vendor/renesas/rz_mcu_boards/core_package/generate/compiler/init\resetprg.c ****  * Arguments    : none
  67:D:/Work/DeviceTester/amazon-freertos/lib/third_party/mcu_vendor/renesas/rz_mcu_boards/core_package/generate/compiler/init\resetprg.c ****  * Return Value : none
  68:D:/Work/DeviceTester/amazon-freertos/lib/third_party/mcu_vendor/renesas/rz_mcu_boards/core_package/generate/compiler/init\resetprg.c ****  **************************************************************************************************
  69:D:/Work/DeviceTester/amazon-freertos/lib/third_party/mcu_vendor/renesas/rz_mcu_boards/core_package/generate/compiler/init\resetprg.c **** void resetprg (void)
  70:D:/Work/DeviceTester/amazon-freertos/lib/third_party/mcu_vendor/renesas/rz_mcu_boards/core_package/generate/compiler/init\resetprg.c **** {
  71:D:/Work/DeviceTester/amazon-freertos/lib/third_party/mcu_vendor/renesas/rz_mcu_boards/core_package/generate/compiler/init\resetprg.c ****     /* Disable RTC if macro defined as 1 */
  72:D:/Work/DeviceTester/amazon-freertos/lib/third_party/mcu_vendor/renesas/rz_mcu_boards/core_package/generate/compiler/init\resetprg.c **** #if defined(STARTUP_CFG_DISABLE_RTC0) && (STARTUP_CFG_DISABLE_RTC0==1)
  73:D:/Work/DeviceTester/amazon-freertos/lib/third_party/mcu_vendor/renesas/rz_mcu_boards/core_package/generate/compiler/init\resetprg.c ****     disable_rtc(0);
  74:D:/Work/DeviceTester/amazon-freertos/lib/third_party/mcu_vendor/renesas/rz_mcu_boards/core_package/generate/compiler/init\resetprg.c **** #endif
  75:D:/Work/DeviceTester/amazon-freertos/lib/third_party/mcu_vendor/renesas/rz_mcu_boards/core_package/generate/compiler/init\resetprg.c **** #if defined(STARTUP_CFG_DISABLE_RTC1) && (STARTUP_CFG_DISABLE_RTC1==1)
  76:D:/Work/DeviceTester/amazon-freertos/lib/third_party/mcu_vendor/renesas/rz_mcu_boards/core_package/generate/compiler/init\resetprg.c ****     disable_rtc(1);
  77:D:/Work/DeviceTester/amazon-freertos/lib/third_party/mcu_vendor/renesas/rz_mcu_boards/core_package/generate/compiler/init\resetprg.c **** #endif
  78:D:/Work/DeviceTester/amazon-freertos/lib/third_party/mcu_vendor/renesas/rz_mcu_boards/core_package/generate/compiler/init\resetprg.c **** 
  79:D:/Work/DeviceTester/amazon-freertos/lib/third_party/mcu_vendor/renesas/rz_mcu_boards/core_package/generate/compiler/init\resetprg.c ****     /* Disable USB if macro defined as 1 */
  80:D:/Work/DeviceTester/amazon-freertos/lib/third_party/mcu_vendor/renesas/rz_mcu_boards/core_package/generate/compiler/init\resetprg.c **** #if defined(STARTUP_CFG_DISABLE_USB0) && (STARTUP_CFG_DISABLE_USB0==1)
  81:D:/Work/DeviceTester/amazon-freertos/lib/third_party/mcu_vendor/renesas/rz_mcu_boards/core_package/generate/compiler/init\resetprg.c ****     disable_usb(0);
  82:D:/Work/DeviceTester/amazon-freertos/lib/third_party/mcu_vendor/renesas/rz_mcu_boards/core_package/generate/compiler/init\resetprg.c **** #endif
  83:D:/Work/DeviceTester/amazon-freertos/lib/third_party/mcu_vendor/renesas/rz_mcu_boards/core_package/generate/compiler/init\resetprg.c **** #if defined(STARTUP_CFG_DISABLE_USB1) && (STARTUP_CFG_DISABLE_USB1==1)
  84:D:/Work/DeviceTester/amazon-freertos/lib/third_party/mcu_vendor/renesas/rz_mcu_boards/core_package/generate/compiler/init\resetprg.c ****     disable_usb(1);
  85:D:/Work/DeviceTester/amazon-freertos/lib/third_party/mcu_vendor/renesas/rz_mcu_boards/core_package/generate/compiler/init\resetprg.c **** #endif
  86:D:/Work/DeviceTester/amazon-freertos/lib/third_party/mcu_vendor/renesas/rz_mcu_boards/core_package/generate/compiler/init\resetprg.c **** 
  87:D:/Work/DeviceTester/amazon-freertos/lib/third_party/mcu_vendor/renesas/rz_mcu_boards/core_package/generate/compiler/init\resetprg.c ****     /*    Initialize INTC,
  88:D:/Work/DeviceTester/amazon-freertos/lib/third_party/mcu_vendor/renesas/rz_mcu_boards/core_package/generate/compiler/init\resetprg.c ****      *    Setup GIC.
  89:D:/Work/DeviceTester/amazon-freertos/lib/third_party/mcu_vendor/renesas/rz_mcu_boards/core_package/generate/compiler/init\resetprg.c ****      */
  90:D:/Work/DeviceTester/amazon-freertos/lib/third_party/mcu_vendor/renesas/rz_mcu_boards/core_package/generate/compiler/init\resetprg.c ****     if (R_INTC_Init() != INTC_SUCCESS)
  91:D:/Work/DeviceTester/amazon-freertos/lib/third_party/mcu_vendor/renesas/rz_mcu_boards/core_package/generate/compiler/init\resetprg.c ****     {
  92:D:/Work/DeviceTester/amazon-freertos/lib/third_party/mcu_vendor/renesas/rz_mcu_boards/core_package/generate/compiler/init\resetprg.c ****         while (1)
  93:D:/Work/DeviceTester/amazon-freertos/lib/third_party/mcu_vendor/renesas/rz_mcu_boards/core_package/generate/compiler/init\resetprg.c ****         {
  94:D:/Work/DeviceTester/amazon-freertos/lib/third_party/mcu_vendor/renesas/rz_mcu_boards/core_package/generate/compiler/init\resetprg.c ****             /* Spin here forever.. */
  95:D:/Work/DeviceTester/amazon-freertos/lib/third_party/mcu_vendor/renesas/rz_mcu_boards/core_package/generate/compiler/init\resetprg.c ****             R_COMPILER_Nop();
  96:D:/Work/DeviceTester/amazon-freertos/lib/third_party/mcu_vendor/renesas/rz_mcu_boards/core_package/generate/compiler/init\resetprg.c ****         }
  97:D:/Work/DeviceTester/amazon-freertos/lib/third_party/mcu_vendor/renesas/rz_mcu_boards/core_package/generate/compiler/init\resetprg.c ****     }
  98:D:/Work/DeviceTester/amazon-freertos/lib/third_party/mcu_vendor/renesas/rz_mcu_boards/core_package/generate/compiler/init\resetprg.c **** 
  99:D:/Work/DeviceTester/amazon-freertos/lib/third_party/mcu_vendor/renesas/rz_mcu_boards/core_package/generate/compiler/init\resetprg.c ****     /* Initial setting of the level 2 cache */
 100:D:/Work/DeviceTester/amazon-freertos/lib/third_party/mcu_vendor/renesas/rz_mcu_boards/core_package/generate/compiler/init\resetprg.c ****     R_CACHE_L2Init();
 101:D:/Work/DeviceTester/amazon-freertos/lib/third_party/mcu_vendor/renesas/rz_mcu_boards/core_package/generate/compiler/init\resetprg.c **** 
 102:D:/Work/DeviceTester/amazon-freertos/lib/third_party/mcu_vendor/renesas/rz_mcu_boards/core_package/generate/compiler/init\resetprg.c ****     /* Initial setting of the level 1 cache */
 103:D:/Work/DeviceTester/amazon-freertos/lib/third_party/mcu_vendor/renesas/rz_mcu_boards/core_package/generate/compiler/init\resetprg.c ****     R_CACHE_L1Init();
 104:D:/Work/DeviceTester/amazon-freertos/lib/third_party/mcu_vendor/renesas/rz_mcu_boards/core_package/generate/compiler/init\resetprg.c **** 
 105:D:/Work/DeviceTester/amazon-freertos/lib/third_party/mcu_vendor/renesas/rz_mcu_boards/core_package/generate/compiler/init\resetprg.c ****     /* change VBAR to use internal RAM */
 106:D:/Work/DeviceTester/amazon-freertos/lib/third_party/mcu_vendor/renesas/rz_mcu_boards/core_package/generate/compiler/init\resetprg.c ****     __set_vbar((uint32_t)&__vector_mirror_table_base);
 107:D:/Work/DeviceTester/amazon-freertos/lib/third_party/mcu_vendor/renesas/rz_mcu_boards/core_package/generate/compiler/init\resetprg.c **** 
 108:D:/Work/DeviceTester/amazon-freertos/lib/third_party/mcu_vendor/renesas/rz_mcu_boards/core_package/generate/compiler/init\resetprg.c ****     __enable_irq();
 109:D:/Work/DeviceTester/amazon-freertos/lib/third_party/mcu_vendor/renesas/rz_mcu_boards/core_package/generate/compiler/init\resetprg.c ****     __enable_fiq();
 110:D:/Work/DeviceTester/amazon-freertos/lib/third_party/mcu_vendor/renesas/rz_mcu_boards/core_package/generate/compiler/init\resetprg.c **** 
 111:D:/Work/DeviceTester/amazon-freertos/lib/third_party/mcu_vendor/renesas/rz_mcu_boards/core_package/generate/compiler/init\resetprg.c ****     /* call user program */
 112:D:/Work/DeviceTester/amazon-freertos/lib/third_party/mcu_vendor/renesas/rz_mcu_boards/core_package/generate/compiler/init\resetprg.c ****     main();
 113:D:/Work/DeviceTester/amazon-freertos/lib/third_party/mcu_vendor/renesas/rz_mcu_boards/core_package/generate/compiler/init\resetprg.c **** 
 114:D:/Work/DeviceTester/amazon-freertos/lib/third_party/mcu_vendor/renesas/rz_mcu_boards/core_package/generate/compiler/init\resetprg.c ****     /* Stops program from running off */
 115:D:/Work/DeviceTester/amazon-freertos/lib/third_party/mcu_vendor/renesas/rz_mcu_boards/core_package/generate/compiler/init\resetprg.c ****     while (1)
 116:D:/Work/DeviceTester/amazon-freertos/lib/third_party/mcu_vendor/renesas/rz_mcu_boards/core_package/generate/compiler/init\resetprg.c ****     {
 117:D:/Work/DeviceTester/amazon-freertos/lib/third_party/mcu_vendor/renesas/rz_mcu_boards/core_package/generate/compiler/init\resetprg.c ****         /* Spin here forever.. */
 118:D:/Work/DeviceTester/amazon-freertos/lib/third_party/mcu_vendor/renesas/rz_mcu_boards/core_package/generate/compiler/init\resetprg.c ****         R_COMPILER_Nop();
 119:D:/Work/DeviceTester/amazon-freertos/lib/third_party/mcu_vendor/renesas/rz_mcu_boards/core_package/generate/compiler/init\resetprg.c ****     }
 120:D:/Work/DeviceTester/amazon-freertos/lib/third_party/mcu_vendor/renesas/rz_mcu_boards/core_package/generate/compiler/init\resetprg.c **** }
 121:D:/Work/DeviceTester/amazon-freertos/lib/third_party/mcu_vendor/renesas/rz_mcu_boards/core_package/generate/compiler/init\resetprg.c **** /**************************************************************************************************
 122:D:/Work/DeviceTester/amazon-freertos/lib/third_party/mcu_vendor/renesas/rz_mcu_boards/core_package/generate/compiler/init\resetprg.c ****  End of function resetprg
 123:D:/Work/DeviceTester/amazon-freertos/lib/third_party/mcu_vendor/renesas/rz_mcu_boards/core_package/generate/compiler/init\resetprg.c ****  **************************************************************************************************
 124:D:/Work/DeviceTester/amazon-freertos/lib/third_party/mcu_vendor/renesas/rz_mcu_boards/core_package/generate/compiler/init\resetprg.c **** 
 125:D:/Work/DeviceTester/amazon-freertos/lib/third_party/mcu_vendor/renesas/rz_mcu_boards/core_package/generate/compiler/init\resetprg.c **** /**************************************************************************************************
 126:D:/Work/DeviceTester/amazon-freertos/lib/third_party/mcu_vendor/renesas/rz_mcu_boards/core_package/generate/compiler/init\resetprg.c ****  * Function Name: disable_rtc
 127:D:/Work/DeviceTester/amazon-freertos/lib/third_party/mcu_vendor/renesas/rz_mcu_boards/core_package/generate/compiler/init\resetprg.c ****  * Description  : disable RTC module (See HM 16.5.6 and 52.4.2)
 128:D:/Work/DeviceTester/amazon-freertos/lib/third_party/mcu_vendor/renesas/rz_mcu_boards/core_package/generate/compiler/init\resetprg.c ****  * Arguments    : uint32_t ch : channel
 129:D:/Work/DeviceTester/amazon-freertos/lib/third_party/mcu_vendor/renesas/rz_mcu_boards/core_package/generate/compiler/init\resetprg.c ****  * Return Value : none
 130:D:/Work/DeviceTester/amazon-freertos/lib/third_party/mcu_vendor/renesas/rz_mcu_boards/core_package/generate/compiler/init\resetprg.c ****  **************************************************************************************************
 131:D:/Work/DeviceTester/amazon-freertos/lib/third_party/mcu_vendor/renesas/rz_mcu_boards/core_package/generate/compiler/init\resetprg.c **** static void disable_rtc(uint32_t ch)
  25              		.loc 1 131 0
  26              		.cfi_startproc
  27              		@ args = 0, pretend = 0, frame = 0
  28              		@ frame_needed = 0, uses_anonymous_args = 0
  29              	.LVL0:
 132:D:/Work/DeviceTester/amazon-freertos/lib/third_party/mcu_vendor/renesas/rz_mcu_boards/core_package/generate/compiler/init\resetprg.c **** {
 133:D:/Work/DeviceTester/amazon-freertos/lib/third_party/mcu_vendor/renesas/rz_mcu_boards/core_package/generate/compiler/init\resetprg.c ****     uint8_t dummy8;
 134:D:/Work/DeviceTester/amazon-freertos/lib/third_party/mcu_vendor/renesas/rz_mcu_boards/core_package/generate/compiler/init\resetprg.c ****     uint32_t mask;
 135:D:/Work/DeviceTester/amazon-freertos/lib/third_party/mcu_vendor/renesas/rz_mcu_boards/core_package/generate/compiler/init\resetprg.c ****     uint8_t shift;
 136:D:/Work/DeviceTester/amazon-freertos/lib/third_party/mcu_vendor/renesas/rz_mcu_boards/core_package/generate/compiler/init\resetprg.c ****     static volatile struct st_rtc * const rtc[R_PRV_RTC_COUNT] =
 137:D:/Work/DeviceTester/amazon-freertos/lib/third_party/mcu_vendor/renesas/rz_mcu_boards/core_package/generate/compiler/init\resetprg.c ****     {
 138:D:/Work/DeviceTester/amazon-freertos/lib/third_party/mcu_vendor/renesas/rz_mcu_boards/core_package/generate/compiler/init\resetprg.c ****         &RTC0, &RTC1
 139:D:/Work/DeviceTester/amazon-freertos/lib/third_party/mcu_vendor/renesas/rz_mcu_boards/core_package/generate/compiler/init\resetprg.c ****     };
 140:D:/Work/DeviceTester/amazon-freertos/lib/third_party/mcu_vendor/renesas/rz_mcu_boards/core_package/generate/compiler/init\resetprg.c ****     static const uint8_t mstp_mask[R_PRV_RTC_COUNT] =
 141:D:/Work/DeviceTester/amazon-freertos/lib/third_party/mcu_vendor/renesas/rz_mcu_boards/core_package/generate/compiler/init\resetprg.c ****     {
 142:D:/Work/DeviceTester/amazon-freertos/lib/third_party/mcu_vendor/renesas/rz_mcu_boards/core_package/generate/compiler/init\resetprg.c ****         CPG_STBCR5_MSTP53, CPG_STBCR5_MSTP52
 143:D:/Work/DeviceTester/amazon-freertos/lib/third_party/mcu_vendor/renesas/rz_mcu_boards/core_package/generate/compiler/init\resetprg.c ****     };
 144:D:/Work/DeviceTester/amazon-freertos/lib/third_party/mcu_vendor/renesas/rz_mcu_boards/core_package/generate/compiler/init\resetprg.c ****     static const uint8_t mstp_shift[R_PRV_RTC_COUNT] =
 145:D:/Work/DeviceTester/amazon-freertos/lib/third_party/mcu_vendor/renesas/rz_mcu_boards/core_package/generate/compiler/init\resetprg.c ****     {
 146:D:/Work/DeviceTester/amazon-freertos/lib/third_party/mcu_vendor/renesas/rz_mcu_boards/core_package/generate/compiler/init\resetprg.c ****         CPG_STBCR5_MSTP53_SHIFT, CPG_STBCR5_MSTP52_SHIFT
 147:D:/Work/DeviceTester/amazon-freertos/lib/third_party/mcu_vendor/renesas/rz_mcu_boards/core_package/generate/compiler/init\resetprg.c ****     };
 148:D:/Work/DeviceTester/amazon-freertos/lib/third_party/mcu_vendor/renesas/rz_mcu_boards/core_package/generate/compiler/init\resetprg.c ****     static const uint16_t rtcxtalsel_mask[R_PRV_RTC_COUNT] =
 149:D:/Work/DeviceTester/amazon-freertos/lib/third_party/mcu_vendor/renesas/rz_mcu_boards/core_package/generate/compiler/init\resetprg.c ****     {
 150:D:/Work/DeviceTester/amazon-freertos/lib/third_party/mcu_vendor/renesas/rz_mcu_boards/core_package/generate/compiler/init\resetprg.c ****         PMG_RTCXTALSEL_RTC0XT, PMG_RTCXTALSEL_RTC1XT
 151:D:/Work/DeviceTester/amazon-freertos/lib/third_party/mcu_vendor/renesas/rz_mcu_boards/core_package/generate/compiler/init\resetprg.c ****     };
 152:D:/Work/DeviceTester/amazon-freertos/lib/third_party/mcu_vendor/renesas/rz_mcu_boards/core_package/generate/compiler/init\resetprg.c ****     static const uint8_t rtcxtalsel_shift[R_PRV_RTC_COUNT] =
 153:D:/Work/DeviceTester/amazon-freertos/lib/third_party/mcu_vendor/renesas/rz_mcu_boards/core_package/generate/compiler/init\resetprg.c ****     {
 154:D:/Work/DeviceTester/amazon-freertos/lib/third_party/mcu_vendor/renesas/rz_mcu_boards/core_package/generate/compiler/init\resetprg.c ****         PMG_RTCXTALSEL_RTC0XT_SHIFT, PMG_RTCXTALSEL_RTC1XT_SHIFT
 155:D:/Work/DeviceTester/amazon-freertos/lib/third_party/mcu_vendor/renesas/rz_mcu_boards/core_package/generate/compiler/init\resetprg.c ****     };
 156:D:/Work/DeviceTester/amazon-freertos/lib/third_party/mcu_vendor/renesas/rz_mcu_boards/core_package/generate/compiler/init\resetprg.c **** 
 157:D:/Work/DeviceTester/amazon-freertos/lib/third_party/mcu_vendor/renesas/rz_mcu_boards/core_package/generate/compiler/init\resetprg.c ****     /* channel check */
 158:D:/Work/DeviceTester/amazon-freertos/lib/third_party/mcu_vendor/renesas/rz_mcu_boards/core_package/generate/compiler/init\resetprg.c ****     if (ch >= R_PRV_RTC_COUNT)
 159:D:/Work/DeviceTester/amazon-freertos/lib/third_party/mcu_vendor/renesas/rz_mcu_boards/core_package/generate/compiler/init\resetprg.c ****     {
 160:D:/Work/DeviceTester/amazon-freertos/lib/third_party/mcu_vendor/renesas/rz_mcu_boards/core_package/generate/compiler/init\resetprg.c ****         return;
 161:D:/Work/DeviceTester/amazon-freertos/lib/third_party/mcu_vendor/renesas/rz_mcu_boards/core_package/generate/compiler/init\resetprg.c ****     }
 162:D:/Work/DeviceTester/amazon-freertos/lib/third_party/mcu_vendor/renesas/rz_mcu_boards/core_package/generate/compiler/init\resetprg.c **** 
 163:D:/Work/DeviceTester/amazon-freertos/lib/third_party/mcu_vendor/renesas/rz_mcu_boards/core_package/generate/compiler/init\resetprg.c ****     /* 1: select RTCXTAL for RTC (RCR4.RCKSEL = 0) */
 164:D:/Work/DeviceTester/amazon-freertos/lib/third_party/mcu_vendor/renesas/rz_mcu_boards/core_package/generate/compiler/init\resetprg.c ****     RZA_IO_RegWrite_8(&rtc[ch]->RCR4.BYTE, 0, IOREG_NONSHIFT_ACCESS, IOREG_NONMASK_ACCESS);
  30              		.loc 1 164 0
  31 0000 C0309FE5 		ldr	r3, .L5
  32 0004 0020A0E3 		mov	r2, #0
 131:D:/Work/DeviceTester/amazon-freertos/lib/third_party/mcu_vendor/renesas/rz_mcu_boards/core_package/generate/compiler/init\resetprg.c **** {
  33              		.loc 1 131 0
  34 0008 70402DE9 		push	{r4, r5, r6, lr}
  35              		.cfi_def_cfa_offset 16
  36              		.cfi_offset 4, -16
  37              		.cfi_offset 5, -12
  38              		.cfi_offset 6, -8
  39              		.cfi_offset 14, -4
  40              		.loc 1 164 0
  41 000c 0210A0E1 		mov	r1, r2
 131:D:/Work/DeviceTester/amazon-freertos/lib/third_party/mcu_vendor/renesas/rz_mcu_boards/core_package/generate/compiler/init\resetprg.c **** {
  42              		.loc 1 131 0
  43 0010 0040A0E1 		mov	r4, r0
  44              		.loc 1 164 0
  45 0014 005193E7 		ldr	r5, [r3, r0, lsl #2]
  46 0018 0030E0E3 		mvn	r3, #0
  47 001c 286085E2 		add	r6, r5, #40
 165:D:/Work/DeviceTester/amazon-freertos/lib/third_party/mcu_vendor/renesas/rz_mcu_boards/core_package/generate/compiler/init\resetprg.c ****     RZA_IO_RegRead_8(&rtc[ch]->RCR4.BYTE, IOREG_NONSHIFT_ACCESS, IOREG_NONMASK_ACCESS);
 166:D:/Work/DeviceTester/amazon-freertos/lib/third_party/mcu_vendor/renesas/rz_mcu_boards/core_package/generate/compiler/init\resetprg.c **** 
 167:D:/Work/DeviceTester/amazon-freertos/lib/third_party/mcu_vendor/renesas/rz_mcu_boards/core_package/generate/compiler/init\resetprg.c ****     /* 2: disable RTC clock (RCR3.RTCEN = 0) */
 168:D:/Work/DeviceTester/amazon-freertos/lib/third_party/mcu_vendor/renesas/rz_mcu_boards/core_package/generate/compiler/init\resetprg.c ****     RZA_IO_RegWrite_8(&rtc[ch]->RCR3.BYTE, 0, RTC_RCR3_RTCEN_SHIFT, RTC_RCR3_RTCEN);
  48              		.loc 1 168 0
  49 0020 265085E2 		add	r5, r5, #38
 164:D:/Work/DeviceTester/amazon-freertos/lib/third_party/mcu_vendor/renesas/rz_mcu_boards/core_package/generate/compiler/init\resetprg.c ****     RZA_IO_RegRead_8(&rtc[ch]->RCR4.BYTE, IOREG_NONSHIFT_ACCESS, IOREG_NONMASK_ACCESS);
  50              		.loc 1 164 0
  51 0024 0600A0E1 		mov	r0, r6
  52              	.LVL1:
  53 0028 FEFFFFEB 		bl	RZA_IO_RegWrite_8
  54              	.LVL2:
 165:D:/Work/DeviceTester/amazon-freertos/lib/third_party/mcu_vendor/renesas/rz_mcu_boards/core_package/generate/compiler/init\resetprg.c ****     RZA_IO_RegRead_8(&rtc[ch]->RCR4.BYTE, IOREG_NONSHIFT_ACCESS, IOREG_NONMASK_ACCESS);
  55              		.loc 1 165 0
  56 002c 0020E0E3 		mvn	r2, #0
  57 0030 0010A0E3 		mov	r1, #0
  58 0034 0600A0E1 		mov	r0, r6
  59 0038 FEFFFFEB 		bl	RZA_IO_RegRead_8
  60              	.LVL3:
  61              		.loc 1 168 0
  62 003c 0020A0E3 		mov	r2, #0
  63 0040 0130A0E3 		mov	r3, #1
  64 0044 0210A0E1 		mov	r1, r2
  65 0048 0500A0E1 		mov	r0, r5
  66 004c FEFFFFEB 		bl	RZA_IO_RegWrite_8
  67              	.LVL4:
  68              	.L2:
 169:D:/Work/DeviceTester/amazon-freertos/lib/third_party/mcu_vendor/renesas/rz_mcu_boards/core_package/generate/compiler/init\resetprg.c **** 
 170:D:/Work/DeviceTester/amazon-freertos/lib/third_party/mcu_vendor/renesas/rz_mcu_boards/core_package/generate/compiler/init\resetprg.c ****     /* Wait for successfully disabled */
 171:D:/Work/DeviceTester/amazon-freertos/lib/third_party/mcu_vendor/renesas/rz_mcu_boards/core_package/generate/compiler/init\resetprg.c ****     dummy8 = 1;
 172:D:/Work/DeviceTester/amazon-freertos/lib/third_party/mcu_vendor/renesas/rz_mcu_boards/core_package/generate/compiler/init\resetprg.c ****     while (0 != dummy8)
 173:D:/Work/DeviceTester/amazon-freertos/lib/third_party/mcu_vendor/renesas/rz_mcu_boards/core_package/generate/compiler/init\resetprg.c ****     {
 174:D:/Work/DeviceTester/amazon-freertos/lib/third_party/mcu_vendor/renesas/rz_mcu_boards/core_package/generate/compiler/init\resetprg.c ****         dummy8 = RZA_IO_RegRead_8(&rtc[ch]->RCR3.BYTE, RTC_RCR3_RTCEN_SHIFT, RTC_RCR3_RTCEN);
  69              		.loc 1 174 0
  70 0050 0120A0E3 		mov	r2, #1
  71 0054 0010A0E3 		mov	r1, #0
  72 0058 0500A0E1 		mov	r0, r5
  73 005c FEFFFFEB 		bl	RZA_IO_RegRead_8
  74              	.LVL5:
 172:D:/Work/DeviceTester/amazon-freertos/lib/third_party/mcu_vendor/renesas/rz_mcu_boards/core_package/generate/compiler/init\resetprg.c ****     {
  75              		.loc 1 172 0
  76 0060 006050E2 		subs	r6, r0, #0
  77 0064 F9FFFF1A 		bne	.L2
  78              	.LVL6:
 175:D:/Work/DeviceTester/amazon-freertos/lib/third_party/mcu_vendor/renesas/rz_mcu_boards/core_package/generate/compiler/init\resetprg.c ****     }
 176:D:/Work/DeviceTester/amazon-freertos/lib/third_party/mcu_vendor/renesas/rz_mcu_boards/core_package/generate/compiler/init\resetprg.c **** 
 177:D:/Work/DeviceTester/amazon-freertos/lib/third_party/mcu_vendor/renesas/rz_mcu_boards/core_package/generate/compiler/init\resetprg.c ****     /* 3: disable RTC clock while standby mode */
 178:D:/Work/DeviceTester/amazon-freertos/lib/third_party/mcu_vendor/renesas/rz_mcu_boards/core_package/generate/compiler/init\resetprg.c ****     mask  = rtcxtalsel_mask[ch];
 179:D:/Work/DeviceTester/amazon-freertos/lib/third_party/mcu_vendor/renesas/rz_mcu_boards/core_package/generate/compiler/init\resetprg.c ****     shift = rtcxtalsel_shift[ch];
 180:D:/Work/DeviceTester/amazon-freertos/lib/third_party/mcu_vendor/renesas/rz_mcu_boards/core_package/generate/compiler/init\resetprg.c ****     RZA_IO_RegWrite_16(&PMG.RTCXTALSEL.WORD, 0, shift, mask);
  79              		.loc 1 180 0
  80 0068 5C209FE5 		ldr	r2, .L5+4
 178:D:/Work/DeviceTester/amazon-freertos/lib/third_party/mcu_vendor/renesas/rz_mcu_boards/core_package/generate/compiler/init\resetprg.c ****     shift = rtcxtalsel_shift[ch];
  81              		.loc 1 178 0
  82 006c 8430A0E1 		lsl	r3, r4, #1
  83              		.loc 1 180 0
  84 0070 0610A0E1 		mov	r1, r6
  85 0074 54009FE5 		ldr	r0, .L5+8
  86              	.LVL7:
  87 0078 B33092E1 		ldrh	r3, [r2, r3]
  88 007c 50209FE5 		ldr	r2, .L5+12
  89 0080 0420D2E7 		ldrb	r2, [r2, r4]	@ zero_extendqisi2
  90 0084 FEFFFFEB 		bl	RZA_IO_RegWrite_16
  91              	.LVL8:
 181:D:/Work/DeviceTester/amazon-freertos/lib/third_party/mcu_vendor/renesas/rz_mcu_boards/core_package/generate/compiler/init\resetprg.c ****     RZA_IO_RegRead_16(&PMG.RTCXTALSEL.WORD, IOREG_NONSHIFT_ACCESS, IOREG_NONMASK_ACCESS);
  92              		.loc 1 181 0
  93 0088 0610A0E1 		mov	r1, r6
  94 008c 0020E0E3 		mvn	r2, #0
  95 0090 38009FE5 		ldr	r0, .L5+8
  96 0094 FEFFFFEB 		bl	RZA_IO_RegRead_16
  97              	.LVL9:
 182:D:/Work/DeviceTester/amazon-freertos/lib/third_party/mcu_vendor/renesas/rz_mcu_boards/core_package/generate/compiler/init\resetprg.c **** 
 183:D:/Work/DeviceTester/amazon-freertos/lib/third_party/mcu_vendor/renesas/rz_mcu_boards/core_package/generate/compiler/init\resetprg.c ****     /* 4: Stop RTC module */
 184:D:/Work/DeviceTester/amazon-freertos/lib/third_party/mcu_vendor/renesas/rz_mcu_boards/core_package/generate/compiler/init\resetprg.c ****     mask  = mstp_mask[ch];
 185:D:/Work/DeviceTester/amazon-freertos/lib/third_party/mcu_vendor/renesas/rz_mcu_boards/core_package/generate/compiler/init\resetprg.c ****     shift = mstp_shift[ch];
 186:D:/Work/DeviceTester/amazon-freertos/lib/third_party/mcu_vendor/renesas/rz_mcu_boards/core_package/generate/compiler/init\resetprg.c ****     RZA_IO_RegWrite_8(&CPG.STBCR5.BYTE, 1, shift, mask);
  98              		.loc 1 186 0
  99 0098 38309FE5 		ldr	r3, .L5+16
 100 009c 0110A0E3 		mov	r1, #1
 101 00a0 34209FE5 		ldr	r2, .L5+20
 102 00a4 34009FE5 		ldr	r0, .L5+24
 103 00a8 0430D3E7 		ldrb	r3, [r3, r4]	@ zero_extendqisi2
 104 00ac 0420D2E7 		ldrb	r2, [r2, r4]	@ zero_extendqisi2
 105 00b0 FEFFFFEB 		bl	RZA_IO_RegWrite_8
 106              	.LVL10:
 187:D:/Work/DeviceTester/amazon-freertos/lib/third_party/mcu_vendor/renesas/rz_mcu_boards/core_package/generate/compiler/init\resetprg.c ****     RZA_IO_RegRead_8(&CPG.STBCR5.BYTE, IOREG_NONSHIFT_ACCESS, IOREG_NONMASK_ACCESS);
 107              		.loc 1 187 0
 108 00b4 0610A0E1 		mov	r1, r6
 109 00b8 0020E0E3 		mvn	r2, #0
 110 00bc 1C009FE5 		ldr	r0, .L5+24
 188:D:/Work/DeviceTester/amazon-freertos/lib/third_party/mcu_vendor/renesas/rz_mcu_boards/core_package/generate/compiler/init\resetprg.c **** 
 189:D:/Work/DeviceTester/amazon-freertos/lib/third_party/mcu_vendor/renesas/rz_mcu_boards/core_package/generate/compiler/init\resetprg.c **** }
 111              		.loc 1 189 0
 112 00c0 7040BDE8 		pop	{r4, r5, r6, lr}
 113              		.cfi_restore 14
 114              		.cfi_restore 6
 115              		.cfi_restore 5
 116              		.cfi_restore 4
 117              		.cfi_def_cfa_offset 0
 118              	.LVL11:
 187:D:/Work/DeviceTester/amazon-freertos/lib/third_party/mcu_vendor/renesas/rz_mcu_boards/core_package/generate/compiler/init\resetprg.c ****     RZA_IO_RegRead_8(&CPG.STBCR5.BYTE, IOREG_NONSHIFT_ACCESS, IOREG_NONMASK_ACCESS);
 119              		.loc 1 187 0
 120 00c4 FEFFFFEA 		b	RZA_IO_RegRead_8
 121              	.LVL12:
 122              	.L6:
 123              		.align	2
 124              	.L5:
 125 00c8 00000000 		.word	.LANCHOR0
 126 00cc 00000000 		.word	.LANCHOR1
 127 00d0 40C0FFFC 		.word	-50347968
 128 00d4 00000000 		.word	.LANCHOR2
 129 00d8 00000000 		.word	.LANCHOR3
 130 00dc 00000000 		.word	.LANCHOR4
 131 00e0 2804FEFC 		.word	-50461656
 132              		.cfi_endproc
 133              	.LFE6:
 135              		.section	.text.disable_usb.part.1,"ax",%progbits
 136              		.align	2
 137              		.syntax unified
 138              		.arm
 139              		.fpu neon
 141              	disable_usb.part.1:
 142              	.LFB7:
 190:D:/Work/DeviceTester/amazon-freertos/lib/third_party/mcu_vendor/renesas/rz_mcu_boards/core_package/generate/compiler/init\resetprg.c **** /**************************************************************************************************
 191:D:/Work/DeviceTester/amazon-freertos/lib/third_party/mcu_vendor/renesas/rz_mcu_boards/core_package/generate/compiler/init\resetprg.c ****  End of function disable_rtc
 192:D:/Work/DeviceTester/amazon-freertos/lib/third_party/mcu_vendor/renesas/rz_mcu_boards/core_package/generate/compiler/init\resetprg.c ****  **************************************************************************************************
 193:D:/Work/DeviceTester/amazon-freertos/lib/third_party/mcu_vendor/renesas/rz_mcu_boards/core_package/generate/compiler/init\resetprg.c **** 
 194:D:/Work/DeviceTester/amazon-freertos/lib/third_party/mcu_vendor/renesas/rz_mcu_boards/core_package/generate/compiler/init\resetprg.c **** /**************************************************************************************************
 195:D:/Work/DeviceTester/amazon-freertos/lib/third_party/mcu_vendor/renesas/rz_mcu_boards/core_package/generate/compiler/init\resetprg.c ****  * Function Name: disable_usb
 196:D:/Work/DeviceTester/amazon-freertos/lib/third_party/mcu_vendor/renesas/rz_mcu_boards/core_package/generate/compiler/init\resetprg.c ****  * Description  : disable USB module (See HM 32.2.4.4, 32.2.4.5, 32.2.20, 33.2.20, 52.2.6 and 52.4.
 197:D:/Work/DeviceTester/amazon-freertos/lib/third_party/mcu_vendor/renesas/rz_mcu_boards/core_package/generate/compiler/init\resetprg.c ****  * Arguments    : uint32_t ch : channel
 198:D:/Work/DeviceTester/amazon-freertos/lib/third_party/mcu_vendor/renesas/rz_mcu_boards/core_package/generate/compiler/init\resetprg.c ****  * Return Value : none
 199:D:/Work/DeviceTester/amazon-freertos/lib/third_party/mcu_vendor/renesas/rz_mcu_boards/core_package/generate/compiler/init\resetprg.c ****  **************************************************************************************************
 200:D:/Work/DeviceTester/amazon-freertos/lib/third_party/mcu_vendor/renesas/rz_mcu_boards/core_package/generate/compiler/init\resetprg.c **** static void disable_usb(uint32_t ch)
 143              		.loc 1 200 0
 144              		.cfi_startproc
 145              		@ args = 0, pretend = 0, frame = 8
 146              		@ frame_needed = 0, uses_anonymous_args = 0
 147              	.LVL13:
 201:D:/Work/DeviceTester/amazon-freertos/lib/third_party/mcu_vendor/renesas/rz_mcu_boards/core_package/generate/compiler/init\resetprg.c **** {
 202:D:/Work/DeviceTester/amazon-freertos/lib/third_party/mcu_vendor/renesas/rz_mcu_boards/core_package/generate/compiler/init\resetprg.c ****     uint8_t dummy8;
 203:D:/Work/DeviceTester/amazon-freertos/lib/third_party/mcu_vendor/renesas/rz_mcu_boards/core_package/generate/compiler/init\resetprg.c ****     uint32_t mask;
 204:D:/Work/DeviceTester/amazon-freertos/lib/third_party/mcu_vendor/renesas/rz_mcu_boards/core_package/generate/compiler/init\resetprg.c ****     uint8_t shift;
 205:D:/Work/DeviceTester/amazon-freertos/lib/third_party/mcu_vendor/renesas/rz_mcu_boards/core_package/generate/compiler/init\resetprg.c **** 
 206:D:/Work/DeviceTester/amazon-freertos/lib/third_party/mcu_vendor/renesas/rz_mcu_boards/core_package/generate/compiler/init\resetprg.c ****     /* USB Host IO reg Top Address(ch0, ch1) */
 207:D:/Work/DeviceTester/amazon-freertos/lib/third_party/mcu_vendor/renesas/rz_mcu_boards/core_package/generate/compiler/init\resetprg.c ****     static volatile struct st_usb00 * const usb00_host[R_PRV_USB_COUNT] =
 208:D:/Work/DeviceTester/amazon-freertos/lib/third_party/mcu_vendor/renesas/rz_mcu_boards/core_package/generate/compiler/init\resetprg.c ****     {
 209:D:/Work/DeviceTester/amazon-freertos/lib/third_party/mcu_vendor/renesas/rz_mcu_boards/core_package/generate/compiler/init\resetprg.c ****         &USB00, &USB10
 210:D:/Work/DeviceTester/amazon-freertos/lib/third_party/mcu_vendor/renesas/rz_mcu_boards/core_package/generate/compiler/init\resetprg.c ****     };
 211:D:/Work/DeviceTester/amazon-freertos/lib/third_party/mcu_vendor/renesas/rz_mcu_boards/core_package/generate/compiler/init\resetprg.c **** 
 212:D:/Work/DeviceTester/amazon-freertos/lib/third_party/mcu_vendor/renesas/rz_mcu_boards/core_package/generate/compiler/init\resetprg.c ****     /* USB Function IO reg Top Address(ch0, ch1) */
 213:D:/Work/DeviceTester/amazon-freertos/lib/third_party/mcu_vendor/renesas/rz_mcu_boards/core_package/generate/compiler/init\resetprg.c ****     static volatile struct st_usb01 * const usb01_func[R_PRV_USB_COUNT] =
 214:D:/Work/DeviceTester/amazon-freertos/lib/third_party/mcu_vendor/renesas/rz_mcu_boards/core_package/generate/compiler/init\resetprg.c ****     {
 215:D:/Work/DeviceTester/amazon-freertos/lib/third_party/mcu_vendor/renesas/rz_mcu_boards/core_package/generate/compiler/init\resetprg.c ****         &USB01, &USB11
 216:D:/Work/DeviceTester/amazon-freertos/lib/third_party/mcu_vendor/renesas/rz_mcu_boards/core_package/generate/compiler/init\resetprg.c ****     };
 217:D:/Work/DeviceTester/amazon-freertos/lib/third_party/mcu_vendor/renesas/rz_mcu_boards/core_package/generate/compiler/init\resetprg.c **** 
 218:D:/Work/DeviceTester/amazon-freertos/lib/third_party/mcu_vendor/renesas/rz_mcu_boards/core_package/generate/compiler/init\resetprg.c ****     /* MSTP */
 219:D:/Work/DeviceTester/amazon-freertos/lib/third_party/mcu_vendor/renesas/rz_mcu_boards/core_package/generate/compiler/init\resetprg.c ****     static const uint8_t mstp_mask[R_PRV_USB_COUNT] =
 220:D:/Work/DeviceTester/amazon-freertos/lib/third_party/mcu_vendor/renesas/rz_mcu_boards/core_package/generate/compiler/init\resetprg.c ****     {
 221:D:/Work/DeviceTester/amazon-freertos/lib/third_party/mcu_vendor/renesas/rz_mcu_boards/core_package/generate/compiler/init\resetprg.c ****         CPG_STBCR6_MSTP61, CPG_STBCR6_MSTP60
 222:D:/Work/DeviceTester/amazon-freertos/lib/third_party/mcu_vendor/renesas/rz_mcu_boards/core_package/generate/compiler/init\resetprg.c ****     };
 223:D:/Work/DeviceTester/amazon-freertos/lib/third_party/mcu_vendor/renesas/rz_mcu_boards/core_package/generate/compiler/init\resetprg.c ****     static const uint8_t mstp_shift[R_PRV_USB_COUNT] =
 224:D:/Work/DeviceTester/amazon-freertos/lib/third_party/mcu_vendor/renesas/rz_mcu_boards/core_package/generate/compiler/init\resetprg.c ****     {
 225:D:/Work/DeviceTester/amazon-freertos/lib/third_party/mcu_vendor/renesas/rz_mcu_boards/core_package/generate/compiler/init\resetprg.c ****         CPG_STBCR6_MSTP61_SHIFT, CPG_STBCR6_MSTP60_SHIFT
 226:D:/Work/DeviceTester/amazon-freertos/lib/third_party/mcu_vendor/renesas/rz_mcu_boards/core_package/generate/compiler/init\resetprg.c ****     };
 227:D:/Work/DeviceTester/amazon-freertos/lib/third_party/mcu_vendor/renesas/rz_mcu_boards/core_package/generate/compiler/init\resetprg.c **** 
 228:D:/Work/DeviceTester/amazon-freertos/lib/third_party/mcu_vendor/renesas/rz_mcu_boards/core_package/generate/compiler/init\resetprg.c ****     /* STBREQ */
 229:D:/Work/DeviceTester/amazon-freertos/lib/third_party/mcu_vendor/renesas/rz_mcu_boards/core_package/generate/compiler/init\resetprg.c ****     static const uint8_t stbreq_mask[R_PRV_USB_COUNT] =
 230:D:/Work/DeviceTester/amazon-freertos/lib/third_party/mcu_vendor/renesas/rz_mcu_boards/core_package/generate/compiler/init\resetprg.c ****     {
 231:D:/Work/DeviceTester/amazon-freertos/lib/third_party/mcu_vendor/renesas/rz_mcu_boards/core_package/generate/compiler/init\resetprg.c ****         (CPG_STBREQ3_STBRQ31 | CPG_STBREQ3_STBRQ30), (CPG_STBREQ3_STBRQ33 | CPG_STBREQ3_STBRQ32)
 232:D:/Work/DeviceTester/amazon-freertos/lib/third_party/mcu_vendor/renesas/rz_mcu_boards/core_package/generate/compiler/init\resetprg.c ****     };
 233:D:/Work/DeviceTester/amazon-freertos/lib/third_party/mcu_vendor/renesas/rz_mcu_boards/core_package/generate/compiler/init\resetprg.c ****     static const uint8_t stbreq_shift[R_PRV_USB_COUNT] =
 234:D:/Work/DeviceTester/amazon-freertos/lib/third_party/mcu_vendor/renesas/rz_mcu_boards/core_package/generate/compiler/init\resetprg.c ****     {
 235:D:/Work/DeviceTester/amazon-freertos/lib/third_party/mcu_vendor/renesas/rz_mcu_boards/core_package/generate/compiler/init\resetprg.c ****         CPG_STBREQ3_STBRQ30_SHIFT, CPG_STBREQ3_STBRQ32_SHIFT
 236:D:/Work/DeviceTester/amazon-freertos/lib/third_party/mcu_vendor/renesas/rz_mcu_boards/core_package/generate/compiler/init\resetprg.c ****     };
 237:D:/Work/DeviceTester/amazon-freertos/lib/third_party/mcu_vendor/renesas/rz_mcu_boards/core_package/generate/compiler/init\resetprg.c **** 
 238:D:/Work/DeviceTester/amazon-freertos/lib/third_party/mcu_vendor/renesas/rz_mcu_boards/core_package/generate/compiler/init\resetprg.c ****     /* STBACK */
 239:D:/Work/DeviceTester/amazon-freertos/lib/third_party/mcu_vendor/renesas/rz_mcu_boards/core_package/generate/compiler/init\resetprg.c ****     static const uint8_t stback_mask[R_PRV_USB_COUNT] =
 240:D:/Work/DeviceTester/amazon-freertos/lib/third_party/mcu_vendor/renesas/rz_mcu_boards/core_package/generate/compiler/init\resetprg.c ****     {
 241:D:/Work/DeviceTester/amazon-freertos/lib/third_party/mcu_vendor/renesas/rz_mcu_boards/core_package/generate/compiler/init\resetprg.c ****         (CPG_STBACK3_STBAK31 | CPG_STBACK3_STBAK30), (CPG_STBACK3_STBAK33 | CPG_STBACK3_STBAK32)
 242:D:/Work/DeviceTester/amazon-freertos/lib/third_party/mcu_vendor/renesas/rz_mcu_boards/core_package/generate/compiler/init\resetprg.c ****     };
 243:D:/Work/DeviceTester/amazon-freertos/lib/third_party/mcu_vendor/renesas/rz_mcu_boards/core_package/generate/compiler/init\resetprg.c ****     static const uint8_t stback_shift[R_PRV_USB_COUNT] =
 244:D:/Work/DeviceTester/amazon-freertos/lib/third_party/mcu_vendor/renesas/rz_mcu_boards/core_package/generate/compiler/init\resetprg.c ****     {
 245:D:/Work/DeviceTester/amazon-freertos/lib/third_party/mcu_vendor/renesas/rz_mcu_boards/core_package/generate/compiler/init\resetprg.c ****         CPG_STBACK3_STBAK30_SHIFT, CPG_STBACK3_STBAK32_SHIFT
 246:D:/Work/DeviceTester/amazon-freertos/lib/third_party/mcu_vendor/renesas/rz_mcu_boards/core_package/generate/compiler/init\resetprg.c ****     };
 247:D:/Work/DeviceTester/amazon-freertos/lib/third_party/mcu_vendor/renesas/rz_mcu_boards/core_package/generate/compiler/init\resetprg.c **** 
 248:D:/Work/DeviceTester/amazon-freertos/lib/third_party/mcu_vendor/renesas/rz_mcu_boards/core_package/generate/compiler/init\resetprg.c ****     /* channel check */
 249:D:/Work/DeviceTester/amazon-freertos/lib/third_party/mcu_vendor/renesas/rz_mcu_boards/core_package/generate/compiler/init\resetprg.c ****     if (ch >= R_PRV_USB_COUNT)
 250:D:/Work/DeviceTester/amazon-freertos/lib/third_party/mcu_vendor/renesas/rz_mcu_boards/core_package/generate/compiler/init\resetprg.c ****     {
 251:D:/Work/DeviceTester/amazon-freertos/lib/third_party/mcu_vendor/renesas/rz_mcu_boards/core_package/generate/compiler/init\resetprg.c ****         return;
 252:D:/Work/DeviceTester/amazon-freertos/lib/third_party/mcu_vendor/renesas/rz_mcu_boards/core_package/generate/compiler/init\resetprg.c ****     }
 253:D:/Work/DeviceTester/amazon-freertos/lib/third_party/mcu_vendor/renesas/rz_mcu_boards/core_package/generate/compiler/init\resetprg.c **** 
 254:D:/Work/DeviceTester/amazon-freertos/lib/third_party/mcu_vendor/renesas/rz_mcu_boards/core_package/generate/compiler/init\resetprg.c ****     /* 1: Start USB module */
 255:D:/Work/DeviceTester/amazon-freertos/lib/third_party/mcu_vendor/renesas/rz_mcu_boards/core_package/generate/compiler/init\resetprg.c **** 
 256:D:/Work/DeviceTester/amazon-freertos/lib/third_party/mcu_vendor/renesas/rz_mcu_boards/core_package/generate/compiler/init\resetprg.c ****     /* MSTP = 0 */
 257:D:/Work/DeviceTester/amazon-freertos/lib/third_party/mcu_vendor/renesas/rz_mcu_boards/core_package/generate/compiler/init\resetprg.c ****     mask  = mstp_mask[ch];
 148              		.loc 1 257 0
 149 0000 A4319FE5 		ldr	r3, .L13
 200:D:/Work/DeviceTester/amazon-freertos/lib/third_party/mcu_vendor/renesas/rz_mcu_boards/core_package/generate/compiler/init\resetprg.c **** {
 150              		.loc 1 200 0
 151 0004 F74F2DE9 		push	{r0, r1, r2, r4, r5, r6, r7, r8, r9, r10, fp, lr}
 152              		.cfi_def_cfa_offset 48
 153              		.cfi_offset 4, -36
 154              		.cfi_offset 5, -32
 155              		.cfi_offset 6, -28
 156              		.cfi_offset 7, -24
 157              		.cfi_offset 8, -20
 158              		.cfi_offset 9, -16
 159              		.cfi_offset 10, -12
 160              		.cfi_offset 11, -8
 161              		.cfi_offset 14, -4
 200:D:/Work/DeviceTester/amazon-freertos/lib/third_party/mcu_vendor/renesas/rz_mcu_boards/core_package/generate/compiler/init\resetprg.c **** {
 162              		.loc 1 200 0
 163 0008 0040A0E1 		mov	r4, r0
 258:D:/Work/DeviceTester/amazon-freertos/lib/third_party/mcu_vendor/renesas/rz_mcu_boards/core_package/generate/compiler/init\resetprg.c ****     shift = mstp_shift[ch];
 259:D:/Work/DeviceTester/amazon-freertos/lib/third_party/mcu_vendor/renesas/rz_mcu_boards/core_package/generate/compiler/init\resetprg.c ****     RZA_IO_RegWrite_8(&CPG.STBCR6.BYTE, 0, shift, mask);
 164              		.loc 1 259 0
 165 000c 0010A0E3 		mov	r1, #0
 260:D:/Work/DeviceTester/amazon-freertos/lib/third_party/mcu_vendor/renesas/rz_mcu_boards/core_package/generate/compiler/init\resetprg.c ****     RZA_IO_RegRead_8(&CPG.STBCR6.BYTE, IOREG_NONSHIFT_ACCESS, IOREG_NONMASK_ACCESS);
 261:D:/Work/DeviceTester/amazon-freertos/lib/third_party/mcu_vendor/renesas/rz_mcu_boards/core_package/generate/compiler/init\resetprg.c **** 
 262:D:/Work/DeviceTester/amazon-freertos/lib/third_party/mcu_vendor/renesas/rz_mcu_boards/core_package/generate/compiler/init\resetprg.c ****     /* STBREQ = 0 */
 263:D:/Work/DeviceTester/amazon-freertos/lib/third_party/mcu_vendor/renesas/rz_mcu_boards/core_package/generate/compiler/init\resetprg.c ****     mask  = stbreq_mask[ch];
 264:D:/Work/DeviceTester/amazon-freertos/lib/third_party/mcu_vendor/renesas/rz_mcu_boards/core_package/generate/compiler/init\resetprg.c ****     shift = stbreq_shift[ch];
 265:D:/Work/DeviceTester/amazon-freertos/lib/third_party/mcu_vendor/renesas/rz_mcu_boards/core_package/generate/compiler/init\resetprg.c ****     RZA_IO_RegWrite_8(&CPG.STBREQ3.BYTE, 0x0, shift, mask);
 266:D:/Work/DeviceTester/amazon-freertos/lib/third_party/mcu_vendor/renesas/rz_mcu_boards/core_package/generate/compiler/init\resetprg.c ****     RZA_IO_RegRead_8(&CPG.STBREQ3.BYTE, IOREG_NONSHIFT_ACCESS, IOREG_NONMASK_ACCESS);
 267:D:/Work/DeviceTester/amazon-freertos/lib/third_party/mcu_vendor/renesas/rz_mcu_boards/core_package/generate/compiler/init\resetprg.c **** 
 268:D:/Work/DeviceTester/amazon-freertos/lib/third_party/mcu_vendor/renesas/rz_mcu_boards/core_package/generate/compiler/init\resetprg.c ****     /* check STBACK = 0 */
 269:D:/Work/DeviceTester/amazon-freertos/lib/third_party/mcu_vendor/renesas/rz_mcu_boards/core_package/generate/compiler/init\resetprg.c ****     mask  = stback_mask[ch];
 270:D:/Work/DeviceTester/amazon-freertos/lib/third_party/mcu_vendor/renesas/rz_mcu_boards/core_package/generate/compiler/init\resetprg.c ****     shift = stback_shift[ch];
 271:D:/Work/DeviceTester/amazon-freertos/lib/third_party/mcu_vendor/renesas/rz_mcu_boards/core_package/generate/compiler/init\resetprg.c ****     dummy8 = 0x3;
 272:D:/Work/DeviceTester/amazon-freertos/lib/third_party/mcu_vendor/renesas/rz_mcu_boards/core_package/generate/compiler/init\resetprg.c ****     while (0x0 != dummy8)
 273:D:/Work/DeviceTester/amazon-freertos/lib/third_party/mcu_vendor/renesas/rz_mcu_boards/core_package/generate/compiler/init\resetprg.c ****     {
 274:D:/Work/DeviceTester/amazon-freertos/lib/third_party/mcu_vendor/renesas/rz_mcu_boards/core_package/generate/compiler/init\resetprg.c ****         dummy8 = RZA_IO_RegRead_8(&CPG.STBACK3.BYTE, shift, mask);
 166              		.loc 1 274 0
 167 0010 98619FE5 		ldr	r6, .L13+4
 257:D:/Work/DeviceTester/amazon-freertos/lib/third_party/mcu_vendor/renesas/rz_mcu_boards/core_package/generate/compiler/init\resetprg.c ****     shift = mstp_shift[ch];
 168              		.loc 1 257 0
 169 0014 0080D3E7 		ldrb	r8, [r3, r0]	@ zero_extendqisi2
 170              	.LVL14:
 258:D:/Work/DeviceTester/amazon-freertos/lib/third_party/mcu_vendor/renesas/rz_mcu_boards/core_package/generate/compiler/init\resetprg.c ****     shift = mstp_shift[ch];
 171              		.loc 1 258 0
 172 0018 94319FE5 		ldr	r3, .L13+8
 173 001c 0070D3E7 		ldrb	r7, [r3, r0]	@ zero_extendqisi2
 174              	.LVL15:
 259:D:/Work/DeviceTester/amazon-freertos/lib/third_party/mcu_vendor/renesas/rz_mcu_boards/core_package/generate/compiler/init\resetprg.c ****     RZA_IO_RegRead_8(&CPG.STBCR6.BYTE, IOREG_NONSHIFT_ACCESS, IOREG_NONMASK_ACCESS);
 175              		.loc 1 259 0
 176 0020 0830A0E1 		mov	r3, r8
 177 0024 8C019FE5 		ldr	r0, .L13+12
 178              	.LVL16:
 179 0028 0720A0E1 		mov	r2, r7
 180 002c FEFFFFEB 		bl	RZA_IO_RegWrite_8
 181              	.LVL17:
 260:D:/Work/DeviceTester/amazon-freertos/lib/third_party/mcu_vendor/renesas/rz_mcu_boards/core_package/generate/compiler/init\resetprg.c ****     RZA_IO_RegRead_8(&CPG.STBCR6.BYTE, IOREG_NONSHIFT_ACCESS, IOREG_NONMASK_ACCESS);
 182              		.loc 1 260 0
 183 0030 0020E0E3 		mvn	r2, #0
 184 0034 0010A0E3 		mov	r1, #0
 185 0038 78019FE5 		ldr	r0, .L13+12
 186 003c FEFFFFEB 		bl	RZA_IO_RegRead_8
 187              	.LVL18:
 263:D:/Work/DeviceTester/amazon-freertos/lib/third_party/mcu_vendor/renesas/rz_mcu_boards/core_package/generate/compiler/init\resetprg.c ****     shift = stbreq_shift[ch];
 188              		.loc 1 263 0
 189 0040 74319FE5 		ldr	r3, .L13+16
 265:D:/Work/DeviceTester/amazon-freertos/lib/third_party/mcu_vendor/renesas/rz_mcu_boards/core_package/generate/compiler/init\resetprg.c ****     RZA_IO_RegRead_8(&CPG.STBREQ3.BYTE, IOREG_NONSHIFT_ACCESS, IOREG_NONMASK_ACCESS);
 190              		.loc 1 265 0
 191 0044 0010A0E3 		mov	r1, #0
 192 0048 70019FE5 		ldr	r0, .L13+20
 263:D:/Work/DeviceTester/amazon-freertos/lib/third_party/mcu_vendor/renesas/rz_mcu_boards/core_package/generate/compiler/init\resetprg.c ****     shift = stbreq_shift[ch];
 193              		.loc 1 263 0
 194 004c 04B0D3E7 		ldrb	fp, [r3, r4]	@ zero_extendqisi2
 195              	.LVL19:
 264:D:/Work/DeviceTester/amazon-freertos/lib/third_party/mcu_vendor/renesas/rz_mcu_boards/core_package/generate/compiler/init\resetprg.c ****     RZA_IO_RegWrite_8(&CPG.STBREQ3.BYTE, 0x0, shift, mask);
 196              		.loc 1 264 0
 197 0050 6C319FE5 		ldr	r3, .L13+24
 198 0054 04A0D3E7 		ldrb	r10, [r3, r4]	@ zero_extendqisi2
 199              	.LVL20:
 265:D:/Work/DeviceTester/amazon-freertos/lib/third_party/mcu_vendor/renesas/rz_mcu_boards/core_package/generate/compiler/init\resetprg.c ****     RZA_IO_RegRead_8(&CPG.STBREQ3.BYTE, IOREG_NONSHIFT_ACCESS, IOREG_NONMASK_ACCESS);
 200              		.loc 1 265 0
 201 0058 0B30A0E1 		mov	r3, fp
 202 005c 0A20A0E1 		mov	r2, r10
 203 0060 FEFFFFEB 		bl	RZA_IO_RegWrite_8
 204              	.LVL21:
 266:D:/Work/DeviceTester/amazon-freertos/lib/third_party/mcu_vendor/renesas/rz_mcu_boards/core_package/generate/compiler/init\resetprg.c **** 
 205              		.loc 1 266 0
 206 0064 0020E0E3 		mvn	r2, #0
 207 0068 0010A0E3 		mov	r1, #0
 208 006c 4C019FE5 		ldr	r0, .L13+20
 209 0070 FEFFFFEB 		bl	RZA_IO_RegRead_8
 210              	.LVL22:
 269:D:/Work/DeviceTester/amazon-freertos/lib/third_party/mcu_vendor/renesas/rz_mcu_boards/core_package/generate/compiler/init\resetprg.c ****     shift = stback_shift[ch];
 211              		.loc 1 269 0
 212 0074 4C319FE5 		ldr	r3, .L13+28
 213 0078 0490D3E7 		ldrb	r9, [r3, r4]	@ zero_extendqisi2
 214              	.LVL23:
 270:D:/Work/DeviceTester/amazon-freertos/lib/third_party/mcu_vendor/renesas/rz_mcu_boards/core_package/generate/compiler/init\resetprg.c ****     dummy8 = 0x3;
 215              		.loc 1 270 0
 216 007c 48319FE5 		ldr	r3, .L13+32
 217 0080 0430D3E7 		ldrb	r3, [r3, r4]	@ zero_extendqisi2
 218 0084 04308DE5 		str	r3, [sp, #4]
 219              	.LVL24:
 220              	.L8:
 221              		.loc 1 274 0
 222 0088 0920A0E1 		mov	r2, r9
 223 008c 04109DE5 		ldr	r1, [sp, #4]
 224 0090 0600A0E1 		mov	r0, r6
 225 0094 FEFFFFEB 		bl	RZA_IO_RegRead_8
 226              	.LVL25:
 272:D:/Work/DeviceTester/amazon-freertos/lib/third_party/mcu_vendor/renesas/rz_mcu_boards/core_package/generate/compiler/init\resetprg.c ****     {
 227              		.loc 1 272 0
 228 0098 005050E2 		subs	r5, r0, #0
 229 009c F9FFFF1A 		bne	.L8
 275:D:/Work/DeviceTester/amazon-freertos/lib/third_party/mcu_vendor/renesas/rz_mcu_boards/core_package/generate/compiler/init\resetprg.c ****     }
 276:D:/Work/DeviceTester/amazon-freertos/lib/third_party/mcu_vendor/renesas/rz_mcu_boards/core_package/generate/compiler/init\resetprg.c **** 
 277:D:/Work/DeviceTester/amazon-freertos/lib/third_party/mcu_vendor/renesas/rz_mcu_boards/core_package/generate/compiler/init\resetprg.c ****     /* 2: Set the clock supplied to USBPHY to EXTAL clock (PHYCLK_CTRL.UCLKSEL = 0) */
 278:D:/Work/DeviceTester/amazon-freertos/lib/third_party/mcu_vendor/renesas/rz_mcu_boards/core_package/generate/compiler/init\resetprg.c ****     RZA_IO_RegWrite_32(&usb00_host[ch]->PHYCLK_CTRL.LONG, 0, USB_PHYCLK_CTRL_UCLKSEL_SHIFT, USB_PHY
 230              		.loc 1 278 0
 231 00a0 28319FE5 		ldr	r3, .L13+36
 232 00a4 0520A0E1 		mov	r2, r5
 233 00a8 0510A0E1 		mov	r1, r5
 234 00ac 046193E7 		ldr	r6, [r3, r4, lsl #2]
 235 00b0 0130A0E3 		mov	r3, #1
 236 00b4 210D86E2 		add	r0, r6, #2112
 237              	.LVL26:
 238 00b8 040080E2 		add	r0, r0, #4
 239 00bc FEFFFFEB 		bl	RZA_IO_RegWrite_32
 240              	.LVL27:
 279:D:/Work/DeviceTester/amazon-freertos/lib/third_party/mcu_vendor/renesas/rz_mcu_boards/core_package/generate/compiler/init\resetprg.c **** 
 280:D:/Work/DeviceTester/amazon-freertos/lib/third_party/mcu_vendor/renesas/rz_mcu_boards/core_package/generate/compiler/init\resetprg.c ****     /* 3: It can recover from deep standby by DP, DM change (PHYIF_CTRL.FIXPHY = 1) */
 281:D:/Work/DeviceTester/amazon-freertos/lib/third_party/mcu_vendor/renesas/rz_mcu_boards/core_package/generate/compiler/init\resetprg.c ****     RZA_IO_RegWrite_32(&usb00_host[ch]->PHYIF_CTRL.LONG, 1, USB_PHYIF_CTRL_FIXPHY_SHIFT, USB_PHYIF_
 241              		.loc 1 281 0
 242 00c0 0130A0E3 		mov	r3, #1
 243 00c4 210D86E2 		add	r0, r6, #2112
 244 00c8 0310A0E1 		mov	r1, r3
 245 00cc 0520A0E1 		mov	r2, r5
 246 00d0 080080E2 		add	r0, r0, #8
 247 00d4 FEFFFFEB 		bl	RZA_IO_RegWrite_32
 248              	.LVL28:
 282:D:/Work/DeviceTester/amazon-freertos/lib/third_party/mcu_vendor/renesas/rz_mcu_boards/core_package/generate/compiler/init\resetprg.c **** 
 283:D:/Work/DeviceTester/amazon-freertos/lib/third_party/mcu_vendor/renesas/rz_mcu_boards/core_package/generate/compiler/init\resetprg.c ****     /* 4: UTMI+PHY Normal Mode (LPSTS.SUSPM = 1) */
 284:D:/Work/DeviceTester/amazon-freertos/lib/third_party/mcu_vendor/renesas/rz_mcu_boards/core_package/generate/compiler/init\resetprg.c ****     RZA_IO_RegWrite_16(&usb01_func[ch]->LPSTS.WORD, 1, USB_LPSTS_SUSPM_SHIFT, USB_LPSTS_SUSPM);
 249              		.loc 1 284 0
 250 00d8 F4309FE5 		ldr	r3, .L13+40
 251 00dc 0E20A0E3 		mov	r2, #14
 252 00e0 0110A0E3 		mov	r1, #1
 253 00e4 040193E7 		ldr	r0, [r3, r4, lsl #2]
 285:D:/Work/DeviceTester/amazon-freertos/lib/third_party/mcu_vendor/renesas/rz_mcu_boards/core_package/generate/compiler/init\resetprg.c **** 
 286:D:/Work/DeviceTester/amazon-freertos/lib/third_party/mcu_vendor/renesas/rz_mcu_boards/core_package/generate/compiler/init\resetprg.c ****     /* 5: UTMI + reset release (USBCTR.PLL_RST = 0) */
 287:D:/Work/DeviceTester/amazon-freertos/lib/third_party/mcu_vendor/renesas/rz_mcu_boards/core_package/generate/compiler/init\resetprg.c ****     RZA_IO_RegWrite_32(&usb00_host[ch]->USBCTR.LONG, 0, USB_USBCTR_PLL_RST_SHIFT, USB_USBCTR_PLL_RS
 254              		.loc 1 287 0
 255 00e8 834F86E2 		add	r4, r6, #524
 256              	.LVL29:
 284:D:/Work/DeviceTester/amazon-freertos/lib/third_party/mcu_vendor/renesas/rz_mcu_boards/core_package/generate/compiler/init\resetprg.c **** 
 257              		.loc 1 284 0
 258 00ec 0139A0E3 		mov	r3, #16384
 259 00f0 010C80E2 		add	r0, r0, #256
 260 00f4 020080E2 		add	r0, r0, #2
 261 00f8 FEFFFFEB 		bl	RZA_IO_RegWrite_16
 262              	.LVL30:
 263              		.loc 1 287 0
 264 00fc 0230A0E3 		mov	r3, #2
 265 0100 0120A0E3 		mov	r2, #1
 266 0104 0510A0E1 		mov	r1, r5
 267 0108 0400A0E1 		mov	r0, r4
 268 010c FEFFFFEB 		bl	RZA_IO_RegWrite_32
 269              	.LVL31:
 288:D:/Work/DeviceTester/amazon-freertos/lib/third_party/mcu_vendor/renesas/rz_mcu_boards/core_package/generate/compiler/init\resetprg.c **** 
 289:D:/Work/DeviceTester/amazon-freertos/lib/third_party/mcu_vendor/renesas/rz_mcu_boards/core_package/generate/compiler/init\resetprg.c ****     /* 6: wait 200us delay(Waiting for oscillation stabilization of USBPHY built-in PLL) */
 290:D:/Work/DeviceTester/amazon-freertos/lib/third_party/mcu_vendor/renesas/rz_mcu_boards/core_package/generate/compiler/init\resetprg.c ****     R_SoftwareDelay(STARTUP_CFG_USB_PHY_PLL_DELAY_COUNT);
 270              		.loc 1 290 0
 271 0110 7D0FA0E3 		mov	r0, #500
 272 0114 FEFFFFEB 		bl	R_SoftwareDelay
 273              	.LVL32:
 291:D:/Work/DeviceTester/amazon-freertos/lib/third_party/mcu_vendor/renesas/rz_mcu_boards/core_package/generate/compiler/init\resetprg.c **** 
 292:D:/Work/DeviceTester/amazon-freertos/lib/third_party/mcu_vendor/renesas/rz_mcu_boards/core_package/generate/compiler/init\resetprg.c ****     /* 7: Pulldown resistance control is effective (LINECTRL1 = 0x000A0000) */
 293:D:/Work/DeviceTester/amazon-freertos/lib/third_party/mcu_vendor/renesas/rz_mcu_boards/core_package/generate/compiler/init\resetprg.c ****     RZA_IO_RegWrite_32(
 274              		.loc 1 293 0
 275 0118 0030E0E3 		mvn	r3, #0
 276 011c 0520A0E1 		mov	r2, r5
 277 0120 0A18A0E3 		mov	r1, #655360
 278 0124 810E86E2 		add	r0, r6, #2064
 279 0128 FEFFFFEB 		bl	RZA_IO_RegWrite_32
 280              	.LVL33:
 294:D:/Work/DeviceTester/amazon-freertos/lib/third_party/mcu_vendor/renesas/rz_mcu_boards/core_package/generate/compiler/init\resetprg.c ****             &usb00_host[ch]->LINECTRL1.LONG,
 295:D:/Work/DeviceTester/amazon-freertos/lib/third_party/mcu_vendor/renesas/rz_mcu_boards/core_package/generate/compiler/init\resetprg.c ****             (USB_LINECTRL1_DPRPD_EN | USB_LINECTRL1_DMRPD_EN),
 296:D:/Work/DeviceTester/amazon-freertos/lib/third_party/mcu_vendor/renesas/rz_mcu_boards/core_package/generate/compiler/init\resetprg.c ****             IOREG_NONSHIFT_ACCESS,
 297:D:/Work/DeviceTester/amazon-freertos/lib/third_party/mcu_vendor/renesas/rz_mcu_boards/core_package/generate/compiler/init\resetprg.c ****             IOREG_NONMASK_ACCESS);
 298:D:/Work/DeviceTester/amazon-freertos/lib/third_party/mcu_vendor/renesas/rz_mcu_boards/core_package/generate/compiler/init\resetprg.c **** 
 299:D:/Work/DeviceTester/amazon-freertos/lib/third_party/mcu_vendor/renesas/rz_mcu_boards/core_package/generate/compiler/init\resetprg.c ****     /* 8: USBPHY standby mode (USBCTR.DIRPD = 1) */
 300:D:/Work/DeviceTester/amazon-freertos/lib/third_party/mcu_vendor/renesas/rz_mcu_boards/core_package/generate/compiler/init\resetprg.c ****     RZA_IO_RegWrite_32(&usb00_host[ch]->USBCTR.LONG, 1, USB_USBCTR_DIRPD_SHIFT, USB_USBCTR_DIRPD);
 281              		.loc 1 300 0
 282 012c 0400A0E1 		mov	r0, r4
 301:D:/Work/DeviceTester/amazon-freertos/lib/third_party/mcu_vendor/renesas/rz_mcu_boards/core_package/generate/compiler/init\resetprg.c **** 
 302:D:/Work/DeviceTester/amazon-freertos/lib/third_party/mcu_vendor/renesas/rz_mcu_boards/core_package/generate/compiler/init\resetprg.c ****     /* 9: Stop USB module */
 303:D:/Work/DeviceTester/amazon-freertos/lib/third_party/mcu_vendor/renesas/rz_mcu_boards/core_package/generate/compiler/init\resetprg.c **** 
 304:D:/Work/DeviceTester/amazon-freertos/lib/third_party/mcu_vendor/renesas/rz_mcu_boards/core_package/generate/compiler/init\resetprg.c ****     /* STBREQ = 1 */
 305:D:/Work/DeviceTester/amazon-freertos/lib/third_party/mcu_vendor/renesas/rz_mcu_boards/core_package/generate/compiler/init\resetprg.c ****     mask  = stbreq_mask[ch];
 306:D:/Work/DeviceTester/amazon-freertos/lib/third_party/mcu_vendor/renesas/rz_mcu_boards/core_package/generate/compiler/init\resetprg.c ****     shift = stbreq_shift[ch];
 307:D:/Work/DeviceTester/amazon-freertos/lib/third_party/mcu_vendor/renesas/rz_mcu_boards/core_package/generate/compiler/init\resetprg.c ****     RZA_IO_RegWrite_8(&CPG.STBREQ3.BYTE, 0x3, shift, mask);
 308:D:/Work/DeviceTester/amazon-freertos/lib/third_party/mcu_vendor/renesas/rz_mcu_boards/core_package/generate/compiler/init\resetprg.c ****     RZA_IO_RegRead_8(&CPG.STBREQ3.BYTE, IOREG_NONSHIFT_ACCESS, IOREG_NONMASK_ACCESS);
 309:D:/Work/DeviceTester/amazon-freertos/lib/third_party/mcu_vendor/renesas/rz_mcu_boards/core_package/generate/compiler/init\resetprg.c **** 
 310:D:/Work/DeviceTester/amazon-freertos/lib/third_party/mcu_vendor/renesas/rz_mcu_boards/core_package/generate/compiler/init\resetprg.c ****     /* check STBACK = 1 */
 311:D:/Work/DeviceTester/amazon-freertos/lib/third_party/mcu_vendor/renesas/rz_mcu_boards/core_package/generate/compiler/init\resetprg.c ****     mask  = stback_mask[ch];
 312:D:/Work/DeviceTester/amazon-freertos/lib/third_party/mcu_vendor/renesas/rz_mcu_boards/core_package/generate/compiler/init\resetprg.c ****     shift = stback_shift[ch];
 313:D:/Work/DeviceTester/amazon-freertos/lib/third_party/mcu_vendor/renesas/rz_mcu_boards/core_package/generate/compiler/init\resetprg.c ****     dummy8 = 0x0;
 314:D:/Work/DeviceTester/amazon-freertos/lib/third_party/mcu_vendor/renesas/rz_mcu_boards/core_package/generate/compiler/init\resetprg.c ****     while (0x3 != dummy8)
 315:D:/Work/DeviceTester/amazon-freertos/lib/third_party/mcu_vendor/renesas/rz_mcu_boards/core_package/generate/compiler/init\resetprg.c ****     {
 316:D:/Work/DeviceTester/amazon-freertos/lib/third_party/mcu_vendor/renesas/rz_mcu_boards/core_package/generate/compiler/init\resetprg.c ****         dummy8 = RZA_IO_RegRead_8(&CPG.STBACK3.BYTE, shift, mask);
 283              		.loc 1 316 0
 284 0130 78409FE5 		ldr	r4, .L13+4
 300:D:/Work/DeviceTester/amazon-freertos/lib/third_party/mcu_vendor/renesas/rz_mcu_boards/core_package/generate/compiler/init\resetprg.c **** 
 285              		.loc 1 300 0
 286 0134 0430A0E3 		mov	r3, #4
 287 0138 0220A0E3 		mov	r2, #2
 288 013c 0110A0E3 		mov	r1, #1
 289 0140 FEFFFFEB 		bl	RZA_IO_RegWrite_32
 290              	.LVL34:
 307:D:/Work/DeviceTester/amazon-freertos/lib/third_party/mcu_vendor/renesas/rz_mcu_boards/core_package/generate/compiler/init\resetprg.c ****     RZA_IO_RegRead_8(&CPG.STBREQ3.BYTE, IOREG_NONSHIFT_ACCESS, IOREG_NONMASK_ACCESS);
 291              		.loc 1 307 0
 292 0144 0B30A0E1 		mov	r3, fp
 293 0148 0A20A0E1 		mov	r2, r10
 294 014c 0310A0E3 		mov	r1, #3
 295 0150 68009FE5 		ldr	r0, .L13+20
 296 0154 FEFFFFEB 		bl	RZA_IO_RegWrite_8
 297              	.LVL35:
 308:D:/Work/DeviceTester/amazon-freertos/lib/third_party/mcu_vendor/renesas/rz_mcu_boards/core_package/generate/compiler/init\resetprg.c **** 
 298              		.loc 1 308 0
 299 0158 0020E0E3 		mvn	r2, #0
 300 015c 0510A0E1 		mov	r1, r5
 301 0160 58009FE5 		ldr	r0, .L13+20
 302 0164 FEFFFFEB 		bl	RZA_IO_RegRead_8
 303              	.LVL36:
 304              	.L9:
 305              		.loc 1 316 0
 306 0168 0920A0E1 		mov	r2, r9
 307 016c 04109DE5 		ldr	r1, [sp, #4]
 308 0170 0400A0E1 		mov	r0, r4
 309 0174 FEFFFFEB 		bl	RZA_IO_RegRead_8
 310              	.LVL37:
 314:D:/Work/DeviceTester/amazon-freertos/lib/third_party/mcu_vendor/renesas/rz_mcu_boards/core_package/generate/compiler/init\resetprg.c ****     {
 311              		.loc 1 314 0
 312 0178 030050E3 		cmp	r0, #3
 313 017c F9FFFF1A 		bne	.L9
 314              	.LVL38:
 317:D:/Work/DeviceTester/amazon-freertos/lib/third_party/mcu_vendor/renesas/rz_mcu_boards/core_package/generate/compiler/init\resetprg.c ****     }
 318:D:/Work/DeviceTester/amazon-freertos/lib/third_party/mcu_vendor/renesas/rz_mcu_boards/core_package/generate/compiler/init\resetprg.c **** 
 319:D:/Work/DeviceTester/amazon-freertos/lib/third_party/mcu_vendor/renesas/rz_mcu_boards/core_package/generate/compiler/init\resetprg.c ****     /* MSTP = 1 */
 320:D:/Work/DeviceTester/amazon-freertos/lib/third_party/mcu_vendor/renesas/rz_mcu_boards/core_package/generate/compiler/init\resetprg.c ****     mask  = mstp_mask[ch];
 321:D:/Work/DeviceTester/amazon-freertos/lib/third_party/mcu_vendor/renesas/rz_mcu_boards/core_package/generate/compiler/init\resetprg.c ****     shift = mstp_shift[ch];
 322:D:/Work/DeviceTester/amazon-freertos/lib/third_party/mcu_vendor/renesas/rz_mcu_boards/core_package/generate/compiler/init\resetprg.c ****     RZA_IO_RegWrite_8(&CPG.STBCR6.BYTE, 1, shift, mask);
 315              		.loc 1 322 0
 316 0180 0720A0E1 		mov	r2, r7
 317 0184 0830A0E1 		mov	r3, r8
 318 0188 0110A0E3 		mov	r1, #1
 319 018c 24009FE5 		ldr	r0, .L13+12
 320              	.LVL39:
 321 0190 FEFFFFEB 		bl	RZA_IO_RegWrite_8
 322              	.LVL40:
 323:D:/Work/DeviceTester/amazon-freertos/lib/third_party/mcu_vendor/renesas/rz_mcu_boards/core_package/generate/compiler/init\resetprg.c ****     RZA_IO_RegRead_8(&CPG.STBCR6.BYTE, IOREG_NONSHIFT_ACCESS, IOREG_NONMASK_ACCESS);
 323              		.loc 1 323 0
 324 0194 0020E0E3 		mvn	r2, #0
 325 0198 0010A0E3 		mov	r1, #0
 326 019c 14009FE5 		ldr	r0, .L13+12
 324:D:/Work/DeviceTester/amazon-freertos/lib/third_party/mcu_vendor/renesas/rz_mcu_boards/core_package/generate/compiler/init\resetprg.c **** 
 325:D:/Work/DeviceTester/amazon-freertos/lib/third_party/mcu_vendor/renesas/rz_mcu_boards/core_package/generate/compiler/init\resetprg.c **** }
 327              		.loc 1 325 0
 328 01a0 0CD08DE2 		add	sp, sp, #12
 329              		.cfi_def_cfa_offset 36
 330              		@ sp needed
 331 01a4 F04FBDE8 		pop	{r4, r5, r6, r7, r8, r9, r10, fp, lr}
 332              		.cfi_restore 14
 333              		.cfi_restore 11
 334              		.cfi_restore 10
 335              		.cfi_restore 9
 336              		.cfi_restore 8
 337              		.cfi_restore 7
 338              		.cfi_restore 6
 339              		.cfi_restore 5
 340              		.cfi_restore 4
 341              		.cfi_def_cfa_offset 0
 342              	.LVL41:
 323:D:/Work/DeviceTester/amazon-freertos/lib/third_party/mcu_vendor/renesas/rz_mcu_boards/core_package/generate/compiler/init\resetprg.c ****     RZA_IO_RegRead_8(&CPG.STBCR6.BYTE, IOREG_NONSHIFT_ACCESS, IOREG_NONMASK_ACCESS);
 343              		.loc 1 323 0
 344 01a8 FEFFFFEA 		b	RZA_IO_RegRead_8
 345              	.LVL42:
 346              	.L14:
 347              		.align	2
 348              	.L13:
 349 01ac 00000000 		.word	.LANCHOR5
 350 01b0 4800FEFC 		.word	-50462648
 351 01b4 00000000 		.word	.LANCHOR6
 352 01b8 2C04FEFC 		.word	-50461652
 353 01bc 00000000 		.word	stbreq_mask.69244
 354 01c0 3800FEFC 		.word	-50462664
 355 01c4 00000000 		.word	stbreq_shift.69245
 356 01c8 00000000 		.word	.LANCHOR7
 357 01cc 00000000 		.word	.LANCHOR8
 358 01d0 00000000 		.word	.LANCHOR9
 359 01d4 00000000 		.word	.LANCHOR10
 360              		.cfi_endproc
 361              	.LFE7:
 363              		.section	.text.resetprg,"ax",%progbits
 364              		.align	2
 365              		.global	resetprg
 366              		.syntax unified
 367              		.arm
 368              		.fpu neon
 370              	resetprg:
 371              	.LFB3:
  70:D:/Work/DeviceTester/amazon-freertos/lib/third_party/mcu_vendor/renesas/rz_mcu_boards/core_package/generate/compiler/init\resetprg.c ****     /* Disable RTC if macro defined as 1 */
 372              		.loc 1 70 0
 373              		.cfi_startproc
 374              		@ Volatile: function does not return.
 375              		@ args = 0, pretend = 0, frame = 0
 376              		@ frame_needed = 0, uses_anonymous_args = 0
 377              	.LVL43:
 378 0000 10402DE9 		push	{r4, lr}
 379              		.cfi_def_cfa_offset 8
 380              		.cfi_offset 4, -8
 381              		.cfi_offset 14, -4
 382              	.LBB14:
 383              	.LBB15:
 384 0004 0000A0E3 		mov	r0, #0
 385 0008 FEFFFFEB 		bl	disable_rtc.part.0
 386              	.LVL44:
 387              	.LBE15:
 388              	.LBE14:
 389              	.LBB16:
 390              	.LBB17:
 391 000c 0100A0E3 		mov	r0, #1
 392 0010 FEFFFFEB 		bl	disable_rtc.part.0
 393              	.LVL45:
 394              	.LBE17:
 395              	.LBE16:
 396              	.LBB18:
 397              	.LBB19:
 398 0014 0000A0E3 		mov	r0, #0
 399 0018 FEFFFFEB 		bl	disable_usb.part.1
 400              	.LVL46:
 401              	.LBE19:
 402              	.LBE18:
 403              	.LBB20:
 404              	.LBB21:
 405 001c 0100A0E3 		mov	r0, #1
 406 0020 FEFFFFEB 		bl	disable_usb.part.1
 407              	.LVL47:
 408              	.LBE21:
 409              	.LBE20:
  90:D:/Work/DeviceTester/amazon-freertos/lib/third_party/mcu_vendor/renesas/rz_mcu_boards/core_package/generate/compiler/init\resetprg.c ****     {
 410              		.loc 1 90 0
 411 0024 FEFFFFEB 		bl	R_INTC_Init
 412              	.LVL48:
 413 0028 000050E3 		cmp	r0, #0
 414 002c 0100000A 		beq	.L16
 415              	.L19:
 416              	.LBB22:
 417              	.LBB23:
 418              		.file 2 "D:\\Work\\DeviceTester\\amazon-freertos\\lib\\third_party\\mcu_vendor\\renesas\\rz_mcu_bo
   1:D:\Work\DeviceTester\amazon-freertos\lib\third_party\mcu_vendor\renesas\rz_mcu_boards\core_package\generate\compiler\inc\r_compiler_abstraction_api.h **** /**************************************************************************************************
   2:D:\Work\DeviceTester\amazon-freertos\lib\third_party\mcu_vendor\renesas\rz_mcu_boards\core_package\generate\compiler\inc\r_compiler_abstraction_api.h ****  * DISCLAIMER
   3:D:\Work\DeviceTester\amazon-freertos\lib\third_party\mcu_vendor\renesas\rz_mcu_boards\core_package\generate\compiler\inc\r_compiler_abstraction_api.h ****  * This software is supplied by Renesas Electronics Corporation and is only intended for use with R
   4:D:\Work\DeviceTester\amazon-freertos\lib\third_party\mcu_vendor\renesas\rz_mcu_boards\core_package\generate\compiler\inc\r_compiler_abstraction_api.h ****  * other uses are authorized. This software is owned by Renesas Electronics Corporation and is prot
   5:D:\Work\DeviceTester\amazon-freertos\lib\third_party\mcu_vendor\renesas\rz_mcu_boards\core_package\generate\compiler\inc\r_compiler_abstraction_api.h ****  * applicable laws, including copyright laws.
   6:D:\Work\DeviceTester\amazon-freertos\lib\third_party\mcu_vendor\renesas\rz_mcu_boards\core_package\generate\compiler\inc\r_compiler_abstraction_api.h ****  * THIS SOFTWARE IS PROVIDED "AS IS" AND RENESAS MAKES NO WARRANTIES REGARDING
   7:D:\Work\DeviceTester\amazon-freertos\lib\third_party\mcu_vendor\renesas\rz_mcu_boards\core_package\generate\compiler\inc\r_compiler_abstraction_api.h ****  * THIS SOFTWARE, WHETHER EXPRESS, IMPLIED OR STATUTORY, INCLUDING BUT NOT LIMITED TO WARRANTIES OF
   8:D:\Work\DeviceTester\amazon-freertos\lib\third_party\mcu_vendor\renesas\rz_mcu_boards\core_package\generate\compiler\inc\r_compiler_abstraction_api.h ****  * FITNESS FOR A PARTICULAR PURPOSE AND NON-INFRINGEMENT. ALL SUCH WARRANTIES ARE EXPRESSLY DISCLAI
   9:D:\Work\DeviceTester\amazon-freertos\lib\third_party\mcu_vendor\renesas\rz_mcu_boards\core_package\generate\compiler\inc\r_compiler_abstraction_api.h ****  * EXTENT PERMITTED NOT PROHIBITED BY LAW, NEITHER RENESAS ELECTRONICS CORPORATION NOR ANY OF ITS A
  10:D:\Work\DeviceTester\amazon-freertos\lib\third_party\mcu_vendor\renesas\rz_mcu_boards\core_package\generate\compiler\inc\r_compiler_abstraction_api.h ****  * SHALL BE LIABLE FOR ANY DIRECT, INDIRECT, SPECIAL, INCIDENTAL OR CONSEQUENTIAL DAMAGES FOR ANY R
  11:D:\Work\DeviceTester\amazon-freertos\lib\third_party\mcu_vendor\renesas\rz_mcu_boards\core_package\generate\compiler\inc\r_compiler_abstraction_api.h ****  * SOFTWARE, EVEN IF RENESAS OR ITS AFFILIATES HAVE BEEN ADVISED OF THE POSSIBILITY OF SUCH DAMAGES
  12:D:\Work\DeviceTester\amazon-freertos\lib\third_party\mcu_vendor\renesas\rz_mcu_boards\core_package\generate\compiler\inc\r_compiler_abstraction_api.h ****  * Renesas reserves the right, without notice, to make changes to this software and to discontinue 
  13:D:\Work\DeviceTester\amazon-freertos\lib\third_party\mcu_vendor\renesas\rz_mcu_boards\core_package\generate\compiler\inc\r_compiler_abstraction_api.h ****  * this software. By using this software, you agree to the additional terms and conditions found by
  14:D:\Work\DeviceTester\amazon-freertos\lib\third_party\mcu_vendor\renesas\rz_mcu_boards\core_package\generate\compiler\inc\r_compiler_abstraction_api.h ****  * following link:
  15:D:\Work\DeviceTester\amazon-freertos\lib\third_party\mcu_vendor\renesas\rz_mcu_boards\core_package\generate\compiler\inc\r_compiler_abstraction_api.h ****  * http://www.renesas.com/disclaimer
  16:D:\Work\DeviceTester\amazon-freertos\lib\third_party\mcu_vendor\renesas\rz_mcu_boards\core_package\generate\compiler\inc\r_compiler_abstraction_api.h ****  *
  17:D:\Work\DeviceTester\amazon-freertos\lib\third_party\mcu_vendor\renesas\rz_mcu_boards\core_package\generate\compiler\inc\r_compiler_abstraction_api.h ****  * Copyright (C) 2020 Renesas Electronics Corporation. All rights reserved.
  18:D:\Work\DeviceTester\amazon-freertos\lib\third_party\mcu_vendor\renesas\rz_mcu_boards\core_package\generate\compiler\inc\r_compiler_abstraction_api.h ****  **************************************************************************************************
  19:D:\Work\DeviceTester\amazon-freertos\lib\third_party\mcu_vendor\renesas\rz_mcu_boards\core_package\generate\compiler\inc\r_compiler_abstraction_api.h **** /**************************************************************************************************
  20:D:\Work\DeviceTester\amazon-freertos\lib\third_party\mcu_vendor\renesas\rz_mcu_boards\core_package\generate\compiler\inc\r_compiler_abstraction_api.h ****  * File Name    : r_compiler_abstraction_api.h
  21:D:\Work\DeviceTester\amazon-freertos\lib\third_party\mcu_vendor\renesas\rz_mcu_boards\core_package\generate\compiler\inc\r_compiler_abstraction_api.h ****  * Description  : Provides a common API for frequently used compiler specific operations
  22:D:\Work\DeviceTester\amazon-freertos\lib\third_party\mcu_vendor\renesas\rz_mcu_boards\core_package\generate\compiler\inc\r_compiler_abstraction_api.h ****  **************************************************************************************************
  23:D:\Work\DeviceTester\amazon-freertos\lib\third_party\mcu_vendor\renesas\rz_mcu_boards\core_package\generate\compiler\inc\r_compiler_abstraction_api.h **** #include  "r_typedefs.h"
  24:D:\Work\DeviceTester\amazon-freertos\lib\third_party\mcu_vendor\renesas\rz_mcu_boards\core_package\generate\compiler\inc\r_compiler_abstraction_api.h **** 
  25:D:\Work\DeviceTester\amazon-freertos\lib\third_party\mcu_vendor\renesas\rz_mcu_boards\core_package\generate\compiler\inc\r_compiler_abstraction_api.h **** #ifndef SRC_PRV_RENESAS_COMPILER_INC_R_COMPILER_ABSTRACTION_API_H_
  26:D:\Work\DeviceTester\amazon-freertos\lib\third_party\mcu_vendor\renesas\rz_mcu_boards\core_package\generate\compiler\inc\r_compiler_abstraction_api.h **** #define SRC_PRV_RENESAS_COMPILER_INC_R_COMPILER_ABSTRACTION_API_H_
  27:D:\Work\DeviceTester\amazon-freertos\lib\third_party\mcu_vendor\renesas\rz_mcu_boards\core_package\generate\compiler\inc\r_compiler_abstraction_api.h **** 
  28:D:\Work\DeviceTester\amazon-freertos\lib\third_party\mcu_vendor\renesas\rz_mcu_boards\core_package\generate\compiler\inc\r_compiler_abstraction_api.h **** /* Macro is used to declare linkage to a function as weak so that it can be overridden by a normall
  29:D:\Work\DeviceTester\amazon-freertos\lib\third_party\mcu_vendor\renesas\rz_mcu_boards\core_package\generate\compiler\inc\r_compiler_abstraction_api.h ****  * Update this when using a different compiler. */
  30:D:\Work\DeviceTester\amazon-freertos\lib\third_party\mcu_vendor\renesas\rz_mcu_boards\core_package\generate\compiler\inc\r_compiler_abstraction_api.h **** #define R_COMPILER_WEAK __attribute__((weak))
  31:D:\Work\DeviceTester\amazon-freertos\lib\third_party\mcu_vendor\renesas\rz_mcu_boards\core_package\generate\compiler\inc\r_compiler_abstraction_api.h **** 
  32:D:\Work\DeviceTester\amazon-freertos\lib\third_party\mcu_vendor\renesas\rz_mcu_boards\core_package\generate\compiler\inc\r_compiler_abstraction_api.h **** #define R_COMPILER_INLINE static inline
  33:D:\Work\DeviceTester\amazon-freertos\lib\third_party\mcu_vendor\renesas\rz_mcu_boards\core_package\generate\compiler\inc\r_compiler_abstraction_api.h **** 
  34:D:\Work\DeviceTester\amazon-freertos\lib\third_party\mcu_vendor\renesas\rz_mcu_boards\core_package\generate\compiler\inc\r_compiler_abstraction_api.h **** extern void __enable_irq (void);
  35:D:\Work\DeviceTester\amazon-freertos\lib\third_party\mcu_vendor\renesas\rz_mcu_boards\core_package\generate\compiler\inc\r_compiler_abstraction_api.h **** extern uint32_t __disable_irq (void);
  36:D:\Work\DeviceTester\amazon-freertos\lib\third_party\mcu_vendor\renesas\rz_mcu_boards\core_package\generate\compiler\inc\r_compiler_abstraction_api.h **** extern void __enable_fiq (void);
  37:D:\Work\DeviceTester\amazon-freertos\lib\third_party\mcu_vendor\renesas\rz_mcu_boards\core_package\generate\compiler\inc\r_compiler_abstraction_api.h **** extern void __disable_fiq (void);
  38:D:\Work\DeviceTester\amazon-freertos\lib\third_party\mcu_vendor\renesas\rz_mcu_boards\core_package\generate\compiler\inc\r_compiler_abstraction_api.h **** 
  39:D:\Work\DeviceTester\amazon-freertos\lib\third_party\mcu_vendor\renesas\rz_mcu_boards\core_package\generate\compiler\inc\r_compiler_abstraction_api.h **** /**************************************************************************************************
  40:D:\Work\DeviceTester\amazon-freertos\lib\third_party\mcu_vendor\renesas\rz_mcu_boards\core_package\generate\compiler\inc\r_compiler_abstraction_api.h ****  * Function Name: R_COMPILER_Nop
  41:D:\Work\DeviceTester\amazon-freertos\lib\third_party\mcu_vendor\renesas\rz_mcu_boards\core_package\generate\compiler\inc\r_compiler_abstraction_api.h ****  * Description  : Abstracting a compiler No Operation opcode into a C function. Update this when us
  42:D:\Work\DeviceTester\amazon-freertos\lib\third_party\mcu_vendor\renesas\rz_mcu_boards\core_package\generate\compiler\inc\r_compiler_abstraction_api.h ****  *                compiler.
  43:D:\Work\DeviceTester\amazon-freertos\lib\third_party\mcu_vendor\renesas\rz_mcu_boards\core_package\generate\compiler\inc\r_compiler_abstraction_api.h ****  * Return Value : None.
  44:D:\Work\DeviceTester\amazon-freertos\lib\third_party\mcu_vendor\renesas\rz_mcu_boards\core_package\generate\compiler\inc\r_compiler_abstraction_api.h ****  **************************************************************************************************
  45:D:\Work\DeviceTester\amazon-freertos\lib\third_party\mcu_vendor\renesas\rz_mcu_boards\core_package\generate\compiler\inc\r_compiler_abstraction_api.h **** R_COMPILER_INLINE void R_COMPILER_Nop (void)
  46:D:\Work\DeviceTester\amazon-freertos\lib\third_party\mcu_vendor\renesas\rz_mcu_boards\core_package\generate\compiler\inc\r_compiler_abstraction_api.h ****     {
  47:D:\Work\DeviceTester\amazon-freertos\lib\third_party\mcu_vendor\renesas\rz_mcu_boards\core_package\generate\compiler\inc\r_compiler_abstraction_api.h ****         __asm volatile ("nop");
 419              		.loc 2 47 0 discriminator 1
 420              		.syntax divided
 421              	@ 47 "D:\Work\DeviceTester\amazon-freertos\lib\third_party\mcu_vendor\renesas\rz_mcu_boards\core_pa
 422 0030 00F020E3 		nop
 423              	@ 0 "" 2
 424              		.arm
 425              		.syntax unified
 426 0034 FDFFFFEA 		b	.L19
 427              	.L16:
 428              	.LBE23:
 429              	.LBE22:
 100:D:/Work/DeviceTester/amazon-freertos/lib/third_party/mcu_vendor/renesas/rz_mcu_boards/core_package/generate/compiler/init\resetprg.c **** 
 430              		.loc 1 100 0
 431 0038 FEFFFFEB 		bl	R_CACHE_L2Init
 432              	.LVL49:
 103:D:/Work/DeviceTester/amazon-freertos/lib/third_party/mcu_vendor/renesas/rz_mcu_boards/core_package/generate/compiler/init\resetprg.c **** 
 433              		.loc 1 103 0
 434 003c FEFFFFEB 		bl	R_CACHE_L1Init
 435              	.LVL50:
 106:D:/Work/DeviceTester/amazon-freertos/lib/third_party/mcu_vendor/renesas/rz_mcu_boards/core_package/generate/compiler/init\resetprg.c **** 
 436              		.loc 1 106 0
 437 0040 14009FE5 		ldr	r0, .L21
 438 0044 FEFFFFEB 		bl	__set_vbar
 439              	.LVL51:
 108:D:/Work/DeviceTester/amazon-freertos/lib/third_party/mcu_vendor/renesas/rz_mcu_boards/core_package/generate/compiler/init\resetprg.c ****     __enable_fiq();
 440              		.loc 1 108 0
 441 0048 FEFFFFEB 		bl	__enable_irq
 442              	.LVL52:
 109:D:/Work/DeviceTester/amazon-freertos/lib/third_party/mcu_vendor/renesas/rz_mcu_boards/core_package/generate/compiler/init\resetprg.c **** 
 443              		.loc 1 109 0
 444 004c FEFFFFEB 		bl	__enable_fiq
 445              	.LVL53:
 112:D:/Work/DeviceTester/amazon-freertos/lib/third_party/mcu_vendor/renesas/rz_mcu_boards/core_package/generate/compiler/init\resetprg.c **** 
 446              		.loc 1 112 0
 447 0050 FEFFFFEB 		bl	main
 448              	.LVL54:
 449              	.L18:
 450              	.LBB24:
 451              	.LBB25:
 452              		.loc 2 47 0 discriminator 1
 453              		.syntax divided
 454              	@ 47 "D:\Work\DeviceTester\amazon-freertos\lib\third_party\mcu_vendor\renesas\rz_mcu_boards\core_pa
 455 0054 00F020E3 		nop
 456              	@ 0 "" 2
 457              		.arm
 458              		.syntax unified
 459 0058 FDFFFFEA 		b	.L18
 460              	.L22:
 461              		.align	2
 462              	.L21:
 463 005c 00000000 		.word	__vector_mirror_table_base
 464              	.LBE25:
 465              	.LBE24:
 466              		.cfi_endproc
 467              	.LFE3:
 469              		.set	stbreq_shift.69245,stback_shift.69247
 470              		.set	stbreq_mask.69244,stback_mask.69246
 471              		.section	.rodata.mstp_mask.69227,"a",%progbits
 472              		.set	.LANCHOR3,. + 0
 475              	mstp_mask.69227:
 476 0000 08       		.byte	8
 477 0001 04       		.byte	4
 478              		.section	.rodata.mstp_mask.69242,"a",%progbits
 479              		.set	.LANCHOR5,. + 0
 482              	mstp_mask.69242:
 483 0000 02       		.byte	2
 484 0001 01       		.byte	1
 485              		.section	.rodata.mstp_shift.69228,"a",%progbits
 486              		.set	.LANCHOR4,. + 0
 489              	mstp_shift.69228:
 490 0000 03       		.byte	3
 491 0001 02       		.byte	2
 492              		.section	.rodata.mstp_shift.69243,"a",%progbits
 493              		.set	.LANCHOR6,. + 0
 496              	mstp_shift.69243:
 497 0000 01       		.byte	1
 498 0001 00       		.byte	0
 499              		.section	.rodata.rtc.69226,"a",%progbits
 500              		.align	2
 501              		.set	.LANCHOR0,. + 0
 504              	rtc.69226:
 505 0000 00D0FFFC 		.word	-50343936
 506 0004 0010FFFC 		.word	-50393088
 507              		.section	.rodata.rtcxtalsel_mask.69229,"a",%progbits
 508              		.align	1
 509              		.set	.LANCHOR1,. + 0
 512              	rtcxtalsel_mask.69229:
 513 0000 0100     		.short	1
 514 0002 0200     		.short	2
 515              		.section	.rodata.rtcxtalsel_shift.69230,"a",%progbits
 516              		.set	.LANCHOR2,. + 0
 519              	rtcxtalsel_shift.69230:
 520 0000 00       		.byte	0
 521 0001 01       		.byte	1
 522              		.section	.rodata.stback_mask.69246,"a",%progbits
 523              		.set	.LANCHOR7,. + 0
 526              	stback_mask.69246:
 527 0000 03       		.byte	3
 528 0001 0C       		.byte	12
 529              		.section	.rodata.stback_shift.69247,"a",%progbits
 530              		.set	.LANCHOR8,. + 0
 533              	stback_shift.69247:
 534 0000 00       		.byte	0
 535 0001 02       		.byte	2
 536              		.section	.rodata.usb00_host.69240,"a",%progbits
 537              		.align	2
 538              		.set	.LANCHOR9,. + 0
 541              	usb00_host.69240:
 542 0000 008021E8 		.word	-400457728
 543 0004 00A021E8 		.word	-400449536
 544              		.section	.rodata.usb01_func.69241,"a",%progbits
 545              		.align	2
 546              		.set	.LANCHOR10,. + 0
 549              	usb01_func.69241:
 550 0000 009021E8 		.word	-400453632
 551 0004 00B021E8 		.word	-400445440
 552              		.text
 553              	.Letext0:
 554              		.file 3 "c:\\program files (x86)\\gnu tools arm embedded\\6 2017-q2-update\\arm-none-eabi\\include
 555              		.file 4 "c:\\program files (x86)\\gnu tools arm embedded\\6 2017-q2-update\\arm-none-eabi\\include
 556              		.file 5 "c:\\program files (x86)\\gnu tools arm embedded\\6 2017-q2-update\\arm-none-eabi\\include
 557              		.file 6 "c:\\program files (x86)\\gnu tools arm embedded\\6 2017-q2-update\\arm-none-eabi\\include
 558              		.file 7 "c:\\program files (x86)\\gnu tools arm embedded\\6 2017-q2-update\\lib\\gcc\\arm-none-eab
 559              		.file 8 "c:\\program files (x86)\\gnu tools arm embedded\\6 2017-q2-update\\arm-none-eabi\\include
 560              		.file 9 "c:\\program files (x86)\\gnu tools arm embedded\\6 2017-q2-update\\arm-none-eabi\\include
 561              		.file 10 "D:\\Work\\DeviceTester\\amazon-freertos\\lib\\third_party\\mcu_vendor\\renesas\\rz_mcu_b
 562              		.file 11 "D:\\Work\\DeviceTester\\amazon-freertos\\lib\\third_party\\mcu_vendor\\renesas\\rz_mcu_b
 563              		.file 12 "D:\\Work\\DeviceTester\\amazon-freertos\\lib\\third_party\\mcu_vendor\\renesas\\rz_mcu_b
 564              		.file 13 "D:\\Work\\DeviceTester\\amazon-freertos\\lib\\third_party\\mcu_vendor\\renesas\\rz_mcu_b
 565              		.file 14 "D:\\Work\\DeviceTester\\amazon-freertos\\lib\\third_party\\mcu_vendor\\renesas\\rz_mcu_b
 566              		.file 15 "D:\\Work\\DeviceTester\\amazon-freertos\\lib\\third_party\\mcu_vendor\\renesas\\rz_mcu_b
 567              		.file 16 "D:\\Work\\DeviceTester\\amazon-freertos\\lib\\third_party\\mcu_vendor\\renesas\\rz_mcu_b
 568              		.file 17 "D:\\Work\\DeviceTester\\amazon-freertos\\lib\\third_party\\mcu_vendor\\renesas\\rz_mcu_b
 569              		.file 18 "D:\\Work\\DeviceTester\\amazon-freertos\\lib\\third_party\\mcu_vendor\\renesas\\rz_mcu_b
 570              		.file 19 "D:\\Work\\DeviceTester\\amazon-freertos\\lib\\third_party\\mcu_vendor\\renesas\\rz_mcu_b
 571              		.file 20 "D:\\Work\\DeviceTester\\amazon-freertos\\lib\\third_party\\mcu_vendor\\renesas\\rz_mcu_b
 572              		.file 21 "D:\\Work\\DeviceTester\\amazon-freertos\\lib\\third_party\\mcu_vendor\\renesas\\rz_mcu_b