   1              		.cpu cortex-a9
   2              		.eabi_attribute 28, 1
   3              		.eabi_attribute 20, 1
   4              		.eabi_attribute 21, 1
   5              		.eabi_attribute 23, 3
   6              		.eabi_attribute 24, 1
   7              		.eabi_attribute 25, 1
   8              		.eabi_attribute 26, 1
   9              		.eabi_attribute 30, 4
  10              		.eabi_attribute 34, 0
  11              		.eabi_attribute 18, 4
  12              		.file	"cryptogram_sample.c"
  13              		.text
  14              	.Ltext0:
  15              		.cfi_sections	.debug_frame
  16              		.section	.text.cryptogram_sample,"ax",%progbits
  17              		.align	2
  18              		.global	cryptogram_sample
  19              		.syntax unified
  20              		.arm
  21              		.fpu neon
  23              	cryptogram_sample:
  24              	.LFB1:
  25              		.file 1 "D:/Work/DeviceTester/amazon-freertos/lib/third_party/mcu_vendor/renesas/rz_mcu_boards/ama
   1:D:/Work/DeviceTester/amazon-freertos/lib/third_party/mcu_vendor/renesas/rz_mcu_boards/amazon_freertos_common\cryptogram_sample.c **** /**************************************************************************************************
   2:D:/Work/DeviceTester/amazon-freertos/lib/third_party/mcu_vendor/renesas/rz_mcu_boards/amazon_freertos_common\cryptogram_sample.c ****  * DISCLAIMER
   3:D:/Work/DeviceTester/amazon-freertos/lib/third_party/mcu_vendor/renesas/rz_mcu_boards/amazon_freertos_common\cryptogram_sample.c ****  * This software is supplied by Renesas Electronics Corporation and is only intended for use with R
   4:D:/Work/DeviceTester/amazon-freertos/lib/third_party/mcu_vendor/renesas/rz_mcu_boards/amazon_freertos_common\cryptogram_sample.c ****  * other uses are authorized. This software is owned by Renesas Electronics Corporation and is prot
   5:D:/Work/DeviceTester/amazon-freertos/lib/third_party/mcu_vendor/renesas/rz_mcu_boards/amazon_freertos_common\cryptogram_sample.c ****  * applicable laws, including copyright laws.
   6:D:/Work/DeviceTester/amazon-freertos/lib/third_party/mcu_vendor/renesas/rz_mcu_boards/amazon_freertos_common\cryptogram_sample.c ****  * THIS SOFTWARE IS PROVIDED "AS IS" AND RENESAS MAKES NO WARRANTIES REGARDING
   7:D:/Work/DeviceTester/amazon-freertos/lib/third_party/mcu_vendor/renesas/rz_mcu_boards/amazon_freertos_common\cryptogram_sample.c ****  * THIS SOFTWARE, WHETHER EXPRESS, IMPLIED OR STATUTORY, INCLUDING BUT NOT LIMITED TO WARRANTIES OF
   8:D:/Work/DeviceTester/amazon-freertos/lib/third_party/mcu_vendor/renesas/rz_mcu_boards/amazon_freertos_common\cryptogram_sample.c ****  * FITNESS FOR A PARTICULAR PURPOSE AND NON-INFRINGEMENT. ALL SUCH WARRANTIES ARE EXPRESSLY DISCLAI
   9:D:/Work/DeviceTester/amazon-freertos/lib/third_party/mcu_vendor/renesas/rz_mcu_boards/amazon_freertos_common\cryptogram_sample.c ****  * EXTENT PERMITTED NOT PROHIBITED BY LAW, NEITHER RENESAS ELECTRONICS CORPORATION NOR ANY OF ITS A
  10:D:/Work/DeviceTester/amazon-freertos/lib/third_party/mcu_vendor/renesas/rz_mcu_boards/amazon_freertos_common\cryptogram_sample.c ****  * SHALL BE LIABLE FOR ANY DIRECT, INDIRECT, SPECIAL, INCIDENTAL OR CONSEQUENTIAL DAMAGES FOR ANY R
  11:D:/Work/DeviceTester/amazon-freertos/lib/third_party/mcu_vendor/renesas/rz_mcu_boards/amazon_freertos_common\cryptogram_sample.c ****  * THIS SOFTWARE, EVEN IF RENESAS OR ITS AFFILIATES HAVE BEEN ADVISED OF THE POSSIBILITY OF SUCH DA
  12:D:/Work/DeviceTester/amazon-freertos/lib/third_party/mcu_vendor/renesas/rz_mcu_boards/amazon_freertos_common\cryptogram_sample.c ****  * Renesas reserves the right, without notice, to make changes to this software and to discontinue 
  13:D:/Work/DeviceTester/amazon-freertos/lib/third_party/mcu_vendor/renesas/rz_mcu_boards/amazon_freertos_common\cryptogram_sample.c ****  * this software. By using this software, you agree to the additional terms and conditions found by
  14:D:/Work/DeviceTester/amazon-freertos/lib/third_party/mcu_vendor/renesas/rz_mcu_boards/amazon_freertos_common\cryptogram_sample.c ****  * following link:
  15:D:/Work/DeviceTester/amazon-freertos/lib/third_party/mcu_vendor/renesas/rz_mcu_boards/amazon_freertos_common\cryptogram_sample.c ****  * http://www.renesas.com/disclaimer
  16:D:/Work/DeviceTester/amazon-freertos/lib/third_party/mcu_vendor/renesas/rz_mcu_boards/amazon_freertos_common\cryptogram_sample.c ****  *
  17:D:/Work/DeviceTester/amazon-freertos/lib/third_party/mcu_vendor/renesas/rz_mcu_boards/amazon_freertos_common\cryptogram_sample.c ****  * Copyright (C) 2019 Renesas Electronics Corporation. All rights reserved.
  18:D:/Work/DeviceTester/amazon-freertos/lib/third_party/mcu_vendor/renesas/rz_mcu_boards/amazon_freertos_common\cryptogram_sample.c ****  **************************************************************************************************
  19:D:/Work/DeviceTester/amazon-freertos/lib/third_party/mcu_vendor/renesas/rz_mcu_boards/amazon_freertos_common\cryptogram_sample.c **** 
  20:D:/Work/DeviceTester/amazon-freertos/lib/third_party/mcu_vendor/renesas/rz_mcu_boards/amazon_freertos_common\cryptogram_sample.c **** /*******************************************************************************
  21:D:/Work/DeviceTester/amazon-freertos/lib/third_party/mcu_vendor/renesas/rz_mcu_boards/amazon_freertos_common\cryptogram_sample.c **** * File Name   : cryptogram_sample.c
  22:D:/Work/DeviceTester/amazon-freertos/lib/third_party/mcu_vendor/renesas/rz_mcu_boards/amazon_freertos_common\cryptogram_sample.c **** * Description : This is the RZ/A1H CRYPTOGRAM sample main code
  23:D:/Work/DeviceTester/amazon-freertos/lib/third_party/mcu_vendor/renesas/rz_mcu_boards/amazon_freertos_common\cryptogram_sample.c **** ******************************************************************************/
  24:D:/Work/DeviceTester/amazon-freertos/lib/third_party/mcu_vendor/renesas/rz_mcu_boards/amazon_freertos_common\cryptogram_sample.c **** /******************************************************************************
  25:D:/Work/DeviceTester/amazon-freertos/lib/third_party/mcu_vendor/renesas/rz_mcu_boards/amazon_freertos_common\cryptogram_sample.c **** Includes   <System Includes> , "Project Includes"
  26:D:/Work/DeviceTester/amazon-freertos/lib/third_party/mcu_vendor/renesas/rz_mcu_boards/amazon_freertos_common\cryptogram_sample.c **** ******************************************************************************/
  27:D:/Work/DeviceTester/amazon-freertos/lib/third_party/mcu_vendor/renesas/rz_mcu_boards/amazon_freertos_common\cryptogram_sample.c **** #include <stdio.h>
  28:D:/Work/DeviceTester/amazon-freertos/lib/third_party/mcu_vendor/renesas/rz_mcu_boards/amazon_freertos_common\cryptogram_sample.c **** #include <string.h>
  29:D:/Work/DeviceTester/amazon-freertos/lib/third_party/mcu_vendor/renesas/rz_mcu_boards/amazon_freertos_common\cryptogram_sample.c **** 
  30:D:/Work/DeviceTester/amazon-freertos/lib/third_party/mcu_vendor/renesas/rz_mcu_boards/amazon_freertos_common\cryptogram_sample.c **** #include <unistd.h>
  31:D:/Work/DeviceTester/amazon-freertos/lib/third_party/mcu_vendor/renesas/rz_mcu_boards/amazon_freertos_common\cryptogram_sample.c **** #include "r_os_abstraction_api.h"
  32:D:/Work/DeviceTester/amazon-freertos/lib/third_party/mcu_vendor/renesas/rz_mcu_boards/amazon_freertos_common\cryptogram_sample.c **** #include "r_devlink_wrapper.h"
  33:D:/Work/DeviceTester/amazon-freertos/lib/third_party/mcu_vendor/renesas/rz_mcu_boards/amazon_freertos_common\cryptogram_sample.c **** 
  34:D:/Work/DeviceTester/amazon-freertos/lib/third_party/mcu_vendor/renesas/rz_mcu_boards/amazon_freertos_common\cryptogram_sample.c **** #include "r_typedefs.h"
  35:D:/Work/DeviceTester/amazon-freertos/lib/third_party/mcu_vendor/renesas/rz_mcu_boards/amazon_freertos_common\cryptogram_sample.c **** #include "r_adc_drv_api.h"
  36:D:/Work/DeviceTester/amazon-freertos/lib/third_party/mcu_vendor/renesas/rz_mcu_boards/amazon_freertos_common\cryptogram_sample.c **** 
  37:D:/Work/DeviceTester/amazon-freertos/lib/third_party/mcu_vendor/renesas/rz_mcu_boards/amazon_freertos_common\cryptogram_sample.c **** /******************************************************************************
  38:D:/Work/DeviceTester/amazon-freertos/lib/third_party/mcu_vendor/renesas/rz_mcu_boards/amazon_freertos_common\cryptogram_sample.c **** Typedef definitions
  39:D:/Work/DeviceTester/amazon-freertos/lib/third_party/mcu_vendor/renesas/rz_mcu_boards/amazon_freertos_common\cryptogram_sample.c **** ******************************************************************************/
  40:D:/Work/DeviceTester/amazon-freertos/lib/third_party/mcu_vendor/renesas/rz_mcu_boards/amazon_freertos_common\cryptogram_sample.c **** 
  41:D:/Work/DeviceTester/amazon-freertos/lib/third_party/mcu_vendor/renesas/rz_mcu_boards/amazon_freertos_common\cryptogram_sample.c **** /******************************************************************************
  42:D:/Work/DeviceTester/amazon-freertos/lib/third_party/mcu_vendor/renesas/rz_mcu_boards/amazon_freertos_common\cryptogram_sample.c **** Macro definitions
  43:D:/Work/DeviceTester/amazon-freertos/lib/third_party/mcu_vendor/renesas/rz_mcu_boards/amazon_freertos_common\cryptogram_sample.c **** ******************************************************************************/
  44:D:/Work/DeviceTester/amazon-freertos/lib/third_party/mcu_vendor/renesas/rz_mcu_boards/amazon_freertos_common\cryptogram_sample.c **** 
  45:D:/Work/DeviceTester/amazon-freertos/lib/third_party/mcu_vendor/renesas/rz_mcu_boards/amazon_freertos_common\cryptogram_sample.c **** 
  46:D:/Work/DeviceTester/amazon-freertos/lib/third_party/mcu_vendor/renesas/rz_mcu_boards/amazon_freertos_common\cryptogram_sample.c **** /******************************************************************************
  47:D:/Work/DeviceTester/amazon-freertos/lib/third_party/mcu_vendor/renesas/rz_mcu_boards/amazon_freertos_common\cryptogram_sample.c **** Imported global variables and functions (from other files)
  48:D:/Work/DeviceTester/amazon-freertos/lib/third_party/mcu_vendor/renesas/rz_mcu_boards/amazon_freertos_common\cryptogram_sample.c **** ******************************************************************************/
  49:D:/Work/DeviceTester/amazon-freertos/lib/third_party/mcu_vendor/renesas/rz_mcu_boards/amazon_freertos_common\cryptogram_sample.c **** extern void R_Prnd_Init_Genrand(const uint32_t seed);
  50:D:/Work/DeviceTester/amazon-freertos/lib/third_party/mcu_vendor/renesas/rz_mcu_boards/amazon_freertos_common\cryptogram_sample.c **** extern uint32_t R_Prnd_Genrand_int32(void);
  51:D:/Work/DeviceTester/amazon-freertos/lib/third_party/mcu_vendor/renesas/rz_mcu_boards/amazon_freertos_common\cryptogram_sample.c **** 
  52:D:/Work/DeviceTester/amazon-freertos/lib/third_party/mcu_vendor/renesas/rz_mcu_boards/amazon_freertos_common\cryptogram_sample.c **** /******************************************************************************
  53:D:/Work/DeviceTester/amazon-freertos/lib/third_party/mcu_vendor/renesas/rz_mcu_boards/amazon_freertos_common\cryptogram_sample.c **** Exported global variables and functions (to be accessed by other files)
  54:D:/Work/DeviceTester/amazon-freertos/lib/third_party/mcu_vendor/renesas/rz_mcu_boards/amazon_freertos_common\cryptogram_sample.c **** ******************************************************************************/
  55:D:/Work/DeviceTester/amazon-freertos/lib/third_party/mcu_vendor/renesas/rz_mcu_boards/amazon_freertos_common\cryptogram_sample.c **** 
  56:D:/Work/DeviceTester/amazon-freertos/lib/third_party/mcu_vendor/renesas/rz_mcu_boards/amazon_freertos_common\cryptogram_sample.c **** /******************************************************************************
  57:D:/Work/DeviceTester/amazon-freertos/lib/third_party/mcu_vendor/renesas/rz_mcu_boards/amazon_freertos_common\cryptogram_sample.c **** Private global variables and functions
  58:D:/Work/DeviceTester/amazon-freertos/lib/third_party/mcu_vendor/renesas/rz_mcu_boards/amazon_freertos_common\cryptogram_sample.c **** ******************************************************************************/
  59:D:/Work/DeviceTester/amazon-freertos/lib/third_party/mcu_vendor/renesas/rz_mcu_boards/amazon_freertos_common\cryptogram_sample.c **** static uint32_t get_init_value(void);
  60:D:/Work/DeviceTester/amazon-freertos/lib/third_party/mcu_vendor/renesas/rz_mcu_boards/amazon_freertos_common\cryptogram_sample.c **** 
  61:D:/Work/DeviceTester/amazon-freertos/lib/third_party/mcu_vendor/renesas/rz_mcu_boards/amazon_freertos_common\cryptogram_sample.c **** /******************************************************************************
  62:D:/Work/DeviceTester/amazon-freertos/lib/third_party/mcu_vendor/renesas/rz_mcu_boards/amazon_freertos_common\cryptogram_sample.c **** * Function Name: cryptogram_sample
  63:D:/Work/DeviceTester/amazon-freertos/lib/third_party/mcu_vendor/renesas/rz_mcu_boards/amazon_freertos_common\cryptogram_sample.c **** * Description  : It is a sample program using AES and PRND.
  64:D:/Work/DeviceTester/amazon-freertos/lib/third_party/mcu_vendor/renesas/rz_mcu_boards/amazon_freertos_common\cryptogram_sample.c **** * Arguments    : argc, argv -
  65:D:/Work/DeviceTester/amazon-freertos/lib/third_party/mcu_vendor/renesas/rz_mcu_boards/amazon_freertos_common\cryptogram_sample.c **** *                Arguments all Unused
  66:D:/Work/DeviceTester/amazon-freertos/lib/third_party/mcu_vendor/renesas/rz_mcu_boards/amazon_freertos_common\cryptogram_sample.c **** * Return Value : R_PROCESS_COMPLETE    : Success
  67:D:/Work/DeviceTester/amazon-freertos/lib/third_party/mcu_vendor/renesas/rz_mcu_boards/amazon_freertos_common\cryptogram_sample.c **** *              : R_CRYPT_ERROR_POINTER : Error
  68:D:/Work/DeviceTester/amazon-freertos/lib/third_party/mcu_vendor/renesas/rz_mcu_boards/amazon_freertos_common\cryptogram_sample.c **** *              : R_CRYPT_ERROR_LENGTH  : Error
  69:D:/Work/DeviceTester/amazon-freertos/lib/third_party/mcu_vendor/renesas/rz_mcu_boards/amazon_freertos_common\cryptogram_sample.c **** ******************************************************************************/
  70:D:/Work/DeviceTester/amazon-freertos/lib/third_party/mcu_vendor/renesas/rz_mcu_boards/amazon_freertos_common\cryptogram_sample.c **** int32_t cryptogram_sample(int32_t seed_in)
  71:D:/Work/DeviceTester/amazon-freertos/lib/third_party/mcu_vendor/renesas/rz_mcu_boards/amazon_freertos_common\cryptogram_sample.c **** {
  26              		.loc 1 71 0
  27              		.cfi_startproc
  28              		@ args = 0, pretend = 0, frame = 8
  29              		@ frame_needed = 0, uses_anonymous_args = 0
  30              	.LVL0:
  31 0000 F3412DE9 		push	{r0, r1, r4, r5, r6, r7, r8, lr}
  32              		.cfi_def_cfa_offset 32
  33              		.cfi_offset 4, -24
  34              		.cfi_offset 5, -20
  35              		.cfi_offset 6, -16
  36              		.cfi_offset 7, -12
  37              		.cfi_offset 8, -8
  38              		.cfi_offset 14, -4
  39              		.loc 1 71 0
  40 0004 0060A0E1 		mov	r6, r0
  41              	.LVL1:
  42              	.LBB4:
  43              	.LBB5:
  72:D:/Work/DeviceTester/amazon-freertos/lib/third_party/mcu_vendor/renesas/rz_mcu_boards/amazon_freertos_common\cryptogram_sample.c ****     uint32_t rnd_dat;
  73:D:/Work/DeviceTester/amazon-freertos/lib/third_party/mcu_vendor/renesas/rz_mcu_boards/amazon_freertos_common\cryptogram_sample.c **** 
  74:D:/Work/DeviceTester/amazon-freertos/lib/third_party/mcu_vendor/renesas/rz_mcu_boards/amazon_freertos_common\cryptogram_sample.c ****     uint16_t block=1;
  75:D:/Work/DeviceTester/amazon-freertos/lib/third_party/mcu_vendor/renesas/rz_mcu_boards/amazon_freertos_common\cryptogram_sample.c ****     int_t i, ret;
  76:D:/Work/DeviceTester/amazon-freertos/lib/third_party/mcu_vendor/renesas/rz_mcu_boards/amazon_freertos_common\cryptogram_sample.c ****     volatile uint32_t seed;
  77:D:/Work/DeviceTester/amazon-freertos/lib/third_party/mcu_vendor/renesas/rz_mcu_boards/amazon_freertos_common\cryptogram_sample.c **** 
  78:D:/Work/DeviceTester/amazon-freertos/lib/third_party/mcu_vendor/renesas/rz_mcu_boards/amazon_freertos_common\cryptogram_sample.c ****     rnd_dat = seed_in;
  79:D:/Work/DeviceTester/amazon-freertos/lib/third_party/mcu_vendor/renesas/rz_mcu_boards/amazon_freertos_common\cryptogram_sample.c **** 
  80:D:/Work/DeviceTester/amazon-freertos/lib/third_party/mcu_vendor/renesas/rz_mcu_boards/amazon_freertos_common\cryptogram_sample.c ****     seed = get_init_value(); /* for seed data */
  81:D:/Work/DeviceTester/amazon-freertos/lib/third_party/mcu_vendor/renesas/rz_mcu_boards/amazon_freertos_common\cryptogram_sample.c ****     rnd_dat += seed;
  82:D:/Work/DeviceTester/amazon-freertos/lib/third_party/mcu_vendor/renesas/rz_mcu_boards/amazon_freertos_common\cryptogram_sample.c **** 
  83:D:/Work/DeviceTester/amazon-freertos/lib/third_party/mcu_vendor/renesas/rz_mcu_boards/amazon_freertos_common\cryptogram_sample.c ****     /* init random */
  84:D:/Work/DeviceTester/amazon-freertos/lib/third_party/mcu_vendor/renesas/rz_mcu_boards/amazon_freertos_common\cryptogram_sample.c ****     R_Prnd_Init_Genrand((uint32_t)rnd_dat); /* Initialize the basic random number generator. */
  85:D:/Work/DeviceTester/amazon-freertos/lib/third_party/mcu_vendor/renesas/rz_mcu_boards/amazon_freertos_common\cryptogram_sample.c **** 
  86:D:/Work/DeviceTester/amazon-freertos/lib/third_party/mcu_vendor/renesas/rz_mcu_boards/amazon_freertos_common\cryptogram_sample.c ****     rnd_dat = R_Prnd_Genrand_int32();
  87:D:/Work/DeviceTester/amazon-freertos/lib/third_party/mcu_vendor/renesas/rz_mcu_boards/amazon_freertos_common\cryptogram_sample.c **** 
  88:D:/Work/DeviceTester/amazon-freertos/lib/third_party/mcu_vendor/renesas/rz_mcu_boards/amazon_freertos_common\cryptogram_sample.c ****     return rnd_dat;
  89:D:/Work/DeviceTester/amazon-freertos/lib/third_party/mcu_vendor/renesas/rz_mcu_boards/amazon_freertos_common\cryptogram_sample.c **** }
  90:D:/Work/DeviceTester/amazon-freertos/lib/third_party/mcu_vendor/renesas/rz_mcu_boards/amazon_freertos_common\cryptogram_sample.c **** 
  91:D:/Work/DeviceTester/amazon-freertos/lib/third_party/mcu_vendor/renesas/rz_mcu_boards/amazon_freertos_common\cryptogram_sample.c **** /******************************************************************************
  92:D:/Work/DeviceTester/amazon-freertos/lib/third_party/mcu_vendor/renesas/rz_mcu_boards/amazon_freertos_common\cryptogram_sample.c **** * Function Name: get_init_value
  93:D:/Work/DeviceTester/amazon-freertos/lib/third_party/mcu_vendor/renesas/rz_mcu_boards/amazon_freertos_common\cryptogram_sample.c **** * Description  : The initial value used as a seed value is generated.
  94:D:/Work/DeviceTester/amazon-freertos/lib/third_party/mcu_vendor/renesas/rz_mcu_boards/amazon_freertos_common\cryptogram_sample.c **** * Arguments    : none
  95:D:/Work/DeviceTester/amazon-freertos/lib/third_party/mcu_vendor/renesas/rz_mcu_boards/amazon_freertos_common\cryptogram_sample.c **** * Return Value : Analog input channel data
  96:D:/Work/DeviceTester/amazon-freertos/lib/third_party/mcu_vendor/renesas/rz_mcu_boards/amazon_freertos_common\cryptogram_sample.c **** ******************************************************************************/
  97:D:/Work/DeviceTester/amazon-freertos/lib/third_party/mcu_vendor/renesas/rz_mcu_boards/amazon_freertos_common\cryptogram_sample.c **** static uint32_t get_init_value(void)
  98:D:/Work/DeviceTester/amazon-freertos/lib/third_party/mcu_vendor/renesas/rz_mcu_boards/amazon_freertos_common\cryptogram_sample.c **** {
  99:D:/Work/DeviceTester/amazon-freertos/lib/third_party/mcu_vendor/renesas/rz_mcu_boards/amazon_freertos_common\cryptogram_sample.c ****     uint32_t dummy32_buf;
 100:D:/Work/DeviceTester/amazon-freertos/lib/third_party/mcu_vendor/renesas/rz_mcu_boards/amazon_freertos_common\cryptogram_sample.c ****     static st_r_drv_adc_config_t adc_config;
 101:D:/Work/DeviceTester/amazon-freertos/lib/third_party/mcu_vendor/renesas/rz_mcu_boards/amazon_freertos_common\cryptogram_sample.c ****     e_r_drv_adc_channel_t channel;
 102:D:/Work/DeviceTester/amazon-freertos/lib/third_party/mcu_vendor/renesas/rz_mcu_boards/amazon_freertos_common\cryptogram_sample.c ****     int_t ret_val;
 103:D:/Work/DeviceTester/amazon-freertos/lib/third_party/mcu_vendor/renesas/rz_mcu_boards/amazon_freertos_common\cryptogram_sample.c ****     static uint8_t buffer[2];
 104:D:/Work/DeviceTester/amazon-freertos/lib/third_party/mcu_vendor/renesas/rz_mcu_boards/amazon_freertos_common\cryptogram_sample.c ****     int_t count;
 105:D:/Work/DeviceTester/amazon-freertos/lib/third_party/mcu_vendor/renesas/rz_mcu_boards/amazon_freertos_common\cryptogram_sample.c ****     uint16_t channel_conversion = 0;
 106:D:/Work/DeviceTester/amazon-freertos/lib/third_party/mcu_vendor/renesas/rz_mcu_boards/amazon_freertos_common\cryptogram_sample.c ****     static int_t s_adc_handle = -1;
 107:D:/Work/DeviceTester/amazon-freertos/lib/third_party/mcu_vendor/renesas/rz_mcu_boards/amazon_freertos_common\cryptogram_sample.c **** 
 108:D:/Work/DeviceTester/amazon-freertos/lib/third_party/mcu_vendor/renesas/rz_mcu_boards/amazon_freertos_common\cryptogram_sample.c ****     dummy32_buf = 0;
 109:D:/Work/DeviceTester/amazon-freertos/lib/third_party/mcu_vendor/renesas/rz_mcu_boards/amazon_freertos_common\cryptogram_sample.c **** 
 110:D:/Work/DeviceTester/amazon-freertos/lib/third_party/mcu_vendor/renesas/rz_mcu_boards/amazon_freertos_common\cryptogram_sample.c ****     s_adc_handle = open(DEVICE_INDENTIFIER "adc0", O_RDWR);
  44              		.loc 1 110 0
  45 0008 0210A0E3 		mov	r1, #2
  46 000c 04019FE5 		ldr	r0, .L11
  47              	.LVL2:
  48 0010 04519FE5 		ldr	r5, .L11+4
  49 0014 FEFFFFEB 		bl	open
  50              	.LVL3:
 111:D:/Work/DeviceTester/amazon-freertos/lib/third_party/mcu_vendor/renesas/rz_mcu_boards/amazon_freertos_common\cryptogram_sample.c **** 
 112:D:/Work/DeviceTester/amazon-freertos/lib/third_party/mcu_vendor/renesas/rz_mcu_boards/amazon_freertos_common\cryptogram_sample.c ****     /* on error */
 113:D:/Work/DeviceTester/amazon-freertos/lib/third_party/mcu_vendor/renesas/rz_mcu_boards/amazon_freertos_common\cryptogram_sample.c ****     if (s_adc_handle < 0)
  51              		.loc 1 113 0
  52 0018 000050E3 		cmp	r0, #0
 110:D:/Work/DeviceTester/amazon-freertos/lib/third_party/mcu_vendor/renesas/rz_mcu_boards/amazon_freertos_common\cryptogram_sample.c **** 
  53              		.loc 1 110 0
  54 001c 000085E5 		str	r0, [r5]
  55              		.loc 1 113 0
  56 0020 070000AA 		bge	.L2
  57              	.L5:
 114:D:/Work/DeviceTester/amazon-freertos/lib/third_party/mcu_vendor/renesas/rz_mcu_boards/amazon_freertos_common\cryptogram_sample.c ****     {
 115:D:/Work/DeviceTester/amazon-freertos/lib/third_party/mcu_vendor/renesas/rz_mcu_boards/amazon_freertos_common\cryptogram_sample.c ****         /* error */
 116:D:/Work/DeviceTester/amazon-freertos/lib/third_party/mcu_vendor/renesas/rz_mcu_boards/amazon_freertos_common\cryptogram_sample.c ****         return (uint32_t)dummy32_buf;
  58              		.loc 1 116 0
  59 0024 0040A0E3 		mov	r4, #0
  60              	.LVL4:
  61              	.L3:
  62              	.LBE5:
  63              	.LBE4:
  80:D:/Work/DeviceTester/amazon-freertos/lib/third_party/mcu_vendor/renesas/rz_mcu_boards/amazon_freertos_common\cryptogram_sample.c ****     rnd_dat += seed;
  64              		.loc 1 80 0
  65 0028 04408DE5 		str	r4, [sp, #4]
  81:D:/Work/DeviceTester/amazon-freertos/lib/third_party/mcu_vendor/renesas/rz_mcu_boards/amazon_freertos_common\cryptogram_sample.c **** 
  66              		.loc 1 81 0
  67 002c 04009DE5 		ldr	r0, [sp, #4]
  68              	.LVL5:
  84:D:/Work/DeviceTester/amazon-freertos/lib/third_party/mcu_vendor/renesas/rz_mcu_boards/amazon_freertos_common\cryptogram_sample.c **** 
  69              		.loc 1 84 0
  70 0030 000086E0 		add	r0, r6, r0
  71              	.LVL6:
  72 0034 FEFFFFEB 		bl	R_Prnd_Init_Genrand
  73              	.LVL7:
  86:D:/Work/DeviceTester/amazon-freertos/lib/third_party/mcu_vendor/renesas/rz_mcu_boards/amazon_freertos_common\cryptogram_sample.c **** 
  74              		.loc 1 86 0
  75 0038 FEFFFFEB 		bl	R_Prnd_Genrand_int32
  76              	.LVL8:
  89:D:/Work/DeviceTester/amazon-freertos/lib/third_party/mcu_vendor/renesas/rz_mcu_boards/amazon_freertos_common\cryptogram_sample.c **** 
  77              		.loc 1 89 0
  78 003c 08D08DE2 		add	sp, sp, #8
  79              		.cfi_remember_state
  80              		.cfi_def_cfa_offset 24
  81              		@ sp needed
  82 0040 F081BDE8 		pop	{r4, r5, r6, r7, r8, pc}
  83              	.LVL9:
  84              	.L2:
  85              		.cfi_restore_state
  86              	.LBB7:
  87              	.LBB6:
 117:D:/Work/DeviceTester/amazon-freertos/lib/third_party/mcu_vendor/renesas/rz_mcu_boards/amazon_freertos_common\cryptogram_sample.c ****     }
 118:D:/Work/DeviceTester/amazon-freertos/lib/third_party/mcu_vendor/renesas/rz_mcu_boards/amazon_freertos_common\cryptogram_sample.c **** 
 119:D:/Work/DeviceTester/amazon-freertos/lib/third_party/mcu_vendor/renesas/rz_mcu_boards/amazon_freertos_common\cryptogram_sample.c ****     /* set up an ADC configuration */
 120:D:/Work/DeviceTester/amazon-freertos/lib/third_party/mcu_vendor/renesas/rz_mcu_boards/amazon_freertos_common\cryptogram_sample.c ****     adc_config.config.alignment = ADC_ALIGN_RIGHT;
  88              		.loc 1 120 0
  89 0044 D4209FE5 		ldr	r2, .L11+8
  90 0048 0030A0E3 		mov	r3, #0
 121:D:/Work/DeviceTester/amazon-freertos/lib/third_party/mcu_vendor/renesas/rz_mcu_boards/amazon_freertos_common\cryptogram_sample.c ****     /* initalize interrupt priority */
 122:D:/Work/DeviceTester/amazon-freertos/lib/third_party/mcu_vendor/renesas/rz_mcu_boards/amazon_freertos_common\cryptogram_sample.c ****     adc_config.config.interrupt_priority = INTC_PRIORITY_20;
 123:D:/Work/DeviceTester/amazon-freertos/lib/third_party/mcu_vendor/renesas/rz_mcu_boards/amazon_freertos_common\cryptogram_sample.c ****     adc_config.config.resolution = ADC_RESOLUTION_12;
 124:D:/Work/DeviceTester/amazon-freertos/lib/third_party/mcu_vendor/renesas/rz_mcu_boards/amazon_freertos_common\cryptogram_sample.c ****     adc_config.config.scan_mode = ADC_SCAN_MODE_SINGLE;
 125:D:/Work/DeviceTester/amazon-freertos/lib/third_party/mcu_vendor/renesas/rz_mcu_boards/amazon_freertos_common\cryptogram_sample.c ****     /* initalize call back */
 126:D:/Work/DeviceTester/amazon-freertos/lib/third_party/mcu_vendor/renesas/rz_mcu_boards/amazon_freertos_common\cryptogram_sample.c ****     adc_config.config.p_adcCallback = NULL;
 127:D:/Work/DeviceTester/amazon-freertos/lib/third_party/mcu_vendor/renesas/rz_mcu_boards/amazon_freertos_common\cryptogram_sample.c **** 
 128:D:/Work/DeviceTester/amazon-freertos/lib/third_party/mcu_vendor/renesas/rz_mcu_boards/amazon_freertos_common\cryptogram_sample.c ****     /* set the per-channel configuration to enable channel 6 (AN006) only */
 129:D:/Work/DeviceTester/amazon-freertos/lib/third_party/mcu_vendor/renesas/rz_mcu_boards/amazon_freertos_common\cryptogram_sample.c ****     for (channel = ADC_CHANNEL_AN000; channel < ADC_CHANNELS; channel++)
 130:D:/Work/DeviceTester/amazon-freertos/lib/third_party/mcu_vendor/renesas/rz_mcu_boards/amazon_freertos_common\cryptogram_sample.c ****     {
 131:D:/Work/DeviceTester/amazon-freertos/lib/third_party/mcu_vendor/renesas/rz_mcu_boards/amazon_freertos_common\cryptogram_sample.c ****         adc_config.config.channels[channel].sample_time = 0;
  91              		.loc 1 131 0
  92 004c 03C0A0E1 		mov	ip, r3
 122:D:/Work/DeviceTester/amazon-freertos/lib/third_party/mcu_vendor/renesas/rz_mcu_boards/amazon_freertos_common\cryptogram_sample.c ****     adc_config.config.resolution = ADC_RESOLUTION_12;
  93              		.loc 1 122 0
  94 0050 1410A0E3 		mov	r1, #20
 120:D:/Work/DeviceTester/amazon-freertos/lib/third_party/mcu_vendor/renesas/rz_mcu_boards/amazon_freertos_common\cryptogram_sample.c ****     /* initalize interrupt priority */
  95              		.loc 1 120 0
  96 0054 0130C2E5 		strb	r3, [r2, #1]
 122:D:/Work/DeviceTester/amazon-freertos/lib/third_party/mcu_vendor/renesas/rz_mcu_boards/amazon_freertos_common\cryptogram_sample.c ****     adc_config.config.resolution = ADC_RESOLUTION_12;
  97              		.loc 1 122 0
  98 0058 0810C2E5 		strb	r1, [r2, #8]
 123:D:/Work/DeviceTester/amazon-freertos/lib/third_party/mcu_vendor/renesas/rz_mcu_boards/amazon_freertos_common\cryptogram_sample.c ****     adc_config.config.scan_mode = ADC_SCAN_MODE_SINGLE;
  99              		.loc 1 123 0
 100 005c 0030C2E5 		strb	r3, [r2]
 124:D:/Work/DeviceTester/amazon-freertos/lib/third_party/mcu_vendor/renesas/rz_mcu_boards/amazon_freertos_common\cryptogram_sample.c ****     /* initalize call back */
 101              		.loc 1 124 0
 102 0060 0230C2E5 		strb	r3, [r2, #2]
 126:D:/Work/DeviceTester/amazon-freertos/lib/third_party/mcu_vendor/renesas/rz_mcu_boards/amazon_freertos_common\cryptogram_sample.c **** 
 103              		.loc 1 126 0
 104 0064 043082E5 		str	r3, [r2, #4]
 105              	.LVL10:
 106              	.L4:
 107 0068 031082E0 		add	r1, r2, r3
 108 006c 083083E2 		add	r3, r3, #8
 129:D:/Work/DeviceTester/amazon-freertos/lib/third_party/mcu_vendor/renesas/rz_mcu_boards/amazon_freertos_common\cryptogram_sample.c ****     {
 109              		.loc 1 129 0
 110 0070 400053E3 		cmp	r3, #64
 111              		.loc 1 131 0
 112 0074 0CC081E5 		str	ip, [r1, #12]
 132:D:/Work/DeviceTester/amazon-freertos/lib/third_party/mcu_vendor/renesas/rz_mcu_boards/amazon_freertos_common\cryptogram_sample.c ****         adc_config.config.channels[channel].trigger_source = ADC_TRIGGER_DISABLED;
 113              		.loc 1 132 0
 114 0078 10C0C1E5 		strb	ip, [r1, #16]
 129:D:/Work/DeviceTester/amazon-freertos/lib/third_party/mcu_vendor/renesas/rz_mcu_boards/amazon_freertos_common\cryptogram_sample.c ****     {
 115              		.loc 1 129 0
 116 007c F9FFFF1A 		bne	.L4
 133:D:/Work/DeviceTester/amazon-freertos/lib/third_party/mcu_vendor/renesas/rz_mcu_boards/amazon_freertos_common\cryptogram_sample.c ****     }
 134:D:/Work/DeviceTester/amazon-freertos/lib/third_party/mcu_vendor/renesas/rz_mcu_boards/amazon_freertos_common\cryptogram_sample.c **** 
 135:D:/Work/DeviceTester/amazon-freertos/lib/third_party/mcu_vendor/renesas/rz_mcu_boards/amazon_freertos_common\cryptogram_sample.c ****     adc_config.config.channels[ADC_CHANNEL_AN007].sample_time = 50;
 117              		.loc 1 135 0
 118 0080 3230A0E3 		mov	r3, #50
 136:D:/Work/DeviceTester/amazon-freertos/lib/third_party/mcu_vendor/renesas/rz_mcu_boards/amazon_freertos_common\cryptogram_sample.c ****     adc_config.config.channels[ADC_CHANNEL_AN007].trigger_source = ADC_TRIGGER_NORMAL;
 119              		.loc 1 136 0
 120 0084 0110A0E3 		mov	r1, #1
 135:D:/Work/DeviceTester/amazon-freertos/lib/third_party/mcu_vendor/renesas/rz_mcu_boards/amazon_freertos_common\cryptogram_sample.c ****     adc_config.config.channels[ADC_CHANNEL_AN007].trigger_source = ADC_TRIGGER_NORMAL;
 121              		.loc 1 135 0
 122 0088 443082E5 		str	r3, [r2, #68]
 123              		.loc 1 136 0
 124 008c 4810C2E5 		strb	r1, [r2, #72]
 137:D:/Work/DeviceTester/amazon-freertos/lib/third_party/mcu_vendor/renesas/rz_mcu_boards/amazon_freertos_common\cryptogram_sample.c **** 
 138:D:/Work/DeviceTester/amazon-freertos/lib/third_party/mcu_vendor/renesas/rz_mcu_boards/amazon_freertos_common\cryptogram_sample.c ****     /* call control */
 139:D:/Work/DeviceTester/amazon-freertos/lib/third_party/mcu_vendor/renesas/rz_mcu_boards/amazon_freertos_common\cryptogram_sample.c ****     ret_val = control(s_adc_handle, CTL_ADC_SET_CONFIGURATION, &adc_config);
 125              		.loc 1 139 0
 126 0090 88209FE5 		ldr	r2, .L11+8
 127 0094 FEFFFFEB 		bl	control
 128              	.LVL11:
 140:D:/Work/DeviceTester/amazon-freertos/lib/third_party/mcu_vendor/renesas/rz_mcu_boards/amazon_freertos_common\cryptogram_sample.c **** 
 141:D:/Work/DeviceTester/amazon-freertos/lib/third_party/mcu_vendor/renesas/rz_mcu_boards/amazon_freertos_common\cryptogram_sample.c ****     /* on error */
 142:D:/Work/DeviceTester/amazon-freertos/lib/third_party/mcu_vendor/renesas/rz_mcu_boards/amazon_freertos_common\cryptogram_sample.c ****     if (DRV_SUCCESS != ret_val)
 129              		.loc 1 142 0
 130 0098 004050E2 		subs	r4, r0, #0
 131 009c E0FFFF1A 		bne	.L5
 143:D:/Work/DeviceTester/amazon-freertos/lib/third_party/mcu_vendor/renesas/rz_mcu_boards/amazon_freertos_common\cryptogram_sample.c ****     {
 144:D:/Work/DeviceTester/amazon-freertos/lib/third_party/mcu_vendor/renesas/rz_mcu_boards/amazon_freertos_common\cryptogram_sample.c ****         /* error */
 145:D:/Work/DeviceTester/amazon-freertos/lib/third_party/mcu_vendor/renesas/rz_mcu_boards/amazon_freertos_common\cryptogram_sample.c ****         return (uint32_t)dummy32_buf;
 146:D:/Work/DeviceTester/amazon-freertos/lib/third_party/mcu_vendor/renesas/rz_mcu_boards/amazon_freertos_common\cryptogram_sample.c ****     }
 147:D:/Work/DeviceTester/amazon-freertos/lib/third_party/mcu_vendor/renesas/rz_mcu_boards/amazon_freertos_common\cryptogram_sample.c **** 
 148:D:/Work/DeviceTester/amazon-freertos/lib/third_party/mcu_vendor/renesas/rz_mcu_boards/amazon_freertos_common\cryptogram_sample.c ****     /* call control to trigger the ADC conversion */
 149:D:/Work/DeviceTester/amazon-freertos/lib/third_party/mcu_vendor/renesas/rz_mcu_boards/amazon_freertos_common\cryptogram_sample.c ****     /* no callback is set, so this will block until the conversion has been completed (a microsecon
 150:D:/Work/DeviceTester/amazon-freertos/lib/third_party/mcu_vendor/renesas/rz_mcu_boards/amazon_freertos_common\cryptogram_sample.c ****     control(s_adc_handle, CTL_ADC_SOFTWARE_TRIGGER, NULL);
 151:D:/Work/DeviceTester/amazon-freertos/lib/third_party/mcu_vendor/renesas/rz_mcu_boards/amazon_freertos_common\cryptogram_sample.c **** 
 152:D:/Work/DeviceTester/amazon-freertos/lib/third_party/mcu_vendor/renesas/rz_mcu_boards/amazon_freertos_common\cryptogram_sample.c ****     count = read(s_adc_handle, buffer, 2);
 132              		.loc 1 152 0
 133 00a0 7C709FE5 		ldr	r7, .L11+12
 150:D:/Work/DeviceTester/amazon-freertos/lib/third_party/mcu_vendor/renesas/rz_mcu_boards/amazon_freertos_common\cryptogram_sample.c **** 
 134              		.loc 1 150 0
 135 00a4 0420A0E1 		mov	r2, r4
 136 00a8 0410A0E1 		mov	r1, r4
 137 00ac 000095E5 		ldr	r0, [r5]
 138              	.LVL12:
 139 00b0 FEFFFFEB 		bl	control
 140              	.LVL13:
 141              		.loc 1 152 0
 142 00b4 0710A0E1 		mov	r1, r7
 143 00b8 0220A0E3 		mov	r2, #2
 144 00bc 000095E5 		ldr	r0, [r5]
 145 00c0 FEFFFFEB 		bl	read
 146              	.LVL14:
 153:D:/Work/DeviceTester/amazon-freertos/lib/third_party/mcu_vendor/renesas/rz_mcu_boards/amazon_freertos_common\cryptogram_sample.c **** 
 154:D:/Work/DeviceTester/amazon-freertos/lib/third_party/mcu_vendor/renesas/rz_mcu_boards/amazon_freertos_common\cryptogram_sample.c ****     /* if we successfully read the 2 bytes of conversion data for AN006 */
 155:D:/Work/DeviceTester/amazon-freertos/lib/third_party/mcu_vendor/renesas/rz_mcu_boards/amazon_freertos_common\cryptogram_sample.c ****     if (2 == count)
 147              		.loc 1 155 0
 148 00c4 020050E3 		cmp	r0, #2
 156:D:/Work/DeviceTester/amazon-freertos/lib/third_party/mcu_vendor/renesas/rz_mcu_boards/amazon_freertos_common\cryptogram_sample.c ****     {
 157:D:/Work/DeviceTester/amazon-freertos/lib/third_party/mcu_vendor/renesas/rz_mcu_boards/amazon_freertos_common\cryptogram_sample.c ****         /* data is read LSB first */
 158:D:/Work/DeviceTester/amazon-freertos/lib/third_party/mcu_vendor/renesas/rz_mcu_boards/amazon_freertos_common\cryptogram_sample.c ****         channel_conversion = buffer[1];
 159:D:/Work/DeviceTester/amazon-freertos/lib/third_party/mcu_vendor/renesas/rz_mcu_boards/amazon_freertos_common\cryptogram_sample.c ****         channel_conversion <<= 8u;
 160:D:/Work/DeviceTester/amazon-freertos/lib/third_party/mcu_vendor/renesas/rz_mcu_boards/amazon_freertos_common\cryptogram_sample.c ****         channel_conversion |= buffer[0];
 161:D:/Work/DeviceTester/amazon-freertos/lib/third_party/mcu_vendor/renesas/rz_mcu_boards/amazon_freertos_common\cryptogram_sample.c ****     }
 162:D:/Work/DeviceTester/amazon-freertos/lib/third_party/mcu_vendor/renesas/rz_mcu_boards/amazon_freertos_common\cryptogram_sample.c **** 
 163:D:/Work/DeviceTester/amazon-freertos/lib/third_party/mcu_vendor/renesas/rz_mcu_boards/amazon_freertos_common\cryptogram_sample.c ****     /* shift the random number */
 164:D:/Work/DeviceTester/amazon-freertos/lib/third_party/mcu_vendor/renesas/rz_mcu_boards/amazon_freertos_common\cryptogram_sample.c ****     dummy32_buf = (uint32_t) channel_conversion << 16;
 165:D:/Work/DeviceTester/amazon-freertos/lib/third_party/mcu_vendor/renesas/rz_mcu_boards/amazon_freertos_common\cryptogram_sample.c **** 
 166:D:/Work/DeviceTester/amazon-freertos/lib/third_party/mcu_vendor/renesas/rz_mcu_boards/amazon_freertos_common\cryptogram_sample.c ****     /* call control to trigger the ADC conversion */
 167:D:/Work/DeviceTester/amazon-freertos/lib/third_party/mcu_vendor/renesas/rz_mcu_boards/amazon_freertos_common\cryptogram_sample.c ****     /* no callback is set, so this will block until the conversion has been completed (a microsecon
 168:D:/Work/DeviceTester/amazon-freertos/lib/third_party/mcu_vendor/renesas/rz_mcu_boards/amazon_freertos_common\cryptogram_sample.c ****     control(s_adc_handle, CTL_ADC_SOFTWARE_TRIGGER, NULL);
 149              		.loc 1 168 0
 150 00c8 0020A0E3 		mov	r2, #0
 160:D:/Work/DeviceTester/amazon-freertos/lib/third_party/mcu_vendor/renesas/rz_mcu_boards/amazon_freertos_common\cryptogram_sample.c ****     }
 151              		.loc 1 160 0
 152 00cc 0040D705 		ldrbeq	r4, [r7]	@ zero_extendqisi2
 153              	.LVL15:
 154              		.loc 1 168 0
 155 00d0 0210A0E1 		mov	r1, r2
 160:D:/Work/DeviceTester/amazon-freertos/lib/third_party/mcu_vendor/renesas/rz_mcu_boards/amazon_freertos_common\cryptogram_sample.c ****     }
 156              		.loc 1 160 0
 157 00d4 0130D705 		ldrbeq	r3, [r7, #1]	@ zero_extendqisi2
 158              		.loc 1 168 0
 159 00d8 000095E5 		ldr	r0, [r5]
 160              	.LVL16:
 160:D:/Work/DeviceTester/amazon-freertos/lib/third_party/mcu_vendor/renesas/rz_mcu_boards/amazon_freertos_common\cryptogram_sample.c ****     }
 161              		.loc 1 160 0
 162 00dc 03448401 		orreq	r4, r4, r3, lsl #8
 163              	.LVL17:
 164              		.loc 1 168 0
 165 00e0 FEFFFFEB 		bl	control
 166              	.LVL18:
 169:D:/Work/DeviceTester/amazon-freertos/lib/third_party/mcu_vendor/renesas/rz_mcu_boards/amazon_freertos_common\cryptogram_sample.c **** 
 170:D:/Work/DeviceTester/amazon-freertos/lib/third_party/mcu_vendor/renesas/rz_mcu_boards/amazon_freertos_common\cryptogram_sample.c ****     count = read(s_adc_handle, buffer, 2);
 167              		.loc 1 170 0
 168 00e4 0220A0E3 		mov	r2, #2
 169 00e8 34109FE5 		ldr	r1, .L11+12
 170 00ec 000095E5 		ldr	r0, [r5]
 164:D:/Work/DeviceTester/amazon-freertos/lib/third_party/mcu_vendor/renesas/rz_mcu_boards/amazon_freertos_common\cryptogram_sample.c **** 
 171              		.loc 1 164 0
 172 00f0 0488A0E1 		lsl	r8, r4, #16
 173              	.LVL19:
 174              		.loc 1 170 0
 175 00f4 FEFFFFEB 		bl	read
 176              	.LVL20:
 171:D:/Work/DeviceTester/amazon-freertos/lib/third_party/mcu_vendor/renesas/rz_mcu_boards/amazon_freertos_common\cryptogram_sample.c **** 
 172:D:/Work/DeviceTester/amazon-freertos/lib/third_party/mcu_vendor/renesas/rz_mcu_boards/amazon_freertos_common\cryptogram_sample.c ****     /* if we successfully read the 2 bytes of conversion data for AN006 */
 173:D:/Work/DeviceTester/amazon-freertos/lib/third_party/mcu_vendor/renesas/rz_mcu_boards/amazon_freertos_common\cryptogram_sample.c ****     if (2 == count)
 177              		.loc 1 173 0
 178 00f8 020050E3 		cmp	r0, #2
 174:D:/Work/DeviceTester/amazon-freertos/lib/third_party/mcu_vendor/renesas/rz_mcu_boards/amazon_freertos_common\cryptogram_sample.c ****     {
 175:D:/Work/DeviceTester/amazon-freertos/lib/third_party/mcu_vendor/renesas/rz_mcu_boards/amazon_freertos_common\cryptogram_sample.c ****         /* data is read LSB first */
 176:D:/Work/DeviceTester/amazon-freertos/lib/third_party/mcu_vendor/renesas/rz_mcu_boards/amazon_freertos_common\cryptogram_sample.c ****         channel_conversion = buffer[1];
 177:D:/Work/DeviceTester/amazon-freertos/lib/third_party/mcu_vendor/renesas/rz_mcu_boards/amazon_freertos_common\cryptogram_sample.c ****         channel_conversion <<= 8u;
 178:D:/Work/DeviceTester/amazon-freertos/lib/third_party/mcu_vendor/renesas/rz_mcu_boards/amazon_freertos_common\cryptogram_sample.c ****         channel_conversion |= buffer[0];
 179:D:/Work/DeviceTester/amazon-freertos/lib/third_party/mcu_vendor/renesas/rz_mcu_boards/amazon_freertos_common\cryptogram_sample.c ****     }
 180:D:/Work/DeviceTester/amazon-freertos/lib/third_party/mcu_vendor/renesas/rz_mcu_boards/amazon_freertos_common\cryptogram_sample.c **** 
 181:D:/Work/DeviceTester/amazon-freertos/lib/third_party/mcu_vendor/renesas/rz_mcu_boards/amazon_freertos_common\cryptogram_sample.c ****     /* add AD data to random number */
 182:D:/Work/DeviceTester/amazon-freertos/lib/third_party/mcu_vendor/renesas/rz_mcu_boards/amazon_freertos_common\cryptogram_sample.c ****     dummy32_buf |= ((uint32_t) channel_conversion);
 183:D:/Work/DeviceTester/amazon-freertos/lib/third_party/mcu_vendor/renesas/rz_mcu_boards/amazon_freertos_common\cryptogram_sample.c **** 
 184:D:/Work/DeviceTester/amazon-freertos/lib/third_party/mcu_vendor/renesas/rz_mcu_boards/amazon_freertos_common\cryptogram_sample.c ****     close(s_adc_handle);
 179              		.loc 1 184 0
 180 00fc 000095E5 		ldr	r0, [r5]
 181              	.LVL21:
 178:D:/Work/DeviceTester/amazon-freertos/lib/third_party/mcu_vendor/renesas/rz_mcu_boards/amazon_freertos_common\cryptogram_sample.c ****     }
 182              		.loc 1 178 0
 183 0100 0040D705 		ldrbeq	r4, [r7]	@ zero_extendqisi2
 184              	.LVL22:
 185 0104 0130D705 		ldrbeq	r3, [r7, #1]	@ zero_extendqisi2
 186 0108 03448401 		orreq	r4, r4, r3, lsl #8
 187              	.LVL23:
 182:D:/Work/DeviceTester/amazon-freertos/lib/third_party/mcu_vendor/renesas/rz_mcu_boards/amazon_freertos_common\cryptogram_sample.c **** 
 188              		.loc 1 182 0
 189 010c 084084E1 		orr	r4, r4, r8
 190              	.LVL24:
 191              		.loc 1 184 0
 192 0110 FEFFFFEB 		bl	close
 193              	.LVL25:
 194 0114 C3FFFFEA 		b	.L3
 195              	.L12:
 196              		.align	2
 197              	.L11:
 198 0118 00000000 		.word	.LC0
 199 011c 00000000 		.word	.LANCHOR0
 200 0120 00000000 		.word	.LANCHOR1
 201 0124 00000000 		.word	.LANCHOR2
 202              	.LBE6:
 203              	.LBE7:
 204              		.cfi_endproc
 205              	.LFE1:
 207              		.section	.bss.adc_config.8601,"aw",%nobits
 208              		.align	2
 209              		.set	.LANCHOR1,. + 0
 212              	adc_config.8601:
 213 0000 00000000 		.space	80
 213      00000000 
 213      00000000 
 213      00000000 
 213      00000000 
 214              		.section	.bss.buffer.8604,"aw",%nobits
 215              		.set	.LANCHOR2,. + 0
 218              	buffer.8604:
 219 0000 0000     		.space	2
 220              		.section	.data.s_adc_handle.8607,"aw",%progbits
 221              		.align	2
 222              		.set	.LANCHOR0,. + 0
 225              	s_adc_handle.8607:
 226 0000 FFFFFFFF 		.word	-1
 227              		.section	.rodata.cryptogram_sample.str1.1,"aMS",%progbits,1
 228              	.LC0:
 229 0000 5C5C2E5C 		.ascii	"\\\\.\\adc0\000"
 229      61646330 
 229      00
 230              		.text
 231              	.Letext0:
 232              		.file 2 "c:\\program files (x86)\\gnu tools arm embedded\\6 2017-q2-update\\arm-none-eabi\\include
 233              		.file 3 "c:\\program files (x86)\\gnu tools arm embedded\\6 2017-q2-update\\arm-none-eabi\\include
 234              		.file 4 "c:\\program files (x86)\\gnu tools arm embedded\\6 2017-q2-update\\arm-none-eabi\\include
 235              		.file 5 "c:\\program files (x86)\\gnu tools arm embedded\\6 2017-q2-update\\lib\\gcc\\arm-none-eab
 236              		.file 6 "c:\\program files (x86)\\gnu tools arm embedded\\6 2017-q2-update\\arm-none-eabi\\include
 237              		.file 7 "c:\\program files (x86)\\gnu tools arm embedded\\6 2017-q2-update\\arm-none-eabi\\include
 238              		.file 8 "c:\\program files (x86)\\gnu tools arm embedded\\6 2017-q2-update\\arm-none-eabi\\include
 239              		.file 9 "c:\\program files (x86)\\gnu tools arm embedded\\6 2017-q2-update\\arm-none-eabi\\include
 240              		.file 10 "D:\\Work\\DeviceTester\\amazon-freertos\\lib\\third_party\\mcu_vendor\\renesas\\rz_mcu_b
 241              		.file 11 "D:\\Work\\DeviceTester\\amazon-freertos\\lib\\third_party\\mcu_vendor\\renesas\\rz_mcu_b
 242              		.file 12 "D:\\Work\\DeviceTester\\amazon-freertos\\lib\\third_party\\mcu_vendor\\renesas\\rz_mcu_b
 243              		.file 13 "c:\\program files (x86)\\gnu tools arm embedded\\6 2017-q2-update\\arm-none-eabi\\includ
 244              		.file 14 "c:\\program files (x86)\\gnu tools arm embedded\\6 2017-q2-update\\arm-none-eabi\\includ
 245              		.file 15 "D:\\Work\\DeviceTester\\amazon-freertos\\lib\\third_party\\mcu_vendor\\renesas\\rz_mcu_b
 246              		.file 16 "D:\\Work\\DeviceTester\\amazon-freertos\\lib\\third_party\\mcu_vendor\\renesas\\rz_mcu_b
 247              		.file 17 "D:\\Work\\DeviceTester\\amazon-freertos\\lib\\third_party\\mcu_vendor\\renesas\\rz_mcu_b
 248              		.file 18 "c:\\program files (x86)\\gnu tools arm embedded\\6 2017-q2-update\\arm-none-eabi\\includ
 249              		.file 19 "D:\\Work\\DeviceTester\\amazon-freertos\\lib\\third_party\\mcu_vendor\\renesas\\rz_mcu_b