   1              		.cpu cortex-a9
   2              		.eabi_attribute 28, 1
   3              		.eabi_attribute 20, 1
   4              		.eabi_attribute 21, 1
   5              		.eabi_attribute 23, 3
   6              		.eabi_attribute 24, 1
   7              		.eabi_attribute 25, 1
   8              		.eabi_attribute 26, 1
   9              		.eabi_attribute 30, 4
  10              		.eabi_attribute 34, 0
  11              		.eabi_attribute 18, 4
  12              		.file	"freertos_usr_func.c"
  13              		.text
  14              	.Ltext0:
  15              		.cfi_sections	.debug_frame
  16              		.section	.text.vApplicationSetupTimerInterrupt,"ax",%progbits
  17              		.align	2
  18              		.global	vApplicationSetupTimerInterrupt
  19              		.syntax unified
  20              		.arm
  21              		.fpu neon
  23              	vApplicationSetupTimerInterrupt:
  24              	.LFB19:
  25              		.cfi_startproc
  26              		@ args = 0, pretend = 0, frame = 0
  27              		@ frame_needed = 0, uses_anonymous_args = 0
  28              		@ link register save eliminated.
  29 0000 1EFF2FE1 		bx	lr
  30              		.cfi_endproc
  31              	.LFE19:
  33              		.section	.text.vAssertCalled,"ax",%progbits
  34              		.align	2
  35              		.global	vAssertCalled
  36              		.syntax unified
  37              		.arm
  38              		.fpu neon
  40              	vAssertCalled:
  41              	.LFB17:
  42              		.cfi_startproc
  43              		@ args = 0, pretend = 0, frame = 0
  44              		@ frame_needed = 0, uses_anonymous_args = 0
  45              		@ link register save eliminated.
  46 0000 1EFF2FE1 		bx	lr
  47              		.cfi_endproc
  48              	.LFE17:
  50              		.section	.text.vApplicationTickHook,"ax",%progbits
  51              		.align	2
  52              		.global	vApplicationTickHook
  53              		.syntax unified
  54              		.arm
  55              		.fpu neon
  57              	vApplicationTickHook:
  58              	.LFB13:
  59              		.file 1 "D:/Work/DeviceTester/amazon-freertos/lib/third_party/mcu_vendor/renesas/rz_mcu_boards/ama
   1:D:/Work/DeviceTester/amazon-freertos/lib/third_party/mcu_vendor/renesas/rz_mcu_boards/amazon_freertos_common\freertos_usr_func.c **** /**************************************************************************************************
   2:D:/Work/DeviceTester/amazon-freertos/lib/third_party/mcu_vendor/renesas/rz_mcu_boards/amazon_freertos_common\freertos_usr_func.c ****  * DISCLAIMER
   3:D:/Work/DeviceTester/amazon-freertos/lib/third_party/mcu_vendor/renesas/rz_mcu_boards/amazon_freertos_common\freertos_usr_func.c ****  * This software is supplied by Renesas Electronics Corporation and is only intended for use with R
   4:D:/Work/DeviceTester/amazon-freertos/lib/third_party/mcu_vendor/renesas/rz_mcu_boards/amazon_freertos_common\freertos_usr_func.c ****  * other uses are authorized. This software is owned by Renesas Electronics Corporation and is prot
   5:D:/Work/DeviceTester/amazon-freertos/lib/third_party/mcu_vendor/renesas/rz_mcu_boards/amazon_freertos_common\freertos_usr_func.c ****  * applicable laws, including copyright laws.
   6:D:/Work/DeviceTester/amazon-freertos/lib/third_party/mcu_vendor/renesas/rz_mcu_boards/amazon_freertos_common\freertos_usr_func.c ****  * THIS SOFTWARE IS PROVIDED "AS IS" AND RENESAS MAKES NO WARRANTIES REGARDING
   7:D:/Work/DeviceTester/amazon-freertos/lib/third_party/mcu_vendor/renesas/rz_mcu_boards/amazon_freertos_common\freertos_usr_func.c ****  * THIS SOFTWARE, WHETHER EXPRESS, IMPLIED OR STATUTORY, INCLUDING BUT NOT LIMITED TO WARRANTIES OF
   8:D:/Work/DeviceTester/amazon-freertos/lib/third_party/mcu_vendor/renesas/rz_mcu_boards/amazon_freertos_common\freertos_usr_func.c ****  * FITNESS FOR A PARTICULAR PURPOSE AND NON-INFRINGEMENT. ALL SUCH WARRANTIES ARE EXPRESSLY DISCLAI
   9:D:/Work/DeviceTester/amazon-freertos/lib/third_party/mcu_vendor/renesas/rz_mcu_boards/amazon_freertos_common\freertos_usr_func.c ****  * EXTENT PERMITTED NOT PROHIBITED BY LAW, NEITHER RENESAS ELECTRONICS CORPORATION NOR ANY OF ITS A
  10:D:/Work/DeviceTester/amazon-freertos/lib/third_party/mcu_vendor/renesas/rz_mcu_boards/amazon_freertos_common\freertos_usr_func.c ****  * SHALL BE LIABLE FOR ANY DIRECT, INDIRECT, SPECIAL, INCIDENTAL OR CONSEQUENTIAL DAMAGES FOR ANY R
  11:D:/Work/DeviceTester/amazon-freertos/lib/third_party/mcu_vendor/renesas/rz_mcu_boards/amazon_freertos_common\freertos_usr_func.c ****  * THIS SOFTWARE, EVEN IF RENESAS OR ITS AFFILIATES HAVE BEEN ADVISED OF THE POSSIBILITY OF SUCH DA
  12:D:/Work/DeviceTester/amazon-freertos/lib/third_party/mcu_vendor/renesas/rz_mcu_boards/amazon_freertos_common\freertos_usr_func.c ****  * Renesas reserves the right, without notice, to make changes to this software and to discontinue 
  13:D:/Work/DeviceTester/amazon-freertos/lib/third_party/mcu_vendor/renesas/rz_mcu_boards/amazon_freertos_common\freertos_usr_func.c ****  * this software. By using this software, you agree to the additional terms and conditions found by
  14:D:/Work/DeviceTester/amazon-freertos/lib/third_party/mcu_vendor/renesas/rz_mcu_boards/amazon_freertos_common\freertos_usr_func.c ****  * following link:
  15:D:/Work/DeviceTester/amazon-freertos/lib/third_party/mcu_vendor/renesas/rz_mcu_boards/amazon_freertos_common\freertos_usr_func.c ****  * http://www.renesas.com/disclaimer
  16:D:/Work/DeviceTester/amazon-freertos/lib/third_party/mcu_vendor/renesas/rz_mcu_boards/amazon_freertos_common\freertos_usr_func.c ****  *
  17:D:/Work/DeviceTester/amazon-freertos/lib/third_party/mcu_vendor/renesas/rz_mcu_boards/amazon_freertos_common\freertos_usr_func.c ****  * Copyright (C) 2019 Renesas Electronics Corporation. All rights reserved.
  18:D:/Work/DeviceTester/amazon-freertos/lib/third_party/mcu_vendor/renesas/rz_mcu_boards/amazon_freertos_common\freertos_usr_func.c ****  **************************************************************************************************
  19:D:/Work/DeviceTester/amazon-freertos/lib/third_party/mcu_vendor/renesas/rz_mcu_boards/amazon_freertos_common\freertos_usr_func.c **** 
  20:D:/Work/DeviceTester/amazon-freertos/lib/third_party/mcu_vendor/renesas/rz_mcu_boards/amazon_freertos_common\freertos_usr_func.c **** /*******************************************************************************
  21:D:/Work/DeviceTester/amazon-freertos/lib/third_party/mcu_vendor/renesas/rz_mcu_boards/amazon_freertos_common\freertos_usr_func.c **** * File Name    : freertos_usr_func.c
  22:D:/Work/DeviceTester/amazon-freertos/lib/third_party/mcu_vendor/renesas/rz_mcu_boards/amazon_freertos_common\freertos_usr_func.c **** * Version      : 1.0
  23:D:/Work/DeviceTester/amazon-freertos/lib/third_party/mcu_vendor/renesas/rz_mcu_boards/amazon_freertos_common\freertos_usr_func.c **** * Description  : Contains FreeRTOS user-defined functions.
  24:D:/Work/DeviceTester/amazon-freertos/lib/third_party/mcu_vendor/renesas/rz_mcu_boards/amazon_freertos_common\freertos_usr_func.c **** ******************************************************************************/
  25:D:/Work/DeviceTester/amazon-freertos/lib/third_party/mcu_vendor/renesas/rz_mcu_boards/amazon_freertos_common\freertos_usr_func.c **** /*****************************************************************************
  26:D:/Work/DeviceTester/amazon-freertos/lib/third_party/mcu_vendor/renesas/rz_mcu_boards/amazon_freertos_common\freertos_usr_func.c **** * History : DD.MM.YYYY Version  Description
  27:D:/Work/DeviceTester/amazon-freertos/lib/third_party/mcu_vendor/renesas/rz_mcu_boards/amazon_freertos_common\freertos_usr_func.c **** *         : 30.06.2016 1.00     First Release
  28:D:/Work/DeviceTester/amazon-freertos/lib/third_party/mcu_vendor/renesas/rz_mcu_boards/amazon_freertos_common\freertos_usr_func.c **** ******************************************************************************/
  29:D:/Work/DeviceTester/amazon-freertos/lib/third_party/mcu_vendor/renesas/rz_mcu_boards/amazon_freertos_common\freertos_usr_func.c **** 
  30:D:/Work/DeviceTester/amazon-freertos/lib/third_party/mcu_vendor/renesas/rz_mcu_boards/amazon_freertos_common\freertos_usr_func.c **** /******************************************************************************
  31:D:/Work/DeviceTester/amazon-freertos/lib/third_party/mcu_vendor/renesas/rz_mcu_boards/amazon_freertos_common\freertos_usr_func.c **** Includes   <System Includes> , "Project Includes"
  32:D:/Work/DeviceTester/amazon-freertos/lib/third_party/mcu_vendor/renesas/rz_mcu_boards/amazon_freertos_common\freertos_usr_func.c **** ******************************************************************************/
  33:D:/Work/DeviceTester/amazon-freertos/lib/third_party/mcu_vendor/renesas/rz_mcu_boards/amazon_freertos_common\freertos_usr_func.c **** #include <stdio.h>
  34:D:/Work/DeviceTester/amazon-freertos/lib/third_party/mcu_vendor/renesas/rz_mcu_boards/amazon_freertos_common\freertos_usr_func.c **** #include "FreeRTOS.h"
  35:D:/Work/DeviceTester/amazon-freertos/lib/third_party/mcu_vendor/renesas/rz_mcu_boards/amazon_freertos_common\freertos_usr_func.c **** #include "task.h"
  36:D:/Work/DeviceTester/amazon-freertos/lib/third_party/mcu_vendor/renesas/rz_mcu_boards/amazon_freertos_common\freertos_usr_func.c **** #include "FreeRTOS_IP.h"
  37:D:/Work/DeviceTester/amazon-freertos/lib/third_party/mcu_vendor/renesas/rz_mcu_boards/amazon_freertos_common\freertos_usr_func.c **** #include "FreeRTOS_Sockets.h"
  38:D:/Work/DeviceTester/amazon-freertos/lib/third_party/mcu_vendor/renesas/rz_mcu_boards/amazon_freertos_common\freertos_usr_func.c **** 
  39:D:/Work/DeviceTester/amazon-freertos/lib/third_party/mcu_vendor/renesas/rz_mcu_boards/amazon_freertos_common\freertos_usr_func.c **** /******************************************************************************
  40:D:/Work/DeviceTester/amazon-freertos/lib/third_party/mcu_vendor/renesas/rz_mcu_boards/amazon_freertos_common\freertos_usr_func.c **** Macro definitions
  41:D:/Work/DeviceTester/amazon-freertos/lib/third_party/mcu_vendor/renesas/rz_mcu_boards/amazon_freertos_common\freertos_usr_func.c **** ******************************************************************************/
  42:D:/Work/DeviceTester/amazon-freertos/lib/third_party/mcu_vendor/renesas/rz_mcu_boards/amazon_freertos_common\freertos_usr_func.c **** #define SIZE_OF_IP_ADDRESS (16)
  43:D:/Work/DeviceTester/amazon-freertos/lib/third_party/mcu_vendor/renesas/rz_mcu_boards/amazon_freertos_common\freertos_usr_func.c **** 
  44:D:/Work/DeviceTester/amazon-freertos/lib/third_party/mcu_vendor/renesas/rz_mcu_boards/amazon_freertos_common\freertos_usr_func.c **** /******************************************************************************
  45:D:/Work/DeviceTester/amazon-freertos/lib/third_party/mcu_vendor/renesas/rz_mcu_boards/amazon_freertos_common\freertos_usr_func.c **** Typedef definitions
  46:D:/Work/DeviceTester/amazon-freertos/lib/third_party/mcu_vendor/renesas/rz_mcu_boards/amazon_freertos_common\freertos_usr_func.c **** ******************************************************************************/
  47:D:/Work/DeviceTester/amazon-freertos/lib/third_party/mcu_vendor/renesas/rz_mcu_boards/amazon_freertos_common\freertos_usr_func.c **** 
  48:D:/Work/DeviceTester/amazon-freertos/lib/third_party/mcu_vendor/renesas/rz_mcu_boards/amazon_freertos_common\freertos_usr_func.c **** /******************************************************************************
  49:D:/Work/DeviceTester/amazon-freertos/lib/third_party/mcu_vendor/renesas/rz_mcu_boards/amazon_freertos_common\freertos_usr_func.c **** Exported global variables (to be accessed by other files)
  50:D:/Work/DeviceTester/amazon-freertos/lib/third_party/mcu_vendor/renesas/rz_mcu_boards/amazon_freertos_common\freertos_usr_func.c **** ******************************************************************************/
  51:D:/Work/DeviceTester/amazon-freertos/lib/third_party/mcu_vendor/renesas/rz_mcu_boards/amazon_freertos_common\freertos_usr_func.c **** 
  52:D:/Work/DeviceTester/amazon-freertos/lib/third_party/mcu_vendor/renesas/rz_mcu_boards/amazon_freertos_common\freertos_usr_func.c **** /************* semaphore initialization *****************/
  53:D:/Work/DeviceTester/amazon-freertos/lib/third_party/mcu_vendor/renesas/rz_mcu_boards/amazon_freertos_common\freertos_usr_func.c **** 
  54:D:/Work/DeviceTester/amazon-freertos/lib/third_party/mcu_vendor/renesas/rz_mcu_boards/amazon_freertos_common\freertos_usr_func.c **** 
  55:D:/Work/DeviceTester/amazon-freertos/lib/third_party/mcu_vendor/renesas/rz_mcu_boards/amazon_freertos_common\freertos_usr_func.c **** /************* mutex initialization *********************/
  56:D:/Work/DeviceTester/amazon-freertos/lib/third_party/mcu_vendor/renesas/rz_mcu_boards/amazon_freertos_common\freertos_usr_func.c **** 
  57:D:/Work/DeviceTester/amazon-freertos/lib/third_party/mcu_vendor/renesas/rz_mcu_boards/amazon_freertos_common\freertos_usr_func.c **** 
  58:D:/Work/DeviceTester/amazon-freertos/lib/third_party/mcu_vendor/renesas/rz_mcu_boards/amazon_freertos_common\freertos_usr_func.c **** /************** queues initialization *******************/
  59:D:/Work/DeviceTester/amazon-freertos/lib/third_party/mcu_vendor/renesas/rz_mcu_boards/amazon_freertos_common\freertos_usr_func.c **** 
  60:D:/Work/DeviceTester/amazon-freertos/lib/third_party/mcu_vendor/renesas/rz_mcu_boards/amazon_freertos_common\freertos_usr_func.c **** 
  61:D:/Work/DeviceTester/amazon-freertos/lib/third_party/mcu_vendor/renesas/rz_mcu_boards/amazon_freertos_common\freertos_usr_func.c **** /************** event groups initialization *************/
  62:D:/Work/DeviceTester/amazon-freertos/lib/third_party/mcu_vendor/renesas/rz_mcu_boards/amazon_freertos_common\freertos_usr_func.c **** 
  63:D:/Work/DeviceTester/amazon-freertos/lib/third_party/mcu_vendor/renesas/rz_mcu_boards/amazon_freertos_common\freertos_usr_func.c **** 
  64:D:/Work/DeviceTester/amazon-freertos/lib/third_party/mcu_vendor/renesas/rz_mcu_boards/amazon_freertos_common\freertos_usr_func.c **** /************** mailbox initialization ******************/
  65:D:/Work/DeviceTester/amazon-freertos/lib/third_party/mcu_vendor/renesas/rz_mcu_boards/amazon_freertos_common\freertos_usr_func.c **** 
  66:D:/Work/DeviceTester/amazon-freertos/lib/third_party/mcu_vendor/renesas/rz_mcu_boards/amazon_freertos_common\freertos_usr_func.c **** 
  67:D:/Work/DeviceTester/amazon-freertos/lib/third_party/mcu_vendor/renesas/rz_mcu_boards/amazon_freertos_common\freertos_usr_func.c **** /************** memory pool initialization **************/
  68:D:/Work/DeviceTester/amazon-freertos/lib/third_party/mcu_vendor/renesas/rz_mcu_boards/amazon_freertos_common\freertos_usr_func.c **** 
  69:D:/Work/DeviceTester/amazon-freertos/lib/third_party/mcu_vendor/renesas/rz_mcu_boards/amazon_freertos_common\freertos_usr_func.c **** 
  70:D:/Work/DeviceTester/amazon-freertos/lib/third_party/mcu_vendor/renesas/rz_mcu_boards/amazon_freertos_common\freertos_usr_func.c **** /************** task initialization *********************/
  71:D:/Work/DeviceTester/amazon-freertos/lib/third_party/mcu_vendor/renesas/rz_mcu_boards/amazon_freertos_common\freertos_usr_func.c **** 
  72:D:/Work/DeviceTester/amazon-freertos/lib/third_party/mcu_vendor/renesas/rz_mcu_boards/amazon_freertos_common\freertos_usr_func.c **** 
  73:D:/Work/DeviceTester/amazon-freertos/lib/third_party/mcu_vendor/renesas/rz_mcu_boards/amazon_freertos_common\freertos_usr_func.c **** /* FreeRTOS's system timer. */
  74:D:/Work/DeviceTester/amazon-freertos/lib/third_party/mcu_vendor/renesas/rz_mcu_boards/amazon_freertos_common\freertos_usr_func.c **** void vApplicationSetupTimerInterrupt(void);
  75:D:/Work/DeviceTester/amazon-freertos/lib/third_party/mcu_vendor/renesas/rz_mcu_boards/amazon_freertos_common\freertos_usr_func.c **** 
  76:D:/Work/DeviceTester/amazon-freertos/lib/third_party/mcu_vendor/renesas/rz_mcu_boards/amazon_freertos_common\freertos_usr_func.c **** /* Hook functions used by FreeRTOS.
  77:D:/Work/DeviceTester/amazon-freertos/lib/third_party/mcu_vendor/renesas/rz_mcu_boards/amazon_freertos_common\freertos_usr_func.c ****  * void vAssertCalled(void);
  78:D:/Work/DeviceTester/amazon-freertos/lib/third_party/mcu_vendor/renesas/rz_mcu_boards/amazon_freertos_common\freertos_usr_func.c ****  * void vApplicationIdleHook(void);
  79:D:/Work/DeviceTester/amazon-freertos/lib/third_party/mcu_vendor/renesas/rz_mcu_boards/amazon_freertos_common\freertos_usr_func.c ****  * void vApplicationStackOverflowHook(TaskHandle_t xTask, signed char *pcTaskName);
  80:D:/Work/DeviceTester/amazon-freertos/lib/third_party/mcu_vendor/renesas/rz_mcu_boards/amazon_freertos_common\freertos_usr_func.c ****  */
  81:D:/Work/DeviceTester/amazon-freertos/lib/third_party/mcu_vendor/renesas/rz_mcu_boards/amazon_freertos_common\freertos_usr_func.c **** void vApplicationTickHook(void);
  82:D:/Work/DeviceTester/amazon-freertos/lib/third_party/mcu_vendor/renesas/rz_mcu_boards/amazon_freertos_common\freertos_usr_func.c **** void vApplicationMallocFailedHook(void);
  83:D:/Work/DeviceTester/amazon-freertos/lib/third_party/mcu_vendor/renesas/rz_mcu_boards/amazon_freertos_common\freertos_usr_func.c **** 
  84:D:/Work/DeviceTester/amazon-freertos/lib/third_party/mcu_vendor/renesas/rz_mcu_boards/amazon_freertos_common\freertos_usr_func.c **** /* FreeRTOS's processing before start the kernel.
  85:D:/Work/DeviceTester/amazon-freertos/lib/third_party/mcu_vendor/renesas/rz_mcu_boards/amazon_freertos_common\freertos_usr_func.c ****  *void Processing_Before_Start_Kernel(void);
  86:D:/Work/DeviceTester/amazon-freertos/lib/third_party/mcu_vendor/renesas/rz_mcu_boards/amazon_freertos_common\freertos_usr_func.c ****  */
  87:D:/Work/DeviceTester/amazon-freertos/lib/third_party/mcu_vendor/renesas/rz_mcu_boards/amazon_freertos_common\freertos_usr_func.c **** 
  88:D:/Work/DeviceTester/amazon-freertos/lib/third_party/mcu_vendor/renesas/rz_mcu_boards/amazon_freertos_common\freertos_usr_func.c **** /******************************************************************************
  89:D:/Work/DeviceTester/amazon-freertos/lib/third_party/mcu_vendor/renesas/rz_mcu_boards/amazon_freertos_common\freertos_usr_func.c **** Private global variables and functions
  90:D:/Work/DeviceTester/amazon-freertos/lib/third_party/mcu_vendor/renesas/rz_mcu_boards/amazon_freertos_common\freertos_usr_func.c **** ******************************************************************************/
  91:D:/Work/DeviceTester/amazon-freertos/lib/third_party/mcu_vendor/renesas/rz_mcu_boards/amazon_freertos_common\freertos_usr_func.c **** 
  92:D:/Work/DeviceTester/amazon-freertos/lib/third_party/mcu_vendor/renesas/rz_mcu_boards/amazon_freertos_common\freertos_usr_func.c **** /******************************************************************************
  93:D:/Work/DeviceTester/amazon-freertos/lib/third_party/mcu_vendor/renesas/rz_mcu_boards/amazon_freertos_common\freertos_usr_func.c **** * Function Name: vApplicationSetupTimerInterrupt
  94:D:/Work/DeviceTester/amazon-freertos/lib/third_party/mcu_vendor/renesas/rz_mcu_boards/amazon_freertos_common\freertos_usr_func.c **** * Description  : Initialize system timer for FreeRTOS with tick interrupt 1ms.
  95:D:/Work/DeviceTester/amazon-freertos/lib/third_party/mcu_vendor/renesas/rz_mcu_boards/amazon_freertos_common\freertos_usr_func.c **** * Arguments    : None.
  96:D:/Work/DeviceTester/amazon-freertos/lib/third_party/mcu_vendor/renesas/rz_mcu_boards/amazon_freertos_common\freertos_usr_func.c **** * Return Value : None.
  97:D:/Work/DeviceTester/amazon-freertos/lib/third_party/mcu_vendor/renesas/rz_mcu_boards/amazon_freertos_common\freertos_usr_func.c **** ******************************************************************************/
  98:D:/Work/DeviceTester/amazon-freertos/lib/third_party/mcu_vendor/renesas/rz_mcu_boards/amazon_freertos_common\freertos_usr_func.c **** void vApplicationSetupTimerInterrupt(void)
  99:D:/Work/DeviceTester/amazon-freertos/lib/third_party/mcu_vendor/renesas/rz_mcu_boards/amazon_freertos_common\freertos_usr_func.c **** {
 100:D:/Work/DeviceTester/amazon-freertos/lib/third_party/mcu_vendor/renesas/rz_mcu_boards/amazon_freertos_common\freertos_usr_func.c **** } /* End of function vApplicationSetupTimerInterrupt() */
 101:D:/Work/DeviceTester/amazon-freertos/lib/third_party/mcu_vendor/renesas/rz_mcu_boards/amazon_freertos_common\freertos_usr_func.c **** 
 102:D:/Work/DeviceTester/amazon-freertos/lib/third_party/mcu_vendor/renesas/rz_mcu_boards/amazon_freertos_common\freertos_usr_func.c **** /******************************************************************************
 103:D:/Work/DeviceTester/amazon-freertos/lib/third_party/mcu_vendor/renesas/rz_mcu_boards/amazon_freertos_common\freertos_usr_func.c **** * Function Name: vAssertCalled
 104:D:/Work/DeviceTester/amazon-freertos/lib/third_party/mcu_vendor/renesas/rz_mcu_boards/amazon_freertos_common\freertos_usr_func.c **** * Description  : This function is used to validate the input parameters.
 105:D:/Work/DeviceTester/amazon-freertos/lib/third_party/mcu_vendor/renesas/rz_mcu_boards/amazon_freertos_common\freertos_usr_func.c **** * Arguments    : None.
 106:D:/Work/DeviceTester/amazon-freertos/lib/third_party/mcu_vendor/renesas/rz_mcu_boards/amazon_freertos_common\freertos_usr_func.c **** * Return Value : None.
 107:D:/Work/DeviceTester/amazon-freertos/lib/third_party/mcu_vendor/renesas/rz_mcu_boards/amazon_freertos_common\freertos_usr_func.c **** ******************************************************************************/
 108:D:/Work/DeviceTester/amazon-freertos/lib/third_party/mcu_vendor/renesas/rz_mcu_boards/amazon_freertos_common\freertos_usr_func.c **** void vAssertCalled(void)
 109:D:/Work/DeviceTester/amazon-freertos/lib/third_party/mcu_vendor/renesas/rz_mcu_boards/amazon_freertos_common\freertos_usr_func.c **** {
 110:D:/Work/DeviceTester/amazon-freertos/lib/third_party/mcu_vendor/renesas/rz_mcu_boards/amazon_freertos_common\freertos_usr_func.c **** 
 111:D:/Work/DeviceTester/amazon-freertos/lib/third_party/mcu_vendor/renesas/rz_mcu_boards/amazon_freertos_common\freertos_usr_func.c **** } /* End of function vAssertCalled() */
 112:D:/Work/DeviceTester/amazon-freertos/lib/third_party/mcu_vendor/renesas/rz_mcu_boards/amazon_freertos_common\freertos_usr_func.c **** 
 113:D:/Work/DeviceTester/amazon-freertos/lib/third_party/mcu_vendor/renesas/rz_mcu_boards/amazon_freertos_common\freertos_usr_func.c **** /******************************************************************************
 114:D:/Work/DeviceTester/amazon-freertos/lib/third_party/mcu_vendor/renesas/rz_mcu_boards/amazon_freertos_common\freertos_usr_func.c **** * Function Name: vApplicationTickHook
 115:D:/Work/DeviceTester/amazon-freertos/lib/third_party/mcu_vendor/renesas/rz_mcu_boards/amazon_freertos_common\freertos_usr_func.c **** * Description  : This function will be called every tick interrupt.
 116:D:/Work/DeviceTester/amazon-freertos/lib/third_party/mcu_vendor/renesas/rz_mcu_boards/amazon_freertos_common\freertos_usr_func.c **** *                NOTE: vApplicationTickHook() EXECUTES FROM WITHIN AN ISR,
 117:D:/Work/DeviceTester/amazon-freertos/lib/third_party/mcu_vendor/renesas/rz_mcu_boards/amazon_freertos_common\freertos_usr_func.c **** *                      SO MUST BE VERY SHORT AND NOT USE MUCH STACK.
 118:D:/Work/DeviceTester/amazon-freertos/lib/third_party/mcu_vendor/renesas/rz_mcu_boards/amazon_freertos_common\freertos_usr_func.c **** *                      IN ADDITION, NOT CALL ANY APIs WITHOUT "FromISR" OR
 119:D:/Work/DeviceTester/amazon-freertos/lib/third_party/mcu_vendor/renesas/rz_mcu_boards/amazon_freertos_common\freertos_usr_func.c **** *                      "FROM_ISR" AT THE END.
 120:D:/Work/DeviceTester/amazon-freertos/lib/third_party/mcu_vendor/renesas/rz_mcu_boards/amazon_freertos_common\freertos_usr_func.c **** * Arguments    : None.
 121:D:/Work/DeviceTester/amazon-freertos/lib/third_party/mcu_vendor/renesas/rz_mcu_boards/amazon_freertos_common\freertos_usr_func.c **** * Return Value : None.
 122:D:/Work/DeviceTester/amazon-freertos/lib/third_party/mcu_vendor/renesas/rz_mcu_boards/amazon_freertos_common\freertos_usr_func.c **** ******************************************************************************/
 123:D:/Work/DeviceTester/amazon-freertos/lib/third_party/mcu_vendor/renesas/rz_mcu_boards/amazon_freertos_common\freertos_usr_func.c **** void vApplicationTickHook(void)
 124:D:/Work/DeviceTester/amazon-freertos/lib/third_party/mcu_vendor/renesas/rz_mcu_boards/amazon_freertos_common\freertos_usr_func.c **** {
  60              		.loc 1 124 0
  61              		.cfi_startproc
  62              		@ args = 0, pretend = 0, frame = 0
  63              		@ frame_needed = 0, uses_anonymous_args = 0
  64              		@ link register save eliminated.
  65 0000 1EFF2FE1 		bx	lr
  66              		.cfi_endproc
  67              	.LFE13:
  69              		.section	.text.vApplicationMallocFailedHook,"ax",%progbits
  70              		.align	2
  71              		.global	vApplicationMallocFailedHook
  72              		.syntax unified
  73              		.arm
  74              		.fpu neon
  76              	vApplicationMallocFailedHook:
  77              	.LFB14:
 125:D:/Work/DeviceTester/amazon-freertos/lib/third_party/mcu_vendor/renesas/rz_mcu_boards/amazon_freertos_common\freertos_usr_func.c ****     /* Implement user-code for user own purpose. */
 126:D:/Work/DeviceTester/amazon-freertos/lib/third_party/mcu_vendor/renesas/rz_mcu_boards/amazon_freertos_common\freertos_usr_func.c **** 
 127:D:/Work/DeviceTester/amazon-freertos/lib/third_party/mcu_vendor/renesas/rz_mcu_boards/amazon_freertos_common\freertos_usr_func.c **** } /* End of function vApplicationTickHook() */
 128:D:/Work/DeviceTester/amazon-freertos/lib/third_party/mcu_vendor/renesas/rz_mcu_boards/amazon_freertos_common\freertos_usr_func.c **** 
 129:D:/Work/DeviceTester/amazon-freertos/lib/third_party/mcu_vendor/renesas/rz_mcu_boards/amazon_freertos_common\freertos_usr_func.c **** /******************************************************************************
 130:D:/Work/DeviceTester/amazon-freertos/lib/third_party/mcu_vendor/renesas/rz_mcu_boards/amazon_freertos_common\freertos_usr_func.c **** * Function Name: vApplicationMallocFailedHook
 131:D:/Work/DeviceTester/amazon-freertos/lib/third_party/mcu_vendor/renesas/rz_mcu_boards/amazon_freertos_common\freertos_usr_func.c **** * Description  : This function is to capture the failure while
 132:D:/Work/DeviceTester/amazon-freertos/lib/third_party/mcu_vendor/renesas/rz_mcu_boards/amazon_freertos_common\freertos_usr_func.c **** *                memory allocation.
 133:D:/Work/DeviceTester/amazon-freertos/lib/third_party/mcu_vendor/renesas/rz_mcu_boards/amazon_freertos_common\freertos_usr_func.c **** * Arguments    : None.
 134:D:/Work/DeviceTester/amazon-freertos/lib/third_party/mcu_vendor/renesas/rz_mcu_boards/amazon_freertos_common\freertos_usr_func.c **** * Return Value : None.
 135:D:/Work/DeviceTester/amazon-freertos/lib/third_party/mcu_vendor/renesas/rz_mcu_boards/amazon_freertos_common\freertos_usr_func.c **** ******************************************************************************/
 136:D:/Work/DeviceTester/amazon-freertos/lib/third_party/mcu_vendor/renesas/rz_mcu_boards/amazon_freertos_common\freertos_usr_func.c **** void vApplicationMallocFailedHook(void)
 137:D:/Work/DeviceTester/amazon-freertos/lib/third_party/mcu_vendor/renesas/rz_mcu_boards/amazon_freertos_common\freertos_usr_func.c **** {
  78              		.loc 1 137 0
  79              		.cfi_startproc
  80              		@ Volatile: function does not return.
  81              		@ args = 0, pretend = 0, frame = 0
  82              		@ frame_needed = 0, uses_anonymous_args = 0
  83              		.loc 1 137 0
  84 0000 10402DE9 		push	{r4, lr}
  85              		.cfi_def_cfa_offset 8
  86              		.cfi_offset 4, -8
  87              		.cfi_offset 14, -4
 138:D:/Work/DeviceTester/amazon-freertos/lib/third_party/mcu_vendor/renesas/rz_mcu_boards/amazon_freertos_common\freertos_usr_func.c ****     /* Called if a call to pvPortMalloc() fails because there is insufficient
 139:D:/Work/DeviceTester/amazon-freertos/lib/third_party/mcu_vendor/renesas/rz_mcu_boards/amazon_freertos_common\freertos_usr_func.c ****     free memory available in the FreeRTOS heap.  pvPortMalloc() is called
 140:D:/Work/DeviceTester/amazon-freertos/lib/third_party/mcu_vendor/renesas/rz_mcu_boards/amazon_freertos_common\freertos_usr_func.c ****     internally by FreeRTOS API functions that create tasks, queues, software
 141:D:/Work/DeviceTester/amazon-freertos/lib/third_party/mcu_vendor/renesas/rz_mcu_boards/amazon_freertos_common\freertos_usr_func.c ****     timers, and semaphores.  The size of the FreeRTOS heap is set by the
 142:D:/Work/DeviceTester/amazon-freertos/lib/third_party/mcu_vendor/renesas/rz_mcu_boards/amazon_freertos_common\freertos_usr_func.c ****     configTOTAL_HEAP_SIZE configuration constant in FreeRTOSConfig.h. */
 143:D:/Work/DeviceTester/amazon-freertos/lib/third_party/mcu_vendor/renesas/rz_mcu_boards/amazon_freertos_common\freertos_usr_func.c **** 
 144:D:/Work/DeviceTester/amazon-freertos/lib/third_party/mcu_vendor/renesas/rz_mcu_boards/amazon_freertos_common\freertos_usr_func.c ****     taskDISABLE_INTERRUPTS();
  88              		.loc 1 144 0
  89 0004 FEFFFFEB 		bl	ulPortSetInterruptMask
  90              	.LVL0:
  91              	.L5:
  92 0008 FEFFFFEA 		b	.L5
  93              		.cfi_endproc
  94              	.LFE14:
  96              		.section	.text.vApplicationIPNetworkEventHook,"ax",%progbits
  97              		.align	2
  98              		.global	vApplicationIPNetworkEventHook
  99              		.syntax unified
 100              		.arm
 101              		.fpu neon
 103              	vApplicationIPNetworkEventHook:
 104              	.LFB15:
 145:D:/Work/DeviceTester/amazon-freertos/lib/third_party/mcu_vendor/renesas/rz_mcu_boards/amazon_freertos_common\freertos_usr_func.c ****     for( ; ; )
 146:D:/Work/DeviceTester/amazon-freertos/lib/third_party/mcu_vendor/renesas/rz_mcu_boards/amazon_freertos_common\freertos_usr_func.c ****     {
 147:D:/Work/DeviceTester/amazon-freertos/lib/third_party/mcu_vendor/renesas/rz_mcu_boards/amazon_freertos_common\freertos_usr_func.c ****         /* Loop here */
 148:D:/Work/DeviceTester/amazon-freertos/lib/third_party/mcu_vendor/renesas/rz_mcu_boards/amazon_freertos_common\freertos_usr_func.c ****     };
 149:D:/Work/DeviceTester/amazon-freertos/lib/third_party/mcu_vendor/renesas/rz_mcu_boards/amazon_freertos_common\freertos_usr_func.c **** 
 150:D:/Work/DeviceTester/amazon-freertos/lib/third_party/mcu_vendor/renesas/rz_mcu_boards/amazon_freertos_common\freertos_usr_func.c **** } /* End of function vApplicationMallocFailedHook() */
 151:D:/Work/DeviceTester/amazon-freertos/lib/third_party/mcu_vendor/renesas/rz_mcu_boards/amazon_freertos_common\freertos_usr_func.c **** 
 152:D:/Work/DeviceTester/amazon-freertos/lib/third_party/mcu_vendor/renesas/rz_mcu_boards/amazon_freertos_common\freertos_usr_func.c **** /**************************************************************************************************
 153:D:/Work/DeviceTester/amazon-freertos/lib/third_party/mcu_vendor/renesas/rz_mcu_boards/amazon_freertos_common\freertos_usr_func.c ****  * Function Name: vApplicationIPNetworkEventHook
 154:D:/Work/DeviceTester/amazon-freertos/lib/third_party/mcu_vendor/renesas/rz_mcu_boards/amazon_freertos_common\freertos_usr_func.c ****  * Description  : .
 155:D:/Work/DeviceTester/amazon-freertos/lib/third_party/mcu_vendor/renesas/rz_mcu_boards/amazon_freertos_common\freertos_usr_func.c ****  * Arguments    : eNetworkEvent.
 156:D:/Work/DeviceTester/amazon-freertos/lib/third_party/mcu_vendor/renesas/rz_mcu_boards/amazon_freertos_common\freertos_usr_func.c ****  * Return Value : None.
 157:D:/Work/DeviceTester/amazon-freertos/lib/third_party/mcu_vendor/renesas/rz_mcu_boards/amazon_freertos_common\freertos_usr_func.c ****  **************************************************************************************************
 158:D:/Work/DeviceTester/amazon-freertos/lib/third_party/mcu_vendor/renesas/rz_mcu_boards/amazon_freertos_common\freertos_usr_func.c **** void vApplicationIPNetworkEventHook( eIPCallbackEvent_t eNetworkEvent )
 159:D:/Work/DeviceTester/amazon-freertos/lib/third_party/mcu_vendor/renesas/rz_mcu_boards/amazon_freertos_common\freertos_usr_func.c **** {
 105              		.loc 1 159 0
 106              		.cfi_startproc
 107              		@ args = 0, pretend = 0, frame = 32
 108              		@ frame_needed = 0, uses_anonymous_args = 0
 109              	.LVL1:
 160:D:/Work/DeviceTester/amazon-freertos/lib/third_party/mcu_vendor/renesas/rz_mcu_boards/amazon_freertos_common\freertos_usr_func.c ****     uint32_t ip_address;
 161:D:/Work/DeviceTester/amazon-freertos/lib/third_party/mcu_vendor/renesas/rz_mcu_boards/amazon_freertos_common\freertos_usr_func.c ****     uint32_t net_mask;
 162:D:/Work/DeviceTester/amazon-freertos/lib/third_party/mcu_vendor/renesas/rz_mcu_boards/amazon_freertos_common\freertos_usr_func.c ****     uint32_t gateway_address;
 163:D:/Work/DeviceTester/amazon-freertos/lib/third_party/mcu_vendor/renesas/rz_mcu_boards/amazon_freertos_common\freertos_usr_func.c ****     uint32_t dns_server_address;
 164:D:/Work/DeviceTester/amazon-freertos/lib/third_party/mcu_vendor/renesas/rz_mcu_boards/amazon_freertos_common\freertos_usr_func.c ****     char buffer[ SIZE_OF_IP_ADDRESS ];
 165:D:/Work/DeviceTester/amazon-freertos/lib/third_party/mcu_vendor/renesas/rz_mcu_boards/amazon_freertos_common\freertos_usr_func.c **** 
 166:D:/Work/DeviceTester/amazon-freertos/lib/third_party/mcu_vendor/renesas/rz_mcu_boards/amazon_freertos_common\freertos_usr_func.c ****     /* If the network has just come up...*/
 167:D:/Work/DeviceTester/amazon-freertos/lib/third_party/mcu_vendor/renesas/rz_mcu_boards/amazon_freertos_common\freertos_usr_func.c ****     if( eNetworkEvent == eNetworkUp )
 110              		.loc 1 167 0
 111 0000 000050E3 		cmp	r0, #0
 112 0004 1EFF2F11 		bxne	lr
 159:D:/Work/DeviceTester/amazon-freertos/lib/third_party/mcu_vendor/renesas/rz_mcu_boards/amazon_freertos_common\freertos_usr_func.c ****     uint32_t ip_address;
 113              		.loc 1 159 0
 114 0008 04E02DE5 		str	lr, [sp, #-4]!
 115              		.cfi_def_cfa_offset 4
 116              		.cfi_offset 14, -4
 117 000c 2CD04DE2 		sub	sp, sp, #44
 118              		.cfi_def_cfa_offset 48
 168:D:/Work/DeviceTester/amazon-freertos/lib/third_party/mcu_vendor/renesas/rz_mcu_boards/amazon_freertos_common\freertos_usr_func.c ****     {
 169:D:/Work/DeviceTester/amazon-freertos/lib/third_party/mcu_vendor/renesas/rz_mcu_boards/amazon_freertos_common\freertos_usr_func.c ****         /* Print out the network configuration, which may have come from a DHCP
 170:D:/Work/DeviceTester/amazon-freertos/lib/third_party/mcu_vendor/renesas/rz_mcu_boards/amazon_freertos_common\freertos_usr_func.c ****          * server. */
 171:D:/Work/DeviceTester/amazon-freertos/lib/third_party/mcu_vendor/renesas/rz_mcu_boards/amazon_freertos_common\freertos_usr_func.c ****         FreeRTOS_GetAddressConfiguration(
 119              		.loc 1 171 0
 120 0010 14308DE2 		add	r3, sp, #20
 121 0014 10208DE2 		add	r2, sp, #16
 122 0018 0C108DE2 		add	r1, sp, #12
 123 001c 08008DE2 		add	r0, sp, #8
 124              	.LVL2:
 125 0020 FEFFFFEB 		bl	FreeRTOS_GetAddressConfiguration
 126              	.LVL3:
 172:D:/Work/DeviceTester/amazon-freertos/lib/third_party/mcu_vendor/renesas/rz_mcu_boards/amazon_freertos_common\freertos_usr_func.c ****             &ip_address,
 173:D:/Work/DeviceTester/amazon-freertos/lib/third_party/mcu_vendor/renesas/rz_mcu_boards/amazon_freertos_common\freertos_usr_func.c ****             &net_mask,
 174:D:/Work/DeviceTester/amazon-freertos/lib/third_party/mcu_vendor/renesas/rz_mcu_boards/amazon_freertos_common\freertos_usr_func.c ****             &gateway_address,
 175:D:/Work/DeviceTester/amazon-freertos/lib/third_party/mcu_vendor/renesas/rz_mcu_boards/amazon_freertos_common\freertos_usr_func.c ****             &dns_server_address );
 176:D:/Work/DeviceTester/amazon-freertos/lib/third_party/mcu_vendor/renesas/rz_mcu_boards/amazon_freertos_common\freertos_usr_func.c **** 
 177:D:/Work/DeviceTester/amazon-freertos/lib/third_party/mcu_vendor/renesas/rz_mcu_boards/amazon_freertos_common\freertos_usr_func.c ****         /* set IP address */
 178:D:/Work/DeviceTester/amazon-freertos/lib/third_party/mcu_vendor/renesas/rz_mcu_boards/amazon_freertos_common\freertos_usr_func.c ****         FreeRTOS_inet_ntoa( ip_address, buffer );
 127              		.loc 1 178 0
 128 0024 08209DE5 		ldr	r2, [sp, #8]
 129 0028 18008DE2 		add	r0, sp, #24
 130 002c C8109FE5 		ldr	r1, .L13
 131 0030 223CA0E1 		lsr	r3, r2, #24
 132 0034 04308DE5 		str	r3, [sp, #4]
 133 0038 5238E7E7 		ubfx	r3, r2, #16, #8
 134 003c 00308DE5 		str	r3, [sp]
 135 0040 5234E7E7 		ubfx	r3, r2, #8, #8
 136 0044 7220EFE6 		uxtb	r2, r2
 137 0048 FEFFFFEB 		bl	sprintf
 138              	.LVL4:
 179:D:/Work/DeviceTester/amazon-freertos/lib/third_party/mcu_vendor/renesas/rz_mcu_boards/amazon_freertos_common\freertos_usr_func.c ****         FreeRTOS_printf( ( "IP Address: %s\n", buffer ) );
 139              		.loc 1 179 0
 140 004c 18108DE2 		add	r1, sp, #24
 141 0050 A8009FE5 		ldr	r0, .L13+4
 142 0054 FEFFFFEB 		bl	vLoggingPrintf
 143              	.LVL5:
 180:D:/Work/DeviceTester/amazon-freertos/lib/third_party/mcu_vendor/renesas/rz_mcu_boards/amazon_freertos_common\freertos_usr_func.c **** 
 181:D:/Work/DeviceTester/amazon-freertos/lib/third_party/mcu_vendor/renesas/rz_mcu_boards/amazon_freertos_common\freertos_usr_func.c ****         /* set Subnet mask */
 182:D:/Work/DeviceTester/amazon-freertos/lib/third_party/mcu_vendor/renesas/rz_mcu_boards/amazon_freertos_common\freertos_usr_func.c ****         FreeRTOS_inet_ntoa( net_mask, buffer );
 144              		.loc 1 182 0
 145 0058 0C209DE5 		ldr	r2, [sp, #12]
 146 005c 18008DE2 		add	r0, sp, #24
 147 0060 94109FE5 		ldr	r1, .L13
 148 0064 223CA0E1 		lsr	r3, r2, #24
 149 0068 04308DE5 		str	r3, [sp, #4]
 150 006c 5238E7E7 		ubfx	r3, r2, #16, #8
 151 0070 00308DE5 		str	r3, [sp]
 152 0074 5234E7E7 		ubfx	r3, r2, #8, #8
 153 0078 7220EFE6 		uxtb	r2, r2
 154 007c FEFFFFEB 		bl	sprintf
 155              	.LVL6:
 183:D:/Work/DeviceTester/amazon-freertos/lib/third_party/mcu_vendor/renesas/rz_mcu_boards/amazon_freertos_common\freertos_usr_func.c ****         FreeRTOS_printf( ( "Subnet Mask: %s\n", buffer ) );
 156              		.loc 1 183 0
 157 0080 18108DE2 		add	r1, sp, #24
 158 0084 78009FE5 		ldr	r0, .L13+8
 159 0088 FEFFFFEB 		bl	vLoggingPrintf
 160              	.LVL7:
 184:D:/Work/DeviceTester/amazon-freertos/lib/third_party/mcu_vendor/renesas/rz_mcu_boards/amazon_freertos_common\freertos_usr_func.c **** 
 185:D:/Work/DeviceTester/amazon-freertos/lib/third_party/mcu_vendor/renesas/rz_mcu_boards/amazon_freertos_common\freertos_usr_func.c ****         /* set Default Gateway */
 186:D:/Work/DeviceTester/amazon-freertos/lib/third_party/mcu_vendor/renesas/rz_mcu_boards/amazon_freertos_common\freertos_usr_func.c ****         FreeRTOS_inet_ntoa( gateway_address, buffer );
 161              		.loc 1 186 0
 162 008c 10209DE5 		ldr	r2, [sp, #16]
 163 0090 18008DE2 		add	r0, sp, #24
 164 0094 60109FE5 		ldr	r1, .L13
 165 0098 223CA0E1 		lsr	r3, r2, #24
 166 009c 04308DE5 		str	r3, [sp, #4]
 167 00a0 5238E7E7 		ubfx	r3, r2, #16, #8
 168 00a4 00308DE5 		str	r3, [sp]
 169 00a8 5234E7E7 		ubfx	r3, r2, #8, #8
 170 00ac 7220EFE6 		uxtb	r2, r2
 171 00b0 FEFFFFEB 		bl	sprintf
 172              	.LVL8:
 187:D:/Work/DeviceTester/amazon-freertos/lib/third_party/mcu_vendor/renesas/rz_mcu_boards/amazon_freertos_common\freertos_usr_func.c ****         FreeRTOS_printf( ( "Gateway Address: %s\n", buffer ) );
 173              		.loc 1 187 0
 174 00b4 18108DE2 		add	r1, sp, #24
 175 00b8 48009FE5 		ldr	r0, .L13+12
 176 00bc FEFFFFEB 		bl	vLoggingPrintf
 177              	.LVL9:
 188:D:/Work/DeviceTester/amazon-freertos/lib/third_party/mcu_vendor/renesas/rz_mcu_boards/amazon_freertos_common\freertos_usr_func.c **** 
 189:D:/Work/DeviceTester/amazon-freertos/lib/third_party/mcu_vendor/renesas/rz_mcu_boards/amazon_freertos_common\freertos_usr_func.c ****         /* set DNS server address */
 190:D:/Work/DeviceTester/amazon-freertos/lib/third_party/mcu_vendor/renesas/rz_mcu_boards/amazon_freertos_common\freertos_usr_func.c ****         FreeRTOS_inet_ntoa( dns_server_address, buffer );
 178              		.loc 1 190 0
 179 00c0 14209DE5 		ldr	r2, [sp, #20]
 180 00c4 18008DE2 		add	r0, sp, #24
 181 00c8 2C109FE5 		ldr	r1, .L13
 182 00cc 223CA0E1 		lsr	r3, r2, #24
 183 00d0 04308DE5 		str	r3, [sp, #4]
 184 00d4 5238E7E7 		ubfx	r3, r2, #16, #8
 185 00d8 00308DE5 		str	r3, [sp]
 186 00dc 5234E7E7 		ubfx	r3, r2, #8, #8
 187 00e0 7220EFE6 		uxtb	r2, r2
 188 00e4 FEFFFFEB 		bl	sprintf
 189              	.LVL10:
 191:D:/Work/DeviceTester/amazon-freertos/lib/third_party/mcu_vendor/renesas/rz_mcu_boards/amazon_freertos_common\freertos_usr_func.c ****         FreeRTOS_printf( ( "DNS Server Address: %s\n", buffer ) );
 190              		.loc 1 191 0
 191 00e8 18108DE2 		add	r1, sp, #24
 192 00ec 18009FE5 		ldr	r0, .L13+16
 193 00f0 FEFFFFEB 		bl	vLoggingPrintf
 194              	.LVL11:
 192:D:/Work/DeviceTester/amazon-freertos/lib/third_party/mcu_vendor/renesas/rz_mcu_boards/amazon_freertos_common\freertos_usr_func.c ****     }
 193:D:/Work/DeviceTester/amazon-freertos/lib/third_party/mcu_vendor/renesas/rz_mcu_boards/amazon_freertos_common\freertos_usr_func.c **** }
 195              		.loc 1 193 0
 196 00f4 2CD08DE2 		add	sp, sp, #44
 197              		.cfi_def_cfa_offset 4
 198              		@ sp needed
 199 00f8 04F09DE4 		ldr	pc, [sp], #4
 200              	.L14:
 201              		.align	2
 202              	.L13:
 203 00fc 00000000 		.word	.LC0
 204 0100 0C000000 		.word	.LC1
 205 0104 1C000000 		.word	.LC2
 206 0108 2D000000 		.word	.LC3
 207 010c 42000000 		.word	.LC4
 208              		.cfi_endproc
 209              	.LFE15:
 211              		.section	.rodata.vApplicationIPNetworkEventHook.str1.1,"aMS",%progbits,1
 212              	.LC0:
 213 0000 25752E25 		.ascii	"%u.%u.%u.%u\000"
 213      752E2575 
 213      2E257500 
 214              	.LC1:
 215 000c 49502041 		.ascii	"IP Address: %s\012\000"
 215      64647265 
 215      73733A20 
 215      25730A00 
 216              	.LC2:
 217 001c 5375626E 		.ascii	"Subnet Mask: %s\012\000"
 217      6574204D 
 217      61736B3A 
 217      2025730A 
 217      00
 218              	.LC3:
 219 002d 47617465 		.ascii	"Gateway Address: %s\012\000"
 219      77617920 
 219      41646472 
 219      6573733A 
 219      2025730A 
 220              	.LC4:
 221 0042 444E5320 		.ascii	"DNS Server Address: %s\012\000"
 221      53657276 
 221      65722041 
 221      64647265 
 221      73733A20 
 222              		.text
 223              	.Letext0:
 224              		.file 2 "c:\\program files (x86)\\gnu tools arm embedded\\6 2017-q2-update\\arm-none-eabi\\include
 225              		.file 3 "c:\\program files (x86)\\gnu tools arm embedded\\6 2017-q2-update\\arm-none-eabi\\include
 226              		.file 4 "c:\\program files (x86)\\gnu tools arm embedded\\6 2017-q2-update\\arm-none-eabi\\include
 227              		.file 5 "c:\\program files (x86)\\gnu tools arm embedded\\6 2017-q2-update\\lib\\gcc\\arm-none-eab
 228              		.file 6 "c:\\program files (x86)\\gnu tools arm embedded\\6 2017-q2-update\\arm-none-eabi\\include
 229              		.file 7 "c:\\program files (x86)\\gnu tools arm embedded\\6 2017-q2-update\\arm-none-eabi\\include
 230              		.file 8 "c:\\program files (x86)\\gnu tools arm embedded\\6 2017-q2-update\\arm-none-eabi\\include
 231              		.file 9 "c:\\program files (x86)\\gnu tools arm embedded\\6 2017-q2-update\\arm-none-eabi\\include
 232              		.file 10 "D:\\Work\\DeviceTester\\amazon-freertos\\lib\\third_party\\unity\\src/unity_internals.h"
 233              		.file 11 "D:\\Work\\DeviceTester\\amazon-freertos\\lib\\third_party\\mcu_vendor\\renesas\\rz_mcu_b
 234              		.file 12 "c:\\program files (x86)\\gnu tools arm embedded\\6 2017-q2-update\\arm-none-eabi\\includ
 235              		.file 13 "c:\\program files (x86)\\gnu tools arm embedded\\6 2017-q2-update\\arm-none-eabi\\includ
 236              		.file 14 "D:\\Work\\DeviceTester\\amazon-freertos\\lib\\third_party\\mcu_vendor\\renesas\\rz_mcu_b
 237              		.file 15 "D:\\Work\\DeviceTester\\amazon-freertos\\lib\\third_party\\mcu_vendor\\renesas\\rz_mcu_b
 238              		.file 16 "D:\\Work\\DeviceTester\\amazon-freertos\\lib\\third_party\\mcu_vendor\\renesas\\rz_mcu_b
 239              		.file 17 "D:\\Work\\DeviceTester\\amazon-freertos\\lib\\third_party\\mcu_vendor\\renesas\\rz_mcu_b
 240              		.file 18 "D:\\Work\\DeviceTester\\amazon-freertos\\lib\\third_party\\mcu_vendor\\renesas\\rz_mcu_b
 241              		.file 19 "D:\\Work\\DeviceTester\\amazon-freertos\\lib\\FreeRTOS-Plus-TCP\\include/FreeRTOS_IP.h"
 242              		.file 20 "c:\\program files (x86)\\gnu tools arm embedded\\6 2017-q2-update\\arm-none-eabi\\includ
 243              		.file 21 "D:\\Work\\DeviceTester\\amazon-freertos\\tests\\renesas\\rza2m-gr-mango\\common\\config_
 244              		.file 22 "D:\\Work\\DeviceTester\\amazon-freertos\\lib\\FreeRTOS\\portable\\GCC\\ARM_CA9_RZA2M/por