   1              		.cpu cortex-a9
   2              		.eabi_attribute 28, 1
   3              		.eabi_attribute 20, 1
   4              		.eabi_attribute 21, 1
   5              		.eabi_attribute 23, 3
   6              		.eabi_attribute 24, 1
   7              		.eabi_attribute 25, 1
   8              		.eabi_attribute 26, 1
   9              		.eabi_attribute 30, 4
  10              		.eabi_attribute 34, 0
  11              		.eabi_attribute 18, 4
  12              		.file	"r_eeprom_sample.c"
  13              		.text
  14              	.Ltext0:
  15              		.cfi_sections	.debug_frame
  16              		.section	.text.Sample_RIIC_Eeprom_Init,"ax",%progbits
  17              		.align	2
  18              		.global	Sample_RIIC_Eeprom_Init
  19              		.syntax unified
  20              		.arm
  21              		.fpu neon
  23              	Sample_RIIC_Eeprom_Init:
  24              	.LFB4:
  25              		.file 1 "D:/Work/DeviceTester/amazon-freertos/lib/third_party/mcu_vendor/renesas/rz_mcu_boards/ama
   1:D:/Work/DeviceTester/amazon-freertos/lib/third_party/mcu_vendor/renesas/rz_mcu_boards/amazon_freertos_common\r_eeprom_sample.c **** /**************************************************************************************************
   2:D:/Work/DeviceTester/amazon-freertos/lib/third_party/mcu_vendor/renesas/rz_mcu_boards/amazon_freertos_common\r_eeprom_sample.c ****  * DISCLAIMER
   3:D:/Work/DeviceTester/amazon-freertos/lib/third_party/mcu_vendor/renesas/rz_mcu_boards/amazon_freertos_common\r_eeprom_sample.c ****  * This software is supplied by Renesas Electronics Corporation and is only intended for use with R
   4:D:/Work/DeviceTester/amazon-freertos/lib/third_party/mcu_vendor/renesas/rz_mcu_boards/amazon_freertos_common\r_eeprom_sample.c ****  * other uses are authorized. This software is owned by Renesas Electronics Corporation and is prot
   5:D:/Work/DeviceTester/amazon-freertos/lib/third_party/mcu_vendor/renesas/rz_mcu_boards/amazon_freertos_common\r_eeprom_sample.c ****  * applicable laws, including copyright laws.
   6:D:/Work/DeviceTester/amazon-freertos/lib/third_party/mcu_vendor/renesas/rz_mcu_boards/amazon_freertos_common\r_eeprom_sample.c ****  * THIS SOFTWARE IS PROVIDED "AS IS" AND RENESAS MAKES NO WARRANTIES REGARDING
   7:D:/Work/DeviceTester/amazon-freertos/lib/third_party/mcu_vendor/renesas/rz_mcu_boards/amazon_freertos_common\r_eeprom_sample.c ****  * THIS SOFTWARE, WHETHER EXPRESS, IMPLIED OR STATUTORY, INCLUDING BUT NOT LIMITED TO WARRANTIES OF
   8:D:/Work/DeviceTester/amazon-freertos/lib/third_party/mcu_vendor/renesas/rz_mcu_boards/amazon_freertos_common\r_eeprom_sample.c ****  * FITNESS FOR A PARTICULAR PURPOSE AND NON-INFRINGEMENT. ALL SUCH WARRANTIES ARE EXPRESSLY DISCLAI
   9:D:/Work/DeviceTester/amazon-freertos/lib/third_party/mcu_vendor/renesas/rz_mcu_boards/amazon_freertos_common\r_eeprom_sample.c ****  * EXTENT PERMITTED NOT PROHIBITED BY LAW, NEITHER RENESAS ELECTRONICS CORPORATION NOR ANY OF ITS A
  10:D:/Work/DeviceTester/amazon-freertos/lib/third_party/mcu_vendor/renesas/rz_mcu_boards/amazon_freertos_common\r_eeprom_sample.c ****  * SHALL BE LIABLE FOR ANY DIRECT, INDIRECT, SPECIAL, INCIDENTAL OR CONSEQUENTIAL DAMAGES FOR ANY R
  11:D:/Work/DeviceTester/amazon-freertos/lib/third_party/mcu_vendor/renesas/rz_mcu_boards/amazon_freertos_common\r_eeprom_sample.c ****  * THIS SOFTWARE, EVEN IF RENESAS OR ITS AFFILIATES HAVE BEEN ADVISED OF THE POSSIBILITY OF SUCH DA
  12:D:/Work/DeviceTester/amazon-freertos/lib/third_party/mcu_vendor/renesas/rz_mcu_boards/amazon_freertos_common\r_eeprom_sample.c ****  * Renesas reserves the right, without notice, to make changes to this software and to discontinue 
  13:D:/Work/DeviceTester/amazon-freertos/lib/third_party/mcu_vendor/renesas/rz_mcu_boards/amazon_freertos_common\r_eeprom_sample.c ****  * this software. By using this software, you agree to the additional terms and conditions found by
  14:D:/Work/DeviceTester/amazon-freertos/lib/third_party/mcu_vendor/renesas/rz_mcu_boards/amazon_freertos_common\r_eeprom_sample.c ****  * following link:
  15:D:/Work/DeviceTester/amazon-freertos/lib/third_party/mcu_vendor/renesas/rz_mcu_boards/amazon_freertos_common\r_eeprom_sample.c ****  * http://www.renesas.com/disclaimer
  16:D:/Work/DeviceTester/amazon-freertos/lib/third_party/mcu_vendor/renesas/rz_mcu_boards/amazon_freertos_common\r_eeprom_sample.c ****  *
  17:D:/Work/DeviceTester/amazon-freertos/lib/third_party/mcu_vendor/renesas/rz_mcu_boards/amazon_freertos_common\r_eeprom_sample.c ****  * Copyright (C) 2019 Renesas Electronics Corporation. All rights reserved.
  18:D:/Work/DeviceTester/amazon-freertos/lib/third_party/mcu_vendor/renesas/rz_mcu_boards/amazon_freertos_common\r_eeprom_sample.c ****  **************************************************************************************************
  19:D:/Work/DeviceTester/amazon-freertos/lib/third_party/mcu_vendor/renesas/rz_mcu_boards/amazon_freertos_common\r_eeprom_sample.c **** 
  20:D:/Work/DeviceTester/amazon-freertos/lib/third_party/mcu_vendor/renesas/rz_mcu_boards/amazon_freertos_common\r_eeprom_sample.c **** /*******************************************************************************
  21:D:/Work/DeviceTester/amazon-freertos/lib/third_party/mcu_vendor/renesas/rz_mcu_boards/amazon_freertos_common\r_eeprom_sample.c **** * File Name    : r_eeprom_sample.c
  22:D:/Work/DeviceTester/amazon-freertos/lib/third_party/mcu_vendor/renesas/rz_mcu_boards/amazon_freertos_common\r_eeprom_sample.c **** * Device(s)    : RZ/A2M
  23:D:/Work/DeviceTester/amazon-freertos/lib/third_party/mcu_vendor/renesas/rz_mcu_boards/amazon_freertos_common\r_eeprom_sample.c **** * Tool-Chain   : e2Studio Ver 7.3.0
  24:D:/Work/DeviceTester/amazon-freertos/lib/third_party/mcu_vendor/renesas/rz_mcu_boards/amazon_freertos_common\r_eeprom_sample.c **** *              : GCC ARM Embedded 6.3.1.20170620
  25:D:/Work/DeviceTester/amazon-freertos/lib/third_party/mcu_vendor/renesas/rz_mcu_boards/amazon_freertos_common\r_eeprom_sample.c **** * OS           : None
  26:D:/Work/DeviceTester/amazon-freertos/lib/third_party/mcu_vendor/renesas/rz_mcu_boards/amazon_freertos_common\r_eeprom_sample.c **** * H/W Platform : RZ/A2M Evaluation Board
  27:D:/Work/DeviceTester/amazon-freertos/lib/third_party/mcu_vendor/renesas/rz_mcu_boards/amazon_freertos_common\r_eeprom_sample.c **** * Description  : RZ/A2M Sample Program - EEPROM control by RIIC driver
  28:D:/Work/DeviceTester/amazon-freertos/lib/third_party/mcu_vendor/renesas/rz_mcu_boards/amazon_freertos_common\r_eeprom_sample.c **** * Operation    :
  29:D:/Work/DeviceTester/amazon-freertos/lib/third_party/mcu_vendor/renesas/rz_mcu_boards/amazon_freertos_common\r_eeprom_sample.c **** * Limitations  :
  30:D:/Work/DeviceTester/amazon-freertos/lib/third_party/mcu_vendor/renesas/rz_mcu_boards/amazon_freertos_common\r_eeprom_sample.c **** *******************************************************************************/
  31:D:/Work/DeviceTester/amazon-freertos/lib/third_party/mcu_vendor/renesas/rz_mcu_boards/amazon_freertos_common\r_eeprom_sample.c **** /******************************************************************************
  32:D:/Work/DeviceTester/amazon-freertos/lib/third_party/mcu_vendor/renesas/rz_mcu_boards/amazon_freertos_common\r_eeprom_sample.c **** Includes   <System Includes> , "Project Includes"
  33:D:/Work/DeviceTester/amazon-freertos/lib/third_party/mcu_vendor/renesas/rz_mcu_boards/amazon_freertos_common\r_eeprom_sample.c **** ******************************************************************************/
  34:D:/Work/DeviceTester/amazon-freertos/lib/third_party/mcu_vendor/renesas/rz_mcu_boards/amazon_freertos_common\r_eeprom_sample.c **** #include "r_typedefs.h"
  35:D:/Work/DeviceTester/amazon-freertos/lib/third_party/mcu_vendor/renesas/rz_mcu_boards/amazon_freertos_common\r_eeprom_sample.c **** 
  36:D:/Work/DeviceTester/amazon-freertos/lib/third_party/mcu_vendor/renesas/rz_mcu_boards/amazon_freertos_common\r_eeprom_sample.c **** #include "r_devlink_wrapper.h"
  37:D:/Work/DeviceTester/amazon-freertos/lib/third_party/mcu_vendor/renesas/rz_mcu_boards/amazon_freertos_common\r_eeprom_sample.c **** #include "r_riic_drv_sc_cfg.h"
  38:D:/Work/DeviceTester/amazon-freertos/lib/third_party/mcu_vendor/renesas/rz_mcu_boards/amazon_freertos_common\r_eeprom_sample.c **** #include "r_riic_drv_api.h"
  39:D:/Work/DeviceTester/amazon-freertos/lib/third_party/mcu_vendor/renesas/rz_mcu_boards/amazon_freertos_common\r_eeprom_sample.c **** 
  40:D:/Work/DeviceTester/amazon-freertos/lib/third_party/mcu_vendor/renesas/rz_mcu_boards/amazon_freertos_common\r_eeprom_sample.c **** #include "r_os_abstraction_api.h"
  41:D:/Work/DeviceTester/amazon-freertos/lib/third_party/mcu_vendor/renesas/rz_mcu_boards/amazon_freertos_common\r_eeprom_sample.c **** #include "r_compiler_abstraction_api.h"
  42:D:/Work/DeviceTester/amazon-freertos/lib/third_party/mcu_vendor/renesas/rz_mcu_boards/amazon_freertos_common\r_eeprom_sample.c **** 
  43:D:/Work/DeviceTester/amazon-freertos/lib/third_party/mcu_vendor/renesas/rz_mcu_boards/amazon_freertos_common\r_eeprom_sample.c **** #include "r_eeprom_sample.h"
  44:D:/Work/DeviceTester/amazon-freertos/lib/third_party/mcu_vendor/renesas/rz_mcu_boards/amazon_freertos_common\r_eeprom_sample.c **** 
  45:D:/Work/DeviceTester/amazon-freertos/lib/third_party/mcu_vendor/renesas/rz_mcu_boards/amazon_freertos_common\r_eeprom_sample.c **** /*******************************************************************************
  46:D:/Work/DeviceTester/amazon-freertos/lib/third_party/mcu_vendor/renesas/rz_mcu_boards/amazon_freertos_common\r_eeprom_sample.c ****  Macro definitions
  47:D:/Work/DeviceTester/amazon-freertos/lib/third_party/mcu_vendor/renesas/rz_mcu_boards/amazon_freertos_common\r_eeprom_sample.c ****  *******************************************************************************/
  48:D:/Work/DeviceTester/amazon-freertos/lib/third_party/mcu_vendor/renesas/rz_mcu_boards/amazon_freertos_common\r_eeprom_sample.c **** #define EEPROM_DUMMY_READ_BUF_SIZE (1)
  49:D:/Work/DeviceTester/amazon-freertos/lib/third_party/mcu_vendor/renesas/rz_mcu_boards/amazon_freertos_common\r_eeprom_sample.c **** /* max time to wait for ACK polling */
  50:D:/Work/DeviceTester/amazon-freertos/lib/third_party/mcu_vendor/renesas/rz_mcu_boards/amazon_freertos_common\r_eeprom_sample.c **** /* EEPROM write time is 5msec, so wait about 10msec*/
  51:D:/Work/DeviceTester/amazon-freertos/lib/third_party/mcu_vendor/renesas/rz_mcu_boards/amazon_freertos_common\r_eeprom_sample.c **** /* RIIC frequency 400KHz = 50000byte / sec, so do dummy reads of 100bytes to wait 10 msec */  
  52:D:/Work/DeviceTester/amazon-freertos/lib/third_party/mcu_vendor/renesas/rz_mcu_boards/amazon_freertos_common\r_eeprom_sample.c **** #define EEPROM_DUMMY_READ_MAX_TIME (100)
  53:D:/Work/DeviceTester/amazon-freertos/lib/third_party/mcu_vendor/renesas/rz_mcu_boards/amazon_freertos_common\r_eeprom_sample.c **** 
  54:D:/Work/DeviceTester/amazon-freertos/lib/third_party/mcu_vendor/renesas/rz_mcu_boards/amazon_freertos_common\r_eeprom_sample.c **** /******************************************************************************
  55:D:/Work/DeviceTester/amazon-freertos/lib/third_party/mcu_vendor/renesas/rz_mcu_boards/amazon_freertos_common\r_eeprom_sample.c **** Imported global variables and functions (from other files)
  56:D:/Work/DeviceTester/amazon-freertos/lib/third_party/mcu_vendor/renesas/rz_mcu_boards/amazon_freertos_common\r_eeprom_sample.c **** ******************************************************************************/
  57:D:/Work/DeviceTester/amazon-freertos/lib/third_party/mcu_vendor/renesas/rz_mcu_boards/amazon_freertos_common\r_eeprom_sample.c **** 
  58:D:/Work/DeviceTester/amazon-freertos/lib/third_party/mcu_vendor/renesas/rz_mcu_boards/amazon_freertos_common\r_eeprom_sample.c **** static int_t riic_ackpoll(void);
  59:D:/Work/DeviceTester/amazon-freertos/lib/third_party/mcu_vendor/renesas/rz_mcu_boards/amazon_freertos_common\r_eeprom_sample.c **** 
  60:D:/Work/DeviceTester/amazon-freertos/lib/third_party/mcu_vendor/renesas/rz_mcu_boards/amazon_freertos_common\r_eeprom_sample.c **** /* RIIC driver handle */
  61:D:/Work/DeviceTester/amazon-freertos/lib/third_party/mcu_vendor/renesas/rz_mcu_boards/amazon_freertos_common\r_eeprom_sample.c **** static int_t handle;
  62:D:/Work/DeviceTester/amazon-freertos/lib/third_party/mcu_vendor/renesas/rz_mcu_boards/amazon_freertos_common\r_eeprom_sample.c **** 
  63:D:/Work/DeviceTester/amazon-freertos/lib/third_party/mcu_vendor/renesas/rz_mcu_boards/amazon_freertos_common\r_eeprom_sample.c **** /******************************************************************************
  64:D:/Work/DeviceTester/amazon-freertos/lib/third_party/mcu_vendor/renesas/rz_mcu_boards/amazon_freertos_common\r_eeprom_sample.c **** Exported global variables and functions (to be accessed by other files)
  65:D:/Work/DeviceTester/amazon-freertos/lib/third_party/mcu_vendor/renesas/rz_mcu_boards/amazon_freertos_common\r_eeprom_sample.c **** ******************************************************************************/
  66:D:/Work/DeviceTester/amazon-freertos/lib/third_party/mcu_vendor/renesas/rz_mcu_boards/amazon_freertos_common\r_eeprom_sample.c **** 
  67:D:/Work/DeviceTester/amazon-freertos/lib/third_party/mcu_vendor/renesas/rz_mcu_boards/amazon_freertos_common\r_eeprom_sample.c **** /*******************************************************************************
  68:D:/Work/DeviceTester/amazon-freertos/lib/third_party/mcu_vendor/renesas/rz_mcu_boards/amazon_freertos_common\r_eeprom_sample.c ****  * Function Name: Sample_RIIC_Eeprom_Init
  69:D:/Work/DeviceTester/amazon-freertos/lib/third_party/mcu_vendor/renesas/rz_mcu_boards/amazon_freertos_common\r_eeprom_sample.c ****  * Description  : Open RIIC driver for EEPROM control start
  70:D:/Work/DeviceTester/amazon-freertos/lib/third_party/mcu_vendor/renesas/rz_mcu_boards/amazon_freertos_common\r_eeprom_sample.c ****  * Arguments    : None
  71:D:/Work/DeviceTester/amazon-freertos/lib/third_party/mcu_vendor/renesas/rz_mcu_boards/amazon_freertos_common\r_eeprom_sample.c ****  * Return Value : int_t - error code
  72:D:/Work/DeviceTester/amazon-freertos/lib/third_party/mcu_vendor/renesas/rz_mcu_boards/amazon_freertos_common\r_eeprom_sample.c ****  *******************************************************************************/
  73:D:/Work/DeviceTester/amazon-freertos/lib/third_party/mcu_vendor/renesas/rz_mcu_boards/amazon_freertos_common\r_eeprom_sample.c **** int_t Sample_RIIC_Eeprom_Init(void)
  74:D:/Work/DeviceTester/amazon-freertos/lib/third_party/mcu_vendor/renesas/rz_mcu_boards/amazon_freertos_common\r_eeprom_sample.c **** {
  26              		.loc 1 74 0
  27              		.cfi_startproc
  28              		@ args = 0, pretend = 0, frame = 0
  29              		@ frame_needed = 0, uses_anonymous_args = 0
  30              	.LVL0:
  31 0000 10402DE9 		push	{r4, lr}
  32              		.cfi_def_cfa_offset 8
  33              		.cfi_offset 4, -8
  34              		.cfi_offset 14, -4
  75:D:/Work/DeviceTester/amazon-freertos/lib/third_party/mcu_vendor/renesas/rz_mcu_boards/amazon_freertos_common\r_eeprom_sample.c ****     int_t ret = NO_ERROR;
  76:D:/Work/DeviceTester/amazon-freertos/lib/third_party/mcu_vendor/renesas/rz_mcu_boards/amazon_freertos_common\r_eeprom_sample.c ****     
  77:D:/Work/DeviceTester/amazon-freertos/lib/third_party/mcu_vendor/renesas/rz_mcu_boards/amazon_freertos_common\r_eeprom_sample.c ****     handle = open(RIIC_CH_EEPROM_RZA2M, O_RDWR);
  35              		.loc 1 77 0
  36 0004 0210A0E3 		mov	r1, #2
  37 0008 10009FE5 		ldr	r0, .L3
  38 000c FEFFFFEB 		bl	open
  39              	.LVL1:
  40 0010 0C309FE5 		ldr	r3, .L3+4
  41 0014 000083E5 		str	r0, [r3]
  42              	.LVL2:
  78:D:/Work/DeviceTester/amazon-freertos/lib/third_party/mcu_vendor/renesas/rz_mcu_boards/amazon_freertos_common\r_eeprom_sample.c **** 
  79:D:/Work/DeviceTester/amazon-freertos/lib/third_party/mcu_vendor/renesas/rz_mcu_boards/amazon_freertos_common\r_eeprom_sample.c ****     if (0 > handle)
  80:D:/Work/DeviceTester/amazon-freertos/lib/third_party/mcu_vendor/renesas/rz_mcu_boards/amazon_freertos_common\r_eeprom_sample.c ****     {
  81:D:/Work/DeviceTester/amazon-freertos/lib/third_party/mcu_vendor/renesas/rz_mcu_boards/amazon_freertos_common\r_eeprom_sample.c ****         ret = ERROR_FAILURE;
  82:D:/Work/DeviceTester/amazon-freertos/lib/third_party/mcu_vendor/renesas/rz_mcu_boards/amazon_freertos_common\r_eeprom_sample.c ****     }
  83:D:/Work/DeviceTester/amazon-freertos/lib/third_party/mcu_vendor/renesas/rz_mcu_boards/amazon_freertos_common\r_eeprom_sample.c **** 
  84:D:/Work/DeviceTester/amazon-freertos/lib/third_party/mcu_vendor/renesas/rz_mcu_boards/amazon_freertos_common\r_eeprom_sample.c ****     /* Successful initialisation */
  85:D:/Work/DeviceTester/amazon-freertos/lib/third_party/mcu_vendor/renesas/rz_mcu_boards/amazon_freertos_common\r_eeprom_sample.c ****     return ret;
  86:D:/Work/DeviceTester/amazon-freertos/lib/third_party/mcu_vendor/renesas/rz_mcu_boards/amazon_freertos_common\r_eeprom_sample.c **** }
  43              		.loc 1 86 0
  44 0018 C00FA0E1 		asr	r0, r0, #31
  45              	.LVL3:
  46 001c 1080BDE8 		pop	{r4, pc}
  47              	.L4:
  48              		.align	2
  49              	.L3:
  50 0020 00000000 		.word	.LC0
  51 0024 00000000 		.word	.LANCHOR0
  52              		.cfi_endproc
  53              	.LFE4:
  55              		.section	.text.Sample_RIIC_Eeprom_UnInit,"ax",%progbits
  56              		.align	2
  57              		.global	Sample_RIIC_Eeprom_UnInit
  58              		.syntax unified
  59              		.arm
  60              		.fpu neon
  62              	Sample_RIIC_Eeprom_UnInit:
  63              	.LFB5:
  87:D:/Work/DeviceTester/amazon-freertos/lib/third_party/mcu_vendor/renesas/rz_mcu_boards/amazon_freertos_common\r_eeprom_sample.c **** /*****************************************************************************
  88:D:/Work/DeviceTester/amazon-freertos/lib/third_party/mcu_vendor/renesas/rz_mcu_boards/amazon_freertos_common\r_eeprom_sample.c ****  End of function Sample_RIIC_Eeprom_Init
  89:D:/Work/DeviceTester/amazon-freertos/lib/third_party/mcu_vendor/renesas/rz_mcu_boards/amazon_freertos_common\r_eeprom_sample.c ****  *****************************************************************************/
  90:D:/Work/DeviceTester/amazon-freertos/lib/third_party/mcu_vendor/renesas/rz_mcu_boards/amazon_freertos_common\r_eeprom_sample.c **** 
  91:D:/Work/DeviceTester/amazon-freertos/lib/third_party/mcu_vendor/renesas/rz_mcu_boards/amazon_freertos_common\r_eeprom_sample.c **** /*****************************************************************************
  92:D:/Work/DeviceTester/amazon-freertos/lib/third_party/mcu_vendor/renesas/rz_mcu_boards/amazon_freertos_common\r_eeprom_sample.c ****  * Function Name: Sample_RIIC_Eeprom_UnInit
  93:D:/Work/DeviceTester/amazon-freertos/lib/third_party/mcu_vendor/renesas/rz_mcu_boards/amazon_freertos_common\r_eeprom_sample.c ****  * Description  : Close RIIC driver for EEPROM control shutdown
  94:D:/Work/DeviceTester/amazon-freertos/lib/third_party/mcu_vendor/renesas/rz_mcu_boards/amazon_freertos_common\r_eeprom_sample.c ****  * Arguments    : None
  95:D:/Work/DeviceTester/amazon-freertos/lib/third_party/mcu_vendor/renesas/rz_mcu_boards/amazon_freertos_common\r_eeprom_sample.c ****  * Return Value : int_t - error code
  96:D:/Work/DeviceTester/amazon-freertos/lib/third_party/mcu_vendor/renesas/rz_mcu_boards/amazon_freertos_common\r_eeprom_sample.c ****  *****************************************************************************/
  97:D:/Work/DeviceTester/amazon-freertos/lib/third_party/mcu_vendor/renesas/rz_mcu_boards/amazon_freertos_common\r_eeprom_sample.c **** int_t Sample_RIIC_Eeprom_UnInit(void)
  98:D:/Work/DeviceTester/amazon-freertos/lib/third_party/mcu_vendor/renesas/rz_mcu_boards/amazon_freertos_common\r_eeprom_sample.c **** {
  64              		.loc 1 98 0
  65              		.cfi_startproc
  66              		@ args = 0, pretend = 0, frame = 0
  67              		@ frame_needed = 0, uses_anonymous_args = 0
  99:D:/Work/DeviceTester/amazon-freertos/lib/third_party/mcu_vendor/renesas/rz_mcu_boards/amazon_freertos_common\r_eeprom_sample.c ****     close(handle);
  68              		.loc 1 99 0
  69 0000 10309FE5 		ldr	r3, .L7
  98:D:/Work/DeviceTester/amazon-freertos/lib/third_party/mcu_vendor/renesas/rz_mcu_boards/amazon_freertos_common\r_eeprom_sample.c ****     close(handle);
  70              		.loc 1 98 0
  71 0004 10402DE9 		push	{r4, lr}
  72              		.cfi_def_cfa_offset 8
  73              		.cfi_offset 4, -8
  74              		.cfi_offset 14, -4
  75              		.loc 1 99 0
  76 0008 000093E5 		ldr	r0, [r3]
  77 000c FEFFFFEB 		bl	close
  78              	.LVL4:
 100:D:/Work/DeviceTester/amazon-freertos/lib/third_party/mcu_vendor/renesas/rz_mcu_boards/amazon_freertos_common\r_eeprom_sample.c **** 
 101:D:/Work/DeviceTester/amazon-freertos/lib/third_party/mcu_vendor/renesas/rz_mcu_boards/amazon_freertos_common\r_eeprom_sample.c ****     return NO_ERROR;
 102:D:/Work/DeviceTester/amazon-freertos/lib/third_party/mcu_vendor/renesas/rz_mcu_boards/amazon_freertos_common\r_eeprom_sample.c **** }
  79              		.loc 1 102 0
  80 0010 0000A0E3 		mov	r0, #0
  81 0014 1080BDE8 		pop	{r4, pc}
  82              	.L8:
  83              		.align	2
  84              	.L7:
  85 0018 00000000 		.word	.LANCHOR0
  86              		.cfi_endproc
  87              	.LFE5:
  89              		.section	.text.Sample_RIIC_Eeprom_Write,"ax",%progbits
  90              		.align	2
  91              		.global	Sample_RIIC_Eeprom_Write
  92              		.syntax unified
  93              		.arm
  94              		.fpu neon
  96              	Sample_RIIC_Eeprom_Write:
  97              	.LFB6:
 103:D:/Work/DeviceTester/amazon-freertos/lib/third_party/mcu_vendor/renesas/rz_mcu_boards/amazon_freertos_common\r_eeprom_sample.c **** /*****************************************************************************
 104:D:/Work/DeviceTester/amazon-freertos/lib/third_party/mcu_vendor/renesas/rz_mcu_boards/amazon_freertos_common\r_eeprom_sample.c ****  End of function Sample_RIIC_Eeprom_UnInit
 105:D:/Work/DeviceTester/amazon-freertos/lib/third_party/mcu_vendor/renesas/rz_mcu_boards/amazon_freertos_common\r_eeprom_sample.c ****  *****************************************************************************/
 106:D:/Work/DeviceTester/amazon-freertos/lib/third_party/mcu_vendor/renesas/rz_mcu_boards/amazon_freertos_common\r_eeprom_sample.c **** 
 107:D:/Work/DeviceTester/amazon-freertos/lib/third_party/mcu_vendor/renesas/rz_mcu_boards/amazon_freertos_common\r_eeprom_sample.c **** /*****************************************************************************
 108:D:/Work/DeviceTester/amazon-freertos/lib/third_party/mcu_vendor/renesas/rz_mcu_boards/amazon_freertos_common\r_eeprom_sample.c ****  * Function Name: Sample_RIIC_Eeprom_Write
 109:D:/Work/DeviceTester/amazon-freertos/lib/third_party/mcu_vendor/renesas/rz_mcu_boards/amazon_freertos_common\r_eeprom_sample.c ****  * Description  : Write data to EEPROM memory
 110:D:/Work/DeviceTester/amazon-freertos/lib/third_party/mcu_vendor/renesas/rz_mcu_boards/amazon_freertos_common\r_eeprom_sample.c ****  * Arguments    : uint8_t addr - start address to write to EEPROM
 111:D:/Work/DeviceTester/amazon-freertos/lib/third_party/mcu_vendor/renesas/rz_mcu_boards/amazon_freertos_common\r_eeprom_sample.c ****  *              : const void *data - pointer to the buffer storing data to be written to EEPROM
 112:D:/Work/DeviceTester/amazon-freertos/lib/third_party/mcu_vendor/renesas/rz_mcu_boards/amazon_freertos_common\r_eeprom_sample.c ****  *              : size_t size - write data size
 113:D:/Work/DeviceTester/amazon-freertos/lib/third_party/mcu_vendor/renesas/rz_mcu_boards/amazon_freertos_common\r_eeprom_sample.c ****  * Return Value : int_t - error code
 114:D:/Work/DeviceTester/amazon-freertos/lib/third_party/mcu_vendor/renesas/rz_mcu_boards/amazon_freertos_common\r_eeprom_sample.c ****  *****************************************************************************/
 115:D:/Work/DeviceTester/amazon-freertos/lib/third_party/mcu_vendor/renesas/rz_mcu_boards/amazon_freertos_common\r_eeprom_sample.c **** int_t Sample_RIIC_Eeprom_Write(uint16_t addr, const void *data, uint32_t size)
 116:D:/Work/DeviceTester/amazon-freertos/lib/third_party/mcu_vendor/renesas/rz_mcu_boards/amazon_freertos_common\r_eeprom_sample.c **** {
  98              		.loc 1 116 0
  99              		.cfi_startproc
 100              		@ args = 0, pretend = 0, frame = 40
 101              		@ frame_needed = 0, uses_anonymous_args = 0
 102              	.LVL5:
 103 0000 F0472DE9 		push	{r4, r5, r6, r7, r8, r9, r10, lr}
 104              		.cfi_def_cfa_offset 32
 105              		.cfi_offset 4, -32
 106              		.cfi_offset 5, -28
 107              		.cfi_offset 6, -24
 108              		.cfi_offset 7, -20
 109              		.cfi_offset 8, -16
 110              		.cfi_offset 9, -12
 111              		.cfi_offset 10, -8
 112              		.cfi_offset 14, -4
 117:D:/Work/DeviceTester/amazon-freertos/lib/third_party/mcu_vendor/renesas/rz_mcu_boards/amazon_freertos_common\r_eeprom_sample.c ****     int_t error = NO_ERROR;
 118:D:/Work/DeviceTester/amazon-freertos/lib/third_party/mcu_vendor/renesas/rz_mcu_boards/amazon_freertos_common\r_eeprom_sample.c ****     uint32_t write_size;
 119:D:/Work/DeviceTester/amazon-freertos/lib/third_party/mcu_vendor/renesas/rz_mcu_boards/amazon_freertos_common\r_eeprom_sample.c **** 
 120:D:/Work/DeviceTester/amazon-freertos/lib/third_party/mcu_vendor/renesas/rz_mcu_boards/amazon_freertos_common\r_eeprom_sample.c ****     /* convert pointer to number */
 121:D:/Work/DeviceTester/amazon-freertos/lib/third_party/mcu_vendor/renesas/rz_mcu_boards/amazon_freertos_common\r_eeprom_sample.c ****     uint32_t write_addr = (uint32_t)addr;
 122:D:/Work/DeviceTester/amazon-freertos/lib/third_party/mcu_vendor/renesas/rz_mcu_boards/amazon_freertos_common\r_eeprom_sample.c ****     const uint8_t *p_data;
 123:D:/Work/DeviceTester/amazon-freertos/lib/third_party/mcu_vendor/renesas/rz_mcu_boards/amazon_freertos_common\r_eeprom_sample.c ****     bool_t first_loop = true;
 113              		.loc 1 123 0
 114 0004 0130A0E3 		mov	r3, #1
 115              	.LBB5:
 124:D:/Work/DeviceTester/amazon-freertos/lib/third_party/mcu_vendor/renesas/rz_mcu_boards/amazon_freertos_common\r_eeprom_sample.c **** 
 125:D:/Work/DeviceTester/amazon-freertos/lib/third_party/mcu_vendor/renesas/rz_mcu_boards/amazon_freertos_common\r_eeprom_sample.c ****     /* copy to auto variable */
 126:D:/Work/DeviceTester/amazon-freertos/lib/third_party/mcu_vendor/renesas/rz_mcu_boards/amazon_freertos_common\r_eeprom_sample.c ****     p_data = (const uint8_t *) data;
 127:D:/Work/DeviceTester/amazon-freertos/lib/third_party/mcu_vendor/renesas/rz_mcu_boards/amazon_freertos_common\r_eeprom_sample.c ****     while (size > 0)
 128:D:/Work/DeviceTester/amazon-freertos/lib/third_party/mcu_vendor/renesas/rz_mcu_boards/amazon_freertos_common\r_eeprom_sample.c ****     {
 129:D:/Work/DeviceTester/amazon-freertos/lib/third_party/mcu_vendor/renesas/rz_mcu_boards/amazon_freertos_common\r_eeprom_sample.c ****         if (true == first_loop)
 130:D:/Work/DeviceTester/amazon-freertos/lib/third_party/mcu_vendor/renesas/rz_mcu_boards/amazon_freertos_common\r_eeprom_sample.c ****         {
 131:D:/Work/DeviceTester/amazon-freertos/lib/third_party/mcu_vendor/renesas/rz_mcu_boards/amazon_freertos_common\r_eeprom_sample.c ****             /* writing data up to the EEPROM_PAGE_SIZE byte boundary address in the first page writ
 132:D:/Work/DeviceTester/amazon-freertos/lib/third_party/mcu_vendor/renesas/rz_mcu_boards/amazon_freertos_common\r_eeprom_sample.c ****             write_size = (EEPROM_PAGE_SIZE - (write_addr % EEPROM_PAGE_SIZE));
 133:D:/Work/DeviceTester/amazon-freertos/lib/third_party/mcu_vendor/renesas/rz_mcu_boards/amazon_freertos_common\r_eeprom_sample.c ****             if (write_size > size)
 134:D:/Work/DeviceTester/amazon-freertos/lib/third_party/mcu_vendor/renesas/rz_mcu_boards/amazon_freertos_common\r_eeprom_sample.c ****             {
 135:D:/Work/DeviceTester/amazon-freertos/lib/third_party/mcu_vendor/renesas/rz_mcu_boards/amazon_freertos_common\r_eeprom_sample.c ****                 write_size = size;
 136:D:/Work/DeviceTester/amazon-freertos/lib/third_party/mcu_vendor/renesas/rz_mcu_boards/amazon_freertos_common\r_eeprom_sample.c ****             }
 137:D:/Work/DeviceTester/amazon-freertos/lib/third_party/mcu_vendor/renesas/rz_mcu_boards/amazon_freertos_common\r_eeprom_sample.c ****             
 138:D:/Work/DeviceTester/amazon-freertos/lib/third_party/mcu_vendor/renesas/rz_mcu_boards/amazon_freertos_common\r_eeprom_sample.c ****             first_loop = false;
 139:D:/Work/DeviceTester/amazon-freertos/lib/third_party/mcu_vendor/renesas/rz_mcu_boards/amazon_freertos_common\r_eeprom_sample.c ****         }
 140:D:/Work/DeviceTester/amazon-freertos/lib/third_party/mcu_vendor/renesas/rz_mcu_boards/amazon_freertos_common\r_eeprom_sample.c ****         else
 141:D:/Work/DeviceTester/amazon-freertos/lib/third_party/mcu_vendor/renesas/rz_mcu_boards/amazon_freertos_common\r_eeprom_sample.c ****         {
 142:D:/Work/DeviceTester/amazon-freertos/lib/third_party/mcu_vendor/renesas/rz_mcu_boards/amazon_freertos_common\r_eeprom_sample.c ****             /* max write size is limited to page size(64byte) after second page write process */
 143:D:/Work/DeviceTester/amazon-freertos/lib/third_party/mcu_vendor/renesas/rz_mcu_boards/amazon_freertos_common\r_eeprom_sample.c ****             if (EEPROM_PAGE_SIZE < size)
 144:D:/Work/DeviceTester/amazon-freertos/lib/third_party/mcu_vendor/renesas/rz_mcu_boards/amazon_freertos_common\r_eeprom_sample.c ****             {
 145:D:/Work/DeviceTester/amazon-freertos/lib/third_party/mcu_vendor/renesas/rz_mcu_boards/amazon_freertos_common\r_eeprom_sample.c ****                 write_size = EEPROM_PAGE_SIZE;
 146:D:/Work/DeviceTester/amazon-freertos/lib/third_party/mcu_vendor/renesas/rz_mcu_boards/amazon_freertos_common\r_eeprom_sample.c ****             }
 147:D:/Work/DeviceTester/amazon-freertos/lib/third_party/mcu_vendor/renesas/rz_mcu_boards/amazon_freertos_common\r_eeprom_sample.c ****             else
 148:D:/Work/DeviceTester/amazon-freertos/lib/third_party/mcu_vendor/renesas/rz_mcu_boards/amazon_freertos_common\r_eeprom_sample.c ****             {
 149:D:/Work/DeviceTester/amazon-freertos/lib/third_party/mcu_vendor/renesas/rz_mcu_boards/amazon_freertos_common\r_eeprom_sample.c ****                 write_size = size;
 150:D:/Work/DeviceTester/amazon-freertos/lib/third_party/mcu_vendor/renesas/rz_mcu_boards/amazon_freertos_common\r_eeprom_sample.c ****             }
 151:D:/Work/DeviceTester/amazon-freertos/lib/third_party/mcu_vendor/renesas/rz_mcu_boards/amazon_freertos_common\r_eeprom_sample.c ****         }
 152:D:/Work/DeviceTester/amazon-freertos/lib/third_party/mcu_vendor/renesas/rz_mcu_boards/amazon_freertos_common\r_eeprom_sample.c **** 
 153:D:/Work/DeviceTester/amazon-freertos/lib/third_party/mcu_vendor/renesas/rz_mcu_boards/amazon_freertos_common\r_eeprom_sample.c ****         /* EEPROM page write */
 154:D:/Work/DeviceTester/amazon-freertos/lib/third_party/mcu_vendor/renesas/rz_mcu_boards/amazon_freertos_common\r_eeprom_sample.c ****         st_r_drv_riic_transfer_t i2c_write;
 155:D:/Work/DeviceTester/amazon-freertos/lib/third_party/mcu_vendor/renesas/rz_mcu_boards/amazon_freertos_common\r_eeprom_sample.c ****         i2c_write.device_address = EEPROM_DEV_ADDRESS;
 156:D:/Work/DeviceTester/amazon-freertos/lib/third_party/mcu_vendor/renesas/rz_mcu_boards/amazon_freertos_common\r_eeprom_sample.c ****         i2c_write.sub_address_type = RIIC_SUB_ADDR_WIDTH_16_BITS;
 157:D:/Work/DeviceTester/amazon-freertos/lib/third_party/mcu_vendor/renesas/rz_mcu_boards/amazon_freertos_common\r_eeprom_sample.c ****         i2c_write.sub_address = write_addr;
 158:D:/Work/DeviceTester/amazon-freertos/lib/third_party/mcu_vendor/renesas/rz_mcu_boards/amazon_freertos_common\r_eeprom_sample.c ****         i2c_write.number_of_bytes = write_size;
 159:D:/Work/DeviceTester/amazon-freertos/lib/third_party/mcu_vendor/renesas/rz_mcu_boards/amazon_freertos_common\r_eeprom_sample.c **** 
 160:D:/Work/DeviceTester/amazon-freertos/lib/third_party/mcu_vendor/renesas/rz_mcu_boards/amazon_freertos_common\r_eeprom_sample.c ****         /* set buffer */
 161:D:/Work/DeviceTester/amazon-freertos/lib/third_party/mcu_vendor/renesas/rz_mcu_boards/amazon_freertos_common\r_eeprom_sample.c ****         i2c_write.p_data_buffer = (uint8_t *) p_data;
 162:D:/Work/DeviceTester/amazon-freertos/lib/third_party/mcu_vendor/renesas/rz_mcu_boards/amazon_freertos_common\r_eeprom_sample.c **** 
 163:D:/Work/DeviceTester/amazon-freertos/lib/third_party/mcu_vendor/renesas/rz_mcu_boards/amazon_freertos_common\r_eeprom_sample.c ****         if (DRV_ERROR >= control(handle, CTL_RIIC_WRITE, &i2c_write))
 116              		.loc 1 163 0
 117 0008 D8909FE5 		ldr	r9, .L23
 118              	.LBE5:
 116:D:/Work/DeviceTester/amazon-freertos/lib/third_party/mcu_vendor/renesas/rz_mcu_boards/amazon_freertos_common\r_eeprom_sample.c ****     int_t error = NO_ERROR;
 119              		.loc 1 116 0
 120 000c 28D04DE2 		sub	sp, sp, #40
 121              		.cfi_def_cfa_offset 72
 116:D:/Work/DeviceTester/amazon-freertos/lib/third_party/mcu_vendor/renesas/rz_mcu_boards/amazon_freertos_common\r_eeprom_sample.c ****     int_t error = NO_ERROR;
 122              		.loc 1 116 0
 123 0010 0240A0E1 		mov	r4, r2
 121:D:/Work/DeviceTester/amazon-freertos/lib/third_party/mcu_vendor/renesas/rz_mcu_boards/amazon_freertos_common\r_eeprom_sample.c ****     const uint8_t *p_data;
 124              		.loc 1 121 0
 125 0014 0060A0E1 		mov	r6, r0
 126              	.LVL6:
 126:D:/Work/DeviceTester/amazon-freertos/lib/third_party/mcu_vendor/renesas/rz_mcu_boards/amazon_freertos_common\r_eeprom_sample.c ****     while (size > 0)
 127              		.loc 1 126 0
 128 0018 0170A0E1 		mov	r7, r1
 129              	.LBB10:
 155:D:/Work/DeviceTester/amazon-freertos/lib/third_party/mcu_vendor/renesas/rz_mcu_boards/amazon_freertos_common\r_eeprom_sample.c ****         i2c_write.sub_address_type = RIIC_SUB_ADDR_WIDTH_16_BITS;
 130              		.loc 1 155 0
 131 001c A080A0E3 		mov	r8, #160
 132              	.LVL7:
 133              	.L10:
 134              	.LBE10:
 127:D:/Work/DeviceTester/amazon-freertos/lib/third_party/mcu_vendor/renesas/rz_mcu_boards/amazon_freertos_common\r_eeprom_sample.c ****     {
 135              		.loc 1 127 0
 136 0020 000054E3 		cmp	r4, #0
 137 0024 0400A001 		moveq	r0, r4
 138              	.LVL8:
 164:D:/Work/DeviceTester/amazon-freertos/lib/third_party/mcu_vendor/renesas/rz_mcu_boards/amazon_freertos_common\r_eeprom_sample.c ****         {
 165:D:/Work/DeviceTester/amazon-freertos/lib/third_party/mcu_vendor/renesas/rz_mcu_boards/amazon_freertos_common\r_eeprom_sample.c ****             error = ERROR_FAILURE;
 166:D:/Work/DeviceTester/amazon-freertos/lib/third_party/mcu_vendor/renesas/rz_mcu_boards/amazon_freertos_common\r_eeprom_sample.c ****             break;
 167:D:/Work/DeviceTester/amazon-freertos/lib/third_party/mcu_vendor/renesas/rz_mcu_boards/amazon_freertos_common\r_eeprom_sample.c ****         }
 168:D:/Work/DeviceTester/amazon-freertos/lib/third_party/mcu_vendor/renesas/rz_mcu_boards/amazon_freertos_common\r_eeprom_sample.c ****         else
 169:D:/Work/DeviceTester/amazon-freertos/lib/third_party/mcu_vendor/renesas/rz_mcu_boards/amazon_freertos_common\r_eeprom_sample.c ****         {
 170:D:/Work/DeviceTester/amazon-freertos/lib/third_party/mcu_vendor/renesas/rz_mcu_boards/amazon_freertos_common\r_eeprom_sample.c ****             /* update data pointer, size information */
 171:D:/Work/DeviceTester/amazon-freertos/lib/third_party/mcu_vendor/renesas/rz_mcu_boards/amazon_freertos_common\r_eeprom_sample.c ****             p_data += write_size;
 172:D:/Work/DeviceTester/amazon-freertos/lib/third_party/mcu_vendor/renesas/rz_mcu_boards/amazon_freertos_common\r_eeprom_sample.c ****             write_addr += write_size;
 173:D:/Work/DeviceTester/amazon-freertos/lib/third_party/mcu_vendor/renesas/rz_mcu_boards/amazon_freertos_common\r_eeprom_sample.c ****             size -= write_size;
 174:D:/Work/DeviceTester/amazon-freertos/lib/third_party/mcu_vendor/renesas/rz_mcu_boards/amazon_freertos_common\r_eeprom_sample.c **** 
 175:D:/Work/DeviceTester/amazon-freertos/lib/third_party/mcu_vendor/renesas/rz_mcu_boards/amazon_freertos_common\r_eeprom_sample.c ****             /* wait EEPROM write by ack polling of dummy RIIC read */
 176:D:/Work/DeviceTester/amazon-freertos/lib/third_party/mcu_vendor/renesas/rz_mcu_boards/amazon_freertos_common\r_eeprom_sample.c ****             error = riic_ackpoll();
 177:D:/Work/DeviceTester/amazon-freertos/lib/third_party/mcu_vendor/renesas/rz_mcu_boards/amazon_freertos_common\r_eeprom_sample.c ****             if (ERROR_FAILURE == error)
 178:D:/Work/DeviceTester/amazon-freertos/lib/third_party/mcu_vendor/renesas/rz_mcu_boards/amazon_freertos_common\r_eeprom_sample.c ****             {
 179:D:/Work/DeviceTester/amazon-freertos/lib/third_party/mcu_vendor/renesas/rz_mcu_boards/amazon_freertos_common\r_eeprom_sample.c ****                 break;
 180:D:/Work/DeviceTester/amazon-freertos/lib/third_party/mcu_vendor/renesas/rz_mcu_boards/amazon_freertos_common\r_eeprom_sample.c ****             }
 181:D:/Work/DeviceTester/amazon-freertos/lib/third_party/mcu_vendor/renesas/rz_mcu_boards/amazon_freertos_common\r_eeprom_sample.c ****         }
 182:D:/Work/DeviceTester/amazon-freertos/lib/third_party/mcu_vendor/renesas/rz_mcu_boards/amazon_freertos_common\r_eeprom_sample.c ****     }
 183:D:/Work/DeviceTester/amazon-freertos/lib/third_party/mcu_vendor/renesas/rz_mcu_boards/amazon_freertos_common\r_eeprom_sample.c **** 
 184:D:/Work/DeviceTester/amazon-freertos/lib/third_party/mcu_vendor/renesas/rz_mcu_boards/amazon_freertos_common\r_eeprom_sample.c ****     /* Return status code */
 185:D:/Work/DeviceTester/amazon-freertos/lib/third_party/mcu_vendor/renesas/rz_mcu_boards/amazon_freertos_common\r_eeprom_sample.c ****     return (error);
 139              		.loc 1 185 0
 140 0028 2600000A 		beq	.L9
 141              	.LVL9:
 142              	.L18:
 143              	.LBB11:
 129:D:/Work/DeviceTester/amazon-freertos/lib/third_party/mcu_vendor/renesas/rz_mcu_boards/amazon_freertos_common\r_eeprom_sample.c ****         {
 144              		.loc 1 129 0
 145 002c 010053E3 		cmp	r3, #1
 146 0030 2600001A 		bne	.L11
 147              	.LVL10:
 132:D:/Work/DeviceTester/amazon-freertos/lib/third_party/mcu_vendor/renesas/rz_mcu_boards/amazon_freertos_common\r_eeprom_sample.c ****             if (write_size > size)
 148              		.loc 1 132 0
 149 0034 3F5006E2 		and	r5, r6, #63
 150 0038 405065E2 		rsb	r5, r5, #64
 151              	.LVL11:
 152 003c 040055E1 		cmp	r5, r4
 153 0040 0450A021 		movcs	r5, r4
 154              	.LVL12:
 155              	.L12:
 156:D:/Work/DeviceTester/amazon-freertos/lib/third_party/mcu_vendor/renesas/rz_mcu_boards/amazon_freertos_common\r_eeprom_sample.c ****         i2c_write.sub_address = write_addr;
 156              		.loc 1 156 0
 157 0044 02A0A0E3 		mov	r10, #2
 163:D:/Work/DeviceTester/amazon-freertos/lib/third_party/mcu_vendor/renesas/rz_mcu_boards/amazon_freertos_common\r_eeprom_sample.c ****         {
 158              		.loc 1 163 0
 159 0048 08208DE2 		add	r2, sp, #8
 160 004c 0410A0E3 		mov	r1, #4
 161 0050 000099E5 		ldr	r0, [r9]
 155:D:/Work/DeviceTester/amazon-freertos/lib/third_party/mcu_vendor/renesas/rz_mcu_boards/amazon_freertos_common\r_eeprom_sample.c ****         i2c_write.sub_address_type = RIIC_SUB_ADDR_WIDTH_16_BITS;
 162              		.loc 1 155 0
 163 0054 B880CDE1 		strh	r8, [sp, #8]	@ movhi
 156:D:/Work/DeviceTester/amazon-freertos/lib/third_party/mcu_vendor/renesas/rz_mcu_boards/amazon_freertos_common\r_eeprom_sample.c ****         i2c_write.sub_address = write_addr;
 164              		.loc 1 156 0
 165 0058 0AA0CDE5 		strb	r10, [sp, #10]
 157:D:/Work/DeviceTester/amazon-freertos/lib/third_party/mcu_vendor/renesas/rz_mcu_boards/amazon_freertos_common\r_eeprom_sample.c ****         i2c_write.number_of_bytes = write_size;
 166              		.loc 1 157 0
 167 005c 0C608DE5 		str	r6, [sp, #12]
 158:D:/Work/DeviceTester/amazon-freertos/lib/third_party/mcu_vendor/renesas/rz_mcu_boards/amazon_freertos_common\r_eeprom_sample.c **** 
 168              		.loc 1 158 0
 169 0060 10508DE5 		str	r5, [sp, #16]
 161:D:/Work/DeviceTester/amazon-freertos/lib/third_party/mcu_vendor/renesas/rz_mcu_boards/amazon_freertos_common\r_eeprom_sample.c **** 
 170              		.loc 1 161 0
 171 0064 14708DE5 		str	r7, [sp, #20]
 163:D:/Work/DeviceTester/amazon-freertos/lib/third_party/mcu_vendor/renesas/rz_mcu_boards/amazon_freertos_common\r_eeprom_sample.c ****         {
 172              		.loc 1 163 0
 173 0068 FEFFFFEB 		bl	control
 174              	.LVL13:
 175 006c 000050E3 		cmp	r0, #0
 176 0070 130000BA 		blt	.L13
 177              	.LBB6:
 178              	.LBB7:
 186:D:/Work/DeviceTester/amazon-freertos/lib/third_party/mcu_vendor/renesas/rz_mcu_boards/amazon_freertos_common\r_eeprom_sample.c **** }
 187:D:/Work/DeviceTester/amazon-freertos/lib/third_party/mcu_vendor/renesas/rz_mcu_boards/amazon_freertos_common\r_eeprom_sample.c **** /*****************************************************************************
 188:D:/Work/DeviceTester/amazon-freertos/lib/third_party/mcu_vendor/renesas/rz_mcu_boards/amazon_freertos_common\r_eeprom_sample.c ****  End of function Sample_RIIC_Eeprom_Write
 189:D:/Work/DeviceTester/amazon-freertos/lib/third_party/mcu_vendor/renesas/rz_mcu_boards/amazon_freertos_common\r_eeprom_sample.c ****  *****************************************************************************/
 190:D:/Work/DeviceTester/amazon-freertos/lib/third_party/mcu_vendor/renesas/rz_mcu_boards/amazon_freertos_common\r_eeprom_sample.c **** 
 191:D:/Work/DeviceTester/amazon-freertos/lib/third_party/mcu_vendor/renesas/rz_mcu_boards/amazon_freertos_common\r_eeprom_sample.c **** /*****************************************************************************
 192:D:/Work/DeviceTester/amazon-freertos/lib/third_party/mcu_vendor/renesas/rz_mcu_boards/amazon_freertos_common\r_eeprom_sample.c ****  * Function Name: Sample_RIIC_Eeprom_Read
 193:D:/Work/DeviceTester/amazon-freertos/lib/third_party/mcu_vendor/renesas/rz_mcu_boards/amazon_freertos_common\r_eeprom_sample.c ****  * Description  : Read data from EEPROM memory
 194:D:/Work/DeviceTester/amazon-freertos/lib/third_party/mcu_vendor/renesas/rz_mcu_boards/amazon_freertos_common\r_eeprom_sample.c ****  * Arguments    : uint8_t addr - start address to read from EEPROM
 195:D:/Work/DeviceTester/amazon-freertos/lib/third_party/mcu_vendor/renesas/rz_mcu_boards/amazon_freertos_common\r_eeprom_sample.c ****  *              : const void *data - pointer of the buffer to store the data read from EEPROM
 196:D:/Work/DeviceTester/amazon-freertos/lib/third_party/mcu_vendor/renesas/rz_mcu_boards/amazon_freertos_common\r_eeprom_sample.c ****  *              : size_t size - read data size
 197:D:/Work/DeviceTester/amazon-freertos/lib/third_party/mcu_vendor/renesas/rz_mcu_boards/amazon_freertos_common\r_eeprom_sample.c ****  * Return Value : int_t - error code
 198:D:/Work/DeviceTester/amazon-freertos/lib/third_party/mcu_vendor/renesas/rz_mcu_boards/amazon_freertos_common\r_eeprom_sample.c ****  *****************************************************************************/
 199:D:/Work/DeviceTester/amazon-freertos/lib/third_party/mcu_vendor/renesas/rz_mcu_boards/amazon_freertos_common\r_eeprom_sample.c **** int_t Sample_RIIC_Eeprom_Read (uint16_t addr, void *data, uint32_t size)
 200:D:/Work/DeviceTester/amazon-freertos/lib/third_party/mcu_vendor/renesas/rz_mcu_boards/amazon_freertos_common\r_eeprom_sample.c **** {
 201:D:/Work/DeviceTester/amazon-freertos/lib/third_party/mcu_vendor/renesas/rz_mcu_boards/amazon_freertos_common\r_eeprom_sample.c ****     int_t error = NO_ERROR;
 202:D:/Work/DeviceTester/amazon-freertos/lib/third_party/mcu_vendor/renesas/rz_mcu_boards/amazon_freertos_common\r_eeprom_sample.c ****     uint8_t *p_data;
 203:D:/Work/DeviceTester/amazon-freertos/lib/third_party/mcu_vendor/renesas/rz_mcu_boards/amazon_freertos_common\r_eeprom_sample.c ****     
 204:D:/Work/DeviceTester/amazon-freertos/lib/third_party/mcu_vendor/renesas/rz_mcu_boards/amazon_freertos_common\r_eeprom_sample.c ****     /* copy to auto variable */
 205:D:/Work/DeviceTester/amazon-freertos/lib/third_party/mcu_vendor/renesas/rz_mcu_boards/amazon_freertos_common\r_eeprom_sample.c ****     p_data = (uint8_t *)data;
 206:D:/Work/DeviceTester/amazon-freertos/lib/third_party/mcu_vendor/renesas/rz_mcu_boards/amazon_freertos_common\r_eeprom_sample.c ****     /* EEPROM sequential read */
 207:D:/Work/DeviceTester/amazon-freertos/lib/third_party/mcu_vendor/renesas/rz_mcu_boards/amazon_freertos_common\r_eeprom_sample.c ****     st_r_drv_riic_transfer_t i2c_read;
 208:D:/Work/DeviceTester/amazon-freertos/lib/third_party/mcu_vendor/renesas/rz_mcu_boards/amazon_freertos_common\r_eeprom_sample.c ****     i2c_read.device_address = EEPROM_DEV_ADDRESS;
 209:D:/Work/DeviceTester/amazon-freertos/lib/third_party/mcu_vendor/renesas/rz_mcu_boards/amazon_freertos_common\r_eeprom_sample.c ****     i2c_read.sub_address_type = RIIC_SUB_ADDR_WIDTH_16_BITS;
 210:D:/Work/DeviceTester/amazon-freertos/lib/third_party/mcu_vendor/renesas/rz_mcu_boards/amazon_freertos_common\r_eeprom_sample.c ****     /* convert pointer to number */
 211:D:/Work/DeviceTester/amazon-freertos/lib/third_party/mcu_vendor/renesas/rz_mcu_boards/amazon_freertos_common\r_eeprom_sample.c ****     i2c_read.sub_address = (uint32_t)addr;
 212:D:/Work/DeviceTester/amazon-freertos/lib/third_party/mcu_vendor/renesas/rz_mcu_boards/amazon_freertos_common\r_eeprom_sample.c ****     i2c_read.number_of_bytes = size;
 213:D:/Work/DeviceTester/amazon-freertos/lib/third_party/mcu_vendor/renesas/rz_mcu_boards/amazon_freertos_common\r_eeprom_sample.c ****     /* set the buffer */
 214:D:/Work/DeviceTester/amazon-freertos/lib/third_party/mcu_vendor/renesas/rz_mcu_boards/amazon_freertos_common\r_eeprom_sample.c ****     i2c_read.p_data_buffer = (uint8_t *) p_data;
 215:D:/Work/DeviceTester/amazon-freertos/lib/third_party/mcu_vendor/renesas/rz_mcu_boards/amazon_freertos_common\r_eeprom_sample.c **** 
 216:D:/Work/DeviceTester/amazon-freertos/lib/third_party/mcu_vendor/renesas/rz_mcu_boards/amazon_freertos_common\r_eeprom_sample.c ****     if (DRV_ERROR >= control(handle, CTL_RIIC_READ, &i2c_read))
 217:D:/Work/DeviceTester/amazon-freertos/lib/third_party/mcu_vendor/renesas/rz_mcu_boards/amazon_freertos_common\r_eeprom_sample.c ****     {
 218:D:/Work/DeviceTester/amazon-freertos/lib/third_party/mcu_vendor/renesas/rz_mcu_boards/amazon_freertos_common\r_eeprom_sample.c ****         error = ERROR_FAILURE;
 219:D:/Work/DeviceTester/amazon-freertos/lib/third_party/mcu_vendor/renesas/rz_mcu_boards/amazon_freertos_common\r_eeprom_sample.c ****     }
 220:D:/Work/DeviceTester/amazon-freertos/lib/third_party/mcu_vendor/renesas/rz_mcu_boards/amazon_freertos_common\r_eeprom_sample.c **** 
 221:D:/Work/DeviceTester/amazon-freertos/lib/third_party/mcu_vendor/renesas/rz_mcu_boards/amazon_freertos_common\r_eeprom_sample.c ****     /* Return status code */
 222:D:/Work/DeviceTester/amazon-freertos/lib/third_party/mcu_vendor/renesas/rz_mcu_boards/amazon_freertos_common\r_eeprom_sample.c ****     return (error);
 223:D:/Work/DeviceTester/amazon-freertos/lib/third_party/mcu_vendor/renesas/rz_mcu_boards/amazon_freertos_common\r_eeprom_sample.c **** }
 224:D:/Work/DeviceTester/amazon-freertos/lib/third_party/mcu_vendor/renesas/rz_mcu_boards/amazon_freertos_common\r_eeprom_sample.c **** /*****************************************************************************
 225:D:/Work/DeviceTester/amazon-freertos/lib/third_party/mcu_vendor/renesas/rz_mcu_boards/amazon_freertos_common\r_eeprom_sample.c ****  End of function Sample_RIIC_Eeprom_Read
 226:D:/Work/DeviceTester/amazon-freertos/lib/third_party/mcu_vendor/renesas/rz_mcu_boards/amazon_freertos_common\r_eeprom_sample.c ****  *****************************************************************************/
 227:D:/Work/DeviceTester/amazon-freertos/lib/third_party/mcu_vendor/renesas/rz_mcu_boards/amazon_freertos_common\r_eeprom_sample.c **** 
 228:D:/Work/DeviceTester/amazon-freertos/lib/third_party/mcu_vendor/renesas/rz_mcu_boards/amazon_freertos_common\r_eeprom_sample.c **** /****************************************************************************
 229:D:/Work/DeviceTester/amazon-freertos/lib/third_party/mcu_vendor/renesas/rz_mcu_boards/amazon_freertos_common\r_eeprom_sample.c ****  * Function Name: riic_ackpoll
 230:D:/Work/DeviceTester/amazon-freertos/lib/third_party/mcu_vendor/renesas/rz_mcu_boards/amazon_freertos_common\r_eeprom_sample.c ****  * Description  : Polling ACK from EEPROM by dummy read
 231:D:/Work/DeviceTester/amazon-freertos/lib/third_party/mcu_vendor/renesas/rz_mcu_boards/amazon_freertos_common\r_eeprom_sample.c ****  * Arguments    : none
 232:D:/Work/DeviceTester/amazon-freertos/lib/third_party/mcu_vendor/renesas/rz_mcu_boards/amazon_freertos_common\r_eeprom_sample.c ****  * Return Value : int_t - error code
 233:D:/Work/DeviceTester/amazon-freertos/lib/third_party/mcu_vendor/renesas/rz_mcu_boards/amazon_freertos_common\r_eeprom_sample.c ****  *****************************************************************************/
 234:D:/Work/DeviceTester/amazon-freertos/lib/third_party/mcu_vendor/renesas/rz_mcu_boards/amazon_freertos_common\r_eeprom_sample.c **** static int_t riic_ackpoll(void)
 235:D:/Work/DeviceTester/amazon-freertos/lib/third_party/mcu_vendor/renesas/rz_mcu_boards/amazon_freertos_common\r_eeprom_sample.c **** {
 236:D:/Work/DeviceTester/amazon-freertos/lib/third_party/mcu_vendor/renesas/rz_mcu_boards/amazon_freertos_common\r_eeprom_sample.c ****     int_t error = NO_ERROR;
 237:D:/Work/DeviceTester/amazon-freertos/lib/third_party/mcu_vendor/renesas/rz_mcu_boards/amazon_freertos_common\r_eeprom_sample.c ****     uint32_t dummy_size = EEPROM_DUMMY_READ_BUF_SIZE;
 238:D:/Work/DeviceTester/amazon-freertos/lib/third_party/mcu_vendor/renesas/rz_mcu_boards/amazon_freertos_common\r_eeprom_sample.c ****     uint32_t dummy_addr = 0x0000;
 239:D:/Work/DeviceTester/amazon-freertos/lib/third_party/mcu_vendor/renesas/rz_mcu_boards/amazon_freertos_common\r_eeprom_sample.c ****     uint8_t dummy_buf[EEPROM_DUMMY_READ_BUF_SIZE];
 240:D:/Work/DeviceTester/amazon-freertos/lib/third_party/mcu_vendor/renesas/rz_mcu_boards/amazon_freertos_common\r_eeprom_sample.c ****     uint32_t error_cnt;
 241:D:/Work/DeviceTester/amazon-freertos/lib/third_party/mcu_vendor/renesas/rz_mcu_boards/amazon_freertos_common\r_eeprom_sample.c **** 
 242:D:/Work/DeviceTester/amazon-freertos/lib/third_party/mcu_vendor/renesas/rz_mcu_boards/amazon_freertos_common\r_eeprom_sample.c ****     st_r_drv_riic_transfer_t i2c_dummy_read;
 243:D:/Work/DeviceTester/amazon-freertos/lib/third_party/mcu_vendor/renesas/rz_mcu_boards/amazon_freertos_common\r_eeprom_sample.c ****     i2c_dummy_read.device_address = EEPROM_DEV_ADDRESS;
 244:D:/Work/DeviceTester/amazon-freertos/lib/third_party/mcu_vendor/renesas/rz_mcu_boards/amazon_freertos_common\r_eeprom_sample.c ****     i2c_dummy_read.sub_address_type = RIIC_SUB_ADDR_WIDTH_16_BITS;
 245:D:/Work/DeviceTester/amazon-freertos/lib/third_party/mcu_vendor/renesas/rz_mcu_boards/amazon_freertos_common\r_eeprom_sample.c ****     i2c_dummy_read.sub_address = dummy_addr;
 179              		.loc 1 245 0
 180 0074 0030A0E3 		mov	r3, #0
 181              	.LBE7:
 182              	.LBE6:
 171:D:/Work/DeviceTester/amazon-freertos/lib/third_party/mcu_vendor/renesas/rz_mcu_boards/amazon_freertos_common\r_eeprom_sample.c ****             write_addr += write_size;
 183              		.loc 1 171 0
 184 0078 057087E0 		add	r7, r7, r5
 185              	.LVL14:
 172:D:/Work/DeviceTester/amazon-freertos/lib/third_party/mcu_vendor/renesas/rz_mcu_boards/amazon_freertos_common\r_eeprom_sample.c ****             size -= write_size;
 186              		.loc 1 172 0
 187 007c 056086E0 		add	r6, r6, r5
 188              	.LVL15:
 173:D:/Work/DeviceTester/amazon-freertos/lib/third_party/mcu_vendor/renesas/rz_mcu_boards/amazon_freertos_common\r_eeprom_sample.c **** 
 189              		.loc 1 173 0
 190 0080 054044E0 		sub	r4, r4, r5
 191              	.LVL16:
 192              	.LBB9:
 193              	.LBB8:
 194              		.loc 1 245 0
 195 0084 1C308DE5 		str	r3, [sp, #28]
 246:D:/Work/DeviceTester/amazon-freertos/lib/third_party/mcu_vendor/renesas/rz_mcu_boards/amazon_freertos_common\r_eeprom_sample.c ****     i2c_dummy_read.number_of_bytes = dummy_size;
 247:D:/Work/DeviceTester/amazon-freertos/lib/third_party/mcu_vendor/renesas/rz_mcu_boards/amazon_freertos_common\r_eeprom_sample.c ****     i2c_dummy_read.p_data_buffer = dummy_buf;
 196              		.loc 1 247 0
 197 0088 6550A0E3 		mov	r5, #101
 198              	.LVL17:
 246:D:/Work/DeviceTester/amazon-freertos/lib/third_party/mcu_vendor/renesas/rz_mcu_boards/amazon_freertos_common\r_eeprom_sample.c ****     i2c_dummy_read.number_of_bytes = dummy_size;
 199              		.loc 1 246 0
 200 008c 0130A0E3 		mov	r3, #1
 243:D:/Work/DeviceTester/amazon-freertos/lib/third_party/mcu_vendor/renesas/rz_mcu_boards/amazon_freertos_common\r_eeprom_sample.c ****     i2c_dummy_read.sub_address_type = RIIC_SUB_ADDR_WIDTH_16_BITS;
 201              		.loc 1 243 0
 202 0090 B881CDE1 		strh	r8, [sp, #24]	@ movhi
 246:D:/Work/DeviceTester/amazon-freertos/lib/third_party/mcu_vendor/renesas/rz_mcu_boards/amazon_freertos_common\r_eeprom_sample.c ****     i2c_dummy_read.number_of_bytes = dummy_size;
 203              		.loc 1 246 0
 204 0094 20308DE5 		str	r3, [sp, #32]
 205              		.loc 1 247 0
 206 0098 04308DE2 		add	r3, sp, #4
 244:D:/Work/DeviceTester/amazon-freertos/lib/third_party/mcu_vendor/renesas/rz_mcu_boards/amazon_freertos_common\r_eeprom_sample.c ****     i2c_dummy_read.sub_address = dummy_addr;
 207              		.loc 1 244 0
 208 009c 1AA0CDE5 		strb	r10, [sp, #26]
 209              		.loc 1 247 0
 210 00a0 24308DE5 		str	r3, [sp, #36]
 211              	.LVL18:
 212              	.L16:
 248:D:/Work/DeviceTester/amazon-freertos/lib/third_party/mcu_vendor/renesas/rz_mcu_boards/amazon_freertos_common\r_eeprom_sample.c **** 
 249:D:/Work/DeviceTester/amazon-freertos/lib/third_party/mcu_vendor/renesas/rz_mcu_boards/amazon_freertos_common\r_eeprom_sample.c ****     error_cnt = 0;
 250:D:/Work/DeviceTester/amazon-freertos/lib/third_party/mcu_vendor/renesas/rz_mcu_boards/amazon_freertos_common\r_eeprom_sample.c ****     while (1)
 251:D:/Work/DeviceTester/amazon-freertos/lib/third_party/mcu_vendor/renesas/rz_mcu_boards/amazon_freertos_common\r_eeprom_sample.c ****     {
 252:D:/Work/DeviceTester/amazon-freertos/lib/third_party/mcu_vendor/renesas/rz_mcu_boards/amazon_freertos_common\r_eeprom_sample.c ****         /* wait for ACK from EEPROM */
 253:D:/Work/DeviceTester/amazon-freertos/lib/third_party/mcu_vendor/renesas/rz_mcu_boards/amazon_freertos_common\r_eeprom_sample.c ****         /* Since NACK is returned until writing is completed, an error occurs */
 254:D:/Work/DeviceTester/amazon-freertos/lib/third_party/mcu_vendor/renesas/rz_mcu_boards/amazon_freertos_common\r_eeprom_sample.c ****         if (DRV_ERROR == control(handle, CTL_RIIC_READ, &i2c_dummy_read))
 213              		.loc 1 254 0
 214 00a4 18208DE2 		add	r2, sp, #24
 215 00a8 0310A0E3 		mov	r1, #3
 216 00ac 000099E5 		ldr	r0, [r9]
 217 00b0 FEFFFFEB 		bl	control
 218              	.LVL19:
 219 00b4 010070E3 		cmn	r0, #1
 220 00b8 0800001A 		bne	.L14
 221              	.LVL20:
 255:D:/Work/DeviceTester/amazon-freertos/lib/third_party/mcu_vendor/renesas/rz_mcu_boards/amazon_freertos_common\r_eeprom_sample.c ****         {
 256:D:/Work/DeviceTester/amazon-freertos/lib/third_party/mcu_vendor/renesas/rz_mcu_boards/amazon_freertos_common\r_eeprom_sample.c ****             error_cnt++;
 257:D:/Work/DeviceTester/amazon-freertos/lib/third_party/mcu_vendor/renesas/rz_mcu_boards/amazon_freertos_common\r_eeprom_sample.c ****             if (EEPROM_DUMMY_READ_MAX_TIME < error_cnt)
 222              		.loc 1 257 0
 223 00bc 015055E2 		subs	r5, r5, #1
 224              	.LVL21:
 225 00c0 F7FFFF1A 		bne	.L16
 226              	.LVL22:
 227              	.L13:
 228              	.LBE8:
 229              	.LBE9:
 166:D:/Work/DeviceTester/amazon-freertos/lib/third_party/mcu_vendor/renesas/rz_mcu_boards/amazon_freertos_common\r_eeprom_sample.c ****         }
 230              		.loc 1 166 0
 231 00c4 0000E0E3 		mvn	r0, #0
 232              	.LVL23:
 233              	.L9:
 234              	.LBE11:
 186:D:/Work/DeviceTester/amazon-freertos/lib/third_party/mcu_vendor/renesas/rz_mcu_boards/amazon_freertos_common\r_eeprom_sample.c **** /*****************************************************************************
 235              		.loc 1 186 0
 236 00c8 28D08DE2 		add	sp, sp, #40
 237              		.cfi_remember_state
 238              		.cfi_def_cfa_offset 32
 239              		@ sp needed
 240 00cc F087BDE8 		pop	{r4, r5, r6, r7, r8, r9, r10, pc}
 241              	.LVL24:
 242              	.L11:
 243              		.cfi_restore_state
 244 00d0 400054E3 		cmp	r4, #64
 245 00d4 0450A031 		movcc	r5, r4
 246 00d8 4050A023 		movcs	r5, #64
 247              	.LBB12:
 248 00dc D8FFFFEA 		b	.L12
 249              	.LVL25:
 250              	.L14:
 251 00e0 0030A0E3 		mov	r3, #0
 252 00e4 CDFFFFEA 		b	.L10
 253              	.L24:
 254              		.align	2
 255              	.L23:
 256 00e8 00000000 		.word	.LANCHOR0
 257              	.LBE12:
 258              		.cfi_endproc
 259              	.LFE6:
 261              		.section	.text.Sample_RIIC_Eeprom_Read,"ax",%progbits
 262              		.align	2
 263              		.global	Sample_RIIC_Eeprom_Read
 264              		.syntax unified
 265              		.arm
 266              		.fpu neon
 268              	Sample_RIIC_Eeprom_Read:
 269              	.LFB7:
 200:D:/Work/DeviceTester/amazon-freertos/lib/third_party/mcu_vendor/renesas/rz_mcu_boards/amazon_freertos_common\r_eeprom_sample.c ****     int_t error = NO_ERROR;
 270              		.loc 1 200 0
 271              		.cfi_startproc
 272              		@ args = 0, pretend = 0, frame = 16
 273              		@ frame_needed = 0, uses_anonymous_args = 0
 274              	.LVL26:
 275 0000 1F402DE9 		push	{r0, r1, r2, r3, r4, lr}
 276              		.cfi_def_cfa_offset 24
 277              		.cfi_offset 14, -4
 208:D:/Work/DeviceTester/amazon-freertos/lib/third_party/mcu_vendor/renesas/rz_mcu_boards/amazon_freertos_common\r_eeprom_sample.c ****     i2c_read.sub_address_type = RIIC_SUB_ADDR_WIDTH_16_BITS;
 278              		.loc 1 208 0
 279 0004 A030A0E3 		mov	r3, #160
 280 0008 B030CDE1 		strh	r3, [sp]	@ movhi
 209:D:/Work/DeviceTester/amazon-freertos/lib/third_party/mcu_vendor/renesas/rz_mcu_boards/amazon_freertos_common\r_eeprom_sample.c ****     /* convert pointer to number */
 281              		.loc 1 209 0
 282 000c 0230A0E3 		mov	r3, #2
 283 0010 0230CDE5 		strb	r3, [sp, #2]
 216:D:/Work/DeviceTester/amazon-freertos/lib/third_party/mcu_vendor/renesas/rz_mcu_boards/amazon_freertos_common\r_eeprom_sample.c ****     {
 284              		.loc 1 216 0
 285 0014 20309FE5 		ldr	r3, .L27
 212:D:/Work/DeviceTester/amazon-freertos/lib/third_party/mcu_vendor/renesas/rz_mcu_boards/amazon_freertos_common\r_eeprom_sample.c ****     /* set the buffer */
 286              		.loc 1 212 0
 287 0018 05008DE9 		stmib	sp, {r0, r2}
 216:D:/Work/DeviceTester/amazon-freertos/lib/third_party/mcu_vendor/renesas/rz_mcu_boards/amazon_freertos_common\r_eeprom_sample.c ****     {
 288              		.loc 1 216 0
 289 001c 0D20A0E1 		mov	r2, sp
 290              	.LVL27:
 214:D:/Work/DeviceTester/amazon-freertos/lib/third_party/mcu_vendor/renesas/rz_mcu_boards/amazon_freertos_common\r_eeprom_sample.c **** 
 291              		.loc 1 214 0
 292 0020 0C108DE5 		str	r1, [sp, #12]
 216:D:/Work/DeviceTester/amazon-freertos/lib/third_party/mcu_vendor/renesas/rz_mcu_boards/amazon_freertos_common\r_eeprom_sample.c ****     {
 293              		.loc 1 216 0
 294 0024 0310A0E3 		mov	r1, #3
 295              	.LVL28:
 296 0028 000093E5 		ldr	r0, [r3]
 297              	.LVL29:
 298 002c FEFFFFEB 		bl	control
 299              	.LVL30:
 223:D:/Work/DeviceTester/amazon-freertos/lib/third_party/mcu_vendor/renesas/rz_mcu_boards/amazon_freertos_common\r_eeprom_sample.c **** /*****************************************************************************
 300              		.loc 1 223 0
 301 0030 C00FA0E1 		asr	r0, r0, #31
 302              	.LVL31:
 303 0034 14D08DE2 		add	sp, sp, #20
 304              		.cfi_def_cfa_offset 4
 305              		@ sp needed
 306 0038 04F09DE4 		ldr	pc, [sp], #4
 307              	.L28:
 308              		.align	2
 309              	.L27:
 310 003c 00000000 		.word	.LANCHOR0
 311              		.cfi_endproc
 312              	.LFE7:
 314              		.section	.bss.handle,"aw",%nobits
 315              		.align	2
 316              		.set	.LANCHOR0,. + 0
 319              	handle:
 320 0000 00000000 		.space	4
 321              		.section	.rodata.Sample_RIIC_Eeprom_Init.str1.1,"aMS",%progbits,1
 322              	.LC0:
 323 0000 5C5C2E5C 		.ascii	"\\\\.\\riic3\000"
 323      72696963 
 323      3300
 324              		.text
 325              	.Letext0:
 326              		.file 2 "c:\\program files (x86)\\gnu tools arm embedded\\6 2017-q2-update\\arm-none-eabi\\include
 327              		.file 3 "c:\\program files (x86)\\gnu tools arm embedded\\6 2017-q2-update\\arm-none-eabi\\include
 328              		.file 4 "c:\\program files (x86)\\gnu tools arm embedded\\6 2017-q2-update\\arm-none-eabi\\include
 329              		.file 5 "c:\\program files (x86)\\gnu tools arm embedded\\6 2017-q2-update\\arm-none-eabi\\include
 330              		.file 6 "c:\\program files (x86)\\gnu tools arm embedded\\6 2017-q2-update\\lib\\gcc\\arm-none-eab
 331              		.file 7 "c:\\program files (x86)\\gnu tools arm embedded\\6 2017-q2-update\\arm-none-eabi\\include
 332              		.file 8 "c:\\program files (x86)\\gnu tools arm embedded\\6 2017-q2-update\\arm-none-eabi\\include
 333              		.file 9 "D:\\Work\\DeviceTester\\amazon-freertos\\lib\\third_party\\mcu_vendor\\renesas\\rz_mcu_bo
 334              		.file 10 "c:\\program files (x86)\\gnu tools arm embedded\\6 2017-q2-update\\arm-none-eabi\\includ
 335              		.file 11 "c:\\program files (x86)\\gnu tools arm embedded\\6 2017-q2-update\\arm-none-eabi\\includ
 336              		.file 12 "D:\\Work\\DeviceTester\\amazon-freertos\\lib\\third_party\\mcu_vendor\\renesas\\rz_mcu_b
 337              		.file 13 "D:\\Work\\DeviceTester\\amazon-freertos\\lib\\third_party\\mcu_vendor\\renesas\\rz_mcu_b
 338              		.file 14 "D:\\Work\\DeviceTester\\amazon-freertos\\lib\\third_party\\mcu_vendor\\renesas\\rz_mcu_b
 339              		.file 15 "D:\\Work\\DeviceTester\\amazon-freertos\\lib\\third_party\\mcu_vendor\\renesas\\rz_mcu_b
 340              		.file 16 "D:\\Work\\DeviceTester\\amazon-freertos\\lib\\third_party\\mcu_vendor\\renesas\\rz_mcu_b
 341              		.file 17 "D:\\Work\\DeviceTester\\amazon-freertos\\lib\\third_party\\mcu_vendor\\renesas\\rz_mcu_b
 342              		.file 18 "D:\\Work\\DeviceTester\\amazon-freertos\\lib\\third_party\\mcu_vendor\\renesas\\rz_mcu_b
 343              		.file 19 "D:\\Work\\DeviceTester\\amazon-freertos\\lib\\third_party\\mcu_vendor\\renesas\\rz_mcu_b
 344              		.file 20 "D:\\Work\\DeviceTester\\amazon-freertos\\lib\\third_party\\mcu_vendor\\renesas\\rz_mcu_b
 345              		.file 21 "D:\\Work\\DeviceTester\\amazon-freertos\\lib\\third_party\\mcu_vendor\\renesas\\rz_mcu_b
 346              		.file 22 "c:\\program files (x86)\\gnu tools arm embedded\\6 2017-q2-update\\arm-none-eabi\\includ