   1              		.cpu cortex-a9
   2              		.eabi_attribute 28, 1
   3              		.eabi_attribute 20, 1
   4              		.eabi_attribute 21, 1
   5              		.eabi_attribute 23, 3
   6              		.eabi_attribute 24, 1
   7              		.eabi_attribute 25, 1
   8              		.eabi_attribute 26, 1
   9              		.eabi_attribute 30, 4
  10              		.eabi_attribute 34, 0
  11              		.eabi_attribute 18, 4
  12              		.file	"r_adc_drv_api.c"
  13              		.text
  14              	.Ltext0:
  15              		.cfi_sections	.debug_frame
  16              		.section	.text.adc_hld_get_version,"ax",%progbits
  17              		.align	2
  18              		.syntax unified
  19              		.arm
  20              		.fpu neon
  22              	adc_hld_get_version:
  23              	.LFB8:
  24              		.file 1 "D:/Work/DeviceTester/amazon-freertos/lib/third_party/mcu_vendor/renesas/rz_mcu_boards/cor
   1:D:/Work/DeviceTester/amazon-freertos/lib/third_party/mcu_vendor/renesas/rz_mcu_boards/core_package/generate/sc_drivers/r_adc/src/hld\r_adc_drv_api.c **** /**************************************************************************************************
   2:D:/Work/DeviceTester/amazon-freertos/lib/third_party/mcu_vendor/renesas/rz_mcu_boards/core_package/generate/sc_drivers/r_adc/src/hld\r_adc_drv_api.c ****  * DISCLAIMER
   3:D:/Work/DeviceTester/amazon-freertos/lib/third_party/mcu_vendor/renesas/rz_mcu_boards/core_package/generate/sc_drivers/r_adc/src/hld\r_adc_drv_api.c ****  * This software is supplied by Renesas Electronics Corporation and is only
   4:D:/Work/DeviceTester/amazon-freertos/lib/third_party/mcu_vendor/renesas/rz_mcu_boards/core_package/generate/sc_drivers/r_adc/src/hld\r_adc_drv_api.c ****  * intended for use with Renesas products. No other uses are authorized. This
   5:D:/Work/DeviceTester/amazon-freertos/lib/third_party/mcu_vendor/renesas/rz_mcu_boards/core_package/generate/sc_drivers/r_adc/src/hld\r_adc_drv_api.c ****  * software is owned by Renesas Electronics Corporation and is protected under
   6:D:/Work/DeviceTester/amazon-freertos/lib/third_party/mcu_vendor/renesas/rz_mcu_boards/core_package/generate/sc_drivers/r_adc/src/hld\r_adc_drv_api.c ****  * all applicable laws, including copyright laws.
   7:D:/Work/DeviceTester/amazon-freertos/lib/third_party/mcu_vendor/renesas/rz_mcu_boards/core_package/generate/sc_drivers/r_adc/src/hld\r_adc_drv_api.c ****  * THIS SOFTWARE IS PROVIDED "AS IS" AND RENESAS MAKES NO WARRANTIES REGARDING
   8:D:/Work/DeviceTester/amazon-freertos/lib/third_party/mcu_vendor/renesas/rz_mcu_boards/core_package/generate/sc_drivers/r_adc/src/hld\r_adc_drv_api.c ****  * THIS SOFTWARE, WHETHER EXPRESS, IMPLIED OR STATUTORY, INCLUDING BUT NOT
   9:D:/Work/DeviceTester/amazon-freertos/lib/third_party/mcu_vendor/renesas/rz_mcu_boards/core_package/generate/sc_drivers/r_adc/src/hld\r_adc_drv_api.c ****  * LIMITED TO WARRANTIES OF MERCHANTABILITY, FITNESS FOR A PARTICULAR PURPOSE
  10:D:/Work/DeviceTester/amazon-freertos/lib/third_party/mcu_vendor/renesas/rz_mcu_boards/core_package/generate/sc_drivers/r_adc/src/hld\r_adc_drv_api.c ****  * AND NON-INFRINGEMENT. ALL SUCH WARRANTIES ARE EXPRESSLY DISCLAIMED.
  11:D:/Work/DeviceTester/amazon-freertos/lib/third_party/mcu_vendor/renesas/rz_mcu_boards/core_package/generate/sc_drivers/r_adc/src/hld\r_adc_drv_api.c ****  * TO THE MAXIMUM EXTENT PERMITTED NOT PROHIBITED BY LAW, NEITHER RENESAS
  12:D:/Work/DeviceTester/amazon-freertos/lib/third_party/mcu_vendor/renesas/rz_mcu_boards/core_package/generate/sc_drivers/r_adc/src/hld\r_adc_drv_api.c ****  * ELECTRONICS CORPORATION NOR ANY OF ITS AFFILIATED COMPANIES SHALL BE LIABLE
  13:D:/Work/DeviceTester/amazon-freertos/lib/third_party/mcu_vendor/renesas/rz_mcu_boards/core_package/generate/sc_drivers/r_adc/src/hld\r_adc_drv_api.c ****  * FOR ANY DIRECT, INDIRECT, SPECIAL, INCIDENTAL OR CONSEQUENTIAL DAMAGES FOR
  14:D:/Work/DeviceTester/amazon-freertos/lib/third_party/mcu_vendor/renesas/rz_mcu_boards/core_package/generate/sc_drivers/r_adc/src/hld\r_adc_drv_api.c ****  * ANY REASON RELATED TO THIS SOFTWARE, EVEN IF RENESAS OR ITS AFFILIATES HAVE
  15:D:/Work/DeviceTester/amazon-freertos/lib/third_party/mcu_vendor/renesas/rz_mcu_boards/core_package/generate/sc_drivers/r_adc/src/hld\r_adc_drv_api.c ****  * BEEN ADVISED OF THE POSSIBILITY OF SUCH DAMAGES.
  16:D:/Work/DeviceTester/amazon-freertos/lib/third_party/mcu_vendor/renesas/rz_mcu_boards/core_package/generate/sc_drivers/r_adc/src/hld\r_adc_drv_api.c ****  * Renesas reserves the right, without notice, to make changes to this software
  17:D:/Work/DeviceTester/amazon-freertos/lib/third_party/mcu_vendor/renesas/rz_mcu_boards/core_package/generate/sc_drivers/r_adc/src/hld\r_adc_drv_api.c ****  * and to discontinue the availability of this software. By using this software,
  18:D:/Work/DeviceTester/amazon-freertos/lib/third_party/mcu_vendor/renesas/rz_mcu_boards/core_package/generate/sc_drivers/r_adc/src/hld\r_adc_drv_api.c ****  * you agree to the additional terms and conditions found by accessing the
  19:D:/Work/DeviceTester/amazon-freertos/lib/third_party/mcu_vendor/renesas/rz_mcu_boards/core_package/generate/sc_drivers/r_adc/src/hld\r_adc_drv_api.c ****  * following link:
  20:D:/Work/DeviceTester/amazon-freertos/lib/third_party/mcu_vendor/renesas/rz_mcu_boards/core_package/generate/sc_drivers/r_adc/src/hld\r_adc_drv_api.c ****  * http://www.renesas.com/disclaimer
  21:D:/Work/DeviceTester/amazon-freertos/lib/third_party/mcu_vendor/renesas/rz_mcu_boards/core_package/generate/sc_drivers/r_adc/src/hld\r_adc_drv_api.c ****  * Copyright (C) 2019 Renesas Electronics Corporation. All rights reserved.
  22:D:/Work/DeviceTester/amazon-freertos/lib/third_party/mcu_vendor/renesas/rz_mcu_boards/core_package/generate/sc_drivers/r_adc/src/hld\r_adc_drv_api.c ****  **************************************************************************************************
  23:D:/Work/DeviceTester/amazon-freertos/lib/third_party/mcu_vendor/renesas/rz_mcu_boards/core_package/generate/sc_drivers/r_adc/src/hld\r_adc_drv_api.c **** /**************************************************************************************************
  24:D:/Work/DeviceTester/amazon-freertos/lib/third_party/mcu_vendor/renesas/rz_mcu_boards/core_package/generate/sc_drivers/r_adc/src/hld\r_adc_drv_api.c ****  * @file         r_adc_drv_api.c
  25:D:/Work/DeviceTester/amazon-freertos/lib/third_party/mcu_vendor/renesas/rz_mcu_boards/core_package/generate/sc_drivers/r_adc/src/hld\r_adc_drv_api.c ****  * @version      1.0
  26:D:/Work/DeviceTester/amazon-freertos/lib/third_party/mcu_vendor/renesas/rz_mcu_boards/core_package/generate/sc_drivers/r_adc/src/hld\r_adc_drv_api.c ****  * @description  ADC high layer device driver
  27:D:/Work/DeviceTester/amazon-freertos/lib/third_party/mcu_vendor/renesas/rz_mcu_boards/core_package/generate/sc_drivers/r_adc/src/hld\r_adc_drv_api.c ****  **************************************************************************************************
  28:D:/Work/DeviceTester/amazon-freertos/lib/third_party/mcu_vendor/renesas/rz_mcu_boards/core_package/generate/sc_drivers/r_adc/src/hld\r_adc_drv_api.c ****  * History      : DD.MM.YYYY Version Description
  29:D:/Work/DeviceTester/amazon-freertos/lib/third_party/mcu_vendor/renesas/rz_mcu_boards/core_package/generate/sc_drivers/r_adc/src/hld\r_adc_drv_api.c ****  *              : 19.02.2019 1.00    First Release
  30:D:/Work/DeviceTester/amazon-freertos/lib/third_party/mcu_vendor/renesas/rz_mcu_boards/core_package/generate/sc_drivers/r_adc/src/hld\r_adc_drv_api.c ****  *              : 20.06.2019 1.01    Update in response to change to cbuffer interface
  31:D:/Work/DeviceTester/amazon-freertos/lib/third_party/mcu_vendor/renesas/rz_mcu_boards/core_package/generate/sc_drivers/r_adc/src/hld\r_adc_drv_api.c ****  **************************************************************************************************
  32:D:/Work/DeviceTester/amazon-freertos/lib/third_party/mcu_vendor/renesas/rz_mcu_boards/core_package/generate/sc_drivers/r_adc/src/hld\r_adc_drv_api.c **** 
  33:D:/Work/DeviceTester/amazon-freertos/lib/third_party/mcu_vendor/renesas/rz_mcu_boards/core_package/generate/sc_drivers/r_adc/src/hld\r_adc_drv_api.c **** 
  34:D:/Work/DeviceTester/amazon-freertos/lib/third_party/mcu_vendor/renesas/rz_mcu_boards/core_package/generate/sc_drivers/r_adc/src/hld\r_adc_drv_api.c **** /**************************************************************************************************
  35:D:/Work/DeviceTester/amazon-freertos/lib/third_party/mcu_vendor/renesas/rz_mcu_boards/core_package/generate/sc_drivers/r_adc/src/hld\r_adc_drv_api.c ****  Includes   <System Includes> , "Project Includes"
  36:D:/Work/DeviceTester/amazon-freertos/lib/third_party/mcu_vendor/renesas/rz_mcu_boards/core_package/generate/sc_drivers/r_adc/src/hld\r_adc_drv_api.c ****  **************************************************************************************************
  37:D:/Work/DeviceTester/amazon-freertos/lib/third_party/mcu_vendor/renesas/rz_mcu_boards/core_package/generate/sc_drivers/r_adc/src/hld\r_adc_drv_api.c **** 
  38:D:/Work/DeviceTester/amazon-freertos/lib/third_party/mcu_vendor/renesas/rz_mcu_boards/core_package/generate/sc_drivers/r_adc/src/hld\r_adc_drv_api.c **** #include "compiler_settings.h"
  39:D:/Work/DeviceTester/amazon-freertos/lib/third_party/mcu_vendor/renesas/rz_mcu_boards/core_package/generate/sc_drivers/r_adc/src/hld\r_adc_drv_api.c **** #include "driver.h"
  40:D:/Work/DeviceTester/amazon-freertos/lib/third_party/mcu_vendor/renesas/rz_mcu_boards/core_package/generate/sc_drivers/r_adc/src/hld\r_adc_drv_api.c **** #include "r_adc_drv_api.h"
  41:D:/Work/DeviceTester/amazon-freertos/lib/third_party/mcu_vendor/renesas/rz_mcu_boards/core_package/generate/sc_drivers/r_adc/src/hld\r_adc_drv_api.c **** #include "r_adc_drv_link.h"    /* Link include to Low Layer Driver */
  42:D:/Work/DeviceTester/amazon-freertos/lib/third_party/mcu_vendor/renesas/rz_mcu_boards/core_package/generate/sc_drivers/r_adc/src/hld\r_adc_drv_api.c **** 
  43:D:/Work/DeviceTester/amazon-freertos/lib/third_party/mcu_vendor/renesas/rz_mcu_boards/core_package/generate/sc_drivers/r_adc/src/hld\r_adc_drv_api.c **** #include "r_cbuffer.h"
  44:D:/Work/DeviceTester/amazon-freertos/lib/third_party/mcu_vendor/renesas/rz_mcu_boards/core_package/generate/sc_drivers/r_adc/src/hld\r_adc_drv_api.c **** 
  45:D:/Work/DeviceTester/amazon-freertos/lib/third_party/mcu_vendor/renesas/rz_mcu_boards/core_package/generate/sc_drivers/r_adc/src/hld\r_adc_drv_api.c **** /**************************************************************************************************
  46:D:/Work/DeviceTester/amazon-freertos/lib/third_party/mcu_vendor/renesas/rz_mcu_boards/core_package/generate/sc_drivers/r_adc/src/hld\r_adc_drv_api.c ****  Macro definitions
  47:D:/Work/DeviceTester/amazon-freertos/lib/third_party/mcu_vendor/renesas/rz_mcu_boards/core_package/generate/sc_drivers/r_adc/src/hld\r_adc_drv_api.c ****  **************************************************************************************************
  48:D:/Work/DeviceTester/amazon-freertos/lib/third_party/mcu_vendor/renesas/rz_mcu_boards/core_package/generate/sc_drivers/r_adc/src/hld\r_adc_drv_api.c **** 
  49:D:/Work/DeviceTester/amazon-freertos/lib/third_party/mcu_vendor/renesas/rz_mcu_boards/core_package/generate/sc_drivers/r_adc/src/hld\r_adc_drv_api.c **** #define R_ADC_PRV_BUFF_SIZE             (8192)
  50:D:/Work/DeviceTester/amazon-freertos/lib/third_party/mcu_vendor/renesas/rz_mcu_boards/core_package/generate/sc_drivers/r_adc/src/hld\r_adc_drv_api.c **** #define NOT_USED_PRV_(p)                     ((void)(p))
  51:D:/Work/DeviceTester/amazon-freertos/lib/third_party/mcu_vendor/renesas/rz_mcu_boards/core_package/generate/sc_drivers/r_adc/src/hld\r_adc_drv_api.c **** 
  52:D:/Work/DeviceTester/amazon-freertos/lib/third_party/mcu_vendor/renesas/rz_mcu_boards/core_package/generate/sc_drivers/r_adc/src/hld\r_adc_drv_api.c **** /* Comment this line out to turn ON module trace in this file */
  53:D:/Work/DeviceTester/amazon-freertos/lib/third_party/mcu_vendor/renesas/rz_mcu_boards/core_package/generate/sc_drivers/r_adc/src/hld\r_adc_drv_api.c **** #undef _TRACE_ON_
  54:D:/Work/DeviceTester/amazon-freertos/lib/third_party/mcu_vendor/renesas/rz_mcu_boards/core_package/generate/sc_drivers/r_adc/src/hld\r_adc_drv_api.c **** 
  55:D:/Work/DeviceTester/amazon-freertos/lib/third_party/mcu_vendor/renesas/rz_mcu_boards/core_package/generate/sc_drivers/r_adc/src/hld\r_adc_drv_api.c **** #ifndef _TRACE_ON_
  56:D:/Work/DeviceTester/amazon-freertos/lib/third_party/mcu_vendor/renesas/rz_mcu_boards/core_package/generate/sc_drivers/r_adc/src/hld\r_adc_drv_api.c ****     #undef TRACE
  57:D:/Work/DeviceTester/amazon-freertos/lib/third_party/mcu_vendor/renesas/rz_mcu_boards/core_package/generate/sc_drivers/r_adc/src/hld\r_adc_drv_api.c ****     #define TRACE(x)
  58:D:/Work/DeviceTester/amazon-freertos/lib/third_party/mcu_vendor/renesas/rz_mcu_boards/core_package/generate/sc_drivers/r_adc/src/hld\r_adc_drv_api.c **** #endif
  59:D:/Work/DeviceTester/amazon-freertos/lib/third_party/mcu_vendor/renesas/rz_mcu_boards/core_package/generate/sc_drivers/r_adc/src/hld\r_adc_drv_api.c **** 
  60:D:/Work/DeviceTester/amazon-freertos/lib/third_party/mcu_vendor/renesas/rz_mcu_boards/core_package/generate/sc_drivers/r_adc/src/hld\r_adc_drv_api.c **** /******************************************************************************
  61:D:/Work/DeviceTester/amazon-freertos/lib/third_party/mcu_vendor/renesas/rz_mcu_boards/core_package/generate/sc_drivers/r_adc/src/hld\r_adc_drv_api.c ****  Typedefs
  62:D:/Work/DeviceTester/amazon-freertos/lib/third_party/mcu_vendor/renesas/rz_mcu_boards/core_package/generate/sc_drivers/r_adc/src/hld\r_adc_drv_api.c ****  ******************************************************************************/
  63:D:/Work/DeviceTester/amazon-freertos/lib/third_party/mcu_vendor/renesas/rz_mcu_boards/core_package/generate/sc_drivers/r_adc/src/hld\r_adc_drv_api.c **** 
  64:D:/Work/DeviceTester/amazon-freertos/lib/third_party/mcu_vendor/renesas/rz_mcu_boards/core_package/generate/sc_drivers/r_adc/src/hld\r_adc_drv_api.c **** typedef struct
  65:D:/Work/DeviceTester/amazon-freertos/lib/third_party/mcu_vendor/renesas/rz_mcu_boards/core_package/generate/sc_drivers/r_adc/src/hld\r_adc_drv_api.c **** {
  66:D:/Work/DeviceTester/amazon-freertos/lib/third_party/mcu_vendor/renesas/rz_mcu_boards/core_package/generate/sc_drivers/r_adc/src/hld\r_adc_drv_api.c ****     bool_t driver_open;
  67:D:/Work/DeviceTester/amazon-freertos/lib/third_party/mcu_vendor/renesas/rz_mcu_boards/core_package/generate/sc_drivers/r_adc/src/hld\r_adc_drv_api.c ****     st_pcbuff_t p_conversion_cbuff;
  68:D:/Work/DeviceTester/amazon-freertos/lib/third_party/mcu_vendor/renesas/rz_mcu_boards/core_package/generate/sc_drivers/r_adc/src/hld\r_adc_drv_api.c ****     void (*p_userCallback)(e_r_drv_adc_callback_reason_t reason);
  69:D:/Work/DeviceTester/amazon-freertos/lib/third_party/mcu_vendor/renesas/rz_mcu_boards/core_package/generate/sc_drivers/r_adc/src/hld\r_adc_drv_api.c ****     uint_t conversion_data_size;
  70:D:/Work/DeviceTester/amazon-freertos/lib/third_party/mcu_vendor/renesas/rz_mcu_boards/core_package/generate/sc_drivers/r_adc/src/hld\r_adc_drv_api.c **** } st_adc_internal_configuration_t;
  71:D:/Work/DeviceTester/amazon-freertos/lib/third_party/mcu_vendor/renesas/rz_mcu_boards/core_package/generate/sc_drivers/r_adc/src/hld\r_adc_drv_api.c **** 
  72:D:/Work/DeviceTester/amazon-freertos/lib/third_party/mcu_vendor/renesas/rz_mcu_boards/core_package/generate/sc_drivers/r_adc/src/hld\r_adc_drv_api.c **** /**************************************************************************************************
  73:D:/Work/DeviceTester/amazon-freertos/lib/third_party/mcu_vendor/renesas/rz_mcu_boards/core_package/generate/sc_drivers/r_adc/src/hld\r_adc_drv_api.c ****  Function Prototypes
  74:D:/Work/DeviceTester/amazon-freertos/lib/third_party/mcu_vendor/renesas/rz_mcu_boards/core_package/generate/sc_drivers/r_adc/src/hld\r_adc_drv_api.c ****  **************************************************************************************************
  75:D:/Work/DeviceTester/amazon-freertos/lib/third_party/mcu_vendor/renesas/rz_mcu_boards/core_package/generate/sc_drivers/r_adc/src/hld\r_adc_drv_api.c **** 
  76:D:/Work/DeviceTester/amazon-freertos/lib/third_party/mcu_vendor/renesas/rz_mcu_boards/core_package/generate/sc_drivers/r_adc/src/hld\r_adc_drv_api.c **** static int_t adc_hld_open (st_stream_ptr_t pStream);
  77:D:/Work/DeviceTester/amazon-freertos/lib/third_party/mcu_vendor/renesas/rz_mcu_boards/core_package/generate/sc_drivers/r_adc/src/hld\r_adc_drv_api.c **** static void adc_hld_close (st_stream_ptr_t pStream);
  78:D:/Work/DeviceTester/amazon-freertos/lib/third_party/mcu_vendor/renesas/rz_mcu_boards/core_package/generate/sc_drivers/r_adc/src/hld\r_adc_drv_api.c **** static int_t adc_hld_read (st_stream_ptr_t p_stream, uint8_t *p_buffer, uint32_t count);
  79:D:/Work/DeviceTester/amazon-freertos/lib/third_party/mcu_vendor/renesas/rz_mcu_boards/core_package/generate/sc_drivers/r_adc/src/hld\r_adc_drv_api.c **** static int_t adc_hld_control (st_stream_ptr_t pStream, uint32_t ctlCode, void *pCtlStruct);
  80:D:/Work/DeviceTester/amazon-freertos/lib/third_party/mcu_vendor/renesas/rz_mcu_boards/core_package/generate/sc_drivers/r_adc/src/hld\r_adc_drv_api.c **** static int_t adc_hld_get_version (st_stream_ptr_t stream_ptr, st_ver_info_t *pVerInfo);
  81:D:/Work/DeviceTester/amazon-freertos/lib/third_party/mcu_vendor/renesas/rz_mcu_boards/core_package/generate/sc_drivers/r_adc/src/hld\r_adc_drv_api.c **** 
  82:D:/Work/DeviceTester/amazon-freertos/lib/third_party/mcu_vendor/renesas/rz_mcu_boards/core_package/generate/sc_drivers/r_adc/src/hld\r_adc_drv_api.c **** static void adc_hld_interrupt_handler (uint32_t sense);
  83:D:/Work/DeviceTester/amazon-freertos/lib/third_party/mcu_vendor/renesas/rz_mcu_boards/core_package/generate/sc_drivers/r_adc/src/hld\r_adc_drv_api.c **** static void set_conversion_data_size (void);
  84:D:/Work/DeviceTester/amazon-freertos/lib/third_party/mcu_vendor/renesas/rz_mcu_boards/core_package/generate/sc_drivers/r_adc/src/hld\r_adc_drv_api.c **** 
  85:D:/Work/DeviceTester/amazon-freertos/lib/third_party/mcu_vendor/renesas/rz_mcu_boards/core_package/generate/sc_drivers/r_adc/src/hld\r_adc_drv_api.c **** /**************************************************************************************************
  86:D:/Work/DeviceTester/amazon-freertos/lib/third_party/mcu_vendor/renesas/rz_mcu_boards/core_package/generate/sc_drivers/r_adc/src/hld\r_adc_drv_api.c ****  Constant Data
  87:D:/Work/DeviceTester/amazon-freertos/lib/third_party/mcu_vendor/renesas/rz_mcu_boards/core_package/generate/sc_drivers/r_adc/src/hld\r_adc_drv_api.c ****  **************************************************************************************************
  88:D:/Work/DeviceTester/amazon-freertos/lib/third_party/mcu_vendor/renesas/rz_mcu_boards/core_package/generate/sc_drivers/r_adc/src/hld\r_adc_drv_api.c **** 
  89:D:/Work/DeviceTester/amazon-freertos/lib/third_party/mcu_vendor/renesas/rz_mcu_boards/core_package/generate/sc_drivers/r_adc/src/hld\r_adc_drv_api.c **** static const st_drv_info_t s_hld_info =
  90:D:/Work/DeviceTester/amazon-freertos/lib/third_party/mcu_vendor/renesas/rz_mcu_boards/core_package/generate/sc_drivers/r_adc/src/hld\r_adc_drv_api.c **** {
  91:D:/Work/DeviceTester/amazon-freertos/lib/third_party/mcu_vendor/renesas/rz_mcu_boards/core_package/generate/sc_drivers/r_adc/src/hld\r_adc_drv_api.c ****     {
  92:D:/Work/DeviceTester/amazon-freertos/lib/third_party/mcu_vendor/renesas/rz_mcu_boards/core_package/generate/sc_drivers/r_adc/src/hld\r_adc_drv_api.c ****         ((R_DRV_ADC_HLD_VERSION_MAJOR << 16) + R_DRV_ADC_HLD_VERSION_MINOR)
  93:D:/Work/DeviceTester/amazon-freertos/lib/third_party/mcu_vendor/renesas/rz_mcu_boards/core_package/generate/sc_drivers/r_adc/src/hld\r_adc_drv_api.c ****     },
  94:D:/Work/DeviceTester/amazon-freertos/lib/third_party/mcu_vendor/renesas/rz_mcu_boards/core_package/generate/sc_drivers/r_adc/src/hld\r_adc_drv_api.c ****     R_DRV_ADC_HLD_BUILD_NUM,
  95:D:/Work/DeviceTester/amazon-freertos/lib/third_party/mcu_vendor/renesas/rz_mcu_boards/core_package/generate/sc_drivers/r_adc/src/hld\r_adc_drv_api.c ****     R_DRV_ADC_HLD_DRV_NAME
  96:D:/Work/DeviceTester/amazon-freertos/lib/third_party/mcu_vendor/renesas/rz_mcu_boards/core_package/generate/sc_drivers/r_adc/src/hld\r_adc_drv_api.c **** };
  97:D:/Work/DeviceTester/amazon-freertos/lib/third_party/mcu_vendor/renesas/rz_mcu_boards/core_package/generate/sc_drivers/r_adc/src/hld\r_adc_drv_api.c **** 
  98:D:/Work/DeviceTester/amazon-freertos/lib/third_party/mcu_vendor/renesas/rz_mcu_boards/core_package/generate/sc_drivers/r_adc/src/hld\r_adc_drv_api.c **** /**************************************************************************************************
  99:D:/Work/DeviceTester/amazon-freertos/lib/third_party/mcu_vendor/renesas/rz_mcu_boards/core_package/generate/sc_drivers/r_adc/src/hld\r_adc_drv_api.c ****  Private variables
 100:D:/Work/DeviceTester/amazon-freertos/lib/third_party/mcu_vendor/renesas/rz_mcu_boards/core_package/generate/sc_drivers/r_adc/src/hld\r_adc_drv_api.c ****  **************************************************************************************************
 101:D:/Work/DeviceTester/amazon-freertos/lib/third_party/mcu_vendor/renesas/rz_mcu_boards/core_package/generate/sc_drivers/r_adc/src/hld\r_adc_drv_api.c **** 
 102:D:/Work/DeviceTester/amazon-freertos/lib/third_party/mcu_vendor/renesas/rz_mcu_boards/core_package/generate/sc_drivers/r_adc/src/hld\r_adc_drv_api.c **** static st_adc_internal_configuration_t s_adc_drv_config =
 103:D:/Work/DeviceTester/amazon-freertos/lib/third_party/mcu_vendor/renesas/rz_mcu_boards/core_package/generate/sc_drivers/r_adc/src/hld\r_adc_drv_api.c **** {
 104:D:/Work/DeviceTester/amazon-freertos/lib/third_party/mcu_vendor/renesas/rz_mcu_boards/core_package/generate/sc_drivers/r_adc/src/hld\r_adc_drv_api.c ****     false,          // driver not open
 105:D:/Work/DeviceTester/amazon-freertos/lib/third_party/mcu_vendor/renesas/rz_mcu_boards/core_package/generate/sc_drivers/r_adc/src/hld\r_adc_drv_api.c ****     NULL,           // circular buffer
 106:D:/Work/DeviceTester/amazon-freertos/lib/third_party/mcu_vendor/renesas/rz_mcu_boards/core_package/generate/sc_drivers/r_adc/src/hld\r_adc_drv_api.c ****     NULL,           // user callback
 107:D:/Work/DeviceTester/amazon-freertos/lib/third_party/mcu_vendor/renesas/rz_mcu_boards/core_package/generate/sc_drivers/r_adc/src/hld\r_adc_drv_api.c ****     0u              // conversion data size
 108:D:/Work/DeviceTester/amazon-freertos/lib/third_party/mcu_vendor/renesas/rz_mcu_boards/core_package/generate/sc_drivers/r_adc/src/hld\r_adc_drv_api.c **** };
 109:D:/Work/DeviceTester/amazon-freertos/lib/third_party/mcu_vendor/renesas/rz_mcu_boards/core_package/generate/sc_drivers/r_adc/src/hld\r_adc_drv_api.c **** 
 110:D:/Work/DeviceTester/amazon-freertos/lib/third_party/mcu_vendor/renesas/rz_mcu_boards/core_package/generate/sc_drivers/r_adc/src/hld\r_adc_drv_api.c **** /**************************************************************************************************
 111:D:/Work/DeviceTester/amazon-freertos/lib/third_party/mcu_vendor/renesas/rz_mcu_boards/core_package/generate/sc_drivers/r_adc/src/hld\r_adc_drv_api.c ****  Global variables
 112:D:/Work/DeviceTester/amazon-freertos/lib/third_party/mcu_vendor/renesas/rz_mcu_boards/core_package/generate/sc_drivers/r_adc/src/hld\r_adc_drv_api.c ****  **************************************************************************************************
 113:D:/Work/DeviceTester/amazon-freertos/lib/third_party/mcu_vendor/renesas/rz_mcu_boards/core_package/generate/sc_drivers/r_adc/src/hld\r_adc_drv_api.c **** 
 114:D:/Work/DeviceTester/amazon-freertos/lib/third_party/mcu_vendor/renesas/rz_mcu_boards/core_package/generate/sc_drivers/r_adc/src/hld\r_adc_drv_api.c **** /* Define the driver function table for this implementation */
 115:D:/Work/DeviceTester/amazon-freertos/lib/third_party/mcu_vendor/renesas/rz_mcu_boards/core_package/generate/sc_drivers/r_adc/src/hld\r_adc_drv_api.c **** const st_r_driver_t g_adc_driver =
 116:D:/Work/DeviceTester/amazon-freertos/lib/third_party/mcu_vendor/renesas/rz_mcu_boards/core_package/generate/sc_drivers/r_adc/src/hld\r_adc_drv_api.c **** {
 117:D:/Work/DeviceTester/amazon-freertos/lib/third_party/mcu_vendor/renesas/rz_mcu_boards/core_package/generate/sc_drivers/r_adc/src/hld\r_adc_drv_api.c ****     "ADC Device Driver",
 118:D:/Work/DeviceTester/amazon-freertos/lib/third_party/mcu_vendor/renesas/rz_mcu_boards/core_package/generate/sc_drivers/r_adc/src/hld\r_adc_drv_api.c ****     adc_hld_open,
 119:D:/Work/DeviceTester/amazon-freertos/lib/third_party/mcu_vendor/renesas/rz_mcu_boards/core_package/generate/sc_drivers/r_adc/src/hld\r_adc_drv_api.c ****     adc_hld_close,
 120:D:/Work/DeviceTester/amazon-freertos/lib/third_party/mcu_vendor/renesas/rz_mcu_boards/core_package/generate/sc_drivers/r_adc/src/hld\r_adc_drv_api.c ****     adc_hld_read,
 121:D:/Work/DeviceTester/amazon-freertos/lib/third_party/mcu_vendor/renesas/rz_mcu_boards/core_package/generate/sc_drivers/r_adc/src/hld\r_adc_drv_api.c ****     no_dev_write,
 122:D:/Work/DeviceTester/amazon-freertos/lib/third_party/mcu_vendor/renesas/rz_mcu_boards/core_package/generate/sc_drivers/r_adc/src/hld\r_adc_drv_api.c ****     adc_hld_control,
 123:D:/Work/DeviceTester/amazon-freertos/lib/third_party/mcu_vendor/renesas/rz_mcu_boards/core_package/generate/sc_drivers/r_adc/src/hld\r_adc_drv_api.c ****     adc_hld_get_version
 124:D:/Work/DeviceTester/amazon-freertos/lib/third_party/mcu_vendor/renesas/rz_mcu_boards/core_package/generate/sc_drivers/r_adc/src/hld\r_adc_drv_api.c **** };
 125:D:/Work/DeviceTester/amazon-freertos/lib/third_party/mcu_vendor/renesas/rz_mcu_boards/core_package/generate/sc_drivers/r_adc/src/hld\r_adc_drv_api.c **** 
 126:D:/Work/DeviceTester/amazon-freertos/lib/third_party/mcu_vendor/renesas/rz_mcu_boards/core_package/generate/sc_drivers/r_adc/src/hld\r_adc_drv_api.c **** /**************************************************************************************************
 127:D:/Work/DeviceTester/amazon-freertos/lib/third_party/mcu_vendor/renesas/rz_mcu_boards/core_package/generate/sc_drivers/r_adc/src/hld\r_adc_drv_api.c ****  External global variables
 128:D:/Work/DeviceTester/amazon-freertos/lib/third_party/mcu_vendor/renesas/rz_mcu_boards/core_package/generate/sc_drivers/r_adc/src/hld\r_adc_drv_api.c ****  **************************************************************************************************
 129:D:/Work/DeviceTester/amazon-freertos/lib/third_party/mcu_vendor/renesas/rz_mcu_boards/core_package/generate/sc_drivers/r_adc/src/hld\r_adc_drv_api.c **** 
 130:D:/Work/DeviceTester/amazon-freertos/lib/third_party/mcu_vendor/renesas/rz_mcu_boards/core_package/generate/sc_drivers/r_adc/src/hld\r_adc_drv_api.c **** /**************************************************************************************************
 131:D:/Work/DeviceTester/amazon-freertos/lib/third_party/mcu_vendor/renesas/rz_mcu_boards/core_package/generate/sc_drivers/r_adc/src/hld\r_adc_drv_api.c ****  Private Functions
 132:D:/Work/DeviceTester/amazon-freertos/lib/third_party/mcu_vendor/renesas/rz_mcu_boards/core_package/generate/sc_drivers/r_adc/src/hld\r_adc_drv_api.c ****  **************************************************************************************************
 133:D:/Work/DeviceTester/amazon-freertos/lib/third_party/mcu_vendor/renesas/rz_mcu_boards/core_package/generate/sc_drivers/r_adc/src/hld\r_adc_drv_api.c **** 
 134:D:/Work/DeviceTester/amazon-freertos/lib/third_party/mcu_vendor/renesas/rz_mcu_boards/core_package/generate/sc_drivers/r_adc/src/hld\r_adc_drv_api.c **** /**************************************************************************************************
 135:D:/Work/DeviceTester/amazon-freertos/lib/third_party/mcu_vendor/renesas/rz_mcu_boards/core_package/generate/sc_drivers/r_adc/src/hld\r_adc_drv_api.c ****  * Function Name: adc_hld_open
 136:D:/Work/DeviceTester/amazon-freertos/lib/third_party/mcu_vendor/renesas/rz_mcu_boards/core_package/generate/sc_drivers/r_adc/src/hld\r_adc_drv_api.c ****  * Description  : Open the ADC device driver
 137:D:/Work/DeviceTester/amazon-freertos/lib/third_party/mcu_vendor/renesas/rz_mcu_boards/core_package/generate/sc_drivers/r_adc/src/hld\r_adc_drv_api.c ****  * Arguments    : p_stream[in] - pointer to the file stream
 138:D:/Work/DeviceTester/amazon-freertos/lib/third_party/mcu_vendor/renesas/rz_mcu_boards/core_package/generate/sc_drivers/r_adc/src/hld\r_adc_drv_api.c ****  * Return Value : DRV_SUCCESS or DRV_ERROR
 139:D:/Work/DeviceTester/amazon-freertos/lib/third_party/mcu_vendor/renesas/rz_mcu_boards/core_package/generate/sc_drivers/r_adc/src/hld\r_adc_drv_api.c ****  **************************************************************************************************
 140:D:/Work/DeviceTester/amazon-freertos/lib/third_party/mcu_vendor/renesas/rz_mcu_boards/core_package/generate/sc_drivers/r_adc/src/hld\r_adc_drv_api.c **** static int_t adc_hld_open(st_stream_ptr_t p_stream)
 141:D:/Work/DeviceTester/amazon-freertos/lib/third_party/mcu_vendor/renesas/rz_mcu_boards/core_package/generate/sc_drivers/r_adc/src/hld\r_adc_drv_api.c **** {
 142:D:/Work/DeviceTester/amazon-freertos/lib/third_party/mcu_vendor/renesas/rz_mcu_boards/core_package/generate/sc_drivers/r_adc/src/hld\r_adc_drv_api.c ****     /* Stream not used */
 143:D:/Work/DeviceTester/amazon-freertos/lib/third_party/mcu_vendor/renesas/rz_mcu_boards/core_package/generate/sc_drivers/r_adc/src/hld\r_adc_drv_api.c ****     NOT_USED_PRV_(p_stream);
 144:D:/Work/DeviceTester/amazon-freertos/lib/third_party/mcu_vendor/renesas/rz_mcu_boards/core_package/generate/sc_drivers/r_adc/src/hld\r_adc_drv_api.c **** 
 145:D:/Work/DeviceTester/amazon-freertos/lib/third_party/mcu_vendor/renesas/rz_mcu_boards/core_package/generate/sc_drivers/r_adc/src/hld\r_adc_drv_api.c ****     /* can only have one instance of this driver open */
 146:D:/Work/DeviceTester/amazon-freertos/lib/third_party/mcu_vendor/renesas/rz_mcu_boards/core_package/generate/sc_drivers/r_adc/src/hld\r_adc_drv_api.c ****     if (s_adc_drv_config.driver_open)
 147:D:/Work/DeviceTester/amazon-freertos/lib/third_party/mcu_vendor/renesas/rz_mcu_boards/core_package/generate/sc_drivers/r_adc/src/hld\r_adc_drv_api.c ****     {
 148:D:/Work/DeviceTester/amazon-freertos/lib/third_party/mcu_vendor/renesas/rz_mcu_boards/core_package/generate/sc_drivers/r_adc/src/hld\r_adc_drv_api.c ****         return DRV_ERROR;
 149:D:/Work/DeviceTester/amazon-freertos/lib/third_party/mcu_vendor/renesas/rz_mcu_boards/core_package/generate/sc_drivers/r_adc/src/hld\r_adc_drv_api.c ****     }
 150:D:/Work/DeviceTester/amazon-freertos/lib/third_party/mcu_vendor/renesas/rz_mcu_boards/core_package/generate/sc_drivers/r_adc/src/hld\r_adc_drv_api.c **** 
 151:D:/Work/DeviceTester/amazon-freertos/lib/third_party/mcu_vendor/renesas/rz_mcu_boards/core_package/generate/sc_drivers/r_adc/src/hld\r_adc_drv_api.c ****     /* initialise the ADC peripheral */
 152:D:/Work/DeviceTester/amazon-freertos/lib/third_party/mcu_vendor/renesas/rz_mcu_boards/core_package/generate/sc_drivers/r_adc/src/hld\r_adc_drv_api.c ****     if (R_ADC_HWInitialise() != ADC_SUCCESS)
 153:D:/Work/DeviceTester/amazon-freertos/lib/third_party/mcu_vendor/renesas/rz_mcu_boards/core_package/generate/sc_drivers/r_adc/src/hld\r_adc_drv_api.c ****     {
 154:D:/Work/DeviceTester/amazon-freertos/lib/third_party/mcu_vendor/renesas/rz_mcu_boards/core_package/generate/sc_drivers/r_adc/src/hld\r_adc_drv_api.c ****         return DRV_ERROR;
 155:D:/Work/DeviceTester/amazon-freertos/lib/third_party/mcu_vendor/renesas/rz_mcu_boards/core_package/generate/sc_drivers/r_adc/src/hld\r_adc_drv_api.c ****     }
 156:D:/Work/DeviceTester/amazon-freertos/lib/third_party/mcu_vendor/renesas/rz_mcu_boards/core_package/generate/sc_drivers/r_adc/src/hld\r_adc_drv_api.c **** 
 157:D:/Work/DeviceTester/amazon-freertos/lib/third_party/mcu_vendor/renesas/rz_mcu_boards/core_package/generate/sc_drivers/r_adc/src/hld\r_adc_drv_api.c ****     /* load the initial ADC configuration and get the configured user callback function */
 158:D:/Work/DeviceTester/amazon-freertos/lib/third_party/mcu_vendor/renesas/rz_mcu_boards/core_package/generate/sc_drivers/r_adc/src/hld\r_adc_drv_api.c ****     if (R_ADC_LoadInitialConfiguration(&s_adc_drv_config.p_userCallback) != ADC_SUCCESS)
 159:D:/Work/DeviceTester/amazon-freertos/lib/third_party/mcu_vendor/renesas/rz_mcu_boards/core_package/generate/sc_drivers/r_adc/src/hld\r_adc_drv_api.c ****     {
 160:D:/Work/DeviceTester/amazon-freertos/lib/third_party/mcu_vendor/renesas/rz_mcu_boards/core_package/generate/sc_drivers/r_adc/src/hld\r_adc_drv_api.c ****         /* set the size of the conversion data packet */
 161:D:/Work/DeviceTester/amazon-freertos/lib/third_party/mcu_vendor/renesas/rz_mcu_boards/core_package/generate/sc_drivers/r_adc/src/hld\r_adc_drv_api.c ****         set_conversion_data_size();
 162:D:/Work/DeviceTester/amazon-freertos/lib/third_party/mcu_vendor/renesas/rz_mcu_boards/core_package/generate/sc_drivers/r_adc/src/hld\r_adc_drv_api.c ****         return DRV_ERROR;
 163:D:/Work/DeviceTester/amazon-freertos/lib/third_party/mcu_vendor/renesas/rz_mcu_boards/core_package/generate/sc_drivers/r_adc/src/hld\r_adc_drv_api.c ****     }
 164:D:/Work/DeviceTester/amazon-freertos/lib/third_party/mcu_vendor/renesas/rz_mcu_boards/core_package/generate/sc_drivers/r_adc/src/hld\r_adc_drv_api.c **** 
 165:D:/Work/DeviceTester/amazon-freertos/lib/third_party/mcu_vendor/renesas/rz_mcu_boards/core_package/generate/sc_drivers/r_adc/src/hld\r_adc_drv_api.c ****     /* set up interrupts and the conversion complete interrupt handler */
 166:D:/Work/DeviceTester/amazon-freertos/lib/third_party/mcu_vendor/renesas/rz_mcu_boards/core_package/generate/sc_drivers/r_adc/src/hld\r_adc_drv_api.c ****     if (R_ADC_ConfigureInterrupts(adc_hld_interrupt_handler) != ADC_SUCCESS)
 167:D:/Work/DeviceTester/amazon-freertos/lib/third_party/mcu_vendor/renesas/rz_mcu_boards/core_package/generate/sc_drivers/r_adc/src/hld\r_adc_drv_api.c ****     {
 168:D:/Work/DeviceTester/amazon-freertos/lib/third_party/mcu_vendor/renesas/rz_mcu_boards/core_package/generate/sc_drivers/r_adc/src/hld\r_adc_drv_api.c ****         return DRV_ERROR;
 169:D:/Work/DeviceTester/amazon-freertos/lib/third_party/mcu_vendor/renesas/rz_mcu_boards/core_package/generate/sc_drivers/r_adc/src/hld\r_adc_drv_api.c ****     }
 170:D:/Work/DeviceTester/amazon-freertos/lib/third_party/mcu_vendor/renesas/rz_mcu_boards/core_package/generate/sc_drivers/r_adc/src/hld\r_adc_drv_api.c **** 
 171:D:/Work/DeviceTester/amazon-freertos/lib/third_party/mcu_vendor/renesas/rz_mcu_boards/core_package/generate/sc_drivers/r_adc/src/hld\r_adc_drv_api.c ****     /* allocate circular buffer for conversion data */
 172:D:/Work/DeviceTester/amazon-freertos/lib/third_party/mcu_vendor/renesas/rz_mcu_boards/core_package/generate/sc_drivers/r_adc/src/hld\r_adc_drv_api.c ****     s_adc_drv_config.p_conversion_cbuff = cbCreate(R_ADC_PRV_BUFF_SIZE);
 173:D:/Work/DeviceTester/amazon-freertos/lib/third_party/mcu_vendor/renesas/rz_mcu_boards/core_package/generate/sc_drivers/r_adc/src/hld\r_adc_drv_api.c **** 
 174:D:/Work/DeviceTester/amazon-freertos/lib/third_party/mcu_vendor/renesas/rz_mcu_boards/core_package/generate/sc_drivers/r_adc/src/hld\r_adc_drv_api.c ****     if (NULL == s_adc_drv_config.p_conversion_cbuff)
 175:D:/Work/DeviceTester/amazon-freertos/lib/third_party/mcu_vendor/renesas/rz_mcu_boards/core_package/generate/sc_drivers/r_adc/src/hld\r_adc_drv_api.c ****     {
 176:D:/Work/DeviceTester/amazon-freertos/lib/third_party/mcu_vendor/renesas/rz_mcu_boards/core_package/generate/sc_drivers/r_adc/src/hld\r_adc_drv_api.c ****         return DRV_ERROR;
 177:D:/Work/DeviceTester/amazon-freertos/lib/third_party/mcu_vendor/renesas/rz_mcu_boards/core_package/generate/sc_drivers/r_adc/src/hld\r_adc_drv_api.c ****     }
 178:D:/Work/DeviceTester/amazon-freertos/lib/third_party/mcu_vendor/renesas/rz_mcu_boards/core_package/generate/sc_drivers/r_adc/src/hld\r_adc_drv_api.c **** 
 179:D:/Work/DeviceTester/amazon-freertos/lib/third_party/mcu_vendor/renesas/rz_mcu_boards/core_package/generate/sc_drivers/r_adc/src/hld\r_adc_drv_api.c ****     /* driver successfully opened */
 180:D:/Work/DeviceTester/amazon-freertos/lib/third_party/mcu_vendor/renesas/rz_mcu_boards/core_package/generate/sc_drivers/r_adc/src/hld\r_adc_drv_api.c ****     s_adc_drv_config.driver_open = true;
 181:D:/Work/DeviceTester/amazon-freertos/lib/third_party/mcu_vendor/renesas/rz_mcu_boards/core_package/generate/sc_drivers/r_adc/src/hld\r_adc_drv_api.c **** 
 182:D:/Work/DeviceTester/amazon-freertos/lib/third_party/mcu_vendor/renesas/rz_mcu_boards/core_package/generate/sc_drivers/r_adc/src/hld\r_adc_drv_api.c ****     /* return status */
 183:D:/Work/DeviceTester/amazon-freertos/lib/third_party/mcu_vendor/renesas/rz_mcu_boards/core_package/generate/sc_drivers/r_adc/src/hld\r_adc_drv_api.c ****     return DRV_SUCCESS;
 184:D:/Work/DeviceTester/amazon-freertos/lib/third_party/mcu_vendor/renesas/rz_mcu_boards/core_package/generate/sc_drivers/r_adc/src/hld\r_adc_drv_api.c **** }
 185:D:/Work/DeviceTester/amazon-freertos/lib/third_party/mcu_vendor/renesas/rz_mcu_boards/core_package/generate/sc_drivers/r_adc/src/hld\r_adc_drv_api.c **** /**************************************************************************************************
 186:D:/Work/DeviceTester/amazon-freertos/lib/third_party/mcu_vendor/renesas/rz_mcu_boards/core_package/generate/sc_drivers/r_adc/src/hld\r_adc_drv_api.c ****  End of function adc_hld_open
 187:D:/Work/DeviceTester/amazon-freertos/lib/third_party/mcu_vendor/renesas/rz_mcu_boards/core_package/generate/sc_drivers/r_adc/src/hld\r_adc_drv_api.c ****  **************************************************************************************************
 188:D:/Work/DeviceTester/amazon-freertos/lib/third_party/mcu_vendor/renesas/rz_mcu_boards/core_package/generate/sc_drivers/r_adc/src/hld\r_adc_drv_api.c **** 
 189:D:/Work/DeviceTester/amazon-freertos/lib/third_party/mcu_vendor/renesas/rz_mcu_boards/core_package/generate/sc_drivers/r_adc/src/hld\r_adc_drv_api.c **** /**************************************************************************************************
 190:D:/Work/DeviceTester/amazon-freertos/lib/third_party/mcu_vendor/renesas/rz_mcu_boards/core_package/generate/sc_drivers/r_adc/src/hld\r_adc_drv_api.c ****  * Function Name: adc_hld_close
 191:D:/Work/DeviceTester/amazon-freertos/lib/third_party/mcu_vendor/renesas/rz_mcu_boards/core_package/generate/sc_drivers/r_adc/src/hld\r_adc_drv_api.c ****  * Description  : close the ADC device driver
 192:D:/Work/DeviceTester/amazon-freertos/lib/third_party/mcu_vendor/renesas/rz_mcu_boards/core_package/generate/sc_drivers/r_adc/src/hld\r_adc_drv_api.c ****  * Arguments    : p_stream[in] - pointer to the file stream
 193:D:/Work/DeviceTester/amazon-freertos/lib/third_party/mcu_vendor/renesas/rz_mcu_boards/core_package/generate/sc_drivers/r_adc/src/hld\r_adc_drv_api.c ****  * Return Value : None
 194:D:/Work/DeviceTester/amazon-freertos/lib/third_party/mcu_vendor/renesas/rz_mcu_boards/core_package/generate/sc_drivers/r_adc/src/hld\r_adc_drv_api.c ****  **************************************************************************************************
 195:D:/Work/DeviceTester/amazon-freertos/lib/third_party/mcu_vendor/renesas/rz_mcu_boards/core_package/generate/sc_drivers/r_adc/src/hld\r_adc_drv_api.c **** static void adc_hld_close(st_stream_ptr_t p_stream)
 196:D:/Work/DeviceTester/amazon-freertos/lib/third_party/mcu_vendor/renesas/rz_mcu_boards/core_package/generate/sc_drivers/r_adc/src/hld\r_adc_drv_api.c **** {
 197:D:/Work/DeviceTester/amazon-freertos/lib/third_party/mcu_vendor/renesas/rz_mcu_boards/core_package/generate/sc_drivers/r_adc/src/hld\r_adc_drv_api.c ****     /* stream not used */
 198:D:/Work/DeviceTester/amazon-freertos/lib/third_party/mcu_vendor/renesas/rz_mcu_boards/core_package/generate/sc_drivers/r_adc/src/hld\r_adc_drv_api.c ****     NOT_USED_PRV_(p_stream);
 199:D:/Work/DeviceTester/amazon-freertos/lib/third_party/mcu_vendor/renesas/rz_mcu_boards/core_package/generate/sc_drivers/r_adc/src/hld\r_adc_drv_api.c **** 
 200:D:/Work/DeviceTester/amazon-freertos/lib/third_party/mcu_vendor/renesas/rz_mcu_boards/core_package/generate/sc_drivers/r_adc/src/hld\r_adc_drv_api.c ****     if (s_adc_drv_config.driver_open)
 201:D:/Work/DeviceTester/amazon-freertos/lib/third_party/mcu_vendor/renesas/rz_mcu_boards/core_package/generate/sc_drivers/r_adc/src/hld\r_adc_drv_api.c ****     {
 202:D:/Work/DeviceTester/amazon-freertos/lib/third_party/mcu_vendor/renesas/rz_mcu_boards/core_package/generate/sc_drivers/r_adc/src/hld\r_adc_drv_api.c ****         /* un-initialise the hardware */
 203:D:/Work/DeviceTester/amazon-freertos/lib/third_party/mcu_vendor/renesas/rz_mcu_boards/core_package/generate/sc_drivers/r_adc/src/hld\r_adc_drv_api.c ****         R_ADC_HWUninitialise();
 204:D:/Work/DeviceTester/amazon-freertos/lib/third_party/mcu_vendor/renesas/rz_mcu_boards/core_package/generate/sc_drivers/r_adc/src/hld\r_adc_drv_api.c **** 
 205:D:/Work/DeviceTester/amazon-freertos/lib/third_party/mcu_vendor/renesas/rz_mcu_boards/core_package/generate/sc_drivers/r_adc/src/hld\r_adc_drv_api.c ****         s_adc_drv_config.driver_open = false;
 206:D:/Work/DeviceTester/amazon-freertos/lib/third_party/mcu_vendor/renesas/rz_mcu_boards/core_package/generate/sc_drivers/r_adc/src/hld\r_adc_drv_api.c **** 
 207:D:/Work/DeviceTester/amazon-freertos/lib/third_party/mcu_vendor/renesas/rz_mcu_boards/core_package/generate/sc_drivers/r_adc/src/hld\r_adc_drv_api.c ****         /* destroy the conversion buffer */
 208:D:/Work/DeviceTester/amazon-freertos/lib/third_party/mcu_vendor/renesas/rz_mcu_boards/core_package/generate/sc_drivers/r_adc/src/hld\r_adc_drv_api.c ****         cbDestroy(s_adc_drv_config.p_conversion_cbuff);
 209:D:/Work/DeviceTester/amazon-freertos/lib/third_party/mcu_vendor/renesas/rz_mcu_boards/core_package/generate/sc_drivers/r_adc/src/hld\r_adc_drv_api.c ****         s_adc_drv_config.p_conversion_cbuff = NULL;
 210:D:/Work/DeviceTester/amazon-freertos/lib/third_party/mcu_vendor/renesas/rz_mcu_boards/core_package/generate/sc_drivers/r_adc/src/hld\r_adc_drv_api.c **** 
 211:D:/Work/DeviceTester/amazon-freertos/lib/third_party/mcu_vendor/renesas/rz_mcu_boards/core_package/generate/sc_drivers/r_adc/src/hld\r_adc_drv_api.c ****         /* unregister the interrupt handler */
 212:D:/Work/DeviceTester/amazon-freertos/lib/third_party/mcu_vendor/renesas/rz_mcu_boards/core_package/generate/sc_drivers/r_adc/src/hld\r_adc_drv_api.c ****         R_INTC_Disable(INTC_ID_ADC_S12ADI0);
 213:D:/Work/DeviceTester/amazon-freertos/lib/third_party/mcu_vendor/renesas/rz_mcu_boards/core_package/generate/sc_drivers/r_adc/src/hld\r_adc_drv_api.c ****         R_INTC_RegistIntFunc(INTC_ID_ADC_S12ADI0, NULL);
 214:D:/Work/DeviceTester/amazon-freertos/lib/third_party/mcu_vendor/renesas/rz_mcu_boards/core_package/generate/sc_drivers/r_adc/src/hld\r_adc_drv_api.c ****     }
 215:D:/Work/DeviceTester/amazon-freertos/lib/third_party/mcu_vendor/renesas/rz_mcu_boards/core_package/generate/sc_drivers/r_adc/src/hld\r_adc_drv_api.c **** }
 216:D:/Work/DeviceTester/amazon-freertos/lib/third_party/mcu_vendor/renesas/rz_mcu_boards/core_package/generate/sc_drivers/r_adc/src/hld\r_adc_drv_api.c **** /**************************************************************************************************
 217:D:/Work/DeviceTester/amazon-freertos/lib/third_party/mcu_vendor/renesas/rz_mcu_boards/core_package/generate/sc_drivers/r_adc/src/hld\r_adc_drv_api.c ****  End of function adc_hld_close
 218:D:/Work/DeviceTester/amazon-freertos/lib/third_party/mcu_vendor/renesas/rz_mcu_boards/core_package/generate/sc_drivers/r_adc/src/hld\r_adc_drv_api.c ****  **************************************************************************************************
 219:D:/Work/DeviceTester/amazon-freertos/lib/third_party/mcu_vendor/renesas/rz_mcu_boards/core_package/generate/sc_drivers/r_adc/src/hld\r_adc_drv_api.c **** 
 220:D:/Work/DeviceTester/amazon-freertos/lib/third_party/mcu_vendor/renesas/rz_mcu_boards/core_package/generate/sc_drivers/r_adc/src/hld\r_adc_drv_api.c **** /**************************************************************************************************
 221:D:/Work/DeviceTester/amazon-freertos/lib/third_party/mcu_vendor/renesas/rz_mcu_boards/core_package/generate/sc_drivers/r_adc/src/hld\r_adc_drv_api.c ****  * Function Name: adc_hld_read
 222:D:/Work/DeviceTester/amazon-freertos/lib/third_party/mcu_vendor/renesas/rz_mcu_boards/core_package/generate/sc_drivers/r_adc/src/hld\r_adc_drv_api.c ****  * Description  : Reads ADC conversion data
 223:D:/Work/DeviceTester/amazon-freertos/lib/third_party/mcu_vendor/renesas/rz_mcu_boards/core_package/generate/sc_drivers/r_adc/src/hld\r_adc_drv_api.c ****  * Arguments    : p_stream[in] - the file stream that contains the desired ADC unit
 224:D:/Work/DeviceTester/amazon-freertos/lib/third_party/mcu_vendor/renesas/rz_mcu_boards/core_package/generate/sc_drivers/r_adc/src/hld\r_adc_drv_api.c ****  *                p_buffer[out] - the buffer to be populated with the data read
 225:D:/Work/DeviceTester/amazon-freertos/lib/third_party/mcu_vendor/renesas/rz_mcu_boards/core_package/generate/sc_drivers/r_adc/src/hld\r_adc_drv_api.c ****  *                count[in] - the size of p_buffer
 226:D:/Work/DeviceTester/amazon-freertos/lib/third_party/mcu_vendor/renesas/rz_mcu_boards/core_package/generate/sc_drivers/r_adc/src/hld\r_adc_drv_api.c ****  * Return Value : >= 0 (the number of bytes read) or DRV_ERROR on failure
 227:D:/Work/DeviceTester/amazon-freertos/lib/third_party/mcu_vendor/renesas/rz_mcu_boards/core_package/generate/sc_drivers/r_adc/src/hld\r_adc_drv_api.c ****  **************************************************************************************************
 228:D:/Work/DeviceTester/amazon-freertos/lib/third_party/mcu_vendor/renesas/rz_mcu_boards/core_package/generate/sc_drivers/r_adc/src/hld\r_adc_drv_api.c **** static int_t adc_hld_read(st_stream_ptr_t p_stream, uint8_t *p_buffer, uint32_t count)
 229:D:/Work/DeviceTester/amazon-freertos/lib/third_party/mcu_vendor/renesas/rz_mcu_boards/core_package/generate/sc_drivers/r_adc/src/hld\r_adc_drv_api.c **** {
 230:D:/Work/DeviceTester/amazon-freertos/lib/third_party/mcu_vendor/renesas/rz_mcu_boards/core_package/generate/sc_drivers/r_adc/src/hld\r_adc_drv_api.c ****     /* stream not used */
 231:D:/Work/DeviceTester/amazon-freertos/lib/third_party/mcu_vendor/renesas/rz_mcu_boards/core_package/generate/sc_drivers/r_adc/src/hld\r_adc_drv_api.c ****     NOT_USED_PRV_(p_stream);
 232:D:/Work/DeviceTester/amazon-freertos/lib/third_party/mcu_vendor/renesas/rz_mcu_boards/core_package/generate/sc_drivers/r_adc/src/hld\r_adc_drv_api.c ****     uint32_t i;
 233:D:/Work/DeviceTester/amazon-freertos/lib/third_party/mcu_vendor/renesas/rz_mcu_boards/core_package/generate/sc_drivers/r_adc/src/hld\r_adc_drv_api.c ****     int_t bytes_read = 0;
 234:D:/Work/DeviceTester/amazon-freertos/lib/third_party/mcu_vendor/renesas/rz_mcu_boards/core_package/generate/sc_drivers/r_adc/src/hld\r_adc_drv_api.c **** 
 235:D:/Work/DeviceTester/amazon-freertos/lib/third_party/mcu_vendor/renesas/rz_mcu_boards/core_package/generate/sc_drivers/r_adc/src/hld\r_adc_drv_api.c ****     /* ensure that count is a multiple of the packet size in order to prevent */
 236:D:/Work/DeviceTester/amazon-freertos/lib/third_party/mcu_vendor/renesas/rz_mcu_boards/core_package/generate/sc_drivers/r_adc/src/hld\r_adc_drv_api.c ****     /* misalignment issues with the conversion data packets */
 237:D:/Work/DeviceTester/amazon-freertos/lib/third_party/mcu_vendor/renesas/rz_mcu_boards/core_package/generate/sc_drivers/r_adc/src/hld\r_adc_drv_api.c ****     if ((count % (uint32_t) s_adc_drv_config.conversion_data_size) != 0)
 238:D:/Work/DeviceTester/amazon-freertos/lib/third_party/mcu_vendor/renesas/rz_mcu_boards/core_package/generate/sc_drivers/r_adc/src/hld\r_adc_drv_api.c ****     {
 239:D:/Work/DeviceTester/amazon-freertos/lib/third_party/mcu_vendor/renesas/rz_mcu_boards/core_package/generate/sc_drivers/r_adc/src/hld\r_adc_drv_api.c ****         return DRV_ERROR;
 240:D:/Work/DeviceTester/amazon-freertos/lib/third_party/mcu_vendor/renesas/rz_mcu_boards/core_package/generate/sc_drivers/r_adc/src/hld\r_adc_drv_api.c ****     }
 241:D:/Work/DeviceTester/amazon-freertos/lib/third_party/mcu_vendor/renesas/rz_mcu_boards/core_package/generate/sc_drivers/r_adc/src/hld\r_adc_drv_api.c **** 
 242:D:/Work/DeviceTester/amazon-freertos/lib/third_party/mcu_vendor/renesas/rz_mcu_boards/core_package/generate/sc_drivers/r_adc/src/hld\r_adc_drv_api.c ****     /* don't allow the receive interrupt routine to change the buffer while we're accessing it */
 243:D:/Work/DeviceTester/amazon-freertos/lib/third_party/mcu_vendor/renesas/rz_mcu_boards/core_package/generate/sc_drivers/r_adc/src/hld\r_adc_drv_api.c ****     R_COMPILER_DisableInterrupts();
 244:D:/Work/DeviceTester/amazon-freertos/lib/third_party/mcu_vendor/renesas/rz_mcu_boards/core_package/generate/sc_drivers/r_adc/src/hld\r_adc_drv_api.c **** 
 245:D:/Work/DeviceTester/amazon-freertos/lib/third_party/mcu_vendor/renesas/rz_mcu_boards/core_package/generate/sc_drivers/r_adc/src/hld\r_adc_drv_api.c ****     /* copy data from the circular buffer to the supplied buffer */
 246:D:/Work/DeviceTester/amazon-freertos/lib/third_party/mcu_vendor/renesas/rz_mcu_boards/core_package/generate/sc_drivers/r_adc/src/hld\r_adc_drv_api.c ****     for (i = 0; i < count; i++)
 247:D:/Work/DeviceTester/amazon-freertos/lib/third_party/mcu_vendor/renesas/rz_mcu_boards/core_package/generate/sc_drivers/r_adc/src/hld\r_adc_drv_api.c ****     {
 248:D:/Work/DeviceTester/amazon-freertos/lib/third_party/mcu_vendor/renesas/rz_mcu_boards/core_package/generate/sc_drivers/r_adc/src/hld\r_adc_drv_api.c ****         if (cbGet(s_adc_drv_config.p_conversion_cbuff, &p_buffer[bytes_read]))
 249:D:/Work/DeviceTester/amazon-freertos/lib/third_party/mcu_vendor/renesas/rz_mcu_boards/core_package/generate/sc_drivers/r_adc/src/hld\r_adc_drv_api.c ****         {
 250:D:/Work/DeviceTester/amazon-freertos/lib/third_party/mcu_vendor/renesas/rz_mcu_boards/core_package/generate/sc_drivers/r_adc/src/hld\r_adc_drv_api.c ****             bytes_read++;
 251:D:/Work/DeviceTester/amazon-freertos/lib/third_party/mcu_vendor/renesas/rz_mcu_boards/core_package/generate/sc_drivers/r_adc/src/hld\r_adc_drv_api.c ****         }
 252:D:/Work/DeviceTester/amazon-freertos/lib/third_party/mcu_vendor/renesas/rz_mcu_boards/core_package/generate/sc_drivers/r_adc/src/hld\r_adc_drv_api.c ****         else
 253:D:/Work/DeviceTester/amazon-freertos/lib/third_party/mcu_vendor/renesas/rz_mcu_boards/core_package/generate/sc_drivers/r_adc/src/hld\r_adc_drv_api.c ****         {
 254:D:/Work/DeviceTester/amazon-freertos/lib/third_party/mcu_vendor/renesas/rz_mcu_boards/core_package/generate/sc_drivers/r_adc/src/hld\r_adc_drv_api.c ****             /* break out of loop */
 255:D:/Work/DeviceTester/amazon-freertos/lib/third_party/mcu_vendor/renesas/rz_mcu_boards/core_package/generate/sc_drivers/r_adc/src/hld\r_adc_drv_api.c ****             i = count;
 256:D:/Work/DeviceTester/amazon-freertos/lib/third_party/mcu_vendor/renesas/rz_mcu_boards/core_package/generate/sc_drivers/r_adc/src/hld\r_adc_drv_api.c ****         }
 257:D:/Work/DeviceTester/amazon-freertos/lib/third_party/mcu_vendor/renesas/rz_mcu_boards/core_package/generate/sc_drivers/r_adc/src/hld\r_adc_drv_api.c ****     }
 258:D:/Work/DeviceTester/amazon-freertos/lib/third_party/mcu_vendor/renesas/rz_mcu_boards/core_package/generate/sc_drivers/r_adc/src/hld\r_adc_drv_api.c **** 
 259:D:/Work/DeviceTester/amazon-freertos/lib/third_party/mcu_vendor/renesas/rz_mcu_boards/core_package/generate/sc_drivers/r_adc/src/hld\r_adc_drv_api.c ****     /* we've finished with the buffer */
 260:D:/Work/DeviceTester/amazon-freertos/lib/third_party/mcu_vendor/renesas/rz_mcu_boards/core_package/generate/sc_drivers/r_adc/src/hld\r_adc_drv_api.c ****     R_COMPILER_EnableInterrupts();
 261:D:/Work/DeviceTester/amazon-freertos/lib/third_party/mcu_vendor/renesas/rz_mcu_boards/core_package/generate/sc_drivers/r_adc/src/hld\r_adc_drv_api.c **** 
 262:D:/Work/DeviceTester/amazon-freertos/lib/third_party/mcu_vendor/renesas/rz_mcu_boards/core_package/generate/sc_drivers/r_adc/src/hld\r_adc_drv_api.c ****     return bytes_read;
 263:D:/Work/DeviceTester/amazon-freertos/lib/third_party/mcu_vendor/renesas/rz_mcu_boards/core_package/generate/sc_drivers/r_adc/src/hld\r_adc_drv_api.c **** }
 264:D:/Work/DeviceTester/amazon-freertos/lib/third_party/mcu_vendor/renesas/rz_mcu_boards/core_package/generate/sc_drivers/r_adc/src/hld\r_adc_drv_api.c **** /**************************************************************************************************
 265:D:/Work/DeviceTester/amazon-freertos/lib/third_party/mcu_vendor/renesas/rz_mcu_boards/core_package/generate/sc_drivers/r_adc/src/hld\r_adc_drv_api.c ****  End of function adc_hld_read
 266:D:/Work/DeviceTester/amazon-freertos/lib/third_party/mcu_vendor/renesas/rz_mcu_boards/core_package/generate/sc_drivers/r_adc/src/hld\r_adc_drv_api.c ****  **************************************************************************************************
 267:D:/Work/DeviceTester/amazon-freertos/lib/third_party/mcu_vendor/renesas/rz_mcu_boards/core_package/generate/sc_drivers/r_adc/src/hld\r_adc_drv_api.c **** 
 268:D:/Work/DeviceTester/amazon-freertos/lib/third_party/mcu_vendor/renesas/rz_mcu_boards/core_package/generate/sc_drivers/r_adc/src/hld\r_adc_drv_api.c **** /**************************************************************************************************
 269:D:/Work/DeviceTester/amazon-freertos/lib/third_party/mcu_vendor/renesas/rz_mcu_boards/core_package/generate/sc_drivers/r_adc/src/hld\r_adc_drv_api.c ****  * Function Name: adc_hld_control
 270:D:/Work/DeviceTester/amazon-freertos/lib/third_party/mcu_vendor/renesas/rz_mcu_boards/core_package/generate/sc_drivers/r_adc/src/hld\r_adc_drv_api.c ****  * Description  : handles custom controls for the ADC device driver
 271:D:/Work/DeviceTester/amazon-freertos/lib/third_party/mcu_vendor/renesas/rz_mcu_boards/core_package/generate/sc_drivers/r_adc/src/hld\r_adc_drv_api.c ****  * Arguments    : p_stream[in] - pointer to the file stream
 272:D:/Work/DeviceTester/amazon-freertos/lib/third_party/mcu_vendor/renesas/rz_mcu_boards/core_package/generate/sc_drivers/r_adc/src/hld\r_adc_drv_api.c ****  *                ctl_code[in] - the custom control code
 273:D:/Work/DeviceTester/amazon-freertos/lib/third_party/mcu_vendor/renesas/rz_mcu_boards/core_package/generate/sc_drivers/r_adc/src/hld\r_adc_drv_api.c ****  * Return Value : DRV_SUCCESS or DRV_ERROR
 274:D:/Work/DeviceTester/amazon-freertos/lib/third_party/mcu_vendor/renesas/rz_mcu_boards/core_package/generate/sc_drivers/r_adc/src/hld\r_adc_drv_api.c ****  **************************************************************************************************
 275:D:/Work/DeviceTester/amazon-freertos/lib/third_party/mcu_vendor/renesas/rz_mcu_boards/core_package/generate/sc_drivers/r_adc/src/hld\r_adc_drv_api.c **** static int_t adc_hld_control(st_stream_ptr_t p_stream, uint32_t ctl_code, void *p_ctl_struct)
 276:D:/Work/DeviceTester/amazon-freertos/lib/third_party/mcu_vendor/renesas/rz_mcu_boards/core_package/generate/sc_drivers/r_adc/src/hld\r_adc_drv_api.c **** {
 277:D:/Work/DeviceTester/amazon-freertos/lib/third_party/mcu_vendor/renesas/rz_mcu_boards/core_package/generate/sc_drivers/r_adc/src/hld\r_adc_drv_api.c ****     /* Stream not used */
 278:D:/Work/DeviceTester/amazon-freertos/lib/third_party/mcu_vendor/renesas/rz_mcu_boards/core_package/generate/sc_drivers/r_adc/src/hld\r_adc_drv_api.c ****     NOT_USED_PRV_(p_stream);
 279:D:/Work/DeviceTester/amazon-freertos/lib/third_party/mcu_vendor/renesas/rz_mcu_boards/core_package/generate/sc_drivers/r_adc/src/hld\r_adc_drv_api.c ****     st_r_drv_adc_config_t *p_configuration;
 280:D:/Work/DeviceTester/amazon-freertos/lib/third_party/mcu_vendor/renesas/rz_mcu_boards/core_package/generate/sc_drivers/r_adc/src/hld\r_adc_drv_api.c ****     e_r_drv_adc_err_t adc_err;
 281:D:/Work/DeviceTester/amazon-freertos/lib/third_party/mcu_vendor/renesas/rz_mcu_boards/core_package/generate/sc_drivers/r_adc/src/hld\r_adc_drv_api.c ****     int_t ret_value = DRV_ERROR;
 282:D:/Work/DeviceTester/amazon-freertos/lib/third_party/mcu_vendor/renesas/rz_mcu_boards/core_package/generate/sc_drivers/r_adc/src/hld\r_adc_drv_api.c **** 
 283:D:/Work/DeviceTester/amazon-freertos/lib/third_party/mcu_vendor/renesas/rz_mcu_boards/core_package/generate/sc_drivers/r_adc/src/hld\r_adc_drv_api.c ****     /* cast to e_r_drv_ctrl_code_adc_t */
 284:D:/Work/DeviceTester/amazon-freertos/lib/third_party/mcu_vendor/renesas/rz_mcu_boards/core_package/generate/sc_drivers/r_adc/src/hld\r_adc_drv_api.c ****     switch ((e_r_drv_ctrl_code_adc_t) ctl_code)
 285:D:/Work/DeviceTester/amazon-freertos/lib/third_party/mcu_vendor/renesas/rz_mcu_boards/core_package/generate/sc_drivers/r_adc/src/hld\r_adc_drv_api.c ****     {
 286:D:/Work/DeviceTester/amazon-freertos/lib/third_party/mcu_vendor/renesas/rz_mcu_boards/core_package/generate/sc_drivers/r_adc/src/hld\r_adc_drv_api.c ****         /* ADC conversion software trigger */
 287:D:/Work/DeviceTester/amazon-freertos/lib/third_party/mcu_vendor/renesas/rz_mcu_boards/core_package/generate/sc_drivers/r_adc/src/hld\r_adc_drv_api.c ****         case CTL_ADC_SOFTWARE_TRIGGER:
 288:D:/Work/DeviceTester/amazon-freertos/lib/third_party/mcu_vendor/renesas/rz_mcu_boards/core_package/generate/sc_drivers/r_adc/src/hld\r_adc_drv_api.c ****         {
 289:D:/Work/DeviceTester/amazon-freertos/lib/third_party/mcu_vendor/renesas/rz_mcu_boards/core_package/generate/sc_drivers/r_adc/src/hld\r_adc_drv_api.c ****             /* trigger the conversion */
 290:D:/Work/DeviceTester/amazon-freertos/lib/third_party/mcu_vendor/renesas/rz_mcu_boards/core_package/generate/sc_drivers/r_adc/src/hld\r_adc_drv_api.c ****             R_ADC_SoftwareTrigger();
 291:D:/Work/DeviceTester/amazon-freertos/lib/third_party/mcu_vendor/renesas/rz_mcu_boards/core_package/generate/sc_drivers/r_adc/src/hld\r_adc_drv_api.c **** 
 292:D:/Work/DeviceTester/amazon-freertos/lib/third_party/mcu_vendor/renesas/rz_mcu_boards/core_package/generate/sc_drivers/r_adc/src/hld\r_adc_drv_api.c ****             /* if a callback wasn't specified, then we need to block here until the scan is complet
 293:D:/Work/DeviceTester/amazon-freertos/lib/third_party/mcu_vendor/renesas/rz_mcu_boards/core_package/generate/sc_drivers/r_adc/src/hld\r_adc_drv_api.c ****             if (NULL == s_adc_drv_config.p_userCallback)
 294:D:/Work/DeviceTester/amazon-freertos/lib/third_party/mcu_vendor/renesas/rz_mcu_boards/core_package/generate/sc_drivers/r_adc/src/hld\r_adc_drv_api.c ****             {
 295:D:/Work/DeviceTester/amazon-freertos/lib/third_party/mcu_vendor/renesas/rz_mcu_boards/core_package/generate/sc_drivers/r_adc/src/hld\r_adc_drv_api.c ****                 while (!R_ADC_IsConversionComplete())
 296:D:/Work/DeviceTester/amazon-freertos/lib/third_party/mcu_vendor/renesas/rz_mcu_boards/core_package/generate/sc_drivers/r_adc/src/hld\r_adc_drv_api.c ****                 {
 297:D:/Work/DeviceTester/amazon-freertos/lib/third_party/mcu_vendor/renesas/rz_mcu_boards/core_package/generate/sc_drivers/r_adc/src/hld\r_adc_drv_api.c ****                     R_COMPILER_Nop();
 298:D:/Work/DeviceTester/amazon-freertos/lib/third_party/mcu_vendor/renesas/rz_mcu_boards/core_package/generate/sc_drivers/r_adc/src/hld\r_adc_drv_api.c ****                 }
 299:D:/Work/DeviceTester/amazon-freertos/lib/third_party/mcu_vendor/renesas/rz_mcu_boards/core_package/generate/sc_drivers/r_adc/src/hld\r_adc_drv_api.c ****             }
 300:D:/Work/DeviceTester/amazon-freertos/lib/third_party/mcu_vendor/renesas/rz_mcu_boards/core_package/generate/sc_drivers/r_adc/src/hld\r_adc_drv_api.c **** 
 301:D:/Work/DeviceTester/amazon-freertos/lib/third_party/mcu_vendor/renesas/rz_mcu_boards/core_package/generate/sc_drivers/r_adc/src/hld\r_adc_drv_api.c ****             ret_value = DRV_SUCCESS;
 302:D:/Work/DeviceTester/amazon-freertos/lib/third_party/mcu_vendor/renesas/rz_mcu_boards/core_package/generate/sc_drivers/r_adc/src/hld\r_adc_drv_api.c ****             break;
 303:D:/Work/DeviceTester/amazon-freertos/lib/third_party/mcu_vendor/renesas/rz_mcu_boards/core_package/generate/sc_drivers/r_adc/src/hld\r_adc_drv_api.c ****         }
 304:D:/Work/DeviceTester/amazon-freertos/lib/third_party/mcu_vendor/renesas/rz_mcu_boards/core_package/generate/sc_drivers/r_adc/src/hld\r_adc_drv_api.c **** 
 305:D:/Work/DeviceTester/amazon-freertos/lib/third_party/mcu_vendor/renesas/rz_mcu_boards/core_package/generate/sc_drivers/r_adc/src/hld\r_adc_drv_api.c ****         /* Set ADC configuration */
 306:D:/Work/DeviceTester/amazon-freertos/lib/third_party/mcu_vendor/renesas/rz_mcu_boards/core_package/generate/sc_drivers/r_adc/src/hld\r_adc_drv_api.c ****         case CTL_ADC_SET_CONFIGURATION:
 307:D:/Work/DeviceTester/amazon-freertos/lib/third_party/mcu_vendor/renesas/rz_mcu_boards/core_package/generate/sc_drivers/r_adc/src/hld\r_adc_drv_api.c ****         {
 308:D:/Work/DeviceTester/amazon-freertos/lib/third_party/mcu_vendor/renesas/rz_mcu_boards/core_package/generate/sc_drivers/r_adc/src/hld\r_adc_drv_api.c ****             if (NULL != p_ctl_struct)
 309:D:/Work/DeviceTester/amazon-freertos/lib/third_party/mcu_vendor/renesas/rz_mcu_boards/core_package/generate/sc_drivers/r_adc/src/hld\r_adc_drv_api.c ****             {
 310:D:/Work/DeviceTester/amazon-freertos/lib/third_party/mcu_vendor/renesas/rz_mcu_boards/core_package/generate/sc_drivers/r_adc/src/hld\r_adc_drv_api.c ****                 /* assign new pointer for readability */
 311:D:/Work/DeviceTester/amazon-freertos/lib/third_party/mcu_vendor/renesas/rz_mcu_boards/core_package/generate/sc_drivers/r_adc/src/hld\r_adc_drv_api.c ****                 p_configuration = (st_r_drv_adc_config_t *) p_ctl_struct;
 312:D:/Work/DeviceTester/amazon-freertos/lib/third_party/mcu_vendor/renesas/rz_mcu_boards/core_package/generate/sc_drivers/r_adc/src/hld\r_adc_drv_api.c **** 
 313:D:/Work/DeviceTester/amazon-freertos/lib/third_party/mcu_vendor/renesas/rz_mcu_boards/core_package/generate/sc_drivers/r_adc/src/hld\r_adc_drv_api.c ****                 adc_err = R_ADC_SetConfiguration(&p_configuration->config);
 314:D:/Work/DeviceTester/amazon-freertos/lib/third_party/mcu_vendor/renesas/rz_mcu_boards/core_package/generate/sc_drivers/r_adc/src/hld\r_adc_drv_api.c ****                 p_configuration->err = adc_err;
 315:D:/Work/DeviceTester/amazon-freertos/lib/third_party/mcu_vendor/renesas/rz_mcu_boards/core_package/generate/sc_drivers/r_adc/src/hld\r_adc_drv_api.c **** 
 316:D:/Work/DeviceTester/amazon-freertos/lib/third_party/mcu_vendor/renesas/rz_mcu_boards/core_package/generate/sc_drivers/r_adc/src/hld\r_adc_drv_api.c ****                 /* set pins to analogue inputs */
 317:D:/Work/DeviceTester/amazon-freertos/lib/third_party/mcu_vendor/renesas/rz_mcu_boards/core_package/generate/sc_drivers/r_adc/src/hld\r_adc_drv_api.c ****                 if (ADC_SUCCESS == adc_err)
 318:D:/Work/DeviceTester/amazon-freertos/lib/third_party/mcu_vendor/renesas/rz_mcu_boards/core_package/generate/sc_drivers/r_adc/src/hld\r_adc_drv_api.c ****                 {
 319:D:/Work/DeviceTester/amazon-freertos/lib/third_party/mcu_vendor/renesas/rz_mcu_boards/core_package/generate/sc_drivers/r_adc/src/hld\r_adc_drv_api.c ****                     adc_err = R_ADC_ConfigureAnalogueInputs();
 320:D:/Work/DeviceTester/amazon-freertos/lib/third_party/mcu_vendor/renesas/rz_mcu_boards/core_package/generate/sc_drivers/r_adc/src/hld\r_adc_drv_api.c ****                 }
 321:D:/Work/DeviceTester/amazon-freertos/lib/third_party/mcu_vendor/renesas/rz_mcu_boards/core_package/generate/sc_drivers/r_adc/src/hld\r_adc_drv_api.c **** 
 322:D:/Work/DeviceTester/amazon-freertos/lib/third_party/mcu_vendor/renesas/rz_mcu_boards/core_package/generate/sc_drivers/r_adc/src/hld\r_adc_drv_api.c ****                 if (ADC_SUCCESS == adc_err)
 323:D:/Work/DeviceTester/amazon-freertos/lib/third_party/mcu_vendor/renesas/rz_mcu_boards/core_package/generate/sc_drivers/r_adc/src/hld\r_adc_drv_api.c ****                 {
 324:D:/Work/DeviceTester/amazon-freertos/lib/third_party/mcu_vendor/renesas/rz_mcu_boards/core_package/generate/sc_drivers/r_adc/src/hld\r_adc_drv_api.c ****                     s_adc_drv_config.p_userCallback = p_configuration->config.p_adcCallback;
 325:D:/Work/DeviceTester/amazon-freertos/lib/third_party/mcu_vendor/renesas/rz_mcu_boards/core_package/generate/sc_drivers/r_adc/src/hld\r_adc_drv_api.c **** 
 326:D:/Work/DeviceTester/amazon-freertos/lib/third_party/mcu_vendor/renesas/rz_mcu_boards/core_package/generate/sc_drivers/r_adc/src/hld\r_adc_drv_api.c ****                     /* clear the circular buffer */
 327:D:/Work/DeviceTester/amazon-freertos/lib/third_party/mcu_vendor/renesas/rz_mcu_boards/core_package/generate/sc_drivers/r_adc/src/hld\r_adc_drv_api.c ****                     R_COMPILER_DisableInterrupts();
 328:D:/Work/DeviceTester/amazon-freertos/lib/third_party/mcu_vendor/renesas/rz_mcu_boards/core_package/generate/sc_drivers/r_adc/src/hld\r_adc_drv_api.c ****                     cbClear(s_adc_drv_config.p_conversion_cbuff);
 329:D:/Work/DeviceTester/amazon-freertos/lib/third_party/mcu_vendor/renesas/rz_mcu_boards/core_package/generate/sc_drivers/r_adc/src/hld\r_adc_drv_api.c ****                     R_COMPILER_EnableInterrupts();
 330:D:/Work/DeviceTester/amazon-freertos/lib/third_party/mcu_vendor/renesas/rz_mcu_boards/core_package/generate/sc_drivers/r_adc/src/hld\r_adc_drv_api.c **** 
 331:D:/Work/DeviceTester/amazon-freertos/lib/third_party/mcu_vendor/renesas/rz_mcu_boards/core_package/generate/sc_drivers/r_adc/src/hld\r_adc_drv_api.c ****                     /* update the size of the conversion data packet */
 332:D:/Work/DeviceTester/amazon-freertos/lib/third_party/mcu_vendor/renesas/rz_mcu_boards/core_package/generate/sc_drivers/r_adc/src/hld\r_adc_drv_api.c ****                     set_conversion_data_size();
 333:D:/Work/DeviceTester/amazon-freertos/lib/third_party/mcu_vendor/renesas/rz_mcu_boards/core_package/generate/sc_drivers/r_adc/src/hld\r_adc_drv_api.c **** 
 334:D:/Work/DeviceTester/amazon-freertos/lib/third_party/mcu_vendor/renesas/rz_mcu_boards/core_package/generate/sc_drivers/r_adc/src/hld\r_adc_drv_api.c ****                     ret_value = DRV_SUCCESS;
 335:D:/Work/DeviceTester/amazon-freertos/lib/third_party/mcu_vendor/renesas/rz_mcu_boards/core_package/generate/sc_drivers/r_adc/src/hld\r_adc_drv_api.c ****                 }
 336:D:/Work/DeviceTester/amazon-freertos/lib/third_party/mcu_vendor/renesas/rz_mcu_boards/core_package/generate/sc_drivers/r_adc/src/hld\r_adc_drv_api.c ****                 else
 337:D:/Work/DeviceTester/amazon-freertos/lib/third_party/mcu_vendor/renesas/rz_mcu_boards/core_package/generate/sc_drivers/r_adc/src/hld\r_adc_drv_api.c ****                 {
 338:D:/Work/DeviceTester/amazon-freertos/lib/third_party/mcu_vendor/renesas/rz_mcu_boards/core_package/generate/sc_drivers/r_adc/src/hld\r_adc_drv_api.c ****                     ret_value = DRV_ERROR;
 339:D:/Work/DeviceTester/amazon-freertos/lib/third_party/mcu_vendor/renesas/rz_mcu_boards/core_package/generate/sc_drivers/r_adc/src/hld\r_adc_drv_api.c ****                 }
 340:D:/Work/DeviceTester/amazon-freertos/lib/third_party/mcu_vendor/renesas/rz_mcu_boards/core_package/generate/sc_drivers/r_adc/src/hld\r_adc_drv_api.c ****             }
 341:D:/Work/DeviceTester/amazon-freertos/lib/third_party/mcu_vendor/renesas/rz_mcu_boards/core_package/generate/sc_drivers/r_adc/src/hld\r_adc_drv_api.c ****             break;
 342:D:/Work/DeviceTester/amazon-freertos/lib/third_party/mcu_vendor/renesas/rz_mcu_boards/core_package/generate/sc_drivers/r_adc/src/hld\r_adc_drv_api.c ****         }
 343:D:/Work/DeviceTester/amazon-freertos/lib/third_party/mcu_vendor/renesas/rz_mcu_boards/core_package/generate/sc_drivers/r_adc/src/hld\r_adc_drv_api.c **** 
 344:D:/Work/DeviceTester/amazon-freertos/lib/third_party/mcu_vendor/renesas/rz_mcu_boards/core_package/generate/sc_drivers/r_adc/src/hld\r_adc_drv_api.c ****         /* Get ADC configuration */
 345:D:/Work/DeviceTester/amazon-freertos/lib/third_party/mcu_vendor/renesas/rz_mcu_boards/core_package/generate/sc_drivers/r_adc/src/hld\r_adc_drv_api.c ****         case CTL_ADC_GET_CONFIGURATION:
 346:D:/Work/DeviceTester/amazon-freertos/lib/third_party/mcu_vendor/renesas/rz_mcu_boards/core_package/generate/sc_drivers/r_adc/src/hld\r_adc_drv_api.c ****         {
 347:D:/Work/DeviceTester/amazon-freertos/lib/third_party/mcu_vendor/renesas/rz_mcu_boards/core_package/generate/sc_drivers/r_adc/src/hld\r_adc_drv_api.c ****             if (NULL != p_ctl_struct)
 348:D:/Work/DeviceTester/amazon-freertos/lib/third_party/mcu_vendor/renesas/rz_mcu_boards/core_package/generate/sc_drivers/r_adc/src/hld\r_adc_drv_api.c ****             {
 349:D:/Work/DeviceTester/amazon-freertos/lib/third_party/mcu_vendor/renesas/rz_mcu_boards/core_package/generate/sc_drivers/r_adc/src/hld\r_adc_drv_api.c ****                 /* assign new pointer for readability */
 350:D:/Work/DeviceTester/amazon-freertos/lib/third_party/mcu_vendor/renesas/rz_mcu_boards/core_package/generate/sc_drivers/r_adc/src/hld\r_adc_drv_api.c ****                 p_configuration = (st_r_drv_adc_config_t *) p_ctl_struct;
 351:D:/Work/DeviceTester/amazon-freertos/lib/third_party/mcu_vendor/renesas/rz_mcu_boards/core_package/generate/sc_drivers/r_adc/src/hld\r_adc_drv_api.c **** 
 352:D:/Work/DeviceTester/amazon-freertos/lib/third_party/mcu_vendor/renesas/rz_mcu_boards/core_package/generate/sc_drivers/r_adc/src/hld\r_adc_drv_api.c ****                 adc_err = R_ADC_GetConfiguration(&p_configuration->config);
 353:D:/Work/DeviceTester/amazon-freertos/lib/third_party/mcu_vendor/renesas/rz_mcu_boards/core_package/generate/sc_drivers/r_adc/src/hld\r_adc_drv_api.c ****                 p_configuration->config.p_adcCallback = s_adc_drv_config.p_userCallback;
 354:D:/Work/DeviceTester/amazon-freertos/lib/third_party/mcu_vendor/renesas/rz_mcu_boards/core_package/generate/sc_drivers/r_adc/src/hld\r_adc_drv_api.c ****                 p_configuration->err = adc_err;
 355:D:/Work/DeviceTester/amazon-freertos/lib/third_party/mcu_vendor/renesas/rz_mcu_boards/core_package/generate/sc_drivers/r_adc/src/hld\r_adc_drv_api.c **** 
 356:D:/Work/DeviceTester/amazon-freertos/lib/third_party/mcu_vendor/renesas/rz_mcu_boards/core_package/generate/sc_drivers/r_adc/src/hld\r_adc_drv_api.c ****                 ret_value = (ADC_SUCCESS == adc_err) ? DRV_SUCCESS : DRV_ERROR;
 357:D:/Work/DeviceTester/amazon-freertos/lib/third_party/mcu_vendor/renesas/rz_mcu_boards/core_package/generate/sc_drivers/r_adc/src/hld\r_adc_drv_api.c ****             }
 358:D:/Work/DeviceTester/amazon-freertos/lib/third_party/mcu_vendor/renesas/rz_mcu_boards/core_package/generate/sc_drivers/r_adc/src/hld\r_adc_drv_api.c ****             break;
 359:D:/Work/DeviceTester/amazon-freertos/lib/third_party/mcu_vendor/renesas/rz_mcu_boards/core_package/generate/sc_drivers/r_adc/src/hld\r_adc_drv_api.c ****         }
 360:D:/Work/DeviceTester/amazon-freertos/lib/third_party/mcu_vendor/renesas/rz_mcu_boards/core_package/generate/sc_drivers/r_adc/src/hld\r_adc_drv_api.c **** 
 361:D:/Work/DeviceTester/amazon-freertos/lib/third_party/mcu_vendor/renesas/rz_mcu_boards/core_package/generate/sc_drivers/r_adc/src/hld\r_adc_drv_api.c ****         default:
 362:D:/Work/DeviceTester/amazon-freertos/lib/third_party/mcu_vendor/renesas/rz_mcu_boards/core_package/generate/sc_drivers/r_adc/src/hld\r_adc_drv_api.c ****         {
 363:D:/Work/DeviceTester/amazon-freertos/lib/third_party/mcu_vendor/renesas/rz_mcu_boards/core_package/generate/sc_drivers/r_adc/src/hld\r_adc_drv_api.c ****             TRACE(("ADC Driver: Unknown control code\r\n"));
 364:D:/Work/DeviceTester/amazon-freertos/lib/third_party/mcu_vendor/renesas/rz_mcu_boards/core_package/generate/sc_drivers/r_adc/src/hld\r_adc_drv_api.c ****             break;
 365:D:/Work/DeviceTester/amazon-freertos/lib/third_party/mcu_vendor/renesas/rz_mcu_boards/core_package/generate/sc_drivers/r_adc/src/hld\r_adc_drv_api.c ****         }
 366:D:/Work/DeviceTester/amazon-freertos/lib/third_party/mcu_vendor/renesas/rz_mcu_boards/core_package/generate/sc_drivers/r_adc/src/hld\r_adc_drv_api.c ****     }
 367:D:/Work/DeviceTester/amazon-freertos/lib/third_party/mcu_vendor/renesas/rz_mcu_boards/core_package/generate/sc_drivers/r_adc/src/hld\r_adc_drv_api.c **** 
 368:D:/Work/DeviceTester/amazon-freertos/lib/third_party/mcu_vendor/renesas/rz_mcu_boards/core_package/generate/sc_drivers/r_adc/src/hld\r_adc_drv_api.c ****     return (ret_value);
 369:D:/Work/DeviceTester/amazon-freertos/lib/third_party/mcu_vendor/renesas/rz_mcu_boards/core_package/generate/sc_drivers/r_adc/src/hld\r_adc_drv_api.c **** }
 370:D:/Work/DeviceTester/amazon-freertos/lib/third_party/mcu_vendor/renesas/rz_mcu_boards/core_package/generate/sc_drivers/r_adc/src/hld\r_adc_drv_api.c **** /**************************************************************************************************
 371:D:/Work/DeviceTester/amazon-freertos/lib/third_party/mcu_vendor/renesas/rz_mcu_boards/core_package/generate/sc_drivers/r_adc/src/hld\r_adc_drv_api.c ****  End of function adc_hld_control
 372:D:/Work/DeviceTester/amazon-freertos/lib/third_party/mcu_vendor/renesas/rz_mcu_boards/core_package/generate/sc_drivers/r_adc/src/hld\r_adc_drv_api.c ****  **************************************************************************************************
 373:D:/Work/DeviceTester/amazon-freertos/lib/third_party/mcu_vendor/renesas/rz_mcu_boards/core_package/generate/sc_drivers/r_adc/src/hld\r_adc_drv_api.c **** 
 374:D:/Work/DeviceTester/amazon-freertos/lib/third_party/mcu_vendor/renesas/rz_mcu_boards/core_package/generate/sc_drivers/r_adc/src/hld\r_adc_drv_api.c **** /**************************************************************************************************
 375:D:/Work/DeviceTester/amazon-freertos/lib/third_party/mcu_vendor/renesas/rz_mcu_boards/core_package/generate/sc_drivers/r_adc/src/hld\r_adc_drv_api.c ****  * Function Name: adc_hld_get_version
 376:D:/Work/DeviceTester/amazon-freertos/lib/third_party/mcu_vendor/renesas/rz_mcu_boards/core_package/generate/sc_drivers/r_adc/src/hld\r_adc_drv_api.c ****  * Description  : provides build information even if driver fails to open
 377:D:/Work/DeviceTester/amazon-freertos/lib/third_party/mcu_vendor/renesas/rz_mcu_boards/core_package/generate/sc_drivers/r_adc/src/hld\r_adc_drv_api.c ****  * Arguments    : stream_ptr[in] - pointer to the file stream
 378:D:/Work/DeviceTester/amazon-freertos/lib/third_party/mcu_vendor/renesas/rz_mcu_boards/core_package/generate/sc_drivers/r_adc/src/hld\r_adc_drv_api.c ****  * Return Value : always returns DRV_SUCCESS
 379:D:/Work/DeviceTester/amazon-freertos/lib/third_party/mcu_vendor/renesas/rz_mcu_boards/core_package/generate/sc_drivers/r_adc/src/hld\r_adc_drv_api.c ****  **************************************************************************************************
 380:D:/Work/DeviceTester/amazon-freertos/lib/third_party/mcu_vendor/renesas/rz_mcu_boards/core_package/generate/sc_drivers/r_adc/src/hld\r_adc_drv_api.c **** static int_t adc_hld_get_version (st_stream_ptr_t stream_ptr, st_ver_info_t *p_ver_info)
 381:D:/Work/DeviceTester/amazon-freertos/lib/third_party/mcu_vendor/renesas/rz_mcu_boards/core_package/generate/sc_drivers/r_adc/src/hld\r_adc_drv_api.c **** {
  25              		.loc 1 381 0
  26              		.cfi_startproc
  27              		@ args = 0, pretend = 0, frame = 0
  28              		@ frame_needed = 0, uses_anonymous_args = 0
  29              	.LVL0:
 382:D:/Work/DeviceTester/amazon-freertos/lib/third_party/mcu_vendor/renesas/rz_mcu_boards/core_package/generate/sc_drivers/r_adc/src/hld\r_adc_drv_api.c ****     /* stream not used */
 383:D:/Work/DeviceTester/amazon-freertos/lib/third_party/mcu_vendor/renesas/rz_mcu_boards/core_package/generate/sc_drivers/r_adc/src/hld\r_adc_drv_api.c ****     NOT_USED_PRV_(stream_ptr);
 384:D:/Work/DeviceTester/amazon-freertos/lib/third_party/mcu_vendor/renesas/rz_mcu_boards/core_package/generate/sc_drivers/r_adc/src/hld\r_adc_drv_api.c **** 
 385:D:/Work/DeviceTester/amazon-freertos/lib/third_party/mcu_vendor/renesas/rz_mcu_boards/core_package/generate/sc_drivers/r_adc/src/hld\r_adc_drv_api.c ****     p_ver_info->hld.version.sub.major = s_hld_info.version.sub.major;
  30              		.loc 1 385 0
  31 0000 0130A0E3 		mov	r3, #1
 381:D:/Work/DeviceTester/amazon-freertos/lib/third_party/mcu_vendor/renesas/rz_mcu_boards/core_package/generate/sc_drivers/r_adc/src/hld\r_adc_drv_api.c ****     /* stream not used */
  32              		.loc 1 381 0
  33 0004 10402DE9 		push	{r4, lr}
  34              		.cfi_def_cfa_offset 8
  35              		.cfi_offset 4, -8
  36              		.cfi_offset 14, -4
  37              		.loc 1 385 0
  38 0008 B230C1E1 		strh	r3, [r1, #2]	@ movhi
 386:D:/Work/DeviceTester/amazon-freertos/lib/third_party/mcu_vendor/renesas/rz_mcu_boards/core_package/generate/sc_drivers/r_adc/src/hld\r_adc_drv_api.c ****     p_ver_info->hld.version.sub.minor = s_hld_info.version.sub.minor;
  39              		.loc 1 386 0
  40 000c 0040A0E3 		mov	r4, #0
 387:D:/Work/DeviceTester/amazon-freertos/lib/third_party/mcu_vendor/renesas/rz_mcu_boards/core_package/generate/sc_drivers/r_adc/src/hld\r_adc_drv_api.c ****     p_ver_info->hld.build = s_hld_info.build;
 388:D:/Work/DeviceTester/amazon-freertos/lib/third_party/mcu_vendor/renesas/rz_mcu_boards/core_package/generate/sc_drivers/r_adc/src/hld\r_adc_drv_api.c ****     p_ver_info->hld.p_szdriver_name = s_hld_info.p_szdriver_name;
 389:D:/Work/DeviceTester/amazon-freertos/lib/third_party/mcu_vendor/renesas/rz_mcu_boards/core_package/generate/sc_drivers/r_adc/src/hld\r_adc_drv_api.c **** 
 390:D:/Work/DeviceTester/amazon-freertos/lib/third_party/mcu_vendor/renesas/rz_mcu_boards/core_package/generate/sc_drivers/r_adc/src/hld\r_adc_drv_api.c ****     /* Obtain version information from Low Layer Driver */
 391:D:/Work/DeviceTester/amazon-freertos/lib/third_party/mcu_vendor/renesas/rz_mcu_boards/core_package/generate/sc_drivers/r_adc/src/hld\r_adc_drv_api.c ****     R_ADC_GetVersion(&p_ver_info->lld);
  41              		.loc 1 391 0
  42 0010 0C0081E2 		add	r0, r1, #12
  43              	.LVL1:
 388:D:/Work/DeviceTester/amazon-freertos/lib/third_party/mcu_vendor/renesas/rz_mcu_boards/core_package/generate/sc_drivers/r_adc/src/hld\r_adc_drv_api.c **** 
  44              		.loc 1 388 0
  45 0014 14309FE5 		ldr	r3, .L3
 386:D:/Work/DeviceTester/amazon-freertos/lib/third_party/mcu_vendor/renesas/rz_mcu_boards/core_package/generate/sc_drivers/r_adc/src/hld\r_adc_drv_api.c ****     p_ver_info->hld.version.sub.minor = s_hld_info.version.sub.minor;
  46              		.loc 1 386 0
  47 0018 B040C1E1 		strh	r4, [r1]	@ movhi
 387:D:/Work/DeviceTester/amazon-freertos/lib/third_party/mcu_vendor/renesas/rz_mcu_boards/core_package/generate/sc_drivers/r_adc/src/hld\r_adc_drv_api.c ****     p_ver_info->hld.build = s_hld_info.build;
  48              		.loc 1 387 0
  49 001c 044081E5 		str	r4, [r1, #4]
 388:D:/Work/DeviceTester/amazon-freertos/lib/third_party/mcu_vendor/renesas/rz_mcu_boards/core_package/generate/sc_drivers/r_adc/src/hld\r_adc_drv_api.c **** 
  50              		.loc 1 388 0
  51 0020 083081E5 		str	r3, [r1, #8]
  52              		.loc 1 391 0
  53 0024 FEFFFFEB 		bl	R_ADC_GetVersion
  54              	.LVL2:
 392:D:/Work/DeviceTester/amazon-freertos/lib/third_party/mcu_vendor/renesas/rz_mcu_boards/core_package/generate/sc_drivers/r_adc/src/hld\r_adc_drv_api.c **** 
 393:D:/Work/DeviceTester/amazon-freertos/lib/third_party/mcu_vendor/renesas/rz_mcu_boards/core_package/generate/sc_drivers/r_adc/src/hld\r_adc_drv_api.c ****     return (DRV_SUCCESS);
 394:D:/Work/DeviceTester/amazon-freertos/lib/third_party/mcu_vendor/renesas/rz_mcu_boards/core_package/generate/sc_drivers/r_adc/src/hld\r_adc_drv_api.c **** }
  55              		.loc 1 394 0
  56 0028 0400A0E1 		mov	r0, r4
  57 002c 1080BDE8 		pop	{r4, pc}
  58              	.L4:
  59              		.align	2
  60              	.L3:
  61 0030 00000000 		.word	.LC0
  62              		.cfi_endproc
  63              	.LFE8:
  65              		.section	.text.set_conversion_data_size,"ax",%progbits
  66              		.align	2
  67              		.syntax unified
  68              		.arm
  69              		.fpu neon
  71              	set_conversion_data_size:
  72              	.LFB9:
 395:D:/Work/DeviceTester/amazon-freertos/lib/third_party/mcu_vendor/renesas/rz_mcu_boards/core_package/generate/sc_drivers/r_adc/src/hld\r_adc_drv_api.c **** /**************************************************************************************************
 396:D:/Work/DeviceTester/amazon-freertos/lib/third_party/mcu_vendor/renesas/rz_mcu_boards/core_package/generate/sc_drivers/r_adc/src/hld\r_adc_drv_api.c ****  End of function adc_hld_get_version
 397:D:/Work/DeviceTester/amazon-freertos/lib/third_party/mcu_vendor/renesas/rz_mcu_boards/core_package/generate/sc_drivers/r_adc/src/hld\r_adc_drv_api.c ****  **************************************************************************************************
 398:D:/Work/DeviceTester/amazon-freertos/lib/third_party/mcu_vendor/renesas/rz_mcu_boards/core_package/generate/sc_drivers/r_adc/src/hld\r_adc_drv_api.c **** 
 399:D:/Work/DeviceTester/amazon-freertos/lib/third_party/mcu_vendor/renesas/rz_mcu_boards/core_package/generate/sc_drivers/r_adc/src/hld\r_adc_drv_api.c **** /**************************************************************************************************
 400:D:/Work/DeviceTester/amazon-freertos/lib/third_party/mcu_vendor/renesas/rz_mcu_boards/core_package/generate/sc_drivers/r_adc/src/hld\r_adc_drv_api.c ****  * Function Name: set_conversion_data_size
 401:D:/Work/DeviceTester/amazon-freertos/lib/third_party/mcu_vendor/renesas/rz_mcu_boards/core_package/generate/sc_drivers/r_adc/src/hld\r_adc_drv_api.c ****  * Description  : Sets the size of the conversion data packet that will be added
 402:D:/Work/DeviceTester/amazon-freertos/lib/third_party/mcu_vendor/renesas/rz_mcu_boards/core_package/generate/sc_drivers/r_adc/src/hld\r_adc_drv_api.c ****  *                to the conversions buffer following every conversion scan
 403:D:/Work/DeviceTester/amazon-freertos/lib/third_party/mcu_vendor/renesas/rz_mcu_boards/core_package/generate/sc_drivers/r_adc/src/hld\r_adc_drv_api.c ****  * Arguments    : None
 404:D:/Work/DeviceTester/amazon-freertos/lib/third_party/mcu_vendor/renesas/rz_mcu_boards/core_package/generate/sc_drivers/r_adc/src/hld\r_adc_drv_api.c ****  * Return Value : None
 405:D:/Work/DeviceTester/amazon-freertos/lib/third_party/mcu_vendor/renesas/rz_mcu_boards/core_package/generate/sc_drivers/r_adc/src/hld\r_adc_drv_api.c ****  **************************************************************************************************
 406:D:/Work/DeviceTester/amazon-freertos/lib/third_party/mcu_vendor/renesas/rz_mcu_boards/core_package/generate/sc_drivers/r_adc/src/hld\r_adc_drv_api.c **** static void set_conversion_data_size(void)
 407:D:/Work/DeviceTester/amazon-freertos/lib/third_party/mcu_vendor/renesas/rz_mcu_boards/core_package/generate/sc_drivers/r_adc/src/hld\r_adc_drv_api.c **** {
  73              		.loc 1 407 0
  74              		.cfi_startproc
  75              		@ args = 0, pretend = 0, frame = 8
  76              		@ frame_needed = 0, uses_anonymous_args = 0
  77 0000 37402DE9 		push	{r0, r1, r2, r4, r5, lr}
  78              		.cfi_def_cfa_offset 24
  79              		.cfi_offset 4, -12
  80              		.cfi_offset 5, -8
  81              		.cfi_offset 14, -4
 408:D:/Work/DeviceTester/amazon-freertos/lib/third_party/mcu_vendor/renesas/rz_mcu_boards/core_package/generate/sc_drivers/r_adc/src/hld\r_adc_drv_api.c ****     uint_t channels_enabled;
 409:D:/Work/DeviceTester/amazon-freertos/lib/third_party/mcu_vendor/renesas/rz_mcu_boards/core_package/generate/sc_drivers/r_adc/src/hld\r_adc_drv_api.c ****     e_r_drv_adc_channel_t channel;
 410:D:/Work/DeviceTester/amazon-freertos/lib/third_party/mcu_vendor/renesas/rz_mcu_boards/core_package/generate/sc_drivers/r_adc/src/hld\r_adc_drv_api.c ****     bool_t enabled;
 411:D:/Work/DeviceTester/amazon-freertos/lib/third_party/mcu_vendor/renesas/rz_mcu_boards/core_package/generate/sc_drivers/r_adc/src/hld\r_adc_drv_api.c ****     uint8_t conversion_width;
 412:D:/Work/DeviceTester/amazon-freertos/lib/third_party/mcu_vendor/renesas/rz_mcu_boards/core_package/generate/sc_drivers/r_adc/src/hld\r_adc_drv_api.c **** 
 413:D:/Work/DeviceTester/amazon-freertos/lib/third_party/mcu_vendor/renesas/rz_mcu_boards/core_package/generate/sc_drivers/r_adc/src/hld\r_adc_drv_api.c ****     /* get the conversion width from the Low Layer Driver */
 414:D:/Work/DeviceTester/amazon-freertos/lib/third_party/mcu_vendor/renesas/rz_mcu_boards/core_package/generate/sc_drivers/r_adc/src/hld\r_adc_drv_api.c ****     R_ADC_GetConversionWidth(&conversion_width);
  82              		.loc 1 414 0
  83 0004 0050A0E3 		mov	r5, #0
 415:D:/Work/DeviceTester/amazon-freertos/lib/third_party/mcu_vendor/renesas/rz_mcu_boards/core_package/generate/sc_drivers/r_adc/src/hld\r_adc_drv_api.c **** 
 416:D:/Work/DeviceTester/amazon-freertos/lib/third_party/mcu_vendor/renesas/rz_mcu_boards/core_package/generate/sc_drivers/r_adc/src/hld\r_adc_drv_api.c ****     channels_enabled = 0;
  84              		.loc 1 416 0
  85 0008 0540A0E1 		mov	r4, r5
 414:D:/Work/DeviceTester/amazon-freertos/lib/third_party/mcu_vendor/renesas/rz_mcu_boards/core_package/generate/sc_drivers/r_adc/src/hld\r_adc_drv_api.c **** 
  86              		.loc 1 414 0
  87 000c 03008DE2 		add	r0, sp, #3
  88 0010 FEFFFFEB 		bl	R_ADC_GetConversionWidth
  89              	.LVL3:
  90              	.L7:
 417:D:/Work/DeviceTester/amazon-freertos/lib/third_party/mcu_vendor/renesas/rz_mcu_boards/core_package/generate/sc_drivers/r_adc/src/hld\r_adc_drv_api.c ****     for (channel = ADC_CHANNEL_AN000; channel < ADC_CHANNELS; channel++)
 418:D:/Work/DeviceTester/amazon-freertos/lib/third_party/mcu_vendor/renesas/rz_mcu_boards/core_package/generate/sc_drivers/r_adc/src/hld\r_adc_drv_api.c ****     {
 419:D:/Work/DeviceTester/amazon-freertos/lib/third_party/mcu_vendor/renesas/rz_mcu_boards/core_package/generate/sc_drivers/r_adc/src/hld\r_adc_drv_api.c ****         R_ADC_IsChannelEnabled(channel, &enabled);
  91              		.loc 1 419 0
  92 0014 7500EFE6 		uxtb	r0, r5
  93 0018 04108DE2 		add	r1, sp, #4
  94 001c 015085E2 		add	r5, r5, #1
  95              	.LVL4:
  96 0020 FEFFFFEB 		bl	R_ADC_IsChannelEnabled
  97              	.LVL5:
 420:D:/Work/DeviceTester/amazon-freertos/lib/third_party/mcu_vendor/renesas/rz_mcu_boards/core_package/generate/sc_drivers/r_adc/src/hld\r_adc_drv_api.c **** 
 421:D:/Work/DeviceTester/amazon-freertos/lib/third_party/mcu_vendor/renesas/rz_mcu_boards/core_package/generate/sc_drivers/r_adc/src/hld\r_adc_drv_api.c ****         if (enabled)
  98              		.loc 1 421 0
  99 0024 04309DE5 		ldr	r3, [sp, #4]
 100 0028 000053E3 		cmp	r3, #0
 422:D:/Work/DeviceTester/amazon-freertos/lib/third_party/mcu_vendor/renesas/rz_mcu_boards/core_package/generate/sc_drivers/r_adc/src/hld\r_adc_drv_api.c ****         {
 423:D:/Work/DeviceTester/amazon-freertos/lib/third_party/mcu_vendor/renesas/rz_mcu_boards/core_package/generate/sc_drivers/r_adc/src/hld\r_adc_drv_api.c ****             channels_enabled++;
 101              		.loc 1 423 0
 102 002c 01408412 		addne	r4, r4, #1
 103              	.LVL6:
 417:D:/Work/DeviceTester/amazon-freertos/lib/third_party/mcu_vendor/renesas/rz_mcu_boards/core_package/generate/sc_drivers/r_adc/src/hld\r_adc_drv_api.c ****     {
 104              		.loc 1 417 0
 105 0030 080055E3 		cmp	r5, #8
 106 0034 F6FFFF1A 		bne	.L7
 424:D:/Work/DeviceTester/amazon-freertos/lib/third_party/mcu_vendor/renesas/rz_mcu_boards/core_package/generate/sc_drivers/r_adc/src/hld\r_adc_drv_api.c ****         }
 425:D:/Work/DeviceTester/amazon-freertos/lib/third_party/mcu_vendor/renesas/rz_mcu_boards/core_package/generate/sc_drivers/r_adc/src/hld\r_adc_drv_api.c ****     }
 426:D:/Work/DeviceTester/amazon-freertos/lib/third_party/mcu_vendor/renesas/rz_mcu_boards/core_package/generate/sc_drivers/r_adc/src/hld\r_adc_drv_api.c **** 
 427:D:/Work/DeviceTester/amazon-freertos/lib/third_party/mcu_vendor/renesas/rz_mcu_boards/core_package/generate/sc_drivers/r_adc/src/hld\r_adc_drv_api.c ****     /* calculate the number of bytes that are needed to store the conversion data */
 428:D:/Work/DeviceTester/amazon-freertos/lib/third_party/mcu_vendor/renesas/rz_mcu_boards/core_package/generate/sc_drivers/r_adc/src/hld\r_adc_drv_api.c ****     s_adc_drv_config.conversion_data_size = channels_enabled * conversion_width;
 107              		.loc 1 428 0
 108 0038 0330DDE5 		ldrb	r3, [sp, #3]	@ zero_extendqisi2
 109 003c 940304E0 		mul	r4, r4, r3
 110              	.LVL7:
 111 0040 08309FE5 		ldr	r3, .L13
 112 0044 0C4083E5 		str	r4, [r3, #12]
 429:D:/Work/DeviceTester/amazon-freertos/lib/third_party/mcu_vendor/renesas/rz_mcu_boards/core_package/generate/sc_drivers/r_adc/src/hld\r_adc_drv_api.c **** }
 113              		.loc 1 429 0
 114 0048 0CD08DE2 		add	sp, sp, #12
 115              		.cfi_def_cfa_offset 12
 116              		@ sp needed
 117 004c 3080BDE8 		pop	{r4, r5, pc}
 118              	.L14:
 119              		.align	2
 120              	.L13:
 121 0050 00000000 		.word	.LANCHOR0
 122              		.cfi_endproc
 123              	.LFE9:
 125              		.section	.text.adc_hld_open,"ax",%progbits
 126              		.align	2
 127              		.syntax unified
 128              		.arm
 129              		.fpu neon
 131              	adc_hld_open:
 132              	.LFB4:
 141:D:/Work/DeviceTester/amazon-freertos/lib/third_party/mcu_vendor/renesas/rz_mcu_boards/core_package/generate/sc_drivers/r_adc/src/hld\r_adc_drv_api.c ****     /* Stream not used */
 133              		.loc 1 141 0
 134              		.cfi_startproc
 135              		@ args = 0, pretend = 0, frame = 0
 136              		@ frame_needed = 0, uses_anonymous_args = 0
 137              	.LVL8:
 138 0000 70402DE9 		push	{r4, r5, r6, lr}
 139              		.cfi_def_cfa_offset 16
 140              		.cfi_offset 4, -16
 141              		.cfi_offset 5, -12
 142              		.cfi_offset 6, -8
 143              		.cfi_offset 14, -4
 146:D:/Work/DeviceTester/amazon-freertos/lib/third_party/mcu_vendor/renesas/rz_mcu_boards/core_package/generate/sc_drivers/r_adc/src/hld\r_adc_drv_api.c ****     {
 144              		.loc 1 146 0
 145 0004 68509FE5 		ldr	r5, .L25
 146 0008 003095E5 		ldr	r3, [r5]
 147 000c 000053E3 		cmp	r3, #0
 148 0010 0100000A 		beq	.L16
 149              	.LVL9:
 150              	.L24:
 162:D:/Work/DeviceTester/amazon-freertos/lib/third_party/mcu_vendor/renesas/rz_mcu_boards/core_package/generate/sc_drivers/r_adc/src/hld\r_adc_drv_api.c ****     }
 151              		.loc 1 162 0
 152 0014 0000E0E3 		mvn	r0, #0
 153 0018 7080BDE8 		pop	{r4, r5, r6, pc}
 154              	.LVL10:
 155              	.L16:
 152:D:/Work/DeviceTester/amazon-freertos/lib/third_party/mcu_vendor/renesas/rz_mcu_boards/core_package/generate/sc_drivers/r_adc/src/hld\r_adc_drv_api.c ****     {
 156              		.loc 1 152 0
 157 001c FEFFFFEB 		bl	R_ADC_HWInitialise
 158              	.LVL11:
 159 0020 000050E3 		cmp	r0, #0
 160 0024 FAFFFF1A 		bne	.L24
 158:D:/Work/DeviceTester/amazon-freertos/lib/third_party/mcu_vendor/renesas/rz_mcu_boards/core_package/generate/sc_drivers/r_adc/src/hld\r_adc_drv_api.c ****     {
 161              		.loc 1 158 0
 162 0028 080085E2 		add	r0, r5, #8
 163 002c FEFFFFEB 		bl	R_ADC_LoadInitialConfiguration
 164              	.LVL12:
 165 0030 000050E3 		cmp	r0, #0
 166 0034 0100000A 		beq	.L19
 161:D:/Work/DeviceTester/amazon-freertos/lib/third_party/mcu_vendor/renesas/rz_mcu_boards/core_package/generate/sc_drivers/r_adc/src/hld\r_adc_drv_api.c ****         return DRV_ERROR;
 167              		.loc 1 161 0
 168 0038 FEFFFFEB 		bl	set_conversion_data_size
 169              	.LVL13:
 170 003c F4FFFFEA 		b	.L24
 171              	.L19:
 166:D:/Work/DeviceTester/amazon-freertos/lib/third_party/mcu_vendor/renesas/rz_mcu_boards/core_package/generate/sc_drivers/r_adc/src/hld\r_adc_drv_api.c ****     {
 172              		.loc 1 166 0
 173 0040 30009FE5 		ldr	r0, .L25+4
 174 0044 FEFFFFEB 		bl	R_ADC_ConfigureInterrupts
 175              	.LVL14:
 176 0048 004050E2 		subs	r4, r0, #0
 177 004c F0FFFF1A 		bne	.L24
 172:D:/Work/DeviceTester/amazon-freertos/lib/third_party/mcu_vendor/renesas/rz_mcu_boards/core_package/generate/sc_drivers/r_adc/src/hld\r_adc_drv_api.c **** 
 178              		.loc 1 172 0
 179 0050 020AA0E3 		mov	r0, #8192
 180 0054 FEFFFFEB 		bl	cbCreate
 181              	.LVL15:
 174:D:/Work/DeviceTester/amazon-freertos/lib/third_party/mcu_vendor/renesas/rz_mcu_boards/core_package/generate/sc_drivers/r_adc/src/hld\r_adc_drv_api.c ****     {
 182              		.loc 1 174 0
 183 0058 000050E3 		cmp	r0, #0
 172:D:/Work/DeviceTester/amazon-freertos/lib/third_party/mcu_vendor/renesas/rz_mcu_boards/core_package/generate/sc_drivers/r_adc/src/hld\r_adc_drv_api.c **** 
 184              		.loc 1 172 0
 185 005c 040085E5 		str	r0, [r5, #4]
 174:D:/Work/DeviceTester/amazon-freertos/lib/third_party/mcu_vendor/renesas/rz_mcu_boards/core_package/generate/sc_drivers/r_adc/src/hld\r_adc_drv_api.c ****     {
 186              		.loc 1 174 0
 187 0060 EBFFFF0A 		beq	.L24
 180:D:/Work/DeviceTester/amazon-freertos/lib/third_party/mcu_vendor/renesas/rz_mcu_boards/core_package/generate/sc_drivers/r_adc/src/hld\r_adc_drv_api.c **** 
 188              		.loc 1 180 0
 189 0064 0130A0E3 		mov	r3, #1
 183:D:/Work/DeviceTester/amazon-freertos/lib/third_party/mcu_vendor/renesas/rz_mcu_boards/core_package/generate/sc_drivers/r_adc/src/hld\r_adc_drv_api.c **** }
 190              		.loc 1 183 0
 191 0068 0400A0E1 		mov	r0, r4
 180:D:/Work/DeviceTester/amazon-freertos/lib/third_party/mcu_vendor/renesas/rz_mcu_boards/core_package/generate/sc_drivers/r_adc/src/hld\r_adc_drv_api.c **** 
 192              		.loc 1 180 0
 193 006c 003085E5 		str	r3, [r5]
 184:D:/Work/DeviceTester/amazon-freertos/lib/third_party/mcu_vendor/renesas/rz_mcu_boards/core_package/generate/sc_drivers/r_adc/src/hld\r_adc_drv_api.c **** /**************************************************************************************************
 194              		.loc 1 184 0
 195 0070 7080BDE8 		pop	{r4, r5, r6, pc}
 196              	.L26:
 197              		.align	2
 198              	.L25:
 199 0074 00000000 		.word	.LANCHOR0
 200 0078 00000000 		.word	adc_hld_interrupt_handler
 201              		.cfi_endproc
 202              	.LFE4:
 204              		.section	.text.adc_hld_interrupt_handler,"ax",%progbits
 205              		.align	2
 206              		.syntax unified
 207              		.arm
 208              		.fpu neon
 210              	adc_hld_interrupt_handler:
 211              	.LFB10:
 430:D:/Work/DeviceTester/amazon-freertos/lib/third_party/mcu_vendor/renesas/rz_mcu_boards/core_package/generate/sc_drivers/r_adc/src/hld\r_adc_drv_api.c **** /**************************************************************************************************
 431:D:/Work/DeviceTester/amazon-freertos/lib/third_party/mcu_vendor/renesas/rz_mcu_boards/core_package/generate/sc_drivers/r_adc/src/hld\r_adc_drv_api.c ****  End of function set_conversion_data_size
 432:D:/Work/DeviceTester/amazon-freertos/lib/third_party/mcu_vendor/renesas/rz_mcu_boards/core_package/generate/sc_drivers/r_adc/src/hld\r_adc_drv_api.c ****  **************************************************************************************************
 433:D:/Work/DeviceTester/amazon-freertos/lib/third_party/mcu_vendor/renesas/rz_mcu_boards/core_package/generate/sc_drivers/r_adc/src/hld\r_adc_drv_api.c **** 
 434:D:/Work/DeviceTester/amazon-freertos/lib/third_party/mcu_vendor/renesas/rz_mcu_boards/core_package/generate/sc_drivers/r_adc/src/hld\r_adc_drv_api.c **** /**************************************************************************************************
 435:D:/Work/DeviceTester/amazon-freertos/lib/third_party/mcu_vendor/renesas/rz_mcu_boards/core_package/generate/sc_drivers/r_adc/src/hld\r_adc_drv_api.c ****  * Function Name: adc_hld_interrupt_handler
 436:D:/Work/DeviceTester/amazon-freertos/lib/third_party/mcu_vendor/renesas/rz_mcu_boards/core_package/generate/sc_drivers/r_adc/src/hld\r_adc_drv_api.c ****  * Description  : conversion complete interrupt handler
 437:D:/Work/DeviceTester/amazon-freertos/lib/third_party/mcu_vendor/renesas/rz_mcu_boards/core_package/generate/sc_drivers/r_adc/src/hld\r_adc_drv_api.c ****  * Arguments    : sense[in] - not used
 438:D:/Work/DeviceTester/amazon-freertos/lib/third_party/mcu_vendor/renesas/rz_mcu_boards/core_package/generate/sc_drivers/r_adc/src/hld\r_adc_drv_api.c ****  * Return Value : none
 439:D:/Work/DeviceTester/amazon-freertos/lib/third_party/mcu_vendor/renesas/rz_mcu_boards/core_package/generate/sc_drivers/r_adc/src/hld\r_adc_drv_api.c ****  **************************************************************************************************
 440:D:/Work/DeviceTester/amazon-freertos/lib/third_party/mcu_vendor/renesas/rz_mcu_boards/core_package/generate/sc_drivers/r_adc/src/hld\r_adc_drv_api.c **** static void adc_hld_interrupt_handler(uint32_t sense)
 441:D:/Work/DeviceTester/amazon-freertos/lib/third_party/mcu_vendor/renesas/rz_mcu_boards/core_package/generate/sc_drivers/r_adc/src/hld\r_adc_drv_api.c **** {
 212              		.loc 1 441 0
 213              		.cfi_startproc
 214              		@ args = 0, pretend = 0, frame = 16
 215              		@ frame_needed = 0, uses_anonymous_args = 0
 216              	.LVL16:
 217 0000 7F402DE9 		push	{r0, r1, r2, r3, r4, r5, r6, lr}
 218              		.cfi_def_cfa_offset 32
 219              		.cfi_offset 4, -16
 220              		.cfi_offset 5, -12
 221              		.cfi_offset 6, -8
 222              		.cfi_offset 14, -4
 442:D:/Work/DeviceTester/amazon-freertos/lib/third_party/mcu_vendor/renesas/rz_mcu_boards/core_package/generate/sc_drivers/r_adc/src/hld\r_adc_drv_api.c ****     /* Sense not used */
 443:D:/Work/DeviceTester/amazon-freertos/lib/third_party/mcu_vendor/renesas/rz_mcu_boards/core_package/generate/sc_drivers/r_adc/src/hld\r_adc_drv_api.c ****     NOT_USED_PRV_(sense);
 444:D:/Work/DeviceTester/amazon-freertos/lib/third_party/mcu_vendor/renesas/rz_mcu_boards/core_package/generate/sc_drivers/r_adc/src/hld\r_adc_drv_api.c ****     e_r_drv_adc_channel_t channel;
 445:D:/Work/DeviceTester/amazon-freertos/lib/third_party/mcu_vendor/renesas/rz_mcu_boards/core_package/generate/sc_drivers/r_adc/src/hld\r_adc_drv_api.c ****     uint32_t conversion;
 446:D:/Work/DeviceTester/amazon-freertos/lib/third_party/mcu_vendor/renesas/rz_mcu_boards/core_package/generate/sc_drivers/r_adc/src/hld\r_adc_drv_api.c ****     bool_t enabled;
 447:D:/Work/DeviceTester/amazon-freertos/lib/third_party/mcu_vendor/renesas/rz_mcu_boards/core_package/generate/sc_drivers/r_adc/src/hld\r_adc_drv_api.c ****     uint8_t conversion_width;
 448:D:/Work/DeviceTester/amazon-freertos/lib/third_party/mcu_vendor/renesas/rz_mcu_boards/core_package/generate/sc_drivers/r_adc/src/hld\r_adc_drv_api.c ****     uint_t i;
 449:D:/Work/DeviceTester/amazon-freertos/lib/third_party/mcu_vendor/renesas/rz_mcu_boards/core_package/generate/sc_drivers/r_adc/src/hld\r_adc_drv_api.c ****     uint8_t byte;
 450:D:/Work/DeviceTester/amazon-freertos/lib/third_party/mcu_vendor/renesas/rz_mcu_boards/core_package/generate/sc_drivers/r_adc/src/hld\r_adc_drv_api.c **** 
 451:D:/Work/DeviceTester/amazon-freertos/lib/third_party/mcu_vendor/renesas/rz_mcu_boards/core_package/generate/sc_drivers/r_adc/src/hld\r_adc_drv_api.c ****     int32_t cb_packet = cbFree(s_adc_drv_config.p_conversion_cbuff);
 223              		.loc 1 451 0
 224 0004 C8409FE5 		ldr	r4, .L44
 225 0008 040094E5 		ldr	r0, [r4, #4]
 226              	.LVL17:
 227 000c FEFFFFEB 		bl	cbFree
 228              	.LVL18:
 452:D:/Work/DeviceTester/amazon-freertos/lib/third_party/mcu_vendor/renesas/rz_mcu_boards/core_package/generate/sc_drivers/r_adc/src/hld\r_adc_drv_api.c ****     if (cb_packet < 0)
 229              		.loc 1 452 0
 230 0010 005050E2 		subs	r5, r0, #0
 231 0014 150000BA 		blt	.L27
 453:D:/Work/DeviceTester/amazon-freertos/lib/third_party/mcu_vendor/renesas/rz_mcu_boards/core_package/generate/sc_drivers/r_adc/src/hld\r_adc_drv_api.c ****     {
 454:D:/Work/DeviceTester/amazon-freertos/lib/third_party/mcu_vendor/renesas/rz_mcu_boards/core_package/generate/sc_drivers/r_adc/src/hld\r_adc_drv_api.c ****     	/* Internal error witn cbFree() so abort operation */
 455:D:/Work/DeviceTester/amazon-freertos/lib/third_party/mcu_vendor/renesas/rz_mcu_boards/core_package/generate/sc_drivers/r_adc/src/hld\r_adc_drv_api.c ****     	return;
 456:D:/Work/DeviceTester/amazon-freertos/lib/third_party/mcu_vendor/renesas/rz_mcu_boards/core_package/generate/sc_drivers/r_adc/src/hld\r_adc_drv_api.c ****     }
 457:D:/Work/DeviceTester/amazon-freertos/lib/third_party/mcu_vendor/renesas/rz_mcu_boards/core_package/generate/sc_drivers/r_adc/src/hld\r_adc_drv_api.c **** 
 458:D:/Work/DeviceTester/amazon-freertos/lib/third_party/mcu_vendor/renesas/rz_mcu_boards/core_package/generate/sc_drivers/r_adc/src/hld\r_adc_drv_api.c ****     /* get the conversion width from the Low Layer Driver */
 459:D:/Work/DeviceTester/amazon-freertos/lib/third_party/mcu_vendor/renesas/rz_mcu_boards/core_package/generate/sc_drivers/r_adc/src/hld\r_adc_drv_api.c ****     R_ADC_GetConversionWidth(&conversion_width);
 232              		.loc 1 459 0
 233 0018 06008DE2 		add	r0, sp, #6
 234              	.LVL19:
 235 001c FEFFFFEB 		bl	R_ADC_GetConversionWidth
 236              	.LVL20:
 460:D:/Work/DeviceTester/amazon-freertos/lib/third_party/mcu_vendor/renesas/rz_mcu_boards/core_package/generate/sc_drivers/r_adc/src/hld\r_adc_drv_api.c **** 
 461:D:/Work/DeviceTester/amazon-freertos/lib/third_party/mcu_vendor/renesas/rz_mcu_boards/core_package/generate/sc_drivers/r_adc/src/hld\r_adc_drv_api.c ****     /* check for space in the circular buffer */
 462:D:/Work/DeviceTester/amazon-freertos/lib/third_party/mcu_vendor/renesas/rz_mcu_boards/core_package/generate/sc_drivers/r_adc/src/hld\r_adc_drv_api.c ****     /* if there is not enough space for a conversion packet, then */
 463:D:/Work/DeviceTester/amazon-freertos/lib/third_party/mcu_vendor/renesas/rz_mcu_boards/core_package/generate/sc_drivers/r_adc/src/hld\r_adc_drv_api.c ****     /* delete a conversion packet from the start of the buffer */
 464:D:/Work/DeviceTester/amazon-freertos/lib/third_party/mcu_vendor/renesas/rz_mcu_boards/core_package/generate/sc_drivers/r_adc/src/hld\r_adc_drv_api.c ****     if ((uint32_t)cb_packet < s_adc_drv_config.conversion_data_size)
 237              		.loc 1 464 0
 238 0020 0C3094E5 		ldr	r3, [r4, #12]
 239 0024 050053E1 		cmp	r3, r5
 240 0028 0050A083 		movhi	r5, #0
 241              	.LVL21:
 242 002c 1500008A 		bhi	.L30
 243              	.L29:
 244 0030 0050A0E3 		mov	r5, #0
 245              	.L31:
 246 0034 7560EFE6 		uxtb	r6, r5
 247              	.LVL22:
 465:D:/Work/DeviceTester/amazon-freertos/lib/third_party/mcu_vendor/renesas/rz_mcu_boards/core_package/generate/sc_drivers/r_adc/src/hld\r_adc_drv_api.c ****     {
 466:D:/Work/DeviceTester/amazon-freertos/lib/third_party/mcu_vendor/renesas/rz_mcu_boards/core_package/generate/sc_drivers/r_adc/src/hld\r_adc_drv_api.c ****         /* discard one packet from the buffer */
 467:D:/Work/DeviceTester/amazon-freertos/lib/third_party/mcu_vendor/renesas/rz_mcu_boards/core_package/generate/sc_drivers/r_adc/src/hld\r_adc_drv_api.c ****         for (i = 0; i < s_adc_drv_config.conversion_data_size; i++)
 468:D:/Work/DeviceTester/amazon-freertos/lib/third_party/mcu_vendor/renesas/rz_mcu_boards/core_package/generate/sc_drivers/r_adc/src/hld\r_adc_drv_api.c ****         {
 469:D:/Work/DeviceTester/amazon-freertos/lib/third_party/mcu_vendor/renesas/rz_mcu_boards/core_package/generate/sc_drivers/r_adc/src/hld\r_adc_drv_api.c ****             cbGet(s_adc_drv_config.p_conversion_cbuff, &byte);
 470:D:/Work/DeviceTester/amazon-freertos/lib/third_party/mcu_vendor/renesas/rz_mcu_boards/core_package/generate/sc_drivers/r_adc/src/hld\r_adc_drv_api.c ****         }
 471:D:/Work/DeviceTester/amazon-freertos/lib/third_party/mcu_vendor/renesas/rz_mcu_boards/core_package/generate/sc_drivers/r_adc/src/hld\r_adc_drv_api.c ****     }
 472:D:/Work/DeviceTester/amazon-freertos/lib/third_party/mcu_vendor/renesas/rz_mcu_boards/core_package/generate/sc_drivers/r_adc/src/hld\r_adc_drv_api.c **** 
 473:D:/Work/DeviceTester/amazon-freertos/lib/third_party/mcu_vendor/renesas/rz_mcu_boards/core_package/generate/sc_drivers/r_adc/src/hld\r_adc_drv_api.c ****     for (channel = ADC_CHANNEL_AN000; channel < ADC_CHANNELS; channel++)
 474:D:/Work/DeviceTester/amazon-freertos/lib/third_party/mcu_vendor/renesas/rz_mcu_boards/core_package/generate/sc_drivers/r_adc/src/hld\r_adc_drv_api.c ****     {
 475:D:/Work/DeviceTester/amazon-freertos/lib/third_party/mcu_vendor/renesas/rz_mcu_boards/core_package/generate/sc_drivers/r_adc/src/hld\r_adc_drv_api.c ****         R_ADC_IsChannelEnabled(channel, &enabled);
 248              		.loc 1 475 0
 249 0038 0C108DE2 		add	r1, sp, #12
 250 003c 0600A0E1 		mov	r0, r6
 251 0040 FEFFFFEB 		bl	R_ADC_IsChannelEnabled
 252              	.LVL23:
 476:D:/Work/DeviceTester/amazon-freertos/lib/third_party/mcu_vendor/renesas/rz_mcu_boards/core_package/generate/sc_drivers/r_adc/src/hld\r_adc_drv_api.c **** 
 477:D:/Work/DeviceTester/amazon-freertos/lib/third_party/mcu_vendor/renesas/rz_mcu_boards/core_package/generate/sc_drivers/r_adc/src/hld\r_adc_drv_api.c ****         if (enabled)
 253              		.loc 1 477 0
 254 0044 0C309DE5 		ldr	r3, [sp, #12]
 255 0048 000053E3 		cmp	r3, #0
 256 004c 1100001A 		bne	.L33
 257              	.LVL24:
 258              	.L37:
 259 0050 015085E2 		add	r5, r5, #1
 260              	.LVL25:
 473:D:/Work/DeviceTester/amazon-freertos/lib/third_party/mcu_vendor/renesas/rz_mcu_boards/core_package/generate/sc_drivers/r_adc/src/hld\r_adc_drv_api.c ****     {
 261              		.loc 1 473 0
 262 0054 080055E3 		cmp	r5, #8
 263 0058 F5FFFF1A 		bne	.L31
 478:D:/Work/DeviceTester/amazon-freertos/lib/third_party/mcu_vendor/renesas/rz_mcu_boards/core_package/generate/sc_drivers/r_adc/src/hld\r_adc_drv_api.c ****         {
 479:D:/Work/DeviceTester/amazon-freertos/lib/third_party/mcu_vendor/renesas/rz_mcu_boards/core_package/generate/sc_drivers/r_adc/src/hld\r_adc_drv_api.c ****             /* get the conversion value from the Low Layer Driver */
 480:D:/Work/DeviceTester/amazon-freertos/lib/third_party/mcu_vendor/renesas/rz_mcu_boards/core_package/generate/sc_drivers/r_adc/src/hld\r_adc_drv_api.c ****             R_ADC_ReadConversion(channel, &conversion);
 481:D:/Work/DeviceTester/amazon-freertos/lib/third_party/mcu_vendor/renesas/rz_mcu_boards/core_package/generate/sc_drivers/r_adc/src/hld\r_adc_drv_api.c **** 
 482:D:/Work/DeviceTester/amazon-freertos/lib/third_party/mcu_vendor/renesas/rz_mcu_boards/core_package/generate/sc_drivers/r_adc/src/hld\r_adc_drv_api.c ****             /* copy the conversion value to the circular buffer */
 483:D:/Work/DeviceTester/amazon-freertos/lib/third_party/mcu_vendor/renesas/rz_mcu_boards/core_package/generate/sc_drivers/r_adc/src/hld\r_adc_drv_api.c ****             for (i = 0; i < conversion_width; i++)
 484:D:/Work/DeviceTester/amazon-freertos/lib/third_party/mcu_vendor/renesas/rz_mcu_boards/core_package/generate/sc_drivers/r_adc/src/hld\r_adc_drv_api.c ****             {
 485:D:/Work/DeviceTester/amazon-freertos/lib/third_party/mcu_vendor/renesas/rz_mcu_boards/core_package/generate/sc_drivers/r_adc/src/hld\r_adc_drv_api.c ****                 /* cast to uint8_t */
 486:D:/Work/DeviceTester/amazon-freertos/lib/third_party/mcu_vendor/renesas/rz_mcu_boards/core_package/generate/sc_drivers/r_adc/src/hld\r_adc_drv_api.c ****                 cbPut(s_adc_drv_config.p_conversion_cbuff, (uint8_t) (conversion));
 487:D:/Work/DeviceTester/amazon-freertos/lib/third_party/mcu_vendor/renesas/rz_mcu_boards/core_package/generate/sc_drivers/r_adc/src/hld\r_adc_drv_api.c ****                 conversion >>= 8;
 488:D:/Work/DeviceTester/amazon-freertos/lib/third_party/mcu_vendor/renesas/rz_mcu_boards/core_package/generate/sc_drivers/r_adc/src/hld\r_adc_drv_api.c ****             }
 489:D:/Work/DeviceTester/amazon-freertos/lib/third_party/mcu_vendor/renesas/rz_mcu_boards/core_package/generate/sc_drivers/r_adc/src/hld\r_adc_drv_api.c ****         }
 490:D:/Work/DeviceTester/amazon-freertos/lib/third_party/mcu_vendor/renesas/rz_mcu_boards/core_package/generate/sc_drivers/r_adc/src/hld\r_adc_drv_api.c ****     }
 491:D:/Work/DeviceTester/amazon-freertos/lib/third_party/mcu_vendor/renesas/rz_mcu_boards/core_package/generate/sc_drivers/r_adc/src/hld\r_adc_drv_api.c **** 
 492:D:/Work/DeviceTester/amazon-freertos/lib/third_party/mcu_vendor/renesas/rz_mcu_boards/core_package/generate/sc_drivers/r_adc/src/hld\r_adc_drv_api.c ****     /* if a user callback has been configured, then call it here */
 493:D:/Work/DeviceTester/amazon-freertos/lib/third_party/mcu_vendor/renesas/rz_mcu_boards/core_package/generate/sc_drivers/r_adc/src/hld\r_adc_drv_api.c ****     if (NULL != s_adc_drv_config.p_userCallback)
 264              		.loc 1 493 0
 265 005c 083094E5 		ldr	r3, [r4, #8]
 266 0060 000053E3 		cmp	r3, #0
 267 0064 0100000A 		beq	.L27
 494:D:/Work/DeviceTester/amazon-freertos/lib/third_party/mcu_vendor/renesas/rz_mcu_boards/core_package/generate/sc_drivers/r_adc/src/hld\r_adc_drv_api.c ****     {
 495:D:/Work/DeviceTester/amazon-freertos/lib/third_party/mcu_vendor/renesas/rz_mcu_boards/core_package/generate/sc_drivers/r_adc/src/hld\r_adc_drv_api.c ****         (*s_adc_drv_config.p_userCallback)(ADC_REASON_SCAN_COMPLETE);
 268              		.loc 1 495 0
 269 0068 0000A0E3 		mov	r0, #0
 270 006c 33FF2FE1 		blx	r3
 271              	.LVL26:
 272              	.L27:
 496:D:/Work/DeviceTester/amazon-freertos/lib/third_party/mcu_vendor/renesas/rz_mcu_boards/core_package/generate/sc_drivers/r_adc/src/hld\r_adc_drv_api.c ****     }
 497:D:/Work/DeviceTester/amazon-freertos/lib/third_party/mcu_vendor/renesas/rz_mcu_boards/core_package/generate/sc_drivers/r_adc/src/hld\r_adc_drv_api.c **** }
 273              		.loc 1 497 0
 274 0070 10D08DE2 		add	sp, sp, #16
 275              		.cfi_remember_state
 276              		.cfi_def_cfa_offset 16
 277              		@ sp needed
 278 0074 7080BDE8 		pop	{r4, r5, r6, pc}
 279              	.LVL27:
 280              	.L32:
 281              		.cfi_restore_state
 467:D:/Work/DeviceTester/amazon-freertos/lib/third_party/mcu_vendor/renesas/rz_mcu_boards/core_package/generate/sc_drivers/r_adc/src/hld\r_adc_drv_api.c ****         {
 282              		.loc 1 467 0 discriminator 3
 283 0078 015085E2 		add	r5, r5, #1
 284              	.LVL28:
 469:D:/Work/DeviceTester/amazon-freertos/lib/third_party/mcu_vendor/renesas/rz_mcu_boards/core_package/generate/sc_drivers/r_adc/src/hld\r_adc_drv_api.c ****         }
 285              		.loc 1 469 0 discriminator 3
 286 007c 07108DE2 		add	r1, sp, #7
 287 0080 040094E5 		ldr	r0, [r4, #4]
 288 0084 FEFFFFEB 		bl	cbGet
 289              	.LVL29:
 290              	.L30:
 467:D:/Work/DeviceTester/amazon-freertos/lib/third_party/mcu_vendor/renesas/rz_mcu_boards/core_package/generate/sc_drivers/r_adc/src/hld\r_adc_drv_api.c ****         {
 291              		.loc 1 467 0 discriminator 1
 292 0088 0C3094E5 		ldr	r3, [r4, #12]
 293 008c 030055E1 		cmp	r5, r3
 294 0090 F8FFFF3A 		bcc	.L32
 295 0094 E5FFFFEA 		b	.L29
 296              	.LVL30:
 297              	.L33:
 480:D:/Work/DeviceTester/amazon-freertos/lib/third_party/mcu_vendor/renesas/rz_mcu_boards/core_package/generate/sc_drivers/r_adc/src/hld\r_adc_drv_api.c **** 
 298              		.loc 1 480 0
 299 0098 0600A0E1 		mov	r0, r6
 483:D:/Work/DeviceTester/amazon-freertos/lib/third_party/mcu_vendor/renesas/rz_mcu_boards/core_package/generate/sc_drivers/r_adc/src/hld\r_adc_drv_api.c ****             {
 300              		.loc 1 483 0
 301 009c 0060A0E3 		mov	r6, #0
 302              	.LVL31:
 480:D:/Work/DeviceTester/amazon-freertos/lib/third_party/mcu_vendor/renesas/rz_mcu_boards/core_package/generate/sc_drivers/r_adc/src/hld\r_adc_drv_api.c **** 
 303              		.loc 1 480 0
 304 00a0 08108DE2 		add	r1, sp, #8
 305 00a4 FEFFFFEB 		bl	R_ADC_ReadConversion
 306              	.LVL32:
 307              	.L35:
 483:D:/Work/DeviceTester/amazon-freertos/lib/third_party/mcu_vendor/renesas/rz_mcu_boards/core_package/generate/sc_drivers/r_adc/src/hld\r_adc_drv_api.c ****             {
 308              		.loc 1 483 0 discriminator 1
 309 00a8 0630DDE5 		ldrb	r3, [sp, #6]	@ zero_extendqisi2
 310 00ac 030056E1 		cmp	r6, r3
 311 00b0 E6FFFF2A 		bcs	.L37
 486:D:/Work/DeviceTester/amazon-freertos/lib/third_party/mcu_vendor/renesas/rz_mcu_boards/core_package/generate/sc_drivers/r_adc/src/hld\r_adc_drv_api.c ****                 conversion >>= 8;
 312              		.loc 1 486 0 discriminator 3
 313 00b4 0810DDE5 		ldrb	r1, [sp, #8]	@ zero_extendqisi2
 483:D:/Work/DeviceTester/amazon-freertos/lib/third_party/mcu_vendor/renesas/rz_mcu_boards/core_package/generate/sc_drivers/r_adc/src/hld\r_adc_drv_api.c ****             {
 314              		.loc 1 483 0 discriminator 3
 315 00b8 016086E2 		add	r6, r6, #1
 316              	.LVL33:
 486:D:/Work/DeviceTester/amazon-freertos/lib/third_party/mcu_vendor/renesas/rz_mcu_boards/core_package/generate/sc_drivers/r_adc/src/hld\r_adc_drv_api.c ****                 conversion >>= 8;
 317              		.loc 1 486 0 discriminator 3
 318 00bc 040094E5 		ldr	r0, [r4, #4]
 319 00c0 FEFFFFEB 		bl	cbPut
 320              	.LVL34:
 487:D:/Work/DeviceTester/amazon-freertos/lib/third_party/mcu_vendor/renesas/rz_mcu_boards/core_package/generate/sc_drivers/r_adc/src/hld\r_adc_drv_api.c ****             }
 321              		.loc 1 487 0 discriminator 3
 322 00c4 08309DE5 		ldr	r3, [sp, #8]
 323 00c8 2334A0E1 		lsr	r3, r3, #8
 324 00cc 08308DE5 		str	r3, [sp, #8]
 325 00d0 F4FFFFEA 		b	.L35
 326              	.L45:
 327              		.align	2
 328              	.L44:
 329 00d4 00000000 		.word	.LANCHOR0
 330              		.cfi_endproc
 331              	.LFE10:
 333              		.section	.text.adc_hld_control,"ax",%progbits
 334              		.align	2
 335              		.syntax unified
 336              		.arm
 337              		.fpu neon
 339              	adc_hld_control:
 340              	.LFB7:
 276:D:/Work/DeviceTester/amazon-freertos/lib/third_party/mcu_vendor/renesas/rz_mcu_boards/core_package/generate/sc_drivers/r_adc/src/hld\r_adc_drv_api.c ****     /* Stream not used */
 341              		.loc 1 276 0
 342              		.cfi_startproc
 343              		@ args = 0, pretend = 0, frame = 0
 344              		@ frame_needed = 0, uses_anonymous_args = 0
 345              	.LVL35:
 284:D:/Work/DeviceTester/amazon-freertos/lib/third_party/mcu_vendor/renesas/rz_mcu_boards/core_package/generate/sc_drivers/r_adc/src/hld\r_adc_drv_api.c ****     {
 346              		.loc 1 284 0
 347 0000 7110EFE6 		uxtb	r1, r1
 348              	.LVL36:
 276:D:/Work/DeviceTester/amazon-freertos/lib/third_party/mcu_vendor/renesas/rz_mcu_boards/core_package/generate/sc_drivers/r_adc/src/hld\r_adc_drv_api.c ****     /* Stream not used */
 349              		.loc 1 276 0
 350 0004 70402DE9 		push	{r4, r5, r6, lr}
 351              		.cfi_def_cfa_offset 16
 352              		.cfi_offset 4, -16
 353              		.cfi_offset 5, -12
 354              		.cfi_offset 6, -8
 355              		.cfi_offset 14, -4
 276:D:/Work/DeviceTester/amazon-freertos/lib/third_party/mcu_vendor/renesas/rz_mcu_boards/core_package/generate/sc_drivers/r_adc/src/hld\r_adc_drv_api.c ****     /* Stream not used */
 356              		.loc 1 276 0
 357 0008 0250A0E1 		mov	r5, r2
 284:D:/Work/DeviceTester/amazon-freertos/lib/third_party/mcu_vendor/renesas/rz_mcu_boards/core_package/generate/sc_drivers/r_adc/src/hld\r_adc_drv_api.c ****     {
 358              		.loc 1 284 0
 359 000c 010051E3 		cmp	r1, #1
 360 0010 1000000A 		beq	.L48
 361 0014 0300003A 		bcc	.L49
 362 0018 020051E3 		cmp	r1, #2
 363 001c 2000000A 		beq	.L50
 364              	.LVL37:
 365              	.L62:
 281:D:/Work/DeviceTester/amazon-freertos/lib/third_party/mcu_vendor/renesas/rz_mcu_boards/core_package/generate/sc_drivers/r_adc/src/hld\r_adc_drv_api.c **** 
 366              		.loc 1 281 0
 367 0020 0000E0E3 		mvn	r0, #0
 369:D:/Work/DeviceTester/amazon-freertos/lib/third_party/mcu_vendor/renesas/rz_mcu_boards/core_package/generate/sc_drivers/r_adc/src/hld\r_adc_drv_api.c **** /**************************************************************************************************
 368              		.loc 1 369 0
 369 0024 7080BDE8 		pop	{r4, r5, r6, pc}
 370              	.LVL38:
 371              	.L49:
 290:D:/Work/DeviceTester/amazon-freertos/lib/third_party/mcu_vendor/renesas/rz_mcu_boards/core_package/generate/sc_drivers/r_adc/src/hld\r_adc_drv_api.c **** 
 372              		.loc 1 290 0
 373 0028 FEFFFFEB 		bl	R_ADC_SoftwareTrigger
 374              	.LVL39:
 293:D:/Work/DeviceTester/amazon-freertos/lib/third_party/mcu_vendor/renesas/rz_mcu_boards/core_package/generate/sc_drivers/r_adc/src/hld\r_adc_drv_api.c ****             {
 375              		.loc 1 293 0
 376 002c A0309FE5 		ldr	r3, .L64
 377 0030 083093E5 		ldr	r3, [r3, #8]
 378 0034 000053E3 		cmp	r3, #0
 379 0038 0200000A 		beq	.L51
 380              	.L53:
 301:D:/Work/DeviceTester/amazon-freertos/lib/third_party/mcu_vendor/renesas/rz_mcu_boards/core_package/generate/sc_drivers/r_adc/src/hld\r_adc_drv_api.c ****             break;
 381              		.loc 1 301 0
 382 003c 0000A0E3 		mov	r0, #0
 383 0040 7080BDE8 		pop	{r4, r5, r6, pc}
 384              	.L52:
 385              	.LBB32:
 386              	.LBB33:
 387              		.file 2 "D:\\Work\\DeviceTester\\amazon-freertos\\lib\\third_party\\mcu_vendor\\renesas\\rz_mcu_bo
   1:D:\Work\DeviceTester\amazon-freertos\lib\third_party\mcu_vendor\renesas\rz_mcu_boards\core_package\generate\compiler\inc\r_compiler_abstraction_api.h **** /**************************************************************************************************
   2:D:\Work\DeviceTester\amazon-freertos\lib\third_party\mcu_vendor\renesas\rz_mcu_boards\core_package\generate\compiler\inc\r_compiler_abstraction_api.h ****  * DISCLAIMER
   3:D:\Work\DeviceTester\amazon-freertos\lib\third_party\mcu_vendor\renesas\rz_mcu_boards\core_package\generate\compiler\inc\r_compiler_abstraction_api.h ****  * This software is supplied by Renesas Electronics Corporation and is only intended for use with R
   4:D:\Work\DeviceTester\amazon-freertos\lib\third_party\mcu_vendor\renesas\rz_mcu_boards\core_package\generate\compiler\inc\r_compiler_abstraction_api.h ****  * other uses are authorized. This software is owned by Renesas Electronics Corporation and is prot
   5:D:\Work\DeviceTester\amazon-freertos\lib\third_party\mcu_vendor\renesas\rz_mcu_boards\core_package\generate\compiler\inc\r_compiler_abstraction_api.h ****  * applicable laws, including copyright laws.
   6:D:\Work\DeviceTester\amazon-freertos\lib\third_party\mcu_vendor\renesas\rz_mcu_boards\core_package\generate\compiler\inc\r_compiler_abstraction_api.h ****  * THIS SOFTWARE IS PROVIDED "AS IS" AND RENESAS MAKES NO WARRANTIES REGARDING
   7:D:\Work\DeviceTester\amazon-freertos\lib\third_party\mcu_vendor\renesas\rz_mcu_boards\core_package\generate\compiler\inc\r_compiler_abstraction_api.h ****  * THIS SOFTWARE, WHETHER EXPRESS, IMPLIED OR STATUTORY, INCLUDING BUT NOT LIMITED TO WARRANTIES OF
   8:D:\Work\DeviceTester\amazon-freertos\lib\third_party\mcu_vendor\renesas\rz_mcu_boards\core_package\generate\compiler\inc\r_compiler_abstraction_api.h ****  * FITNESS FOR A PARTICULAR PURPOSE AND NON-INFRINGEMENT. ALL SUCH WARRANTIES ARE EXPRESSLY DISCLAI
   9:D:\Work\DeviceTester\amazon-freertos\lib\third_party\mcu_vendor\renesas\rz_mcu_boards\core_package\generate\compiler\inc\r_compiler_abstraction_api.h ****  * EXTENT PERMITTED NOT PROHIBITED BY LAW, NEITHER RENESAS ELECTRONICS CORPORATION NOR ANY OF ITS A
  10:D:\Work\DeviceTester\amazon-freertos\lib\third_party\mcu_vendor\renesas\rz_mcu_boards\core_package\generate\compiler\inc\r_compiler_abstraction_api.h ****  * SHALL BE LIABLE FOR ANY DIRECT, INDIRECT, SPECIAL, INCIDENTAL OR CONSEQUENTIAL DAMAGES FOR ANY R
  11:D:\Work\DeviceTester\amazon-freertos\lib\third_party\mcu_vendor\renesas\rz_mcu_boards\core_package\generate\compiler\inc\r_compiler_abstraction_api.h ****  * SOFTWARE, EVEN IF RENESAS OR ITS AFFILIATES HAVE BEEN ADVISED OF THE POSSIBILITY OF SUCH DAMAGES
  12:D:\Work\DeviceTester\amazon-freertos\lib\third_party\mcu_vendor\renesas\rz_mcu_boards\core_package\generate\compiler\inc\r_compiler_abstraction_api.h ****  * Renesas reserves the right, without notice, to make changes to this software and to discontinue 
  13:D:\Work\DeviceTester\amazon-freertos\lib\third_party\mcu_vendor\renesas\rz_mcu_boards\core_package\generate\compiler\inc\r_compiler_abstraction_api.h ****  * this software. By using this software, you agree to the additional terms and conditions found by
  14:D:\Work\DeviceTester\amazon-freertos\lib\third_party\mcu_vendor\renesas\rz_mcu_boards\core_package\generate\compiler\inc\r_compiler_abstraction_api.h ****  * following link:
  15:D:\Work\DeviceTester\amazon-freertos\lib\third_party\mcu_vendor\renesas\rz_mcu_boards\core_package\generate\compiler\inc\r_compiler_abstraction_api.h ****  * http://www.renesas.com/disclaimer
  16:D:\Work\DeviceTester\amazon-freertos\lib\third_party\mcu_vendor\renesas\rz_mcu_boards\core_package\generate\compiler\inc\r_compiler_abstraction_api.h ****  *
  17:D:\Work\DeviceTester\amazon-freertos\lib\third_party\mcu_vendor\renesas\rz_mcu_boards\core_package\generate\compiler\inc\r_compiler_abstraction_api.h ****  * Copyright (C) 2020 Renesas Electronics Corporation. All rights reserved.
  18:D:\Work\DeviceTester\amazon-freertos\lib\third_party\mcu_vendor\renesas\rz_mcu_boards\core_package\generate\compiler\inc\r_compiler_abstraction_api.h ****  **************************************************************************************************
  19:D:\Work\DeviceTester\amazon-freertos\lib\third_party\mcu_vendor\renesas\rz_mcu_boards\core_package\generate\compiler\inc\r_compiler_abstraction_api.h **** /**************************************************************************************************
  20:D:\Work\DeviceTester\amazon-freertos\lib\third_party\mcu_vendor\renesas\rz_mcu_boards\core_package\generate\compiler\inc\r_compiler_abstraction_api.h ****  * File Name    : r_compiler_abstraction_api.h
  21:D:\Work\DeviceTester\amazon-freertos\lib\third_party\mcu_vendor\renesas\rz_mcu_boards\core_package\generate\compiler\inc\r_compiler_abstraction_api.h ****  * Description  : Provides a common API for frequently used compiler specific operations
  22:D:\Work\DeviceTester\amazon-freertos\lib\third_party\mcu_vendor\renesas\rz_mcu_boards\core_package\generate\compiler\inc\r_compiler_abstraction_api.h ****  **************************************************************************************************
  23:D:\Work\DeviceTester\amazon-freertos\lib\third_party\mcu_vendor\renesas\rz_mcu_boards\core_package\generate\compiler\inc\r_compiler_abstraction_api.h **** #include  "r_typedefs.h"
  24:D:\Work\DeviceTester\amazon-freertos\lib\third_party\mcu_vendor\renesas\rz_mcu_boards\core_package\generate\compiler\inc\r_compiler_abstraction_api.h **** 
  25:D:\Work\DeviceTester\amazon-freertos\lib\third_party\mcu_vendor\renesas\rz_mcu_boards\core_package\generate\compiler\inc\r_compiler_abstraction_api.h **** #ifndef SRC_PRV_RENESAS_COMPILER_INC_R_COMPILER_ABSTRACTION_API_H_
  26:D:\Work\DeviceTester\amazon-freertos\lib\third_party\mcu_vendor\renesas\rz_mcu_boards\core_package\generate\compiler\inc\r_compiler_abstraction_api.h **** #define SRC_PRV_RENESAS_COMPILER_INC_R_COMPILER_ABSTRACTION_API_H_
  27:D:\Work\DeviceTester\amazon-freertos\lib\third_party\mcu_vendor\renesas\rz_mcu_boards\core_package\generate\compiler\inc\r_compiler_abstraction_api.h **** 
  28:D:\Work\DeviceTester\amazon-freertos\lib\third_party\mcu_vendor\renesas\rz_mcu_boards\core_package\generate\compiler\inc\r_compiler_abstraction_api.h **** /* Macro is used to declare linkage to a function as weak so that it can be overridden by a normall
  29:D:\Work\DeviceTester\amazon-freertos\lib\third_party\mcu_vendor\renesas\rz_mcu_boards\core_package\generate\compiler\inc\r_compiler_abstraction_api.h ****  * Update this when using a different compiler. */
  30:D:\Work\DeviceTester\amazon-freertos\lib\third_party\mcu_vendor\renesas\rz_mcu_boards\core_package\generate\compiler\inc\r_compiler_abstraction_api.h **** #define R_COMPILER_WEAK __attribute__((weak))
  31:D:\Work\DeviceTester\amazon-freertos\lib\third_party\mcu_vendor\renesas\rz_mcu_boards\core_package\generate\compiler\inc\r_compiler_abstraction_api.h **** 
  32:D:\Work\DeviceTester\amazon-freertos\lib\third_party\mcu_vendor\renesas\rz_mcu_boards\core_package\generate\compiler\inc\r_compiler_abstraction_api.h **** #define R_COMPILER_INLINE static inline
  33:D:\Work\DeviceTester\amazon-freertos\lib\third_party\mcu_vendor\renesas\rz_mcu_boards\core_package\generate\compiler\inc\r_compiler_abstraction_api.h **** 
  34:D:\Work\DeviceTester\amazon-freertos\lib\third_party\mcu_vendor\renesas\rz_mcu_boards\core_package\generate\compiler\inc\r_compiler_abstraction_api.h **** extern void __enable_irq (void);
  35:D:\Work\DeviceTester\amazon-freertos\lib\third_party\mcu_vendor\renesas\rz_mcu_boards\core_package\generate\compiler\inc\r_compiler_abstraction_api.h **** extern uint32_t __disable_irq (void);
  36:D:\Work\DeviceTester\amazon-freertos\lib\third_party\mcu_vendor\renesas\rz_mcu_boards\core_package\generate\compiler\inc\r_compiler_abstraction_api.h **** extern void __enable_fiq (void);
  37:D:\Work\DeviceTester\amazon-freertos\lib\third_party\mcu_vendor\renesas\rz_mcu_boards\core_package\generate\compiler\inc\r_compiler_abstraction_api.h **** extern void __disable_fiq (void);
  38:D:\Work\DeviceTester\amazon-freertos\lib\third_party\mcu_vendor\renesas\rz_mcu_boards\core_package\generate\compiler\inc\r_compiler_abstraction_api.h **** 
  39:D:\Work\DeviceTester\amazon-freertos\lib\third_party\mcu_vendor\renesas\rz_mcu_boards\core_package\generate\compiler\inc\r_compiler_abstraction_api.h **** /**************************************************************************************************
  40:D:\Work\DeviceTester\amazon-freertos\lib\third_party\mcu_vendor\renesas\rz_mcu_boards\core_package\generate\compiler\inc\r_compiler_abstraction_api.h ****  * Function Name: R_COMPILER_Nop
  41:D:\Work\DeviceTester\amazon-freertos\lib\third_party\mcu_vendor\renesas\rz_mcu_boards\core_package\generate\compiler\inc\r_compiler_abstraction_api.h ****  * Description  : Abstracting a compiler No Operation opcode into a C function. Update this when us
  42:D:\Work\DeviceTester\amazon-freertos\lib\third_party\mcu_vendor\renesas\rz_mcu_boards\core_package\generate\compiler\inc\r_compiler_abstraction_api.h ****  *                compiler.
  43:D:\Work\DeviceTester\amazon-freertos\lib\third_party\mcu_vendor\renesas\rz_mcu_boards\core_package\generate\compiler\inc\r_compiler_abstraction_api.h ****  * Return Value : None.
  44:D:\Work\DeviceTester\amazon-freertos\lib\third_party\mcu_vendor\renesas\rz_mcu_boards\core_package\generate\compiler\inc\r_compiler_abstraction_api.h ****  **************************************************************************************************
  45:D:\Work\DeviceTester\amazon-freertos\lib\third_party\mcu_vendor\renesas\rz_mcu_boards\core_package\generate\compiler\inc\r_compiler_abstraction_api.h **** R_COMPILER_INLINE void R_COMPILER_Nop (void)
  46:D:\Work\DeviceTester\amazon-freertos\lib\third_party\mcu_vendor\renesas\rz_mcu_boards\core_package\generate\compiler\inc\r_compiler_abstraction_api.h ****     {
  47:D:\Work\DeviceTester\amazon-freertos\lib\third_party\mcu_vendor\renesas\rz_mcu_boards\core_package\generate\compiler\inc\r_compiler_abstraction_api.h ****         __asm volatile ("nop");
 388              		.loc 2 47 0
 389              		.syntax divided
 390              	@ 47 "D:\Work\DeviceTester\amazon-freertos\lib\third_party\mcu_vendor\renesas\rz_mcu_boards\core_pa
 391 0044 00F020E3 		nop
 392              	@ 0 "" 2
 393              		.arm
 394              		.syntax unified
 395              	.L51:
 396              	.LBE33:
 397              	.LBE32:
 295:D:/Work/DeviceTester/amazon-freertos/lib/third_party/mcu_vendor/renesas/rz_mcu_boards/core_package/generate/sc_drivers/r_adc/src/hld\r_adc_drv_api.c ****                 {
 398              		.loc 1 295 0
 399 0048 FEFFFFEB 		bl	R_ADC_IsConversionComplete
 400              	.LVL40:
 401 004c 000050E3 		cmp	r0, #0
 402 0050 FBFFFF0A 		beq	.L52
 403 0054 F8FFFFEA 		b	.L53
 404              	.LVL41:
 405              	.L48:
 308:D:/Work/DeviceTester/amazon-freertos/lib/third_party/mcu_vendor/renesas/rz_mcu_boards/core_package/generate/sc_drivers/r_adc/src/hld\r_adc_drv_api.c ****             {
 406              		.loc 1 308 0
 407 0058 000052E3 		cmp	r2, #0
 408 005c EFFFFF0A 		beq	.L62
 409              	.LVL42:
 410              	.LBB34:
 411              	.LBB35:
 313:D:/Work/DeviceTester/amazon-freertos/lib/third_party/mcu_vendor/renesas/rz_mcu_boards/core_package/generate/sc_drivers/r_adc/src/hld\r_adc_drv_api.c ****                 p_configuration->err = adc_err;
 412              		.loc 1 313 0
 413 0060 0200A0E1 		mov	r0, r2
 414              	.LVL43:
 415 0064 FEFFFFEB 		bl	R_ADC_SetConfiguration
 416              	.LVL44:
 317:D:/Work/DeviceTester/amazon-freertos/lib/third_party/mcu_vendor/renesas/rz_mcu_boards/core_package/generate/sc_drivers/r_adc/src/hld\r_adc_drv_api.c ****                 {
 417              		.loc 1 317 0
 418 0068 000050E3 		cmp	r0, #0
 314:D:/Work/DeviceTester/amazon-freertos/lib/third_party/mcu_vendor/renesas/rz_mcu_boards/core_package/generate/sc_drivers/r_adc/src/hld\r_adc_drv_api.c **** 
 419              		.loc 1 314 0
 420 006c 4C00C5E5 		strb	r0, [r5, #76]
 317:D:/Work/DeviceTester/amazon-freertos/lib/third_party/mcu_vendor/renesas/rz_mcu_boards/core_package/generate/sc_drivers/r_adc/src/hld\r_adc_drv_api.c ****                 {
 421              		.loc 1 317 0
 422 0070 EAFFFF1A 		bne	.L62
 319:D:/Work/DeviceTester/amazon-freertos/lib/third_party/mcu_vendor/renesas/rz_mcu_boards/core_package/generate/sc_drivers/r_adc/src/hld\r_adc_drv_api.c ****                 }
 423              		.loc 1 319 0
 424 0074 FEFFFFEB 		bl	R_ADC_ConfigureAnalogueInputs
 425              	.LVL45:
 322:D:/Work/DeviceTester/amazon-freertos/lib/third_party/mcu_vendor/renesas/rz_mcu_boards/core_package/generate/sc_drivers/r_adc/src/hld\r_adc_drv_api.c ****                 {
 426              		.loc 1 322 0
 427 0078 004050E2 		subs	r4, r0, #0
 428 007c E7FFFF1A 		bne	.L62
 324:D:/Work/DeviceTester/amazon-freertos/lib/third_party/mcu_vendor/renesas/rz_mcu_boards/core_package/generate/sc_drivers/r_adc/src/hld\r_adc_drv_api.c **** 
 429              		.loc 1 324 0
 430 0080 043095E5 		ldr	r3, [r5, #4]
 431 0084 48609FE5 		ldr	r6, .L64
 432 0088 083086E5 		str	r3, [r6, #8]
 433              	.LBB36:
 434              	.LBB37:
  48:D:\Work\DeviceTester\amazon-freertos\lib\third_party\mcu_vendor\renesas\rz_mcu_boards\core_package\generate\compiler\inc\r_compiler_abstraction_api.h ****     }
  49:D:\Work\DeviceTester\amazon-freertos\lib\third_party\mcu_vendor\renesas\rz_mcu_boards\core_package\generate\compiler\inc\r_compiler_abstraction_api.h **** /**************************************************************************************************
  50:D:\Work\DeviceTester\amazon-freertos\lib\third_party\mcu_vendor\renesas\rz_mcu_boards\core_package\generate\compiler\inc\r_compiler_abstraction_api.h ****  End of function R_COMPILER_Nop
  51:D:\Work\DeviceTester\amazon-freertos\lib\third_party\mcu_vendor\renesas\rz_mcu_boards\core_package\generate\compiler\inc\r_compiler_abstraction_api.h ****  **************************************************************************************************
  52:D:\Work\DeviceTester\amazon-freertos\lib\third_party\mcu_vendor\renesas\rz_mcu_boards\core_package\generate\compiler\inc\r_compiler_abstraction_api.h **** 
  53:D:\Work\DeviceTester\amazon-freertos\lib\third_party\mcu_vendor\renesas\rz_mcu_boards\core_package\generate\compiler\inc\r_compiler_abstraction_api.h **** /**************************************************************************************************
  54:D:\Work\DeviceTester\amazon-freertos\lib\third_party\mcu_vendor\renesas\rz_mcu_boards\core_package\generate\compiler\inc\r_compiler_abstraction_api.h ****  * Function Name: R_COMPILER_EnableInterrupts
  55:D:\Work\DeviceTester\amazon-freertos\lib\third_party\mcu_vendor\renesas\rz_mcu_boards\core_package\generate\compiler\inc\r_compiler_abstraction_api.h ****  * Description  : Enable interrupts by using a compiler intrinsic call. Update this when using a di
  56:D:\Work\DeviceTester\amazon-freertos\lib\third_party\mcu_vendor\renesas\rz_mcu_boards\core_package\generate\compiler\inc\r_compiler_abstraction_api.h ****  * Return Value : None.
  57:D:\Work\DeviceTester\amazon-freertos\lib\third_party\mcu_vendor\renesas\rz_mcu_boards\core_package\generate\compiler\inc\r_compiler_abstraction_api.h ****  **************************************************************************************************
  58:D:\Work\DeviceTester\amazon-freertos\lib\third_party\mcu_vendor\renesas\rz_mcu_boards\core_package\generate\compiler\inc\r_compiler_abstraction_api.h **** R_COMPILER_INLINE void R_COMPILER_EnableInterrupts(void)
  59:D:\Work\DeviceTester\amazon-freertos\lib\third_party\mcu_vendor\renesas\rz_mcu_boards\core_package\generate\compiler\inc\r_compiler_abstraction_api.h ****     {
  60:D:\Work\DeviceTester\amazon-freertos\lib\third_party\mcu_vendor\renesas\rz_mcu_boards\core_package\generate\compiler\inc\r_compiler_abstraction_api.h ****         __enable_irq();
  61:D:\Work\DeviceTester\amazon-freertos\lib\third_party\mcu_vendor\renesas\rz_mcu_boards\core_package\generate\compiler\inc\r_compiler_abstraction_api.h ****     }
  62:D:\Work\DeviceTester\amazon-freertos\lib\third_party\mcu_vendor\renesas\rz_mcu_boards\core_package\generate\compiler\inc\r_compiler_abstraction_api.h **** /**************************************************************************************************
  63:D:\Work\DeviceTester\amazon-freertos\lib\third_party\mcu_vendor\renesas\rz_mcu_boards\core_package\generate\compiler\inc\r_compiler_abstraction_api.h ****  End of function R_COMPILER_EnableInterrupts
  64:D:\Work\DeviceTester\amazon-freertos\lib\third_party\mcu_vendor\renesas\rz_mcu_boards\core_package\generate\compiler\inc\r_compiler_abstraction_api.h ****  **************************************************************************************************
  65:D:\Work\DeviceTester\amazon-freertos\lib\third_party\mcu_vendor\renesas\rz_mcu_boards\core_package\generate\compiler\inc\r_compiler_abstraction_api.h **** 
  66:D:\Work\DeviceTester\amazon-freertos\lib\third_party\mcu_vendor\renesas\rz_mcu_boards\core_package\generate\compiler\inc\r_compiler_abstraction_api.h **** /**************************************************************************************************
  67:D:\Work\DeviceTester\amazon-freertos\lib\third_party\mcu_vendor\renesas\rz_mcu_boards\core_package\generate\compiler\inc\r_compiler_abstraction_api.h ****  * Function Name: R_COMPILER_DisableInterrupts
  68:D:\Work\DeviceTester\amazon-freertos\lib\third_party\mcu_vendor\renesas\rz_mcu_boards\core_package\generate\compiler\inc\r_compiler_abstraction_api.h ****  * Description  : Disable interrupts by using a compiler intrinsic call. Update this when using a d
  69:D:\Work\DeviceTester\amazon-freertos\lib\third_party\mcu_vendor\renesas\rz_mcu_boards\core_package\generate\compiler\inc\r_compiler_abstraction_api.h ****  * Return Value : None.
  70:D:\Work\DeviceTester\amazon-freertos\lib\third_party\mcu_vendor\renesas\rz_mcu_boards\core_package\generate\compiler\inc\r_compiler_abstraction_api.h ****  **************************************************************************************************
  71:D:\Work\DeviceTester\amazon-freertos\lib\third_party\mcu_vendor\renesas\rz_mcu_boards\core_package\generate\compiler\inc\r_compiler_abstraction_api.h **** R_COMPILER_INLINE void R_COMPILER_DisableInterrupts(void)
  72:D:\Work\DeviceTester\amazon-freertos\lib\third_party\mcu_vendor\renesas\rz_mcu_boards\core_package\generate\compiler\inc\r_compiler_abstraction_api.h ****     {
  73:D:\Work\DeviceTester\amazon-freertos\lib\third_party\mcu_vendor\renesas\rz_mcu_boards\core_package\generate\compiler\inc\r_compiler_abstraction_api.h ****         __disable_irq();
 435              		.loc 2 73 0
 436 008c FEFFFFEB 		bl	__disable_irq
 437              	.LVL46:
 438              	.LBE37:
 439              	.LBE36:
 328:D:/Work/DeviceTester/amazon-freertos/lib/third_party/mcu_vendor/renesas/rz_mcu_boards/core_package/generate/sc_drivers/r_adc/src/hld\r_adc_drv_api.c ****                     R_COMPILER_EnableInterrupts();
 440              		.loc 1 328 0
 441 0090 040096E5 		ldr	r0, [r6, #4]
 442 0094 FEFFFFEB 		bl	cbClear
 443              	.LVL47:
 444              	.LBB38:
 445              	.LBB39:
  60:D:\Work\DeviceTester\amazon-freertos\lib\third_party\mcu_vendor\renesas\rz_mcu_boards\core_package\generate\compiler\inc\r_compiler_abstraction_api.h ****     }
 446              		.loc 2 60 0
 447 0098 FEFFFFEB 		bl	__enable_irq
 448              	.LVL48:
 449              	.LBE39:
 450              	.LBE38:
 332:D:/Work/DeviceTester/amazon-freertos/lib/third_party/mcu_vendor/renesas/rz_mcu_boards/core_package/generate/sc_drivers/r_adc/src/hld\r_adc_drv_api.c **** 
 451              		.loc 1 332 0
 452 009c FEFFFFEB 		bl	set_conversion_data_size
 453              	.LVL49:
 454 00a0 E5FFFFEA 		b	.L53
 455              	.LVL50:
 456              	.L50:
 457              	.LBE35:
 458              	.LBE34:
 347:D:/Work/DeviceTester/amazon-freertos/lib/third_party/mcu_vendor/renesas/rz_mcu_boards/core_package/generate/sc_drivers/r_adc/src/hld\r_adc_drv_api.c ****             {
 459              		.loc 1 347 0
 460 00a4 000052E3 		cmp	r2, #0
 461 00a8 DCFFFF0A 		beq	.L62
 462              	.LVL51:
 352:D:/Work/DeviceTester/amazon-freertos/lib/third_party/mcu_vendor/renesas/rz_mcu_boards/core_package/generate/sc_drivers/r_adc/src/hld\r_adc_drv_api.c ****                 p_configuration->config.p_adcCallback = s_adc_drv_config.p_userCallback;
 463              		.loc 1 352 0
 464 00ac 0200A0E1 		mov	r0, r2
 465              	.LVL52:
 466 00b0 FEFFFFEB 		bl	R_ADC_GetConfiguration
 467              	.LVL53:
 353:D:/Work/DeviceTester/amazon-freertos/lib/third_party/mcu_vendor/renesas/rz_mcu_boards/core_package/generate/sc_drivers/r_adc/src/hld\r_adc_drv_api.c ****                 p_configuration->err = adc_err;
 468              		.loc 1 353 0
 469 00b4 18309FE5 		ldr	r3, .L64
 354:D:/Work/DeviceTester/amazon-freertos/lib/third_party/mcu_vendor/renesas/rz_mcu_boards/core_package/generate/sc_drivers/r_adc/src/hld\r_adc_drv_api.c **** 
 470              		.loc 1 354 0
 471 00b8 4C00C5E5 		strb	r0, [r5, #76]
 356:D:/Work/DeviceTester/amazon-freertos/lib/third_party/mcu_vendor/renesas/rz_mcu_boards/core_package/generate/sc_drivers/r_adc/src/hld\r_adc_drv_api.c ****             }
 472              		.loc 1 356 0
 473 00bc 000090E2 		adds	r0, r0, #0
 474              	.LVL54:
 475 00c0 0100A013 		movne	r0, #1
 353:D:/Work/DeviceTester/amazon-freertos/lib/third_party/mcu_vendor/renesas/rz_mcu_boards/core_package/generate/sc_drivers/r_adc/src/hld\r_adc_drv_api.c ****                 p_configuration->err = adc_err;
 476              		.loc 1 353 0
 477 00c4 083093E5 		ldr	r3, [r3, #8]
 356:D:/Work/DeviceTester/amazon-freertos/lib/third_party/mcu_vendor/renesas/rz_mcu_boards/core_package/generate/sc_drivers/r_adc/src/hld\r_adc_drv_api.c ****             }
 478              		.loc 1 356 0
 479 00c8 000060E2 		rsb	r0, r0, #0
 353:D:/Work/DeviceTester/amazon-freertos/lib/third_party/mcu_vendor/renesas/rz_mcu_boards/core_package/generate/sc_drivers/r_adc/src/hld\r_adc_drv_api.c ****                 p_configuration->err = adc_err;
 480              		.loc 1 353 0
 481 00cc 043085E5 		str	r3, [r5, #4]
 482 00d0 7080BDE8 		pop	{r4, r5, r6, pc}
 483              	.L65:
 484              		.align	2
 485              	.L64:
 486 00d4 00000000 		.word	.LANCHOR0
 487              		.cfi_endproc
 488              	.LFE7:
 490              		.global	__aeabi_uidivmod
 491              		.section	.text.adc_hld_read,"ax",%progbits
 492              		.align	2
 493              		.syntax unified
 494              		.arm
 495              		.fpu neon
 497              	adc_hld_read:
 498              	.LFB6:
 229:D:/Work/DeviceTester/amazon-freertos/lib/third_party/mcu_vendor/renesas/rz_mcu_boards/core_package/generate/sc_drivers/r_adc/src/hld\r_adc_drv_api.c ****     /* stream not used */
 499              		.loc 1 229 0
 500              		.cfi_startproc
 501              		@ args = 0, pretend = 0, frame = 0
 502              		@ frame_needed = 0, uses_anonymous_args = 0
 503              	.LVL55:
 504 0000 F0412DE9 		push	{r4, r5, r6, r7, r8, lr}
 505              		.cfi_def_cfa_offset 24
 506              		.cfi_offset 4, -24
 507              		.cfi_offset 5, -20
 508              		.cfi_offset 6, -16
 509              		.cfi_offset 7, -12
 510              		.cfi_offset 8, -8
 511              		.cfi_offset 14, -4
 237:D:/Work/DeviceTester/amazon-freertos/lib/third_party/mcu_vendor/renesas/rz_mcu_boards/core_package/generate/sc_drivers/r_adc/src/hld\r_adc_drv_api.c ****     {
 512              		.loc 1 237 0
 513 0004 0200A0E1 		mov	r0, r2
 514              	.LVL56:
 515 0008 54609FE5 		ldr	r6, .L74
 229:D:/Work/DeviceTester/amazon-freertos/lib/third_party/mcu_vendor/renesas/rz_mcu_boards/core_package/generate/sc_drivers/r_adc/src/hld\r_adc_drv_api.c ****     /* stream not used */
 516              		.loc 1 229 0
 517 000c 0180A0E1 		mov	r8, r1
 518 0010 0270A0E1 		mov	r7, r2
 237:D:/Work/DeviceTester/amazon-freertos/lib/third_party/mcu_vendor/renesas/rz_mcu_boards/core_package/generate/sc_drivers/r_adc/src/hld\r_adc_drv_api.c ****     {
 519              		.loc 1 237 0
 520 0014 0C1096E5 		ldr	r1, [r6, #12]
 521              	.LVL57:
 522 0018 FEFFFFEB 		bl	__aeabi_uidivmod
 523              	.LVL58:
 524 001c 004051E2 		subs	r4, r1, #0
 239:D:/Work/DeviceTester/amazon-freertos/lib/third_party/mcu_vendor/renesas/rz_mcu_boards/core_package/generate/sc_drivers/r_adc/src/hld\r_adc_drv_api.c ****     }
 525              		.loc 1 239 0
 526 0020 0040E013 		mvnne	r4, #0
 237:D:/Work/DeviceTester/amazon-freertos/lib/third_party/mcu_vendor/renesas/rz_mcu_boards/core_package/generate/sc_drivers/r_adc/src/hld\r_adc_drv_api.c ****     {
 527              		.loc 1 237 0
 528 0024 0400001A 		bne	.L66
 529              	.LBB48:
 530              	.LBB49:
 246:D:/Work/DeviceTester/amazon-freertos/lib/third_party/mcu_vendor/renesas/rz_mcu_boards/core_package/generate/sc_drivers/r_adc/src/hld\r_adc_drv_api.c ****     {
 531              		.loc 1 246 0
 532 0028 0450A0E1 		mov	r5, r4
 533              	.LBE49:
 534              	.LBE48:
 535              	.LBB54:
 536              	.LBB55:
 537              		.loc 2 73 0
 538 002c FEFFFFEB 		bl	__disable_irq
 539              	.LVL59:
 540              	.L68:
 541              	.LBE55:
 542              	.LBE54:
 543              	.LBB56:
 544              	.LBB52:
 246:D:/Work/DeviceTester/amazon-freertos/lib/third_party/mcu_vendor/renesas/rz_mcu_boards/core_package/generate/sc_drivers/r_adc/src/hld\r_adc_drv_api.c ****     {
 545              		.loc 1 246 0
 546 0030 050057E1 		cmp	r7, r5
 547 0034 0200008A 		bhi	.L70
 548              	.LBB50:
 549              	.LBB51:
  60:D:\Work\DeviceTester\amazon-freertos\lib\third_party\mcu_vendor\renesas\rz_mcu_boards\core_package\generate\compiler\inc\r_compiler_abstraction_api.h ****     }
 550              		.loc 2 60 0
 551 0038 FEFFFFEB 		bl	__enable_irq
 552              	.LVL60:
 553              	.L66:
 554              	.LBE51:
 555              	.LBE50:
 556              	.LBE52:
 557              	.LBE56:
 263:D:/Work/DeviceTester/amazon-freertos/lib/third_party/mcu_vendor/renesas/rz_mcu_boards/core_package/generate/sc_drivers/r_adc/src/hld\r_adc_drv_api.c **** /**************************************************************************************************
 558              		.loc 1 263 0
 559 003c 0400A0E1 		mov	r0, r4
 560 0040 F081BDE8 		pop	{r4, r5, r6, r7, r8, pc}
 561              	.LVL61:
 562              	.L70:
 563              	.LBB57:
 564              	.LBB53:
 248:D:/Work/DeviceTester/amazon-freertos/lib/third_party/mcu_vendor/renesas/rz_mcu_boards/core_package/generate/sc_drivers/r_adc/src/hld\r_adc_drv_api.c ****         {
 565              		.loc 1 248 0
 566 0044 041088E0 		add	r1, r8, r4
 567 0048 040096E5 		ldr	r0, [r6, #4]
 568 004c FEFFFFEB 		bl	cbGet
 569              	.LVL62:
 570 0050 000050E3 		cmp	r0, #0
 571 0054 0750A001 		moveq	r5, r7
 572              	.LVL63:
 250:D:/Work/DeviceTester/amazon-freertos/lib/third_party/mcu_vendor/renesas/rz_mcu_boards/core_package/generate/sc_drivers/r_adc/src/hld\r_adc_drv_api.c ****         }
 573              		.loc 1 250 0
 574 0058 01408412 		addne	r4, r4, #1
 575              	.LVL64:
 246:D:/Work/DeviceTester/amazon-freertos/lib/third_party/mcu_vendor/renesas/rz_mcu_boards/core_package/generate/sc_drivers/r_adc/src/hld\r_adc_drv_api.c ****     {
 576              		.loc 1 246 0
 577 005c 015085E2 		add	r5, r5, #1
 578              	.LVL65:
 579 0060 F2FFFFEA 		b	.L68
 580              	.L75:
 581              		.align	2
 582              	.L74:
 583 0064 00000000 		.word	.LANCHOR0
 584              	.LBE53:
 585              	.LBE57:
 586              		.cfi_endproc
 587              	.LFE6:
 589              		.section	.text.adc_hld_close,"ax",%progbits
 590              		.align	2
 591              		.syntax unified
 592              		.arm
 593              		.fpu neon
 595              	adc_hld_close:
 596              	.LFB5:
 196:D:/Work/DeviceTester/amazon-freertos/lib/third_party/mcu_vendor/renesas/rz_mcu_boards/core_package/generate/sc_drivers/r_adc/src/hld\r_adc_drv_api.c ****     /* stream not used */
 597              		.loc 1 196 0
 598              		.cfi_startproc
 599              		@ args = 0, pretend = 0, frame = 0
 600              		@ frame_needed = 0, uses_anonymous_args = 0
 601              	.LVL66:
 602 0000 70402DE9 		push	{r4, r5, r6, lr}
 603              		.cfi_def_cfa_offset 16
 604              		.cfi_offset 4, -16
 605              		.cfi_offset 5, -12
 606              		.cfi_offset 6, -8
 607              		.cfi_offset 14, -4
 200:D:/Work/DeviceTester/amazon-freertos/lib/third_party/mcu_vendor/renesas/rz_mcu_boards/core_package/generate/sc_drivers/r_adc/src/hld\r_adc_drv_api.c ****     {
 608              		.loc 1 200 0
 609 0004 38409FE5 		ldr	r4, .L79
 610 0008 003094E5 		ldr	r3, [r4]
 611 000c 000053E3 		cmp	r3, #0
 612 0010 7080BD08 		popeq	{r4, r5, r6, pc}
 613              	.LVL67:
 614              	.LBB60:
 615              	.LBB61:
 203:D:/Work/DeviceTester/amazon-freertos/lib/third_party/mcu_vendor/renesas/rz_mcu_boards/core_package/generate/sc_drivers/r_adc/src/hld\r_adc_drv_api.c **** 
 616              		.loc 1 203 0
 617 0014 FEFFFFEB 		bl	R_ADC_HWUninitialise
 618              	.LVL68:
 205:D:/Work/DeviceTester/amazon-freertos/lib/third_party/mcu_vendor/renesas/rz_mcu_boards/core_package/generate/sc_drivers/r_adc/src/hld\r_adc_drv_api.c **** 
 619              		.loc 1 205 0
 620 0018 0050A0E3 		mov	r5, #0
 208:D:/Work/DeviceTester/amazon-freertos/lib/third_party/mcu_vendor/renesas/rz_mcu_boards/core_package/generate/sc_drivers/r_adc/src/hld\r_adc_drv_api.c ****         s_adc_drv_config.p_conversion_cbuff = NULL;
 621              		.loc 1 208 0
 622 001c 040094E5 		ldr	r0, [r4, #4]
 205:D:/Work/DeviceTester/amazon-freertos/lib/third_party/mcu_vendor/renesas/rz_mcu_boards/core_package/generate/sc_drivers/r_adc/src/hld\r_adc_drv_api.c **** 
 623              		.loc 1 205 0
 624 0020 005084E5 		str	r5, [r4]
 208:D:/Work/DeviceTester/amazon-freertos/lib/third_party/mcu_vendor/renesas/rz_mcu_boards/core_package/generate/sc_drivers/r_adc/src/hld\r_adc_drv_api.c ****         s_adc_drv_config.p_conversion_cbuff = NULL;
 625              		.loc 1 208 0
 626 0024 FEFFFFEB 		bl	cbDestroy
 627              	.LVL69:
 212:D:/Work/DeviceTester/amazon-freertos/lib/third_party/mcu_vendor/renesas/rz_mcu_boards/core_package/generate/sc_drivers/r_adc/src/hld\r_adc_drv_api.c ****         R_INTC_RegistIntFunc(INTC_ID_ADC_S12ADI0, NULL);
 628              		.loc 1 212 0
 629 0028 F700A0E3 		mov	r0, #247
 209:D:/Work/DeviceTester/amazon-freertos/lib/third_party/mcu_vendor/renesas/rz_mcu_boards/core_package/generate/sc_drivers/r_adc/src/hld\r_adc_drv_api.c **** 
 630              		.loc 1 209 0
 631 002c 045084E5 		str	r5, [r4, #4]
 212:D:/Work/DeviceTester/amazon-freertos/lib/third_party/mcu_vendor/renesas/rz_mcu_boards/core_package/generate/sc_drivers/r_adc/src/hld\r_adc_drv_api.c ****         R_INTC_RegistIntFunc(INTC_ID_ADC_S12ADI0, NULL);
 632              		.loc 1 212 0
 633 0030 FEFFFFEB 		bl	R_INTC_Disable
 634              	.LVL70:
 213:D:/Work/DeviceTester/amazon-freertos/lib/third_party/mcu_vendor/renesas/rz_mcu_boards/core_package/generate/sc_drivers/r_adc/src/hld\r_adc_drv_api.c ****     }
 635              		.loc 1 213 0
 636 0034 0510A0E1 		mov	r1, r5
 637 0038 F700A0E3 		mov	r0, #247
 638              	.LBE61:
 639              	.LBE60:
 215:D:/Work/DeviceTester/amazon-freertos/lib/third_party/mcu_vendor/renesas/rz_mcu_boards/core_package/generate/sc_drivers/r_adc/src/hld\r_adc_drv_api.c **** /**************************************************************************************************
 640              		.loc 1 215 0
 641 003c 7040BDE8 		pop	{r4, r5, r6, lr}
 642              		.cfi_restore 14
 643              		.cfi_restore 6
 644              		.cfi_restore 5
 645              		.cfi_restore 4
 646              		.cfi_def_cfa_offset 0
 647              	.LBB63:
 648              	.LBB62:
 213:D:/Work/DeviceTester/amazon-freertos/lib/third_party/mcu_vendor/renesas/rz_mcu_boards/core_package/generate/sc_drivers/r_adc/src/hld\r_adc_drv_api.c ****     }
 649              		.loc 1 213 0
 650 0040 FEFFFFEA 		b	R_INTC_RegistIntFunc
 651              	.LVL71:
 652              	.L80:
 653              		.align	2
 654              	.L79:
 655 0044 00000000 		.word	.LANCHOR0
 656              	.LBE62:
 657              	.LBE63:
 658              		.cfi_endproc
 659              	.LFE5:
 661              		.global	g_adc_driver
 662              		.section	.bss.s_adc_drv_config,"aw",%nobits
 663              		.align	2
 664              		.set	.LANCHOR0,. + 0
 667              	s_adc_drv_config:
 668 0000 00000000 		.space	16
 668      00000000 
 668      00000000 
 668      00000000 
 669              		.section	.rodata.adc_hld_get_version.str1.1,"aMS",%progbits,1
 670              	.LC0:
 671 0000 484C4420 		.ascii	"HLD ADC\000"
 671      41444300 
 672              		.section	.rodata.g_adc_driver,"a",%progbits
 673              		.align	2
 676              	g_adc_driver:
 677 0000 00000000 		.word	.LC1
 678 0004 00000000 		.word	adc_hld_open
 679 0008 00000000 		.word	adc_hld_close
 680 000c 00000000 		.word	adc_hld_read
 681 0010 00000000 		.word	no_dev_write
 682 0014 00000000 		.word	adc_hld_control
 683 0018 00000000 		.word	adc_hld_get_version
 684              		.section	.rodata.str1.1,"aMS",%progbits,1
 685              	.LC1:
 686 0000 41444320 		.ascii	"ADC Device Driver\000"
 686      44657669 
 686      63652044 
 686      72697665 
 686      7200
 687              		.text
 688              	.Letext0:
 689              		.file 3 "c:\\program files (x86)\\gnu tools arm embedded\\6 2017-q2-update\\arm-none-eabi\\include
 690              		.file 4 "c:\\program files (x86)\\gnu tools arm embedded\\6 2017-q2-update\\arm-none-eabi\\include
 691              		.file 5 "c:\\program files (x86)\\gnu tools arm embedded\\6 2017-q2-update\\arm-none-eabi\\include
 692              		.file 6 "c:\\program files (x86)\\gnu tools arm embedded\\6 2017-q2-update\\arm-none-eabi\\include
 693              		.file 7 "c:\\program files (x86)\\gnu tools arm embedded\\6 2017-q2-update\\lib\\gcc\\arm-none-eab
 694              		.file 8 "c:\\program files (x86)\\gnu tools arm embedded\\6 2017-q2-update\\arm-none-eabi\\include
 695              		.file 9 "c:\\program files (x86)\\gnu tools arm embedded\\6 2017-q2-update\\arm-none-eabi\\include
 696              		.file 10 "D:\\Work\\DeviceTester\\amazon-freertos\\lib\\third_party\\mcu_vendor\\renesas\\rz_mcu_b
 697              		.file 11 "D:\\Work\\DeviceTester\\amazon-freertos\\lib\\third_party\\mcu_vendor\\renesas\\rz_mcu_b
 698              		.file 12 "D:\\Work\\DeviceTester\\amazon-freertos\\lib\\third_party\\mcu_vendor\\renesas\\rz_mcu_b
 699              		.file 13 "c:\\program files (x86)\\gnu tools arm embedded\\6 2017-q2-update\\arm-none-eabi\\includ
 700              		.file 14 "c:\\program files (x86)\\gnu tools arm embedded\\6 2017-q2-update\\arm-none-eabi\\includ
 701              		.file 15 "D:\\Work\\DeviceTester\\amazon-freertos\\lib\\third_party\\mcu_vendor\\renesas\\rz_mcu_b
 702              		.file 16 "D:\\Work\\DeviceTester\\amazon-freertos\\lib\\third_party\\mcu_vendor\\renesas\\rz_mcu_b
 703              		.file 17 "D:\\Work\\DeviceTester\\amazon-freertos\\lib\\third_party\\mcu_vendor\\renesas\\rz_mcu_b
 704              		.file 18 "D:\\Work\\DeviceTester\\amazon-freertos\\lib\\third_party\\mcu_vendor\\renesas\\rz_mcu_b