   1              		.cpu cortex-a9
   2              		.eabi_attribute 28, 1
   3              		.eabi_attribute 20, 1
   4              		.eabi_attribute 21, 1
   5              		.eabi_attribute 23, 3
   6              		.eabi_attribute 24, 1
   7              		.eabi_attribute 25, 1
   8              		.eabi_attribute 26, 1
   9              		.eabi_attribute 30, 4
  10              		.eabi_attribute 34, 0
  11              		.eabi_attribute 18, 4
  12              		.file	"unity.c"
  13              		.text
  14              	.Ltext0:
  15              		.cfi_sections	.debug_frame
  16              		.section	.text.UnityFloatsWithin,"ax",%progbits
  17              		.align	2
  18              		.syntax unified
  19              		.arm
  20              		.fpu neon
  22              	UnityFloatsWithin:
  23              	.LFB20:
  24              		.file 1 "D:/Work/DeviceTester/amazon-freertos/lib/third_party/unity/src/unity.c"
   1:D:/Work/DeviceTester/amazon-freertos/lib/third_party/unity/src\unity.c **** /* =========================================================================
   2:D:/Work/DeviceTester/amazon-freertos/lib/third_party/unity/src\unity.c ****     Unity Project - A Test Framework for C
   3:D:/Work/DeviceTester/amazon-freertos/lib/third_party/unity/src\unity.c ****     Copyright (c) 2007-14 Mike Karlesky, Mark VanderVoord, Greg Williams
   4:D:/Work/DeviceTester/amazon-freertos/lib/third_party/unity/src\unity.c ****     [Released under MIT License. Please refer to license.txt for details]
   5:D:/Work/DeviceTester/amazon-freertos/lib/third_party/unity/src\unity.c **** ============================================================================ */
   6:D:/Work/DeviceTester/amazon-freertos/lib/third_party/unity/src\unity.c **** 
   7:D:/Work/DeviceTester/amazon-freertos/lib/third_party/unity/src\unity.c **** #include "unity.h"
   8:D:/Work/DeviceTester/amazon-freertos/lib/third_party/unity/src\unity.c **** #include <stddef.h>
   9:D:/Work/DeviceTester/amazon-freertos/lib/third_party/unity/src\unity.c **** 
  10:D:/Work/DeviceTester/amazon-freertos/lib/third_party/unity/src\unity.c **** /* If omitted from header, declare overrideable prototypes here so they're ready for use */
  11:D:/Work/DeviceTester/amazon-freertos/lib/third_party/unity/src\unity.c **** #ifdef UNITY_OMIT_OUTPUT_CHAR_HEADER_DECLARATION
  12:D:/Work/DeviceTester/amazon-freertos/lib/third_party/unity/src\unity.c **** void UNITY_OUTPUT_CHAR(int);
  13:D:/Work/DeviceTester/amazon-freertos/lib/third_party/unity/src\unity.c **** #endif
  14:D:/Work/DeviceTester/amazon-freertos/lib/third_party/unity/src\unity.c **** 
  15:D:/Work/DeviceTester/amazon-freertos/lib/third_party/unity/src\unity.c **** /* Helpful macros for us to use here in Assert functions */
  16:D:/Work/DeviceTester/amazon-freertos/lib/third_party/unity/src\unity.c **** #define UNITY_FAIL_AND_BAIL   { Unity.CurrentTestFailed  = 1; TEST_ABORT(); }
  17:D:/Work/DeviceTester/amazon-freertos/lib/third_party/unity/src\unity.c **** #define UNITY_IGNORE_AND_BAIL { Unity.CurrentTestIgnored = 1; TEST_ABORT(); }
  18:D:/Work/DeviceTester/amazon-freertos/lib/third_party/unity/src\unity.c **** #define RETURN_IF_FAIL_OR_IGNORE if (Unity.CurrentTestFailed || Unity.CurrentTestIgnored) return
  19:D:/Work/DeviceTester/amazon-freertos/lib/third_party/unity/src\unity.c **** 
  20:D:/Work/DeviceTester/amazon-freertos/lib/third_party/unity/src\unity.c **** struct UNITY_STORAGE_T Unity;
  21:D:/Work/DeviceTester/amazon-freertos/lib/third_party/unity/src\unity.c **** 
  22:D:/Work/DeviceTester/amazon-freertos/lib/third_party/unity/src\unity.c **** static const char UnityStrOk[]                     = "OK";
  23:D:/Work/DeviceTester/amazon-freertos/lib/third_party/unity/src\unity.c **** static const char UnityStrPass[]                   = "PASS";
  24:D:/Work/DeviceTester/amazon-freertos/lib/third_party/unity/src\unity.c **** static const char UnityStrFail[]                   = "FAIL";
  25:D:/Work/DeviceTester/amazon-freertos/lib/third_party/unity/src\unity.c **** static const char UnityStrIgnore[]                 = "IGNORE";
  26:D:/Work/DeviceTester/amazon-freertos/lib/third_party/unity/src\unity.c **** static const char UnityStrNull[]                   = "NULL";
  27:D:/Work/DeviceTester/amazon-freertos/lib/third_party/unity/src\unity.c **** static const char UnityStrSpacer[]                 = ". ";
  28:D:/Work/DeviceTester/amazon-freertos/lib/third_party/unity/src\unity.c **** static const char UnityStrExpected[]               = " Expected ";
  29:D:/Work/DeviceTester/amazon-freertos/lib/third_party/unity/src\unity.c **** static const char UnityStrWas[]                    = " Was ";
  30:D:/Work/DeviceTester/amazon-freertos/lib/third_party/unity/src\unity.c **** static const char UnityStrGt[]                     = " to be greater than ";
  31:D:/Work/DeviceTester/amazon-freertos/lib/third_party/unity/src\unity.c **** static const char UnityStrLt[]                     = " to be less than ";
  32:D:/Work/DeviceTester/amazon-freertos/lib/third_party/unity/src\unity.c **** static const char UnityStrElement[]                = " Element ";
  33:D:/Work/DeviceTester/amazon-freertos/lib/third_party/unity/src\unity.c **** static const char UnityStrByte[]                   = " Byte ";
  34:D:/Work/DeviceTester/amazon-freertos/lib/third_party/unity/src\unity.c **** static const char UnityStrMemory[]                 = " Memory Mismatch.";
  35:D:/Work/DeviceTester/amazon-freertos/lib/third_party/unity/src\unity.c **** static const char UnityStrDelta[]                  = " Values Not Within Delta ";
  36:D:/Work/DeviceTester/amazon-freertos/lib/third_party/unity/src\unity.c **** static const char UnityStrPointless[]              = " You Asked Me To Compare Nothing, Which Was P
  37:D:/Work/DeviceTester/amazon-freertos/lib/third_party/unity/src\unity.c **** static const char UnityStrNullPointerForExpected[] = " Expected pointer to be NULL";
  38:D:/Work/DeviceTester/amazon-freertos/lib/third_party/unity/src\unity.c **** static const char UnityStrNullPointerForActual[]   = " Actual pointer was NULL";
  39:D:/Work/DeviceTester/amazon-freertos/lib/third_party/unity/src\unity.c **** #ifndef UNITY_EXCLUDE_FLOAT
  40:D:/Work/DeviceTester/amazon-freertos/lib/third_party/unity/src\unity.c **** static const char UnityStrNot[]                    = "Not ";
  41:D:/Work/DeviceTester/amazon-freertos/lib/third_party/unity/src\unity.c **** static const char UnityStrInf[]                    = "Infinity";
  42:D:/Work/DeviceTester/amazon-freertos/lib/third_party/unity/src\unity.c **** static const char UnityStrNegInf[]                 = "Negative Infinity";
  43:D:/Work/DeviceTester/amazon-freertos/lib/third_party/unity/src\unity.c **** static const char UnityStrNaN[]                    = "NaN";
  44:D:/Work/DeviceTester/amazon-freertos/lib/third_party/unity/src\unity.c **** static const char UnityStrDet[]                    = "Determinate";
  45:D:/Work/DeviceTester/amazon-freertos/lib/third_party/unity/src\unity.c **** static const char UnityStrInvalidFloatTrait[]      = "Invalid Float Trait";
  46:D:/Work/DeviceTester/amazon-freertos/lib/third_party/unity/src\unity.c **** #endif
  47:D:/Work/DeviceTester/amazon-freertos/lib/third_party/unity/src\unity.c **** const char UnityStrErrFloat[]                      = "Unity Floating Point Disabled";
  48:D:/Work/DeviceTester/amazon-freertos/lib/third_party/unity/src\unity.c **** const char UnityStrErrDouble[]                     = "Unity Double Precision Disabled";
  49:D:/Work/DeviceTester/amazon-freertos/lib/third_party/unity/src\unity.c **** const char UnityStrErr64[]                         = "Unity 64-bit Support Disabled";
  50:D:/Work/DeviceTester/amazon-freertos/lib/third_party/unity/src\unity.c **** static const char UnityStrBreaker[]                = "-----------------------";
  51:D:/Work/DeviceTester/amazon-freertos/lib/third_party/unity/src\unity.c **** static const char UnityStrResultsTests[]           = " Tests ";
  52:D:/Work/DeviceTester/amazon-freertos/lib/third_party/unity/src\unity.c **** static const char UnityStrResultsFailures[]        = " Failures ";
  53:D:/Work/DeviceTester/amazon-freertos/lib/third_party/unity/src\unity.c **** static const char UnityStrResultsIgnored[]         = " Ignored ";
  54:D:/Work/DeviceTester/amazon-freertos/lib/third_party/unity/src\unity.c **** static const char UnityStrDetail1Name[]            = UNITY_DETAIL1_NAME " ";
  55:D:/Work/DeviceTester/amazon-freertos/lib/third_party/unity/src\unity.c **** static const char UnityStrDetail2Name[]            = " " UNITY_DETAIL2_NAME " ";
  56:D:/Work/DeviceTester/amazon-freertos/lib/third_party/unity/src\unity.c **** 
  57:D:/Work/DeviceTester/amazon-freertos/lib/third_party/unity/src\unity.c **** /*-----------------------------------------------
  58:D:/Work/DeviceTester/amazon-freertos/lib/third_party/unity/src\unity.c ****  * Pretty Printers & Test Result Output Handlers
  59:D:/Work/DeviceTester/amazon-freertos/lib/third_party/unity/src\unity.c ****  *-----------------------------------------------*/
  60:D:/Work/DeviceTester/amazon-freertos/lib/third_party/unity/src\unity.c **** 
  61:D:/Work/DeviceTester/amazon-freertos/lib/third_party/unity/src\unity.c **** void UnityPrint(const char* string)
  62:D:/Work/DeviceTester/amazon-freertos/lib/third_party/unity/src\unity.c **** {
  63:D:/Work/DeviceTester/amazon-freertos/lib/third_party/unity/src\unity.c ****     const char* pch = string;
  64:D:/Work/DeviceTester/amazon-freertos/lib/third_party/unity/src\unity.c **** 
  65:D:/Work/DeviceTester/amazon-freertos/lib/third_party/unity/src\unity.c ****     if (pch != NULL)
  66:D:/Work/DeviceTester/amazon-freertos/lib/third_party/unity/src\unity.c ****     {
  67:D:/Work/DeviceTester/amazon-freertos/lib/third_party/unity/src\unity.c ****         while (*pch)
  68:D:/Work/DeviceTester/amazon-freertos/lib/third_party/unity/src\unity.c ****         {
  69:D:/Work/DeviceTester/amazon-freertos/lib/third_party/unity/src\unity.c ****             /* printable characters plus CR & LF are printed */
  70:D:/Work/DeviceTester/amazon-freertos/lib/third_party/unity/src\unity.c ****             if ((*pch <= 126) && (*pch >= 32))
  71:D:/Work/DeviceTester/amazon-freertos/lib/third_party/unity/src\unity.c ****             {
  72:D:/Work/DeviceTester/amazon-freertos/lib/third_party/unity/src\unity.c ****                 UNITY_OUTPUT_CHAR(*pch);
  73:D:/Work/DeviceTester/amazon-freertos/lib/third_party/unity/src\unity.c ****             }
  74:D:/Work/DeviceTester/amazon-freertos/lib/third_party/unity/src\unity.c ****             /* write escaped carriage returns */
  75:D:/Work/DeviceTester/amazon-freertos/lib/third_party/unity/src\unity.c ****             else if (*pch == 13)
  76:D:/Work/DeviceTester/amazon-freertos/lib/third_party/unity/src\unity.c ****             {
  77:D:/Work/DeviceTester/amazon-freertos/lib/third_party/unity/src\unity.c ****                 UNITY_OUTPUT_CHAR('\\');
  78:D:/Work/DeviceTester/amazon-freertos/lib/third_party/unity/src\unity.c ****                 UNITY_OUTPUT_CHAR('r');
  79:D:/Work/DeviceTester/amazon-freertos/lib/third_party/unity/src\unity.c ****             }
  80:D:/Work/DeviceTester/amazon-freertos/lib/third_party/unity/src\unity.c ****             /* write escaped line feeds */
  81:D:/Work/DeviceTester/amazon-freertos/lib/third_party/unity/src\unity.c ****             else if (*pch == 10)
  82:D:/Work/DeviceTester/amazon-freertos/lib/third_party/unity/src\unity.c ****             {
  83:D:/Work/DeviceTester/amazon-freertos/lib/third_party/unity/src\unity.c ****                 UNITY_OUTPUT_CHAR('\\');
  84:D:/Work/DeviceTester/amazon-freertos/lib/third_party/unity/src\unity.c ****                 UNITY_OUTPUT_CHAR('n');
  85:D:/Work/DeviceTester/amazon-freertos/lib/third_party/unity/src\unity.c ****             }
  86:D:/Work/DeviceTester/amazon-freertos/lib/third_party/unity/src\unity.c ****             /* unprintable characters are shown as codes */
  87:D:/Work/DeviceTester/amazon-freertos/lib/third_party/unity/src\unity.c ****             else
  88:D:/Work/DeviceTester/amazon-freertos/lib/third_party/unity/src\unity.c ****             {
  89:D:/Work/DeviceTester/amazon-freertos/lib/third_party/unity/src\unity.c ****                 UNITY_OUTPUT_CHAR('\\');
  90:D:/Work/DeviceTester/amazon-freertos/lib/third_party/unity/src\unity.c ****                 UNITY_OUTPUT_CHAR('x');
  91:D:/Work/DeviceTester/amazon-freertos/lib/third_party/unity/src\unity.c ****                 UnityPrintNumberHex((UNITY_UINT)*pch, 2);
  92:D:/Work/DeviceTester/amazon-freertos/lib/third_party/unity/src\unity.c ****             }
  93:D:/Work/DeviceTester/amazon-freertos/lib/third_party/unity/src\unity.c ****             pch++;
  94:D:/Work/DeviceTester/amazon-freertos/lib/third_party/unity/src\unity.c ****         }
  95:D:/Work/DeviceTester/amazon-freertos/lib/third_party/unity/src\unity.c ****     }
  96:D:/Work/DeviceTester/amazon-freertos/lib/third_party/unity/src\unity.c **** }
  97:D:/Work/DeviceTester/amazon-freertos/lib/third_party/unity/src\unity.c **** 
  98:D:/Work/DeviceTester/amazon-freertos/lib/third_party/unity/src\unity.c **** void UnityPrintLen(const char* string, const UNITY_UINT32 length)
  99:D:/Work/DeviceTester/amazon-freertos/lib/third_party/unity/src\unity.c **** {
 100:D:/Work/DeviceTester/amazon-freertos/lib/third_party/unity/src\unity.c ****     const char* pch = string;
 101:D:/Work/DeviceTester/amazon-freertos/lib/third_party/unity/src\unity.c **** 
 102:D:/Work/DeviceTester/amazon-freertos/lib/third_party/unity/src\unity.c ****     if (pch != NULL)
 103:D:/Work/DeviceTester/amazon-freertos/lib/third_party/unity/src\unity.c ****     {
 104:D:/Work/DeviceTester/amazon-freertos/lib/third_party/unity/src\unity.c ****         while (*pch && (UNITY_UINT32)(pch - string) < length)
 105:D:/Work/DeviceTester/amazon-freertos/lib/third_party/unity/src\unity.c ****         {
 106:D:/Work/DeviceTester/amazon-freertos/lib/third_party/unity/src\unity.c ****             /* printable characters plus CR & LF are printed */
 107:D:/Work/DeviceTester/amazon-freertos/lib/third_party/unity/src\unity.c ****             if ((*pch <= 126) && (*pch >= 32))
 108:D:/Work/DeviceTester/amazon-freertos/lib/third_party/unity/src\unity.c ****             {
 109:D:/Work/DeviceTester/amazon-freertos/lib/third_party/unity/src\unity.c ****                 UNITY_OUTPUT_CHAR(*pch);
 110:D:/Work/DeviceTester/amazon-freertos/lib/third_party/unity/src\unity.c ****             }
 111:D:/Work/DeviceTester/amazon-freertos/lib/third_party/unity/src\unity.c ****             /* write escaped carriage returns */
 112:D:/Work/DeviceTester/amazon-freertos/lib/third_party/unity/src\unity.c ****             else if (*pch == 13)
 113:D:/Work/DeviceTester/amazon-freertos/lib/third_party/unity/src\unity.c ****             {
 114:D:/Work/DeviceTester/amazon-freertos/lib/third_party/unity/src\unity.c ****                 UNITY_OUTPUT_CHAR('\\');
 115:D:/Work/DeviceTester/amazon-freertos/lib/third_party/unity/src\unity.c ****                 UNITY_OUTPUT_CHAR('r');
 116:D:/Work/DeviceTester/amazon-freertos/lib/third_party/unity/src\unity.c ****             }
 117:D:/Work/DeviceTester/amazon-freertos/lib/third_party/unity/src\unity.c ****             /* write escaped line feeds */
 118:D:/Work/DeviceTester/amazon-freertos/lib/third_party/unity/src\unity.c ****             else if (*pch == 10)
 119:D:/Work/DeviceTester/amazon-freertos/lib/third_party/unity/src\unity.c ****             {
 120:D:/Work/DeviceTester/amazon-freertos/lib/third_party/unity/src\unity.c ****                 UNITY_OUTPUT_CHAR('\\');
 121:D:/Work/DeviceTester/amazon-freertos/lib/third_party/unity/src\unity.c ****                 UNITY_OUTPUT_CHAR('n');
 122:D:/Work/DeviceTester/amazon-freertos/lib/third_party/unity/src\unity.c ****             }
 123:D:/Work/DeviceTester/amazon-freertos/lib/third_party/unity/src\unity.c ****             /* unprintable characters are shown as codes */
 124:D:/Work/DeviceTester/amazon-freertos/lib/third_party/unity/src\unity.c ****             else
 125:D:/Work/DeviceTester/amazon-freertos/lib/third_party/unity/src\unity.c ****             {
 126:D:/Work/DeviceTester/amazon-freertos/lib/third_party/unity/src\unity.c ****                 UNITY_OUTPUT_CHAR('\\');
 127:D:/Work/DeviceTester/amazon-freertos/lib/third_party/unity/src\unity.c ****                 UNITY_OUTPUT_CHAR('x');
 128:D:/Work/DeviceTester/amazon-freertos/lib/third_party/unity/src\unity.c ****                 UnityPrintNumberHex((UNITY_UINT)*pch, 2);
 129:D:/Work/DeviceTester/amazon-freertos/lib/third_party/unity/src\unity.c ****             }
 130:D:/Work/DeviceTester/amazon-freertos/lib/third_party/unity/src\unity.c ****             pch++;
 131:D:/Work/DeviceTester/amazon-freertos/lib/third_party/unity/src\unity.c ****         }
 132:D:/Work/DeviceTester/amazon-freertos/lib/third_party/unity/src\unity.c ****     }
 133:D:/Work/DeviceTester/amazon-freertos/lib/third_party/unity/src\unity.c **** }
 134:D:/Work/DeviceTester/amazon-freertos/lib/third_party/unity/src\unity.c **** 
 135:D:/Work/DeviceTester/amazon-freertos/lib/third_party/unity/src\unity.c **** /*-----------------------------------------------*/
 136:D:/Work/DeviceTester/amazon-freertos/lib/third_party/unity/src\unity.c **** void UnityPrintNumberByStyle(const UNITY_INT number, const UNITY_DISPLAY_STYLE_T style)
 137:D:/Work/DeviceTester/amazon-freertos/lib/third_party/unity/src\unity.c **** {
 138:D:/Work/DeviceTester/amazon-freertos/lib/third_party/unity/src\unity.c ****     if ((style & UNITY_DISPLAY_RANGE_INT) == UNITY_DISPLAY_RANGE_INT)
 139:D:/Work/DeviceTester/amazon-freertos/lib/third_party/unity/src\unity.c ****     {
 140:D:/Work/DeviceTester/amazon-freertos/lib/third_party/unity/src\unity.c ****         UnityPrintNumber(number);
 141:D:/Work/DeviceTester/amazon-freertos/lib/third_party/unity/src\unity.c ****     }
 142:D:/Work/DeviceTester/amazon-freertos/lib/third_party/unity/src\unity.c ****     else if ((style & UNITY_DISPLAY_RANGE_UINT) == UNITY_DISPLAY_RANGE_UINT)
 143:D:/Work/DeviceTester/amazon-freertos/lib/third_party/unity/src\unity.c ****     {
 144:D:/Work/DeviceTester/amazon-freertos/lib/third_party/unity/src\unity.c ****         UnityPrintNumberUnsigned((UNITY_UINT)number);
 145:D:/Work/DeviceTester/amazon-freertos/lib/third_party/unity/src\unity.c ****     }
 146:D:/Work/DeviceTester/amazon-freertos/lib/third_party/unity/src\unity.c ****     else
 147:D:/Work/DeviceTester/amazon-freertos/lib/third_party/unity/src\unity.c ****     {
 148:D:/Work/DeviceTester/amazon-freertos/lib/third_party/unity/src\unity.c ****         UNITY_OUTPUT_CHAR('0');
 149:D:/Work/DeviceTester/amazon-freertos/lib/third_party/unity/src\unity.c ****         UNITY_OUTPUT_CHAR('x');
 150:D:/Work/DeviceTester/amazon-freertos/lib/third_party/unity/src\unity.c ****         UnityPrintNumberHex((UNITY_UINT)number, (char)((style & 0xF) * 2));
 151:D:/Work/DeviceTester/amazon-freertos/lib/third_party/unity/src\unity.c ****     }
 152:D:/Work/DeviceTester/amazon-freertos/lib/third_party/unity/src\unity.c **** }
 153:D:/Work/DeviceTester/amazon-freertos/lib/third_party/unity/src\unity.c **** 
 154:D:/Work/DeviceTester/amazon-freertos/lib/third_party/unity/src\unity.c **** /*-----------------------------------------------*/
 155:D:/Work/DeviceTester/amazon-freertos/lib/third_party/unity/src\unity.c **** void UnityPrintNumber(const UNITY_INT number_to_print)
 156:D:/Work/DeviceTester/amazon-freertos/lib/third_party/unity/src\unity.c **** {
 157:D:/Work/DeviceTester/amazon-freertos/lib/third_party/unity/src\unity.c ****     UNITY_UINT number = (UNITY_UINT)number_to_print;
 158:D:/Work/DeviceTester/amazon-freertos/lib/third_party/unity/src\unity.c **** 
 159:D:/Work/DeviceTester/amazon-freertos/lib/third_party/unity/src\unity.c ****     if (number_to_print < 0)
 160:D:/Work/DeviceTester/amazon-freertos/lib/third_party/unity/src\unity.c ****     {
 161:D:/Work/DeviceTester/amazon-freertos/lib/third_party/unity/src\unity.c ****         /* A negative number, including MIN negative */
 162:D:/Work/DeviceTester/amazon-freertos/lib/third_party/unity/src\unity.c ****         UNITY_OUTPUT_CHAR('-');
 163:D:/Work/DeviceTester/amazon-freertos/lib/third_party/unity/src\unity.c ****         number = (UNITY_UINT)(-number_to_print);
 164:D:/Work/DeviceTester/amazon-freertos/lib/third_party/unity/src\unity.c ****     }
 165:D:/Work/DeviceTester/amazon-freertos/lib/third_party/unity/src\unity.c ****     UnityPrintNumberUnsigned(number);
 166:D:/Work/DeviceTester/amazon-freertos/lib/third_party/unity/src\unity.c **** }
 167:D:/Work/DeviceTester/amazon-freertos/lib/third_party/unity/src\unity.c **** 
 168:D:/Work/DeviceTester/amazon-freertos/lib/third_party/unity/src\unity.c **** /*-----------------------------------------------
 169:D:/Work/DeviceTester/amazon-freertos/lib/third_party/unity/src\unity.c ****  * basically do an itoa using as little ram as possible */
 170:D:/Work/DeviceTester/amazon-freertos/lib/third_party/unity/src\unity.c **** void UnityPrintNumberUnsigned(const UNITY_UINT number)
 171:D:/Work/DeviceTester/amazon-freertos/lib/third_party/unity/src\unity.c **** {
 172:D:/Work/DeviceTester/amazon-freertos/lib/third_party/unity/src\unity.c ****     UNITY_UINT divisor = 1;
 173:D:/Work/DeviceTester/amazon-freertos/lib/third_party/unity/src\unity.c **** 
 174:D:/Work/DeviceTester/amazon-freertos/lib/third_party/unity/src\unity.c ****     /* figure out initial divisor */
 175:D:/Work/DeviceTester/amazon-freertos/lib/third_party/unity/src\unity.c ****     while (number / divisor > 9)
 176:D:/Work/DeviceTester/amazon-freertos/lib/third_party/unity/src\unity.c ****     {
 177:D:/Work/DeviceTester/amazon-freertos/lib/third_party/unity/src\unity.c ****         divisor *= 10;
 178:D:/Work/DeviceTester/amazon-freertos/lib/third_party/unity/src\unity.c ****     }
 179:D:/Work/DeviceTester/amazon-freertos/lib/third_party/unity/src\unity.c **** 
 180:D:/Work/DeviceTester/amazon-freertos/lib/third_party/unity/src\unity.c ****     /* now mod and print, then divide divisor */
 181:D:/Work/DeviceTester/amazon-freertos/lib/third_party/unity/src\unity.c ****     do
 182:D:/Work/DeviceTester/amazon-freertos/lib/third_party/unity/src\unity.c ****     {
 183:D:/Work/DeviceTester/amazon-freertos/lib/third_party/unity/src\unity.c ****         UNITY_OUTPUT_CHAR((char)('0' + (number / divisor % 10)));
 184:D:/Work/DeviceTester/amazon-freertos/lib/third_party/unity/src\unity.c ****         divisor /= 10;
 185:D:/Work/DeviceTester/amazon-freertos/lib/third_party/unity/src\unity.c ****     } while (divisor > 0);
 186:D:/Work/DeviceTester/amazon-freertos/lib/third_party/unity/src\unity.c **** }
 187:D:/Work/DeviceTester/amazon-freertos/lib/third_party/unity/src\unity.c **** 
 188:D:/Work/DeviceTester/amazon-freertos/lib/third_party/unity/src\unity.c **** /*-----------------------------------------------*/
 189:D:/Work/DeviceTester/amazon-freertos/lib/third_party/unity/src\unity.c **** void UnityPrintNumberHex(const UNITY_UINT number, const char nibbles_to_print)
 190:D:/Work/DeviceTester/amazon-freertos/lib/third_party/unity/src\unity.c **** {
 191:D:/Work/DeviceTester/amazon-freertos/lib/third_party/unity/src\unity.c ****     int nibble;
 192:D:/Work/DeviceTester/amazon-freertos/lib/third_party/unity/src\unity.c ****     char nibbles = nibbles_to_print;
 193:D:/Work/DeviceTester/amazon-freertos/lib/third_party/unity/src\unity.c ****     if ((unsigned)nibbles > (2 * sizeof(number)))
 194:D:/Work/DeviceTester/amazon-freertos/lib/third_party/unity/src\unity.c ****         nibbles = 2 * sizeof(number);
 195:D:/Work/DeviceTester/amazon-freertos/lib/third_party/unity/src\unity.c **** 
 196:D:/Work/DeviceTester/amazon-freertos/lib/third_party/unity/src\unity.c ****     while (nibbles > 0)
 197:D:/Work/DeviceTester/amazon-freertos/lib/third_party/unity/src\unity.c ****     {
 198:D:/Work/DeviceTester/amazon-freertos/lib/third_party/unity/src\unity.c ****         nibbles--;
 199:D:/Work/DeviceTester/amazon-freertos/lib/third_party/unity/src\unity.c ****         nibble = (int)(number >> (nibbles * 4)) & 0x0F;
 200:D:/Work/DeviceTester/amazon-freertos/lib/third_party/unity/src\unity.c ****         if (nibble <= 9)
 201:D:/Work/DeviceTester/amazon-freertos/lib/third_party/unity/src\unity.c ****         {
 202:D:/Work/DeviceTester/amazon-freertos/lib/third_party/unity/src\unity.c ****             UNITY_OUTPUT_CHAR((char)('0' + nibble));
 203:D:/Work/DeviceTester/amazon-freertos/lib/third_party/unity/src\unity.c ****         }
 204:D:/Work/DeviceTester/amazon-freertos/lib/third_party/unity/src\unity.c ****         else
 205:D:/Work/DeviceTester/amazon-freertos/lib/third_party/unity/src\unity.c ****         {
 206:D:/Work/DeviceTester/amazon-freertos/lib/third_party/unity/src\unity.c ****             UNITY_OUTPUT_CHAR((char)('A' - 10 + nibble));
 207:D:/Work/DeviceTester/amazon-freertos/lib/third_party/unity/src\unity.c ****         }
 208:D:/Work/DeviceTester/amazon-freertos/lib/third_party/unity/src\unity.c ****     }
 209:D:/Work/DeviceTester/amazon-freertos/lib/third_party/unity/src\unity.c **** }
 210:D:/Work/DeviceTester/amazon-freertos/lib/third_party/unity/src\unity.c **** 
 211:D:/Work/DeviceTester/amazon-freertos/lib/third_party/unity/src\unity.c **** /*-----------------------------------------------*/
 212:D:/Work/DeviceTester/amazon-freertos/lib/third_party/unity/src\unity.c **** void UnityPrintMask(const UNITY_UINT mask, const UNITY_UINT number)
 213:D:/Work/DeviceTester/amazon-freertos/lib/third_party/unity/src\unity.c **** {
 214:D:/Work/DeviceTester/amazon-freertos/lib/third_party/unity/src\unity.c ****     UNITY_UINT current_bit = (UNITY_UINT)1 << (UNITY_INT_WIDTH - 1);
 215:D:/Work/DeviceTester/amazon-freertos/lib/third_party/unity/src\unity.c ****     UNITY_INT32 i;
 216:D:/Work/DeviceTester/amazon-freertos/lib/third_party/unity/src\unity.c **** 
 217:D:/Work/DeviceTester/amazon-freertos/lib/third_party/unity/src\unity.c ****     for (i = 0; i < UNITY_INT_WIDTH; i++)
 218:D:/Work/DeviceTester/amazon-freertos/lib/third_party/unity/src\unity.c ****     {
 219:D:/Work/DeviceTester/amazon-freertos/lib/third_party/unity/src\unity.c ****         if (current_bit & mask)
 220:D:/Work/DeviceTester/amazon-freertos/lib/third_party/unity/src\unity.c ****         {
 221:D:/Work/DeviceTester/amazon-freertos/lib/third_party/unity/src\unity.c ****             if (current_bit & number)
 222:D:/Work/DeviceTester/amazon-freertos/lib/third_party/unity/src\unity.c ****             {
 223:D:/Work/DeviceTester/amazon-freertos/lib/third_party/unity/src\unity.c ****                 UNITY_OUTPUT_CHAR('1');
 224:D:/Work/DeviceTester/amazon-freertos/lib/third_party/unity/src\unity.c ****             }
 225:D:/Work/DeviceTester/amazon-freertos/lib/third_party/unity/src\unity.c ****             else
 226:D:/Work/DeviceTester/amazon-freertos/lib/third_party/unity/src\unity.c ****             {
 227:D:/Work/DeviceTester/amazon-freertos/lib/third_party/unity/src\unity.c ****                 UNITY_OUTPUT_CHAR('0');
 228:D:/Work/DeviceTester/amazon-freertos/lib/third_party/unity/src\unity.c ****             }
 229:D:/Work/DeviceTester/amazon-freertos/lib/third_party/unity/src\unity.c ****         }
 230:D:/Work/DeviceTester/amazon-freertos/lib/third_party/unity/src\unity.c ****         else
 231:D:/Work/DeviceTester/amazon-freertos/lib/third_party/unity/src\unity.c ****         {
 232:D:/Work/DeviceTester/amazon-freertos/lib/third_party/unity/src\unity.c ****             UNITY_OUTPUT_CHAR('X');
 233:D:/Work/DeviceTester/amazon-freertos/lib/third_party/unity/src\unity.c ****         }
 234:D:/Work/DeviceTester/amazon-freertos/lib/third_party/unity/src\unity.c ****         current_bit = current_bit >> 1;
 235:D:/Work/DeviceTester/amazon-freertos/lib/third_party/unity/src\unity.c ****     }
 236:D:/Work/DeviceTester/amazon-freertos/lib/third_party/unity/src\unity.c **** }
 237:D:/Work/DeviceTester/amazon-freertos/lib/third_party/unity/src\unity.c **** 
 238:D:/Work/DeviceTester/amazon-freertos/lib/third_party/unity/src\unity.c **** /*-----------------------------------------------*/
 239:D:/Work/DeviceTester/amazon-freertos/lib/third_party/unity/src\unity.c **** #ifndef UNITY_EXCLUDE_FLOAT_PRINT
 240:D:/Work/DeviceTester/amazon-freertos/lib/third_party/unity/src\unity.c **** /* This function prints a floating-point value in a format similar to
 241:D:/Work/DeviceTester/amazon-freertos/lib/third_party/unity/src\unity.c ****  * printf("%.6g").  It can work with either single- or double-precision,
 242:D:/Work/DeviceTester/amazon-freertos/lib/third_party/unity/src\unity.c ****  * but for simplicity, it prints only 6 significant digits in either case.
 243:D:/Work/DeviceTester/amazon-freertos/lib/third_party/unity/src\unity.c ****  * Printing more than 6 digits accurately is hard (at least in the single-
 244:D:/Work/DeviceTester/amazon-freertos/lib/third_party/unity/src\unity.c ****  * precision case) and isn't attempted here. */
 245:D:/Work/DeviceTester/amazon-freertos/lib/third_party/unity/src\unity.c **** void UnityPrintFloat(const UNITY_DOUBLE input_number)
 246:D:/Work/DeviceTester/amazon-freertos/lib/third_party/unity/src\unity.c **** {
 247:D:/Work/DeviceTester/amazon-freertos/lib/third_party/unity/src\unity.c ****     UNITY_DOUBLE number = input_number;
 248:D:/Work/DeviceTester/amazon-freertos/lib/third_party/unity/src\unity.c **** 
 249:D:/Work/DeviceTester/amazon-freertos/lib/third_party/unity/src\unity.c ****     /* print minus sign (including for negative zero) */
 250:D:/Work/DeviceTester/amazon-freertos/lib/third_party/unity/src\unity.c ****     if (number < 0.0f || (number == 0.0f && 1.0f / number < 0.0f))
 251:D:/Work/DeviceTester/amazon-freertos/lib/third_party/unity/src\unity.c ****     {
 252:D:/Work/DeviceTester/amazon-freertos/lib/third_party/unity/src\unity.c ****         UNITY_OUTPUT_CHAR('-');
 253:D:/Work/DeviceTester/amazon-freertos/lib/third_party/unity/src\unity.c ****         number = -number;
 254:D:/Work/DeviceTester/amazon-freertos/lib/third_party/unity/src\unity.c ****     }
 255:D:/Work/DeviceTester/amazon-freertos/lib/third_party/unity/src\unity.c **** 
 256:D:/Work/DeviceTester/amazon-freertos/lib/third_party/unity/src\unity.c ****     /* handle zero, NaN, and +/- infinity */
 257:D:/Work/DeviceTester/amazon-freertos/lib/third_party/unity/src\unity.c ****     if (number == 0.0f) UnityPrint("0");
 258:D:/Work/DeviceTester/amazon-freertos/lib/third_party/unity/src\unity.c ****     else if (isnan(number)) UnityPrint("nan");
 259:D:/Work/DeviceTester/amazon-freertos/lib/third_party/unity/src\unity.c ****     else if (isinf(number)) UnityPrint("inf");
 260:D:/Work/DeviceTester/amazon-freertos/lib/third_party/unity/src\unity.c ****     else
 261:D:/Work/DeviceTester/amazon-freertos/lib/third_party/unity/src\unity.c ****     {
 262:D:/Work/DeviceTester/amazon-freertos/lib/third_party/unity/src\unity.c ****         int exponent = 0;
 263:D:/Work/DeviceTester/amazon-freertos/lib/third_party/unity/src\unity.c ****         int decimals, digits;
 264:D:/Work/DeviceTester/amazon-freertos/lib/third_party/unity/src\unity.c ****         UNITY_INT32 n;
 265:D:/Work/DeviceTester/amazon-freertos/lib/third_party/unity/src\unity.c ****         char buf[16];
 266:D:/Work/DeviceTester/amazon-freertos/lib/third_party/unity/src\unity.c **** 
 267:D:/Work/DeviceTester/amazon-freertos/lib/third_party/unity/src\unity.c ****         /* scale up or down by powers of 10 */
 268:D:/Work/DeviceTester/amazon-freertos/lib/third_party/unity/src\unity.c ****         while (number < 100000.0f / 1e6f)  { number *= 1e6f; exponent -= 6; }
 269:D:/Work/DeviceTester/amazon-freertos/lib/third_party/unity/src\unity.c ****         while (number < 100000.0f)         { number *= 10.0f; exponent--; }
 270:D:/Work/DeviceTester/amazon-freertos/lib/third_party/unity/src\unity.c ****         while (number > 1000000.0f * 1e6f) { number /= 1e6f; exponent += 6; }
 271:D:/Work/DeviceTester/amazon-freertos/lib/third_party/unity/src\unity.c ****         while (number > 1000000.0f)        { number /= 10.0f; exponent++; }
 272:D:/Work/DeviceTester/amazon-freertos/lib/third_party/unity/src\unity.c **** 
 273:D:/Work/DeviceTester/amazon-freertos/lib/third_party/unity/src\unity.c ****         /* round to nearest integer */
 274:D:/Work/DeviceTester/amazon-freertos/lib/third_party/unity/src\unity.c ****         n = ((UNITY_INT32)(number + number) + 1) / 2;
 275:D:/Work/DeviceTester/amazon-freertos/lib/third_party/unity/src\unity.c ****         if (n > 999999)
 276:D:/Work/DeviceTester/amazon-freertos/lib/third_party/unity/src\unity.c ****         {
 277:D:/Work/DeviceTester/amazon-freertos/lib/third_party/unity/src\unity.c ****             n = 100000;
 278:D:/Work/DeviceTester/amazon-freertos/lib/third_party/unity/src\unity.c ****             exponent++;
 279:D:/Work/DeviceTester/amazon-freertos/lib/third_party/unity/src\unity.c ****         }
 280:D:/Work/DeviceTester/amazon-freertos/lib/third_party/unity/src\unity.c **** 
 281:D:/Work/DeviceTester/amazon-freertos/lib/third_party/unity/src\unity.c ****         /* determine where to place decimal point */
 282:D:/Work/DeviceTester/amazon-freertos/lib/third_party/unity/src\unity.c ****         decimals = (exponent <= 0 && exponent >= -9) ? -exponent : 5;
 283:D:/Work/DeviceTester/amazon-freertos/lib/third_party/unity/src\unity.c ****         exponent += decimals;
 284:D:/Work/DeviceTester/amazon-freertos/lib/third_party/unity/src\unity.c **** 
 285:D:/Work/DeviceTester/amazon-freertos/lib/third_party/unity/src\unity.c ****         /* truncate trailing zeroes after decimal point */
 286:D:/Work/DeviceTester/amazon-freertos/lib/third_party/unity/src\unity.c ****         while (decimals > 0 && n % 10 == 0)
 287:D:/Work/DeviceTester/amazon-freertos/lib/third_party/unity/src\unity.c ****         {
 288:D:/Work/DeviceTester/amazon-freertos/lib/third_party/unity/src\unity.c ****             n /= 10;
 289:D:/Work/DeviceTester/amazon-freertos/lib/third_party/unity/src\unity.c ****             decimals--;
 290:D:/Work/DeviceTester/amazon-freertos/lib/third_party/unity/src\unity.c ****         }
 291:D:/Work/DeviceTester/amazon-freertos/lib/third_party/unity/src\unity.c **** 
 292:D:/Work/DeviceTester/amazon-freertos/lib/third_party/unity/src\unity.c ****         /* build up buffer in reverse order */
 293:D:/Work/DeviceTester/amazon-freertos/lib/third_party/unity/src\unity.c ****         digits = 0;
 294:D:/Work/DeviceTester/amazon-freertos/lib/third_party/unity/src\unity.c ****         while (n != 0 || digits < decimals + 1)
 295:D:/Work/DeviceTester/amazon-freertos/lib/third_party/unity/src\unity.c ****         {
 296:D:/Work/DeviceTester/amazon-freertos/lib/third_party/unity/src\unity.c ****             buf[digits++] = (char)('0' + n % 10);
 297:D:/Work/DeviceTester/amazon-freertos/lib/third_party/unity/src\unity.c ****             n /= 10;
 298:D:/Work/DeviceTester/amazon-freertos/lib/third_party/unity/src\unity.c ****         }
 299:D:/Work/DeviceTester/amazon-freertos/lib/third_party/unity/src\unity.c ****         while (digits > 0)
 300:D:/Work/DeviceTester/amazon-freertos/lib/third_party/unity/src\unity.c ****         {
 301:D:/Work/DeviceTester/amazon-freertos/lib/third_party/unity/src\unity.c ****             if(digits == decimals) UNITY_OUTPUT_CHAR('.');
 302:D:/Work/DeviceTester/amazon-freertos/lib/third_party/unity/src\unity.c ****             UNITY_OUTPUT_CHAR(buf[--digits]);
 303:D:/Work/DeviceTester/amazon-freertos/lib/third_party/unity/src\unity.c ****         }
 304:D:/Work/DeviceTester/amazon-freertos/lib/third_party/unity/src\unity.c **** 
 305:D:/Work/DeviceTester/amazon-freertos/lib/third_party/unity/src\unity.c ****         /* print exponent if needed */
 306:D:/Work/DeviceTester/amazon-freertos/lib/third_party/unity/src\unity.c ****         if (exponent != 0)
 307:D:/Work/DeviceTester/amazon-freertos/lib/third_party/unity/src\unity.c ****         {
 308:D:/Work/DeviceTester/amazon-freertos/lib/third_party/unity/src\unity.c ****             UNITY_OUTPUT_CHAR('e');
 309:D:/Work/DeviceTester/amazon-freertos/lib/third_party/unity/src\unity.c **** 
 310:D:/Work/DeviceTester/amazon-freertos/lib/third_party/unity/src\unity.c ****             if(exponent < 0)
 311:D:/Work/DeviceTester/amazon-freertos/lib/third_party/unity/src\unity.c ****             {
 312:D:/Work/DeviceTester/amazon-freertos/lib/third_party/unity/src\unity.c ****                 UNITY_OUTPUT_CHAR('-');
 313:D:/Work/DeviceTester/amazon-freertos/lib/third_party/unity/src\unity.c ****                 exponent = -exponent;
 314:D:/Work/DeviceTester/amazon-freertos/lib/third_party/unity/src\unity.c ****             }
 315:D:/Work/DeviceTester/amazon-freertos/lib/third_party/unity/src\unity.c ****             else
 316:D:/Work/DeviceTester/amazon-freertos/lib/third_party/unity/src\unity.c ****             {
 317:D:/Work/DeviceTester/amazon-freertos/lib/third_party/unity/src\unity.c ****                 UNITY_OUTPUT_CHAR('+');
 318:D:/Work/DeviceTester/amazon-freertos/lib/third_party/unity/src\unity.c ****             }
 319:D:/Work/DeviceTester/amazon-freertos/lib/third_party/unity/src\unity.c **** 
 320:D:/Work/DeviceTester/amazon-freertos/lib/third_party/unity/src\unity.c ****             digits = 0;
 321:D:/Work/DeviceTester/amazon-freertos/lib/third_party/unity/src\unity.c ****             while (exponent != 0 || digits < 2)
 322:D:/Work/DeviceTester/amazon-freertos/lib/third_party/unity/src\unity.c ****             {
 323:D:/Work/DeviceTester/amazon-freertos/lib/third_party/unity/src\unity.c ****                 buf[digits++] = (char)('0' + exponent % 10);
 324:D:/Work/DeviceTester/amazon-freertos/lib/third_party/unity/src\unity.c ****                 exponent /= 10;
 325:D:/Work/DeviceTester/amazon-freertos/lib/third_party/unity/src\unity.c ****             }
 326:D:/Work/DeviceTester/amazon-freertos/lib/third_party/unity/src\unity.c ****             while (digits > 0)
 327:D:/Work/DeviceTester/amazon-freertos/lib/third_party/unity/src\unity.c ****             {
 328:D:/Work/DeviceTester/amazon-freertos/lib/third_party/unity/src\unity.c ****                 UNITY_OUTPUT_CHAR(buf[--digits]);
 329:D:/Work/DeviceTester/amazon-freertos/lib/third_party/unity/src\unity.c ****             }
 330:D:/Work/DeviceTester/amazon-freertos/lib/third_party/unity/src\unity.c ****         }
 331:D:/Work/DeviceTester/amazon-freertos/lib/third_party/unity/src\unity.c ****     }
 332:D:/Work/DeviceTester/amazon-freertos/lib/third_party/unity/src\unity.c **** }
 333:D:/Work/DeviceTester/amazon-freertos/lib/third_party/unity/src\unity.c **** #endif /* ! UNITY_EXCLUDE_FLOAT_PRINT */
 334:D:/Work/DeviceTester/amazon-freertos/lib/third_party/unity/src\unity.c **** 
 335:D:/Work/DeviceTester/amazon-freertos/lib/third_party/unity/src\unity.c **** /*-----------------------------------------------*/
 336:D:/Work/DeviceTester/amazon-freertos/lib/third_party/unity/src\unity.c **** static void UnityTestResultsBegin(const char* file, const UNITY_LINE_TYPE line)
 337:D:/Work/DeviceTester/amazon-freertos/lib/third_party/unity/src\unity.c **** {
 338:D:/Work/DeviceTester/amazon-freertos/lib/third_party/unity/src\unity.c ****     UnityPrint(file);
 339:D:/Work/DeviceTester/amazon-freertos/lib/third_party/unity/src\unity.c ****     UNITY_OUTPUT_CHAR(':');
 340:D:/Work/DeviceTester/amazon-freertos/lib/third_party/unity/src\unity.c ****     UnityPrintNumber((UNITY_INT)line);
 341:D:/Work/DeviceTester/amazon-freertos/lib/third_party/unity/src\unity.c ****     UNITY_OUTPUT_CHAR(':');
 342:D:/Work/DeviceTester/amazon-freertos/lib/third_party/unity/src\unity.c ****     UnityPrint(Unity.CurrentTestName);
 343:D:/Work/DeviceTester/amazon-freertos/lib/third_party/unity/src\unity.c ****     UNITY_OUTPUT_CHAR(':');
 344:D:/Work/DeviceTester/amazon-freertos/lib/third_party/unity/src\unity.c **** }
 345:D:/Work/DeviceTester/amazon-freertos/lib/third_party/unity/src\unity.c **** 
 346:D:/Work/DeviceTester/amazon-freertos/lib/third_party/unity/src\unity.c **** /*-----------------------------------------------*/
 347:D:/Work/DeviceTester/amazon-freertos/lib/third_party/unity/src\unity.c **** static void UnityTestResultsFailBegin(const UNITY_LINE_TYPE line)
 348:D:/Work/DeviceTester/amazon-freertos/lib/third_party/unity/src\unity.c **** {
 349:D:/Work/DeviceTester/amazon-freertos/lib/third_party/unity/src\unity.c ****     UnityTestResultsBegin(Unity.TestFile, line);
 350:D:/Work/DeviceTester/amazon-freertos/lib/third_party/unity/src\unity.c ****     UnityPrint(UnityStrFail);
 351:D:/Work/DeviceTester/amazon-freertos/lib/third_party/unity/src\unity.c ****     UNITY_OUTPUT_CHAR(':');
 352:D:/Work/DeviceTester/amazon-freertos/lib/third_party/unity/src\unity.c **** }
 353:D:/Work/DeviceTester/amazon-freertos/lib/third_party/unity/src\unity.c **** 
 354:D:/Work/DeviceTester/amazon-freertos/lib/third_party/unity/src\unity.c **** /*-----------------------------------------------*/
 355:D:/Work/DeviceTester/amazon-freertos/lib/third_party/unity/src\unity.c **** void UnityConcludeTest(void)
 356:D:/Work/DeviceTester/amazon-freertos/lib/third_party/unity/src\unity.c **** {
 357:D:/Work/DeviceTester/amazon-freertos/lib/third_party/unity/src\unity.c ****     if (Unity.CurrentTestIgnored)
 358:D:/Work/DeviceTester/amazon-freertos/lib/third_party/unity/src\unity.c ****     {
 359:D:/Work/DeviceTester/amazon-freertos/lib/third_party/unity/src\unity.c ****         Unity.TestIgnores++;
 360:D:/Work/DeviceTester/amazon-freertos/lib/third_party/unity/src\unity.c ****     }
 361:D:/Work/DeviceTester/amazon-freertos/lib/third_party/unity/src\unity.c ****     else if (!Unity.CurrentTestFailed)
 362:D:/Work/DeviceTester/amazon-freertos/lib/third_party/unity/src\unity.c ****     {
 363:D:/Work/DeviceTester/amazon-freertos/lib/third_party/unity/src\unity.c ****         UnityTestResultsBegin(Unity.TestFile, Unity.CurrentTestLineNumber);
 364:D:/Work/DeviceTester/amazon-freertos/lib/third_party/unity/src\unity.c ****         UnityPrint(UnityStrPass);
 365:D:/Work/DeviceTester/amazon-freertos/lib/third_party/unity/src\unity.c ****     }
 366:D:/Work/DeviceTester/amazon-freertos/lib/third_party/unity/src\unity.c ****     else
 367:D:/Work/DeviceTester/amazon-freertos/lib/third_party/unity/src\unity.c ****     {
 368:D:/Work/DeviceTester/amazon-freertos/lib/third_party/unity/src\unity.c ****         Unity.TestFailures++;
 369:D:/Work/DeviceTester/amazon-freertos/lib/third_party/unity/src\unity.c ****     }
 370:D:/Work/DeviceTester/amazon-freertos/lib/third_party/unity/src\unity.c **** 
 371:D:/Work/DeviceTester/amazon-freertos/lib/third_party/unity/src\unity.c ****     Unity.CurrentTestFailed = 0;
 372:D:/Work/DeviceTester/amazon-freertos/lib/third_party/unity/src\unity.c ****     Unity.CurrentTestIgnored = 0;
 373:D:/Work/DeviceTester/amazon-freertos/lib/third_party/unity/src\unity.c ****     UNITY_PRINT_EOL();
 374:D:/Work/DeviceTester/amazon-freertos/lib/third_party/unity/src\unity.c ****     UNITY_FLUSH_CALL();
 375:D:/Work/DeviceTester/amazon-freertos/lib/third_party/unity/src\unity.c **** }
 376:D:/Work/DeviceTester/amazon-freertos/lib/third_party/unity/src\unity.c **** 
 377:D:/Work/DeviceTester/amazon-freertos/lib/third_party/unity/src\unity.c **** /*-----------------------------------------------*/
 378:D:/Work/DeviceTester/amazon-freertos/lib/third_party/unity/src\unity.c **** static void UnityAddMsgIfSpecified(const char* msg)
 379:D:/Work/DeviceTester/amazon-freertos/lib/third_party/unity/src\unity.c **** {
 380:D:/Work/DeviceTester/amazon-freertos/lib/third_party/unity/src\unity.c ****     if (msg)
 381:D:/Work/DeviceTester/amazon-freertos/lib/third_party/unity/src\unity.c ****     {
 382:D:/Work/DeviceTester/amazon-freertos/lib/third_party/unity/src\unity.c ****         UnityPrint(UnityStrSpacer);
 383:D:/Work/DeviceTester/amazon-freertos/lib/third_party/unity/src\unity.c **** #ifndef UNITY_EXCLUDE_DETAILS
 384:D:/Work/DeviceTester/amazon-freertos/lib/third_party/unity/src\unity.c ****         if (Unity.CurrentDetail1)
 385:D:/Work/DeviceTester/amazon-freertos/lib/third_party/unity/src\unity.c ****         {
 386:D:/Work/DeviceTester/amazon-freertos/lib/third_party/unity/src\unity.c ****             UnityPrint(UnityStrDetail1Name);
 387:D:/Work/DeviceTester/amazon-freertos/lib/third_party/unity/src\unity.c ****             UnityPrint(Unity.CurrentDetail1);
 388:D:/Work/DeviceTester/amazon-freertos/lib/third_party/unity/src\unity.c ****             if (Unity.CurrentDetail2)
 389:D:/Work/DeviceTester/amazon-freertos/lib/third_party/unity/src\unity.c ****             {
 390:D:/Work/DeviceTester/amazon-freertos/lib/third_party/unity/src\unity.c ****                 UnityPrint(UnityStrDetail2Name);
 391:D:/Work/DeviceTester/amazon-freertos/lib/third_party/unity/src\unity.c ****                 UnityPrint(Unity.CurrentDetail2);
 392:D:/Work/DeviceTester/amazon-freertos/lib/third_party/unity/src\unity.c ****             }
 393:D:/Work/DeviceTester/amazon-freertos/lib/third_party/unity/src\unity.c ****             UnityPrint(UnityStrSpacer);
 394:D:/Work/DeviceTester/amazon-freertos/lib/third_party/unity/src\unity.c ****         }
 395:D:/Work/DeviceTester/amazon-freertos/lib/third_party/unity/src\unity.c **** #endif
 396:D:/Work/DeviceTester/amazon-freertos/lib/third_party/unity/src\unity.c ****         UnityPrint(msg);
 397:D:/Work/DeviceTester/amazon-freertos/lib/third_party/unity/src\unity.c ****     }
 398:D:/Work/DeviceTester/amazon-freertos/lib/third_party/unity/src\unity.c **** }
 399:D:/Work/DeviceTester/amazon-freertos/lib/third_party/unity/src\unity.c **** 
 400:D:/Work/DeviceTester/amazon-freertos/lib/third_party/unity/src\unity.c **** /*-----------------------------------------------*/
 401:D:/Work/DeviceTester/amazon-freertos/lib/third_party/unity/src\unity.c **** static void UnityPrintExpectedAndActualStrings(const char* expected, const char* actual)
 402:D:/Work/DeviceTester/amazon-freertos/lib/third_party/unity/src\unity.c **** {
 403:D:/Work/DeviceTester/amazon-freertos/lib/third_party/unity/src\unity.c ****     UnityPrint(UnityStrExpected);
 404:D:/Work/DeviceTester/amazon-freertos/lib/third_party/unity/src\unity.c ****     if (expected != NULL)
 405:D:/Work/DeviceTester/amazon-freertos/lib/third_party/unity/src\unity.c ****     {
 406:D:/Work/DeviceTester/amazon-freertos/lib/third_party/unity/src\unity.c ****         UNITY_OUTPUT_CHAR('\'');
 407:D:/Work/DeviceTester/amazon-freertos/lib/third_party/unity/src\unity.c ****         UnityPrint(expected);
 408:D:/Work/DeviceTester/amazon-freertos/lib/third_party/unity/src\unity.c ****         UNITY_OUTPUT_CHAR('\'');
 409:D:/Work/DeviceTester/amazon-freertos/lib/third_party/unity/src\unity.c ****     }
 410:D:/Work/DeviceTester/amazon-freertos/lib/third_party/unity/src\unity.c ****     else
 411:D:/Work/DeviceTester/amazon-freertos/lib/third_party/unity/src\unity.c ****     {
 412:D:/Work/DeviceTester/amazon-freertos/lib/third_party/unity/src\unity.c ****         UnityPrint(UnityStrNull);
 413:D:/Work/DeviceTester/amazon-freertos/lib/third_party/unity/src\unity.c ****     }
 414:D:/Work/DeviceTester/amazon-freertos/lib/third_party/unity/src\unity.c ****     UnityPrint(UnityStrWas);
 415:D:/Work/DeviceTester/amazon-freertos/lib/third_party/unity/src\unity.c ****     if (actual != NULL)
 416:D:/Work/DeviceTester/amazon-freertos/lib/third_party/unity/src\unity.c ****     {
 417:D:/Work/DeviceTester/amazon-freertos/lib/third_party/unity/src\unity.c ****         UNITY_OUTPUT_CHAR('\'');
 418:D:/Work/DeviceTester/amazon-freertos/lib/third_party/unity/src\unity.c ****         UnityPrint(actual);
 419:D:/Work/DeviceTester/amazon-freertos/lib/third_party/unity/src\unity.c ****         UNITY_OUTPUT_CHAR('\'');
 420:D:/Work/DeviceTester/amazon-freertos/lib/third_party/unity/src\unity.c ****     }
 421:D:/Work/DeviceTester/amazon-freertos/lib/third_party/unity/src\unity.c ****     else
 422:D:/Work/DeviceTester/amazon-freertos/lib/third_party/unity/src\unity.c ****     {
 423:D:/Work/DeviceTester/amazon-freertos/lib/third_party/unity/src\unity.c ****         UnityPrint(UnityStrNull);
 424:D:/Work/DeviceTester/amazon-freertos/lib/third_party/unity/src\unity.c ****     }
 425:D:/Work/DeviceTester/amazon-freertos/lib/third_party/unity/src\unity.c **** }
 426:D:/Work/DeviceTester/amazon-freertos/lib/third_party/unity/src\unity.c **** 
 427:D:/Work/DeviceTester/amazon-freertos/lib/third_party/unity/src\unity.c **** /*-----------------------------------------------*/
 428:D:/Work/DeviceTester/amazon-freertos/lib/third_party/unity/src\unity.c **** static void UnityPrintExpectedAndActualStringsLen(const char* expected,
 429:D:/Work/DeviceTester/amazon-freertos/lib/third_party/unity/src\unity.c ****                                                   const char* actual,
 430:D:/Work/DeviceTester/amazon-freertos/lib/third_party/unity/src\unity.c ****                                                   const UNITY_UINT32 length)
 431:D:/Work/DeviceTester/amazon-freertos/lib/third_party/unity/src\unity.c **** {
 432:D:/Work/DeviceTester/amazon-freertos/lib/third_party/unity/src\unity.c ****     UnityPrint(UnityStrExpected);
 433:D:/Work/DeviceTester/amazon-freertos/lib/third_party/unity/src\unity.c ****     if (expected != NULL)
 434:D:/Work/DeviceTester/amazon-freertos/lib/third_party/unity/src\unity.c ****     {
 435:D:/Work/DeviceTester/amazon-freertos/lib/third_party/unity/src\unity.c ****         UNITY_OUTPUT_CHAR('\'');
 436:D:/Work/DeviceTester/amazon-freertos/lib/third_party/unity/src\unity.c ****         UnityPrintLen(expected, length);
 437:D:/Work/DeviceTester/amazon-freertos/lib/third_party/unity/src\unity.c ****         UNITY_OUTPUT_CHAR('\'');
 438:D:/Work/DeviceTester/amazon-freertos/lib/third_party/unity/src\unity.c ****     }
 439:D:/Work/DeviceTester/amazon-freertos/lib/third_party/unity/src\unity.c ****     else
 440:D:/Work/DeviceTester/amazon-freertos/lib/third_party/unity/src\unity.c ****     {
 441:D:/Work/DeviceTester/amazon-freertos/lib/third_party/unity/src\unity.c ****         UnityPrint(UnityStrNull);
 442:D:/Work/DeviceTester/amazon-freertos/lib/third_party/unity/src\unity.c ****     }
 443:D:/Work/DeviceTester/amazon-freertos/lib/third_party/unity/src\unity.c ****     UnityPrint(UnityStrWas);
 444:D:/Work/DeviceTester/amazon-freertos/lib/third_party/unity/src\unity.c ****     if (actual != NULL)
 445:D:/Work/DeviceTester/amazon-freertos/lib/third_party/unity/src\unity.c ****     {
 446:D:/Work/DeviceTester/amazon-freertos/lib/third_party/unity/src\unity.c ****         UNITY_OUTPUT_CHAR('\'');
 447:D:/Work/DeviceTester/amazon-freertos/lib/third_party/unity/src\unity.c ****         UnityPrintLen(actual, length);
 448:D:/Work/DeviceTester/amazon-freertos/lib/third_party/unity/src\unity.c ****         UNITY_OUTPUT_CHAR('\'');
 449:D:/Work/DeviceTester/amazon-freertos/lib/third_party/unity/src\unity.c ****     }
 450:D:/Work/DeviceTester/amazon-freertos/lib/third_party/unity/src\unity.c ****     else
 451:D:/Work/DeviceTester/amazon-freertos/lib/third_party/unity/src\unity.c ****     {
 452:D:/Work/DeviceTester/amazon-freertos/lib/third_party/unity/src\unity.c ****         UnityPrint(UnityStrNull);
 453:D:/Work/DeviceTester/amazon-freertos/lib/third_party/unity/src\unity.c ****     }
 454:D:/Work/DeviceTester/amazon-freertos/lib/third_party/unity/src\unity.c **** }
 455:D:/Work/DeviceTester/amazon-freertos/lib/third_party/unity/src\unity.c **** 
 456:D:/Work/DeviceTester/amazon-freertos/lib/third_party/unity/src\unity.c **** /*-----------------------------------------------
 457:D:/Work/DeviceTester/amazon-freertos/lib/third_party/unity/src\unity.c ****  * Assertion & Control Helpers
 458:D:/Work/DeviceTester/amazon-freertos/lib/third_party/unity/src\unity.c ****  *-----------------------------------------------*/
 459:D:/Work/DeviceTester/amazon-freertos/lib/third_party/unity/src\unity.c **** 
 460:D:/Work/DeviceTester/amazon-freertos/lib/third_party/unity/src\unity.c **** static int UnityIsOneArrayNull(UNITY_INTERNAL_PTR expected,
 461:D:/Work/DeviceTester/amazon-freertos/lib/third_party/unity/src\unity.c ****                                UNITY_INTERNAL_PTR actual,
 462:D:/Work/DeviceTester/amazon-freertos/lib/third_party/unity/src\unity.c ****                                const UNITY_LINE_TYPE lineNumber,
 463:D:/Work/DeviceTester/amazon-freertos/lib/third_party/unity/src\unity.c ****                                const char* msg)
 464:D:/Work/DeviceTester/amazon-freertos/lib/third_party/unity/src\unity.c **** {
 465:D:/Work/DeviceTester/amazon-freertos/lib/third_party/unity/src\unity.c ****     if (expected == actual) return 0; /* Both are NULL or same pointer */
 466:D:/Work/DeviceTester/amazon-freertos/lib/third_party/unity/src\unity.c **** 
 467:D:/Work/DeviceTester/amazon-freertos/lib/third_party/unity/src\unity.c ****     /* print and return true if just expected is NULL */
 468:D:/Work/DeviceTester/amazon-freertos/lib/third_party/unity/src\unity.c ****     if (expected == NULL)
 469:D:/Work/DeviceTester/amazon-freertos/lib/third_party/unity/src\unity.c ****     {
 470:D:/Work/DeviceTester/amazon-freertos/lib/third_party/unity/src\unity.c ****         UnityTestResultsFailBegin(lineNumber);
 471:D:/Work/DeviceTester/amazon-freertos/lib/third_party/unity/src\unity.c ****         UnityPrint(UnityStrNullPointerForExpected);
 472:D:/Work/DeviceTester/amazon-freertos/lib/third_party/unity/src\unity.c ****         UnityAddMsgIfSpecified(msg);
 473:D:/Work/DeviceTester/amazon-freertos/lib/third_party/unity/src\unity.c ****         return 1;
 474:D:/Work/DeviceTester/amazon-freertos/lib/third_party/unity/src\unity.c ****     }
 475:D:/Work/DeviceTester/amazon-freertos/lib/third_party/unity/src\unity.c **** 
 476:D:/Work/DeviceTester/amazon-freertos/lib/third_party/unity/src\unity.c ****     /* print and return true if just actual is NULL */
 477:D:/Work/DeviceTester/amazon-freertos/lib/third_party/unity/src\unity.c ****     if (actual == NULL)
 478:D:/Work/DeviceTester/amazon-freertos/lib/third_party/unity/src\unity.c ****     {
 479:D:/Work/DeviceTester/amazon-freertos/lib/third_party/unity/src\unity.c ****         UnityTestResultsFailBegin(lineNumber);
 480:D:/Work/DeviceTester/amazon-freertos/lib/third_party/unity/src\unity.c ****         UnityPrint(UnityStrNullPointerForActual);
 481:D:/Work/DeviceTester/amazon-freertos/lib/third_party/unity/src\unity.c ****         UnityAddMsgIfSpecified(msg);
 482:D:/Work/DeviceTester/amazon-freertos/lib/third_party/unity/src\unity.c ****         return 1;
 483:D:/Work/DeviceTester/amazon-freertos/lib/third_party/unity/src\unity.c ****     }
 484:D:/Work/DeviceTester/amazon-freertos/lib/third_party/unity/src\unity.c **** 
 485:D:/Work/DeviceTester/amazon-freertos/lib/third_party/unity/src\unity.c ****     return 0; /* return false if neither is NULL */
 486:D:/Work/DeviceTester/amazon-freertos/lib/third_party/unity/src\unity.c **** }
 487:D:/Work/DeviceTester/amazon-freertos/lib/third_party/unity/src\unity.c **** 
 488:D:/Work/DeviceTester/amazon-freertos/lib/third_party/unity/src\unity.c **** /*-----------------------------------------------
 489:D:/Work/DeviceTester/amazon-freertos/lib/third_party/unity/src\unity.c ****  * Assertion Functions
 490:D:/Work/DeviceTester/amazon-freertos/lib/third_party/unity/src\unity.c ****  *-----------------------------------------------*/
 491:D:/Work/DeviceTester/amazon-freertos/lib/third_party/unity/src\unity.c **** 
 492:D:/Work/DeviceTester/amazon-freertos/lib/third_party/unity/src\unity.c **** void UnityAssertBits(const UNITY_INT mask,
 493:D:/Work/DeviceTester/amazon-freertos/lib/third_party/unity/src\unity.c ****                      const UNITY_INT expected,
 494:D:/Work/DeviceTester/amazon-freertos/lib/third_party/unity/src\unity.c ****                      const UNITY_INT actual,
 495:D:/Work/DeviceTester/amazon-freertos/lib/third_party/unity/src\unity.c ****                      const char* msg,
 496:D:/Work/DeviceTester/amazon-freertos/lib/third_party/unity/src\unity.c ****                      const UNITY_LINE_TYPE lineNumber)
 497:D:/Work/DeviceTester/amazon-freertos/lib/third_party/unity/src\unity.c **** {
 498:D:/Work/DeviceTester/amazon-freertos/lib/third_party/unity/src\unity.c ****     RETURN_IF_FAIL_OR_IGNORE;
 499:D:/Work/DeviceTester/amazon-freertos/lib/third_party/unity/src\unity.c **** 
 500:D:/Work/DeviceTester/amazon-freertos/lib/third_party/unity/src\unity.c ****     if ((mask & expected) != (mask & actual))
 501:D:/Work/DeviceTester/amazon-freertos/lib/third_party/unity/src\unity.c ****     {
 502:D:/Work/DeviceTester/amazon-freertos/lib/third_party/unity/src\unity.c ****         UnityTestResultsFailBegin(lineNumber);
 503:D:/Work/DeviceTester/amazon-freertos/lib/third_party/unity/src\unity.c ****         UnityPrint(UnityStrExpected);
 504:D:/Work/DeviceTester/amazon-freertos/lib/third_party/unity/src\unity.c ****         UnityPrintMask((UNITY_UINT)mask, (UNITY_UINT)expected);
 505:D:/Work/DeviceTester/amazon-freertos/lib/third_party/unity/src\unity.c ****         UnityPrint(UnityStrWas);
 506:D:/Work/DeviceTester/amazon-freertos/lib/third_party/unity/src\unity.c ****         UnityPrintMask((UNITY_UINT)mask, (UNITY_UINT)actual);
 507:D:/Work/DeviceTester/amazon-freertos/lib/third_party/unity/src\unity.c ****         UnityAddMsgIfSpecified(msg);
 508:D:/Work/DeviceTester/amazon-freertos/lib/third_party/unity/src\unity.c ****         UNITY_FAIL_AND_BAIL;
 509:D:/Work/DeviceTester/amazon-freertos/lib/third_party/unity/src\unity.c ****     }
 510:D:/Work/DeviceTester/amazon-freertos/lib/third_party/unity/src\unity.c **** }
 511:D:/Work/DeviceTester/amazon-freertos/lib/third_party/unity/src\unity.c **** 
 512:D:/Work/DeviceTester/amazon-freertos/lib/third_party/unity/src\unity.c **** /*-----------------------------------------------*/
 513:D:/Work/DeviceTester/amazon-freertos/lib/third_party/unity/src\unity.c **** void UnityAssertEqualNumber(const UNITY_INT expected,
 514:D:/Work/DeviceTester/amazon-freertos/lib/third_party/unity/src\unity.c ****                             const UNITY_INT actual,
 515:D:/Work/DeviceTester/amazon-freertos/lib/third_party/unity/src\unity.c ****                             const char* msg,
 516:D:/Work/DeviceTester/amazon-freertos/lib/third_party/unity/src\unity.c ****                             const UNITY_LINE_TYPE lineNumber,
 517:D:/Work/DeviceTester/amazon-freertos/lib/third_party/unity/src\unity.c ****                             const UNITY_DISPLAY_STYLE_T style)
 518:D:/Work/DeviceTester/amazon-freertos/lib/third_party/unity/src\unity.c **** {
 519:D:/Work/DeviceTester/amazon-freertos/lib/third_party/unity/src\unity.c ****     RETURN_IF_FAIL_OR_IGNORE;
 520:D:/Work/DeviceTester/amazon-freertos/lib/third_party/unity/src\unity.c **** 
 521:D:/Work/DeviceTester/amazon-freertos/lib/third_party/unity/src\unity.c ****     if (expected != actual)
 522:D:/Work/DeviceTester/amazon-freertos/lib/third_party/unity/src\unity.c ****     {
 523:D:/Work/DeviceTester/amazon-freertos/lib/third_party/unity/src\unity.c ****         UnityTestResultsFailBegin(lineNumber);
 524:D:/Work/DeviceTester/amazon-freertos/lib/third_party/unity/src\unity.c ****         UnityPrint(UnityStrExpected);
 525:D:/Work/DeviceTester/amazon-freertos/lib/third_party/unity/src\unity.c ****         UnityPrintNumberByStyle(expected, style);
 526:D:/Work/DeviceTester/amazon-freertos/lib/third_party/unity/src\unity.c ****         UnityPrint(UnityStrWas);
 527:D:/Work/DeviceTester/amazon-freertos/lib/third_party/unity/src\unity.c ****         UnityPrintNumberByStyle(actual, style);
 528:D:/Work/DeviceTester/amazon-freertos/lib/third_party/unity/src\unity.c ****         UnityAddMsgIfSpecified(msg);
 529:D:/Work/DeviceTester/amazon-freertos/lib/third_party/unity/src\unity.c ****         UNITY_FAIL_AND_BAIL;
 530:D:/Work/DeviceTester/amazon-freertos/lib/third_party/unity/src\unity.c ****     }
 531:D:/Work/DeviceTester/amazon-freertos/lib/third_party/unity/src\unity.c **** }
 532:D:/Work/DeviceTester/amazon-freertos/lib/third_party/unity/src\unity.c **** 
 533:D:/Work/DeviceTester/amazon-freertos/lib/third_party/unity/src\unity.c **** /*-----------------------------------------------*/
 534:D:/Work/DeviceTester/amazon-freertos/lib/third_party/unity/src\unity.c **** void UnityAssertGreaterNumber(const UNITY_INT threshold,
 535:D:/Work/DeviceTester/amazon-freertos/lib/third_party/unity/src\unity.c ****                               const UNITY_INT actual,
 536:D:/Work/DeviceTester/amazon-freertos/lib/third_party/unity/src\unity.c ****                               const char *msg,
 537:D:/Work/DeviceTester/amazon-freertos/lib/third_party/unity/src\unity.c ****                               const UNITY_LINE_TYPE lineNumber,
 538:D:/Work/DeviceTester/amazon-freertos/lib/third_party/unity/src\unity.c ****                               const UNITY_DISPLAY_STYLE_T style)
 539:D:/Work/DeviceTester/amazon-freertos/lib/third_party/unity/src\unity.c **** {
 540:D:/Work/DeviceTester/amazon-freertos/lib/third_party/unity/src\unity.c ****     RETURN_IF_FAIL_OR_IGNORE;
 541:D:/Work/DeviceTester/amazon-freertos/lib/third_party/unity/src\unity.c **** 
 542:D:/Work/DeviceTester/amazon-freertos/lib/third_party/unity/src\unity.c ****     if (!(actual > threshold))
 543:D:/Work/DeviceTester/amazon-freertos/lib/third_party/unity/src\unity.c ****     {
 544:D:/Work/DeviceTester/amazon-freertos/lib/third_party/unity/src\unity.c ****         UnityTestResultsFailBegin(lineNumber);
 545:D:/Work/DeviceTester/amazon-freertos/lib/third_party/unity/src\unity.c ****         UnityPrint(UnityStrExpected);
 546:D:/Work/DeviceTester/amazon-freertos/lib/third_party/unity/src\unity.c ****         UnityPrintNumberByStyle(actual, style);
 547:D:/Work/DeviceTester/amazon-freertos/lib/third_party/unity/src\unity.c ****         UnityPrint(UnityStrGt);
 548:D:/Work/DeviceTester/amazon-freertos/lib/third_party/unity/src\unity.c ****         UnityPrintNumberByStyle(threshold, style);
 549:D:/Work/DeviceTester/amazon-freertos/lib/third_party/unity/src\unity.c ****         UnityAddMsgIfSpecified(msg);
 550:D:/Work/DeviceTester/amazon-freertos/lib/third_party/unity/src\unity.c ****         UNITY_FAIL_AND_BAIL;
 551:D:/Work/DeviceTester/amazon-freertos/lib/third_party/unity/src\unity.c ****     }
 552:D:/Work/DeviceTester/amazon-freertos/lib/third_party/unity/src\unity.c **** }
 553:D:/Work/DeviceTester/amazon-freertos/lib/third_party/unity/src\unity.c **** 
 554:D:/Work/DeviceTester/amazon-freertos/lib/third_party/unity/src\unity.c **** /*-----------------------------------------------*/
 555:D:/Work/DeviceTester/amazon-freertos/lib/third_party/unity/src\unity.c **** void UnityAssertSmallerNumber(const UNITY_INT threshold,
 556:D:/Work/DeviceTester/amazon-freertos/lib/third_party/unity/src\unity.c ****                               const UNITY_INT actual,
 557:D:/Work/DeviceTester/amazon-freertos/lib/third_party/unity/src\unity.c ****                               const char *msg,
 558:D:/Work/DeviceTester/amazon-freertos/lib/third_party/unity/src\unity.c ****                               const UNITY_LINE_TYPE lineNumber,
 559:D:/Work/DeviceTester/amazon-freertos/lib/third_party/unity/src\unity.c ****                               const UNITY_DISPLAY_STYLE_T style)
 560:D:/Work/DeviceTester/amazon-freertos/lib/third_party/unity/src\unity.c **** {
 561:D:/Work/DeviceTester/amazon-freertos/lib/third_party/unity/src\unity.c ****     RETURN_IF_FAIL_OR_IGNORE;
 562:D:/Work/DeviceTester/amazon-freertos/lib/third_party/unity/src\unity.c **** 
 563:D:/Work/DeviceTester/amazon-freertos/lib/third_party/unity/src\unity.c ****     if (!(actual < threshold))
 564:D:/Work/DeviceTester/amazon-freertos/lib/third_party/unity/src\unity.c ****     {
 565:D:/Work/DeviceTester/amazon-freertos/lib/third_party/unity/src\unity.c ****         UnityTestResultsFailBegin(lineNumber);
 566:D:/Work/DeviceTester/amazon-freertos/lib/third_party/unity/src\unity.c ****         UnityPrint(UnityStrExpected);
 567:D:/Work/DeviceTester/amazon-freertos/lib/third_party/unity/src\unity.c ****         UnityPrintNumberByStyle(actual, style);
 568:D:/Work/DeviceTester/amazon-freertos/lib/third_party/unity/src\unity.c ****         UnityPrint(UnityStrLt);
 569:D:/Work/DeviceTester/amazon-freertos/lib/third_party/unity/src\unity.c ****         UnityPrintNumberByStyle(threshold, style);
 570:D:/Work/DeviceTester/amazon-freertos/lib/third_party/unity/src\unity.c ****         UnityAddMsgIfSpecified(msg);
 571:D:/Work/DeviceTester/amazon-freertos/lib/third_party/unity/src\unity.c ****         UNITY_FAIL_AND_BAIL;
 572:D:/Work/DeviceTester/amazon-freertos/lib/third_party/unity/src\unity.c ****     }
 573:D:/Work/DeviceTester/amazon-freertos/lib/third_party/unity/src\unity.c **** }
 574:D:/Work/DeviceTester/amazon-freertos/lib/third_party/unity/src\unity.c **** 
 575:D:/Work/DeviceTester/amazon-freertos/lib/third_party/unity/src\unity.c **** 
 576:D:/Work/DeviceTester/amazon-freertos/lib/third_party/unity/src\unity.c **** 
 577:D:/Work/DeviceTester/amazon-freertos/lib/third_party/unity/src\unity.c **** #define UnityPrintPointlessAndBail()       \
 578:D:/Work/DeviceTester/amazon-freertos/lib/third_party/unity/src\unity.c **** {                                          \
 579:D:/Work/DeviceTester/amazon-freertos/lib/third_party/unity/src\unity.c ****     UnityTestResultsFailBegin(lineNumber); \
 580:D:/Work/DeviceTester/amazon-freertos/lib/third_party/unity/src\unity.c ****     UnityPrint(UnityStrPointless);         \
 581:D:/Work/DeviceTester/amazon-freertos/lib/third_party/unity/src\unity.c ****     UnityAddMsgIfSpecified(msg);           \
 582:D:/Work/DeviceTester/amazon-freertos/lib/third_party/unity/src\unity.c ****     UNITY_FAIL_AND_BAIL; }
 583:D:/Work/DeviceTester/amazon-freertos/lib/third_party/unity/src\unity.c **** 
 584:D:/Work/DeviceTester/amazon-freertos/lib/third_party/unity/src\unity.c **** /*-----------------------------------------------*/
 585:D:/Work/DeviceTester/amazon-freertos/lib/third_party/unity/src\unity.c **** void UnityAssertEqualIntArray(UNITY_INTERNAL_PTR expected,
 586:D:/Work/DeviceTester/amazon-freertos/lib/third_party/unity/src\unity.c ****                               UNITY_INTERNAL_PTR actual,
 587:D:/Work/DeviceTester/amazon-freertos/lib/third_party/unity/src\unity.c ****                               const UNITY_UINT32 num_elements,
 588:D:/Work/DeviceTester/amazon-freertos/lib/third_party/unity/src\unity.c ****                               const char* msg,
 589:D:/Work/DeviceTester/amazon-freertos/lib/third_party/unity/src\unity.c ****                               const UNITY_LINE_TYPE lineNumber,
 590:D:/Work/DeviceTester/amazon-freertos/lib/third_party/unity/src\unity.c ****                               const UNITY_DISPLAY_STYLE_T style,
 591:D:/Work/DeviceTester/amazon-freertos/lib/third_party/unity/src\unity.c ****                               const UNITY_FLAGS_T flags)
 592:D:/Work/DeviceTester/amazon-freertos/lib/third_party/unity/src\unity.c **** {
 593:D:/Work/DeviceTester/amazon-freertos/lib/third_party/unity/src\unity.c ****     UNITY_UINT32 elements = num_elements;
 594:D:/Work/DeviceTester/amazon-freertos/lib/third_party/unity/src\unity.c ****     unsigned int length   = style & 0xF;
 595:D:/Work/DeviceTester/amazon-freertos/lib/third_party/unity/src\unity.c **** 
 596:D:/Work/DeviceTester/amazon-freertos/lib/third_party/unity/src\unity.c ****     RETURN_IF_FAIL_OR_IGNORE;
 597:D:/Work/DeviceTester/amazon-freertos/lib/third_party/unity/src\unity.c **** 
 598:D:/Work/DeviceTester/amazon-freertos/lib/third_party/unity/src\unity.c ****     if (num_elements == 0)
 599:D:/Work/DeviceTester/amazon-freertos/lib/third_party/unity/src\unity.c ****     {
 600:D:/Work/DeviceTester/amazon-freertos/lib/third_party/unity/src\unity.c ****         UnityPrintPointlessAndBail();
 601:D:/Work/DeviceTester/amazon-freertos/lib/third_party/unity/src\unity.c ****     }
 602:D:/Work/DeviceTester/amazon-freertos/lib/third_party/unity/src\unity.c **** 
 603:D:/Work/DeviceTester/amazon-freertos/lib/third_party/unity/src\unity.c ****     if (expected == actual) return; /* Both are NULL or same pointer */
 604:D:/Work/DeviceTester/amazon-freertos/lib/third_party/unity/src\unity.c ****     if (UnityIsOneArrayNull(expected, actual, lineNumber, msg))
 605:D:/Work/DeviceTester/amazon-freertos/lib/third_party/unity/src\unity.c ****         UNITY_FAIL_AND_BAIL;
 606:D:/Work/DeviceTester/amazon-freertos/lib/third_party/unity/src\unity.c **** 
 607:D:/Work/DeviceTester/amazon-freertos/lib/third_party/unity/src\unity.c ****     while (elements--)
 608:D:/Work/DeviceTester/amazon-freertos/lib/third_party/unity/src\unity.c ****     {
 609:D:/Work/DeviceTester/amazon-freertos/lib/third_party/unity/src\unity.c ****         UNITY_INT expect_val;
 610:D:/Work/DeviceTester/amazon-freertos/lib/third_party/unity/src\unity.c ****         UNITY_INT actual_val;
 611:D:/Work/DeviceTester/amazon-freertos/lib/third_party/unity/src\unity.c ****         switch (length)
 612:D:/Work/DeviceTester/amazon-freertos/lib/third_party/unity/src\unity.c ****         {
 613:D:/Work/DeviceTester/amazon-freertos/lib/third_party/unity/src\unity.c ****             case 1:
 614:D:/Work/DeviceTester/amazon-freertos/lib/third_party/unity/src\unity.c ****                 expect_val = *(UNITY_PTR_ATTRIBUTE const UNITY_INT8*)expected;
 615:D:/Work/DeviceTester/amazon-freertos/lib/third_party/unity/src\unity.c ****                 actual_val = *(UNITY_PTR_ATTRIBUTE const UNITY_INT8*)actual;
 616:D:/Work/DeviceTester/amazon-freertos/lib/third_party/unity/src\unity.c ****                 break;
 617:D:/Work/DeviceTester/amazon-freertos/lib/third_party/unity/src\unity.c ****             case 2:
 618:D:/Work/DeviceTester/amazon-freertos/lib/third_party/unity/src\unity.c ****                 expect_val = *(UNITY_PTR_ATTRIBUTE const UNITY_INT16*)expected;
 619:D:/Work/DeviceTester/amazon-freertos/lib/third_party/unity/src\unity.c ****                 actual_val = *(UNITY_PTR_ATTRIBUTE const UNITY_INT16*)actual;
 620:D:/Work/DeviceTester/amazon-freertos/lib/third_party/unity/src\unity.c ****                 break;
 621:D:/Work/DeviceTester/amazon-freertos/lib/third_party/unity/src\unity.c **** #ifdef UNITY_SUPPORT_64
 622:D:/Work/DeviceTester/amazon-freertos/lib/third_party/unity/src\unity.c ****             case 8:
 623:D:/Work/DeviceTester/amazon-freertos/lib/third_party/unity/src\unity.c ****                 expect_val = *(UNITY_PTR_ATTRIBUTE const UNITY_INT64*)expected;
 624:D:/Work/DeviceTester/amazon-freertos/lib/third_party/unity/src\unity.c ****                 actual_val = *(UNITY_PTR_ATTRIBUTE const UNITY_INT64*)actual;
 625:D:/Work/DeviceTester/amazon-freertos/lib/third_party/unity/src\unity.c ****                 break;
 626:D:/Work/DeviceTester/amazon-freertos/lib/third_party/unity/src\unity.c **** #endif
 627:D:/Work/DeviceTester/amazon-freertos/lib/third_party/unity/src\unity.c ****             default: /* length 4 bytes */
 628:D:/Work/DeviceTester/amazon-freertos/lib/third_party/unity/src\unity.c ****                 expect_val = *(UNITY_PTR_ATTRIBUTE const UNITY_INT32*)expected;
 629:D:/Work/DeviceTester/amazon-freertos/lib/third_party/unity/src\unity.c ****                 actual_val = *(UNITY_PTR_ATTRIBUTE const UNITY_INT32*)actual;
 630:D:/Work/DeviceTester/amazon-freertos/lib/third_party/unity/src\unity.c ****                 length = 4;
 631:D:/Work/DeviceTester/amazon-freertos/lib/third_party/unity/src\unity.c ****                 break;
 632:D:/Work/DeviceTester/amazon-freertos/lib/third_party/unity/src\unity.c ****         }
 633:D:/Work/DeviceTester/amazon-freertos/lib/third_party/unity/src\unity.c **** 
 634:D:/Work/DeviceTester/amazon-freertos/lib/third_party/unity/src\unity.c ****         if (expect_val != actual_val)
 635:D:/Work/DeviceTester/amazon-freertos/lib/third_party/unity/src\unity.c ****         {
 636:D:/Work/DeviceTester/amazon-freertos/lib/third_party/unity/src\unity.c ****             if ((style & UNITY_DISPLAY_RANGE_UINT) && length < sizeof(expect_val))
 637:D:/Work/DeviceTester/amazon-freertos/lib/third_party/unity/src\unity.c ****             {   /* For UINT, remove sign extension (padding 1's) from signed type casts above */
 638:D:/Work/DeviceTester/amazon-freertos/lib/third_party/unity/src\unity.c ****                 UNITY_INT mask = 1;
 639:D:/Work/DeviceTester/amazon-freertos/lib/third_party/unity/src\unity.c ****                 mask = (mask << 8 * length) - 1;
 640:D:/Work/DeviceTester/amazon-freertos/lib/third_party/unity/src\unity.c ****                 expect_val &= mask;
 641:D:/Work/DeviceTester/amazon-freertos/lib/third_party/unity/src\unity.c ****                 actual_val &= mask;
 642:D:/Work/DeviceTester/amazon-freertos/lib/third_party/unity/src\unity.c ****             }
 643:D:/Work/DeviceTester/amazon-freertos/lib/third_party/unity/src\unity.c ****             UnityTestResultsFailBegin(lineNumber);
 644:D:/Work/DeviceTester/amazon-freertos/lib/third_party/unity/src\unity.c ****             UnityPrint(UnityStrElement);
 645:D:/Work/DeviceTester/amazon-freertos/lib/third_party/unity/src\unity.c ****             UnityPrintNumberUnsigned(num_elements - elements - 1);
 646:D:/Work/DeviceTester/amazon-freertos/lib/third_party/unity/src\unity.c ****             UnityPrint(UnityStrExpected);
 647:D:/Work/DeviceTester/amazon-freertos/lib/third_party/unity/src\unity.c ****             UnityPrintNumberByStyle(expect_val, style);
 648:D:/Work/DeviceTester/amazon-freertos/lib/third_party/unity/src\unity.c ****             UnityPrint(UnityStrWas);
 649:D:/Work/DeviceTester/amazon-freertos/lib/third_party/unity/src\unity.c ****             UnityPrintNumberByStyle(actual_val, style);
 650:D:/Work/DeviceTester/amazon-freertos/lib/third_party/unity/src\unity.c ****             UnityAddMsgIfSpecified(msg);
 651:D:/Work/DeviceTester/amazon-freertos/lib/third_party/unity/src\unity.c ****             UNITY_FAIL_AND_BAIL;
 652:D:/Work/DeviceTester/amazon-freertos/lib/third_party/unity/src\unity.c ****         }
 653:D:/Work/DeviceTester/amazon-freertos/lib/third_party/unity/src\unity.c ****         if (flags == UNITY_ARRAY_TO_ARRAY)
 654:D:/Work/DeviceTester/amazon-freertos/lib/third_party/unity/src\unity.c ****         {
 655:D:/Work/DeviceTester/amazon-freertos/lib/third_party/unity/src\unity.c ****             expected = (UNITY_INTERNAL_PTR)(length + (const char*)expected);
 656:D:/Work/DeviceTester/amazon-freertos/lib/third_party/unity/src\unity.c ****         }
 657:D:/Work/DeviceTester/amazon-freertos/lib/third_party/unity/src\unity.c ****         actual   = (UNITY_INTERNAL_PTR)(length + (const char*)actual);
 658:D:/Work/DeviceTester/amazon-freertos/lib/third_party/unity/src\unity.c ****     }
 659:D:/Work/DeviceTester/amazon-freertos/lib/third_party/unity/src\unity.c **** }
 660:D:/Work/DeviceTester/amazon-freertos/lib/third_party/unity/src\unity.c **** 
 661:D:/Work/DeviceTester/amazon-freertos/lib/third_party/unity/src\unity.c **** /*-----------------------------------------------*/
 662:D:/Work/DeviceTester/amazon-freertos/lib/third_party/unity/src\unity.c **** #ifndef UNITY_EXCLUDE_FLOAT
 663:D:/Work/DeviceTester/amazon-freertos/lib/third_party/unity/src\unity.c **** /* Wrap this define in a function with variable types as float or double */
 664:D:/Work/DeviceTester/amazon-freertos/lib/third_party/unity/src\unity.c **** #define UNITY_FLOAT_OR_DOUBLE_WITHIN(delta, expected, actual, diff)                       \
 665:D:/Work/DeviceTester/amazon-freertos/lib/third_party/unity/src\unity.c ****     if (isinf(expected) && isinf(actual) && ((expected < 0) == (actual < 0))) return 1;   \
 666:D:/Work/DeviceTester/amazon-freertos/lib/third_party/unity/src\unity.c ****     if (UNITY_NAN_CHECK) return 1;                                                        \
 667:D:/Work/DeviceTester/amazon-freertos/lib/third_party/unity/src\unity.c ****     diff = actual - expected;                                                             \
 668:D:/Work/DeviceTester/amazon-freertos/lib/third_party/unity/src\unity.c ****     if (diff < 0) diff = -diff;                                                           \
 669:D:/Work/DeviceTester/amazon-freertos/lib/third_party/unity/src\unity.c ****     if (delta < 0) delta = -delta;                                                        \
 670:D:/Work/DeviceTester/amazon-freertos/lib/third_party/unity/src\unity.c ****     return !(isnan(diff) || isinf(diff) || (diff > delta))
 671:D:/Work/DeviceTester/amazon-freertos/lib/third_party/unity/src\unity.c ****     /* This first part of this condition will catch any NaN or Infinite values */
 672:D:/Work/DeviceTester/amazon-freertos/lib/third_party/unity/src\unity.c **** #ifndef UNITY_NAN_NOT_EQUAL_NAN
 673:D:/Work/DeviceTester/amazon-freertos/lib/third_party/unity/src\unity.c ****   #define UNITY_NAN_CHECK isnan(expected) && isnan(actual)
 674:D:/Work/DeviceTester/amazon-freertos/lib/third_party/unity/src\unity.c **** #else
 675:D:/Work/DeviceTester/amazon-freertos/lib/third_party/unity/src\unity.c ****   #define UNITY_NAN_CHECK 0
 676:D:/Work/DeviceTester/amazon-freertos/lib/third_party/unity/src\unity.c **** #endif
 677:D:/Work/DeviceTester/amazon-freertos/lib/third_party/unity/src\unity.c **** 
 678:D:/Work/DeviceTester/amazon-freertos/lib/third_party/unity/src\unity.c **** #ifndef UNITY_EXCLUDE_FLOAT_PRINT
 679:D:/Work/DeviceTester/amazon-freertos/lib/third_party/unity/src\unity.c ****   #define UNITY_PRINT_EXPECTED_AND_ACTUAL_FLOAT(expected, actual) \
 680:D:/Work/DeviceTester/amazon-freertos/lib/third_party/unity/src\unity.c ****   {                                                               \
 681:D:/Work/DeviceTester/amazon-freertos/lib/third_party/unity/src\unity.c ****     UnityPrint(UnityStrExpected);                                 \
 682:D:/Work/DeviceTester/amazon-freertos/lib/third_party/unity/src\unity.c ****     UnityPrintFloat(expected);                                    \
 683:D:/Work/DeviceTester/amazon-freertos/lib/third_party/unity/src\unity.c ****     UnityPrint(UnityStrWas);                                      \
 684:D:/Work/DeviceTester/amazon-freertos/lib/third_party/unity/src\unity.c ****     UnityPrintFloat(actual); }
 685:D:/Work/DeviceTester/amazon-freertos/lib/third_party/unity/src\unity.c **** #else
 686:D:/Work/DeviceTester/amazon-freertos/lib/third_party/unity/src\unity.c ****   #define UNITY_PRINT_EXPECTED_AND_ACTUAL_FLOAT(expected, actual) \
 687:D:/Work/DeviceTester/amazon-freertos/lib/third_party/unity/src\unity.c ****     UnityPrint(UnityStrDelta)
 688:D:/Work/DeviceTester/amazon-freertos/lib/third_party/unity/src\unity.c **** #endif /* UNITY_EXCLUDE_FLOAT_PRINT */
 689:D:/Work/DeviceTester/amazon-freertos/lib/third_party/unity/src\unity.c **** 
 690:D:/Work/DeviceTester/amazon-freertos/lib/third_party/unity/src\unity.c **** static int UnityFloatsWithin(UNITY_FLOAT delta, UNITY_FLOAT expected, UNITY_FLOAT actual)
 691:D:/Work/DeviceTester/amazon-freertos/lib/third_party/unity/src\unity.c **** {
  25              		.loc 1 691 0
  26              		.cfi_startproc
  27              		@ args = 0, pretend = 0, frame = 0
  28              		@ frame_needed = 0, uses_anonymous_args = 0
  29              		@ link register save eliminated.
  30              	.LVL0:
 692:D:/Work/DeviceTester/amazon-freertos/lib/third_party/unity/src\unity.c ****     UNITY_FLOAT diff;
 693:D:/Work/DeviceTester/amazon-freertos/lib/third_party/unity/src\unity.c ****     UNITY_FLOAT_OR_DOUBLE_WITHIN(delta, expected, actual, diff);
  31              		.loc 1 693 0
  32 0000 337ADFED 		vldr.32	s15, .L17
  33 0004 E07AB0EE 		vabs.f32	s14, s1
  34 0008 677AB4EE 		vcmp.f32	s14, s15
  35 000c 10FAF1EE 		vmrs	APSR_nzcv, FPSCR
  36 0010 677AB0EE 		vmov.f32	s14, s15
  37 0014 0D0000DA 		ble	.L2
  38              		.loc 1 693 0 is_stmt 0 discriminator 1
  39 0018 C16AF0EE 		vabs.f32	s13, s2
  40 001c 676AF4EE 		vcmp.f32	s13, s15
  41 0020 10FAF1EE 		vmrs	APSR_nzcv, FPSCR
  42 0024 090000DA 		ble	.L2
  43              		.loc 1 693 0 discriminator 3
  44 0028 C00AF5EE 		vcmpe.f32	s1, #0
  45 002c 10FAF1EE 		vmrs	APSR_nzcv, FPSCR
  46 0030 C01AB5EE 		vcmpe.f32	s2, #0
  47 0034 0130A053 		movpl	r3, #1
  48 0038 0030A043 		movmi	r3, #0
  49 003c 10FAF1EE 		vmrs	APSR_nzcv, FPSCR
  50 0040 0120A043 		movmi	r2, #1
  51 0044 0020A053 		movpl	r2, #0
  52 0048 030052E1 		cmp	r2, r3
  53 004c 1C00001A 		bne	.L10
  54              	.L2:
  55              		.loc 1 693 0 discriminator 6
  56 0050 600AF4EE 		vcmp.f32	s1, s1
  57 0054 10FAF1EE 		vmrs	APSR_nzcv, FPSCR
  58 0058 411AB4EE 		vcmp.f32	s2, s2
  59 005c 0130A063 		movvs	r3, #1
  60 0060 0030A073 		movvc	r3, #0
  61 0064 10FAF1EE 		vmrs	APSR_nzcv, FPSCR
  62 0068 0030A073 		movvc	r3, #0
  63 006c 01300362 		andvs	r3, r3, #1
  64 0070 000053E3 		cmp	r3, #0
  65 0074 1200001A 		bne	.L10
  66              	.LVL1:
  67              	.LBB4:
  68              	.LBB5:
  69              		.loc 1 693 0
  70 0078 601A31EE 		vsub.f32	s2, s2, s1
  71              	.LVL2:
  72 007c C01AB5EE 		vcmpe.f32	s2, #0
  73 0080 10FAF1EE 		vmrs	APSR_nzcv, FPSCR
  74 0084 411AB14E 		vnegmi.f32	s2, s2
  75              	.LVL3:
  76 0088 C00AB5EE 		vcmpe.f32	s0, #0
  77 008c 10FAF1EE 		vmrs	APSR_nzcv, FPSCR
  78 0090 411AB4EE 		vcmp.f32	s2, s2
  79 0094 400AB14E 		vnegmi.f32	s0, s0
  80              	.LVL4:
  81 0098 10FAF1EE 		vmrs	APSR_nzcv, FPSCR
  82 009c 0A00006A 		bvs	.L16
  83 00a0 C17AF0EE 		vabs.f32	s15, s2
  84 00a4 477AF4EE 		vcmp.f32	s15, s14
  85 00a8 10FAF1EE 		vmrs	APSR_nzcv, FPSCR
  86 00ac 060000CA 		bgt	.L16
  87 00b0 C01AB4EE 		vcmpe.f32	s2, s0
  88 00b4 10FAF1EE 		vmrs	APSR_nzcv, FPSCR
  89              	.LBE5:
  90              	.LBE4:
  91 00b8 0100A0D3 		movle	r0, #1
  92 00bc 0000A0C3 		movgt	r0, #0
  93 00c0 1EFF2FE1 		bx	lr
  94              	.LVL5:
  95              	.L10:
  96 00c4 0100A0E3 		mov	r0, #1
  97 00c8 1EFF2FE1 		bx	lr
  98              	.LVL6:
  99              	.L16:
 100              	.LBB7:
 101              	.LBB6:
 102 00cc 0000A0E3 		mov	r0, #0
 103              	.LBE6:
 104              	.LBE7:
 694:D:/Work/DeviceTester/amazon-freertos/lib/third_party/unity/src\unity.c **** }
 105              		.loc 1 694 0 is_stmt 1
 106 00d0 1EFF2FE1 		bx	lr
 107              	.L18:
 108              		.align	2
 109              	.L17:
 110 00d4 FFFF7F7F 		.word	2139095039
 111              		.cfi_endproc
 112              	.LFE20:
 114              		.global	__aeabi_uidiv
 115              		.global	__aeabi_uidivmod
 116              		.section	.text.UnityPrintNumberUnsigned,"ax",%progbits
 117              		.align	2
 118              		.global	UnityPrintNumberUnsigned
 119              		.syntax unified
 120              		.arm
 121              		.fpu neon
 123              	UnityPrintNumberUnsigned:
 124              	.LFB4:
 171:D:/Work/DeviceTester/amazon-freertos/lib/third_party/unity/src\unity.c ****     UNITY_UINT divisor = 1;
 125              		.loc 1 171 0
 126              		.cfi_startproc
 127              		@ args = 0, pretend = 0, frame = 0
 128              		@ frame_needed = 0, uses_anonymous_args = 0
 129              	.LVL7:
 130 0000 70402DE9 		push	{r4, r5, r6, lr}
 131              		.cfi_def_cfa_offset 16
 132              		.cfi_offset 4, -16
 133              		.cfi_offset 5, -12
 134              		.cfi_offset 6, -8
 135              		.cfi_offset 14, -4
 171:D:/Work/DeviceTester/amazon-freertos/lib/third_party/unity/src\unity.c ****     UNITY_UINT divisor = 1;
 136              		.loc 1 171 0
 137 0004 0050A0E1 		mov	r5, r0
 172:D:/Work/DeviceTester/amazon-freertos/lib/third_party/unity/src\unity.c **** 
 138              		.loc 1 172 0
 139 0008 0140A0E3 		mov	r4, #1
 177:D:/Work/DeviceTester/amazon-freertos/lib/third_party/unity/src\unity.c ****     }
 140              		.loc 1 177 0
 141 000c 0A60A0E3 		mov	r6, #10
 142              	.LVL8:
 143              	.L20:
 175:D:/Work/DeviceTester/amazon-freertos/lib/third_party/unity/src\unity.c ****     {
 144              		.loc 1 175 0
 145 0010 0410A0E1 		mov	r1, r4
 146 0014 0500A0E1 		mov	r0, r5
 147 0018 FEFFFFEB 		bl	__aeabi_uidiv
 148              	.LVL9:
 149 001c 090050E3 		cmp	r0, #9
 150 0020 0C00008A 		bhi	.L21
 184:D:/Work/DeviceTester/amazon-freertos/lib/third_party/unity/src\unity.c ****     } while (divisor > 0);
 151              		.loc 1 184 0 discriminator 1
 152 0024 34609FE5 		ldr	r6, .L25
 153              	.L22:
 183:D:/Work/DeviceTester/amazon-freertos/lib/third_party/unity/src\unity.c ****         divisor /= 10;
 154              		.loc 1 183 0 discriminator 1
 155 0028 0410A0E1 		mov	r1, r4
 156 002c 0500A0E1 		mov	r0, r5
 157 0030 FEFFFFEB 		bl	__aeabi_uidiv
 158              	.LVL10:
 159 0034 0A10A0E3 		mov	r1, #10
 160 0038 FEFFFFEB 		bl	__aeabi_uidivmod
 161              	.LVL11:
 162 003c 301081E2 		add	r1, r1, #48
 163 0040 7100EFE6 		uxtb	r0, r1
 164 0044 FEFFFFEB 		bl	TEST_CacheResult
 165              	.LVL12:
 184:D:/Work/DeviceTester/amazon-freertos/lib/third_party/unity/src\unity.c ****     } while (divisor > 0);
 166              		.loc 1 184 0 discriminator 1
 167 0048 942683E0 		umull	r2, r3, r4, r6
 168              	.LVL13:
 185:D:/Work/DeviceTester/amazon-freertos/lib/third_party/unity/src\unity.c **** }
 169              		.loc 1 185 0 discriminator 1
 170 004c A341B0E1 		lsrs	r4, r3, #3
 171              	.LVL14:
 172 0050 F4FFFF1A 		bne	.L22
 186:D:/Work/DeviceTester/amazon-freertos/lib/third_party/unity/src\unity.c **** 
 173              		.loc 1 186 0
 174 0054 7080BDE8 		pop	{r4, r5, r6, pc}
 175              	.L21:
 177:D:/Work/DeviceTester/amazon-freertos/lib/third_party/unity/src\unity.c ****     }
 176              		.loc 1 177 0
 177 0058 960404E0 		mul	r4, r6, r4
 178              	.LVL15:
 179 005c EBFFFFEA 		b	.L20
 180              	.L26:
 181              		.align	2
 182              	.L25:
 183 0060 CDCCCCCC 		.word	-858993459
 184              		.cfi_endproc
 185              	.LFE4:
 187              		.section	.text.UnityPrintNumber,"ax",%progbits
 188              		.align	2
 189              		.global	UnityPrintNumber
 190              		.syntax unified
 191              		.arm
 192              		.fpu neon
 194              	UnityPrintNumber:
 195              	.LFB3:
 156:D:/Work/DeviceTester/amazon-freertos/lib/third_party/unity/src\unity.c ****     UNITY_UINT number = (UNITY_UINT)number_to_print;
 196              		.loc 1 156 0
 197              		.cfi_startproc
 198              		@ args = 0, pretend = 0, frame = 0
 199              		@ frame_needed = 0, uses_anonymous_args = 0
 200              	.LVL16:
 201 0000 10402DE9 		push	{r4, lr}
 202              		.cfi_def_cfa_offset 8
 203              		.cfi_offset 4, -8
 204              		.cfi_offset 14, -4
 159:D:/Work/DeviceTester/amazon-freertos/lib/third_party/unity/src\unity.c ****     {
 205              		.loc 1 159 0
 206 0004 004050E2 		subs	r4, r0, #0
 207 0008 020000AA 		bge	.L28
 163:D:/Work/DeviceTester/amazon-freertos/lib/third_party/unity/src\unity.c ****     }
 208              		.loc 1 163 0
 209 000c 004064E2 		rsb	r4, r4, #0
 162:D:/Work/DeviceTester/amazon-freertos/lib/third_party/unity/src\unity.c ****         number = (UNITY_UINT)(-number_to_print);
 210              		.loc 1 162 0
 211 0010 2D00A0E3 		mov	r0, #45
 212              	.LVL17:
 213 0014 FEFFFFEB 		bl	TEST_CacheResult
 214              	.LVL18:
 215              	.L28:
 165:D:/Work/DeviceTester/amazon-freertos/lib/third_party/unity/src\unity.c **** }
 216              		.loc 1 165 0
 217 0018 0400A0E1 		mov	r0, r4
 166:D:/Work/DeviceTester/amazon-freertos/lib/third_party/unity/src\unity.c **** 
 218              		.loc 1 166 0
 219 001c 1040BDE8 		pop	{r4, lr}
 220              		.cfi_restore 14
 221              		.cfi_restore 4
 222              		.cfi_def_cfa_offset 0
 223              	.LVL19:
 165:D:/Work/DeviceTester/amazon-freertos/lib/third_party/unity/src\unity.c **** }
 224              		.loc 1 165 0
 225 0020 FEFFFFEA 		b	UnityPrintNumberUnsigned
 226              	.LVL20:
 227              		.cfi_endproc
 228              	.LFE3:
 230              		.section	.text.UnityPrintNumberHex,"ax",%progbits
 231              		.align	2
 232              		.global	UnityPrintNumberHex
 233              		.syntax unified
 234              		.arm
 235              		.fpu neon
 237              	UnityPrintNumberHex:
 238              	.LFB5:
 190:D:/Work/DeviceTester/amazon-freertos/lib/third_party/unity/src\unity.c ****     int nibble;
 239              		.loc 1 190 0
 240              		.cfi_startproc
 241              		@ args = 0, pretend = 0, frame = 0
 242              		@ frame_needed = 0, uses_anonymous_args = 0
 243              	.LVL21:
 244 0000 080051E3 		cmp	r1, #8
 245 0004 70402DE9 		push	{r4, r5, r6, lr}
 246              		.cfi_def_cfa_offset 16
 247              		.cfi_offset 4, -16
 248              		.cfi_offset 5, -12
 249              		.cfi_offset 6, -8
 250              		.cfi_offset 14, -4
 190:D:/Work/DeviceTester/amazon-freertos/lib/third_party/unity/src\unity.c ****     int nibble;
 251              		.loc 1 190 0
 252 0008 0050A0E1 		mov	r5, r0
 253 000c 0140A031 		movcc	r4, r1
 254 0010 0840A023 		movcs	r4, #8
 255              	.LVL22:
 256              	.L31:
 196:D:/Work/DeviceTester/amazon-freertos/lib/third_party/unity/src\unity.c ****     {
 257              		.loc 1 196 0
 258 0014 000054E3 		cmp	r4, #0
 259 0018 0000001A 		bne	.L34
 209:D:/Work/DeviceTester/amazon-freertos/lib/third_party/unity/src\unity.c **** 
 260              		.loc 1 209 0
 261 001c 7080BDE8 		pop	{r4, r5, r6, pc}
 262              	.L34:
 198:D:/Work/DeviceTester/amazon-freertos/lib/third_party/unity/src\unity.c ****         nibble = (int)(number >> (nibbles * 4)) & 0x0F;
 263              		.loc 1 198 0
 264 0020 014044E2 		sub	r4, r4, #1
 265              	.LVL23:
 266 0024 7440EFE6 		uxtb	r4, r4
 267              	.LVL24:
 199:D:/Work/DeviceTester/amazon-freertos/lib/third_party/unity/src\unity.c ****         if (nibble <= 9)
 268              		.loc 1 199 0
 269 0028 0401A0E1 		lsl	r0, r4, #2
 270 002c 3500A0E1 		lsr	r0, r5, r0
 271 0030 0F0000E2 		and	r0, r0, #15
 272              	.LVL25:
 200:D:/Work/DeviceTester/amazon-freertos/lib/third_party/unity/src\unity.c ****         {
 273              		.loc 1 200 0
 274 0034 090050E3 		cmp	r0, #9
 202:D:/Work/DeviceTester/amazon-freertos/lib/third_party/unity/src\unity.c ****         }
 275              		.loc 1 202 0
 276 0038 300080D2 		addle	r0, r0, #48
 277              	.LVL26:
 206:D:/Work/DeviceTester/amazon-freertos/lib/third_party/unity/src\unity.c ****         }
 278              		.loc 1 206 0
 279 003c 370080C2 		addgt	r0, r0, #55
 280 0040 FEFFFFEB 		bl	TEST_CacheResult
 281              	.LVL27:
 282 0044 F2FFFFEA 		b	.L31
 283              		.cfi_endproc
 284              	.LFE5:
 286              		.section	.text.UnityPrint,"ax",%progbits
 287              		.align	2
 288              		.global	UnityPrint
 289              		.syntax unified
 290              		.arm
 291              		.fpu neon
 293              	UnityPrint:
 294              	.LFB0:
  62:D:/Work/DeviceTester/amazon-freertos/lib/third_party/unity/src\unity.c ****     const char* pch = string;
 295              		.loc 1 62 0
 296              		.cfi_startproc
 297              		@ args = 0, pretend = 0, frame = 0
 298              		@ frame_needed = 0, uses_anonymous_args = 0
 299              	.LVL28:
 300 0000 10402DE9 		push	{r4, lr}
 301              		.cfi_def_cfa_offset 8
 302              		.cfi_offset 4, -8
 303              		.cfi_offset 14, -4
  65:D:/Work/DeviceTester/amazon-freertos/lib/third_party/unity/src\unity.c ****     {
 304              		.loc 1 65 0
 305 0004 004050E2 		subs	r4, r0, #0
 306 0008 0500001A 		bne	.L39
 307 000c 1080BDE8 		pop	{r4, pc}
 308              	.LVL29:
 309              	.L44:
  70:D:/Work/DeviceTester/amazon-freertos/lib/third_party/unity/src\unity.c ****             {
 310              		.loc 1 70 0
 311 0010 203040E2 		sub	r3, r0, #32
 312 0014 5E0053E3 		cmp	r3, #94
 313 0018 0500008A 		bhi	.L40
 314              	.L49:
  78:D:/Work/DeviceTester/amazon-freertos/lib/third_party/unity/src\unity.c ****             }
 315              		.loc 1 78 0
 316 001c FEFFFFEB 		bl	TEST_CacheResult
 317              	.LVL30:
 318              	.L41:
  93:D:/Work/DeviceTester/amazon-freertos/lib/third_party/unity/src\unity.c ****         }
 319              		.loc 1 93 0
 320 0020 014084E2 		add	r4, r4, #1
 321              	.LVL31:
 322              	.L39:
  67:D:/Work/DeviceTester/amazon-freertos/lib/third_party/unity/src\unity.c ****         {
 323              		.loc 1 67 0
 324 0024 0000D4E5 		ldrb	r0, [r4]	@ zero_extendqisi2
 325 0028 000050E3 		cmp	r0, #0
 326 002c F7FFFF1A 		bne	.L44
 327 0030 1080BDE8 		pop	{r4, pc}
 328              	.L40:
  75:D:/Work/DeviceTester/amazon-freertos/lib/third_party/unity/src\unity.c ****             {
 329              		.loc 1 75 0
 330 0034 0D0050E3 		cmp	r0, #13
 331 0038 0300001A 		bne	.L42
  77:D:/Work/DeviceTester/amazon-freertos/lib/third_party/unity/src\unity.c ****                 UNITY_OUTPUT_CHAR('r');
 332              		.loc 1 77 0
 333 003c 5C00A0E3 		mov	r0, #92
 334 0040 FEFFFFEB 		bl	TEST_CacheResult
 335              	.LVL32:
  78:D:/Work/DeviceTester/amazon-freertos/lib/third_party/unity/src\unity.c ****             }
 336              		.loc 1 78 0
 337 0044 7200A0E3 		mov	r0, #114
 338 0048 F3FFFFEA 		b	.L49
 339              	.L42:
  81:D:/Work/DeviceTester/amazon-freertos/lib/third_party/unity/src\unity.c ****             {
 340              		.loc 1 81 0
 341 004c 0A0050E3 		cmp	r0, #10
  83:D:/Work/DeviceTester/amazon-freertos/lib/third_party/unity/src\unity.c ****                 UNITY_OUTPUT_CHAR('n');
 342              		.loc 1 83 0
 343 0050 5C00A0E3 		mov	r0, #92
  81:D:/Work/DeviceTester/amazon-freertos/lib/third_party/unity/src\unity.c ****             {
 344              		.loc 1 81 0
 345 0054 0200001A 		bne	.L43
  83:D:/Work/DeviceTester/amazon-freertos/lib/third_party/unity/src\unity.c ****                 UNITY_OUTPUT_CHAR('n');
 346              		.loc 1 83 0
 347 0058 FEFFFFEB 		bl	TEST_CacheResult
 348              	.LVL33:
  84:D:/Work/DeviceTester/amazon-freertos/lib/third_party/unity/src\unity.c ****             }
 349              		.loc 1 84 0
 350 005c 6E00A0E3 		mov	r0, #110
 351 0060 EDFFFFEA 		b	.L49
 352              	.L43:
  89:D:/Work/DeviceTester/amazon-freertos/lib/third_party/unity/src\unity.c ****                 UNITY_OUTPUT_CHAR('x');
 353              		.loc 1 89 0
 354 0064 FEFFFFEB 		bl	TEST_CacheResult
 355              	.LVL34:
  90:D:/Work/DeviceTester/amazon-freertos/lib/third_party/unity/src\unity.c ****                 UnityPrintNumberHex((UNITY_UINT)*pch, 2);
 356              		.loc 1 90 0
 357 0068 7800A0E3 		mov	r0, #120
 358 006c FEFFFFEB 		bl	TEST_CacheResult
 359              	.LVL35:
  91:D:/Work/DeviceTester/amazon-freertos/lib/third_party/unity/src\unity.c ****             }
 360              		.loc 1 91 0
 361 0070 0210A0E3 		mov	r1, #2
 362 0074 0000D4E5 		ldrb	r0, [r4]	@ zero_extendqisi2
 363 0078 FEFFFFEB 		bl	UnityPrintNumberHex
 364              	.LVL36:
 365 007c E7FFFFEA 		b	.L41
 366              		.cfi_endproc
 367              	.LFE0:
 369              		.section	.text.UnityTestResultsBegin,"ax",%progbits
 370              		.align	2
 371              		.syntax unified
 372              		.arm
 373              		.fpu neon
 375              	UnityTestResultsBegin:
 376              	.LFB8:
 337:D:/Work/DeviceTester/amazon-freertos/lib/third_party/unity/src\unity.c ****     UnityPrint(file);
 377              		.loc 1 337 0
 378              		.cfi_startproc
 379              		@ args = 0, pretend = 0, frame = 0
 380              		@ frame_needed = 0, uses_anonymous_args = 0
 381              	.LVL37:
 382 0000 10402DE9 		push	{r4, lr}
 383              		.cfi_def_cfa_offset 8
 384              		.cfi_offset 4, -8
 385              		.cfi_offset 14, -4
 337:D:/Work/DeviceTester/amazon-freertos/lib/third_party/unity/src\unity.c ****     UnityPrint(file);
 386              		.loc 1 337 0
 387 0004 0140A0E1 		mov	r4, r1
 338:D:/Work/DeviceTester/amazon-freertos/lib/third_party/unity/src\unity.c ****     UNITY_OUTPUT_CHAR(':');
 388              		.loc 1 338 0
 389 0008 FEFFFFEB 		bl	UnityPrint
 390              	.LVL38:
 339:D:/Work/DeviceTester/amazon-freertos/lib/third_party/unity/src\unity.c ****     UnityPrintNumber((UNITY_INT)line);
 391              		.loc 1 339 0
 392 000c 3A00A0E3 		mov	r0, #58
 393 0010 FEFFFFEB 		bl	TEST_CacheResult
 394              	.LVL39:
 340:D:/Work/DeviceTester/amazon-freertos/lib/third_party/unity/src\unity.c ****     UNITY_OUTPUT_CHAR(':');
 395              		.loc 1 340 0
 396 0014 0400A0E1 		mov	r0, r4
 397 0018 FEFFFFEB 		bl	UnityPrintNumber
 398              	.LVL40:
 341:D:/Work/DeviceTester/amazon-freertos/lib/third_party/unity/src\unity.c ****     UnityPrint(Unity.CurrentTestName);
 399              		.loc 1 341 0
 400 001c 3A00A0E3 		mov	r0, #58
 401 0020 FEFFFFEB 		bl	TEST_CacheResult
 402              	.LVL41:
 342:D:/Work/DeviceTester/amazon-freertos/lib/third_party/unity/src\unity.c ****     UNITY_OUTPUT_CHAR(':');
 403              		.loc 1 342 0
 404 0024 10309FE5 		ldr	r3, .L52
 405 0028 040093E5 		ldr	r0, [r3, #4]
 406 002c FEFFFFEB 		bl	UnityPrint
 407              	.LVL42:
 343:D:/Work/DeviceTester/amazon-freertos/lib/third_party/unity/src\unity.c **** }
 408              		.loc 1 343 0
 409 0030 3A00A0E3 		mov	r0, #58
 344:D:/Work/DeviceTester/amazon-freertos/lib/third_party/unity/src\unity.c **** 
 410              		.loc 1 344 0
 411 0034 1040BDE8 		pop	{r4, lr}
 412              		.cfi_restore 14
 413              		.cfi_restore 4
 414              		.cfi_def_cfa_offset 0
 415              	.LVL43:
 343:D:/Work/DeviceTester/amazon-freertos/lib/third_party/unity/src\unity.c **** }
 416              		.loc 1 343 0
 417 0038 FEFFFFEA 		b	TEST_CacheResult
 418              	.LVL44:
 419              	.L53:
 420              		.align	2
 421              	.L52:
 422 003c 00000000 		.word	Unity
 423              		.cfi_endproc
 424              	.LFE8:
 426              		.section	.text.UnityTestResultsFailBegin,"ax",%progbits
 427              		.align	2
 428              		.syntax unified
 429              		.arm
 430              		.fpu neon
 432              	UnityTestResultsFailBegin:
 433              	.LFB9:
 348:D:/Work/DeviceTester/amazon-freertos/lib/third_party/unity/src\unity.c ****     UnityTestResultsBegin(Unity.TestFile, line);
 434              		.loc 1 348 0
 435              		.cfi_startproc
 436              		@ args = 0, pretend = 0, frame = 0
 437              		@ frame_needed = 0, uses_anonymous_args = 0
 438              	.LVL45:
 349:D:/Work/DeviceTester/amazon-freertos/lib/third_party/unity/src\unity.c ****     UnityPrint(UnityStrFail);
 439              		.loc 1 349 0
 440 0000 20309FE5 		ldr	r3, .L56
 441 0004 0010A0E1 		mov	r1, r0
 348:D:/Work/DeviceTester/amazon-freertos/lib/third_party/unity/src\unity.c ****     UnityTestResultsBegin(Unity.TestFile, line);
 442              		.loc 1 348 0
 443 0008 10402DE9 		push	{r4, lr}
 444              		.cfi_def_cfa_offset 8
 445              		.cfi_offset 4, -8
 446              		.cfi_offset 14, -4
 349:D:/Work/DeviceTester/amazon-freertos/lib/third_party/unity/src\unity.c ****     UnityPrint(UnityStrFail);
 447              		.loc 1 349 0
 448 000c 000093E5 		ldr	r0, [r3]
 449              	.LVL46:
 450 0010 FEFFFFEB 		bl	UnityTestResultsBegin
 451              	.LVL47:
 350:D:/Work/DeviceTester/amazon-freertos/lib/third_party/unity/src\unity.c ****     UNITY_OUTPUT_CHAR(':');
 452              		.loc 1 350 0
 453 0014 10009FE5 		ldr	r0, .L56+4
 454 0018 FEFFFFEB 		bl	UnityPrint
 455              	.LVL48:
 351:D:/Work/DeviceTester/amazon-freertos/lib/third_party/unity/src\unity.c **** }
 456              		.loc 1 351 0
 457 001c 3A00A0E3 		mov	r0, #58
 352:D:/Work/DeviceTester/amazon-freertos/lib/third_party/unity/src\unity.c **** 
 458              		.loc 1 352 0
 459 0020 1040BDE8 		pop	{r4, lr}
 460              		.cfi_restore 14
 461              		.cfi_restore 4
 462              		.cfi_def_cfa_offset 0
 351:D:/Work/DeviceTester/amazon-freertos/lib/third_party/unity/src\unity.c **** }
 463              		.loc 1 351 0
 464 0024 FEFFFFEA 		b	TEST_CacheResult
 465              	.LVL49:
 466              	.L57:
 467              		.align	2
 468              	.L56:
 469 0028 00000000 		.word	Unity
 470 002c 00000000 		.word	.LANCHOR0
 471              		.cfi_endproc
 472              	.LFE9:
 474              		.section	.text.UnityAddMsgIfSpecified,"ax",%progbits
 475              		.align	2
 476              		.syntax unified
 477              		.arm
 478              		.fpu neon
 480              	UnityAddMsgIfSpecified:
 481              	.LFB11:
 379:D:/Work/DeviceTester/amazon-freertos/lib/third_party/unity/src\unity.c ****     if (msg)
 482              		.loc 1 379 0
 483              		.cfi_startproc
 484              		@ args = 0, pretend = 0, frame = 0
 485              		@ frame_needed = 0, uses_anonymous_args = 0
 486              	.LVL50:
 487 0000 70402DE9 		push	{r4, r5, r6, lr}
 488              		.cfi_def_cfa_offset 16
 489              		.cfi_offset 4, -16
 490              		.cfi_offset 5, -12
 491              		.cfi_offset 6, -8
 492              		.cfi_offset 14, -4
 380:D:/Work/DeviceTester/amazon-freertos/lib/third_party/unity/src\unity.c ****     {
 493              		.loc 1 380 0
 494 0004 005050E2 		subs	r5, r0, #0
 495 0008 7080BD08 		popeq	{r4, r5, r6, pc}
 384:D:/Work/DeviceTester/amazon-freertos/lib/third_party/unity/src\unity.c ****         {
 496              		.loc 1 384 0
 497 000c 50409FE5 		ldr	r4, .L69
 382:D:/Work/DeviceTester/amazon-freertos/lib/third_party/unity/src\unity.c **** #ifndef UNITY_EXCLUDE_DETAILS
 498              		.loc 1 382 0
 499 0010 50009FE5 		ldr	r0, .L69+4
 500              	.LVL51:
 501 0014 FEFFFFEB 		bl	UnityPrint
 502              	.LVL52:
 384:D:/Work/DeviceTester/amazon-freertos/lib/third_party/unity/src\unity.c ****         {
 503              		.loc 1 384 0
 504 0018 083094E5 		ldr	r3, [r4, #8]
 505 001c 000053E3 		cmp	r3, #0
 506 0020 0C00000A 		beq	.L60
 386:D:/Work/DeviceTester/amazon-freertos/lib/third_party/unity/src\unity.c ****             UnityPrint(Unity.CurrentDetail1);
 507              		.loc 1 386 0
 508 0024 40009FE5 		ldr	r0, .L69+8
 509 0028 FEFFFFEB 		bl	UnityPrint
 510              	.LVL53:
 387:D:/Work/DeviceTester/amazon-freertos/lib/third_party/unity/src\unity.c ****             if (Unity.CurrentDetail2)
 511              		.loc 1 387 0
 512 002c 080094E5 		ldr	r0, [r4, #8]
 513 0030 FEFFFFEB 		bl	UnityPrint
 514              	.LVL54:
 388:D:/Work/DeviceTester/amazon-freertos/lib/third_party/unity/src\unity.c ****             {
 515              		.loc 1 388 0
 516 0034 0C3094E5 		ldr	r3, [r4, #12]
 517 0038 000053E3 		cmp	r3, #0
 518 003c 0300000A 		beq	.L61
 390:D:/Work/DeviceTester/amazon-freertos/lib/third_party/unity/src\unity.c ****                 UnityPrint(Unity.CurrentDetail2);
 519              		.loc 1 390 0
 520 0040 28009FE5 		ldr	r0, .L69+12
 521 0044 FEFFFFEB 		bl	UnityPrint
 522              	.LVL55:
 391:D:/Work/DeviceTester/amazon-freertos/lib/third_party/unity/src\unity.c ****             }
 523              		.loc 1 391 0
 524 0048 0C0094E5 		ldr	r0, [r4, #12]
 525 004c FEFFFFEB 		bl	UnityPrint
 526              	.LVL56:
 527              	.L61:
 393:D:/Work/DeviceTester/amazon-freertos/lib/third_party/unity/src\unity.c ****         }
 528              		.loc 1 393 0
 529 0050 10009FE5 		ldr	r0, .L69+4
 530 0054 FEFFFFEB 		bl	UnityPrint
 531              	.LVL57:
 532              	.L60:
 396:D:/Work/DeviceTester/amazon-freertos/lib/third_party/unity/src\unity.c ****     }
 533              		.loc 1 396 0
 534 0058 0500A0E1 		mov	r0, r5
 398:D:/Work/DeviceTester/amazon-freertos/lib/third_party/unity/src\unity.c **** 
 535              		.loc 1 398 0
 536 005c 7040BDE8 		pop	{r4, r5, r6, lr}
 537              		.cfi_restore 14
 538              		.cfi_restore 6
 539              		.cfi_restore 5
 540              		.cfi_restore 4
 541              		.cfi_def_cfa_offset 0
 542              	.LVL58:
 396:D:/Work/DeviceTester/amazon-freertos/lib/third_party/unity/src\unity.c ****     }
 543              		.loc 1 396 0
 544 0060 FEFFFFEA 		b	UnityPrint
 545              	.LVL59:
 546              	.L70:
 547              		.align	2
 548              	.L69:
 549 0064 00000000 		.word	Unity
 550 0068 00000000 		.word	.LANCHOR1
 551 006c 00000000 		.word	.LANCHOR2
 552 0070 00000000 		.word	.LANCHOR3
 553              		.cfi_endproc
 554              	.LFE11:
 556              		.section	.text.UnityIsOneArrayNull,"ax",%progbits
 557              		.align	2
 558              		.syntax unified
 559              		.arm
 560              		.fpu neon
 562              	UnityIsOneArrayNull:
 563              	.LFB14:
 464:D:/Work/DeviceTester/amazon-freertos/lib/third_party/unity/src\unity.c ****     if (expected == actual) return 0; /* Both are NULL or same pointer */
 564              		.loc 1 464 0
 565              		.cfi_startproc
 566              		@ args = 0, pretend = 0, frame = 0
 567              		@ frame_needed = 0, uses_anonymous_args = 0
 568              	.LVL60:
 465:D:/Work/DeviceTester/amazon-freertos/lib/third_party/unity/src\unity.c **** 
 569              		.loc 1 465 0
 570 0000 010050E1 		cmp	r0, r1
 571 0004 1100000A 		beq	.L74
 572 0008 00C0A0E1 		mov	ip, r0
 464:D:/Work/DeviceTester/amazon-freertos/lib/third_party/unity/src\unity.c ****     if (expected == actual) return 0; /* Both are NULL or same pointer */
 573              		.loc 1 464 0
 574 000c 10402DE9 		push	{r4, lr}
 575              		.cfi_def_cfa_offset 8
 576              		.cfi_offset 4, -8
 577              		.cfi_offset 14, -4
 468:D:/Work/DeviceTester/amazon-freertos/lib/third_party/unity/src\unity.c ****     {
 578              		.loc 1 468 0
 579 0010 00005CE3 		cmp	ip, #0
 580 0014 0340A0E1 		mov	r4, r3
 581 0018 0200A0E1 		mov	r0, r2
 582              	.LVL61:
 583 001c 0600001A 		bne	.L73
 584              	.LVL62:
 585              	.LBB10:
 586              	.LBB11:
 470:D:/Work/DeviceTester/amazon-freertos/lib/third_party/unity/src\unity.c ****         UnityPrint(UnityStrNullPointerForExpected);
 587              		.loc 1 470 0
 588 0020 FEFFFFEB 		bl	UnityTestResultsFailBegin
 589              	.LVL63:
 471:D:/Work/DeviceTester/amazon-freertos/lib/third_party/unity/src\unity.c ****         UnityAddMsgIfSpecified(msg);
 590              		.loc 1 471 0
 591 0024 34009FE5 		ldr	r0, .L81
 592              	.LVL64:
 593              	.L80:
 594              	.LBE11:
 595              	.LBE10:
 480:D:/Work/DeviceTester/amazon-freertos/lib/third_party/unity/src\unity.c ****         UnityAddMsgIfSpecified(msg);
 596              		.loc 1 480 0
 597 0028 FEFFFFEB 		bl	UnityPrint
 598              	.LVL65:
 481:D:/Work/DeviceTester/amazon-freertos/lib/third_party/unity/src\unity.c ****         return 1;
 599              		.loc 1 481 0
 600 002c 0400A0E1 		mov	r0, r4
 601 0030 FEFFFFEB 		bl	UnityAddMsgIfSpecified
 602              	.LVL66:
 482:D:/Work/DeviceTester/amazon-freertos/lib/third_party/unity/src\unity.c ****     }
 603              		.loc 1 482 0
 604 0034 0100A0E3 		mov	r0, #1
 605 0038 1080BDE8 		pop	{r4, pc}
 606              	.LVL67:
 607              	.L73:
 477:D:/Work/DeviceTester/amazon-freertos/lib/third_party/unity/src\unity.c ****     {
 608              		.loc 1 477 0
 609 003c 000051E3 		cmp	r1, #0
 610 0040 0400001A 		bne	.L75
 479:D:/Work/DeviceTester/amazon-freertos/lib/third_party/unity/src\unity.c ****         UnityPrint(UnityStrNullPointerForActual);
 611              		.loc 1 479 0
 612 0044 FEFFFFEB 		bl	UnityTestResultsFailBegin
 613              	.LVL68:
 480:D:/Work/DeviceTester/amazon-freertos/lib/third_party/unity/src\unity.c ****         UnityAddMsgIfSpecified(msg);
 614              		.loc 1 480 0
 615 0048 14009FE5 		ldr	r0, .L81+4
 616 004c F5FFFFEA 		b	.L80
 617              	.LVL69:
 618              	.L74:
 619              		.cfi_def_cfa_offset 0
 620              		.cfi_restore 4
 621              		.cfi_restore 14
 465:D:/Work/DeviceTester/amazon-freertos/lib/third_party/unity/src\unity.c **** 
 622              		.loc 1 465 0
 623 0050 0000A0E3 		mov	r0, #0
 624              	.LVL70:
 625 0054 1EFF2FE1 		bx	lr
 626              	.LVL71:
 627              	.L75:
 628              		.cfi_def_cfa_offset 8
 629              		.cfi_offset 4, -8
 630              		.cfi_offset 14, -4
 631 0058 0000A0E3 		mov	r0, #0
 632              	.LVL72:
 486:D:/Work/DeviceTester/amazon-freertos/lib/third_party/unity/src\unity.c **** 
 633              		.loc 1 486 0
 634 005c 1080BDE8 		pop	{r4, pc}
 635              	.L82:
 636              		.align	2
 637              	.L81:
 638 0060 00000000 		.word	.LANCHOR4
 639 0064 00000000 		.word	.LANCHOR5
 640              		.cfi_endproc
 641              	.LFE14:
 643              		.section	.text.UnityPrintExpectedAndActualStrings,"ax",%progbits
 644              		.align	2
 645              		.syntax unified
 646              		.arm
 647              		.fpu neon
 649              	UnityPrintExpectedAndActualStrings:
 650              	.LFB12:
 402:D:/Work/DeviceTester/amazon-freertos/lib/third_party/unity/src\unity.c ****     UnityPrint(UnityStrExpected);
 651              		.loc 1 402 0
 652              		.cfi_startproc
 653              		@ args = 0, pretend = 0, frame = 0
 654              		@ frame_needed = 0, uses_anonymous_args = 0
 655              	.LVL73:
 656 0000 70402DE9 		push	{r4, r5, r6, lr}
 657              		.cfi_def_cfa_offset 16
 658              		.cfi_offset 4, -16
 659              		.cfi_offset 5, -12
 660              		.cfi_offset 6, -8
 661              		.cfi_offset 14, -4
 402:D:/Work/DeviceTester/amazon-freertos/lib/third_party/unity/src\unity.c ****     UnityPrint(UnityStrExpected);
 662              		.loc 1 402 0
 663 0004 0050A0E1 		mov	r5, r0
 403:D:/Work/DeviceTester/amazon-freertos/lib/third_party/unity/src\unity.c ****     if (expected != NULL)
 664              		.loc 1 403 0
 665 0008 68009FE5 		ldr	r0, .L88
 666              	.LVL74:
 402:D:/Work/DeviceTester/amazon-freertos/lib/third_party/unity/src\unity.c ****     UnityPrint(UnityStrExpected);
 667              		.loc 1 402 0
 668 000c 0140A0E1 		mov	r4, r1
 403:D:/Work/DeviceTester/amazon-freertos/lib/third_party/unity/src\unity.c ****     if (expected != NULL)
 669              		.loc 1 403 0
 670 0010 FEFFFFEB 		bl	UnityPrint
 671              	.LVL75:
 404:D:/Work/DeviceTester/amazon-freertos/lib/third_party/unity/src\unity.c ****     {
 672              		.loc 1 404 0
 673 0014 000055E3 		cmp	r5, #0
 674 0018 1000000A 		beq	.L84
 406:D:/Work/DeviceTester/amazon-freertos/lib/third_party/unity/src\unity.c ****         UnityPrint(expected);
 675              		.loc 1 406 0
 676 001c 2700A0E3 		mov	r0, #39
 677 0020 FEFFFFEB 		bl	TEST_CacheResult
 678              	.LVL76:
 407:D:/Work/DeviceTester/amazon-freertos/lib/third_party/unity/src\unity.c ****         UNITY_OUTPUT_CHAR('\'');
 679              		.loc 1 407 0
 680 0024 0500A0E1 		mov	r0, r5
 681 0028 FEFFFFEB 		bl	UnityPrint
 682              	.LVL77:
 408:D:/Work/DeviceTester/amazon-freertos/lib/third_party/unity/src\unity.c ****     }
 683              		.loc 1 408 0
 684 002c 2700A0E3 		mov	r0, #39
 685 0030 FEFFFFEB 		bl	TEST_CacheResult
 686              	.LVL78:
 687              	.L85:
 414:D:/Work/DeviceTester/amazon-freertos/lib/third_party/unity/src\unity.c ****     if (actual != NULL)
 688              		.loc 1 414 0
 689 0034 40009FE5 		ldr	r0, .L88+4
 690 0038 FEFFFFEB 		bl	UnityPrint
 691              	.LVL79:
 415:D:/Work/DeviceTester/amazon-freertos/lib/third_party/unity/src\unity.c ****     {
 692              		.loc 1 415 0
 693 003c 000054E3 		cmp	r4, #0
 694 0040 0900000A 		beq	.L86
 417:D:/Work/DeviceTester/amazon-freertos/lib/third_party/unity/src\unity.c ****         UnityPrint(actual);
 695              		.loc 1 417 0
 696 0044 2700A0E3 		mov	r0, #39
 697 0048 FEFFFFEB 		bl	TEST_CacheResult
 698              	.LVL80:
 418:D:/Work/DeviceTester/amazon-freertos/lib/third_party/unity/src\unity.c ****         UNITY_OUTPUT_CHAR('\'');
 699              		.loc 1 418 0
 700 004c 0400A0E1 		mov	r0, r4
 701 0050 FEFFFFEB 		bl	UnityPrint
 702              	.LVL81:
 419:D:/Work/DeviceTester/amazon-freertos/lib/third_party/unity/src\unity.c ****     }
 703              		.loc 1 419 0
 704 0054 2700A0E3 		mov	r0, #39
 425:D:/Work/DeviceTester/amazon-freertos/lib/third_party/unity/src\unity.c **** 
 705              		.loc 1 425 0
 706 0058 7040BDE8 		pop	{r4, r5, r6, lr}
 707              		.cfi_remember_state
 708              		.cfi_restore 14
 709              		.cfi_restore 6
 710              		.cfi_restore 5
 711              		.cfi_restore 4
 712              		.cfi_def_cfa_offset 0
 713              	.LVL82:
 419:D:/Work/DeviceTester/amazon-freertos/lib/third_party/unity/src\unity.c ****     }
 714              		.loc 1 419 0
 715 005c FEFFFFEA 		b	TEST_CacheResult
 716              	.LVL83:
 717              	.L84:
 718              		.cfi_restore_state
 412:D:/Work/DeviceTester/amazon-freertos/lib/third_party/unity/src\unity.c ****     }
 719              		.loc 1 412 0
 720 0060 18009FE5 		ldr	r0, .L88+8
 721 0064 FEFFFFEB 		bl	UnityPrint
 722              	.LVL84:
 723 0068 F1FFFFEA 		b	.L85
 724              	.L86:
 423:D:/Work/DeviceTester/amazon-freertos/lib/third_party/unity/src\unity.c ****     }
 725              		.loc 1 423 0
 726 006c 0C009FE5 		ldr	r0, .L88+8
 425:D:/Work/DeviceTester/amazon-freertos/lib/third_party/unity/src\unity.c **** 
 727              		.loc 1 425 0
 728 0070 7040BDE8 		pop	{r4, r5, r6, lr}
 729              		.cfi_restore 14
 730              		.cfi_restore 6
 731              		.cfi_restore 5
 732              		.cfi_restore 4
 733              		.cfi_def_cfa_offset 0
 734              	.LVL85:
 423:D:/Work/DeviceTester/amazon-freertos/lib/third_party/unity/src\unity.c ****     }
 735              		.loc 1 423 0
 736 0074 FEFFFFEA 		b	UnityPrint
 737              	.LVL86:
 738              	.L89:
 739              		.align	2
 740              	.L88:
 741 0078 00000000 		.word	.LANCHOR6
 742 007c 00000000 		.word	.LANCHOR8
 743 0080 00000000 		.word	.LANCHOR7
 744              		.cfi_endproc
 745              	.LFE12:
 747              		.section	.text.UnityPrintLen,"ax",%progbits
 748              		.align	2
 749              		.global	UnityPrintLen
 750              		.syntax unified
 751              		.arm
 752              		.fpu neon
 754              	UnityPrintLen:
 755              	.LFB1:
  99:D:/Work/DeviceTester/amazon-freertos/lib/third_party/unity/src\unity.c ****     const char* pch = string;
 756              		.loc 1 99 0
 757              		.cfi_startproc
 758              		@ args = 0, pretend = 0, frame = 0
 759              		@ frame_needed = 0, uses_anonymous_args = 0
 760              	.LVL87:
 761 0000 70402DE9 		push	{r4, r5, r6, lr}
 762              		.cfi_def_cfa_offset 16
 763              		.cfi_offset 4, -16
 764              		.cfi_offset 5, -12
 765              		.cfi_offset 6, -8
 766              		.cfi_offset 14, -4
 102:D:/Work/DeviceTester/amazon-freertos/lib/third_party/unity/src\unity.c ****     {
 767              		.loc 1 102 0
 768 0004 005050E2 		subs	r5, r0, #0
 769 0008 0160A011 		movne	r6, r1
 770 000c 0540A011 		movne	r4, r5
 771 0010 0500001A 		bne	.L92
 772 0014 7080BDE8 		pop	{r4, r5, r6, pc}
 773              	.LVL88:
 774              	.L97:
 107:D:/Work/DeviceTester/amazon-freertos/lib/third_party/unity/src\unity.c ****             {
 775              		.loc 1 107 0
 776 0018 203040E2 		sub	r3, r0, #32
 777 001c 5E0053E3 		cmp	r3, #94
 778 0020 0800008A 		bhi	.L93
 779              	.L105:
 115:D:/Work/DeviceTester/amazon-freertos/lib/third_party/unity/src\unity.c ****             }
 780              		.loc 1 115 0
 781 0024 FEFFFFEB 		bl	TEST_CacheResult
 782              	.LVL89:
 783              	.L94:
 130:D:/Work/DeviceTester/amazon-freertos/lib/third_party/unity/src\unity.c ****         }
 784              		.loc 1 130 0
 785 0028 014084E2 		add	r4, r4, #1
 786              	.LVL90:
 787              	.L92:
 104:D:/Work/DeviceTester/amazon-freertos/lib/third_party/unity/src\unity.c ****         {
 788              		.loc 1 104 0
 789 002c 0000D4E5 		ldrb	r0, [r4]	@ zero_extendqisi2
 790 0030 000050E3 		cmp	r0, #0
 791 0034 7080BD08 		popeq	{r4, r5, r6, pc}
 104:D:/Work/DeviceTester/amazon-freertos/lib/third_party/unity/src\unity.c ****         {
 792              		.loc 1 104 0 is_stmt 0 discriminator 1
 793 0038 053044E0 		sub	r3, r4, r5
 794 003c 060053E1 		cmp	r3, r6
 795 0040 F4FFFF3A 		bcc	.L97
 796 0044 7080BDE8 		pop	{r4, r5, r6, pc}
 797              	.L93:
 112:D:/Work/DeviceTester/amazon-freertos/lib/third_party/unity/src\unity.c ****             {
 798              		.loc 1 112 0 is_stmt 1
 799 0048 0D0050E3 		cmp	r0, #13
 800 004c 0300001A 		bne	.L95
 114:D:/Work/DeviceTester/amazon-freertos/lib/third_party/unity/src\unity.c ****                 UNITY_OUTPUT_CHAR('r');
 801              		.loc 1 114 0
 802 0050 5C00A0E3 		mov	r0, #92
 803 0054 FEFFFFEB 		bl	TEST_CacheResult
 804              	.LVL91:
 115:D:/Work/DeviceTester/amazon-freertos/lib/third_party/unity/src\unity.c ****             }
 805              		.loc 1 115 0
 806 0058 7200A0E3 		mov	r0, #114
 807 005c F0FFFFEA 		b	.L105
 808              	.L95:
 118:D:/Work/DeviceTester/amazon-freertos/lib/third_party/unity/src\unity.c ****             {
 809              		.loc 1 118 0
 810 0060 0A0050E3 		cmp	r0, #10
 120:D:/Work/DeviceTester/amazon-freertos/lib/third_party/unity/src\unity.c ****                 UNITY_OUTPUT_CHAR('n');
 811              		.loc 1 120 0
 812 0064 5C00A0E3 		mov	r0, #92
 118:D:/Work/DeviceTester/amazon-freertos/lib/third_party/unity/src\unity.c ****             {
 813              		.loc 1 118 0
 814 0068 0200001A 		bne	.L96
 120:D:/Work/DeviceTester/amazon-freertos/lib/third_party/unity/src\unity.c ****                 UNITY_OUTPUT_CHAR('n');
 815              		.loc 1 120 0
 816 006c FEFFFFEB 		bl	TEST_CacheResult
 817              	.LVL92:
 121:D:/Work/DeviceTester/amazon-freertos/lib/third_party/unity/src\unity.c ****             }
 818              		.loc 1 121 0
 819 0070 6E00A0E3 		mov	r0, #110
 820 0074 EAFFFFEA 		b	.L105
 821              	.L96:
 126:D:/Work/DeviceTester/amazon-freertos/lib/third_party/unity/src\unity.c ****                 UNITY_OUTPUT_CHAR('x');
 822              		.loc 1 126 0
 823 0078 FEFFFFEB 		bl	TEST_CacheResult
 824              	.LVL93:
 127:D:/Work/DeviceTester/amazon-freertos/lib/third_party/unity/src\unity.c ****                 UnityPrintNumberHex((UNITY_UINT)*pch, 2);
 825              		.loc 1 127 0
 826 007c 7800A0E3 		mov	r0, #120
 827 0080 FEFFFFEB 		bl	TEST_CacheResult
 828              	.LVL94:
 128:D:/Work/DeviceTester/amazon-freertos/lib/third_party/unity/src\unity.c ****             }
 829              		.loc 1 128 0
 830 0084 0210A0E3 		mov	r1, #2
 831 0088 0000D4E5 		ldrb	r0, [r4]	@ zero_extendqisi2
 832 008c FEFFFFEB 		bl	UnityPrintNumberHex
 833              	.LVL95:
 834 0090 E4FFFFEA 		b	.L94
 835              		.cfi_endproc
 836              	.LFE1:
 838              		.section	.text.UnityPrintNumberByStyle,"ax",%progbits
 839              		.align	2
 840              		.global	UnityPrintNumberByStyle
 841              		.syntax unified
 842              		.arm
 843              		.fpu neon
 845              	UnityPrintNumberByStyle:
 846              	.LFB2:
 137:D:/Work/DeviceTester/amazon-freertos/lib/third_party/unity/src\unity.c ****     if ((style & UNITY_DISPLAY_RANGE_INT) == UNITY_DISPLAY_RANGE_INT)
 847              		.loc 1 137 0
 848              		.cfi_startproc
 849              		@ args = 0, pretend = 0, frame = 0
 850              		@ frame_needed = 0, uses_anonymous_args = 0
 851              	.LVL96:
 138:D:/Work/DeviceTester/amazon-freertos/lib/third_party/unity/src\unity.c ****     {
 852              		.loc 1 138 0
 853 0000 100011E3 		tst	r1, #16
 854 0004 0000000A 		beq	.L107
 140:D:/Work/DeviceTester/amazon-freertos/lib/third_party/unity/src\unity.c ****     }
 855              		.loc 1 140 0
 856 0008 FEFFFFEA 		b	UnityPrintNumber
 857              	.LVL97:
 858              	.L107:
 142:D:/Work/DeviceTester/amazon-freertos/lib/third_party/unity/src\unity.c ****     {
 859              		.loc 1 142 0
 860 000c 200011E3 		tst	r1, #32
 861 0010 0000000A 		beq	.L108
 144:D:/Work/DeviceTester/amazon-freertos/lib/third_party/unity/src\unity.c ****     }
 862              		.loc 1 144 0
 863 0014 FEFFFFEA 		b	UnityPrintNumberUnsigned
 864              	.LVL98:
 865              	.L108:
 137:D:/Work/DeviceTester/amazon-freertos/lib/third_party/unity/src\unity.c ****     if ((style & UNITY_DISPLAY_RANGE_INT) == UNITY_DISPLAY_RANGE_INT)
 866              		.loc 1 137 0
 867 0018 70402DE9 		push	{r4, r5, r6, lr}
 868              		.cfi_def_cfa_offset 16
 869              		.cfi_offset 4, -16
 870              		.cfi_offset 5, -12
 871              		.cfi_offset 6, -8
 872              		.cfi_offset 14, -4
 873 001c 0050A0E1 		mov	r5, r0
 874              	.LBB14:
 875              	.LBB15:
 148:D:/Work/DeviceTester/amazon-freertos/lib/third_party/unity/src\unity.c ****         UNITY_OUTPUT_CHAR('x');
 876              		.loc 1 148 0
 877 0020 3000A0E3 		mov	r0, #48
 878              	.LVL99:
 879 0024 0140A0E1 		mov	r4, r1
 880              	.LVL100:
 881 0028 FEFFFFEB 		bl	TEST_CacheResult
 882              	.LVL101:
 149:D:/Work/DeviceTester/amazon-freertos/lib/third_party/unity/src\unity.c ****         UnityPrintNumberHex((UNITY_UINT)number, (char)((style & 0xF) * 2));
 883              		.loc 1 149 0
 884 002c 7800A0E3 		mov	r0, #120
 885 0030 FEFFFFEB 		bl	TEST_CacheResult
 886              	.LVL102:
 150:D:/Work/DeviceTester/amazon-freertos/lib/third_party/unity/src\unity.c ****     }
 887              		.loc 1 150 0
 888 0034 0F1004E2 		and	r1, r4, #15
 889 0038 0500A0E1 		mov	r0, r5
 890 003c 8110A0E1 		lsl	r1, r1, #1
 891              	.LBE15:
 892              	.LBE14:
 152:D:/Work/DeviceTester/amazon-freertos/lib/third_party/unity/src\unity.c **** 
 893              		.loc 1 152 0
 894 0040 7040BDE8 		pop	{r4, r5, r6, lr}
 895              		.cfi_restore 14
 896              		.cfi_restore 6
 897              		.cfi_restore 5
 898              		.cfi_restore 4
 899              		.cfi_def_cfa_offset 0
 900              	.LVL103:
 901              	.LBB17:
 902              	.LBB16:
 150:D:/Work/DeviceTester/amazon-freertos/lib/third_party/unity/src\unity.c ****     }
 903              		.loc 1 150 0
 904 0044 FEFFFFEA 		b	UnityPrintNumberHex
 905              	.LVL104:
 906              	.LBE16:
 907              	.LBE17:
 908              		.cfi_endproc
 909              	.LFE2:
 911              		.section	.text.UnityPrintMask,"ax",%progbits
 912              		.align	2
 913              		.global	UnityPrintMask
 914              		.syntax unified
 915              		.arm
 916              		.fpu neon
 918              	UnityPrintMask:
 919              	.LFB6:
 213:D:/Work/DeviceTester/amazon-freertos/lib/third_party/unity/src\unity.c ****     UNITY_UINT current_bit = (UNITY_UINT)1 << (UNITY_INT_WIDTH - 1);
 920              		.loc 1 213 0
 921              		.cfi_startproc
 922              		@ args = 0, pretend = 0, frame = 0
 923              		@ frame_needed = 0, uses_anonymous_args = 0
 924              	.LVL105:
 925 0000 F0412DE9 		push	{r4, r5, r6, r7, r8, lr}
 926              		.cfi_def_cfa_offset 24
 927              		.cfi_offset 4, -24
 928              		.cfi_offset 5, -20
 929              		.cfi_offset 6, -16
 930              		.cfi_offset 7, -12
 931              		.cfi_offset 8, -8
 932              		.cfi_offset 14, -4
 213:D:/Work/DeviceTester/amazon-freertos/lib/third_party/unity/src\unity.c ****     UNITY_UINT current_bit = (UNITY_UINT)1 << (UNITY_INT_WIDTH - 1);
 933              		.loc 1 213 0
 934 0004 0060A0E1 		mov	r6, r0
 935 0008 0170A0E1 		mov	r7, r1
 936 000c 2050A0E3 		mov	r5, #32
 214:D:/Work/DeviceTester/amazon-freertos/lib/third_party/unity/src\unity.c ****     UNITY_INT32 i;
 937              		.loc 1 214 0
 938 0010 0241A0E3 		mov	r4, #-2147483648
 939              	.LVL106:
 940              	.L115:
 219:D:/Work/DeviceTester/amazon-freertos/lib/third_party/unity/src\unity.c ****         {
 941              		.loc 1 219 0
 942 0014 040016E1 		tst	r6, r4
 232:D:/Work/DeviceTester/amazon-freertos/lib/third_party/unity/src\unity.c ****         }
 943              		.loc 1 232 0
 944 0018 5800A003 		moveq	r0, #88
 219:D:/Work/DeviceTester/amazon-freertos/lib/third_party/unity/src\unity.c ****         {
 945              		.loc 1 219 0
 946 001c 0200000A 		beq	.L118
 221:D:/Work/DeviceTester/amazon-freertos/lib/third_party/unity/src\unity.c ****             {
 947              		.loc 1 221 0
 948 0020 040017E1 		tst	r7, r4
 223:D:/Work/DeviceTester/amazon-freertos/lib/third_party/unity/src\unity.c ****             }
 949              		.loc 1 223 0
 950 0024 3100A013 		movne	r0, #49
 227:D:/Work/DeviceTester/amazon-freertos/lib/third_party/unity/src\unity.c ****             }
 951              		.loc 1 227 0
 952 0028 3000A003 		moveq	r0, #48
 953              	.L118:
 232:D:/Work/DeviceTester/amazon-freertos/lib/third_party/unity/src\unity.c ****         }
 954              		.loc 1 232 0
 955 002c FEFFFFEB 		bl	TEST_CacheResult
 956              	.LVL107:
 217:D:/Work/DeviceTester/amazon-freertos/lib/third_party/unity/src\unity.c ****     {
 957              		.loc 1 217 0
 958 0030 015055E2 		subs	r5, r5, #1
 959              	.LVL108:
 234:D:/Work/DeviceTester/amazon-freertos/lib/third_party/unity/src\unity.c ****     }
 960              		.loc 1 234 0
 961 0034 A440A0E1 		lsr	r4, r4, #1
 962              	.LVL109:
 217:D:/Work/DeviceTester/amazon-freertos/lib/third_party/unity/src\unity.c ****     {
 963              		.loc 1 217 0
 964 0038 F5FFFF1A 		bne	.L115
 236:D:/Work/DeviceTester/amazon-freertos/lib/third_party/unity/src\unity.c **** 
 965              		.loc 1 236 0
 966 003c F081BDE8 		pop	{r4, r5, r6, r7, r8, pc}
 967              		.cfi_endproc
 968              	.LFE6:
 970              		.global	__aeabi_idiv
 971              		.global	__aeabi_idivmod
 972              		.section	.text.UnityPrintFloat,"ax",%progbits
 973              		.align	2
 974              		.global	UnityPrintFloat
 975              		.syntax unified
 976              		.arm
 977              		.fpu neon
 979              	UnityPrintFloat:
 980              	.LFB7:
 246:D:/Work/DeviceTester/amazon-freertos/lib/third_party/unity/src\unity.c ****     UNITY_DOUBLE number = input_number;
 981              		.loc 1 246 0
 982              		.cfi_startproc
 983              		@ args = 0, pretend = 0, frame = 16
 984              		@ frame_needed = 0, uses_anonymous_args = 0
 985              	.LVL110:
 250:D:/Work/DeviceTester/amazon-freertos/lib/third_party/unity/src\unity.c ****     {
 986              		.loc 1 250 0
 987 0000 C00AB5EE 		vcmpe.f32	s0, #0
 988 0004 10FAF1EE 		vmrs	APSR_nzcv, FPSCR
 246:D:/Work/DeviceTester/amazon-freertos/lib/third_party/unity/src\unity.c ****     UNITY_DOUBLE number = input_number;
 989              		.loc 1 246 0
 990 0008 F0412DE9 		push	{r4, r5, r6, r7, r8, lr}
 991              		.cfi_def_cfa_offset 24
 992              		.cfi_offset 4, -24
 993              		.cfi_offset 5, -20
 994              		.cfi_offset 6, -16
 995              		.cfi_offset 7, -12
 996              		.cfi_offset 8, -8
 997              		.cfi_offset 14, -4
 998 000c 028B2DED 		vpush.64	{d8}
 999              		.cfi_def_cfa_offset 32
 1000              		.cfi_offset 80, -32
 1001              		.cfi_offset 81, -28
 1002 0010 10D04DE2 		sub	sp, sp, #16
 1003              		.cfi_def_cfa_offset 48
 246:D:/Work/DeviceTester/amazon-freertos/lib/third_party/unity/src\unity.c ****     UNITY_DOUBLE number = input_number;
 1004              		.loc 1 246 0
 1005 0014 408AB0EE 		vmov.f32	s16, s0
 250:D:/Work/DeviceTester/amazon-freertos/lib/third_party/unity/src\unity.c ****     {
 1006              		.loc 1 250 0
 1007 0018 0C00004A 		bmi	.L120
 250:D:/Work/DeviceTester/amazon-freertos/lib/third_party/unity/src\unity.c ****     {
 1008              		.loc 1 250 0 is_stmt 0 discriminator 1
 1009 001c 400AB5EE 		vcmp.f32	s0, #0
 1010 0020 10FAF1EE 		vmrs	APSR_nzcv, FPSCR
 1011 0024 6E00001A 		bne	.L151
 250:D:/Work/DeviceTester/amazon-freertos/lib/third_party/unity/src\unity.c ****     {
 1012              		.loc 1 250 0 discriminator 2
 1013 0028 007AB7EE 		vmov.f32	s14, #1.0e+0
 1014 002c 007AC7EE 		vdiv.f32	s15, s14, s0
 1015 0030 C07AF5EE 		vcmpe.f32	s15, #0
 1016 0034 10FAF1EE 		vmrs	APSR_nzcv, FPSCR
 1017 0038 0400004A 		bmi	.L120
 1018              	.LVL111:
 1019              	.L122:
 257:D:/Work/DeviceTester/amazon-freertos/lib/third_party/unity/src\unity.c ****     else if (isnan(number)) UnityPrint("nan");
 1020              		.loc 1 257 0 is_stmt 1
 1021 003c 70029FE5 		ldr	r0, .L162+20
 1022              	.L161:
 332:D:/Work/DeviceTester/amazon-freertos/lib/third_party/unity/src\unity.c **** #endif /* ! UNITY_EXCLUDE_FLOAT_PRINT */
 1023              		.loc 1 332 0 discriminator 1
 1024 0040 10D08DE2 		add	sp, sp, #16
 1025              		.cfi_remember_state
 1026              		.cfi_def_cfa_offset 32
 1027              		@ sp needed
 1028 0044 028BBDEC 		vldm	sp!, {d8}
 1029              		.cfi_restore 80
 1030              		.cfi_restore 81
 1031              		.cfi_def_cfa_offset 24
 1032              	.LVL112:
 1033 0048 F041BDE8 		pop	{r4, r5, r6, r7, r8, lr}
 1034              		.cfi_restore 14
 1035              		.cfi_restore 8
 1036              		.cfi_restore 7
 1037              		.cfi_restore 6
 1038              		.cfi_restore 5
 1039              		.cfi_restore 4
 1040              		.cfi_def_cfa_offset 0
 259:D:/Work/DeviceTester/amazon-freertos/lib/third_party/unity/src\unity.c ****     else
 1041              		.loc 1 259 0 discriminator 1
 1042 004c FEFFFFEA 		b	UnityPrint
 1043              	.LVL113:
 1044              	.L120:
 1045              		.cfi_restore_state
 252:D:/Work/DeviceTester/amazon-freertos/lib/third_party/unity/src\unity.c ****         number = -number;
 1046              		.loc 1 252 0
 1047 0050 2D00A0E3 		mov	r0, #45
 1048 0054 FEFFFFEB 		bl	TEST_CacheResult
 1049              	.LVL114:
 257:D:/Work/DeviceTester/amazon-freertos/lib/third_party/unity/src\unity.c ****     else if (isnan(number)) UnityPrint("nan");
 1050              		.loc 1 257 0
 1051 0058 408AB5EE 		vcmp.f32	s16, #0
 1052 005c 10FAF1EE 		vmrs	APSR_nzcv, FPSCR
 253:D:/Work/DeviceTester/amazon-freertos/lib/third_party/unity/src\unity.c ****     }
 1053              		.loc 1 253 0
 1054 0060 487AF1EE 		vneg.f32	s15, s16
 1055              	.LVL115:
 257:D:/Work/DeviceTester/amazon-freertos/lib/third_party/unity/src\unity.c ****     else if (isnan(number)) UnityPrint("nan");
 1056              		.loc 1 257 0
 1057 0064 F4FFFF0A 		beq	.L122
 1058              	.L121:
 258:D:/Work/DeviceTester/amazon-freertos/lib/third_party/unity/src\unity.c ****     else if (isinf(number)) UnityPrint("inf");
 1059              		.loc 1 258 0
 1060 0068 677AF4EE 		vcmp.f32	s15, s15
 1061 006c 10FAF1EE 		vmrs	APSR_nzcv, FPSCR
 1062 0070 40029F65 		ldrvs	r0, .L162+24
 1063 0074 F1FFFF6A 		bvs	.L161
 259:D:/Work/DeviceTester/amazon-freertos/lib/third_party/unity/src\unity.c ****     else
 1064              		.loc 1 259 0
 1065 0078 886ADFED 		vldr.32	s13, .L162
 1066 007c E77AB0EE 		vabs.f32	s14, s15
 1067 0080 667AB4EE 		vcmp.f32	s14, s13
 1068 0084 10FAF1EE 		vmrs	APSR_nzcv, FPSCR
 1069 0088 570000CA 		bgt	.L159
 1070              	.LBB18:
 268:D:/Work/DeviceTester/amazon-freertos/lib/third_party/unity/src\unity.c ****         while (number < 100000.0f)         { number *= 10.0f; exponent--; }
 1071              		.loc 1 268 0 discriminator 1
 1072 008c 847A9FED 		vldr.32	s14, .L162+4
 1073              	.LBE18:
 1074 0090 0000A0E3 		mov	r0, #0
 1075              	.LBB19:
 1076 0094 836ADFED 		vldr.32	s13, .L162+8
 1077              	.L126:
 1078              	.LVL116:
 1079 0098 C77AF4EE 		vcmpe.f32	s15, s14
 1080 009c 10FAF1EE 		vmrs	APSR_nzcv, FPSCR
 1081 00a0 5300004A 		bmi	.L127
 269:D:/Work/DeviceTester/amazon-freertos/lib/third_party/unity/src\unity.c ****         while (number > 1000000.0f * 1e6f) { number /= 1e6f; exponent += 6; }
 1082              		.loc 1 269 0 discriminator 1
 1083 00a4 807A9FED 		vldr.32	s14, .L162+12
 1084 00a8 046AF2EE 		vmov.f32	s13, #1.0e+1
 1085              	.L128:
 1086 00ac C77AF4EE 		vcmpe.f32	s15, s14
 1087 00b0 10FAF1EE 		vmrs	APSR_nzcv, FPSCR
 1088 00b4 5100004A 		bmi	.L129
 270:D:/Work/DeviceTester/amazon-freertos/lib/third_party/unity/src\unity.c ****         while (number > 1000000.0f)        { number /= 10.0f; exponent++; }
 1089              		.loc 1 270 0 discriminator 1
 1090 00b8 7C6ADFED 		vldr.32	s13, .L162+16
 1091 00bc 797A9FED 		vldr.32	s14, .L162+8
 1092              	.L130:
 1093 00c0 E67AF4EE 		vcmpe.f32	s15, s13
 1094 00c4 10FAF1EE 		vmrs	APSR_nzcv, FPSCR
 1095 00c8 4F0000CA 		bgt	.L131
 271:D:/Work/DeviceTester/amazon-freertos/lib/third_party/unity/src\unity.c **** 
 1096              		.loc 1 271 0 discriminator 1
 1097 00cc 046AF2EE 		vmov.f32	s13, #1.0e+1
 1098              	.L132:
 1099 00d0 C77AF4EE 		vcmpe.f32	s15, s14
 1100 00d4 10FAF1EE 		vmrs	APSR_nzcv, FPSCR
 1101 00d8 4E0000CA 		bgt	.L133
 274:D:/Work/DeviceTester/amazon-freertos/lib/third_party/unity/src\unity.c ****         if (n > 999999)
 1102              		.loc 1 274 0
 1103 00dc A77A77EE 		vadd.f32	s15, s15, s15
 1104              	.LVL117:
 1105 00e0 E77AFDEE 		vcvt.s32.f32	s15, s15
 1106 00e4 903A17EE 		vmov	r3, s15	@ int
 1107 00e8 014083E2 		add	r4, r3, #1
 275:D:/Work/DeviceTester/amazon-freertos/lib/third_party/unity/src\unity.c ****         {
 1108              		.loc 1 275 0
 1109 00ec C8319FE5 		ldr	r3, .L162+28
 274:D:/Work/DeviceTester/amazon-freertos/lib/third_party/unity/src\unity.c ****         if (n > 999999)
 1110              		.loc 1 274 0
 1111 00f0 A44F84E0 		add	r4, r4, r4, lsr #31
 1112 00f4 C440A0E1 		asr	r4, r4, #1
 1113              	.LVL118:
 275:D:/Work/DeviceTester/amazon-freertos/lib/third_party/unity/src\unity.c ****         {
 1114              		.loc 1 275 0
 1115 00f8 030054E1 		cmp	r4, r3
 1116              	.LVL119:
 278:D:/Work/DeviceTester/amazon-freertos/lib/third_party/unity/src\unity.c ****         }
 1117              		.loc 1 278 0
 1118 00fc 010080C2 		addgt	r0, r0, #1
 1119              	.LVL120:
 277:D:/Work/DeviceTester/amazon-freertos/lib/third_party/unity/src\unity.c ****             exponent++;
 1120              		.loc 1 277 0
 1121 0100 B8419FC5 		ldrgt	r4, .L162+32
 1122              	.LVL121:
 282:D:/Work/DeviceTester/amazon-freertos/lib/third_party/unity/src\unity.c ****         exponent += decimals;
 1123              		.loc 1 282 0
 1124 0104 093080E2 		add	r3, r0, #9
 1125 0108 090053E3 		cmp	r3, #9
 1126 010c 00606092 		rsbls	r6, r0, #0
 1127 0110 0560A083 		movhi	r6, #5
 1128              	.LVL122:
 283:D:/Work/DeviceTester/amazon-freertos/lib/third_party/unity/src\unity.c **** 
 1129              		.loc 1 283 0
 1130 0114 065080E0 		add	r5, r0, r6
 1131              	.LVL123:
 1132              	.L136:
 286:D:/Work/DeviceTester/amazon-freertos/lib/third_party/unity/src\unity.c ****         {
 1133              		.loc 1 286 0
 1134 0118 000056E3 		cmp	r6, #0
 1135 011c 0400000A 		beq	.L137
 286:D:/Work/DeviceTester/amazon-freertos/lib/third_party/unity/src\unity.c ****         {
 1136              		.loc 1 286 0 is_stmt 0 discriminator 1
 1137 0120 0A10A0E3 		mov	r1, #10
 1138 0124 0400A0E1 		mov	r0, r4
 1139 0128 FEFFFFEB 		bl	__aeabi_idivmod
 1140              	.LVL124:
 1141 012c 000051E3 		cmp	r1, #0
 1142 0130 3B00000A 		beq	.L138
 1143              	.L137:
 282:D:/Work/DeviceTester/amazon-freertos/lib/third_party/unity/src\unity.c ****         exponent += decimals;
 1144              		.loc 1 282 0 is_stmt 1
 1145 0134 0080A0E3 		mov	r8, #0
 1146              	.L139:
 294:D:/Work/DeviceTester/amazon-freertos/lib/third_party/unity/src\unity.c ****         {
 1147              		.loc 1 294 0
 1148 0138 060058E1 		cmp	r8, r6
 1149 013c 0870A0E1 		mov	r7, r8
 1150              	.LVL125:
 1151 0140 0030A0C3 		movgt	r3, #0
 1152 0144 0130A0D3 		movle	r3, #1
 1153 0148 000054E3 		cmp	r4, #0
 1154 014c 01308313 		orrne	r3, r3, #1
 1155 0150 000053E3 		cmp	r3, #0
 1156 0154 3800001A 		bne	.L140
 1157              	.L142:
 301:D:/Work/DeviceTester/amazon-freertos/lib/third_party/unity/src\unity.c ****             UNITY_OUTPUT_CHAR(buf[--digits]);
 1158              		.loc 1 301 0
 1159 0158 070056E1 		cmp	r6, r7
 1160 015c 0100001A 		bne	.L141
 301:D:/Work/DeviceTester/amazon-freertos/lib/third_party/unity/src\unity.c ****             UNITY_OUTPUT_CHAR(buf[--digits]);
 1161              		.loc 1 301 0 is_stmt 0 discriminator 1
 1162 0160 2E00A0E3 		mov	r0, #46
 1163 0164 FEFFFFEB 		bl	TEST_CacheResult
 1164              	.LVL126:
 1165              	.L141:
 302:D:/Work/DeviceTester/amazon-freertos/lib/third_party/unity/src\unity.c ****         }
 1166              		.loc 1 302 0 is_stmt 1
 1167 0168 017047E2 		sub	r7, r7, #1
 1168              	.LVL127:
 1169 016c 0700DDE7 		ldrb	r0, [sp, r7]	@ zero_extendqisi2
 1170 0170 FEFFFFEB 		bl	TEST_CacheResult
 1171              	.LVL128:
 299:D:/Work/DeviceTester/amazon-freertos/lib/third_party/unity/src\unity.c ****         {
 1172              		.loc 1 299 0
 1173 0174 000057E3 		cmp	r7, #0
 1174 0178 F6FFFF1A 		bne	.L142
 306:D:/Work/DeviceTester/amazon-freertos/lib/third_party/unity/src\unity.c ****         {
 1175              		.loc 1 306 0
 1176 017c 000055E3 		cmp	r5, #0
 1177 0180 1400000A 		beq	.L119
 308:D:/Work/DeviceTester/amazon-freertos/lib/third_party/unity/src\unity.c **** 
 1178              		.loc 1 308 0
 1179 0184 6500A0E3 		mov	r0, #101
 1180 0188 FEFFFFEB 		bl	TEST_CacheResult
 1181              	.LVL129:
 310:D:/Work/DeviceTester/amazon-freertos/lib/third_party/unity/src\unity.c ****             {
 1182              		.loc 1 310 0
 1183 018c 000055E3 		cmp	r5, #0
 1184 0190 340000AA 		bge	.L145
 313:D:/Work/DeviceTester/amazon-freertos/lib/third_party/unity/src\unity.c ****             }
 1185              		.loc 1 313 0
 1186 0194 005065E2 		rsb	r5, r5, #0
 1187              	.LVL130:
 312:D:/Work/DeviceTester/amazon-freertos/lib/third_party/unity/src\unity.c ****                 exponent = -exponent;
 1188              		.loc 1 312 0
 1189 0198 2D00A0E3 		mov	r0, #45
 1190 019c FEFFFFEB 		bl	TEST_CacheResult
 1191              	.LVL131:
 1192              	.L147:
 282:D:/Work/DeviceTester/amazon-freertos/lib/third_party/unity/src\unity.c ****         exponent += decimals;
 1193              		.loc 1 282 0
 1194 01a0 0040A0E3 		mov	r4, #0
 1195              	.LVL132:
 1196              	.L146:
 321:D:/Work/DeviceTester/amazon-freertos/lib/third_party/unity/src\unity.c ****             {
 1197              		.loc 1 321 0
 1198 01a4 010054E3 		cmp	r4, #1
 1199 01a8 0460A0E1 		mov	r6, r4
 1200              	.LVL133:
 1201 01ac 0030A0C3 		movgt	r3, #0
 1202 01b0 0130A0D3 		movle	r3, #1
 1203 01b4 000055E3 		cmp	r5, #0
 1204 01b8 01308313 		orrne	r3, r3, #1
 1205 01bc 000053E3 		cmp	r3, #0
 1206 01c0 2B00001A 		bne	.L148
 1207              	.LVL134:
 1208              	.L149:
 328:D:/Work/DeviceTester/amazon-freertos/lib/third_party/unity/src\unity.c ****             }
 1209              		.loc 1 328 0
 1210 01c4 016046E2 		sub	r6, r6, #1
 1211              	.LVL135:
 1212 01c8 0600DDE7 		ldrb	r0, [sp, r6]	@ zero_extendqisi2
 1213 01cc FEFFFFEB 		bl	TEST_CacheResult
 1214              	.LVL136:
 326:D:/Work/DeviceTester/amazon-freertos/lib/third_party/unity/src\unity.c ****             {
 1215              		.loc 1 326 0
 1216 01d0 000056E3 		cmp	r6, #0
 1217 01d4 FAFFFF1A 		bne	.L149
 1218              	.LVL137:
 1219              	.L119:
 1220              	.LBE19:
 332:D:/Work/DeviceTester/amazon-freertos/lib/third_party/unity/src\unity.c **** #endif /* ! UNITY_EXCLUDE_FLOAT_PRINT */
 1221              		.loc 1 332 0
 1222 01d8 10D08DE2 		add	sp, sp, #16
 1223              		.cfi_remember_state
 1224              		.cfi_def_cfa_offset 32
 1225              		@ sp needed
 1226 01dc 028BBDEC 		vldm	sp!, {d8}
 1227              		.cfi_restore 80
 1228              		.cfi_restore 81
 1229              		.cfi_def_cfa_offset 24
 1230              	.LVL138:
 1231 01e0 F081BDE8 		pop	{r4, r5, r6, r7, r8, pc}
 1232              	.LVL139:
 1233              	.L151:
 1234              		.cfi_restore_state
 247:D:/Work/DeviceTester/amazon-freertos/lib/third_party/unity/src\unity.c **** 
 1235              		.loc 1 247 0
 1236 01e4 407AF0EE 		vmov.f32	s15, s0
 1237 01e8 9EFFFFEA 		b	.L121
 1238              	.LVL140:
 1239              	.L159:
 259:D:/Work/DeviceTester/amazon-freertos/lib/third_party/unity/src\unity.c ****     else
 1240              		.loc 1 259 0 discriminator 1
 1241 01ec D0009FE5 		ldr	r0, .L162+36
 1242 01f0 92FFFFEA 		b	.L161
 1243              	.LVL141:
 1244              	.L127:
 1245              	.LBB20:
 268:D:/Work/DeviceTester/amazon-freertos/lib/third_party/unity/src\unity.c ****         while (number < 100000.0f)         { number *= 10.0f; exponent--; }
 1246              		.loc 1 268 0 discriminator 2
 1247 01f4 A67A67EE 		vmul.f32	s15, s15, s13
 1248              	.LVL142:
 1249 01f8 060040E2 		sub	r0, r0, #6
 1250              	.LVL143:
 1251 01fc A5FFFFEA 		b	.L126
 1252              	.L129:
 269:D:/Work/DeviceTester/amazon-freertos/lib/third_party/unity/src\unity.c ****         while (number > 1000000.0f * 1e6f) { number /= 1e6f; exponent += 6; }
 1253              		.loc 1 269 0 discriminator 2
 1254 0200 A67A67EE 		vmul.f32	s15, s15, s13
 1255              	.LVL144:
 1256 0204 010040E2 		sub	r0, r0, #1
 1257              	.LVL145:
 1258 0208 A7FFFFEA 		b	.L128
 1259              	.L131:
 270:D:/Work/DeviceTester/amazon-freertos/lib/third_party/unity/src\unity.c ****         while (number > 1000000.0f)        { number /= 10.0f; exponent++; }
 1260              		.loc 1 270 0 discriminator 2
 1261 020c 877AC7EE 		vdiv.f32	s15, s15, s14
 1262              	.LVL146:
 1263 0210 060080E2 		add	r0, r0, #6
 1264              	.LVL147:
 1265 0214 A9FFFFEA 		b	.L130
 1266              	.L133:
 271:D:/Work/DeviceTester/amazon-freertos/lib/third_party/unity/src\unity.c **** 
 1267              		.loc 1 271 0 discriminator 2
 1268 0218 A67AC7EE 		vdiv.f32	s15, s15, s13
 1269              	.LVL148:
 1270 021c 010080E2 		add	r0, r0, #1
 1271              	.LVL149:
 1272 0220 AAFFFFEA 		b	.L132
 1273              	.LVL150:
 1274              	.L138:
 288:D:/Work/DeviceTester/amazon-freertos/lib/third_party/unity/src\unity.c ****             decimals--;
 1275              		.loc 1 288 0
 1276 0224 0400A0E1 		mov	r0, r4
 1277 0228 0A10A0E3 		mov	r1, #10
 1278 022c FEFFFFEB 		bl	__aeabi_idiv
 1279              	.LVL151:
 289:D:/Work/DeviceTester/amazon-freertos/lib/third_party/unity/src\unity.c ****         }
 1280              		.loc 1 289 0
 1281 0230 016046E2 		sub	r6, r6, #1
 1282              	.LVL152:
 288:D:/Work/DeviceTester/amazon-freertos/lib/third_party/unity/src\unity.c ****             decimals--;
 1283              		.loc 1 288 0
 1284 0234 0040A0E1 		mov	r4, r0
 1285              	.LVL153:
 1286 0238 B6FFFFEA 		b	.L136
 1287              	.LVL154:
 1288              	.L140:
 296:D:/Work/DeviceTester/amazon-freertos/lib/third_party/unity/src\unity.c ****             n /= 10;
 1289              		.loc 1 296 0
 1290 023c 0400A0E1 		mov	r0, r4
 1291 0240 0A10A0E3 		mov	r1, #10
 1292 0244 FEFFFFEB 		bl	__aeabi_idivmod
 1293              	.LVL155:
 1294 0248 301081E2 		add	r1, r1, #48
 297:D:/Work/DeviceTester/amazon-freertos/lib/third_party/unity/src\unity.c ****         }
 1295              		.loc 1 297 0
 1296 024c 0400A0E1 		mov	r0, r4
 296:D:/Work/DeviceTester/amazon-freertos/lib/third_party/unity/src\unity.c ****             n /= 10;
 1297              		.loc 1 296 0
 1298 0250 0810CDE7 		strb	r1, [sp, r8]
 297:D:/Work/DeviceTester/amazon-freertos/lib/third_party/unity/src\unity.c ****         }
 1299              		.loc 1 297 0
 1300 0254 0A10A0E3 		mov	r1, #10
 1301 0258 FEFFFFEB 		bl	__aeabi_idiv
 1302              	.LVL156:
 1303 025c 018088E2 		add	r8, r8, #1
 1304              	.LVL157:
 1305 0260 0040A0E1 		mov	r4, r0
 1306              	.LVL158:
 1307 0264 B3FFFFEA 		b	.L139
 1308              	.LVL159:
 1309              	.L145:
 317:D:/Work/DeviceTester/amazon-freertos/lib/third_party/unity/src\unity.c ****             }
 1310              		.loc 1 317 0
 1311 0268 2B00A0E3 		mov	r0, #43
 1312 026c FEFFFFEB 		bl	TEST_CacheResult
 1313              	.LVL160:
 1314 0270 CAFFFFEA 		b	.L147
 1315              	.LVL161:
 1316              	.L148:
 323:D:/Work/DeviceTester/amazon-freertos/lib/third_party/unity/src\unity.c ****                 exponent /= 10;
 1317              		.loc 1 323 0
 1318 0274 0500A0E1 		mov	r0, r5
 1319 0278 0A10A0E3 		mov	r1, #10
 1320 027c FEFFFFEB 		bl	__aeabi_idivmod
 1321              	.LVL162:
 1322 0280 301081E2 		add	r1, r1, #48
 324:D:/Work/DeviceTester/amazon-freertos/lib/third_party/unity/src\unity.c ****             }
 1323              		.loc 1 324 0
 1324 0284 0500A0E1 		mov	r0, r5
 323:D:/Work/DeviceTester/amazon-freertos/lib/third_party/unity/src\unity.c ****                 exponent /= 10;
 1325              		.loc 1 323 0
 1326 0288 0410CDE7 		strb	r1, [sp, r4]
 324:D:/Work/DeviceTester/amazon-freertos/lib/third_party/unity/src\unity.c ****             }
 1327              		.loc 1 324 0
 1328 028c 0A10A0E3 		mov	r1, #10
 1329 0290 FEFFFFEB 		bl	__aeabi_idiv
 1330              	.LVL163:
 1331 0294 014084E2 		add	r4, r4, #1
 1332              	.LVL164:
 1333 0298 0050A0E1 		mov	r5, r0
 1334              	.LVL165:
 1335 029c C0FFFFEA 		b	.L146
 1336              	.L163:
 1337              		.align	2
 1338              	.L162:
 1339 02a0 FFFF7F7F 		.word	2139095039
 1340 02a4 CDCCCC3D 		.word	1036831949
 1341 02a8 00247449 		.word	1232348160
 1342 02ac 0050C347 		.word	1203982336
 1343 02b0 A5D46853 		.word	1399379109
 1344 02b4 00000000 		.word	.LC1
 1345 02b8 02000000 		.word	.LC2
 1346 02bc 3F420F00 		.word	999999
 1347 02c0 A0860100 		.word	100000
 1348 02c4 06000000 		.word	.LC3
 1349              	.LBE20:
 1350              		.cfi_endproc
 1351              	.LFE7:
 1353              		.section	.text.UnityConcludeTest,"ax",%progbits
 1354              		.align	2
 1355              		.global	UnityConcludeTest
 1356              		.syntax unified
 1357              		.arm
 1358              		.fpu neon
 1360              	UnityConcludeTest:
 1361              	.LFB10:
 356:D:/Work/DeviceTester/amazon-freertos/lib/third_party/unity/src\unity.c ****     if (Unity.CurrentTestIgnored)
 1362              		.loc 1 356 0
 1363              		.cfi_startproc
 1364              		@ args = 0, pretend = 0, frame = 0
 1365              		@ frame_needed = 0, uses_anonymous_args = 0
 1366 0000 10402DE9 		push	{r4, lr}
 1367              		.cfi_def_cfa_offset 8
 1368              		.cfi_offset 4, -8
 1369              		.cfi_offset 14, -4
 357:D:/Work/DeviceTester/amazon-freertos/lib/third_party/unity/src\unity.c ****     {
 1370              		.loc 1 357 0
 1371 0004 5C409FE5 		ldr	r4, .L169
 1372 0008 243094E5 		ldr	r3, [r4, #36]
 1373 000c 000053E3 		cmp	r3, #0
 359:D:/Work/DeviceTester/amazon-freertos/lib/third_party/unity/src\unity.c ****     }
 1374              		.loc 1 359 0
 1375 0010 1C309415 		ldrne	r3, [r4, #28]
 1376 0014 01308312 		addne	r3, r3, #1
 1377 0018 1C308415 		strne	r3, [r4, #28]
 357:D:/Work/DeviceTester/amazon-freertos/lib/third_party/unity/src\unity.c ****     {
 1378              		.loc 1 357 0
 1379 001c 0A00001A 		bne	.L166
 361:D:/Work/DeviceTester/amazon-freertos/lib/third_party/unity/src\unity.c ****     {
 1380              		.loc 1 361 0
 1381 0020 203094E5 		ldr	r3, [r4, #32]
 1382 0024 000053E3 		cmp	r3, #0
 368:D:/Work/DeviceTester/amazon-freertos/lib/third_party/unity/src\unity.c ****     }
 1383              		.loc 1 368 0
 1384 0028 18309415 		ldrne	r3, [r4, #24]
 1385 002c 01308312 		addne	r3, r3, #1
 1386 0030 18308415 		strne	r3, [r4, #24]
 361:D:/Work/DeviceTester/amazon-freertos/lib/third_party/unity/src\unity.c ****     {
 1387              		.loc 1 361 0
 1388 0034 0400001A 		bne	.L166
 363:D:/Work/DeviceTester/amazon-freertos/lib/third_party/unity/src\unity.c ****         UnityPrint(UnityStrPass);
 1389              		.loc 1 363 0
 1390 0038 000094E5 		ldr	r0, [r4]
 1391 003c 101094E5 		ldr	r1, [r4, #16]
 1392 0040 FEFFFFEB 		bl	UnityTestResultsBegin
 1393              	.LVL166:
 364:D:/Work/DeviceTester/amazon-freertos/lib/third_party/unity/src\unity.c ****     }
 1394              		.loc 1 364 0
 1395 0044 20009FE5 		ldr	r0, .L169+4
 1396 0048 FEFFFFEB 		bl	UnityPrint
 1397              	.LVL167:
 1398              	.L166:
 371:D:/Work/DeviceTester/amazon-freertos/lib/third_party/unity/src\unity.c ****     Unity.CurrentTestIgnored = 0;
 1399              		.loc 1 371 0
 1400 004c 0030A0E3 		mov	r3, #0
 373:D:/Work/DeviceTester/amazon-freertos/lib/third_party/unity/src\unity.c ****     UNITY_FLUSH_CALL();
 1401              		.loc 1 373 0
 1402 0050 0A00A0E3 		mov	r0, #10
 371:D:/Work/DeviceTester/amazon-freertos/lib/third_party/unity/src\unity.c ****     Unity.CurrentTestIgnored = 0;
 1403              		.loc 1 371 0
 1404 0054 203084E5 		str	r3, [r4, #32]
 372:D:/Work/DeviceTester/amazon-freertos/lib/third_party/unity/src\unity.c ****     UNITY_PRINT_EOL();
 1405              		.loc 1 372 0
 1406 0058 243084E5 		str	r3, [r4, #36]
 373:D:/Work/DeviceTester/amazon-freertos/lib/third_party/unity/src\unity.c ****     UNITY_FLUSH_CALL();
 1407              		.loc 1 373 0
 1408 005c FEFFFFEB 		bl	TEST_CacheResult
 1409              	.LVL168:
 375:D:/Work/DeviceTester/amazon-freertos/lib/third_party/unity/src\unity.c **** 
 1410              		.loc 1 375 0
 1411 0060 1040BDE8 		pop	{r4, lr}
 1412              		.cfi_restore 14
 1413              		.cfi_restore 4
 1414              		.cfi_def_cfa_offset 0
 374:D:/Work/DeviceTester/amazon-freertos/lib/third_party/unity/src\unity.c **** }
 1415              		.loc 1 374 0
 1416 0064 FEFFFFEA 		b	TEST_SubmitResultBuffer
 1417              	.LVL169:
 1418              	.L170:
 1419              		.align	2
 1420              	.L169:
 1421 0068 00000000 		.word	Unity
 1422 006c 00000000 		.word	.LANCHOR9
 1423              		.cfi_endproc
 1424              	.LFE10:
 1426              		.section	.text.UnityAssertBits,"ax",%progbits
 1427              		.align	2
 1428              		.global	UnityAssertBits
 1429              		.syntax unified
 1430              		.arm
 1431              		.fpu neon
 1433              	UnityAssertBits:
 1434              	.LFB15:
 497:D:/Work/DeviceTester/amazon-freertos/lib/third_party/unity/src\unity.c ****     RETURN_IF_FAIL_OR_IGNORE;
 1435              		.loc 1 497 0
 1436              		.cfi_startproc
 1437              		@ args = 4, pretend = 0, frame = 0
 1438              		@ frame_needed = 0, uses_anonymous_args = 0
 1439              	.LVL170:
 1440 0000 F0412DE9 		push	{r4, r5, r6, r7, r8, lr}
 1441              		.cfi_def_cfa_offset 24
 1442              		.cfi_offset 4, -24
 1443              		.cfi_offset 5, -20
 1444              		.cfi_offset 6, -16
 1445              		.cfi_offset 7, -12
 1446              		.cfi_offset 8, -8
 1447              		.cfi_offset 14, -4
 498:D:/Work/DeviceTester/amazon-freertos/lib/third_party/unity/src\unity.c **** 
 1448              		.loc 1 498 0
 1449 0004 78509FE5 		ldr	r5, .L177
 1450 0008 20C095E5 		ldr	ip, [r5, #32]
 1451 000c 00005CE3 		cmp	ip, #0
 1452 0010 F081BD18 		popne	{r4, r5, r6, r7, r8, pc}
 498:D:/Work/DeviceTester/amazon-freertos/lib/third_party/unity/src\unity.c **** 
 1453              		.loc 1 498 0 is_stmt 0 discriminator 1
 1454 0014 24C095E5 		ldr	ip, [r5, #36]
 1455 0018 00005CE3 		cmp	ip, #0
 1456 001c F081BD18 		popne	{r4, r5, r6, r7, r8, pc}
 500:D:/Work/DeviceTester/amazon-freertos/lib/third_party/unity/src\unity.c ****     {
 1457              		.loc 1 500 0 is_stmt 1
 1458 0020 02C021E0 		eor	ip, r1, r2
 1459 0024 00001CE1 		tst	ip, r0
 1460 0028 F081BD08 		popeq	{r4, r5, r6, r7, r8, pc}
 1461 002c 0040A0E1 		mov	r4, r0
 502:D:/Work/DeviceTester/amazon-freertos/lib/third_party/unity/src\unity.c ****         UnityPrint(UnityStrExpected);
 1462              		.loc 1 502 0
 1463 0030 18009DE5 		ldr	r0, [sp, #24]
 1464              	.LVL171:
 1465 0034 0380A0E1 		mov	r8, r3
 1466 0038 0260A0E1 		mov	r6, r2
 1467 003c 0170A0E1 		mov	r7, r1
 1468 0040 FEFFFFEB 		bl	UnityTestResultsFailBegin
 1469              	.LVL172:
 503:D:/Work/DeviceTester/amazon-freertos/lib/third_party/unity/src\unity.c ****         UnityPrintMask((UNITY_UINT)mask, (UNITY_UINT)expected);
 1470              		.loc 1 503 0
 1471 0044 3C009FE5 		ldr	r0, .L177+4
 1472 0048 FEFFFFEB 		bl	UnityPrint
 1473              	.LVL173:
 504:D:/Work/DeviceTester/amazon-freertos/lib/third_party/unity/src\unity.c ****         UnityPrint(UnityStrWas);
 1474              		.loc 1 504 0
 1475 004c 0710A0E1 		mov	r1, r7
 1476 0050 0400A0E1 		mov	r0, r4
 1477 0054 FEFFFFEB 		bl	UnityPrintMask
 1478              	.LVL174:
 505:D:/Work/DeviceTester/amazon-freertos/lib/third_party/unity/src\unity.c ****         UnityPrintMask((UNITY_UINT)mask, (UNITY_UINT)actual);
 1479              		.loc 1 505 0
 1480 0058 2C009FE5 		ldr	r0, .L177+8
 1481 005c FEFFFFEB 		bl	UnityPrint
 1482              	.LVL175:
 506:D:/Work/DeviceTester/amazon-freertos/lib/third_party/unity/src\unity.c ****         UnityAddMsgIfSpecified(msg);
 1483              		.loc 1 506 0
 1484 0060 0610A0E1 		mov	r1, r6
 1485 0064 0400A0E1 		mov	r0, r4
 1486 0068 FEFFFFEB 		bl	UnityPrintMask
 1487              	.LVL176:
 507:D:/Work/DeviceTester/amazon-freertos/lib/third_party/unity/src\unity.c ****         UNITY_FAIL_AND_BAIL;
 1488              		.loc 1 507 0
 1489 006c 0800A0E1 		mov	r0, r8
 1490 0070 FEFFFFEB 		bl	UnityAddMsgIfSpecified
 1491              	.LVL177:
 508:D:/Work/DeviceTester/amazon-freertos/lib/third_party/unity/src\unity.c ****     }
 1492              		.loc 1 508 0
 1493 0074 0110A0E3 		mov	r1, #1
 1494 0078 280085E2 		add	r0, r5, #40
 1495 007c 201085E5 		str	r1, [r5, #32]
 1496 0080 FEFFFFEB 		bl	longjmp
 1497              	.LVL178:
 1498              	.L178:
 1499              		.align	2
 1500              	.L177:
 1501 0084 00000000 		.word	Unity
 1502 0088 00000000 		.word	.LANCHOR6
 1503 008c 00000000 		.word	.LANCHOR8
 1504              		.cfi_endproc
 1505              	.LFE15:
 1507              		.section	.text.UnityAssertEqualNumber,"ax",%progbits
 1508              		.align	2
 1509              		.global	UnityAssertEqualNumber
 1510              		.syntax unified
 1511              		.arm
 1512              		.fpu neon
 1514              	UnityAssertEqualNumber:
 1515              	.LFB16:
 518:D:/Work/DeviceTester/amazon-freertos/lib/third_party/unity/src\unity.c ****     RETURN_IF_FAIL_OR_IGNORE;
 1516              		.loc 1 518 0
 1517              		.cfi_startproc
 1518              		@ args = 4, pretend = 0, frame = 0
 1519              		@ frame_needed = 0, uses_anonymous_args = 0
 1520              	.LVL179:
 1521 0000 F0412DE9 		push	{r4, r5, r6, r7, r8, lr}
 1522              		.cfi_def_cfa_offset 24
 1523              		.cfi_offset 4, -24
 1524              		.cfi_offset 5, -20
 1525              		.cfi_offset 6, -16
 1526              		.cfi_offset 7, -12
 1527              		.cfi_offset 8, -8
 1528              		.cfi_offset 14, -4
 518:D:/Work/DeviceTester/amazon-freertos/lib/third_party/unity/src\unity.c ****     RETURN_IF_FAIL_OR_IGNORE;
 1529              		.loc 1 518 0
 1530 0004 0060A0E1 		mov	r6, r0
 519:D:/Work/DeviceTester/amazon-freertos/lib/third_party/unity/src\unity.c **** 
 1531              		.loc 1 519 0
 1532 0008 78409FE5 		ldr	r4, .L185
 518:D:/Work/DeviceTester/amazon-freertos/lib/third_party/unity/src\unity.c ****     RETURN_IF_FAIL_OR_IGNORE;
 1533              		.loc 1 518 0
 1534 000c 1880DDE5 		ldrb	r8, [sp, #24]	@ zero_extendqisi2
 519:D:/Work/DeviceTester/amazon-freertos/lib/third_party/unity/src\unity.c **** 
 1535              		.loc 1 519 0
 1536 0010 200094E5 		ldr	r0, [r4, #32]
 1537              	.LVL180:
 1538 0014 000050E3 		cmp	r0, #0
 1539 0018 F081BD18 		popne	{r4, r5, r6, r7, r8, pc}
 519:D:/Work/DeviceTester/amazon-freertos/lib/third_party/unity/src\unity.c **** 
 1540              		.loc 1 519 0 is_stmt 0 discriminator 1
 1541 001c 240094E5 		ldr	r0, [r4, #36]
 521:D:/Work/DeviceTester/amazon-freertos/lib/third_party/unity/src\unity.c ****     {
 1542              		.loc 1 521 0 is_stmt 1 discriminator 1
 1543 0020 010056E1 		cmp	r6, r1
 1544 0024 100F6FE1 		clz	r0, r0
 1545 0028 A002A0E1 		lsr	r0, r0, #5
 1546 002c 0000A003 		moveq	r0, #0
 1547 0030 000050E3 		cmp	r0, #0
 1548 0034 F081BD08 		popeq	{r4, r5, r6, r7, r8, pc}
 1549 0038 0300A0E1 		mov	r0, r3
 1550 003c 0270A0E1 		mov	r7, r2
 1551 0040 0150A0E1 		mov	r5, r1
 523:D:/Work/DeviceTester/amazon-freertos/lib/third_party/unity/src\unity.c ****         UnityPrint(UnityStrExpected);
 1552              		.loc 1 523 0
 1553 0044 FEFFFFEB 		bl	UnityTestResultsFailBegin
 1554              	.LVL181:
 524:D:/Work/DeviceTester/amazon-freertos/lib/third_party/unity/src\unity.c ****         UnityPrintNumberByStyle(expected, style);
 1555              		.loc 1 524 0
 1556 0048 3C009FE5 		ldr	r0, .L185+4
 1557 004c FEFFFFEB 		bl	UnityPrint
 1558              	.LVL182:
 525:D:/Work/DeviceTester/amazon-freertos/lib/third_party/unity/src\unity.c ****         UnityPrint(UnityStrWas);
 1559              		.loc 1 525 0
 1560 0050 0810A0E1 		mov	r1, r8
 1561 0054 0600A0E1 		mov	r0, r6
 1562 0058 FEFFFFEB 		bl	UnityPrintNumberByStyle
 1563              	.LVL183:
 526:D:/Work/DeviceTester/amazon-freertos/lib/third_party/unity/src\unity.c ****         UnityPrintNumberByStyle(actual, style);
 1564              		.loc 1 526 0
 1565 005c 2C009FE5 		ldr	r0, .L185+8
 1566 0060 FEFFFFEB 		bl	UnityPrint
 1567              	.LVL184:
 527:D:/Work/DeviceTester/amazon-freertos/lib/third_party/unity/src\unity.c ****         UnityAddMsgIfSpecified(msg);
 1568              		.loc 1 527 0
 1569 0064 0810A0E1 		mov	r1, r8
 1570 0068 0500A0E1 		mov	r0, r5
 1571 006c FEFFFFEB 		bl	UnityPrintNumberByStyle
 1572              	.LVL185:
 528:D:/Work/DeviceTester/amazon-freertos/lib/third_party/unity/src\unity.c ****         UNITY_FAIL_AND_BAIL;
 1573              		.loc 1 528 0
 1574 0070 0700A0E1 		mov	r0, r7
 1575 0074 FEFFFFEB 		bl	UnityAddMsgIfSpecified
 1576              	.LVL186:
 529:D:/Work/DeviceTester/amazon-freertos/lib/third_party/unity/src\unity.c ****     }
 1577              		.loc 1 529 0
 1578 0078 0110A0E3 		mov	r1, #1
 1579 007c 280084E2 		add	r0, r4, #40
 1580 0080 201084E5 		str	r1, [r4, #32]
 1581 0084 FEFFFFEB 		bl	longjmp
 1582              	.LVL187:
 1583              	.L186:
 1584              		.align	2
 1585              	.L185:
 1586 0088 00000000 		.word	Unity
 1587 008c 00000000 		.word	.LANCHOR6
 1588 0090 00000000 		.word	.LANCHOR8
 1589              		.cfi_endproc
 1590              	.LFE16:
 1592              		.section	.text.UnityAssertGreaterNumber,"ax",%progbits
 1593              		.align	2
 1594              		.global	UnityAssertGreaterNumber
 1595              		.syntax unified
 1596              		.arm
 1597              		.fpu neon
 1599              	UnityAssertGreaterNumber:
 1600              	.LFB17:
 539:D:/Work/DeviceTester/amazon-freertos/lib/third_party/unity/src\unity.c ****     RETURN_IF_FAIL_OR_IGNORE;
 1601              		.loc 1 539 0
 1602              		.cfi_startproc
 1603              		@ args = 4, pretend = 0, frame = 0
 1604              		@ frame_needed = 0, uses_anonymous_args = 0
 1605              	.LVL188:
 1606 0000 F0412DE9 		push	{r4, r5, r6, r7, r8, lr}
 1607              		.cfi_def_cfa_offset 24
 1608              		.cfi_offset 4, -24
 1609              		.cfi_offset 5, -20
 1610              		.cfi_offset 6, -16
 1611              		.cfi_offset 7, -12
 1612              		.cfi_offset 8, -8
 1613              		.cfi_offset 14, -4
 539:D:/Work/DeviceTester/amazon-freertos/lib/third_party/unity/src\unity.c ****     RETURN_IF_FAIL_OR_IGNORE;
 1614              		.loc 1 539 0
 1615 0004 0050A0E1 		mov	r5, r0
 540:D:/Work/DeviceTester/amazon-freertos/lib/third_party/unity/src\unity.c **** 
 1616              		.loc 1 540 0
 1617 0008 6C409FE5 		ldr	r4, .L193
 539:D:/Work/DeviceTester/amazon-freertos/lib/third_party/unity/src\unity.c ****     RETURN_IF_FAIL_OR_IGNORE;
 1618              		.loc 1 539 0
 1619 000c 1880DDE5 		ldrb	r8, [sp, #24]	@ zero_extendqisi2
 540:D:/Work/DeviceTester/amazon-freertos/lib/third_party/unity/src\unity.c **** 
 1620              		.loc 1 540 0
 1621 0010 200094E5 		ldr	r0, [r4, #32]
 1622              	.LVL189:
 1623 0014 000050E3 		cmp	r0, #0
 1624 0018 F081BD18 		popne	{r4, r5, r6, r7, r8, pc}
 540:D:/Work/DeviceTester/amazon-freertos/lib/third_party/unity/src\unity.c **** 
 1625              		.loc 1 540 0 is_stmt 0 discriminator 1
 1626 001c 240094E5 		ldr	r0, [r4, #36]
 542:D:/Work/DeviceTester/amazon-freertos/lib/third_party/unity/src\unity.c ****     {
 1627              		.loc 1 542 0 is_stmt 1 discriminator 1
 1628 0020 050051E1 		cmp	r1, r5
 1629 0024 000050D3 		cmple	r0, #0
 1630 0028 F081BD18 		popne	{r4, r5, r6, r7, r8, pc}
 1631 002c 0300A0E1 		mov	r0, r3
 1632 0030 0270A0E1 		mov	r7, r2
 1633 0034 0160A0E1 		mov	r6, r1
 544:D:/Work/DeviceTester/amazon-freertos/lib/third_party/unity/src\unity.c ****         UnityPrint(UnityStrExpected);
 1634              		.loc 1 544 0
 1635 0038 FEFFFFEB 		bl	UnityTestResultsFailBegin
 1636              	.LVL190:
 545:D:/Work/DeviceTester/amazon-freertos/lib/third_party/unity/src\unity.c ****         UnityPrintNumberByStyle(actual, style);
 1637              		.loc 1 545 0
 1638 003c 3C009FE5 		ldr	r0, .L193+4
 1639 0040 FEFFFFEB 		bl	UnityPrint
 1640              	.LVL191:
 546:D:/Work/DeviceTester/amazon-freertos/lib/third_party/unity/src\unity.c ****         UnityPrint(UnityStrGt);
 1641              		.loc 1 546 0
 1642 0044 0810A0E1 		mov	r1, r8
 1643 0048 0600A0E1 		mov	r0, r6
 1644 004c FEFFFFEB 		bl	UnityPrintNumberByStyle
 1645              	.LVL192:
 547:D:/Work/DeviceTester/amazon-freertos/lib/third_party/unity/src\unity.c ****         UnityPrintNumberByStyle(threshold, style);
 1646              		.loc 1 547 0
 1647 0050 2C009FE5 		ldr	r0, .L193+8
 1648 0054 FEFFFFEB 		bl	UnityPrint
 1649              	.LVL193:
 548:D:/Work/DeviceTester/amazon-freertos/lib/third_party/unity/src\unity.c ****         UnityAddMsgIfSpecified(msg);
 1650              		.loc 1 548 0
 1651 0058 0810A0E1 		mov	r1, r8
 1652 005c 0500A0E1 		mov	r0, r5
 1653 0060 FEFFFFEB 		bl	UnityPrintNumberByStyle
 1654              	.LVL194:
 549:D:/Work/DeviceTester/amazon-freertos/lib/third_party/unity/src\unity.c ****         UNITY_FAIL_AND_BAIL;
 1655              		.loc 1 549 0
 1656 0064 0700A0E1 		mov	r0, r7
 1657 0068 FEFFFFEB 		bl	UnityAddMsgIfSpecified
 1658              	.LVL195:
 550:D:/Work/DeviceTester/amazon-freertos/lib/third_party/unity/src\unity.c ****     }
 1659              		.loc 1 550 0
 1660 006c 0110A0E3 		mov	r1, #1
 1661 0070 280084E2 		add	r0, r4, #40
 1662 0074 201084E5 		str	r1, [r4, #32]
 1663 0078 FEFFFFEB 		bl	longjmp
 1664              	.LVL196:
 1665              	.L194:
 1666              		.align	2
 1667              	.L193:
 1668 007c 00000000 		.word	Unity
 1669 0080 00000000 		.word	.LANCHOR6
 1670 0084 00000000 		.word	.LANCHOR10
 1671              		.cfi_endproc
 1672              	.LFE17:
 1674              		.section	.text.UnityAssertSmallerNumber,"ax",%progbits
 1675              		.align	2
 1676              		.global	UnityAssertSmallerNumber
 1677              		.syntax unified
 1678              		.arm
 1679              		.fpu neon
 1681              	UnityAssertSmallerNumber:
 1682              	.LFB18:
 560:D:/Work/DeviceTester/amazon-freertos/lib/third_party/unity/src\unity.c ****     RETURN_IF_FAIL_OR_IGNORE;
 1683              		.loc 1 560 0
 1684              		.cfi_startproc
 1685              		@ args = 4, pretend = 0, frame = 0
 1686              		@ frame_needed = 0, uses_anonymous_args = 0
 1687              	.LVL197:
 1688 0000 F0412DE9 		push	{r4, r5, r6, r7, r8, lr}
 1689              		.cfi_def_cfa_offset 24
 1690              		.cfi_offset 4, -24
 1691              		.cfi_offset 5, -20
 1692              		.cfi_offset 6, -16
 1693              		.cfi_offset 7, -12
 1694              		.cfi_offset 8, -8
 1695              		.cfi_offset 14, -4
 560:D:/Work/DeviceTester/amazon-freertos/lib/third_party/unity/src\unity.c ****     RETURN_IF_FAIL_OR_IGNORE;
 1696              		.loc 1 560 0
 1697 0004 0050A0E1 		mov	r5, r0
 561:D:/Work/DeviceTester/amazon-freertos/lib/third_party/unity/src\unity.c **** 
 1698              		.loc 1 561 0
 1699 0008 6C409FE5 		ldr	r4, .L201
 560:D:/Work/DeviceTester/amazon-freertos/lib/third_party/unity/src\unity.c ****     RETURN_IF_FAIL_OR_IGNORE;
 1700              		.loc 1 560 0
 1701 000c 1880DDE5 		ldrb	r8, [sp, #24]	@ zero_extendqisi2
 561:D:/Work/DeviceTester/amazon-freertos/lib/third_party/unity/src\unity.c **** 
 1702              		.loc 1 561 0
 1703 0010 200094E5 		ldr	r0, [r4, #32]
 1704              	.LVL198:
 1705 0014 000050E3 		cmp	r0, #0
 1706 0018 F081BD18 		popne	{r4, r5, r6, r7, r8, pc}
 561:D:/Work/DeviceTester/amazon-freertos/lib/third_party/unity/src\unity.c **** 
 1707              		.loc 1 561 0 is_stmt 0 discriminator 1
 1708 001c 240094E5 		ldr	r0, [r4, #36]
 563:D:/Work/DeviceTester/amazon-freertos/lib/third_party/unity/src\unity.c ****     {
 1709              		.loc 1 563 0 is_stmt 1 discriminator 1
 1710 0020 050051E1 		cmp	r1, r5
 1711 0024 000050A3 		cmpge	r0, #0
 1712 0028 F081BD18 		popne	{r4, r5, r6, r7, r8, pc}
 1713 002c 0300A0E1 		mov	r0, r3
 1714 0030 0270A0E1 		mov	r7, r2
 1715 0034 0160A0E1 		mov	r6, r1
 565:D:/Work/DeviceTester/amazon-freertos/lib/third_party/unity/src\unity.c ****         UnityPrint(UnityStrExpected);
 1716              		.loc 1 565 0
 1717 0038 FEFFFFEB 		bl	UnityTestResultsFailBegin
 1718              	.LVL199:
 566:D:/Work/DeviceTester/amazon-freertos/lib/third_party/unity/src\unity.c ****         UnityPrintNumberByStyle(actual, style);
 1719              		.loc 1 566 0
 1720 003c 3C009FE5 		ldr	r0, .L201+4
 1721 0040 FEFFFFEB 		bl	UnityPrint
 1722              	.LVL200:
 567:D:/Work/DeviceTester/amazon-freertos/lib/third_party/unity/src\unity.c ****         UnityPrint(UnityStrLt);
 1723              		.loc 1 567 0
 1724 0044 0810A0E1 		mov	r1, r8
 1725 0048 0600A0E1 		mov	r0, r6
 1726 004c FEFFFFEB 		bl	UnityPrintNumberByStyle
 1727              	.LVL201:
 568:D:/Work/DeviceTester/amazon-freertos/lib/third_party/unity/src\unity.c ****         UnityPrintNumberByStyle(threshold, style);
 1728              		.loc 1 568 0
 1729 0050 2C009FE5 		ldr	r0, .L201+8
 1730 0054 FEFFFFEB 		bl	UnityPrint
 1731              	.LVL202:
 569:D:/Work/DeviceTester/amazon-freertos/lib/third_party/unity/src\unity.c ****         UnityAddMsgIfSpecified(msg);
 1732              		.loc 1 569 0
 1733 0058 0810A0E1 		mov	r1, r8
 1734 005c 0500A0E1 		mov	r0, r5
 1735 0060 FEFFFFEB 		bl	UnityPrintNumberByStyle
 1736              	.LVL203:
 570:D:/Work/DeviceTester/amazon-freertos/lib/third_party/unity/src\unity.c ****         UNITY_FAIL_AND_BAIL;
 1737              		.loc 1 570 0
 1738 0064 0700A0E1 		mov	r0, r7
 1739 0068 FEFFFFEB 		bl	UnityAddMsgIfSpecified
 1740              	.LVL204:
 571:D:/Work/DeviceTester/amazon-freertos/lib/third_party/unity/src\unity.c ****     }
 1741              		.loc 1 571 0
 1742 006c 0110A0E3 		mov	r1, #1
 1743 0070 280084E2 		add	r0, r4, #40
 1744 0074 201084E5 		str	r1, [r4, #32]
 1745 0078 FEFFFFEB 		bl	longjmp
 1746              	.LVL205:
 1747              	.L202:
 1748              		.align	2
 1749              	.L201:
 1750 007c 00000000 		.word	Unity
 1751 0080 00000000 		.word	.LANCHOR6
 1752 0084 00000000 		.word	.LANCHOR11
 1753              		.cfi_endproc
 1754              	.LFE18:
 1756              		.section	.text.UnityAssertEqualIntArray,"ax",%progbits
 1757              		.align	2
 1758              		.global	UnityAssertEqualIntArray
 1759              		.syntax unified
 1760              		.arm
 1761              		.fpu neon
 1763              	UnityAssertEqualIntArray:
 1764              	.LFB19:
 592:D:/Work/DeviceTester/amazon-freertos/lib/third_party/unity/src\unity.c ****     UNITY_UINT32 elements = num_elements;
 1765              		.loc 1 592 0
 1766              		.cfi_startproc
 1767              		@ args = 12, pretend = 0, frame = 8
 1768              		@ frame_needed = 0, uses_anonymous_args = 0
 1769              	.LVL206:
 1770 0000 F74F2DE9 		push	{r0, r1, r2, r4, r5, r6, r7, r8, r9, r10, fp, lr}
 1771              		.cfi_def_cfa_offset 48
 1772              		.cfi_offset 4, -36
 1773              		.cfi_offset 5, -32
 1774              		.cfi_offset 6, -28
 1775              		.cfi_offset 7, -24
 1776              		.cfi_offset 8, -20
 1777              		.cfi_offset 9, -16
 1778              		.cfi_offset 10, -12
 1779              		.cfi_offset 11, -8
 1780              		.cfi_offset 14, -4
 592:D:/Work/DeviceTester/amazon-freertos/lib/third_party/unity/src\unity.c ****     UNITY_UINT32 elements = num_elements;
 1781              		.loc 1 592 0
 1782 0004 0260A0E1 		mov	r6, r2
 1783              	.LVL207:
 596:D:/Work/DeviceTester/amazon-freertos/lib/third_party/unity/src\unity.c **** 
 1784              		.loc 1 596 0
 1785 0008 54B19FE5 		ldr	fp, .L223
 592:D:/Work/DeviceTester/amazon-freertos/lib/third_party/unity/src\unity.c ****     UNITY_UINT32 elements = num_elements;
 1786              		.loc 1 592 0
 1787 000c 3470DDE5 		ldrb	r7, [sp, #52]	@ zero_extendqisi2
 1788              	.LVL208:
 596:D:/Work/DeviceTester/amazon-freertos/lib/third_party/unity/src\unity.c **** 
 1789              		.loc 1 596 0
 1790 0010 20209BE5 		ldr	r2, [fp, #32]
 1791              	.LVL209:
 592:D:/Work/DeviceTester/amazon-freertos/lib/third_party/unity/src\unity.c ****     UNITY_UINT32 elements = num_elements;
 1792              		.loc 1 592 0
 1793 0014 3890DDE5 		ldrb	r9, [sp, #56]	@ zero_extendqisi2
 596:D:/Work/DeviceTester/amazon-freertos/lib/third_party/unity/src\unity.c **** 
 1794              		.loc 1 596 0
 1795 0018 000052E3 		cmp	r2, #0
 1796 001c 1D00001A 		bne	.L203
 596:D:/Work/DeviceTester/amazon-freertos/lib/third_party/unity/src\unity.c **** 
 1797              		.loc 1 596 0 is_stmt 0 discriminator 1
 1798 0020 24209BE5 		ldr	r2, [fp, #36]
 1799 0024 000052E3 		cmp	r2, #0
 1800 0028 1A00001A 		bne	.L203
 598:D:/Work/DeviceTester/amazon-freertos/lib/third_party/unity/src\unity.c ****     {
 1801              		.loc 1 598 0 is_stmt 1
 1802 002c 000056E3 		cmp	r6, #0
 1803 0030 0380A0E1 		mov	r8, r3
 1804 0034 0900001A 		bne	.L206
 600:D:/Work/DeviceTester/amazon-freertos/lib/third_party/unity/src\unity.c ****     }
 1805              		.loc 1 600 0
 1806 0038 30009DE5 		ldr	r0, [sp, #48]
 1807              	.LVL210:
 1808 003c FEFFFFEB 		bl	UnityTestResultsFailBegin
 1809              	.LVL211:
 1810 0040 20019FE5 		ldr	r0, .L223+4
 1811 0044 FEFFFFEB 		bl	UnityPrint
 1812              	.LVL212:
 1813 0048 0800A0E1 		mov	r0, r8
 1814 004c FEFFFFEB 		bl	UnityAddMsgIfSpecified
 1815              	.LVL213:
 1816              	.L207:
 605:D:/Work/DeviceTester/amazon-freertos/lib/third_party/unity/src\unity.c **** 
 1817              		.loc 1 605 0
 1818 0050 28008BE2 		add	r0, fp, #40
 1819 0054 0110A0E3 		mov	r1, #1
 1820 0058 20108BE5 		str	r1, [fp, #32]
 1821              	.LVL214:
 1822              	.L222:
 1823              	.LBB21:
 651:D:/Work/DeviceTester/amazon-freertos/lib/third_party/unity/src\unity.c ****         }
 1824              		.loc 1 651 0
 1825 005c FEFFFFEB 		bl	longjmp
 1826              	.LVL215:
 1827              	.L206:
 1828              	.LBE21:
 603:D:/Work/DeviceTester/amazon-freertos/lib/third_party/unity/src\unity.c ****     if (UnityIsOneArrayNull(expected, actual, lineNumber, msg))
 1829              		.loc 1 603 0
 1830 0060 010050E1 		cmp	r0, r1
 1831 0064 0040A0E1 		mov	r4, r0
 1832 0068 0150A0E1 		mov	r5, r1
 1833 006c 0900000A 		beq	.L203
 604:D:/Work/DeviceTester/amazon-freertos/lib/third_party/unity/src\unity.c ****         UNITY_FAIL_AND_BAIL;
 1834              		.loc 1 604 0
 1835 0070 30209DE5 		ldr	r2, [sp, #48]
 1836 0074 FEFFFFEB 		bl	UnityIsOneArrayNull
 1837              	.LVL216:
 1838 0078 000050E3 		cmp	r0, #0
 1839 007c F3FFFF1A 		bne	.L207
 1840 0080 012046E2 		sub	r2, r6, #1
 1841 0084 0BA0A0E1 		mov	r10, fp
 594:D:/Work/DeviceTester/amazon-freertos/lib/third_party/unity/src\unity.c **** 
 1842              		.loc 1 594 0
 1843 0088 0F3007E2 		and	r3, r7, #15
 1844 008c 0210A0E1 		mov	r1, r2
 1845              	.LVL217:
 1846              	.L208:
 607:D:/Work/DeviceTester/amazon-freertos/lib/third_party/unity/src\unity.c ****     {
 1847              		.loc 1 607 0
 1848 0090 010071E3 		cmn	r1, #1
 1849 0094 0100001A 		bne	.L216
 1850              	.LVL218:
 1851              	.L203:
 659:D:/Work/DeviceTester/amazon-freertos/lib/third_party/unity/src\unity.c **** 
 1852              		.loc 1 659 0
 1853 0098 0CD08DE2 		add	sp, sp, #12
 1854              		.cfi_remember_state
 1855              		.cfi_def_cfa_offset 36
 1856              		@ sp needed
 1857 009c F08FBDE8 		pop	{r4, r5, r6, r7, r8, r9, r10, fp, pc}
 1858              	.LVL219:
 1859              	.L216:
 1860              		.cfi_restore_state
 1861              	.LBB24:
 611:D:/Work/DeviceTester/amazon-freertos/lib/third_party/unity/src\unity.c ****         {
 1862              		.loc 1 611 0
 1863 00a0 010053E3 		cmp	r3, #1
 614:D:/Work/DeviceTester/amazon-freertos/lib/third_party/unity/src\unity.c ****                 actual_val = *(UNITY_PTR_ATTRIBUTE const UNITY_INT8*)actual;
 1864              		.loc 1 614 0
 1865 00a4 D0B0D401 		ldrsbeq	fp, [r4]
 1866              	.LVL220:
 615:D:/Work/DeviceTester/amazon-freertos/lib/third_party/unity/src\unity.c ****                 break;
 1867              		.loc 1 615 0
 1868 00a8 D060D501 		ldrsbeq	r6, [r5]
 611:D:/Work/DeviceTester/amazon-freertos/lib/third_party/unity/src\unity.c ****         {
 1869              		.loc 1 611 0
 1870 00ac 0500000A 		beq	.L212
 1871 00b0 020053E3 		cmp	r3, #2
 618:D:/Work/DeviceTester/amazon-freertos/lib/third_party/unity/src\unity.c ****                 actual_val = *(UNITY_PTR_ATTRIBUTE const UNITY_INT16*)actual;
 1872              		.loc 1 618 0
 1873 00b4 F0B0D401 		ldrsheq	fp, [r4]
 1874              	.LVL221:
 619:D:/Work/DeviceTester/amazon-freertos/lib/third_party/unity/src\unity.c ****                 break;
 1875              		.loc 1 619 0
 1876 00b8 F060D501 		ldrsheq	r6, [r5]
 611:D:/Work/DeviceTester/amazon-freertos/lib/third_party/unity/src\unity.c ****         {
 1877              		.loc 1 611 0
 628:D:/Work/DeviceTester/amazon-freertos/lib/third_party/unity/src\unity.c ****                 actual_val = *(UNITY_PTR_ATTRIBUTE const UNITY_INT32*)actual;
 1878              		.loc 1 628 0
 1879 00bc 00B09415 		ldrne	fp, [r4]
 1880              	.LVL222:
 630:D:/Work/DeviceTester/amazon-freertos/lib/third_party/unity/src\unity.c ****                 break;
 1881              		.loc 1 630 0
 1882 00c0 0430A013 		movne	r3, #4
 1883              	.LVL223:
 629:D:/Work/DeviceTester/amazon-freertos/lib/third_party/unity/src\unity.c ****                 length = 4;
 1884              		.loc 1 629 0
 1885 00c4 00609515 		ldrne	r6, [r5]
 1886              	.LVL224:
 1887              	.L212:
 634:D:/Work/DeviceTester/amazon-freertos/lib/third_party/unity/src\unity.c ****         {
 1888              		.loc 1 634 0
 1889 00c8 06005BE1 		cmp	fp, r6
 1890 00cc 1F00000A 		beq	.L213
 636:D:/Work/DeviceTester/amazon-freertos/lib/third_party/unity/src\unity.c ****             {   /* For UINT, remove sign extension (padding 1's) from signed type casts above */
 1891              		.loc 1 636 0
 1892 00d0 040053E2 		subs	r0, r3, #4
 1893 00d4 06008DE8 		stm	sp, {r1, r2}
 1894 00d8 0100A013 		movne	r0, #1
 1895 00dc A70210E0 		ands	r0, r0, r7, lsr #5
 1896              	.LVL225:
 1897              	.LBB22:
 639:D:/Work/DeviceTester/amazon-freertos/lib/third_party/unity/src\unity.c ****                 expect_val &= mask;
 1898              		.loc 1 639 0
 1899 00e0 8331A011 		lslne	r3, r3, #3
 1900              	.LVL226:
 1901 00e4 0000E013 		mvnne	r0, #0
 1902 00e8 1033E011 		mvnne	r3, r0, lsl r3
 1903              	.LVL227:
 1904              	.LBE22:
 643:D:/Work/DeviceTester/amazon-freertos/lib/third_party/unity/src\unity.c ****             UnityPrint(UnityStrElement);
 1905              		.loc 1 643 0
 1906 00ec 30009DE5 		ldr	r0, [sp, #48]
 1907              	.LBB23:
 640:D:/Work/DeviceTester/amazon-freertos/lib/third_party/unity/src\unity.c ****                 actual_val &= mask;
 1908              		.loc 1 640 0
 1909 00f0 03B00B10 		andne	fp, fp, r3
 1910              	.LVL228:
 641:D:/Work/DeviceTester/amazon-freertos/lib/third_party/unity/src\unity.c ****             }
 1911              		.loc 1 641 0
 1912 00f4 03600610 		andne	r6, r6, r3
 1913              	.LVL229:
 1914              	.LBE23:
 643:D:/Work/DeviceTester/amazon-freertos/lib/third_party/unity/src\unity.c ****             UnityPrint(UnityStrElement);
 1915              		.loc 1 643 0
 1916 00f8 FEFFFFEB 		bl	UnityTestResultsFailBegin
 1917              	.LVL230:
 644:D:/Work/DeviceTester/amazon-freertos/lib/third_party/unity/src\unity.c ****             UnityPrintNumberUnsigned(num_elements - elements - 1);
 1918              		.loc 1 644 0
 1919 00fc 68009FE5 		ldr	r0, .L223+8
 1920 0100 FEFFFFEB 		bl	UnityPrint
 1921              	.LVL231:
 645:D:/Work/DeviceTester/amazon-freertos/lib/third_party/unity/src\unity.c ****             UnityPrint(UnityStrExpected);
 1922              		.loc 1 645 0
 1923 0104 06009DE8 		ldm	sp, {r1, r2}
 1924 0108 010042E0 		sub	r0, r2, r1
 1925 010c FEFFFFEB 		bl	UnityPrintNumberUnsigned
 1926              	.LVL232:
 646:D:/Work/DeviceTester/amazon-freertos/lib/third_party/unity/src\unity.c ****             UnityPrintNumberByStyle(expect_val, style);
 1927              		.loc 1 646 0
 1928 0110 58009FE5 		ldr	r0, .L223+12
 1929 0114 FEFFFFEB 		bl	UnityPrint
 1930              	.LVL233:
 647:D:/Work/DeviceTester/amazon-freertos/lib/third_party/unity/src\unity.c ****             UnityPrint(UnityStrWas);
 1931              		.loc 1 647 0
 1932 0118 0710A0E1 		mov	r1, r7
 1933 011c 0B00A0E1 		mov	r0, fp
 1934 0120 FEFFFFEB 		bl	UnityPrintNumberByStyle
 1935              	.LVL234:
 648:D:/Work/DeviceTester/amazon-freertos/lib/third_party/unity/src\unity.c ****             UnityPrintNumberByStyle(actual_val, style);
 1936              		.loc 1 648 0
 1937 0124 48009FE5 		ldr	r0, .L223+16
 1938 0128 FEFFFFEB 		bl	UnityPrint
 1939              	.LVL235:
 649:D:/Work/DeviceTester/amazon-freertos/lib/third_party/unity/src\unity.c ****             UnityAddMsgIfSpecified(msg);
 1940              		.loc 1 649 0
 1941 012c 0710A0E1 		mov	r1, r7
 1942 0130 0600A0E1 		mov	r0, r6
 1943 0134 FEFFFFEB 		bl	UnityPrintNumberByStyle
 1944              	.LVL236:
 650:D:/Work/DeviceTester/amazon-freertos/lib/third_party/unity/src\unity.c ****             UNITY_FAIL_AND_BAIL;
 1945              		.loc 1 650 0
 1946 0138 0800A0E1 		mov	r0, r8
 1947 013c FEFFFFEB 		bl	UnityAddMsgIfSpecified
 1948              	.LVL237:
 651:D:/Work/DeviceTester/amazon-freertos/lib/third_party/unity/src\unity.c ****         }
 1949              		.loc 1 651 0
 1950 0140 0110A0E3 		mov	r1, #1
 1951 0144 2C009FE5 		ldr	r0, .L223+20
 1952 0148 20108AE5 		str	r1, [r10, #32]
 1953 014c C2FFFFEA 		b	.L222
 1954              	.LVL238:
 1955              	.L213:
 653:D:/Work/DeviceTester/amazon-freertos/lib/third_party/unity/src\unity.c ****         {
 1956              		.loc 1 653 0
 1957 0150 010059E3 		cmp	r9, #1
 657:D:/Work/DeviceTester/amazon-freertos/lib/third_party/unity/src\unity.c ****     }
 1958              		.loc 1 657 0
 1959 0154 035085E0 		add	r5, r5, r3
 1960              	.LVL239:
 655:D:/Work/DeviceTester/amazon-freertos/lib/third_party/unity/src\unity.c ****         }
 1961              		.loc 1 655 0
 1962 0158 03408400 		addeq	r4, r4, r3
 1963              	.LVL240:
 1964 015c 011041E2 		sub	r1, r1, #1
 1965              	.LVL241:
 1966 0160 CAFFFFEA 		b	.L208
 1967              	.L224:
 1968              		.align	2
 1969              	.L223:
 1970 0164 00000000 		.word	Unity
 1971 0168 00000000 		.word	.LANCHOR12
 1972 016c 00000000 		.word	.LANCHOR13
 1973 0170 00000000 		.word	.LANCHOR6
 1974 0174 00000000 		.word	.LANCHOR8
 1975 0178 28000000 		.word	Unity+40
 1976              	.LBE24:
 1977              		.cfi_endproc
 1978              	.LFE19:
 1980              		.section	.text.UnityAssertEqualFloatArray,"ax",%progbits
 1981              		.align	2
 1982              		.global	UnityAssertEqualFloatArray
 1983              		.syntax unified
 1984              		.arm
 1985              		.fpu neon
 1987              	UnityAssertEqualFloatArray:
 1988              	.LFB21:
 695:D:/Work/DeviceTester/amazon-freertos/lib/third_party/unity/src\unity.c **** 
 696:D:/Work/DeviceTester/amazon-freertos/lib/third_party/unity/src\unity.c **** void UnityAssertEqualFloatArray(UNITY_PTR_ATTRIBUTE const UNITY_FLOAT* expected,
 697:D:/Work/DeviceTester/amazon-freertos/lib/third_party/unity/src\unity.c ****                                 UNITY_PTR_ATTRIBUTE const UNITY_FLOAT* actual,
 698:D:/Work/DeviceTester/amazon-freertos/lib/third_party/unity/src\unity.c ****                                 const UNITY_UINT32 num_elements,
 699:D:/Work/DeviceTester/amazon-freertos/lib/third_party/unity/src\unity.c ****                                 const char* msg,
 700:D:/Work/DeviceTester/amazon-freertos/lib/third_party/unity/src\unity.c ****                                 const UNITY_LINE_TYPE lineNumber,
 701:D:/Work/DeviceTester/amazon-freertos/lib/third_party/unity/src\unity.c ****                                 const UNITY_FLAGS_T flags)
 702:D:/Work/DeviceTester/amazon-freertos/lib/third_party/unity/src\unity.c **** {
 1989              		.loc 1 702 0
 1990              		.cfi_startproc
 1991              		@ args = 8, pretend = 0, frame = 0
 1992              		@ frame_needed = 0, uses_anonymous_args = 0
 1993              	.LVL242:
 1994 0000 F84F2DE9 		push	{r3, r4, r5, r6, r7, r8, r9, r10, fp, lr}
 1995              		.cfi_def_cfa_offset 40
 1996              		.cfi_offset 3, -40
 1997              		.cfi_offset 4, -36
 1998              		.cfi_offset 5, -32
 1999              		.cfi_offset 6, -28
 2000              		.cfi_offset 7, -24
 2001              		.cfi_offset 8, -20
 2002              		.cfi_offset 9, -16
 2003              		.cfi_offset 10, -12
 2004              		.cfi_offset 11, -8
 2005              		.cfi_offset 14, -4
 2006 0004 02A0A0E1 		mov	r10, r2
 2007              	.LVL243:
 703:D:/Work/DeviceTester/amazon-freertos/lib/third_party/unity/src\unity.c ****     UNITY_UINT32 elements = num_elements;
 704:D:/Work/DeviceTester/amazon-freertos/lib/third_party/unity/src\unity.c ****     UNITY_PTR_ATTRIBUTE const UNITY_FLOAT* ptr_expected = expected;
 705:D:/Work/DeviceTester/amazon-freertos/lib/third_party/unity/src\unity.c ****     UNITY_PTR_ATTRIBUTE const UNITY_FLOAT* ptr_actual = actual;
 706:D:/Work/DeviceTester/amazon-freertos/lib/third_party/unity/src\unity.c **** 
 707:D:/Work/DeviceTester/amazon-freertos/lib/third_party/unity/src\unity.c ****     RETURN_IF_FAIL_OR_IGNORE;
 2008              		.loc 1 707 0
 2009 0008 18419FE5 		ldr	r4, .L236+4
 702:D:/Work/DeviceTester/amazon-freertos/lib/third_party/unity/src\unity.c ****     UNITY_UINT32 elements = num_elements;
 2010              		.loc 1 702 0
 2011 000c 028B2DED 		vpush.64	{d8}
 2012              		.cfi_def_cfa_offset 48
 2013              		.cfi_offset 80, -48
 2014              		.cfi_offset 81, -44
 2015              		.loc 1 707 0
 2016 0010 202094E5 		ldr	r2, [r4, #32]
 2017              	.LVL244:
 702:D:/Work/DeviceTester/amazon-freertos/lib/third_party/unity/src\unity.c ****     UNITY_UINT32 elements = num_elements;
 2018              		.loc 1 702 0
 2019 0014 3480DDE5 		ldrb	r8, [sp, #52]	@ zero_extendqisi2
 2020              		.loc 1 707 0
 2021 0018 000052E3 		cmp	r2, #0
 2022 001c 1F00001A 		bne	.L225
 2023              		.loc 1 707 0 is_stmt 0 discriminator 1
 2024 0020 242094E5 		ldr	r2, [r4, #36]
 2025 0024 000052E3 		cmp	r2, #0
 2026 0028 1C00001A 		bne	.L225
 708:D:/Work/DeviceTester/amazon-freertos/lib/third_party/unity/src\unity.c **** 
 709:D:/Work/DeviceTester/amazon-freertos/lib/third_party/unity/src\unity.c ****     if (elements == 0)
 2027              		.loc 1 709 0 is_stmt 1
 2028 002c 00005AE3 		cmp	r10, #0
 2029 0030 0370A0E1 		mov	r7, r3
 2030 0034 0900001A 		bne	.L228
 710:D:/Work/DeviceTester/amazon-freertos/lib/third_party/unity/src\unity.c ****     {
 711:D:/Work/DeviceTester/amazon-freertos/lib/third_party/unity/src\unity.c ****         UnityPrintPointlessAndBail();
 2031              		.loc 1 711 0
 2032 0038 30009DE5 		ldr	r0, [sp, #48]
 2033              	.LVL245:
 2034 003c FEFFFFEB 		bl	UnityTestResultsFailBegin
 2035              	.LVL246:
 2036 0040 E4009FE5 		ldr	r0, .L236+8
 2037 0044 FEFFFFEB 		bl	UnityPrint
 2038              	.LVL247:
 2039 0048 0700A0E1 		mov	r0, r7
 2040 004c FEFFFFEB 		bl	UnityAddMsgIfSpecified
 2041              	.LVL248:
 2042              	.L229:
 712:D:/Work/DeviceTester/amazon-freertos/lib/third_party/unity/src\unity.c ****     }
 713:D:/Work/DeviceTester/amazon-freertos/lib/third_party/unity/src\unity.c **** 
 714:D:/Work/DeviceTester/amazon-freertos/lib/third_party/unity/src\unity.c ****     if (expected == actual) return; /* Both are NULL or same pointer */
 715:D:/Work/DeviceTester/amazon-freertos/lib/third_party/unity/src\unity.c ****     if (UnityIsOneArrayNull((UNITY_INTERNAL_PTR)expected, (UNITY_INTERNAL_PTR)actual, lineNumber, m
 716:D:/Work/DeviceTester/amazon-freertos/lib/third_party/unity/src\unity.c ****         UNITY_FAIL_AND_BAIL;
 2043              		.loc 1 716 0
 2044 0050 280084E2 		add	r0, r4, #40
 2045 0054 0110A0E3 		mov	r1, #1
 2046 0058 201084E5 		str	r1, [r4, #32]
 2047              	.LVL249:
 2048              	.L235:
 717:D:/Work/DeviceTester/amazon-freertos/lib/third_party/unity/src\unity.c **** 
 718:D:/Work/DeviceTester/amazon-freertos/lib/third_party/unity/src\unity.c ****     while (elements--)
 719:D:/Work/DeviceTester/amazon-freertos/lib/third_party/unity/src\unity.c ****     {
 720:D:/Work/DeviceTester/amazon-freertos/lib/third_party/unity/src\unity.c ****         if (!UnityFloatsWithin(*ptr_expected * UNITY_FLOAT_PRECISION, *ptr_expected, *ptr_actual))
 721:D:/Work/DeviceTester/amazon-freertos/lib/third_party/unity/src\unity.c ****         {
 722:D:/Work/DeviceTester/amazon-freertos/lib/third_party/unity/src\unity.c ****             UnityTestResultsFailBegin(lineNumber);
 723:D:/Work/DeviceTester/amazon-freertos/lib/third_party/unity/src\unity.c ****             UnityPrint(UnityStrElement);
 724:D:/Work/DeviceTester/amazon-freertos/lib/third_party/unity/src\unity.c ****             UnityPrintNumberUnsigned(num_elements - elements - 1);
 725:D:/Work/DeviceTester/amazon-freertos/lib/third_party/unity/src\unity.c ****             UNITY_PRINT_EXPECTED_AND_ACTUAL_FLOAT((UNITY_DOUBLE)*ptr_expected, (UNITY_DOUBLE)*ptr_a
 726:D:/Work/DeviceTester/amazon-freertos/lib/third_party/unity/src\unity.c ****             UnityAddMsgIfSpecified(msg);
 727:D:/Work/DeviceTester/amazon-freertos/lib/third_party/unity/src\unity.c ****             UNITY_FAIL_AND_BAIL;
 2049              		.loc 1 727 0
 2050 005c FEFFFFEB 		bl	longjmp
 2051              	.LVL250:
 2052              	.L228:
 714:D:/Work/DeviceTester/amazon-freertos/lib/third_party/unity/src\unity.c ****     if (UnityIsOneArrayNull((UNITY_INTERNAL_PTR)expected, (UNITY_INTERNAL_PTR)actual, lineNumber, m
 2053              		.loc 1 714 0
 2054 0060 010050E1 		cmp	r0, r1
 2055 0064 0060A0E1 		mov	r6, r0
 2056 0068 0150A0E1 		mov	r5, r1
 2057 006c 0B00000A 		beq	.L225
 715:D:/Work/DeviceTester/amazon-freertos/lib/third_party/unity/src\unity.c ****         UNITY_FAIL_AND_BAIL;
 2058              		.loc 1 715 0
 2059 0070 30209DE5 		ldr	r2, [sp, #48]
 2060 0074 FEFFFFEB 		bl	UnityIsOneArrayNull
 2061              	.LVL251:
 2062 0078 000050E3 		cmp	r0, #0
 2063 007c F3FFFF1A 		bne	.L229
 720:D:/Work/DeviceTester/amazon-freertos/lib/third_party/unity/src\unity.c ****         {
 2064              		.loc 1 720 0
 2065 0080 278A9FED 		vldr.32	s16, .L236
 2066 0084 0490A0E1 		mov	r9, r4
 2067 0088 01404AE2 		sub	r4, r10, #1
 2068 008c 05B0A0E1 		mov	fp, r5
 715:D:/Work/DeviceTester/amazon-freertos/lib/third_party/unity/src\unity.c ****         UNITY_FAIL_AND_BAIL;
 2069              		.loc 1 715 0
 2070 0090 0450A0E1 		mov	r5, r4
 2071              	.LVL252:
 2072              	.L230:
 718:D:/Work/DeviceTester/amazon-freertos/lib/third_party/unity/src\unity.c ****     {
 2073              		.loc 1 718 0
 2074 0094 010075E3 		cmn	r5, #1
 2075 0098 0BA0A0E1 		mov	r10, fp
 2076              	.LVL253:
 2077 009c 0100001A 		bne	.L233
 2078              	.LVL254:
 2079              	.L225:
 728:D:/Work/DeviceTester/amazon-freertos/lib/third_party/unity/src\unity.c ****         }
 729:D:/Work/DeviceTester/amazon-freertos/lib/third_party/unity/src\unity.c ****         if (flags == UNITY_ARRAY_TO_ARRAY)
 730:D:/Work/DeviceTester/amazon-freertos/lib/third_party/unity/src\unity.c ****         {
 731:D:/Work/DeviceTester/amazon-freertos/lib/third_party/unity/src\unity.c ****             ptr_expected++;
 732:D:/Work/DeviceTester/amazon-freertos/lib/third_party/unity/src\unity.c ****         }
 733:D:/Work/DeviceTester/amazon-freertos/lib/third_party/unity/src\unity.c ****         ptr_actual++;
 734:D:/Work/DeviceTester/amazon-freertos/lib/third_party/unity/src\unity.c ****     }
 735:D:/Work/DeviceTester/amazon-freertos/lib/third_party/unity/src\unity.c **** }
 2080              		.loc 1 735 0
 2081 00a0 028BBDEC 		vldm	sp!, {d8}
 2082              		.cfi_remember_state
 2083              		.cfi_restore 80
 2084              		.cfi_restore 81
 2085              		.cfi_def_cfa_offset 40
 2086 00a4 F88FBDE8 		pop	{r3, r4, r5, r6, r7, r8, r9, r10, fp, pc}
 2087              	.LVL255:
 2088              	.L233:
 2089              		.cfi_restore_state
 720:D:/Work/DeviceTester/amazon-freertos/lib/third_party/unity/src\unity.c ****         {
 2090              		.loc 1 720 0
 2091 00a8 000AD6ED 		vldr.32	s1, [r6]
 2092 00ac 04B08BE2 		add	fp, fp, #4
 2093 00b0 001A9AED 		vldr.32	s2, [r10]
 2094 00b4 880A20EE 		vmul.f32	s0, s1, s16
 2095 00b8 FEFFFFEB 		bl	UnityFloatsWithin
 2096              	.LVL256:
 2097 00bc 000050E3 		cmp	r0, #0
 2098 00c0 1300001A 		bne	.L231
 722:D:/Work/DeviceTester/amazon-freertos/lib/third_party/unity/src\unity.c ****             UnityPrint(UnityStrElement);
 2099              		.loc 1 722 0
 2100 00c4 30009DE5 		ldr	r0, [sp, #48]
 2101 00c8 FEFFFFEB 		bl	UnityTestResultsFailBegin
 2102              	.LVL257:
 723:D:/Work/DeviceTester/amazon-freertos/lib/third_party/unity/src\unity.c ****             UnityPrintNumberUnsigned(num_elements - elements - 1);
 2103              		.loc 1 723 0
 2104 00cc 5C009FE5 		ldr	r0, .L236+12
 2105 00d0 FEFFFFEB 		bl	UnityPrint
 2106              	.LVL258:
 724:D:/Work/DeviceTester/amazon-freertos/lib/third_party/unity/src\unity.c ****             UNITY_PRINT_EXPECTED_AND_ACTUAL_FLOAT((UNITY_DOUBLE)*ptr_expected, (UNITY_DOUBLE)*ptr_a
 2107              		.loc 1 724 0
 2108 00d4 050044E0 		sub	r0, r4, r5
 2109 00d8 FEFFFFEB 		bl	UnityPrintNumberUnsigned
 2110              	.LVL259:
 725:D:/Work/DeviceTester/amazon-freertos/lib/third_party/unity/src\unity.c ****             UnityAddMsgIfSpecified(msg);
 2111              		.loc 1 725 0
 2112 00dc 50009FE5 		ldr	r0, .L236+16
 2113 00e0 FEFFFFEB 		bl	UnityPrint
 2114              	.LVL260:
 2115 00e4 000A96ED 		vldr.32	s0, [r6]
 2116 00e8 FEFFFFEB 		bl	UnityPrintFloat
 2117              	.LVL261:
 2118 00ec 44009FE5 		ldr	r0, .L236+20
 2119 00f0 FEFFFFEB 		bl	UnityPrint
 2120              	.LVL262:
 2121 00f4 000A9AED 		vldr.32	s0, [r10]
 2122 00f8 FEFFFFEB 		bl	UnityPrintFloat
 2123              	.LVL263:
 726:D:/Work/DeviceTester/amazon-freertos/lib/third_party/unity/src\unity.c ****             UNITY_FAIL_AND_BAIL;
 2124              		.loc 1 726 0
 2125 00fc 0700A0E1 		mov	r0, r7
 2126 0100 FEFFFFEB 		bl	UnityAddMsgIfSpecified
 2127              	.LVL264:
 727:D:/Work/DeviceTester/amazon-freertos/lib/third_party/unity/src\unity.c ****         }
 2128              		.loc 1 727 0
 2129 0104 0110A0E3 		mov	r1, #1
 2130 0108 2C009FE5 		ldr	r0, .L236+24
 2131 010c 201089E5 		str	r1, [r9, #32]
 2132 0110 D1FFFFEA 		b	.L235
 2133              	.L231:
 729:D:/Work/DeviceTester/amazon-freertos/lib/third_party/unity/src\unity.c ****         {
 2134              		.loc 1 729 0
 2135 0114 010058E3 		cmp	r8, #1
 2136 0118 015045E2 		sub	r5, r5, #1
 2137              	.LVL265:
 731:D:/Work/DeviceTester/amazon-freertos/lib/third_party/unity/src\unity.c ****         }
 2138              		.loc 1 731 0
 2139 011c 04608602 		addeq	r6, r6, #4
 2140              	.LVL266:
 2141 0120 DBFFFFEA 		b	.L230
 2142              	.L237:
 2143              		.align	2
 2144              	.L236:
 2145 0124 ACC52737 		.word	925353388
 2146 0128 00000000 		.word	Unity
 2147 012c 00000000 		.word	.LANCHOR12
 2148 0130 00000000 		.word	.LANCHOR13
 2149 0134 00000000 		.word	.LANCHOR6
 2150 0138 00000000 		.word	.LANCHOR8
 2151 013c 28000000 		.word	Unity+40
 2152              		.cfi_endproc
 2153              	.LFE21:
 2155              		.section	.text.UnityAssertFloatsWithin,"ax",%progbits
 2156              		.align	2
 2157              		.global	UnityAssertFloatsWithin
 2158              		.syntax unified
 2159              		.arm
 2160              		.fpu neon
 2162              	UnityAssertFloatsWithin:
 2163              	.LFB22:
 736:D:/Work/DeviceTester/amazon-freertos/lib/third_party/unity/src\unity.c **** 
 737:D:/Work/DeviceTester/amazon-freertos/lib/third_party/unity/src\unity.c **** /*-----------------------------------------------*/
 738:D:/Work/DeviceTester/amazon-freertos/lib/third_party/unity/src\unity.c **** void UnityAssertFloatsWithin(const UNITY_FLOAT delta,
 739:D:/Work/DeviceTester/amazon-freertos/lib/third_party/unity/src\unity.c ****                              const UNITY_FLOAT expected,
 740:D:/Work/DeviceTester/amazon-freertos/lib/third_party/unity/src\unity.c ****                              const UNITY_FLOAT actual,
 741:D:/Work/DeviceTester/amazon-freertos/lib/third_party/unity/src\unity.c ****                              const char* msg,
 742:D:/Work/DeviceTester/amazon-freertos/lib/third_party/unity/src\unity.c ****                              const UNITY_LINE_TYPE lineNumber)
 743:D:/Work/DeviceTester/amazon-freertos/lib/third_party/unity/src\unity.c **** {
 2164              		.loc 1 743 0
 2165              		.cfi_startproc
 2166              		@ args = 0, pretend = 0, frame = 0
 2167              		@ frame_needed = 0, uses_anonymous_args = 0
 2168              	.LVL267:
 2169 0000 70402DE9 		push	{r4, r5, r6, lr}
 2170              		.cfi_def_cfa_offset 16
 2171              		.cfi_offset 4, -16
 2172              		.cfi_offset 5, -12
 2173              		.cfi_offset 6, -8
 2174              		.cfi_offset 14, -4
 744:D:/Work/DeviceTester/amazon-freertos/lib/third_party/unity/src\unity.c ****     RETURN_IF_FAIL_OR_IGNORE;
 2175              		.loc 1 744 0
 2176 0004 78409FE5 		ldr	r4, .L241
 743:D:/Work/DeviceTester/amazon-freertos/lib/third_party/unity/src\unity.c ****     RETURN_IF_FAIL_OR_IGNORE;
 2177              		.loc 1 743 0
 2178 0008 028B2DED 		vpush.64	{d8}
 2179              		.cfi_def_cfa_offset 24
 2180              		.cfi_offset 80, -24
 2181              		.cfi_offset 81, -20
 2182              		.loc 1 744 0
 2183 000c 203094E5 		ldr	r3, [r4, #32]
 2184 0010 000053E3 		cmp	r3, #0
 2185 0014 1800001A 		bne	.L238
 2186              		.loc 1 744 0 is_stmt 0 discriminator 1
 2187 0018 243094E5 		ldr	r3, [r4, #36]
 2188 001c 000053E3 		cmp	r3, #0
 2189 0020 1500001A 		bne	.L238
 2190 0024 418AB0EE 		vmov.f32	s16, s2
 2191 0028 0050A0E1 		mov	r5, r0
 745:D:/Work/DeviceTester/amazon-freertos/lib/third_party/unity/src\unity.c **** 
 746:D:/Work/DeviceTester/amazon-freertos/lib/third_party/unity/src\unity.c **** 
 747:D:/Work/DeviceTester/amazon-freertos/lib/third_party/unity/src\unity.c ****     if (!UnityFloatsWithin(delta, expected, actual))
 2192              		.loc 1 747 0 is_stmt 1
 2193 002c FEFFFFEB 		bl	UnityFloatsWithin
 2194              	.LVL268:
 2195 0030 000050E3 		cmp	r0, #0
 2196 0034 1000001A 		bne	.L238
 748:D:/Work/DeviceTester/amazon-freertos/lib/third_party/unity/src\unity.c ****     {
 749:D:/Work/DeviceTester/amazon-freertos/lib/third_party/unity/src\unity.c ****         UnityTestResultsFailBegin(lineNumber);
 2197              		.loc 1 749 0
 2198 0038 0100A0E1 		mov	r0, r1
 2199 003c 608AF0EE 		vmov.f32	s17, s1
 2200 0040 FEFFFFEB 		bl	UnityTestResultsFailBegin
 2201              	.LVL269:
 750:D:/Work/DeviceTester/amazon-freertos/lib/third_party/unity/src\unity.c ****         UNITY_PRINT_EXPECTED_AND_ACTUAL_FLOAT((UNITY_DOUBLE)expected, (UNITY_DOUBLE)actual);
 2202              		.loc 1 750 0
 2203 0044 3C009FE5 		ldr	r0, .L241+4
 2204 0048 FEFFFFEB 		bl	UnityPrint
 2205              	.LVL270:
 2206 004c 680AB0EE 		vmov.f32	s0, s17
 2207 0050 FEFFFFEB 		bl	UnityPrintFloat
 2208              	.LVL271:
 2209 0054 30009FE5 		ldr	r0, .L241+8
 2210 0058 FEFFFFEB 		bl	UnityPrint
 2211              	.LVL272:
 2212 005c 480AB0EE 		vmov.f32	s0, s16
 2213 0060 FEFFFFEB 		bl	UnityPrintFloat
 2214              	.LVL273:
 751:D:/Work/DeviceTester/amazon-freertos/lib/third_party/unity/src\unity.c ****         UnityAddMsgIfSpecified(msg);
 2215              		.loc 1 751 0
 2216 0064 0500A0E1 		mov	r0, r5
 2217 0068 FEFFFFEB 		bl	UnityAddMsgIfSpecified
 2218              	.LVL274:
 752:D:/Work/DeviceTester/amazon-freertos/lib/third_party/unity/src\unity.c ****         UNITY_FAIL_AND_BAIL;
 2219              		.loc 1 752 0
 2220 006c 0110A0E3 		mov	r1, #1
 2221 0070 280084E2 		add	r0, r4, #40
 2222 0074 201084E5 		str	r1, [r4, #32]
 2223 0078 FEFFFFEB 		bl	longjmp
 2224              	.LVL275:
 2225              	.L238:
 753:D:/Work/DeviceTester/amazon-freertos/lib/third_party/unity/src\unity.c ****     }
 754:D:/Work/DeviceTester/amazon-freertos/lib/third_party/unity/src\unity.c **** }
 2226              		.loc 1 754 0
 2227 007c 028BBDEC 		vldm	sp!, {d8}
 2228              		.cfi_restore 80
 2229              		.cfi_restore 81
 2230              		.cfi_def_cfa_offset 16
 2231 0080 7080BDE8 		pop	{r4, r5, r6, pc}
 2232              	.L242:
 2233              		.align	2
 2234              	.L241:
 2235 0084 00000000 		.word	Unity
 2236 0088 00000000 		.word	.LANCHOR6
 2237 008c 00000000 		.word	.LANCHOR8
 2238              		.cfi_endproc
 2239              	.LFE22:
 2241              		.section	.text.UnityAssertFloatSpecial,"ax",%progbits
 2242              		.align	2
 2243              		.global	UnityAssertFloatSpecial
 2244              		.syntax unified
 2245              		.arm
 2246              		.fpu neon
 2248              	UnityAssertFloatSpecial:
 2249              	.LFB23:
 755:D:/Work/DeviceTester/amazon-freertos/lib/third_party/unity/src\unity.c **** 
 756:D:/Work/DeviceTester/amazon-freertos/lib/third_party/unity/src\unity.c **** /*-----------------------------------------------*/
 757:D:/Work/DeviceTester/amazon-freertos/lib/third_party/unity/src\unity.c **** void UnityAssertFloatSpecial(const UNITY_FLOAT actual,
 758:D:/Work/DeviceTester/amazon-freertos/lib/third_party/unity/src\unity.c ****                              const char* msg,
 759:D:/Work/DeviceTester/amazon-freertos/lib/third_party/unity/src\unity.c ****                              const UNITY_LINE_TYPE lineNumber,
 760:D:/Work/DeviceTester/amazon-freertos/lib/third_party/unity/src\unity.c ****                              const UNITY_FLOAT_TRAIT_T style)
 761:D:/Work/DeviceTester/amazon-freertos/lib/third_party/unity/src\unity.c **** {
 2250              		.loc 1 761 0
 2251              		.cfi_startproc
 2252              		@ args = 0, pretend = 0, frame = 16
 2253              		@ frame_needed = 0, uses_anonymous_args = 0
 2254              	.LVL276:
 762:D:/Work/DeviceTester/amazon-freertos/lib/third_party/unity/src\unity.c ****     const char* trait_names[] = {UnityStrInf, UnityStrNegInf, UnityStrNaN, UnityStrDet};
 2255              		.loc 1 762 0
 2256 0000 94319FE5 		ldr	r3, .L256+4
 761:D:/Work/DeviceTester/amazon-freertos/lib/third_party/unity/src\unity.c ****     const char* trait_names[] = {UnityStrInf, UnityStrNegInf, UnityStrNaN, UnityStrDet};
 2257              		.loc 1 761 0
 2258 0004 F0412DE9 		push	{r4, r5, r6, r7, r8, lr}
 2259              		.cfi_def_cfa_offset 24
 2260              		.cfi_offset 4, -24
 2261              		.cfi_offset 5, -20
 2262              		.cfi_offset 6, -16
 2263              		.cfi_offset 7, -12
 2264              		.cfi_offset 8, -8
 2265              		.cfi_offset 14, -4
 2266 0008 0080A0E1 		mov	r8, r0
 2267 000c 0170A0E1 		mov	r7, r1
 2268 0010 0240A0E1 		mov	r4, r2
 2269              		.loc 1 762 0
 2270 0014 0F0093E8 		ldm	r3, {r0, r1, r2, r3}
 2271              	.LVL277:
 763:D:/Work/DeviceTester/amazon-freertos/lib/third_party/unity/src\unity.c ****     UNITY_INT should_be_trait = ((UNITY_INT)style & 1);
 764:D:/Work/DeviceTester/amazon-freertos/lib/third_party/unity/src\unity.c ****     UNITY_INT is_trait        = !should_be_trait;
 765:D:/Work/DeviceTester/amazon-freertos/lib/third_party/unity/src\unity.c ****     UNITY_INT trait_index     = (UNITY_INT)(style >> 1);
 766:D:/Work/DeviceTester/amazon-freertos/lib/third_party/unity/src\unity.c **** 
 767:D:/Work/DeviceTester/amazon-freertos/lib/third_party/unity/src\unity.c ****     RETURN_IF_FAIL_OR_IGNORE;
 2272              		.loc 1 767 0
 2273 0018 80519FE5 		ldr	r5, .L256+8
 761:D:/Work/DeviceTester/amazon-freertos/lib/third_party/unity/src\unity.c ****     const char* trait_names[] = {UnityStrInf, UnityStrNegInf, UnityStrNaN, UnityStrDet};
 2274              		.loc 1 761 0
 2275 001c 028B2DED 		vpush.64	{d8}
 2276              		.cfi_def_cfa_offset 32
 2277              		.cfi_offset 80, -32
 2278              		.cfi_offset 81, -28
 2279 0020 10D04DE2 		sub	sp, sp, #16
 2280              		.cfi_def_cfa_offset 48
 762:D:/Work/DeviceTester/amazon-freertos/lib/third_party/unity/src\unity.c ****     UNITY_INT should_be_trait = ((UNITY_INT)style & 1);
 2281              		.loc 1 762 0
 2282 0024 10C08DE2 		add	ip, sp, #16
 2283 0028 0F000CE9 		stmdb	ip, {r0, r1, r2, r3}
 2284              	.LVL278:
 2285              		.loc 1 767 0
 2286 002c 202095E5 		ldr	r2, [r5, #32]
 2287 0030 000052E3 		cmp	r2, #0
 2288 0034 5400001A 		bne	.L243
 2289              		.loc 1 767 0 is_stmt 0 discriminator 1
 2290 0038 242095E5 		ldr	r2, [r5, #36]
 2291 003c 000052E3 		cmp	r2, #0
 2292 0040 5100001A 		bne	.L243
 2293 0044 0430E0E1 		mvn	r3, r4
 2294 0048 A460A0E1 		lsr	r6, r4, #1
 2295              	.LVL279:
 2296 004c 7330EFE6 		uxtb	r3, r3
 768:D:/Work/DeviceTester/amazon-freertos/lib/third_party/unity/src\unity.c **** 
 769:D:/Work/DeviceTester/amazon-freertos/lib/third_party/unity/src\unity.c ****     switch (style)
 2297              		.loc 1 769 0 is_stmt 1
 2298 0050 070054E3 		cmp	r4, #7
 2299 0054 04F19F97 		ldrls	pc, [pc, r4, asl #2]
 2300 0058 440000EA 		b	.L245
 2301              	.L247:
 2302 005c 7C000000 		.word	.L246
 2303 0060 7C000000 		.word	.L246
 2304 0064 08010000 		.word	.L248
 2305 0068 08010000 		.word	.L248
 2306 006c 30010000 		.word	.L249
 2307 0070 30010000 		.word	.L249
 2308 0074 44010000 		.word	.L250
 2309 0078 44010000 		.word	.L250
 2310              	.L246:
 770:D:/Work/DeviceTester/amazon-freertos/lib/third_party/unity/src\unity.c ****     {
 771:D:/Work/DeviceTester/amazon-freertos/lib/third_party/unity/src\unity.c ****         case UNITY_FLOAT_IS_INF:
 772:D:/Work/DeviceTester/amazon-freertos/lib/third_party/unity/src\unity.c ****         case UNITY_FLOAT_IS_NOT_INF:
 773:D:/Work/DeviceTester/amazon-freertos/lib/third_party/unity/src\unity.c ****             is_trait = isinf(actual) && (actual > 0);
 2311              		.loc 1 773 0
 2312 007c 457A9FED 		vldr.32	s14, .L256
 2313 0080 C07AF0EE 		vabs.f32	s15, s0
 2314 0084 477AF4EE 		vcmp.f32	s15, s14
 2315 0088 10FAF1EE 		vmrs	APSR_nzcv, FPSCR
 2316 008c 3C0000DA 		ble	.L254
 2317              		.loc 1 773 0 is_stmt 0 discriminator 1
 2318 0090 C00AB5EE 		vcmpe.f32	s0, #0
 2319 0094 10FAF1EE 		vmrs	APSR_nzcv, FPSCR
 2320 0098 0130A0C3 		movgt	r3, #1
 2321 009c 0030A0D3 		movle	r3, #0
 2322              	.LVL280:
 2323              	.L251:
 763:D:/Work/DeviceTester/amazon-freertos/lib/third_party/unity/src\unity.c ****     UNITY_INT is_trait        = !should_be_trait;
 2324              		.loc 1 763 0 is_stmt 1
 2325 00a0 014004E2 		and	r4, r4, #1
 2326              	.LVL281:
 774:D:/Work/DeviceTester/amazon-freertos/lib/third_party/unity/src\unity.c ****             break;
 775:D:/Work/DeviceTester/amazon-freertos/lib/third_party/unity/src\unity.c ****         case UNITY_FLOAT_IS_NEG_INF:
 776:D:/Work/DeviceTester/amazon-freertos/lib/third_party/unity/src\unity.c ****         case UNITY_FLOAT_IS_NOT_NEG_INF:
 777:D:/Work/DeviceTester/amazon-freertos/lib/third_party/unity/src\unity.c ****             is_trait = isinf(actual) && (actual < 0);
 778:D:/Work/DeviceTester/amazon-freertos/lib/third_party/unity/src\unity.c ****             break;
 779:D:/Work/DeviceTester/amazon-freertos/lib/third_party/unity/src\unity.c **** 
 780:D:/Work/DeviceTester/amazon-freertos/lib/third_party/unity/src\unity.c ****         case UNITY_FLOAT_IS_NAN:
 781:D:/Work/DeviceTester/amazon-freertos/lib/third_party/unity/src\unity.c ****         case UNITY_FLOAT_IS_NOT_NAN:
 782:D:/Work/DeviceTester/amazon-freertos/lib/third_party/unity/src\unity.c ****             is_trait = isnan(actual) ? 1 : 0;
 783:D:/Work/DeviceTester/amazon-freertos/lib/third_party/unity/src\unity.c ****             break;
 784:D:/Work/DeviceTester/amazon-freertos/lib/third_party/unity/src\unity.c **** 
 785:D:/Work/DeviceTester/amazon-freertos/lib/third_party/unity/src\unity.c ****         case UNITY_FLOAT_IS_DET: /* A determinate number is non infinite and not NaN. */
 786:D:/Work/DeviceTester/amazon-freertos/lib/third_party/unity/src\unity.c ****         case UNITY_FLOAT_IS_NOT_DET:
 787:D:/Work/DeviceTester/amazon-freertos/lib/third_party/unity/src\unity.c ****             is_trait = !isinf(actual) && !isnan(actual);
 788:D:/Work/DeviceTester/amazon-freertos/lib/third_party/unity/src\unity.c ****             break;
 789:D:/Work/DeviceTester/amazon-freertos/lib/third_party/unity/src\unity.c **** 
 790:D:/Work/DeviceTester/amazon-freertos/lib/third_party/unity/src\unity.c ****         default:
 791:D:/Work/DeviceTester/amazon-freertos/lib/third_party/unity/src\unity.c ****             trait_index = 0;
 792:D:/Work/DeviceTester/amazon-freertos/lib/third_party/unity/src\unity.c ****             trait_names[0] = UnityStrInvalidFloatTrait;
 793:D:/Work/DeviceTester/amazon-freertos/lib/third_party/unity/src\unity.c ****             break;
 794:D:/Work/DeviceTester/amazon-freertos/lib/third_party/unity/src\unity.c ****     }
 795:D:/Work/DeviceTester/amazon-freertos/lib/third_party/unity/src\unity.c **** 
 796:D:/Work/DeviceTester/amazon-freertos/lib/third_party/unity/src\unity.c ****     if (is_trait != should_be_trait)
 2327              		.loc 1 796 0
 2328 00a4 040053E1 		cmp	r3, r4
 2329 00a8 3700000A 		beq	.L243
 2330 00ac 0700A0E1 		mov	r0, r7
 2331 00b0 408AB0EE 		vmov.f32	s16, s0
 797:D:/Work/DeviceTester/amazon-freertos/lib/third_party/unity/src\unity.c ****     {
 798:D:/Work/DeviceTester/amazon-freertos/lib/third_party/unity/src\unity.c ****         UnityTestResultsFailBegin(lineNumber);
 2332              		.loc 1 798 0
 2333 00b4 FEFFFFEB 		bl	UnityTestResultsFailBegin
 2334              	.LVL282:
 799:D:/Work/DeviceTester/amazon-freertos/lib/third_party/unity/src\unity.c ****         UnityPrint(UnityStrExpected);
 2335              		.loc 1 799 0
 2336 00b8 E4009FE5 		ldr	r0, .L256+12
 2337 00bc FEFFFFEB 		bl	UnityPrint
 2338              	.LVL283:
 800:D:/Work/DeviceTester/amazon-freertos/lib/third_party/unity/src\unity.c ****         if (!should_be_trait)
 2339              		.loc 1 800 0
 2340 00c0 000054E3 		cmp	r4, #0
 2341 00c4 0100001A 		bne	.L252
 801:D:/Work/DeviceTester/amazon-freertos/lib/third_party/unity/src\unity.c ****             UnityPrint(UnityStrNot);
 2342              		.loc 1 801 0
 2343 00c8 D8009FE5 		ldr	r0, .L256+16
 2344 00cc FEFFFFEB 		bl	UnityPrint
 2345              	.LVL284:
 2346              	.L252:
 802:D:/Work/DeviceTester/amazon-freertos/lib/third_party/unity/src\unity.c ****         UnityPrint(trait_names[trait_index]);
 2347              		.loc 1 802 0
 2348 00d0 10308DE2 		add	r3, sp, #16
 2349 00d4 066183E0 		add	r6, r3, r6, lsl #2
 2350              	.LVL285:
 2351 00d8 100016E5 		ldr	r0, [r6, #-16]
 2352 00dc FEFFFFEB 		bl	UnityPrint
 2353              	.LVL286:
 803:D:/Work/DeviceTester/amazon-freertos/lib/third_party/unity/src\unity.c ****         UnityPrint(UnityStrWas);
 2354              		.loc 1 803 0
 2355 00e0 C4009FE5 		ldr	r0, .L256+20
 2356 00e4 FEFFFFEB 		bl	UnityPrint
 2357              	.LVL287:
 804:D:/Work/DeviceTester/amazon-freertos/lib/third_party/unity/src\unity.c **** #ifndef UNITY_EXCLUDE_FLOAT_PRINT
 805:D:/Work/DeviceTester/amazon-freertos/lib/third_party/unity/src\unity.c ****         UnityPrintFloat((UNITY_DOUBLE)actual);
 2358              		.loc 1 805 0
 2359 00e8 480AB0EE 		vmov.f32	s0, s16
 2360 00ec FEFFFFEB 		bl	UnityPrintFloat
 2361              	.LVL288:
 806:D:/Work/DeviceTester/amazon-freertos/lib/third_party/unity/src\unity.c **** #else
 807:D:/Work/DeviceTester/amazon-freertos/lib/third_party/unity/src\unity.c ****         if (should_be_trait)
 808:D:/Work/DeviceTester/amazon-freertos/lib/third_party/unity/src\unity.c ****             UnityPrint(UnityStrNot);
 809:D:/Work/DeviceTester/amazon-freertos/lib/third_party/unity/src\unity.c ****         UnityPrint(trait_names[trait_index]);
 810:D:/Work/DeviceTester/amazon-freertos/lib/third_party/unity/src\unity.c **** #endif
 811:D:/Work/DeviceTester/amazon-freertos/lib/third_party/unity/src\unity.c ****         UnityAddMsgIfSpecified(msg);
 2362              		.loc 1 811 0
 2363 00f0 0800A0E1 		mov	r0, r8
 2364 00f4 FEFFFFEB 		bl	UnityAddMsgIfSpecified
 2365              	.LVL289:
 812:D:/Work/DeviceTester/amazon-freertos/lib/third_party/unity/src\unity.c ****         UNITY_FAIL_AND_BAIL;
 2366              		.loc 1 812 0
 2367 00f8 0110A0E3 		mov	r1, #1
 2368 00fc AC009FE5 		ldr	r0, .L256+24
 2369 0100 201085E5 		str	r1, [r5, #32]
 2370 0104 FEFFFFEB 		bl	longjmp
 2371              	.LVL290:
 2372              	.L248:
 777:D:/Work/DeviceTester/amazon-freertos/lib/third_party/unity/src\unity.c ****             break;
 2373              		.loc 1 777 0
 2374 0108 227A9FED 		vldr.32	s14, .L256
 2375 010c C07AF0EE 		vabs.f32	s15, s0
 2376 0110 477AF4EE 		vcmp.f32	s15, s14
 2377 0114 10FAF1EE 		vmrs	APSR_nzcv, FPSCR
 2378 0118 190000DA 		ble	.L254
 777:D:/Work/DeviceTester/amazon-freertos/lib/third_party/unity/src\unity.c ****             break;
 2379              		.loc 1 777 0 is_stmt 0 discriminator 1
 2380 011c C00AB5EE 		vcmpe.f32	s0, #0
 2381 0120 10FAF1EE 		vmrs	APSR_nzcv, FPSCR
 2382 0124 0130A043 		movmi	r3, #1
 2383 0128 0030A053 		movpl	r3, #0
 2384 012c DBFFFFEA 		b	.L251
 2385              	.L249:
 782:D:/Work/DeviceTester/amazon-freertos/lib/third_party/unity/src\unity.c ****             break;
 2386              		.loc 1 782 0 is_stmt 1
 2387 0130 400AB4EE 		vcmp.f32	s0, s0
 2388 0134 10FAF1EE 		vmrs	APSR_nzcv, FPSCR
 2389 0138 0130A063 		movvs	r3, #1
 2390 013c 0030A073 		movvc	r3, #0
 2391              	.LVL291:
 783:D:/Work/DeviceTester/amazon-freertos/lib/third_party/unity/src\unity.c **** 
 2392              		.loc 1 783 0
 2393 0140 D6FFFFEA 		b	.L251
 2394              	.LVL292:
 2395              	.L250:
 787:D:/Work/DeviceTester/amazon-freertos/lib/third_party/unity/src\unity.c ****             break;
 2396              		.loc 1 787 0
 2397 0144 137A9FED 		vldr.32	s14, .L256
 2398 0148 C07AF0EE 		vabs.f32	s15, s0
 2399 014c 477AF4EE 		vcmp.f32	s15, s14
 2400 0150 10FAF1EE 		vmrs	APSR_nzcv, FPSCR
 2401 0154 400AB4EE 		vcmp.f32	s0, s0
 2402 0158 0130A0D3 		movle	r3, #1
 2403 015c 0030A0C3 		movgt	r3, #0
 2404 0160 10FAF1EE 		vmrs	APSR_nzcv, FPSCR
 773:D:/Work/DeviceTester/amazon-freertos/lib/third_party/unity/src\unity.c ****             break;
 2405              		.loc 1 773 0
 2406 0164 0030A063 		movvs	r3, #0
 2407 0168 01300372 		andvc	r3, r3, #1
 2408 016c CBFFFFEA 		b	.L251
 2409              	.L245:
 792:D:/Work/DeviceTester/amazon-freertos/lib/third_party/unity/src\unity.c ****             break;
 2410              		.loc 1 792 0
 2411 0170 3C209FE5 		ldr	r2, .L256+28
 764:D:/Work/DeviceTester/amazon-freertos/lib/third_party/unity/src\unity.c ****     UNITY_INT trait_index     = (UNITY_INT)(style >> 1);
 2412              		.loc 1 764 0
 2413 0174 013003E2 		and	r3, r3, #1
 2414              	.LVL293:
 791:D:/Work/DeviceTester/amazon-freertos/lib/third_party/unity/src\unity.c ****             trait_names[0] = UnityStrInvalidFloatTrait;
 2415              		.loc 1 791 0
 2416 0178 0060A0E3 		mov	r6, #0
 792:D:/Work/DeviceTester/amazon-freertos/lib/third_party/unity/src\unity.c ****             break;
 2417              		.loc 1 792 0
 2418 017c 00208DE5 		str	r2, [sp]
 793:D:/Work/DeviceTester/amazon-freertos/lib/third_party/unity/src\unity.c ****     }
 2419              		.loc 1 793 0
 2420 0180 C6FFFFEA 		b	.L251
 2421              	.LVL294:
 2422              	.L254:
 777:D:/Work/DeviceTester/amazon-freertos/lib/third_party/unity/src\unity.c ****             break;
 2423              		.loc 1 777 0
 2424 0184 0030A0E3 		mov	r3, #0
 2425 0188 C4FFFFEA 		b	.L251
 2426              	.LVL295:
 2427              	.L243:
 813:D:/Work/DeviceTester/amazon-freertos/lib/third_party/unity/src\unity.c ****     }
 814:D:/Work/DeviceTester/amazon-freertos/lib/third_party/unity/src\unity.c **** }
 2428              		.loc 1 814 0
 2429 018c 10D08DE2 		add	sp, sp, #16
 2430              		.cfi_def_cfa_offset 32
 2431              		@ sp needed
 2432 0190 028BBDEC 		vldm	sp!, {d8}
 2433              		.cfi_restore 80
 2434              		.cfi_restore 81
 2435              		.cfi_def_cfa_offset 24
 2436 0194 F081BDE8 		pop	{r4, r5, r6, r7, r8, pc}
 2437              	.LVL296:
 2438              	.L257:
 2439              		.align	2
 2440              	.L256:
 2441 0198 FFFF7F7F 		.word	2139095039
 2442 019c 00000000 		.word	.LANCHOR14
 2443 01a0 00000000 		.word	Unity
 2444 01a4 00000000 		.word	.LANCHOR6
 2445 01a8 00000000 		.word	.LANCHOR16
 2446 01ac 00000000 		.word	.LANCHOR8
 2447 01b0 28000000 		.word	Unity+40
 2448 01b4 00000000 		.word	.LANCHOR15
 2449              		.cfi_endproc
 2450              	.LFE23:
 2452              		.section	.text.UnityAssertNumbersWithin,"ax",%progbits
 2453              		.align	2
 2454              		.global	UnityAssertNumbersWithin
 2455              		.syntax unified
 2456              		.arm
 2457              		.fpu neon
 2459              	UnityAssertNumbersWithin:
 2460              	.LFB24:
 815:D:/Work/DeviceTester/amazon-freertos/lib/third_party/unity/src\unity.c **** 
 816:D:/Work/DeviceTester/amazon-freertos/lib/third_party/unity/src\unity.c **** #endif /* not UNITY_EXCLUDE_FLOAT */
 817:D:/Work/DeviceTester/amazon-freertos/lib/third_party/unity/src\unity.c **** 
 818:D:/Work/DeviceTester/amazon-freertos/lib/third_party/unity/src\unity.c **** /*-----------------------------------------------*/
 819:D:/Work/DeviceTester/amazon-freertos/lib/third_party/unity/src\unity.c **** #ifndef UNITY_EXCLUDE_DOUBLE
 820:D:/Work/DeviceTester/amazon-freertos/lib/third_party/unity/src\unity.c **** static int UnityDoublesWithin(UNITY_DOUBLE delta, UNITY_DOUBLE expected, UNITY_DOUBLE actual)
 821:D:/Work/DeviceTester/amazon-freertos/lib/third_party/unity/src\unity.c **** {
 822:D:/Work/DeviceTester/amazon-freertos/lib/third_party/unity/src\unity.c ****     UNITY_DOUBLE diff;
 823:D:/Work/DeviceTester/amazon-freertos/lib/third_party/unity/src\unity.c ****     UNITY_FLOAT_OR_DOUBLE_WITHIN(delta, expected, actual, diff);
 824:D:/Work/DeviceTester/amazon-freertos/lib/third_party/unity/src\unity.c **** }
 825:D:/Work/DeviceTester/amazon-freertos/lib/third_party/unity/src\unity.c **** 
 826:D:/Work/DeviceTester/amazon-freertos/lib/third_party/unity/src\unity.c **** void UnityAssertEqualDoubleArray(UNITY_PTR_ATTRIBUTE const UNITY_DOUBLE* expected,
 827:D:/Work/DeviceTester/amazon-freertos/lib/third_party/unity/src\unity.c ****                                  UNITY_PTR_ATTRIBUTE const UNITY_DOUBLE* actual,
 828:D:/Work/DeviceTester/amazon-freertos/lib/third_party/unity/src\unity.c ****                                  const UNITY_UINT32 num_elements,
 829:D:/Work/DeviceTester/amazon-freertos/lib/third_party/unity/src\unity.c ****                                  const char* msg,
 830:D:/Work/DeviceTester/amazon-freertos/lib/third_party/unity/src\unity.c ****                                  const UNITY_LINE_TYPE lineNumber,
 831:D:/Work/DeviceTester/amazon-freertos/lib/third_party/unity/src\unity.c ****                                  const UNITY_FLAGS_T flags)
 832:D:/Work/DeviceTester/amazon-freertos/lib/third_party/unity/src\unity.c **** {
 833:D:/Work/DeviceTester/amazon-freertos/lib/third_party/unity/src\unity.c ****     UNITY_UINT32 elements = num_elements;
 834:D:/Work/DeviceTester/amazon-freertos/lib/third_party/unity/src\unity.c ****     UNITY_PTR_ATTRIBUTE const UNITY_DOUBLE* ptr_expected = expected;
 835:D:/Work/DeviceTester/amazon-freertos/lib/third_party/unity/src\unity.c ****     UNITY_PTR_ATTRIBUTE const UNITY_DOUBLE* ptr_actual = actual;
 836:D:/Work/DeviceTester/amazon-freertos/lib/third_party/unity/src\unity.c **** 
 837:D:/Work/DeviceTester/amazon-freertos/lib/third_party/unity/src\unity.c ****     RETURN_IF_FAIL_OR_IGNORE;
 838:D:/Work/DeviceTester/amazon-freertos/lib/third_party/unity/src\unity.c **** 
 839:D:/Work/DeviceTester/amazon-freertos/lib/third_party/unity/src\unity.c ****     if (elements == 0)
 840:D:/Work/DeviceTester/amazon-freertos/lib/third_party/unity/src\unity.c ****     {
 841:D:/Work/DeviceTester/amazon-freertos/lib/third_party/unity/src\unity.c ****         UnityPrintPointlessAndBail();
 842:D:/Work/DeviceTester/amazon-freertos/lib/third_party/unity/src\unity.c ****     }
 843:D:/Work/DeviceTester/amazon-freertos/lib/third_party/unity/src\unity.c **** 
 844:D:/Work/DeviceTester/amazon-freertos/lib/third_party/unity/src\unity.c ****     if (expected == actual) return; /* Both are NULL or same pointer */
 845:D:/Work/DeviceTester/amazon-freertos/lib/third_party/unity/src\unity.c ****     if (UnityIsOneArrayNull((UNITY_INTERNAL_PTR)expected, (UNITY_INTERNAL_PTR)actual, lineNumber, m
 846:D:/Work/DeviceTester/amazon-freertos/lib/third_party/unity/src\unity.c ****         UNITY_FAIL_AND_BAIL;
 847:D:/Work/DeviceTester/amazon-freertos/lib/third_party/unity/src\unity.c **** 
 848:D:/Work/DeviceTester/amazon-freertos/lib/third_party/unity/src\unity.c ****     while (elements--)
 849:D:/Work/DeviceTester/amazon-freertos/lib/third_party/unity/src\unity.c ****     {
 850:D:/Work/DeviceTester/amazon-freertos/lib/third_party/unity/src\unity.c ****         if (!UnityDoublesWithin(*ptr_expected * UNITY_DOUBLE_PRECISION, *ptr_expected, *ptr_actual)
 851:D:/Work/DeviceTester/amazon-freertos/lib/third_party/unity/src\unity.c ****         {
 852:D:/Work/DeviceTester/amazon-freertos/lib/third_party/unity/src\unity.c ****             UnityTestResultsFailBegin(lineNumber);
 853:D:/Work/DeviceTester/amazon-freertos/lib/third_party/unity/src\unity.c ****             UnityPrint(UnityStrElement);
 854:D:/Work/DeviceTester/amazon-freertos/lib/third_party/unity/src\unity.c ****             UnityPrintNumberUnsigned(num_elements - elements - 1);
 855:D:/Work/DeviceTester/amazon-freertos/lib/third_party/unity/src\unity.c ****             UNITY_PRINT_EXPECTED_AND_ACTUAL_FLOAT(*ptr_expected, *ptr_actual);
 856:D:/Work/DeviceTester/amazon-freertos/lib/third_party/unity/src\unity.c ****             UnityAddMsgIfSpecified(msg);
 857:D:/Work/DeviceTester/amazon-freertos/lib/third_party/unity/src\unity.c ****             UNITY_FAIL_AND_BAIL;
 858:D:/Work/DeviceTester/amazon-freertos/lib/third_party/unity/src\unity.c ****         }
 859:D:/Work/DeviceTester/amazon-freertos/lib/third_party/unity/src\unity.c ****         if (flags == UNITY_ARRAY_TO_ARRAY)
 860:D:/Work/DeviceTester/amazon-freertos/lib/third_party/unity/src\unity.c ****         {
 861:D:/Work/DeviceTester/amazon-freertos/lib/third_party/unity/src\unity.c ****             ptr_expected++;
 862:D:/Work/DeviceTester/amazon-freertos/lib/third_party/unity/src\unity.c ****         }
 863:D:/Work/DeviceTester/amazon-freertos/lib/third_party/unity/src\unity.c ****         ptr_actual++;
 864:D:/Work/DeviceTester/amazon-freertos/lib/third_party/unity/src\unity.c ****     }
 865:D:/Work/DeviceTester/amazon-freertos/lib/third_party/unity/src\unity.c **** }
 866:D:/Work/DeviceTester/amazon-freertos/lib/third_party/unity/src\unity.c **** 
 867:D:/Work/DeviceTester/amazon-freertos/lib/third_party/unity/src\unity.c **** /*-----------------------------------------------*/
 868:D:/Work/DeviceTester/amazon-freertos/lib/third_party/unity/src\unity.c **** void UnityAssertDoublesWithin(const UNITY_DOUBLE delta,
 869:D:/Work/DeviceTester/amazon-freertos/lib/third_party/unity/src\unity.c ****                               const UNITY_DOUBLE expected,
 870:D:/Work/DeviceTester/amazon-freertos/lib/third_party/unity/src\unity.c ****                               const UNITY_DOUBLE actual,
 871:D:/Work/DeviceTester/amazon-freertos/lib/third_party/unity/src\unity.c ****                               const char* msg,
 872:D:/Work/DeviceTester/amazon-freertos/lib/third_party/unity/src\unity.c ****                               const UNITY_LINE_TYPE lineNumber)
 873:D:/Work/DeviceTester/amazon-freertos/lib/third_party/unity/src\unity.c **** {
 874:D:/Work/DeviceTester/amazon-freertos/lib/third_party/unity/src\unity.c ****     RETURN_IF_FAIL_OR_IGNORE;
 875:D:/Work/DeviceTester/amazon-freertos/lib/third_party/unity/src\unity.c **** 
 876:D:/Work/DeviceTester/amazon-freertos/lib/third_party/unity/src\unity.c ****     if (!UnityDoublesWithin(delta, expected, actual))
 877:D:/Work/DeviceTester/amazon-freertos/lib/third_party/unity/src\unity.c ****     {
 878:D:/Work/DeviceTester/amazon-freertos/lib/third_party/unity/src\unity.c ****         UnityTestResultsFailBegin(lineNumber);
 879:D:/Work/DeviceTester/amazon-freertos/lib/third_party/unity/src\unity.c ****         UNITY_PRINT_EXPECTED_AND_ACTUAL_FLOAT(expected, actual);
 880:D:/Work/DeviceTester/amazon-freertos/lib/third_party/unity/src\unity.c ****         UnityAddMsgIfSpecified(msg);
 881:D:/Work/DeviceTester/amazon-freertos/lib/third_party/unity/src\unity.c ****         UNITY_FAIL_AND_BAIL;
 882:D:/Work/DeviceTester/amazon-freertos/lib/third_party/unity/src\unity.c ****     }
 883:D:/Work/DeviceTester/amazon-freertos/lib/third_party/unity/src\unity.c **** }
 884:D:/Work/DeviceTester/amazon-freertos/lib/third_party/unity/src\unity.c **** 
 885:D:/Work/DeviceTester/amazon-freertos/lib/third_party/unity/src\unity.c **** /*-----------------------------------------------*/
 886:D:/Work/DeviceTester/amazon-freertos/lib/third_party/unity/src\unity.c **** 
 887:D:/Work/DeviceTester/amazon-freertos/lib/third_party/unity/src\unity.c **** void UnityAssertDoubleSpecial(const UNITY_DOUBLE actual,
 888:D:/Work/DeviceTester/amazon-freertos/lib/third_party/unity/src\unity.c ****                               const char* msg,
 889:D:/Work/DeviceTester/amazon-freertos/lib/third_party/unity/src\unity.c ****                               const UNITY_LINE_TYPE lineNumber,
 890:D:/Work/DeviceTester/amazon-freertos/lib/third_party/unity/src\unity.c ****                               const UNITY_FLOAT_TRAIT_T style)
 891:D:/Work/DeviceTester/amazon-freertos/lib/third_party/unity/src\unity.c **** {
 892:D:/Work/DeviceTester/amazon-freertos/lib/third_party/unity/src\unity.c ****     const char* trait_names[] = {UnityStrInf, UnityStrNegInf, UnityStrNaN, UnityStrDet};
 893:D:/Work/DeviceTester/amazon-freertos/lib/third_party/unity/src\unity.c ****     UNITY_INT should_be_trait = ((UNITY_INT)style & 1);
 894:D:/Work/DeviceTester/amazon-freertos/lib/third_party/unity/src\unity.c ****     UNITY_INT is_trait        = !should_be_trait;
 895:D:/Work/DeviceTester/amazon-freertos/lib/third_party/unity/src\unity.c ****     UNITY_INT trait_index     = (UNITY_INT)(style >> 1);
 896:D:/Work/DeviceTester/amazon-freertos/lib/third_party/unity/src\unity.c **** 
 897:D:/Work/DeviceTester/amazon-freertos/lib/third_party/unity/src\unity.c ****     RETURN_IF_FAIL_OR_IGNORE;
 898:D:/Work/DeviceTester/amazon-freertos/lib/third_party/unity/src\unity.c **** 
 899:D:/Work/DeviceTester/amazon-freertos/lib/third_party/unity/src\unity.c ****     switch (style)
 900:D:/Work/DeviceTester/amazon-freertos/lib/third_party/unity/src\unity.c ****     {
 901:D:/Work/DeviceTester/amazon-freertos/lib/third_party/unity/src\unity.c ****         case UNITY_FLOAT_IS_INF:
 902:D:/Work/DeviceTester/amazon-freertos/lib/third_party/unity/src\unity.c ****         case UNITY_FLOAT_IS_NOT_INF:
 903:D:/Work/DeviceTester/amazon-freertos/lib/third_party/unity/src\unity.c ****             is_trait = isinf(actual) && (actual > 0);
 904:D:/Work/DeviceTester/amazon-freertos/lib/third_party/unity/src\unity.c ****             break;
 905:D:/Work/DeviceTester/amazon-freertos/lib/third_party/unity/src\unity.c ****         case UNITY_FLOAT_IS_NEG_INF:
 906:D:/Work/DeviceTester/amazon-freertos/lib/third_party/unity/src\unity.c ****         case UNITY_FLOAT_IS_NOT_NEG_INF:
 907:D:/Work/DeviceTester/amazon-freertos/lib/third_party/unity/src\unity.c ****             is_trait = isinf(actual) && (actual < 0);
 908:D:/Work/DeviceTester/amazon-freertos/lib/third_party/unity/src\unity.c ****             break;
 909:D:/Work/DeviceTester/amazon-freertos/lib/third_party/unity/src\unity.c **** 
 910:D:/Work/DeviceTester/amazon-freertos/lib/third_party/unity/src\unity.c ****         case UNITY_FLOAT_IS_NAN:
 911:D:/Work/DeviceTester/amazon-freertos/lib/third_party/unity/src\unity.c ****         case UNITY_FLOAT_IS_NOT_NAN:
 912:D:/Work/DeviceTester/amazon-freertos/lib/third_party/unity/src\unity.c ****             is_trait = isnan(actual) ? 1 : 0;
 913:D:/Work/DeviceTester/amazon-freertos/lib/third_party/unity/src\unity.c ****             break;
 914:D:/Work/DeviceTester/amazon-freertos/lib/third_party/unity/src\unity.c **** 
 915:D:/Work/DeviceTester/amazon-freertos/lib/third_party/unity/src\unity.c ****         case UNITY_FLOAT_IS_DET: /* A determinate number is non infinite and not NaN. */
 916:D:/Work/DeviceTester/amazon-freertos/lib/third_party/unity/src\unity.c ****         case UNITY_FLOAT_IS_NOT_DET:
 917:D:/Work/DeviceTester/amazon-freertos/lib/third_party/unity/src\unity.c ****             is_trait = !isinf(actual) && !isnan(actual);
 918:D:/Work/DeviceTester/amazon-freertos/lib/third_party/unity/src\unity.c ****             break;
 919:D:/Work/DeviceTester/amazon-freertos/lib/third_party/unity/src\unity.c **** 
 920:D:/Work/DeviceTester/amazon-freertos/lib/third_party/unity/src\unity.c ****         default:
 921:D:/Work/DeviceTester/amazon-freertos/lib/third_party/unity/src\unity.c ****             trait_index = 0;
 922:D:/Work/DeviceTester/amazon-freertos/lib/third_party/unity/src\unity.c ****             trait_names[0] = UnityStrInvalidFloatTrait;
 923:D:/Work/DeviceTester/amazon-freertos/lib/third_party/unity/src\unity.c ****             break;
 924:D:/Work/DeviceTester/amazon-freertos/lib/third_party/unity/src\unity.c ****     }
 925:D:/Work/DeviceTester/amazon-freertos/lib/third_party/unity/src\unity.c **** 
 926:D:/Work/DeviceTester/amazon-freertos/lib/third_party/unity/src\unity.c ****     if (is_trait != should_be_trait)
 927:D:/Work/DeviceTester/amazon-freertos/lib/third_party/unity/src\unity.c ****     {
 928:D:/Work/DeviceTester/amazon-freertos/lib/third_party/unity/src\unity.c ****         UnityTestResultsFailBegin(lineNumber);
 929:D:/Work/DeviceTester/amazon-freertos/lib/third_party/unity/src\unity.c ****         UnityPrint(UnityStrExpected);
 930:D:/Work/DeviceTester/amazon-freertos/lib/third_party/unity/src\unity.c ****         if (!should_be_trait)
 931:D:/Work/DeviceTester/amazon-freertos/lib/third_party/unity/src\unity.c ****             UnityPrint(UnityStrNot);
 932:D:/Work/DeviceTester/amazon-freertos/lib/third_party/unity/src\unity.c ****         UnityPrint(trait_names[trait_index]);
 933:D:/Work/DeviceTester/amazon-freertos/lib/third_party/unity/src\unity.c ****         UnityPrint(UnityStrWas);
 934:D:/Work/DeviceTester/amazon-freertos/lib/third_party/unity/src\unity.c **** #ifndef UNITY_EXCLUDE_FLOAT_PRINT
 935:D:/Work/DeviceTester/amazon-freertos/lib/third_party/unity/src\unity.c ****         UnityPrintFloat(actual);
 936:D:/Work/DeviceTester/amazon-freertos/lib/third_party/unity/src\unity.c **** #else
 937:D:/Work/DeviceTester/amazon-freertos/lib/third_party/unity/src\unity.c ****         if (should_be_trait)
 938:D:/Work/DeviceTester/amazon-freertos/lib/third_party/unity/src\unity.c ****             UnityPrint(UnityStrNot);
 939:D:/Work/DeviceTester/amazon-freertos/lib/third_party/unity/src\unity.c ****         UnityPrint(trait_names[trait_index]);
 940:D:/Work/DeviceTester/amazon-freertos/lib/third_party/unity/src\unity.c **** #endif
 941:D:/Work/DeviceTester/amazon-freertos/lib/third_party/unity/src\unity.c ****         UnityAddMsgIfSpecified(msg);
 942:D:/Work/DeviceTester/amazon-freertos/lib/third_party/unity/src\unity.c ****         UNITY_FAIL_AND_BAIL;
 943:D:/Work/DeviceTester/amazon-freertos/lib/third_party/unity/src\unity.c ****     }
 944:D:/Work/DeviceTester/amazon-freertos/lib/third_party/unity/src\unity.c **** }
 945:D:/Work/DeviceTester/amazon-freertos/lib/third_party/unity/src\unity.c **** 
 946:D:/Work/DeviceTester/amazon-freertos/lib/third_party/unity/src\unity.c **** #endif /* not UNITY_EXCLUDE_DOUBLE */
 947:D:/Work/DeviceTester/amazon-freertos/lib/third_party/unity/src\unity.c **** 
 948:D:/Work/DeviceTester/amazon-freertos/lib/third_party/unity/src\unity.c **** /*-----------------------------------------------*/
 949:D:/Work/DeviceTester/amazon-freertos/lib/third_party/unity/src\unity.c **** void UnityAssertNumbersWithin(const UNITY_UINT delta,
 950:D:/Work/DeviceTester/amazon-freertos/lib/third_party/unity/src\unity.c ****                               const UNITY_INT expected,
 951:D:/Work/DeviceTester/amazon-freertos/lib/third_party/unity/src\unity.c ****                               const UNITY_INT actual,
 952:D:/Work/DeviceTester/amazon-freertos/lib/third_party/unity/src\unity.c ****                               const char* msg,
 953:D:/Work/DeviceTester/amazon-freertos/lib/third_party/unity/src\unity.c ****                               const UNITY_LINE_TYPE lineNumber,
 954:D:/Work/DeviceTester/amazon-freertos/lib/third_party/unity/src\unity.c ****                               const UNITY_DISPLAY_STYLE_T style)
 955:D:/Work/DeviceTester/amazon-freertos/lib/third_party/unity/src\unity.c **** {
 2461              		.loc 1 955 0
 2462              		.cfi_startproc
 2463              		@ args = 8, pretend = 0, frame = 0
 2464              		@ frame_needed = 0, uses_anonymous_args = 0
 2465              	.LVL297:
 2466 0000 F0472DE9 		push	{r4, r5, r6, r7, r8, r9, r10, lr}
 2467              		.cfi_def_cfa_offset 32
 2468              		.cfi_offset 4, -32
 2469              		.cfi_offset 5, -28
 2470              		.cfi_offset 6, -24
 2471              		.cfi_offset 7, -20
 2472              		.cfi_offset 8, -16
 2473              		.cfi_offset 9, -12
 2474              		.cfi_offset 10, -8
 2475              		.cfi_offset 14, -4
 956:D:/Work/DeviceTester/amazon-freertos/lib/third_party/unity/src\unity.c ****     RETURN_IF_FAIL_OR_IGNORE;
 2476              		.loc 1 956 0
 2477 0004 D0409FE5 		ldr	r4, .L269
 955:D:/Work/DeviceTester/amazon-freertos/lib/third_party/unity/src\unity.c ****     RETURN_IF_FAIL_OR_IGNORE;
 2478              		.loc 1 955 0
 2479 0008 2480DDE5 		ldrb	r8, [sp, #36]	@ zero_extendqisi2
 2480              		.loc 1 956 0
 2481 000c 20C094E5 		ldr	ip, [r4, #32]
 2482 0010 00005CE3 		cmp	ip, #0
 2483 0014 F087BD18 		popne	{r4, r5, r6, r7, r8, r9, r10, pc}
 2484              		.loc 1 956 0 is_stmt 0 discriminator 1
 2485 0018 24C094E5 		ldr	ip, [r4, #36]
 2486 001c 00005CE3 		cmp	ip, #0
 2487 0020 F087BD18 		popne	{r4, r5, r6, r7, r8, r9, r10, pc}
 957:D:/Work/DeviceTester/amazon-freertos/lib/third_party/unity/src\unity.c **** 
 958:D:/Work/DeviceTester/amazon-freertos/lib/third_party/unity/src\unity.c ****     if ((style & UNITY_DISPLAY_RANGE_INT) == UNITY_DISPLAY_RANGE_INT)
 2488              		.loc 1 958 0 is_stmt 1
 2489 0024 100018E3 		tst	r8, #16
 2490 0028 2400000A 		beq	.L260
 959:D:/Work/DeviceTester/amazon-freertos/lib/third_party/unity/src\unity.c ****     {
 960:D:/Work/DeviceTester/amazon-freertos/lib/third_party/unity/src\unity.c ****         if (actual > expected)
 2491              		.loc 1 960 0
 2492 002c 010052E1 		cmp	r2, r1
 2493 0030 240000DA 		ble	.L261
 2494              	.L263:
 961:D:/Work/DeviceTester/amazon-freertos/lib/third_party/unity/src\unity.c ****           Unity.CurrentTestFailed = (UNITY_UINT)((UNITY_UINT)(actual - expected) > delta);
 2495              		.loc 1 961 0
 2496 0034 01C042E0 		sub	ip, r2, r1
 2497 0038 0C0050E1 		cmp	r0, ip
 2498 003c 00C0A023 		movcs	ip, #0
 2499 0040 01C0A033 		movcc	ip, #1
 2500              	.L268:
 962:D:/Work/DeviceTester/amazon-freertos/lib/third_party/unity/src\unity.c ****         else
 963:D:/Work/DeviceTester/amazon-freertos/lib/third_party/unity/src\unity.c ****             Unity.CurrentTestFailed = (UNITY_UINT)((UNITY_UINT)(expected - actual) > delta);
 2501              		.loc 1 963 0
 2502 0044 20C084E5 		str	ip, [r4, #32]
 964:D:/Work/DeviceTester/amazon-freertos/lib/third_party/unity/src\unity.c ****     }
 965:D:/Work/DeviceTester/amazon-freertos/lib/third_party/unity/src\unity.c ****     else
 966:D:/Work/DeviceTester/amazon-freertos/lib/third_party/unity/src\unity.c ****     {
 967:D:/Work/DeviceTester/amazon-freertos/lib/third_party/unity/src\unity.c ****         if ((UNITY_UINT)actual > (UNITY_UINT)expected)
 968:D:/Work/DeviceTester/amazon-freertos/lib/third_party/unity/src\unity.c ****             Unity.CurrentTestFailed = (UNITY_UINT)((UNITY_UINT)(actual - expected) > delta);
 969:D:/Work/DeviceTester/amazon-freertos/lib/third_party/unity/src\unity.c ****         else
 970:D:/Work/DeviceTester/amazon-freertos/lib/third_party/unity/src\unity.c ****             Unity.CurrentTestFailed = (UNITY_UINT)((UNITY_UINT)(expected - actual) > delta);
 971:D:/Work/DeviceTester/amazon-freertos/lib/third_party/unity/src\unity.c ****     }
 972:D:/Work/DeviceTester/amazon-freertos/lib/third_party/unity/src\unity.c **** 
 973:D:/Work/DeviceTester/amazon-freertos/lib/third_party/unity/src\unity.c ****     if (Unity.CurrentTestFailed)
 2503              		.loc 1 973 0
 2504 0048 20C094E5 		ldr	ip, [r4, #32]
 2505 004c 00005CE3 		cmp	ip, #0
 2506 0050 F087BD08 		popeq	{r4, r5, r6, r7, r8, r9, r10, pc}
 2507 0054 0070A0E1 		mov	r7, r0
 974:D:/Work/DeviceTester/amazon-freertos/lib/third_party/unity/src\unity.c ****     {
 975:D:/Work/DeviceTester/amazon-freertos/lib/third_party/unity/src\unity.c ****         UnityTestResultsFailBegin(lineNumber);
 2508              		.loc 1 975 0
 2509 0058 20009DE5 		ldr	r0, [sp, #32]
 2510              	.LVL298:
 2511 005c 0390A0E1 		mov	r9, r3
 2512 0060 0250A0E1 		mov	r5, r2
 2513 0064 0160A0E1 		mov	r6, r1
 2514 0068 FEFFFFEB 		bl	UnityTestResultsFailBegin
 2515              	.LVL299:
 976:D:/Work/DeviceTester/amazon-freertos/lib/third_party/unity/src\unity.c ****         UnityPrint(UnityStrDelta);
 2516              		.loc 1 976 0
 2517 006c 6C009FE5 		ldr	r0, .L269+4
 2518 0070 FEFFFFEB 		bl	UnityPrint
 2519              	.LVL300:
 977:D:/Work/DeviceTester/amazon-freertos/lib/third_party/unity/src\unity.c ****         UnityPrintNumberByStyle((UNITY_INT)delta, style);
 2520              		.loc 1 977 0
 2521 0074 0810A0E1 		mov	r1, r8
 2522 0078 0700A0E1 		mov	r0, r7
 2523 007c FEFFFFEB 		bl	UnityPrintNumberByStyle
 2524              	.LVL301:
 978:D:/Work/DeviceTester/amazon-freertos/lib/third_party/unity/src\unity.c ****         UnityPrint(UnityStrExpected);
 2525              		.loc 1 978 0
 2526 0080 5C009FE5 		ldr	r0, .L269+8
 2527 0084 FEFFFFEB 		bl	UnityPrint
 2528              	.LVL302:
 979:D:/Work/DeviceTester/amazon-freertos/lib/third_party/unity/src\unity.c ****         UnityPrintNumberByStyle(expected, style);
 2529              		.loc 1 979 0
 2530 0088 0810A0E1 		mov	r1, r8
 2531 008c 0600A0E1 		mov	r0, r6
 2532 0090 FEFFFFEB 		bl	UnityPrintNumberByStyle
 2533              	.LVL303:
 980:D:/Work/DeviceTester/amazon-freertos/lib/third_party/unity/src\unity.c ****         UnityPrint(UnityStrWas);
 2534              		.loc 1 980 0
 2535 0094 4C009FE5 		ldr	r0, .L269+12
 2536 0098 FEFFFFEB 		bl	UnityPrint
 2537              	.LVL304:
 981:D:/Work/DeviceTester/amazon-freertos/lib/third_party/unity/src\unity.c ****         UnityPrintNumberByStyle(actual, style);
 2538              		.loc 1 981 0
 2539 009c 0810A0E1 		mov	r1, r8
 2540 00a0 0500A0E1 		mov	r0, r5
 2541 00a4 FEFFFFEB 		bl	UnityPrintNumberByStyle
 2542              	.LVL305:
 982:D:/Work/DeviceTester/amazon-freertos/lib/third_party/unity/src\unity.c ****         UnityAddMsgIfSpecified(msg);
 2543              		.loc 1 982 0
 2544 00a8 0900A0E1 		mov	r0, r9
 2545 00ac FEFFFFEB 		bl	UnityAddMsgIfSpecified
 2546              	.LVL306:
 983:D:/Work/DeviceTester/amazon-freertos/lib/third_party/unity/src\unity.c ****         UNITY_FAIL_AND_BAIL;
 2547              		.loc 1 983 0
 2548 00b0 0110A0E3 		mov	r1, #1
 2549 00b4 30009FE5 		ldr	r0, .L269+16
 2550 00b8 201084E5 		str	r1, [r4, #32]
 2551 00bc FEFFFFEB 		bl	longjmp
 2552              	.LVL307:
 2553              	.L260:
 967:D:/Work/DeviceTester/amazon-freertos/lib/third_party/unity/src\unity.c ****             Unity.CurrentTestFailed = (UNITY_UINT)((UNITY_UINT)(actual - expected) > delta);
 2554              		.loc 1 967 0
 2555 00c0 010052E1 		cmp	r2, r1
 2556 00c4 DAFFFF8A 		bhi	.L263
 2557              	.L261:
 963:D:/Work/DeviceTester/amazon-freertos/lib/third_party/unity/src\unity.c ****     }
 2558              		.loc 1 963 0
 2559 00c8 02C041E0 		sub	ip, r1, r2
 2560 00cc 00005CE1 		cmp	ip, r0
 2561 00d0 00C0A093 		movls	ip, #0
 2562 00d4 01C0A083 		movhi	ip, #1
 2563 00d8 D9FFFFEA 		b	.L268
 2564              	.L270:
 2565              		.align	2
 2566              	.L269:
 2567 00dc 00000000 		.word	Unity
 2568 00e0 00000000 		.word	.LANCHOR17
 2569 00e4 00000000 		.word	.LANCHOR6
 2570 00e8 00000000 		.word	.LANCHOR8
 2571 00ec 28000000 		.word	Unity+40
 2572              		.cfi_endproc
 2573              	.LFE24:
 2575              		.section	.text.UnityAssertEqualString,"ax",%progbits
 2576              		.align	2
 2577              		.global	UnityAssertEqualString
 2578              		.syntax unified
 2579              		.arm
 2580              		.fpu neon
 2582              	UnityAssertEqualString:
 2583              	.LFB25:
 984:D:/Work/DeviceTester/amazon-freertos/lib/third_party/unity/src\unity.c ****     }
 985:D:/Work/DeviceTester/amazon-freertos/lib/third_party/unity/src\unity.c **** }
 986:D:/Work/DeviceTester/amazon-freertos/lib/third_party/unity/src\unity.c **** 
 987:D:/Work/DeviceTester/amazon-freertos/lib/third_party/unity/src\unity.c **** /*-----------------------------------------------*/
 988:D:/Work/DeviceTester/amazon-freertos/lib/third_party/unity/src\unity.c **** void UnityAssertEqualString(const char* expected,
 989:D:/Work/DeviceTester/amazon-freertos/lib/third_party/unity/src\unity.c ****                             const char* actual,
 990:D:/Work/DeviceTester/amazon-freertos/lib/third_party/unity/src\unity.c ****                             const char* msg,
 991:D:/Work/DeviceTester/amazon-freertos/lib/third_party/unity/src\unity.c ****                             const UNITY_LINE_TYPE lineNumber)
 992:D:/Work/DeviceTester/amazon-freertos/lib/third_party/unity/src\unity.c **** {
 2584              		.loc 1 992 0
 2585              		.cfi_startproc
 2586              		@ args = 0, pretend = 0, frame = 0
 2587              		@ frame_needed = 0, uses_anonymous_args = 0
 2588              	.LVL308:
 2589 0000 F0412DE9 		push	{r4, r5, r6, r7, r8, lr}
 2590              		.cfi_def_cfa_offset 24
 2591              		.cfi_offset 4, -24
 2592              		.cfi_offset 5, -20
 2593              		.cfi_offset 6, -16
 2594              		.cfi_offset 7, -12
 2595              		.cfi_offset 8, -8
 2596              		.cfi_offset 14, -4
 2597              		.loc 1 992 0
 2598 0004 00C0A0E1 		mov	ip, r0
 993:D:/Work/DeviceTester/amazon-freertos/lib/third_party/unity/src\unity.c ****     UNITY_UINT32 i;
 994:D:/Work/DeviceTester/amazon-freertos/lib/third_party/unity/src\unity.c **** 
 995:D:/Work/DeviceTester/amazon-freertos/lib/third_party/unity/src\unity.c ****     RETURN_IF_FAIL_OR_IGNORE;
 2599              		.loc 1 995 0
 2600 0008 A4409FE5 		ldr	r4, .L283
 2601 000c 200094E5 		ldr	r0, [r4, #32]
 2602              	.LVL309:
 2603 0010 000050E3 		cmp	r0, #0
 2604 0014 F081BD18 		popne	{r4, r5, r6, r7, r8, pc}
 2605              		.loc 1 995 0 is_stmt 0 discriminator 1
 2606 0018 240094E5 		ldr	r0, [r4, #36]
 2607 001c 000050E3 		cmp	r0, #0
 2608 0020 F081BD18 		popne	{r4, r5, r6, r7, r8, pc}
 996:D:/Work/DeviceTester/amazon-freertos/lib/third_party/unity/src\unity.c **** 
 997:D:/Work/DeviceTester/amazon-freertos/lib/third_party/unity/src\unity.c ****     /* if both pointers not null compare the strings */
 998:D:/Work/DeviceTester/amazon-freertos/lib/third_party/unity/src\unity.c ****     if (expected && actual)
 2609              		.loc 1 998 0 is_stmt 1
 2610 0024 00005CE3 		cmp	ip, #0
 2611 0028 00005113 		cmpne	r1, #0
 2612 002c 01E04C12 		subne	lr, ip, #1
 2613 0030 0100A011 		movne	r0, r1
 2614 0034 0200001A 		bne	.L274
 999:D:/Work/DeviceTester/amazon-freertos/lib/third_party/unity/src\unity.c ****     {
1000:D:/Work/DeviceTester/amazon-freertos/lib/third_party/unity/src\unity.c ****         for (i = 0; expected[i] || actual[i]; i++)
1001:D:/Work/DeviceTester/amazon-freertos/lib/third_party/unity/src\unity.c ****         {
1002:D:/Work/DeviceTester/amazon-freertos/lib/third_party/unity/src\unity.c ****             if (expected[i] != actual[i])
1003:D:/Work/DeviceTester/amazon-freertos/lib/third_party/unity/src\unity.c ****             {
1004:D:/Work/DeviceTester/amazon-freertos/lib/third_party/unity/src\unity.c ****                 Unity.CurrentTestFailed = 1;
1005:D:/Work/DeviceTester/amazon-freertos/lib/third_party/unity/src\unity.c ****                 break;
1006:D:/Work/DeviceTester/amazon-freertos/lib/third_party/unity/src\unity.c ****             }
1007:D:/Work/DeviceTester/amazon-freertos/lib/third_party/unity/src\unity.c ****         }
1008:D:/Work/DeviceTester/amazon-freertos/lib/third_party/unity/src\unity.c ****     }
1009:D:/Work/DeviceTester/amazon-freertos/lib/third_party/unity/src\unity.c ****     else
1010:D:/Work/DeviceTester/amazon-freertos/lib/third_party/unity/src\unity.c ****     { /* handle case of one pointers being null (if both null, test should pass) */
1011:D:/Work/DeviceTester/amazon-freertos/lib/third_party/unity/src\unity.c ****         if (expected != actual)
 2615              		.loc 1 1011 0
 2616 0038 01005CE1 		cmp	ip, r1
 2617 003c 0900001A 		bne	.L277
 2618 0040 0A0000EA 		b	.L275
 2619              	.L274:
1000:D:/Work/DeviceTester/amazon-freertos/lib/third_party/unity/src\unity.c ****         {
 2620              		.loc 1 1000 0 discriminator 1
 2621 0044 0150FEE5 		ldrb	r5, [lr, #1]!	@ zero_extendqisi2
 2622 0048 000055E3 		cmp	r5, #0
 2623 004c 0200001A 		bne	.L276
1000:D:/Work/DeviceTester/amazon-freertos/lib/third_party/unity/src\unity.c ****         {
 2624              		.loc 1 1000 0 is_stmt 0 discriminator 3
 2625 0050 0060D0E5 		ldrb	r6, [r0]	@ zero_extendqisi2
 2626 0054 000056E3 		cmp	r6, #0
 2627 0058 0400000A 		beq	.L275
 2628              	.L276:
1002:D:/Work/DeviceTester/amazon-freertos/lib/third_party/unity/src\unity.c ****             {
 2629              		.loc 1 1002 0 is_stmt 1
 2630 005c 0160D0E4 		ldrb	r6, [r0], #1	@ zero_extendqisi2
 2631 0060 050056E1 		cmp	r6, r5
 2632 0064 F6FFFF0A 		beq	.L274
 2633              	.L277:
1004:D:/Work/DeviceTester/amazon-freertos/lib/third_party/unity/src\unity.c ****                 break;
 2634              		.loc 1 1004 0
 2635 0068 0100A0E3 		mov	r0, #1
 2636 006c 200084E5 		str	r0, [r4, #32]
 2637              	.L275:
1012:D:/Work/DeviceTester/amazon-freertos/lib/third_party/unity/src\unity.c ****         {
1013:D:/Work/DeviceTester/amazon-freertos/lib/third_party/unity/src\unity.c ****             Unity.CurrentTestFailed = 1;
1014:D:/Work/DeviceTester/amazon-freertos/lib/third_party/unity/src\unity.c ****         }
1015:D:/Work/DeviceTester/amazon-freertos/lib/third_party/unity/src\unity.c ****     }
1016:D:/Work/DeviceTester/amazon-freertos/lib/third_party/unity/src\unity.c **** 
1017:D:/Work/DeviceTester/amazon-freertos/lib/third_party/unity/src\unity.c ****     if (Unity.CurrentTestFailed)
 2638              		.loc 1 1017 0
 2639 0070 200094E5 		ldr	r0, [r4, #32]
 2640 0074 000050E3 		cmp	r0, #0
 2641 0078 F081BD08 		popeq	{r4, r5, r6, r7, r8, pc}
 2642 007c 0300A0E1 		mov	r0, r3
 2643 0080 0C50A0E1 		mov	r5, ip
 2644 0084 0160A0E1 		mov	r6, r1
 2645 0088 0270A0E1 		mov	r7, r2
1018:D:/Work/DeviceTester/amazon-freertos/lib/third_party/unity/src\unity.c ****     {
1019:D:/Work/DeviceTester/amazon-freertos/lib/third_party/unity/src\unity.c ****         UnityTestResultsFailBegin(lineNumber);
 2646              		.loc 1 1019 0
 2647 008c FEFFFFEB 		bl	UnityTestResultsFailBegin
 2648              	.LVL310:
1020:D:/Work/DeviceTester/amazon-freertos/lib/third_party/unity/src\unity.c ****         UnityPrintExpectedAndActualStrings(expected, actual);
 2649              		.loc 1 1020 0
 2650 0090 0610A0E1 		mov	r1, r6
 2651 0094 0500A0E1 		mov	r0, r5
 2652 0098 FEFFFFEB 		bl	UnityPrintExpectedAndActualStrings
 2653              	.LVL311:
1021:D:/Work/DeviceTester/amazon-freertos/lib/third_party/unity/src\unity.c ****         UnityAddMsgIfSpecified(msg);
 2654              		.loc 1 1021 0
 2655 009c 0700A0E1 		mov	r0, r7
 2656 00a0 FEFFFFEB 		bl	UnityAddMsgIfSpecified
 2657              	.LVL312:
1022:D:/Work/DeviceTester/amazon-freertos/lib/third_party/unity/src\unity.c ****         UNITY_FAIL_AND_BAIL;
 2658              		.loc 1 1022 0
 2659 00a4 0110A0E3 		mov	r1, #1
 2660 00a8 08009FE5 		ldr	r0, .L283+4
 2661 00ac 201084E5 		str	r1, [r4, #32]
 2662 00b0 FEFFFFEB 		bl	longjmp
 2663              	.LVL313:
 2664              	.L284:
 2665              		.align	2
 2666              	.L283:
 2667 00b4 00000000 		.word	Unity
 2668 00b8 28000000 		.word	Unity+40
 2669              		.cfi_endproc
 2670              	.LFE25:
 2672              		.section	.text.UnityAssertEqualStringLen,"ax",%progbits
 2673              		.align	2
 2674              		.global	UnityAssertEqualStringLen
 2675              		.syntax unified
 2676              		.arm
 2677              		.fpu neon
 2679              	UnityAssertEqualStringLen:
 2680              	.LFB26:
1023:D:/Work/DeviceTester/amazon-freertos/lib/third_party/unity/src\unity.c ****     }
1024:D:/Work/DeviceTester/amazon-freertos/lib/third_party/unity/src\unity.c **** }
1025:D:/Work/DeviceTester/amazon-freertos/lib/third_party/unity/src\unity.c **** 
