   1              		.cpu cortex-a9
   2              		.eabi_attribute 28, 1
   3              		.eabi_attribute 20, 1
   4              		.eabi_attribute 21, 1
   5              		.eabi_attribute 23, 3
   6              		.eabi_attribute 24, 1
   7              		.eabi_attribute 25, 1
   8              		.eabi_attribute 26, 1
   9              		.eabi_attribute 30, 4
  10              		.eabi_attribute 34, 0
  11              		.eabi_attribute 18, 4
  12              		.file	"aws_pkcs11_pal.c"
  13              		.text
  14              	.Ltext0:
  15              		.cfi_sections	.debug_frame
  16              		.section	.text.write_octaflash_data.constprop.3,"ax",%progbits
  17              		.align	2
  18              		.syntax unified
  19              		.arm
  20              		.fpu neon
  22              	write_octaflash_data.constprop.3:
  23              	.LFB15:
  24              		.file 1 "D:/Work/DeviceTester/amazon-freertos/lib/pkcs11/portable/renesas/rza2m-gr-mango/aws_pkcs1
   1:D:/Work/DeviceTester/amazon-freertos/lib/pkcs11/portable/renesas/rza2m-gr-mango\aws_pkcs11_pal.c **** /*
   2:D:/Work/DeviceTester/amazon-freertos/lib/pkcs11/portable/renesas/rza2m-gr-mango\aws_pkcs11_pal.c ****  * Amazon FreeRTOS PKCS #11 PAL for RZ/A2M rtk
   3:D:/Work/DeviceTester/amazon-freertos/lib/pkcs11/portable/renesas/rza2m-gr-mango\aws_pkcs11_pal.c ****  * Copyright (C) 2018 Amazon.com, Inc. or its affiliates.  All Rights Reserved.
   4:D:/Work/DeviceTester/amazon-freertos/lib/pkcs11/portable/renesas/rza2m-gr-mango\aws_pkcs11_pal.c ****  *
   5:D:/Work/DeviceTester/amazon-freertos/lib/pkcs11/portable/renesas/rza2m-gr-mango\aws_pkcs11_pal.c ****  * Permission is hereby granted, free of charge, to any person obtaining a copy of
   6:D:/Work/DeviceTester/amazon-freertos/lib/pkcs11/portable/renesas/rza2m-gr-mango\aws_pkcs11_pal.c ****  * this software and associated documentation files (the "Software"), to deal in
   7:D:/Work/DeviceTester/amazon-freertos/lib/pkcs11/portable/renesas/rza2m-gr-mango\aws_pkcs11_pal.c ****  * the Software without restriction, including without limitation the rights to
   8:D:/Work/DeviceTester/amazon-freertos/lib/pkcs11/portable/renesas/rza2m-gr-mango\aws_pkcs11_pal.c ****  * use, copy, modify, merge, publish, distribute, sublicense, and/or sell copies of
   9:D:/Work/DeviceTester/amazon-freertos/lib/pkcs11/portable/renesas/rza2m-gr-mango\aws_pkcs11_pal.c ****  * the Software, and to permit persons to whom the Software is furnished to do so,
  10:D:/Work/DeviceTester/amazon-freertos/lib/pkcs11/portable/renesas/rza2m-gr-mango\aws_pkcs11_pal.c ****  * subject to the following conditions:
  11:D:/Work/DeviceTester/amazon-freertos/lib/pkcs11/portable/renesas/rza2m-gr-mango\aws_pkcs11_pal.c ****  *
  12:D:/Work/DeviceTester/amazon-freertos/lib/pkcs11/portable/renesas/rza2m-gr-mango\aws_pkcs11_pal.c ****  * The above copyright notice and this permission notice shall be included in all
  13:D:/Work/DeviceTester/amazon-freertos/lib/pkcs11/portable/renesas/rza2m-gr-mango\aws_pkcs11_pal.c ****  * copies or substantial portions of the Software.
  14:D:/Work/DeviceTester/amazon-freertos/lib/pkcs11/portable/renesas/rza2m-gr-mango\aws_pkcs11_pal.c ****  *
  15:D:/Work/DeviceTester/amazon-freertos/lib/pkcs11/portable/renesas/rza2m-gr-mango\aws_pkcs11_pal.c ****  * THE SOFTWARE IS PROVIDED "AS IS", WITHOUT WARRANTY OF ANY KIND, EXPRESS OR
  16:D:/Work/DeviceTester/amazon-freertos/lib/pkcs11/portable/renesas/rza2m-gr-mango\aws_pkcs11_pal.c ****  * IMPLIED, INCLUDING BUT NOT LIMITED TO THE WARRANTIES OF MERCHANTABILITY, FITNESS
  17:D:/Work/DeviceTester/amazon-freertos/lib/pkcs11/portable/renesas/rza2m-gr-mango\aws_pkcs11_pal.c ****  * FOR A PARTICULAR PURPOSE AND NONINFRINGEMENT. IN NO EVENT SHALL THE AUTHORS OR
  18:D:/Work/DeviceTester/amazon-freertos/lib/pkcs11/portable/renesas/rza2m-gr-mango\aws_pkcs11_pal.c ****  * COPYRIGHT HOLDERS BE LIABLE FOR ANY CLAIM, DAMAGES OR OTHER LIABILITY, WHETHER
  19:D:/Work/DeviceTester/amazon-freertos/lib/pkcs11/portable/renesas/rza2m-gr-mango\aws_pkcs11_pal.c ****  * IN AN ACTION OF CONTRACT, TORT OR OTHERWISE, ARISING FROM, OUT OF OR IN
  20:D:/Work/DeviceTester/amazon-freertos/lib/pkcs11/portable/renesas/rza2m-gr-mango\aws_pkcs11_pal.c ****  * CONNECTION WITH THE SOFTWARE OR THE USE OR OTHER DEALINGS IN THE SOFTWARE.
  21:D:/Work/DeviceTester/amazon-freertos/lib/pkcs11/portable/renesas/rza2m-gr-mango\aws_pkcs11_pal.c ****  *
  22:D:/Work/DeviceTester/amazon-freertos/lib/pkcs11/portable/renesas/rza2m-gr-mango\aws_pkcs11_pal.c ****  * http://aws.amazon.com/freertos
  23:D:/Work/DeviceTester/amazon-freertos/lib/pkcs11/portable/renesas/rza2m-gr-mango\aws_pkcs11_pal.c ****  * http://www.FreeRTOS.org
  24:D:/Work/DeviceTester/amazon-freertos/lib/pkcs11/portable/renesas/rza2m-gr-mango\aws_pkcs11_pal.c ****  */
  25:D:/Work/DeviceTester/amazon-freertos/lib/pkcs11/portable/renesas/rza2m-gr-mango\aws_pkcs11_pal.c **** 
  26:D:/Work/DeviceTester/amazon-freertos/lib/pkcs11/portable/renesas/rza2m-gr-mango\aws_pkcs11_pal.c **** /**************************************************************************************************
  27:D:/Work/DeviceTester/amazon-freertos/lib/pkcs11/portable/renesas/rza2m-gr-mango\aws_pkcs11_pal.c **** * DISCLAIMER
  28:D:/Work/DeviceTester/amazon-freertos/lib/pkcs11/portable/renesas/rza2m-gr-mango\aws_pkcs11_pal.c **** * This software is supplied by Renesas Electronics Corporation and is only intended for use with Re
  29:D:/Work/DeviceTester/amazon-freertos/lib/pkcs11/portable/renesas/rza2m-gr-mango\aws_pkcs11_pal.c **** * other uses are authorized. This software is owned by Renesas Electronics Corporation and is prote
  30:D:/Work/DeviceTester/amazon-freertos/lib/pkcs11/portable/renesas/rza2m-gr-mango\aws_pkcs11_pal.c **** * applicable laws, including copyright laws.
  31:D:/Work/DeviceTester/amazon-freertos/lib/pkcs11/portable/renesas/rza2m-gr-mango\aws_pkcs11_pal.c **** * THIS SOFTWARE IS PROVIDED "AS IS" AND RENESAS MAKES NO WARRANTIES REGARDING
  32:D:/Work/DeviceTester/amazon-freertos/lib/pkcs11/portable/renesas/rza2m-gr-mango\aws_pkcs11_pal.c **** * THIS SOFTWARE, WHETHER EXPRESS, IMPLIED OR STATUTORY, INCLUDING BUT NOT LIMITED TO WARRANTIES OF 
  33:D:/Work/DeviceTester/amazon-freertos/lib/pkcs11/portable/renesas/rza2m-gr-mango\aws_pkcs11_pal.c **** * FITNESS FOR A PARTICULAR PURPOSE AND NON-INFRINGEMENT. ALL SUCH WARRANTIES ARE EXPRESSLY DISCLAIM
  34:D:/Work/DeviceTester/amazon-freertos/lib/pkcs11/portable/renesas/rza2m-gr-mango\aws_pkcs11_pal.c **** * EXTENT PERMITTED NOT PROHIBITED BY LAW, NEITHER RENESAS ELECTRONICS CORPORATION NOR ANY OF ITS AF
  35:D:/Work/DeviceTester/amazon-freertos/lib/pkcs11/portable/renesas/rza2m-gr-mango\aws_pkcs11_pal.c **** * SHALL BE LIABLE FOR ANY DIRECT, INDIRECT, SPECIAL, INCIDENTAL OR CONSEQUENTIAL DAMAGES FOR ANY RE
  36:D:/Work/DeviceTester/amazon-freertos/lib/pkcs11/portable/renesas/rza2m-gr-mango\aws_pkcs11_pal.c **** * SOFTWARE, EVEN IF RENESAS OR ITS AFFILIATES HAVE BEEN ADVISED OF THE POSSIBILITY OF SUCH DAMAGES.
  37:D:/Work/DeviceTester/amazon-freertos/lib/pkcs11/portable/renesas/rza2m-gr-mango\aws_pkcs11_pal.c **** * Renesas reserves the right, without notice, to make changes to this software and to discontinue t
  38:D:/Work/DeviceTester/amazon-freertos/lib/pkcs11/portable/renesas/rza2m-gr-mango\aws_pkcs11_pal.c **** * this software. By using this software, you agree to the additional terms and conditions found by 
  39:D:/Work/DeviceTester/amazon-freertos/lib/pkcs11/portable/renesas/rza2m-gr-mango\aws_pkcs11_pal.c **** * following link:
  40:D:/Work/DeviceTester/amazon-freertos/lib/pkcs11/portable/renesas/rza2m-gr-mango\aws_pkcs11_pal.c **** * http://www.renesas.com/disclaimer
  41:D:/Work/DeviceTester/amazon-freertos/lib/pkcs11/portable/renesas/rza2m-gr-mango\aws_pkcs11_pal.c **** *
  42:D:/Work/DeviceTester/amazon-freertos/lib/pkcs11/portable/renesas/rza2m-gr-mango\aws_pkcs11_pal.c **** * Copyright (C) 2018 Renesas Electronics Corporation. All rights reserved.
  43:D:/Work/DeviceTester/amazon-freertos/lib/pkcs11/portable/renesas/rza2m-gr-mango\aws_pkcs11_pal.c **** ***************************************************************************************************
  44:D:/Work/DeviceTester/amazon-freertos/lib/pkcs11/portable/renesas/rza2m-gr-mango\aws_pkcs11_pal.c **** 
  45:D:/Work/DeviceTester/amazon-freertos/lib/pkcs11/portable/renesas/rza2m-gr-mango\aws_pkcs11_pal.c **** /**
  46:D:/Work/DeviceTester/amazon-freertos/lib/pkcs11/portable/renesas/rza2m-gr-mango\aws_pkcs11_pal.c ****  * @file aws_pkcs11_pal.c
  47:D:/Work/DeviceTester/amazon-freertos/lib/pkcs11/portable/renesas/rza2m-gr-mango\aws_pkcs11_pal.c ****  * @brief Device specific helpers for PKCS11 Interface.
  48:D:/Work/DeviceTester/amazon-freertos/lib/pkcs11/portable/renesas/rza2m-gr-mango\aws_pkcs11_pal.c ****  */
  49:D:/Work/DeviceTester/amazon-freertos/lib/pkcs11/portable/renesas/rza2m-gr-mango\aws_pkcs11_pal.c **** 
  50:D:/Work/DeviceTester/amazon-freertos/lib/pkcs11/portable/renesas/rza2m-gr-mango\aws_pkcs11_pal.c **** /* Amazon FreeRTOS Includes. */
  51:D:/Work/DeviceTester/amazon-freertos/lib/pkcs11/portable/renesas/rza2m-gr-mango\aws_pkcs11_pal.c **** #include "aws_pkcs11.h"
  52:D:/Work/DeviceTester/amazon-freertos/lib/pkcs11/portable/renesas/rza2m-gr-mango\aws_pkcs11_pal.c **** #include "FreeRTOS.h"
  53:D:/Work/DeviceTester/amazon-freertos/lib/pkcs11/portable/renesas/rza2m-gr-mango\aws_pkcs11_pal.c **** #include "task.h"
  54:D:/Work/DeviceTester/amazon-freertos/lib/pkcs11/portable/renesas/rza2m-gr-mango\aws_pkcs11_pal.c **** #include "mbedtls/sha256.h"
  55:D:/Work/DeviceTester/amazon-freertos/lib/pkcs11/portable/renesas/rza2m-gr-mango\aws_pkcs11_pal.c **** 
  56:D:/Work/DeviceTester/amazon-freertos/lib/pkcs11/portable/renesas/rza2m-gr-mango\aws_pkcs11_pal.c **** /* C runtime includes. */
  57:D:/Work/DeviceTester/amazon-freertos/lib/pkcs11/portable/renesas/rza2m-gr-mango\aws_pkcs11_pal.c **** #include <stdio.h>
  58:D:/Work/DeviceTester/amazon-freertos/lib/pkcs11/portable/renesas/rza2m-gr-mango\aws_pkcs11_pal.c **** #include <string.h>
  59:D:/Work/DeviceTester/amazon-freertos/lib/pkcs11/portable/renesas/rza2m-gr-mango\aws_pkcs11_pal.c **** 
  60:D:/Work/DeviceTester/amazon-freertos/lib/pkcs11/portable/renesas/rza2m-gr-mango\aws_pkcs11_pal.c **** /* Renesas RX platform includes */
  61:D:/Work/DeviceTester/amazon-freertos/lib/pkcs11/portable/renesas/rza2m-gr-mango\aws_pkcs11_pal.c **** //#include "platform.h"
  62:D:/Work/DeviceTester/amazon-freertos/lib/pkcs11/portable/renesas/rza2m-gr-mango\aws_pkcs11_pal.c **** #include "flash_api.h"
  63:D:/Work/DeviceTester/amazon-freertos/lib/pkcs11/portable/renesas/rza2m-gr-mango\aws_pkcs11_pal.c **** 
  64:D:/Work/DeviceTester/amazon-freertos/lib/pkcs11/portable/renesas/rza2m-gr-mango\aws_pkcs11_pal.c **** typedef struct _pkcs_data
  65:D:/Work/DeviceTester/amazon-freertos/lib/pkcs11/portable/renesas/rza2m-gr-mango\aws_pkcs11_pal.c **** {
  66:D:/Work/DeviceTester/amazon-freertos/lib/pkcs11/portable/renesas/rza2m-gr-mango\aws_pkcs11_pal.c ****     CK_ATTRIBUTE Label;
  67:D:/Work/DeviceTester/amazon-freertos/lib/pkcs11/portable/renesas/rza2m-gr-mango\aws_pkcs11_pal.c ****     uint32_t local_storage_index;
  68:D:/Work/DeviceTester/amazon-freertos/lib/pkcs11/portable/renesas/rza2m-gr-mango\aws_pkcs11_pal.c ****     uint32_t ulDataSize;
  69:D:/Work/DeviceTester/amazon-freertos/lib/pkcs11/portable/renesas/rza2m-gr-mango\aws_pkcs11_pal.c ****     uint32_t status;
  70:D:/Work/DeviceTester/amazon-freertos/lib/pkcs11/portable/renesas/rza2m-gr-mango\aws_pkcs11_pal.c ****     CK_OBJECT_HANDLE xHandle;
  71:D:/Work/DeviceTester/amazon-freertos/lib/pkcs11/portable/renesas/rza2m-gr-mango\aws_pkcs11_pal.c **** } PKCS_DATA;
  72:D:/Work/DeviceTester/amazon-freertos/lib/pkcs11/portable/renesas/rza2m-gr-mango\aws_pkcs11_pal.c **** 
  73:D:/Work/DeviceTester/amazon-freertos/lib/pkcs11/portable/renesas/rza2m-gr-mango\aws_pkcs11_pal.c **** typedef enum
  74:D:/Work/DeviceTester/amazon-freertos/lib/pkcs11/portable/renesas/rza2m-gr-mango\aws_pkcs11_pal.c **** {
  75:D:/Work/DeviceTester/amazon-freertos/lib/pkcs11/portable/renesas/rza2m-gr-mango\aws_pkcs11_pal.c ****     ERROR_FAILURE = -1,              // <Generic error code
  76:D:/Work/DeviceTester/amazon-freertos/lib/pkcs11/portable/renesas/rza2m-gr-mango\aws_pkcs11_pal.c ****     NO_ERROR = 0                     // <Success
  77:D:/Work/DeviceTester/amazon-freertos/lib/pkcs11/portable/renesas/rza2m-gr-mango\aws_pkcs11_pal.c **** } e_error_t;
  78:D:/Work/DeviceTester/amazon-freertos/lib/pkcs11/portable/renesas/rza2m-gr-mango\aws_pkcs11_pal.c **** 
  79:D:/Work/DeviceTester/amazon-freertos/lib/pkcs11/portable/renesas/rza2m-gr-mango\aws_pkcs11_pal.c **** #define PKCS_STORAGE_ADDRESS        (0x51000000 - 0x4000)
  80:D:/Work/DeviceTester/amazon-freertos/lib/pkcs11/portable/renesas/rza2m-gr-mango\aws_pkcs11_pal.c **** #define PKCS_STORAGE_ADDRESS_MIRROR (0x51000000 - 0x2000)
  81:D:/Work/DeviceTester/amazon-freertos/lib/pkcs11/portable/renesas/rza2m-gr-mango\aws_pkcs11_pal.c **** 
  82:D:/Work/DeviceTester/amazon-freertos/lib/pkcs11/portable/renesas/rza2m-gr-mango\aws_pkcs11_pal.c **** #define PKCS_DATA_STATUS_EMPTY 0
  83:D:/Work/DeviceTester/amazon-freertos/lib/pkcs11/portable/renesas/rza2m-gr-mango\aws_pkcs11_pal.c **** #define PKCS_DATA_STATUS_REGISTERED 1
  84:D:/Work/DeviceTester/amazon-freertos/lib/pkcs11/portable/renesas/rza2m-gr-mango\aws_pkcs11_pal.c **** #define PKCS_DATA_STATUS_HIT 2
  85:D:/Work/DeviceTester/amazon-freertos/lib/pkcs11/portable/renesas/rza2m-gr-mango\aws_pkcs11_pal.c **** 
  86:D:/Work/DeviceTester/amazon-freertos/lib/pkcs11/portable/renesas/rza2m-gr-mango\aws_pkcs11_pal.c **** #define PKCS_HANDLES_LABEL_MAX_LENGTH 40
  87:D:/Work/DeviceTester/amazon-freertos/lib/pkcs11/portable/renesas/rza2m-gr-mango\aws_pkcs11_pal.c **** #define PKCS_OBJECT_HANDLES_NUM 5
  88:D:/Work/DeviceTester/amazon-freertos/lib/pkcs11/portable/renesas/rza2m-gr-mango\aws_pkcs11_pal.c **** #define PKCS_SHA256_LENGTH 32
  89:D:/Work/DeviceTester/amazon-freertos/lib/pkcs11/portable/renesas/rza2m-gr-mango\aws_pkcs11_pal.c **** 
  90:D:/Work/DeviceTester/amazon-freertos/lib/pkcs11/portable/renesas/rza2m-gr-mango\aws_pkcs11_pal.c **** #define MAX_CHECK_EEPROM_AREA_RETRY_COUNT 30
  91:D:/Work/DeviceTester/amazon-freertos/lib/pkcs11/portable/renesas/rza2m-gr-mango\aws_pkcs11_pal.c **** #define CHECK_EEPROM_DATA_MODE 4
  92:D:/Work/DeviceTester/amazon-freertos/lib/pkcs11/portable/renesas/rza2m-gr-mango\aws_pkcs11_pal.c **** 
  93:D:/Work/DeviceTester/amazon-freertos/lib/pkcs11/portable/renesas/rza2m-gr-mango\aws_pkcs11_pal.c **** #define PKCS_CONTROL_BLOCK_INITIAL_DATA \
  94:D:/Work/DeviceTester/amazon-freertos/lib/pkcs11/portable/renesas/rza2m-gr-mango\aws_pkcs11_pal.c ****     {\
  95:D:/Work/DeviceTester/amazon-freertos/lib/pkcs11/portable/renesas/rza2m-gr-mango\aws_pkcs11_pal.c ****         /* uint8_t local_storage[((FLASH_DF_BLOCK_SIZE * FLASH_NUM_BLOCKS_DF) / 4) - (sizeof(PKCS_D
  96:D:/Work/DeviceTester/amazon-freertos/lib/pkcs11/portable/renesas/rza2m-gr-mango\aws_pkcs11_pal.c ****         {0x00},\
  97:D:/Work/DeviceTester/amazon-freertos/lib/pkcs11/portable/renesas/rza2m-gr-mango\aws_pkcs11_pal.c ****         /* PKCS_DATA pkcs_data[PKCS_OBJECT_HANDLES_NUM]; */\
  98:D:/Work/DeviceTester/amazon-freertos/lib/pkcs11/portable/renesas/rza2m-gr-mango\aws_pkcs11_pal.c ****         {0x00},\
  99:D:/Work/DeviceTester/amazon-freertos/lib/pkcs11/portable/renesas/rza2m-gr-mango\aws_pkcs11_pal.c ****     },\
 100:D:/Work/DeviceTester/amazon-freertos/lib/pkcs11/portable/renesas/rza2m-gr-mango\aws_pkcs11_pal.c ****     /* uint8_t hash_sha256[PKCS_SHA256_LENGTH]; */\
 101:D:/Work/DeviceTester/amazon-freertos/lib/pkcs11/portable/renesas/rza2m-gr-mango\aws_pkcs11_pal.c ****     {0xea, 0x57, 0x12, 0x9a, 0x18, 0x10, 0x83, 0x80, 0x88, 0x80, 0x40, 0x1f, 0xae, 0xb2, 0xd2, 0xff
 102:D:/Work/DeviceTester/amazon-freertos/lib/pkcs11/portable/renesas/rza2m-gr-mango\aws_pkcs11_pal.c **** 
 103:D:/Work/DeviceTester/amazon-freertos/lib/pkcs11/portable/renesas/rza2m-gr-mango\aws_pkcs11_pal.c **** 
 104:D:/Work/DeviceTester/amazon-freertos/lib/pkcs11/portable/renesas/rza2m-gr-mango\aws_pkcs11_pal.c **** typedef struct _pkcs_storage_control_block_sub
 105:D:/Work/DeviceTester/amazon-freertos/lib/pkcs11/portable/renesas/rza2m-gr-mango\aws_pkcs11_pal.c **** {
 106:D:/Work/DeviceTester/amazon-freertos/lib/pkcs11/portable/renesas/rza2m-gr-mango\aws_pkcs11_pal.c ****     uint8_t local_storage[8192 - (sizeof(PKCS_DATA) * PKCS_OBJECT_HANDLES_NUM) - PKCS_SHA256_LENGTH
 107:D:/Work/DeviceTester/amazon-freertos/lib/pkcs11/portable/renesas/rza2m-gr-mango\aws_pkcs11_pal.c ****     PKCS_DATA pkcs_data[PKCS_OBJECT_HANDLES_NUM];
 108:D:/Work/DeviceTester/amazon-freertos/lib/pkcs11/portable/renesas/rza2m-gr-mango\aws_pkcs11_pal.c **** } PKCS_STORAGE_CONTROL_BLOCK_SUB;
 109:D:/Work/DeviceTester/amazon-freertos/lib/pkcs11/portable/renesas/rza2m-gr-mango\aws_pkcs11_pal.c **** 
 110:D:/Work/DeviceTester/amazon-freertos/lib/pkcs11/portable/renesas/rza2m-gr-mango\aws_pkcs11_pal.c **** typedef struct _PKCS_CONTROL_BLOCK
 111:D:/Work/DeviceTester/amazon-freertos/lib/pkcs11/portable/renesas/rza2m-gr-mango\aws_pkcs11_pal.c **** {
 112:D:/Work/DeviceTester/amazon-freertos/lib/pkcs11/portable/renesas/rza2m-gr-mango\aws_pkcs11_pal.c ****     PKCS_STORAGE_CONTROL_BLOCK_SUB data;
 113:D:/Work/DeviceTester/amazon-freertos/lib/pkcs11/portable/renesas/rza2m-gr-mango\aws_pkcs11_pal.c ****     uint8_t hash_sha256[PKCS_SHA256_LENGTH];
 114:D:/Work/DeviceTester/amazon-freertos/lib/pkcs11/portable/renesas/rza2m-gr-mango\aws_pkcs11_pal.c **** } PKCS_CONTROL_BLOCK;
 115:D:/Work/DeviceTester/amazon-freertos/lib/pkcs11/portable/renesas/rza2m-gr-mango\aws_pkcs11_pal.c **** 
 116:D:/Work/DeviceTester/amazon-freertos/lib/pkcs11/portable/renesas/rza2m-gr-mango\aws_pkcs11_pal.c **** enum eObjectHandles
 117:D:/Work/DeviceTester/amazon-freertos/lib/pkcs11/portable/renesas/rza2m-gr-mango\aws_pkcs11_pal.c **** {
 118:D:/Work/DeviceTester/amazon-freertos/lib/pkcs11/portable/renesas/rza2m-gr-mango\aws_pkcs11_pal.c ****     eInvalidHandle = 0, /* According to PKCS #11 spec, 0 is never a valid object handle. */
 119:D:/Work/DeviceTester/amazon-freertos/lib/pkcs11/portable/renesas/rza2m-gr-mango\aws_pkcs11_pal.c ****     eAwsDevicePrivateKey = 1,
 120:D:/Work/DeviceTester/amazon-freertos/lib/pkcs11/portable/renesas/rza2m-gr-mango\aws_pkcs11_pal.c ****     eAwsDevicePublicKey,
 121:D:/Work/DeviceTester/amazon-freertos/lib/pkcs11/portable/renesas/rza2m-gr-mango\aws_pkcs11_pal.c ****     eAwsDeviceCertificate,
 122:D:/Work/DeviceTester/amazon-freertos/lib/pkcs11/portable/renesas/rza2m-gr-mango\aws_pkcs11_pal.c ****     eAwsCodeSigningKey,
 123:D:/Work/DeviceTester/amazon-freertos/lib/pkcs11/portable/renesas/rza2m-gr-mango\aws_pkcs11_pal.c ****     //eAwsRootCertificate
 124:D:/Work/DeviceTester/amazon-freertos/lib/pkcs11/portable/renesas/rza2m-gr-mango\aws_pkcs11_pal.c **** };
 125:D:/Work/DeviceTester/amazon-freertos/lib/pkcs11/portable/renesas/rza2m-gr-mango\aws_pkcs11_pal.c **** 
 126:D:/Work/DeviceTester/amazon-freertos/lib/pkcs11/portable/renesas/rza2m-gr-mango\aws_pkcs11_pal.c **** uint8_t object_handle_dictionary[PKCS_OBJECT_HANDLES_NUM][PKCS_HANDLES_LABEL_MAX_LENGTH] =
 127:D:/Work/DeviceTester/amazon-freertos/lib/pkcs11/portable/renesas/rza2m-gr-mango\aws_pkcs11_pal.c **** {
 128:D:/Work/DeviceTester/amazon-freertos/lib/pkcs11/portable/renesas/rza2m-gr-mango\aws_pkcs11_pal.c ****     "",
 129:D:/Work/DeviceTester/amazon-freertos/lib/pkcs11/portable/renesas/rza2m-gr-mango\aws_pkcs11_pal.c ****     pkcs11configLABEL_DEVICE_PRIVATE_KEY_FOR_TLS,
 130:D:/Work/DeviceTester/amazon-freertos/lib/pkcs11/portable/renesas/rza2m-gr-mango\aws_pkcs11_pal.c ****     pkcs11configLABEL_DEVICE_PUBLIC_KEY_FOR_TLS,
 131:D:/Work/DeviceTester/amazon-freertos/lib/pkcs11/portable/renesas/rza2m-gr-mango\aws_pkcs11_pal.c ****     pkcs11configLABEL_DEVICE_CERTIFICATE_FOR_TLS,
 132:D:/Work/DeviceTester/amazon-freertos/lib/pkcs11/portable/renesas/rza2m-gr-mango\aws_pkcs11_pal.c ****     pkcs11configLABEL_CODE_VERIFICATION_KEY,
 133:D:/Work/DeviceTester/amazon-freertos/lib/pkcs11/portable/renesas/rza2m-gr-mango\aws_pkcs11_pal.c ****     //pkcs11configLABEL_ROOT_CERTIFICATE,
 134:D:/Work/DeviceTester/amazon-freertos/lib/pkcs11/portable/renesas/rza2m-gr-mango\aws_pkcs11_pal.c **** };
 135:D:/Work/DeviceTester/amazon-freertos/lib/pkcs11/portable/renesas/rza2m-gr-mango\aws_pkcs11_pal.c **** 
 136:D:/Work/DeviceTester/amazon-freertos/lib/pkcs11/portable/renesas/rza2m-gr-mango\aws_pkcs11_pal.c **** static PKCS_CONTROL_BLOCK pkcs_control_block_data_image;        /* 8KB */
 137:D:/Work/DeviceTester/amazon-freertos/lib/pkcs11/portable/renesas/rza2m-gr-mango\aws_pkcs11_pal.c **** static PKCS_CONTROL_BLOCK pkcs_control_block_data;              /* 8KB */
 138:D:/Work/DeviceTester/amazon-freertos/lib/pkcs11/portable/renesas/rza2m-gr-mango\aws_pkcs11_pal.c **** static PKCS_CONTROL_BLOCK pkcs_control_block_data_mirror;       /* 8KB */
 139:D:/Work/DeviceTester/amazon-freertos/lib/pkcs11/portable/renesas/rza2m-gr-mango\aws_pkcs11_pal.c **** 
 140:D:/Work/DeviceTester/amazon-freertos/lib/pkcs11/portable/renesas/rza2m-gr-mango\aws_pkcs11_pal.c **** //R_ATTRIB_SECTION_CHANGE(C, _PKCS11_STORAGE, 1)
 141:D:/Work/DeviceTester/amazon-freertos/lib/pkcs11/portable/renesas/rza2m-gr-mango\aws_pkcs11_pal.c **** static const PKCS_CONTROL_BLOCK pkcs_control_block_data_org = {PKCS_CONTROL_BLOCK_INITIAL_DATA};
 142:D:/Work/DeviceTester/amazon-freertos/lib/pkcs11/portable/renesas/rza2m-gr-mango\aws_pkcs11_pal.c **** //R_ATTRIB_SECTION_CHANGE_END
 143:D:/Work/DeviceTester/amazon-freertos/lib/pkcs11/portable/renesas/rza2m-gr-mango\aws_pkcs11_pal.c **** 
 144:D:/Work/DeviceTester/amazon-freertos/lib/pkcs11/portable/renesas/rza2m-gr-mango\aws_pkcs11_pal.c **** //R_ATTRIB_SECTION_CHANGE(C, _PKCS11_STORAGE_MIRROR, 1)
 145:D:/Work/DeviceTester/amazon-freertos/lib/pkcs11/portable/renesas/rza2m-gr-mango\aws_pkcs11_pal.c **** static const PKCS_CONTROL_BLOCK pkcs_control_block_data_mirror_org = {PKCS_CONTROL_BLOCK_INITIAL_DA
 146:D:/Work/DeviceTester/amazon-freertos/lib/pkcs11/portable/renesas/rza2m-gr-mango\aws_pkcs11_pal.c **** //R_ATTRIB_SECTION_CHANGE_END
 147:D:/Work/DeviceTester/amazon-freertos/lib/pkcs11/portable/renesas/rza2m-gr-mango\aws_pkcs11_pal.c **** 
 148:D:/Work/DeviceTester/amazon-freertos/lib/pkcs11/portable/renesas/rza2m-gr-mango\aws_pkcs11_pal.c **** static void update_eeprom_data_from_image(void);
 149:D:/Work/DeviceTester/amazon-freertos/lib/pkcs11/portable/renesas/rza2m-gr-mango\aws_pkcs11_pal.c **** static void update_eeprom_data_mirror_from_image(void);
 150:D:/Work/DeviceTester/amazon-freertos/lib/pkcs11/portable/renesas/rza2m-gr-mango\aws_pkcs11_pal.c **** static int_t check_eeprom_area(uint32_t retry_counter);
 151:D:/Work/DeviceTester/amazon-freertos/lib/pkcs11/portable/renesas/rza2m-gr-mango\aws_pkcs11_pal.c **** static int_t write_octaflash_data(uint32_t addr, void* data, size_t size);
 152:D:/Work/DeviceTester/amazon-freertos/lib/pkcs11/portable/renesas/rza2m-gr-mango\aws_pkcs11_pal.c **** 
 153:D:/Work/DeviceTester/amazon-freertos/lib/pkcs11/portable/renesas/rza2m-gr-mango\aws_pkcs11_pal.c **** extern CK_RV prvMbedTLS_Initialize( void );
 154:D:/Work/DeviceTester/amazon-freertos/lib/pkcs11/portable/renesas/rza2m-gr-mango\aws_pkcs11_pal.c **** 
 155:D:/Work/DeviceTester/amazon-freertos/lib/pkcs11/portable/renesas/rza2m-gr-mango\aws_pkcs11_pal.c **** static void print_data(void* data)
 156:D:/Work/DeviceTester/amazon-freertos/lib/pkcs11/portable/renesas/rza2m-gr-mango\aws_pkcs11_pal.c **** {
 157:D:/Work/DeviceTester/amazon-freertos/lib/pkcs11/portable/renesas/rza2m-gr-mango\aws_pkcs11_pal.c **** 	uint32_t loop;
 158:D:/Work/DeviceTester/amazon-freertos/lib/pkcs11/portable/renesas/rza2m-gr-mango\aws_pkcs11_pal.c **** 	uint32_t cnt=0;
 159:D:/Work/DeviceTester/amazon-freertos/lib/pkcs11/portable/renesas/rza2m-gr-mango\aws_pkcs11_pal.c **** 	uint8_t* pdata = data;
 160:D:/Work/DeviceTester/amazon-freertos/lib/pkcs11/portable/renesas/rza2m-gr-mango\aws_pkcs11_pal.c **** 	for (loop = 0; loop < sizeof(PKCS_CONTROL_BLOCK); loop++)
 161:D:/Work/DeviceTester/amazon-freertos/lib/pkcs11/portable/renesas/rza2m-gr-mango\aws_pkcs11_pal.c **** 	{
 162:D:/Work/DeviceTester/amazon-freertos/lib/pkcs11/portable/renesas/rza2m-gr-mango\aws_pkcs11_pal.c **** 		printf("0x%02X, ",*pdata++);
 163:D:/Work/DeviceTester/amazon-freertos/lib/pkcs11/portable/renesas/rza2m-gr-mango\aws_pkcs11_pal.c **** 		if( (++cnt) >= 16)
 164:D:/Work/DeviceTester/amazon-freertos/lib/pkcs11/portable/renesas/rza2m-gr-mango\aws_pkcs11_pal.c **** 		{
 165:D:/Work/DeviceTester/amazon-freertos/lib/pkcs11/portable/renesas/rza2m-gr-mango\aws_pkcs11_pal.c **** 			printf("\n\r");
 166:D:/Work/DeviceTester/amazon-freertos/lib/pkcs11/portable/renesas/rza2m-gr-mango\aws_pkcs11_pal.c **** 			cnt=0;
 167:D:/Work/DeviceTester/amazon-freertos/lib/pkcs11/portable/renesas/rza2m-gr-mango\aws_pkcs11_pal.c **** 		}
 168:D:/Work/DeviceTester/amazon-freertos/lib/pkcs11/portable/renesas/rza2m-gr-mango\aws_pkcs11_pal.c **** 	}
 169:D:/Work/DeviceTester/amazon-freertos/lib/pkcs11/portable/renesas/rza2m-gr-mango\aws_pkcs11_pal.c **** }
 170:D:/Work/DeviceTester/amazon-freertos/lib/pkcs11/portable/renesas/rza2m-gr-mango\aws_pkcs11_pal.c **** 
 171:D:/Work/DeviceTester/amazon-freertos/lib/pkcs11/portable/renesas/rza2m-gr-mango\aws_pkcs11_pal.c **** CK_RV C_Initialize( CK_VOID_PTR pvInitArgs )
 172:D:/Work/DeviceTester/amazon-freertos/lib/pkcs11/portable/renesas/rza2m-gr-mango\aws_pkcs11_pal.c **** {
 173:D:/Work/DeviceTester/amazon-freertos/lib/pkcs11/portable/renesas/rza2m-gr-mango\aws_pkcs11_pal.c ****     int_t ret = NO_ERROR;
 174:D:/Work/DeviceTester/amazon-freertos/lib/pkcs11/portable/renesas/rza2m-gr-mango\aws_pkcs11_pal.c **** 
 175:D:/Work/DeviceTester/amazon-freertos/lib/pkcs11/portable/renesas/rza2m-gr-mango\aws_pkcs11_pal.c ****     memcpy(&pkcs_control_block_data,        (void*)PKCS_STORAGE_ADDRESS,        sizeof(pkcs_control
 176:D:/Work/DeviceTester/amazon-freertos/lib/pkcs11/portable/renesas/rza2m-gr-mango\aws_pkcs11_pal.c ****     memcpy(&pkcs_control_block_data_mirror, (void*)PKCS_STORAGE_ADDRESS_MIRROR, sizeof(pkcs_control
 177:D:/Work/DeviceTester/amazon-freertos/lib/pkcs11/portable/renesas/rza2m-gr-mango\aws_pkcs11_pal.c **** 
 178:D:/Work/DeviceTester/amazon-freertos/lib/pkcs11/portable/renesas/rza2m-gr-mango\aws_pkcs11_pal.c ****     /* data check the hash */
 179:D:/Work/DeviceTester/amazon-freertos/lib/pkcs11/portable/renesas/rza2m-gr-mango\aws_pkcs11_pal.c ****     ret = check_eeprom_area(4);
 180:D:/Work/DeviceTester/amazon-freertos/lib/pkcs11/portable/renesas/rza2m-gr-mango\aws_pkcs11_pal.c ****     if (ERROR_FAILURE == ret) {
 181:D:/Work/DeviceTester/amazon-freertos/lib/pkcs11/portable/renesas/rza2m-gr-mango\aws_pkcs11_pal.c ****         /* copy data from ram to storage*/
 182:D:/Work/DeviceTester/amazon-freertos/lib/pkcs11/portable/renesas/rza2m-gr-mango\aws_pkcs11_pal.c ****         memcpy(&pkcs_control_block_data_image, (void *)&pkcs_control_block_data_org, sizeof(pkcs_co
 183:D:/Work/DeviceTester/amazon-freertos/lib/pkcs11/portable/renesas/rza2m-gr-mango\aws_pkcs11_pal.c ****         update_eeprom_data_from_image();
 184:D:/Work/DeviceTester/amazon-freertos/lib/pkcs11/portable/renesas/rza2m-gr-mango\aws_pkcs11_pal.c ****         memcpy(&pkcs_control_block_data_image, (void *)&pkcs_control_block_data_mirror_org, sizeof(
 185:D:/Work/DeviceTester/amazon-freertos/lib/pkcs11/portable/renesas/rza2m-gr-mango\aws_pkcs11_pal.c ****         update_eeprom_data_mirror_from_image();
 186:D:/Work/DeviceTester/amazon-freertos/lib/pkcs11/portable/renesas/rza2m-gr-mango\aws_pkcs11_pal.c ****     }
 187:D:/Work/DeviceTester/amazon-freertos/lib/pkcs11/portable/renesas/rza2m-gr-mango\aws_pkcs11_pal.c **** 
 188:D:/Work/DeviceTester/amazon-freertos/lib/pkcs11/portable/renesas/rza2m-gr-mango\aws_pkcs11_pal.c ****     /* check the hash */
 189:D:/Work/DeviceTester/amazon-freertos/lib/pkcs11/portable/renesas/rza2m-gr-mango\aws_pkcs11_pal.c ****     check_eeprom_area(0);
 190:D:/Work/DeviceTester/amazon-freertos/lib/pkcs11/portable/renesas/rza2m-gr-mango\aws_pkcs11_pal.c **** 
 191:D:/Work/DeviceTester/amazon-freertos/lib/pkcs11/portable/renesas/rza2m-gr-mango\aws_pkcs11_pal.c ****     /* copy data from storage to ram */
 192:D:/Work/DeviceTester/amazon-freertos/lib/pkcs11/portable/renesas/rza2m-gr-mango\aws_pkcs11_pal.c ****     memcpy(&pkcs_control_block_data_image, (void *)&pkcs_control_block_data, sizeof(pkcs_control_bl
 193:D:/Work/DeviceTester/amazon-freertos/lib/pkcs11/portable/renesas/rza2m-gr-mango\aws_pkcs11_pal.c **** 
 194:D:/Work/DeviceTester/amazon-freertos/lib/pkcs11/portable/renesas/rza2m-gr-mango\aws_pkcs11_pal.c ****     prvMbedTLS_Initialize();
 195:D:/Work/DeviceTester/amazon-freertos/lib/pkcs11/portable/renesas/rza2m-gr-mango\aws_pkcs11_pal.c **** 
 196:D:/Work/DeviceTester/amazon-freertos/lib/pkcs11/portable/renesas/rza2m-gr-mango\aws_pkcs11_pal.c ****     return CKR_OK;
 197:D:/Work/DeviceTester/amazon-freertos/lib/pkcs11/portable/renesas/rza2m-gr-mango\aws_pkcs11_pal.c **** }
 198:D:/Work/DeviceTester/amazon-freertos/lib/pkcs11/portable/renesas/rza2m-gr-mango\aws_pkcs11_pal.c **** 
 199:D:/Work/DeviceTester/amazon-freertos/lib/pkcs11/portable/renesas/rza2m-gr-mango\aws_pkcs11_pal.c **** /**
 200:D:/Work/DeviceTester/amazon-freertos/lib/pkcs11/portable/renesas/rza2m-gr-mango\aws_pkcs11_pal.c **** * @brief Writes a file to local storage.
 201:D:/Work/DeviceTester/amazon-freertos/lib/pkcs11/portable/renesas/rza2m-gr-mango\aws_pkcs11_pal.c **** *
 202:D:/Work/DeviceTester/amazon-freertos/lib/pkcs11/portable/renesas/rza2m-gr-mango\aws_pkcs11_pal.c **** * Port-specific file write for crytographic information.
 203:D:/Work/DeviceTester/amazon-freertos/lib/pkcs11/portable/renesas/rza2m-gr-mango\aws_pkcs11_pal.c **** *
 204:D:/Work/DeviceTester/amazon-freertos/lib/pkcs11/portable/renesas/rza2m-gr-mango\aws_pkcs11_pal.c **** * @param[in] pxLabel       Label of the object to be saved.
 205:D:/Work/DeviceTester/amazon-freertos/lib/pkcs11/portable/renesas/rza2m-gr-mango\aws_pkcs11_pal.c **** * @param[in] pucData       Data buffer to be written to file
 206:D:/Work/DeviceTester/amazon-freertos/lib/pkcs11/portable/renesas/rza2m-gr-mango\aws_pkcs11_pal.c **** * @param[in] ulDataSize    Size (in bytes) of data to be saved.
 207:D:/Work/DeviceTester/amazon-freertos/lib/pkcs11/portable/renesas/rza2m-gr-mango\aws_pkcs11_pal.c **** *
 208:D:/Work/DeviceTester/amazon-freertos/lib/pkcs11/portable/renesas/rza2m-gr-mango\aws_pkcs11_pal.c **** * @return The file handle of the object that was stored.
 209:D:/Work/DeviceTester/amazon-freertos/lib/pkcs11/portable/renesas/rza2m-gr-mango\aws_pkcs11_pal.c **** */
 210:D:/Work/DeviceTester/amazon-freertos/lib/pkcs11/portable/renesas/rza2m-gr-mango\aws_pkcs11_pal.c **** CK_OBJECT_HANDLE PKCS11_PAL_SaveObject( CK_ATTRIBUTE_PTR pxLabel,
 211:D:/Work/DeviceTester/amazon-freertos/lib/pkcs11/portable/renesas/rza2m-gr-mango\aws_pkcs11_pal.c ****                                         uint8_t * pucData,
 212:D:/Work/DeviceTester/amazon-freertos/lib/pkcs11/portable/renesas/rza2m-gr-mango\aws_pkcs11_pal.c ****                                         uint32_t ulDataSize )
 213:D:/Work/DeviceTester/amazon-freertos/lib/pkcs11/portable/renesas/rza2m-gr-mango\aws_pkcs11_pal.c **** {
 214:D:/Work/DeviceTester/amazon-freertos/lib/pkcs11/portable/renesas/rza2m-gr-mango\aws_pkcs11_pal.c ****     CK_OBJECT_HANDLE xHandle = eInvalidHandle;
 215:D:/Work/DeviceTester/amazon-freertos/lib/pkcs11/portable/renesas/rza2m-gr-mango\aws_pkcs11_pal.c ****     int i;
 216:D:/Work/DeviceTester/amazon-freertos/lib/pkcs11/portable/renesas/rza2m-gr-mango\aws_pkcs11_pal.c ****     uint8_t hash_sha256[PKCS_SHA256_LENGTH];
 217:D:/Work/DeviceTester/amazon-freertos/lib/pkcs11/portable/renesas/rza2m-gr-mango\aws_pkcs11_pal.c ****     mbedtls_sha256_context ctx;
 218:D:/Work/DeviceTester/amazon-freertos/lib/pkcs11/portable/renesas/rza2m-gr-mango\aws_pkcs11_pal.c ****     int_t ret = NO_ERROR;
 219:D:/Work/DeviceTester/amazon-freertos/lib/pkcs11/portable/renesas/rza2m-gr-mango\aws_pkcs11_pal.c **** 
 220:D:/Work/DeviceTester/amazon-freertos/lib/pkcs11/portable/renesas/rza2m-gr-mango\aws_pkcs11_pal.c ****     mbedtls_sha256_init(&ctx);
 221:D:/Work/DeviceTester/amazon-freertos/lib/pkcs11/portable/renesas/rza2m-gr-mango\aws_pkcs11_pal.c **** 
 222:D:/Work/DeviceTester/amazon-freertos/lib/pkcs11/portable/renesas/rza2m-gr-mango\aws_pkcs11_pal.c ****     memcpy(&pkcs_control_block_data,        (void*)PKCS_STORAGE_ADDRESS,        sizeof(pkcs_control
 223:D:/Work/DeviceTester/amazon-freertos/lib/pkcs11/portable/renesas/rza2m-gr-mango\aws_pkcs11_pal.c ****     memcpy(&pkcs_control_block_data_mirror, (void*)PKCS_STORAGE_ADDRESS_MIRROR, sizeof(pkcs_control
 224:D:/Work/DeviceTester/amazon-freertos/lib/pkcs11/portable/renesas/rza2m-gr-mango\aws_pkcs11_pal.c **** 
 225:D:/Work/DeviceTester/amazon-freertos/lib/pkcs11/portable/renesas/rza2m-gr-mango\aws_pkcs11_pal.c ****     /* data check the hash */
 226:D:/Work/DeviceTester/amazon-freertos/lib/pkcs11/portable/renesas/rza2m-gr-mango\aws_pkcs11_pal.c ****     ret = check_eeprom_area(4);
 227:D:/Work/DeviceTester/amazon-freertos/lib/pkcs11/portable/renesas/rza2m-gr-mango\aws_pkcs11_pal.c ****     if (ERROR_FAILURE == ret) {
 228:D:/Work/DeviceTester/amazon-freertos/lib/pkcs11/portable/renesas/rza2m-gr-mango\aws_pkcs11_pal.c ****         /* copy data from ram to storage*/
 229:D:/Work/DeviceTester/amazon-freertos/lib/pkcs11/portable/renesas/rza2m-gr-mango\aws_pkcs11_pal.c ****         memcpy(&pkcs_control_block_data_image, (void *)&pkcs_control_block_data_org, sizeof(pkcs_co
 230:D:/Work/DeviceTester/amazon-freertos/lib/pkcs11/portable/renesas/rza2m-gr-mango\aws_pkcs11_pal.c ****         update_eeprom_data_from_image();
 231:D:/Work/DeviceTester/amazon-freertos/lib/pkcs11/portable/renesas/rza2m-gr-mango\aws_pkcs11_pal.c ****         memcpy(&pkcs_control_block_data_image, (void *)&pkcs_control_block_data_mirror_org, sizeof(
 232:D:/Work/DeviceTester/amazon-freertos/lib/pkcs11/portable/renesas/rza2m-gr-mango\aws_pkcs11_pal.c ****         update_eeprom_data_mirror_from_image();
 233:D:/Work/DeviceTester/amazon-freertos/lib/pkcs11/portable/renesas/rza2m-gr-mango\aws_pkcs11_pal.c ****     }
 234:D:/Work/DeviceTester/amazon-freertos/lib/pkcs11/portable/renesas/rza2m-gr-mango\aws_pkcs11_pal.c **** 
 235:D:/Work/DeviceTester/amazon-freertos/lib/pkcs11/portable/renesas/rza2m-gr-mango\aws_pkcs11_pal.c ****     /* check the hash */
 236:D:/Work/DeviceTester/amazon-freertos/lib/pkcs11/portable/renesas/rza2m-gr-mango\aws_pkcs11_pal.c ****     check_eeprom_area(0);
 237:D:/Work/DeviceTester/amazon-freertos/lib/pkcs11/portable/renesas/rza2m-gr-mango\aws_pkcs11_pal.c **** 
 238:D:/Work/DeviceTester/amazon-freertos/lib/pkcs11/portable/renesas/rza2m-gr-mango\aws_pkcs11_pal.c ****     /* copy data from storage to ram */
 239:D:/Work/DeviceTester/amazon-freertos/lib/pkcs11/portable/renesas/rza2m-gr-mango\aws_pkcs11_pal.c ****     memcpy(&pkcs_control_block_data_image, (void *)&pkcs_control_block_data, sizeof(pkcs_control_bl
 240:D:/Work/DeviceTester/amazon-freertos/lib/pkcs11/portable/renesas/rza2m-gr-mango\aws_pkcs11_pal.c **** 
 241:D:/Work/DeviceTester/amazon-freertos/lib/pkcs11/portable/renesas/rza2m-gr-mango\aws_pkcs11_pal.c ****     /* search specified label value from object_handle_dictionary */
 242:D:/Work/DeviceTester/amazon-freertos/lib/pkcs11/portable/renesas/rza2m-gr-mango\aws_pkcs11_pal.c ****     for (i = 1; i < PKCS_OBJECT_HANDLES_NUM; i++)
 243:D:/Work/DeviceTester/amazon-freertos/lib/pkcs11/portable/renesas/rza2m-gr-mango\aws_pkcs11_pal.c ****     {
 244:D:/Work/DeviceTester/amazon-freertos/lib/pkcs11/portable/renesas/rza2m-gr-mango\aws_pkcs11_pal.c ****         if (!strcmp((char * )&object_handle_dictionary[i], pxLabel->pValue))
 245:D:/Work/DeviceTester/amazon-freertos/lib/pkcs11/portable/renesas/rza2m-gr-mango\aws_pkcs11_pal.c ****         {
 246:D:/Work/DeviceTester/amazon-freertos/lib/pkcs11/portable/renesas/rza2m-gr-mango\aws_pkcs11_pal.c ****             xHandle = i;
 247:D:/Work/DeviceTester/amazon-freertos/lib/pkcs11/portable/renesas/rza2m-gr-mango\aws_pkcs11_pal.c ****         }
 248:D:/Work/DeviceTester/amazon-freertos/lib/pkcs11/portable/renesas/rza2m-gr-mango\aws_pkcs11_pal.c ****     }
 249:D:/Work/DeviceTester/amazon-freertos/lib/pkcs11/portable/renesas/rza2m-gr-mango\aws_pkcs11_pal.c **** 
 250:D:/Work/DeviceTester/amazon-freertos/lib/pkcs11/portable/renesas/rza2m-gr-mango\aws_pkcs11_pal.c ****     if (xHandle != eInvalidHandle)
 251:D:/Work/DeviceTester/amazon-freertos/lib/pkcs11/portable/renesas/rza2m-gr-mango\aws_pkcs11_pal.c ****     {
 252:D:/Work/DeviceTester/amazon-freertos/lib/pkcs11/portable/renesas/rza2m-gr-mango\aws_pkcs11_pal.c **** 
 253:D:/Work/DeviceTester/amazon-freertos/lib/pkcs11/portable/renesas/rza2m-gr-mango\aws_pkcs11_pal.c ****         /* pre-calculate -> total stored data size : pre-calculate phase */
 254:D:/Work/DeviceTester/amazon-freertos/lib/pkcs11/portable/renesas/rza2m-gr-mango\aws_pkcs11_pal.c ****         uint32_t total_stored_data_size = 0;
 255:D:/Work/DeviceTester/amazon-freertos/lib/pkcs11/portable/renesas/rza2m-gr-mango\aws_pkcs11_pal.c **** 
 256:D:/Work/DeviceTester/amazon-freertos/lib/pkcs11/portable/renesas/rza2m-gr-mango\aws_pkcs11_pal.c ****         for (int i = 1; i < PKCS_OBJECT_HANDLES_NUM; i++)
 257:D:/Work/DeviceTester/amazon-freertos/lib/pkcs11/portable/renesas/rza2m-gr-mango\aws_pkcs11_pal.c ****         {
 258:D:/Work/DeviceTester/amazon-freertos/lib/pkcs11/portable/renesas/rza2m-gr-mango\aws_pkcs11_pal.c ****             if (pkcs_control_block_data_image.data.pkcs_data[i].status == PKCS_DATA_STATUS_REGISTER
 259:D:/Work/DeviceTester/amazon-freertos/lib/pkcs11/portable/renesas/rza2m-gr-mango\aws_pkcs11_pal.c ****             {
 260:D:/Work/DeviceTester/amazon-freertos/lib/pkcs11/portable/renesas/rza2m-gr-mango\aws_pkcs11_pal.c ****                 total_stored_data_size += pkcs_control_block_data_image.data.pkcs_data[i].ulDataSiz
 261:D:/Work/DeviceTester/amazon-freertos/lib/pkcs11/portable/renesas/rza2m-gr-mango\aws_pkcs11_pal.c ****             }
 262:D:/Work/DeviceTester/amazon-freertos/lib/pkcs11/portable/renesas/rza2m-gr-mango\aws_pkcs11_pal.c ****         }
 263:D:/Work/DeviceTester/amazon-freertos/lib/pkcs11/portable/renesas/rza2m-gr-mango\aws_pkcs11_pal.c **** 
 264:D:/Work/DeviceTester/amazon-freertos/lib/pkcs11/portable/renesas/rza2m-gr-mango\aws_pkcs11_pal.c ****         /* remove current xHandle from pkcs_data */
 265:D:/Work/DeviceTester/amazon-freertos/lib/pkcs11/portable/renesas/rza2m-gr-mango\aws_pkcs11_pal.c ****         if (pkcs_control_block_data_image.data.pkcs_data[xHandle].status == PKCS_DATA_STATUS_REGIST
 266:D:/Work/DeviceTester/amazon-freertos/lib/pkcs11/portable/renesas/rza2m-gr-mango\aws_pkcs11_pal.c ****         {
 267:D:/Work/DeviceTester/amazon-freertos/lib/pkcs11/portable/renesas/rza2m-gr-mango\aws_pkcs11_pal.c **** 
 268:D:/Work/DeviceTester/amazon-freertos/lib/pkcs11/portable/renesas/rza2m-gr-mango\aws_pkcs11_pal.c ****             uint32_t move_target_xHandle = 0, move_target_index = 0;
 269:D:/Work/DeviceTester/amazon-freertos/lib/pkcs11/portable/renesas/rza2m-gr-mango\aws_pkcs11_pal.c **** 
 270:D:/Work/DeviceTester/amazon-freertos/lib/pkcs11/portable/renesas/rza2m-gr-mango\aws_pkcs11_pal.c ****             uint32_t delete_target_index = pkcs_control_block_data_image.data.pkcs_data[xHandle].lo
 271:D:/Work/DeviceTester/amazon-freertos/lib/pkcs11/portable/renesas/rza2m-gr-mango\aws_pkcs11_pal.c ****             uint32_t delete_target_data_size = pkcs_control_block_data_image.data.pkcs_data[xHandle
 272:D:/Work/DeviceTester/amazon-freertos/lib/pkcs11/portable/renesas/rza2m-gr-mango\aws_pkcs11_pal.c **** 
 273:D:/Work/DeviceTester/amazon-freertos/lib/pkcs11/portable/renesas/rza2m-gr-mango\aws_pkcs11_pal.c ****             /* Search move target index and handle  */
 274:D:/Work/DeviceTester/amazon-freertos/lib/pkcs11/portable/renesas/rza2m-gr-mango\aws_pkcs11_pal.c ****             for (int i = 1; i < PKCS_OBJECT_HANDLES_NUM; i++)
 275:D:/Work/DeviceTester/amazon-freertos/lib/pkcs11/portable/renesas/rza2m-gr-mango\aws_pkcs11_pal.c ****             {
 276:D:/Work/DeviceTester/amazon-freertos/lib/pkcs11/portable/renesas/rza2m-gr-mango\aws_pkcs11_pal.c **** 
 277:D:/Work/DeviceTester/amazon-freertos/lib/pkcs11/portable/renesas/rza2m-gr-mango\aws_pkcs11_pal.c ****                 if ((pkcs_control_block_data_image.data.pkcs_data[i].status == PKCS_DATA_STATUS_REG
 278:D:/Work/DeviceTester/amazon-freertos/lib/pkcs11/portable/renesas/rza2m-gr-mango\aws_pkcs11_pal.c ****                         && (pkcs_control_block_data_image.data.pkcs_data[i].local_storage_index == 
 279:D:/Work/DeviceTester/amazon-freertos/lib/pkcs11/portable/renesas/rza2m-gr-mango\aws_pkcs11_pal.c ****                 {
 280:D:/Work/DeviceTester/amazon-freertos/lib/pkcs11/portable/renesas/rza2m-gr-mango\aws_pkcs11_pal.c ****                     move_target_xHandle = i;
 281:D:/Work/DeviceTester/amazon-freertos/lib/pkcs11/portable/renesas/rza2m-gr-mango\aws_pkcs11_pal.c ****                     move_target_index = pkcs_control_block_data_image.data.pkcs_data[i].local_stora
 282:D:/Work/DeviceTester/amazon-freertos/lib/pkcs11/portable/renesas/rza2m-gr-mango\aws_pkcs11_pal.c ****                     break;
 283:D:/Work/DeviceTester/amazon-freertos/lib/pkcs11/portable/renesas/rza2m-gr-mango\aws_pkcs11_pal.c ****                 }
 284:D:/Work/DeviceTester/amazon-freertos/lib/pkcs11/portable/renesas/rza2m-gr-mango\aws_pkcs11_pal.c **** 
 285:D:/Work/DeviceTester/amazon-freertos/lib/pkcs11/portable/renesas/rza2m-gr-mango\aws_pkcs11_pal.c ****             }
 286:D:/Work/DeviceTester/amazon-freertos/lib/pkcs11/portable/renesas/rza2m-gr-mango\aws_pkcs11_pal.c **** 
 287:D:/Work/DeviceTester/amazon-freertos/lib/pkcs11/portable/renesas/rza2m-gr-mango\aws_pkcs11_pal.c ****             if (move_target_xHandle != 0)
 288:D:/Work/DeviceTester/amazon-freertos/lib/pkcs11/portable/renesas/rza2m-gr-mango\aws_pkcs11_pal.c ****             {
 289:D:/Work/DeviceTester/amazon-freertos/lib/pkcs11/portable/renesas/rza2m-gr-mango\aws_pkcs11_pal.c **** 
 290:D:/Work/DeviceTester/amazon-freertos/lib/pkcs11/portable/renesas/rza2m-gr-mango\aws_pkcs11_pal.c ****                 /* Move target index to delete target index */
 291:D:/Work/DeviceTester/amazon-freertos/lib/pkcs11/portable/renesas/rza2m-gr-mango\aws_pkcs11_pal.c ****                 memmove(
 292:D:/Work/DeviceTester/amazon-freertos/lib/pkcs11/portable/renesas/rza2m-gr-mango\aws_pkcs11_pal.c ****                     (void * )&pkcs_control_block_data_image.data.local_storage[delete_target_index]
 293:D:/Work/DeviceTester/amazon-freertos/lib/pkcs11/portable/renesas/rza2m-gr-mango\aws_pkcs11_pal.c ****                     (void * )&pkcs_control_block_data_image.data.local_storage[move_target_index],
 294:D:/Work/DeviceTester/amazon-freertos/lib/pkcs11/portable/renesas/rza2m-gr-mango\aws_pkcs11_pal.c ****                     (size_t )total_stored_data_size - move_target_index);
 295:D:/Work/DeviceTester/amazon-freertos/lib/pkcs11/portable/renesas/rza2m-gr-mango\aws_pkcs11_pal.c **** 
 296:D:/Work/DeviceTester/amazon-freertos/lib/pkcs11/portable/renesas/rza2m-gr-mango\aws_pkcs11_pal.c ****                 /* Fix index of all moved data  */
 297:D:/Work/DeviceTester/amazon-freertos/lib/pkcs11/portable/renesas/rza2m-gr-mango\aws_pkcs11_pal.c ****                 for (int i = 1; i < PKCS_OBJECT_HANDLES_NUM; i++)
 298:D:/Work/DeviceTester/amazon-freertos/lib/pkcs11/portable/renesas/rza2m-gr-mango\aws_pkcs11_pal.c ****                 {
 299:D:/Work/DeviceTester/amazon-freertos/lib/pkcs11/portable/renesas/rza2m-gr-mango\aws_pkcs11_pal.c **** 
 300:D:/Work/DeviceTester/amazon-freertos/lib/pkcs11/portable/renesas/rza2m-gr-mango\aws_pkcs11_pal.c ****                     if (pkcs_control_block_data_image.data.pkcs_data[i].local_storage_index > delet
 301:D:/Work/DeviceTester/amazon-freertos/lib/pkcs11/portable/renesas/rza2m-gr-mango\aws_pkcs11_pal.c ****                     {
 302:D:/Work/DeviceTester/amazon-freertos/lib/pkcs11/portable/renesas/rza2m-gr-mango\aws_pkcs11_pal.c ****                         pkcs_control_block_data_image.data.pkcs_data[i].local_storage_index -= dele
 303:D:/Work/DeviceTester/amazon-freertos/lib/pkcs11/portable/renesas/rza2m-gr-mango\aws_pkcs11_pal.c ****                     }
 304:D:/Work/DeviceTester/amazon-freertos/lib/pkcs11/portable/renesas/rza2m-gr-mango\aws_pkcs11_pal.c **** 
 305:D:/Work/DeviceTester/amazon-freertos/lib/pkcs11/portable/renesas/rza2m-gr-mango\aws_pkcs11_pal.c ****                 }
 306:D:/Work/DeviceTester/amazon-freertos/lib/pkcs11/portable/renesas/rza2m-gr-mango\aws_pkcs11_pal.c **** 
 307:D:/Work/DeviceTester/amazon-freertos/lib/pkcs11/portable/renesas/rza2m-gr-mango\aws_pkcs11_pal.c ****             }
 308:D:/Work/DeviceTester/amazon-freertos/lib/pkcs11/portable/renesas/rza2m-gr-mango\aws_pkcs11_pal.c **** 
 309:D:/Work/DeviceTester/amazon-freertos/lib/pkcs11/portable/renesas/rza2m-gr-mango\aws_pkcs11_pal.c ****             /* Recalculate the end of data storage  */
 310:D:/Work/DeviceTester/amazon-freertos/lib/pkcs11/portable/renesas/rza2m-gr-mango\aws_pkcs11_pal.c ****             total_stored_data_size -= delete_target_data_size;
 311:D:/Work/DeviceTester/amazon-freertos/lib/pkcs11/portable/renesas/rza2m-gr-mango\aws_pkcs11_pal.c **** 
 312:D:/Work/DeviceTester/amazon-freertos/lib/pkcs11/portable/renesas/rza2m-gr-mango\aws_pkcs11_pal.c ****             pkcs_control_block_data_image.data.pkcs_data[xHandle].local_storage_index = 0;
 313:D:/Work/DeviceTester/amazon-freertos/lib/pkcs11/portable/renesas/rza2m-gr-mango\aws_pkcs11_pal.c ****             pkcs_control_block_data_image.data.pkcs_data[xHandle].ulDataSize = 0;
 314:D:/Work/DeviceTester/amazon-freertos/lib/pkcs11/portable/renesas/rza2m-gr-mango\aws_pkcs11_pal.c **** 
 315:D:/Work/DeviceTester/amazon-freertos/lib/pkcs11/portable/renesas/rza2m-gr-mango\aws_pkcs11_pal.c ****         }
 316:D:/Work/DeviceTester/amazon-freertos/lib/pkcs11/portable/renesas/rza2m-gr-mango\aws_pkcs11_pal.c **** 
 317:D:/Work/DeviceTester/amazon-freertos/lib/pkcs11/portable/renesas/rza2m-gr-mango\aws_pkcs11_pal.c ****         pkcs_control_block_data_image.data.pkcs_data[xHandle].Label.type = pxLabel->type;
 318:D:/Work/DeviceTester/amazon-freertos/lib/pkcs11/portable/renesas/rza2m-gr-mango\aws_pkcs11_pal.c ****         pkcs_control_block_data_image.data.pkcs_data[xHandle].Label.ulValueLen = pxLabel->ulValueLe
 319:D:/Work/DeviceTester/amazon-freertos/lib/pkcs11/portable/renesas/rza2m-gr-mango\aws_pkcs11_pal.c ****         pkcs_control_block_data_image.data.pkcs_data[xHandle].local_storage_index = total_stored_da
 320:D:/Work/DeviceTester/amazon-freertos/lib/pkcs11/portable/renesas/rza2m-gr-mango\aws_pkcs11_pal.c ****         pkcs_control_block_data_image.data.pkcs_data[xHandle].ulDataSize = ulDataSize;
 321:D:/Work/DeviceTester/amazon-freertos/lib/pkcs11/portable/renesas/rza2m-gr-mango\aws_pkcs11_pal.c ****         pkcs_control_block_data_image.data.pkcs_data[xHandle].status = PKCS_DATA_STATUS_REGISTERED;
 322:D:/Work/DeviceTester/amazon-freertos/lib/pkcs11/portable/renesas/rza2m-gr-mango\aws_pkcs11_pal.c ****         pkcs_control_block_data_image.data.pkcs_data[xHandle].xHandle = xHandle;
 323:D:/Work/DeviceTester/amazon-freertos/lib/pkcs11/portable/renesas/rza2m-gr-mango\aws_pkcs11_pal.c ****         memcpy(&pkcs_control_block_data_image.data.local_storage[total_stored_data_size], pucData, 
 324:D:/Work/DeviceTester/amazon-freertos/lib/pkcs11/portable/renesas/rza2m-gr-mango\aws_pkcs11_pal.c **** 
 325:D:/Work/DeviceTester/amazon-freertos/lib/pkcs11/portable/renesas/rza2m-gr-mango\aws_pkcs11_pal.c ****         /* update the hash */
 326:D:/Work/DeviceTester/amazon-freertos/lib/pkcs11/portable/renesas/rza2m-gr-mango\aws_pkcs11_pal.c ****         mbedtls_sha256_starts_ret(&ctx, 0); /* 0 means SHA256 context */
 327:D:/Work/DeviceTester/amazon-freertos/lib/pkcs11/portable/renesas/rza2m-gr-mango\aws_pkcs11_pal.c ****         mbedtls_sha256_update_ret(&ctx, (unsigned char *)&pkcs_control_block_data_image.data, sizeo
 328:D:/Work/DeviceTester/amazon-freertos/lib/pkcs11/portable/renesas/rza2m-gr-mango\aws_pkcs11_pal.c ****         mbedtls_sha256_finish_ret(&ctx, hash_sha256);
 329:D:/Work/DeviceTester/amazon-freertos/lib/pkcs11/portable/renesas/rza2m-gr-mango\aws_pkcs11_pal.c ****         memcpy(pkcs_control_block_data_image.hash_sha256, hash_sha256, sizeof(hash_sha256));
 330:D:/Work/DeviceTester/amazon-freertos/lib/pkcs11/portable/renesas/rza2m-gr-mango\aws_pkcs11_pal.c **** 
 331:D:/Work/DeviceTester/amazon-freertos/lib/pkcs11/portable/renesas/rza2m-gr-mango\aws_pkcs11_pal.c ****         /* update data from ram to storage */
 332:D:/Work/DeviceTester/amazon-freertos/lib/pkcs11/portable/renesas/rza2m-gr-mango\aws_pkcs11_pal.c ****         update_eeprom_data_from_image();
 333:D:/Work/DeviceTester/amazon-freertos/lib/pkcs11/portable/renesas/rza2m-gr-mango\aws_pkcs11_pal.c ****         update_eeprom_data_mirror_from_image();
 334:D:/Work/DeviceTester/amazon-freertos/lib/pkcs11/portable/renesas/rza2m-gr-mango\aws_pkcs11_pal.c ****     }
 335:D:/Work/DeviceTester/amazon-freertos/lib/pkcs11/portable/renesas/rza2m-gr-mango\aws_pkcs11_pal.c **** 
 336:D:/Work/DeviceTester/amazon-freertos/lib/pkcs11/portable/renesas/rza2m-gr-mango\aws_pkcs11_pal.c ****     return xHandle;
 337:D:/Work/DeviceTester/amazon-freertos/lib/pkcs11/portable/renesas/rza2m-gr-mango\aws_pkcs11_pal.c **** 
 338:D:/Work/DeviceTester/amazon-freertos/lib/pkcs11/portable/renesas/rza2m-gr-mango\aws_pkcs11_pal.c **** }
 339:D:/Work/DeviceTester/amazon-freertos/lib/pkcs11/portable/renesas/rza2m-gr-mango\aws_pkcs11_pal.c **** 
 340:D:/Work/DeviceTester/amazon-freertos/lib/pkcs11/portable/renesas/rza2m-gr-mango\aws_pkcs11_pal.c **** /**
 341:D:/Work/DeviceTester/amazon-freertos/lib/pkcs11/portable/renesas/rza2m-gr-mango\aws_pkcs11_pal.c **** * @brief Translates a PKCS #11 label into an object handle.
 342:D:/Work/DeviceTester/amazon-freertos/lib/pkcs11/portable/renesas/rza2m-gr-mango\aws_pkcs11_pal.c **** *
 343:D:/Work/DeviceTester/amazon-freertos/lib/pkcs11/portable/renesas/rza2m-gr-mango\aws_pkcs11_pal.c **** * Port-specific object handle retrieval.
 344:D:/Work/DeviceTester/amazon-freertos/lib/pkcs11/portable/renesas/rza2m-gr-mango\aws_pkcs11_pal.c **** *
 345:D:/Work/DeviceTester/amazon-freertos/lib/pkcs11/portable/renesas/rza2m-gr-mango\aws_pkcs11_pal.c **** *
 346:D:/Work/DeviceTester/amazon-freertos/lib/pkcs11/portable/renesas/rza2m-gr-mango\aws_pkcs11_pal.c **** * @param[in] pLabel         Pointer to the label of the object
 347:D:/Work/DeviceTester/amazon-freertos/lib/pkcs11/portable/renesas/rza2m-gr-mango\aws_pkcs11_pal.c **** *                           who's handle should be found.
 348:D:/Work/DeviceTester/amazon-freertos/lib/pkcs11/portable/renesas/rza2m-gr-mango\aws_pkcs11_pal.c **** * @param[in] usLength       The length of the label, in bytes.
 349:D:/Work/DeviceTester/amazon-freertos/lib/pkcs11/portable/renesas/rza2m-gr-mango\aws_pkcs11_pal.c **** *
 350:D:/Work/DeviceTester/amazon-freertos/lib/pkcs11/portable/renesas/rza2m-gr-mango\aws_pkcs11_pal.c **** * @return The object handle if operation was successful.
 351:D:/Work/DeviceTester/amazon-freertos/lib/pkcs11/portable/renesas/rza2m-gr-mango\aws_pkcs11_pal.c **** * Returns eInvalidHandle if unsuccessful.
 352:D:/Work/DeviceTester/amazon-freertos/lib/pkcs11/portable/renesas/rza2m-gr-mango\aws_pkcs11_pal.c **** */
 353:D:/Work/DeviceTester/amazon-freertos/lib/pkcs11/portable/renesas/rza2m-gr-mango\aws_pkcs11_pal.c **** CK_OBJECT_HANDLE PKCS11_PAL_FindObject( uint8_t * pLabel,
 354:D:/Work/DeviceTester/amazon-freertos/lib/pkcs11/portable/renesas/rza2m-gr-mango\aws_pkcs11_pal.c ****                                         uint8_t usLength )
 355:D:/Work/DeviceTester/amazon-freertos/lib/pkcs11/portable/renesas/rza2m-gr-mango\aws_pkcs11_pal.c **** {
 356:D:/Work/DeviceTester/amazon-freertos/lib/pkcs11/portable/renesas/rza2m-gr-mango\aws_pkcs11_pal.c ****     /* Avoid compiler warnings about unused variables. */
 357:D:/Work/DeviceTester/amazon-freertos/lib/pkcs11/portable/renesas/rza2m-gr-mango\aws_pkcs11_pal.c ****     UNUSED_VARIABLE(usLength);
 358:D:/Work/DeviceTester/amazon-freertos/lib/pkcs11/portable/renesas/rza2m-gr-mango\aws_pkcs11_pal.c **** 
 359:D:/Work/DeviceTester/amazon-freertos/lib/pkcs11/portable/renesas/rza2m-gr-mango\aws_pkcs11_pal.c ****     CK_OBJECT_HANDLE xHandle = eInvalidHandle;
 360:D:/Work/DeviceTester/amazon-freertos/lib/pkcs11/portable/renesas/rza2m-gr-mango\aws_pkcs11_pal.c ****     int i;
 361:D:/Work/DeviceTester/amazon-freertos/lib/pkcs11/portable/renesas/rza2m-gr-mango\aws_pkcs11_pal.c **** 
 362:D:/Work/DeviceTester/amazon-freertos/lib/pkcs11/portable/renesas/rza2m-gr-mango\aws_pkcs11_pal.c ****     for(i = 1; i < PKCS_OBJECT_HANDLES_NUM; i++)
 363:D:/Work/DeviceTester/amazon-freertos/lib/pkcs11/portable/renesas/rza2m-gr-mango\aws_pkcs11_pal.c ****     {
 364:D:/Work/DeviceTester/amazon-freertos/lib/pkcs11/portable/renesas/rza2m-gr-mango\aws_pkcs11_pal.c ****         if(!strcmp((char *)&object_handle_dictionary[i], (char *)pLabel))
 365:D:/Work/DeviceTester/amazon-freertos/lib/pkcs11/portable/renesas/rza2m-gr-mango\aws_pkcs11_pal.c ****         {
 366:D:/Work/DeviceTester/amazon-freertos/lib/pkcs11/portable/renesas/rza2m-gr-mango\aws_pkcs11_pal.c ****             if(pkcs_control_block_data_image.data.pkcs_data[i].status == PKCS_DATA_STATUS_REGISTERE
 367:D:/Work/DeviceTester/amazon-freertos/lib/pkcs11/portable/renesas/rza2m-gr-mango\aws_pkcs11_pal.c ****             {
 368:D:/Work/DeviceTester/amazon-freertos/lib/pkcs11/portable/renesas/rza2m-gr-mango\aws_pkcs11_pal.c ****                 xHandle = i;
 369:D:/Work/DeviceTester/amazon-freertos/lib/pkcs11/portable/renesas/rza2m-gr-mango\aws_pkcs11_pal.c ****             }
 370:D:/Work/DeviceTester/amazon-freertos/lib/pkcs11/portable/renesas/rza2m-gr-mango\aws_pkcs11_pal.c ****         }
 371:D:/Work/DeviceTester/amazon-freertos/lib/pkcs11/portable/renesas/rza2m-gr-mango\aws_pkcs11_pal.c ****     }
 372:D:/Work/DeviceTester/amazon-freertos/lib/pkcs11/portable/renesas/rza2m-gr-mango\aws_pkcs11_pal.c **** 
 373:D:/Work/DeviceTester/amazon-freertos/lib/pkcs11/portable/renesas/rza2m-gr-mango\aws_pkcs11_pal.c ****     return xHandle;
 374:D:/Work/DeviceTester/amazon-freertos/lib/pkcs11/portable/renesas/rza2m-gr-mango\aws_pkcs11_pal.c **** }
 375:D:/Work/DeviceTester/amazon-freertos/lib/pkcs11/portable/renesas/rza2m-gr-mango\aws_pkcs11_pal.c **** 
 376:D:/Work/DeviceTester/amazon-freertos/lib/pkcs11/portable/renesas/rza2m-gr-mango\aws_pkcs11_pal.c **** /**
 377:D:/Work/DeviceTester/amazon-freertos/lib/pkcs11/portable/renesas/rza2m-gr-mango\aws_pkcs11_pal.c **** * @brief Gets the value of an object in storage, by handle.
 378:D:/Work/DeviceTester/amazon-freertos/lib/pkcs11/portable/renesas/rza2m-gr-mango\aws_pkcs11_pal.c **** *
 379:D:/Work/DeviceTester/amazon-freertos/lib/pkcs11/portable/renesas/rza2m-gr-mango\aws_pkcs11_pal.c **** * Port-specific file access for cryptographic information.
 380:D:/Work/DeviceTester/amazon-freertos/lib/pkcs11/portable/renesas/rza2m-gr-mango\aws_pkcs11_pal.c **** *
 381:D:/Work/DeviceTester/amazon-freertos/lib/pkcs11/portable/renesas/rza2m-gr-mango\aws_pkcs11_pal.c **** * This call dynamically allocates the buffer which object value
 382:D:/Work/DeviceTester/amazon-freertos/lib/pkcs11/portable/renesas/rza2m-gr-mango\aws_pkcs11_pal.c **** * data is copied into.  PKCS11_PAL_GetObjectValueCleanup()
 383:D:/Work/DeviceTester/amazon-freertos/lib/pkcs11/portable/renesas/rza2m-gr-mango\aws_pkcs11_pal.c **** * should be called after each use to free the dynamically allocated
 384:D:/Work/DeviceTester/amazon-freertos/lib/pkcs11/portable/renesas/rza2m-gr-mango\aws_pkcs11_pal.c **** * buffer.
 385:D:/Work/DeviceTester/amazon-freertos/lib/pkcs11/portable/renesas/rza2m-gr-mango\aws_pkcs11_pal.c **** *
 386:D:/Work/DeviceTester/amazon-freertos/lib/pkcs11/portable/renesas/rza2m-gr-mango\aws_pkcs11_pal.c **** * @sa PKCS11_PAL_GetObjectValueCleanup
 387:D:/Work/DeviceTester/amazon-freertos/lib/pkcs11/portable/renesas/rza2m-gr-mango\aws_pkcs11_pal.c **** *
 388:D:/Work/DeviceTester/amazon-freertos/lib/pkcs11/portable/renesas/rza2m-gr-mango\aws_pkcs11_pal.c **** * @param[in] pcFileName    The name of the file to be read.
 389:D:/Work/DeviceTester/amazon-freertos/lib/pkcs11/portable/renesas/rza2m-gr-mango\aws_pkcs11_pal.c **** * @param[out] ppucData     Pointer to buffer for file data.
 390:D:/Work/DeviceTester/amazon-freertos/lib/pkcs11/portable/renesas/rza2m-gr-mango\aws_pkcs11_pal.c **** * @param[out] pulDataSize  Size (in bytes) of data located in file.
 391:D:/Work/DeviceTester/amazon-freertos/lib/pkcs11/portable/renesas/rza2m-gr-mango\aws_pkcs11_pal.c **** * @param[out] pIsPrivate   Boolean indicating if value is private (CK_TRUE)
 392:D:/Work/DeviceTester/amazon-freertos/lib/pkcs11/portable/renesas/rza2m-gr-mango\aws_pkcs11_pal.c **** *                          or exportable (CK_FALSE)
 393:D:/Work/DeviceTester/amazon-freertos/lib/pkcs11/portable/renesas/rza2m-gr-mango\aws_pkcs11_pal.c **** *
 394:D:/Work/DeviceTester/amazon-freertos/lib/pkcs11/portable/renesas/rza2m-gr-mango\aws_pkcs11_pal.c **** * @return CKR_OK if operation was successful.  CKR_KEY_HANDLE_INVALID if
 395:D:/Work/DeviceTester/amazon-freertos/lib/pkcs11/portable/renesas/rza2m-gr-mango\aws_pkcs11_pal.c **** * no such object handle was found, CKR_DEVICE_MEMORY if memory for
 396:D:/Work/DeviceTester/amazon-freertos/lib/pkcs11/portable/renesas/rza2m-gr-mango\aws_pkcs11_pal.c **** * buffer could not be allocated, CKR_FUNCTION_FAILED for device driver
 397:D:/Work/DeviceTester/amazon-freertos/lib/pkcs11/portable/renesas/rza2m-gr-mango\aws_pkcs11_pal.c **** * error.
 398:D:/Work/DeviceTester/amazon-freertos/lib/pkcs11/portable/renesas/rza2m-gr-mango\aws_pkcs11_pal.c **** */
 399:D:/Work/DeviceTester/amazon-freertos/lib/pkcs11/portable/renesas/rza2m-gr-mango\aws_pkcs11_pal.c **** CK_RV PKCS11_PAL_GetObjectValue( CK_OBJECT_HANDLE xHandle,
 400:D:/Work/DeviceTester/amazon-freertos/lib/pkcs11/portable/renesas/rza2m-gr-mango\aws_pkcs11_pal.c ****                                  uint8_t ** ppucData,
 401:D:/Work/DeviceTester/amazon-freertos/lib/pkcs11/portable/renesas/rza2m-gr-mango\aws_pkcs11_pal.c ****                                  uint32_t * pulDataSize,
 402:D:/Work/DeviceTester/amazon-freertos/lib/pkcs11/portable/renesas/rza2m-gr-mango\aws_pkcs11_pal.c ****                                  CK_BBOOL * pIsPrivate )
 403:D:/Work/DeviceTester/amazon-freertos/lib/pkcs11/portable/renesas/rza2m-gr-mango\aws_pkcs11_pal.c **** {
 404:D:/Work/DeviceTester/amazon-freertos/lib/pkcs11/portable/renesas/rza2m-gr-mango\aws_pkcs11_pal.c ****     CK_RV xReturn = CKR_FUNCTION_FAILED;
 405:D:/Work/DeviceTester/amazon-freertos/lib/pkcs11/portable/renesas/rza2m-gr-mango\aws_pkcs11_pal.c ****     CK_OBJECT_HANDLE xHandleStorage = xHandle;
 406:D:/Work/DeviceTester/amazon-freertos/lib/pkcs11/portable/renesas/rza2m-gr-mango\aws_pkcs11_pal.c **** 
 407:D:/Work/DeviceTester/amazon-freertos/lib/pkcs11/portable/renesas/rza2m-gr-mango\aws_pkcs11_pal.c **** 
 408:D:/Work/DeviceTester/amazon-freertos/lib/pkcs11/portable/renesas/rza2m-gr-mango\aws_pkcs11_pal.c ****     if (xHandleStorage == eAwsDevicePublicKey)
 409:D:/Work/DeviceTester/amazon-freertos/lib/pkcs11/portable/renesas/rza2m-gr-mango\aws_pkcs11_pal.c ****     {
 410:D:/Work/DeviceTester/amazon-freertos/lib/pkcs11/portable/renesas/rza2m-gr-mango\aws_pkcs11_pal.c ****         xHandleStorage = eAwsDevicePrivateKey;
 411:D:/Work/DeviceTester/amazon-freertos/lib/pkcs11/portable/renesas/rza2m-gr-mango\aws_pkcs11_pal.c ****     }
 412:D:/Work/DeviceTester/amazon-freertos/lib/pkcs11/portable/renesas/rza2m-gr-mango\aws_pkcs11_pal.c **** 
 413:D:/Work/DeviceTester/amazon-freertos/lib/pkcs11/portable/renesas/rza2m-gr-mango\aws_pkcs11_pal.c **** 
 414:D:/Work/DeviceTester/amazon-freertos/lib/pkcs11/portable/renesas/rza2m-gr-mango\aws_pkcs11_pal.c ****     if (xHandle != eInvalidHandle)
 415:D:/Work/DeviceTester/amazon-freertos/lib/pkcs11/portable/renesas/rza2m-gr-mango\aws_pkcs11_pal.c ****     {
 416:D:/Work/DeviceTester/amazon-freertos/lib/pkcs11/portable/renesas/rza2m-gr-mango\aws_pkcs11_pal.c ****         *ppucData = &pkcs_control_block_data_image.data.local_storage[pkcs_control_block_data_image
 417:D:/Work/DeviceTester/amazon-freertos/lib/pkcs11/portable/renesas/rza2m-gr-mango\aws_pkcs11_pal.c ****         *pulDataSize = pkcs_control_block_data_image.data.pkcs_data[xHandleStorage].ulDataSize;
 418:D:/Work/DeviceTester/amazon-freertos/lib/pkcs11/portable/renesas/rza2m-gr-mango\aws_pkcs11_pal.c **** 
 419:D:/Work/DeviceTester/amazon-freertos/lib/pkcs11/portable/renesas/rza2m-gr-mango\aws_pkcs11_pal.c ****         if (xHandle == eAwsDevicePrivateKey)
 420:D:/Work/DeviceTester/amazon-freertos/lib/pkcs11/portable/renesas/rza2m-gr-mango\aws_pkcs11_pal.c ****         {
 421:D:/Work/DeviceTester/amazon-freertos/lib/pkcs11/portable/renesas/rza2m-gr-mango\aws_pkcs11_pal.c ****             *pIsPrivate = CK_TRUE;
 422:D:/Work/DeviceTester/amazon-freertos/lib/pkcs11/portable/renesas/rza2m-gr-mango\aws_pkcs11_pal.c ****         }
 423:D:/Work/DeviceTester/amazon-freertos/lib/pkcs11/portable/renesas/rza2m-gr-mango\aws_pkcs11_pal.c ****         else
 424:D:/Work/DeviceTester/amazon-freertos/lib/pkcs11/portable/renesas/rza2m-gr-mango\aws_pkcs11_pal.c ****         {
 425:D:/Work/DeviceTester/amazon-freertos/lib/pkcs11/portable/renesas/rza2m-gr-mango\aws_pkcs11_pal.c ****             *pIsPrivate = CK_FALSE;
 426:D:/Work/DeviceTester/amazon-freertos/lib/pkcs11/portable/renesas/rza2m-gr-mango\aws_pkcs11_pal.c ****         }
 427:D:/Work/DeviceTester/amazon-freertos/lib/pkcs11/portable/renesas/rza2m-gr-mango\aws_pkcs11_pal.c ****         xReturn = CKR_OK;
 428:D:/Work/DeviceTester/amazon-freertos/lib/pkcs11/portable/renesas/rza2m-gr-mango\aws_pkcs11_pal.c ****     }
 429:D:/Work/DeviceTester/amazon-freertos/lib/pkcs11/portable/renesas/rza2m-gr-mango\aws_pkcs11_pal.c **** 
 430:D:/Work/DeviceTester/amazon-freertos/lib/pkcs11/portable/renesas/rza2m-gr-mango\aws_pkcs11_pal.c ****     return xReturn;
 431:D:/Work/DeviceTester/amazon-freertos/lib/pkcs11/portable/renesas/rza2m-gr-mango\aws_pkcs11_pal.c **** 
 432:D:/Work/DeviceTester/amazon-freertos/lib/pkcs11/portable/renesas/rza2m-gr-mango\aws_pkcs11_pal.c **** }
 433:D:/Work/DeviceTester/amazon-freertos/lib/pkcs11/portable/renesas/rza2m-gr-mango\aws_pkcs11_pal.c **** 
 434:D:/Work/DeviceTester/amazon-freertos/lib/pkcs11/portable/renesas/rza2m-gr-mango\aws_pkcs11_pal.c **** 
 435:D:/Work/DeviceTester/amazon-freertos/lib/pkcs11/portable/renesas/rza2m-gr-mango\aws_pkcs11_pal.c **** /**
 436:D:/Work/DeviceTester/amazon-freertos/lib/pkcs11/portable/renesas/rza2m-gr-mango\aws_pkcs11_pal.c **** * @brief Cleanup after PKCS11_GetObjectValue().
 437:D:/Work/DeviceTester/amazon-freertos/lib/pkcs11/portable/renesas/rza2m-gr-mango\aws_pkcs11_pal.c **** *
 438:D:/Work/DeviceTester/amazon-freertos/lib/pkcs11/portable/renesas/rza2m-gr-mango\aws_pkcs11_pal.c **** * @param[in] pucData       The buffer to free.
 439:D:/Work/DeviceTester/amazon-freertos/lib/pkcs11/portable/renesas/rza2m-gr-mango\aws_pkcs11_pal.c **** *                          (*ppucData from PKCS11_PAL_GetObjectValue())
 440:D:/Work/DeviceTester/amazon-freertos/lib/pkcs11/portable/renesas/rza2m-gr-mango\aws_pkcs11_pal.c **** * @param[in] ulDataSize    The length of the buffer to free.
 441:D:/Work/DeviceTester/amazon-freertos/lib/pkcs11/portable/renesas/rza2m-gr-mango\aws_pkcs11_pal.c **** *                          (*pulDataSize from PKCS11_PAL_GetObjectValue())
 442:D:/Work/DeviceTester/amazon-freertos/lib/pkcs11/portable/renesas/rza2m-gr-mango\aws_pkcs11_pal.c **** */
 443:D:/Work/DeviceTester/amazon-freertos/lib/pkcs11/portable/renesas/rza2m-gr-mango\aws_pkcs11_pal.c **** void PKCS11_PAL_GetObjectValueCleanup( uint8_t * pucData,
 444:D:/Work/DeviceTester/amazon-freertos/lib/pkcs11/portable/renesas/rza2m-gr-mango\aws_pkcs11_pal.c ****                                        uint32_t ulDataSize )
 445:D:/Work/DeviceTester/amazon-freertos/lib/pkcs11/portable/renesas/rza2m-gr-mango\aws_pkcs11_pal.c **** {
 446:D:/Work/DeviceTester/amazon-freertos/lib/pkcs11/portable/renesas/rza2m-gr-mango\aws_pkcs11_pal.c ****     /* Avoid compiler warnings about unused variables. */
 447:D:/Work/DeviceTester/amazon-freertos/lib/pkcs11/portable/renesas/rza2m-gr-mango\aws_pkcs11_pal.c ****     UNUSED_VARIABLE(pucData);
 448:D:/Work/DeviceTester/amazon-freertos/lib/pkcs11/portable/renesas/rza2m-gr-mango\aws_pkcs11_pal.c ****     UNUSED_VARIABLE(ulDataSize);
 449:D:/Work/DeviceTester/amazon-freertos/lib/pkcs11/portable/renesas/rza2m-gr-mango\aws_pkcs11_pal.c **** 
 450:D:/Work/DeviceTester/amazon-freertos/lib/pkcs11/portable/renesas/rza2m-gr-mango\aws_pkcs11_pal.c ****     /* todo: nothing to do in now. Now, pkcs_data exists as static. I will fix this function when I
 451:D:/Work/DeviceTester/amazon-freertos/lib/pkcs11/portable/renesas/rza2m-gr-mango\aws_pkcs11_pal.c **** }
 452:D:/Work/DeviceTester/amazon-freertos/lib/pkcs11/portable/renesas/rza2m-gr-mango\aws_pkcs11_pal.c **** 
 453:D:/Work/DeviceTester/amazon-freertos/lib/pkcs11/portable/renesas/rza2m-gr-mango\aws_pkcs11_pal.c **** static void update_eeprom_data_from_image(void)
 454:D:/Work/DeviceTester/amazon-freertos/lib/pkcs11/portable/renesas/rza2m-gr-mango\aws_pkcs11_pal.c **** {
 455:D:/Work/DeviceTester/amazon-freertos/lib/pkcs11/portable/renesas/rza2m-gr-mango\aws_pkcs11_pal.c ****     uint32_t required_eeprom_block_num;
 456:D:/Work/DeviceTester/amazon-freertos/lib/pkcs11/portable/renesas/rza2m-gr-mango\aws_pkcs11_pal.c ****     int_t flash_error_code = NO_ERROR;
 457:D:/Work/DeviceTester/amazon-freertos/lib/pkcs11/portable/renesas/rza2m-gr-mango\aws_pkcs11_pal.c **** 
 458:D:/Work/DeviceTester/amazon-freertos/lib/pkcs11/portable/renesas/rza2m-gr-mango\aws_pkcs11_pal.c **** //    configPRINTF(("write OCTA Flash(main)...\r\n"));
 459:D:/Work/DeviceTester/amazon-freertos/lib/pkcs11/portable/renesas/rza2m-gr-mango\aws_pkcs11_pal.c ****     
 460:D:/Work/DeviceTester/amazon-freertos/lib/pkcs11/portable/renesas/rza2m-gr-mango\aws_pkcs11_pal.c ****     flash_error_code = write_octaflash_data(PKCS_STORAGE_ADDRESS, &pkcs_control_block_data_image, s
 461:D:/Work/DeviceTester/amazon-freertos/lib/pkcs11/portable/renesas/rza2m-gr-mango\aws_pkcs11_pal.c ****     if(NO_ERROR == flash_error_code)
 462:D:/Work/DeviceTester/amazon-freertos/lib/pkcs11/portable/renesas/rza2m-gr-mango\aws_pkcs11_pal.c ****     {
 463:D:/Work/DeviceTester/amazon-freertos/lib/pkcs11/portable/renesas/rza2m-gr-mango\aws_pkcs11_pal.c ****         memcpy((void *)&pkcs_control_block_data, (void*)PKCS_STORAGE_ADDRESS, sizeof(pkcs_control_b
 464:D:/Work/DeviceTester/amazon-freertos/lib/pkcs11/portable/renesas/rza2m-gr-mango\aws_pkcs11_pal.c **** //        configPRINTF(("OK\r\n"));
 465:D:/Work/DeviceTester/amazon-freertos/lib/pkcs11/portable/renesas/rza2m-gr-mango\aws_pkcs11_pal.c ****     }
 466:D:/Work/DeviceTester/amazon-freertos/lib/pkcs11/portable/renesas/rza2m-gr-mango\aws_pkcs11_pal.c ****     else
 467:D:/Work/DeviceTester/amazon-freertos/lib/pkcs11/portable/renesas/rza2m-gr-mango\aws_pkcs11_pal.c ****     {
 468:D:/Work/DeviceTester/amazon-freertos/lib/pkcs11/portable/renesas/rza2m-gr-mango\aws_pkcs11_pal.c **** //        configPRINTF(("Failed\r\n"));
 469:D:/Work/DeviceTester/amazon-freertos/lib/pkcs11/portable/renesas/rza2m-gr-mango\aws_pkcs11_pal.c **** //        configPRINTF(("Sample_RIIC_Eeprom_Write() returns error code = %d.\r\n", flash_error_code
 470:D:/Work/DeviceTester/amazon-freertos/lib/pkcs11/portable/renesas/rza2m-gr-mango\aws_pkcs11_pal.c ****         return;
 471:D:/Work/DeviceTester/amazon-freertos/lib/pkcs11/portable/renesas/rza2m-gr-mango\aws_pkcs11_pal.c ****     }
 472:D:/Work/DeviceTester/amazon-freertos/lib/pkcs11/portable/renesas/rza2m-gr-mango\aws_pkcs11_pal.c **** 
 473:D:/Work/DeviceTester/amazon-freertos/lib/pkcs11/portable/renesas/rza2m-gr-mango\aws_pkcs11_pal.c ****     return;
 474:D:/Work/DeviceTester/amazon-freertos/lib/pkcs11/portable/renesas/rza2m-gr-mango\aws_pkcs11_pal.c **** }
 475:D:/Work/DeviceTester/amazon-freertos/lib/pkcs11/portable/renesas/rza2m-gr-mango\aws_pkcs11_pal.c **** 
 476:D:/Work/DeviceTester/amazon-freertos/lib/pkcs11/portable/renesas/rza2m-gr-mango\aws_pkcs11_pal.c **** static void update_eeprom_data_mirror_from_image(void)
 477:D:/Work/DeviceTester/amazon-freertos/lib/pkcs11/portable/renesas/rza2m-gr-mango\aws_pkcs11_pal.c **** {
 478:D:/Work/DeviceTester/amazon-freertos/lib/pkcs11/portable/renesas/rza2m-gr-mango\aws_pkcs11_pal.c ****     uint32_t required_eeprom_block_num;
 479:D:/Work/DeviceTester/amazon-freertos/lib/pkcs11/portable/renesas/rza2m-gr-mango\aws_pkcs11_pal.c ****     int_t flash_error_code = NO_ERROR;
 480:D:/Work/DeviceTester/amazon-freertos/lib/pkcs11/portable/renesas/rza2m-gr-mango\aws_pkcs11_pal.c **** 
 481:D:/Work/DeviceTester/amazon-freertos/lib/pkcs11/portable/renesas/rza2m-gr-mango\aws_pkcs11_pal.c **** //    configPRINTF(("write OCTA Flash(mirror)...\r\n"));
 482:D:/Work/DeviceTester/amazon-freertos/lib/pkcs11/portable/renesas/rza2m-gr-mango\aws_pkcs11_pal.c ****     flash_error_code = write_octaflash_data(PKCS_STORAGE_ADDRESS_MIRROR, &pkcs_control_block_data_i
 483:D:/Work/DeviceTester/amazon-freertos/lib/pkcs11/portable/renesas/rza2m-gr-mango\aws_pkcs11_pal.c ****     if(NO_ERROR == flash_error_code)
 484:D:/Work/DeviceTester/amazon-freertos/lib/pkcs11/portable/renesas/rza2m-gr-mango\aws_pkcs11_pal.c ****     {
 485:D:/Work/DeviceTester/amazon-freertos/lib/pkcs11/portable/renesas/rza2m-gr-mango\aws_pkcs11_pal.c ****         memcpy((void *)&pkcs_control_block_data_mirror, PKCS_STORAGE_ADDRESS_MIRROR, sizeof(pkcs_co
 486:D:/Work/DeviceTester/amazon-freertos/lib/pkcs11/portable/renesas/rza2m-gr-mango\aws_pkcs11_pal.c **** //        configPRINTF(("OK\r\n"));
 487:D:/Work/DeviceTester/amazon-freertos/lib/pkcs11/portable/renesas/rza2m-gr-mango\aws_pkcs11_pal.c ****     }
 488:D:/Work/DeviceTester/amazon-freertos/lib/pkcs11/portable/renesas/rza2m-gr-mango\aws_pkcs11_pal.c ****     else
 489:D:/Work/DeviceTester/amazon-freertos/lib/pkcs11/portable/renesas/rza2m-gr-mango\aws_pkcs11_pal.c ****     {
 490:D:/Work/DeviceTester/amazon-freertos/lib/pkcs11/portable/renesas/rza2m-gr-mango\aws_pkcs11_pal.c **** //        configPRINTF(("Failed\r\n"));
 491:D:/Work/DeviceTester/amazon-freertos/lib/pkcs11/portable/renesas/rza2m-gr-mango\aws_pkcs11_pal.c **** //        configPRINTF(("Sample_RIIC_Eeprom_Write() returns error code = %d.\r\n", flash_error_code
 492:D:/Work/DeviceTester/amazon-freertos/lib/pkcs11/portable/renesas/rza2m-gr-mango\aws_pkcs11_pal.c ****         return;
 493:D:/Work/DeviceTester/amazon-freertos/lib/pkcs11/portable/renesas/rza2m-gr-mango\aws_pkcs11_pal.c ****     }
 494:D:/Work/DeviceTester/amazon-freertos/lib/pkcs11/portable/renesas/rza2m-gr-mango\aws_pkcs11_pal.c **** 
 495:D:/Work/DeviceTester/amazon-freertos/lib/pkcs11/portable/renesas/rza2m-gr-mango\aws_pkcs11_pal.c ****     if(!memcmp(&pkcs_control_block_data, &pkcs_control_block_data_mirror, sizeof(PKCS_CONTROL_BLOCK
 496:D:/Work/DeviceTester/amazon-freertos/lib/pkcs11/portable/renesas/rza2m-gr-mango\aws_pkcs11_pal.c ****     {
 497:D:/Work/DeviceTester/amazon-freertos/lib/pkcs11/portable/renesas/rza2m-gr-mango\aws_pkcs11_pal.c **** //        configPRINTF(("OCTA Flash setting OK.\r\n"));
 498:D:/Work/DeviceTester/amazon-freertos/lib/pkcs11/portable/renesas/rza2m-gr-mango\aws_pkcs11_pal.c ****     }
 499:D:/Work/DeviceTester/amazon-freertos/lib/pkcs11/portable/renesas/rza2m-gr-mango\aws_pkcs11_pal.c ****     else
 500:D:/Work/DeviceTester/amazon-freertos/lib/pkcs11/portable/renesas/rza2m-gr-mango\aws_pkcs11_pal.c ****     {
 501:D:/Work/DeviceTester/amazon-freertos/lib/pkcs11/portable/renesas/rza2m-gr-mango\aws_pkcs11_pal.c **** //        configPRINTF(("OCTA Flash setting Failed.\r\n"));
 502:D:/Work/DeviceTester/amazon-freertos/lib/pkcs11/portable/renesas/rza2m-gr-mango\aws_pkcs11_pal.c ****         return;
 503:D:/Work/DeviceTester/amazon-freertos/lib/pkcs11/portable/renesas/rza2m-gr-mango\aws_pkcs11_pal.c ****     }
 504:D:/Work/DeviceTester/amazon-freertos/lib/pkcs11/portable/renesas/rza2m-gr-mango\aws_pkcs11_pal.c ****     return;
 505:D:/Work/DeviceTester/amazon-freertos/lib/pkcs11/portable/renesas/rza2m-gr-mango\aws_pkcs11_pal.c **** }
 506:D:/Work/DeviceTester/amazon-freertos/lib/pkcs11/portable/renesas/rza2m-gr-mango\aws_pkcs11_pal.c **** 
 507:D:/Work/DeviceTester/amazon-freertos/lib/pkcs11/portable/renesas/rza2m-gr-mango\aws_pkcs11_pal.c **** static int_t check_eeprom_area(uint32_t retry_counter)
 508:D:/Work/DeviceTester/amazon-freertos/lib/pkcs11/portable/renesas/rza2m-gr-mango\aws_pkcs11_pal.c **** {
 509:D:/Work/DeviceTester/amazon-freertos/lib/pkcs11/portable/renesas/rza2m-gr-mango\aws_pkcs11_pal.c ****     uint8_t hash_sha256[PKCS_SHA256_LENGTH];
 510:D:/Work/DeviceTester/amazon-freertos/lib/pkcs11/portable/renesas/rza2m-gr-mango\aws_pkcs11_pal.c ****     mbedtls_sha256_context ctx;
 511:D:/Work/DeviceTester/amazon-freertos/lib/pkcs11/portable/renesas/rza2m-gr-mango\aws_pkcs11_pal.c ****     int_t ret = NO_ERROR;
 512:D:/Work/DeviceTester/amazon-freertos/lib/pkcs11/portable/renesas/rza2m-gr-mango\aws_pkcs11_pal.c **** 
 513:D:/Work/DeviceTester/amazon-freertos/lib/pkcs11/portable/renesas/rza2m-gr-mango\aws_pkcs11_pal.c ****     mbedtls_sha256_init(&ctx);
 514:D:/Work/DeviceTester/amazon-freertos/lib/pkcs11/portable/renesas/rza2m-gr-mango\aws_pkcs11_pal.c **** 
 515:D:/Work/DeviceTester/amazon-freertos/lib/pkcs11/portable/renesas/rza2m-gr-mango\aws_pkcs11_pal.c ****     if(retry_counter)
 516:D:/Work/DeviceTester/amazon-freertos/lib/pkcs11/portable/renesas/rza2m-gr-mango\aws_pkcs11_pal.c ****     {
 517:D:/Work/DeviceTester/amazon-freertos/lib/pkcs11/portable/renesas/rza2m-gr-mango\aws_pkcs11_pal.c **** //        configPRINTF(("recover retry count = %d.\r\n", retry_counter));
 518:D:/Work/DeviceTester/amazon-freertos/lib/pkcs11/portable/renesas/rza2m-gr-mango\aws_pkcs11_pal.c ****         if(retry_counter == MAX_CHECK_EEPROM_AREA_RETRY_COUNT)
 519:D:/Work/DeviceTester/amazon-freertos/lib/pkcs11/portable/renesas/rza2m-gr-mango\aws_pkcs11_pal.c ****         {
 520:D:/Work/DeviceTester/amazon-freertos/lib/pkcs11/portable/renesas/rza2m-gr-mango\aws_pkcs11_pal.c **** //            configPRINTF(("retry over the limit.\r\n"));
 521:D:/Work/DeviceTester/amazon-freertos/lib/pkcs11/portable/renesas/rza2m-gr-mango\aws_pkcs11_pal.c ****             while(1);
 522:D:/Work/DeviceTester/amazon-freertos/lib/pkcs11/portable/renesas/rza2m-gr-mango\aws_pkcs11_pal.c ****         }
 523:D:/Work/DeviceTester/amazon-freertos/lib/pkcs11/portable/renesas/rza2m-gr-mango\aws_pkcs11_pal.c ****     }
 524:D:/Work/DeviceTester/amazon-freertos/lib/pkcs11/portable/renesas/rza2m-gr-mango\aws_pkcs11_pal.c **** //    configPRINTF(("OCTA Flash(main) hash check...\r\n"));
 525:D:/Work/DeviceTester/amazon-freertos/lib/pkcs11/portable/renesas/rza2m-gr-mango\aws_pkcs11_pal.c ****     mbedtls_sha256_starts_ret(&ctx, 0); /* 0 means SHA256 context */
 526:D:/Work/DeviceTester/amazon-freertos/lib/pkcs11/portable/renesas/rza2m-gr-mango\aws_pkcs11_pal.c ****     mbedtls_sha256_update_ret(&ctx, (unsigned char *)&pkcs_control_block_data.data, sizeof(pkcs_con
 527:D:/Work/DeviceTester/amazon-freertos/lib/pkcs11/portable/renesas/rza2m-gr-mango\aws_pkcs11_pal.c ****     mbedtls_sha256_finish_ret(&ctx, hash_sha256);
 528:D:/Work/DeviceTester/amazon-freertos/lib/pkcs11/portable/renesas/rza2m-gr-mango\aws_pkcs11_pal.c ****     if(!memcmp(pkcs_control_block_data.hash_sha256, hash_sha256, sizeof(hash_sha256)))
 529:D:/Work/DeviceTester/amazon-freertos/lib/pkcs11/portable/renesas/rza2m-gr-mango\aws_pkcs11_pal.c ****     {
 530:D:/Work/DeviceTester/amazon-freertos/lib/pkcs11/portable/renesas/rza2m-gr-mango\aws_pkcs11_pal.c **** //        configPRINTF(("OK\r\n"));
 531:D:/Work/DeviceTester/amazon-freertos/lib/pkcs11/portable/renesas/rza2m-gr-mango\aws_pkcs11_pal.c **** //        configPRINTF(("OCTA Flash(mirror) hash check...\r\n"));
 532:D:/Work/DeviceTester/amazon-freertos/lib/pkcs11/portable/renesas/rza2m-gr-mango\aws_pkcs11_pal.c ****         mbedtls_sha256_starts_ret(&ctx, 0); /* 0 means SHA256 context */
 533:D:/Work/DeviceTester/amazon-freertos/lib/pkcs11/portable/renesas/rza2m-gr-mango\aws_pkcs11_pal.c ****         mbedtls_sha256_update_ret(&ctx, (unsigned char *)&pkcs_control_block_data_mirror.data, size
 534:D:/Work/DeviceTester/amazon-freertos/lib/pkcs11/portable/renesas/rza2m-gr-mango\aws_pkcs11_pal.c ****         mbedtls_sha256_finish_ret(&ctx, hash_sha256);
 535:D:/Work/DeviceTester/amazon-freertos/lib/pkcs11/portable/renesas/rza2m-gr-mango\aws_pkcs11_pal.c ****         if(!memcmp(pkcs_control_block_data_mirror.hash_sha256, hash_sha256, sizeof(hash_sha256)))
 536:D:/Work/DeviceTester/amazon-freertos/lib/pkcs11/portable/renesas/rza2m-gr-mango\aws_pkcs11_pal.c ****         {
 537:D:/Work/DeviceTester/amazon-freertos/lib/pkcs11/portable/renesas/rza2m-gr-mango\aws_pkcs11_pal.c **** //            configPRINTF(("OK\r\n"));
 538:D:/Work/DeviceTester/amazon-freertos/lib/pkcs11/portable/renesas/rza2m-gr-mango\aws_pkcs11_pal.c ****         }
 539:D:/Work/DeviceTester/amazon-freertos/lib/pkcs11/portable/renesas/rza2m-gr-mango\aws_pkcs11_pal.c ****         else
 540:D:/Work/DeviceTester/amazon-freertos/lib/pkcs11/portable/renesas/rza2m-gr-mango\aws_pkcs11_pal.c ****         {
 541:D:/Work/DeviceTester/amazon-freertos/lib/pkcs11/portable/renesas/rza2m-gr-mango\aws_pkcs11_pal.c **** //            configPRINTF(("Failed\r\n"));
 542:D:/Work/DeviceTester/amazon-freertos/lib/pkcs11/portable/renesas/rza2m-gr-mango\aws_pkcs11_pal.c **** //            configPRINTF(("recover mirror from main.\r\n"));
 543:D:/Work/DeviceTester/amazon-freertos/lib/pkcs11/portable/renesas/rza2m-gr-mango\aws_pkcs11_pal.c ****             memcpy(&pkcs_control_block_data_image, (void *)&pkcs_control_block_data, sizeof(pkcs_co
 544:D:/Work/DeviceTester/amazon-freertos/lib/pkcs11/portable/renesas/rza2m-gr-mango\aws_pkcs11_pal.c ****             update_eeprom_data_mirror_from_image();
 545:D:/Work/DeviceTester/amazon-freertos/lib/pkcs11/portable/renesas/rza2m-gr-mango\aws_pkcs11_pal.c ****             if (retry_counter == CHECK_EEPROM_DATA_MODE) {
 546:D:/Work/DeviceTester/amazon-freertos/lib/pkcs11/portable/renesas/rza2m-gr-mango\aws_pkcs11_pal.c ****                 retry_counter = 0;
 547:D:/Work/DeviceTester/amazon-freertos/lib/pkcs11/portable/renesas/rza2m-gr-mango\aws_pkcs11_pal.c ****             }
 548:D:/Work/DeviceTester/amazon-freertos/lib/pkcs11/portable/renesas/rza2m-gr-mango\aws_pkcs11_pal.c ****             ret = check_eeprom_area(retry_counter + 1);
 549:D:/Work/DeviceTester/amazon-freertos/lib/pkcs11/portable/renesas/rza2m-gr-mango\aws_pkcs11_pal.c ****         }
 550:D:/Work/DeviceTester/amazon-freertos/lib/pkcs11/portable/renesas/rza2m-gr-mango\aws_pkcs11_pal.c ****     }
 551:D:/Work/DeviceTester/amazon-freertos/lib/pkcs11/portable/renesas/rza2m-gr-mango\aws_pkcs11_pal.c ****     else
 552:D:/Work/DeviceTester/amazon-freertos/lib/pkcs11/portable/renesas/rza2m-gr-mango\aws_pkcs11_pal.c ****     {
 553:D:/Work/DeviceTester/amazon-freertos/lib/pkcs11/portable/renesas/rza2m-gr-mango\aws_pkcs11_pal.c **** //        configPRINTF(("Failed\r\n"));
 554:D:/Work/DeviceTester/amazon-freertos/lib/pkcs11/portable/renesas/rza2m-gr-mango\aws_pkcs11_pal.c **** //        configPRINTF(("OCTA Flash(mirror) hash check...\r\n"));
 555:D:/Work/DeviceTester/amazon-freertos/lib/pkcs11/portable/renesas/rza2m-gr-mango\aws_pkcs11_pal.c ****         mbedtls_sha256_starts_ret(&ctx, 0); /* 0 means SHA256 context */
 556:D:/Work/DeviceTester/amazon-freertos/lib/pkcs11/portable/renesas/rza2m-gr-mango\aws_pkcs11_pal.c ****         mbedtls_sha256_update_ret(&ctx, (unsigned char *)&pkcs_control_block_data_mirror.data, size
 557:D:/Work/DeviceTester/amazon-freertos/lib/pkcs11/portable/renesas/rza2m-gr-mango\aws_pkcs11_pal.c ****         mbedtls_sha256_finish_ret(&ctx, hash_sha256);
 558:D:/Work/DeviceTester/amazon-freertos/lib/pkcs11/portable/renesas/rza2m-gr-mango\aws_pkcs11_pal.c ****         if(!memcmp(pkcs_control_block_data_mirror.hash_sha256, hash_sha256, sizeof(hash_sha256)))
 559:D:/Work/DeviceTester/amazon-freertos/lib/pkcs11/portable/renesas/rza2m-gr-mango\aws_pkcs11_pal.c ****         {
 560:D:/Work/DeviceTester/amazon-freertos/lib/pkcs11/portable/renesas/rza2m-gr-mango\aws_pkcs11_pal.c **** //            configPRINTF(("OK\r\n"));
 561:D:/Work/DeviceTester/amazon-freertos/lib/pkcs11/portable/renesas/rza2m-gr-mango\aws_pkcs11_pal.c **** //            configPRINTF(("recover main from mirror.\r\n"));
 562:D:/Work/DeviceTester/amazon-freertos/lib/pkcs11/portable/renesas/rza2m-gr-mango\aws_pkcs11_pal.c ****             memcpy(&pkcs_control_block_data_image, (void *)&pkcs_control_block_data_mirror, sizeof(
 563:D:/Work/DeviceTester/amazon-freertos/lib/pkcs11/portable/renesas/rza2m-gr-mango\aws_pkcs11_pal.c ****             update_eeprom_data_from_image();
 564:D:/Work/DeviceTester/amazon-freertos/lib/pkcs11/portable/renesas/rza2m-gr-mango\aws_pkcs11_pal.c ****             check_eeprom_area(retry_counter + 1);
 565:D:/Work/DeviceTester/amazon-freertos/lib/pkcs11/portable/renesas/rza2m-gr-mango\aws_pkcs11_pal.c ****         }
 566:D:/Work/DeviceTester/amazon-freertos/lib/pkcs11/portable/renesas/rza2m-gr-mango\aws_pkcs11_pal.c ****         else
 567:D:/Work/DeviceTester/amazon-freertos/lib/pkcs11/portable/renesas/rza2m-gr-mango\aws_pkcs11_pal.c ****         {
 568:D:/Work/DeviceTester/amazon-freertos/lib/pkcs11/portable/renesas/rza2m-gr-mango\aws_pkcs11_pal.c **** //            configPRINTF(("Failed\r\n"));
 569:D:/Work/DeviceTester/amazon-freertos/lib/pkcs11/portable/renesas/rza2m-gr-mango\aws_pkcs11_pal.c ****             if (retry_counter == CHECK_EEPROM_DATA_MODE) {
 570:D:/Work/DeviceTester/amazon-freertos/lib/pkcs11/portable/renesas/rza2m-gr-mango\aws_pkcs11_pal.c ****                 return ERROR_FAILURE;
 571:D:/Work/DeviceTester/amazon-freertos/lib/pkcs11/portable/renesas/rza2m-gr-mango\aws_pkcs11_pal.c ****             }
 572:D:/Work/DeviceTester/amazon-freertos/lib/pkcs11/portable/renesas/rza2m-gr-mango\aws_pkcs11_pal.c ****             while(1)
 573:D:/Work/DeviceTester/amazon-freertos/lib/pkcs11/portable/renesas/rza2m-gr-mango\aws_pkcs11_pal.c ****             {
 574:D:/Work/DeviceTester/amazon-freertos/lib/pkcs11/portable/renesas/rza2m-gr-mango\aws_pkcs11_pal.c ****                 vTaskDelay(10000);
 575:D:/Work/DeviceTester/amazon-freertos/lib/pkcs11/portable/renesas/rza2m-gr-mango\aws_pkcs11_pal.c ****                 configPRINTF(("------------------------------------------------\r\n"));
 576:D:/Work/DeviceTester/amazon-freertos/lib/pkcs11/portable/renesas/rza2m-gr-mango\aws_pkcs11_pal.c ****                 configPRINTF(("OCTA Flash is completely broken.\r\n"));
 577:D:/Work/DeviceTester/amazon-freertos/lib/pkcs11/portable/renesas/rza2m-gr-mango\aws_pkcs11_pal.c **** //                configPRINTF(("Please erase all code flash.\r\n"));
 578:D:/Work/DeviceTester/amazon-freertos/lib/pkcs11/portable/renesas/rza2m-gr-mango\aws_pkcs11_pal.c **** //                configPRINTF(("And, write initial firmware using debugger/rom writer.\r\n"));
 579:D:/Work/DeviceTester/amazon-freertos/lib/pkcs11/portable/renesas/rza2m-gr-mango\aws_pkcs11_pal.c ****                 configPRINTF(("------------------------------------------------\r\n"));
 580:D:/Work/DeviceTester/amazon-freertos/lib/pkcs11/portable/renesas/rza2m-gr-mango\aws_pkcs11_pal.c ****             }
 581:D:/Work/DeviceTester/amazon-freertos/lib/pkcs11/portable/renesas/rza2m-gr-mango\aws_pkcs11_pal.c ****         }
 582:D:/Work/DeviceTester/amazon-freertos/lib/pkcs11/portable/renesas/rza2m-gr-mango\aws_pkcs11_pal.c ****     }
 583:D:/Work/DeviceTester/amazon-freertos/lib/pkcs11/portable/renesas/rza2m-gr-mango\aws_pkcs11_pal.c ****     return ret;
 584:D:/Work/DeviceTester/amazon-freertos/lib/pkcs11/portable/renesas/rza2m-gr-mango\aws_pkcs11_pal.c **** }
 585:D:/Work/DeviceTester/amazon-freertos/lib/pkcs11/portable/renesas/rza2m-gr-mango\aws_pkcs11_pal.c **** 
 586:D:/Work/DeviceTester/amazon-freertos/lib/pkcs11/portable/renesas/rza2m-gr-mango\aws_pkcs11_pal.c **** static int_t write_octaflash_data(uint32_t addr, void* data, size_t size)
  25              		.loc 1 586 0
  26              		.cfi_startproc
  27              		@ args = 0, pretend = 0, frame = 0
  28              		@ frame_needed = 0, uses_anonymous_args = 0
  29              	.LVL0:
  30 0000 70402DE9 		push	{r4, r5, r6, lr}
  31              		.cfi_def_cfa_offset 16
  32              		.cfi_offset 4, -16
  33              		.cfi_offset 5, -12
  34              		.cfi_offset 6, -8
  35              		.cfi_offset 14, -4
  36              		.loc 1 586 0
  37 0004 0050A0E1 		mov	r5, r0
 587:D:/Work/DeviceTester/amazon-freertos/lib/pkcs11/portable/renesas/rza2m-gr-mango\aws_pkcs11_pal.c **** {
 588:D:/Work/DeviceTester/amazon-freertos/lib/pkcs11/portable/renesas/rza2m-gr-mango\aws_pkcs11_pal.c ****     uint32_t sector = addr;
 589:D:/Work/DeviceTester/amazon-freertos/lib/pkcs11/portable/renesas/rza2m-gr-mango\aws_pkcs11_pal.c ****     /* erase */
 590:D:/Work/DeviceTester/amazon-freertos/lib/pkcs11/portable/renesas/rza2m-gr-mango\aws_pkcs11_pal.c ****     for (sector = addr; sector < addr + size; sector += flash_get_sector_size(NULL,sector))
  38              		.loc 1 590 0
  39 0008 0040A0E1 		mov	r4, r0
  40 000c 026A80E2 		add	r6, r0, #8192
  41              	.LVL1:
  42              	.L2:
  43 0010 060054E1 		cmp	r4, r6
  44 0014 0600003A 		bcc	.L4
  45              	.LVL2:
  46              	.LBB4:
  47              	.LBB5:
 591:D:/Work/DeviceTester/amazon-freertos/lib/pkcs11/portable/renesas/rza2m-gr-mango\aws_pkcs11_pal.c ****     {
 592:D:/Work/DeviceTester/amazon-freertos/lib/pkcs11/portable/renesas/rza2m-gr-mango\aws_pkcs11_pal.c ****         if (flash_erase_sector(NULL,sector) < 0)
 593:D:/Work/DeviceTester/amazon-freertos/lib/pkcs11/portable/renesas/rza2m-gr-mango\aws_pkcs11_pal.c ****         {
 594:D:/Work/DeviceTester/amazon-freertos/lib/pkcs11/portable/renesas/rza2m-gr-mango\aws_pkcs11_pal.c ****             return ERROR_FAILURE;
 595:D:/Work/DeviceTester/amazon-freertos/lib/pkcs11/portable/renesas/rza2m-gr-mango\aws_pkcs11_pal.c ****         }
 596:D:/Work/DeviceTester/amazon-freertos/lib/pkcs11/portable/renesas/rza2m-gr-mango\aws_pkcs11_pal.c ****     }
 597:D:/Work/DeviceTester/amazon-freertos/lib/pkcs11/portable/renesas/rza2m-gr-mango\aws_pkcs11_pal.c ****     /* write */
 598:D:/Work/DeviceTester/amazon-freertos/lib/pkcs11/portable/renesas/rza2m-gr-mango\aws_pkcs11_pal.c ****     if (flash_program_page(NULL, addr, data, size) < 0)
  48              		.loc 1 598 0
  49 0018 023AA0E3 		mov	r3, #8192
  50 001c 40209FE5 		ldr	r2, .L7
  51 0020 0510A0E1 		mov	r1, r5
  52 0024 0000A0E3 		mov	r0, #0
  53 0028 FEFFFFEB 		bl	flash_program_page
  54              	.LVL3:
  55 002c C00FA0E1 		asr	r0, r0, #31
  56 0030 7080BDE8 		pop	{r4, r5, r6, pc}
  57              	.LVL4:
  58              	.L4:
  59              	.LBE5:
  60              	.LBE4:
 592:D:/Work/DeviceTester/amazon-freertos/lib/pkcs11/portable/renesas/rza2m-gr-mango\aws_pkcs11_pal.c ****         {
  61              		.loc 1 592 0
  62 0034 0410A0E1 		mov	r1, r4
  63 0038 0000A0E3 		mov	r0, #0
  64 003c FEFFFFEB 		bl	flash_erase_sector
  65              	.LVL5:
  66 0040 000050E3 		cmp	r0, #0
  67 0044 040000BA 		blt	.L5
 590:D:/Work/DeviceTester/amazon-freertos/lib/pkcs11/portable/renesas/rza2m-gr-mango\aws_pkcs11_pal.c ****     {
  68              		.loc 1 590 0
  69 0048 0410A0E1 		mov	r1, r4
  70 004c 0000A0E3 		mov	r0, #0
  71 0050 FEFFFFEB 		bl	flash_get_sector_size
  72              	.LVL6:
  73 0054 004084E0 		add	r4, r4, r0
  74              	.LVL7:
  75 0058 ECFFFFEA 		b	.L2
  76              	.L5:
 594:D:/Work/DeviceTester/amazon-freertos/lib/pkcs11/portable/renesas/rza2m-gr-mango\aws_pkcs11_pal.c ****         }
  77              		.loc 1 594 0
  78 005c 0000E0E3 		mvn	r0, #0
 599:D:/Work/DeviceTester/amazon-freertos/lib/pkcs11/portable/renesas/rza2m-gr-mango\aws_pkcs11_pal.c ****     {
 600:D:/Work/DeviceTester/amazon-freertos/lib/pkcs11/portable/renesas/rza2m-gr-mango\aws_pkcs11_pal.c ****         return ERROR_FAILURE;
 601:D:/Work/DeviceTester/amazon-freertos/lib/pkcs11/portable/renesas/rza2m-gr-mango\aws_pkcs11_pal.c ****     }
 602:D:/Work/DeviceTester/amazon-freertos/lib/pkcs11/portable/renesas/rza2m-gr-mango\aws_pkcs11_pal.c ****     return NO_ERROR;
 603:D:/Work/DeviceTester/amazon-freertos/lib/pkcs11/portable/renesas/rza2m-gr-mango\aws_pkcs11_pal.c **** }
  79              		.loc 1 603 0
  80 0060 7080BDE8 		pop	{r4, r5, r6, pc}
  81              	.L8:
  82              		.align	2
  83              	.L7:
  84 0064 00000000 		.word	.LANCHOR0
  85              		.cfi_endproc
  86              	.LFE15:
  88              		.section	.text.update_eeprom_data_mirror_from_image,"ax",%progbits
  89              		.align	2
  90              		.syntax unified
  91              		.arm
  92              		.fpu neon
  94              	update_eeprom_data_mirror_from_image:
  95              	.LFB8:
 477:D:/Work/DeviceTester/amazon-freertos/lib/pkcs11/portable/renesas/rza2m-gr-mango\aws_pkcs11_pal.c ****     uint32_t required_eeprom_block_num;
  96              		.loc 1 477 0
  97              		.cfi_startproc
  98              		@ args = 0, pretend = 0, frame = 0
  99              		@ frame_needed = 0, uses_anonymous_args = 0
 100              	.LVL8:
 101 0000 10402DE9 		push	{r4, lr}
 102              		.cfi_def_cfa_offset 8
 103              		.cfi_offset 4, -8
 104              		.cfi_offset 14, -4
 482:D:/Work/DeviceTester/amazon-freertos/lib/pkcs11/portable/renesas/rza2m-gr-mango\aws_pkcs11_pal.c ****     if(NO_ERROR == flash_error_code)
 105              		.loc 1 482 0
 106 0004 1C009FE5 		ldr	r0, .L12
 107 0008 FEFFFFEB 		bl	write_octaflash_data.constprop.3
 108              	.LVL9:
 483:D:/Work/DeviceTester/amazon-freertos/lib/pkcs11/portable/renesas/rza2m-gr-mango\aws_pkcs11_pal.c ****     {
 109              		.loc 1 483 0
 110 000c 000050E3 		cmp	r0, #0
 111 0010 1080BD18 		popne	{r4, pc}
 112              	.LBB8:
 113              	.LBB9:
 485:D:/Work/DeviceTester/amazon-freertos/lib/pkcs11/portable/renesas/rza2m-gr-mango\aws_pkcs11_pal.c **** //        configPRINTF(("OK\r\n"));
 114              		.loc 1 485 0
 115 0014 022AA0E3 		mov	r2, #8192
 116 0018 08109FE5 		ldr	r1, .L12
 117 001c 08009FE5 		ldr	r0, .L12+4
 118              	.LVL10:
 119 0020 FEFFFFEB 		bl	memcpy
 120              	.LVL11:
 121 0024 1080BDE8 		pop	{r4, pc}
 122              	.L13:
 123              		.align	2
 124              	.L12:
 125 0028 00E0FF50 		.word	1358946304
 126 002c 00000000 		.word	.LANCHOR1
 127              	.LBE9:
 128              	.LBE8:
 129              		.cfi_endproc
 130              	.LFE8:
 132              		.section	.text.update_eeprom_data_from_image,"ax",%progbits
 133              		.align	2
 134              		.syntax unified
 135              		.arm
 136              		.fpu neon
 138              	update_eeprom_data_from_image:
 139              	.LFB7:
 454:D:/Work/DeviceTester/amazon-freertos/lib/pkcs11/portable/renesas/rza2m-gr-mango\aws_pkcs11_pal.c ****     uint32_t required_eeprom_block_num;
 140              		.loc 1 454 0
 141              		.cfi_startproc
 142              		@ args = 0, pretend = 0, frame = 0
 143              		@ frame_needed = 0, uses_anonymous_args = 0
 144              	.LVL12:
 145 0000 10402DE9 		push	{r4, lr}
 146              		.cfi_def_cfa_offset 8
 147              		.cfi_offset 4, -8
 148              		.cfi_offset 14, -4
 460:D:/Work/DeviceTester/amazon-freertos/lib/pkcs11/portable/renesas/rza2m-gr-mango\aws_pkcs11_pal.c ****     if(NO_ERROR == flash_error_code)
 149              		.loc 1 460 0
 150 0004 1C009FE5 		ldr	r0, .L17
 151 0008 FEFFFFEB 		bl	write_octaflash_data.constprop.3
 152              	.LVL13:
 461:D:/Work/DeviceTester/amazon-freertos/lib/pkcs11/portable/renesas/rza2m-gr-mango\aws_pkcs11_pal.c ****     {
 153              		.loc 1 461 0
 154 000c 000050E3 		cmp	r0, #0
 155 0010 1080BD18 		popne	{r4, pc}
 156              	.LBB12:
 157              	.LBB13:
 463:D:/Work/DeviceTester/amazon-freertos/lib/pkcs11/portable/renesas/rza2m-gr-mango\aws_pkcs11_pal.c **** //        configPRINTF(("OK\r\n"));
 158              		.loc 1 463 0
 159 0014 022AA0E3 		mov	r2, #8192
 160 0018 08109FE5 		ldr	r1, .L17
 161 001c 08009FE5 		ldr	r0, .L17+4
 162              	.LVL14:
 163 0020 FEFFFFEB 		bl	memcpy
 164              	.LVL15:
 165 0024 1080BDE8 		pop	{r4, pc}
 166              	.L18:
 167              		.align	2
 168              	.L17:
 169 0028 00C0FF50 		.word	1358938112
 170 002c 00000000 		.word	.LANCHOR2
 171              	.LBE13:
 172              	.LBE12:
 173              		.cfi_endproc
 174              	.LFE7:
 176              		.section	.text.check_eeprom_area,"ax",%progbits
 177              		.align	2
 178              		.syntax unified
 179              		.arm
 180              		.fpu neon
 182              	check_eeprom_area:
 183              	.LFB9:
 508:D:/Work/DeviceTester/amazon-freertos/lib/pkcs11/portable/renesas/rza2m-gr-mango\aws_pkcs11_pal.c ****     uint8_t hash_sha256[PKCS_SHA256_LENGTH];
 184              		.loc 1 508 0
 185              		.cfi_startproc
 186              		@ args = 0, pretend = 0, frame = 144
 187              		@ frame_needed = 0, uses_anonymous_args = 0
 188              	.LVL16:
 189 0000 30402DE9 		push	{r4, r5, lr}
 190              		.cfi_def_cfa_offset 12
 191              		.cfi_offset 4, -12
 192              		.cfi_offset 5, -8
 193              		.cfi_offset 14, -4
 194 0004 94D04DE2 		sub	sp, sp, #148
 195              		.cfi_def_cfa_offset 160
 508:D:/Work/DeviceTester/amazon-freertos/lib/pkcs11/portable/renesas/rza2m-gr-mango\aws_pkcs11_pal.c ****     uint8_t hash_sha256[PKCS_SHA256_LENGTH];
 196              		.loc 1 508 0
 197 0008 0040A0E1 		mov	r4, r0
 513:D:/Work/DeviceTester/amazon-freertos/lib/pkcs11/portable/renesas/rza2m-gr-mango\aws_pkcs11_pal.c **** 
 198              		.loc 1 513 0
 199 000c 24008DE2 		add	r0, sp, #36
 200              	.LVL17:
 201 0010 FEFFFFEB 		bl	mbedtls_sha256_init
 202              	.LVL18:
 518:D:/Work/DeviceTester/amazon-freertos/lib/pkcs11/portable/renesas/rza2m-gr-mango\aws_pkcs11_pal.c ****         {
 203              		.loc 1 518 0
 204 0014 1E0054E3 		cmp	r4, #30
 205 0018 0000001A 		bne	.L20
 206              	.L21:
 207 001c FEFFFFEA 		b	.L21
 208              	.L20:
 525:D:/Work/DeviceTester/amazon-freertos/lib/pkcs11/portable/renesas/rza2m-gr-mango\aws_pkcs11_pal.c ****     mbedtls_sha256_update_ret(&ctx, (unsigned char *)&pkcs_control_block_data.data, sizeof(pkcs_con
 209              		.loc 1 525 0
 210 0020 0010A0E3 		mov	r1, #0
 211 0024 24008DE2 		add	r0, sp, #36
 212 0028 FEFFFFEB 		bl	mbedtls_sha256_starts_ret
 213              	.LVL19:
 526:D:/Work/DeviceTester/amazon-freertos/lib/pkcs11/portable/renesas/rza2m-gr-mango\aws_pkcs11_pal.c ****     mbedtls_sha256_finish_ret(&ctx, hash_sha256);
 214              		.loc 1 526 0
 215 002c E02F01E3 		movw	r2, #8160
 216 0030 34119FE5 		ldr	r1, .L33
 217 0034 24008DE2 		add	r0, sp, #36
 218 0038 FEFFFFEB 		bl	mbedtls_sha256_update_ret
 219              	.LVL20:
 527:D:/Work/DeviceTester/amazon-freertos/lib/pkcs11/portable/renesas/rza2m-gr-mango\aws_pkcs11_pal.c ****     if(!memcmp(pkcs_control_block_data.hash_sha256, hash_sha256, sizeof(hash_sha256)))
 220              		.loc 1 527 0
 221 003c 04108DE2 		add	r1, sp, #4
 222 0040 24008DE2 		add	r0, sp, #36
 223 0044 FEFFFFEB 		bl	mbedtls_sha256_finish_ret
 224              	.LVL21:
 528:D:/Work/DeviceTester/amazon-freertos/lib/pkcs11/portable/renesas/rza2m-gr-mango\aws_pkcs11_pal.c ****     {
 225              		.loc 1 528 0
 226 0048 04108DE2 		add	r1, sp, #4
 227 004c 2020A0E3 		mov	r2, #32
 228 0050 18019FE5 		ldr	r0, .L33+4
 229 0054 FEFFFFEB 		bl	memcmp
 230              	.LVL22:
 231 0058 001050E2 		subs	r1, r0, #0
 232 005c 1B00001A 		bne	.L22
 532:D:/Work/DeviceTester/amazon-freertos/lib/pkcs11/portable/renesas/rza2m-gr-mango\aws_pkcs11_pal.c ****         mbedtls_sha256_update_ret(&ctx, (unsigned char *)&pkcs_control_block_data_mirror.data, size
 233              		.loc 1 532 0
 234 0060 24008DE2 		add	r0, sp, #36
 235 0064 FEFFFFEB 		bl	mbedtls_sha256_starts_ret
 236              	.LVL23:
 533:D:/Work/DeviceTester/amazon-freertos/lib/pkcs11/portable/renesas/rza2m-gr-mango\aws_pkcs11_pal.c ****         mbedtls_sha256_finish_ret(&ctx, hash_sha256);
 237              		.loc 1 533 0
 238 0068 E02F01E3 		movw	r2, #8160
 239 006c 00119FE5 		ldr	r1, .L33+8
 240 0070 24008DE2 		add	r0, sp, #36
 241 0074 FEFFFFEB 		bl	mbedtls_sha256_update_ret
 242              	.LVL24:
 534:D:/Work/DeviceTester/amazon-freertos/lib/pkcs11/portable/renesas/rza2m-gr-mango\aws_pkcs11_pal.c ****         if(!memcmp(pkcs_control_block_data_mirror.hash_sha256, hash_sha256, sizeof(hash_sha256)))
 243              		.loc 1 534 0
 244 0078 04108DE2 		add	r1, sp, #4
 245 007c 24008DE2 		add	r0, sp, #36
 246 0080 FEFFFFEB 		bl	mbedtls_sha256_finish_ret
 247              	.LVL25:
 535:D:/Work/DeviceTester/amazon-freertos/lib/pkcs11/portable/renesas/rza2m-gr-mango\aws_pkcs11_pal.c ****         {
 248              		.loc 1 535 0
 249 0084 2020A0E3 		mov	r2, #32
 250 0088 04108DE2 		add	r1, sp, #4
 251 008c E4009FE5 		ldr	r0, .L33+12
 252 0090 FEFFFFEB 		bl	memcmp
 253              	.LVL26:
 254 0094 005050E2 		subs	r5, r0, #0
 255 0098 0900000A 		beq	.L19
 543:D:/Work/DeviceTester/amazon-freertos/lib/pkcs11/portable/renesas/rza2m-gr-mango\aws_pkcs11_pal.c ****             update_eeprom_data_mirror_from_image();
 256              		.loc 1 543 0
 257 009c 022AA0E3 		mov	r2, #8192
 258 00a0 C4109FE5 		ldr	r1, .L33
 259 00a4 D0009FE5 		ldr	r0, .L33+16
 260 00a8 FEFFFFEB 		bl	memcpy
 261              	.LVL27:
 544:D:/Work/DeviceTester/amazon-freertos/lib/pkcs11/portable/renesas/rza2m-gr-mango\aws_pkcs11_pal.c ****             if (retry_counter == CHECK_EEPROM_DATA_MODE) {
 262              		.loc 1 544 0
 263 00ac FEFFFFEB 		bl	update_eeprom_data_mirror_from_image
 264              	.LVL28:
 546:D:/Work/DeviceTester/amazon-freertos/lib/pkcs11/portable/renesas/rza2m-gr-mango\aws_pkcs11_pal.c ****             }
 265              		.loc 1 546 0
 266 00b0 040054E3 		cmp	r4, #4
 267 00b4 0040A003 		moveq	r4, #0
 268              	.LVL29:
 548:D:/Work/DeviceTester/amazon-freertos/lib/pkcs11/portable/renesas/rza2m-gr-mango\aws_pkcs11_pal.c ****         }
 269              		.loc 1 548 0
 270 00b8 010084E2 		add	r0, r4, #1
 271 00bc CFFFFFEB 		bl	check_eeprom_area
 272              	.LVL30:
 273 00c0 0050A0E1 		mov	r5, r0
 274              	.LVL31:
 275              	.L19:
 584:D:/Work/DeviceTester/amazon-freertos/lib/pkcs11/portable/renesas/rza2m-gr-mango\aws_pkcs11_pal.c **** 
 276              		.loc 1 584 0
 277 00c4 0500A0E1 		mov	r0, r5
 278 00c8 94D08DE2 		add	sp, sp, #148
 279              		.cfi_remember_state
 280              		.cfi_def_cfa_offset 12
 281              		@ sp needed
 282 00cc 3080BDE8 		pop	{r4, r5, pc}
 283              	.LVL32:
 284              	.L22:
 285              		.cfi_restore_state
 555:D:/Work/DeviceTester/amazon-freertos/lib/pkcs11/portable/renesas/rza2m-gr-mango\aws_pkcs11_pal.c ****         mbedtls_sha256_update_ret(&ctx, (unsigned char *)&pkcs_control_block_data_mirror.data, size
 286              		.loc 1 555 0
 287 00d0 0010A0E3 		mov	r1, #0
 288 00d4 24008DE2 		add	r0, sp, #36
 289 00d8 FEFFFFEB 		bl	mbedtls_sha256_starts_ret
 290              	.LVL33:
 556:D:/Work/DeviceTester/amazon-freertos/lib/pkcs11/portable/renesas/rza2m-gr-mango\aws_pkcs11_pal.c ****         mbedtls_sha256_finish_ret(&ctx, hash_sha256);
 291              		.loc 1 556 0
 292 00dc E02F01E3 		movw	r2, #8160
 293 00e0 8C109FE5 		ldr	r1, .L33+8
 294 00e4 24008DE2 		add	r0, sp, #36
 295 00e8 FEFFFFEB 		bl	mbedtls_sha256_update_ret
 296              	.LVL34:
 557:D:/Work/DeviceTester/amazon-freertos/lib/pkcs11/portable/renesas/rza2m-gr-mango\aws_pkcs11_pal.c ****         if(!memcmp(pkcs_control_block_data_mirror.hash_sha256, hash_sha256, sizeof(hash_sha256)))
 297              		.loc 1 557 0
 298 00ec 04108DE2 		add	r1, sp, #4
 299 00f0 24008DE2 		add	r0, sp, #36
 300 00f4 FEFFFFEB 		bl	mbedtls_sha256_finish_ret
 301              	.LVL35:
 558:D:/Work/DeviceTester/amazon-freertos/lib/pkcs11/portable/renesas/rza2m-gr-mango\aws_pkcs11_pal.c ****         {
 302              		.loc 1 558 0
 303 00f8 2020A0E3 		mov	r2, #32
 304 00fc 04108DE2 		add	r1, sp, #4
 305 0100 70009FE5 		ldr	r0, .L33+12
 306 0104 FEFFFFEB 		bl	memcmp
 307              	.LVL36:
 308 0108 005050E2 		subs	r5, r0, #0
 309 010c 0700001A 		bne	.L25
 562:D:/Work/DeviceTester/amazon-freertos/lib/pkcs11/portable/renesas/rza2m-gr-mango\aws_pkcs11_pal.c ****             update_eeprom_data_from_image();
 310              		.loc 1 562 0
 311 0110 022AA0E3 		mov	r2, #8192
 312 0114 58109FE5 		ldr	r1, .L33+8
 313 0118 5C009FE5 		ldr	r0, .L33+16
 314 011c FEFFFFEB 		bl	memcpy
 315              	.LVL37:
 563:D:/Work/DeviceTester/amazon-freertos/lib/pkcs11/portable/renesas/rza2m-gr-mango\aws_pkcs11_pal.c ****             check_eeprom_area(retry_counter + 1);
 316              		.loc 1 563 0
 317 0120 FEFFFFEB 		bl	update_eeprom_data_from_image
 318              	.LVL38:
 564:D:/Work/DeviceTester/amazon-freertos/lib/pkcs11/portable/renesas/rza2m-gr-mango\aws_pkcs11_pal.c ****         }
 319              		.loc 1 564 0
 320 0124 010084E2 		add	r0, r4, #1
 321 0128 B4FFFFEB 		bl	check_eeprom_area
 322              	.LVL39:
 323 012c E4FFFFEA 		b	.L19
 324              	.L25:
 569:D:/Work/DeviceTester/amazon-freertos/lib/pkcs11/portable/renesas/rza2m-gr-mango\aws_pkcs11_pal.c ****                 return ERROR_FAILURE;
 325              		.loc 1 569 0
 326 0130 040054E3 		cmp	r4, #4
 327 0134 0A00000A 		beq	.L27
 575:D:/Work/DeviceTester/amazon-freertos/lib/pkcs11/portable/renesas/rza2m-gr-mango\aws_pkcs11_pal.c ****                 configPRINTF(("OCTA Flash is completely broken.\r\n"));
 328              		.loc 1 575 0 discriminator 1
 329 0138 40409FE5 		ldr	r4, .L33+20
 330              	.LVL40:
 576:D:/Work/DeviceTester/amazon-freertos/lib/pkcs11/portable/renesas/rza2m-gr-mango\aws_pkcs11_pal.c **** //                configPRINTF(("Please erase all code flash.\r\n"));
 331              		.loc 1 576 0 discriminator 1
 332 013c 40509FE5 		ldr	r5, .L33+24
 333              	.L31:
 574:D:/Work/DeviceTester/amazon-freertos/lib/pkcs11/portable/renesas/rza2m-gr-mango\aws_pkcs11_pal.c ****                 configPRINTF(("------------------------------------------------\r\n"));
 334              		.loc 1 574 0 discriminator 1
 335 0140 100702E3 		movw	r0, #10000
 336 0144 FEFFFFEB 		bl	vTaskDelay
 337              	.LVL41:
 575:D:/Work/DeviceTester/amazon-freertos/lib/pkcs11/portable/renesas/rza2m-gr-mango\aws_pkcs11_pal.c ****                 configPRINTF(("OCTA Flash is completely broken.\r\n"));
 338              		.loc 1 575 0 discriminator 1
 339 0148 0400A0E1 		mov	r0, r4
 340 014c FEFFFFEB 		bl	vLoggingPrintf
 341              	.LVL42:
 576:D:/Work/DeviceTester/amazon-freertos/lib/pkcs11/portable/renesas/rza2m-gr-mango\aws_pkcs11_pal.c **** //                configPRINTF(("Please erase all code flash.\r\n"));
 342              		.loc 1 576 0 discriminator 1
 343 0150 0500A0E1 		mov	r0, r5
 344 0154 FEFFFFEB 		bl	vLoggingPrintf
 345              	.LVL43:
 579:D:/Work/DeviceTester/amazon-freertos/lib/pkcs11/portable/renesas/rza2m-gr-mango\aws_pkcs11_pal.c ****             }
 346              		.loc 1 579 0 discriminator 1
 347 0158 0400A0E1 		mov	r0, r4
 348 015c FEFFFFEB 		bl	vLoggingPrintf
 349              	.LVL44:
 350 0160 F6FFFFEA 		b	.L31
 351              	.LVL45:
 352              	.L27:
 570:D:/Work/DeviceTester/amazon-freertos/lib/pkcs11/portable/renesas/rza2m-gr-mango\aws_pkcs11_pal.c ****             }
 353              		.loc 1 570 0
 354 0164 0050E0E3 		mvn	r5, #0
 355 0168 D5FFFFEA 		b	.L19
 356              	.L34:
 357              		.align	2
 358              	.L33:
 359 016c 00000000 		.word	.LANCHOR2
 360 0170 E01F0000 		.word	.LANCHOR2+8160
 361 0174 00000000 		.word	.LANCHOR1
 362 0178 E01F0000 		.word	.LANCHOR1+8160
 363 017c 00000000 		.word	.LANCHOR0
 364 0180 00000000 		.word	.LC0
 365 0184 33000000 		.word	.LC1
 366              		.cfi_endproc
 367              	.LFE9:
 369              		.section	.text.C_Initialize,"ax",%progbits
 370              		.align	2
 371              		.global	C_Initialize
 372              		.syntax unified
 373              		.arm
 374              		.fpu neon
 376              	C_Initialize:
 377              	.LFB2:
 172:D:/Work/DeviceTester/amazon-freertos/lib/pkcs11/portable/renesas/rza2m-gr-mango\aws_pkcs11_pal.c ****     int_t ret = NO_ERROR;
 378              		.loc 1 172 0
 379              		.cfi_startproc
 380              		@ args = 0, pretend = 0, frame = 0
 381              		@ frame_needed = 0, uses_anonymous_args = 0
 382              	.LVL46:
 383 0000 10402DE9 		push	{r4, lr}
 384              		.cfi_def_cfa_offset 8
 385              		.cfi_offset 4, -8
 386              		.cfi_offset 14, -4
 175:D:/Work/DeviceTester/amazon-freertos/lib/pkcs11/portable/renesas/rza2m-gr-mango\aws_pkcs11_pal.c ****     memcpy(&pkcs_control_block_data_mirror, (void*)PKCS_STORAGE_ADDRESS_MIRROR, sizeof(pkcs_control
 387              		.loc 1 175 0
 388 0004 022AA0E3 		mov	r2, #8192
 389 0008 70109FE5 		ldr	r1, .L38
 390 000c 70009FE5 		ldr	r0, .L38+4
 391              	.LVL47:
 392 0010 FEFFFFEB 		bl	memcpy
 393              	.LVL48:
 176:D:/Work/DeviceTester/amazon-freertos/lib/pkcs11/portable/renesas/rza2m-gr-mango\aws_pkcs11_pal.c **** 
 394              		.loc 1 176 0
 395 0014 022AA0E3 		mov	r2, #8192
 396 0018 68109FE5 		ldr	r1, .L38+8
 397 001c 68009FE5 		ldr	r0, .L38+12
 398 0020 FEFFFFEB 		bl	memcpy
 399              	.LVL49:
 179:D:/Work/DeviceTester/amazon-freertos/lib/pkcs11/portable/renesas/rza2m-gr-mango\aws_pkcs11_pal.c ****     if (ERROR_FAILURE == ret) {
 400              		.loc 1 179 0
 401 0024 0400A0E3 		mov	r0, #4
 402 0028 FEFFFFEB 		bl	check_eeprom_area
 403              	.LVL50:
 180:D:/Work/DeviceTester/amazon-freertos/lib/pkcs11/portable/renesas/rza2m-gr-mango\aws_pkcs11_pal.c ****         /* copy data from ram to storage*/
 404              		.loc 1 180 0
 405 002c 010070E3 		cmn	r0, #1
 406 0030 0900001A 		bne	.L36
 182:D:/Work/DeviceTester/amazon-freertos/lib/pkcs11/portable/renesas/rza2m-gr-mango\aws_pkcs11_pal.c ****         update_eeprom_data_from_image();
 407              		.loc 1 182 0
 408 0034 022AA0E3 		mov	r2, #8192
 409 0038 50109FE5 		ldr	r1, .L38+16
 410 003c 50009FE5 		ldr	r0, .L38+20
 411              	.LVL51:
 412 0040 FEFFFFEB 		bl	memcpy
 413              	.LVL52:
 183:D:/Work/DeviceTester/amazon-freertos/lib/pkcs11/portable/renesas/rza2m-gr-mango\aws_pkcs11_pal.c ****         memcpy(&pkcs_control_block_data_image, (void *)&pkcs_control_block_data_mirror_org, sizeof(
 414              		.loc 1 183 0
 415 0044 FEFFFFEB 		bl	update_eeprom_data_from_image
 416              	.LVL53:
 184:D:/Work/DeviceTester/amazon-freertos/lib/pkcs11/portable/renesas/rza2m-gr-mango\aws_pkcs11_pal.c ****         update_eeprom_data_mirror_from_image();
 417              		.loc 1 184 0
 418 0048 022AA0E3 		mov	r2, #8192
 419 004c 44109FE5 		ldr	r1, .L38+24
 420 0050 3C009FE5 		ldr	r0, .L38+20
 421 0054 FEFFFFEB 		bl	memcpy
 422              	.LVL54:
 185:D:/Work/DeviceTester/amazon-freertos/lib/pkcs11/portable/renesas/rza2m-gr-mango\aws_pkcs11_pal.c ****     }
 423              		.loc 1 185 0
 424 0058 FEFFFFEB 		bl	update_eeprom_data_mirror_from_image
 425              	.LVL55:
 426              	.L36:
 189:D:/Work/DeviceTester/amazon-freertos/lib/pkcs11/portable/renesas/rza2m-gr-mango\aws_pkcs11_pal.c **** 
 427              		.loc 1 189 0
 428 005c 0000A0E3 		mov	r0, #0
 429 0060 FEFFFFEB 		bl	check_eeprom_area
 430              	.LVL56:
 192:D:/Work/DeviceTester/amazon-freertos/lib/pkcs11/portable/renesas/rza2m-gr-mango\aws_pkcs11_pal.c **** 
 431              		.loc 1 192 0
 432 0064 022AA0E3 		mov	r2, #8192
 433 0068 14109FE5 		ldr	r1, .L38+4
 434 006c 20009FE5 		ldr	r0, .L38+20
 435 0070 FEFFFFEB 		bl	memcpy
 436              	.LVL57:
 194:D:/Work/DeviceTester/amazon-freertos/lib/pkcs11/portable/renesas/rza2m-gr-mango\aws_pkcs11_pal.c **** 
 437              		.loc 1 194 0
 438 0074 FEFFFFEB 		bl	prvMbedTLS_Initialize
 439              	.LVL58:
 197:D:/Work/DeviceTester/amazon-freertos/lib/pkcs11/portable/renesas/rza2m-gr-mango\aws_pkcs11_pal.c **** 
 440              		.loc 1 197 0
 441 0078 0000A0E3 		mov	r0, #0
 442 007c 1080BDE8 		pop	{r4, pc}
 443              	.L39:
 444              		.align	2
 445              	.L38:
 446 0080 00C0FF50 		.word	1358938112
 447 0084 00000000 		.word	.LANCHOR2
 448 0088 00E0FF50 		.word	1358946304
 449 008c 00000000 		.word	.LANCHOR1
 450 0090 00000000 		.word	pkcs_control_block_data_org
 451 0094 00000000 		.word	.LANCHOR0
 452 0098 00000000 		.word	.LANCHOR3
 453              		.cfi_endproc
 454              	.LFE2:
 456              		.section	.text.PKCS11_PAL_SaveObject,"ax",%progbits
 457              		.align	2
 458              		.global	PKCS11_PAL_SaveObject
 459              		.syntax unified
 460              		.arm
 461              		.fpu neon
 463              	PKCS11_PAL_SaveObject:
 464              	.LFB3:
 213:D:/Work/DeviceTester/amazon-freertos/lib/pkcs11/portable/renesas/rza2m-gr-mango\aws_pkcs11_pal.c ****     CK_OBJECT_HANDLE xHandle = eInvalidHandle;
 465              		.loc 1 213 0
 466              		.cfi_startproc
 467              		@ args = 0, pretend = 0, frame = 144
 468              		@ frame_needed = 0, uses_anonymous_args = 0
 469              	.LVL59:
 470 0000 F04F2DE9 		push	{r4, r5, r6, r7, r8, r9, r10, fp, lr}
 471              		.cfi_def_cfa_offset 36
 472              		.cfi_offset 4, -36
 473              		.cfi_offset 5, -32
 474              		.cfi_offset 6, -28
 475              		.cfi_offset 7, -24
 476              		.cfi_offset 8, -20
 477              		.cfi_offset 9, -16
 478              		.cfi_offset 10, -12
 479              		.cfi_offset 11, -8
 480              		.cfi_offset 14, -4
 481 0004 94D04DE2 		sub	sp, sp, #148
 482              		.cfi_def_cfa_offset 184
 213:D:/Work/DeviceTester/amazon-freertos/lib/pkcs11/portable/renesas/rza2m-gr-mango\aws_pkcs11_pal.c ****     CK_OBJECT_HANDLE xHandle = eInvalidHandle;
 483              		.loc 1 213 0
 484 0008 0070A0E1 		mov	r7, r0
 220:D:/Work/DeviceTester/amazon-freertos/lib/pkcs11/portable/renesas/rza2m-gr-mango\aws_pkcs11_pal.c **** 
 485              		.loc 1 220 0
 486 000c 24008DE2 		add	r0, sp, #36
 487              	.LVL60:
 213:D:/Work/DeviceTester/amazon-freertos/lib/pkcs11/portable/renesas/rza2m-gr-mango\aws_pkcs11_pal.c ****     CK_OBJECT_HANDLE xHandle = eInvalidHandle;
 488              		.loc 1 213 0
 489 0010 0190A0E1 		mov	r9, r1
 490 0014 0280A0E1 		mov	r8, r2
 220:D:/Work/DeviceTester/amazon-freertos/lib/pkcs11/portable/renesas/rza2m-gr-mango\aws_pkcs11_pal.c **** 
 491              		.loc 1 220 0
 492 0018 FEFFFFEB 		bl	mbedtls_sha256_init
 493              	.LVL61:
 222:D:/Work/DeviceTester/amazon-freertos/lib/pkcs11/portable/renesas/rza2m-gr-mango\aws_pkcs11_pal.c ****     memcpy(&pkcs_control_block_data_mirror, (void*)PKCS_STORAGE_ADDRESS_MIRROR, sizeof(pkcs_control
 494              		.loc 1 222 0
 495 001c 022AA0E3 		mov	r2, #8192
 496 0020 20129FE5 		ldr	r1, .L62
 497 0024 20029FE5 		ldr	r0, .L62+4
 498 0028 FEFFFFEB 		bl	memcpy
 499              	.LVL62:
 223:D:/Work/DeviceTester/amazon-freertos/lib/pkcs11/portable/renesas/rza2m-gr-mango\aws_pkcs11_pal.c **** 
 500              		.loc 1 223 0
 501 002c 022AA0E3 		mov	r2, #8192
 502 0030 18129FE5 		ldr	r1, .L62+8
 503 0034 18029FE5 		ldr	r0, .L62+12
 504 0038 FEFFFFEB 		bl	memcpy
 505              	.LVL63:
 226:D:/Work/DeviceTester/amazon-freertos/lib/pkcs11/portable/renesas/rza2m-gr-mango\aws_pkcs11_pal.c ****     if (ERROR_FAILURE == ret) {
 506              		.loc 1 226 0
 507 003c 0400A0E3 		mov	r0, #4
 508 0040 FEFFFFEB 		bl	check_eeprom_area
 509              	.LVL64:
 227:D:/Work/DeviceTester/amazon-freertos/lib/pkcs11/portable/renesas/rza2m-gr-mango\aws_pkcs11_pal.c ****         /* copy data from ram to storage*/
 510              		.loc 1 227 0
 511 0044 010070E3 		cmn	r0, #1
 512 0048 0900001A 		bne	.L41
 229:D:/Work/DeviceTester/amazon-freertos/lib/pkcs11/portable/renesas/rza2m-gr-mango\aws_pkcs11_pal.c ****         update_eeprom_data_from_image();
 513              		.loc 1 229 0
 514 004c 022AA0E3 		mov	r2, #8192
 515 0050 00129FE5 		ldr	r1, .L62+16
 516 0054 00029FE5 		ldr	r0, .L62+20
 517              	.LVL65:
 518 0058 FEFFFFEB 		bl	memcpy
 519              	.LVL66:
 230:D:/Work/DeviceTester/amazon-freertos/lib/pkcs11/portable/renesas/rza2m-gr-mango\aws_pkcs11_pal.c ****         memcpy(&pkcs_control_block_data_image, (void *)&pkcs_control_block_data_mirror_org, sizeof(
 520              		.loc 1 230 0
 521 005c FEFFFFEB 		bl	update_eeprom_data_from_image
 522              	.LVL67:
 231:D:/Work/DeviceTester/amazon-freertos/lib/pkcs11/portable/renesas/rza2m-gr-mango\aws_pkcs11_pal.c ****         update_eeprom_data_mirror_from_image();
 523              		.loc 1 231 0
 524 0060 022AA0E3 		mov	r2, #8192
 525 0064 F4119FE5 		ldr	r1, .L62+24
 526 0068 EC019FE5 		ldr	r0, .L62+20
 527 006c FEFFFFEB 		bl	memcpy
 528              	.LVL68:
 232:D:/Work/DeviceTester/amazon-freertos/lib/pkcs11/portable/renesas/rza2m-gr-mango\aws_pkcs11_pal.c ****     }
 529              		.loc 1 232 0
 530 0070 FEFFFFEB 		bl	update_eeprom_data_mirror_from_image
 531              	.LVL69:
 532              	.L41:
 236:D:/Work/DeviceTester/amazon-freertos/lib/pkcs11/portable/renesas/rza2m-gr-mango\aws_pkcs11_pal.c **** 
 533              		.loc 1 236 0
 534 0074 0000A0E3 		mov	r0, #0
 244:D:/Work/DeviceTester/amazon-freertos/lib/pkcs11/portable/renesas/rza2m-gr-mango\aws_pkcs11_pal.c ****         {
 535              		.loc 1 244 0
 536 0078 E4619FE5 		ldr	r6, .L62+28
 236:D:/Work/DeviceTester/amazon-freertos/lib/pkcs11/portable/renesas/rza2m-gr-mango\aws_pkcs11_pal.c **** 
 537              		.loc 1 236 0
 538 007c FEFFFFEB 		bl	check_eeprom_area
 539              	.LVL70:
 239:D:/Work/DeviceTester/amazon-freertos/lib/pkcs11/portable/renesas/rza2m-gr-mango\aws_pkcs11_pal.c **** 
 540              		.loc 1 239 0
 541 0080 022AA0E3 		mov	r2, #8192
 542 0084 C0119FE5 		ldr	r1, .L62+4
 543 0088 CC019FE5 		ldr	r0, .L62+20
 242:D:/Work/DeviceTester/amazon-freertos/lib/pkcs11/portable/renesas/rza2m-gr-mango\aws_pkcs11_pal.c ****     {
 544              		.loc 1 242 0
 545 008c 0140A0E3 		mov	r4, #1
 239:D:/Work/DeviceTester/amazon-freertos/lib/pkcs11/portable/renesas/rza2m-gr-mango\aws_pkcs11_pal.c **** 
 546              		.loc 1 239 0
 547 0090 FEFFFFEB 		bl	memcpy
 548              	.LVL71:
 244:D:/Work/DeviceTester/amazon-freertos/lib/pkcs11/portable/renesas/rza2m-gr-mango\aws_pkcs11_pal.c ****         {
 549              		.loc 1 244 0
 550 0094 04B097E5 		ldr	fp, [r7, #4]
 214:D:/Work/DeviceTester/amazon-freertos/lib/pkcs11/portable/renesas/rza2m-gr-mango\aws_pkcs11_pal.c ****     int i;
 551              		.loc 1 214 0
 552 0098 0050A0E3 		mov	r5, #0
 244:D:/Work/DeviceTester/amazon-freertos/lib/pkcs11/portable/renesas/rza2m-gr-mango\aws_pkcs11_pal.c ****         {
 553              		.loc 1 244 0
 554 009c 28A0A0E3 		mov	r10, #40
 555              	.LVL72:
 556              	.L43:
 557 00a0 9A6420E0 		mla	r0, r10, r4, r6
 558 00a4 0B10A0E1 		mov	r1, fp
 559 00a8 FEFFFFEB 		bl	strcmp
 560              	.LVL73:
 246:D:/Work/DeviceTester/amazon-freertos/lib/pkcs11/portable/renesas/rza2m-gr-mango\aws_pkcs11_pal.c ****         }
 561              		.loc 1 246 0
 562 00ac 000050E3 		cmp	r0, #0
 563 00b0 0450A001 		moveq	r5, r4
 564              	.LVL74:
 242:D:/Work/DeviceTester/amazon-freertos/lib/pkcs11/portable/renesas/rza2m-gr-mango\aws_pkcs11_pal.c ****     {
 565              		.loc 1 242 0
 566 00b4 014084E2 		add	r4, r4, #1
 567              	.LVL75:
 568 00b8 050054E3 		cmp	r4, #5
 569 00bc F7FFFF1A 		bne	.L43
 250:D:/Work/DeviceTester/amazon-freertos/lib/pkcs11/portable/renesas/rza2m-gr-mango\aws_pkcs11_pal.c ****     {
 570              		.loc 1 250 0
 571 00c0 000055E3 		cmp	r5, #0
 572 00c4 5C00000A 		beq	.L40
 573 00c8 8C119FE5 		ldr	r1, .L62+20
 574 00cc 0030A0E3 		mov	r3, #0
 575 00d0 0360A0E1 		mov	r6, r3
 576              	.LBB14:
 577              	.LBB15:
 258:D:/Work/DeviceTester/amazon-freertos/lib/pkcs11/portable/renesas/rza2m-gr-mango\aws_pkcs11_pal.c ****             {
 578              		.loc 1 258 0
 579 00d4 840F01E3 		movw	r0, #8068
 580 00d8 0140A0E1 		mov	r4, r1
 581              	.LVL76:
 582              	.L46:
 583 00dc 032081E0 		add	r2, r1, r3
 584 00e0 1C3083E2 		add	r3, r3, #28
 585 00e4 00C092E7 		ldr	ip, [r2, r0]
 586 00e8 01005CE3 		cmp	ip, #1
 260:D:/Work/DeviceTester/amazon-freertos/lib/pkcs11/portable/renesas/rza2m-gr-mango\aws_pkcs11_pal.c ****             }
 587              		.loc 1 260 0
 588 00ec 7E2D8202 		addeq	r2, r2, #8064
 589 00f0 00209205 		ldreq	r2, [r2]
 590 00f4 02608600 		addeq	r6, r6, r2
 591              	.LVL77:
 256:D:/Work/DeviceTester/amazon-freertos/lib/pkcs11/portable/renesas/rza2m-gr-mango\aws_pkcs11_pal.c ****         {
 592              		.loc 1 256 0
 593 00f8 700053E3 		cmp	r3, #112
 594 00fc F6FFFF1A 		bne	.L46
 595              	.LBE15:
 265:D:/Work/DeviceTester/amazon-freertos/lib/pkcs11/portable/renesas/rza2m-gr-mango\aws_pkcs11_pal.c ****         {
 596              		.loc 1 265 0
 597 0100 1C30A0E3 		mov	r3, #28
 598 0104 682F01E3 		movw	r2, #8040
 599 0108 934523E0 		mla	r3, r3, r5, r4
 600 010c 022093E7 		ldr	r2, [r3, r2]
 601 0110 010052E3 		cmp	r2, #1
 602 0114 2100001A 		bne	.L47
 603              	.LVL78:
 604              	.LBB16:
 270:D:/Work/DeviceTester/amazon-freertos/lib/pkcs11/portable/renesas/rza2m-gr-mango\aws_pkcs11_pal.c ****             uint32_t delete_target_data_size = pkcs_control_block_data_image.data.pkcs_data[xHandle
 605              		.loc 1 270 0
 606 0118 602F01E3 		movw	r2, #8032
 607              	.LBB17:
 277:D:/Work/DeviceTester/amazon-freertos/lib/pkcs11/portable/renesas/rza2m-gr-mango\aws_pkcs11_pal.c ****                         && (pkcs_control_block_data_image.data.pkcs_data[i].local_storage_index == 
 608              		.loc 1 277 0
 609 011c 840F01E3 		movw	r0, #8068
 610              	.LBE17:
 270:D:/Work/DeviceTester/amazon-freertos/lib/pkcs11/portable/renesas/rza2m-gr-mango\aws_pkcs11_pal.c ****             uint32_t delete_target_data_size = pkcs_control_block_data_image.data.pkcs_data[xHandle
 611              		.loc 1 270 0
 612 0120 02A093E7 		ldr	r10, [r3, r2]
 613              	.LVL79:
 271:D:/Work/DeviceTester/amazon-freertos/lib/pkcs11/portable/renesas/rza2m-gr-mango\aws_pkcs11_pal.c **** 
 614              		.loc 1 271 0
 615 0124 642F01E3 		movw	r2, #8036
 616 0128 02B093E7 		ldr	fp, [r3, r2]
 617              	.LVL80:
 618              	.LBB18:
 278:D:/Work/DeviceTester/amazon-freertos/lib/pkcs11/portable/renesas/rza2m-gr-mango\aws_pkcs11_pal.c ****                 {
 619              		.loc 1 278 0
 620 012c 7CCF01E3 		movw	ip, #8060
 621              	.LBE18:
 271:D:/Work/DeviceTester/amazon-freertos/lib/pkcs11/portable/renesas/rza2m-gr-mango\aws_pkcs11_pal.c **** 
 622              		.loc 1 271 0
 623 0130 0030A0E3 		mov	r3, #0
 624              	.LBB19:
 278:D:/Work/DeviceTester/amazon-freertos/lib/pkcs11/portable/renesas/rza2m-gr-mango\aws_pkcs11_pal.c ****                 {
 625              		.loc 1 278 0
 626 0134 0B108AE0 		add	r1, r10, fp
 627              	.LVL81:
 628              	.L50:
 629 0138 032084E0 		add	r2, r4, r3
 277:D:/Work/DeviceTester/amazon-freertos/lib/pkcs11/portable/renesas/rza2m-gr-mango\aws_pkcs11_pal.c ****                         && (pkcs_control_block_data_image.data.pkcs_data[i].local_storage_index == 
 630              		.loc 1 277 0
 631 013c 00E092E7 		ldr	lr, [r2, r0]
 632 0140 01005EE3 		cmp	lr, #1
 633 0144 1100001A 		bne	.L48
 278:D:/Work/DeviceTester/amazon-freertos/lib/pkcs11/portable/renesas/rza2m-gr-mango\aws_pkcs11_pal.c ****                 {
 634              		.loc 1 278 0
 635 0148 0C2092E7 		ldr	r2, [r2, ip]
 636 014c 010052E1 		cmp	r2, r1
 637 0150 0E00001A 		bne	.L48
 638              	.LVL82:
 639              	.LBE19:
 291:D:/Work/DeviceTester/amazon-freertos/lib/pkcs11/portable/renesas/rza2m-gr-mango\aws_pkcs11_pal.c ****                     (void * )&pkcs_control_block_data_image.data.local_storage[delete_target_index]
 640              		.loc 1 291 0
 641 0154 012046E0 		sub	r2, r6, r1
 642 0158 0A0084E0 		add	r0, r4, r10
 643 015c 011084E0 		add	r1, r4, r1
 644              	.LVL83:
 645 0160 FEFFFFEB 		bl	memmove
 646              	.LVL84:
 647 0164 0030A0E3 		mov	r3, #0
 648 0168 7C0F01E3 		movw	r0, #8060
 649              	.LVL85:
 650              	.L49:
 651 016c 001083E0 		add	r1, r3, r0
 652 0170 1C3083E2 		add	r3, r3, #28
 653              	.LBB20:
 300:D:/Work/DeviceTester/amazon-freertos/lib/pkcs11/portable/renesas/rza2m-gr-mango\aws_pkcs11_pal.c ****                     {
 654              		.loc 1 300 0
 655 0174 012094E7 		ldr	r2, [r4, r1]
 656 0178 02005AE1 		cmp	r10, r2
 302:D:/Work/DeviceTester/amazon-freertos/lib/pkcs11/portable/renesas/rza2m-gr-mango\aws_pkcs11_pal.c ****                     }
 657              		.loc 1 302 0
 658 017c 0B204230 		subcc	r2, r2, fp
 659 0180 01208437 		strcc	r2, [r4, r1]
 297:D:/Work/DeviceTester/amazon-freertos/lib/pkcs11/portable/renesas/rza2m-gr-mango\aws_pkcs11_pal.c ****                 {
 660              		.loc 1 297 0
 661 0184 700053E3 		cmp	r3, #112
 662 0188 F7FFFF1A 		bne	.L49
 663 018c 020000EA 		b	.L52
 664              	.LVL86:
 665              	.L48:
 666 0190 1C3083E2 		add	r3, r3, #28
 667              	.LBE20:
 668              	.LBB21:
 274:D:/Work/DeviceTester/amazon-freertos/lib/pkcs11/portable/renesas/rza2m-gr-mango\aws_pkcs11_pal.c ****             {
 669              		.loc 1 274 0 discriminator 2
 670 0194 700053E3 		cmp	r3, #112
 671 0198 E6FFFF1A 		bne	.L50
 672              	.LVL87:
 673              	.L52:
 674              	.LBE21:
 310:D:/Work/DeviceTester/amazon-freertos/lib/pkcs11/portable/renesas/rza2m-gr-mango\aws_pkcs11_pal.c **** 
 675              		.loc 1 310 0
 676 019c 0B6046E0 		sub	r6, r6, fp
 677              	.LVL88:
 678              	.L47:
 679              	.LBE16:
 317:D:/Work/DeviceTester/amazon-freertos/lib/pkcs11/portable/renesas/rza2m-gr-mango\aws_pkcs11_pal.c ****         pkcs_control_block_data_image.data.pkcs_data[xHandle].Label.ulValueLen = pxLabel->ulValueLe
 680              		.loc 1 317 0
 681 01a0 1C30A0E3 		mov	r3, #28
 682 01a4 001097E5 		ldr	r1, [r7]
 683 01a8 934523E0 		mla	r3, r3, r5, r4
 684 01ac 542F01E3 		movw	r2, #8020
 323:D:/Work/DeviceTester/amazon-freertos/lib/pkcs11/portable/renesas/rza2m-gr-mango\aws_pkcs11_pal.c **** 
 685              		.loc 1 323 0
 686 01b0 060084E0 		add	r0, r4, r6
 317:D:/Work/DeviceTester/amazon-freertos/lib/pkcs11/portable/renesas/rza2m-gr-mango\aws_pkcs11_pal.c ****         pkcs_control_block_data_image.data.pkcs_data[xHandle].Label.ulValueLen = pxLabel->ulValueLe
 687              		.loc 1 317 0
 688 01b4 021083E7 		str	r1, [r3, r2]
 318:D:/Work/DeviceTester/amazon-freertos/lib/pkcs11/portable/renesas/rza2m-gr-mango\aws_pkcs11_pal.c ****         pkcs_control_block_data_image.data.pkcs_data[xHandle].local_storage_index = total_stored_da
 689              		.loc 1 318 0
 690 01b8 5C2F01E3 		movw	r2, #8028
 691 01bc 081097E5 		ldr	r1, [r7, #8]
 692 01c0 021083E7 		str	r1, [r3, r2]
 319:D:/Work/DeviceTester/amazon-freertos/lib/pkcs11/portable/renesas/rza2m-gr-mango\aws_pkcs11_pal.c ****         pkcs_control_block_data_image.data.pkcs_data[xHandle].ulDataSize = ulDataSize;
 693              		.loc 1 319 0
 694 01c4 602F01E3 		movw	r2, #8032
 695 01c8 026083E7 		str	r6, [r3, r2]
 320:D:/Work/DeviceTester/amazon-freertos/lib/pkcs11/portable/renesas/rza2m-gr-mango\aws_pkcs11_pal.c ****         pkcs_control_block_data_image.data.pkcs_data[xHandle].status = PKCS_DATA_STATUS_REGISTERED;
 696              		.loc 1 320 0
 697 01cc 642F01E3 		movw	r2, #8036
 698 01d0 028083E7 		str	r8, [r3, r2]
 321:D:/Work/DeviceTester/amazon-freertos/lib/pkcs11/portable/renesas/rza2m-gr-mango\aws_pkcs11_pal.c ****         pkcs_control_block_data_image.data.pkcs_data[xHandle].xHandle = xHandle;
 699              		.loc 1 321 0
 700 01d4 0110A0E3 		mov	r1, #1
 701 01d8 682F01E3 		movw	r2, #8040
 702 01dc 021083E7 		str	r1, [r3, r2]
 322:D:/Work/DeviceTester/amazon-freertos/lib/pkcs11/portable/renesas/rza2m-gr-mango\aws_pkcs11_pal.c ****         memcpy(&pkcs_control_block_data_image.data.local_storage[total_stored_data_size], pucData, 
 703              		.loc 1 322 0
 704 01e0 6C2F01E3 		movw	r2, #8044
 705 01e4 025083E7 		str	r5, [r3, r2]
 323:D:/Work/DeviceTester/amazon-freertos/lib/pkcs11/portable/renesas/rza2m-gr-mango\aws_pkcs11_pal.c **** 
 706              		.loc 1 323 0
 707 01e8 0910A0E1 		mov	r1, r9
 708 01ec 0820A0E1 		mov	r2, r8
 709 01f0 FEFFFFEB 		bl	memcpy
 710              	.LVL89:
 326:D:/Work/DeviceTester/amazon-freertos/lib/pkcs11/portable/renesas/rza2m-gr-mango\aws_pkcs11_pal.c ****         mbedtls_sha256_update_ret(&ctx, (unsigned char *)&pkcs_control_block_data_image.data, sizeo
 711              		.loc 1 326 0
 712 01f4 0010A0E3 		mov	r1, #0
 713 01f8 24008DE2 		add	r0, sp, #36
 714 01fc FEFFFFEB 		bl	mbedtls_sha256_starts_ret
 715              	.LVL90:
 327:D:/Work/DeviceTester/amazon-freertos/lib/pkcs11/portable/renesas/rza2m-gr-mango\aws_pkcs11_pal.c ****         mbedtls_sha256_finish_ret(&ctx, hash_sha256);
 716              		.loc 1 327 0
 717 0200 E02F01E3 		movw	r2, #8160
 718 0204 50109FE5 		ldr	r1, .L62+20
 719 0208 24008DE2 		add	r0, sp, #36
 720 020c FEFFFFEB 		bl	mbedtls_sha256_update_ret
 721              	.LVL91:
 328:D:/Work/DeviceTester/amazon-freertos/lib/pkcs11/portable/renesas/rza2m-gr-mango\aws_pkcs11_pal.c ****         memcpy(pkcs_control_block_data_image.hash_sha256, hash_sha256, sizeof(hash_sha256));
 722              		.loc 1 328 0
 723 0210 04108DE2 		add	r1, sp, #4
 724 0214 24008DE2 		add	r0, sp, #36
 725 0218 FEFFFFEB 		bl	mbedtls_sha256_finish_ret
 726              	.LVL92:
 329:D:/Work/DeviceTester/amazon-freertos/lib/pkcs11/portable/renesas/rza2m-gr-mango\aws_pkcs11_pal.c **** 
 727              		.loc 1 329 0
 728 021c 04C08DE2 		add	ip, sp, #4
 729 0220 40E09FE5 		ldr	lr, .L62+32
 730 0224 0F00BCE8 		ldmia	ip!, {r0, r1, r2, r3}
 731 0228 0F00AEE8 		stmia	lr!, {r0, r1, r2, r3}
 732 022c 0F009CE8 		ldm	ip, {r0, r1, r2, r3}
 733 0230 0F008EE8 		stm	lr, {r0, r1, r2, r3}
 332:D:/Work/DeviceTester/amazon-freertos/lib/pkcs11/portable/renesas/rza2m-gr-mango\aws_pkcs11_pal.c ****         update_eeprom_data_mirror_from_image();
 734              		.loc 1 332 0
 735 0234 FEFFFFEB 		bl	update_eeprom_data_from_image
 736              	.LVL93:
 333:D:/Work/DeviceTester/amazon-freertos/lib/pkcs11/portable/renesas/rza2m-gr-mango\aws_pkcs11_pal.c ****     }
 737              		.loc 1 333 0
 738 0238 FEFFFFEB 		bl	update_eeprom_data_mirror_from_image
 739              	.LVL94:
 740              	.L40:
 741              	.LBE14:
 338:D:/Work/DeviceTester/amazon-freertos/lib/pkcs11/portable/renesas/rza2m-gr-mango\aws_pkcs11_pal.c **** 
 742              		.loc 1 338 0
 743 023c 0500A0E1 		mov	r0, r5
 744 0240 94D08DE2 		add	sp, sp, #148
 745              		.cfi_def_cfa_offset 36
 746              		@ sp needed
 747 0244 F08FBDE8 		pop	{r4, r5, r6, r7, r8, r9, r10, fp, pc}
 748              	.LVL95:
 749              	.L63:
 750              		.align	2
 751              	.L62:
 752 0248 00C0FF50 		.word	1358938112
 753 024c 00000000 		.word	.LANCHOR2
 754 0250 00E0FF50 		.word	1358946304
 755 0254 00000000 		.word	.LANCHOR1
 756 0258 00000000 		.word	pkcs_control_block_data_org
 757 025c 00000000 		.word	.LANCHOR0
 758 0260 00000000 		.word	.LANCHOR3
 759 0264 00000000 		.word	.LANCHOR4
 760 0268 E01F0000 		.word	.LANCHOR0+8160
 761              		.cfi_endproc
 762              	.LFE3:
 764              		.section	.text.PKCS11_PAL_FindObject,"ax",%progbits
 765              		.align	2
 766              		.global	PKCS11_PAL_FindObject
 767              		.syntax unified
 768              		.arm
 769              		.fpu neon
 771              	PKCS11_PAL_FindObject:
 772              	.LFB4:
 355:D:/Work/DeviceTester/amazon-freertos/lib/pkcs11/portable/renesas/rza2m-gr-mango\aws_pkcs11_pal.c ****     /* Avoid compiler warnings about unused variables. */
 773              		.loc 1 355 0
 774              		.cfi_startproc
 775              		@ args = 0, pretend = 0, frame = 0
 776              		@ frame_needed = 0, uses_anonymous_args = 0
 777              	.LVL96:
 778 0000 F84F2DE9 		push	{r3, r4, r5, r6, r7, r8, r9, r10, fp, lr}
 779              		.cfi_def_cfa_offset 40
 780              		.cfi_offset 3, -40
 781              		.cfi_offset 4, -36
 782              		.cfi_offset 5, -32
 783              		.cfi_offset 6, -28
 784              		.cfi_offset 7, -24
 785              		.cfi_offset 8, -20
 786              		.cfi_offset 9, -16
 787              		.cfi_offset 10, -12
 788              		.cfi_offset 11, -8
 789              		.cfi_offset 14, -4
 355:D:/Work/DeviceTester/amazon-freertos/lib/pkcs11/portable/renesas/rza2m-gr-mango\aws_pkcs11_pal.c ****     /* Avoid compiler warnings about unused variables. */
 790              		.loc 1 355 0
 791 0004 0060A0E1 		mov	r6, r0
 364:D:/Work/DeviceTester/amazon-freertos/lib/pkcs11/portable/renesas/rza2m-gr-mango\aws_pkcs11_pal.c ****         {
 792              		.loc 1 364 0
 793 0008 4C709FE5 		ldr	r7, .L70
 362:D:/Work/DeviceTester/amazon-freertos/lib/pkcs11/portable/renesas/rza2m-gr-mango\aws_pkcs11_pal.c ****     {
 794              		.loc 1 362 0
 795 000c 0140A0E3 		mov	r4, #1
 359:D:/Work/DeviceTester/amazon-freertos/lib/pkcs11/portable/renesas/rza2m-gr-mango\aws_pkcs11_pal.c ****     int i;
 796              		.loc 1 359 0
 797 0010 0050A0E3 		mov	r5, #0
 364:D:/Work/DeviceTester/amazon-freertos/lib/pkcs11/portable/renesas/rza2m-gr-mango\aws_pkcs11_pal.c ****         {
 798              		.loc 1 364 0
 799 0014 2880A0E3 		mov	r8, #40
 366:D:/Work/DeviceTester/amazon-freertos/lib/pkcs11/portable/renesas/rza2m-gr-mango\aws_pkcs11_pal.c ****             {
 800              		.loc 1 366 0
 801 0018 40909FE5 		ldr	r9, .L70+4
 802 001c 1CA0A0E3 		mov	r10, #28
 803 0020 68BF01E3 		movw	fp, #8040
 804              	.LVL97:
 805              	.L66:
 364:D:/Work/DeviceTester/amazon-freertos/lib/pkcs11/portable/renesas/rza2m-gr-mango\aws_pkcs11_pal.c ****         {
 806              		.loc 1 364 0
 807 0024 0610A0E1 		mov	r1, r6
 808 0028 987420E0 		mla	r0, r8, r4, r7
 809 002c FEFFFFEB 		bl	strcmp
 810              	.LVL98:
 811 0030 000050E3 		cmp	r0, #0
 812 0034 0300001A 		bne	.L65
 366:D:/Work/DeviceTester/amazon-freertos/lib/pkcs11/portable/renesas/rza2m-gr-mango\aws_pkcs11_pal.c ****             {
 813              		.loc 1 366 0
 814 0038 9AB423E0 		mla	r3, r10, r4, fp
 815 003c 033099E7 		ldr	r3, [r9, r3]
 368:D:/Work/DeviceTester/amazon-freertos/lib/pkcs11/portable/renesas/rza2m-gr-mango\aws_pkcs11_pal.c ****             }
 816              		.loc 1 368 0
 817 0040 010053E3 		cmp	r3, #1
 818 0044 0450A001 		moveq	r5, r4
 819              	.LVL99:
 820              	.L65:
 362:D:/Work/DeviceTester/amazon-freertos/lib/pkcs11/portable/renesas/rza2m-gr-mango\aws_pkcs11_pal.c ****     {
 821              		.loc 1 362 0 discriminator 2
 822 0048 014084E2 		add	r4, r4, #1
 823              	.LVL100:
 824 004c 050054E3 		cmp	r4, #5
 825 0050 F3FFFF1A 		bne	.L66
 374:D:/Work/DeviceTester/amazon-freertos/lib/pkcs11/portable/renesas/rza2m-gr-mango\aws_pkcs11_pal.c **** 
 826              		.loc 1 374 0
 827 0054 0500A0E1 		mov	r0, r5
 828 0058 F88FBDE8 		pop	{r3, r4, r5, r6, r7, r8, r9, r10, fp, pc}
 829              	.L71:
 830              		.align	2
 831              	.L70:
 832 005c 00000000 		.word	.LANCHOR4
 833 0060 00000000 		.word	.LANCHOR0
 834              		.cfi_endproc
 835              	.LFE4:
 837              		.section	.text.PKCS11_PAL_GetObjectValue,"ax",%progbits
 838              		.align	2
 839              		.global	PKCS11_PAL_GetObjectValue
 840              		.syntax unified
 841              		.arm
 842              		.fpu neon
 844              	PKCS11_PAL_GetObjectValue:
 845              	.LFB5:
 403:D:/Work/DeviceTester/amazon-freertos/lib/pkcs11/portable/renesas/rza2m-gr-mango\aws_pkcs11_pal.c ****     CK_RV xReturn = CKR_FUNCTION_FAILED;
 846              		.loc 1 403 0
 847              		.cfi_startproc
 848              		@ args = 0, pretend = 0, frame = 0
 849              		@ frame_needed = 0, uses_anonymous_args = 0
 850              	.LVL101:
 408:D:/Work/DeviceTester/amazon-freertos/lib/pkcs11/portable/renesas/rza2m-gr-mango\aws_pkcs11_pal.c ****     {
 851              		.loc 1 408 0
 852 0000 020050E3 		cmp	r0, #2
 403:D:/Work/DeviceTester/amazon-freertos/lib/pkcs11/portable/renesas/rza2m-gr-mango\aws_pkcs11_pal.c ****     CK_RV xReturn = CKR_FUNCTION_FAILED;
 853              		.loc 1 403 0
 854 0004 00C0A0E1 		mov	ip, r0
 408:D:/Work/DeviceTester/amazon-freertos/lib/pkcs11/portable/renesas/rza2m-gr-mango\aws_pkcs11_pal.c ****     {
 855              		.loc 1 408 0
 856 0008 0300000A 		beq	.L76
 414:D:/Work/DeviceTester/amazon-freertos/lib/pkcs11/portable/renesas/rza2m-gr-mango\aws_pkcs11_pal.c ****     {
 857              		.loc 1 414 0
 858 000c 000050E3 		cmp	r0, #0
 859 0010 0200001A 		bne	.L73
 404:D:/Work/DeviceTester/amazon-freertos/lib/pkcs11/portable/renesas/rza2m-gr-mango\aws_pkcs11_pal.c ****     CK_OBJECT_HANDLE xHandleStorage = xHandle;
 860              		.loc 1 404 0
 861 0014 0600A0E3 		mov	r0, #6
 862              	.LVL102:
 430:D:/Work/DeviceTester/amazon-freertos/lib/pkcs11/portable/renesas/rza2m-gr-mango\aws_pkcs11_pal.c **** 
 863              		.loc 1 430 0
 864 0018 1EFF2FE1 		bx	lr
 865              	.LVL103:
 866              	.L76:
 410:D:/Work/DeviceTester/amazon-freertos/lib/pkcs11/portable/renesas/rza2m-gr-mango\aws_pkcs11_pal.c ****     }
 867              		.loc 1 410 0
 868 001c 0100A0E3 		mov	r0, #1
 869              	.LVL104:
 870              	.L73:
 403:D:/Work/DeviceTester/amazon-freertos/lib/pkcs11/portable/renesas/rza2m-gr-mango\aws_pkcs11_pal.c ****     CK_RV xReturn = CKR_FUNCTION_FAILED;
 871              		.loc 1 403 0
 872 0020 10402DE9 		push	{r4, lr}
 873              		.cfi_def_cfa_offset 8
 874              		.cfi_offset 4, -8
 875              		.cfi_offset 14, -4
 416:D:/Work/DeviceTester/amazon-freertos/lib/pkcs11/portable/renesas/rza2m-gr-mango\aws_pkcs11_pal.c ****         *pulDataSize = pkcs_control_block_data_image.data.pkcs_data[xHandleStorage].ulDataSize;
 876              		.loc 1 416 0
 877 0024 1C40A0E3 		mov	r4, #28
 878 0028 30E09FE5 		ldr	lr, .L81
 419:D:/Work/DeviceTester/amazon-freertos/lib/pkcs11/portable/renesas/rza2m-gr-mango\aws_pkcs11_pal.c ****         {
 879              		.loc 1 419 0
 880 002c 01005CE3 		cmp	ip, #1
 416:D:/Work/DeviceTester/amazon-freertos/lib/pkcs11/portable/renesas/rza2m-gr-mango\aws_pkcs11_pal.c ****         *pulDataSize = pkcs_control_block_data_image.data.pkcs_data[xHandleStorage].ulDataSize;
 881              		.loc 1 416 0
 882 0030 94E020E0 		mla	r0, r4, r0, lr
 883 0034 604F01E3 		movw	r4, #8032
 884 0038 044090E7 		ldr	r4, [r0, r4]
 885 003c 04E08EE0 		add	lr, lr, r4
 886 0040 00E081E5 		str	lr, [r1]
 417:D:/Work/DeviceTester/amazon-freertos/lib/pkcs11/portable/renesas/rza2m-gr-mango\aws_pkcs11_pal.c **** 
 887              		.loc 1 417 0
 888 0044 641F01E3 		movw	r1, #8036
 889              	.LVL105:
 890 0048 011090E7 		ldr	r1, [r0, r1]
 891 004c 0000A0E3 		mov	r0, #0
 892 0050 001082E5 		str	r1, [r2]
 421:D:/Work/DeviceTester/amazon-freertos/lib/pkcs11/portable/renesas/rza2m-gr-mango\aws_pkcs11_pal.c ****         }
 893              		.loc 1 421 0
 894 0054 00C0C305 		strbeq	ip, [r3]
 425:D:/Work/DeviceTester/amazon-freertos/lib/pkcs11/portable/renesas/rza2m-gr-mango\aws_pkcs11_pal.c ****         }
 895              		.loc 1 425 0
 896 0058 0000C315 		strbne	r0, [r3]
 897 005c 1080BDE8 		pop	{r4, pc}
 898              	.L82:
 899              		.align	2
 900              	.L81:
 901 0060 00000000 		.word	.LANCHOR0
 902              		.cfi_endproc
 903              	.LFE5:
 905              		.section	.text.PKCS11_PAL_GetObjectValueCleanup,"ax",%progbits
 906              		.align	2
 907              		.global	PKCS11_PAL_GetObjectValueCleanup
 908              		.syntax unified
 909              		.arm
 910              		.fpu neon
 912              	PKCS11_PAL_GetObjectValueCleanup:
 913              	.LFB6:
 445:D:/Work/DeviceTester/amazon-freertos/lib/pkcs11/portable/renesas/rza2m-gr-mango\aws_pkcs11_pal.c ****     /* Avoid compiler warnings about unused variables. */
 914              		.loc 1 445 0
 915              		.cfi_startproc
 916              		@ args = 0, pretend = 0, frame = 0
 917              		@ frame_needed = 0, uses_anonymous_args = 0
 918              		@ link register save eliminated.
 919              	.LVL106:
 920 0000 1EFF2FE1 		bx	lr
 921              		.cfi_endproc
 922              	.LFE6:
 924              		.set	pkcs_control_block_data_org,pkcs_control_block_data_mirror_org
 925              		.global	object_handle_dictionary
 926              		.section	.bss.pkcs_control_block_data,"aw",%nobits
 927              		.align	2
 928              		.set	.LANCHOR2,. + 0
 931              	pkcs_control_block_data:
 932 0000 00000000 		.space	8192
 932      00000000 
 932      00000000 
 932      00000000 
 932      00000000 
 933              		.section	.bss.pkcs_control_block_data_image,"aw",%nobits
 934              		.align	2
 935              		.set	.LANCHOR0,. + 0
 938              	pkcs_control_block_data_image:
 939 0000 00000000 		.space	8192
 939      00000000 
 939      00000000 
 939      00000000 
 939      00000000 
 940              		.section	.bss.pkcs_control_block_data_mirror,"aw",%nobits
 941              		.align	2
 942              		.set	.LANCHOR1,. + 0
 945              	pkcs_control_block_data_mirror:
 946 0000 00000000 		.space	8192
 946      00000000 
 946      00000000 
 946      00000000 
 946      00000000 
 947              		.section	.data.object_handle_dictionary,"aw",%progbits
 948              		.set	.LANCHOR4,. + 0
 951              	object_handle_dictionary:
 952 0000 00       		.ascii	"\000"
 953 0001 00000000 		.space	39
 953      00000000 
 953      00000000 
 953      00000000 
 953      00000000 
 954 0028 44657669 		.ascii	"Device Priv TLS Key\000"
 954      63652050 
 954      72697620 
 954      544C5320 
 954      4B657900 
 955 003c 00000000 		.space	20
 955      00000000 
 955      00000000 
 955      00000000 
 955      00000000 
 956 0050 44657669 		.ascii	"Device Pub TLS Key\000"
 956      63652050 
 956      75622054 
 956      4C53204B 
 956      657900
 957 0063 00000000 		.space	21
 957      00000000 
 957      00000000 
 957      00000000 
 957      00000000 
 958 0078 44657669 		.ascii	"Device Cert\000"
 958      63652043 
 958      65727400 
 959 0084 00000000 		.space	28
 959      00000000 
 959      00000000 
 959      00000000 
 959      00000000 
 960 00a0 436F6465 		.ascii	"Code Verify Key\000"
 960      20566572 
 960      69667920 
 960      4B657900 
 961 00b0 00000000 		.space	24
 961      00000000 
 961      00000000 
 961      00000000 
 961      00000000 
 962              		.section	.rodata.check_eeprom_area.str1.1,"aMS",%progbits,1
 963              	.LC0:
 964 0000 2D2D2D2D 		.ascii	"------------------------------------------------\015"
 964      2D2D2D2D 
 964      2D2D2D2D 
 964      2D2D2D2D 
 964      2D2D2D2D 
 965 0031 0A00     		.ascii	"\012\000"
 966              	.LC1:
 967 0033 4F435441 		.ascii	"OCTA Flash is completely broken.\015\012\000"
 967      20466C61 
 967      73682069 
 967      7320636F 
 967      6D706C65 
 968              		.section	.rodata.pkcs_control_block_data_mirror_org,"a",%progbits
 969              		.align	2
 970              		.set	.LANCHOR3,. + 0
 973              	pkcs_control_block_data_mirror_org:
 974 0000 00       		.byte	0
 975 0001 00000000 		.space	8019
 975      00000000 
 975      00000000 
 975      00000000 
 975      00000000 
 976 1f54 00000000 		.word	0
 977 1f58 00000000 		.space	8
 977      00000000 
 978 1f60 00000000 		.space	16
 978      00000000 
 978      00000000 
 978      00000000 
 979 1f70 00000000 		.space	112
 979      00000000 
 979      00000000 
 979      00000000 
 979      00000000 
 980 1fe0 EA       		.byte	-22
 981 1fe1 57       		.byte	87
 982 1fe2 12       		.byte	18
 983 1fe3 9A       		.byte	-102
 984 1fe4 18       		.byte	24
 985 1fe5 10       		.byte	16
 986 1fe6 83       		.byte	-125
 987 1fe7 80       		.byte	-128
 988 1fe8 88       		.byte	-120
 989 1fe9 80       		.byte	-128
 990 1fea 40       		.byte	64
 991 1feb 1F       		.byte	31
 992 1fec AE       		.byte	-82
 993 1fed B2       		.byte	-78
 994 1fee D2       		.byte	-46
 995 1fef FF       		.byte	-1
 996 1ff0 1C       		.byte	28
 997 1ff1 14       		.byte	20
 998 1ff2 5E       		.byte	94
 999 1ff3 81       		.byte	-127
 1000 1ff4 22       		.byte	34
 1001 1ff5 6B       		.byte	107
 1002 1ff6 9D       		.byte	-99
 1003 1ff7 93       		.byte	-109
 1004 1ff8 21       		.byte	33
 1005 1ff9 F8       		.byte	-8
 1006 1ffa 0C       		.byte	12
 1007 1ffb C1       		.byte	-63
 1008 1ffc DA       		.byte	-38
 1009 1ffd 29       		.byte	41
 1010 1ffe 61       		.byte	97
 1011 1fff 64       		.byte	100
 1012              		.text
 1013              	.Letext0:
 1014              		.file 2 "D:\\Work\\DeviceTester\\amazon-freertos\\lib\\third_party\\pkcs11/pkcs11t.h"
 1015              		.file 3 "c:\\program files (x86)\\gnu tools arm embedded\\6 2017-q2-update\\lib\\gcc\\arm-none-eab
 1016              		.file 4 "c:\\program files (x86)\\gnu tools arm embedded\\6 2017-q2-update\\arm-none-eabi\\include
 1017              		.file 5 "c:\\program files (x86)\\gnu tools arm embedded\\6 2017-q2-update\\arm-none-eabi\\include
 1018              		.file 6 "c:\\program files (x86)\\gnu tools arm embedded\\6 2017-q2-update\\arm-none-eabi\\include
 1019              		.file 7 "c:\\program files (x86)\\gnu tools arm embedded\\6 2017-q2-update\\arm-none-eabi\\include
 1020              		.file 8 "c:\\program files (x86)\\gnu tools arm embedded\\6 2017-q2-update\\arm-none-eabi\\include
 1021              		.file 9 "c:\\program files (x86)\\gnu tools arm embedded\\6 2017-q2-update\\arm-none-eabi\\include
 1022              		.file 10 "c:\\program files (x86)\\gnu tools arm embedded\\6 2017-q2-update\\arm-none-eabi\\includ
 1023              		.file 11 "D:\\Work\\DeviceTester\\amazon-freertos\\lib\\third_party\\unity\\src/unity_internals.h"
 1024              		.file 12 "D:\\Work\\DeviceTester\\amazon-freertos\\lib\\third_party\\mcu_vendor\\renesas\\rz_mcu_b
 1025              		.file 13 "D:\\Work\\DeviceTester\\amazon-freertos\\lib\\third_party\\mbedtls\\include/mbedtls/sha2
 1026              		.file 14 "c:\\program files (x86)\\gnu tools arm embedded\\6 2017-q2-update\\arm-none-eabi\\includ
 1027              		.file 15 "D:\\Work\\DeviceTester\\amazon-freertos\\lib\\include/task.h"
 1028              		.file 16 "D:\\Work\\DeviceTester\\amazon-freertos\\tests\\renesas\\rza2m-gr-mango\\common\\config_
 1029              		.file 17 "D:\\Work\\DeviceTester\\amazon-freertos\\lib\\third_party\\mcu_vendor\\renesas\\rz_mcu_b