   1              		.cpu cortex-a9
   2              		.eabi_attribute 28, 1
   3              		.eabi_attribute 20, 1
   4              		.eabi_attribute 21, 1
   5              		.eabi_attribute 23, 3
   6              		.eabi_attribute 24, 1
   7              		.eabi_attribute 25, 1
   8              		.eabi_attribute 26, 1
   9              		.eabi_attribute 30, 4
  10              		.eabi_attribute 34, 0
  11              		.eabi_attribute 18, 4
  12              		.file	"aws_pkcs11_mbedtls.c"
  13              		.text
  14              	.Ltext0:
  15              		.cfi_sections	.debug_frame
  16              		.section	.text.C_GetFunctionList,"ax",%progbits
  17              		.align	2
  18              		.global	C_GetFunctionList
  19              		.syntax unified
  20              		.arm
  21              		.fpu neon
  23              	C_GetFunctionList:
  24              	.LFB11:
  25              		.file 1 "D:/Work/DeviceTester/amazon-freertos/lib/pkcs11/mbedtls/aws_pkcs11_mbedtls.c"
   1:D:/Work/DeviceTester/amazon-freertos/lib/pkcs11/mbedtls\aws_pkcs11_mbedtls.c **** /*
   2:D:/Work/DeviceTester/amazon-freertos/lib/pkcs11/mbedtls\aws_pkcs11_mbedtls.c ****  * Amazon FreeRTOS mbedTLS-based PKCS#11 V1.0.7
   3:D:/Work/DeviceTester/amazon-freertos/lib/pkcs11/mbedtls\aws_pkcs11_mbedtls.c ****  * Copyright (C) 2017 Amazon.com, Inc. or its affiliates.  All Rights Reserved.
   4:D:/Work/DeviceTester/amazon-freertos/lib/pkcs11/mbedtls\aws_pkcs11_mbedtls.c ****  *
   5:D:/Work/DeviceTester/amazon-freertos/lib/pkcs11/mbedtls\aws_pkcs11_mbedtls.c ****  * Permission is hereby granted, free of charge, to any person obtaining a copy of
   6:D:/Work/DeviceTester/amazon-freertos/lib/pkcs11/mbedtls\aws_pkcs11_mbedtls.c ****  * this software and associated documentation files (the "Software"), to deal in
   7:D:/Work/DeviceTester/amazon-freertos/lib/pkcs11/mbedtls\aws_pkcs11_mbedtls.c ****  * the Software without restriction, including without limitation the rights to
   8:D:/Work/DeviceTester/amazon-freertos/lib/pkcs11/mbedtls\aws_pkcs11_mbedtls.c ****  * use, copy, modify, merge, publish, distribute, sublicense, and/or sell copies of
   9:D:/Work/DeviceTester/amazon-freertos/lib/pkcs11/mbedtls\aws_pkcs11_mbedtls.c ****  * the Software, and to permit persons to whom the Software is furnished to do so,
  10:D:/Work/DeviceTester/amazon-freertos/lib/pkcs11/mbedtls\aws_pkcs11_mbedtls.c ****  * subject to the following conditions:
  11:D:/Work/DeviceTester/amazon-freertos/lib/pkcs11/mbedtls\aws_pkcs11_mbedtls.c ****  *
  12:D:/Work/DeviceTester/amazon-freertos/lib/pkcs11/mbedtls\aws_pkcs11_mbedtls.c ****  * The above copyright notice and this permission notice shall be included in all
  13:D:/Work/DeviceTester/amazon-freertos/lib/pkcs11/mbedtls\aws_pkcs11_mbedtls.c ****  * copies or substantial portions of the Software.
  14:D:/Work/DeviceTester/amazon-freertos/lib/pkcs11/mbedtls\aws_pkcs11_mbedtls.c ****  *
  15:D:/Work/DeviceTester/amazon-freertos/lib/pkcs11/mbedtls\aws_pkcs11_mbedtls.c ****  * THE SOFTWARE IS PROVIDED "AS IS", WITHOUT WARRANTY OF ANY KIND, EXPRESS OR
  16:D:/Work/DeviceTester/amazon-freertos/lib/pkcs11/mbedtls\aws_pkcs11_mbedtls.c ****  * IMPLIED, INCLUDING BUT NOT LIMITED TO THE WARRANTIES OF MERCHANTABILITY, FITNESS
  17:D:/Work/DeviceTester/amazon-freertos/lib/pkcs11/mbedtls\aws_pkcs11_mbedtls.c ****  * FOR A PARTICULAR PURPOSE AND NONINFRINGEMENT. IN NO EVENT SHALL THE AUTHORS OR
  18:D:/Work/DeviceTester/amazon-freertos/lib/pkcs11/mbedtls\aws_pkcs11_mbedtls.c ****  * COPYRIGHT HOLDERS BE LIABLE FOR ANY CLAIM, DAMAGES OR OTHER LIABILITY, WHETHER
  19:D:/Work/DeviceTester/amazon-freertos/lib/pkcs11/mbedtls\aws_pkcs11_mbedtls.c ****  * IN AN ACTION OF CONTRACT, TORT OR OTHERWISE, ARISING FROM, OUT OF OR IN
  20:D:/Work/DeviceTester/amazon-freertos/lib/pkcs11/mbedtls\aws_pkcs11_mbedtls.c ****  * CONNECTION WITH THE SOFTWARE OR THE USE OR OTHER DEALINGS IN THE SOFTWARE.
  21:D:/Work/DeviceTester/amazon-freertos/lib/pkcs11/mbedtls\aws_pkcs11_mbedtls.c ****  *
  22:D:/Work/DeviceTester/amazon-freertos/lib/pkcs11/mbedtls\aws_pkcs11_mbedtls.c ****  * http://aws.amazon.com/freertos
  23:D:/Work/DeviceTester/amazon-freertos/lib/pkcs11/mbedtls\aws_pkcs11_mbedtls.c ****  * http://www.FreeRTOS.org
  24:D:/Work/DeviceTester/amazon-freertos/lib/pkcs11/mbedtls\aws_pkcs11_mbedtls.c ****  */
  25:D:/Work/DeviceTester/amazon-freertos/lib/pkcs11/mbedtls\aws_pkcs11_mbedtls.c **** 
  26:D:/Work/DeviceTester/amazon-freertos/lib/pkcs11/mbedtls\aws_pkcs11_mbedtls.c **** 
  27:D:/Work/DeviceTester/amazon-freertos/lib/pkcs11/mbedtls\aws_pkcs11_mbedtls.c **** /**
  28:D:/Work/DeviceTester/amazon-freertos/lib/pkcs11/mbedtls\aws_pkcs11_mbedtls.c ****  * @file pkcs11.c
  29:D:/Work/DeviceTester/amazon-freertos/lib/pkcs11/mbedtls\aws_pkcs11_mbedtls.c ****  * @brief mbedTLS PKCS#11 implementation for software keys. This
  30:D:/Work/DeviceTester/amazon-freertos/lib/pkcs11/mbedtls\aws_pkcs11_mbedtls.c ****  * file deviates from the FreeRTOS style standard for some function names and
  31:D:/Work/DeviceTester/amazon-freertos/lib/pkcs11/mbedtls\aws_pkcs11_mbedtls.c ****  * data types in order to maintain compliance with the PKCS#11 standard.
  32:D:/Work/DeviceTester/amazon-freertos/lib/pkcs11/mbedtls\aws_pkcs11_mbedtls.c ****  */
  33:D:/Work/DeviceTester/amazon-freertos/lib/pkcs11/mbedtls\aws_pkcs11_mbedtls.c **** 
  34:D:/Work/DeviceTester/amazon-freertos/lib/pkcs11/mbedtls\aws_pkcs11_mbedtls.c **** /* FreeRTOS includes. */
  35:D:/Work/DeviceTester/amazon-freertos/lib/pkcs11/mbedtls\aws_pkcs11_mbedtls.c **** #include "FreeRTOS.h"
  36:D:/Work/DeviceTester/amazon-freertos/lib/pkcs11/mbedtls\aws_pkcs11_mbedtls.c **** #include "aws_pkcs11_config.h"
  37:D:/Work/DeviceTester/amazon-freertos/lib/pkcs11/mbedtls\aws_pkcs11_mbedtls.c **** #include "aws_crypto.h"
  38:D:/Work/DeviceTester/amazon-freertos/lib/pkcs11/mbedtls\aws_pkcs11_mbedtls.c **** #include "aws_pkcs11.h"
  39:D:/Work/DeviceTester/amazon-freertos/lib/pkcs11/mbedtls\aws_pkcs11_mbedtls.c **** 
  40:D:/Work/DeviceTester/amazon-freertos/lib/pkcs11/mbedtls\aws_pkcs11_mbedtls.c **** /* mbedTLS includes. */
  41:D:/Work/DeviceTester/amazon-freertos/lib/pkcs11/mbedtls\aws_pkcs11_mbedtls.c **** #include "mbedtls/pk.h"
  42:D:/Work/DeviceTester/amazon-freertos/lib/pkcs11/mbedtls\aws_pkcs11_mbedtls.c **** #include "mbedtls/pk_internal.h"
  43:D:/Work/DeviceTester/amazon-freertos/lib/pkcs11/mbedtls\aws_pkcs11_mbedtls.c **** #include "mbedtls/x509_crt.h"
  44:D:/Work/DeviceTester/amazon-freertos/lib/pkcs11/mbedtls\aws_pkcs11_mbedtls.c **** #include "mbedtls/ctr_drbg.h"
  45:D:/Work/DeviceTester/amazon-freertos/lib/pkcs11/mbedtls\aws_pkcs11_mbedtls.c **** #include "mbedtls/entropy.h"
  46:D:/Work/DeviceTester/amazon-freertos/lib/pkcs11/mbedtls\aws_pkcs11_mbedtls.c **** #include "mbedtls/sha256.h"
  47:D:/Work/DeviceTester/amazon-freertos/lib/pkcs11/mbedtls\aws_pkcs11_mbedtls.c **** #include "mbedtls/base64.h"
  48:D:/Work/DeviceTester/amazon-freertos/lib/pkcs11/mbedtls\aws_pkcs11_mbedtls.c **** #include "threading_alt.h"
  49:D:/Work/DeviceTester/amazon-freertos/lib/pkcs11/mbedtls\aws_pkcs11_mbedtls.c **** 
  50:D:/Work/DeviceTester/amazon-freertos/lib/pkcs11/mbedtls\aws_pkcs11_mbedtls.c **** /* C runtime includes. */
  51:D:/Work/DeviceTester/amazon-freertos/lib/pkcs11/mbedtls\aws_pkcs11_mbedtls.c **** #include <stdio.h>
  52:D:/Work/DeviceTester/amazon-freertos/lib/pkcs11/mbedtls\aws_pkcs11_mbedtls.c **** #include <string.h>
  53:D:/Work/DeviceTester/amazon-freertos/lib/pkcs11/mbedtls\aws_pkcs11_mbedtls.c **** 
  54:D:/Work/DeviceTester/amazon-freertos/lib/pkcs11/mbedtls\aws_pkcs11_mbedtls.c **** typedef int ( * pfnMbedTlsSign )( void * ctx,
  55:D:/Work/DeviceTester/amazon-freertos/lib/pkcs11/mbedtls\aws_pkcs11_mbedtls.c ****                                   mbedtls_md_type_t md_alg,
  56:D:/Work/DeviceTester/amazon-freertos/lib/pkcs11/mbedtls\aws_pkcs11_mbedtls.c ****                                   const unsigned char * hash,
  57:D:/Work/DeviceTester/amazon-freertos/lib/pkcs11/mbedtls\aws_pkcs11_mbedtls.c ****                                   size_t hash_len,
  58:D:/Work/DeviceTester/amazon-freertos/lib/pkcs11/mbedtls\aws_pkcs11_mbedtls.c ****                                   unsigned char * sig,
  59:D:/Work/DeviceTester/amazon-freertos/lib/pkcs11/mbedtls\aws_pkcs11_mbedtls.c ****                                   size_t * sig_len,
  60:D:/Work/DeviceTester/amazon-freertos/lib/pkcs11/mbedtls\aws_pkcs11_mbedtls.c ****                                   int ( *f_rng )( void *, unsigned char *, size_t ),
  61:D:/Work/DeviceTester/amazon-freertos/lib/pkcs11/mbedtls\aws_pkcs11_mbedtls.c ****                                   void * p_rng );
  62:D:/Work/DeviceTester/amazon-freertos/lib/pkcs11/mbedtls\aws_pkcs11_mbedtls.c **** 
  63:D:/Work/DeviceTester/amazon-freertos/lib/pkcs11/mbedtls\aws_pkcs11_mbedtls.c **** #define PKCS11_PRINT( X )    vLoggingPrintf X
  64:D:/Work/DeviceTester/amazon-freertos/lib/pkcs11/mbedtls\aws_pkcs11_mbedtls.c **** 
  65:D:/Work/DeviceTester/amazon-freertos/lib/pkcs11/mbedtls\aws_pkcs11_mbedtls.c **** #define pkcs11NO_OPERATION            ( ( CK_MECHANISM_TYPE ) 0xFFFFFFFFF )
  66:D:/Work/DeviceTester/amazon-freertos/lib/pkcs11/mbedtls\aws_pkcs11_mbedtls.c **** 
  67:D:/Work/DeviceTester/amazon-freertos/lib/pkcs11/mbedtls\aws_pkcs11_mbedtls.c **** /* The size of the buffer malloc'ed for the exported public key in C_GenerateKeyPair */
  68:D:/Work/DeviceTester/amazon-freertos/lib/pkcs11/mbedtls\aws_pkcs11_mbedtls.c **** #define pkcs11KEY_GEN_MAX_DER_SIZE    200
  69:D:/Work/DeviceTester/amazon-freertos/lib/pkcs11/mbedtls\aws_pkcs11_mbedtls.c **** 
  70:D:/Work/DeviceTester/amazon-freertos/lib/pkcs11/mbedtls\aws_pkcs11_mbedtls.c **** /* PKCS#11 Object */
  71:D:/Work/DeviceTester/amazon-freertos/lib/pkcs11/mbedtls\aws_pkcs11_mbedtls.c **** typedef struct P11Struct_t
  72:D:/Work/DeviceTester/amazon-freertos/lib/pkcs11/mbedtls\aws_pkcs11_mbedtls.c **** {
  73:D:/Work/DeviceTester/amazon-freertos/lib/pkcs11/mbedtls\aws_pkcs11_mbedtls.c ****     CK_BBOOL xIsInitialized;
  74:D:/Work/DeviceTester/amazon-freertos/lib/pkcs11/mbedtls\aws_pkcs11_mbedtls.c ****     mbedtls_ctr_drbg_context xMbedDrbgCtx;
  75:D:/Work/DeviceTester/amazon-freertos/lib/pkcs11/mbedtls\aws_pkcs11_mbedtls.c ****     mbedtls_entropy_context xMbedEntropyContext;
  76:D:/Work/DeviceTester/amazon-freertos/lib/pkcs11/mbedtls\aws_pkcs11_mbedtls.c **** } P11Struct_t, * P11Context_t;
  77:D:/Work/DeviceTester/amazon-freertos/lib/pkcs11/mbedtls\aws_pkcs11_mbedtls.c **** 
  78:D:/Work/DeviceTester/amazon-freertos/lib/pkcs11/mbedtls\aws_pkcs11_mbedtls.c **** static P11Struct_t xP11Context;
  79:D:/Work/DeviceTester/amazon-freertos/lib/pkcs11/mbedtls\aws_pkcs11_mbedtls.c **** 
  80:D:/Work/DeviceTester/amazon-freertos/lib/pkcs11/mbedtls\aws_pkcs11_mbedtls.c **** 
  81:D:/Work/DeviceTester/amazon-freertos/lib/pkcs11/mbedtls\aws_pkcs11_mbedtls.c **** /**
  82:D:/Work/DeviceTester/amazon-freertos/lib/pkcs11/mbedtls\aws_pkcs11_mbedtls.c ****  * @brief Session structure.
  83:D:/Work/DeviceTester/amazon-freertos/lib/pkcs11/mbedtls\aws_pkcs11_mbedtls.c ****  */
  84:D:/Work/DeviceTester/amazon-freertos/lib/pkcs11/mbedtls\aws_pkcs11_mbedtls.c **** typedef struct P11Session
  85:D:/Work/DeviceTester/amazon-freertos/lib/pkcs11/mbedtls\aws_pkcs11_mbedtls.c **** {
  86:D:/Work/DeviceTester/amazon-freertos/lib/pkcs11/mbedtls\aws_pkcs11_mbedtls.c ****     CK_ULONG ulState;
  87:D:/Work/DeviceTester/amazon-freertos/lib/pkcs11/mbedtls\aws_pkcs11_mbedtls.c ****     CK_BBOOL xOpened;
  88:D:/Work/DeviceTester/amazon-freertos/lib/pkcs11/mbedtls\aws_pkcs11_mbedtls.c ****     CK_MECHANISM_TYPE xOperationInProgress;
  89:D:/Work/DeviceTester/amazon-freertos/lib/pkcs11/mbedtls\aws_pkcs11_mbedtls.c ****     CK_BBOOL xFindObjectInit;
  90:D:/Work/DeviceTester/amazon-freertos/lib/pkcs11/mbedtls\aws_pkcs11_mbedtls.c ****     CK_BBOOL xFindObjectComplete;
  91:D:/Work/DeviceTester/amazon-freertos/lib/pkcs11/mbedtls\aws_pkcs11_mbedtls.c ****     uint8_t * xFindObjectLabel;
  92:D:/Work/DeviceTester/amazon-freertos/lib/pkcs11/mbedtls\aws_pkcs11_mbedtls.c ****     uint8_t xFindObjectLabelLength;
  93:D:/Work/DeviceTester/amazon-freertos/lib/pkcs11/mbedtls\aws_pkcs11_mbedtls.c ****     SemaphoreHandle_t xVerifyMutex; /* Protects the verification key from being modified while in u
  94:D:/Work/DeviceTester/amazon-freertos/lib/pkcs11/mbedtls\aws_pkcs11_mbedtls.c ****     mbedtls_pk_context xVerifyKey;
  95:D:/Work/DeviceTester/amazon-freertos/lib/pkcs11/mbedtls\aws_pkcs11_mbedtls.c ****     SemaphoreHandle_t xSignMutex;   /* Protects the signing key from being modified while in use. *
  96:D:/Work/DeviceTester/amazon-freertos/lib/pkcs11/mbedtls\aws_pkcs11_mbedtls.c ****     mbedtls_pk_context xSignKey;
  97:D:/Work/DeviceTester/amazon-freertos/lib/pkcs11/mbedtls\aws_pkcs11_mbedtls.c ****     mbedtls_sha256_context xSHA256Context;
  98:D:/Work/DeviceTester/amazon-freertos/lib/pkcs11/mbedtls\aws_pkcs11_mbedtls.c **** } P11Session_t, * P11SessionPtr_t;
  99:D:/Work/DeviceTester/amazon-freertos/lib/pkcs11/mbedtls\aws_pkcs11_mbedtls.c **** 
 100:D:/Work/DeviceTester/amazon-freertos/lib/pkcs11/mbedtls\aws_pkcs11_mbedtls.c **** /**
 101:D:/Work/DeviceTester/amazon-freertos/lib/pkcs11/mbedtls\aws_pkcs11_mbedtls.c ****  * @brief Cryptoki module attribute definitions.
 102:D:/Work/DeviceTester/amazon-freertos/lib/pkcs11/mbedtls\aws_pkcs11_mbedtls.c ****  */
 103:D:/Work/DeviceTester/amazon-freertos/lib/pkcs11/mbedtls\aws_pkcs11_mbedtls.c **** #define pkcs11SLOT_ID               1
 104:D:/Work/DeviceTester/amazon-freertos/lib/pkcs11/mbedtls\aws_pkcs11_mbedtls.c **** 
 105:D:/Work/DeviceTester/amazon-freertos/lib/pkcs11/mbedtls\aws_pkcs11_mbedtls.c **** #define pkcs11SUPPORTED_KEY_BITS    2048
 106:D:/Work/DeviceTester/amazon-freertos/lib/pkcs11/mbedtls\aws_pkcs11_mbedtls.c **** 
 107:D:/Work/DeviceTester/amazon-freertos/lib/pkcs11/mbedtls\aws_pkcs11_mbedtls.c **** 
 108:D:/Work/DeviceTester/amazon-freertos/lib/pkcs11/mbedtls\aws_pkcs11_mbedtls.c **** /**
 109:D:/Work/DeviceTester/amazon-freertos/lib/pkcs11/mbedtls\aws_pkcs11_mbedtls.c ****  * @brief Helper definitions.
 110:D:/Work/DeviceTester/amazon-freertos/lib/pkcs11/mbedtls\aws_pkcs11_mbedtls.c ****  */
 111:D:/Work/DeviceTester/amazon-freertos/lib/pkcs11/mbedtls\aws_pkcs11_mbedtls.c **** #define pkcs11CREATE_OBJECT_MIN_ATTRIBUTE_COUNT             3
 112:D:/Work/DeviceTester/amazon-freertos/lib/pkcs11/mbedtls\aws_pkcs11_mbedtls.c **** 
 113:D:/Work/DeviceTester/amazon-freertos/lib/pkcs11/mbedtls\aws_pkcs11_mbedtls.c **** #define pkcs11GENERATE_KEY_PAIR_KEYTYPE_ATTRIBUTE_INDEX     0
 114:D:/Work/DeviceTester/amazon-freertos/lib/pkcs11/mbedtls\aws_pkcs11_mbedtls.c **** #define pkcs11GENERATE_KEY_PAIR_ECPARAMS_ATTRIBUTE_INDEX    1
 115:D:/Work/DeviceTester/amazon-freertos/lib/pkcs11/mbedtls\aws_pkcs11_mbedtls.c **** 
 116:D:/Work/DeviceTester/amazon-freertos/lib/pkcs11/mbedtls\aws_pkcs11_mbedtls.c **** 
 117:D:/Work/DeviceTester/amazon-freertos/lib/pkcs11/mbedtls\aws_pkcs11_mbedtls.c **** /*-----------------------------------------------------------*/
 118:D:/Work/DeviceTester/amazon-freertos/lib/pkcs11/mbedtls\aws_pkcs11_mbedtls.c **** /*------------ Port Specific File Access API ----------------*/
 119:D:/Work/DeviceTester/amazon-freertos/lib/pkcs11/mbedtls\aws_pkcs11_mbedtls.c **** /*--------- See aws_pkcs11_pal.c for definitions ------------*/
 120:D:/Work/DeviceTester/amazon-freertos/lib/pkcs11/mbedtls\aws_pkcs11_mbedtls.c **** /*-----------------------------------------------------------*/
 121:D:/Work/DeviceTester/amazon-freertos/lib/pkcs11/mbedtls\aws_pkcs11_mbedtls.c **** 
 122:D:/Work/DeviceTester/amazon-freertos/lib/pkcs11/mbedtls\aws_pkcs11_mbedtls.c **** /**
 123:D:/Work/DeviceTester/amazon-freertos/lib/pkcs11/mbedtls\aws_pkcs11_mbedtls.c ****  *  @brief Save an object to storage.
 124:D:/Work/DeviceTester/amazon-freertos/lib/pkcs11/mbedtls\aws_pkcs11_mbedtls.c ****  */
 125:D:/Work/DeviceTester/amazon-freertos/lib/pkcs11/mbedtls\aws_pkcs11_mbedtls.c **** extern CK_OBJECT_HANDLE PKCS11_PAL_SaveObject( CK_ATTRIBUTE_PTR pxLabel,
 126:D:/Work/DeviceTester/amazon-freertos/lib/pkcs11/mbedtls\aws_pkcs11_mbedtls.c ****                                                uint8_t * pucData,
 127:D:/Work/DeviceTester/amazon-freertos/lib/pkcs11/mbedtls\aws_pkcs11_mbedtls.c ****                                                uint32_t ulDataSize );
 128:D:/Work/DeviceTester/amazon-freertos/lib/pkcs11/mbedtls\aws_pkcs11_mbedtls.c **** 
 129:D:/Work/DeviceTester/amazon-freertos/lib/pkcs11/mbedtls\aws_pkcs11_mbedtls.c **** /**
 130:D:/Work/DeviceTester/amazon-freertos/lib/pkcs11/mbedtls\aws_pkcs11_mbedtls.c ****  *   @brief Look up an object handle using it's label.
 131:D:/Work/DeviceTester/amazon-freertos/lib/pkcs11/mbedtls\aws_pkcs11_mbedtls.c ****  */
 132:D:/Work/DeviceTester/amazon-freertos/lib/pkcs11/mbedtls\aws_pkcs11_mbedtls.c **** extern CK_OBJECT_HANDLE PKCS11_PAL_FindObject( uint8_t * pLabel,
 133:D:/Work/DeviceTester/amazon-freertos/lib/pkcs11/mbedtls\aws_pkcs11_mbedtls.c ****                                                uint8_t usLength );
 134:D:/Work/DeviceTester/amazon-freertos/lib/pkcs11/mbedtls\aws_pkcs11_mbedtls.c **** 
 135:D:/Work/DeviceTester/amazon-freertos/lib/pkcs11/mbedtls\aws_pkcs11_mbedtls.c **** /**
 136:D:/Work/DeviceTester/amazon-freertos/lib/pkcs11/mbedtls\aws_pkcs11_mbedtls.c ****  *   @brief Get the value of an object.
 137:D:/Work/DeviceTester/amazon-freertos/lib/pkcs11/mbedtls\aws_pkcs11_mbedtls.c ****  *   @note  Buffers may be allocated by this call, and should be
 138:D:/Work/DeviceTester/amazon-freertos/lib/pkcs11/mbedtls\aws_pkcs11_mbedtls.c ****  *          freed up by calling PKCS11_PAL_GetObjectValueCleanup().
 139:D:/Work/DeviceTester/amazon-freertos/lib/pkcs11/mbedtls\aws_pkcs11_mbedtls.c ****  */
 140:D:/Work/DeviceTester/amazon-freertos/lib/pkcs11/mbedtls\aws_pkcs11_mbedtls.c **** extern BaseType_t PKCS11_PAL_GetObjectValue( CK_OBJECT_HANDLE xHandle,
 141:D:/Work/DeviceTester/amazon-freertos/lib/pkcs11/mbedtls\aws_pkcs11_mbedtls.c ****                                              uint8_t ** ppucData,
 142:D:/Work/DeviceTester/amazon-freertos/lib/pkcs11/mbedtls\aws_pkcs11_mbedtls.c ****                                              uint32_t * pulDataSize,
 143:D:/Work/DeviceTester/amazon-freertos/lib/pkcs11/mbedtls\aws_pkcs11_mbedtls.c ****                                              CK_BBOOL * xIsPrivate );
 144:D:/Work/DeviceTester/amazon-freertos/lib/pkcs11/mbedtls\aws_pkcs11_mbedtls.c **** 
 145:D:/Work/DeviceTester/amazon-freertos/lib/pkcs11/mbedtls\aws_pkcs11_mbedtls.c **** /**
 146:D:/Work/DeviceTester/amazon-freertos/lib/pkcs11/mbedtls\aws_pkcs11_mbedtls.c ****  *  @brief Free the buffer allocated in PKCS11_PAL_GetObjectValue() (see PAL).
 147:D:/Work/DeviceTester/amazon-freertos/lib/pkcs11/mbedtls\aws_pkcs11_mbedtls.c ****  */
 148:D:/Work/DeviceTester/amazon-freertos/lib/pkcs11/mbedtls\aws_pkcs11_mbedtls.c **** extern void PKCS11_PAL_GetObjectValueCleanup( uint8_t * pucBuffer,
 149:D:/Work/DeviceTester/amazon-freertos/lib/pkcs11/mbedtls\aws_pkcs11_mbedtls.c ****                                               uint32_t ulBufferSize );
 150:D:/Work/DeviceTester/amazon-freertos/lib/pkcs11/mbedtls\aws_pkcs11_mbedtls.c **** 
 151:D:/Work/DeviceTester/amazon-freertos/lib/pkcs11/mbedtls\aws_pkcs11_mbedtls.c **** /*-----------------------------------------------------------*/
 152:D:/Work/DeviceTester/amazon-freertos/lib/pkcs11/mbedtls\aws_pkcs11_mbedtls.c **** 
 153:D:/Work/DeviceTester/amazon-freertos/lib/pkcs11/mbedtls\aws_pkcs11_mbedtls.c **** 
 154:D:/Work/DeviceTester/amazon-freertos/lib/pkcs11/mbedtls\aws_pkcs11_mbedtls.c **** 
 155:D:/Work/DeviceTester/amazon-freertos/lib/pkcs11/mbedtls\aws_pkcs11_mbedtls.c **** /*-----------------------------------------------------------*/
 156:D:/Work/DeviceTester/amazon-freertos/lib/pkcs11/mbedtls\aws_pkcs11_mbedtls.c **** /*--------- mbedTLS threading functions for FreeRTOS --------*/
 157:D:/Work/DeviceTester/amazon-freertos/lib/pkcs11/mbedtls\aws_pkcs11_mbedtls.c **** /*--------------- See MBEDTLS_THREADING_ALT -----------------*/
 158:D:/Work/DeviceTester/amazon-freertos/lib/pkcs11/mbedtls\aws_pkcs11_mbedtls.c **** /*-----------------------------------------------------------*/
 159:D:/Work/DeviceTester/amazon-freertos/lib/pkcs11/mbedtls\aws_pkcs11_mbedtls.c **** 
 160:D:/Work/DeviceTester/amazon-freertos/lib/pkcs11/mbedtls\aws_pkcs11_mbedtls.c **** /**
 161:D:/Work/DeviceTester/amazon-freertos/lib/pkcs11/mbedtls\aws_pkcs11_mbedtls.c ****  * @brief Implementation of mbedtls_mutex_init for thread-safety.
 162:D:/Work/DeviceTester/amazon-freertos/lib/pkcs11/mbedtls\aws_pkcs11_mbedtls.c ****  *
 163:D:/Work/DeviceTester/amazon-freertos/lib/pkcs11/mbedtls\aws_pkcs11_mbedtls.c ****  */
 164:D:/Work/DeviceTester/amazon-freertos/lib/pkcs11/mbedtls\aws_pkcs11_mbedtls.c **** void aws_mbedtls_mutex_init( mbedtls_threading_mutex_t * mutex )
 165:D:/Work/DeviceTester/amazon-freertos/lib/pkcs11/mbedtls\aws_pkcs11_mbedtls.c **** {
 166:D:/Work/DeviceTester/amazon-freertos/lib/pkcs11/mbedtls\aws_pkcs11_mbedtls.c ****     if( mutex->is_valid == 0 )
 167:D:/Work/DeviceTester/amazon-freertos/lib/pkcs11/mbedtls\aws_pkcs11_mbedtls.c ****     {
 168:D:/Work/DeviceTester/amazon-freertos/lib/pkcs11/mbedtls\aws_pkcs11_mbedtls.c ****         mutex->mutex = xSemaphoreCreateMutex();
 169:D:/Work/DeviceTester/amazon-freertos/lib/pkcs11/mbedtls\aws_pkcs11_mbedtls.c **** 
 170:D:/Work/DeviceTester/amazon-freertos/lib/pkcs11/mbedtls\aws_pkcs11_mbedtls.c ****         if( mutex->mutex != NULL )
 171:D:/Work/DeviceTester/amazon-freertos/lib/pkcs11/mbedtls\aws_pkcs11_mbedtls.c ****         {
 172:D:/Work/DeviceTester/amazon-freertos/lib/pkcs11/mbedtls\aws_pkcs11_mbedtls.c ****             mutex->is_valid = 1;
 173:D:/Work/DeviceTester/amazon-freertos/lib/pkcs11/mbedtls\aws_pkcs11_mbedtls.c ****         }
 174:D:/Work/DeviceTester/amazon-freertos/lib/pkcs11/mbedtls\aws_pkcs11_mbedtls.c ****         else
 175:D:/Work/DeviceTester/amazon-freertos/lib/pkcs11/mbedtls\aws_pkcs11_mbedtls.c ****         {
 176:D:/Work/DeviceTester/amazon-freertos/lib/pkcs11/mbedtls\aws_pkcs11_mbedtls.c ****             PKCS11_PRINT( ( "Failed to initialize mbedTLS mutex.\r\n" ) );
 177:D:/Work/DeviceTester/amazon-freertos/lib/pkcs11/mbedtls\aws_pkcs11_mbedtls.c ****         }
 178:D:/Work/DeviceTester/amazon-freertos/lib/pkcs11/mbedtls\aws_pkcs11_mbedtls.c ****     }
 179:D:/Work/DeviceTester/amazon-freertos/lib/pkcs11/mbedtls\aws_pkcs11_mbedtls.c **** }
 180:D:/Work/DeviceTester/amazon-freertos/lib/pkcs11/mbedtls\aws_pkcs11_mbedtls.c **** 
 181:D:/Work/DeviceTester/amazon-freertos/lib/pkcs11/mbedtls\aws_pkcs11_mbedtls.c **** /**
 182:D:/Work/DeviceTester/amazon-freertos/lib/pkcs11/mbedtls\aws_pkcs11_mbedtls.c ****  * @brief Implementation of mbedtls_mutex_free for thread-safety.
 183:D:/Work/DeviceTester/amazon-freertos/lib/pkcs11/mbedtls\aws_pkcs11_mbedtls.c ****  *
 184:D:/Work/DeviceTester/amazon-freertos/lib/pkcs11/mbedtls\aws_pkcs11_mbedtls.c ****  */
 185:D:/Work/DeviceTester/amazon-freertos/lib/pkcs11/mbedtls\aws_pkcs11_mbedtls.c **** void aws_mbedtls_mutex_free( mbedtls_threading_mutex_t * mutex )
 186:D:/Work/DeviceTester/amazon-freertos/lib/pkcs11/mbedtls\aws_pkcs11_mbedtls.c **** {
 187:D:/Work/DeviceTester/amazon-freertos/lib/pkcs11/mbedtls\aws_pkcs11_mbedtls.c ****     if( mutex->is_valid == 1 )
 188:D:/Work/DeviceTester/amazon-freertos/lib/pkcs11/mbedtls\aws_pkcs11_mbedtls.c ****     {
 189:D:/Work/DeviceTester/amazon-freertos/lib/pkcs11/mbedtls\aws_pkcs11_mbedtls.c ****         vSemaphoreDelete( mutex->mutex );
 190:D:/Work/DeviceTester/amazon-freertos/lib/pkcs11/mbedtls\aws_pkcs11_mbedtls.c ****         mutex->is_valid = 0;
 191:D:/Work/DeviceTester/amazon-freertos/lib/pkcs11/mbedtls\aws_pkcs11_mbedtls.c ****     }
 192:D:/Work/DeviceTester/amazon-freertos/lib/pkcs11/mbedtls\aws_pkcs11_mbedtls.c **** }
 193:D:/Work/DeviceTester/amazon-freertos/lib/pkcs11/mbedtls\aws_pkcs11_mbedtls.c **** 
 194:D:/Work/DeviceTester/amazon-freertos/lib/pkcs11/mbedtls\aws_pkcs11_mbedtls.c **** /**
 195:D:/Work/DeviceTester/amazon-freertos/lib/pkcs11/mbedtls\aws_pkcs11_mbedtls.c ****  * @brief Implementation of mbedtls_mutex_lock for thread-safety.
 196:D:/Work/DeviceTester/amazon-freertos/lib/pkcs11/mbedtls\aws_pkcs11_mbedtls.c ****  *
 197:D:/Work/DeviceTester/amazon-freertos/lib/pkcs11/mbedtls\aws_pkcs11_mbedtls.c ****  * @return 0 if successful, MBEDTLS_ERR_THREADING_MUTEX_ERROR if timeout,
 198:D:/Work/DeviceTester/amazon-freertos/lib/pkcs11/mbedtls\aws_pkcs11_mbedtls.c ****  * MBEDTLS_ERR_THREADING_BAD_INPUT_DATA if the mutex is not valid.
 199:D:/Work/DeviceTester/amazon-freertos/lib/pkcs11/mbedtls\aws_pkcs11_mbedtls.c ****  */
 200:D:/Work/DeviceTester/amazon-freertos/lib/pkcs11/mbedtls\aws_pkcs11_mbedtls.c **** int aws_mbedtls_mutex_lock( mbedtls_threading_mutex_t * mutex )
 201:D:/Work/DeviceTester/amazon-freertos/lib/pkcs11/mbedtls\aws_pkcs11_mbedtls.c **** {
 202:D:/Work/DeviceTester/amazon-freertos/lib/pkcs11/mbedtls\aws_pkcs11_mbedtls.c ****     int ret = MBEDTLS_ERR_THREADING_BAD_INPUT_DATA;
 203:D:/Work/DeviceTester/amazon-freertos/lib/pkcs11/mbedtls\aws_pkcs11_mbedtls.c **** 
 204:D:/Work/DeviceTester/amazon-freertos/lib/pkcs11/mbedtls\aws_pkcs11_mbedtls.c ****     if( mutex->is_valid == 1 )
 205:D:/Work/DeviceTester/amazon-freertos/lib/pkcs11/mbedtls\aws_pkcs11_mbedtls.c ****     {
 206:D:/Work/DeviceTester/amazon-freertos/lib/pkcs11/mbedtls\aws_pkcs11_mbedtls.c ****         if( xSemaphoreTake( mutex->mutex, portMAX_DELAY ) )
 207:D:/Work/DeviceTester/amazon-freertos/lib/pkcs11/mbedtls\aws_pkcs11_mbedtls.c ****         {
 208:D:/Work/DeviceTester/amazon-freertos/lib/pkcs11/mbedtls\aws_pkcs11_mbedtls.c ****             ret = 0;
 209:D:/Work/DeviceTester/amazon-freertos/lib/pkcs11/mbedtls\aws_pkcs11_mbedtls.c ****         }
 210:D:/Work/DeviceTester/amazon-freertos/lib/pkcs11/mbedtls\aws_pkcs11_mbedtls.c ****         else
 211:D:/Work/DeviceTester/amazon-freertos/lib/pkcs11/mbedtls\aws_pkcs11_mbedtls.c ****         {
 212:D:/Work/DeviceTester/amazon-freertos/lib/pkcs11/mbedtls\aws_pkcs11_mbedtls.c ****             ret = MBEDTLS_ERR_THREADING_MUTEX_ERROR;
 213:D:/Work/DeviceTester/amazon-freertos/lib/pkcs11/mbedtls\aws_pkcs11_mbedtls.c ****             PKCS11_PRINT( ( "Failed to obtain mbedTLS mutex.\r\n" ) );
 214:D:/Work/DeviceTester/amazon-freertos/lib/pkcs11/mbedtls\aws_pkcs11_mbedtls.c ****         }
 215:D:/Work/DeviceTester/amazon-freertos/lib/pkcs11/mbedtls\aws_pkcs11_mbedtls.c ****     }
 216:D:/Work/DeviceTester/amazon-freertos/lib/pkcs11/mbedtls\aws_pkcs11_mbedtls.c **** 
 217:D:/Work/DeviceTester/amazon-freertos/lib/pkcs11/mbedtls\aws_pkcs11_mbedtls.c ****     return ret;
 218:D:/Work/DeviceTester/amazon-freertos/lib/pkcs11/mbedtls\aws_pkcs11_mbedtls.c **** }
 219:D:/Work/DeviceTester/amazon-freertos/lib/pkcs11/mbedtls\aws_pkcs11_mbedtls.c **** 
 220:D:/Work/DeviceTester/amazon-freertos/lib/pkcs11/mbedtls\aws_pkcs11_mbedtls.c **** /**
 221:D:/Work/DeviceTester/amazon-freertos/lib/pkcs11/mbedtls\aws_pkcs11_mbedtls.c ****  * @brief Implementation of mbedtls_mutex_unlock for thread-safety.
 222:D:/Work/DeviceTester/amazon-freertos/lib/pkcs11/mbedtls\aws_pkcs11_mbedtls.c ****  *
 223:D:/Work/DeviceTester/amazon-freertos/lib/pkcs11/mbedtls\aws_pkcs11_mbedtls.c ****  * @return 0 if successful, MBEDTLS_ERR_THREADING_MUTEX_ERROR if timeout,
 224:D:/Work/DeviceTester/amazon-freertos/lib/pkcs11/mbedtls\aws_pkcs11_mbedtls.c ****  * MBEDTLS_ERR_THREADING_BAD_INPUT_DATA if the mutex is not valid.
 225:D:/Work/DeviceTester/amazon-freertos/lib/pkcs11/mbedtls\aws_pkcs11_mbedtls.c ****  */
 226:D:/Work/DeviceTester/amazon-freertos/lib/pkcs11/mbedtls\aws_pkcs11_mbedtls.c **** int aws_mbedtls_mutex_unlock( mbedtls_threading_mutex_t * mutex )
 227:D:/Work/DeviceTester/amazon-freertos/lib/pkcs11/mbedtls\aws_pkcs11_mbedtls.c **** {
 228:D:/Work/DeviceTester/amazon-freertos/lib/pkcs11/mbedtls\aws_pkcs11_mbedtls.c ****     int ret = MBEDTLS_ERR_THREADING_BAD_INPUT_DATA;
 229:D:/Work/DeviceTester/amazon-freertos/lib/pkcs11/mbedtls\aws_pkcs11_mbedtls.c **** 
 230:D:/Work/DeviceTester/amazon-freertos/lib/pkcs11/mbedtls\aws_pkcs11_mbedtls.c ****     if( mutex->is_valid == 1 )
 231:D:/Work/DeviceTester/amazon-freertos/lib/pkcs11/mbedtls\aws_pkcs11_mbedtls.c ****     {
 232:D:/Work/DeviceTester/amazon-freertos/lib/pkcs11/mbedtls\aws_pkcs11_mbedtls.c ****         if( xSemaphoreGive( mutex->mutex ) )
 233:D:/Work/DeviceTester/amazon-freertos/lib/pkcs11/mbedtls\aws_pkcs11_mbedtls.c ****         {
 234:D:/Work/DeviceTester/amazon-freertos/lib/pkcs11/mbedtls\aws_pkcs11_mbedtls.c ****             ret = 0;
 235:D:/Work/DeviceTester/amazon-freertos/lib/pkcs11/mbedtls\aws_pkcs11_mbedtls.c ****         }
 236:D:/Work/DeviceTester/amazon-freertos/lib/pkcs11/mbedtls\aws_pkcs11_mbedtls.c ****         else
 237:D:/Work/DeviceTester/amazon-freertos/lib/pkcs11/mbedtls\aws_pkcs11_mbedtls.c ****         {
 238:D:/Work/DeviceTester/amazon-freertos/lib/pkcs11/mbedtls\aws_pkcs11_mbedtls.c ****             ret = MBEDTLS_ERR_THREADING_MUTEX_ERROR;
 239:D:/Work/DeviceTester/amazon-freertos/lib/pkcs11/mbedtls\aws_pkcs11_mbedtls.c ****             PKCS11_PRINT( ( "Failed to unlock mbedTLS mutex.\r\n" ) );
 240:D:/Work/DeviceTester/amazon-freertos/lib/pkcs11/mbedtls\aws_pkcs11_mbedtls.c ****         }
 241:D:/Work/DeviceTester/amazon-freertos/lib/pkcs11/mbedtls\aws_pkcs11_mbedtls.c ****     }
 242:D:/Work/DeviceTester/amazon-freertos/lib/pkcs11/mbedtls\aws_pkcs11_mbedtls.c **** 
 243:D:/Work/DeviceTester/amazon-freertos/lib/pkcs11/mbedtls\aws_pkcs11_mbedtls.c ****     return ret;
 244:D:/Work/DeviceTester/amazon-freertos/lib/pkcs11/mbedtls\aws_pkcs11_mbedtls.c **** }
 245:D:/Work/DeviceTester/amazon-freertos/lib/pkcs11/mbedtls\aws_pkcs11_mbedtls.c **** 
 246:D:/Work/DeviceTester/amazon-freertos/lib/pkcs11/mbedtls\aws_pkcs11_mbedtls.c **** /*-----------------------------------------------------------*/
 247:D:/Work/DeviceTester/amazon-freertos/lib/pkcs11/mbedtls\aws_pkcs11_mbedtls.c **** 
 248:D:/Work/DeviceTester/amazon-freertos/lib/pkcs11/mbedtls\aws_pkcs11_mbedtls.c **** /**
 249:D:/Work/DeviceTester/amazon-freertos/lib/pkcs11/mbedtls\aws_pkcs11_mbedtls.c ****  * @brief Maps an opaque caller session handle into its internal state structure.
 250:D:/Work/DeviceTester/amazon-freertos/lib/pkcs11/mbedtls\aws_pkcs11_mbedtls.c ****  */
 251:D:/Work/DeviceTester/amazon-freertos/lib/pkcs11/mbedtls\aws_pkcs11_mbedtls.c **** P11SessionPtr_t prvSessionPointerFromHandle( CK_SESSION_HANDLE xSession )
 252:D:/Work/DeviceTester/amazon-freertos/lib/pkcs11/mbedtls\aws_pkcs11_mbedtls.c **** {
 253:D:/Work/DeviceTester/amazon-freertos/lib/pkcs11/mbedtls\aws_pkcs11_mbedtls.c ****     return ( P11SessionPtr_t ) xSession; /*lint !e923 Allow casting integer type to pointer for han
 254:D:/Work/DeviceTester/amazon-freertos/lib/pkcs11/mbedtls\aws_pkcs11_mbedtls.c **** }
 255:D:/Work/DeviceTester/amazon-freertos/lib/pkcs11/mbedtls\aws_pkcs11_mbedtls.c **** 
 256:D:/Work/DeviceTester/amazon-freertos/lib/pkcs11/mbedtls\aws_pkcs11_mbedtls.c **** 
 257:D:/Work/DeviceTester/amazon-freertos/lib/pkcs11/mbedtls\aws_pkcs11_mbedtls.c **** /*
 258:D:/Work/DeviceTester/amazon-freertos/lib/pkcs11/mbedtls\aws_pkcs11_mbedtls.c ****  * PKCS#11 module implementation.
 259:D:/Work/DeviceTester/amazon-freertos/lib/pkcs11/mbedtls\aws_pkcs11_mbedtls.c ****  */
 260:D:/Work/DeviceTester/amazon-freertos/lib/pkcs11/mbedtls\aws_pkcs11_mbedtls.c **** 
 261:D:/Work/DeviceTester/amazon-freertos/lib/pkcs11/mbedtls\aws_pkcs11_mbedtls.c **** /**
 262:D:/Work/DeviceTester/amazon-freertos/lib/pkcs11/mbedtls\aws_pkcs11_mbedtls.c ****  * @brief PKCS#11 interface functions implemented by this Cryptoki module.
 263:D:/Work/DeviceTester/amazon-freertos/lib/pkcs11/mbedtls\aws_pkcs11_mbedtls.c ****  */
 264:D:/Work/DeviceTester/amazon-freertos/lib/pkcs11/mbedtls\aws_pkcs11_mbedtls.c **** static CK_FUNCTION_LIST prvP11FunctionList =
 265:D:/Work/DeviceTester/amazon-freertos/lib/pkcs11/mbedtls\aws_pkcs11_mbedtls.c **** {
 266:D:/Work/DeviceTester/amazon-freertos/lib/pkcs11/mbedtls\aws_pkcs11_mbedtls.c ****     { CRYPTOKI_VERSION_MAJOR, CRYPTOKI_VERSION_MINOR },
 267:D:/Work/DeviceTester/amazon-freertos/lib/pkcs11/mbedtls\aws_pkcs11_mbedtls.c ****     C_Initialize,
 268:D:/Work/DeviceTester/amazon-freertos/lib/pkcs11/mbedtls\aws_pkcs11_mbedtls.c ****     C_Finalize,
 269:D:/Work/DeviceTester/amazon-freertos/lib/pkcs11/mbedtls\aws_pkcs11_mbedtls.c ****     NULL, /*C_GetInfo */
 270:D:/Work/DeviceTester/amazon-freertos/lib/pkcs11/mbedtls\aws_pkcs11_mbedtls.c ****     C_GetFunctionList,
 271:D:/Work/DeviceTester/amazon-freertos/lib/pkcs11/mbedtls\aws_pkcs11_mbedtls.c ****     C_GetSlotList,
 272:D:/Work/DeviceTester/amazon-freertos/lib/pkcs11/mbedtls\aws_pkcs11_mbedtls.c ****     NULL, /*C_GetSlotInfo*/
 273:D:/Work/DeviceTester/amazon-freertos/lib/pkcs11/mbedtls\aws_pkcs11_mbedtls.c ****     NULL, /*C_GetTokenInfo*/
 274:D:/Work/DeviceTester/amazon-freertos/lib/pkcs11/mbedtls\aws_pkcs11_mbedtls.c ****     NULL, /*C_GetMechanismList*/
 275:D:/Work/DeviceTester/amazon-freertos/lib/pkcs11/mbedtls\aws_pkcs11_mbedtls.c ****     NULL, /*C_GetMechansimInfo */
 276:D:/Work/DeviceTester/amazon-freertos/lib/pkcs11/mbedtls\aws_pkcs11_mbedtls.c ****     NULL, /*C_InitToken*/
 277:D:/Work/DeviceTester/amazon-freertos/lib/pkcs11/mbedtls\aws_pkcs11_mbedtls.c ****     NULL, /*C_InitPIN*/
 278:D:/Work/DeviceTester/amazon-freertos/lib/pkcs11/mbedtls\aws_pkcs11_mbedtls.c ****     NULL, /*C_SetPIN*/
 279:D:/Work/DeviceTester/amazon-freertos/lib/pkcs11/mbedtls\aws_pkcs11_mbedtls.c ****     C_OpenSession,
 280:D:/Work/DeviceTester/amazon-freertos/lib/pkcs11/mbedtls\aws_pkcs11_mbedtls.c ****     C_CloseSession,
 281:D:/Work/DeviceTester/amazon-freertos/lib/pkcs11/mbedtls\aws_pkcs11_mbedtls.c ****     NULL, /*C_CloseAllSessions*/
 282:D:/Work/DeviceTester/amazon-freertos/lib/pkcs11/mbedtls\aws_pkcs11_mbedtls.c ****     NULL, /*C_GetSessionInfo*/
 283:D:/Work/DeviceTester/amazon-freertos/lib/pkcs11/mbedtls\aws_pkcs11_mbedtls.c ****     NULL, /*C_GetOperationState*/
 284:D:/Work/DeviceTester/amazon-freertos/lib/pkcs11/mbedtls\aws_pkcs11_mbedtls.c ****     NULL, /*C_SetOperationState*/
 285:D:/Work/DeviceTester/amazon-freertos/lib/pkcs11/mbedtls\aws_pkcs11_mbedtls.c ****     NULL, /*C_Login*/
 286:D:/Work/DeviceTester/amazon-freertos/lib/pkcs11/mbedtls\aws_pkcs11_mbedtls.c ****     NULL, /*C_Logout*/
 287:D:/Work/DeviceTester/amazon-freertos/lib/pkcs11/mbedtls\aws_pkcs11_mbedtls.c ****     C_CreateObject,
 288:D:/Work/DeviceTester/amazon-freertos/lib/pkcs11/mbedtls\aws_pkcs11_mbedtls.c ****     NULL, /*C_CopyObject*/
 289:D:/Work/DeviceTester/amazon-freertos/lib/pkcs11/mbedtls\aws_pkcs11_mbedtls.c ****     C_DestroyObject,
 290:D:/Work/DeviceTester/amazon-freertos/lib/pkcs11/mbedtls\aws_pkcs11_mbedtls.c ****     NULL, /*C_GetObjectSize*/
 291:D:/Work/DeviceTester/amazon-freertos/lib/pkcs11/mbedtls\aws_pkcs11_mbedtls.c ****     C_GetAttributeValue,
 292:D:/Work/DeviceTester/amazon-freertos/lib/pkcs11/mbedtls\aws_pkcs11_mbedtls.c ****     NULL, /*C_SetAttributeValue*/
 293:D:/Work/DeviceTester/amazon-freertos/lib/pkcs11/mbedtls\aws_pkcs11_mbedtls.c ****     C_FindObjectsInit,
 294:D:/Work/DeviceTester/amazon-freertos/lib/pkcs11/mbedtls\aws_pkcs11_mbedtls.c ****     C_FindObjects,
 295:D:/Work/DeviceTester/amazon-freertos/lib/pkcs11/mbedtls\aws_pkcs11_mbedtls.c ****     C_FindObjectsFinal,
 296:D:/Work/DeviceTester/amazon-freertos/lib/pkcs11/mbedtls\aws_pkcs11_mbedtls.c ****     NULL, /*C_EncryptInit*/
 297:D:/Work/DeviceTester/amazon-freertos/lib/pkcs11/mbedtls\aws_pkcs11_mbedtls.c ****     NULL, /*C_Encrypt*/
 298:D:/Work/DeviceTester/amazon-freertos/lib/pkcs11/mbedtls\aws_pkcs11_mbedtls.c ****     NULL, /*C_EncryptUpdate*/
 299:D:/Work/DeviceTester/amazon-freertos/lib/pkcs11/mbedtls\aws_pkcs11_mbedtls.c ****     NULL, /*C_EncryptFinal*/
 300:D:/Work/DeviceTester/amazon-freertos/lib/pkcs11/mbedtls\aws_pkcs11_mbedtls.c ****     NULL, /*C_DecryptInit*/
 301:D:/Work/DeviceTester/amazon-freertos/lib/pkcs11/mbedtls\aws_pkcs11_mbedtls.c ****     NULL, /*C_Decrypt*/
 302:D:/Work/DeviceTester/amazon-freertos/lib/pkcs11/mbedtls\aws_pkcs11_mbedtls.c ****     NULL, /*C_DecryptUpdate*/
 303:D:/Work/DeviceTester/amazon-freertos/lib/pkcs11/mbedtls\aws_pkcs11_mbedtls.c ****     NULL, /*C_DecryptFinal*/
 304:D:/Work/DeviceTester/amazon-freertos/lib/pkcs11/mbedtls\aws_pkcs11_mbedtls.c ****     C_DigestInit,
 305:D:/Work/DeviceTester/amazon-freertos/lib/pkcs11/mbedtls\aws_pkcs11_mbedtls.c ****     NULL, /*C_Digest*/
 306:D:/Work/DeviceTester/amazon-freertos/lib/pkcs11/mbedtls\aws_pkcs11_mbedtls.c ****     C_DigestUpdate,
 307:D:/Work/DeviceTester/amazon-freertos/lib/pkcs11/mbedtls\aws_pkcs11_mbedtls.c ****     NULL, /* C_DigestKey*/
 308:D:/Work/DeviceTester/amazon-freertos/lib/pkcs11/mbedtls\aws_pkcs11_mbedtls.c ****     C_DigestFinal,
 309:D:/Work/DeviceTester/amazon-freertos/lib/pkcs11/mbedtls\aws_pkcs11_mbedtls.c ****     C_SignInit,
 310:D:/Work/DeviceTester/amazon-freertos/lib/pkcs11/mbedtls\aws_pkcs11_mbedtls.c ****     C_Sign,
 311:D:/Work/DeviceTester/amazon-freertos/lib/pkcs11/mbedtls\aws_pkcs11_mbedtls.c ****     NULL, /*C_SignUpdate*/
 312:D:/Work/DeviceTester/amazon-freertos/lib/pkcs11/mbedtls\aws_pkcs11_mbedtls.c ****     NULL, /*C_SignFinal*/
 313:D:/Work/DeviceTester/amazon-freertos/lib/pkcs11/mbedtls\aws_pkcs11_mbedtls.c ****     NULL, /*C_SignRecoverInit*/
 314:D:/Work/DeviceTester/amazon-freertos/lib/pkcs11/mbedtls\aws_pkcs11_mbedtls.c ****     NULL, /*C_SignRecover*/
 315:D:/Work/DeviceTester/amazon-freertos/lib/pkcs11/mbedtls\aws_pkcs11_mbedtls.c ****     C_VerifyInit,
 316:D:/Work/DeviceTester/amazon-freertos/lib/pkcs11/mbedtls\aws_pkcs11_mbedtls.c ****     C_Verify,
 317:D:/Work/DeviceTester/amazon-freertos/lib/pkcs11/mbedtls\aws_pkcs11_mbedtls.c ****     NULL, /*C_VerifyUpdate*/
 318:D:/Work/DeviceTester/amazon-freertos/lib/pkcs11/mbedtls\aws_pkcs11_mbedtls.c ****     NULL, /*C_VerifyFinal*/
 319:D:/Work/DeviceTester/amazon-freertos/lib/pkcs11/mbedtls\aws_pkcs11_mbedtls.c ****     NULL, /*C_VerifyRecoverInit*/
 320:D:/Work/DeviceTester/amazon-freertos/lib/pkcs11/mbedtls\aws_pkcs11_mbedtls.c ****     NULL, /*C_VerifyRecover*/
 321:D:/Work/DeviceTester/amazon-freertos/lib/pkcs11/mbedtls\aws_pkcs11_mbedtls.c ****     NULL, /*C_DigestEncryptUpdate*/
 322:D:/Work/DeviceTester/amazon-freertos/lib/pkcs11/mbedtls\aws_pkcs11_mbedtls.c ****     NULL, /*C_DecryptDigestUpdate*/
 323:D:/Work/DeviceTester/amazon-freertos/lib/pkcs11/mbedtls\aws_pkcs11_mbedtls.c ****     NULL, /*C_SignEncryptUpdate*/
 324:D:/Work/DeviceTester/amazon-freertos/lib/pkcs11/mbedtls\aws_pkcs11_mbedtls.c ****     NULL, /*C_DecryptVerifyUpdate*/
 325:D:/Work/DeviceTester/amazon-freertos/lib/pkcs11/mbedtls\aws_pkcs11_mbedtls.c ****     NULL, /*C_GenerateKey*/
 326:D:/Work/DeviceTester/amazon-freertos/lib/pkcs11/mbedtls\aws_pkcs11_mbedtls.c ****     C_GenerateKeyPair,
 327:D:/Work/DeviceTester/amazon-freertos/lib/pkcs11/mbedtls\aws_pkcs11_mbedtls.c ****     NULL, /*C_WrapKey*/
 328:D:/Work/DeviceTester/amazon-freertos/lib/pkcs11/mbedtls\aws_pkcs11_mbedtls.c ****     NULL, /*C_UnwrapKey*/
 329:D:/Work/DeviceTester/amazon-freertos/lib/pkcs11/mbedtls\aws_pkcs11_mbedtls.c ****     NULL, /*C_DeriveKey*/
 330:D:/Work/DeviceTester/amazon-freertos/lib/pkcs11/mbedtls\aws_pkcs11_mbedtls.c ****     NULL, /*C_SeedRandom*/
 331:D:/Work/DeviceTester/amazon-freertos/lib/pkcs11/mbedtls\aws_pkcs11_mbedtls.c ****     C_GenerateRandom,
 332:D:/Work/DeviceTester/amazon-freertos/lib/pkcs11/mbedtls\aws_pkcs11_mbedtls.c ****     NULL, /*C_GetFunctionStatus*/
 333:D:/Work/DeviceTester/amazon-freertos/lib/pkcs11/mbedtls\aws_pkcs11_mbedtls.c ****     NULL, /*C_CancelFunction*/
 334:D:/Work/DeviceTester/amazon-freertos/lib/pkcs11/mbedtls\aws_pkcs11_mbedtls.c ****     NULL  /*C_WaitForSlotEvent*/
 335:D:/Work/DeviceTester/amazon-freertos/lib/pkcs11/mbedtls\aws_pkcs11_mbedtls.c **** };
 336:D:/Work/DeviceTester/amazon-freertos/lib/pkcs11/mbedtls\aws_pkcs11_mbedtls.c **** 
 337:D:/Work/DeviceTester/amazon-freertos/lib/pkcs11/mbedtls\aws_pkcs11_mbedtls.c **** /*-----------------------------------------------------------*/
 338:D:/Work/DeviceTester/amazon-freertos/lib/pkcs11/mbedtls\aws_pkcs11_mbedtls.c **** 
 339:D:/Work/DeviceTester/amazon-freertos/lib/pkcs11/mbedtls\aws_pkcs11_mbedtls.c **** CK_RV prvMbedTLS_Initialize( void )
 340:D:/Work/DeviceTester/amazon-freertos/lib/pkcs11/mbedtls\aws_pkcs11_mbedtls.c **** {
 341:D:/Work/DeviceTester/amazon-freertos/lib/pkcs11/mbedtls\aws_pkcs11_mbedtls.c ****     CK_RV xResult = CKR_OK;
 342:D:/Work/DeviceTester/amazon-freertos/lib/pkcs11/mbedtls\aws_pkcs11_mbedtls.c **** 
 343:D:/Work/DeviceTester/amazon-freertos/lib/pkcs11/mbedtls\aws_pkcs11_mbedtls.c ****     if( xP11Context.xIsInitialized == CK_TRUE )
 344:D:/Work/DeviceTester/amazon-freertos/lib/pkcs11/mbedtls\aws_pkcs11_mbedtls.c ****     {
 345:D:/Work/DeviceTester/amazon-freertos/lib/pkcs11/mbedtls\aws_pkcs11_mbedtls.c ****         xResult = CKR_CRYPTOKI_ALREADY_INITIALIZED;
 346:D:/Work/DeviceTester/amazon-freertos/lib/pkcs11/mbedtls\aws_pkcs11_mbedtls.c ****     }
 347:D:/Work/DeviceTester/amazon-freertos/lib/pkcs11/mbedtls\aws_pkcs11_mbedtls.c **** 
 348:D:/Work/DeviceTester/amazon-freertos/lib/pkcs11/mbedtls\aws_pkcs11_mbedtls.c ****     if( xResult == CKR_OK )
 349:D:/Work/DeviceTester/amazon-freertos/lib/pkcs11/mbedtls\aws_pkcs11_mbedtls.c ****     {
 350:D:/Work/DeviceTester/amazon-freertos/lib/pkcs11/mbedtls\aws_pkcs11_mbedtls.c ****         /* Ensure that the FreeRTOS heap is used. */
 351:D:/Work/DeviceTester/amazon-freertos/lib/pkcs11/mbedtls\aws_pkcs11_mbedtls.c ****         CRYPTO_ConfigureHeap();
 352:D:/Work/DeviceTester/amazon-freertos/lib/pkcs11/mbedtls\aws_pkcs11_mbedtls.c **** 
 353:D:/Work/DeviceTester/amazon-freertos/lib/pkcs11/mbedtls\aws_pkcs11_mbedtls.c ****         /* Configure mbedtls to use FreeRTOS mutexes. */
 354:D:/Work/DeviceTester/amazon-freertos/lib/pkcs11/mbedtls\aws_pkcs11_mbedtls.c ****         mbedtls_threading_set_alt( aws_mbedtls_mutex_init,
 355:D:/Work/DeviceTester/amazon-freertos/lib/pkcs11/mbedtls\aws_pkcs11_mbedtls.c ****                                    aws_mbedtls_mutex_free,
 356:D:/Work/DeviceTester/amazon-freertos/lib/pkcs11/mbedtls\aws_pkcs11_mbedtls.c ****                                    aws_mbedtls_mutex_lock,
 357:D:/Work/DeviceTester/amazon-freertos/lib/pkcs11/mbedtls\aws_pkcs11_mbedtls.c ****                                    aws_mbedtls_mutex_unlock );
 358:D:/Work/DeviceTester/amazon-freertos/lib/pkcs11/mbedtls\aws_pkcs11_mbedtls.c **** 
 359:D:/Work/DeviceTester/amazon-freertos/lib/pkcs11/mbedtls\aws_pkcs11_mbedtls.c ****         /* Initialze the entropy source and DRBG for the PKCS#11 module */
 360:D:/Work/DeviceTester/amazon-freertos/lib/pkcs11/mbedtls\aws_pkcs11_mbedtls.c ****         mbedtls_entropy_init( &xP11Context.xMbedEntropyContext );
 361:D:/Work/DeviceTester/amazon-freertos/lib/pkcs11/mbedtls\aws_pkcs11_mbedtls.c ****         mbedtls_ctr_drbg_init( &xP11Context.xMbedDrbgCtx );
 362:D:/Work/DeviceTester/amazon-freertos/lib/pkcs11/mbedtls\aws_pkcs11_mbedtls.c **** 
 363:D:/Work/DeviceTester/amazon-freertos/lib/pkcs11/mbedtls\aws_pkcs11_mbedtls.c ****         if( 0 != mbedtls_ctr_drbg_seed( &xP11Context.xMbedDrbgCtx,
 364:D:/Work/DeviceTester/amazon-freertos/lib/pkcs11/mbedtls\aws_pkcs11_mbedtls.c ****                                         mbedtls_entropy_func,
 365:D:/Work/DeviceTester/amazon-freertos/lib/pkcs11/mbedtls\aws_pkcs11_mbedtls.c ****                                         &xP11Context.xMbedEntropyContext,
 366:D:/Work/DeviceTester/amazon-freertos/lib/pkcs11/mbedtls\aws_pkcs11_mbedtls.c ****                                         NULL,
 367:D:/Work/DeviceTester/amazon-freertos/lib/pkcs11/mbedtls\aws_pkcs11_mbedtls.c ****                                         0 ) )
 368:D:/Work/DeviceTester/amazon-freertos/lib/pkcs11/mbedtls\aws_pkcs11_mbedtls.c ****         {
 369:D:/Work/DeviceTester/amazon-freertos/lib/pkcs11/mbedtls\aws_pkcs11_mbedtls.c ****             xResult = CKR_FUNCTION_FAILED;
 370:D:/Work/DeviceTester/amazon-freertos/lib/pkcs11/mbedtls\aws_pkcs11_mbedtls.c ****         }
 371:D:/Work/DeviceTester/amazon-freertos/lib/pkcs11/mbedtls\aws_pkcs11_mbedtls.c ****         else
 372:D:/Work/DeviceTester/amazon-freertos/lib/pkcs11/mbedtls\aws_pkcs11_mbedtls.c ****         {
 373:D:/Work/DeviceTester/amazon-freertos/lib/pkcs11/mbedtls\aws_pkcs11_mbedtls.c ****             xP11Context.xIsInitialized = CK_TRUE;
 374:D:/Work/DeviceTester/amazon-freertos/lib/pkcs11/mbedtls\aws_pkcs11_mbedtls.c ****         }
 375:D:/Work/DeviceTester/amazon-freertos/lib/pkcs11/mbedtls\aws_pkcs11_mbedtls.c ****     }
 376:D:/Work/DeviceTester/amazon-freertos/lib/pkcs11/mbedtls\aws_pkcs11_mbedtls.c **** 
 377:D:/Work/DeviceTester/amazon-freertos/lib/pkcs11/mbedtls\aws_pkcs11_mbedtls.c ****     return xResult;
 378:D:/Work/DeviceTester/amazon-freertos/lib/pkcs11/mbedtls\aws_pkcs11_mbedtls.c **** }
 379:D:/Work/DeviceTester/amazon-freertos/lib/pkcs11/mbedtls\aws_pkcs11_mbedtls.c **** 
 380:D:/Work/DeviceTester/amazon-freertos/lib/pkcs11/mbedtls\aws_pkcs11_mbedtls.c **** /**
 381:D:/Work/DeviceTester/amazon-freertos/lib/pkcs11/mbedtls\aws_pkcs11_mbedtls.c ****  * @brief Initialize the Cryptoki module for use.
 382:D:/Work/DeviceTester/amazon-freertos/lib/pkcs11/mbedtls\aws_pkcs11_mbedtls.c ****  */
 383:D:/Work/DeviceTester/amazon-freertos/lib/pkcs11/mbedtls\aws_pkcs11_mbedtls.c **** #if !defined( pkcs11configC_INITIALIZE_ALT )
 384:D:/Work/DeviceTester/amazon-freertos/lib/pkcs11/mbedtls\aws_pkcs11_mbedtls.c ****     CK_DEFINE_FUNCTION( CK_RV, C_Initialize )( CK_VOID_PTR pvInitArgs )
 385:D:/Work/DeviceTester/amazon-freertos/lib/pkcs11/mbedtls\aws_pkcs11_mbedtls.c ****     { /*lint !e9072 It's OK to have different parameter name. */
 386:D:/Work/DeviceTester/amazon-freertos/lib/pkcs11/mbedtls\aws_pkcs11_mbedtls.c ****         ( void ) ( pvInitArgs );
 387:D:/Work/DeviceTester/amazon-freertos/lib/pkcs11/mbedtls\aws_pkcs11_mbedtls.c **** 
 388:D:/Work/DeviceTester/amazon-freertos/lib/pkcs11/mbedtls\aws_pkcs11_mbedtls.c ****         return prvMbedTLS_Initialize();
 389:D:/Work/DeviceTester/amazon-freertos/lib/pkcs11/mbedtls\aws_pkcs11_mbedtls.c ****     }
 390:D:/Work/DeviceTester/amazon-freertos/lib/pkcs11/mbedtls\aws_pkcs11_mbedtls.c **** #endif /* if !defined( pkcs11configC_INITIALIZE_ALT ) */
 391:D:/Work/DeviceTester/amazon-freertos/lib/pkcs11/mbedtls\aws_pkcs11_mbedtls.c **** 
 392:D:/Work/DeviceTester/amazon-freertos/lib/pkcs11/mbedtls\aws_pkcs11_mbedtls.c **** /**
 393:D:/Work/DeviceTester/amazon-freertos/lib/pkcs11/mbedtls\aws_pkcs11_mbedtls.c ****  * @brief Un-initialize the Cryptoki module.
 394:D:/Work/DeviceTester/amazon-freertos/lib/pkcs11/mbedtls\aws_pkcs11_mbedtls.c ****  */
 395:D:/Work/DeviceTester/amazon-freertos/lib/pkcs11/mbedtls\aws_pkcs11_mbedtls.c **** CK_DEFINE_FUNCTION( CK_RV, C_Finalize )( CK_VOID_PTR pvReserved )
 396:D:/Work/DeviceTester/amazon-freertos/lib/pkcs11/mbedtls\aws_pkcs11_mbedtls.c **** {
 397:D:/Work/DeviceTester/amazon-freertos/lib/pkcs11/mbedtls\aws_pkcs11_mbedtls.c ****     /*lint !e9072 It's OK to have different parameter name. */
 398:D:/Work/DeviceTester/amazon-freertos/lib/pkcs11/mbedtls\aws_pkcs11_mbedtls.c ****     CK_RV xResult = CKR_OK;
 399:D:/Work/DeviceTester/amazon-freertos/lib/pkcs11/mbedtls\aws_pkcs11_mbedtls.c **** 
 400:D:/Work/DeviceTester/amazon-freertos/lib/pkcs11/mbedtls\aws_pkcs11_mbedtls.c ****     if( NULL != pvReserved )
 401:D:/Work/DeviceTester/amazon-freertos/lib/pkcs11/mbedtls\aws_pkcs11_mbedtls.c ****     {
 402:D:/Work/DeviceTester/amazon-freertos/lib/pkcs11/mbedtls\aws_pkcs11_mbedtls.c ****         xResult = CKR_ARGUMENTS_BAD;
 403:D:/Work/DeviceTester/amazon-freertos/lib/pkcs11/mbedtls\aws_pkcs11_mbedtls.c ****     }
 404:D:/Work/DeviceTester/amazon-freertos/lib/pkcs11/mbedtls\aws_pkcs11_mbedtls.c **** 
 405:D:/Work/DeviceTester/amazon-freertos/lib/pkcs11/mbedtls\aws_pkcs11_mbedtls.c ****     if( xP11Context.xIsInitialized == CK_FALSE )
 406:D:/Work/DeviceTester/amazon-freertos/lib/pkcs11/mbedtls\aws_pkcs11_mbedtls.c ****     {
 407:D:/Work/DeviceTester/amazon-freertos/lib/pkcs11/mbedtls\aws_pkcs11_mbedtls.c ****         xResult = CKR_CRYPTOKI_NOT_INITIALIZED;
 408:D:/Work/DeviceTester/amazon-freertos/lib/pkcs11/mbedtls\aws_pkcs11_mbedtls.c ****     }
 409:D:/Work/DeviceTester/amazon-freertos/lib/pkcs11/mbedtls\aws_pkcs11_mbedtls.c **** 
 410:D:/Work/DeviceTester/amazon-freertos/lib/pkcs11/mbedtls\aws_pkcs11_mbedtls.c ****     if( xResult == CKR_OK )
 411:D:/Work/DeviceTester/amazon-freertos/lib/pkcs11/mbedtls\aws_pkcs11_mbedtls.c ****     {
 412:D:/Work/DeviceTester/amazon-freertos/lib/pkcs11/mbedtls\aws_pkcs11_mbedtls.c ****         if( NULL != &xP11Context.xMbedEntropyContext )
 413:D:/Work/DeviceTester/amazon-freertos/lib/pkcs11/mbedtls\aws_pkcs11_mbedtls.c ****         {
 414:D:/Work/DeviceTester/amazon-freertos/lib/pkcs11/mbedtls\aws_pkcs11_mbedtls.c ****             mbedtls_entropy_free( &xP11Context.xMbedEntropyContext );
 415:D:/Work/DeviceTester/amazon-freertos/lib/pkcs11/mbedtls\aws_pkcs11_mbedtls.c ****         }
 416:D:/Work/DeviceTester/amazon-freertos/lib/pkcs11/mbedtls\aws_pkcs11_mbedtls.c **** 
 417:D:/Work/DeviceTester/amazon-freertos/lib/pkcs11/mbedtls\aws_pkcs11_mbedtls.c ****         if( NULL != &xP11Context.xMbedDrbgCtx )
 418:D:/Work/DeviceTester/amazon-freertos/lib/pkcs11/mbedtls\aws_pkcs11_mbedtls.c ****         {
 419:D:/Work/DeviceTester/amazon-freertos/lib/pkcs11/mbedtls\aws_pkcs11_mbedtls.c ****             mbedtls_ctr_drbg_free( &xP11Context.xMbedDrbgCtx );
 420:D:/Work/DeviceTester/amazon-freertos/lib/pkcs11/mbedtls\aws_pkcs11_mbedtls.c ****         }
 421:D:/Work/DeviceTester/amazon-freertos/lib/pkcs11/mbedtls\aws_pkcs11_mbedtls.c **** 
 422:D:/Work/DeviceTester/amazon-freertos/lib/pkcs11/mbedtls\aws_pkcs11_mbedtls.c ****         xP11Context.xIsInitialized = CK_FALSE;
 423:D:/Work/DeviceTester/amazon-freertos/lib/pkcs11/mbedtls\aws_pkcs11_mbedtls.c ****     }
 424:D:/Work/DeviceTester/amazon-freertos/lib/pkcs11/mbedtls\aws_pkcs11_mbedtls.c **** 
 425:D:/Work/DeviceTester/amazon-freertos/lib/pkcs11/mbedtls\aws_pkcs11_mbedtls.c ****     return xResult;
 426:D:/Work/DeviceTester/amazon-freertos/lib/pkcs11/mbedtls\aws_pkcs11_mbedtls.c **** }
 427:D:/Work/DeviceTester/amazon-freertos/lib/pkcs11/mbedtls\aws_pkcs11_mbedtls.c **** 
 428:D:/Work/DeviceTester/amazon-freertos/lib/pkcs11/mbedtls\aws_pkcs11_mbedtls.c **** /**
 429:D:/Work/DeviceTester/amazon-freertos/lib/pkcs11/mbedtls\aws_pkcs11_mbedtls.c ****  * @brief Query the list of interface function pointers.
 430:D:/Work/DeviceTester/amazon-freertos/lib/pkcs11/mbedtls\aws_pkcs11_mbedtls.c ****  */
 431:D:/Work/DeviceTester/amazon-freertos/lib/pkcs11/mbedtls\aws_pkcs11_mbedtls.c **** CK_DEFINE_FUNCTION( CK_RV, C_GetFunctionList )( CK_FUNCTION_LIST_PTR_PTR ppxFunctionList )
 432:D:/Work/DeviceTester/amazon-freertos/lib/pkcs11/mbedtls\aws_pkcs11_mbedtls.c **** {   /*lint !e9072 It's OK to have different parameter name. */
  26              		.loc 1 432 0
  27              		.cfi_startproc
  28              		@ args = 0, pretend = 0, frame = 0
  29              		@ frame_needed = 0, uses_anonymous_args = 0
  30              		@ link register save eliminated.
  31              	.LVL0:
 433:D:/Work/DeviceTester/amazon-freertos/lib/pkcs11/mbedtls\aws_pkcs11_mbedtls.c ****     CK_RV xResult = CKR_OK;
 434:D:/Work/DeviceTester/amazon-freertos/lib/pkcs11/mbedtls\aws_pkcs11_mbedtls.c **** 
 435:D:/Work/DeviceTester/amazon-freertos/lib/pkcs11/mbedtls\aws_pkcs11_mbedtls.c ****     if( NULL == ppxFunctionList )
  32              		.loc 1 435 0
  33 0000 000050E3 		cmp	r0, #0
 436:D:/Work/DeviceTester/amazon-freertos/lib/pkcs11/mbedtls\aws_pkcs11_mbedtls.c ****     {
 437:D:/Work/DeviceTester/amazon-freertos/lib/pkcs11/mbedtls\aws_pkcs11_mbedtls.c ****         xResult = CKR_ARGUMENTS_BAD;
 438:D:/Work/DeviceTester/amazon-freertos/lib/pkcs11/mbedtls\aws_pkcs11_mbedtls.c ****     }
 439:D:/Work/DeviceTester/amazon-freertos/lib/pkcs11/mbedtls\aws_pkcs11_mbedtls.c ****     else
 440:D:/Work/DeviceTester/amazon-freertos/lib/pkcs11/mbedtls\aws_pkcs11_mbedtls.c ****     {
 441:D:/Work/DeviceTester/amazon-freertos/lib/pkcs11/mbedtls\aws_pkcs11_mbedtls.c ****         *ppxFunctionList = &prvP11FunctionList;
  34              		.loc 1 441 0
  35 0004 0C309F15 		ldrne	r3, .L4
  36 0008 00308015 		strne	r3, [r0]
 433:D:/Work/DeviceTester/amazon-freertos/lib/pkcs11/mbedtls\aws_pkcs11_mbedtls.c ****     CK_RV xResult = CKR_OK;
  37              		.loc 1 433 0
  38 000c 0000A013 		movne	r0, #0
  39              	.LVL1:
 437:D:/Work/DeviceTester/amazon-freertos/lib/pkcs11/mbedtls\aws_pkcs11_mbedtls.c ****     }
  40              		.loc 1 437 0
  41 0010 0700A003 		moveq	r0, #7
  42              	.LVL2:
 442:D:/Work/DeviceTester/amazon-freertos/lib/pkcs11/mbedtls\aws_pkcs11_mbedtls.c ****     }
 443:D:/Work/DeviceTester/amazon-freertos/lib/pkcs11/mbedtls\aws_pkcs11_mbedtls.c **** 
 444:D:/Work/DeviceTester/amazon-freertos/lib/pkcs11/mbedtls\aws_pkcs11_mbedtls.c ****     return xResult;
 445:D:/Work/DeviceTester/amazon-freertos/lib/pkcs11/mbedtls\aws_pkcs11_mbedtls.c **** }
  43              		.loc 1 445 0
  44 0014 1EFF2FE1 		bx	lr
  45              	.L5:
  46              		.align	2
  47              	.L4:
  48 0018 00000000 		.word	.LANCHOR0
  49              		.cfi_endproc
  50              	.LFE11:
  52              		.section	.text.C_DestroyObject,"ax",%progbits
  53              		.align	2
  54              		.global	C_DestroyObject
  55              		.syntax unified
  56              		.arm
  57              		.fpu neon
  59              	C_DestroyObject:
  60              	.LFB16:
 446:D:/Work/DeviceTester/amazon-freertos/lib/pkcs11/mbedtls\aws_pkcs11_mbedtls.c **** 
 447:D:/Work/DeviceTester/amazon-freertos/lib/pkcs11/mbedtls\aws_pkcs11_mbedtls.c **** /**
 448:D:/Work/DeviceTester/amazon-freertos/lib/pkcs11/mbedtls\aws_pkcs11_mbedtls.c ****  * @brief Query the list of slots. A single default slot is implemented.
 449:D:/Work/DeviceTester/amazon-freertos/lib/pkcs11/mbedtls\aws_pkcs11_mbedtls.c ****  */
 450:D:/Work/DeviceTester/amazon-freertos/lib/pkcs11/mbedtls\aws_pkcs11_mbedtls.c **** CK_DEFINE_FUNCTION( CK_RV, C_GetSlotList )( CK_BBOOL xTokenPresent,
 451:D:/Work/DeviceTester/amazon-freertos/lib/pkcs11/mbedtls\aws_pkcs11_mbedtls.c ****                                             CK_SLOT_ID_PTR pxSlotList,
 452:D:/Work/DeviceTester/amazon-freertos/lib/pkcs11/mbedtls\aws_pkcs11_mbedtls.c ****                                             CK_ULONG_PTR pulCount )
 453:D:/Work/DeviceTester/amazon-freertos/lib/pkcs11/mbedtls\aws_pkcs11_mbedtls.c **** {   /*lint !e9072 It's OK to have different parameter name. */
 454:D:/Work/DeviceTester/amazon-freertos/lib/pkcs11/mbedtls\aws_pkcs11_mbedtls.c ****     CK_RV xResult = CKR_OK;
 455:D:/Work/DeviceTester/amazon-freertos/lib/pkcs11/mbedtls\aws_pkcs11_mbedtls.c **** 
 456:D:/Work/DeviceTester/amazon-freertos/lib/pkcs11/mbedtls\aws_pkcs11_mbedtls.c ****     /* Since the mbedTLS implementation of PKCS#11 does not depend
 457:D:/Work/DeviceTester/amazon-freertos/lib/pkcs11/mbedtls\aws_pkcs11_mbedtls.c ****      * on a physical token, this parameter is ignored. */
 458:D:/Work/DeviceTester/amazon-freertos/lib/pkcs11/mbedtls\aws_pkcs11_mbedtls.c ****     ( void ) ( xTokenPresent );
 459:D:/Work/DeviceTester/amazon-freertos/lib/pkcs11/mbedtls\aws_pkcs11_mbedtls.c **** 
 460:D:/Work/DeviceTester/amazon-freertos/lib/pkcs11/mbedtls\aws_pkcs11_mbedtls.c ****     if( NULL == pulCount )
 461:D:/Work/DeviceTester/amazon-freertos/lib/pkcs11/mbedtls\aws_pkcs11_mbedtls.c ****     {
 462:D:/Work/DeviceTester/amazon-freertos/lib/pkcs11/mbedtls\aws_pkcs11_mbedtls.c ****         xResult = CKR_ARGUMENTS_BAD;
 463:D:/Work/DeviceTester/amazon-freertos/lib/pkcs11/mbedtls\aws_pkcs11_mbedtls.c ****     }
 464:D:/Work/DeviceTester/amazon-freertos/lib/pkcs11/mbedtls\aws_pkcs11_mbedtls.c ****     else if( NULL == pxSlotList )
 465:D:/Work/DeviceTester/amazon-freertos/lib/pkcs11/mbedtls\aws_pkcs11_mbedtls.c ****     {
 466:D:/Work/DeviceTester/amazon-freertos/lib/pkcs11/mbedtls\aws_pkcs11_mbedtls.c ****         *pulCount = 1;
 467:D:/Work/DeviceTester/amazon-freertos/lib/pkcs11/mbedtls\aws_pkcs11_mbedtls.c ****     }
 468:D:/Work/DeviceTester/amazon-freertos/lib/pkcs11/mbedtls\aws_pkcs11_mbedtls.c ****     else
 469:D:/Work/DeviceTester/amazon-freertos/lib/pkcs11/mbedtls\aws_pkcs11_mbedtls.c ****     {
 470:D:/Work/DeviceTester/amazon-freertos/lib/pkcs11/mbedtls\aws_pkcs11_mbedtls.c ****         if( 0u == *pulCount )
 471:D:/Work/DeviceTester/amazon-freertos/lib/pkcs11/mbedtls\aws_pkcs11_mbedtls.c ****         {
 472:D:/Work/DeviceTester/amazon-freertos/lib/pkcs11/mbedtls\aws_pkcs11_mbedtls.c ****             xResult = CKR_BUFFER_TOO_SMALL;
 473:D:/Work/DeviceTester/amazon-freertos/lib/pkcs11/mbedtls\aws_pkcs11_mbedtls.c ****         }
 474:D:/Work/DeviceTester/amazon-freertos/lib/pkcs11/mbedtls\aws_pkcs11_mbedtls.c ****         else
 475:D:/Work/DeviceTester/amazon-freertos/lib/pkcs11/mbedtls\aws_pkcs11_mbedtls.c ****         {
 476:D:/Work/DeviceTester/amazon-freertos/lib/pkcs11/mbedtls\aws_pkcs11_mbedtls.c ****             pxSlotList[ 0 ] = pkcs11SLOT_ID;
 477:D:/Work/DeviceTester/amazon-freertos/lib/pkcs11/mbedtls\aws_pkcs11_mbedtls.c ****             *pulCount = 1;
 478:D:/Work/DeviceTester/amazon-freertos/lib/pkcs11/mbedtls\aws_pkcs11_mbedtls.c ****         }
 479:D:/Work/DeviceTester/amazon-freertos/lib/pkcs11/mbedtls\aws_pkcs11_mbedtls.c ****     }
 480:D:/Work/DeviceTester/amazon-freertos/lib/pkcs11/mbedtls\aws_pkcs11_mbedtls.c **** 
 481:D:/Work/DeviceTester/amazon-freertos/lib/pkcs11/mbedtls\aws_pkcs11_mbedtls.c ****     return xResult;
 482:D:/Work/DeviceTester/amazon-freertos/lib/pkcs11/mbedtls\aws_pkcs11_mbedtls.c **** }
 483:D:/Work/DeviceTester/amazon-freertos/lib/pkcs11/mbedtls\aws_pkcs11_mbedtls.c **** 
 484:D:/Work/DeviceTester/amazon-freertos/lib/pkcs11/mbedtls\aws_pkcs11_mbedtls.c **** /**
 485:D:/Work/DeviceTester/amazon-freertos/lib/pkcs11/mbedtls\aws_pkcs11_mbedtls.c ****  * @brief Start a session for a cryptographic command sequence.
 486:D:/Work/DeviceTester/amazon-freertos/lib/pkcs11/mbedtls\aws_pkcs11_mbedtls.c ****  */
 487:D:/Work/DeviceTester/amazon-freertos/lib/pkcs11/mbedtls\aws_pkcs11_mbedtls.c **** CK_DEFINE_FUNCTION( CK_RV, C_OpenSession )( CK_SLOT_ID xSlotID,
 488:D:/Work/DeviceTester/amazon-freertos/lib/pkcs11/mbedtls\aws_pkcs11_mbedtls.c ****                                             CK_FLAGS xFlags,
 489:D:/Work/DeviceTester/amazon-freertos/lib/pkcs11/mbedtls\aws_pkcs11_mbedtls.c ****                                             CK_VOID_PTR pvApplication,
 490:D:/Work/DeviceTester/amazon-freertos/lib/pkcs11/mbedtls\aws_pkcs11_mbedtls.c ****                                             CK_NOTIFY xNotify,
 491:D:/Work/DeviceTester/amazon-freertos/lib/pkcs11/mbedtls\aws_pkcs11_mbedtls.c ****                                             CK_SESSION_HANDLE_PTR pxSession )
 492:D:/Work/DeviceTester/amazon-freertos/lib/pkcs11/mbedtls\aws_pkcs11_mbedtls.c **** {   /*lint !e9072 It's OK to have different parameter name. */
 493:D:/Work/DeviceTester/amazon-freertos/lib/pkcs11/mbedtls\aws_pkcs11_mbedtls.c ****     CK_RV xResult = CKR_OK;
 494:D:/Work/DeviceTester/amazon-freertos/lib/pkcs11/mbedtls\aws_pkcs11_mbedtls.c ****     P11SessionPtr_t pxSessionObj = NULL;
 495:D:/Work/DeviceTester/amazon-freertos/lib/pkcs11/mbedtls\aws_pkcs11_mbedtls.c **** 
 496:D:/Work/DeviceTester/amazon-freertos/lib/pkcs11/mbedtls\aws_pkcs11_mbedtls.c ****     ( void ) ( xSlotID );
 497:D:/Work/DeviceTester/amazon-freertos/lib/pkcs11/mbedtls\aws_pkcs11_mbedtls.c ****     ( void ) ( pvApplication );
 498:D:/Work/DeviceTester/amazon-freertos/lib/pkcs11/mbedtls\aws_pkcs11_mbedtls.c ****     ( void ) ( xNotify );
 499:D:/Work/DeviceTester/amazon-freertos/lib/pkcs11/mbedtls\aws_pkcs11_mbedtls.c **** 
 500:D:/Work/DeviceTester/amazon-freertos/lib/pkcs11/mbedtls\aws_pkcs11_mbedtls.c ****     /* Check arguments. */
 501:D:/Work/DeviceTester/amazon-freertos/lib/pkcs11/mbedtls\aws_pkcs11_mbedtls.c ****     if( NULL == pxSession )
 502:D:/Work/DeviceTester/amazon-freertos/lib/pkcs11/mbedtls\aws_pkcs11_mbedtls.c ****     {
 503:D:/Work/DeviceTester/amazon-freertos/lib/pkcs11/mbedtls\aws_pkcs11_mbedtls.c ****         xResult = CKR_ARGUMENTS_BAD;
 504:D:/Work/DeviceTester/amazon-freertos/lib/pkcs11/mbedtls\aws_pkcs11_mbedtls.c ****     }
 505:D:/Work/DeviceTester/amazon-freertos/lib/pkcs11/mbedtls\aws_pkcs11_mbedtls.c **** 
 506:D:/Work/DeviceTester/amazon-freertos/lib/pkcs11/mbedtls\aws_pkcs11_mbedtls.c ****     /* For legacy reasons, the CKF_SERIAL_SESSION bit MUST always be set. */
 507:D:/Work/DeviceTester/amazon-freertos/lib/pkcs11/mbedtls\aws_pkcs11_mbedtls.c ****     if( 0 == ( CKF_SERIAL_SESSION & xFlags ) )
 508:D:/Work/DeviceTester/amazon-freertos/lib/pkcs11/mbedtls\aws_pkcs11_mbedtls.c ****     {
 509:D:/Work/DeviceTester/amazon-freertos/lib/pkcs11/mbedtls\aws_pkcs11_mbedtls.c ****         xResult = CKR_SESSION_PARALLEL_NOT_SUPPORTED;
 510:D:/Work/DeviceTester/amazon-freertos/lib/pkcs11/mbedtls\aws_pkcs11_mbedtls.c ****     }
 511:D:/Work/DeviceTester/amazon-freertos/lib/pkcs11/mbedtls\aws_pkcs11_mbedtls.c **** 
 512:D:/Work/DeviceTester/amazon-freertos/lib/pkcs11/mbedtls\aws_pkcs11_mbedtls.c ****     /*
 513:D:/Work/DeviceTester/amazon-freertos/lib/pkcs11/mbedtls\aws_pkcs11_mbedtls.c ****      * Make space for the context.
 514:D:/Work/DeviceTester/amazon-freertos/lib/pkcs11/mbedtls\aws_pkcs11_mbedtls.c ****      */
 515:D:/Work/DeviceTester/amazon-freertos/lib/pkcs11/mbedtls\aws_pkcs11_mbedtls.c ****     if( CKR_OK == xResult )
 516:D:/Work/DeviceTester/amazon-freertos/lib/pkcs11/mbedtls\aws_pkcs11_mbedtls.c ****     {
 517:D:/Work/DeviceTester/amazon-freertos/lib/pkcs11/mbedtls\aws_pkcs11_mbedtls.c ****         pxSessionObj = ( P11SessionPtr_t ) pvPortMalloc( sizeof( P11Session_t ) ); /*lint !e9087 Al
 518:D:/Work/DeviceTester/amazon-freertos/lib/pkcs11/mbedtls\aws_pkcs11_mbedtls.c **** 
 519:D:/Work/DeviceTester/amazon-freertos/lib/pkcs11/mbedtls\aws_pkcs11_mbedtls.c ****         if( NULL == pxSessionObj )
 520:D:/Work/DeviceTester/amazon-freertos/lib/pkcs11/mbedtls\aws_pkcs11_mbedtls.c ****         {
 521:D:/Work/DeviceTester/amazon-freertos/lib/pkcs11/mbedtls\aws_pkcs11_mbedtls.c ****             xResult = CKR_HOST_MEMORY;
 522:D:/Work/DeviceTester/amazon-freertos/lib/pkcs11/mbedtls\aws_pkcs11_mbedtls.c ****         }
 523:D:/Work/DeviceTester/amazon-freertos/lib/pkcs11/mbedtls\aws_pkcs11_mbedtls.c **** 
 524:D:/Work/DeviceTester/amazon-freertos/lib/pkcs11/mbedtls\aws_pkcs11_mbedtls.c ****         /*
 525:D:/Work/DeviceTester/amazon-freertos/lib/pkcs11/mbedtls\aws_pkcs11_mbedtls.c ****          * Zero out the session structure.
 526:D:/Work/DeviceTester/amazon-freertos/lib/pkcs11/mbedtls\aws_pkcs11_mbedtls.c ****          */
 527:D:/Work/DeviceTester/amazon-freertos/lib/pkcs11/mbedtls\aws_pkcs11_mbedtls.c ****         if( CKR_OK == xResult )
 528:D:/Work/DeviceTester/amazon-freertos/lib/pkcs11/mbedtls\aws_pkcs11_mbedtls.c ****         {
 529:D:/Work/DeviceTester/amazon-freertos/lib/pkcs11/mbedtls\aws_pkcs11_mbedtls.c ****             memset( pxSessionObj, 0, sizeof( P11Session_t ) );
 530:D:/Work/DeviceTester/amazon-freertos/lib/pkcs11/mbedtls\aws_pkcs11_mbedtls.c ****         }
 531:D:/Work/DeviceTester/amazon-freertos/lib/pkcs11/mbedtls\aws_pkcs11_mbedtls.c **** 
 532:D:/Work/DeviceTester/amazon-freertos/lib/pkcs11/mbedtls\aws_pkcs11_mbedtls.c ****         pxSessionObj->xSignMutex = xSemaphoreCreateMutex();
 533:D:/Work/DeviceTester/amazon-freertos/lib/pkcs11/mbedtls\aws_pkcs11_mbedtls.c **** 
 534:D:/Work/DeviceTester/amazon-freertos/lib/pkcs11/mbedtls\aws_pkcs11_mbedtls.c ****         if( NULL == pxSessionObj->xSignMutex )
 535:D:/Work/DeviceTester/amazon-freertos/lib/pkcs11/mbedtls\aws_pkcs11_mbedtls.c ****         {
 536:D:/Work/DeviceTester/amazon-freertos/lib/pkcs11/mbedtls\aws_pkcs11_mbedtls.c ****             xResult = CKR_HOST_MEMORY;
 537:D:/Work/DeviceTester/amazon-freertos/lib/pkcs11/mbedtls\aws_pkcs11_mbedtls.c ****         }
 538:D:/Work/DeviceTester/amazon-freertos/lib/pkcs11/mbedtls\aws_pkcs11_mbedtls.c **** 
 539:D:/Work/DeviceTester/amazon-freertos/lib/pkcs11/mbedtls\aws_pkcs11_mbedtls.c ****         pxSessionObj->xVerifyMutex = xSemaphoreCreateMutex();
 540:D:/Work/DeviceTester/amazon-freertos/lib/pkcs11/mbedtls\aws_pkcs11_mbedtls.c **** 
 541:D:/Work/DeviceTester/amazon-freertos/lib/pkcs11/mbedtls\aws_pkcs11_mbedtls.c ****         if( NULL == pxSessionObj->xVerifyMutex )
 542:D:/Work/DeviceTester/amazon-freertos/lib/pkcs11/mbedtls\aws_pkcs11_mbedtls.c ****         {
 543:D:/Work/DeviceTester/amazon-freertos/lib/pkcs11/mbedtls\aws_pkcs11_mbedtls.c ****             xResult = CKR_HOST_MEMORY;
 544:D:/Work/DeviceTester/amazon-freertos/lib/pkcs11/mbedtls\aws_pkcs11_mbedtls.c ****         }
 545:D:/Work/DeviceTester/amazon-freertos/lib/pkcs11/mbedtls\aws_pkcs11_mbedtls.c ****     }
 546:D:/Work/DeviceTester/amazon-freertos/lib/pkcs11/mbedtls\aws_pkcs11_mbedtls.c **** 
 547:D:/Work/DeviceTester/amazon-freertos/lib/pkcs11/mbedtls\aws_pkcs11_mbedtls.c ****     if( CKR_OK == xResult )
 548:D:/Work/DeviceTester/amazon-freertos/lib/pkcs11/mbedtls\aws_pkcs11_mbedtls.c ****     {
 549:D:/Work/DeviceTester/amazon-freertos/lib/pkcs11/mbedtls\aws_pkcs11_mbedtls.c ****         /*
 550:D:/Work/DeviceTester/amazon-freertos/lib/pkcs11/mbedtls\aws_pkcs11_mbedtls.c ****          * Assign the session.
 551:D:/Work/DeviceTester/amazon-freertos/lib/pkcs11/mbedtls\aws_pkcs11_mbedtls.c ****          */
 552:D:/Work/DeviceTester/amazon-freertos/lib/pkcs11/mbedtls\aws_pkcs11_mbedtls.c **** 
 553:D:/Work/DeviceTester/amazon-freertos/lib/pkcs11/mbedtls\aws_pkcs11_mbedtls.c ****         pxSessionObj->ulState =
 554:D:/Work/DeviceTester/amazon-freertos/lib/pkcs11/mbedtls\aws_pkcs11_mbedtls.c ****             0u != ( xFlags & CKF_RW_SESSION ) ? CKS_RW_PUBLIC_SESSION : CKS_RO_PUBLIC_SESSION;
 555:D:/Work/DeviceTester/amazon-freertos/lib/pkcs11/mbedtls\aws_pkcs11_mbedtls.c ****         pxSessionObj->xOpened = CK_TRUE;
 556:D:/Work/DeviceTester/amazon-freertos/lib/pkcs11/mbedtls\aws_pkcs11_mbedtls.c **** 
 557:D:/Work/DeviceTester/amazon-freertos/lib/pkcs11/mbedtls\aws_pkcs11_mbedtls.c ****         /*
 558:D:/Work/DeviceTester/amazon-freertos/lib/pkcs11/mbedtls\aws_pkcs11_mbedtls.c ****          * Return the session.
 559:D:/Work/DeviceTester/amazon-freertos/lib/pkcs11/mbedtls\aws_pkcs11_mbedtls.c ****          */
 560:D:/Work/DeviceTester/amazon-freertos/lib/pkcs11/mbedtls\aws_pkcs11_mbedtls.c **** 
 561:D:/Work/DeviceTester/amazon-freertos/lib/pkcs11/mbedtls\aws_pkcs11_mbedtls.c ****         *pxSession = ( CK_SESSION_HANDLE ) pxSessionObj; /*lint !e923 Allow casting pointer to inte
 562:D:/Work/DeviceTester/amazon-freertos/lib/pkcs11/mbedtls\aws_pkcs11_mbedtls.c ****     }
 563:D:/Work/DeviceTester/amazon-freertos/lib/pkcs11/mbedtls\aws_pkcs11_mbedtls.c **** 
 564:D:/Work/DeviceTester/amazon-freertos/lib/pkcs11/mbedtls\aws_pkcs11_mbedtls.c ****     /*
 565:D:/Work/DeviceTester/amazon-freertos/lib/pkcs11/mbedtls\aws_pkcs11_mbedtls.c ****      *   Initialize the operation in progress.
 566:D:/Work/DeviceTester/amazon-freertos/lib/pkcs11/mbedtls\aws_pkcs11_mbedtls.c ****      */
 567:D:/Work/DeviceTester/amazon-freertos/lib/pkcs11/mbedtls\aws_pkcs11_mbedtls.c ****     if( CKR_OK == xResult )
 568:D:/Work/DeviceTester/amazon-freertos/lib/pkcs11/mbedtls\aws_pkcs11_mbedtls.c ****     {
 569:D:/Work/DeviceTester/amazon-freertos/lib/pkcs11/mbedtls\aws_pkcs11_mbedtls.c ****         pxSessionObj->xOperationInProgress = pkcs11NO_OPERATION;
 570:D:/Work/DeviceTester/amazon-freertos/lib/pkcs11/mbedtls\aws_pkcs11_mbedtls.c ****     }
 571:D:/Work/DeviceTester/amazon-freertos/lib/pkcs11/mbedtls\aws_pkcs11_mbedtls.c **** 
 572:D:/Work/DeviceTester/amazon-freertos/lib/pkcs11/mbedtls\aws_pkcs11_mbedtls.c ****     if( ( NULL != pxSessionObj ) && ( CKR_OK != xResult ) )
 573:D:/Work/DeviceTester/amazon-freertos/lib/pkcs11/mbedtls\aws_pkcs11_mbedtls.c ****     {
 574:D:/Work/DeviceTester/amazon-freertos/lib/pkcs11/mbedtls\aws_pkcs11_mbedtls.c ****         vPortFree( pxSessionObj );
 575:D:/Work/DeviceTester/amazon-freertos/lib/pkcs11/mbedtls\aws_pkcs11_mbedtls.c ****     }
 576:D:/Work/DeviceTester/amazon-freertos/lib/pkcs11/mbedtls\aws_pkcs11_mbedtls.c **** 
 577:D:/Work/DeviceTester/amazon-freertos/lib/pkcs11/mbedtls\aws_pkcs11_mbedtls.c ****     return xResult;
 578:D:/Work/DeviceTester/amazon-freertos/lib/pkcs11/mbedtls\aws_pkcs11_mbedtls.c **** }
 579:D:/Work/DeviceTester/amazon-freertos/lib/pkcs11/mbedtls\aws_pkcs11_mbedtls.c **** 
 580:D:/Work/DeviceTester/amazon-freertos/lib/pkcs11/mbedtls\aws_pkcs11_mbedtls.c **** /**
 581:D:/Work/DeviceTester/amazon-freertos/lib/pkcs11/mbedtls\aws_pkcs11_mbedtls.c ****  * @brief Terminate a session and release resources.
 582:D:/Work/DeviceTester/amazon-freertos/lib/pkcs11/mbedtls\aws_pkcs11_mbedtls.c ****  */
 583:D:/Work/DeviceTester/amazon-freertos/lib/pkcs11/mbedtls\aws_pkcs11_mbedtls.c **** CK_DEFINE_FUNCTION( CK_RV, C_CloseSession )( CK_SESSION_HANDLE xSession )
 584:D:/Work/DeviceTester/amazon-freertos/lib/pkcs11/mbedtls\aws_pkcs11_mbedtls.c **** {   /*lint !e9072 It's OK to have different parameter name. */
 585:D:/Work/DeviceTester/amazon-freertos/lib/pkcs11/mbedtls\aws_pkcs11_mbedtls.c ****     CK_RV xResult = CKR_OK;
 586:D:/Work/DeviceTester/amazon-freertos/lib/pkcs11/mbedtls\aws_pkcs11_mbedtls.c ****     P11SessionPtr_t pxSession = prvSessionPointerFromHandle( xSession );
 587:D:/Work/DeviceTester/amazon-freertos/lib/pkcs11/mbedtls\aws_pkcs11_mbedtls.c **** 
 588:D:/Work/DeviceTester/amazon-freertos/lib/pkcs11/mbedtls\aws_pkcs11_mbedtls.c ****     if( NULL != pxSession )
 589:D:/Work/DeviceTester/amazon-freertos/lib/pkcs11/mbedtls\aws_pkcs11_mbedtls.c ****     {
 590:D:/Work/DeviceTester/amazon-freertos/lib/pkcs11/mbedtls\aws_pkcs11_mbedtls.c ****         /*
 591:D:/Work/DeviceTester/amazon-freertos/lib/pkcs11/mbedtls\aws_pkcs11_mbedtls.c ****          * Tear down the session.
 592:D:/Work/DeviceTester/amazon-freertos/lib/pkcs11/mbedtls\aws_pkcs11_mbedtls.c ****          */
 593:D:/Work/DeviceTester/amazon-freertos/lib/pkcs11/mbedtls\aws_pkcs11_mbedtls.c **** 
 594:D:/Work/DeviceTester/amazon-freertos/lib/pkcs11/mbedtls\aws_pkcs11_mbedtls.c ****         if( NULL != pxSession->xSignKey.pk_ctx )
 595:D:/Work/DeviceTester/amazon-freertos/lib/pkcs11/mbedtls\aws_pkcs11_mbedtls.c ****         {
 596:D:/Work/DeviceTester/amazon-freertos/lib/pkcs11/mbedtls\aws_pkcs11_mbedtls.c ****             mbedtls_pk_free( &pxSession->xSignKey );
 597:D:/Work/DeviceTester/amazon-freertos/lib/pkcs11/mbedtls\aws_pkcs11_mbedtls.c ****         }
 598:D:/Work/DeviceTester/amazon-freertos/lib/pkcs11/mbedtls\aws_pkcs11_mbedtls.c **** 
 599:D:/Work/DeviceTester/amazon-freertos/lib/pkcs11/mbedtls\aws_pkcs11_mbedtls.c ****         if( NULL != pxSession->xSignMutex )
 600:D:/Work/DeviceTester/amazon-freertos/lib/pkcs11/mbedtls\aws_pkcs11_mbedtls.c ****         {
 601:D:/Work/DeviceTester/amazon-freertos/lib/pkcs11/mbedtls\aws_pkcs11_mbedtls.c ****             vSemaphoreDelete( pxSession->xSignMutex );
 602:D:/Work/DeviceTester/amazon-freertos/lib/pkcs11/mbedtls\aws_pkcs11_mbedtls.c ****         }
 603:D:/Work/DeviceTester/amazon-freertos/lib/pkcs11/mbedtls\aws_pkcs11_mbedtls.c **** 
 604:D:/Work/DeviceTester/amazon-freertos/lib/pkcs11/mbedtls\aws_pkcs11_mbedtls.c ****         /* Free the public key context if it exists. */
 605:D:/Work/DeviceTester/amazon-freertos/lib/pkcs11/mbedtls\aws_pkcs11_mbedtls.c ****         if( NULL != pxSession->xVerifyKey.pk_ctx )
 606:D:/Work/DeviceTester/amazon-freertos/lib/pkcs11/mbedtls\aws_pkcs11_mbedtls.c ****         {
 607:D:/Work/DeviceTester/amazon-freertos/lib/pkcs11/mbedtls\aws_pkcs11_mbedtls.c ****             mbedtls_pk_free( &pxSession->xVerifyKey );
 608:D:/Work/DeviceTester/amazon-freertos/lib/pkcs11/mbedtls\aws_pkcs11_mbedtls.c ****         }
 609:D:/Work/DeviceTester/amazon-freertos/lib/pkcs11/mbedtls\aws_pkcs11_mbedtls.c **** 
 610:D:/Work/DeviceTester/amazon-freertos/lib/pkcs11/mbedtls\aws_pkcs11_mbedtls.c ****         if( NULL != pxSession->xVerifyMutex )
 611:D:/Work/DeviceTester/amazon-freertos/lib/pkcs11/mbedtls\aws_pkcs11_mbedtls.c ****         {
 612:D:/Work/DeviceTester/amazon-freertos/lib/pkcs11/mbedtls\aws_pkcs11_mbedtls.c ****             vSemaphoreDelete( pxSession->xVerifyMutex );
 613:D:/Work/DeviceTester/amazon-freertos/lib/pkcs11/mbedtls\aws_pkcs11_mbedtls.c ****         }
 614:D:/Work/DeviceTester/amazon-freertos/lib/pkcs11/mbedtls\aws_pkcs11_mbedtls.c **** 
 615:D:/Work/DeviceTester/amazon-freertos/lib/pkcs11/mbedtls\aws_pkcs11_mbedtls.c ****         if( NULL != &pxSession->xSHA256Context )
 616:D:/Work/DeviceTester/amazon-freertos/lib/pkcs11/mbedtls\aws_pkcs11_mbedtls.c ****         {
 617:D:/Work/DeviceTester/amazon-freertos/lib/pkcs11/mbedtls\aws_pkcs11_mbedtls.c ****             mbedtls_sha256_free( &pxSession->xSHA256Context );
 618:D:/Work/DeviceTester/amazon-freertos/lib/pkcs11/mbedtls\aws_pkcs11_mbedtls.c ****         }
 619:D:/Work/DeviceTester/amazon-freertos/lib/pkcs11/mbedtls\aws_pkcs11_mbedtls.c **** 
 620:D:/Work/DeviceTester/amazon-freertos/lib/pkcs11/mbedtls\aws_pkcs11_mbedtls.c ****         vPortFree( pxSession );
 621:D:/Work/DeviceTester/amazon-freertos/lib/pkcs11/mbedtls\aws_pkcs11_mbedtls.c ****     }
 622:D:/Work/DeviceTester/amazon-freertos/lib/pkcs11/mbedtls\aws_pkcs11_mbedtls.c ****     else
 623:D:/Work/DeviceTester/amazon-freertos/lib/pkcs11/mbedtls\aws_pkcs11_mbedtls.c ****     {
 624:D:/Work/DeviceTester/amazon-freertos/lib/pkcs11/mbedtls\aws_pkcs11_mbedtls.c ****         xResult = CKR_SESSION_HANDLE_INVALID;
 625:D:/Work/DeviceTester/amazon-freertos/lib/pkcs11/mbedtls\aws_pkcs11_mbedtls.c ****     }
 626:D:/Work/DeviceTester/amazon-freertos/lib/pkcs11/mbedtls\aws_pkcs11_mbedtls.c **** 
 627:D:/Work/DeviceTester/amazon-freertos/lib/pkcs11/mbedtls\aws_pkcs11_mbedtls.c ****     return xResult;
 628:D:/Work/DeviceTester/amazon-freertos/lib/pkcs11/mbedtls\aws_pkcs11_mbedtls.c **** }
 629:D:/Work/DeviceTester/amazon-freertos/lib/pkcs11/mbedtls\aws_pkcs11_mbedtls.c **** 
 630:D:/Work/DeviceTester/amazon-freertos/lib/pkcs11/mbedtls\aws_pkcs11_mbedtls.c **** /**
 631:D:/Work/DeviceTester/amazon-freertos/lib/pkcs11/mbedtls\aws_pkcs11_mbedtls.c ****  * @brief Provides import and storage of a single client certificate and
 632:D:/Work/DeviceTester/amazon-freertos/lib/pkcs11/mbedtls\aws_pkcs11_mbedtls.c ****  * associated private key.
 633:D:/Work/DeviceTester/amazon-freertos/lib/pkcs11/mbedtls\aws_pkcs11_mbedtls.c ****  */
 634:D:/Work/DeviceTester/amazon-freertos/lib/pkcs11/mbedtls\aws_pkcs11_mbedtls.c **** CK_DEFINE_FUNCTION( CK_RV, C_CreateObject )( CK_SESSION_HANDLE xSession,
 635:D:/Work/DeviceTester/amazon-freertos/lib/pkcs11/mbedtls\aws_pkcs11_mbedtls.c ****                                              CK_ATTRIBUTE_PTR pxTemplate,
 636:D:/Work/DeviceTester/amazon-freertos/lib/pkcs11/mbedtls\aws_pkcs11_mbedtls.c ****                                              CK_ULONG ulCount,
 637:D:/Work/DeviceTester/amazon-freertos/lib/pkcs11/mbedtls\aws_pkcs11_mbedtls.c ****                                              CK_OBJECT_HANDLE_PTR pxObject )
 638:D:/Work/DeviceTester/amazon-freertos/lib/pkcs11/mbedtls\aws_pkcs11_mbedtls.c **** {   /*lint !e9072 It's OK to have different parameter name. */
 639:D:/Work/DeviceTester/amazon-freertos/lib/pkcs11/mbedtls\aws_pkcs11_mbedtls.c ****     CK_RV xResult = CKR_OK;
 640:D:/Work/DeviceTester/amazon-freertos/lib/pkcs11/mbedtls\aws_pkcs11_mbedtls.c ****     void * pvContext = NULL;
 641:D:/Work/DeviceTester/amazon-freertos/lib/pkcs11/mbedtls\aws_pkcs11_mbedtls.c ****     int32_t lMbedTLSParseResult = ~0;
 642:D:/Work/DeviceTester/amazon-freertos/lib/pkcs11/mbedtls\aws_pkcs11_mbedtls.c ****     PKCS11_KeyTemplatePtr_t pxKeyTemplate = NULL;
 643:D:/Work/DeviceTester/amazon-freertos/lib/pkcs11/mbedtls\aws_pkcs11_mbedtls.c ****     PKCS11_CertificateTemplatePtr_t pxCertificateTemplate = NULL;
 644:D:/Work/DeviceTester/amazon-freertos/lib/pkcs11/mbedtls\aws_pkcs11_mbedtls.c ****     CK_ATTRIBUTE_PTR pxObjectClassAttribute = pxTemplate;
 645:D:/Work/DeviceTester/amazon-freertos/lib/pkcs11/mbedtls\aws_pkcs11_mbedtls.c **** 
 646:D:/Work/DeviceTester/amazon-freertos/lib/pkcs11/mbedtls\aws_pkcs11_mbedtls.c ****     /* Avoid warnings about unused parameters. */
 647:D:/Work/DeviceTester/amazon-freertos/lib/pkcs11/mbedtls\aws_pkcs11_mbedtls.c ****     ( void ) xSession;
 648:D:/Work/DeviceTester/amazon-freertos/lib/pkcs11/mbedtls\aws_pkcs11_mbedtls.c **** 
 649:D:/Work/DeviceTester/amazon-freertos/lib/pkcs11/mbedtls\aws_pkcs11_mbedtls.c ****     /*
 650:D:/Work/DeviceTester/amazon-freertos/lib/pkcs11/mbedtls\aws_pkcs11_mbedtls.c ****      * Check parameters.
 651:D:/Work/DeviceTester/amazon-freertos/lib/pkcs11/mbedtls\aws_pkcs11_mbedtls.c ****      */
 652:D:/Work/DeviceTester/amazon-freertos/lib/pkcs11/mbedtls\aws_pkcs11_mbedtls.c ****     if( ( pkcs11CREATE_OBJECT_MIN_ATTRIBUTE_COUNT > ulCount ) ||
 653:D:/Work/DeviceTester/amazon-freertos/lib/pkcs11/mbedtls\aws_pkcs11_mbedtls.c ****         ( NULL == pxTemplate ) ||
 654:D:/Work/DeviceTester/amazon-freertos/lib/pkcs11/mbedtls\aws_pkcs11_mbedtls.c ****         ( NULL == pxObject ) )
 655:D:/Work/DeviceTester/amazon-freertos/lib/pkcs11/mbedtls\aws_pkcs11_mbedtls.c ****     {
 656:D:/Work/DeviceTester/amazon-freertos/lib/pkcs11/mbedtls\aws_pkcs11_mbedtls.c ****         xResult = CKR_ARGUMENTS_BAD;
 657:D:/Work/DeviceTester/amazon-freertos/lib/pkcs11/mbedtls\aws_pkcs11_mbedtls.c ****     }
 658:D:/Work/DeviceTester/amazon-freertos/lib/pkcs11/mbedtls\aws_pkcs11_mbedtls.c **** 
 659:D:/Work/DeviceTester/amazon-freertos/lib/pkcs11/mbedtls\aws_pkcs11_mbedtls.c ****     /* The PKCS#11 spec allows attributes to be in any order, but to simplify
 660:D:/Work/DeviceTester/amazon-freertos/lib/pkcs11/mbedtls\aws_pkcs11_mbedtls.c ****      *  code, CKA_CLASS is required to be the first attribute in the template. */
 661:D:/Work/DeviceTester/amazon-freertos/lib/pkcs11/mbedtls\aws_pkcs11_mbedtls.c ****     if( CKR_OK == xResult )
 662:D:/Work/DeviceTester/amazon-freertos/lib/pkcs11/mbedtls\aws_pkcs11_mbedtls.c ****     {
 663:D:/Work/DeviceTester/amazon-freertos/lib/pkcs11/mbedtls\aws_pkcs11_mbedtls.c ****         if( ( pxObjectClassAttribute->type != CKA_CLASS ) ||
 664:D:/Work/DeviceTester/amazon-freertos/lib/pkcs11/mbedtls\aws_pkcs11_mbedtls.c ****             ( pxObjectClassAttribute->ulValueLen != sizeof( CK_OBJECT_CLASS ) ) )
 665:D:/Work/DeviceTester/amazon-freertos/lib/pkcs11/mbedtls\aws_pkcs11_mbedtls.c ****         {
 666:D:/Work/DeviceTester/amazon-freertos/lib/pkcs11/mbedtls\aws_pkcs11_mbedtls.c ****             xResult = CKR_ARGUMENTS_BAD;
 667:D:/Work/DeviceTester/amazon-freertos/lib/pkcs11/mbedtls\aws_pkcs11_mbedtls.c ****         }
 668:D:/Work/DeviceTester/amazon-freertos/lib/pkcs11/mbedtls\aws_pkcs11_mbedtls.c ****     }
 669:D:/Work/DeviceTester/amazon-freertos/lib/pkcs11/mbedtls\aws_pkcs11_mbedtls.c **** 
 670:D:/Work/DeviceTester/amazon-freertos/lib/pkcs11/mbedtls\aws_pkcs11_mbedtls.c ****     /*
 671:D:/Work/DeviceTester/amazon-freertos/lib/pkcs11/mbedtls\aws_pkcs11_mbedtls.c ****      * Handle the object by class.
 672:D:/Work/DeviceTester/amazon-freertos/lib/pkcs11/mbedtls\aws_pkcs11_mbedtls.c ****      */
 673:D:/Work/DeviceTester/amazon-freertos/lib/pkcs11/mbedtls\aws_pkcs11_mbedtls.c **** 
 674:D:/Work/DeviceTester/amazon-freertos/lib/pkcs11/mbedtls\aws_pkcs11_mbedtls.c ****     if( CKR_OK == xResult )
 675:D:/Work/DeviceTester/amazon-freertos/lib/pkcs11/mbedtls\aws_pkcs11_mbedtls.c ****     {
 676:D:/Work/DeviceTester/amazon-freertos/lib/pkcs11/mbedtls\aws_pkcs11_mbedtls.c ****         switch( *( ( uint32_t * ) pxObjectClassAttribute->pValue ) )
 677:D:/Work/DeviceTester/amazon-freertos/lib/pkcs11/mbedtls\aws_pkcs11_mbedtls.c ****         {
 678:D:/Work/DeviceTester/amazon-freertos/lib/pkcs11/mbedtls\aws_pkcs11_mbedtls.c ****             case CKO_CERTIFICATE:
 679:D:/Work/DeviceTester/amazon-freertos/lib/pkcs11/mbedtls\aws_pkcs11_mbedtls.c **** 
 680:D:/Work/DeviceTester/amazon-freertos/lib/pkcs11/mbedtls\aws_pkcs11_mbedtls.c ****                 pxCertificateTemplate = ( PKCS11_CertificateTemplatePtr_t ) pxTemplate;
 681:D:/Work/DeviceTester/amazon-freertos/lib/pkcs11/mbedtls\aws_pkcs11_mbedtls.c **** 
 682:D:/Work/DeviceTester/amazon-freertos/lib/pkcs11/mbedtls\aws_pkcs11_mbedtls.c ****                 /* Validate the attribute count for this object class. */
 683:D:/Work/DeviceTester/amazon-freertos/lib/pkcs11/mbedtls\aws_pkcs11_mbedtls.c ****                 if( sizeof( PKCS11_CertificateTemplate_t ) / sizeof( CK_ATTRIBUTE ) != ulCount )
 684:D:/Work/DeviceTester/amazon-freertos/lib/pkcs11/mbedtls\aws_pkcs11_mbedtls.c ****                 {
 685:D:/Work/DeviceTester/amazon-freertos/lib/pkcs11/mbedtls\aws_pkcs11_mbedtls.c ****                     xResult = CKR_ARGUMENTS_BAD;
 686:D:/Work/DeviceTester/amazon-freertos/lib/pkcs11/mbedtls\aws_pkcs11_mbedtls.c ****                     break;
 687:D:/Work/DeviceTester/amazon-freertos/lib/pkcs11/mbedtls\aws_pkcs11_mbedtls.c ****                 }
 688:D:/Work/DeviceTester/amazon-freertos/lib/pkcs11/mbedtls\aws_pkcs11_mbedtls.c **** 
 689:D:/Work/DeviceTester/amazon-freertos/lib/pkcs11/mbedtls\aws_pkcs11_mbedtls.c ****                 /* Validate the attribute template. */
 690:D:/Work/DeviceTester/amazon-freertos/lib/pkcs11/mbedtls\aws_pkcs11_mbedtls.c ****                 if( ( CKA_VALUE != pxCertificateTemplate->xValue.type ) ||
 691:D:/Work/DeviceTester/amazon-freertos/lib/pkcs11/mbedtls\aws_pkcs11_mbedtls.c ****                     ( CKA_LABEL != pxCertificateTemplate->xLabel.type ) )
 692:D:/Work/DeviceTester/amazon-freertos/lib/pkcs11/mbedtls\aws_pkcs11_mbedtls.c ****                 {
 693:D:/Work/DeviceTester/amazon-freertos/lib/pkcs11/mbedtls\aws_pkcs11_mbedtls.c ****                     xResult = CKR_ARGUMENTS_BAD;
 694:D:/Work/DeviceTester/amazon-freertos/lib/pkcs11/mbedtls\aws_pkcs11_mbedtls.c ****                     break;
 695:D:/Work/DeviceTester/amazon-freertos/lib/pkcs11/mbedtls\aws_pkcs11_mbedtls.c ****                 }
 696:D:/Work/DeviceTester/amazon-freertos/lib/pkcs11/mbedtls\aws_pkcs11_mbedtls.c **** 
 697:D:/Work/DeviceTester/amazon-freertos/lib/pkcs11/mbedtls\aws_pkcs11_mbedtls.c ****                 /* Verify that the given certificate can be parsed. */
 698:D:/Work/DeviceTester/amazon-freertos/lib/pkcs11/mbedtls\aws_pkcs11_mbedtls.c ****                 pvContext = pvPortMalloc( sizeof( mbedtls_x509_crt ) );
 699:D:/Work/DeviceTester/amazon-freertos/lib/pkcs11/mbedtls\aws_pkcs11_mbedtls.c **** 
 700:D:/Work/DeviceTester/amazon-freertos/lib/pkcs11/mbedtls\aws_pkcs11_mbedtls.c ****                 if( NULL != pvContext )
 701:D:/Work/DeviceTester/amazon-freertos/lib/pkcs11/mbedtls\aws_pkcs11_mbedtls.c ****                 {
 702:D:/Work/DeviceTester/amazon-freertos/lib/pkcs11/mbedtls\aws_pkcs11_mbedtls.c ****                     mbedtls_x509_crt_init( ( mbedtls_x509_crt * ) pvContext );
 703:D:/Work/DeviceTester/amazon-freertos/lib/pkcs11/mbedtls\aws_pkcs11_mbedtls.c ****                     lMbedTLSParseResult = mbedtls_x509_crt_parse( ( mbedtls_x509_crt * ) pvContext,
 704:D:/Work/DeviceTester/amazon-freertos/lib/pkcs11/mbedtls\aws_pkcs11_mbedtls.c ****                                                                   pxCertificateTemplate->xValue.pVa
 705:D:/Work/DeviceTester/amazon-freertos/lib/pkcs11/mbedtls\aws_pkcs11_mbedtls.c ****                                                                   pxCertificateTemplate->xValue.ulV
 706:D:/Work/DeviceTester/amazon-freertos/lib/pkcs11/mbedtls\aws_pkcs11_mbedtls.c ****                     mbedtls_x509_crt_free( ( mbedtls_x509_crt * ) pvContext );
 707:D:/Work/DeviceTester/amazon-freertos/lib/pkcs11/mbedtls\aws_pkcs11_mbedtls.c ****                     vPortFree( pvContext );
 708:D:/Work/DeviceTester/amazon-freertos/lib/pkcs11/mbedtls\aws_pkcs11_mbedtls.c ****                 }
 709:D:/Work/DeviceTester/amazon-freertos/lib/pkcs11/mbedtls\aws_pkcs11_mbedtls.c ****                 else
 710:D:/Work/DeviceTester/amazon-freertos/lib/pkcs11/mbedtls\aws_pkcs11_mbedtls.c ****                 {
 711:D:/Work/DeviceTester/amazon-freertos/lib/pkcs11/mbedtls\aws_pkcs11_mbedtls.c ****                     xResult = CKR_HOST_MEMORY;
 712:D:/Work/DeviceTester/amazon-freertos/lib/pkcs11/mbedtls\aws_pkcs11_mbedtls.c ****                     break;
 713:D:/Work/DeviceTester/amazon-freertos/lib/pkcs11/mbedtls\aws_pkcs11_mbedtls.c ****                 }
 714:D:/Work/DeviceTester/amazon-freertos/lib/pkcs11/mbedtls\aws_pkcs11_mbedtls.c **** 
 715:D:/Work/DeviceTester/amazon-freertos/lib/pkcs11/mbedtls\aws_pkcs11_mbedtls.c ****                 if( 0 != lMbedTLSParseResult )
 716:D:/Work/DeviceTester/amazon-freertos/lib/pkcs11/mbedtls\aws_pkcs11_mbedtls.c ****                 {
 717:D:/Work/DeviceTester/amazon-freertos/lib/pkcs11/mbedtls\aws_pkcs11_mbedtls.c ****                     xResult = CKR_ARGUMENTS_BAD;
 718:D:/Work/DeviceTester/amazon-freertos/lib/pkcs11/mbedtls\aws_pkcs11_mbedtls.c ****                     break;
 719:D:/Work/DeviceTester/amazon-freertos/lib/pkcs11/mbedtls\aws_pkcs11_mbedtls.c ****                 }
 720:D:/Work/DeviceTester/amazon-freertos/lib/pkcs11/mbedtls\aws_pkcs11_mbedtls.c **** 
 721:D:/Work/DeviceTester/amazon-freertos/lib/pkcs11/mbedtls\aws_pkcs11_mbedtls.c ****                 /* Write the certificate to NVM. */
 722:D:/Work/DeviceTester/amazon-freertos/lib/pkcs11/mbedtls\aws_pkcs11_mbedtls.c ****                 if( 0 == ( *pxObject = PKCS11_PAL_SaveObject( &pxCertificateTemplate->xLabel,
 723:D:/Work/DeviceTester/amazon-freertos/lib/pkcs11/mbedtls\aws_pkcs11_mbedtls.c ****                                                               pxCertificateTemplate->xValue.pValue,
 724:D:/Work/DeviceTester/amazon-freertos/lib/pkcs11/mbedtls\aws_pkcs11_mbedtls.c ****                                                               pxCertificateTemplate->xValue.ulValue
 725:D:/Work/DeviceTester/amazon-freertos/lib/pkcs11/mbedtls\aws_pkcs11_mbedtls.c ****                 {
 726:D:/Work/DeviceTester/amazon-freertos/lib/pkcs11/mbedtls\aws_pkcs11_mbedtls.c ****                     xResult = CKR_DEVICE_ERROR;
 727:D:/Work/DeviceTester/amazon-freertos/lib/pkcs11/mbedtls\aws_pkcs11_mbedtls.c ****                     break;
 728:D:/Work/DeviceTester/amazon-freertos/lib/pkcs11/mbedtls\aws_pkcs11_mbedtls.c ****                 }
 729:D:/Work/DeviceTester/amazon-freertos/lib/pkcs11/mbedtls\aws_pkcs11_mbedtls.c **** 
 730:D:/Work/DeviceTester/amazon-freertos/lib/pkcs11/mbedtls\aws_pkcs11_mbedtls.c ****                 break;
 731:D:/Work/DeviceTester/amazon-freertos/lib/pkcs11/mbedtls\aws_pkcs11_mbedtls.c **** 
 732:D:/Work/DeviceTester/amazon-freertos/lib/pkcs11/mbedtls\aws_pkcs11_mbedtls.c ****             case CKO_PRIVATE_KEY:
 733:D:/Work/DeviceTester/amazon-freertos/lib/pkcs11/mbedtls\aws_pkcs11_mbedtls.c ****             case CKO_PUBLIC_KEY:
 734:D:/Work/DeviceTester/amazon-freertos/lib/pkcs11/mbedtls\aws_pkcs11_mbedtls.c **** 
 735:D:/Work/DeviceTester/amazon-freertos/lib/pkcs11/mbedtls\aws_pkcs11_mbedtls.c ****                 /* Cast the template for easy field access. */
 736:D:/Work/DeviceTester/amazon-freertos/lib/pkcs11/mbedtls\aws_pkcs11_mbedtls.c ****                 pxKeyTemplate = ( PKCS11_KeyTemplatePtr_t ) pxTemplate;
 737:D:/Work/DeviceTester/amazon-freertos/lib/pkcs11/mbedtls\aws_pkcs11_mbedtls.c **** 
 738:D:/Work/DeviceTester/amazon-freertos/lib/pkcs11/mbedtls\aws_pkcs11_mbedtls.c ****                 /* Validate the attribute count for this object class. */
 739:D:/Work/DeviceTester/amazon-freertos/lib/pkcs11/mbedtls\aws_pkcs11_mbedtls.c ****                 if( ( sizeof( PKCS11_KeyTemplate_t ) / sizeof( CK_ATTRIBUTE ) ) != ulCount )
 740:D:/Work/DeviceTester/amazon-freertos/lib/pkcs11/mbedtls\aws_pkcs11_mbedtls.c ****                 {
 741:D:/Work/DeviceTester/amazon-freertos/lib/pkcs11/mbedtls\aws_pkcs11_mbedtls.c ****                     xResult = CKR_ARGUMENTS_BAD;
 742:D:/Work/DeviceTester/amazon-freertos/lib/pkcs11/mbedtls\aws_pkcs11_mbedtls.c ****                     break;
 743:D:/Work/DeviceTester/amazon-freertos/lib/pkcs11/mbedtls\aws_pkcs11_mbedtls.c ****                 }
 744:D:/Work/DeviceTester/amazon-freertos/lib/pkcs11/mbedtls\aws_pkcs11_mbedtls.c **** 
 745:D:/Work/DeviceTester/amazon-freertos/lib/pkcs11/mbedtls\aws_pkcs11_mbedtls.c ****                 /* Confirm that the template is formatted as expected for a private key. */
 746:D:/Work/DeviceTester/amazon-freertos/lib/pkcs11/mbedtls\aws_pkcs11_mbedtls.c ****                 if( ( CKA_VALUE != pxKeyTemplate->xValue.type ) ||
 747:D:/Work/DeviceTester/amazon-freertos/lib/pkcs11/mbedtls\aws_pkcs11_mbedtls.c ****                     ( CKA_KEY_TYPE != pxKeyTemplate->xKeyType.type ) ||
 748:D:/Work/DeviceTester/amazon-freertos/lib/pkcs11/mbedtls\aws_pkcs11_mbedtls.c ****                     ( CKA_LABEL != pxKeyTemplate->xLabel.type ) )
 749:D:/Work/DeviceTester/amazon-freertos/lib/pkcs11/mbedtls\aws_pkcs11_mbedtls.c ****                 {
 750:D:/Work/DeviceTester/amazon-freertos/lib/pkcs11/mbedtls\aws_pkcs11_mbedtls.c ****                     xResult = CKR_ATTRIBUTE_TYPE_INVALID;
 751:D:/Work/DeviceTester/amazon-freertos/lib/pkcs11/mbedtls\aws_pkcs11_mbedtls.c ****                     break;
 752:D:/Work/DeviceTester/amazon-freertos/lib/pkcs11/mbedtls\aws_pkcs11_mbedtls.c ****                 }
 753:D:/Work/DeviceTester/amazon-freertos/lib/pkcs11/mbedtls\aws_pkcs11_mbedtls.c **** 
 754:D:/Work/DeviceTester/amazon-freertos/lib/pkcs11/mbedtls\aws_pkcs11_mbedtls.c ****                 /* Verify that the given key can be parsed. */
 755:D:/Work/DeviceTester/amazon-freertos/lib/pkcs11/mbedtls\aws_pkcs11_mbedtls.c ****                 pvContext = pvPortMalloc( sizeof( mbedtls_pk_context ) );
 756:D:/Work/DeviceTester/amazon-freertos/lib/pkcs11/mbedtls\aws_pkcs11_mbedtls.c **** 
 757:D:/Work/DeviceTester/amazon-freertos/lib/pkcs11/mbedtls\aws_pkcs11_mbedtls.c ****                 if( NULL != pvContext )
 758:D:/Work/DeviceTester/amazon-freertos/lib/pkcs11/mbedtls\aws_pkcs11_mbedtls.c ****                 {
 759:D:/Work/DeviceTester/amazon-freertos/lib/pkcs11/mbedtls\aws_pkcs11_mbedtls.c ****                     mbedtls_pk_init( ( mbedtls_pk_context * ) pvContext );
 760:D:/Work/DeviceTester/amazon-freertos/lib/pkcs11/mbedtls\aws_pkcs11_mbedtls.c **** 
 761:D:/Work/DeviceTester/amazon-freertos/lib/pkcs11/mbedtls\aws_pkcs11_mbedtls.c ****                     if( *( uint32_t * ) pxKeyTemplate->xObjectClass.pValue == CKO_PRIVATE_KEY )
 762:D:/Work/DeviceTester/amazon-freertos/lib/pkcs11/mbedtls\aws_pkcs11_mbedtls.c ****                     {
 763:D:/Work/DeviceTester/amazon-freertos/lib/pkcs11/mbedtls\aws_pkcs11_mbedtls.c ****                         lMbedTLSParseResult = mbedtls_pk_parse_key( ( mbedtls_pk_context * ) pvCont
 764:D:/Work/DeviceTester/amazon-freertos/lib/pkcs11/mbedtls\aws_pkcs11_mbedtls.c ****                                                                     pxKeyTemplate->xValue.pValue,
 765:D:/Work/DeviceTester/amazon-freertos/lib/pkcs11/mbedtls\aws_pkcs11_mbedtls.c ****                                                                     pxKeyTemplate->xValue.ulValueLe
 766:D:/Work/DeviceTester/amazon-freertos/lib/pkcs11/mbedtls\aws_pkcs11_mbedtls.c ****                                                                     NULL,
 767:D:/Work/DeviceTester/amazon-freertos/lib/pkcs11/mbedtls\aws_pkcs11_mbedtls.c ****                                                                     0 );
 768:D:/Work/DeviceTester/amazon-freertos/lib/pkcs11/mbedtls\aws_pkcs11_mbedtls.c ****                     }
 769:D:/Work/DeviceTester/amazon-freertos/lib/pkcs11/mbedtls\aws_pkcs11_mbedtls.c ****                     else
 770:D:/Work/DeviceTester/amazon-freertos/lib/pkcs11/mbedtls\aws_pkcs11_mbedtls.c ****                     {
 771:D:/Work/DeviceTester/amazon-freertos/lib/pkcs11/mbedtls\aws_pkcs11_mbedtls.c ****                         lMbedTLSParseResult = mbedtls_pk_parse_public_key( ( mbedtls_pk_context * )
 772:D:/Work/DeviceTester/amazon-freertos/lib/pkcs11/mbedtls\aws_pkcs11_mbedtls.c ****                                                                            pxKeyTemplate->xValue.pV
 773:D:/Work/DeviceTester/amazon-freertos/lib/pkcs11/mbedtls\aws_pkcs11_mbedtls.c ****                                                                            pxKeyTemplate->xValue.ul
 774:D:/Work/DeviceTester/amazon-freertos/lib/pkcs11/mbedtls\aws_pkcs11_mbedtls.c ****                     }
 775:D:/Work/DeviceTester/amazon-freertos/lib/pkcs11/mbedtls\aws_pkcs11_mbedtls.c **** 
 776:D:/Work/DeviceTester/amazon-freertos/lib/pkcs11/mbedtls\aws_pkcs11_mbedtls.c ****                     mbedtls_pk_free( ( mbedtls_pk_context * ) pvContext );
 777:D:/Work/DeviceTester/amazon-freertos/lib/pkcs11/mbedtls\aws_pkcs11_mbedtls.c ****                     vPortFree( pvContext );
 778:D:/Work/DeviceTester/amazon-freertos/lib/pkcs11/mbedtls\aws_pkcs11_mbedtls.c ****                 }
 779:D:/Work/DeviceTester/amazon-freertos/lib/pkcs11/mbedtls\aws_pkcs11_mbedtls.c ****                 else
 780:D:/Work/DeviceTester/amazon-freertos/lib/pkcs11/mbedtls\aws_pkcs11_mbedtls.c ****                 {
 781:D:/Work/DeviceTester/amazon-freertos/lib/pkcs11/mbedtls\aws_pkcs11_mbedtls.c ****                     xResult = CKR_HOST_MEMORY;
 782:D:/Work/DeviceTester/amazon-freertos/lib/pkcs11/mbedtls\aws_pkcs11_mbedtls.c ****                     break;
 783:D:/Work/DeviceTester/amazon-freertos/lib/pkcs11/mbedtls\aws_pkcs11_mbedtls.c ****                 }
 784:D:/Work/DeviceTester/amazon-freertos/lib/pkcs11/mbedtls\aws_pkcs11_mbedtls.c **** 
 785:D:/Work/DeviceTester/amazon-freertos/lib/pkcs11/mbedtls\aws_pkcs11_mbedtls.c ****                 if( 0 != lMbedTLSParseResult )
 786:D:/Work/DeviceTester/amazon-freertos/lib/pkcs11/mbedtls\aws_pkcs11_mbedtls.c ****                 {
 787:D:/Work/DeviceTester/amazon-freertos/lib/pkcs11/mbedtls\aws_pkcs11_mbedtls.c ****                     xResult = CKR_ATTRIBUTE_VALUE_INVALID;
 788:D:/Work/DeviceTester/amazon-freertos/lib/pkcs11/mbedtls\aws_pkcs11_mbedtls.c ****                     break;
 789:D:/Work/DeviceTester/amazon-freertos/lib/pkcs11/mbedtls\aws_pkcs11_mbedtls.c ****                 }
 790:D:/Work/DeviceTester/amazon-freertos/lib/pkcs11/mbedtls\aws_pkcs11_mbedtls.c **** 
 791:D:/Work/DeviceTester/amazon-freertos/lib/pkcs11/mbedtls\aws_pkcs11_mbedtls.c ****                 /* Save the key to NVM. */
 792:D:/Work/DeviceTester/amazon-freertos/lib/pkcs11/mbedtls\aws_pkcs11_mbedtls.c ****                 if( 0 == ( *pxObject = PKCS11_PAL_SaveObject( &pxKeyTemplate->xLabel,
 793:D:/Work/DeviceTester/amazon-freertos/lib/pkcs11/mbedtls\aws_pkcs11_mbedtls.c ****                                                               pxKeyTemplate->xValue.pValue,
 794:D:/Work/DeviceTester/amazon-freertos/lib/pkcs11/mbedtls\aws_pkcs11_mbedtls.c ****                                                               pxKeyTemplate->xValue.ulValueLen ) ) 
 795:D:/Work/DeviceTester/amazon-freertos/lib/pkcs11/mbedtls\aws_pkcs11_mbedtls.c ****                 {
 796:D:/Work/DeviceTester/amazon-freertos/lib/pkcs11/mbedtls\aws_pkcs11_mbedtls.c ****                     xResult = CKR_DEVICE_ERROR;
 797:D:/Work/DeviceTester/amazon-freertos/lib/pkcs11/mbedtls\aws_pkcs11_mbedtls.c ****                     break;
 798:D:/Work/DeviceTester/amazon-freertos/lib/pkcs11/mbedtls\aws_pkcs11_mbedtls.c ****                 }
 799:D:/Work/DeviceTester/amazon-freertos/lib/pkcs11/mbedtls\aws_pkcs11_mbedtls.c **** 
 800:D:/Work/DeviceTester/amazon-freertos/lib/pkcs11/mbedtls\aws_pkcs11_mbedtls.c ****                 break;
 801:D:/Work/DeviceTester/amazon-freertos/lib/pkcs11/mbedtls\aws_pkcs11_mbedtls.c **** 
 802:D:/Work/DeviceTester/amazon-freertos/lib/pkcs11/mbedtls\aws_pkcs11_mbedtls.c ****             default:
 803:D:/Work/DeviceTester/amazon-freertos/lib/pkcs11/mbedtls\aws_pkcs11_mbedtls.c ****                 xResult = CKR_ARGUMENTS_BAD;
 804:D:/Work/DeviceTester/amazon-freertos/lib/pkcs11/mbedtls\aws_pkcs11_mbedtls.c ****         }
 805:D:/Work/DeviceTester/amazon-freertos/lib/pkcs11/mbedtls\aws_pkcs11_mbedtls.c ****     }
 806:D:/Work/DeviceTester/amazon-freertos/lib/pkcs11/mbedtls\aws_pkcs11_mbedtls.c **** 
 807:D:/Work/DeviceTester/amazon-freertos/lib/pkcs11/mbedtls\aws_pkcs11_mbedtls.c ****     return xResult;
 808:D:/Work/DeviceTester/amazon-freertos/lib/pkcs11/mbedtls\aws_pkcs11_mbedtls.c **** }
 809:D:/Work/DeviceTester/amazon-freertos/lib/pkcs11/mbedtls\aws_pkcs11_mbedtls.c **** 
 810:D:/Work/DeviceTester/amazon-freertos/lib/pkcs11/mbedtls\aws_pkcs11_mbedtls.c **** /**
 811:D:/Work/DeviceTester/amazon-freertos/lib/pkcs11/mbedtls\aws_pkcs11_mbedtls.c ****  * @brief Free resources attached to an object handle.
 812:D:/Work/DeviceTester/amazon-freertos/lib/pkcs11/mbedtls\aws_pkcs11_mbedtls.c ****  */
 813:D:/Work/DeviceTester/amazon-freertos/lib/pkcs11/mbedtls\aws_pkcs11_mbedtls.c **** CK_DEFINE_FUNCTION( CK_RV, C_DestroyObject )( CK_SESSION_HANDLE xSession,
 814:D:/Work/DeviceTester/amazon-freertos/lib/pkcs11/mbedtls\aws_pkcs11_mbedtls.c ****                                               CK_OBJECT_HANDLE xObject )
 815:D:/Work/DeviceTester/amazon-freertos/lib/pkcs11/mbedtls\aws_pkcs11_mbedtls.c **** {
  61              		.loc 1 815 0
  62              		.cfi_startproc
  63              		@ args = 0, pretend = 0, frame = 0
  64              		@ frame_needed = 0, uses_anonymous_args = 0
  65              		@ link register save eliminated.
  66              	.LVL3:
 816:D:/Work/DeviceTester/amazon-freertos/lib/pkcs11/mbedtls\aws_pkcs11_mbedtls.c ****     /* TODO: Delete objects from NVM. */
 817:D:/Work/DeviceTester/amazon-freertos/lib/pkcs11/mbedtls\aws_pkcs11_mbedtls.c ****     ( void ) xSession;
 818:D:/Work/DeviceTester/amazon-freertos/lib/pkcs11/mbedtls\aws_pkcs11_mbedtls.c ****     ( void ) xObject;
 819:D:/Work/DeviceTester/amazon-freertos/lib/pkcs11/mbedtls\aws_pkcs11_mbedtls.c ****     return CKR_OK;
 820:D:/Work/DeviceTester/amazon-freertos/lib/pkcs11/mbedtls\aws_pkcs11_mbedtls.c **** }
  67              		.loc 1 820 0
  68 0000 0000A0E3 		mov	r0, #0
  69              	.LVL4:
  70 0004 1EFF2FE1 		bx	lr
  71              		.cfi_endproc
  72              	.LFE16:
  74              		.section	.text.aws_mbedtls_mutex_lock,"ax",%progbits
  75              		.align	2
  76              		.global	aws_mbedtls_mutex_lock
  77              		.syntax unified
  78              		.arm
  79              		.fpu neon
  81              	aws_mbedtls_mutex_lock:
  82              	.LFB6:
 201:D:/Work/DeviceTester/amazon-freertos/lib/pkcs11/mbedtls\aws_pkcs11_mbedtls.c ****     int ret = MBEDTLS_ERR_THREADING_BAD_INPUT_DATA;
  83              		.loc 1 201 0
  84              		.cfi_startproc
  85              		@ args = 0, pretend = 0, frame = 0
  86              		@ frame_needed = 0, uses_anonymous_args = 0
  87              	.LVL5:
 204:D:/Work/DeviceTester/amazon-freertos/lib/pkcs11/mbedtls\aws_pkcs11_mbedtls.c ****     {
  88              		.loc 1 204 0
  89 0000 0430D0E5 		ldrb	r3, [r0, #4]	@ zero_extendqisi2
  90 0004 010053E3 		cmp	r3, #1
  91 0008 0900001A 		bne	.L9
 201:D:/Work/DeviceTester/amazon-freertos/lib/pkcs11/mbedtls\aws_pkcs11_mbedtls.c ****     int ret = MBEDTLS_ERR_THREADING_BAD_INPUT_DATA;
  92              		.loc 1 201 0
  93 000c 10402DE9 		push	{r4, lr}
  94              		.cfi_def_cfa_offset 8
  95              		.cfi_offset 4, -8
  96              		.cfi_offset 14, -4
 206:D:/Work/DeviceTester/amazon-freertos/lib/pkcs11/mbedtls\aws_pkcs11_mbedtls.c ****         {
  97              		.loc 1 206 0
  98 0010 0010E0E3 		mvn	r1, #0
  99 0014 000090E5 		ldr	r0, [r0]
 100              	.LVL6:
 101 0018 FEFFFFEB 		bl	xQueueSemaphoreTake
 102              	.LVL7:
 103 001c 000050E3 		cmp	r0, #0
 104 0020 0500001A 		bne	.L10
 105              	.LVL8:
 213:D:/Work/DeviceTester/amazon-freertos/lib/pkcs11/mbedtls\aws_pkcs11_mbedtls.c ****         }
 106              		.loc 1 213 0
 107 0024 18009FE5 		ldr	r0, .L15
 108 0028 FEFFFFEB 		bl	vLoggingPrintf
 109              	.LVL9:
 212:D:/Work/DeviceTester/amazon-freertos/lib/pkcs11/mbedtls\aws_pkcs11_mbedtls.c ****             PKCS11_PRINT( ( "Failed to obtain mbedTLS mutex.\r\n" ) );
 110              		.loc 1 212 0
 111 002c 1D00E0E3 		mvn	r0, #29
 112 0030 1080BDE8 		pop	{r4, pc}
 113              	.LVL10:
 114              	.L9:
 115              		.cfi_def_cfa_offset 0
 116              		.cfi_restore 4
 117              		.cfi_restore 14
 202:D:/Work/DeviceTester/amazon-freertos/lib/pkcs11/mbedtls\aws_pkcs11_mbedtls.c **** 
 118              		.loc 1 202 0
 119 0034 1B00E0E3 		mvn	r0, #27
 120              	.LVL11:
 121 0038 1EFF2FE1 		bx	lr
 122              	.L10:
 123              		.cfi_def_cfa_offset 8
 124              		.cfi_offset 4, -8
 125              		.cfi_offset 14, -4
 208:D:/Work/DeviceTester/amazon-freertos/lib/pkcs11/mbedtls\aws_pkcs11_mbedtls.c ****         }
 126              		.loc 1 208 0
 127 003c 0000A0E3 		mov	r0, #0
 128              	.LVL12:
 218:D:/Work/DeviceTester/amazon-freertos/lib/pkcs11/mbedtls\aws_pkcs11_mbedtls.c **** 
 129              		.loc 1 218 0
 130 0040 1080BDE8 		pop	{r4, pc}
 131              	.L16:
 132              		.align	2
 133              	.L15:
 134 0044 00000000 		.word	.LC0
 135              		.cfi_endproc
 136              	.LFE6:
 138              		.section	.text.aws_mbedtls_mutex_unlock,"ax",%progbits
 139              		.align	2
 140              		.global	aws_mbedtls_mutex_unlock
 141              		.syntax unified
 142              		.arm
 143              		.fpu neon
 145              	aws_mbedtls_mutex_unlock:
 146              	.LFB7:
 227:D:/Work/DeviceTester/amazon-freertos/lib/pkcs11/mbedtls\aws_pkcs11_mbedtls.c ****     int ret = MBEDTLS_ERR_THREADING_BAD_INPUT_DATA;
 147              		.loc 1 227 0
 148              		.cfi_startproc
 149              		@ args = 0, pretend = 0, frame = 0
 150              		@ frame_needed = 0, uses_anonymous_args = 0
 151              	.LVL13:
 230:D:/Work/DeviceTester/amazon-freertos/lib/pkcs11/mbedtls\aws_pkcs11_mbedtls.c ****     {
 152              		.loc 1 230 0
 153 0000 0430D0E5 		ldrb	r3, [r0, #4]	@ zero_extendqisi2
 154 0004 010053E3 		cmp	r3, #1
 155 0008 0B00001A 		bne	.L19
 232:D:/Work/DeviceTester/amazon-freertos/lib/pkcs11/mbedtls\aws_pkcs11_mbedtls.c ****         {
 156              		.loc 1 232 0
 157 000c 0030A0E3 		mov	r3, #0
 227:D:/Work/DeviceTester/amazon-freertos/lib/pkcs11/mbedtls\aws_pkcs11_mbedtls.c ****     int ret = MBEDTLS_ERR_THREADING_BAD_INPUT_DATA;
 158              		.loc 1 227 0
 159 0010 10402DE9 		push	{r4, lr}
 160              		.cfi_def_cfa_offset 8
 161              		.cfi_offset 4, -8
 162              		.cfi_offset 14, -4
 232:D:/Work/DeviceTester/amazon-freertos/lib/pkcs11/mbedtls\aws_pkcs11_mbedtls.c ****         {
 163              		.loc 1 232 0
 164 0014 0320A0E1 		mov	r2, r3
 165 0018 0310A0E1 		mov	r1, r3
 166 001c 000090E5 		ldr	r0, [r0]
 167              	.LVL14:
 168 0020 FEFFFFEB 		bl	xQueueGenericSend
 169              	.LVL15:
 170 0024 000050E3 		cmp	r0, #0
 171 0028 0500001A 		bne	.L20
 172              	.LVL16:
 239:D:/Work/DeviceTester/amazon-freertos/lib/pkcs11/mbedtls\aws_pkcs11_mbedtls.c ****         }
 173              		.loc 1 239 0
 174 002c 18009FE5 		ldr	r0, .L25
 175 0030 FEFFFFEB 		bl	vLoggingPrintf
 176              	.LVL17:
 238:D:/Work/DeviceTester/amazon-freertos/lib/pkcs11/mbedtls\aws_pkcs11_mbedtls.c ****             PKCS11_PRINT( ( "Failed to unlock mbedTLS mutex.\r\n" ) );
 177              		.loc 1 238 0
 178 0034 1D00E0E3 		mvn	r0, #29
 179 0038 1080BDE8 		pop	{r4, pc}
 180              	.LVL18:
 181              	.L19:
 182              		.cfi_def_cfa_offset 0
 183              		.cfi_restore 4
 184              		.cfi_restore 14
 228:D:/Work/DeviceTester/amazon-freertos/lib/pkcs11/mbedtls\aws_pkcs11_mbedtls.c **** 
 185              		.loc 1 228 0
 186 003c 1B00E0E3 		mvn	r0, #27
 187              	.LVL19:
 188 0040 1EFF2FE1 		bx	lr
 189              	.L20:
 190              		.cfi_def_cfa_offset 8
 191              		.cfi_offset 4, -8
 192              		.cfi_offset 14, -4
 234:D:/Work/DeviceTester/amazon-freertos/lib/pkcs11/mbedtls\aws_pkcs11_mbedtls.c ****         }
 193              		.loc 1 234 0
 194 0044 0000A0E3 		mov	r0, #0
 195              	.LVL20:
 244:D:/Work/DeviceTester/amazon-freertos/lib/pkcs11/mbedtls\aws_pkcs11_mbedtls.c **** 
 196              		.loc 1 244 0
 197 0048 1080BDE8 		pop	{r4, pc}
 198              	.L26:
 199              		.align	2
 200              	.L25:
 201 004c 00000000 		.word	.LC1
 202              		.cfi_endproc
 203              	.LFE7:
 205              		.section	.text.C_OpenSession,"ax",%progbits
 206              		.align	2
 207              		.global	C_OpenSession
 208              		.syntax unified
 209              		.arm
 210              		.fpu neon
 212              	C_OpenSession:
 213              	.LFB13:
 492:D:/Work/DeviceTester/amazon-freertos/lib/pkcs11/mbedtls\aws_pkcs11_mbedtls.c ****     CK_RV xResult = CKR_OK;
 214              		.loc 1 492 0
 215              		.cfi_startproc
 216              		@ args = 4, pretend = 0, frame = 0
 217              		@ frame_needed = 0, uses_anonymous_args = 0
 218              	.LVL21:
 219 0000 F0412DE9 		push	{r4, r5, r6, r7, r8, lr}
 220              		.cfi_def_cfa_offset 24
 221              		.cfi_offset 4, -24
 222              		.cfi_offset 5, -20
 223              		.cfi_offset 6, -16
 224              		.cfi_offset 7, -12
 225              		.cfi_offset 8, -8
 226              		.cfi_offset 14, -4
 492:D:/Work/DeviceTester/amazon-freertos/lib/pkcs11/mbedtls\aws_pkcs11_mbedtls.c ****     CK_RV xResult = CKR_OK;
 227              		.loc 1 492 0
 228 0004 18709DE5 		ldr	r7, [sp, #24]
 503:D:/Work/DeviceTester/amazon-freertos/lib/pkcs11/mbedtls\aws_pkcs11_mbedtls.c ****     }
 229              		.loc 1 503 0
 230 0008 000057E3 		cmp	r7, #0
 231 000c 0050A013 		movne	r5, #0
 232 0010 0750A003 		moveq	r5, #7
 233              	.LVL22:
 507:D:/Work/DeviceTester/amazon-freertos/lib/pkcs11/mbedtls\aws_pkcs11_mbedtls.c ****     {
 234              		.loc 1 507 0
 235 0014 044011E2 		ands	r4, r1, #4
 509:D:/Work/DeviceTester/amazon-freertos/lib/pkcs11/mbedtls\aws_pkcs11_mbedtls.c ****     }
 236              		.loc 1 509 0
 237 0018 B450A003 		moveq	r5, #180
 238              	.LVL23:
 507:D:/Work/DeviceTester/amazon-freertos/lib/pkcs11/mbedtls\aws_pkcs11_mbedtls.c ****     {
 239              		.loc 1 507 0
 240 001c 1C00000A 		beq	.L29
 241              	.LVL24:
 515:D:/Work/DeviceTester/amazon-freertos/lib/pkcs11/mbedtls\aws_pkcs11_mbedtls.c ****     {
 242              		.loc 1 515 0
 243 0020 000055E3 		cmp	r5, #0
 494:D:/Work/DeviceTester/amazon-freertos/lib/pkcs11/mbedtls\aws_pkcs11_mbedtls.c **** 
 244              		.loc 1 494 0
 245 0024 0040A013 		movne	r4, #0
 515:D:/Work/DeviceTester/amazon-freertos/lib/pkcs11/mbedtls\aws_pkcs11_mbedtls.c ****     {
 246              		.loc 1 515 0
 247 0028 1900001A 		bne	.L29
 517:D:/Work/DeviceTester/amazon-freertos/lib/pkcs11/mbedtls\aws_pkcs11_mbedtls.c **** 
 248              		.loc 1 517 0
 249 002c 9C00A0E3 		mov	r0, #156
 250              	.LVL25:
 251 0030 0160A0E1 		mov	r6, r1
 252              	.LVL26:
 253 0034 FEFFFFEB 		bl	pvPortMalloc
 254              	.LVL27:
 519:D:/Work/DeviceTester/amazon-freertos/lib/pkcs11/mbedtls\aws_pkcs11_mbedtls.c ****         {
 255              		.loc 1 519 0
 256 0038 004050E2 		subs	r4, r0, #0
 257 003c 1B00001A 		bne	.L30
 521:D:/Work/DeviceTester/amazon-freertos/lib/pkcs11/mbedtls\aws_pkcs11_mbedtls.c ****         }
 258              		.loc 1 521 0
 259 0040 0250A0E3 		mov	r5, #2
 260              	.LVL28:
 261              	.L33:
 532:D:/Work/DeviceTester/amazon-freertos/lib/pkcs11/mbedtls\aws_pkcs11_mbedtls.c **** 
 262              		.loc 1 532 0
 263 0044 0100A0E3 		mov	r0, #1
 264 0048 FEFFFFEB 		bl	xQueueCreateMutex
 265              	.LVL29:
 536:D:/Work/DeviceTester/amazon-freertos/lib/pkcs11/mbedtls\aws_pkcs11_mbedtls.c ****         }
 266              		.loc 1 536 0
 267 004c 000050E3 		cmp	r0, #0
 532:D:/Work/DeviceTester/amazon-freertos/lib/pkcs11/mbedtls\aws_pkcs11_mbedtls.c **** 
 268              		.loc 1 532 0
 269 0050 240084E5 		str	r0, [r4, #36]
 539:D:/Work/DeviceTester/amazon-freertos/lib/pkcs11/mbedtls\aws_pkcs11_mbedtls.c **** 
 270              		.loc 1 539 0
 271 0054 0100A0E3 		mov	r0, #1
 536:D:/Work/DeviceTester/amazon-freertos/lib/pkcs11/mbedtls\aws_pkcs11_mbedtls.c ****         }
 272              		.loc 1 536 0
 273 0058 0250A003 		moveq	r5, #2
 274              	.LVL30:
 539:D:/Work/DeviceTester/amazon-freertos/lib/pkcs11/mbedtls\aws_pkcs11_mbedtls.c **** 
 275              		.loc 1 539 0
 276 005c FEFFFFEB 		bl	xQueueCreateMutex
 277              	.LVL31:
 541:D:/Work/DeviceTester/amazon-freertos/lib/pkcs11/mbedtls\aws_pkcs11_mbedtls.c ****         {
 278              		.loc 1 541 0
 279 0060 000050E3 		cmp	r0, #0
 539:D:/Work/DeviceTester/amazon-freertos/lib/pkcs11/mbedtls\aws_pkcs11_mbedtls.c **** 
 280              		.loc 1 539 0
 281 0064 180084E5 		str	r0, [r4, #24]
 543:D:/Work/DeviceTester/amazon-freertos/lib/pkcs11/mbedtls\aws_pkcs11_mbedtls.c ****         }
 282              		.loc 1 543 0
 283 0068 0250A003 		moveq	r5, #2
 284              	.LVL32:
 541:D:/Work/DeviceTester/amazon-freertos/lib/pkcs11/mbedtls\aws_pkcs11_mbedtls.c ****         {
 285              		.loc 1 541 0
 286 006c 0800000A 		beq	.L29
 287              	.LVL33:
 547:D:/Work/DeviceTester/amazon-freertos/lib/pkcs11/mbedtls\aws_pkcs11_mbedtls.c ****     {
 288              		.loc 1 547 0
 289 0070 000055E3 		cmp	r5, #0
 290 0074 0600001A 		bne	.L29
 555:D:/Work/DeviceTester/amazon-freertos/lib/pkcs11/mbedtls\aws_pkcs11_mbedtls.c **** 
 291              		.loc 1 555 0
 292 0078 0130A0E3 		mov	r3, #1
 554:D:/Work/DeviceTester/amazon-freertos/lib/pkcs11/mbedtls\aws_pkcs11_mbedtls.c ****         pxSessionObj->xOpened = CK_TRUE;
 293              		.loc 1 554 0
 294 007c 026006E2 		and	r6, r6, #2
 295              	.LVL34:
 555:D:/Work/DeviceTester/amazon-freertos/lib/pkcs11/mbedtls\aws_pkcs11_mbedtls.c **** 
 296              		.loc 1 555 0
 297 0080 0430C4E5 		strb	r3, [r4, #4]
 569:D:/Work/DeviceTester/amazon-freertos/lib/pkcs11/mbedtls\aws_pkcs11_mbedtls.c ****     }
 298              		.loc 1 569 0
 299 0084 0030E0E3 		mvn	r3, #0
 553:D:/Work/DeviceTester/amazon-freertos/lib/pkcs11/mbedtls\aws_pkcs11_mbedtls.c ****             0u != ( xFlags & CKF_RW_SESSION ) ? CKS_RW_PUBLIC_SESSION : CKS_RO_PUBLIC_SESSION;
 300              		.loc 1 553 0
 301 0088 006084E5 		str	r6, [r4]
 561:D:/Work/DeviceTester/amazon-freertos/lib/pkcs11/mbedtls\aws_pkcs11_mbedtls.c ****     }
 302              		.loc 1 561 0
 303 008c 004087E5 		str	r4, [r7]
 569:D:/Work/DeviceTester/amazon-freertos/lib/pkcs11/mbedtls\aws_pkcs11_mbedtls.c ****     }
 304              		.loc 1 569 0
 305 0090 083084E5 		str	r3, [r4, #8]
 306              	.LVL35:
 307              	.L29:
 572:D:/Work/DeviceTester/amazon-freertos/lib/pkcs11/mbedtls\aws_pkcs11_mbedtls.c ****     {
 308              		.loc 1 572 0
 309 0094 000054E3 		cmp	r4, #0
 310 0098 00005513 		cmpne	r5, #0
 311 009c 0100000A 		beq	.L27
 574:D:/Work/DeviceTester/amazon-freertos/lib/pkcs11/mbedtls\aws_pkcs11_mbedtls.c ****     }
 312              		.loc 1 574 0
 313 00a0 0400A0E1 		mov	r0, r4
 314 00a4 FEFFFFEB 		bl	vPortFree
 315              	.LVL36:
 316              	.L27:
 578:D:/Work/DeviceTester/amazon-freertos/lib/pkcs11/mbedtls\aws_pkcs11_mbedtls.c **** 
 317              		.loc 1 578 0
 318 00a8 0500A0E1 		mov	r0, r5
 319 00ac F081BDE8 		pop	{r4, r5, r6, r7, r8, pc}
 320              	.LVL37:
 321              	.L30:
 529:D:/Work/DeviceTester/amazon-freertos/lib/pkcs11/mbedtls\aws_pkcs11_mbedtls.c ****         }
 322              		.loc 1 529 0
 323 00b0 9C20A0E3 		mov	r2, #156
 324 00b4 0510A0E1 		mov	r1, r5
 325 00b8 FEFFFFEB 		bl	memset
 326              	.LVL38:
 327 00bc E0FFFFEA 		b	.L33
 328              		.cfi_endproc
 329              	.LFE13:
 331              		.section	.text.C_FindObjectsFinal,"ax",%progbits
 332              		.align	2
 333              		.global	C_FindObjectsFinal
 334              		.syntax unified
 335              		.arm
 336              		.fpu neon
 338              	C_FindObjectsFinal:
 339              	.LFB20:
 821:D:/Work/DeviceTester/amazon-freertos/lib/pkcs11/mbedtls\aws_pkcs11_mbedtls.c **** 
 822:D:/Work/DeviceTester/amazon-freertos/lib/pkcs11/mbedtls\aws_pkcs11_mbedtls.c **** /**
 823:D:/Work/DeviceTester/amazon-freertos/lib/pkcs11/mbedtls\aws_pkcs11_mbedtls.c ****  * @brief Query the value of the specified cryptographic object attribute.
 824:D:/Work/DeviceTester/amazon-freertos/lib/pkcs11/mbedtls\aws_pkcs11_mbedtls.c ****  */
 825:D:/Work/DeviceTester/amazon-freertos/lib/pkcs11/mbedtls\aws_pkcs11_mbedtls.c **** CK_DEFINE_FUNCTION( CK_RV, C_GetAttributeValue )( CK_SESSION_HANDLE xSession,
 826:D:/Work/DeviceTester/amazon-freertos/lib/pkcs11/mbedtls\aws_pkcs11_mbedtls.c ****                                                   CK_OBJECT_HANDLE xObject,
 827:D:/Work/DeviceTester/amazon-freertos/lib/pkcs11/mbedtls\aws_pkcs11_mbedtls.c ****                                                   CK_ATTRIBUTE_PTR pxTemplate,
 828:D:/Work/DeviceTester/amazon-freertos/lib/pkcs11/mbedtls\aws_pkcs11_mbedtls.c ****                                                   CK_ULONG ulCount )
 829:D:/Work/DeviceTester/amazon-freertos/lib/pkcs11/mbedtls\aws_pkcs11_mbedtls.c **** {
 830:D:/Work/DeviceTester/amazon-freertos/lib/pkcs11/mbedtls\aws_pkcs11_mbedtls.c ****     /*lint !e9072 It's OK to have different parameter name. */
 831:D:/Work/DeviceTester/amazon-freertos/lib/pkcs11/mbedtls\aws_pkcs11_mbedtls.c ****     CK_RV xResult = CKR_OK;
 832:D:/Work/DeviceTester/amazon-freertos/lib/pkcs11/mbedtls\aws_pkcs11_mbedtls.c ****     CK_BBOOL xIsPrivate = CK_TRUE;
 833:D:/Work/DeviceTester/amazon-freertos/lib/pkcs11/mbedtls\aws_pkcs11_mbedtls.c ****     CK_ULONG iAttrib;
 834:D:/Work/DeviceTester/amazon-freertos/lib/pkcs11/mbedtls\aws_pkcs11_mbedtls.c ****     mbedtls_pk_context privateKeyContext;
 835:D:/Work/DeviceTester/amazon-freertos/lib/pkcs11/mbedtls\aws_pkcs11_mbedtls.c ****     mbedtls_pk_type_t xKeyType;
 836:D:/Work/DeviceTester/amazon-freertos/lib/pkcs11/mbedtls\aws_pkcs11_mbedtls.c ****     CK_KEY_TYPE xPkcsKeyType = ( CK_KEY_TYPE ) ~0;
 837:D:/Work/DeviceTester/amazon-freertos/lib/pkcs11/mbedtls\aws_pkcs11_mbedtls.c **** 
 838:D:/Work/DeviceTester/amazon-freertos/lib/pkcs11/mbedtls\aws_pkcs11_mbedtls.c ****     uint8_t * pxObjectValue = NULL;
 839:D:/Work/DeviceTester/amazon-freertos/lib/pkcs11/mbedtls\aws_pkcs11_mbedtls.c ****     uint32_t ulLength = 0;
 840:D:/Work/DeviceTester/amazon-freertos/lib/pkcs11/mbedtls\aws_pkcs11_mbedtls.c **** 
 841:D:/Work/DeviceTester/amazon-freertos/lib/pkcs11/mbedtls\aws_pkcs11_mbedtls.c ****     /* Avoid warnings about unused parameters. */
 842:D:/Work/DeviceTester/amazon-freertos/lib/pkcs11/mbedtls\aws_pkcs11_mbedtls.c ****     ( void ) xSession;
 843:D:/Work/DeviceTester/amazon-freertos/lib/pkcs11/mbedtls\aws_pkcs11_mbedtls.c **** 
 844:D:/Work/DeviceTester/amazon-freertos/lib/pkcs11/mbedtls\aws_pkcs11_mbedtls.c ****     if( NULL == pxTemplate )
 845:D:/Work/DeviceTester/amazon-freertos/lib/pkcs11/mbedtls\aws_pkcs11_mbedtls.c ****     {
 846:D:/Work/DeviceTester/amazon-freertos/lib/pkcs11/mbedtls\aws_pkcs11_mbedtls.c ****         xResult = CKR_ARGUMENTS_BAD;
 847:D:/Work/DeviceTester/amazon-freertos/lib/pkcs11/mbedtls\aws_pkcs11_mbedtls.c ****     }
 848:D:/Work/DeviceTester/amazon-freertos/lib/pkcs11/mbedtls\aws_pkcs11_mbedtls.c ****     else
 849:D:/Work/DeviceTester/amazon-freertos/lib/pkcs11/mbedtls\aws_pkcs11_mbedtls.c ****     {
 850:D:/Work/DeviceTester/amazon-freertos/lib/pkcs11/mbedtls\aws_pkcs11_mbedtls.c ****         /*
 851:D:/Work/DeviceTester/amazon-freertos/lib/pkcs11/mbedtls\aws_pkcs11_mbedtls.c ****          * Copy the object into a buffer.
 852:D:/Work/DeviceTester/amazon-freertos/lib/pkcs11/mbedtls\aws_pkcs11_mbedtls.c ****          */
 853:D:/Work/DeviceTester/amazon-freertos/lib/pkcs11/mbedtls\aws_pkcs11_mbedtls.c ****         xResult = PKCS11_PAL_GetObjectValue( xObject, &pxObjectValue, &ulLength, &xIsPrivate );
 854:D:/Work/DeviceTester/amazon-freertos/lib/pkcs11/mbedtls\aws_pkcs11_mbedtls.c ****     }
 855:D:/Work/DeviceTester/amazon-freertos/lib/pkcs11/mbedtls\aws_pkcs11_mbedtls.c **** 
 856:D:/Work/DeviceTester/amazon-freertos/lib/pkcs11/mbedtls\aws_pkcs11_mbedtls.c ****     if( xResult == CKR_OK )
 857:D:/Work/DeviceTester/amazon-freertos/lib/pkcs11/mbedtls\aws_pkcs11_mbedtls.c ****     {
 858:D:/Work/DeviceTester/amazon-freertos/lib/pkcs11/mbedtls\aws_pkcs11_mbedtls.c ****         for( iAttrib = 0; iAttrib < ulCount && CKR_OK == xResult; iAttrib++ )
 859:D:/Work/DeviceTester/amazon-freertos/lib/pkcs11/mbedtls\aws_pkcs11_mbedtls.c ****         {
 860:D:/Work/DeviceTester/amazon-freertos/lib/pkcs11/mbedtls\aws_pkcs11_mbedtls.c ****             switch( pxTemplate[ iAttrib ].type )
 861:D:/Work/DeviceTester/amazon-freertos/lib/pkcs11/mbedtls\aws_pkcs11_mbedtls.c ****             {
 862:D:/Work/DeviceTester/amazon-freertos/lib/pkcs11/mbedtls\aws_pkcs11_mbedtls.c ****                 case CKA_VALUE:
 863:D:/Work/DeviceTester/amazon-freertos/lib/pkcs11/mbedtls\aws_pkcs11_mbedtls.c **** 
 864:D:/Work/DeviceTester/amazon-freertos/lib/pkcs11/mbedtls\aws_pkcs11_mbedtls.c ****                     if( xIsPrivate == CK_TRUE )
 865:D:/Work/DeviceTester/amazon-freertos/lib/pkcs11/mbedtls\aws_pkcs11_mbedtls.c ****                     {
 866:D:/Work/DeviceTester/amazon-freertos/lib/pkcs11/mbedtls\aws_pkcs11_mbedtls.c ****                         pxTemplate[ iAttrib ].ulValueLen = CK_UNAVAILABLE_INFORMATION;
 867:D:/Work/DeviceTester/amazon-freertos/lib/pkcs11/mbedtls\aws_pkcs11_mbedtls.c ****                         xResult = CKR_ATTRIBUTE_SENSITIVE;
 868:D:/Work/DeviceTester/amazon-freertos/lib/pkcs11/mbedtls\aws_pkcs11_mbedtls.c ****                     }
 869:D:/Work/DeviceTester/amazon-freertos/lib/pkcs11/mbedtls\aws_pkcs11_mbedtls.c ****                     else
 870:D:/Work/DeviceTester/amazon-freertos/lib/pkcs11/mbedtls\aws_pkcs11_mbedtls.c ****                     {
 871:D:/Work/DeviceTester/amazon-freertos/lib/pkcs11/mbedtls\aws_pkcs11_mbedtls.c ****                         if( pxTemplate[ iAttrib ].pValue == NULL )
 872:D:/Work/DeviceTester/amazon-freertos/lib/pkcs11/mbedtls\aws_pkcs11_mbedtls.c ****                         {
 873:D:/Work/DeviceTester/amazon-freertos/lib/pkcs11/mbedtls\aws_pkcs11_mbedtls.c ****                             pxTemplate[ iAttrib ].ulValueLen = ulLength;
 874:D:/Work/DeviceTester/amazon-freertos/lib/pkcs11/mbedtls\aws_pkcs11_mbedtls.c ****                         }
 875:D:/Work/DeviceTester/amazon-freertos/lib/pkcs11/mbedtls\aws_pkcs11_mbedtls.c ****                         else if( pxTemplate[ iAttrib ].ulValueLen < ulLength )
 876:D:/Work/DeviceTester/amazon-freertos/lib/pkcs11/mbedtls\aws_pkcs11_mbedtls.c ****                         {
 877:D:/Work/DeviceTester/amazon-freertos/lib/pkcs11/mbedtls\aws_pkcs11_mbedtls.c ****                             xResult = CKR_BUFFER_TOO_SMALL;
 878:D:/Work/DeviceTester/amazon-freertos/lib/pkcs11/mbedtls\aws_pkcs11_mbedtls.c ****                         }
 879:D:/Work/DeviceTester/amazon-freertos/lib/pkcs11/mbedtls\aws_pkcs11_mbedtls.c ****                         else
 880:D:/Work/DeviceTester/amazon-freertos/lib/pkcs11/mbedtls\aws_pkcs11_mbedtls.c ****                         {
 881:D:/Work/DeviceTester/amazon-freertos/lib/pkcs11/mbedtls\aws_pkcs11_mbedtls.c ****                             memcpy( pxTemplate[ iAttrib ].pValue, pxObjectValue, ulLength );
 882:D:/Work/DeviceTester/amazon-freertos/lib/pkcs11/mbedtls\aws_pkcs11_mbedtls.c ****                         }
 883:D:/Work/DeviceTester/amazon-freertos/lib/pkcs11/mbedtls\aws_pkcs11_mbedtls.c ****                     }
 884:D:/Work/DeviceTester/amazon-freertos/lib/pkcs11/mbedtls\aws_pkcs11_mbedtls.c **** 
 885:D:/Work/DeviceTester/amazon-freertos/lib/pkcs11/mbedtls\aws_pkcs11_mbedtls.c ****                     break;
 886:D:/Work/DeviceTester/amazon-freertos/lib/pkcs11/mbedtls\aws_pkcs11_mbedtls.c **** 
 887:D:/Work/DeviceTester/amazon-freertos/lib/pkcs11/mbedtls\aws_pkcs11_mbedtls.c ****                 case CKA_KEY_TYPE:
 888:D:/Work/DeviceTester/amazon-freertos/lib/pkcs11/mbedtls\aws_pkcs11_mbedtls.c **** 
 889:D:/Work/DeviceTester/amazon-freertos/lib/pkcs11/mbedtls\aws_pkcs11_mbedtls.c ****                     if( pxTemplate[ iAttrib ].pValue == NULL )
 890:D:/Work/DeviceTester/amazon-freertos/lib/pkcs11/mbedtls\aws_pkcs11_mbedtls.c ****                     {
 891:D:/Work/DeviceTester/amazon-freertos/lib/pkcs11/mbedtls\aws_pkcs11_mbedtls.c ****                         pxTemplate[ iAttrib ].ulValueLen = sizeof( mbedtls_pk_type_t );
 892:D:/Work/DeviceTester/amazon-freertos/lib/pkcs11/mbedtls\aws_pkcs11_mbedtls.c ****                     }
 893:D:/Work/DeviceTester/amazon-freertos/lib/pkcs11/mbedtls\aws_pkcs11_mbedtls.c ****                     else if( pxTemplate[ iAttrib ].ulValueLen < sizeof( mbedtls_pk_type_t ) )
 894:D:/Work/DeviceTester/amazon-freertos/lib/pkcs11/mbedtls\aws_pkcs11_mbedtls.c ****                     {
 895:D:/Work/DeviceTester/amazon-freertos/lib/pkcs11/mbedtls\aws_pkcs11_mbedtls.c ****                         xResult = CKR_BUFFER_TOO_SMALL;
 896:D:/Work/DeviceTester/amazon-freertos/lib/pkcs11/mbedtls\aws_pkcs11_mbedtls.c ****                     }
 897:D:/Work/DeviceTester/amazon-freertos/lib/pkcs11/mbedtls\aws_pkcs11_mbedtls.c ****                     else
 898:D:/Work/DeviceTester/amazon-freertos/lib/pkcs11/mbedtls\aws_pkcs11_mbedtls.c ****                     {
 899:D:/Work/DeviceTester/amazon-freertos/lib/pkcs11/mbedtls\aws_pkcs11_mbedtls.c ****                         mbedtls_pk_init( &privateKeyContext );
 900:D:/Work/DeviceTester/amazon-freertos/lib/pkcs11/mbedtls\aws_pkcs11_mbedtls.c ****                         xResult = mbedtls_pk_parse_key( &privateKeyContext, pxObjectValue, ulLength
 901:D:/Work/DeviceTester/amazon-freertos/lib/pkcs11/mbedtls\aws_pkcs11_mbedtls.c **** 
 902:D:/Work/DeviceTester/amazon-freertos/lib/pkcs11/mbedtls\aws_pkcs11_mbedtls.c ****                         if( 0 != xResult )
 903:D:/Work/DeviceTester/amazon-freertos/lib/pkcs11/mbedtls\aws_pkcs11_mbedtls.c ****                         {
 904:D:/Work/DeviceTester/amazon-freertos/lib/pkcs11/mbedtls\aws_pkcs11_mbedtls.c ****                             xResult = CKR_FUNCTION_FAILED;
 905:D:/Work/DeviceTester/amazon-freertos/lib/pkcs11/mbedtls\aws_pkcs11_mbedtls.c ****                         }
 906:D:/Work/DeviceTester/amazon-freertos/lib/pkcs11/mbedtls\aws_pkcs11_mbedtls.c ****                         else
 907:D:/Work/DeviceTester/amazon-freertos/lib/pkcs11/mbedtls\aws_pkcs11_mbedtls.c ****                         {
 908:D:/Work/DeviceTester/amazon-freertos/lib/pkcs11/mbedtls\aws_pkcs11_mbedtls.c ****                             xKeyType = mbedtls_pk_get_type( &privateKeyContext );
 909:D:/Work/DeviceTester/amazon-freertos/lib/pkcs11/mbedtls\aws_pkcs11_mbedtls.c **** 
 910:D:/Work/DeviceTester/amazon-freertos/lib/pkcs11/mbedtls\aws_pkcs11_mbedtls.c ****                             switch( xKeyType )
 911:D:/Work/DeviceTester/amazon-freertos/lib/pkcs11/mbedtls\aws_pkcs11_mbedtls.c ****                             {
 912:D:/Work/DeviceTester/amazon-freertos/lib/pkcs11/mbedtls\aws_pkcs11_mbedtls.c ****                                 case MBEDTLS_PK_RSA:
 913:D:/Work/DeviceTester/amazon-freertos/lib/pkcs11/mbedtls\aws_pkcs11_mbedtls.c ****                                 case MBEDTLS_PK_RSA_ALT:
 914:D:/Work/DeviceTester/amazon-freertos/lib/pkcs11/mbedtls\aws_pkcs11_mbedtls.c ****                                 case MBEDTLS_PK_RSASSA_PSS:
 915:D:/Work/DeviceTester/amazon-freertos/lib/pkcs11/mbedtls\aws_pkcs11_mbedtls.c ****                                     xPkcsKeyType = CKK_RSA;
 916:D:/Work/DeviceTester/amazon-freertos/lib/pkcs11/mbedtls\aws_pkcs11_mbedtls.c ****                                     break;
 917:D:/Work/DeviceTester/amazon-freertos/lib/pkcs11/mbedtls\aws_pkcs11_mbedtls.c **** 
 918:D:/Work/DeviceTester/amazon-freertos/lib/pkcs11/mbedtls\aws_pkcs11_mbedtls.c ****                                 case MBEDTLS_PK_ECKEY:
 919:D:/Work/DeviceTester/amazon-freertos/lib/pkcs11/mbedtls\aws_pkcs11_mbedtls.c ****                                 case MBEDTLS_PK_ECKEY_DH:
 920:D:/Work/DeviceTester/amazon-freertos/lib/pkcs11/mbedtls\aws_pkcs11_mbedtls.c ****                                     xPkcsKeyType = CKK_EC;
 921:D:/Work/DeviceTester/amazon-freertos/lib/pkcs11/mbedtls\aws_pkcs11_mbedtls.c ****                                     break;
 922:D:/Work/DeviceTester/amazon-freertos/lib/pkcs11/mbedtls\aws_pkcs11_mbedtls.c **** 
 923:D:/Work/DeviceTester/amazon-freertos/lib/pkcs11/mbedtls\aws_pkcs11_mbedtls.c ****                                 case MBEDTLS_PK_ECDSA:
 924:D:/Work/DeviceTester/amazon-freertos/lib/pkcs11/mbedtls\aws_pkcs11_mbedtls.c ****                                     xPkcsKeyType = CKK_ECDSA;
 925:D:/Work/DeviceTester/amazon-freertos/lib/pkcs11/mbedtls\aws_pkcs11_mbedtls.c ****                                     break;
 926:D:/Work/DeviceTester/amazon-freertos/lib/pkcs11/mbedtls\aws_pkcs11_mbedtls.c **** 
 927:D:/Work/DeviceTester/amazon-freertos/lib/pkcs11/mbedtls\aws_pkcs11_mbedtls.c ****                                 default:
 928:D:/Work/DeviceTester/amazon-freertos/lib/pkcs11/mbedtls\aws_pkcs11_mbedtls.c ****                                     xResult = CKR_ATTRIBUTE_VALUE_INVALID;
 929:D:/Work/DeviceTester/amazon-freertos/lib/pkcs11/mbedtls\aws_pkcs11_mbedtls.c ****                                     break;
 930:D:/Work/DeviceTester/amazon-freertos/lib/pkcs11/mbedtls\aws_pkcs11_mbedtls.c ****                             }
 931:D:/Work/DeviceTester/amazon-freertos/lib/pkcs11/mbedtls\aws_pkcs11_mbedtls.c **** 
 932:D:/Work/DeviceTester/amazon-freertos/lib/pkcs11/mbedtls\aws_pkcs11_mbedtls.c ****                             memcpy( pxTemplate[ iAttrib ].pValue, &xPkcsKeyType, sizeof( CK_KEY_TYP
 933:D:/Work/DeviceTester/amazon-freertos/lib/pkcs11/mbedtls\aws_pkcs11_mbedtls.c ****                         }
 934:D:/Work/DeviceTester/amazon-freertos/lib/pkcs11/mbedtls\aws_pkcs11_mbedtls.c **** 
 935:D:/Work/DeviceTester/amazon-freertos/lib/pkcs11/mbedtls\aws_pkcs11_mbedtls.c ****                         /* Free the mbedTLS structure used to parse the key. */
 936:D:/Work/DeviceTester/amazon-freertos/lib/pkcs11/mbedtls\aws_pkcs11_mbedtls.c ****                         mbedtls_pk_free( &privateKeyContext );
 937:D:/Work/DeviceTester/amazon-freertos/lib/pkcs11/mbedtls\aws_pkcs11_mbedtls.c ****                     }
 938:D:/Work/DeviceTester/amazon-freertos/lib/pkcs11/mbedtls\aws_pkcs11_mbedtls.c **** 
 939:D:/Work/DeviceTester/amazon-freertos/lib/pkcs11/mbedtls\aws_pkcs11_mbedtls.c ****                     break;
 940:D:/Work/DeviceTester/amazon-freertos/lib/pkcs11/mbedtls\aws_pkcs11_mbedtls.c **** 
 941:D:/Work/DeviceTester/amazon-freertos/lib/pkcs11/mbedtls\aws_pkcs11_mbedtls.c ****                 default:
 942:D:/Work/DeviceTester/amazon-freertos/lib/pkcs11/mbedtls\aws_pkcs11_mbedtls.c ****                     xResult = CKR_ATTRIBUTE_TYPE_INVALID;
 943:D:/Work/DeviceTester/amazon-freertos/lib/pkcs11/mbedtls\aws_pkcs11_mbedtls.c ****             }
 944:D:/Work/DeviceTester/amazon-freertos/lib/pkcs11/mbedtls\aws_pkcs11_mbedtls.c ****         }
 945:D:/Work/DeviceTester/amazon-freertos/lib/pkcs11/mbedtls\aws_pkcs11_mbedtls.c **** 
 946:D:/Work/DeviceTester/amazon-freertos/lib/pkcs11/mbedtls\aws_pkcs11_mbedtls.c ****         /* Free the buffer where object was stored. */
 947:D:/Work/DeviceTester/amazon-freertos/lib/pkcs11/mbedtls\aws_pkcs11_mbedtls.c ****         PKCS11_PAL_GetObjectValueCleanup( pxObjectValue, ulLength );
 948:D:/Work/DeviceTester/amazon-freertos/lib/pkcs11/mbedtls\aws_pkcs11_mbedtls.c ****     }
 949:D:/Work/DeviceTester/amazon-freertos/lib/pkcs11/mbedtls\aws_pkcs11_mbedtls.c **** 
 950:D:/Work/DeviceTester/amazon-freertos/lib/pkcs11/mbedtls\aws_pkcs11_mbedtls.c ****     return xResult;
 951:D:/Work/DeviceTester/amazon-freertos/lib/pkcs11/mbedtls\aws_pkcs11_mbedtls.c **** }
 952:D:/Work/DeviceTester/amazon-freertos/lib/pkcs11/mbedtls\aws_pkcs11_mbedtls.c **** 
 953:D:/Work/DeviceTester/amazon-freertos/lib/pkcs11/mbedtls\aws_pkcs11_mbedtls.c **** /**
 954:D:/Work/DeviceTester/amazon-freertos/lib/pkcs11/mbedtls\aws_pkcs11_mbedtls.c ****  * @brief Begin an enumeration sequence for the objects of the specified type.
 955:D:/Work/DeviceTester/amazon-freertos/lib/pkcs11/mbedtls\aws_pkcs11_mbedtls.c ****  */
 956:D:/Work/DeviceTester/amazon-freertos/lib/pkcs11/mbedtls\aws_pkcs11_mbedtls.c **** CK_DEFINE_FUNCTION( CK_RV, C_FindObjectsInit )( CK_SESSION_HANDLE xSession,
 957:D:/Work/DeviceTester/amazon-freertos/lib/pkcs11/mbedtls\aws_pkcs11_mbedtls.c ****                                                 CK_ATTRIBUTE_PTR pxTemplate,
 958:D:/Work/DeviceTester/amazon-freertos/lib/pkcs11/mbedtls\aws_pkcs11_mbedtls.c ****                                                 CK_ULONG ulCount )
 959:D:/Work/DeviceTester/amazon-freertos/lib/pkcs11/mbedtls\aws_pkcs11_mbedtls.c **** {
 960:D:/Work/DeviceTester/amazon-freertos/lib/pkcs11/mbedtls\aws_pkcs11_mbedtls.c ****     P11SessionPtr_t pxSession = prvSessionPointerFromHandle( xSession );
 961:D:/Work/DeviceTester/amazon-freertos/lib/pkcs11/mbedtls\aws_pkcs11_mbedtls.c ****     CK_RV xResult = CKR_OK;
 962:D:/Work/DeviceTester/amazon-freertos/lib/pkcs11/mbedtls\aws_pkcs11_mbedtls.c **** 
 963:D:/Work/DeviceTester/amazon-freertos/lib/pkcs11/mbedtls\aws_pkcs11_mbedtls.c **** 
 964:D:/Work/DeviceTester/amazon-freertos/lib/pkcs11/mbedtls\aws_pkcs11_mbedtls.c ****     /*
 965:D:/Work/DeviceTester/amazon-freertos/lib/pkcs11/mbedtls\aws_pkcs11_mbedtls.c ****      * Check parameters.
 966:D:/Work/DeviceTester/amazon-freertos/lib/pkcs11/mbedtls\aws_pkcs11_mbedtls.c ****      */
 967:D:/Work/DeviceTester/amazon-freertos/lib/pkcs11/mbedtls\aws_pkcs11_mbedtls.c ****     if( NULL == pxTemplate )
 968:D:/Work/DeviceTester/amazon-freertos/lib/pkcs11/mbedtls\aws_pkcs11_mbedtls.c ****     {
 969:D:/Work/DeviceTester/amazon-freertos/lib/pkcs11/mbedtls\aws_pkcs11_mbedtls.c ****         xResult = CKR_ARGUMENTS_BAD;
 970:D:/Work/DeviceTester/amazon-freertos/lib/pkcs11/mbedtls\aws_pkcs11_mbedtls.c ****     }
 971:D:/Work/DeviceTester/amazon-freertos/lib/pkcs11/mbedtls\aws_pkcs11_mbedtls.c ****     else if( ulCount != 1 )
 972:D:/Work/DeviceTester/amazon-freertos/lib/pkcs11/mbedtls\aws_pkcs11_mbedtls.c ****     {
 973:D:/Work/DeviceTester/amazon-freertos/lib/pkcs11/mbedtls\aws_pkcs11_mbedtls.c ****         xResult = CKR_ARGUMENTS_BAD;
 974:D:/Work/DeviceTester/amazon-freertos/lib/pkcs11/mbedtls\aws_pkcs11_mbedtls.c ****         configPRINTF( ( "Find objects can only filter by one attribute. " ) );
 975:D:/Work/DeviceTester/amazon-freertos/lib/pkcs11/mbedtls\aws_pkcs11_mbedtls.c ****     }
 976:D:/Work/DeviceTester/amazon-freertos/lib/pkcs11/mbedtls\aws_pkcs11_mbedtls.c ****     else
 977:D:/Work/DeviceTester/amazon-freertos/lib/pkcs11/mbedtls\aws_pkcs11_mbedtls.c ****     {
 978:D:/Work/DeviceTester/amazon-freertos/lib/pkcs11/mbedtls\aws_pkcs11_mbedtls.c ****         /* Copy the label to be looked up into the PKCS#11 session context. */
 979:D:/Work/DeviceTester/amazon-freertos/lib/pkcs11/mbedtls\aws_pkcs11_mbedtls.c ****         if( pxTemplate->type == CKA_LABEL )
 980:D:/Work/DeviceTester/amazon-freertos/lib/pkcs11/mbedtls\aws_pkcs11_mbedtls.c ****         {
 981:D:/Work/DeviceTester/amazon-freertos/lib/pkcs11/mbedtls\aws_pkcs11_mbedtls.c ****             pxSession->xFindObjectInit = CK_TRUE;
 982:D:/Work/DeviceTester/amazon-freertos/lib/pkcs11/mbedtls\aws_pkcs11_mbedtls.c ****             pxSession->xFindObjectComplete = CK_FALSE;
 983:D:/Work/DeviceTester/amazon-freertos/lib/pkcs11/mbedtls\aws_pkcs11_mbedtls.c **** 
 984:D:/Work/DeviceTester/amazon-freertos/lib/pkcs11/mbedtls\aws_pkcs11_mbedtls.c ****             /* Make sure the reported buffer length is not super huge. */
 985:D:/Work/DeviceTester/amazon-freertos/lib/pkcs11/mbedtls\aws_pkcs11_mbedtls.c ****             if( pxTemplate->ulValueLen < UCHAR_MAX )
 986:D:/Work/DeviceTester/amazon-freertos/lib/pkcs11/mbedtls\aws_pkcs11_mbedtls.c ****             {
 987:D:/Work/DeviceTester/amazon-freertos/lib/pkcs11/mbedtls\aws_pkcs11_mbedtls.c ****                 pxSession->xFindObjectLabel = pvPortMalloc( pxTemplate->ulValueLen );
 988:D:/Work/DeviceTester/amazon-freertos/lib/pkcs11/mbedtls\aws_pkcs11_mbedtls.c **** 
 989:D:/Work/DeviceTester/amazon-freertos/lib/pkcs11/mbedtls\aws_pkcs11_mbedtls.c ****                 if( pxSession->xFindObjectLabel != NULL )
 990:D:/Work/DeviceTester/amazon-freertos/lib/pkcs11/mbedtls\aws_pkcs11_mbedtls.c ****                 {
 991:D:/Work/DeviceTester/amazon-freertos/lib/pkcs11/mbedtls\aws_pkcs11_mbedtls.c ****                     memcpy( pxSession->xFindObjectLabel,
 992:D:/Work/DeviceTester/amazon-freertos/lib/pkcs11/mbedtls\aws_pkcs11_mbedtls.c ****                             pxTemplate->pValue,
 993:D:/Work/DeviceTester/amazon-freertos/lib/pkcs11/mbedtls\aws_pkcs11_mbedtls.c ****                             pxTemplate->ulValueLen );
 994:D:/Work/DeviceTester/amazon-freertos/lib/pkcs11/mbedtls\aws_pkcs11_mbedtls.c ****                     pxSession->xFindObjectLabelLength = ( uint8_t ) pxTemplate->ulValueLen;
 995:D:/Work/DeviceTester/amazon-freertos/lib/pkcs11/mbedtls\aws_pkcs11_mbedtls.c ****                 }
 996:D:/Work/DeviceTester/amazon-freertos/lib/pkcs11/mbedtls\aws_pkcs11_mbedtls.c ****                 else
 997:D:/Work/DeviceTester/amazon-freertos/lib/pkcs11/mbedtls\aws_pkcs11_mbedtls.c ****                 {
 998:D:/Work/DeviceTester/amazon-freertos/lib/pkcs11/mbedtls\aws_pkcs11_mbedtls.c ****                     xResult = CKR_HOST_MEMORY;
 999:D:/Work/DeviceTester/amazon-freertos/lib/pkcs11/mbedtls\aws_pkcs11_mbedtls.c ****                 }
1000:D:/Work/DeviceTester/amazon-freertos/lib/pkcs11/mbedtls\aws_pkcs11_mbedtls.c ****             }
1001:D:/Work/DeviceTester/amazon-freertos/lib/pkcs11/mbedtls\aws_pkcs11_mbedtls.c ****             else
1002:D:/Work/DeviceTester/amazon-freertos/lib/pkcs11/mbedtls\aws_pkcs11_mbedtls.c ****             {
1003:D:/Work/DeviceTester/amazon-freertos/lib/pkcs11/mbedtls\aws_pkcs11_mbedtls.c ****                 xResult = CKR_ATTRIBUTE_VALUE_INVALID;
1004:D:/Work/DeviceTester/amazon-freertos/lib/pkcs11/mbedtls\aws_pkcs11_mbedtls.c ****             }
1005:D:/Work/DeviceTester/amazon-freertos/lib/pkcs11/mbedtls\aws_pkcs11_mbedtls.c ****         }
1006:D:/Work/DeviceTester/amazon-freertos/lib/pkcs11/mbedtls\aws_pkcs11_mbedtls.c ****         else
1007:D:/Work/DeviceTester/amazon-freertos/lib/pkcs11/mbedtls\aws_pkcs11_mbedtls.c ****         {
1008:D:/Work/DeviceTester/amazon-freertos/lib/pkcs11/mbedtls\aws_pkcs11_mbedtls.c ****             PKCS11_PRINT( ( "Finding objects is only supported by LABEL.\r\n" ) );
1009:D:/Work/DeviceTester/amazon-freertos/lib/pkcs11/mbedtls\aws_pkcs11_mbedtls.c ****             xResult = CKR_ATTRIBUTE_TYPE_INVALID;
1010:D:/Work/DeviceTester/amazon-freertos/lib/pkcs11/mbedtls\aws_pkcs11_mbedtls.c ****         }
1011:D:/Work/DeviceTester/amazon-freertos/lib/pkcs11/mbedtls\aws_pkcs11_mbedtls.c ****     }
1012:D:/Work/DeviceTester/amazon-freertos/lib/pkcs11/mbedtls\aws_pkcs11_mbedtls.c **** 
1013:D:/Work/DeviceTester/amazon-freertos/lib/pkcs11/mbedtls\aws_pkcs11_mbedtls.c ****     return xResult;
1014:D:/Work/DeviceTester/amazon-freertos/lib/pkcs11/mbedtls\aws_pkcs11_mbedtls.c **** }
1015:D:/Work/DeviceTester/amazon-freertos/lib/pkcs11/mbedtls\aws_pkcs11_mbedtls.c **** 
1016:D:/Work/DeviceTester/amazon-freertos/lib/pkcs11/mbedtls\aws_pkcs11_mbedtls.c **** /**
1017:D:/Work/DeviceTester/amazon-freertos/lib/pkcs11/mbedtls\aws_pkcs11_mbedtls.c ****  * @brief Query the objects of the requested type.
1018:D:/Work/DeviceTester/amazon-freertos/lib/pkcs11/mbedtls\aws_pkcs11_mbedtls.c ****  */
1019:D:/Work/DeviceTester/amazon-freertos/lib/pkcs11/mbedtls\aws_pkcs11_mbedtls.c **** CK_DEFINE_FUNCTION( CK_RV, C_FindObjects )( CK_SESSION_HANDLE xSession,
1020:D:/Work/DeviceTester/amazon-freertos/lib/pkcs11/mbedtls\aws_pkcs11_mbedtls.c ****                                             CK_OBJECT_HANDLE_PTR pxObject,
1021:D:/Work/DeviceTester/amazon-freertos/lib/pkcs11/mbedtls\aws_pkcs11_mbedtls.c ****                                             CK_ULONG ulMaxObjectCount,
1022:D:/Work/DeviceTester/amazon-freertos/lib/pkcs11/mbedtls\aws_pkcs11_mbedtls.c ****                                             CK_ULONG_PTR pulObjectCount )
1023:D:/Work/DeviceTester/amazon-freertos/lib/pkcs11/mbedtls\aws_pkcs11_mbedtls.c **** {   /*lint !e9072 It's OK to have different parameter name. */
1024:D:/Work/DeviceTester/amazon-freertos/lib/pkcs11/mbedtls\aws_pkcs11_mbedtls.c ****     CK_RV xResult = CKR_OK;
1025:D:/Work/DeviceTester/amazon-freertos/lib/pkcs11/mbedtls\aws_pkcs11_mbedtls.c ****     BaseType_t xDone = pdFALSE;
1026:D:/Work/DeviceTester/amazon-freertos/lib/pkcs11/mbedtls\aws_pkcs11_mbedtls.c ****     P11SessionPtr_t pxSession = prvSessionPointerFromHandle( xSession );
1027:D:/Work/DeviceTester/amazon-freertos/lib/pkcs11/mbedtls\aws_pkcs11_mbedtls.c **** 
1028:D:/Work/DeviceTester/amazon-freertos/lib/pkcs11/mbedtls\aws_pkcs11_mbedtls.c ****     /*
1029:D:/Work/DeviceTester/amazon-freertos/lib/pkcs11/mbedtls\aws_pkcs11_mbedtls.c ****      * Check parameters.
1030:D:/Work/DeviceTester/amazon-freertos/lib/pkcs11/mbedtls\aws_pkcs11_mbedtls.c ****      */
1031:D:/Work/DeviceTester/amazon-freertos/lib/pkcs11/mbedtls\aws_pkcs11_mbedtls.c ****     if( ( NULL == pxObject ) ||
1032:D:/Work/DeviceTester/amazon-freertos/lib/pkcs11/mbedtls\aws_pkcs11_mbedtls.c ****         ( NULL == pulObjectCount ) )
1033:D:/Work/DeviceTester/amazon-freertos/lib/pkcs11/mbedtls\aws_pkcs11_mbedtls.c ****     {
1034:D:/Work/DeviceTester/amazon-freertos/lib/pkcs11/mbedtls\aws_pkcs11_mbedtls.c ****         xResult = CKR_ARGUMENTS_BAD;
1035:D:/Work/DeviceTester/amazon-freertos/lib/pkcs11/mbedtls\aws_pkcs11_mbedtls.c ****         xDone = pdTRUE;
1036:D:/Work/DeviceTester/amazon-freertos/lib/pkcs11/mbedtls\aws_pkcs11_mbedtls.c ****     }
1037:D:/Work/DeviceTester/amazon-freertos/lib/pkcs11/mbedtls\aws_pkcs11_mbedtls.c **** 
1038:D:/Work/DeviceTester/amazon-freertos/lib/pkcs11/mbedtls\aws_pkcs11_mbedtls.c ****     if( ( pdFALSE == xDone ) &&
1039:D:/Work/DeviceTester/amazon-freertos/lib/pkcs11/mbedtls\aws_pkcs11_mbedtls.c ****         ( ( CK_BBOOL ) CK_FALSE == pxSession->xFindObjectInit ) )
1040:D:/Work/DeviceTester/amazon-freertos/lib/pkcs11/mbedtls\aws_pkcs11_mbedtls.c ****     {
1041:D:/Work/DeviceTester/amazon-freertos/lib/pkcs11/mbedtls\aws_pkcs11_mbedtls.c ****         xResult = CKR_OPERATION_NOT_INITIALIZED;
1042:D:/Work/DeviceTester/amazon-freertos/lib/pkcs11/mbedtls\aws_pkcs11_mbedtls.c ****         xDone = pdTRUE;
1043:D:/Work/DeviceTester/amazon-freertos/lib/pkcs11/mbedtls\aws_pkcs11_mbedtls.c ****     }
1044:D:/Work/DeviceTester/amazon-freertos/lib/pkcs11/mbedtls\aws_pkcs11_mbedtls.c **** 
1045:D:/Work/DeviceTester/amazon-freertos/lib/pkcs11/mbedtls\aws_pkcs11_mbedtls.c ****     if( ( pdFALSE == xDone ) && ( 0u == ulMaxObjectCount ) )
1046:D:/Work/DeviceTester/amazon-freertos/lib/pkcs11/mbedtls\aws_pkcs11_mbedtls.c ****     {
1047:D:/Work/DeviceTester/amazon-freertos/lib/pkcs11/mbedtls\aws_pkcs11_mbedtls.c ****         xResult = CKR_ARGUMENTS_BAD;
1048:D:/Work/DeviceTester/amazon-freertos/lib/pkcs11/mbedtls\aws_pkcs11_mbedtls.c ****         xDone = pdTRUE;
1049:D:/Work/DeviceTester/amazon-freertos/lib/pkcs11/mbedtls\aws_pkcs11_mbedtls.c ****     }
1050:D:/Work/DeviceTester/amazon-freertos/lib/pkcs11/mbedtls\aws_pkcs11_mbedtls.c **** 
1051:D:/Work/DeviceTester/amazon-freertos/lib/pkcs11/mbedtls\aws_pkcs11_mbedtls.c ****     if( ( pdFALSE == xDone ) && ( ( CK_BBOOL ) CK_TRUE == pxSession->xFindObjectComplete ) )
1052:D:/Work/DeviceTester/amazon-freertos/lib/pkcs11/mbedtls\aws_pkcs11_mbedtls.c ****     {
1053:D:/Work/DeviceTester/amazon-freertos/lib/pkcs11/mbedtls\aws_pkcs11_mbedtls.c ****         *pulObjectCount = 0;
1054:D:/Work/DeviceTester/amazon-freertos/lib/pkcs11/mbedtls\aws_pkcs11_mbedtls.c ****         xResult = CKR_OK;
1055:D:/Work/DeviceTester/amazon-freertos/lib/pkcs11/mbedtls\aws_pkcs11_mbedtls.c ****         xDone = pdTRUE;
1056:D:/Work/DeviceTester/amazon-freertos/lib/pkcs11/mbedtls\aws_pkcs11_mbedtls.c ****     }
1057:D:/Work/DeviceTester/amazon-freertos/lib/pkcs11/mbedtls\aws_pkcs11_mbedtls.c **** 
1058:D:/Work/DeviceTester/amazon-freertos/lib/pkcs11/mbedtls\aws_pkcs11_mbedtls.c ****     if( ( pdFALSE == xDone ) )
1059:D:/Work/DeviceTester/amazon-freertos/lib/pkcs11/mbedtls\aws_pkcs11_mbedtls.c ****     {
1060:D:/Work/DeviceTester/amazon-freertos/lib/pkcs11/mbedtls\aws_pkcs11_mbedtls.c ****         *pxObject = PKCS11_PAL_FindObject( pxSession->xFindObjectLabel, pxSession->xFindObjectLabel
1061:D:/Work/DeviceTester/amazon-freertos/lib/pkcs11/mbedtls\aws_pkcs11_mbedtls.c **** 
1062:D:/Work/DeviceTester/amazon-freertos/lib/pkcs11/mbedtls\aws_pkcs11_mbedtls.c ****         if( *pxObject != 0 ) /* 0 is always an invalid handle. */
1063:D:/Work/DeviceTester/amazon-freertos/lib/pkcs11/mbedtls\aws_pkcs11_mbedtls.c ****         {
1064:D:/Work/DeviceTester/amazon-freertos/lib/pkcs11/mbedtls\aws_pkcs11_mbedtls.c ****             *pulObjectCount = 1;
1065:D:/Work/DeviceTester/amazon-freertos/lib/pkcs11/mbedtls\aws_pkcs11_mbedtls.c ****             xResult = CKR_OK;
1066:D:/Work/DeviceTester/amazon-freertos/lib/pkcs11/mbedtls\aws_pkcs11_mbedtls.c ****         }
1067:D:/Work/DeviceTester/amazon-freertos/lib/pkcs11/mbedtls\aws_pkcs11_mbedtls.c ****         else
1068:D:/Work/DeviceTester/amazon-freertos/lib/pkcs11/mbedtls\aws_pkcs11_mbedtls.c ****         {
1069:D:/Work/DeviceTester/amazon-freertos/lib/pkcs11/mbedtls\aws_pkcs11_mbedtls.c ****             PKCS11_PRINT( ( "ERROR: Object with label %s not found. \r\n", ( char * ) pxSession->xF
1070:D:/Work/DeviceTester/amazon-freertos/lib/pkcs11/mbedtls\aws_pkcs11_mbedtls.c ****             xResult = CKR_FUNCTION_FAILED;
1071:D:/Work/DeviceTester/amazon-freertos/lib/pkcs11/mbedtls\aws_pkcs11_mbedtls.c ****         }
1072:D:/Work/DeviceTester/amazon-freertos/lib/pkcs11/mbedtls\aws_pkcs11_mbedtls.c ****     }
1073:D:/Work/DeviceTester/amazon-freertos/lib/pkcs11/mbedtls\aws_pkcs11_mbedtls.c **** 
1074:D:/Work/DeviceTester/amazon-freertos/lib/pkcs11/mbedtls\aws_pkcs11_mbedtls.c ****     return xResult;
1075:D:/Work/DeviceTester/amazon-freertos/lib/pkcs11/mbedtls\aws_pkcs11_mbedtls.c **** }
1076:D:/Work/DeviceTester/amazon-freertos/lib/pkcs11/mbedtls\aws_pkcs11_mbedtls.c **** 
1077:D:/Work/DeviceTester/amazon-freertos/lib/pkcs11/mbedtls\aws_pkcs11_mbedtls.c **** /**
1078:D:/Work/DeviceTester/amazon-freertos/lib/pkcs11/mbedtls\aws_pkcs11_mbedtls.c ****  * @brief Terminate object enumeration.
1079:D:/Work/DeviceTester/amazon-freertos/lib/pkcs11/mbedtls\aws_pkcs11_mbedtls.c ****  */
1080:D:/Work/DeviceTester/amazon-freertos/lib/pkcs11/mbedtls\aws_pkcs11_mbedtls.c **** CK_DEFINE_FUNCTION( CK_RV, C_FindObjectsFinal )( CK_SESSION_HANDLE xSession )
1081:D:/Work/DeviceTester/amazon-freertos/lib/pkcs11/mbedtls\aws_pkcs11_mbedtls.c **** {   /*lint !e9072 It's OK to have different parameter name. */
 340              		.loc 1 1081 0
 341              		.cfi_startproc
 342              		@ args = 0, pretend = 0, frame = 0
 343              		@ frame_needed = 0, uses_anonymous_args = 0
 344              	.LVL39:
1082:D:/Work/DeviceTester/amazon-freertos/lib/pkcs11/mbedtls\aws_pkcs11_mbedtls.c ****     CK_RV xResult = CKR_OK;
1083:D:/Work/DeviceTester/amazon-freertos/lib/pkcs11/mbedtls\aws_pkcs11_mbedtls.c ****     P11SessionPtr_t pxSession = prvSessionPointerFromHandle( xSession );
1084:D:/Work/DeviceTester/amazon-freertos/lib/pkcs11/mbedtls\aws_pkcs11_mbedtls.c **** 
1085:D:/Work/DeviceTester/amazon-freertos/lib/pkcs11/mbedtls\aws_pkcs11_mbedtls.c ****     /*
1086:D:/Work/DeviceTester/amazon-freertos/lib/pkcs11/mbedtls\aws_pkcs11_mbedtls.c ****      * Check parameters.
1087:D:/Work/DeviceTester/amazon-freertos/lib/pkcs11/mbedtls\aws_pkcs11_mbedtls.c ****      */
1088:D:/Work/DeviceTester/amazon-freertos/lib/pkcs11/mbedtls\aws_pkcs11_mbedtls.c **** 
1089:D:/Work/DeviceTester/amazon-freertos/lib/pkcs11/mbedtls\aws_pkcs11_mbedtls.c ****     if( ( CK_BBOOL ) CK_FALSE == pxSession->xFindObjectInit )
 345              		.loc 1 1089 0
 346 0000 0C30D0E5 		ldrb	r3, [r0, #12]	@ zero_extendqisi2
 347 0004 000053E3 		cmp	r3, #0
 348 0008 0900000A 		beq	.L44
1081:D:/Work/DeviceTester/amazon-freertos/lib/pkcs11/mbedtls\aws_pkcs11_mbedtls.c ****     CK_RV xResult = CKR_OK;
 349              		.loc 1 1081 0
 350 000c 70402DE9 		push	{r4, r5, r6, lr}
 351              		.cfi_def_cfa_offset 16
 352              		.cfi_offset 4, -16
 353              		.cfi_offset 5, -12
 354              		.cfi_offset 6, -8
 355              		.cfi_offset 14, -4
1090:D:/Work/DeviceTester/amazon-freertos/lib/pkcs11/mbedtls\aws_pkcs11_mbedtls.c ****     {
1091:D:/Work/DeviceTester/amazon-freertos/lib/pkcs11/mbedtls\aws_pkcs11_mbedtls.c ****         xResult = CKR_OPERATION_NOT_INITIALIZED;
1092:D:/Work/DeviceTester/amazon-freertos/lib/pkcs11/mbedtls\aws_pkcs11_mbedtls.c ****     }
1093:D:/Work/DeviceTester/amazon-freertos/lib/pkcs11/mbedtls\aws_pkcs11_mbedtls.c ****     else
1094:D:/Work/DeviceTester/amazon-freertos/lib/pkcs11/mbedtls\aws_pkcs11_mbedtls.c ****     {
1095:D:/Work/DeviceTester/amazon-freertos/lib/pkcs11/mbedtls\aws_pkcs11_mbedtls.c ****         /*
1096:D:/Work/DeviceTester/amazon-freertos/lib/pkcs11/mbedtls\aws_pkcs11_mbedtls.c ****          * Clean-up find objects state.
1097:D:/Work/DeviceTester/amazon-freertos/lib/pkcs11/mbedtls\aws_pkcs11_mbedtls.c ****          */
1098:D:/Work/DeviceTester/amazon-freertos/lib/pkcs11/mbedtls\aws_pkcs11_mbedtls.c **** 
1099:D:/Work/DeviceTester/amazon-freertos/lib/pkcs11/mbedtls\aws_pkcs11_mbedtls.c ****         pxSession->xFindObjectInit = CK_FALSE;
 356              		.loc 1 1099 0
 357 0010 0040A0E3 		mov	r4, #0
 358 0014 0050A0E1 		mov	r5, r0
 359 0018 0C40C0E5 		strb	r4, [r0, #12]
1100:D:/Work/DeviceTester/amazon-freertos/lib/pkcs11/mbedtls\aws_pkcs11_mbedtls.c ****         pxSession->xFindObjectComplete = CK_FALSE;
 360              		.loc 1 1100 0
 361 001c 0D40C0E5 		strb	r4, [r0, #13]
1101:D:/Work/DeviceTester/amazon-freertos/lib/pkcs11/mbedtls\aws_pkcs11_mbedtls.c ****         vPortFree( pxSession->xFindObjectLabel );
 362              		.loc 1 1101 0
 363 0020 100090E5 		ldr	r0, [r0, #16]
 364              	.LVL40:
 365 0024 FEFFFFEB 		bl	vPortFree
 366              	.LVL41:
1102:D:/Work/DeviceTester/amazon-freertos/lib/pkcs11/mbedtls\aws_pkcs11_mbedtls.c ****         pxSession->xFindObjectLabelLength = 0;
 367              		.loc 1 1102 0
 368 0028 1440C5E5 		strb	r4, [r5, #20]
1082:D:/Work/DeviceTester/amazon-freertos/lib/pkcs11/mbedtls\aws_pkcs11_mbedtls.c ****     P11SessionPtr_t pxSession = prvSessionPointerFromHandle( xSession );
 369              		.loc 1 1082 0
 370 002c 0400A0E1 		mov	r0, r4
 371 0030 7080BDE8 		pop	{r4, r5, r6, pc}
 372              	.LVL42:
 373              	.L44:
 374              		.cfi_def_cfa_offset 0
 375              		.cfi_restore 4
 376              		.cfi_restore 5
 377              		.cfi_restore 6
 378              		.cfi_restore 14
1091:D:/Work/DeviceTester/amazon-freertos/lib/pkcs11/mbedtls\aws_pkcs11_mbedtls.c ****     }
 379              		.loc 1 1091 0
 380 0034 9100A0E3 		mov	r0, #145
 381              	.LVL43:
1103:D:/Work/DeviceTester/amazon-freertos/lib/pkcs11/mbedtls\aws_pkcs11_mbedtls.c ****     }
1104:D:/Work/DeviceTester/amazon-freertos/lib/pkcs11/mbedtls\aws_pkcs11_mbedtls.c **** 
1105:D:/Work/DeviceTester/amazon-freertos/lib/pkcs11/mbedtls\aws_pkcs11_mbedtls.c ****     return xResult;
 382              		.loc 1 1105 0
 383 0038 1EFF2FE1 		bx	lr
 384              		.cfi_endproc
 385              	.LFE20:
 387              		.section	.text.C_CloseSession,"ax",%progbits
 388              		.align	2
 389              		.global	C_CloseSession
 390              		.syntax unified
 391              		.arm
 392              		.fpu neon
 394              	C_CloseSession:
 395              	.LFB14:
 584:D:/Work/DeviceTester/amazon-freertos/lib/pkcs11/mbedtls\aws_pkcs11_mbedtls.c ****     CK_RV xResult = CKR_OK;
 396              		.loc 1 584 0
 397              		.cfi_startproc
 398              		@ args = 0, pretend = 0, frame = 0
 399              		@ frame_needed = 0, uses_anonymous_args = 0
 400              	.LVL44:
 401 0000 10402DE9 		push	{r4, lr}
 402              		.cfi_def_cfa_offset 8
 403              		.cfi_offset 4, -8
 404              		.cfi_offset 14, -4
 588:D:/Work/DeviceTester/amazon-freertos/lib/pkcs11/mbedtls\aws_pkcs11_mbedtls.c ****     {
 405              		.loc 1 588 0
 406 0004 004050E2 		subs	r4, r0, #0
 407 0008 1700000A 		beq	.L55
 594:D:/Work/DeviceTester/amazon-freertos/lib/pkcs11/mbedtls\aws_pkcs11_mbedtls.c ****         {
 408              		.loc 1 594 0
 409 000c 2C3094E5 		ldr	r3, [r4, #44]
 410 0010 000053E3 		cmp	r3, #0
 411 0014 0100000A 		beq	.L51
 596:D:/Work/DeviceTester/amazon-freertos/lib/pkcs11/mbedtls\aws_pkcs11_mbedtls.c ****         }
 412              		.loc 1 596 0
 413 0018 280084E2 		add	r0, r4, #40
 414              	.LVL45:
 415 001c FEFFFFEB 		bl	mbedtls_pk_free
 416              	.LVL46:
 417              	.L51:
 599:D:/Work/DeviceTester/amazon-freertos/lib/pkcs11/mbedtls\aws_pkcs11_mbedtls.c ****         {
 418              		.loc 1 599 0
 419 0020 240094E5 		ldr	r0, [r4, #36]
 420 0024 000050E3 		cmp	r0, #0
 421 0028 0000000A 		beq	.L52
 601:D:/Work/DeviceTester/amazon-freertos/lib/pkcs11/mbedtls\aws_pkcs11_mbedtls.c ****         }
 422              		.loc 1 601 0
 423 002c FEFFFFEB 		bl	vQueueDelete
 424              	.LVL47:
 425              	.L52:
 605:D:/Work/DeviceTester/amazon-freertos/lib/pkcs11/mbedtls\aws_pkcs11_mbedtls.c ****         {
 426              		.loc 1 605 0
 427 0030 203094E5 		ldr	r3, [r4, #32]
 428 0034 000053E3 		cmp	r3, #0
 429 0038 0100000A 		beq	.L53
 607:D:/Work/DeviceTester/amazon-freertos/lib/pkcs11/mbedtls\aws_pkcs11_mbedtls.c ****         }
 430              		.loc 1 607 0
 431 003c 1C0084E2 		add	r0, r4, #28
 432 0040 FEFFFFEB 		bl	mbedtls_pk_free
 433              	.LVL48:
 434              	.L53:
 610:D:/Work/DeviceTester/amazon-freertos/lib/pkcs11/mbedtls\aws_pkcs11_mbedtls.c ****         {
 435              		.loc 1 610 0
 436 0044 180094E5 		ldr	r0, [r4, #24]
 437 0048 000050E3 		cmp	r0, #0
 438 004c 0000000A 		beq	.L54
 612:D:/Work/DeviceTester/amazon-freertos/lib/pkcs11/mbedtls\aws_pkcs11_mbedtls.c ****         }
 439              		.loc 1 612 0
 440 0050 FEFFFFEB 		bl	vQueueDelete
 441              	.LVL49:
 442              	.L54:
 617:D:/Work/DeviceTester/amazon-freertos/lib/pkcs11/mbedtls\aws_pkcs11_mbedtls.c ****         }
 443              		.loc 1 617 0
 444 0054 300084E2 		add	r0, r4, #48
 445 0058 FEFFFFEB 		bl	mbedtls_sha256_free
 446              	.LVL50:
 620:D:/Work/DeviceTester/amazon-freertos/lib/pkcs11/mbedtls\aws_pkcs11_mbedtls.c ****     }
 447              		.loc 1 620 0
 448 005c 0400A0E1 		mov	r0, r4
 449 0060 FEFFFFEB 		bl	vPortFree
 450              	.LVL51:
 585:D:/Work/DeviceTester/amazon-freertos/lib/pkcs11/mbedtls\aws_pkcs11_mbedtls.c ****     P11SessionPtr_t pxSession = prvSessionPointerFromHandle( xSession );
 451              		.loc 1 585 0
 452 0064 0000A0E3 		mov	r0, #0
 453 0068 1080BDE8 		pop	{r4, pc}
 454              	.LVL52:
 455              	.L55:
 624:D:/Work/DeviceTester/amazon-freertos/lib/pkcs11/mbedtls\aws_pkcs11_mbedtls.c ****     }
 456              		.loc 1 624 0
 457 006c B300A0E3 		mov	r0, #179
 458              	.LVL53:
 628:D:/Work/DeviceTester/amazon-freertos/lib/pkcs11/mbedtls\aws_pkcs11_mbedtls.c **** 
 459              		.loc 1 628 0
 460 0070 1080BDE8 		pop	{r4, pc}
 461              		.cfi_endproc
 462              	.LFE14:
 464              		.section	.text.C_CreateObject,"ax",%progbits
 465              		.align	2
 466              		.global	C_CreateObject
 467              		.syntax unified
 468              		.arm
 469              		.fpu neon
 471              	C_CreateObject:
 472              	.LFB15:
 638:D:/Work/DeviceTester/amazon-freertos/lib/pkcs11/mbedtls\aws_pkcs11_mbedtls.c ****     CK_RV xResult = CKR_OK;
 473              		.loc 1 638 0
 474              		.cfi_startproc
 475              		@ args = 0, pretend = 0, frame = 0
 476              		@ frame_needed = 0, uses_anonymous_args = 0
 477              	.LVL54:
 653:D:/Work/DeviceTester/amazon-freertos/lib/pkcs11/mbedtls\aws_pkcs11_mbedtls.c ****         ( NULL == pxObject ) )
 478              		.loc 1 653 0
 479 0000 000053E3 		cmp	r3, #0
 480 0004 02005213 		cmpne	r2, #2
 638:D:/Work/DeviceTester/amazon-freertos/lib/pkcs11/mbedtls\aws_pkcs11_mbedtls.c ****     CK_RV xResult = CKR_OK;
 481              		.loc 1 638 0
 482 0008 F7402DE9 		push	{r0, r1, r2, r4, r5, r6, r7, lr}
 483              		.cfi_def_cfa_offset 32
 484              		.cfi_offset 4, -20
 485              		.cfi_offset 5, -16
 486              		.cfi_offset 6, -12
 487              		.cfi_offset 7, -8
 488              		.cfi_offset 14, -4
 653:D:/Work/DeviceTester/amazon-freertos/lib/pkcs11/mbedtls\aws_pkcs11_mbedtls.c ****         ( NULL == pxObject ) )
 489              		.loc 1 653 0
 490 000c 0100A093 		movls	r0, #1
 491              	.LVL55:
 492 0010 0000A083 		movhi	r0, #0
 493 0014 000051E3 		cmp	r1, #0
 494 0018 01008003 		orreq	r0, r0, #1
 495 001c 000050E3 		cmp	r0, #0
 496 0020 2C00000A 		beq	.L70
 497              	.LVL56:
 498              	.L87:
 803:D:/Work/DeviceTester/amazon-freertos/lib/pkcs11/mbedtls\aws_pkcs11_mbedtls.c ****         }
 499              		.loc 1 803 0
 500 0024 0700A0E3 		mov	r0, #7
 501              	.LVL57:
 807:D:/Work/DeviceTester/amazon-freertos/lib/pkcs11/mbedtls\aws_pkcs11_mbedtls.c **** }
 502              		.loc 1 807 0
 503 0028 0C0000EA 		b	.L69
 504              	.LVL58:
 505              	.L74:
 683:D:/Work/DeviceTester/amazon-freertos/lib/pkcs11/mbedtls\aws_pkcs11_mbedtls.c ****                 {
 506              		.loc 1 683 0
 507 002c 030052E3 		cmp	r2, #3
 508 0030 FBFFFF1A 		bne	.L87
 690:D:/Work/DeviceTester/amazon-freertos/lib/pkcs11/mbedtls\aws_pkcs11_mbedtls.c ****                     ( CKA_LABEL != pxCertificateTemplate->xLabel.type ) )
 509              		.loc 1 690 0
 510 0034 183094E5 		ldr	r3, [r4, #24]
 511 0038 110053E3 		cmp	r3, #17
 512 003c F8FFFF1A 		bne	.L87
 690:D:/Work/DeviceTester/amazon-freertos/lib/pkcs11/mbedtls\aws_pkcs11_mbedtls.c ****                     ( CKA_LABEL != pxCertificateTemplate->xLabel.type ) )
 513              		.loc 1 690 0 is_stmt 0 discriminator 1
 514 0040 0C3094E5 		ldr	r3, [r4, #12]
 515 0044 030053E3 		cmp	r3, #3
 516 0048 F5FFFF1A 		bne	.L87
 698:D:/Work/DeviceTester/amazon-freertos/lib/pkcs11/mbedtls\aws_pkcs11_mbedtls.c **** 
 517              		.loc 1 698 0 is_stmt 1
 518 004c 4D0FA0E3 		mov	r0, #308
 519 0050 FEFFFFEB 		bl	pvPortMalloc
 520              	.LVL59:
 700:D:/Work/DeviceTester/amazon-freertos/lib/pkcs11/mbedtls\aws_pkcs11_mbedtls.c ****                 {
 521              		.loc 1 700 0
 522 0054 006050E2 		subs	r6, r0, #0
 523 0058 0200001A 		bne	.L75
 524              	.LVL60:
 525              	.L78:
 711:D:/Work/DeviceTester/amazon-freertos/lib/pkcs11/mbedtls\aws_pkcs11_mbedtls.c ****                     break;
 526              		.loc 1 711 0
 527 005c 0200A0E3 		mov	r0, #2
 528              	.LVL61:
 529              	.L69:
 808:D:/Work/DeviceTester/amazon-freertos/lib/pkcs11/mbedtls\aws_pkcs11_mbedtls.c **** 
 530              		.loc 1 808 0
 531 0060 0CD08DE2 		add	sp, sp, #12
 532              		.cfi_remember_state
 533              		.cfi_def_cfa_offset 20
 534              		@ sp needed
 535 0064 F080BDE8 		pop	{r4, r5, r6, r7, pc}
 536              	.LVL62:
 537              	.L75:
 538              		.cfi_restore_state
 702:D:/Work/DeviceTester/amazon-freertos/lib/pkcs11/mbedtls\aws_pkcs11_mbedtls.c ****                     lMbedTLSParseResult = mbedtls_x509_crt_parse( ( mbedtls_x509_crt * ) pvContext,
 539              		.loc 1 702 0
 540 0068 FEFFFFEB 		bl	mbedtls_x509_crt_init
 541              	.LVL63:
 703:D:/Work/DeviceTester/amazon-freertos/lib/pkcs11/mbedtls\aws_pkcs11_mbedtls.c ****                                                                   pxCertificateTemplate->xValue.pVa
 542              		.loc 1 703 0
 543 006c 202094E5 		ldr	r2, [r4, #32]
 544 0070 0600A0E1 		mov	r0, r6
 545 0074 1C1094E5 		ldr	r1, [r4, #28]
 546 0078 FEFFFFEB 		bl	mbedtls_x509_crt_parse
 547              	.LVL64:
 548 007c 0070A0E1 		mov	r7, r0
 549              	.LVL65:
 706:D:/Work/DeviceTester/amazon-freertos/lib/pkcs11/mbedtls\aws_pkcs11_mbedtls.c ****                     vPortFree( pvContext );
 550              		.loc 1 706 0
 551 0080 0600A0E1 		mov	r0, r6
 552              	.LVL66:
 553 0084 FEFFFFEB 		bl	mbedtls_x509_crt_free
 554              	.LVL67:
 707:D:/Work/DeviceTester/amazon-freertos/lib/pkcs11/mbedtls\aws_pkcs11_mbedtls.c ****                 }
 555              		.loc 1 707 0
 556 0088 0600A0E1 		mov	r0, r6
 557 008c FEFFFFEB 		bl	vPortFree
 558              	.LVL68:
 715:D:/Work/DeviceTester/amazon-freertos/lib/pkcs11/mbedtls\aws_pkcs11_mbedtls.c ****                 {
 559              		.loc 1 715 0
 560 0090 000057E3 		cmp	r7, #0
 561 0094 E2FFFF1A 		bne	.L87
 722:D:/Work/DeviceTester/amazon-freertos/lib/pkcs11/mbedtls\aws_pkcs11_mbedtls.c ****                                                               pxCertificateTemplate->xValue.pValue,
 562              		.loc 1 722 0
 563 0098 202094E5 		ldr	r2, [r4, #32]
 564 009c 0C0084E2 		add	r0, r4, #12
 565 00a0 1C1094E5 		ldr	r1, [r4, #28]
 566              	.LVL69:
 567              	.L102:
 568 00a4 FEFFFFEB 		bl	PKCS11_PAL_SaveObject
 569              	.LVL70:
 570 00a8 000050E3 		cmp	r0, #0
 571 00ac 000085E5 		str	r0, [r5]
 726:D:/Work/DeviceTester/amazon-freertos/lib/pkcs11/mbedtls\aws_pkcs11_mbedtls.c ****                     break;
 572              		.loc 1 726 0
 573 00b0 0000A013 		movne	r0, #0
 574              	.LVL71:
 575 00b4 3000A003 		moveq	r0, #48
 727:D:/Work/DeviceTester/amazon-freertos/lib/pkcs11/mbedtls\aws_pkcs11_mbedtls.c ****                 }
 576              		.loc 1 727 0
 577 00b8 E8FFFFEA 		b	.L69
 578              	.LVL72:
 579              	.L79:
 771:D:/Work/DeviceTester/amazon-freertos/lib/pkcs11/mbedtls\aws_pkcs11_mbedtls.c ****                                                                            pxKeyTemplate->xValue.pV
 580              		.loc 1 771 0
 581 00bc 2C2094E5 		ldr	r2, [r4, #44]
 582 00c0 0600A0E1 		mov	r0, r6
 583 00c4 281094E5 		ldr	r1, [r4, #40]
 584 00c8 FEFFFFEB 		bl	mbedtls_pk_parse_public_key
 585              	.LVL73:
 586 00cc 2A0000EA 		b	.L103
 587              	.LVL74:
 588              	.L85:
 750:D:/Work/DeviceTester/amazon-freertos/lib/pkcs11/mbedtls\aws_pkcs11_mbedtls.c ****                     break;
 589              		.loc 1 750 0
 590 00d0 1200A0E3 		mov	r0, #18
 591 00d4 E1FFFFEA 		b	.L69
 592              	.LVL75:
 593              	.L70:
 663:D:/Work/DeviceTester/amazon-freertos/lib/pkcs11/mbedtls\aws_pkcs11_mbedtls.c ****             ( pxObjectClassAttribute->ulValueLen != sizeof( CK_OBJECT_CLASS ) ) )
 594              		.loc 1 663 0
 595 00d8 000091E5 		ldr	r0, [r1]
 596 00dc 000050E3 		cmp	r0, #0
 597 00e0 CFFFFF1A 		bne	.L87
 663:D:/Work/DeviceTester/amazon-freertos/lib/pkcs11/mbedtls\aws_pkcs11_mbedtls.c ****             ( pxObjectClassAttribute->ulValueLen != sizeof( CK_OBJECT_CLASS ) ) )
 598              		.loc 1 663 0 is_stmt 0 discriminator 1
 599 00e4 080091E5 		ldr	r0, [r1, #8]
 600 00e8 040050E3 		cmp	r0, #4
 601 00ec CCFFFF1A 		bne	.L87
 602 00f0 0350A0E1 		mov	r5, r3
 676:D:/Work/DeviceTester/amazon-freertos/lib/pkcs11/mbedtls\aws_pkcs11_mbedtls.c ****         {
 603              		.loc 1 676 0 is_stmt 1
 604 00f4 043091E5 		ldr	r3, [r1, #4]
 605              	.LVL76:
 606 00f8 0140A0E1 		mov	r4, r1
 607 00fc 003093E5 		ldr	r3, [r3]
 608 0100 010053E3 		cmp	r3, #1
 609 0104 C8FFFF0A 		beq	.L74
 610 0108 C5FFFF3A 		bcc	.L87
 611 010c 030053E3 		cmp	r3, #3
 612 0110 C3FFFF8A 		bhi	.L87
 613              	.LVL77:
 739:D:/Work/DeviceTester/amazon-freertos/lib/pkcs11/mbedtls\aws_pkcs11_mbedtls.c ****                 {
 614              		.loc 1 739 0
 615 0114 040052E3 		cmp	r2, #4
 616 0118 C1FFFF1A 		bne	.L87
 746:D:/Work/DeviceTester/amazon-freertos/lib/pkcs11/mbedtls\aws_pkcs11_mbedtls.c ****                     ( CKA_KEY_TYPE != pxKeyTemplate->xKeyType.type ) ||
 617              		.loc 1 746 0
 618 011c 243094E5 		ldr	r3, [r4, #36]
 619 0120 110053E3 		cmp	r3, #17
 620 0124 E9FFFF1A 		bne	.L85
 746:D:/Work/DeviceTester/amazon-freertos/lib/pkcs11/mbedtls\aws_pkcs11_mbedtls.c ****                     ( CKA_KEY_TYPE != pxKeyTemplate->xKeyType.type ) ||
 621              		.loc 1 746 0 is_stmt 0 discriminator 1
 622 0128 0C3094E5 		ldr	r3, [r4, #12]
 623 012c 010C53E3 		cmp	r3, #256
 624 0130 E6FFFF1A 		bne	.L85
 747:D:/Work/DeviceTester/amazon-freertos/lib/pkcs11/mbedtls\aws_pkcs11_mbedtls.c ****                     ( CKA_LABEL != pxKeyTemplate->xLabel.type ) )
 625              		.loc 1 747 0 is_stmt 1
 626 0134 183094E5 		ldr	r3, [r4, #24]
 627 0138 030053E3 		cmp	r3, #3
 628 013c E3FFFF1A 		bne	.L85
 755:D:/Work/DeviceTester/amazon-freertos/lib/pkcs11/mbedtls\aws_pkcs11_mbedtls.c **** 
 629              		.loc 1 755 0
 630 0140 0800A0E3 		mov	r0, #8
 631 0144 FEFFFFEB 		bl	pvPortMalloc
 632              	.LVL78:
 757:D:/Work/DeviceTester/amazon-freertos/lib/pkcs11/mbedtls\aws_pkcs11_mbedtls.c ****                 {
 633              		.loc 1 757 0
 634 0148 006050E2 		subs	r6, r0, #0
 635 014c C2FFFF0A 		beq	.L78
 759:D:/Work/DeviceTester/amazon-freertos/lib/pkcs11/mbedtls\aws_pkcs11_mbedtls.c **** 
 636              		.loc 1 759 0
 637 0150 FEFFFFEB 		bl	mbedtls_pk_init
 638              	.LVL79:
 761:D:/Work/DeviceTester/amazon-freertos/lib/pkcs11/mbedtls\aws_pkcs11_mbedtls.c ****                     {
 639              		.loc 1 761 0
 640 0154 043094E5 		ldr	r3, [r4, #4]
 641 0158 003093E5 		ldr	r3, [r3]
 642 015c 030053E3 		cmp	r3, #3
 643 0160 D5FFFF1A 		bne	.L79
 763:D:/Work/DeviceTester/amazon-freertos/lib/pkcs11/mbedtls\aws_pkcs11_mbedtls.c ****                                                                     pxKeyTemplate->xValue.pValue,
 644              		.loc 1 763 0
 645 0164 0030A0E3 		mov	r3, #0
 646 0168 0600A0E1 		mov	r0, r6
 647 016c 00308DE5 		str	r3, [sp]
 648 0170 2C2094E5 		ldr	r2, [r4, #44]
 649 0174 281094E5 		ldr	r1, [r4, #40]
 650 0178 FEFFFFEB 		bl	mbedtls_pk_parse_key
 651              	.LVL80:
 652              	.L103:
 771:D:/Work/DeviceTester/amazon-freertos/lib/pkcs11/mbedtls\aws_pkcs11_mbedtls.c ****                                                                            pxKeyTemplate->xValue.pV
 653              		.loc 1 771 0
 654 017c 0070A0E1 		mov	r7, r0
 655              	.LVL81:
 776:D:/Work/DeviceTester/amazon-freertos/lib/pkcs11/mbedtls\aws_pkcs11_mbedtls.c ****                     vPortFree( pvContext );
 656              		.loc 1 776 0
 657 0180 0600A0E1 		mov	r0, r6
 658              	.LVL82:
 659 0184 FEFFFFEB 		bl	mbedtls_pk_free
 660              	.LVL83:
 777:D:/Work/DeviceTester/amazon-freertos/lib/pkcs11/mbedtls\aws_pkcs11_mbedtls.c ****                 }
 661              		.loc 1 777 0
 662 0188 0600A0E1 		mov	r0, r6
 663 018c FEFFFFEB 		bl	vPortFree
 664              	.LVL84:
 785:D:/Work/DeviceTester/amazon-freertos/lib/pkcs11/mbedtls\aws_pkcs11_mbedtls.c ****                 {
 665              		.loc 1 785 0
 666 0190 000057E3 		cmp	r7, #0
 792:D:/Work/DeviceTester/amazon-freertos/lib/pkcs11/mbedtls\aws_pkcs11_mbedtls.c ****                                                               pxKeyTemplate->xValue.pValue,
 667              		.loc 1 792 0
 668 0194 2C209405 		ldreq	r2, [r4, #44]
 669 0198 18008402 		addeq	r0, r4, #24
 670 019c 28109405 		ldreq	r1, [r4, #40]
 785:D:/Work/DeviceTester/amazon-freertos/lib/pkcs11/mbedtls\aws_pkcs11_mbedtls.c ****                 {
 671              		.loc 1 785 0
 672 01a0 BFFFFF0A 		beq	.L102
 787:D:/Work/DeviceTester/amazon-freertos/lib/pkcs11/mbedtls\aws_pkcs11_mbedtls.c ****                     break;
 673              		.loc 1 787 0
 674 01a4 1300A0E3 		mov	r0, #19
 675 01a8 ACFFFFEA 		b	.L69
 676              		.cfi_endproc
 677              	.LFE15:
 679              		.section	.text.C_FindObjectsInit,"ax",%progbits
 680              		.align	2
 681              		.global	C_FindObjectsInit
 682              		.syntax unified
 683              		.arm
 684              		.fpu neon
 686              	C_FindObjectsInit:
 687              	.LFB18:
 959:D:/Work/DeviceTester/amazon-freertos/lib/pkcs11/mbedtls\aws_pkcs11_mbedtls.c ****     P11SessionPtr_t pxSession = prvSessionPointerFromHandle( xSession );
 688              		.loc 1 959 0
 689              		.cfi_startproc
 690              		@ args = 0, pretend = 0, frame = 0
 691              		@ frame_needed = 0, uses_anonymous_args = 0
 692              	.LVL85:
 693 0000 70402DE9 		push	{r4, r5, r6, lr}
 694              		.cfi_def_cfa_offset 16
 695              		.cfi_offset 4, -16
 696              		.cfi_offset 5, -12
 697              		.cfi_offset 6, -8
 698              		.cfi_offset 14, -4
 967:D:/Work/DeviceTester/amazon-freertos/lib/pkcs11/mbedtls\aws_pkcs11_mbedtls.c ****     {
 699              		.loc 1 967 0
 700 0004 005051E2 		subs	r5, r1, #0
 701 0008 0400000A 		beq	.L108
 971:D:/Work/DeviceTester/amazon-freertos/lib/pkcs11/mbedtls\aws_pkcs11_mbedtls.c ****     {
 702              		.loc 1 971 0
 703 000c 010052E3 		cmp	r2, #1
 704 0010 0060A0E1 		mov	r6, r0
 705 0014 0300000A 		beq	.L106
 706              	.LVL86:
 974:D:/Work/DeviceTester/amazon-freertos/lib/pkcs11/mbedtls\aws_pkcs11_mbedtls.c ****     }
 707              		.loc 1 974 0
 708 0018 74009FE5 		ldr	r0, .L112
 709              	.LVL87:
 710 001c FEFFFFEB 		bl	vLoggingPrintf
 711              	.LVL88:
 712              	.L108:
 969:D:/Work/DeviceTester/amazon-freertos/lib/pkcs11/mbedtls\aws_pkcs11_mbedtls.c ****     }
 713              		.loc 1 969 0
 714 0020 0700A0E3 		mov	r0, #7
 715 0024 7080BDE8 		pop	{r4, r5, r6, pc}
 716              	.LVL89:
 717              	.L106:
 979:D:/Work/DeviceTester/amazon-freertos/lib/pkcs11/mbedtls\aws_pkcs11_mbedtls.c ****         {
 718              		.loc 1 979 0
 719 0028 003095E5 		ldr	r3, [r5]
 720 002c 030053E3 		cmp	r3, #3
 721 0030 0F00001A 		bne	.L107
 982:D:/Work/DeviceTester/amazon-freertos/lib/pkcs11/mbedtls\aws_pkcs11_mbedtls.c **** 
 722              		.loc 1 982 0
 723 0034 0040A0E3 		mov	r4, #0
 981:D:/Work/DeviceTester/amazon-freertos/lib/pkcs11/mbedtls\aws_pkcs11_mbedtls.c ****             pxSession->xFindObjectComplete = CK_FALSE;
 724              		.loc 1 981 0
 725 0038 0C20C0E5 		strb	r2, [r0, #12]
 982:D:/Work/DeviceTester/amazon-freertos/lib/pkcs11/mbedtls\aws_pkcs11_mbedtls.c **** 
 726              		.loc 1 982 0
 727 003c 0D40C0E5 		strb	r4, [r0, #13]
 985:D:/Work/DeviceTester/amazon-freertos/lib/pkcs11/mbedtls\aws_pkcs11_mbedtls.c ****             {
 728              		.loc 1 985 0
 729 0040 080095E5 		ldr	r0, [r5, #8]
 730              	.LVL90:
 731 0044 FE0050E3 		cmp	r0, #254
 732 0048 0D00008A 		bhi	.L109
 987:D:/Work/DeviceTester/amazon-freertos/lib/pkcs11/mbedtls\aws_pkcs11_mbedtls.c **** 
 733              		.loc 1 987 0
 734 004c FEFFFFEB 		bl	pvPortMalloc
 735              	.LVL91:
 989:D:/Work/DeviceTester/amazon-freertos/lib/pkcs11/mbedtls\aws_pkcs11_mbedtls.c ****                 {
 736              		.loc 1 989 0
 737 0050 040050E1 		cmp	r0, r4
 987:D:/Work/DeviceTester/amazon-freertos/lib/pkcs11/mbedtls\aws_pkcs11_mbedtls.c **** 
 738              		.loc 1 987 0
 739 0054 100086E5 		str	r0, [r6, #16]
 989:D:/Work/DeviceTester/amazon-freertos/lib/pkcs11/mbedtls\aws_pkcs11_mbedtls.c ****                 {
 740              		.loc 1 989 0
 741 0058 0B00000A 		beq	.L110
 991:D:/Work/DeviceTester/amazon-freertos/lib/pkcs11/mbedtls\aws_pkcs11_mbedtls.c ****                             pxTemplate->pValue,
 742              		.loc 1 991 0
 743 005c 060095E9 		ldmib	r5, {r1, r2}
 744 0060 FEFFFFEB 		bl	memcpy
 745              	.LVL92:
 994:D:/Work/DeviceTester/amazon-freertos/lib/pkcs11/mbedtls\aws_pkcs11_mbedtls.c ****                 }
 746              		.loc 1 994 0
 747 0064 083095E5 		ldr	r3, [r5, #8]
 961:D:/Work/DeviceTester/amazon-freertos/lib/pkcs11/mbedtls\aws_pkcs11_mbedtls.c **** 
 748              		.loc 1 961 0
 749 0068 0400A0E1 		mov	r0, r4
 994:D:/Work/DeviceTester/amazon-freertos/lib/pkcs11/mbedtls\aws_pkcs11_mbedtls.c ****                 }
 750              		.loc 1 994 0
 751 006c 1430C6E5 		strb	r3, [r6, #20]
 752 0070 7080BDE8 		pop	{r4, r5, r6, pc}
 753              	.LVL93:
 754              	.L107:
1008:D:/Work/DeviceTester/amazon-freertos/lib/pkcs11/mbedtls\aws_pkcs11_mbedtls.c ****             xResult = CKR_ATTRIBUTE_TYPE_INVALID;
 755              		.loc 1 1008 0
 756 0074 1C009FE5 		ldr	r0, .L112+4
 757              	.LVL94:
 758 0078 FEFFFFEB 		bl	vLoggingPrintf
 759              	.LVL95:
1009:D:/Work/DeviceTester/amazon-freertos/lib/pkcs11/mbedtls\aws_pkcs11_mbedtls.c ****         }
 760              		.loc 1 1009 0
 761 007c 1200A0E3 		mov	r0, #18
 762 0080 7080BDE8 		pop	{r4, r5, r6, pc}
 763              	.LVL96:
 764              	.L109:
1003:D:/Work/DeviceTester/amazon-freertos/lib/pkcs11/mbedtls\aws_pkcs11_mbedtls.c ****             }
 765              		.loc 1 1003 0
 766 0084 1300A0E3 		mov	r0, #19
 767 0088 7080BDE8 		pop	{r4, r5, r6, pc}
 768              	.LVL97:
 769              	.L110:
 998:D:/Work/DeviceTester/amazon-freertos/lib/pkcs11/mbedtls\aws_pkcs11_mbedtls.c ****                 }
 770              		.loc 1 998 0
 771 008c 0200A0E3 		mov	r0, #2
 772              	.LVL98:
1014:D:/Work/DeviceTester/amazon-freertos/lib/pkcs11/mbedtls\aws_pkcs11_mbedtls.c **** 
 773              		.loc 1 1014 0
 774 0090 7080BDE8 		pop	{r4, r5, r6, pc}
 775              	.L113:
 776              		.align	2
 777              	.L112:
 778 0094 00000000 		.word	.LC2
 779 0098 30000000 		.word	.LC3
 780              		.cfi_endproc
 781              	.LFE18:
 783              		.section	.text.C_GetAttributeValue,"ax",%progbits
 784              		.align	2
 785              		.global	C_GetAttributeValue
 786              		.syntax unified
 787              		.arm
 788              		.fpu neon
 790              	C_GetAttributeValue:
 791              	.LFB17:
 829:D:/Work/DeviceTester/amazon-freertos/lib/pkcs11/mbedtls\aws_pkcs11_mbedtls.c ****     /*lint !e9072 It's OK to have different parameter name. */
 792              		.loc 1 829 0
 793              		.cfi_startproc
 794              		@ args = 0, pretend = 0, frame = 24
 795              		@ frame_needed = 0, uses_anonymous_args = 0
 796              	.LVL99:
 797 0000 F0472DE9 		push	{r4, r5, r6, r7, r8, r9, r10, lr}
 798              		.cfi_def_cfa_offset 32
 799              		.cfi_offset 4, -32
 800              		.cfi_offset 5, -28
 801              		.cfi_offset 6, -24
 802              		.cfi_offset 7, -20
 803              		.cfi_offset 8, -16
 804              		.cfi_offset 9, -12
 805              		.cfi_offset 10, -8
 806              		.cfi_offset 14, -4
 832:D:/Work/DeviceTester/amazon-freertos/lib/pkcs11/mbedtls\aws_pkcs11_mbedtls.c ****     CK_ULONG iAttrib;
 807              		.loc 1 832 0
 808 0004 0100A0E3 		mov	r0, #1
 809              	.LVL100:
 829:D:/Work/DeviceTester/amazon-freertos/lib/pkcs11/mbedtls\aws_pkcs11_mbedtls.c ****     /*lint !e9072 It's OK to have different parameter name. */
 810              		.loc 1 829 0
 811 0008 20D04DE2 		sub	sp, sp, #32
 812              		.cfi_def_cfa_offset 64
 844:D:/Work/DeviceTester/amazon-freertos/lib/pkcs11/mbedtls\aws_pkcs11_mbedtls.c ****     {
 813              		.loc 1 844 0
 814 000c 005052E2 		subs	r5, r2, #0
 836:D:/Work/DeviceTester/amazon-freertos/lib/pkcs11/mbedtls\aws_pkcs11_mbedtls.c **** 
 815              		.loc 1 836 0
 816 0010 0070E0E3 		mvn	r7, #0
 832:D:/Work/DeviceTester/amazon-freertos/lib/pkcs11/mbedtls\aws_pkcs11_mbedtls.c ****     CK_ULONG iAttrib;
 817              		.loc 1 832 0
 818 0014 0B00CDE5 		strb	r0, [sp, #11]
 838:D:/Work/DeviceTester/amazon-freertos/lib/pkcs11/mbedtls\aws_pkcs11_mbedtls.c ****     uint32_t ulLength = 0;
 819              		.loc 1 838 0
 820 0018 0000A0E3 		mov	r0, #0
 821 001c 10008DE5 		str	r0, [sp, #16]
 839:D:/Work/DeviceTester/amazon-freertos/lib/pkcs11/mbedtls\aws_pkcs11_mbedtls.c **** 
 822              		.loc 1 839 0
 823 0020 14008DE5 		str	r0, [sp, #20]
 846:D:/Work/DeviceTester/amazon-freertos/lib/pkcs11/mbedtls\aws_pkcs11_mbedtls.c ****     }
 824              		.loc 1 846 0
 825 0024 0700A003 		moveq	r0, #7
 836:D:/Work/DeviceTester/amazon-freertos/lib/pkcs11/mbedtls\aws_pkcs11_mbedtls.c **** 
 826              		.loc 1 836 0
 827 0028 0C708DE5 		str	r7, [sp, #12]
 844:D:/Work/DeviceTester/amazon-freertos/lib/pkcs11/mbedtls\aws_pkcs11_mbedtls.c ****     {
 828              		.loc 1 844 0
 829 002c 0A00000A 		beq	.L114
 830 0030 0100A0E1 		mov	r0, r1
 831 0034 0380A0E1 		mov	r8, r3
 853:D:/Work/DeviceTester/amazon-freertos/lib/pkcs11/mbedtls\aws_pkcs11_mbedtls.c ****     }
 832              		.loc 1 853 0
 833 0038 14208DE2 		add	r2, sp, #20
 834              	.LVL101:
 835 003c 0B308DE2 		add	r3, sp, #11
 836              	.LVL102:
 837 0040 10108DE2 		add	r1, sp, #16
 838              	.LVL103:
 839 0044 FEFFFFEB 		bl	PKCS11_PAL_GetObjectValue
 840              	.LVL104:
 856:D:/Work/DeviceTester/amazon-freertos/lib/pkcs11/mbedtls\aws_pkcs11_mbedtls.c ****     {
 841              		.loc 1 856 0
 842 0048 000050E3 		cmp	r0, #0
 843 004c 0060A001 		moveq	r6, r0
 844 0050 0640A001 		moveq	r4, r6
 881:D:/Work/DeviceTester/amazon-freertos/lib/pkcs11/mbedtls\aws_pkcs11_mbedtls.c ****                         }
 845              		.loc 1 881 0
 846 0054 0690A001 		moveq	r9, r6
 856:D:/Work/DeviceTester/amazon-freertos/lib/pkcs11/mbedtls\aws_pkcs11_mbedtls.c ****     {
 847              		.loc 1 856 0
 848 0058 1900000A 		beq	.L116
 849              	.LVL105:
 850              	.L114:
 951:D:/Work/DeviceTester/amazon-freertos/lib/pkcs11/mbedtls\aws_pkcs11_mbedtls.c **** 
 851              		.loc 1 951 0
 852 005c 20D08DE2 		add	sp, sp, #32
 853              		.cfi_remember_state
 854              		.cfi_def_cfa_offset 32
 855              		@ sp needed
 856 0060 F087BDE8 		pop	{r4, r5, r6, r7, r8, r9, r10, pc}
 857              	.LVL106:
 858              	.L128:
 859              		.cfi_restore_state
 860:D:/Work/DeviceTester/amazon-freertos/lib/pkcs11/mbedtls\aws_pkcs11_mbedtls.c ****             {
 860              		.loc 1 860 0
 861 0064 004095E5 		ldr	r4, [r5]
 862              	.LVL107:
 863 0068 110054E3 		cmp	r4, #17
 864 006c 0300000A 		beq	.L118
 865 0070 010C54E3 		cmp	r4, #256
 866 0074 1E00000A 		beq	.L119
 942:D:/Work/DeviceTester/amazon-freertos/lib/pkcs11/mbedtls\aws_pkcs11_mbedtls.c ****             }
 867              		.loc 1 942 0
 868 0078 1240A0E3 		mov	r4, #18
 869 007c 0E0000EA 		b	.L117
 870              	.L118:
 864:D:/Work/DeviceTester/amazon-freertos/lib/pkcs11/mbedtls\aws_pkcs11_mbedtls.c ****                     {
 871              		.loc 1 864 0
 872 0080 0B30DDE5 		ldrb	r3, [sp, #11]	@ zero_extendqisi2
 873 0084 010053E3 		cmp	r3, #1
 866:D:/Work/DeviceTester/amazon-freertos/lib/pkcs11/mbedtls\aws_pkcs11_mbedtls.c ****                         xResult = CKR_ATTRIBUTE_SENSITIVE;
 874              		.loc 1 866 0
 875 0088 08708505 		streq	r7, [r5, #8]
 864:D:/Work/DeviceTester/amazon-freertos/lib/pkcs11/mbedtls\aws_pkcs11_mbedtls.c ****                     {
 876              		.loc 1 864 0
 877 008c 0A00000A 		beq	.L117
 871:D:/Work/DeviceTester/amazon-freertos/lib/pkcs11/mbedtls\aws_pkcs11_mbedtls.c ****                         {
 878              		.loc 1 871 0
 879 0090 040095E5 		ldr	r0, [r5, #4]
 880 0094 14209DE5 		ldr	r2, [sp, #20]
 881 0098 000050E3 		cmp	r0, #0
 873:D:/Work/DeviceTester/amazon-freertos/lib/pkcs11/mbedtls\aws_pkcs11_mbedtls.c ****                         }
 882              		.loc 1 873 0
 883 009c 08208505 		streq	r2, [r5, #8]
 871:D:/Work/DeviceTester/amazon-freertos/lib/pkcs11/mbedtls\aws_pkcs11_mbedtls.c ****                         {
 884              		.loc 1 871 0
 885 00a0 0400000A 		beq	.L138
 875:D:/Work/DeviceTester/amazon-freertos/lib/pkcs11/mbedtls\aws_pkcs11_mbedtls.c ****                         {
 886              		.loc 1 875 0
 887 00a4 083095E5 		ldr	r3, [r5, #8]
 888 00a8 020053E1 		cmp	r3, r2
 889 00ac 3F00003A 		bcc	.L132
 881:D:/Work/DeviceTester/amazon-freertos/lib/pkcs11/mbedtls\aws_pkcs11_mbedtls.c ****                         }
 890              		.loc 1 881 0
 891 00b0 10109DE5 		ldr	r1, [sp, #16]
 892 00b4 FEFFFFEB 		bl	memcpy
 893              	.LVL108:
 894              	.L138:
 895 00b8 0040A0E3 		mov	r4, #0
 896              	.L117:
 897              	.LVL109:
 858:D:/Work/DeviceTester/amazon-freertos/lib/pkcs11/mbedtls\aws_pkcs11_mbedtls.c ****         {
 898              		.loc 1 858 0 discriminator 2
 899 00bc 016086E2 		add	r6, r6, #1
 900              	.LVL110:
 901 00c0 0C5085E2 		add	r5, r5, #12
 902              	.LVL111:
 903              	.L116:
 858:D:/Work/DeviceTester/amazon-freertos/lib/pkcs11/mbedtls\aws_pkcs11_mbedtls.c ****         {
 904              		.loc 1 858 0 is_stmt 0 discriminator 1
 905 00c4 080056E1 		cmp	r6, r8
 906 00c8 0030A023 		movcs	r3, #0
 907 00cc 0130A033 		movcc	r3, #1
 908 00d0 000054E3 		cmp	r4, #0
 909 00d4 0030A013 		movne	r3, #0
 910 00d8 000053E3 		cmp	r3, #0
 911 00dc E0FFFF1A 		bne	.L128
 947:D:/Work/DeviceTester/amazon-freertos/lib/pkcs11/mbedtls\aws_pkcs11_mbedtls.c ****     }
 912              		.loc 1 947 0 is_stmt 1
 913 00e0 10009DE5 		ldr	r0, [sp, #16]
 914 00e4 14109DE5 		ldr	r1, [sp, #20]
 915 00e8 FEFFFFEB 		bl	PKCS11_PAL_GetObjectValueCleanup
 916              	.LVL112:
 917 00ec 0400A0E1 		mov	r0, r4
 918 00f0 D9FFFFEA 		b	.L114
 919              	.LVL113:
 920              	.L119:
 889:D:/Work/DeviceTester/amazon-freertos/lib/pkcs11/mbedtls\aws_pkcs11_mbedtls.c ****                     {
 921              		.loc 1 889 0
 922 00f4 044095E5 		ldr	r4, [r5, #4]
 923 00f8 000054E3 		cmp	r4, #0
 891:D:/Work/DeviceTester/amazon-freertos/lib/pkcs11/mbedtls\aws_pkcs11_mbedtls.c ****                     }
 924              		.loc 1 891 0
 925 00fc 0130A003 		moveq	r3, #1
 926 0100 08308505 		streq	r3, [r5, #8]
 889:D:/Work/DeviceTester/amazon-freertos/lib/pkcs11/mbedtls\aws_pkcs11_mbedtls.c ****                     {
 927              		.loc 1 889 0
 928 0104 ECFFFF0A 		beq	.L117
 893:D:/Work/DeviceTester/amazon-freertos/lib/pkcs11/mbedtls\aws_pkcs11_mbedtls.c ****                     {
 929              		.loc 1 893 0
 930 0108 083095E5 		ldr	r3, [r5, #8]
 931 010c 000053E3 		cmp	r3, #0
 932 0110 2600000A 		beq	.L132
 899:D:/Work/DeviceTester/amazon-freertos/lib/pkcs11/mbedtls\aws_pkcs11_mbedtls.c ****                         xResult = mbedtls_pk_parse_key( &privateKeyContext, pxObjectValue, ulLength
 933              		.loc 1 899 0
 934 0114 18008DE2 		add	r0, sp, #24
 935 0118 FEFFFFEB 		bl	mbedtls_pk_init
 936              	.LVL114:
 900:D:/Work/DeviceTester/amazon-freertos/lib/pkcs11/mbedtls\aws_pkcs11_mbedtls.c **** 
 937              		.loc 1 900 0
 938 011c 00908DE5 		str	r9, [sp]
 939 0120 0030A0E3 		mov	r3, #0
 940 0124 14209DE5 		ldr	r2, [sp, #20]
 941 0128 18008DE2 		add	r0, sp, #24
 942 012c 10109DE5 		ldr	r1, [sp, #16]
 943 0130 FEFFFFEB 		bl	mbedtls_pk_parse_key
 944              	.LVL115:
 902:D:/Work/DeviceTester/amazon-freertos/lib/pkcs11/mbedtls\aws_pkcs11_mbedtls.c ****                         {
 945              		.loc 1 902 0
 946 0134 00A050E2 		subs	r10, r0, #0
 904:D:/Work/DeviceTester/amazon-freertos/lib/pkcs11/mbedtls\aws_pkcs11_mbedtls.c ****                         }
 947              		.loc 1 904 0
 948 0138 0640A013 		movne	r4, #6
 902:D:/Work/DeviceTester/amazon-freertos/lib/pkcs11/mbedtls\aws_pkcs11_mbedtls.c ****                         {
 949              		.loc 1 902 0
 950 013c 1500001A 		bne	.L123
 908:D:/Work/DeviceTester/amazon-freertos/lib/pkcs11/mbedtls\aws_pkcs11_mbedtls.c **** 
 951              		.loc 1 908 0
 952 0140 18008DE2 		add	r0, sp, #24
 953              	.LVL116:
 954 0144 FEFFFFEB 		bl	mbedtls_pk_get_type
 955              	.LVL117:
 956 0148 060050E3 		cmp	r0, #6
 957 014c 0900008A 		bhi	.L134
 958 0150 0130A0E3 		mov	r3, #1
 959 0154 1300A0E1 		lsl	r0, r3, r0
 960              	.LVL118:
 961 0158 624010E2 		ands	r4, r0, #98
 962 015c 0700001A 		bne	.L125
 963 0160 100010E3 		tst	r0, #16
 924:D:/Work/DeviceTester/amazon-freertos/lib/pkcs11/mbedtls\aws_pkcs11_mbedtls.c ****                                     break;
 964              		.loc 1 924 0
 965 0164 0330A013 		movne	r3, #3
 966 0168 0C308D15 		strne	r3, [sp, #12]
 967 016c 0500001A 		bne	.L124
 968 0170 0C0010E3 		tst	r0, #12
 969 0174 0A00001A 		bne	.L127
 970              	.L134:
 928:D:/Work/DeviceTester/amazon-freertos/lib/pkcs11/mbedtls\aws_pkcs11_mbedtls.c ****                                     break;
 971              		.loc 1 928 0
 972 0178 1340A0E3 		mov	r4, #19
 973 017c 010000EA 		b	.L124
 974              	.L125:
 915:D:/Work/DeviceTester/amazon-freertos/lib/pkcs11/mbedtls\aws_pkcs11_mbedtls.c ****                                     break;
 975              		.loc 1 915 0
 976 0180 0CA08DE5 		str	r10, [sp, #12]
 977              	.L137:
 921:D:/Work/DeviceTester/amazon-freertos/lib/pkcs11/mbedtls\aws_pkcs11_mbedtls.c **** 
 978              		.loc 1 921 0
 979 0184 0040A0E3 		mov	r4, #0
 980              	.L124:
 981              	.LVL119:
 932:D:/Work/DeviceTester/amazon-freertos/lib/pkcs11/mbedtls\aws_pkcs11_mbedtls.c ****                         }
 982              		.loc 1 932 0
 983 0188 0420A0E3 		mov	r2, #4
 984 018c 0C108DE2 		add	r1, sp, #12
 985 0190 040095E5 		ldr	r0, [r5, #4]
 986 0194 FEFFFFEB 		bl	memcpy
 987              	.LVL120:
 988              	.L123:
 936:D:/Work/DeviceTester/amazon-freertos/lib/pkcs11/mbedtls\aws_pkcs11_mbedtls.c ****                     }
 989              		.loc 1 936 0
 990 0198 18008DE2 		add	r0, sp, #24
 991 019c FEFFFFEB 		bl	mbedtls_pk_free
 992              	.LVL121:
 993 01a0 C5FFFFEA 		b	.L117
 994              	.LVL122:
 995              	.L127:
 920:D:/Work/DeviceTester/amazon-freertos/lib/pkcs11/mbedtls\aws_pkcs11_mbedtls.c ****                                     break;
 996              		.loc 1 920 0
 997 01a4 0330A0E3 		mov	r3, #3
 998 01a8 0C308DE5 		str	r3, [sp, #12]
 999 01ac F4FFFFEA 		b	.L137
 1000              	.LVL123:
 1001              	.L132:
 877:D:/Work/DeviceTester/amazon-freertos/lib/pkcs11/mbedtls\aws_pkcs11_mbedtls.c ****                         }
 1002              		.loc 1 877 0
 1003 01b0 154EA0E3 		mov	r4, #336
 1004 01b4 C0FFFFEA 		b	.L117
 1005              		.cfi_endproc
 1006              	.LFE17:
 1008              		.section	.text.C_SignInit,"ax",%progbits
 1009              		.align	2
 1010              		.global	C_SignInit
 1011              		.syntax unified
 1012              		.arm
 1013              		.fpu neon
 1015              	C_SignInit:
 1016              	.LFB24:
1106:D:/Work/DeviceTester/amazon-freertos/lib/pkcs11/mbedtls\aws_pkcs11_mbedtls.c **** }
1107:D:/Work/DeviceTester/amazon-freertos/lib/pkcs11/mbedtls\aws_pkcs11_mbedtls.c **** 
1108:D:/Work/DeviceTester/amazon-freertos/lib/pkcs11/mbedtls\aws_pkcs11_mbedtls.c **** CK_DEFINE_FUNCTION( CK_RV, C_DigestInit )( CK_SESSION_HANDLE xSession,
1109:D:/Work/DeviceTester/amazon-freertos/lib/pkcs11/mbedtls\aws_pkcs11_mbedtls.c ****                                            CK_MECHANISM_PTR pMechanism )
1110:D:/Work/DeviceTester/amazon-freertos/lib/pkcs11/mbedtls\aws_pkcs11_mbedtls.c **** {
1111:D:/Work/DeviceTester/amazon-freertos/lib/pkcs11/mbedtls\aws_pkcs11_mbedtls.c ****     CK_RV xResult = CKR_OK;
1112:D:/Work/DeviceTester/amazon-freertos/lib/pkcs11/mbedtls\aws_pkcs11_mbedtls.c ****     P11SessionPtr_t pxSession = prvSessionPointerFromHandle( xSession );
1113:D:/Work/DeviceTester/amazon-freertos/lib/pkcs11/mbedtls\aws_pkcs11_mbedtls.c **** 
1114:D:/Work/DeviceTester/amazon-freertos/lib/pkcs11/mbedtls\aws_pkcs11_mbedtls.c ****     if( pxSession == NULL )
1115:D:/Work/DeviceTester/amazon-freertos/lib/pkcs11/mbedtls\aws_pkcs11_mbedtls.c ****     {
1116:D:/Work/DeviceTester/amazon-freertos/lib/pkcs11/mbedtls\aws_pkcs11_mbedtls.c ****         xResult = CKR_SESSION_HANDLE_INVALID;
1117:D:/Work/DeviceTester/amazon-freertos/lib/pkcs11/mbedtls\aws_pkcs11_mbedtls.c ****     }
1118:D:/Work/DeviceTester/amazon-freertos/lib/pkcs11/mbedtls\aws_pkcs11_mbedtls.c **** 
1119:D:/Work/DeviceTester/amazon-freertos/lib/pkcs11/mbedtls\aws_pkcs11_mbedtls.c ****     if( pMechanism->mechanism != CKM_SHA256 )
1120:D:/Work/DeviceTester/amazon-freertos/lib/pkcs11/mbedtls\aws_pkcs11_mbedtls.c ****     {
1121:D:/Work/DeviceTester/amazon-freertos/lib/pkcs11/mbedtls\aws_pkcs11_mbedtls.c ****         xResult = CKR_MECHANISM_INVALID;
1122:D:/Work/DeviceTester/amazon-freertos/lib/pkcs11/mbedtls\aws_pkcs11_mbedtls.c ****     }
1123:D:/Work/DeviceTester/amazon-freertos/lib/pkcs11/mbedtls\aws_pkcs11_mbedtls.c **** 
1124:D:/Work/DeviceTester/amazon-freertos/lib/pkcs11/mbedtls\aws_pkcs11_mbedtls.c ****     /*
1125:D:/Work/DeviceTester/amazon-freertos/lib/pkcs11/mbedtls\aws_pkcs11_mbedtls.c ****      * Initialize the requested hash type
1126:D:/Work/DeviceTester/amazon-freertos/lib/pkcs11/mbedtls\aws_pkcs11_mbedtls.c ****      */
1127:D:/Work/DeviceTester/amazon-freertos/lib/pkcs11/mbedtls\aws_pkcs11_mbedtls.c ****     if( xResult == CKR_OK )
1128:D:/Work/DeviceTester/amazon-freertos/lib/pkcs11/mbedtls\aws_pkcs11_mbedtls.c ****     {
1129:D:/Work/DeviceTester/amazon-freertos/lib/pkcs11/mbedtls\aws_pkcs11_mbedtls.c ****         mbedtls_sha256_init( &pxSession->xSHA256Context );
1130:D:/Work/DeviceTester/amazon-freertos/lib/pkcs11/mbedtls\aws_pkcs11_mbedtls.c **** 
1131:D:/Work/DeviceTester/amazon-freertos/lib/pkcs11/mbedtls\aws_pkcs11_mbedtls.c ****         if( 0 != mbedtls_sha256_starts_ret( &pxSession->xSHA256Context, 0 ) )
1132:D:/Work/DeviceTester/amazon-freertos/lib/pkcs11/mbedtls\aws_pkcs11_mbedtls.c ****         {
1133:D:/Work/DeviceTester/amazon-freertos/lib/pkcs11/mbedtls\aws_pkcs11_mbedtls.c ****             xResult = CKR_FUNCTION_FAILED;
1134:D:/Work/DeviceTester/amazon-freertos/lib/pkcs11/mbedtls\aws_pkcs11_mbedtls.c ****         }
1135:D:/Work/DeviceTester/amazon-freertos/lib/pkcs11/mbedtls\aws_pkcs11_mbedtls.c ****         else
1136:D:/Work/DeviceTester/amazon-freertos/lib/pkcs11/mbedtls\aws_pkcs11_mbedtls.c ****         {
1137:D:/Work/DeviceTester/amazon-freertos/lib/pkcs11/mbedtls\aws_pkcs11_mbedtls.c ****             pxSession->xOperationInProgress = pMechanism->mechanism;
1138:D:/Work/DeviceTester/amazon-freertos/lib/pkcs11/mbedtls\aws_pkcs11_mbedtls.c ****         }
1139:D:/Work/DeviceTester/amazon-freertos/lib/pkcs11/mbedtls\aws_pkcs11_mbedtls.c ****     }
1140:D:/Work/DeviceTester/amazon-freertos/lib/pkcs11/mbedtls\aws_pkcs11_mbedtls.c **** 
1141:D:/Work/DeviceTester/amazon-freertos/lib/pkcs11/mbedtls\aws_pkcs11_mbedtls.c ****     return xResult;
1142:D:/Work/DeviceTester/amazon-freertos/lib/pkcs11/mbedtls\aws_pkcs11_mbedtls.c **** }
1143:D:/Work/DeviceTester/amazon-freertos/lib/pkcs11/mbedtls\aws_pkcs11_mbedtls.c **** 
1144:D:/Work/DeviceTester/amazon-freertos/lib/pkcs11/mbedtls\aws_pkcs11_mbedtls.c **** CK_DEFINE_FUNCTION( CK_RV, C_DigestUpdate )( CK_SESSION_HANDLE xSession,
1145:D:/Work/DeviceTester/amazon-freertos/lib/pkcs11/mbedtls\aws_pkcs11_mbedtls.c ****                                              CK_BYTE_PTR pPart,
1146:D:/Work/DeviceTester/amazon-freertos/lib/pkcs11/mbedtls\aws_pkcs11_mbedtls.c ****                                              CK_ULONG ulPartLen )
1147:D:/Work/DeviceTester/amazon-freertos/lib/pkcs11/mbedtls\aws_pkcs11_mbedtls.c **** {
1148:D:/Work/DeviceTester/amazon-freertos/lib/pkcs11/mbedtls\aws_pkcs11_mbedtls.c ****     CK_RV xResult = CKR_OK;
1149:D:/Work/DeviceTester/amazon-freertos/lib/pkcs11/mbedtls\aws_pkcs11_mbedtls.c ****     P11SessionPtr_t pxSession = prvSessionPointerFromHandle( xSession );
1150:D:/Work/DeviceTester/amazon-freertos/lib/pkcs11/mbedtls\aws_pkcs11_mbedtls.c **** 
1151:D:/Work/DeviceTester/amazon-freertos/lib/pkcs11/mbedtls\aws_pkcs11_mbedtls.c ****     if( pxSession == NULL )
1152:D:/Work/DeviceTester/amazon-freertos/lib/pkcs11/mbedtls\aws_pkcs11_mbedtls.c ****     {
1153:D:/Work/DeviceTester/amazon-freertos/lib/pkcs11/mbedtls\aws_pkcs11_mbedtls.c ****         xResult = CKR_SESSION_HANDLE_INVALID;
1154:D:/Work/DeviceTester/amazon-freertos/lib/pkcs11/mbedtls\aws_pkcs11_mbedtls.c ****     }
1155:D:/Work/DeviceTester/amazon-freertos/lib/pkcs11/mbedtls\aws_pkcs11_mbedtls.c ****     else if( pxSession->xOperationInProgress != CKM_SHA256 )
1156:D:/Work/DeviceTester/amazon-freertos/lib/pkcs11/mbedtls\aws_pkcs11_mbedtls.c ****     {
1157:D:/Work/DeviceTester/amazon-freertos/lib/pkcs11/mbedtls\aws_pkcs11_mbedtls.c ****         xResult = CKR_OPERATION_NOT_INITIALIZED;
1158:D:/Work/DeviceTester/amazon-freertos/lib/pkcs11/mbedtls\aws_pkcs11_mbedtls.c ****     }
1159:D:/Work/DeviceTester/amazon-freertos/lib/pkcs11/mbedtls\aws_pkcs11_mbedtls.c **** 
1160:D:/Work/DeviceTester/amazon-freertos/lib/pkcs11/mbedtls\aws_pkcs11_mbedtls.c ****     if( xResult == CKR_OK )
1161:D:/Work/DeviceTester/amazon-freertos/lib/pkcs11/mbedtls\aws_pkcs11_mbedtls.c ****     {
1162:D:/Work/DeviceTester/amazon-freertos/lib/pkcs11/mbedtls\aws_pkcs11_mbedtls.c ****         if( 0 != mbedtls_sha256_update_ret( &pxSession->xSHA256Context, pPart, ulPartLen ) )
1163:D:/Work/DeviceTester/amazon-freertos/lib/pkcs11/mbedtls\aws_pkcs11_mbedtls.c ****         {
1164:D:/Work/DeviceTester/amazon-freertos/lib/pkcs11/mbedtls\aws_pkcs11_mbedtls.c ****             xResult = CKR_FUNCTION_FAILED;
1165:D:/Work/DeviceTester/amazon-freertos/lib/pkcs11/mbedtls\aws_pkcs11_mbedtls.c ****             pxSession->xOperationInProgress = pkcs11NO_OPERATION;
1166:D:/Work/DeviceTester/amazon-freertos/lib/pkcs11/mbedtls\aws_pkcs11_mbedtls.c ****         }
1167:D:/Work/DeviceTester/amazon-freertos/lib/pkcs11/mbedtls\aws_pkcs11_mbedtls.c ****     }
1168:D:/Work/DeviceTester/amazon-freertos/lib/pkcs11/mbedtls\aws_pkcs11_mbedtls.c **** 
1169:D:/Work/DeviceTester/amazon-freertos/lib/pkcs11/mbedtls\aws_pkcs11_mbedtls.c ****     return xResult;
1170:D:/Work/DeviceTester/amazon-freertos/lib/pkcs11/mbedtls\aws_pkcs11_mbedtls.c **** }
1171:D:/Work/DeviceTester/amazon-freertos/lib/pkcs11/mbedtls\aws_pkcs11_mbedtls.c **** 
1172:D:/Work/DeviceTester/amazon-freertos/lib/pkcs11/mbedtls\aws_pkcs11_mbedtls.c **** CK_DEFINE_FUNCTION( CK_RV, C_DigestFinal )( CK_SESSION_HANDLE xSession,
1173:D:/Work/DeviceTester/amazon-freertos/lib/pkcs11/mbedtls\aws_pkcs11_mbedtls.c ****                                             CK_BYTE_PTR pDigest,
1174:D:/Work/DeviceTester/amazon-freertos/lib/pkcs11/mbedtls\aws_pkcs11_mbedtls.c ****                                             CK_ULONG_PTR pulDigestLen )
1175:D:/Work/DeviceTester/amazon-freertos/lib/pkcs11/mbedtls\aws_pkcs11_mbedtls.c **** {
1176:D:/Work/DeviceTester/amazon-freertos/lib/pkcs11/mbedtls\aws_pkcs11_mbedtls.c ****     CK_RV xResult = CKR_OK;
1177:D:/Work/DeviceTester/amazon-freertos/lib/pkcs11/mbedtls\aws_pkcs11_mbedtls.c ****     P11SessionPtr_t pxSession = prvSessionPointerFromHandle( xSession );
1178:D:/Work/DeviceTester/amazon-freertos/lib/pkcs11/mbedtls\aws_pkcs11_mbedtls.c **** 
1179:D:/Work/DeviceTester/amazon-freertos/lib/pkcs11/mbedtls\aws_pkcs11_mbedtls.c ****     if( pxSession == NULL )
1180:D:/Work/DeviceTester/amazon-freertos/lib/pkcs11/mbedtls\aws_pkcs11_mbedtls.c ****     {
1181:D:/Work/DeviceTester/amazon-freertos/lib/pkcs11/mbedtls\aws_pkcs11_mbedtls.c ****         xResult = CKR_SESSION_HANDLE_INVALID;
1182:D:/Work/DeviceTester/amazon-freertos/lib/pkcs11/mbedtls\aws_pkcs11_mbedtls.c ****     }
1183:D:/Work/DeviceTester/amazon-freertos/lib/pkcs11/mbedtls\aws_pkcs11_mbedtls.c ****     else if( pxSession->xOperationInProgress != CKM_SHA256 )
1184:D:/Work/DeviceTester/amazon-freertos/lib/pkcs11/mbedtls\aws_pkcs11_mbedtls.c ****     {
1185:D:/Work/DeviceTester/amazon-freertos/lib/pkcs11/mbedtls\aws_pkcs11_mbedtls.c ****         xResult = CKR_OPERATION_NOT_INITIALIZED;
1186:D:/Work/DeviceTester/amazon-freertos/lib/pkcs11/mbedtls\aws_pkcs11_mbedtls.c ****         pxSession->xOperationInProgress = pkcs11NO_OPERATION;
1187:D:/Work/DeviceTester/amazon-freertos/lib/pkcs11/mbedtls\aws_pkcs11_mbedtls.c ****     }
1188:D:/Work/DeviceTester/amazon-freertos/lib/pkcs11/mbedtls\aws_pkcs11_mbedtls.c **** 
1189:D:/Work/DeviceTester/amazon-freertos/lib/pkcs11/mbedtls\aws_pkcs11_mbedtls.c ****     if( xResult == CKR_OK )
1190:D:/Work/DeviceTester/amazon-freertos/lib/pkcs11/mbedtls\aws_pkcs11_mbedtls.c ****     {
1191:D:/Work/DeviceTester/amazon-freertos/lib/pkcs11/mbedtls\aws_pkcs11_mbedtls.c ****         if( pDigest == NULL )
1192:D:/Work/DeviceTester/amazon-freertos/lib/pkcs11/mbedtls\aws_pkcs11_mbedtls.c ****         {
1193:D:/Work/DeviceTester/amazon-freertos/lib/pkcs11/mbedtls\aws_pkcs11_mbedtls.c ****             /* Supply the required buffer size. */
1194:D:/Work/DeviceTester/amazon-freertos/lib/pkcs11/mbedtls\aws_pkcs11_mbedtls.c ****             *pulDigestLen = pcks11SHA256_DIGEST_LENGTH;
1195:D:/Work/DeviceTester/amazon-freertos/lib/pkcs11/mbedtls\aws_pkcs11_mbedtls.c ****         }
1196:D:/Work/DeviceTester/amazon-freertos/lib/pkcs11/mbedtls\aws_pkcs11_mbedtls.c ****         else
1197:D:/Work/DeviceTester/amazon-freertos/lib/pkcs11/mbedtls\aws_pkcs11_mbedtls.c ****         {
1198:D:/Work/DeviceTester/amazon-freertos/lib/pkcs11/mbedtls\aws_pkcs11_mbedtls.c ****             if( *pulDigestLen < pcks11SHA256_DIGEST_LENGTH )
1199:D:/Work/DeviceTester/amazon-freertos/lib/pkcs11/mbedtls\aws_pkcs11_mbedtls.c ****             {
1200:D:/Work/DeviceTester/amazon-freertos/lib/pkcs11/mbedtls\aws_pkcs11_mbedtls.c ****                 xResult = CKR_BUFFER_TOO_SMALL;
1201:D:/Work/DeviceTester/amazon-freertos/lib/pkcs11/mbedtls\aws_pkcs11_mbedtls.c ****             }
1202:D:/Work/DeviceTester/amazon-freertos/lib/pkcs11/mbedtls\aws_pkcs11_mbedtls.c ****             else
1203:D:/Work/DeviceTester/amazon-freertos/lib/pkcs11/mbedtls\aws_pkcs11_mbedtls.c ****             {
1204:D:/Work/DeviceTester/amazon-freertos/lib/pkcs11/mbedtls\aws_pkcs11_mbedtls.c ****                 if( 0 != mbedtls_sha256_finish_ret( &pxSession->xSHA256Context, pDigest ) )
1205:D:/Work/DeviceTester/amazon-freertos/lib/pkcs11/mbedtls\aws_pkcs11_mbedtls.c ****                 {
1206:D:/Work/DeviceTester/amazon-freertos/lib/pkcs11/mbedtls\aws_pkcs11_mbedtls.c ****                     xResult = CKR_FUNCTION_FAILED;
1207:D:/Work/DeviceTester/amazon-freertos/lib/pkcs11/mbedtls\aws_pkcs11_mbedtls.c ****                 }
1208:D:/Work/DeviceTester/amazon-freertos/lib/pkcs11/mbedtls\aws_pkcs11_mbedtls.c **** 
1209:D:/Work/DeviceTester/amazon-freertos/lib/pkcs11/mbedtls\aws_pkcs11_mbedtls.c ****                 pxSession->xOperationInProgress = pkcs11NO_OPERATION;
1210:D:/Work/DeviceTester/amazon-freertos/lib/pkcs11/mbedtls\aws_pkcs11_mbedtls.c ****             }
1211:D:/Work/DeviceTester/amazon-freertos/lib/pkcs11/mbedtls\aws_pkcs11_mbedtls.c ****         }
1212:D:/Work/DeviceTester/amazon-freertos/lib/pkcs11/mbedtls\aws_pkcs11_mbedtls.c ****     }
1213:D:/Work/DeviceTester/amazon-freertos/lib/pkcs11/mbedtls\aws_pkcs11_mbedtls.c **** 
1214:D:/Work/DeviceTester/amazon-freertos/lib/pkcs11/mbedtls\aws_pkcs11_mbedtls.c ****     return xResult;
1215:D:/Work/DeviceTester/amazon-freertos/lib/pkcs11/mbedtls\aws_pkcs11_mbedtls.c **** }
1216:D:/Work/DeviceTester/amazon-freertos/lib/pkcs11/mbedtls\aws_pkcs11_mbedtls.c **** 
1217:D:/Work/DeviceTester/amazon-freertos/lib/pkcs11/mbedtls\aws_pkcs11_mbedtls.c **** /**
1218:D:/Work/DeviceTester/amazon-freertos/lib/pkcs11/mbedtls\aws_pkcs11_mbedtls.c ****  * @brief Begin a digital signature generation session.
1219:D:/Work/DeviceTester/amazon-freertos/lib/pkcs11/mbedtls\aws_pkcs11_mbedtls.c ****  */
1220:D:/Work/DeviceTester/amazon-freertos/lib/pkcs11/mbedtls\aws_pkcs11_mbedtls.c **** CK_DEFINE_FUNCTION( CK_RV, C_SignInit )( CK_SESSION_HANDLE xSession,
1221:D:/Work/DeviceTester/amazon-freertos/lib/pkcs11/mbedtls\aws_pkcs11_mbedtls.c ****                                          CK_MECHANISM_PTR pxMechanism,
1222:D:/Work/DeviceTester/amazon-freertos/lib/pkcs11/mbedtls\aws_pkcs11_mbedtls.c ****                                          CK_OBJECT_HANDLE xKey )
1223:D:/Work/DeviceTester/amazon-freertos/lib/pkcs11/mbedtls\aws_pkcs11_mbedtls.c **** {
 1017              		.loc 1 1223 0
 1018              		.cfi_startproc
 1019              		@ args = 0, pretend = 0, frame = 16
 1020              		@ frame_needed = 0, uses_anonymous_args = 0
 1021              	.LVL124:
1224:D:/Work/DeviceTester/amazon-freertos/lib/pkcs11/mbedtls\aws_pkcs11_mbedtls.c ****     CK_RV xResult = CKR_OK;
1225:D:/Work/DeviceTester/amazon-freertos/lib/pkcs11/mbedtls\aws_pkcs11_mbedtls.c ****     CK_BBOOL xIsPrivate;
1226:D:/Work/DeviceTester/amazon-freertos/lib/pkcs11/mbedtls\aws_pkcs11_mbedtls.c **** 
1227:D:/Work/DeviceTester/amazon-freertos/lib/pkcs11/mbedtls\aws_pkcs11_mbedtls.c ****     /*lint !e9072 It's OK to have different parameter name. */
1228:D:/Work/DeviceTester/amazon-freertos/lib/pkcs11/mbedtls\aws_pkcs11_mbedtls.c ****     P11SessionPtr_t pxSession = prvSessionPointerFromHandle( xSession );
1229:D:/Work/DeviceTester/amazon-freertos/lib/pkcs11/mbedtls\aws_pkcs11_mbedtls.c ****     uint8_t * keyData = NULL;
 1022              		.loc 1 1229 0
 1023 0000 0030A0E3 		mov	r3, #0
1223:D:/Work/DeviceTester/amazon-freertos/lib/pkcs11/mbedtls\aws_pkcs11_mbedtls.c ****     CK_RV xResult = CKR_OK;
 1024              		.loc 1 1223 0
 1025 0004 F0402DE9 		push	{r4, r5, r6, r7, lr}
 1026              		.cfi_def_cfa_offset 20
 1027              		.cfi_offset 4, -20
 1028              		.cfi_offset 5, -16
 1029              		.cfi_offset 6, -12
 1030              		.cfi_offset 7, -8
 1031              		.cfi_offset 14, -4
1230:D:/Work/DeviceTester/amazon-freertos/lib/pkcs11/mbedtls\aws_pkcs11_mbedtls.c ****     uint32_t ulKeyDataLength = 0;
1231:D:/Work/DeviceTester/amazon-freertos/lib/pkcs11/mbedtls\aws_pkcs11_mbedtls.c **** 
1232:D:/Work/DeviceTester/amazon-freertos/lib/pkcs11/mbedtls\aws_pkcs11_mbedtls.c ****     if( NULL == pxMechanism )
 1032              		.loc 1 1232 0
 1033 0008 030051E1 		cmp	r1, r3
1223:D:/Work/DeviceTester/amazon-freertos/lib/pkcs11/mbedtls\aws_pkcs11_mbedtls.c ****     CK_RV xResult = CKR_OK;
 1034              		.loc 1 1223 0
 1035 000c 1CD04DE2 		sub	sp, sp, #28
 1036              		.cfi_def_cfa_offset 48
1233:D:/Work/DeviceTester/amazon-freertos/lib/pkcs11/mbedtls\aws_pkcs11_mbedtls.c ****     {
1234:D:/Work/DeviceTester/amazon-freertos/lib/pkcs11/mbedtls\aws_pkcs11_mbedtls.c ****         xResult = CKR_ARGUMENTS_BAD;
 1037              		.loc 1 1234 0
 1038 0010 0750A003 		moveq	r5, #7
1229:D:/Work/DeviceTester/amazon-freertos/lib/pkcs11/mbedtls\aws_pkcs11_mbedtls.c ****     uint32_t ulKeyDataLength = 0;
 1039              		.loc 1 1229 0
 1040 0014 10308DE5 		str	r3, [sp, #16]
1230:D:/Work/DeviceTester/amazon-freertos/lib/pkcs11/mbedtls\aws_pkcs11_mbedtls.c ****     uint32_t ulKeyDataLength = 0;
 1041              		.loc 1 1230 0
 1042 0018 14308DE5 		str	r3, [sp, #20]
1232:D:/Work/DeviceTester/amazon-freertos/lib/pkcs11/mbedtls\aws_pkcs11_mbedtls.c ****     {
 1043              		.loc 1 1232 0
 1044 001c 2C00000A 		beq	.L139
1235:D:/Work/DeviceTester/amazon-freertos/lib/pkcs11/mbedtls\aws_pkcs11_mbedtls.c ****     }
1236:D:/Work/DeviceTester/amazon-freertos/lib/pkcs11/mbedtls\aws_pkcs11_mbedtls.c ****     else
1237:D:/Work/DeviceTester/amazon-freertos/lib/pkcs11/mbedtls\aws_pkcs11_mbedtls.c ****     {
1238:D:/Work/DeviceTester/amazon-freertos/lib/pkcs11/mbedtls\aws_pkcs11_mbedtls.c ****         xResult = PKCS11_PAL_GetObjectValue( xKey, &keyData, &ulKeyDataLength, &xIsPrivate );
 1045              		.loc 1 1238 0
 1046 0020 0F308DE2 		add	r3, sp, #15
 1047 0024 0040A0E1 		mov	r4, r0
 1048 0028 10108DE2 		add	r1, sp, #16
 1049              	.LVL125:
 1050 002c 0200A0E1 		mov	r0, r2
 1051              	.LVL126:
 1052 0030 14208DE2 		add	r2, sp, #20
 1053              	.LVL127:
 1054 0034 FEFFFFEB 		bl	PKCS11_PAL_GetObjectValue
 1055              	.LVL128:
1239:D:/Work/DeviceTester/amazon-freertos/lib/pkcs11/mbedtls\aws_pkcs11_mbedtls.c **** 
1240:D:/Work/DeviceTester/amazon-freertos/lib/pkcs11/mbedtls\aws_pkcs11_mbedtls.c ****         if( xIsPrivate != CK_TRUE )
 1056              		.loc 1 1240 0
 1057 0038 0F30DDE5 		ldrb	r3, [sp, #15]	@ zero_extendqisi2
1238:D:/Work/DeviceTester/amazon-freertos/lib/pkcs11/mbedtls\aws_pkcs11_mbedtls.c **** 
 1058              		.loc 1 1238 0
 1059 003c 0070A0E1 		mov	r7, r0
 1060              	.LVL129:
 1061              		.loc 1 1240 0
 1062 0040 010053E3 		cmp	r3, #1
1241:D:/Work/DeviceTester/amazon-freertos/lib/pkcs11/mbedtls\aws_pkcs11_mbedtls.c ****         {
1242:D:/Work/DeviceTester/amazon-freertos/lib/pkcs11/mbedtls\aws_pkcs11_mbedtls.c ****             xResult = CKR_KEY_TYPE_INCONSISTENT;
 1063              		.loc 1 1242 0
 1064 0044 6350A013 		movne	r5, #99
1240:D:/Work/DeviceTester/amazon-freertos/lib/pkcs11/mbedtls\aws_pkcs11_mbedtls.c ****         {
 1065              		.loc 1 1240 0
 1066 0048 1E00001A 		bne	.L141
1243:D:/Work/DeviceTester/amazon-freertos/lib/pkcs11/mbedtls\aws_pkcs11_mbedtls.c ****         }
1244:D:/Work/DeviceTester/amazon-freertos/lib/pkcs11/mbedtls\aws_pkcs11_mbedtls.c **** 
1245:D:/Work/DeviceTester/amazon-freertos/lib/pkcs11/mbedtls\aws_pkcs11_mbedtls.c ****         if( xResult == CKR_OK )
 1067              		.loc 1 1245 0
 1068 004c 005050E2 		subs	r5, r0, #0
 1069 0050 1C00001A 		bne	.L141
1246:D:/Work/DeviceTester/amazon-freertos/lib/pkcs11/mbedtls\aws_pkcs11_mbedtls.c ****         {
1247:D:/Work/DeviceTester/amazon-freertos/lib/pkcs11/mbedtls\aws_pkcs11_mbedtls.c ****             if( pdTRUE == xSemaphoreTake( pxSession->xSignMutex, portMAX_DELAY ) )
 1070              		.loc 1 1247 0
 1071 0054 0010E0E3 		mvn	r1, #0
 1072 0058 240094E5 		ldr	r0, [r4, #36]
 1073              	.LVL130:
 1074 005c FEFFFFEB 		bl	xQueueSemaphoreTake
 1075              	.LVL131:
 1076 0060 010050E3 		cmp	r0, #1
1248:D:/Work/DeviceTester/amazon-freertos/lib/pkcs11/mbedtls\aws_pkcs11_mbedtls.c ****             {
1249:D:/Work/DeviceTester/amazon-freertos/lib/pkcs11/mbedtls\aws_pkcs11_mbedtls.c ****                 /* Free the private key context if it exists.
1250:D:/Work/DeviceTester/amazon-freertos/lib/pkcs11/mbedtls\aws_pkcs11_mbedtls.c ****                 * TODO: Check if the key is the same as was used previously. */
1251:D:/Work/DeviceTester/amazon-freertos/lib/pkcs11/mbedtls\aws_pkcs11_mbedtls.c ****                 if ( NULL != pxSession->xSignKey.pk_ctx )
1252:D:/Work/DeviceTester/amazon-freertos/lib/pkcs11/mbedtls\aws_pkcs11_mbedtls.c ****                 {
1253:D:/Work/DeviceTester/amazon-freertos/lib/pkcs11/mbedtls\aws_pkcs11_mbedtls.c ****                     mbedtls_pk_free( &pxSession->xSignKey );
1254:D:/Work/DeviceTester/amazon-freertos/lib/pkcs11/mbedtls\aws_pkcs11_mbedtls.c ****                 }
1255:D:/Work/DeviceTester/amazon-freertos/lib/pkcs11/mbedtls\aws_pkcs11_mbedtls.c **** 
1256:D:/Work/DeviceTester/amazon-freertos/lib/pkcs11/mbedtls\aws_pkcs11_mbedtls.c ****                 mbedtls_pk_init( &pxSession->xSignKey );
1257:D:/Work/DeviceTester/amazon-freertos/lib/pkcs11/mbedtls\aws_pkcs11_mbedtls.c **** 
1258:D:/Work/DeviceTester/amazon-freertos/lib/pkcs11/mbedtls\aws_pkcs11_mbedtls.c ****                 if( 0 == mbedtls_pk_parse_key( &pxSession->xSignKey, keyData, ulKeyDataLength, NULL
1259:D:/Work/DeviceTester/amazon-freertos/lib/pkcs11/mbedtls\aws_pkcs11_mbedtls.c ****                 {
1260:D:/Work/DeviceTester/amazon-freertos/lib/pkcs11/mbedtls\aws_pkcs11_mbedtls.c ****                     /* TODO: Check the mechanism.  Note: Currently, mechanism is being set to CKM_S
1261:D:/Work/DeviceTester/amazon-freertos/lib/pkcs11/mbedtls\aws_pkcs11_mbedtls.c ****                      * CKM_RSA_PKCS
1262:D:/Work/DeviceTester/amazon-freertos/lib/pkcs11/mbedtls\aws_pkcs11_mbedtls.c ****                      * CKM_SHA256_RSA_PKCS
1263:D:/Work/DeviceTester/amazon-freertos/lib/pkcs11/mbedtls\aws_pkcs11_mbedtls.c ****                      * CKM_ECDSA
1264:D:/Work/DeviceTester/amazon-freertos/lib/pkcs11/mbedtls\aws_pkcs11_mbedtls.c ****                      * Calling function does not know whether key is RSA or ECDSA.
1265:D:/Work/DeviceTester/amazon-freertos/lib/pkcs11/mbedtls\aws_pkcs11_mbedtls.c ****                      * xKeyType = mbedtls_pk_get_type( &pxSession->xSignKey );
1266:D:/Work/DeviceTester/amazon-freertos/lib/pkcs11/mbedtls\aws_pkcs11_mbedtls.c ****                      */
1267:D:/Work/DeviceTester/amazon-freertos/lib/pkcs11/mbedtls\aws_pkcs11_mbedtls.c ****                 }
1268:D:/Work/DeviceTester/amazon-freertos/lib/pkcs11/mbedtls\aws_pkcs11_mbedtls.c ****                 else
1269:D:/Work/DeviceTester/amazon-freertos/lib/pkcs11/mbedtls\aws_pkcs11_mbedtls.c ****                 {
1270:D:/Work/DeviceTester/amazon-freertos/lib/pkcs11/mbedtls\aws_pkcs11_mbedtls.c ****                     xResult = CKR_KEY_HANDLE_INVALID;
1271:D:/Work/DeviceTester/amazon-freertos/lib/pkcs11/mbedtls\aws_pkcs11_mbedtls.c ****                 }
1272:D:/Work/DeviceTester/amazon-freertos/lib/pkcs11/mbedtls\aws_pkcs11_mbedtls.c **** 
1273:D:/Work/DeviceTester/amazon-freertos/lib/pkcs11/mbedtls\aws_pkcs11_mbedtls.c ****                 xSemaphoreGive( pxSession->xSignMutex );
1274:D:/Work/DeviceTester/amazon-freertos/lib/pkcs11/mbedtls\aws_pkcs11_mbedtls.c ****             }
1275:D:/Work/DeviceTester/amazon-freertos/lib/pkcs11/mbedtls\aws_pkcs11_mbedtls.c ****             else
1276:D:/Work/DeviceTester/amazon-freertos/lib/pkcs11/mbedtls\aws_pkcs11_mbedtls.c ****             {
1277:D:/Work/DeviceTester/amazon-freertos/lib/pkcs11/mbedtls\aws_pkcs11_mbedtls.c ****                 xResult = CKR_CANT_LOCK;
 1077              		.loc 1 1277 0
 1078 0064 0A50A013 		movne	r5, #10
 1079              	.LVL132:
1247:D:/Work/DeviceTester/amazon-freertos/lib/pkcs11/mbedtls\aws_pkcs11_mbedtls.c ****             {
 1080              		.loc 1 1247 0
 1081 0068 1600001A 		bne	.L141
1251:D:/Work/DeviceTester/amazon-freertos/lib/pkcs11/mbedtls\aws_pkcs11_mbedtls.c ****                 {
 1082              		.loc 1 1251 0
 1083 006c 2C3094E5 		ldr	r3, [r4, #44]
 1084 0070 285084E2 		add	r5, r4, #40
 1085 0074 000053E3 		cmp	r3, #0
 1086 0078 0100000A 		beq	.L142
1253:D:/Work/DeviceTester/amazon-freertos/lib/pkcs11/mbedtls\aws_pkcs11_mbedtls.c ****                 }
 1087              		.loc 1 1253 0
 1088 007c 0500A0E1 		mov	r0, r5
 1089 0080 FEFFFFEB 		bl	mbedtls_pk_free
 1090              	.LVL133:
 1091              	.L142:
1258:D:/Work/DeviceTester/amazon-freertos/lib/pkcs11/mbedtls\aws_pkcs11_mbedtls.c ****                 {
 1092              		.loc 1 1258 0
 1093 0084 0060A0E3 		mov	r6, #0
1256:D:/Work/DeviceTester/amazon-freertos/lib/pkcs11/mbedtls\aws_pkcs11_mbedtls.c **** 
 1094              		.loc 1 1256 0
 1095 0088 0500A0E1 		mov	r0, r5
 1096 008c FEFFFFEB 		bl	mbedtls_pk_init
 1097              	.LVL134:
1258:D:/Work/DeviceTester/amazon-freertos/lib/pkcs11/mbedtls\aws_pkcs11_mbedtls.c ****                 {
 1098              		.loc 1 1258 0
 1099 0090 0500A0E1 		mov	r0, r5
 1100 0094 0630A0E1 		mov	r3, r6
 1101 0098 14209DE5 		ldr	r2, [sp, #20]
 1102 009c 10109DE5 		ldr	r1, [sp, #16]
 1103 00a0 00608DE5 		str	r6, [sp]
 1104 00a4 FEFFFFEB 		bl	mbedtls_pk_parse_key
 1105              	.LVL135:
1273:D:/Work/DeviceTester/amazon-freertos/lib/pkcs11/mbedtls\aws_pkcs11_mbedtls.c ****             }
 1106              		.loc 1 1273 0
 1107 00a8 0630A0E1 		mov	r3, r6
1270:D:/Work/DeviceTester/amazon-freertos/lib/pkcs11/mbedtls\aws_pkcs11_mbedtls.c ****                 }
 1108              		.loc 1 1270 0
 1109 00ac 060050E1 		cmp	r0, r6
1273:D:/Work/DeviceTester/amazon-freertos/lib/pkcs11/mbedtls\aws_pkcs11_mbedtls.c ****             }
 1110              		.loc 1 1273 0
 1111 00b0 0620A0E1 		mov	r2, r6
 1112 00b4 0610A0E1 		mov	r1, r6
 1113 00b8 240094E5 		ldr	r0, [r4, #36]
1270:D:/Work/DeviceTester/amazon-freertos/lib/pkcs11/mbedtls\aws_pkcs11_mbedtls.c ****                 }
 1114              		.loc 1 1270 0
 1115 00bc 0750A001 		moveq	r5, r7
 1116 00c0 6050A013 		movne	r5, #96
 1117              	.LVL136:
1273:D:/Work/DeviceTester/amazon-freertos/lib/pkcs11/mbedtls\aws_pkcs11_mbedtls.c ****             }
 1118              		.loc 1 1273 0
 1119 00c4 FEFFFFEB 		bl	xQueueGenericSend
 1120              	.LVL137:
 1121              	.L141:
1278:D:/Work/DeviceTester/amazon-freertos/lib/pkcs11/mbedtls\aws_pkcs11_mbedtls.c ****             }
1279:D:/Work/DeviceTester/amazon-freertos/lib/pkcs11/mbedtls\aws_pkcs11_mbedtls.c ****         }
1280:D:/Work/DeviceTester/amazon-freertos/lib/pkcs11/mbedtls\aws_pkcs11_mbedtls.c **** 
1281:D:/Work/DeviceTester/amazon-freertos/lib/pkcs11/mbedtls\aws_pkcs11_mbedtls.c ****         PKCS11_PAL_GetObjectValueCleanup( keyData, ulKeyDataLength );
 1122              		.loc 1 1281 0
 1123 00c8 14109DE5 		ldr	r1, [sp, #20]
 1124 00cc 10009DE5 		ldr	r0, [sp, #16]
 1125 00d0 FEFFFFEB 		bl	PKCS11_PAL_GetObjectValueCleanup
 1126              	.LVL138:
 1127              	.L139:
1282:D:/Work/DeviceTester/amazon-freertos/lib/pkcs11/mbedtls\aws_pkcs11_mbedtls.c ****     }
1283:D:/Work/DeviceTester/amazon-freertos/lib/pkcs11/mbedtls\aws_pkcs11_mbedtls.c **** 
1284:D:/Work/DeviceTester/amazon-freertos/lib/pkcs11/mbedtls\aws_pkcs11_mbedtls.c ****     return xResult;
1285:D:/Work/DeviceTester/amazon-freertos/lib/pkcs11/mbedtls\aws_pkcs11_mbedtls.c **** }
 1128              		.loc 1 1285 0
 1129 00d4 0500A0E1 		mov	r0, r5
 1130 00d8 1CD08DE2 		add	sp, sp, #28
 1131              		.cfi_def_cfa_offset 20
 1132              		@ sp needed
 1133 00dc F080BDE8 		pop	{r4, r5, r6, r7, pc}
 1134              		.cfi_endproc
 1135              	.LFE24:
 1137              		.section	.text.C_VerifyInit,"ax",%progbits
 1138              		.align	2
 1139              		.global	C_VerifyInit
 1140              		.syntax unified
 1141              		.arm
 1142              		.fpu neon
 1144              	C_VerifyInit:
 1145              	.LFB26:
1286:D:/Work/DeviceTester/amazon-freertos/lib/pkcs11/mbedtls\aws_pkcs11_mbedtls.c **** 
1287:D:/Work/DeviceTester/amazon-freertos/lib/pkcs11/mbedtls\aws_pkcs11_mbedtls.c **** /**
1288:D:/Work/DeviceTester/amazon-freertos/lib/pkcs11/mbedtls\aws_pkcs11_mbedtls.c ****  * @brief Digitally sign the indicated cryptographic hash bytes.
1289:D:/Work/DeviceTester/amazon-freertos/lib/pkcs11/mbedtls\aws_pkcs11_mbedtls.c ****  */
1290:D:/Work/DeviceTester/amazon-freertos/lib/pkcs11/mbedtls\aws_pkcs11_mbedtls.c **** CK_DEFINE_FUNCTION( CK_RV, C_Sign )( CK_SESSION_HANDLE xSession,
1291:D:/Work/DeviceTester/amazon-freertos/lib/pkcs11/mbedtls\aws_pkcs11_mbedtls.c ****                                      CK_BYTE_PTR pucData,
1292:D:/Work/DeviceTester/amazon-freertos/lib/pkcs11/mbedtls\aws_pkcs11_mbedtls.c ****                                      CK_ULONG ulDataLen,
1293:D:/Work/DeviceTester/amazon-freertos/lib/pkcs11/mbedtls\aws_pkcs11_mbedtls.c ****                                      CK_BYTE_PTR pucSignature,
1294:D:/Work/DeviceTester/amazon-freertos/lib/pkcs11/mbedtls\aws_pkcs11_mbedtls.c ****                                      CK_ULONG_PTR pulSignatureLen )
1295:D:/Work/DeviceTester/amazon-freertos/lib/pkcs11/mbedtls\aws_pkcs11_mbedtls.c **** {   /*lint !e9072 It's OK to have different parameter name. */
1296:D:/Work/DeviceTester/amazon-freertos/lib/pkcs11/mbedtls\aws_pkcs11_mbedtls.c ****     CK_RV xResult = CKR_OK;
1297:D:/Work/DeviceTester/amazon-freertos/lib/pkcs11/mbedtls\aws_pkcs11_mbedtls.c ****     P11SessionPtr_t pxSessionObj = prvSessionPointerFromHandle( xSession );
1298:D:/Work/DeviceTester/amazon-freertos/lib/pkcs11/mbedtls\aws_pkcs11_mbedtls.c **** 
1299:D:/Work/DeviceTester/amazon-freertos/lib/pkcs11/mbedtls\aws_pkcs11_mbedtls.c ****     if( NULL == pulSignatureLen )
1300:D:/Work/DeviceTester/amazon-freertos/lib/pkcs11/mbedtls\aws_pkcs11_mbedtls.c ****     {
1301:D:/Work/DeviceTester/amazon-freertos/lib/pkcs11/mbedtls\aws_pkcs11_mbedtls.c ****         xResult = CKR_ARGUMENTS_BAD;
1302:D:/Work/DeviceTester/amazon-freertos/lib/pkcs11/mbedtls\aws_pkcs11_mbedtls.c ****     }
1303:D:/Work/DeviceTester/amazon-freertos/lib/pkcs11/mbedtls\aws_pkcs11_mbedtls.c **** 
1304:D:/Work/DeviceTester/amazon-freertos/lib/pkcs11/mbedtls\aws_pkcs11_mbedtls.c ****     if( CKR_OK == xResult )
1305:D:/Work/DeviceTester/amazon-freertos/lib/pkcs11/mbedtls\aws_pkcs11_mbedtls.c ****     {
1306:D:/Work/DeviceTester/amazon-freertos/lib/pkcs11/mbedtls\aws_pkcs11_mbedtls.c ****         if( NULL == pucSignature )
1307:D:/Work/DeviceTester/amazon-freertos/lib/pkcs11/mbedtls\aws_pkcs11_mbedtls.c ****         {
1308:D:/Work/DeviceTester/amazon-freertos/lib/pkcs11/mbedtls\aws_pkcs11_mbedtls.c ****             *pulSignatureLen = pkcs11SUPPORTED_KEY_BITS / 8;
1309:D:/Work/DeviceTester/amazon-freertos/lib/pkcs11/mbedtls\aws_pkcs11_mbedtls.c ****         }
1310:D:/Work/DeviceTester/amazon-freertos/lib/pkcs11/mbedtls\aws_pkcs11_mbedtls.c ****         else
1311:D:/Work/DeviceTester/amazon-freertos/lib/pkcs11/mbedtls\aws_pkcs11_mbedtls.c ****         {
1312:D:/Work/DeviceTester/amazon-freertos/lib/pkcs11/mbedtls\aws_pkcs11_mbedtls.c ****             /*
1313:D:/Work/DeviceTester/amazon-freertos/lib/pkcs11/mbedtls\aws_pkcs11_mbedtls.c ****              * Check algorithm support.
1314:D:/Work/DeviceTester/amazon-freertos/lib/pkcs11/mbedtls\aws_pkcs11_mbedtls.c ****              */
1315:D:/Work/DeviceTester/amazon-freertos/lib/pkcs11/mbedtls\aws_pkcs11_mbedtls.c ****             if( CKR_OK == xResult )
1316:D:/Work/DeviceTester/amazon-freertos/lib/pkcs11/mbedtls\aws_pkcs11_mbedtls.c ****             {
1317:D:/Work/DeviceTester/amazon-freertos/lib/pkcs11/mbedtls\aws_pkcs11_mbedtls.c ****                 if( ( CK_ULONG ) cryptoSHA256_DIGEST_BYTES != ulDataLen )
1318:D:/Work/DeviceTester/amazon-freertos/lib/pkcs11/mbedtls\aws_pkcs11_mbedtls.c ****                 {
1319:D:/Work/DeviceTester/amazon-freertos/lib/pkcs11/mbedtls\aws_pkcs11_mbedtls.c ****                     xResult = CKR_DATA_LEN_RANGE;
1320:D:/Work/DeviceTester/amazon-freertos/lib/pkcs11/mbedtls\aws_pkcs11_mbedtls.c ****                 }
1321:D:/Work/DeviceTester/amazon-freertos/lib/pkcs11/mbedtls\aws_pkcs11_mbedtls.c ****             }
1322:D:/Work/DeviceTester/amazon-freertos/lib/pkcs11/mbedtls\aws_pkcs11_mbedtls.c **** 
1323:D:/Work/DeviceTester/amazon-freertos/lib/pkcs11/mbedtls\aws_pkcs11_mbedtls.c ****             /*
1324:D:/Work/DeviceTester/amazon-freertos/lib/pkcs11/mbedtls\aws_pkcs11_mbedtls.c ****              * Sign the data.
1325:D:/Work/DeviceTester/amazon-freertos/lib/pkcs11/mbedtls\aws_pkcs11_mbedtls.c ****              */
1326:D:/Work/DeviceTester/amazon-freertos/lib/pkcs11/mbedtls\aws_pkcs11_mbedtls.c **** 
1327:D:/Work/DeviceTester/amazon-freertos/lib/pkcs11/mbedtls\aws_pkcs11_mbedtls.c ****             if( CKR_OK == xResult )
1328:D:/Work/DeviceTester/amazon-freertos/lib/pkcs11/mbedtls\aws_pkcs11_mbedtls.c ****             {
1329:D:/Work/DeviceTester/amazon-freertos/lib/pkcs11/mbedtls\aws_pkcs11_mbedtls.c ****                 if( pdTRUE == xSemaphoreTake( pxSessionObj->xSignMutex, portMAX_DELAY ) )
1330:D:/Work/DeviceTester/amazon-freertos/lib/pkcs11/mbedtls\aws_pkcs11_mbedtls.c ****                 {
1331:D:/Work/DeviceTester/amazon-freertos/lib/pkcs11/mbedtls\aws_pkcs11_mbedtls.c ****                     BaseType_t x = mbedtls_pk_sign( &pxSessionObj->xSignKey,
1332:D:/Work/DeviceTester/amazon-freertos/lib/pkcs11/mbedtls\aws_pkcs11_mbedtls.c ****                                                     MBEDTLS_MD_SHA256,
1333:D:/Work/DeviceTester/amazon-freertos/lib/pkcs11/mbedtls\aws_pkcs11_mbedtls.c ****                                                     pucData,
1334:D:/Work/DeviceTester/amazon-freertos/lib/pkcs11/mbedtls\aws_pkcs11_mbedtls.c ****                                                     ulDataLen,
1335:D:/Work/DeviceTester/amazon-freertos/lib/pkcs11/mbedtls\aws_pkcs11_mbedtls.c ****                                                     pucSignature,
1336:D:/Work/DeviceTester/amazon-freertos/lib/pkcs11/mbedtls\aws_pkcs11_mbedtls.c ****                                                     ( size_t * ) pulSignatureLen,
1337:D:/Work/DeviceTester/amazon-freertos/lib/pkcs11/mbedtls\aws_pkcs11_mbedtls.c ****                                                     mbedtls_ctr_drbg_random,
1338:D:/Work/DeviceTester/amazon-freertos/lib/pkcs11/mbedtls\aws_pkcs11_mbedtls.c ****                                                     &xP11Context.xMbedDrbgCtx );
1339:D:/Work/DeviceTester/amazon-freertos/lib/pkcs11/mbedtls\aws_pkcs11_mbedtls.c **** 
1340:D:/Work/DeviceTester/amazon-freertos/lib/pkcs11/mbedtls\aws_pkcs11_mbedtls.c ****                     if( x != CKR_OK )
1341:D:/Work/DeviceTester/amazon-freertos/lib/pkcs11/mbedtls\aws_pkcs11_mbedtls.c ****                     {
1342:D:/Work/DeviceTester/amazon-freertos/lib/pkcs11/mbedtls\aws_pkcs11_mbedtls.c ****                         xResult = CKR_FUNCTION_FAILED;
1343:D:/Work/DeviceTester/amazon-freertos/lib/pkcs11/mbedtls\aws_pkcs11_mbedtls.c ****                     }
1344:D:/Work/DeviceTester/amazon-freertos/lib/pkcs11/mbedtls\aws_pkcs11_mbedtls.c **** 
1345:D:/Work/DeviceTester/amazon-freertos/lib/pkcs11/mbedtls\aws_pkcs11_mbedtls.c ****                     xSemaphoreGive( pxSessionObj->xSignMutex );
1346:D:/Work/DeviceTester/amazon-freertos/lib/pkcs11/mbedtls\aws_pkcs11_mbedtls.c ****                 }
1347:D:/Work/DeviceTester/amazon-freertos/lib/pkcs11/mbedtls\aws_pkcs11_mbedtls.c ****                 else
1348:D:/Work/DeviceTester/amazon-freertos/lib/pkcs11/mbedtls\aws_pkcs11_mbedtls.c ****                 {
1349:D:/Work/DeviceTester/amazon-freertos/lib/pkcs11/mbedtls\aws_pkcs11_mbedtls.c ****                     xResult = CKR_CANT_LOCK;
1350:D:/Work/DeviceTester/amazon-freertos/lib/pkcs11/mbedtls\aws_pkcs11_mbedtls.c ****                 }
1351:D:/Work/DeviceTester/amazon-freertos/lib/pkcs11/mbedtls\aws_pkcs11_mbedtls.c ****             }
1352:D:/Work/DeviceTester/amazon-freertos/lib/pkcs11/mbedtls\aws_pkcs11_mbedtls.c ****         }
1353:D:/Work/DeviceTester/amazon-freertos/lib/pkcs11/mbedtls\aws_pkcs11_mbedtls.c ****     }
1354:D:/Work/DeviceTester/amazon-freertos/lib/pkcs11/mbedtls\aws_pkcs11_mbedtls.c **** 
1355:D:/Work/DeviceTester/amazon-freertos/lib/pkcs11/mbedtls\aws_pkcs11_mbedtls.c ****     return xResult;
1356:D:/Work/DeviceTester/amazon-freertos/lib/pkcs11/mbedtls\aws_pkcs11_mbedtls.c **** }
1357:D:/Work/DeviceTester/amazon-freertos/lib/pkcs11/mbedtls\aws_pkcs11_mbedtls.c **** 
1358:D:/Work/DeviceTester/amazon-freertos/lib/pkcs11/mbedtls\aws_pkcs11_mbedtls.c **** /**
1359:D:/Work/DeviceTester/amazon-freertos/lib/pkcs11/mbedtls\aws_pkcs11_mbedtls.c ****  * @brief Begin a digital signature verification session.
1360:D:/Work/DeviceTester/amazon-freertos/lib/pkcs11/mbedtls\aws_pkcs11_mbedtls.c ****  */
1361:D:/Work/DeviceTester/amazon-freertos/lib/pkcs11/mbedtls\aws_pkcs11_mbedtls.c **** CK_DEFINE_FUNCTION( CK_RV, C_VerifyInit )( CK_SESSION_HANDLE xSession,
1362:D:/Work/DeviceTester/amazon-freertos/lib/pkcs11/mbedtls\aws_pkcs11_mbedtls.c ****                                            CK_MECHANISM_PTR pxMechanism,
1363:D:/Work/DeviceTester/amazon-freertos/lib/pkcs11/mbedtls\aws_pkcs11_mbedtls.c ****                                            CK_OBJECT_HANDLE xKey )
1364:D:/Work/DeviceTester/amazon-freertos/lib/pkcs11/mbedtls\aws_pkcs11_mbedtls.c **** {
 1146              		.loc 1 1364 0
 1147              		.cfi_startproc
 1148              		@ args = 0, pretend = 0, frame = 16
 1149              		@ frame_needed = 0, uses_anonymous_args = 0
 1150              	.LVL139:
 1151 0000 70402DE9 		push	{r4, r5, r6, lr}
 1152              		.cfi_def_cfa_offset 16
 1153              		.cfi_offset 4, -16
 1154              		.cfi_offset 5, -12
 1155              		.cfi_offset 6, -8
 1156              		.cfi_offset 14, -4
1365:D:/Work/DeviceTester/amazon-freertos/lib/pkcs11/mbedtls\aws_pkcs11_mbedtls.c ****     CK_RV xResult = CKR_OK;
1366:D:/Work/DeviceTester/amazon-freertos/lib/pkcs11/mbedtls\aws_pkcs11_mbedtls.c ****     CK_BBOOL xIsPrivate = CK_TRUE;
 1157              		.loc 1 1366 0
 1158 0004 0130A0E3 		mov	r3, #1
1364:D:/Work/DeviceTester/amazon-freertos/lib/pkcs11/mbedtls\aws_pkcs11_mbedtls.c ****     CK_RV xResult = CKR_OK;
 1159              		.loc 1 1364 0
 1160 0008 18D04DE2 		sub	sp, sp, #24
 1161              		.cfi_def_cfa_offset 40
 1162              		.loc 1 1366 0
 1163 000c 0F30CDE5 		strb	r3, [sp, #15]
1367:D:/Work/DeviceTester/amazon-freertos/lib/pkcs11/mbedtls\aws_pkcs11_mbedtls.c ****     P11SessionPtr_t pxSession;
1368:D:/Work/DeviceTester/amazon-freertos/lib/pkcs11/mbedtls\aws_pkcs11_mbedtls.c ****     uint8_t * keyData = NULL;
 1164              		.loc 1 1368 0
 1165 0010 0030A0E3 		mov	r3, #0
1369:D:/Work/DeviceTester/amazon-freertos/lib/pkcs11/mbedtls\aws_pkcs11_mbedtls.c ****     uint32_t ulKeyDataLength = 0;
1370:D:/Work/DeviceTester/amazon-freertos/lib/pkcs11/mbedtls\aws_pkcs11_mbedtls.c **** 
1371:D:/Work/DeviceTester/amazon-freertos/lib/pkcs11/mbedtls\aws_pkcs11_mbedtls.c ****     /*lint !e9072 It's OK to have different parameter name. */
1372:D:/Work/DeviceTester/amazon-freertos/lib/pkcs11/mbedtls\aws_pkcs11_mbedtls.c ****     ( void ) ( xSession );
1373:D:/Work/DeviceTester/amazon-freertos/lib/pkcs11/mbedtls\aws_pkcs11_mbedtls.c **** 
1374:D:/Work/DeviceTester/amazon-freertos/lib/pkcs11/mbedtls\aws_pkcs11_mbedtls.c ****     pxSession = prvSessionPointerFromHandle( xSession );
1375:D:/Work/DeviceTester/amazon-freertos/lib/pkcs11/mbedtls\aws_pkcs11_mbedtls.c **** 
1376:D:/Work/DeviceTester/amazon-freertos/lib/pkcs11/mbedtls\aws_pkcs11_mbedtls.c ****     if( NULL == pxMechanism )
 1166              		.loc 1 1376 0
 1167 0014 030051E1 		cmp	r1, r3
1368:D:/Work/DeviceTester/amazon-freertos/lib/pkcs11/mbedtls\aws_pkcs11_mbedtls.c ****     uint32_t ulKeyDataLength = 0;
 1168              		.loc 1 1368 0
 1169 0018 10308DE5 		str	r3, [sp, #16]
1369:D:/Work/DeviceTester/amazon-freertos/lib/pkcs11/mbedtls\aws_pkcs11_mbedtls.c ****     uint32_t ulKeyDataLength = 0;
 1170              		.loc 1 1369 0
 1171 001c 14308DE5 		str	r3, [sp, #20]
 1172              		.loc 1 1376 0
1377:D:/Work/DeviceTester/amazon-freertos/lib/pkcs11/mbedtls\aws_pkcs11_mbedtls.c ****     {
1378:D:/Work/DeviceTester/amazon-freertos/lib/pkcs11/mbedtls\aws_pkcs11_mbedtls.c ****         xResult = CKR_ARGUMENTS_BAD;
 1173              		.loc 1 1378 0
 1174 0020 0740A003 		moveq	r4, #7
1379:D:/Work/DeviceTester/amazon-freertos/lib/pkcs11/mbedtls\aws_pkcs11_mbedtls.c ****     }
1380:D:/Work/DeviceTester/amazon-freertos/lib/pkcs11/mbedtls\aws_pkcs11_mbedtls.c **** 
1381:D:/Work/DeviceTester/amazon-freertos/lib/pkcs11/mbedtls\aws_pkcs11_mbedtls.c ****     if( xResult == CKR_OK )
1382:D:/Work/DeviceTester/amazon-freertos/lib/pkcs11/mbedtls\aws_pkcs11_mbedtls.c ****     {
1383:D:/Work/DeviceTester/amazon-freertos/lib/pkcs11/mbedtls\aws_pkcs11_mbedtls.c ****         xResult = PKCS11_PAL_GetObjectValue( xKey, &keyData, &ulKeyDataLength, &xIsPrivate );
1384:D:/Work/DeviceTester/amazon-freertos/lib/pkcs11/mbedtls\aws_pkcs11_mbedtls.c ****     }
1385:D:/Work/DeviceTester/amazon-freertos/lib/pkcs11/mbedtls\aws_pkcs11_mbedtls.c **** 
1386:D:/Work/DeviceTester/amazon-freertos/lib/pkcs11/mbedtls\aws_pkcs11_mbedtls.c ****     if( ( xResult == CKR_OK ) && ( xIsPrivate != CK_FALSE ) )
1387:D:/Work/DeviceTester/amazon-freertos/lib/pkcs11/mbedtls\aws_pkcs11_mbedtls.c ****     {
1388:D:/Work/DeviceTester/amazon-freertos/lib/pkcs11/mbedtls\aws_pkcs11_mbedtls.c ****         xResult = CKR_KEY_TYPE_INCONSISTENT;
1389:D:/Work/DeviceTester/amazon-freertos/lib/pkcs11/mbedtls\aws_pkcs11_mbedtls.c ****         PKCS11_PAL_GetObjectValueCleanup( keyData, ulKeyDataLength );
1390:D:/Work/DeviceTester/amazon-freertos/lib/pkcs11/mbedtls\aws_pkcs11_mbedtls.c ****     }
1391:D:/Work/DeviceTester/amazon-freertos/lib/pkcs11/mbedtls\aws_pkcs11_mbedtls.c **** 
1392:D:/Work/DeviceTester/amazon-freertos/lib/pkcs11/mbedtls\aws_pkcs11_mbedtls.c ****     if( xResult == CKR_OK )
1393:D:/Work/DeviceTester/amazon-freertos/lib/pkcs11/mbedtls\aws_pkcs11_mbedtls.c ****     {
1394:D:/Work/DeviceTester/amazon-freertos/lib/pkcs11/mbedtls\aws_pkcs11_mbedtls.c ****         if( pdTRUE == xSemaphoreTake( pxSession->xVerifyMutex, portMAX_DELAY ) )
1395:D:/Work/DeviceTester/amazon-freertos/lib/pkcs11/mbedtls\aws_pkcs11_mbedtls.c ****         {
1396:D:/Work/DeviceTester/amazon-freertos/lib/pkcs11/mbedtls\aws_pkcs11_mbedtls.c ****             /* Free the public key context if it exists.
1397:D:/Work/DeviceTester/amazon-freertos/lib/pkcs11/mbedtls\aws_pkcs11_mbedtls.c ****             * TODO: Check if the key is the same as used by last verify operation. */
1398:D:/Work/DeviceTester/amazon-freertos/lib/pkcs11/mbedtls\aws_pkcs11_mbedtls.c ****             if ( NULL != pxSession->xVerifyKey.pk_ctx )
1399:D:/Work/DeviceTester/amazon-freertos/lib/pkcs11/mbedtls\aws_pkcs11_mbedtls.c ****             {
1400:D:/Work/DeviceTester/amazon-freertos/lib/pkcs11/mbedtls\aws_pkcs11_mbedtls.c ****                 mbedtls_pk_free( &pxSession->xVerifyKey );
1401:D:/Work/DeviceTester/amazon-freertos/lib/pkcs11/mbedtls\aws_pkcs11_mbedtls.c ****             }
1402:D:/Work/DeviceTester/amazon-freertos/lib/pkcs11/mbedtls\aws_pkcs11_mbedtls.c **** 
1403:D:/Work/DeviceTester/amazon-freertos/lib/pkcs11/mbedtls\aws_pkcs11_mbedtls.c ****             mbedtls_pk_init( &pxSession->xVerifyKey );
1404:D:/Work/DeviceTester/amazon-freertos/lib/pkcs11/mbedtls\aws_pkcs11_mbedtls.c **** 
1405:D:/Work/DeviceTester/amazon-freertos/lib/pkcs11/mbedtls\aws_pkcs11_mbedtls.c ****             if( 0 != mbedtls_pk_parse_public_key( &pxSession->xVerifyKey, keyData, ulKeyDataLength 
1406:D:/Work/DeviceTester/amazon-freertos/lib/pkcs11/mbedtls\aws_pkcs11_mbedtls.c ****             {
1407:D:/Work/DeviceTester/amazon-freertos/lib/pkcs11/mbedtls\aws_pkcs11_mbedtls.c ****                 if( 0 != mbedtls_pk_parse_key( &pxSession->xVerifyKey, keyData, ulKeyDataLength, NU
1408:D:/Work/DeviceTester/amazon-freertos/lib/pkcs11/mbedtls\aws_pkcs11_mbedtls.c ****                 {
1409:D:/Work/DeviceTester/amazon-freertos/lib/pkcs11/mbedtls\aws_pkcs11_mbedtls.c ****                     xResult = CKR_KEY_HANDLE_INVALID;
1410:D:/Work/DeviceTester/amazon-freertos/lib/pkcs11/mbedtls\aws_pkcs11_mbedtls.c ****                 }
1411:D:/Work/DeviceTester/amazon-freertos/lib/pkcs11/mbedtls\aws_pkcs11_mbedtls.c ****             }
1412:D:/Work/DeviceTester/amazon-freertos/lib/pkcs11/mbedtls\aws_pkcs11_mbedtls.c **** 
1413:D:/Work/DeviceTester/amazon-freertos/lib/pkcs11/mbedtls\aws_pkcs11_mbedtls.c ****             xSemaphoreGive( pxSession->xVerifyMutex );
1414:D:/Work/DeviceTester/amazon-freertos/lib/pkcs11/mbedtls\aws_pkcs11_mbedtls.c ****         }
1415:D:/Work/DeviceTester/amazon-freertos/lib/pkcs11/mbedtls\aws_pkcs11_mbedtls.c ****         else
1416:D:/Work/DeviceTester/amazon-freertos/lib/pkcs11/mbedtls\aws_pkcs11_mbedtls.c ****         {
1417:D:/Work/DeviceTester/amazon-freertos/lib/pkcs11/mbedtls\aws_pkcs11_mbedtls.c ****             xResult = CKR_CANT_LOCK;
1418:D:/Work/DeviceTester/amazon-freertos/lib/pkcs11/mbedtls\aws_pkcs11_mbedtls.c ****         }
1419:D:/Work/DeviceTester/amazon-freertos/lib/pkcs11/mbedtls\aws_pkcs11_mbedtls.c **** 
1420:D:/Work/DeviceTester/amazon-freertos/lib/pkcs11/mbedtls\aws_pkcs11_mbedtls.c ****         PKCS11_PAL_GetObjectValueCleanup( keyData, ulKeyDataLength );
1421:D:/Work/DeviceTester/amazon-freertos/lib/pkcs11/mbedtls\aws_pkcs11_mbedtls.c ****     }
1422:D:/Work/DeviceTester/amazon-freertos/lib/pkcs11/mbedtls\aws_pkcs11_mbedtls.c **** 
1423:D:/Work/DeviceTester/amazon-freertos/lib/pkcs11/mbedtls\aws_pkcs11_mbedtls.c ****     return xResult;
 1175              		.loc 1 1423 0
 1176 0024 0E00000A 		beq	.L153
 1177              	.L170:
 1178 0028 0050A0E1 		mov	r5, r0
1383:D:/Work/DeviceTester/amazon-freertos/lib/pkcs11/mbedtls\aws_pkcs11_mbedtls.c ****     }
 1179              		.loc 1 1383 0
 1180 002c 0F308DE2 		add	r3, sp, #15
 1181 0030 0200A0E1 		mov	r0, r2
 1182              	.LVL140:
 1183 0034 10108DE2 		add	r1, sp, #16
 1184              	.LVL141:
 1185 0038 14208DE2 		add	r2, sp, #20
 1186              	.LVL142:
 1187 003c FEFFFFEB 		bl	PKCS11_PAL_GetObjectValue
 1188              	.LVL143:
1386:D:/Work/DeviceTester/amazon-freertos/lib/pkcs11/mbedtls\aws_pkcs11_mbedtls.c ****     {
 1189              		.loc 1 1386 0
 1190 0040 004050E2 		subs	r4, r0, #0
 1191 0044 0600001A 		bne	.L153
1386:D:/Work/DeviceTester/amazon-freertos/lib/pkcs11/mbedtls\aws_pkcs11_mbedtls.c ****     {
 1192              		.loc 1 1386 0 is_stmt 0 discriminator 1
 1193 0048 0F30DDE5 		ldrb	r3, [sp, #15]	@ zero_extendqisi2
 1194 004c 000053E3 		cmp	r3, #0
 1195 0050 0600000A 		beq	.L156
 1196              	.LVL144:
1388:D:/Work/DeviceTester/amazon-freertos/lib/pkcs11/mbedtls\aws_pkcs11_mbedtls.c ****         PKCS11_PAL_GetObjectValueCleanup( keyData, ulKeyDataLength );
 1197              		.loc 1 1388 0 is_stmt 1
 1198 0054 6340A0E3 		mov	r4, #99
1389:D:/Work/DeviceTester/amazon-freertos/lib/pkcs11/mbedtls\aws_pkcs11_mbedtls.c ****     }
 1199              		.loc 1 1389 0
 1200 0058 14109DE5 		ldr	r1, [sp, #20]
 1201 005c 10009DE5 		ldr	r0, [sp, #16]
 1202 0060 FEFFFFEB 		bl	PKCS11_PAL_GetObjectValueCleanup
 1203              	.LVL145:
 1204              	.L153:
1424:D:/Work/DeviceTester/amazon-freertos/lib/pkcs11/mbedtls\aws_pkcs11_mbedtls.c **** }
 1205              		.loc 1 1424 0
 1206 0064 0400A0E1 		mov	r0, r4
 1207 0068 18D08DE2 		add	sp, sp, #24
 1208              		.cfi_remember_state
 1209              		.cfi_def_cfa_offset 16
 1210              		@ sp needed
 1211 006c 7080BDE8 		pop	{r4, r5, r6, pc}
 1212              	.LVL146:
 1213              	.L156:
 1214              		.cfi_restore_state
1394:D:/Work/DeviceTester/amazon-freertos/lib/pkcs11/mbedtls\aws_pkcs11_mbedtls.c ****         {
 1215              		.loc 1 1394 0
 1216 0070 0010E0E3 		mvn	r1, #0
 1217 0074 180095E5 		ldr	r0, [r5, #24]
 1218 0078 FEFFFFEB 		bl	xQueueSemaphoreTake
 1219              	.LVL147:
 1220 007c 010050E3 		cmp	r0, #1
1417:D:/Work/DeviceTester/amazon-freertos/lib/pkcs11/mbedtls\aws_pkcs11_mbedtls.c ****         }
 1221              		.loc 1 1417 0
 1222 0080 0A40A013 		movne	r4, #10
1394:D:/Work/DeviceTester/amazon-freertos/lib/pkcs11/mbedtls\aws_pkcs11_mbedtls.c ****         {
 1223              		.loc 1 1394 0
 1224 0084 1A00001A 		bne	.L163
1398:D:/Work/DeviceTester/amazon-freertos/lib/pkcs11/mbedtls\aws_pkcs11_mbedtls.c ****             {
 1225              		.loc 1 1398 0
 1226 0088 203095E5 		ldr	r3, [r5, #32]
 1227 008c 1C6085E2 		add	r6, r5, #28
 1228 0090 000053E3 		cmp	r3, #0
 1229 0094 0100000A 		beq	.L157
1400:D:/Work/DeviceTester/amazon-freertos/lib/pkcs11/mbedtls\aws_pkcs11_mbedtls.c ****             }
 1230              		.loc 1 1400 0
 1231 0098 0600A0E1 		mov	r0, r6
 1232 009c FEFFFFEB 		bl	mbedtls_pk_free
 1233              	.LVL148:
 1234              	.L157:
1403:D:/Work/DeviceTester/amazon-freertos/lib/pkcs11/mbedtls\aws_pkcs11_mbedtls.c **** 
 1235              		.loc 1 1403 0
 1236 00a0 0600A0E1 		mov	r0, r6
 1237 00a4 FEFFFFEB 		bl	mbedtls_pk_init
 1238              	.LVL149:
1405:D:/Work/DeviceTester/amazon-freertos/lib/pkcs11/mbedtls\aws_pkcs11_mbedtls.c ****             {
 1239              		.loc 1 1405 0
 1240 00a8 14209DE5 		ldr	r2, [sp, #20]
 1241 00ac 0600A0E1 		mov	r0, r6
 1242 00b0 10109DE5 		ldr	r1, [sp, #16]
 1243 00b4 FEFFFFEB 		bl	mbedtls_pk_parse_public_key
 1244              	.LVL150:
 1245 00b8 000050E3 		cmp	r0, #0
 1246 00bc 0700000A 		beq	.L159
1407:D:/Work/DeviceTester/amazon-freertos/lib/pkcs11/mbedtls\aws_pkcs11_mbedtls.c ****                 {
 1247              		.loc 1 1407 0
 1248 00c0 0030A0E3 		mov	r3, #0
 1249 00c4 14209DE5 		ldr	r2, [sp, #20]
 1250 00c8 00308DE5 		str	r3, [sp]
 1251 00cc 0600A0E1 		mov	r0, r6
 1252 00d0 10109DE5 		ldr	r1, [sp, #16]
 1253 00d4 FEFFFFEB 		bl	mbedtls_pk_parse_key
 1254              	.LVL151:
1409:D:/Work/DeviceTester/amazon-freertos/lib/pkcs11/mbedtls\aws_pkcs11_mbedtls.c ****                 }
 1255              		.loc 1 1409 0
 1256 00d8 000050E3 		cmp	r0, #0
 1257 00dc 6040A013 		movne	r4, #96
 1258              	.L159:
 1259              	.LVL152:
1413:D:/Work/DeviceTester/amazon-freertos/lib/pkcs11/mbedtls\aws_pkcs11_mbedtls.c ****         }
 1260              		.loc 1 1413 0
 1261 00e0 0030A0E3 		mov	r3, #0
 1262 00e4 180095E5 		ldr	r0, [r5, #24]
 1263 00e8 0320A0E1 		mov	r2, r3
 1264 00ec 0310A0E1 		mov	r1, r3
 1265 00f0 FEFFFFEB 		bl	xQueueGenericSend
 1266              	.LVL153:
 1267              	.L163:
1420:D:/Work/DeviceTester/amazon-freertos/lib/pkcs11/mbedtls\aws_pkcs11_mbedtls.c ****     }
 1268              		.loc 1 1420 0
 1269 00f4 14109DE5 		ldr	r1, [sp, #20]
 1270 00f8 10009DE5 		ldr	r0, [sp, #16]
 1271 00fc FEFFFFEB 		bl	PKCS11_PAL_GetObjectValueCleanup
 1272              	.LVL154:
 1273 0100 D7FFFFEA 		b	.L153
 1274              		.cfi_endproc
 1275              	.LFE26:
 1277              		.section	.text.C_FindObjects,"ax",%progbits
 1278              		.align	2
 1279              		.global	C_FindObjects
 1280              		.syntax unified
 1281              		.arm
 1282              		.fpu neon
 1284              	C_FindObjects:
 1285              	.LFB19:
1023:D:/Work/DeviceTester/amazon-freertos/lib/pkcs11/mbedtls\aws_pkcs11_mbedtls.c ****     CK_RV xResult = CKR_OK;
 1286              		.loc 1 1023 0
 1287              		.cfi_startproc
 1288              		@ args = 0, pretend = 0, frame = 0
 1289              		@ frame_needed = 0, uses_anonymous_args = 0
 1290              	.LVL155:
1031:D:/Work/DeviceTester/amazon-freertos/lib/pkcs11/mbedtls\aws_pkcs11_mbedtls.c ****         ( NULL == pulObjectCount ) )
 1291              		.loc 1 1031 0
 1292 0000 000053E3 		cmp	r3, #0
 1293 0004 00005113 		cmpne	r1, #0
1023:D:/Work/DeviceTester/amazon-freertos/lib/pkcs11/mbedtls\aws_pkcs11_mbedtls.c ****     CK_RV xResult = CKR_OK;
 1294              		.loc 1 1023 0
 1295 0008 F0412DE9 		push	{r4, r5, r6, r7, r8, lr}
 1296              		.cfi_def_cfa_offset 24
 1297              		.cfi_offset 4, -24
 1298              		.cfi_offset 5, -20
 1299              		.cfi_offset 6, -16
 1300              		.cfi_offset 7, -12
 1301              		.cfi_offset 8, -8
 1302              		.cfi_offset 14, -4
1034:D:/Work/DeviceTester/amazon-freertos/lib/pkcs11/mbedtls\aws_pkcs11_mbedtls.c ****         xDone = pdTRUE;
 1303              		.loc 1 1034 0
 1304 000c 07C0A003 		moveq	ip, #7
1031:D:/Work/DeviceTester/amazon-freertos/lib/pkcs11/mbedtls\aws_pkcs11_mbedtls.c ****         ( NULL == pulObjectCount ) )
 1305              		.loc 1 1031 0
 1306 0010 0140A003 		moveq	r4, #1
 1307 0014 0040A013 		movne	r4, #0
 1308 0018 0140A003 		moveq	r4, #1
 1309 001c 0400000A 		beq	.L176
1038:D:/Work/DeviceTester/amazon-freertos/lib/pkcs11/mbedtls\aws_pkcs11_mbedtls.c ****         ( ( CK_BBOOL ) CK_FALSE == pxSession->xFindObjectInit ) )
 1310              		.loc 1 1038 0
 1311 0020 0CC0D0E5 		ldrb	ip, [r0, #12]	@ zero_extendqisi2
 1312 0024 00005CE3 		cmp	ip, #0
1042:D:/Work/DeviceTester/amazon-freertos/lib/pkcs11/mbedtls\aws_pkcs11_mbedtls.c ****     }
 1313              		.loc 1 1042 0
 1314 0028 0140A003 		moveq	r4, #1
1041:D:/Work/DeviceTester/amazon-freertos/lib/pkcs11/mbedtls\aws_pkcs11_mbedtls.c ****         xDone = pdTRUE;
 1315              		.loc 1 1041 0
 1316 002c 91C0A003 		moveq	ip, #145
1038:D:/Work/DeviceTester/amazon-freertos/lib/pkcs11/mbedtls\aws_pkcs11_mbedtls.c ****         ( ( CK_BBOOL ) CK_FALSE == pxSession->xFindObjectInit ) )
 1317              		.loc 1 1038 0
1024:D:/Work/DeviceTester/amazon-freertos/lib/pkcs11/mbedtls\aws_pkcs11_mbedtls.c ****     BaseType_t xDone = pdFALSE;
 1318              		.loc 1 1024 0
 1319 0030 04C0A011 		movne	ip, r4
 1320              	.L176:
 1321              	.LVL156:
1045:D:/Work/DeviceTester/amazon-freertos/lib/pkcs11/mbedtls\aws_pkcs11_mbedtls.c ****     {
 1322              		.loc 1 1045 0
 1323 0034 01E024E2 		eor	lr, r4, #1
 1324 0038 000052E3 		cmp	r2, #0
 1325 003c 0020A013 		movne	r2, #0
 1326 0040 01200E02 		andeq	r2, lr, #1
 1327              	.LVL157:
 1328 0044 000052E3 		cmp	r2, #0
1047:D:/Work/DeviceTester/amazon-freertos/lib/pkcs11/mbedtls\aws_pkcs11_mbedtls.c ****         xDone = pdTRUE;
 1329              		.loc 1 1047 0
 1330 0048 07C0A013 		movne	ip, #7
1045:D:/Work/DeviceTester/amazon-freertos/lib/pkcs11/mbedtls\aws_pkcs11_mbedtls.c ****     {
 1331              		.loc 1 1045 0
 1332 004c 1600001A 		bne	.L172
1051:D:/Work/DeviceTester/amazon-freertos/lib/pkcs11/mbedtls\aws_pkcs11_mbedtls.c ****     {
 1333              		.loc 1 1051 0
 1334 0050 000054E3 		cmp	r4, #0
 1335 0054 1400001A 		bne	.L172
 1336              	.LVL158:
1051:D:/Work/DeviceTester/amazon-freertos/lib/pkcs11/mbedtls\aws_pkcs11_mbedtls.c ****     {
 1337              		.loc 1 1051 0 is_stmt 0 discriminator 1
 1338 0058 0D20D0E5 		ldrb	r2, [r0, #13]	@ zero_extendqisi2
 1339 005c 010052E3 		cmp	r2, #1
1053:D:/Work/DeviceTester/amazon-freertos/lib/pkcs11/mbedtls\aws_pkcs11_mbedtls.c ****         xResult = CKR_OK;
 1340              		.loc 1 1053 0 is_stmt 1 discriminator 1
 1341 0060 00408305 		streq	r4, [r3]
1051:D:/Work/DeviceTester/amazon-freertos/lib/pkcs11/mbedtls\aws_pkcs11_mbedtls.c ****     {
 1342              		.loc 1 1051 0 discriminator 1
 1343 0064 0F00000A 		beq	.L183
 1344 0068 0170A0E1 		mov	r7, r1
 1345 006c 0050A0E1 		mov	r5, r0
1060:D:/Work/DeviceTester/amazon-freertos/lib/pkcs11/mbedtls\aws_pkcs11_mbedtls.c **** 
 1346              		.loc 1 1060 0
 1347 0070 1410D0E5 		ldrb	r1, [r0, #20]	@ zero_extendqisi2
 1348              	.LVL159:
 1349 0074 0360A0E1 		mov	r6, r3
 1350 0078 100090E5 		ldr	r0, [r0, #16]
 1351              	.LVL160:
 1352 007c FEFFFFEB 		bl	PKCS11_PAL_FindObject
 1353              	.LVL161:
1062:D:/Work/DeviceTester/amazon-freertos/lib/pkcs11/mbedtls\aws_pkcs11_mbedtls.c ****         {
 1354              		.loc 1 1062 0
 1355 0080 000050E3 		cmp	r0, #0
1060:D:/Work/DeviceTester/amazon-freertos/lib/pkcs11/mbedtls\aws_pkcs11_mbedtls.c **** 
 1356              		.loc 1 1060 0
 1357 0084 000087E5 		str	r0, [r7]
1064:D:/Work/DeviceTester/amazon-freertos/lib/pkcs11/mbedtls\aws_pkcs11_mbedtls.c ****             xResult = CKR_OK;
 1358              		.loc 1 1064 0
 1359 0088 0130A013 		movne	r3, #1
 1360 008c 00308615 		strne	r3, [r6]
1062:D:/Work/DeviceTester/amazon-freertos/lib/pkcs11/mbedtls\aws_pkcs11_mbedtls.c ****         {
 1361              		.loc 1 1062 0
 1362 0090 0400001A 		bne	.L183
1069:D:/Work/DeviceTester/amazon-freertos/lib/pkcs11/mbedtls\aws_pkcs11_mbedtls.c ****             xResult = CKR_FUNCTION_FAILED;
 1363              		.loc 1 1069 0
 1364 0094 101095E5 		ldr	r1, [r5, #16]
 1365 0098 14009FE5 		ldr	r0, .L184
 1366 009c FEFFFFEB 		bl	vLoggingPrintf
 1367              	.LVL162:
1070:D:/Work/DeviceTester/amazon-freertos/lib/pkcs11/mbedtls\aws_pkcs11_mbedtls.c ****         }
 1368              		.loc 1 1070 0
 1369 00a0 06C0A0E3 		mov	ip, #6
 1370 00a4 000000EA 		b	.L172
 1371              	.LVL163:
 1372              	.L183:
1065:D:/Work/DeviceTester/amazon-freertos/lib/pkcs11/mbedtls\aws_pkcs11_mbedtls.c ****         }
 1373              		.loc 1 1065 0
 1374 00a8 04C0A0E1 		mov	ip, r4
 1375              	.LVL164:
 1376              	.L172:
1075:D:/Work/DeviceTester/amazon-freertos/lib/pkcs11/mbedtls\aws_pkcs11_mbedtls.c **** 
 1377              		.loc 1 1075 0
 1378 00ac 0C00A0E1 		mov	r0, ip
 1379 00b0 F081BDE8 		pop	{r4, r5, r6, r7, r8, pc}
 1380              	.L185:
 1381              		.align	2
 1382              	.L184:
 1383 00b4 00000000 		.word	.LC4
 1384              		.cfi_endproc
 1385              	.LFE19:
 1387              		.section	.text.C_DigestInit,"ax",%progbits
 1388              		.align	2
 1389              		.global	C_DigestInit
 1390              		.syntax unified
 1391              		.arm
 1392              		.fpu neon
 1394              	C_DigestInit:
 1395              	.LFB21:
1110:D:/Work/DeviceTester/amazon-freertos/lib/pkcs11/mbedtls\aws_pkcs11_mbedtls.c ****     CK_RV xResult = CKR_OK;
 1396              		.loc 1 1110 0
 1397              		.cfi_startproc
 1398              		@ args = 0, pretend = 0, frame = 0
 1399              		@ frame_needed = 0, uses_anonymous_args = 0
 1400              	.LVL165:
1119:D:/Work/DeviceTester/amazon-freertos/lib/pkcs11/mbedtls\aws_pkcs11_mbedtls.c ****     {
 1401              		.loc 1 1119 0
 1402 0000 003091E5 		ldr	r3, [r1]
1116:D:/Work/DeviceTester/amazon-freertos/lib/pkcs11/mbedtls\aws_pkcs11_mbedtls.c ****     }
 1403              		.loc 1 1116 0
 1404 0004 000050E3 		cmp	r0, #0
1110:D:/Work/DeviceTester/amazon-freertos/lib/pkcs11/mbedtls\aws_pkcs11_mbedtls.c ****     CK_RV xResult = CKR_OK;
 1405              		.loc 1 1110 0
 1406 0008 F0412DE9 		push	{r4, r5, r6, r7, r8, lr}
 1407              		.cfi_def_cfa_offset 24
 1408              		.cfi_offset 4, -24
 1409              		.cfi_offset 5, -20
 1410              		.cfi_offset 6, -16
 1411              		.cfi_offset 7, -12
 1412              		.cfi_offset 8, -8
 1413              		.cfi_offset 14, -4
1116:D:/Work/DeviceTester/amazon-freertos/lib/pkcs11/mbedtls\aws_pkcs11_mbedtls.c ****     }
 1414              		.loc 1 1116 0
 1415 000c 0040A013 		movne	r4, #0
 1416 0010 B340A003 		moveq	r4, #179
 1417              	.LVL166:
1119:D:/Work/DeviceTester/amazon-freertos/lib/pkcs11/mbedtls\aws_pkcs11_mbedtls.c ****     {
 1418              		.loc 1 1119 0
 1419 0014 250E53E3 		cmp	r3, #592
1121:D:/Work/DeviceTester/amazon-freertos/lib/pkcs11/mbedtls\aws_pkcs11_mbedtls.c ****     }
 1420              		.loc 1 1121 0
 1421 0018 7040A013 		movne	r4, #112
 1422              	.LVL167:
1119:D:/Work/DeviceTester/amazon-freertos/lib/pkcs11/mbedtls\aws_pkcs11_mbedtls.c ****     {
 1423              		.loc 1 1119 0
 1424 001c 0D00001A 		bne	.L186
 1425              	.LVL168:
1127:D:/Work/DeviceTester/amazon-freertos/lib/pkcs11/mbedtls\aws_pkcs11_mbedtls.c ****     {
 1426              		.loc 1 1127 0
 1427 0020 000054E3 		cmp	r4, #0
 1428 0024 0B00001A 		bne	.L186
1129:D:/Work/DeviceTester/amazon-freertos/lib/pkcs11/mbedtls\aws_pkcs11_mbedtls.c **** 
 1429              		.loc 1 1129 0
 1430 0028 307080E2 		add	r7, r0, #48
 1431 002c 0050A0E1 		mov	r5, r0
 1432 0030 0700A0E1 		mov	r0, r7
 1433              	.LVL169:
 1434 0034 0160A0E1 		mov	r6, r1
 1435              	.LVL170:
 1436 0038 FEFFFFEB 		bl	mbedtls_sha256_init
 1437              	.LVL171:
1131:D:/Work/DeviceTester/amazon-freertos/lib/pkcs11/mbedtls\aws_pkcs11_mbedtls.c ****         {
 1438              		.loc 1 1131 0
 1439 003c 0410A0E1 		mov	r1, r4
 1440 0040 0700A0E1 		mov	r0, r7
 1441 0044 FEFFFFEB 		bl	mbedtls_sha256_starts_ret
 1442              	.LVL172:
 1443 0048 000050E3 		cmp	r0, #0
1137:D:/Work/DeviceTester/amazon-freertos/lib/pkcs11/mbedtls\aws_pkcs11_mbedtls.c ****         }
 1444              		.loc 1 1137 0
 1445 004c 00309605 		ldreq	r3, [r6]
1133:D:/Work/DeviceTester/amazon-freertos/lib/pkcs11/mbedtls\aws_pkcs11_mbedtls.c ****         }
 1446              		.loc 1 1133 0
 1447 0050 0640A013 		movne	r4, #6
 1448              	.LVL173:
1137:D:/Work/DeviceTester/amazon-freertos/lib/pkcs11/mbedtls\aws_pkcs11_mbedtls.c ****         }
 1449              		.loc 1 1137 0
 1450 0054 08308505 		streq	r3, [r5, #8]
 1451              	.LVL174:
 1452              	.L186:
1142:D:/Work/DeviceTester/amazon-freertos/lib/pkcs11/mbedtls\aws_pkcs11_mbedtls.c **** 
 1453              		.loc 1 1142 0
 1454 0058 0400A0E1 		mov	r0, r4
 1455 005c F081BDE8 		pop	{r4, r5, r6, r7, r8, pc}
 1456              		.cfi_endproc
 1457              	.LFE21:
 1459              		.section	.text.C_DigestUpdate,"ax",%progbits
 1460              		.align	2
 1461              		.global	C_DigestUpdate
 1462              		.syntax unified
 1463              		.arm
 1464              		.fpu neon
 1466              	C_DigestUpdate:
 1467              	.LFB22:
1147:D:/Work/DeviceTester/amazon-freertos/lib/pkcs11/mbedtls\aws_pkcs11_mbedtls.c ****     CK_RV xResult = CKR_OK;
 1468              		.loc 1 1147 0
 1469              		.cfi_startproc
 1470              		@ args = 0, pretend = 0, frame = 0
 1471              		@ frame_needed = 0, uses_anonymous_args = 0
 1472              	.LVL175:
 1473 0000 10402DE9 		push	{r4, lr}
 1474              		.cfi_def_cfa_offset 8
 1475              		.cfi_offset 4, -8
 1476              		.cfi_offset 14, -4
1151:D:/Work/DeviceTester/amazon-freertos/lib/pkcs11/mbedtls\aws_pkcs11_mbedtls.c ****     {
 1477              		.loc 1 1151 0
 1478 0004 004050E2 		subs	r4, r0, #0
 1479 0008 0B00000A 		beq	.L197
1155:D:/Work/DeviceTester/amazon-freertos/lib/pkcs11/mbedtls\aws_pkcs11_mbedtls.c ****     {
 1480              		.loc 1 1155 0
 1481 000c 083094E5 		ldr	r3, [r4, #8]
 1482 0010 250E53E3 		cmp	r3, #592
 1483 0014 0A00001A 		bne	.L198
1162:D:/Work/DeviceTester/amazon-freertos/lib/pkcs11/mbedtls\aws_pkcs11_mbedtls.c ****         {
 1484              		.loc 1 1162 0
 1485 0018 300084E2 		add	r0, r4, #48
 1486              	.LVL176:
 1487 001c FEFFFFEB 		bl	mbedtls_sha256_update_ret
 1488              	.LVL177:
 1489 0020 000050E3 		cmp	r0, #0
 1490 0024 0000001A 		bne	.L196
1170:D:/Work/DeviceTester/amazon-freertos/lib/pkcs11/mbedtls\aws_pkcs11_mbedtls.c **** 
 1491              		.loc 1 1170 0
 1492 0028 1080BDE8 		pop	{r4, pc}
 1493              	.L196:
 1494              	.LVL178:
1165:D:/Work/DeviceTester/amazon-freertos/lib/pkcs11/mbedtls\aws_pkcs11_mbedtls.c ****         }
 1495              		.loc 1 1165 0
 1496 002c 0030E0E3 		mvn	r3, #0
1164:D:/Work/DeviceTester/amazon-freertos/lib/pkcs11/mbedtls\aws_pkcs11_mbedtls.c ****             pxSession->xOperationInProgress = pkcs11NO_OPERATION;
 1497              		.loc 1 1164 0
 1498 0030 0600A0E3 		mov	r0, #6
1165:D:/Work/DeviceTester/amazon-freertos/lib/pkcs11/mbedtls\aws_pkcs11_mbedtls.c ****         }
 1499              		.loc 1 1165 0
 1500 0034 083084E5 		str	r3, [r4, #8]
 1501 0038 1080BDE8 		pop	{r4, pc}
 1502              	.LVL179:
 1503              	.L197:
1153:D:/Work/DeviceTester/amazon-freertos/lib/pkcs11/mbedtls\aws_pkcs11_mbedtls.c ****     }
 1504              		.loc 1 1153 0
 1505 003c B300A0E3 		mov	r0, #179
 1506              	.LVL180:
 1507 0040 1080BDE8 		pop	{r4, pc}
 1508              	.LVL181:
 1509              	.L198:
1157:D:/Work/DeviceTester/amazon-freertos/lib/pkcs11/mbedtls\aws_pkcs11_mbedtls.c ****     }
 1510              		.loc 1 1157 0
 1511 0044 9100A0E3 		mov	r0, #145
 1512              	.LVL182:
1169:D:/Work/DeviceTester/amazon-freertos/lib/pkcs11/mbedtls\aws_pkcs11_mbedtls.c **** }
 1513              		.loc 1 1169 0
 1514 0048 1080BDE8 		pop	{r4, pc}
 1515              		.cfi_endproc
 1516              	.LFE22:
 1518              		.section	.text.C_DigestFinal,"ax",%progbits
 1519              		.align	2
 1520              		.global	C_DigestFinal
 1521              		.syntax unified
 1522              		.arm
 1523              		.fpu neon
 1525              	C_DigestFinal:
 1526              	.LFB23:
1175:D:/Work/DeviceTester/amazon-freertos/lib/pkcs11/mbedtls\aws_pkcs11_mbedtls.c ****     CK_RV xResult = CKR_OK;
 1527              		.loc 1 1175 0
 1528              		.cfi_startproc
 1529              		@ args = 0, pretend = 0, frame = 0
 1530              		@ frame_needed = 0, uses_anonymous_args = 0
 1531              	.LVL183:
 1532 0000 10402DE9 		push	{r4, lr}
 1533              		.cfi_def_cfa_offset 8
 1534              		.cfi_offset 4, -8
 1535              		.cfi_offset 14, -4
1179:D:/Work/DeviceTester/amazon-freertos/lib/pkcs11/mbedtls\aws_pkcs11_mbedtls.c ****     {
 1536              		.loc 1 1179 0
 1537 0004 004050E2 		subs	r4, r0, #0
 1538 0008 1100000A 		beq	.L207
1183:D:/Work/DeviceTester/amazon-freertos/lib/pkcs11/mbedtls\aws_pkcs11_mbedtls.c ****     {
 1539              		.loc 1 1183 0
 1540 000c 08C094E5 		ldr	ip, [r4, #8]
 1541 0010 250E5CE3 		cmp	ip, #592
 1542 0014 1200000A 		beq	.L203
