   1              		.cpu cortex-a9
   2              		.eabi_attribute 28, 1
   3              		.eabi_attribute 20, 1
   4              		.eabi_attribute 21, 1
   5              		.eabi_attribute 23, 3
   6              		.eabi_attribute 24, 1
   7              		.eabi_attribute 25, 1
   8              		.eabi_attribute 26, 1
   9              		.eabi_attribute 30, 4
  10              		.eabi_attribute 34, 0
  11              		.eabi_attribute 18, 4
  12              		.file	"r_octabus_lld_rza2m_api.c"
  13              		.text
  14              	.Ltext0:
  15              		.cfi_sections	.debug_frame
  16              		.section	.text.octaram_init,"ax",%progbits
  17              		.align	2
  18              		.syntax unified
  19              		.arm
  20              		.fpu neon
  22              	octaram_init:
  23              	.LFB5:
  24              		.file 1 "D:/Work/DeviceTester/amazon-freertos/lib/third_party/mcu_vendor/renesas/rz_mcu_boards/cor
   1:D:/Work/DeviceTester/amazon-freertos/lib/third_party/mcu_vendor/renesas/rz_mcu_boards/core_package/generate/sc_drivers/r_octabus/src/lld\r_octabus_lld_rza2m_api.c **** /**************************************************************************************************
   2:D:/Work/DeviceTester/amazon-freertos/lib/third_party/mcu_vendor/renesas/rz_mcu_boards/core_package/generate/sc_drivers/r_octabus/src/lld\r_octabus_lld_rza2m_api.c ****  * DISCLAIMER
   3:D:/Work/DeviceTester/amazon-freertos/lib/third_party/mcu_vendor/renesas/rz_mcu_boards/core_package/generate/sc_drivers/r_octabus/src/lld\r_octabus_lld_rza2m_api.c ****  * This software is supplied by Renesas Electronics Corporation and is only intended for use with R
   4:D:/Work/DeviceTester/amazon-freertos/lib/third_party/mcu_vendor/renesas/rz_mcu_boards/core_package/generate/sc_drivers/r_octabus/src/lld\r_octabus_lld_rza2m_api.c ****  * other uses are authorized. This software is owned by Renesas Electronics Corporation and is prot
   5:D:/Work/DeviceTester/amazon-freertos/lib/third_party/mcu_vendor/renesas/rz_mcu_boards/core_package/generate/sc_drivers/r_octabus/src/lld\r_octabus_lld_rza2m_api.c ****  * applicable laws, including copyright laws.
   6:D:/Work/DeviceTester/amazon-freertos/lib/third_party/mcu_vendor/renesas/rz_mcu_boards/core_package/generate/sc_drivers/r_octabus/src/lld\r_octabus_lld_rza2m_api.c ****  * THIS SOFTWARE IS PROVIDED "AS IS" AND RENESAS MAKES NO WARRANTIES REGARDING
   7:D:/Work/DeviceTester/amazon-freertos/lib/third_party/mcu_vendor/renesas/rz_mcu_boards/core_package/generate/sc_drivers/r_octabus/src/lld\r_octabus_lld_rza2m_api.c ****  * THIS SOFTWARE, WHETHER EXPRESS, IMPLIED OR STATUTORY, INCLUDING BUT NOT LIMITED TO WARRANTIES OF
   8:D:/Work/DeviceTester/amazon-freertos/lib/third_party/mcu_vendor/renesas/rz_mcu_boards/core_package/generate/sc_drivers/r_octabus/src/lld\r_octabus_lld_rza2m_api.c ****  * FITNESS FOR A PARTICULAR PURPOSE AND NON-INFRINGEMENT. ALL SUCH WARRANTIES ARE EXPRESSLY DISCLAI
   9:D:/Work/DeviceTester/amazon-freertos/lib/third_party/mcu_vendor/renesas/rz_mcu_boards/core_package/generate/sc_drivers/r_octabus/src/lld\r_octabus_lld_rza2m_api.c ****  * EXTENT PERMITTED NOT PROHIBITED BY LAW, NEITHER RENESAS ELECTRONICS CORPORATION NOR ANY OF ITS A
  10:D:/Work/DeviceTester/amazon-freertos/lib/third_party/mcu_vendor/renesas/rz_mcu_boards/core_package/generate/sc_drivers/r_octabus/src/lld\r_octabus_lld_rza2m_api.c ****  * SHALL BE LIABLE FOR ANY DIRECT, INDIRECT, SPECIAL, INCIDENTAL OR CONSEQUENTIAL DAMAGES FOR ANY R
  11:D:/Work/DeviceTester/amazon-freertos/lib/third_party/mcu_vendor/renesas/rz_mcu_boards/core_package/generate/sc_drivers/r_octabus/src/lld\r_octabus_lld_rza2m_api.c ****  * THIS SOFTWARE, EVEN IF RENESAS OR ITS AFFILIATES HAVE BEEN ADVISED OF THE POSSIBILITY OF SUCH DA
  12:D:/Work/DeviceTester/amazon-freertos/lib/third_party/mcu_vendor/renesas/rz_mcu_boards/core_package/generate/sc_drivers/r_octabus/src/lld\r_octabus_lld_rza2m_api.c ****  * Renesas reserves the right, without notice, to make changes to this software and to discontinue 
  13:D:/Work/DeviceTester/amazon-freertos/lib/third_party/mcu_vendor/renesas/rz_mcu_boards/core_package/generate/sc_drivers/r_octabus/src/lld\r_octabus_lld_rza2m_api.c ****  * this software. By using this software, you agree to the additional terms and conditions found by
  14:D:/Work/DeviceTester/amazon-freertos/lib/third_party/mcu_vendor/renesas/rz_mcu_boards/core_package/generate/sc_drivers/r_octabus/src/lld\r_octabus_lld_rza2m_api.c ****  * following link:
  15:D:/Work/DeviceTester/amazon-freertos/lib/third_party/mcu_vendor/renesas/rz_mcu_boards/core_package/generate/sc_drivers/r_octabus/src/lld\r_octabus_lld_rza2m_api.c ****  * http://www.renesas.com/disclaimer
  16:D:/Work/DeviceTester/amazon-freertos/lib/third_party/mcu_vendor/renesas/rz_mcu_boards/core_package/generate/sc_drivers/r_octabus/src/lld\r_octabus_lld_rza2m_api.c ****  *
  17:D:/Work/DeviceTester/amazon-freertos/lib/third_party/mcu_vendor/renesas/rz_mcu_boards/core_package/generate/sc_drivers/r_octabus/src/lld\r_octabus_lld_rza2m_api.c ****  * Copyright (C) 2020 Renesas Electronics Corporation. All rights reserved.
  18:D:/Work/DeviceTester/amazon-freertos/lib/third_party/mcu_vendor/renesas/rz_mcu_boards/core_package/generate/sc_drivers/r_octabus/src/lld\r_octabus_lld_rza2m_api.c ****  **************************************************************************************************
  19:D:/Work/DeviceTester/amazon-freertos/lib/third_party/mcu_vendor/renesas/rz_mcu_boards/core_package/generate/sc_drivers/r_octabus/src/lld\r_octabus_lld_rza2m_api.c **** /**************************************************************************************************
  20:D:/Work/DeviceTester/amazon-freertos/lib/third_party/mcu_vendor/renesas/rz_mcu_boards/core_package/generate/sc_drivers/r_octabus/src/lld\r_octabus_lld_rza2m_api.c ****  * File Name   : r_octabus_lld_rza2m_api.c
  21:D:/Work/DeviceTester/amazon-freertos/lib/third_party/mcu_vendor/renesas/rz_mcu_boards/core_package/generate/sc_drivers/r_octabus/src/lld\r_octabus_lld_rza2m_api.c ****  **************************************************************************************************
  22:D:/Work/DeviceTester/amazon-freertos/lib/third_party/mcu_vendor/renesas/rz_mcu_boards/core_package/generate/sc_drivers/r_octabus/src/lld\r_octabus_lld_rza2m_api.c **** 
  23:D:/Work/DeviceTester/amazon-freertos/lib/third_party/mcu_vendor/renesas/rz_mcu_boards/core_package/generate/sc_drivers/r_octabus/src/lld\r_octabus_lld_rza2m_api.c **** /**************************************************************************************************
  24:D:/Work/DeviceTester/amazon-freertos/lib/third_party/mcu_vendor/renesas/rz_mcu_boards/core_package/generate/sc_drivers/r_octabus/src/lld\r_octabus_lld_rza2m_api.c ****  Includes   <System Includes> , "Project Includes"
  25:D:/Work/DeviceTester/amazon-freertos/lib/third_party/mcu_vendor/renesas/rz_mcu_boards/core_package/generate/sc_drivers/r_octabus/src/lld\r_octabus_lld_rza2m_api.c ****  **************************************************************************************************
  26:D:/Work/DeviceTester/amazon-freertos/lib/third_party/mcu_vendor/renesas/rz_mcu_boards/core_package/generate/sc_drivers/r_octabus/src/lld\r_octabus_lld_rza2m_api.c **** #include "r_typedefs.h"
  27:D:/Work/DeviceTester/amazon-freertos/lib/third_party/mcu_vendor/renesas/rz_mcu_boards/core_package/generate/sc_drivers/r_octabus/src/lld\r_octabus_lld_rza2m_api.c **** #include "iodefine.h"
  28:D:/Work/DeviceTester/amazon-freertos/lib/third_party/mcu_vendor/renesas/rz_mcu_boards/core_package/generate/sc_drivers/r_octabus/src/lld\r_octabus_lld_rza2m_api.c **** #include "iobitmask.h"
  29:D:/Work/DeviceTester/amazon-freertos/lib/third_party/mcu_vendor/renesas/rz_mcu_boards/core_package/generate/sc_drivers/r_octabus/src/lld\r_octabus_lld_rza2m_api.c **** #include "rza_io_regrw.h"
  30:D:/Work/DeviceTester/amazon-freertos/lib/third_party/mcu_vendor/renesas/rz_mcu_boards/core_package/generate/sc_drivers/r_octabus/src/lld\r_octabus_lld_rza2m_api.c **** #include "driver.h"
  31:D:/Work/DeviceTester/amazon-freertos/lib/third_party/mcu_vendor/renesas/rz_mcu_boards/core_package/generate/sc_drivers/r_octabus/src/lld\r_octabus_lld_rza2m_api.c **** 
  32:D:/Work/DeviceTester/amazon-freertos/lib/third_party/mcu_vendor/renesas/rz_mcu_boards/core_package/generate/sc_drivers/r_octabus/src/lld\r_octabus_lld_rza2m_api.c **** #include "r_octabus_lld_rza2m_api.h"
  33:D:/Work/DeviceTester/amazon-freertos/lib/third_party/mcu_vendor/renesas/rz_mcu_boards/core_package/generate/sc_drivers/r_octabus/src/lld\r_octabus_lld_rza2m_api.c **** #include "r_octabus_drv_sc_cfg.h"
  34:D:/Work/DeviceTester/amazon-freertos/lib/third_party/mcu_vendor/renesas/rz_mcu_boards/core_package/generate/sc_drivers/r_octabus/src/lld\r_octabus_lld_rza2m_api.c **** #include "hwsetup.h"
  35:D:/Work/DeviceTester/amazon-freertos/lib/third_party/mcu_vendor/renesas/rz_mcu_boards/core_package/generate/sc_drivers/r_octabus/src/lld\r_octabus_lld_rza2m_api.c **** #include "r_stb_drv_api.h"
  36:D:/Work/DeviceTester/amazon-freertos/lib/third_party/mcu_vendor/renesas/rz_mcu_boards/core_package/generate/sc_drivers/r_octabus/src/lld\r_octabus_lld_rza2m_api.c **** 
  37:D:/Work/DeviceTester/amazon-freertos/lib/third_party/mcu_vendor/renesas/rz_mcu_boards/core_package/generate/sc_drivers/r_octabus/src/lld\r_octabus_lld_rza2m_api.c **** /**************************************************************************************************
  38:D:/Work/DeviceTester/amazon-freertos/lib/third_party/mcu_vendor/renesas/rz_mcu_boards/core_package/generate/sc_drivers/r_octabus/src/lld\r_octabus_lld_rza2m_api.c ****  Typedef definitions
  39:D:/Work/DeviceTester/amazon-freertos/lib/third_party/mcu_vendor/renesas/rz_mcu_boards/core_package/generate/sc_drivers/r_octabus/src/lld\r_octabus_lld_rza2m_api.c ****  **************************************************************************************************
  40:D:/Work/DeviceTester/amazon-freertos/lib/third_party/mcu_vendor/renesas/rz_mcu_boards/core_package/generate/sc_drivers/r_octabus/src/lld\r_octabus_lld_rza2m_api.c **** 
  41:D:/Work/DeviceTester/amazon-freertos/lib/third_party/mcu_vendor/renesas/rz_mcu_boards/core_package/generate/sc_drivers/r_octabus/src/lld\r_octabus_lld_rza2m_api.c **** 
  42:D:/Work/DeviceTester/amazon-freertos/lib/third_party/mcu_vendor/renesas/rz_mcu_boards/core_package/generate/sc_drivers/r_octabus/src/lld\r_octabus_lld_rza2m_api.c **** /**************************************************************************************************
  43:D:/Work/DeviceTester/amazon-freertos/lib/third_party/mcu_vendor/renesas/rz_mcu_boards/core_package/generate/sc_drivers/r_octabus/src/lld\r_octabus_lld_rza2m_api.c ****  Macro definitions
  44:D:/Work/DeviceTester/amazon-freertos/lib/third_party/mcu_vendor/renesas/rz_mcu_boards/core_package/generate/sc_drivers/r_octabus/src/lld\r_octabus_lld_rza2m_api.c ****  **************************************************************************************************
  45:D:/Work/DeviceTester/amazon-freertos/lib/third_party/mcu_vendor/renesas/rz_mcu_boards/core_package/generate/sc_drivers/r_octabus/src/lld\r_octabus_lld_rza2m_api.c **** #define R_PRV_OCTARAM_MAP_OFFSET (0x60000000uL) /**< base address of OctaRAM */
  46:D:/Work/DeviceTester/amazon-freertos/lib/third_party/mcu_vendor/renesas/rz_mcu_boards/core_package/generate/sc_drivers/r_octabus/src/lld\r_octabus_lld_rza2m_api.c **** #define R_PRV_OCTABUS_RESULT_OK (1)
  47:D:/Work/DeviceTester/amazon-freertos/lib/third_party/mcu_vendor/renesas/rz_mcu_boards/core_package/generate/sc_drivers/r_octabus/src/lld\r_octabus_lld_rza2m_api.c **** #define R_PRV_OCTABUS_RESULT_NG (0)
  48:D:/Work/DeviceTester/amazon-freertos/lib/third_party/mcu_vendor/renesas/rz_mcu_boards/core_package/generate/sc_drivers/r_octabus/src/lld\r_octabus_lld_rza2m_api.c **** 
  49:D:/Work/DeviceTester/amazon-freertos/lib/third_party/mcu_vendor/renesas/rz_mcu_boards/core_package/generate/sc_drivers/r_octabus/src/lld\r_octabus_lld_rza2m_api.c **** 
  50:D:/Work/DeviceTester/amazon-freertos/lib/third_party/mcu_vendor/renesas/rz_mcu_boards/core_package/generate/sc_drivers/r_octabus/src/lld\r_octabus_lld_rza2m_api.c **** /**************************************************************************************************
  51:D:/Work/DeviceTester/amazon-freertos/lib/third_party/mcu_vendor/renesas/rz_mcu_boards/core_package/generate/sc_drivers/r_octabus/src/lld\r_octabus_lld_rza2m_api.c ****  Imported global variables and functions (from other files)
  52:D:/Work/DeviceTester/amazon-freertos/lib/third_party/mcu_vendor/renesas/rz_mcu_boards/core_package/generate/sc_drivers/r_octabus/src/lld\r_octabus_lld_rza2m_api.c ****  **************************************************************************************************
  53:D:/Work/DeviceTester/amazon-freertos/lib/third_party/mcu_vendor/renesas/rz_mcu_boards/core_package/generate/sc_drivers/r_octabus/src/lld\r_octabus_lld_rza2m_api.c **** 
  54:D:/Work/DeviceTester/amazon-freertos/lib/third_party/mcu_vendor/renesas/rz_mcu_boards/core_package/generate/sc_drivers/r_octabus/src/lld\r_octabus_lld_rza2m_api.c **** 
  55:D:/Work/DeviceTester/amazon-freertos/lib/third_party/mcu_vendor/renesas/rz_mcu_boards/core_package/generate/sc_drivers/r_octabus/src/lld\r_octabus_lld_rza2m_api.c **** /**************************************************************************************************
  56:D:/Work/DeviceTester/amazon-freertos/lib/third_party/mcu_vendor/renesas/rz_mcu_boards/core_package/generate/sc_drivers/r_octabus/src/lld\r_octabus_lld_rza2m_api.c ****  Exported global variables and functions (to be accessed by other files)
  57:D:/Work/DeviceTester/amazon-freertos/lib/third_party/mcu_vendor/renesas/rz_mcu_boards/core_package/generate/sc_drivers/r_octabus/src/lld\r_octabus_lld_rza2m_api.c ****  **************************************************************************************************
  58:D:/Work/DeviceTester/amazon-freertos/lib/third_party/mcu_vendor/renesas/rz_mcu_boards/core_package/generate/sc_drivers/r_octabus/src/lld\r_octabus_lld_rza2m_api.c **** 
  59:D:/Work/DeviceTester/amazon-freertos/lib/third_party/mcu_vendor/renesas/rz_mcu_boards/core_package/generate/sc_drivers/r_octabus/src/lld\r_octabus_lld_rza2m_api.c **** 
  60:D:/Work/DeviceTester/amazon-freertos/lib/third_party/mcu_vendor/renesas/rz_mcu_boards/core_package/generate/sc_drivers/r_octabus/src/lld\r_octabus_lld_rza2m_api.c **** /**************************************************************************************************
  61:D:/Work/DeviceTester/amazon-freertos/lib/third_party/mcu_vendor/renesas/rz_mcu_boards/core_package/generate/sc_drivers/r_octabus/src/lld\r_octabus_lld_rza2m_api.c ****  Private global variables and functions
  62:D:/Work/DeviceTester/amazon-freertos/lib/third_party/mcu_vendor/renesas/rz_mcu_boards/core_package/generate/sc_drivers/r_octabus/src/lld\r_octabus_lld_rza2m_api.c ****  **************************************************************************************************
  63:D:/Work/DeviceTester/amazon-freertos/lib/third_party/mcu_vendor/renesas/rz_mcu_boards/core_package/generate/sc_drivers/r_octabus/src/lld\r_octabus_lld_rza2m_api.c **** 
  64:D:/Work/DeviceTester/amazon-freertos/lib/third_party/mcu_vendor/renesas/rz_mcu_boards/core_package/generate/sc_drivers/r_octabus/src/lld\r_octabus_lld_rza2m_api.c **** /*! Version Information */
  65:D:/Work/DeviceTester/amazon-freertos/lib/third_party/mcu_vendor/renesas/rz_mcu_boards/core_package/generate/sc_drivers/r_octabus/src/lld\r_octabus_lld_rza2m_api.c **** static const st_drv_info_t gs_lld_info =
  66:D:/Work/DeviceTester/amazon-freertos/lib/third_party/mcu_vendor/renesas/rz_mcu_boards/core_package/generate/sc_drivers/r_octabus/src/lld\r_octabus_lld_rza2m_api.c **** {
  67:D:/Work/DeviceTester/amazon-freertos/lib/third_party/mcu_vendor/renesas/rz_mcu_boards/core_package/generate/sc_drivers/r_octabus/src/lld\r_octabus_lld_rza2m_api.c ****     {
  68:D:/Work/DeviceTester/amazon-freertos/lib/third_party/mcu_vendor/renesas/rz_mcu_boards/core_package/generate/sc_drivers/r_octabus/src/lld\r_octabus_lld_rza2m_api.c ****         ((STDIO_OCTABUS_RZ_LLD_VERSION_MAJOR << 16) + STDIO_OCTABUS_RZ_LLD_VERSION_MINOR)
  69:D:/Work/DeviceTester/amazon-freertos/lib/third_party/mcu_vendor/renesas/rz_mcu_boards/core_package/generate/sc_drivers/r_octabus/src/lld\r_octabus_lld_rza2m_api.c ****     },
  70:D:/Work/DeviceTester/amazon-freertos/lib/third_party/mcu_vendor/renesas/rz_mcu_boards/core_package/generate/sc_drivers/r_octabus/src/lld\r_octabus_lld_rza2m_api.c ****     STDIO_OCTABUS_RZ_LLD_BUILD_NUM,
  71:D:/Work/DeviceTester/amazon-freertos/lib/third_party/mcu_vendor/renesas/rz_mcu_boards/core_package/generate/sc_drivers/r_octabus/src/lld\r_octabus_lld_rza2m_api.c ****     STDIO_OCTABUS_RZ_LLD_DRV_NAME
  72:D:/Work/DeviceTester/amazon-freertos/lib/third_party/mcu_vendor/renesas/rz_mcu_boards/core_package/generate/sc_drivers/r_octabus/src/lld\r_octabus_lld_rza2m_api.c **** };
  73:D:/Work/DeviceTester/amazon-freertos/lib/third_party/mcu_vendor/renesas/rz_mcu_boards/core_package/generate/sc_drivers/r_octabus/src/lld\r_octabus_lld_rza2m_api.c **** 
  74:D:/Work/DeviceTester/amazon-freertos/lib/third_party/mcu_vendor/renesas/rz_mcu_boards/core_package/generate/sc_drivers/r_octabus/src/lld\r_octabus_lld_rza2m_api.c **** static void octabus_io_regwrite_32 (volatile uint32_t * ioreg, uint32_t write_value, uint32_t shift
  75:D:/Work/DeviceTester/amazon-freertos/lib/third_party/mcu_vendor/renesas/rz_mcu_boards/core_package/generate/sc_drivers/r_octabus/src/lld\r_octabus_lld_rza2m_api.c **** static uint32_t octabus_io_regread_32 (volatile uint32_t * ioreg, uint32_t shift, uint32_t mask);
  76:D:/Work/DeviceTester/amazon-freertos/lib/third_party/mcu_vendor/renesas/rz_mcu_boards/core_package/generate/sc_drivers/r_octabus/src/lld\r_octabus_lld_rza2m_api.c **** static int_t get_ok_area_start (uint8_t * p_s_ok_ng_result);
  77:D:/Work/DeviceTester/amazon-freertos/lib/third_party/mcu_vendor/renesas/rz_mcu_boards/core_package/generate/sc_drivers/r_octabus/src/lld\r_octabus_lld_rza2m_api.c **** static int_t get_ok_area_count (uint8_t * p_s_ok_ng_result, int_t index_start);
  78:D:/Work/DeviceTester/amazon-freertos/lib/third_party/mcu_vendor/renesas/rz_mcu_boards/core_package/generate/sc_drivers/r_octabus/src/lld\r_octabus_lld_rza2m_api.c **** static int_t octaram_manualcalib (const st_octabus_cfg_t * p_cfg);
  79:D:/Work/DeviceTester/amazon-freertos/lib/third_party/mcu_vendor/renesas/rz_mcu_boards/core_package/generate/sc_drivers/r_octabus/src/lld\r_octabus_lld_rza2m_api.c **** static int_t octaram_init (const st_octabus_cfg_t * p_cfg);
  80:D:/Work/DeviceTester/amazon-freertos/lib/third_party/mcu_vendor/renesas/rz_mcu_boards/core_package/generate/sc_drivers/r_octabus/src/lld\r_octabus_lld_rza2m_api.c **** static int_t octaram_autocalib (const st_octabus_cfg_t * p_cfg);
  81:D:/Work/DeviceTester/amazon-freertos/lib/third_party/mcu_vendor/renesas/rz_mcu_boards/core_package/generate/sc_drivers/r_octabus/src/lld\r_octabus_lld_rza2m_api.c **** 
  82:D:/Work/DeviceTester/amazon-freertos/lib/third_party/mcu_vendor/renesas/rz_mcu_boards/core_package/generate/sc_drivers/r_octabus/src/lld\r_octabus_lld_rza2m_api.c **** static const uint32_t s_preamble_data[4] = 
  83:D:/Work/DeviceTester/amazon-freertos/lib/third_party/mcu_vendor/renesas/rz_mcu_boards/core_package/generate/sc_drivers/r_octabus/src/lld\r_octabus_lld_rza2m_api.c **** {
  84:D:/Work/DeviceTester/amazon-freertos/lib/third_party/mcu_vendor/renesas/rz_mcu_boards/core_package/generate/sc_drivers/r_octabus/src/lld\r_octabus_lld_rza2m_api.c ****     0xFFFF0000uL,
  85:D:/Work/DeviceTester/amazon-freertos/lib/third_party/mcu_vendor/renesas/rz_mcu_boards/core_package/generate/sc_drivers/r_octabus/src/lld\r_octabus_lld_rza2m_api.c ****     0x0800FF00uL,
  86:D:/Work/DeviceTester/amazon-freertos/lib/third_party/mcu_vendor/renesas/rz_mcu_boards/core_package/generate/sc_drivers/r_octabus/src/lld\r_octabus_lld_rza2m_api.c ****     0xFF0000F7uL,
  87:D:/Work/DeviceTester/amazon-freertos/lib/third_party/mcu_vendor/renesas/rz_mcu_boards/core_package/generate/sc_drivers/r_octabus/src/lld\r_octabus_lld_rza2m_api.c ****     0x00F708F7uL
  88:D:/Work/DeviceTester/amazon-freertos/lib/third_party/mcu_vendor/renesas/rz_mcu_boards/core_package/generate/sc_drivers/r_octabus/src/lld\r_octabus_lld_rza2m_api.c **** };
  89:D:/Work/DeviceTester/amazon-freertos/lib/third_party/mcu_vendor/renesas/rz_mcu_boards/core_package/generate/sc_drivers/r_octabus/src/lld\r_octabus_lld_rza2m_api.c **** static uint8_t s_ok_ng_result[16];
  90:D:/Work/DeviceTester/amazon-freertos/lib/third_party/mcu_vendor/renesas/rz_mcu_boards/core_package/generate/sc_drivers/r_octabus/src/lld\r_octabus_lld_rza2m_api.c **** 
  91:D:/Work/DeviceTester/amazon-freertos/lib/third_party/mcu_vendor/renesas/rz_mcu_boards/core_package/generate/sc_drivers/r_octabus/src/lld\r_octabus_lld_rza2m_api.c **** /**************************************************************************************************
  92:D:/Work/DeviceTester/amazon-freertos/lib/third_party/mcu_vendor/renesas/rz_mcu_boards/core_package/generate/sc_drivers/r_octabus/src/lld\r_octabus_lld_rza2m_api.c ****  * Function Name: octabus_io_regwrite_32
  93:D:/Work/DeviceTester/amazon-freertos/lib/third_party/mcu_vendor/renesas/rz_mcu_boards/core_package/generate/sc_drivers/r_octabus/src/lld\r_octabus_lld_rza2m_api.c ****  * Description  : IO register 32-bit write
  94:D:/Work/DeviceTester/amazon-freertos/lib/third_party/mcu_vendor/renesas/rz_mcu_boards/core_package/generate/sc_drivers/r_octabus/src/lld\r_octabus_lld_rza2m_api.c ****  * Arguments    : volatile uint32_t * ioreg : IO register for writing
  95:D:/Work/DeviceTester/amazon-freertos/lib/third_party/mcu_vendor/renesas/rz_mcu_boards/core_package/generate/sc_drivers/r_octabus/src/lld\r_octabus_lld_rza2m_api.c ****  *              :                           : Use register definition name of the
  96:D:/Work/DeviceTester/amazon-freertos/lib/third_party/mcu_vendor/renesas/rz_mcu_boards/core_package/generate/sc_drivers/r_octabus/src/lld\r_octabus_lld_rza2m_api.c ****  *              :                           : iodefine.h
  97:D:/Work/DeviceTester/amazon-freertos/lib/third_party/mcu_vendor/renesas/rz_mcu_boards/core_package/generate/sc_drivers/r_octabus/src/lld\r_octabus_lld_rza2m_api.c ****  *              : uint32_t write_value      : Write value for the IO register
  98:D:/Work/DeviceTester/amazon-freertos/lib/third_party/mcu_vendor/renesas/rz_mcu_boards/core_package/generate/sc_drivers/r_octabus/src/lld\r_octabus_lld_rza2m_api.c ****  *              : uint32_t shift            : The number of left shifts to the
  99:D:/Work/DeviceTester/amazon-freertos/lib/third_party/mcu_vendor/renesas/rz_mcu_boards/core_package/generate/sc_drivers/r_octabus/src/lld\r_octabus_lld_rza2m_api.c ****  *              :                           : target bit
 100:D:/Work/DeviceTester/amazon-freertos/lib/third_party/mcu_vendor/renesas/rz_mcu_boards/core_package/generate/sc_drivers/r_octabus/src/lld\r_octabus_lld_rza2m_api.c ****  *              : uint32_t mask             : Mask value for the IO register
 101:D:/Work/DeviceTester/amazon-freertos/lib/third_party/mcu_vendor/renesas/rz_mcu_boards/core_package/generate/sc_drivers/r_octabus/src/lld\r_octabus_lld_rza2m_api.c ****  *              :                           : (Target bit : "1")
 102:D:/Work/DeviceTester/amazon-freertos/lib/third_party/mcu_vendor/renesas/rz_mcu_boards/core_package/generate/sc_drivers/r_octabus/src/lld\r_octabus_lld_rza2m_api.c ****  * Return Value : None
 103:D:/Work/DeviceTester/amazon-freertos/lib/third_party/mcu_vendor/renesas/rz_mcu_boards/core_package/generate/sc_drivers/r_octabus/src/lld\r_octabus_lld_rza2m_api.c ****  * Precautions  : This function cannot be assigned to execute from OctaFlash or OctaRAM.
 104:D:/Work/DeviceTester/amazon-freertos/lib/third_party/mcu_vendor/renesas/rz_mcu_boards/core_package/generate/sc_drivers/r_octabus/src/lld\r_octabus_lld_rza2m_api.c ****  *              : This function must be assigned to an area other than OctaFlash or OctaRAM.
 105:D:/Work/DeviceTester/amazon-freertos/lib/third_party/mcu_vendor/renesas/rz_mcu_boards/core_package/generate/sc_drivers/r_octabus/src/lld\r_octabus_lld_rza2m_api.c ****  **************************************************************************************************
 106:D:/Work/DeviceTester/amazon-freertos/lib/third_party/mcu_vendor/renesas/rz_mcu_boards/core_package/generate/sc_drivers/r_octabus/src/lld\r_octabus_lld_rza2m_api.c **** static void octabus_io_regwrite_32(volatile uint32_t * ioreg, uint32_t write_value, uint32_t shift,
 107:D:/Work/DeviceTester/amazon-freertos/lib/third_party/mcu_vendor/renesas/rz_mcu_boards/core_package/generate/sc_drivers/r_octabus/src/lld\r_octabus_lld_rza2m_api.c **** {
 108:D:/Work/DeviceTester/amazon-freertos/lib/third_party/mcu_vendor/renesas/rz_mcu_boards/core_package/generate/sc_drivers/r_octabus/src/lld\r_octabus_lld_rza2m_api.c ****     uint32_t reg_value;
 109:D:/Work/DeviceTester/amazon-freertos/lib/third_party/mcu_vendor/renesas/rz_mcu_boards/core_package/generate/sc_drivers/r_octabus/src/lld\r_octabus_lld_rza2m_api.c ****     
 110:D:/Work/DeviceTester/amazon-freertos/lib/third_party/mcu_vendor/renesas/rz_mcu_boards/core_package/generate/sc_drivers/r_octabus/src/lld\r_octabus_lld_rza2m_api.c ****     if (IOREG_NONMASK_ACCESS != mask)
 111:D:/Work/DeviceTester/amazon-freertos/lib/third_party/mcu_vendor/renesas/rz_mcu_boards/core_package/generate/sc_drivers/r_octabus/src/lld\r_octabus_lld_rza2m_api.c ****     {
 112:D:/Work/DeviceTester/amazon-freertos/lib/third_party/mcu_vendor/renesas/rz_mcu_boards/core_package/generate/sc_drivers/r_octabus/src/lld\r_octabus_lld_rza2m_api.c ****         reg_value = *ioreg;                                         /** Read from register */
 113:D:/Work/DeviceTester/amazon-freertos/lib/third_party/mcu_vendor/renesas/rz_mcu_boards/core_package/generate/sc_drivers/r_octabus/src/lld\r_octabus_lld_rza2m_api.c ****         reg_value = (reg_value & (~mask)) | (unsigned)(write_value << shift); /** Modify value     
 114:D:/Work/DeviceTester/amazon-freertos/lib/third_party/mcu_vendor/renesas/rz_mcu_boards/core_package/generate/sc_drivers/r_octabus/src/lld\r_octabus_lld_rza2m_api.c ****     }
 115:D:/Work/DeviceTester/amazon-freertos/lib/third_party/mcu_vendor/renesas/rz_mcu_boards/core_package/generate/sc_drivers/r_octabus/src/lld\r_octabus_lld_rza2m_api.c ****     else
 116:D:/Work/DeviceTester/amazon-freertos/lib/third_party/mcu_vendor/renesas/rz_mcu_boards/core_package/generate/sc_drivers/r_octabus/src/lld\r_octabus_lld_rza2m_api.c ****     {
 117:D:/Work/DeviceTester/amazon-freertos/lib/third_party/mcu_vendor/renesas/rz_mcu_boards/core_package/generate/sc_drivers/r_octabus/src/lld\r_octabus_lld_rza2m_api.c ****         reg_value = write_value;
 118:D:/Work/DeviceTester/amazon-freertos/lib/third_party/mcu_vendor/renesas/rz_mcu_boards/core_package/generate/sc_drivers/r_octabus/src/lld\r_octabus_lld_rza2m_api.c ****     }
 119:D:/Work/DeviceTester/amazon-freertos/lib/third_party/mcu_vendor/renesas/rz_mcu_boards/core_package/generate/sc_drivers/r_octabus/src/lld\r_octabus_lld_rza2m_api.c ****     *ioreg    = reg_value;                                      /** Write to register  */
 120:D:/Work/DeviceTester/amazon-freertos/lib/third_party/mcu_vendor/renesas/rz_mcu_boards/core_package/generate/sc_drivers/r_octabus/src/lld\r_octabus_lld_rza2m_api.c **** }
 121:D:/Work/DeviceTester/amazon-freertos/lib/third_party/mcu_vendor/renesas/rz_mcu_boards/core_package/generate/sc_drivers/r_octabus/src/lld\r_octabus_lld_rza2m_api.c **** /**************************************************************************************************
 122:D:/Work/DeviceTester/amazon-freertos/lib/third_party/mcu_vendor/renesas/rz_mcu_boards/core_package/generate/sc_drivers/r_octabus/src/lld\r_octabus_lld_rza2m_api.c ****  * End of function octabus_io_regwrite_32
 123:D:/Work/DeviceTester/amazon-freertos/lib/third_party/mcu_vendor/renesas/rz_mcu_boards/core_package/generate/sc_drivers/r_octabus/src/lld\r_octabus_lld_rza2m_api.c ****  **************************************************************************************************
 124:D:/Work/DeviceTester/amazon-freertos/lib/third_party/mcu_vendor/renesas/rz_mcu_boards/core_package/generate/sc_drivers/r_octabus/src/lld\r_octabus_lld_rza2m_api.c **** 
 125:D:/Work/DeviceTester/amazon-freertos/lib/third_party/mcu_vendor/renesas/rz_mcu_boards/core_package/generate/sc_drivers/r_octabus/src/lld\r_octabus_lld_rza2m_api.c **** /**************************************************************************************************
 126:D:/Work/DeviceTester/amazon-freertos/lib/third_party/mcu_vendor/renesas/rz_mcu_boards/core_package/generate/sc_drivers/r_octabus/src/lld\r_octabus_lld_rza2m_api.c ****  * Function Name: octabus_io_regread_32
 127:D:/Work/DeviceTester/amazon-freertos/lib/third_party/mcu_vendor/renesas/rz_mcu_boards/core_package/generate/sc_drivers/r_octabus/src/lld\r_octabus_lld_rza2m_api.c ****  * Description  : IO register 32-bit read
 128:D:/Work/DeviceTester/amazon-freertos/lib/third_party/mcu_vendor/renesas/rz_mcu_boards/core_package/generate/sc_drivers/r_octabus/src/lld\r_octabus_lld_rza2m_api.c ****  * Arguments    : volatile uint32_t * ioreg : IO register for reading
 129:D:/Work/DeviceTester/amazon-freertos/lib/third_party/mcu_vendor/renesas/rz_mcu_boards/core_package/generate/sc_drivers/r_octabus/src/lld\r_octabus_lld_rza2m_api.c ****  *              :                           : Use register definition name of the
 130:D:/Work/DeviceTester/amazon-freertos/lib/third_party/mcu_vendor/renesas/rz_mcu_boards/core_package/generate/sc_drivers/r_octabus/src/lld\r_octabus_lld_rza2m_api.c ****  *              :                           : iodefine.h
 131:D:/Work/DeviceTester/amazon-freertos/lib/third_party/mcu_vendor/renesas/rz_mcu_boards/core_package/generate/sc_drivers/r_octabus/src/lld\r_octabus_lld_rza2m_api.c ****  *              : uint32_t shift            : The number of right shifts to the
 132:D:/Work/DeviceTester/amazon-freertos/lib/third_party/mcu_vendor/renesas/rz_mcu_boards/core_package/generate/sc_drivers/r_octabus/src/lld\r_octabus_lld_rza2m_api.c ****  *              :                           : target bit
 133:D:/Work/DeviceTester/amazon-freertos/lib/third_party/mcu_vendor/renesas/rz_mcu_boards/core_package/generate/sc_drivers/r_octabus/src/lld\r_octabus_lld_rza2m_api.c ****  *              : uint32_t mask             : Mask bit for the IO register
 134:D:/Work/DeviceTester/amazon-freertos/lib/third_party/mcu_vendor/renesas/rz_mcu_boards/core_package/generate/sc_drivers/r_octabus/src/lld\r_octabus_lld_rza2m_api.c ****  *              :                           : (Target bit: "1")
 135:D:/Work/DeviceTester/amazon-freertos/lib/third_party/mcu_vendor/renesas/rz_mcu_boards/core_package/generate/sc_drivers/r_octabus/src/lld\r_octabus_lld_rza2m_api.c ****  * Return Value : uint32_t : Value of the obtained target bit
 136:D:/Work/DeviceTester/amazon-freertos/lib/third_party/mcu_vendor/renesas/rz_mcu_boards/core_package/generate/sc_drivers/r_octabus/src/lld\r_octabus_lld_rza2m_api.c ****  * Precautions  : This function cannot be assigned to execute from OctaFlash or OctaRAM.
 137:D:/Work/DeviceTester/amazon-freertos/lib/third_party/mcu_vendor/renesas/rz_mcu_boards/core_package/generate/sc_drivers/r_octabus/src/lld\r_octabus_lld_rza2m_api.c ****  *              : This function must be assigned to an area other than OctaFlash or OctaRAM.
 138:D:/Work/DeviceTester/amazon-freertos/lib/third_party/mcu_vendor/renesas/rz_mcu_boards/core_package/generate/sc_drivers/r_octabus/src/lld\r_octabus_lld_rza2m_api.c ****  **************************************************************************************************
 139:D:/Work/DeviceTester/amazon-freertos/lib/third_party/mcu_vendor/renesas/rz_mcu_boards/core_package/generate/sc_drivers/r_octabus/src/lld\r_octabus_lld_rza2m_api.c **** static uint32_t octabus_io_regread_32(volatile uint32_t * ioreg, uint32_t shift, uint32_t mask)
 140:D:/Work/DeviceTester/amazon-freertos/lib/third_party/mcu_vendor/renesas/rz_mcu_boards/core_package/generate/sc_drivers/r_octabus/src/lld\r_octabus_lld_rza2m_api.c **** {
 141:D:/Work/DeviceTester/amazon-freertos/lib/third_party/mcu_vendor/renesas/rz_mcu_boards/core_package/generate/sc_drivers/r_octabus/src/lld\r_octabus_lld_rza2m_api.c ****     uint32_t reg_value;
 142:D:/Work/DeviceTester/amazon-freertos/lib/third_party/mcu_vendor/renesas/rz_mcu_boards/core_package/generate/sc_drivers/r_octabus/src/lld\r_octabus_lld_rza2m_api.c **** 
 143:D:/Work/DeviceTester/amazon-freertos/lib/third_party/mcu_vendor/renesas/rz_mcu_boards/core_package/generate/sc_drivers/r_octabus/src/lld\r_octabus_lld_rza2m_api.c ****     reg_value = *ioreg;                         /* Read from register            */
 144:D:/Work/DeviceTester/amazon-freertos/lib/third_party/mcu_vendor/renesas/rz_mcu_boards/core_package/generate/sc_drivers/r_octabus/src/lld\r_octabus_lld_rza2m_api.c ****     if (IOREG_NONMASK_ACCESS != mask)
 145:D:/Work/DeviceTester/amazon-freertos/lib/third_party/mcu_vendor/renesas/rz_mcu_boards/core_package/generate/sc_drivers/r_octabus/src/lld\r_octabus_lld_rza2m_api.c ****     {
 146:D:/Work/DeviceTester/amazon-freertos/lib/third_party/mcu_vendor/renesas/rz_mcu_boards/core_package/generate/sc_drivers/r_octabus/src/lld\r_octabus_lld_rza2m_api.c ****         reg_value = (reg_value & mask) >> shift;    /* Clear other bit and Bit shift */
 147:D:/Work/DeviceTester/amazon-freertos/lib/third_party/mcu_vendor/renesas/rz_mcu_boards/core_package/generate/sc_drivers/r_octabus/src/lld\r_octabus_lld_rza2m_api.c ****     }
 148:D:/Work/DeviceTester/amazon-freertos/lib/third_party/mcu_vendor/renesas/rz_mcu_boards/core_package/generate/sc_drivers/r_octabus/src/lld\r_octabus_lld_rza2m_api.c **** 
 149:D:/Work/DeviceTester/amazon-freertos/lib/third_party/mcu_vendor/renesas/rz_mcu_boards/core_package/generate/sc_drivers/r_octabus/src/lld\r_octabus_lld_rza2m_api.c ****     return reg_value;
 150:D:/Work/DeviceTester/amazon-freertos/lib/third_party/mcu_vendor/renesas/rz_mcu_boards/core_package/generate/sc_drivers/r_octabus/src/lld\r_octabus_lld_rza2m_api.c **** }
 151:D:/Work/DeviceTester/amazon-freertos/lib/third_party/mcu_vendor/renesas/rz_mcu_boards/core_package/generate/sc_drivers/r_octabus/src/lld\r_octabus_lld_rza2m_api.c **** /**************************************************************************************************
 152:D:/Work/DeviceTester/amazon-freertos/lib/third_party/mcu_vendor/renesas/rz_mcu_boards/core_package/generate/sc_drivers/r_octabus/src/lld\r_octabus_lld_rza2m_api.c ****  * End of function octabus_io_regread_32
 153:D:/Work/DeviceTester/amazon-freertos/lib/third_party/mcu_vendor/renesas/rz_mcu_boards/core_package/generate/sc_drivers/r_octabus/src/lld\r_octabus_lld_rza2m_api.c ****  **************************************************************************************************
 154:D:/Work/DeviceTester/amazon-freertos/lib/third_party/mcu_vendor/renesas/rz_mcu_boards/core_package/generate/sc_drivers/r_octabus/src/lld\r_octabus_lld_rza2m_api.c **** 
 155:D:/Work/DeviceTester/amazon-freertos/lib/third_party/mcu_vendor/renesas/rz_mcu_boards/core_package/generate/sc_drivers/r_octabus/src/lld\r_octabus_lld_rza2m_api.c **** /**************************************************************************************************
 156:D:/Work/DeviceTester/amazon-freertos/lib/third_party/mcu_vendor/renesas/rz_mcu_boards/core_package/generate/sc_drivers/r_octabus/src/lld\r_octabus_lld_rza2m_api.c ****  * Function Name: octaram_init
 157:D:/Work/DeviceTester/amazon-freertos/lib/third_party/mcu_vendor/renesas/rz_mcu_boards/core_package/generate/sc_drivers/r_octabus/src/lld\r_octabus_lld_rza2m_api.c ****  * Description  : Initialize OctaBus controller of RZ/A2M
 158:D:/Work/DeviceTester/amazon-freertos/lib/third_party/mcu_vendor/renesas/rz_mcu_boards/core_package/generate/sc_drivers/r_octabus/src/lld\r_octabus_lld_rza2m_api.c ****  * Arguments    : p_cfg       : Pointer to the configuration table
 159:D:/Work/DeviceTester/amazon-freertos/lib/third_party/mcu_vendor/renesas/rz_mcu_boards/core_package/generate/sc_drivers/r_octabus/src/lld\r_octabus_lld_rza2m_api.c ****  * Return Value : DRV_SUCCESS  Successful operation (always)
 160:D:/Work/DeviceTester/amazon-freertos/lib/third_party/mcu_vendor/renesas/rz_mcu_boards/core_package/generate/sc_drivers/r_octabus/src/lld\r_octabus_lld_rza2m_api.c ****  * Precautions  : This function cannot be assigned to execute from OctaFlash or OctaRAM.
 161:D:/Work/DeviceTester/amazon-freertos/lib/third_party/mcu_vendor/renesas/rz_mcu_boards/core_package/generate/sc_drivers/r_octabus/src/lld\r_octabus_lld_rza2m_api.c ****  *              : This function must be assigned to an area other than OctaFlash or OctaRAM.
 162:D:/Work/DeviceTester/amazon-freertos/lib/third_party/mcu_vendor/renesas/rz_mcu_boards/core_package/generate/sc_drivers/r_octabus/src/lld\r_octabus_lld_rza2m_api.c ****  **************************************************************************************************
 163:D:/Work/DeviceTester/amazon-freertos/lib/third_party/mcu_vendor/renesas/rz_mcu_boards/core_package/generate/sc_drivers/r_octabus/src/lld\r_octabus_lld_rza2m_api.c **** static int_t octaram_init(const st_octabus_cfg_t * p_cfg)
 164:D:/Work/DeviceTester/amazon-freertos/lib/third_party/mcu_vendor/renesas/rz_mcu_boards/core_package/generate/sc_drivers/r_octabus/src/lld\r_octabus_lld_rza2m_api.c **** {
  25              		.loc 1 164 0
  26              		.cfi_startproc
  27              		@ args = 0, pretend = 0, frame = 0
  28              		@ frame_needed = 0, uses_anonymous_args = 0
  29              		@ link register save eliminated.
  30              	.LVL0:
 165:D:/Work/DeviceTester/amazon-freertos/lib/third_party/mcu_vendor/renesas/rz_mcu_boards/core_package/generate/sc_drivers/r_octabus/src/lld\r_octabus_lld_rza2m_api.c ****     uint32_t dummy_32;
 166:D:/Work/DeviceTester/amazon-freertos/lib/third_party/mcu_vendor/renesas/rz_mcu_boards/core_package/generate/sc_drivers/r_octabus/src/lld\r_octabus_lld_rza2m_api.c **** 
 167:D:/Work/DeviceTester/amazon-freertos/lib/third_party/mcu_vendor/renesas/rz_mcu_boards/core_package/generate/sc_drivers/r_octabus/src/lld\r_octabus_lld_rza2m_api.c ****     /*****************************************************************/
 168:D:/Work/DeviceTester/amazon-freertos/lib/third_party/mcu_vendor/renesas/rz_mcu_boards/core_package/generate/sc_drivers/r_octabus/src/lld\r_octabus_lld_rza2m_api.c **** 
 169:D:/Work/DeviceTester/amazon-freertos/lib/third_party/mcu_vendor/renesas/rz_mcu_boards/core_package/generate/sc_drivers/r_octabus/src/lld\r_octabus_lld_rza2m_api.c ****     /** Make write data to DSR1  */
 170:D:/Work/DeviceTester/amazon-freertos/lib/third_party/mcu_vendor/renesas/rz_mcu_boards/core_package/generate/sc_drivers/r_octabus/src/lld\r_octabus_lld_rza2m_api.c ****     dummy_32 = (uint32_t) (0x01 << OCTA_DSR1_DV1TYP_SHIFT)
  31              		.loc 1 170 0
  32 0000 043090E5 		ldr	r3, [r0, #4]
  33              	.LBB84:
  34              	.LBB85:
 119:D:/Work/DeviceTester/amazon-freertos/lib/third_party/mcu_vendor/renesas/rz_mcu_boards/core_package/generate/sc_drivers/r_octabus/src/lld\r_octabus_lld_rza2m_api.c **** }
  35              		.loc 1 119 0
  36 0004 14219FE5 		ldr	r2, .L2
  37              	.LBE85:
  38              	.LBE84:
 171:D:/Work/DeviceTester/amazon-freertos/lib/third_party/mcu_vendor/renesas/rz_mcu_boards/core_package/generate/sc_drivers/r_octabus/src/lld\r_octabus_lld_rza2m_api.c ****                 |    (p_cfg->devsize1 << OCTA_DSR1_DV1SZ_SHIFT);
 172:D:/Work/DeviceTester/amazon-freertos/lib/third_party/mcu_vendor/renesas/rz_mcu_boards/core_package/generate/sc_drivers/r_octabus/src/lld\r_octabus_lld_rza2m_api.c **** 
 173:D:/Work/DeviceTester/amazon-freertos/lib/third_party/mcu_vendor/renesas/rz_mcu_boards/core_package/generate/sc_drivers/r_octabus/src/lld\r_octabus_lld_rza2m_api.c ****     /** Write to DSR1 */
 174:D:/Work/DeviceTester/amazon-freertos/lib/third_party/mcu_vendor/renesas/rz_mcu_boards/core_package/generate/sc_drivers/r_octabus/src/lld\r_octabus_lld_rza2m_api.c ****     octabus_io_regwrite_32(&OCTA.DSR1.LONG, dummy_32, IOREG_NONSHIFT_ACCESS, IOREG_NONMASK_ACCESS);
 175:D:/Work/DeviceTester/amazon-freertos/lib/third_party/mcu_vendor/renesas/rz_mcu_boards/core_package/generate/sc_drivers/r_octabus/src/lld\r_octabus_lld_rza2m_api.c **** 
 176:D:/Work/DeviceTester/amazon-freertos/lib/third_party/mcu_vendor/renesas/rz_mcu_boards/core_package/generate/sc_drivers/r_octabus/src/lld\r_octabus_lld_rza2m_api.c ****     /*****************************************************************/
 177:D:/Work/DeviceTester/amazon-freertos/lib/third_party/mcu_vendor/renesas/rz_mcu_boards/core_package/generate/sc_drivers/r_octabus/src/lld\r_octabus_lld_rza2m_api.c **** 
 178:D:/Work/DeviceTester/amazon-freertos/lib/third_party/mcu_vendor/renesas/rz_mcu_boards/core_package/generate/sc_drivers/r_octabus/src/lld\r_octabus_lld_rza2m_api.c ****     /** Read from CDSR */
 179:D:/Work/DeviceTester/amazon-freertos/lib/third_party/mcu_vendor/renesas/rz_mcu_boards/core_package/generate/sc_drivers/r_octabus/src/lld\r_octabus_lld_rza2m_api.c ****     dummy_32 = octabus_io_regread_32(&OCTA.CDSR.LONG, IOREG_NONSHIFT_ACCESS, IOREG_NONMASK_ACCESS);
 180:D:/Work/DeviceTester/amazon-freertos/lib/third_party/mcu_vendor/renesas/rz_mcu_boards/core_package/generate/sc_drivers/r_octabus/src/lld\r_octabus_lld_rza2m_api.c **** 
 181:D:/Work/DeviceTester/amazon-freertos/lib/third_party/mcu_vendor/renesas/rz_mcu_boards/core_package/generate/sc_drivers/r_octabus/src/lld\r_octabus_lld_rza2m_api.c ****     /** Clear DV1PC & DV1TTYP */
 182:D:/Work/DeviceTester/amazon-freertos/lib/third_party/mcu_vendor/renesas/rz_mcu_boards/core_package/generate/sc_drivers/r_octabus/src/lld\r_octabus_lld_rza2m_api.c ****     dummy_32 &= (~(uint32_t) (OCTA_CDSR_DV1PC | OCTA_CDSR_DV1TTYP));
 183:D:/Work/DeviceTester/amazon-freertos/lib/third_party/mcu_vendor/renesas/rz_mcu_boards/core_package/generate/sc_drivers/r_octabus/src/lld\r_octabus_lld_rza2m_api.c **** 
 184:D:/Work/DeviceTester/amazon-freertos/lib/third_party/mcu_vendor/renesas/rz_mcu_boards/core_package/generate/sc_drivers/r_octabus/src/lld\r_octabus_lld_rza2m_api.c ****     /** Make write data to CDSR  */
 185:D:/Work/DeviceTester/amazon-freertos/lib/third_party/mcu_vendor/renesas/rz_mcu_boards/core_package/generate/sc_drivers/r_octabus/src/lld\r_octabus_lld_rza2m_api.c ****     dummy_32 |= (uint32_t) ((0x1 << OCTA_CDSR_DLFT_SHIFT)
 186:D:/Work/DeviceTester/amazon-freertos/lib/third_party/mcu_vendor/renesas/rz_mcu_boards/core_package/generate/sc_drivers/r_octabus/src/lld\r_octabus_lld_rza2m_api.c ****                 |    (p_cfg->precycle1 << OCTA_CDSR_DV1PC_SHIFT)     /* Pre-cycle */
  39              		.loc 1 186 0
  40 0008 08C0D0E5 		ldrb	ip, [r0, #8]	@ zero_extendqisi2
 170:D:/Work/DeviceTester/amazon-freertos/lib/third_party/mcu_vendor/renesas/rz_mcu_boards/core_package/generate/sc_drivers/r_octabus/src/lld\r_octabus_lld_rza2m_api.c ****                 |    (p_cfg->devsize1 << OCTA_DSR1_DV1SZ_SHIFT);
  41              		.loc 1 170 0
  42 000c 013183E3 		orr	r3, r3, #1073741824
  43              	.LVL1:
  44              	.LBB87:
  45              	.LBB86:
 119:D:/Work/DeviceTester/amazon-freertos/lib/third_party/mcu_vendor/renesas/rz_mcu_boards/core_package/generate/sc_drivers/r_octabus/src/lld\r_octabus_lld_rza2m_api.c **** }
  46              		.loc 1 119 0
  47 0010 103082E5 		str	r3, [r2, #16]
  48              	.LVL2:
  49              	.LBE86:
  50              	.LBE87:
  51              	.LBB88:
  52              	.LBB89:
 143:D:/Work/DeviceTester/amazon-freertos/lib/third_party/mcu_vendor/renesas/rz_mcu_boards/core_package/generate/sc_drivers/r_octabus/src/lld\r_octabus_lld_rza2m_api.c ****     if (IOREG_NONMASK_ACCESS != mask)
  53              		.loc 1 143 0
  54 0014 403092E5 		ldr	r3, [r2, #64]
  55              	.LVL3:
  56              	.LBE89:
  57              	.LBE88:
 182:D:/Work/DeviceTester/amazon-freertos/lib/third_party/mcu_vendor/renesas/rz_mcu_boards/core_package/generate/sc_drivers/r_octabus/src/lld\r_octabus_lld_rza2m_api.c **** 
  58              		.loc 1 182 0
  59 0018 2C10C3E3 		bic	r1, r3, #44
  60              	.LVL4:
 187:D:/Work/DeviceTester/amazon-freertos/lib/third_party/mcu_vendor/renesas/rz_mcu_boards/core_package/generate/sc_drivers/r_octabus/src/lld\r_octabus_lld_rza2m_api.c ****                 |    (p_cfg->ttype1 << OCTA_CDSR_DV1TTYP_SHIFT));    /* Transfer mode */
  61              		.loc 1 187 0
  62 001c 0930D0E5 		ldrb	r3, [r0, #9]	@ zero_extendqisi2
  63 0020 0331A0E1 		lsl	r3, r3, #2
  64 0024 8C3283E1 		orr	r3, r3, ip, lsl #5
  65 0028 023183E3 		orr	r3, r3, #-2147483648
 185:D:/Work/DeviceTester/amazon-freertos/lib/third_party/mcu_vendor/renesas/rz_mcu_boards/core_package/generate/sc_drivers/r_octabus/src/lld\r_octabus_lld_rza2m_api.c ****                 |    (p_cfg->precycle1 << OCTA_CDSR_DV1PC_SHIFT)     /* Pre-cycle */
  66              		.loc 1 185 0
  67 002c 013083E1 		orr	r3, r3, r1
  68              	.LVL5:
  69              	.LBB90:
  70              	.LBB91:
 119:D:/Work/DeviceTester/amazon-freertos/lib/third_party/mcu_vendor/renesas/rz_mcu_boards/core_package/generate/sc_drivers/r_octabus/src/lld\r_octabus_lld_rza2m_api.c **** }
  71              		.loc 1 119 0
  72 0030 403082E5 		str	r3, [r2, #64]
  73              	.LVL6:
  74              	.LBE91:
  75              	.LBE90:
  76              	.LBB92:
  77              	.LBB93:
 143:D:/Work/DeviceTester/amazon-freertos/lib/third_party/mcu_vendor/renesas/rz_mcu_boards/core_package/generate/sc_drivers/r_octabus/src/lld\r_octabus_lld_rza2m_api.c ****     if (IOREG_NONMASK_ACCESS != mask)
  78              		.loc 1 143 0
  79 0034 443092E5 		ldr	r3, [r2, #68]
  80              	.LVL7:
  81              	.LBE93:
  82              	.LBE92:
 188:D:/Work/DeviceTester/amazon-freertos/lib/third_party/mcu_vendor/renesas/rz_mcu_boards/core_package/generate/sc_drivers/r_octabus/src/lld\r_octabus_lld_rza2m_api.c **** 
 189:D:/Work/DeviceTester/amazon-freertos/lib/third_party/mcu_vendor/renesas/rz_mcu_boards/core_package/generate/sc_drivers/r_octabus/src/lld\r_octabus_lld_rza2m_api.c ****     /** Write to CDSR */
 190:D:/Work/DeviceTester/amazon-freertos/lib/third_party/mcu_vendor/renesas/rz_mcu_boards/core_package/generate/sc_drivers/r_octabus/src/lld\r_octabus_lld_rza2m_api.c ****     octabus_io_regwrite_32(&OCTA.CDSR.LONG, dummy_32, IOREG_NONSHIFT_ACCESS, IOREG_NONMASK_ACCESS);
 191:D:/Work/DeviceTester/amazon-freertos/lib/third_party/mcu_vendor/renesas/rz_mcu_boards/core_package/generate/sc_drivers/r_octabus/src/lld\r_octabus_lld_rza2m_api.c **** 
 192:D:/Work/DeviceTester/amazon-freertos/lib/third_party/mcu_vendor/renesas/rz_mcu_boards/core_package/generate/sc_drivers/r_octabus/src/lld\r_octabus_lld_rza2m_api.c ****     /*****************************************************************/
 193:D:/Work/DeviceTester/amazon-freertos/lib/third_party/mcu_vendor/renesas/rz_mcu_boards/core_package/generate/sc_drivers/r_octabus/src/lld\r_octabus_lld_rza2m_api.c **** 
 194:D:/Work/DeviceTester/amazon-freertos/lib/third_party/mcu_vendor/renesas/rz_mcu_boards/core_package/generate/sc_drivers/r_octabus/src/lld\r_octabus_lld_rza2m_api.c ****     /** Read from MDLR */
 195:D:/Work/DeviceTester/amazon-freertos/lib/third_party/mcu_vendor/renesas/rz_mcu_boards/core_package/generate/sc_drivers/r_octabus/src/lld\r_octabus_lld_rza2m_api.c ****     dummy_32 = octabus_io_regread_32(&OCTA.MDLR.LONG, IOREG_NONSHIFT_ACCESS, IOREG_NONMASK_ACCESS);
 196:D:/Work/DeviceTester/amazon-freertos/lib/third_party/mcu_vendor/renesas/rz_mcu_boards/core_package/generate/sc_drivers/r_octabus/src/lld\r_octabus_lld_rza2m_api.c **** 
 197:D:/Work/DeviceTester/amazon-freertos/lib/third_party/mcu_vendor/renesas/rz_mcu_boards/core_package/generate/sc_drivers/r_octabus/src/lld\r_octabus_lld_rza2m_api.c ****     /** Clear DV1WDL & DV1RDL */
 198:D:/Work/DeviceTester/amazon-freertos/lib/third_party/mcu_vendor/renesas/rz_mcu_boards/core_package/generate/sc_drivers/r_octabus/src/lld\r_octabus_lld_rza2m_api.c ****     dummy_32 &= (~(uint32_t) (OCTA_MDLR_DV1WDL | OCTA_MDLR_DV1RDL));
 199:D:/Work/DeviceTester/amazon-freertos/lib/third_party/mcu_vendor/renesas/rz_mcu_boards/core_package/generate/sc_drivers/r_octabus/src/lld\r_octabus_lld_rza2m_api.c **** 
 200:D:/Work/DeviceTester/amazon-freertos/lib/third_party/mcu_vendor/renesas/rz_mcu_boards/core_package/generate/sc_drivers/r_octabus/src/lld\r_octabus_lld_rza2m_api.c ****     /** Make write data to MDLR  */
 201:D:/Work/DeviceTester/amazon-freertos/lib/third_party/mcu_vendor/renesas/rz_mcu_boards/core_package/generate/sc_drivers/r_octabus/src/lld\r_octabus_lld_rza2m_api.c ****     dummy_32 |= (uint32_t) ((p_cfg->w_dmy_len1 << OCTA_MDLR_DV1WDL_SHIFT)  /* Write Dummy cycle */
  83              		.loc 1 201 0
  84 0038 0AC0D0E5 		ldrb	ip, [r0, #10]	@ zero_extendqisi2
 198:D:/Work/DeviceTester/amazon-freertos/lib/third_party/mcu_vendor/renesas/rz_mcu_boards/core_package/generate/sc_drivers/r_octabus/src/lld\r_octabus_lld_rza2m_api.c **** 
  85              		.loc 1 198 0
  86 003c 7310FFE6 		uxth	r1, r3
  87              	.LVL8:
 202:D:/Work/DeviceTester/amazon-freertos/lib/third_party/mcu_vendor/renesas/rz_mcu_boards/core_package/generate/sc_drivers/r_octabus/src/lld\r_octabus_lld_rza2m_api.c ****                 |    (p_cfg->r_dmy_len1 << OCTA_MDLR_DV1RDL_SHIFT));       /* Read Dummy cycle */
  88              		.loc 1 202 0
  89 0040 0B30D0E5 		ldrb	r3, [r0, #11]	@ zero_extendqisi2
  90 0044 0338A0E1 		lsl	r3, r3, #16
  91 0048 0C3C83E1 		orr	r3, r3, ip, lsl #24
 203:D:/Work/DeviceTester/amazon-freertos/lib/third_party/mcu_vendor/renesas/rz_mcu_boards/core_package/generate/sc_drivers/r_octabus/src/lld\r_octabus_lld_rza2m_api.c **** 
 204:D:/Work/DeviceTester/amazon-freertos/lib/third_party/mcu_vendor/renesas/rz_mcu_boards/core_package/generate/sc_drivers/r_octabus/src/lld\r_octabus_lld_rza2m_api.c ****     /** Write to MDLR */
 205:D:/Work/DeviceTester/amazon-freertos/lib/third_party/mcu_vendor/renesas/rz_mcu_boards/core_package/generate/sc_drivers/r_octabus/src/lld\r_octabus_lld_rza2m_api.c ****     octabus_io_regwrite_32(&OCTA.MDLR.LONG, dummy_32, IOREG_NONSHIFT_ACCESS, IOREG_NONMASK_ACCESS);
 206:D:/Work/DeviceTester/amazon-freertos/lib/third_party/mcu_vendor/renesas/rz_mcu_boards/core_package/generate/sc_drivers/r_octabus/src/lld\r_octabus_lld_rza2m_api.c **** 
 207:D:/Work/DeviceTester/amazon-freertos/lib/third_party/mcu_vendor/renesas/rz_mcu_boards/core_package/generate/sc_drivers/r_octabus/src/lld\r_octabus_lld_rza2m_api.c ****     /*****************************************************************/
 208:D:/Work/DeviceTester/amazon-freertos/lib/third_party/mcu_vendor/renesas/rz_mcu_boards/core_package/generate/sc_drivers/r_octabus/src/lld\r_octabus_lld_rza2m_api.c **** 
 209:D:/Work/DeviceTester/amazon-freertos/lib/third_party/mcu_vendor/renesas/rz_mcu_boards/core_package/generate/sc_drivers/r_octabus/src/lld\r_octabus_lld_rza2m_api.c ****     /** Read from MDTR */
 210:D:/Work/DeviceTester/amazon-freertos/lib/third_party/mcu_vendor/renesas/rz_mcu_boards/core_package/generate/sc_drivers/r_octabus/src/lld\r_octabus_lld_rza2m_api.c ****     dummy_32 = octabus_io_regread_32(&OCTA.MDTR.LONG, IOREG_NONSHIFT_ACCESS, IOREG_NONMASK_ACCESS);
 211:D:/Work/DeviceTester/amazon-freertos/lib/third_party/mcu_vendor/renesas/rz_mcu_boards/core_package/generate/sc_drivers/r_octabus/src/lld\r_octabus_lld_rza2m_api.c **** 
 212:D:/Work/DeviceTester/amazon-freertos/lib/third_party/mcu_vendor/renesas/rz_mcu_boards/core_package/generate/sc_drivers/r_octabus/src/lld\r_octabus_lld_rza2m_api.c ****     /** Clear DQSERAM */
 213:D:/Work/DeviceTester/amazon-freertos/lib/third_party/mcu_vendor/renesas/rz_mcu_boards/core_package/generate/sc_drivers/r_octabus/src/lld\r_octabus_lld_rza2m_api.c ****     dummy_32 &= (~(uint32_t) (OCTA_MDTR_DQSERAM));
 214:D:/Work/DeviceTester/amazon-freertos/lib/third_party/mcu_vendor/renesas/rz_mcu_boards/core_package/generate/sc_drivers/r_octabus/src/lld\r_octabus_lld_rza2m_api.c **** 
 215:D:/Work/DeviceTester/amazon-freertos/lib/third_party/mcu_vendor/renesas/rz_mcu_boards/core_package/generate/sc_drivers/r_octabus/src/lld\r_octabus_lld_rza2m_api.c ****     /** Make write data to MDTR  */
 216:D:/Work/DeviceTester/amazon-freertos/lib/third_party/mcu_vendor/renesas/rz_mcu_boards/core_package/generate/sc_drivers/r_octabus/src/lld\r_octabus_lld_rza2m_api.c ****     dummy_32 |= (uint32_t) (p_cfg->dqs_ena_cnt1 << OCTA_MDTR_DQSERAM_SHIFT);    /* DQS enable count
 217:D:/Work/DeviceTester/amazon-freertos/lib/third_party/mcu_vendor/renesas/rz_mcu_boards/core_package/generate/sc_drivers/r_octabus/src/lld\r_octabus_lld_rza2m_api.c **** 
 218:D:/Work/DeviceTester/amazon-freertos/lib/third_party/mcu_vendor/renesas/rz_mcu_boards/core_package/generate/sc_drivers/r_octabus/src/lld\r_octabus_lld_rza2m_api.c ****     /** Write to MDTR */
 219:D:/Work/DeviceTester/amazon-freertos/lib/third_party/mcu_vendor/renesas/rz_mcu_boards/core_package/generate/sc_drivers/r_octabus/src/lld\r_octabus_lld_rza2m_api.c ****     octabus_io_regwrite_32(&OCTA.MDTR.LONG, dummy_32, IOREG_NONSHIFT_ACCESS, IOREG_NONMASK_ACCESS);
 220:D:/Work/DeviceTester/amazon-freertos/lib/third_party/mcu_vendor/renesas/rz_mcu_boards/core_package/generate/sc_drivers/r_octabus/src/lld\r_octabus_lld_rza2m_api.c **** 
 221:D:/Work/DeviceTester/amazon-freertos/lib/third_party/mcu_vendor/renesas/rz_mcu_boards/core_package/generate/sc_drivers/r_octabus/src/lld\r_octabus_lld_rza2m_api.c ****     /*****************************************************************/
 222:D:/Work/DeviceTester/amazon-freertos/lib/third_party/mcu_vendor/renesas/rz_mcu_boards/core_package/generate/sc_drivers/r_octabus/src/lld\r_octabus_lld_rza2m_api.c **** 
 223:D:/Work/DeviceTester/amazon-freertos/lib/third_party/mcu_vendor/renesas/rz_mcu_boards/core_package/generate/sc_drivers/r_octabus/src/lld\r_octabus_lld_rza2m_api.c ****     /** Read from DRCSTR */
 224:D:/Work/DeviceTester/amazon-freertos/lib/third_party/mcu_vendor/renesas/rz_mcu_boards/core_package/generate/sc_drivers/r_octabus/src/lld\r_octabus_lld_rza2m_api.c ****     dummy_32 = octabus_io_regread_32(&OCTA.DRCSTR.LONG, IOREG_NONSHIFT_ACCESS, IOREG_NONMASK_ACCESS
 225:D:/Work/DeviceTester/amazon-freertos/lib/third_party/mcu_vendor/renesas/rz_mcu_boards/core_package/generate/sc_drivers/r_octabus/src/lld\r_octabus_lld_rza2m_api.c **** 
 226:D:/Work/DeviceTester/amazon-freertos/lib/third_party/mcu_vendor/renesas/rz_mcu_boards/core_package/generate/sc_drivers/r_octabus/src/lld\r_octabus_lld_rza2m_api.c ****     /** Clear DVRDLO1 & DVRDHI1& DVRDCMD1 */
 227:D:/Work/DeviceTester/amazon-freertos/lib/third_party/mcu_vendor/renesas/rz_mcu_boards/core_package/generate/sc_drivers/r_octabus/src/lld\r_octabus_lld_rza2m_api.c ****     dummy_32 &= (~(uint32_t) (OCTA_DRCSTR_DVRDLO1 | OCTA_DRCSTR_DVRDHI1 | OCTA_DRCSTR_DVRDCMD1));
 228:D:/Work/DeviceTester/amazon-freertos/lib/third_party/mcu_vendor/renesas/rz_mcu_boards/core_package/generate/sc_drivers/r_octabus/src/lld\r_octabus_lld_rza2m_api.c **** 
 229:D:/Work/DeviceTester/amazon-freertos/lib/third_party/mcu_vendor/renesas/rz_mcu_boards/core_package/generate/sc_drivers/r_octabus/src/lld\r_octabus_lld_rza2m_api.c ****     /** Make write data to DRCSTR  */
 230:D:/Work/DeviceTester/amazon-freertos/lib/third_party/mcu_vendor/renesas/rz_mcu_boards/core_package/generate/sc_drivers/r_octabus/src/lld\r_octabus_lld_rza2m_api.c ****     dummy_32 |= (uint32_t) ((p_cfg->dvrdlo1 << OCTA_DRCSTR_DVRDLO1_SHIFT) /* DVRDLO1 */
  92              		.loc 1 230 0
  93 004c 0EC0D0E5 		ldrb	ip, [r0, #14]	@ zero_extendqisi2
 201:D:/Work/DeviceTester/amazon-freertos/lib/third_party/mcu_vendor/renesas/rz_mcu_boards/core_package/generate/sc_drivers/r_octabus/src/lld\r_octabus_lld_rza2m_api.c ****                 |    (p_cfg->r_dmy_len1 << OCTA_MDLR_DV1RDL_SHIFT));       /* Read Dummy cycle */
  94              		.loc 1 201 0
  95 0050 013083E1 		orr	r3, r3, r1
  96              	.LVL9:
 216:D:/Work/DeviceTester/amazon-freertos/lib/third_party/mcu_vendor/renesas/rz_mcu_boards/core_package/generate/sc_drivers/r_octabus/src/lld\r_octabus_lld_rza2m_api.c **** 
  97              		.loc 1 216 0
  98 0054 0D10D0E5 		ldrb	r1, [r0, #13]	@ zero_extendqisi2
  99              	.LBB94:
 100              	.LBB95:
 119:D:/Work/DeviceTester/amazon-freertos/lib/third_party/mcu_vendor/renesas/rz_mcu_boards/core_package/generate/sc_drivers/r_octabus/src/lld\r_octabus_lld_rza2m_api.c **** }
 101              		.loc 1 119 0
 102 0058 443082E5 		str	r3, [r2, #68]
 103              	.LVL10:
 104              	.LBE95:
 105              	.LBE94:
 106              	.LBB96:
 107              	.LBB97:
 143:D:/Work/DeviceTester/amazon-freertos/lib/third_party/mcu_vendor/renesas/rz_mcu_boards/core_package/generate/sc_drivers/r_octabus/src/lld\r_octabus_lld_rza2m_api.c ****     if (IOREG_NONMASK_ACCESS != mask)
 108              		.loc 1 143 0
 109 005c 143092E5 		ldr	r3, [r2, #20]
 110              	.LVL11:
 111              	.LBE97:
 112              	.LBE96:
 213:D:/Work/DeviceTester/amazon-freertos/lib/third_party/mcu_vendor/renesas/rz_mcu_boards/core_package/generate/sc_drivers/r_octabus/src/lld\r_octabus_lld_rza2m_api.c **** 
 113              		.loc 1 213 0
 114 0060 0F3CC3E3 		bic	r3, r3, #3840
 115              	.LVL12:
 216:D:/Work/DeviceTester/amazon-freertos/lib/third_party/mcu_vendor/renesas/rz_mcu_boards/core_package/generate/sc_drivers/r_octabus/src/lld\r_octabus_lld_rza2m_api.c **** 
 116              		.loc 1 216 0
 117 0064 013483E1 		orr	r3, r3, r1, lsl #8
 118              	.LVL13:
 119              	.LBB98:
 120              	.LBB99:
 119:D:/Work/DeviceTester/amazon-freertos/lib/third_party/mcu_vendor/renesas/rz_mcu_boards/core_package/generate/sc_drivers/r_octabus/src/lld\r_octabus_lld_rza2m_api.c **** }
 121              		.loc 1 119 0
 122 0068 143082E5 		str	r3, [r2, #20]
 123              	.LVL14:
 124              	.LBE99:
 125              	.LBE98:
 126              	.LBB100:
 127              	.LBB101:
 143:D:/Work/DeviceTester/amazon-freertos/lib/third_party/mcu_vendor/renesas/rz_mcu_boards/core_package/generate/sc_drivers/r_octabus/src/lld\r_octabus_lld_rza2m_api.c ****     if (IOREG_NONMASK_ACCESS != mask)
 128              		.loc 1 143 0
 129 006c 343092E5 		ldr	r3, [r2, #52]
 130              	.LVL15:
 131              	.LBE101:
 132              	.LBE100:
 227:D:/Work/DeviceTester/amazon-freertos/lib/third_party/mcu_vendor/renesas/rz_mcu_boards/core_package/generate/sc_drivers/r_octabus/src/lld\r_octabus_lld_rza2m_api.c **** 
 133              		.loc 1 227 0
 134 0070 FF14C3E3 		bic	r1, r3, #-16777216
 135              	.LVL16:
 231:D:/Work/DeviceTester/amazon-freertos/lib/third_party/mcu_vendor/renesas/rz_mcu_boards/core_package/generate/sc_drivers/r_octabus/src/lld\r_octabus_lld_rza2m_api.c ****                 |    (p_cfg->dvrdhi1 << OCTA_DRCSTR_DVRDHI1_SHIFT)        /* DVRDHI1 */
 136              		.loc 1 231 0
 137 0074 0F30D0E5 		ldrb	r3, [r0, #15]	@ zero_extendqisi2
 138 0078 833DA0E1 		lsl	r3, r3, #27
 139 007c 0C3F83E1 		orr	r3, r3, ip, lsl #30
 232:D:/Work/DeviceTester/amazon-freertos/lib/third_party/mcu_vendor/renesas/rz_mcu_boards/core_package/generate/sc_drivers/r_octabus/src/lld\r_octabus_lld_rza2m_api.c ****                 |    (p_cfg->dvrdcmd1 << OCTA_DRCSTR_DVRDCMD1_SHIFT));    /* DVRDCMD1 */
 140              		.loc 1 232 0
 141 0080 10C0D0E5 		ldrb	ip, [r0, #16]	@ zero_extendqisi2
 142 0084 0C3C83E1 		orr	r3, r3, ip, lsl #24
 233:D:/Work/DeviceTester/amazon-freertos/lib/third_party/mcu_vendor/renesas/rz_mcu_boards/core_package/generate/sc_drivers/r_octabus/src/lld\r_octabus_lld_rza2m_api.c **** 
 234:D:/Work/DeviceTester/amazon-freertos/lib/third_party/mcu_vendor/renesas/rz_mcu_boards/core_package/generate/sc_drivers/r_octabus/src/lld\r_octabus_lld_rza2m_api.c ****     /** Write to DRCSTR */
 235:D:/Work/DeviceTester/amazon-freertos/lib/third_party/mcu_vendor/renesas/rz_mcu_boards/core_package/generate/sc_drivers/r_octabus/src/lld\r_octabus_lld_rza2m_api.c ****     octabus_io_regwrite_32(&OCTA.DRCSTR.LONG, dummy_32, IOREG_NONSHIFT_ACCESS, IOREG_NONMASK_ACCESS
 236:D:/Work/DeviceTester/amazon-freertos/lib/third_party/mcu_vendor/renesas/rz_mcu_boards/core_package/generate/sc_drivers/r_octabus/src/lld\r_octabus_lld_rza2m_api.c **** 
 237:D:/Work/DeviceTester/amazon-freertos/lib/third_party/mcu_vendor/renesas/rz_mcu_boards/core_package/generate/sc_drivers/r_octabus/src/lld\r_octabus_lld_rza2m_api.c ****     /*****************************************************************/
 238:D:/Work/DeviceTester/amazon-freertos/lib/third_party/mcu_vendor/renesas/rz_mcu_boards/core_package/generate/sc_drivers/r_octabus/src/lld\r_octabus_lld_rza2m_api.c **** 
 239:D:/Work/DeviceTester/amazon-freertos/lib/third_party/mcu_vendor/renesas/rz_mcu_boards/core_package/generate/sc_drivers/r_octabus/src/lld\r_octabus_lld_rza2m_api.c ****     /** Read from DWCSTR */
 240:D:/Work/DeviceTester/amazon-freertos/lib/third_party/mcu_vendor/renesas/rz_mcu_boards/core_package/generate/sc_drivers/r_octabus/src/lld\r_octabus_lld_rza2m_api.c ****     dummy_32 = octabus_io_regread_32(&OCTA.DWCSTR.LONG, IOREG_NONSHIFT_ACCESS, IOREG_NONMASK_ACCESS
 241:D:/Work/DeviceTester/amazon-freertos/lib/third_party/mcu_vendor/renesas/rz_mcu_boards/core_package/generate/sc_drivers/r_octabus/src/lld\r_octabus_lld_rza2m_api.c **** 
 242:D:/Work/DeviceTester/amazon-freertos/lib/third_party/mcu_vendor/renesas/rz_mcu_boards/core_package/generate/sc_drivers/r_octabus/src/lld\r_octabus_lld_rza2m_api.c ****     /** Clear DVWLO1 & DVWHI1 & DVWCMD1 */
 243:D:/Work/DeviceTester/amazon-freertos/lib/third_party/mcu_vendor/renesas/rz_mcu_boards/core_package/generate/sc_drivers/r_octabus/src/lld\r_octabus_lld_rza2m_api.c ****     dummy_32 &= (~(uint32_t) (OCTA_DWCSTR_DVWLO1 | OCTA_DWCSTR_DVWHI1 | OCTA_DWCSTR_DVWCMD1));
 244:D:/Work/DeviceTester/amazon-freertos/lib/third_party/mcu_vendor/renesas/rz_mcu_boards/core_package/generate/sc_drivers/r_octabus/src/lld\r_octabus_lld_rza2m_api.c **** 
 245:D:/Work/DeviceTester/amazon-freertos/lib/third_party/mcu_vendor/renesas/rz_mcu_boards/core_package/generate/sc_drivers/r_octabus/src/lld\r_octabus_lld_rza2m_api.c ****     /** Make write data to DWCSTR  */
 246:D:/Work/DeviceTester/amazon-freertos/lib/third_party/mcu_vendor/renesas/rz_mcu_boards/core_package/generate/sc_drivers/r_octabus/src/lld\r_octabus_lld_rza2m_api.c ****     dummy_32 |= (uint32_t) ((p_cfg->dvwlo1 << OCTA_DWCSTR_DVWLO1_SHIFT) /* DVWLO1   */
 143              		.loc 1 246 0
 144 0088 11C0D0E5 		ldrb	ip, [r0, #17]	@ zero_extendqisi2
 230:D:/Work/DeviceTester/amazon-freertos/lib/third_party/mcu_vendor/renesas/rz_mcu_boards/core_package/generate/sc_drivers/r_octabus/src/lld\r_octabus_lld_rza2m_api.c ****                 |    (p_cfg->dvrdhi1 << OCTA_DRCSTR_DVRDHI1_SHIFT)        /* DVRDHI1 */
 145              		.loc 1 230 0
 146 008c 013083E1 		orr	r3, r3, r1
 147              	.LVL17:
 148              	.LBB102:
 149              	.LBB103:
 119:D:/Work/DeviceTester/amazon-freertos/lib/third_party/mcu_vendor/renesas/rz_mcu_boards/core_package/generate/sc_drivers/r_octabus/src/lld\r_octabus_lld_rza2m_api.c **** }
 150              		.loc 1 119 0
 151 0090 343082E5 		str	r3, [r2, #52]
 152              	.LVL18:
 153              	.LBE103:
 154              	.LBE102:
 155              	.LBB104:
 156              	.LBB105:
 143:D:/Work/DeviceTester/amazon-freertos/lib/third_party/mcu_vendor/renesas/rz_mcu_boards/core_package/generate/sc_drivers/r_octabus/src/lld\r_octabus_lld_rza2m_api.c ****     if (IOREG_NONMASK_ACCESS != mask)
 157              		.loc 1 143 0
 158 0094 383092E5 		ldr	r3, [r2, #56]
 159              	.LVL19:
 160              	.LBE105:
 161              	.LBE104:
 243:D:/Work/DeviceTester/amazon-freertos/lib/third_party/mcu_vendor/renesas/rz_mcu_boards/core_package/generate/sc_drivers/r_octabus/src/lld\r_octabus_lld_rza2m_api.c **** 
 162              		.loc 1 243 0
 163 0098 FF14C3E3 		bic	r1, r3, #-16777216
 164              	.LVL20:
 247:D:/Work/DeviceTester/amazon-freertos/lib/third_party/mcu_vendor/renesas/rz_mcu_boards/core_package/generate/sc_drivers/r_octabus/src/lld\r_octabus_lld_rza2m_api.c ****                 |    (p_cfg->dvwhi1 << OCTA_DWCSTR_DVWHI1_SHIFT)        /* DVWHI1   */
 165              		.loc 1 247 0
 166 009c 1230D0E5 		ldrb	r3, [r0, #18]	@ zero_extendqisi2
 167 00a0 833DA0E1 		lsl	r3, r3, #27
 168 00a4 0C3F83E1 		orr	r3, r3, ip, lsl #30
 248:D:/Work/DeviceTester/amazon-freertos/lib/third_party/mcu_vendor/renesas/rz_mcu_boards/core_package/generate/sc_drivers/r_octabus/src/lld\r_octabus_lld_rza2m_api.c ****                 |    (p_cfg->dvwcmd1 << OCTA_DWCSTR_DVWCMD1_SHIFT));    /* DVWCMD1 */
 169              		.loc 1 248 0
 170 00a8 13C0D0E5 		ldrb	ip, [r0, #19]	@ zero_extendqisi2
 171 00ac 0C3C83E1 		orr	r3, r3, ip, lsl #24
 249:D:/Work/DeviceTester/amazon-freertos/lib/third_party/mcu_vendor/renesas/rz_mcu_boards/core_package/generate/sc_drivers/r_octabus/src/lld\r_octabus_lld_rza2m_api.c **** 
 250:D:/Work/DeviceTester/amazon-freertos/lib/third_party/mcu_vendor/renesas/rz_mcu_boards/core_package/generate/sc_drivers/r_octabus/src/lld\r_octabus_lld_rza2m_api.c ****     /** Write to DWCSTR */
 251:D:/Work/DeviceTester/amazon-freertos/lib/third_party/mcu_vendor/renesas/rz_mcu_boards/core_package/generate/sc_drivers/r_octabus/src/lld\r_octabus_lld_rza2m_api.c ****     octabus_io_regwrite_32(&OCTA.DWCSTR.LONG, dummy_32, IOREG_NONSHIFT_ACCESS, IOREG_NONMASK_ACCESS
 252:D:/Work/DeviceTester/amazon-freertos/lib/third_party/mcu_vendor/renesas/rz_mcu_boards/core_package/generate/sc_drivers/r_octabus/src/lld\r_octabus_lld_rza2m_api.c **** 
 253:D:/Work/DeviceTester/amazon-freertos/lib/third_party/mcu_vendor/renesas/rz_mcu_boards/core_package/generate/sc_drivers/r_octabus/src/lld\r_octabus_lld_rza2m_api.c ****     /*****************************************************************/
 254:D:/Work/DeviceTester/amazon-freertos/lib/third_party/mcu_vendor/renesas/rz_mcu_boards/core_package/generate/sc_drivers/r_octabus/src/lld\r_octabus_lld_rza2m_api.c **** 
 255:D:/Work/DeviceTester/amazon-freertos/lib/third_party/mcu_vendor/renesas/rz_mcu_boards/core_package/generate/sc_drivers/r_octabus/src/lld\r_octabus_lld_rza2m_api.c ****     /** Make write data to MRWCR1  */
 256:D:/Work/DeviceTester/amazon-freertos/lib/third_party/mcu_vendor/renesas/rz_mcu_boards/core_package/generate/sc_drivers/r_octabus/src/lld\r_octabus_lld_rza2m_api.c ****     dummy_32 = (uint32_t) ((p_cfg->d1mwcmd1 << OCTA_MRWCR1_D1MWCMD1_SHIFT)  /* D1MWCMD1(1st CMD for
 257:D:/Work/DeviceTester/amazon-freertos/lib/third_party/mcu_vendor/renesas/rz_mcu_boards/core_package/generate/sc_drivers/r_octabus/src/lld\r_octabus_lld_rza2m_api.c ****                 |    (p_cfg->d1mwcmd0 << OCTA_MRWCR1_D1MWCMD0_SHIFT)       /* D1MWCMD0(2nd CMD for 
 258:D:/Work/DeviceTester/amazon-freertos/lib/third_party/mcu_vendor/renesas/rz_mcu_boards/core_package/generate/sc_drivers/r_octabus/src/lld\r_octabus_lld_rza2m_api.c ****                 |    (p_cfg->d1mrcmd1 << OCTA_MRWCR1_D1MRCMD1_SHIFT)       /* D1MRCMD1(1st CMD for 
 259:D:/Work/DeviceTester/amazon-freertos/lib/third_party/mcu_vendor/renesas/rz_mcu_boards/core_package/generate/sc_drivers/r_octabus/src/lld\r_octabus_lld_rza2m_api.c ****                 |    (p_cfg->d1mrcmd0 << OCTA_MRWCR1_D1MRCMD0_SHIFT));      /* D1MRCMD0(2nd CMD for
 260:D:/Work/DeviceTester/amazon-freertos/lib/third_party/mcu_vendor/renesas/rz_mcu_boards/core_package/generate/sc_drivers/r_octabus/src/lld\r_octabus_lld_rza2m_api.c **** 
 261:D:/Work/DeviceTester/amazon-freertos/lib/third_party/mcu_vendor/renesas/rz_mcu_boards/core_package/generate/sc_drivers/r_octabus/src/lld\r_octabus_lld_rza2m_api.c ****     /** Write to MRWCR1 */
 262:D:/Work/DeviceTester/amazon-freertos/lib/third_party/mcu_vendor/renesas/rz_mcu_boards/core_package/generate/sc_drivers/r_octabus/src/lld\r_octabus_lld_rza2m_api.c ****     octabus_io_regwrite_32(&OCTA.MRWCR1.LONG, dummy_32, IOREG_NONSHIFT_ACCESS, IOREG_NONMASK_ACCESS
 263:D:/Work/DeviceTester/amazon-freertos/lib/third_party/mcu_vendor/renesas/rz_mcu_boards/core_package/generate/sc_drivers/r_octabus/src/lld\r_octabus_lld_rza2m_api.c **** 
 264:D:/Work/DeviceTester/amazon-freertos/lib/third_party/mcu_vendor/renesas/rz_mcu_boards/core_package/generate/sc_drivers/r_octabus/src/lld\r_octabus_lld_rza2m_api.c ****     /*****************************************************************/
 265:D:/Work/DeviceTester/amazon-freertos/lib/third_party/mcu_vendor/renesas/rz_mcu_boards/core_package/generate/sc_drivers/r_octabus/src/lld\r_octabus_lld_rza2m_api.c **** 
 266:D:/Work/DeviceTester/amazon-freertos/lib/third_party/mcu_vendor/renesas/rz_mcu_boards/core_package/generate/sc_drivers/r_octabus/src/lld\r_octabus_lld_rza2m_api.c ****     /** Read from MRWCSR */
 267:D:/Work/DeviceTester/amazon-freertos/lib/third_party/mcu_vendor/renesas/rz_mcu_boards/core_package/generate/sc_drivers/r_octabus/src/lld\r_octabus_lld_rza2m_api.c ****     dummy_32 = octabus_io_regread_32(&OCTA.MRWCSR.LONG, IOREG_NONSHIFT_ACCESS, IOREG_NONMASK_ACCESS
 268:D:/Work/DeviceTester/amazon-freertos/lib/third_party/mcu_vendor/renesas/rz_mcu_boards/core_package/generate/sc_drivers/r_octabus/src/lld\r_octabus_lld_rza2m_api.c **** 
 269:D:/Work/DeviceTester/amazon-freertos/lib/third_party/mcu_vendor/renesas/rz_mcu_boards/core_package/generate/sc_drivers/r_octabus/src/lld\r_octabus_lld_rza2m_api.c ****     /** Clear MWO1 & MWCL1 & MWAL1 & MRO1 & MRCL1 & MRAL1 */
 270:D:/Work/DeviceTester/amazon-freertos/lib/third_party/mcu_vendor/renesas/rz_mcu_boards/core_package/generate/sc_drivers/r_octabus/src/lld\r_octabus_lld_rza2m_api.c ****     dummy_32 &= (~(uint32_t) (OCTA_MRWCSR_MWO1 | OCTA_MRWCSR_MWCL1 | OCTA_MRWCSR_MWAL1
 271:D:/Work/DeviceTester/amazon-freertos/lib/third_party/mcu_vendor/renesas/rz_mcu_boards/core_package/generate/sc_drivers/r_octabus/src/lld\r_octabus_lld_rza2m_api.c ****         | OCTA_MRWCSR_MRO1 | OCTA_MRWCSR_MRCL1 | OCTA_MRWCSR_MRAL1));
 272:D:/Work/DeviceTester/amazon-freertos/lib/third_party/mcu_vendor/renesas/rz_mcu_boards/core_package/generate/sc_drivers/r_octabus/src/lld\r_octabus_lld_rza2m_api.c **** 
 273:D:/Work/DeviceTester/amazon-freertos/lib/third_party/mcu_vendor/renesas/rz_mcu_boards/core_package/generate/sc_drivers/r_octabus/src/lld\r_octabus_lld_rza2m_api.c ****     /** Make write data to MRWCSR  */
 274:D:/Work/DeviceTester/amazon-freertos/lib/third_party/mcu_vendor/renesas/rz_mcu_boards/core_package/generate/sc_drivers/r_octabus/src/lld\r_octabus_lld_rza2m_api.c ****     dummy_32 |= (uint32_t) ((p_cfg->mwo1 << OCTA_MRWCSR_MWO1_SHIFT) /* MWO1  */
 172              		.loc 1 274 0
 173 00b0 18C0D0E5 		ldrb	ip, [r0, #24]	@ zero_extendqisi2
 246:D:/Work/DeviceTester/amazon-freertos/lib/third_party/mcu_vendor/renesas/rz_mcu_boards/core_package/generate/sc_drivers/r_octabus/src/lld\r_octabus_lld_rza2m_api.c ****                 |    (p_cfg->dvwhi1 << OCTA_DWCSTR_DVWHI1_SHIFT)        /* DVWHI1   */
 174              		.loc 1 246 0
 175 00b4 013083E1 		orr	r3, r3, r1
 176              	.LVL21:
 177              	.LBB106:
 178              	.LBB107:
 119:D:/Work/DeviceTester/amazon-freertos/lib/third_party/mcu_vendor/renesas/rz_mcu_boards/core_package/generate/sc_drivers/r_octabus/src/lld\r_octabus_lld_rza2m_api.c **** }
 179              		.loc 1 119 0
 180 00b8 383082E5 		str	r3, [r2, #56]
 181              	.LVL22:
 182 00bc 143090E5 		ldr	r3, [r0, #20]
 183              	.LVL23:
 184 00c0 333FBFE6 		rev	r3, r3
 185              	.LVL24:
 186              	.LBE107:
 187              	.LBE106:
 188              	.LBB108:
 189              	.LBB109:
 190 00c4 4C3082E5 		str	r3, [r2, #76]
 191              	.LVL25:
 192              	.LBE109:
 193              	.LBE108:
 194              	.LBB110:
 195              	.LBB111:
 143:D:/Work/DeviceTester/amazon-freertos/lib/third_party/mcu_vendor/renesas/rz_mcu_boards/core_package/generate/sc_drivers/r_octabus/src/lld\r_octabus_lld_rza2m_api.c ****     if (IOREG_NONMASK_ACCESS != mask)
 196              		.loc 1 143 0
 197 00c8 503092E5 		ldr	r3, [r2, #80]
 198              	.LVL26:
 199              	.LBE111:
 200              	.LBE110:
 270:D:/Work/DeviceTester/amazon-freertos/lib/third_party/mcu_vendor/renesas/rz_mcu_boards/core_package/generate/sc_drivers/r_octabus/src/lld\r_octabus_lld_rza2m_api.c ****         | OCTA_MRWCSR_MRO1 | OCTA_MRWCSR_MRCL1 | OCTA_MRWCSR_MRAL1));
 201              		.loc 1 270 0
 202 00cc 7F14C3E3 		bic	r1, r3, #2130706432
 275:D:/Work/DeviceTester/amazon-freertos/lib/third_party/mcu_vendor/renesas/rz_mcu_boards/core_package/generate/sc_drivers/r_octabus/src/lld\r_octabus_lld_rza2m_api.c ****                 |    (p_cfg->mwcl1 << OCTA_MRWCSR_MWCL1_SHIFT)      /* MWCL1 : Write Command Length
 203              		.loc 1 275 0
 204 00d0 1930D0E5 		ldrb	r3, [r0, #25]	@ zero_extendqisi2
 270:D:/Work/DeviceTester/amazon-freertos/lib/third_party/mcu_vendor/renesas/rz_mcu_boards/core_package/generate/sc_drivers/r_octabus/src/lld\r_octabus_lld_rza2m_api.c ****         | OCTA_MRWCSR_MRO1 | OCTA_MRWCSR_MRCL1 | OCTA_MRWCSR_MRAL1));
 205              		.loc 1 270 0
 206 00d4 7F18C1E3 		bic	r1, r1, #8323072
 207              	.LVL27:
 208              		.loc 1 275 0
 209 00d8 833DA0E1 		lsl	r3, r3, #27
 210 00dc 0C3F83E1 		orr	r3, r3, ip, lsl #30
 276:D:/Work/DeviceTester/amazon-freertos/lib/third_party/mcu_vendor/renesas/rz_mcu_boards/core_package/generate/sc_drivers/r_octabus/src/lld\r_octabus_lld_rza2m_api.c ****                 |    (p_cfg->mwal1 << OCTA_MRWCSR_MWAL1_SHIFT)      /* MWAL1 : Write Address Length
 211              		.loc 1 276 0
 212 00e0 1AC0D0E5 		ldrb	ip, [r0, #26]	@ zero_extendqisi2
 213 00e4 0C3C83E1 		orr	r3, r3, ip, lsl #24
 277:D:/Work/DeviceTester/amazon-freertos/lib/third_party/mcu_vendor/renesas/rz_mcu_boards/core_package/generate/sc_drivers/r_octabus/src/lld\r_octabus_lld_rza2m_api.c ****                 |    (p_cfg->mro1 << OCTA_MRWCSR_MRO1_SHIFT)        /* MRO1  */
 214              		.loc 1 277 0
 215 00e8 1BC0D0E5 		ldrb	ip, [r0, #27]	@ zero_extendqisi2
 216 00ec 0C3B83E1 		orr	r3, r3, ip, lsl #22
 278:D:/Work/DeviceTester/amazon-freertos/lib/third_party/mcu_vendor/renesas/rz_mcu_boards/core_package/generate/sc_drivers/r_octabus/src/lld\r_octabus_lld_rza2m_api.c ****                 |    (p_cfg->mrcl1 << OCTA_MRWCSR_MRCL1_SHIFT)      /* MRCL1 : Read Command Length 
 217              		.loc 1 278 0
 218 00f0 1CC0D0E5 		ldrb	ip, [r0, #28]	@ zero_extendqisi2
 279:D:/Work/DeviceTester/amazon-freertos/lib/third_party/mcu_vendor/renesas/rz_mcu_boards/core_package/generate/sc_drivers/r_octabus/src/lld\r_octabus_lld_rza2m_api.c ****                 |    (p_cfg->mral1 << OCTA_MRWCSR_MRAL1_SHIFT));    /* MRAL1 : Read Address Lengthe
 219              		.loc 1 279 0
 220 00f4 1D00D0E5 		ldrb	r0, [r0, #29]	@ zero_extendqisi2
 221              	.LVL28:
 278:D:/Work/DeviceTester/amazon-freertos/lib/third_party/mcu_vendor/renesas/rz_mcu_boards/core_package/generate/sc_drivers/r_octabus/src/lld\r_octabus_lld_rza2m_api.c ****                 |    (p_cfg->mrcl1 << OCTA_MRWCSR_MRCL1_SHIFT)      /* MRCL1 : Read Command Length 
 222              		.loc 1 278 0
 223 00f8 8C3983E1 		orr	r3, r3, ip, lsl #19
 224              		.loc 1 279 0
 225 00fc 003883E1 		orr	r3, r3, r0, lsl #16
 280:D:/Work/DeviceTester/amazon-freertos/lib/third_party/mcu_vendor/renesas/rz_mcu_boards/core_package/generate/sc_drivers/r_octabus/src/lld\r_octabus_lld_rza2m_api.c **** 
 281:D:/Work/DeviceTester/amazon-freertos/lib/third_party/mcu_vendor/renesas/rz_mcu_boards/core_package/generate/sc_drivers/r_octabus/src/lld\r_octabus_lld_rza2m_api.c ****     /** Write to MRWCSR */
 282:D:/Work/DeviceTester/amazon-freertos/lib/third_party/mcu_vendor/renesas/rz_mcu_boards/core_package/generate/sc_drivers/r_octabus/src/lld\r_octabus_lld_rza2m_api.c ****     octabus_io_regwrite_32(&OCTA.MRWCSR.LONG, dummy_32, IOREG_NONSHIFT_ACCESS, IOREG_NONMASK_ACCESS
 283:D:/Work/DeviceTester/amazon-freertos/lib/third_party/mcu_vendor/renesas/rz_mcu_boards/core_package/generate/sc_drivers/r_octabus/src/lld\r_octabus_lld_rza2m_api.c **** 
 284:D:/Work/DeviceTester/amazon-freertos/lib/third_party/mcu_vendor/renesas/rz_mcu_boards/core_package/generate/sc_drivers/r_octabus/src/lld\r_octabus_lld_rza2m_api.c ****     /*****************************************************************/
 285:D:/Work/DeviceTester/amazon-freertos/lib/third_party/mcu_vendor/renesas/rz_mcu_boards/core_package/generate/sc_drivers/r_octabus/src/lld\r_octabus_lld_rza2m_api.c **** 
 286:D:/Work/DeviceTester/amazon-freertos/lib/third_party/mcu_vendor/renesas/rz_mcu_boards/core_package/generate/sc_drivers/r_octabus/src/lld\r_octabus_lld_rza2m_api.c ****     /** Select OctaBus controller */
 287:D:/Work/DeviceTester/amazon-freertos/lib/third_party/mcu_vendor/renesas/rz_mcu_boards/core_package/generate/sc_drivers/r_octabus/src/lld\r_octabus_lld_rza2m_api.c ****     octabus_io_regwrite_32(&GPIO.PHMOM0.LONG, (uint32_t)1, GPIO_PHMOM0_HOSEL_SHIFT, GPIO_PHMOM0_HOS
 288:D:/Work/DeviceTester/amazon-freertos/lib/third_party/mcu_vendor/renesas/rz_mcu_boards/core_package/generate/sc_drivers/r_octabus/src/lld\r_octabus_lld_rza2m_api.c **** 
 289:D:/Work/DeviceTester/amazon-freertos/lib/third_party/mcu_vendor/renesas/rz_mcu_boards/core_package/generate/sc_drivers/r_octabus/src/lld\r_octabus_lld_rza2m_api.c ****     return DRV_SUCCESS;
 290:D:/Work/DeviceTester/amazon-freertos/lib/third_party/mcu_vendor/renesas/rz_mcu_boards/core_package/generate/sc_drivers/r_octabus/src/lld\r_octabus_lld_rza2m_api.c **** }
 226              		.loc 1 290 0
 227 0100 0000A0E3 		mov	r0, #0
 274:D:/Work/DeviceTester/amazon-freertos/lib/third_party/mcu_vendor/renesas/rz_mcu_boards/core_package/generate/sc_drivers/r_octabus/src/lld\r_octabus_lld_rza2m_api.c ****                 |    (p_cfg->mwcl1 << OCTA_MRWCSR_MWCL1_SHIFT)      /* MWCL1 : Write Command Length
 228              		.loc 1 274 0
 229 0104 013083E1 		orr	r3, r3, r1
 230              	.LVL29:
 231              	.LBB112:
 232              	.LBB113:
 119:D:/Work/DeviceTester/amazon-freertos/lib/third_party/mcu_vendor/renesas/rz_mcu_boards/core_package/generate/sc_drivers/r_octabus/src/lld\r_octabus_lld_rza2m_api.c **** }
 233              		.loc 1 119 0
 234 0108 503082E5 		str	r3, [r2, #80]
 235              	.LVL30:
 236              	.LBE113:
 237              	.LBE112:
 238              	.LBB114:
 239              	.LBB115:
 112:D:/Work/DeviceTester/amazon-freertos/lib/third_party/mcu_vendor/renesas/rz_mcu_boards/core_package/generate/sc_drivers/r_octabus/src/lld\r_octabus_lld_rza2m_api.c ****         reg_value = (reg_value & (~mask)) | (unsigned)(write_value << shift); /** Modify value     
 240              		.loc 1 112 0
 241 010c 10209FE5 		ldr	r2, .L2+4
 242 0110 7F3612E5 		ldr	r3, [r2, #-1663]
 243              	.LVL31:
 113:D:/Work/DeviceTester/amazon-freertos/lib/third_party/mcu_vendor/renesas/rz_mcu_boards/core_package/generate/sc_drivers/r_octabus/src/lld\r_octabus_lld_rza2m_api.c ****     }
 244              		.loc 1 113 0
 245 0114 013083E3 		orr	r3, r3, #1
 246              	.LVL32:
 119:D:/Work/DeviceTester/amazon-freertos/lib/third_party/mcu_vendor/renesas/rz_mcu_boards/core_package/generate/sc_drivers/r_octabus/src/lld\r_octabus_lld_rza2m_api.c **** }
 247              		.loc 1 119 0
 248 0118 7F3602E5 		str	r3, [r2, #-1663]
 249              	.LVL33:
 250              	.LBE115:
 251              	.LBE114:
 252              		.loc 1 290 0
 253 011c 1EFF2FE1 		bx	lr
 254              	.L3:
 255              		.align	2
 256              	.L2:
 257 0120 0010401F 		.word	524292096
 258 0124 FFEFFFFC 		.word	-50335745
 259              		.cfi_endproc
 260              	.LFE5:
 262              		.section	.text.R_OCTABUS_Init,"ax",%progbits
 263              		.align	2
 264              		.global	R_OCTABUS_Init
 265              		.syntax unified
 266              		.arm
 267              		.fpu neon
 269              	R_OCTABUS_Init:
 270              	.LFB11:
 291:D:/Work/DeviceTester/amazon-freertos/lib/third_party/mcu_vendor/renesas/rz_mcu_boards/core_package/generate/sc_drivers/r_octabus/src/lld\r_octabus_lld_rza2m_api.c **** /**************************************************************************************************
 292:D:/Work/DeviceTester/amazon-freertos/lib/third_party/mcu_vendor/renesas/rz_mcu_boards/core_package/generate/sc_drivers/r_octabus/src/lld\r_octabus_lld_rza2m_api.c ****  * End of function octaram_init
 293:D:/Work/DeviceTester/amazon-freertos/lib/third_party/mcu_vendor/renesas/rz_mcu_boards/core_package/generate/sc_drivers/r_octabus/src/lld\r_octabus_lld_rza2m_api.c ****  **************************************************************************************************
 294:D:/Work/DeviceTester/amazon-freertos/lib/third_party/mcu_vendor/renesas/rz_mcu_boards/core_package/generate/sc_drivers/r_octabus/src/lld\r_octabus_lld_rza2m_api.c **** 
 295:D:/Work/DeviceTester/amazon-freertos/lib/third_party/mcu_vendor/renesas/rz_mcu_boards/core_package/generate/sc_drivers/r_octabus/src/lld\r_octabus_lld_rza2m_api.c **** /**************************************************************************************************
 296:D:/Work/DeviceTester/amazon-freertos/lib/third_party/mcu_vendor/renesas/rz_mcu_boards/core_package/generate/sc_drivers/r_octabus/src/lld\r_octabus_lld_rza2m_api.c ****  * Function Name: get_ok_area_start
 297:D:/Work/DeviceTester/amazon-freertos/lib/third_party/mcu_vendor/renesas/rz_mcu_boards/core_package/generate/sc_drivers/r_octabus/src/lld\r_octabus_lld_rza2m_api.c ****  * Description  : find start index of ok area
 298:D:/Work/DeviceTester/amazon-freertos/lib/third_party/mcu_vendor/renesas/rz_mcu_boards/core_package/generate/sc_drivers/r_octabus/src/lld\r_octabus_lld_rza2m_api.c ****  * Arguments    : p_s_ok_ng_result : Pointer of s_ok_ng_result
 299:D:/Work/DeviceTester/amazon-freertos/lib/third_party/mcu_vendor/renesas/rz_mcu_boards/core_package/generate/sc_drivers/r_octabus/src/lld\r_octabus_lld_rza2m_api.c ****  * Return Value : start index of ok area
 300:D:/Work/DeviceTester/amazon-freertos/lib/third_party/mcu_vendor/renesas/rz_mcu_boards/core_package/generate/sc_drivers/r_octabus/src/lld\r_octabus_lld_rza2m_api.c ****  * Precautions  : This function cannot be assigned to execute from OctaFlash or OctaRAM.
 301:D:/Work/DeviceTester/amazon-freertos/lib/third_party/mcu_vendor/renesas/rz_mcu_boards/core_package/generate/sc_drivers/r_octabus/src/lld\r_octabus_lld_rza2m_api.c ****  *              : This function must be assigned to an area other than OctaFlash or OctaRAM.
 302:D:/Work/DeviceTester/amazon-freertos/lib/third_party/mcu_vendor/renesas/rz_mcu_boards/core_package/generate/sc_drivers/r_octabus/src/lld\r_octabus_lld_rza2m_api.c ****  **************************************************************************************************
 303:D:/Work/DeviceTester/amazon-freertos/lib/third_party/mcu_vendor/renesas/rz_mcu_boards/core_package/generate/sc_drivers/r_octabus/src/lld\r_octabus_lld_rza2m_api.c **** static int_t get_ok_area_start(uint8_t *p_s_ok_ng_result)
 304:D:/Work/DeviceTester/amazon-freertos/lib/third_party/mcu_vendor/renesas/rz_mcu_boards/core_package/generate/sc_drivers/r_octabus/src/lld\r_octabus_lld_rza2m_api.c **** {
 305:D:/Work/DeviceTester/amazon-freertos/lib/third_party/mcu_vendor/renesas/rz_mcu_boards/core_package/generate/sc_drivers/r_octabus/src/lld\r_octabus_lld_rza2m_api.c ****     int_t index;             /**< loop counter */
 306:D:/Work/DeviceTester/amazon-freertos/lib/third_party/mcu_vendor/renesas/rz_mcu_boards/core_package/generate/sc_drivers/r_octabus/src/lld\r_octabus_lld_rza2m_api.c ****     int_t index_start = -1;
 307:D:/Work/DeviceTester/amazon-freertos/lib/third_party/mcu_vendor/renesas/rz_mcu_boards/core_package/generate/sc_drivers/r_octabus/src/lld\r_octabus_lld_rza2m_api.c **** 
 308:D:/Work/DeviceTester/amazon-freertos/lib/third_party/mcu_vendor/renesas/rz_mcu_boards/core_package/generate/sc_drivers/r_octabus/src/lld\r_octabus_lld_rza2m_api.c **** 
 309:D:/Work/DeviceTester/amazon-freertos/lib/third_party/mcu_vendor/renesas/rz_mcu_boards/core_package/generate/sc_drivers/r_octabus/src/lld\r_octabus_lld_rza2m_api.c ****     /* detect ok area index start*/
 310:D:/Work/DeviceTester/amazon-freertos/lib/third_party/mcu_vendor/renesas/rz_mcu_boards/core_package/generate/sc_drivers/r_octabus/src/lld\r_octabus_lld_rza2m_api.c ****     for (index = 0; index < 16; index++ )
 311:D:/Work/DeviceTester/amazon-freertos/lib/third_party/mcu_vendor/renesas/rz_mcu_boards/core_package/generate/sc_drivers/r_octabus/src/lld\r_octabus_lld_rza2m_api.c ****     {
 312:D:/Work/DeviceTester/amazon-freertos/lib/third_party/mcu_vendor/renesas/rz_mcu_boards/core_package/generate/sc_drivers/r_octabus/src/lld\r_octabus_lld_rza2m_api.c ****         if (R_PRV_OCTABUS_RESULT_OK == p_s_ok_ng_result[index])
 313:D:/Work/DeviceTester/amazon-freertos/lib/third_party/mcu_vendor/renesas/rz_mcu_boards/core_package/generate/sc_drivers/r_octabus/src/lld\r_octabus_lld_rza2m_api.c ****         {
 314:D:/Work/DeviceTester/amazon-freertos/lib/third_party/mcu_vendor/renesas/rz_mcu_boards/core_package/generate/sc_drivers/r_octabus/src/lld\r_octabus_lld_rza2m_api.c ****             index_start = index;
 315:D:/Work/DeviceTester/amazon-freertos/lib/third_party/mcu_vendor/renesas/rz_mcu_boards/core_package/generate/sc_drivers/r_octabus/src/lld\r_octabus_lld_rza2m_api.c ****             break;
 316:D:/Work/DeviceTester/amazon-freertos/lib/third_party/mcu_vendor/renesas/rz_mcu_boards/core_package/generate/sc_drivers/r_octabus/src/lld\r_octabus_lld_rza2m_api.c **** 
 317:D:/Work/DeviceTester/amazon-freertos/lib/third_party/mcu_vendor/renesas/rz_mcu_boards/core_package/generate/sc_drivers/r_octabus/src/lld\r_octabus_lld_rza2m_api.c ****         }
 318:D:/Work/DeviceTester/amazon-freertos/lib/third_party/mcu_vendor/renesas/rz_mcu_boards/core_package/generate/sc_drivers/r_octabus/src/lld\r_octabus_lld_rza2m_api.c ****     }
 319:D:/Work/DeviceTester/amazon-freertos/lib/third_party/mcu_vendor/renesas/rz_mcu_boards/core_package/generate/sc_drivers/r_octabus/src/lld\r_octabus_lld_rza2m_api.c ****     return index_start;
 320:D:/Work/DeviceTester/amazon-freertos/lib/third_party/mcu_vendor/renesas/rz_mcu_boards/core_package/generate/sc_drivers/r_octabus/src/lld\r_octabus_lld_rza2m_api.c **** }
 321:D:/Work/DeviceTester/amazon-freertos/lib/third_party/mcu_vendor/renesas/rz_mcu_boards/core_package/generate/sc_drivers/r_octabus/src/lld\r_octabus_lld_rza2m_api.c **** /**************************************************************************************************
 322:D:/Work/DeviceTester/amazon-freertos/lib/third_party/mcu_vendor/renesas/rz_mcu_boards/core_package/generate/sc_drivers/r_octabus/src/lld\r_octabus_lld_rza2m_api.c ****  * End of function get_ok_area_start
 323:D:/Work/DeviceTester/amazon-freertos/lib/third_party/mcu_vendor/renesas/rz_mcu_boards/core_package/generate/sc_drivers/r_octabus/src/lld\r_octabus_lld_rza2m_api.c ****  **************************************************************************************************
 324:D:/Work/DeviceTester/amazon-freertos/lib/third_party/mcu_vendor/renesas/rz_mcu_boards/core_package/generate/sc_drivers/r_octabus/src/lld\r_octabus_lld_rza2m_api.c **** 
 325:D:/Work/DeviceTester/amazon-freertos/lib/third_party/mcu_vendor/renesas/rz_mcu_boards/core_package/generate/sc_drivers/r_octabus/src/lld\r_octabus_lld_rza2m_api.c **** /**************************************************************************************************
 326:D:/Work/DeviceTester/amazon-freertos/lib/third_party/mcu_vendor/renesas/rz_mcu_boards/core_package/generate/sc_drivers/r_octabus/src/lld\r_octabus_lld_rza2m_api.c ****  * Function Name: get_ok_area_count
 327:D:/Work/DeviceTester/amazon-freertos/lib/third_party/mcu_vendor/renesas/rz_mcu_boards/core_package/generate/sc_drivers/r_octabus/src/lld\r_octabus_lld_rza2m_api.c ****  * Description  : find count of ok area
 328:D:/Work/DeviceTester/amazon-freertos/lib/third_party/mcu_vendor/renesas/rz_mcu_boards/core_package/generate/sc_drivers/r_octabus/src/lld\r_octabus_lld_rza2m_api.c ****  * Arguments    : p_s_ok_ng_result : Pointer of s_ok_ng_result
 329:D:/Work/DeviceTester/amazon-freertos/lib/third_party/mcu_vendor/renesas/rz_mcu_boards/core_package/generate/sc_drivers/r_octabus/src/lld\r_octabus_lld_rza2m_api.c ****  *              : index_start    : start index of ok area
 330:D:/Work/DeviceTester/amazon-freertos/lib/third_party/mcu_vendor/renesas/rz_mcu_boards/core_package/generate/sc_drivers/r_octabus/src/lld\r_octabus_lld_rza2m_api.c ****  * Return Value : count of ok area
 331:D:/Work/DeviceTester/amazon-freertos/lib/third_party/mcu_vendor/renesas/rz_mcu_boards/core_package/generate/sc_drivers/r_octabus/src/lld\r_octabus_lld_rza2m_api.c ****  * Precautions  : This function cannot be assigned to execute from OctaFlash or OctaRAM.
 332:D:/Work/DeviceTester/amazon-freertos/lib/third_party/mcu_vendor/renesas/rz_mcu_boards/core_package/generate/sc_drivers/r_octabus/src/lld\r_octabus_lld_rza2m_api.c ****  *              : This function must be assigned to an area other than OctaFlash or OctaRAM.
 333:D:/Work/DeviceTester/amazon-freertos/lib/third_party/mcu_vendor/renesas/rz_mcu_boards/core_package/generate/sc_drivers/r_octabus/src/lld\r_octabus_lld_rza2m_api.c ****  **************************************************************************************************
 334:D:/Work/DeviceTester/amazon-freertos/lib/third_party/mcu_vendor/renesas/rz_mcu_boards/core_package/generate/sc_drivers/r_octabus/src/lld\r_octabus_lld_rza2m_api.c **** static int_t get_ok_area_count(uint8_t *p_s_ok_ng_result, int_t index_start)
 335:D:/Work/DeviceTester/amazon-freertos/lib/third_party/mcu_vendor/renesas/rz_mcu_boards/core_package/generate/sc_drivers/r_octabus/src/lld\r_octabus_lld_rza2m_api.c **** {
 336:D:/Work/DeviceTester/amazon-freertos/lib/third_party/mcu_vendor/renesas/rz_mcu_boards/core_package/generate/sc_drivers/r_octabus/src/lld\r_octabus_lld_rza2m_api.c ****     int_t index;             /**< loop counter */
 337:D:/Work/DeviceTester/amazon-freertos/lib/third_party/mcu_vendor/renesas/rz_mcu_boards/core_package/generate/sc_drivers/r_octabus/src/lld\r_octabus_lld_rza2m_api.c ****     int_t ok_cnt = 0;
 338:D:/Work/DeviceTester/amazon-freertos/lib/third_party/mcu_vendor/renesas/rz_mcu_boards/core_package/generate/sc_drivers/r_octabus/src/lld\r_octabus_lld_rza2m_api.c **** 
 339:D:/Work/DeviceTester/amazon-freertos/lib/third_party/mcu_vendor/renesas/rz_mcu_boards/core_package/generate/sc_drivers/r_octabus/src/lld\r_octabus_lld_rza2m_api.c ****     /* count number of ok */
 340:D:/Work/DeviceTester/amazon-freertos/lib/third_party/mcu_vendor/renesas/rz_mcu_boards/core_package/generate/sc_drivers/r_octabus/src/lld\r_octabus_lld_rza2m_api.c ****     for (index = index_start; index < 16; index++ )
 341:D:/Work/DeviceTester/amazon-freertos/lib/third_party/mcu_vendor/renesas/rz_mcu_boards/core_package/generate/sc_drivers/r_octabus/src/lld\r_octabus_lld_rza2m_api.c ****     {
 342:D:/Work/DeviceTester/amazon-freertos/lib/third_party/mcu_vendor/renesas/rz_mcu_boards/core_package/generate/sc_drivers/r_octabus/src/lld\r_octabus_lld_rza2m_api.c ****         if (R_PRV_OCTABUS_RESULT_OK == p_s_ok_ng_result[index])
 343:D:/Work/DeviceTester/amazon-freertos/lib/third_party/mcu_vendor/renesas/rz_mcu_boards/core_package/generate/sc_drivers/r_octabus/src/lld\r_octabus_lld_rza2m_api.c ****         {
 344:D:/Work/DeviceTester/amazon-freertos/lib/third_party/mcu_vendor/renesas/rz_mcu_boards/core_package/generate/sc_drivers/r_octabus/src/lld\r_octabus_lld_rza2m_api.c ****             ok_cnt++;
 345:D:/Work/DeviceTester/amazon-freertos/lib/third_party/mcu_vendor/renesas/rz_mcu_boards/core_package/generate/sc_drivers/r_octabus/src/lld\r_octabus_lld_rza2m_api.c ****         }
 346:D:/Work/DeviceTester/amazon-freertos/lib/third_party/mcu_vendor/renesas/rz_mcu_boards/core_package/generate/sc_drivers/r_octabus/src/lld\r_octabus_lld_rza2m_api.c ****         else
 347:D:/Work/DeviceTester/amazon-freertos/lib/third_party/mcu_vendor/renesas/rz_mcu_boards/core_package/generate/sc_drivers/r_octabus/src/lld\r_octabus_lld_rza2m_api.c ****         {
 348:D:/Work/DeviceTester/amazon-freertos/lib/third_party/mcu_vendor/renesas/rz_mcu_boards/core_package/generate/sc_drivers/r_octabus/src/lld\r_octabus_lld_rza2m_api.c ****             break;
 349:D:/Work/DeviceTester/amazon-freertos/lib/third_party/mcu_vendor/renesas/rz_mcu_boards/core_package/generate/sc_drivers/r_octabus/src/lld\r_octabus_lld_rza2m_api.c ****         }
 350:D:/Work/DeviceTester/amazon-freertos/lib/third_party/mcu_vendor/renesas/rz_mcu_boards/core_package/generate/sc_drivers/r_octabus/src/lld\r_octabus_lld_rza2m_api.c **** 
 351:D:/Work/DeviceTester/amazon-freertos/lib/third_party/mcu_vendor/renesas/rz_mcu_boards/core_package/generate/sc_drivers/r_octabus/src/lld\r_octabus_lld_rza2m_api.c ****     }
 352:D:/Work/DeviceTester/amazon-freertos/lib/third_party/mcu_vendor/renesas/rz_mcu_boards/core_package/generate/sc_drivers/r_octabus/src/lld\r_octabus_lld_rza2m_api.c ****     return ok_cnt;
 353:D:/Work/DeviceTester/amazon-freertos/lib/third_party/mcu_vendor/renesas/rz_mcu_boards/core_package/generate/sc_drivers/r_octabus/src/lld\r_octabus_lld_rza2m_api.c **** }
 354:D:/Work/DeviceTester/amazon-freertos/lib/third_party/mcu_vendor/renesas/rz_mcu_boards/core_package/generate/sc_drivers/r_octabus/src/lld\r_octabus_lld_rza2m_api.c **** /**************************************************************************************************
 355:D:/Work/DeviceTester/amazon-freertos/lib/third_party/mcu_vendor/renesas/rz_mcu_boards/core_package/generate/sc_drivers/r_octabus/src/lld\r_octabus_lld_rza2m_api.c ****  * End of function get_ok_area_count
 356:D:/Work/DeviceTester/amazon-freertos/lib/third_party/mcu_vendor/renesas/rz_mcu_boards/core_package/generate/sc_drivers/r_octabus/src/lld\r_octabus_lld_rza2m_api.c ****  **************************************************************************************************
 357:D:/Work/DeviceTester/amazon-freertos/lib/third_party/mcu_vendor/renesas/rz_mcu_boards/core_package/generate/sc_drivers/r_octabus/src/lld\r_octabus_lld_rza2m_api.c **** 
 358:D:/Work/DeviceTester/amazon-freertos/lib/third_party/mcu_vendor/renesas/rz_mcu_boards/core_package/generate/sc_drivers/r_octabus/src/lld\r_octabus_lld_rza2m_api.c **** /**************************************************************************************************
 359:D:/Work/DeviceTester/amazon-freertos/lib/third_party/mcu_vendor/renesas/rz_mcu_boards/core_package/generate/sc_drivers/r_octabus/src/lld\r_octabus_lld_rza2m_api.c ****  * Function Name: octaram_manualcalib
 360:D:/Work/DeviceTester/amazon-freertos/lib/third_party/mcu_vendor/renesas/rz_mcu_boards/core_package/generate/sc_drivers/r_octabus/src/lld\r_octabus_lld_rza2m_api.c ****  * Description  : Initialize OctaBus controller of RZ/A2M
 361:D:/Work/DeviceTester/amazon-freertos/lib/third_party/mcu_vendor/renesas/rz_mcu_boards/core_package/generate/sc_drivers/r_octabus/src/lld\r_octabus_lld_rza2m_api.c ****  * Arguments    : p_cfg       : Pointer to the configuration table
 362:D:/Work/DeviceTester/amazon-freertos/lib/third_party/mcu_vendor/renesas/rz_mcu_boards/core_package/generate/sc_drivers/r_octabus/src/lld\r_octabus_lld_rza2m_api.c ****  * Return Value : DRV_SUCCESS  Successful operation (always)
 363:D:/Work/DeviceTester/amazon-freertos/lib/third_party/mcu_vendor/renesas/rz_mcu_boards/core_package/generate/sc_drivers/r_octabus/src/lld\r_octabus_lld_rza2m_api.c ****  * Precautions  : This function cannot be assigned to execute from OctaFlash or OctaRAM.
 364:D:/Work/DeviceTester/amazon-freertos/lib/third_party/mcu_vendor/renesas/rz_mcu_boards/core_package/generate/sc_drivers/r_octabus/src/lld\r_octabus_lld_rza2m_api.c ****  *              : This function must be assigned to an area other than OctaFlash or OctaRAM.
 365:D:/Work/DeviceTester/amazon-freertos/lib/third_party/mcu_vendor/renesas/rz_mcu_boards/core_package/generate/sc_drivers/r_octabus/src/lld\r_octabus_lld_rza2m_api.c ****  *              : Writing preamble of this function data must be performed in the cache invalid are
 366:D:/Work/DeviceTester/amazon-freertos/lib/third_party/mcu_vendor/renesas/rz_mcu_boards/core_package/generate/sc_drivers/r_octabus/src/lld\r_octabus_lld_rza2m_api.c ****  **************************************************************************************************
 367:D:/Work/DeviceTester/amazon-freertos/lib/third_party/mcu_vendor/renesas/rz_mcu_boards/core_package/generate/sc_drivers/r_octabus/src/lld\r_octabus_lld_rza2m_api.c **** static int_t octaram_manualcalib(const st_octabus_cfg_t *p_cfg)
 368:D:/Work/DeviceTester/amazon-freertos/lib/third_party/mcu_vendor/renesas/rz_mcu_boards/core_package/generate/sc_drivers/r_octabus/src/lld\r_octabus_lld_rza2m_api.c **** {
 369:D:/Work/DeviceTester/amazon-freertos/lib/third_party/mcu_vendor/renesas/rz_mcu_boards/core_package/generate/sc_drivers/r_octabus/src/lld\r_octabus_lld_rza2m_api.c ****     volatile uint32_t * p_preamble;
 370:D:/Work/DeviceTester/amazon-freertos/lib/third_party/mcu_vendor/renesas/rz_mcu_boards/core_package/generate/sc_drivers/r_octabus/src/lld\r_octabus_lld_rza2m_api.c ****     uint32_t dummy_32;
 371:D:/Work/DeviceTester/amazon-freertos/lib/third_party/mcu_vendor/renesas/rz_mcu_boards/core_package/generate/sc_drivers/r_octabus/src/lld\r_octabus_lld_rza2m_api.c ****     int_t    judge_result;
 372:D:/Work/DeviceTester/amazon-freertos/lib/third_party/mcu_vendor/renesas/rz_mcu_boards/core_package/generate/sc_drivers/r_octabus/src/lld\r_octabus_lld_rza2m_api.c ****     int_t    i;
 373:D:/Work/DeviceTester/amazon-freertos/lib/third_party/mcu_vendor/renesas/rz_mcu_boards/core_package/generate/sc_drivers/r_octabus/src/lld\r_octabus_lld_rza2m_api.c ****     int_t index;             /**< loop counter */
 374:D:/Work/DeviceTester/amazon-freertos/lib/third_party/mcu_vendor/renesas/rz_mcu_boards/core_package/generate/sc_drivers/r_octabus/src/lld\r_octabus_lld_rza2m_api.c ****     int_t index_start = -1;
 375:D:/Work/DeviceTester/amazon-freertos/lib/third_party/mcu_vendor/renesas/rz_mcu_boards/core_package/generate/sc_drivers/r_octabus/src/lld\r_octabus_lld_rza2m_api.c ****     int_t ok_cnt = 0;
 376:D:/Work/DeviceTester/amazon-freertos/lib/third_party/mcu_vendor/renesas/rz_mcu_boards/core_package/generate/sc_drivers/r_octabus/src/lld\r_octabus_lld_rza2m_api.c **** 
 377:D:/Work/DeviceTester/amazon-freertos/lib/third_party/mcu_vendor/renesas/rz_mcu_boards/core_package/generate/sc_drivers/r_octabus/src/lld\r_octabus_lld_rza2m_api.c ****     /* write preamble pattern to defined address in p_cfg->acar1 */
 378:D:/Work/DeviceTester/amazon-freertos/lib/third_party/mcu_vendor/renesas/rz_mcu_boards/core_package/generate/sc_drivers/r_octabus/src/lld\r_octabus_lld_rza2m_api.c ****     p_preamble = (uint32_t *)(p_cfg->acar1 + R_PRV_OCTARAM_MAP_OFFSET);
 379:D:/Work/DeviceTester/amazon-freertos/lib/third_party/mcu_vendor/renesas/rz_mcu_boards/core_package/generate/sc_drivers/r_octabus/src/lld\r_octabus_lld_rza2m_api.c ****     p_preamble[0] = s_preamble_data[0];
 380:D:/Work/DeviceTester/amazon-freertos/lib/third_party/mcu_vendor/renesas/rz_mcu_boards/core_package/generate/sc_drivers/r_octabus/src/lld\r_octabus_lld_rza2m_api.c ****     p_preamble[1] = s_preamble_data[1];
 381:D:/Work/DeviceTester/amazon-freertos/lib/third_party/mcu_vendor/renesas/rz_mcu_boards/core_package/generate/sc_drivers/r_octabus/src/lld\r_octabus_lld_rza2m_api.c ****     p_preamble[2] = s_preamble_data[2];
 382:D:/Work/DeviceTester/amazon-freertos/lib/third_party/mcu_vendor/renesas/rz_mcu_boards/core_package/generate/sc_drivers/r_octabus/src/lld\r_octabus_lld_rza2m_api.c ****     p_preamble[3] = s_preamble_data[3];
 383:D:/Work/DeviceTester/amazon-freertos/lib/third_party/mcu_vendor/renesas/rz_mcu_boards/core_package/generate/sc_drivers/r_octabus/src/lld\r_octabus_lld_rza2m_api.c **** 
 384:D:/Work/DeviceTester/amazon-freertos/lib/third_party/mcu_vendor/renesas/rz_mcu_boards/core_package/generate/sc_drivers/r_octabus/src/lld\r_octabus_lld_rza2m_api.c ****     /* detect ok/ng area */
 385:D:/Work/DeviceTester/amazon-freertos/lib/third_party/mcu_vendor/renesas/rz_mcu_boards/core_package/generate/sc_drivers/r_octabus/src/lld\r_octabus_lld_rza2m_api.c ****     for (index = 0; index < 16; index++ )
 386:D:/Work/DeviceTester/amazon-freertos/lib/third_party/mcu_vendor/renesas/rz_mcu_boards/core_package/generate/sc_drivers/r_octabus/src/lld\r_octabus_lld_rza2m_api.c ****     {
 387:D:/Work/DeviceTester/amazon-freertos/lib/third_party/mcu_vendor/renesas/rz_mcu_boards/core_package/generate/sc_drivers/r_octabus/src/lld\r_octabus_lld_rza2m_api.c ****         /* Read from MDTR */
 388:D:/Work/DeviceTester/amazon-freertos/lib/third_party/mcu_vendor/renesas/rz_mcu_boards/core_package/generate/sc_drivers/r_octabus/src/lld\r_octabus_lld_rza2m_api.c ****         dummy_32 = octabus_io_regread_32(&OCTA.MDTR.LONG, IOREG_NONSHIFT_ACCESS, IOREG_NONMASK_ACCE
 389:D:/Work/DeviceTester/amazon-freertos/lib/third_party/mcu_vendor/renesas/rz_mcu_boards/core_package/generate/sc_drivers/r_octabus/src/lld\r_octabus_lld_rza2m_api.c **** 
 390:D:/Work/DeviceTester/amazon-freertos/lib/third_party/mcu_vendor/renesas/rz_mcu_boards/core_package/generate/sc_drivers/r_octabus/src/lld\r_octabus_lld_rza2m_api.c ****         /* Make write data to MDTR  */
 391:D:/Work/DeviceTester/amazon-freertos/lib/third_party/mcu_vendor/renesas/rz_mcu_boards/core_package/generate/sc_drivers/r_octabus/src/lld\r_octabus_lld_rza2m_api.c ****         dummy_32 &= (~(uint32_t)OCTA_MDTR_DV1DEL); /* Clear DV1DEL */
 392:D:/Work/DeviceTester/amazon-freertos/lib/third_party/mcu_vendor/renesas/rz_mcu_boards/core_package/generate/sc_drivers/r_octabus/src/lld\r_octabus_lld_rza2m_api.c **** 
 393:D:/Work/DeviceTester/amazon-freertos/lib/third_party/mcu_vendor/renesas/rz_mcu_boards/core_package/generate/sc_drivers/r_octabus/src/lld\r_octabus_lld_rza2m_api.c ****         /* Set DQS delay value */
 394:D:/Work/DeviceTester/amazon-freertos/lib/third_party/mcu_vendor/renesas/rz_mcu_boards/core_package/generate/sc_drivers/r_octabus/src/lld\r_octabus_lld_rza2m_api.c ****         dummy_32 |= (uint32_t) ((index << 4) << OCTA_MDTR_DV1DEL_SHIFT);
 395:D:/Work/DeviceTester/amazon-freertos/lib/third_party/mcu_vendor/renesas/rz_mcu_boards/core_package/generate/sc_drivers/r_octabus/src/lld\r_octabus_lld_rza2m_api.c **** 
 396:D:/Work/DeviceTester/amazon-freertos/lib/third_party/mcu_vendor/renesas/rz_mcu_boards/core_package/generate/sc_drivers/r_octabus/src/lld\r_octabus_lld_rza2m_api.c ****         /** Write to MDTR */
 397:D:/Work/DeviceTester/amazon-freertos/lib/third_party/mcu_vendor/renesas/rz_mcu_boards/core_package/generate/sc_drivers/r_octabus/src/lld\r_octabus_lld_rza2m_api.c ****         octabus_io_regwrite_32(&OCTA.MDTR.LONG, dummy_32, IOREG_NONSHIFT_ACCESS, IOREG_NONMASK_ACCE
 398:D:/Work/DeviceTester/amazon-freertos/lib/third_party/mcu_vendor/renesas/rz_mcu_boards/core_package/generate/sc_drivers/r_octabus/src/lld\r_octabus_lld_rza2m_api.c **** 
 399:D:/Work/DeviceTester/amazon-freertos/lib/third_party/mcu_vendor/renesas/rz_mcu_boards/core_package/generate/sc_drivers/r_octabus/src/lld\r_octabus_lld_rza2m_api.c ****         /* Read preamble data and test */
 400:D:/Work/DeviceTester/amazon-freertos/lib/third_party/mcu_vendor/renesas/rz_mcu_boards/core_package/generate/sc_drivers/r_octabus/src/lld\r_octabus_lld_rza2m_api.c ****         judge_result = 0;
 401:D:/Work/DeviceTester/amazon-freertos/lib/third_party/mcu_vendor/renesas/rz_mcu_boards/core_package/generate/sc_drivers/r_octabus/src/lld\r_octabus_lld_rza2m_api.c **** 
 402:D:/Work/DeviceTester/amazon-freertos/lib/third_party/mcu_vendor/renesas/rz_mcu_boards/core_package/generate/sc_drivers/r_octabus/src/lld\r_octabus_lld_rza2m_api.c ****         for (i = 0; i < 4; i++ )
 403:D:/Work/DeviceTester/amazon-freertos/lib/third_party/mcu_vendor/renesas/rz_mcu_boards/core_package/generate/sc_drivers/r_octabus/src/lld\r_octabus_lld_rza2m_api.c ****         {
 404:D:/Work/DeviceTester/amazon-freertos/lib/third_party/mcu_vendor/renesas/rz_mcu_boards/core_package/generate/sc_drivers/r_octabus/src/lld\r_octabus_lld_rza2m_api.c ****             if (s_preamble_data[i] != p_preamble[i])
 405:D:/Work/DeviceTester/amazon-freertos/lib/third_party/mcu_vendor/renesas/rz_mcu_boards/core_package/generate/sc_drivers/r_octabus/src/lld\r_octabus_lld_rza2m_api.c ****             {
 406:D:/Work/DeviceTester/amazon-freertos/lib/third_party/mcu_vendor/renesas/rz_mcu_boards/core_package/generate/sc_drivers/r_octabus/src/lld\r_octabus_lld_rza2m_api.c ****                 judge_result = 1;
 407:D:/Work/DeviceTester/amazon-freertos/lib/third_party/mcu_vendor/renesas/rz_mcu_boards/core_package/generate/sc_drivers/r_octabus/src/lld\r_octabus_lld_rza2m_api.c ****                 break;
 408:D:/Work/DeviceTester/amazon-freertos/lib/third_party/mcu_vendor/renesas/rz_mcu_boards/core_package/generate/sc_drivers/r_octabus/src/lld\r_octabus_lld_rza2m_api.c ****             }
 409:D:/Work/DeviceTester/amazon-freertos/lib/third_party/mcu_vendor/renesas/rz_mcu_boards/core_package/generate/sc_drivers/r_octabus/src/lld\r_octabus_lld_rza2m_api.c ****         }
 410:D:/Work/DeviceTester/amazon-freertos/lib/third_party/mcu_vendor/renesas/rz_mcu_boards/core_package/generate/sc_drivers/r_octabus/src/lld\r_octabus_lld_rza2m_api.c **** 
 411:D:/Work/DeviceTester/amazon-freertos/lib/third_party/mcu_vendor/renesas/rz_mcu_boards/core_package/generate/sc_drivers/r_octabus/src/lld\r_octabus_lld_rza2m_api.c ****         /* Store the judgement result in the table */
 412:D:/Work/DeviceTester/amazon-freertos/lib/third_party/mcu_vendor/renesas/rz_mcu_boards/core_package/generate/sc_drivers/r_octabus/src/lld\r_octabus_lld_rza2m_api.c ****         if (0 == judge_result)
 413:D:/Work/DeviceTester/amazon-freertos/lib/third_party/mcu_vendor/renesas/rz_mcu_boards/core_package/generate/sc_drivers/r_octabus/src/lld\r_octabus_lld_rza2m_api.c ****         {
 414:D:/Work/DeviceTester/amazon-freertos/lib/third_party/mcu_vendor/renesas/rz_mcu_boards/core_package/generate/sc_drivers/r_octabus/src/lld\r_octabus_lld_rza2m_api.c ****             s_ok_ng_result[index] = R_PRV_OCTABUS_RESULT_OK;
 415:D:/Work/DeviceTester/amazon-freertos/lib/third_party/mcu_vendor/renesas/rz_mcu_boards/core_package/generate/sc_drivers/r_octabus/src/lld\r_octabus_lld_rza2m_api.c ****         }
 416:D:/Work/DeviceTester/amazon-freertos/lib/third_party/mcu_vendor/renesas/rz_mcu_boards/core_package/generate/sc_drivers/r_octabus/src/lld\r_octabus_lld_rza2m_api.c ****         else /* Continuous OK region */
 417:D:/Work/DeviceTester/amazon-freertos/lib/third_party/mcu_vendor/renesas/rz_mcu_boards/core_package/generate/sc_drivers/r_octabus/src/lld\r_octabus_lld_rza2m_api.c ****         {
 418:D:/Work/DeviceTester/amazon-freertos/lib/third_party/mcu_vendor/renesas/rz_mcu_boards/core_package/generate/sc_drivers/r_octabus/src/lld\r_octabus_lld_rza2m_api.c ****             s_ok_ng_result[index] = R_PRV_OCTABUS_RESULT_NG;
 419:D:/Work/DeviceTester/amazon-freertos/lib/third_party/mcu_vendor/renesas/rz_mcu_boards/core_package/generate/sc_drivers/r_octabus/src/lld\r_octabus_lld_rza2m_api.c ****         }
 420:D:/Work/DeviceTester/amazon-freertos/lib/third_party/mcu_vendor/renesas/rz_mcu_boards/core_package/generate/sc_drivers/r_octabus/src/lld\r_octabus_lld_rza2m_api.c ****     }
 421:D:/Work/DeviceTester/amazon-freertos/lib/third_party/mcu_vendor/renesas/rz_mcu_boards/core_package/generate/sc_drivers/r_octabus/src/lld\r_octabus_lld_rza2m_api.c **** 
 422:D:/Work/DeviceTester/amazon-freertos/lib/third_party/mcu_vendor/renesas/rz_mcu_boards/core_package/generate/sc_drivers/r_octabus/src/lld\r_octabus_lld_rza2m_api.c ****     /* Search for the start index of the OK area */
 423:D:/Work/DeviceTester/amazon-freertos/lib/third_party/mcu_vendor/renesas/rz_mcu_boards/core_package/generate/sc_drivers/r_octabus/src/lld\r_octabus_lld_rza2m_api.c ****     index_start = get_ok_area_start(s_ok_ng_result);
 424:D:/Work/DeviceTester/amazon-freertos/lib/third_party/mcu_vendor/renesas/rz_mcu_boards/core_package/generate/sc_drivers/r_octabus/src/lld\r_octabus_lld_rza2m_api.c ****     if ((-1) == index_start)
 425:D:/Work/DeviceTester/amazon-freertos/lib/third_party/mcu_vendor/renesas/rz_mcu_boards/core_package/generate/sc_drivers/r_octabus/src/lld\r_octabus_lld_rza2m_api.c ****     {
 426:D:/Work/DeviceTester/amazon-freertos/lib/third_party/mcu_vendor/renesas/rz_mcu_boards/core_package/generate/sc_drivers/r_octabus/src/lld\r_octabus_lld_rza2m_api.c ****         return DRV_ERROR; /* OK area not found */
 427:D:/Work/DeviceTester/amazon-freertos/lib/third_party/mcu_vendor/renesas/rz_mcu_boards/core_package/generate/sc_drivers/r_octabus/src/lld\r_octabus_lld_rza2m_api.c ****     }
 428:D:/Work/DeviceTester/amazon-freertos/lib/third_party/mcu_vendor/renesas/rz_mcu_boards/core_package/generate/sc_drivers/r_octabus/src/lld\r_octabus_lld_rza2m_api.c **** 
 429:D:/Work/DeviceTester/amazon-freertos/lib/third_party/mcu_vendor/renesas/rz_mcu_boards/core_package/generate/sc_drivers/r_octabus/src/lld\r_octabus_lld_rza2m_api.c ****     /* Find the number of OK areas */
 430:D:/Work/DeviceTester/amazon-freertos/lib/third_party/mcu_vendor/renesas/rz_mcu_boards/core_package/generate/sc_drivers/r_octabus/src/lld\r_octabus_lld_rza2m_api.c ****     ok_cnt = get_ok_area_count(s_ok_ng_result, index_start);
 431:D:/Work/DeviceTester/amazon-freertos/lib/third_party/mcu_vendor/renesas/rz_mcu_boards/core_package/generate/sc_drivers/r_octabus/src/lld\r_octabus_lld_rza2m_api.c **** 
 432:D:/Work/DeviceTester/amazon-freertos/lib/third_party/mcu_vendor/renesas/rz_mcu_boards/core_package/generate/sc_drivers/r_octabus/src/lld\r_octabus_lld_rza2m_api.c ****     if (3 < ok_cnt)
 433:D:/Work/DeviceTester/amazon-freertos/lib/third_party/mcu_vendor/renesas/rz_mcu_boards/core_package/generate/sc_drivers/r_octabus/src/lld\r_octabus_lld_rza2m_api.c ****     {
 434:D:/Work/DeviceTester/amazon-freertos/lib/third_party/mcu_vendor/renesas/rz_mcu_boards/core_package/generate/sc_drivers/r_octabus/src/lld\r_octabus_lld_rza2m_api.c ****         /** Read from MDTR */
 435:D:/Work/DeviceTester/amazon-freertos/lib/third_party/mcu_vendor/renesas/rz_mcu_boards/core_package/generate/sc_drivers/r_octabus/src/lld\r_octabus_lld_rza2m_api.c ****         dummy_32 = octabus_io_regread_32(&OCTA.MDTR.LONG, IOREG_NONSHIFT_ACCESS, IOREG_NONMASK_ACCE
 436:D:/Work/DeviceTester/amazon-freertos/lib/third_party/mcu_vendor/renesas/rz_mcu_boards/core_package/generate/sc_drivers/r_octabus/src/lld\r_octabus_lld_rza2m_api.c **** 
 437:D:/Work/DeviceTester/amazon-freertos/lib/third_party/mcu_vendor/renesas/rz_mcu_boards/core_package/generate/sc_drivers/r_octabus/src/lld\r_octabus_lld_rza2m_api.c ****         /** Make write data to MDTR  */
 438:D:/Work/DeviceTester/amazon-freertos/lib/third_party/mcu_vendor/renesas/rz_mcu_boards/core_package/generate/sc_drivers/r_octabus/src/lld\r_octabus_lld_rza2m_api.c ****         dummy_32 &= (~(uint32_t)OCTA_MDTR_DV1DEL); /* Clear DV1DEL */
 439:D:/Work/DeviceTester/amazon-freertos/lib/third_party/mcu_vendor/renesas/rz_mcu_boards/core_package/generate/sc_drivers/r_octabus/src/lld\r_octabus_lld_rza2m_api.c **** 
 440:D:/Work/DeviceTester/amazon-freertos/lib/third_party/mcu_vendor/renesas/rz_mcu_boards/core_package/generate/sc_drivers/r_octabus/src/lld\r_octabus_lld_rza2m_api.c ****         dummy_32 |= (uint32_t) (((index_start + (ok_cnt >> 1)) << 4) << OCTA_MDTR_DV1DEL_SHIFT); /*
 441:D:/Work/DeviceTester/amazon-freertos/lib/third_party/mcu_vendor/renesas/rz_mcu_boards/core_package/generate/sc_drivers/r_octabus/src/lld\r_octabus_lld_rza2m_api.c **** 
 442:D:/Work/DeviceTester/amazon-freertos/lib/third_party/mcu_vendor/renesas/rz_mcu_boards/core_package/generate/sc_drivers/r_octabus/src/lld\r_octabus_lld_rza2m_api.c ****         /** Write to MDTR */
 443:D:/Work/DeviceTester/amazon-freertos/lib/third_party/mcu_vendor/renesas/rz_mcu_boards/core_package/generate/sc_drivers/r_octabus/src/lld\r_octabus_lld_rza2m_api.c ****         octabus_io_regwrite_32(&OCTA.MDTR.LONG, dummy_32, IOREG_NONSHIFT_ACCESS, IOREG_NONMASK_ACCE
 444:D:/Work/DeviceTester/amazon-freertos/lib/third_party/mcu_vendor/renesas/rz_mcu_boards/core_package/generate/sc_drivers/r_octabus/src/lld\r_octabus_lld_rza2m_api.c **** 
 445:D:/Work/DeviceTester/amazon-freertos/lib/third_party/mcu_vendor/renesas/rz_mcu_boards/core_package/generate/sc_drivers/r_octabus/src/lld\r_octabus_lld_rza2m_api.c ****         return DRV_SUCCESS;
 446:D:/Work/DeviceTester/amazon-freertos/lib/third_party/mcu_vendor/renesas/rz_mcu_boards/core_package/generate/sc_drivers/r_octabus/src/lld\r_octabus_lld_rza2m_api.c ****     }
 447:D:/Work/DeviceTester/amazon-freertos/lib/third_party/mcu_vendor/renesas/rz_mcu_boards/core_package/generate/sc_drivers/r_octabus/src/lld\r_octabus_lld_rza2m_api.c ****     else
 448:D:/Work/DeviceTester/amazon-freertos/lib/third_party/mcu_vendor/renesas/rz_mcu_boards/core_package/generate/sc_drivers/r_octabus/src/lld\r_octabus_lld_rza2m_api.c ****     {
 449:D:/Work/DeviceTester/amazon-freertos/lib/third_party/mcu_vendor/renesas/rz_mcu_boards/core_package/generate/sc_drivers/r_octabus/src/lld\r_octabus_lld_rza2m_api.c ****         return DRV_ERROR;
 450:D:/Work/DeviceTester/amazon-freertos/lib/third_party/mcu_vendor/renesas/rz_mcu_boards/core_package/generate/sc_drivers/r_octabus/src/lld\r_octabus_lld_rza2m_api.c ****     }
 451:D:/Work/DeviceTester/amazon-freertos/lib/third_party/mcu_vendor/renesas/rz_mcu_boards/core_package/generate/sc_drivers/r_octabus/src/lld\r_octabus_lld_rza2m_api.c **** 
 452:D:/Work/DeviceTester/amazon-freertos/lib/third_party/mcu_vendor/renesas/rz_mcu_boards/core_package/generate/sc_drivers/r_octabus/src/lld\r_octabus_lld_rza2m_api.c **** }
 453:D:/Work/DeviceTester/amazon-freertos/lib/third_party/mcu_vendor/renesas/rz_mcu_boards/core_package/generate/sc_drivers/r_octabus/src/lld\r_octabus_lld_rza2m_api.c **** /**************************************************************************************************
 454:D:/Work/DeviceTester/amazon-freertos/lib/third_party/mcu_vendor/renesas/rz_mcu_boards/core_package/generate/sc_drivers/r_octabus/src/lld\r_octabus_lld_rza2m_api.c ****  * End of function octaram_manualcalib
 455:D:/Work/DeviceTester/amazon-freertos/lib/third_party/mcu_vendor/renesas/rz_mcu_boards/core_package/generate/sc_drivers/r_octabus/src/lld\r_octabus_lld_rza2m_api.c ****  **************************************************************************************************
 456:D:/Work/DeviceTester/amazon-freertos/lib/third_party/mcu_vendor/renesas/rz_mcu_boards/core_package/generate/sc_drivers/r_octabus/src/lld\r_octabus_lld_rza2m_api.c **** 
 457:D:/Work/DeviceTester/amazon-freertos/lib/third_party/mcu_vendor/renesas/rz_mcu_boards/core_package/generate/sc_drivers/r_octabus/src/lld\r_octabus_lld_rza2m_api.c **** /**************************************************************************************************
 458:D:/Work/DeviceTester/amazon-freertos/lib/third_party/mcu_vendor/renesas/rz_mcu_boards/core_package/generate/sc_drivers/r_octabus/src/lld\r_octabus_lld_rza2m_api.c ****  * Function Name: octaram_autocalib
 459:D:/Work/DeviceTester/amazon-freertos/lib/third_party/mcu_vendor/renesas/rz_mcu_boards/core_package/generate/sc_drivers/r_octabus/src/lld\r_octabus_lld_rza2m_api.c ****  * Description  : set octabus#1 to enable auto calibration
 460:D:/Work/DeviceTester/amazon-freertos/lib/third_party/mcu_vendor/renesas/rz_mcu_boards/core_package/generate/sc_drivers/r_octabus/src/lld\r_octabus_lld_rza2m_api.c ****  * Arguments    : p_cfg       : Pointer to the configuration table
 461:D:/Work/DeviceTester/amazon-freertos/lib/third_party/mcu_vendor/renesas/rz_mcu_boards/core_package/generate/sc_drivers/r_octabus/src/lld\r_octabus_lld_rza2m_api.c ****  * Return Value : DRV_SUCCESS  Successful operation (always)
 462:D:/Work/DeviceTester/amazon-freertos/lib/third_party/mcu_vendor/renesas/rz_mcu_boards/core_package/generate/sc_drivers/r_octabus/src/lld\r_octabus_lld_rza2m_api.c ****  * Precautions  : This function cannot be assigned to execute from OctaFlash or OctaRAM.
 463:D:/Work/DeviceTester/amazon-freertos/lib/third_party/mcu_vendor/renesas/rz_mcu_boards/core_package/generate/sc_drivers/r_octabus/src/lld\r_octabus_lld_rza2m_api.c ****  *              : This function must be assigned to an area other than OctaFlash or OctaRAM.
 464:D:/Work/DeviceTester/amazon-freertos/lib/third_party/mcu_vendor/renesas/rz_mcu_boards/core_package/generate/sc_drivers/r_octabus/src/lld\r_octabus_lld_rza2m_api.c ****  **************************************************************************************************
 465:D:/Work/DeviceTester/amazon-freertos/lib/third_party/mcu_vendor/renesas/rz_mcu_boards/core_package/generate/sc_drivers/r_octabus/src/lld\r_octabus_lld_rza2m_api.c **** static int_t octaram_autocalib(const st_octabus_cfg_t * p_cfg)
 466:D:/Work/DeviceTester/amazon-freertos/lib/third_party/mcu_vendor/renesas/rz_mcu_boards/core_package/generate/sc_drivers/r_octabus/src/lld\r_octabus_lld_rza2m_api.c **** {
 467:D:/Work/DeviceTester/amazon-freertos/lib/third_party/mcu_vendor/renesas/rz_mcu_boards/core_package/generate/sc_drivers/r_octabus/src/lld\r_octabus_lld_rza2m_api.c ****     volatile uint32_t * p_acar1;
 468:D:/Work/DeviceTester/amazon-freertos/lib/third_party/mcu_vendor/renesas/rz_mcu_boards/core_package/generate/sc_drivers/r_octabus/src/lld\r_octabus_lld_rza2m_api.c ****     uint32_t dummy_32;
 469:D:/Work/DeviceTester/amazon-freertos/lib/third_party/mcu_vendor/renesas/rz_mcu_boards/core_package/generate/sc_drivers/r_octabus/src/lld\r_octabus_lld_rza2m_api.c **** 
 470:D:/Work/DeviceTester/amazon-freertos/lib/third_party/mcu_vendor/renesas/rz_mcu_boards/core_package/generate/sc_drivers/r_octabus/src/lld\r_octabus_lld_rza2m_api.c ****     /* Write preamble pattern match with configured transfer order */
 471:D:/Work/DeviceTester/amazon-freertos/lib/third_party/mcu_vendor/renesas/rz_mcu_boards/core_package/generate/sc_drivers/r_octabus/src/lld\r_octabus_lld_rza2m_api.c ****     p_acar1 = (uint32_t *)(p_cfg->acar1 + R_PRV_OCTARAM_MAP_OFFSET);
 472:D:/Work/DeviceTester/amazon-freertos/lib/third_party/mcu_vendor/renesas/rz_mcu_boards/core_package/generate/sc_drivers/r_octabus/src/lld\r_octabus_lld_rza2m_api.c ****     if (OCTABUS_BYTE_ORDER_B1B0B3B2 == p_cfg->mro1)
 473:D:/Work/DeviceTester/amazon-freertos/lib/third_party/mcu_vendor/renesas/rz_mcu_boards/core_package/generate/sc_drivers/r_octabus/src/lld\r_octabus_lld_rza2m_api.c ****     {
 474:D:/Work/DeviceTester/amazon-freertos/lib/third_party/mcu_vendor/renesas/rz_mcu_boards/core_package/generate/sc_drivers/r_octabus/src/lld\r_octabus_lld_rza2m_api.c ****         p_acar1[3] = 0xF700F708uL;
 475:D:/Work/DeviceTester/amazon-freertos/lib/third_party/mcu_vendor/renesas/rz_mcu_boards/core_package/generate/sc_drivers/r_octabus/src/lld\r_octabus_lld_rza2m_api.c ****         p_acar1[2] = 0x00FFF700uL;
 476:D:/Work/DeviceTester/amazon-freertos/lib/third_party/mcu_vendor/renesas/rz_mcu_boards/core_package/generate/sc_drivers/r_octabus/src/lld\r_octabus_lld_rza2m_api.c ****         p_acar1[1] = 0x000800FFuL;
 477:D:/Work/DeviceTester/amazon-freertos/lib/third_party/mcu_vendor/renesas/rz_mcu_boards/core_package/generate/sc_drivers/r_octabus/src/lld\r_octabus_lld_rza2m_api.c ****         p_acar1[0] = 0xFFFF0000uL;
 478:D:/Work/DeviceTester/amazon-freertos/lib/third_party/mcu_vendor/renesas/rz_mcu_boards/core_package/generate/sc_drivers/r_octabus/src/lld\r_octabus_lld_rza2m_api.c ****     }
 479:D:/Work/DeviceTester/amazon-freertos/lib/third_party/mcu_vendor/renesas/rz_mcu_boards/core_package/generate/sc_drivers/r_octabus/src/lld\r_octabus_lld_rza2m_api.c ****     else
 480:D:/Work/DeviceTester/amazon-freertos/lib/third_party/mcu_vendor/renesas/rz_mcu_boards/core_package/generate/sc_drivers/r_octabus/src/lld\r_octabus_lld_rza2m_api.c ****     {
 481:D:/Work/DeviceTester/amazon-freertos/lib/third_party/mcu_vendor/renesas/rz_mcu_boards/core_package/generate/sc_drivers/r_octabus/src/lld\r_octabus_lld_rza2m_api.c ****         p_acar1[3] = 0x00F708F7uL;
 482:D:/Work/DeviceTester/amazon-freertos/lib/third_party/mcu_vendor/renesas/rz_mcu_boards/core_package/generate/sc_drivers/r_octabus/src/lld\r_octabus_lld_rza2m_api.c ****         p_acar1[2] = 0xFF0000F7uL;
 483:D:/Work/DeviceTester/amazon-freertos/lib/third_party/mcu_vendor/renesas/rz_mcu_boards/core_package/generate/sc_drivers/r_octabus/src/lld\r_octabus_lld_rza2m_api.c ****         p_acar1[1] = 0x0800FF00uL;
 484:D:/Work/DeviceTester/amazon-freertos/lib/third_party/mcu_vendor/renesas/rz_mcu_boards/core_package/generate/sc_drivers/r_octabus/src/lld\r_octabus_lld_rza2m_api.c ****         p_acar1[0] = 0xFFFF0000uL;
 485:D:/Work/DeviceTester/amazon-freertos/lib/third_party/mcu_vendor/renesas/rz_mcu_boards/core_package/generate/sc_drivers/r_octabus/src/lld\r_octabus_lld_rza2m_api.c ****     }
 486:D:/Work/DeviceTester/amazon-freertos/lib/third_party/mcu_vendor/renesas/rz_mcu_boards/core_package/generate/sc_drivers/r_octabus/src/lld\r_octabus_lld_rza2m_api.c **** 
 487:D:/Work/DeviceTester/amazon-freertos/lib/third_party/mcu_vendor/renesas/rz_mcu_boards/core_package/generate/sc_drivers/r_octabus/src/lld\r_octabus_lld_rza2m_api.c ****     /* write ACTR by the config */
 488:D:/Work/DeviceTester/amazon-freertos/lib/third_party/mcu_vendor/renesas/rz_mcu_boards/core_package/generate/sc_drivers/r_octabus/src/lld\r_octabus_lld_rza2m_api.c ****     octabus_io_regwrite_32(&OCTA.ACTR.LONG, p_cfg->actr, IOREG_NONSHIFT_ACCESS, IOREG_NONMASK_ACCES
 489:D:/Work/DeviceTester/amazon-freertos/lib/third_party/mcu_vendor/renesas/rz_mcu_boards/core_package/generate/sc_drivers/r_octabus/src/lld\r_octabus_lld_rza2m_api.c **** 
 490:D:/Work/DeviceTester/amazon-freertos/lib/third_party/mcu_vendor/renesas/rz_mcu_boards/core_package/generate/sc_drivers/r_octabus/src/lld\r_octabus_lld_rza2m_api.c ****     /* write ACAR1 by the config */
 491:D:/Work/DeviceTester/amazon-freertos/lib/third_party/mcu_vendor/renesas/rz_mcu_boards/core_package/generate/sc_drivers/r_octabus/src/lld\r_octabus_lld_rza2m_api.c ****     octabus_io_regwrite_32(&OCTA.ACAR1.LONG, p_cfg->acar1, IOREG_NONSHIFT_ACCESS, IOREG_NONMASK_ACC
 492:D:/Work/DeviceTester/amazon-freertos/lib/third_party/mcu_vendor/renesas/rz_mcu_boards/core_package/generate/sc_drivers/r_octabus/src/lld\r_octabus_lld_rza2m_api.c **** 
 493:D:/Work/DeviceTester/amazon-freertos/lib/third_party/mcu_vendor/renesas/rz_mcu_boards/core_package/generate/sc_drivers/r_octabus/src/lld\r_octabus_lld_rza2m_api.c ****     /** CDSR register must do read-modify-write sequence */
 494:D:/Work/DeviceTester/amazon-freertos/lib/third_party/mcu_vendor/renesas/rz_mcu_boards/core_package/generate/sc_drivers/r_octabus/src/lld\r_octabus_lld_rza2m_api.c ****     dummy_32 = octabus_io_regread_32(&OCTA.CDSR.LONG, IOREG_NONSHIFT_ACCESS, IOREG_NONMASK_ACCESS);
 495:D:/Work/DeviceTester/amazon-freertos/lib/third_party/mcu_vendor/renesas/rz_mcu_boards/core_package/generate/sc_drivers/r_octabus/src/lld\r_octabus_lld_rza2m_api.c ****     dummy_32 |= (uint32_t) ((1 << OCTA_CDSR_ACMODE_SHIFT) /** enable automatic calibration mode */
 496:D:/Work/DeviceTester/amazon-freertos/lib/third_party/mcu_vendor/renesas/rz_mcu_boards/core_package/generate/sc_drivers/r_octabus/src/lld\r_octabus_lld_rza2m_api.c ****                 |    (2 << OCTA_CDSR_ACMEME_SHIFT));      /** enable automatic calibration for Octa
 497:D:/Work/DeviceTester/amazon-freertos/lib/third_party/mcu_vendor/renesas/rz_mcu_boards/core_package/generate/sc_drivers/r_octabus/src/lld\r_octabus_lld_rza2m_api.c ****     octabus_io_regwrite_32(&OCTA.CDSR.LONG, dummy_32, IOREG_NONSHIFT_ACCESS, IOREG_NONMASK_ACCESS);
 498:D:/Work/DeviceTester/amazon-freertos/lib/third_party/mcu_vendor/renesas/rz_mcu_boards/core_package/generate/sc_drivers/r_octabus/src/lld\r_octabus_lld_rza2m_api.c **** 
 499:D:/Work/DeviceTester/amazon-freertos/lib/third_party/mcu_vendor/renesas/rz_mcu_boards/core_package/generate/sc_drivers/r_octabus/src/lld\r_octabus_lld_rza2m_api.c **** 
 500:D:/Work/DeviceTester/amazon-freertos/lib/third_party/mcu_vendor/renesas/rz_mcu_boards/core_package/generate/sc_drivers/r_octabus/src/lld\r_octabus_lld_rza2m_api.c ****     return DRV_SUCCESS;
 501:D:/Work/DeviceTester/amazon-freertos/lib/third_party/mcu_vendor/renesas/rz_mcu_boards/core_package/generate/sc_drivers/r_octabus/src/lld\r_octabus_lld_rza2m_api.c **** }
 502:D:/Work/DeviceTester/amazon-freertos/lib/third_party/mcu_vendor/renesas/rz_mcu_boards/core_package/generate/sc_drivers/r_octabus/src/lld\r_octabus_lld_rza2m_api.c **** /**************************************************************************************************
 503:D:/Work/DeviceTester/amazon-freertos/lib/third_party/mcu_vendor/renesas/rz_mcu_boards/core_package/generate/sc_drivers/r_octabus/src/lld\r_octabus_lld_rza2m_api.c ****  * End of function octaram_autocalib
 504:D:/Work/DeviceTester/amazon-freertos/lib/third_party/mcu_vendor/renesas/rz_mcu_boards/core_package/generate/sc_drivers/r_octabus/src/lld\r_octabus_lld_rza2m_api.c ****  **************************************************************************************************
 505:D:/Work/DeviceTester/amazon-freertos/lib/third_party/mcu_vendor/renesas/rz_mcu_boards/core_package/generate/sc_drivers/r_octabus/src/lld\r_octabus_lld_rza2m_api.c **** 
 506:D:/Work/DeviceTester/amazon-freertos/lib/third_party/mcu_vendor/renesas/rz_mcu_boards/core_package/generate/sc_drivers/r_octabus/src/lld\r_octabus_lld_rza2m_api.c **** /**************************************************************************************************
 507:D:/Work/DeviceTester/amazon-freertos/lib/third_party/mcu_vendor/renesas/rz_mcu_boards/core_package/generate/sc_drivers/r_octabus/src/lld\r_octabus_lld_rza2m_api.c ****  * Function Name: R_OCTABUS_Setup
 508:D:/Work/DeviceTester/amazon-freertos/lib/third_party/mcu_vendor/renesas/rz_mcu_boards/core_package/generate/sc_drivers/r_octabus/src/lld\r_octabus_lld_rza2m_api.c ****  * Description  : Initialize OctaBus controller and connected device via user
 509:D:/Work/DeviceTester/amazon-freertos/lib/third_party/mcu_vendor/renesas/rz_mcu_boards/core_package/generate/sc_drivers/r_octabus/src/lld\r_octabus_lld_rza2m_api.c ****  *                code
 510:D:/Work/DeviceTester/amazon-freertos/lib/third_party/mcu_vendor/renesas/rz_mcu_boards/core_package/generate/sc_drivers/r_octabus/src/lld\r_octabus_lld_rza2m_api.c ****  * Arguments    : none
 511:D:/Work/DeviceTester/amazon-freertos/lib/third_party/mcu_vendor/renesas/rz_mcu_boards/core_package/generate/sc_drivers/r_octabus/src/lld\r_octabus_lld_rza2m_api.c ****  * Return Value : none
 512:D:/Work/DeviceTester/amazon-freertos/lib/third_party/mcu_vendor/renesas/rz_mcu_boards/core_package/generate/sc_drivers/r_octabus/src/lld\r_octabus_lld_rza2m_api.c ****  * Precautions  : This function cannot be assigned to execute from OctaFlash or OctaRAM.
 513:D:/Work/DeviceTester/amazon-freertos/lib/third_party/mcu_vendor/renesas/rz_mcu_boards/core_package/generate/sc_drivers/r_octabus/src/lld\r_octabus_lld_rza2m_api.c ****  *              : This function must be assigned to an area other than OctaFlash or OctaRAM.
 514:D:/Work/DeviceTester/amazon-freertos/lib/third_party/mcu_vendor/renesas/rz_mcu_boards/core_package/generate/sc_drivers/r_octabus/src/lld\r_octabus_lld_rza2m_api.c ****  **************************************************************************************************
 515:D:/Work/DeviceTester/amazon-freertos/lib/third_party/mcu_vendor/renesas/rz_mcu_boards/core_package/generate/sc_drivers/r_octabus/src/lld\r_octabus_lld_rza2m_api.c **** void R_OCTABUS_Setup(void)
 516:D:/Work/DeviceTester/amazon-freertos/lib/third_party/mcu_vendor/renesas/rz_mcu_boards/core_package/generate/sc_drivers/r_octabus/src/lld\r_octabus_lld_rza2m_api.c **** {
 517:D:/Work/DeviceTester/amazon-freertos/lib/third_party/mcu_vendor/renesas/rz_mcu_boards/core_package/generate/sc_drivers/r_octabus/src/lld\r_octabus_lld_rza2m_api.c ****     int_t ret;
 518:D:/Work/DeviceTester/amazon-freertos/lib/third_party/mcu_vendor/renesas/rz_mcu_boards/core_package/generate/sc_drivers/r_octabus/src/lld\r_octabus_lld_rza2m_api.c **** 
 519:D:/Work/DeviceTester/amazon-freertos/lib/third_party/mcu_vendor/renesas/rz_mcu_boards/core_package/generate/sc_drivers/r_octabus/src/lld\r_octabus_lld_rza2m_api.c ****     /** Octabus clock start */
 520:D:/Work/DeviceTester/amazon-freertos/lib/third_party/mcu_vendor/renesas/rz_mcu_boards/core_package/generate/sc_drivers/r_octabus/src/lld\r_octabus_lld_rza2m_api.c ****     R_STB_StartModule(MODULE_OCTAMEM);
 521:D:/Work/DeviceTester/amazon-freertos/lib/third_party/mcu_vendor/renesas/rz_mcu_boards/core_package/generate/sc_drivers/r_octabus/src/lld\r_octabus_lld_rza2m_api.c **** 
 522:D:/Work/DeviceTester/amazon-freertos/lib/third_party/mcu_vendor/renesas/rz_mcu_boards/core_package/generate/sc_drivers/r_octabus/src/lld\r_octabus_lld_rza2m_api.c ****     /** initialise controller using smart configurator settings */
 523:D:/Work/DeviceTester/amazon-freertos/lib/third_party/mcu_vendor/renesas/rz_mcu_boards/core_package/generate/sc_drivers/r_octabus/src/lld\r_octabus_lld_rza2m_api.c ****     ret = R_OCTABUS_Init(&OCTABUS_SC_TABLE[0]);
 524:D:/Work/DeviceTester/amazon-freertos/lib/third_party/mcu_vendor/renesas/rz_mcu_boards/core_package/generate/sc_drivers/r_octabus/src/lld\r_octabus_lld_rza2m_api.c ****     if (DRV_SUCCESS != ret)
 525:D:/Work/DeviceTester/amazon-freertos/lib/third_party/mcu_vendor/renesas/rz_mcu_boards/core_package/generate/sc_drivers/r_octabus/src/lld\r_octabus_lld_rza2m_api.c ****     {
 526:D:/Work/DeviceTester/amazon-freertos/lib/third_party/mcu_vendor/renesas/rz_mcu_boards/core_package/generate/sc_drivers/r_octabus/src/lld\r_octabus_lld_rza2m_api.c ****         while (1)
 527:D:/Work/DeviceTester/amazon-freertos/lib/third_party/mcu_vendor/renesas/rz_mcu_boards/core_package/generate/sc_drivers/r_octabus/src/lld\r_octabus_lld_rza2m_api.c ****         {
 528:D:/Work/DeviceTester/amazon-freertos/lib/third_party/mcu_vendor/renesas/rz_mcu_boards/core_package/generate/sc_drivers/r_octabus/src/lld\r_octabus_lld_rza2m_api.c ****             /** spin here forever */
 529:D:/Work/DeviceTester/amazon-freertos/lib/third_party/mcu_vendor/renesas/rz_mcu_boards/core_package/generate/sc_drivers/r_octabus/src/lld\r_octabus_lld_rza2m_api.c ****             R_COMPILER_Nop();
 530:D:/Work/DeviceTester/amazon-freertos/lib/third_party/mcu_vendor/renesas/rz_mcu_boards/core_package/generate/sc_drivers/r_octabus/src/lld\r_octabus_lld_rza2m_api.c ****         }
 531:D:/Work/DeviceTester/amazon-freertos/lib/third_party/mcu_vendor/renesas/rz_mcu_boards/core_package/generate/sc_drivers/r_octabus/src/lld\r_octabus_lld_rza2m_api.c ****     }
 532:D:/Work/DeviceTester/amazon-freertos/lib/third_party/mcu_vendor/renesas/rz_mcu_boards/core_package/generate/sc_drivers/r_octabus/src/lld\r_octabus_lld_rza2m_api.c **** 
 533:D:/Work/DeviceTester/amazon-freertos/lib/third_party/mcu_vendor/renesas/rz_mcu_boards/core_package/generate/sc_drivers/r_octabus/src/lld\r_octabus_lld_rza2m_api.c ****     /** checking if user function is avail */
 534:D:/Work/DeviceTester/amazon-freertos/lib/third_party/mcu_vendor/renesas/rz_mcu_boards/core_package/generate/sc_drivers/r_octabus/src/lld\r_octabus_lld_rza2m_api.c ****     if (NULL != OctaBus_UserConfig)
 535:D:/Work/DeviceTester/amazon-freertos/lib/third_party/mcu_vendor/renesas/rz_mcu_boards/core_package/generate/sc_drivers/r_octabus/src/lld\r_octabus_lld_rza2m_api.c ****     {
 536:D:/Work/DeviceTester/amazon-freertos/lib/third_party/mcu_vendor/renesas/rz_mcu_boards/core_package/generate/sc_drivers/r_octabus/src/lld\r_octabus_lld_rza2m_api.c ****         OctaBus_UserConfig(&OCTABUS_SC_TABLE[0]);
 537:D:/Work/DeviceTester/amazon-freertos/lib/third_party/mcu_vendor/renesas/rz_mcu_boards/core_package/generate/sc_drivers/r_octabus/src/lld\r_octabus_lld_rza2m_api.c ****     }
 538:D:/Work/DeviceTester/amazon-freertos/lib/third_party/mcu_vendor/renesas/rz_mcu_boards/core_package/generate/sc_drivers/r_octabus/src/lld\r_octabus_lld_rza2m_api.c **** 
 539:D:/Work/DeviceTester/amazon-freertos/lib/third_party/mcu_vendor/renesas/rz_mcu_boards/core_package/generate/sc_drivers/r_octabus/src/lld\r_octabus_lld_rza2m_api.c ****     /** Manual calibration */
 540:D:/Work/DeviceTester/amazon-freertos/lib/third_party/mcu_vendor/renesas/rz_mcu_boards/core_package/generate/sc_drivers/r_octabus/src/lld\r_octabus_lld_rza2m_api.c ****     ret = R_OCTABUS_ManualCalib(&OCTABUS_SC_TABLE[0]);
 541:D:/Work/DeviceTester/amazon-freertos/lib/third_party/mcu_vendor/renesas/rz_mcu_boards/core_package/generate/sc_drivers/r_octabus/src/lld\r_octabus_lld_rza2m_api.c ****     if (DRV_SUCCESS != ret)
 542:D:/Work/DeviceTester/amazon-freertos/lib/third_party/mcu_vendor/renesas/rz_mcu_boards/core_package/generate/sc_drivers/r_octabus/src/lld\r_octabus_lld_rza2m_api.c ****     {
 543:D:/Work/DeviceTester/amazon-freertos/lib/third_party/mcu_vendor/renesas/rz_mcu_boards/core_package/generate/sc_drivers/r_octabus/src/lld\r_octabus_lld_rza2m_api.c ****         while (1)
 544:D:/Work/DeviceTester/amazon-freertos/lib/third_party/mcu_vendor/renesas/rz_mcu_boards/core_package/generate/sc_drivers/r_octabus/src/lld\r_octabus_lld_rza2m_api.c ****         {
 545:D:/Work/DeviceTester/amazon-freertos/lib/third_party/mcu_vendor/renesas/rz_mcu_boards/core_package/generate/sc_drivers/r_octabus/src/lld\r_octabus_lld_rza2m_api.c ****             /** spin here forever */
 546:D:/Work/DeviceTester/amazon-freertos/lib/third_party/mcu_vendor/renesas/rz_mcu_boards/core_package/generate/sc_drivers/r_octabus/src/lld\r_octabus_lld_rza2m_api.c ****             R_COMPILER_Nop();
 547:D:/Work/DeviceTester/amazon-freertos/lib/third_party/mcu_vendor/renesas/rz_mcu_boards/core_package/generate/sc_drivers/r_octabus/src/lld\r_octabus_lld_rza2m_api.c ****         }
 548:D:/Work/DeviceTester/amazon-freertos/lib/third_party/mcu_vendor/renesas/rz_mcu_boards/core_package/generate/sc_drivers/r_octabus/src/lld\r_octabus_lld_rza2m_api.c ****     }
 549:D:/Work/DeviceTester/amazon-freertos/lib/third_party/mcu_vendor/renesas/rz_mcu_boards/core_package/generate/sc_drivers/r_octabus/src/lld\r_octabus_lld_rza2m_api.c **** 
 550:D:/Work/DeviceTester/amazon-freertos/lib/third_party/mcu_vendor/renesas/rz_mcu_boards/core_package/generate/sc_drivers/r_octabus/src/lld\r_octabus_lld_rza2m_api.c ****     /** Set auto calibration */
 551:D:/Work/DeviceTester/amazon-freertos/lib/third_party/mcu_vendor/renesas/rz_mcu_boards/core_package/generate/sc_drivers/r_octabus/src/lld\r_octabus_lld_rza2m_api.c ****     R_OCTABUS_AutoCalib(&OCTABUS_SC_TABLE[0]);
 552:D:/Work/DeviceTester/amazon-freertos/lib/third_party/mcu_vendor/renesas/rz_mcu_boards/core_package/generate/sc_drivers/r_octabus/src/lld\r_octabus_lld_rza2m_api.c **** 
 553:D:/Work/DeviceTester/amazon-freertos/lib/third_party/mcu_vendor/renesas/rz_mcu_boards/core_package/generate/sc_drivers/r_octabus/src/lld\r_octabus_lld_rza2m_api.c **** }
 554:D:/Work/DeviceTester/amazon-freertos/lib/third_party/mcu_vendor/renesas/rz_mcu_boards/core_package/generate/sc_drivers/r_octabus/src/lld\r_octabus_lld_rza2m_api.c **** /**************************************************************************************************
 555:D:/Work/DeviceTester/amazon-freertos/lib/third_party/mcu_vendor/renesas/rz_mcu_boards/core_package/generate/sc_drivers/r_octabus/src/lld\r_octabus_lld_rza2m_api.c ****  * End of function R_OCTABUS_Setup
 556:D:/Work/DeviceTester/amazon-freertos/lib/third_party/mcu_vendor/renesas/rz_mcu_boards/core_package/generate/sc_drivers/r_octabus/src/lld\r_octabus_lld_rza2m_api.c ****  **************************************************************************************************
 557:D:/Work/DeviceTester/amazon-freertos/lib/third_party/mcu_vendor/renesas/rz_mcu_boards/core_package/generate/sc_drivers/r_octabus/src/lld\r_octabus_lld_rza2m_api.c **** 
 558:D:/Work/DeviceTester/amazon-freertos/lib/third_party/mcu_vendor/renesas/rz_mcu_boards/core_package/generate/sc_drivers/r_octabus/src/lld\r_octabus_lld_rza2m_api.c **** /**************************************************************************************************
 559:D:/Work/DeviceTester/amazon-freertos/lib/third_party/mcu_vendor/renesas/rz_mcu_boards/core_package/generate/sc_drivers/r_octabus/src/lld\r_octabus_lld_rza2m_api.c ****  * Function Name: R_OCTABUS_Init
 560:D:/Work/DeviceTester/amazon-freertos/lib/third_party/mcu_vendor/renesas/rz_mcu_boards/core_package/generate/sc_drivers/r_octabus/src/lld\r_octabus_lld_rza2m_api.c ****  * Description  : Initialize OctaBus controller of RZ/A2M
 561:D:/Work/DeviceTester/amazon-freertos/lib/third_party/mcu_vendor/renesas/rz_mcu_boards/core_package/generate/sc_drivers/r_octabus/src/lld\r_octabus_lld_rza2m_api.c ****  * Arguments    : p_cfg       : Pointer to the configuration table
 562:D:/Work/DeviceTester/amazon-freertos/lib/third_party/mcu_vendor/renesas/rz_mcu_boards/core_package/generate/sc_drivers/r_octabus/src/lld\r_octabus_lld_rza2m_api.c ****  * Return Value : DRV_SUCCESS  Successful operation (always)
 563:D:/Work/DeviceTester/amazon-freertos/lib/third_party/mcu_vendor/renesas/rz_mcu_boards/core_package/generate/sc_drivers/r_octabus/src/lld\r_octabus_lld_rza2m_api.c ****  * Precautions  : This function cannot be assigned to execute from OctaFlash or OctaRAM.
 564:D:/Work/DeviceTester/amazon-freertos/lib/third_party/mcu_vendor/renesas/rz_mcu_boards/core_package/generate/sc_drivers/r_octabus/src/lld\r_octabus_lld_rza2m_api.c ****  *              : This function must be assigned to an area other than OctaFlash or OctaRAM.
 565:D:/Work/DeviceTester/amazon-freertos/lib/third_party/mcu_vendor/renesas/rz_mcu_boards/core_package/generate/sc_drivers/r_octabus/src/lld\r_octabus_lld_rza2m_api.c ****  **************************************************************************************************
 566:D:/Work/DeviceTester/amazon-freertos/lib/third_party/mcu_vendor/renesas/rz_mcu_boards/core_package/generate/sc_drivers/r_octabus/src/lld\r_octabus_lld_rza2m_api.c **** int_t R_OCTABUS_Init(const st_octabus_cfg_t *p_cfg)
 567:D:/Work/DeviceTester/amazon-freertos/lib/third_party/mcu_vendor/renesas/rz_mcu_boards/core_package/generate/sc_drivers/r_octabus/src/lld\r_octabus_lld_rza2m_api.c **** {
 271              		.loc 1 567 0
 272              		.cfi_startproc
 273              		@ args = 0, pretend = 0, frame = 0
 274              		@ frame_needed = 0, uses_anonymous_args = 0
 275              		@ link register save eliminated.
 276              	.LVL34:
 568:D:/Work/DeviceTester/amazon-freertos/lib/third_party/mcu_vendor/renesas/rz_mcu_boards/core_package/generate/sc_drivers/r_octabus/src/lld\r_octabus_lld_rza2m_api.c ****     int_t ret;
 569:D:/Work/DeviceTester/amazon-freertos/lib/third_party/mcu_vendor/renesas/rz_mcu_boards/core_package/generate/sc_drivers/r_octabus/src/lld\r_octabus_lld_rza2m_api.c **** 
 570:D:/Work/DeviceTester/amazon-freertos/lib/third_party/mcu_vendor/renesas/rz_mcu_boards/core_package/generate/sc_drivers/r_octabus/src/lld\r_octabus_lld_rza2m_api.c ****     ret = octaram_init(p_cfg);
 277              		.loc 1 570 0
 278 0000 FEFFFFEA 		b	octaram_init
 279              	.LVL35:
 280              		.cfi_endproc
 281              	.LFE11:
 283              		.section	.text.R_OCTABUS_ManualCalib,"ax",%progbits
 284              		.align	2
 285              		.global	R_OCTABUS_ManualCalib
 286              		.syntax unified
 287              		.arm
 288              		.fpu neon
 290              	R_OCTABUS_ManualCalib:
 291              	.LFB12:
 571:D:/Work/DeviceTester/amazon-freertos/lib/third_party/mcu_vendor/renesas/rz_mcu_boards/core_package/generate/sc_drivers/r_octabus/src/lld\r_octabus_lld_rza2m_api.c **** 
 572:D:/Work/DeviceTester/amazon-freertos/lib/third_party/mcu_vendor/renesas/rz_mcu_boards/core_package/generate/sc_drivers/r_octabus/src/lld\r_octabus_lld_rza2m_api.c ****     return ret;
 573:D:/Work/DeviceTester/amazon-freertos/lib/third_party/mcu_vendor/renesas/rz_mcu_boards/core_package/generate/sc_drivers/r_octabus/src/lld\r_octabus_lld_rza2m_api.c **** }
 574:D:/Work/DeviceTester/amazon-freertos/lib/third_party/mcu_vendor/renesas/rz_mcu_boards/core_package/generate/sc_drivers/r_octabus/src/lld\r_octabus_lld_rza2m_api.c **** /**************************************************************************************************
 575:D:/Work/DeviceTester/amazon-freertos/lib/third_party/mcu_vendor/renesas/rz_mcu_boards/core_package/generate/sc_drivers/r_octabus/src/lld\r_octabus_lld_rza2m_api.c ****  * End of function R_OCTABUS_Init
 576:D:/Work/DeviceTester/amazon-freertos/lib/third_party/mcu_vendor/renesas/rz_mcu_boards/core_package/generate/sc_drivers/r_octabus/src/lld\r_octabus_lld_rza2m_api.c ****  **************************************************************************************************
 577:D:/Work/DeviceTester/amazon-freertos/lib/third_party/mcu_vendor/renesas/rz_mcu_boards/core_package/generate/sc_drivers/r_octabus/src/lld\r_octabus_lld_rza2m_api.c **** 
 578:D:/Work/DeviceTester/amazon-freertos/lib/third_party/mcu_vendor/renesas/rz_mcu_boards/core_package/generate/sc_drivers/r_octabus/src/lld\r_octabus_lld_rza2m_api.c **** /**************************************************************************************************
 579:D:/Work/DeviceTester/amazon-freertos/lib/third_party/mcu_vendor/renesas/rz_mcu_boards/core_package/generate/sc_drivers/r_octabus/src/lld\r_octabus_lld_rza2m_api.c ****  * Function Name: R_OCTABUS_ManualCalib
 580:D:/Work/DeviceTester/amazon-freertos/lib/third_party/mcu_vendor/renesas/rz_mcu_boards/core_package/generate/sc_drivers/r_octabus/src/lld\r_octabus_lld_rza2m_api.c ****  * Description  : Manual calibration OctaBus controller of RZ/A2M
 581:D:/Work/DeviceTester/amazon-freertos/lib/third_party/mcu_vendor/renesas/rz_mcu_boards/core_package/generate/sc_drivers/r_octabus/src/lld\r_octabus_lld_rza2m_api.c ****  * Arguments    : p_cfg       : Pointer to the configuration table
 582:D:/Work/DeviceTester/amazon-freertos/lib/third_party/mcu_vendor/renesas/rz_mcu_boards/core_package/generate/sc_drivers/r_octabus/src/lld\r_octabus_lld_rza2m_api.c ****  * Return Value : DRV_SUCCESS  Successful operation
 583:D:/Work/DeviceTester/amazon-freertos/lib/third_party/mcu_vendor/renesas/rz_mcu_boards/core_package/generate/sc_drivers/r_octabus/src/lld\r_octabus_lld_rza2m_api.c ****  *              : DRV_ERROR    Unsuccessful operation
 584:D:/Work/DeviceTester/amazon-freertos/lib/third_party/mcu_vendor/renesas/rz_mcu_boards/core_package/generate/sc_drivers/r_octabus/src/lld\r_octabus_lld_rza2m_api.c ****  * Precautions  : This function cannot be assigned to execute from OctaFlash or OctaRAM.
 585:D:/Work/DeviceTester/amazon-freertos/lib/third_party/mcu_vendor/renesas/rz_mcu_boards/core_package/generate/sc_drivers/r_octabus/src/lld\r_octabus_lld_rza2m_api.c ****  *              : This function must be assigned to an area other than OctaFlash or OctaRAM.
 586:D:/Work/DeviceTester/amazon-freertos/lib/third_party/mcu_vendor/renesas/rz_mcu_boards/core_package/generate/sc_drivers/r_octabus/src/lld\r_octabus_lld_rza2m_api.c ****  **************************************************************************************************
 587:D:/Work/DeviceTester/amazon-freertos/lib/third_party/mcu_vendor/renesas/rz_mcu_boards/core_package/generate/sc_drivers/r_octabus/src/lld\r_octabus_lld_rza2m_api.c **** int_t R_OCTABUS_ManualCalib(const st_octabus_cfg_t *p_cfg)
 588:D:/Work/DeviceTester/amazon-freertos/lib/third_party/mcu_vendor/renesas/rz_mcu_boards/core_package/generate/sc_drivers/r_octabus/src/lld\r_octabus_lld_rza2m_api.c **** {
 292              		.loc 1 588 0
 293              		.cfi_startproc
 294              		@ args = 0, pretend = 0, frame = 0
 295              		@ frame_needed = 0, uses_anonymous_args = 0
 296              	.LVL36:
 297              	.LBB130:
 298              	.LBB131:
 378:D:/Work/DeviceTester/amazon-freertos/lib/third_party/mcu_vendor/renesas/rz_mcu_boards/core_package/generate/sc_drivers/r_octabus/src/lld\r_octabus_lld_rza2m_api.c ****     p_preamble[0] = s_preamble_data[0];
 299              		.loc 1 378 0
 300 0000 242090E5 		ldr	r2, [r0, #36]
 379:D:/Work/DeviceTester/amazon-freertos/lib/third_party/mcu_vendor/renesas/rz_mcu_boards/core_package/generate/sc_drivers/r_octabus/src/lld\r_octabus_lld_rza2m_api.c ****     p_preamble[1] = s_preamble_data[1];
 301              		.loc 1 379 0
 302 0004 08319FE5 		ldr	r3, .L25
 303              	.LBE131:
 304              	.LBE130:
 305              		.loc 1 588 0
 306 0008 F0412DE9 		push	{r4, r5, r6, r7, r8, lr}
 307              		.cfi_def_cfa_offset 24
 308              		.cfi_offset 4, -24
 309              		.cfi_offset 5, -20
 310              		.cfi_offset 6, -16
 311              		.cfi_offset 7, -12
 312              		.cfi_offset 8, -8
 313              		.cfi_offset 14, -4
 314              	.LBB158:
 315              	.LBB156:
 414:D:/Work/DeviceTester/amazon-freertos/lib/third_party/mcu_vendor/renesas/rz_mcu_boards/core_package/generate/sc_drivers/r_octabus/src/lld\r_octabus_lld_rza2m_api.c ****         }
 316              		.loc 1 414 0
 317 000c 0160A0E3 		mov	r6, #1
 378:D:/Work/DeviceTester/amazon-freertos/lib/third_party/mcu_vendor/renesas/rz_mcu_boards/core_package/generate/sc_drivers/r_octabus/src/lld\r_octabus_lld_rza2m_api.c ****     p_preamble[0] = s_preamble_data[0];
 318              		.loc 1 378 0
 319 0010 062282E2 		add	r2, r2, #1610612736
 320              	.LVL37:
 321              	.LBB132:
 322              	.LBB133:
 143:D:/Work/DeviceTester/amazon-freertos/lib/third_party/mcu_vendor/renesas/rz_mcu_boards/core_package/generate/sc_drivers/r_octabus/src/lld\r_octabus_lld_rza2m_api.c ****     if (IOREG_NONMASK_ACCESS != mask)
 323              		.loc 1 143 0
 324 0014 FCE09FE5 		ldr	lr, .L25+4
 325              	.LBE133:
 326              	.LBE132:
 379:D:/Work/DeviceTester/amazon-freertos/lib/third_party/mcu_vendor/renesas/rz_mcu_boards/core_package/generate/sc_drivers/r_octabus/src/lld\r_octabus_lld_rza2m_api.c ****     p_preamble[1] = s_preamble_data[1];
 327              		.loc 1 379 0
 328 0018 003082E5 		str	r3, [r2]
 380:D:/Work/DeviceTester/amazon-freertos/lib/third_party/mcu_vendor/renesas/rz_mcu_boards/core_package/generate/sc_drivers/r_octabus/src/lld\r_octabus_lld_rza2m_api.c ****     p_preamble[2] = s_preamble_data[2];
 329              		.loc 1 380 0
 330 001c F8309FE5 		ldr	r3, .L25+8
 404:D:/Work/DeviceTester/amazon-freertos/lib/third_party/mcu_vendor/renesas/rz_mcu_boards/core_package/generate/sc_drivers/r_octabus/src/lld\r_octabus_lld_rza2m_api.c ****             {
 331              		.loc 1 404 0
 332 0020 F8509FE5 		ldr	r5, .L25+12
 418:D:/Work/DeviceTester/amazon-freertos/lib/third_party/mcu_vendor/renesas/rz_mcu_boards/core_package/generate/sc_drivers/r_octabus/src/lld\r_octabus_lld_rza2m_api.c ****         }
 333              		.loc 1 418 0
 334 0024 F8C09FE5 		ldr	ip, .L25+16
 380:D:/Work/DeviceTester/amazon-freertos/lib/third_party/mcu_vendor/renesas/rz_mcu_boards/core_package/generate/sc_drivers/r_octabus/src/lld\r_octabus_lld_rza2m_api.c ****     p_preamble[2] = s_preamble_data[2];
 335              		.loc 1 380 0
 336 0028 043082E5 		str	r3, [r2, #4]
 381:D:/Work/DeviceTester/amazon-freertos/lib/third_party/mcu_vendor/renesas/rz_mcu_boards/core_package/generate/sc_drivers/r_octabus/src/lld\r_octabus_lld_rza2m_api.c ****     p_preamble[3] = s_preamble_data[3];
 337              		.loc 1 381 0
 338 002c F4309FE5 		ldr	r3, .L25+20
 339 0030 083082E5 		str	r3, [r2, #8]
 382:D:/Work/DeviceTester/amazon-freertos/lib/third_party/mcu_vendor/renesas/rz_mcu_boards/core_package/generate/sc_drivers/r_octabus/src/lld\r_octabus_lld_rza2m_api.c **** 
 340              		.loc 1 382 0
 341 0034 7D3783E2 		add	r3, r3, #32768000
 342 0038 C23B83E2 		add	r3, r3, #198656
 343 003c 0C3082E5 		str	r3, [r2, #12]
 344              	.LVL38:
 385:D:/Work/DeviceTester/amazon-freertos/lib/third_party/mcu_vendor/renesas/rz_mcu_boards/core_package/generate/sc_drivers/r_octabus/src/lld\r_octabus_lld_rza2m_api.c ****     {
 345              		.loc 1 385 0
 346 0040 0030A0E3 		mov	r3, #0
 418:D:/Work/DeviceTester/amazon-freertos/lib/third_party/mcu_vendor/renesas/rz_mcu_boards/core_package/generate/sc_drivers/r_octabus/src/lld\r_octabus_lld_rza2m_api.c ****         }
 347              		.loc 1 418 0
 348 0044 0340A0E1 		mov	r4, r3
 349              	.LVL39:
 350              	.L9:
 351              	.LBB135:
 352              	.LBB134:
 143:D:/Work/DeviceTester/amazon-freertos/lib/third_party/mcu_vendor/renesas/rz_mcu_boards/core_package/generate/sc_drivers/r_octabus/src/lld\r_octabus_lld_rza2m_api.c ****     if (IOREG_NONMASK_ACCESS != mask)
 353              		.loc 1 143 0
 354 0048 14109EE5 		ldr	r1, [lr, #20]
 355              	.LVL40:
 356              	.LBE134:
 357              	.LBE135:
 358              	.LBB136:
 359              	.LBB137:
 119:D:/Work/DeviceTester/amazon-freertos/lib/third_party/mcu_vendor/renesas/rz_mcu_boards/core_package/generate/sc_drivers/r_octabus/src/lld\r_octabus_lld_rza2m_api.c **** }
 360              		.loc 1 119 0
 361 004c 0200A0E1 		mov	r0, r2
 362              	.LBE137:
 363              	.LBE136:
 391:D:/Work/DeviceTester/amazon-freertos/lib/third_party/mcu_vendor/renesas/rz_mcu_boards/core_package/generate/sc_drivers/r_octabus/src/lld\r_octabus_lld_rza2m_api.c **** 
 364              		.loc 1 391 0
 365 0050 FF18C1E3 		bic	r1, r1, #16711680
 366              	.LVL41:
 394:D:/Work/DeviceTester/amazon-freertos/lib/third_party/mcu_vendor/renesas/rz_mcu_boards/core_package/generate/sc_drivers/r_octabus/src/lld\r_octabus_lld_rza2m_api.c **** 
 367              		.loc 1 394 0
 368 0054 031A81E1 		orr	r1, r1, r3, lsl #20
 369              	.LVL42:
 370              	.LBB139:
 371              	.LBB138:
 119:D:/Work/DeviceTester/amazon-freertos/lib/third_party/mcu_vendor/renesas/rz_mcu_boards/core_package/generate/sc_drivers/r_octabus/src/lld\r_octabus_lld_rza2m_api.c **** }
 372              		.loc 1 119 0
 373 0058 14108EE5 		str	r1, [lr, #20]
 374              	.LVL43:
 375              	.LBE138:
 376              	.LBE139:
 402:D:/Work/DeviceTester/amazon-freertos/lib/third_party/mcu_vendor/renesas/rz_mcu_boards/core_package/generate/sc_drivers/r_octabus/src/lld\r_octabus_lld_rza2m_api.c ****         {
 377              		.loc 1 402 0
 378 005c 0010A0E3 		mov	r1, #0
 379              	.LVL44:
 380              	.L7:
 404:D:/Work/DeviceTester/amazon-freertos/lib/third_party/mcu_vendor/renesas/rz_mcu_boards/core_package/generate/sc_drivers/r_octabus/src/lld\r_octabus_lld_rza2m_api.c ****             {
 381              		.loc 1 404 0
 382 0060 007090E5 		ldr	r7, [r0]
 383 0064 018195E7 		ldr	r8, [r5, r1, lsl #2]
 384 0068 070058E1 		cmp	r8, r7
 385 006c 2600001A 		bne	.L6
 402:D:/Work/DeviceTester/amazon-freertos/lib/third_party/mcu_vendor/renesas/rz_mcu_boards/core_package/generate/sc_drivers/r_octabus/src/lld\r_octabus_lld_rza2m_api.c ****         {
 386              		.loc 1 402 0
 387 0070 011081E2 		add	r1, r1, #1
 388              	.LVL45:
 389 0074 040080E2 		add	r0, r0, #4
 390 0078 040051E3 		cmp	r1, #4
 391 007c F7FFFF1A 		bne	.L7
 414:D:/Work/DeviceTester/amazon-freertos/lib/third_party/mcu_vendor/renesas/rz_mcu_boards/core_package/generate/sc_drivers/r_octabus/src/lld\r_octabus_lld_rza2m_api.c ****         }
 392              		.loc 1 414 0
 393 0080 0360CCE7 		strb	r6, [ip, r3]
 394              	.LVL46:
 395              	.L17:
 385:D:/Work/DeviceTester/amazon-freertos/lib/third_party/mcu_vendor/renesas/rz_mcu_boards/core_package/generate/sc_drivers/r_octabus/src/lld\r_octabus_lld_rza2m_api.c ****     {
 396              		.loc 1 385 0
 397 0084 013083E2 		add	r3, r3, #1
 398              	.LVL47:
 399 0088 100053E3 		cmp	r3, #16
 400 008c EDFFFF1A 		bne	.L9
 401              	.LBB140:
 402              	.LBB141:
 312:D:/Work/DeviceTester/amazon-freertos/lib/third_party/mcu_vendor/renesas/rz_mcu_boards/core_package/generate/sc_drivers/r_octabus/src/lld\r_octabus_lld_rza2m_api.c ****         {
 403              		.loc 1 312 0
 404 0090 8C209FE5 		ldr	r2, .L25+16
 405              	.LVL48:
 406              	.LBE141:
 407              	.LBE140:
 385:D:/Work/DeviceTester/amazon-freertos/lib/third_party/mcu_vendor/renesas/rz_mcu_boards/core_package/generate/sc_drivers/r_octabus/src/lld\r_octabus_lld_rza2m_api.c ****     {
 408              		.loc 1 385 0
 409 0094 0030A0E3 		mov	r3, #0
 410              	.LVL49:
 411 0098 0210A0E1 		mov	r1, r2
 412              	.LVL50:
 413              	.L12:
 414              	.LBB144:
 415              	.LBB142:
 312:D:/Work/DeviceTester/amazon-freertos/lib/third_party/mcu_vendor/renesas/rz_mcu_boards/core_package/generate/sc_drivers/r_octabus/src/lld\r_octabus_lld_rza2m_api.c ****         {
 416              		.loc 1 312 0
 417 009c 0200D3E7 		ldrb	r0, [r3, r2]	@ zero_extendqisi2
 418 00a0 010050E3 		cmp	r0, #1
 419 00a4 0F00001A 		bne	.L10
 420 00a8 100063E2 		rsb	r0, r3, #16
 421              	.LVL51:
 422 00ac 0020A0E3 		mov	r2, #0
 423              	.LBE142:
 424              	.LBE144:
 425              	.LBB145:
 426              	.LBB146:
 342:D:/Work/DeviceTester/amazon-freertos/lib/third_party/mcu_vendor/renesas/rz_mcu_boards/core_package/generate/sc_drivers/r_octabus/src/lld\r_octabus_lld_rza2m_api.c ****         {
 427              		.loc 1 342 0
 428 00b0 031081E0 		add	r1, r1, r3
 429              	.LVL52:
 430              	.L11:
 431 00b4 02C0D1E7 		ldrb	ip, [r1, r2]	@ zero_extendqisi2
 432 00b8 01005CE3 		cmp	ip, #1
 433 00bc 0E00000A 		beq	.L14
 434              	.L16:
 435              	.LVL53:
 436              	.LBE146:
 437              	.LBE145:
 432:D:/Work/DeviceTester/amazon-freertos/lib/third_party/mcu_vendor/renesas/rz_mcu_boards/core_package/generate/sc_drivers/r_octabus/src/lld\r_octabus_lld_rza2m_api.c ****     {
 438              		.loc 1 432 0
 439 00c0 030052E3 		cmp	r2, #3
 440 00c4 0A0000DA 		ble	.L24
 441              	.LVL54:
 442              	.LBB148:
 443              	.LBB149:
 143:D:/Work/DeviceTester/amazon-freertos/lib/third_party/mcu_vendor/renesas/rz_mcu_boards/core_package/generate/sc_drivers/r_octabus/src/lld\r_octabus_lld_rza2m_api.c ****     if (IOREG_NONMASK_ACCESS != mask)
 444              		.loc 1 143 0
 445 00c8 48009FE5 		ldr	r0, .L25+4
 446              	.LBE149:
 447              	.LBE148:
 440:D:/Work/DeviceTester/amazon-freertos/lib/third_party/mcu_vendor/renesas/rz_mcu_boards/core_package/generate/sc_drivers/r_octabus/src/lld\r_octabus_lld_rza2m_api.c **** 
 448              		.loc 1 440 0
 449 00cc C23083E0 		add	r3, r3, r2, asr #1
 450              	.LVL55:
 451              	.LBB151:
 452              	.LBB150:
 143:D:/Work/DeviceTester/amazon-freertos/lib/third_party/mcu_vendor/renesas/rz_mcu_boards/core_package/generate/sc_drivers/r_octabus/src/lld\r_octabus_lld_rza2m_api.c ****     if (IOREG_NONMASK_ACCESS != mask)
 453              		.loc 1 143 0
 454 00d0 141090E5 		ldr	r1, [r0, #20]
 455              	.LVL56:
 456              	.LBE150:
 457              	.LBE151:
 438:D:/Work/DeviceTester/amazon-freertos/lib/third_party/mcu_vendor/renesas/rz_mcu_boards/core_package/generate/sc_drivers/r_octabus/src/lld\r_octabus_lld_rza2m_api.c **** 
 458              		.loc 1 438 0
 459 00d4 FF18C1E3 		bic	r1, r1, #16711680
 460              	.LVL57:
 440:D:/Work/DeviceTester/amazon-freertos/lib/third_party/mcu_vendor/renesas/rz_mcu_boards/core_package/generate/sc_drivers/r_octabus/src/lld\r_octabus_lld_rza2m_api.c **** 
 461              		.loc 1 440 0
 462 00d8 033A81E1 		orr	r3, r1, r3, lsl #20
 463              	.LVL58:
 464              	.LBB152:
 465              	.LBB153:
 119:D:/Work/DeviceTester/amazon-freertos/lib/third_party/mcu_vendor/renesas/rz_mcu_boards/core_package/generate/sc_drivers/r_octabus/src/lld\r_octabus_lld_rza2m_api.c **** }
 466              		.loc 1 119 0
 467 00dc 143080E5 		str	r3, [r0, #20]
 468              	.LVL59:
 469              	.LBE153:
 470              	.LBE152:
 445:D:/Work/DeviceTester/amazon-freertos/lib/third_party/mcu_vendor/renesas/rz_mcu_boards/core_package/generate/sc_drivers/r_octabus/src/lld\r_octabus_lld_rza2m_api.c ****     }
 471              		.loc 1 445 0
 472 00e0 0000A0E3 		mov	r0, #0
 473              	.LVL60:
 474              	.LBE156:
 475              	.LBE158:
 589:D:/Work/DeviceTester/amazon-freertos/lib/third_party/mcu_vendor/renesas/rz_mcu_boards/core_package/generate/sc_drivers/r_octabus/src/lld\r_octabus_lld_rza2m_api.c ****     int_t ret;
 590:D:/Work/DeviceTester/amazon-freertos/lib/third_party/mcu_vendor/renesas/rz_mcu_boards/core_package/generate/sc_drivers/r_octabus/src/lld\r_octabus_lld_rza2m_api.c **** 
 591:D:/Work/DeviceTester/amazon-freertos/lib/third_party/mcu_vendor/renesas/rz_mcu_boards/core_package/generate/sc_drivers/r_octabus/src/lld\r_octabus_lld_rza2m_api.c ****     ret = octaram_manualcalib(p_cfg);
 592:D:/Work/DeviceTester/amazon-freertos/lib/third_party/mcu_vendor/renesas/rz_mcu_boards/core_package/generate/sc_drivers/r_octabus/src/lld\r_octabus_lld_rza2m_api.c **** 
 593:D:/Work/DeviceTester/amazon-freertos/lib/third_party/mcu_vendor/renesas/rz_mcu_boards/core_package/generate/sc_drivers/r_octabus/src/lld\r_octabus_lld_rza2m_api.c ****     return ret;
 476              		.loc 1 593 0
 477 00e4 F081BDE8 		pop	{r4, r5, r6, r7, r8, pc}
 478              	.LVL61:
 479              	.L10:
 480              	.LBB159:
 481              	.LBB157:
 482              	.LBB154:
 483              	.LBB143:
 310:D:/Work/DeviceTester/amazon-freertos/lib/third_party/mcu_vendor/renesas/rz_mcu_boards/core_package/generate/sc_drivers/r_octabus/src/lld\r_octabus_lld_rza2m_api.c ****     {
 484              		.loc 1 310 0
 485 00e8 013083E2 		add	r3, r3, #1
 486              	.LVL62:
 487 00ec 100053E3 		cmp	r3, #16
 488 00f0 E9FFFF1A 		bne	.L12
 489              	.LVL63:
 490              	.L24:
 491              	.LBE143:
 492              	.LBE154:
 426:D:/Work/DeviceTester/amazon-freertos/lib/third_party/mcu_vendor/renesas/rz_mcu_boards/core_package/generate/sc_drivers/r_octabus/src/lld\r_octabus_lld_rza2m_api.c ****     }
 493              		.loc 1 426 0
 494 00f4 0000E0E3 		mvn	r0, #0
 495 00f8 F081BDE8 		pop	{r4, r5, r6, r7, r8, pc}
 496              	.LVL64:
 497              	.L14:
 498              	.LBB155:
 499              	.LBB147:
 344:D:/Work/DeviceTester/amazon-freertos/lib/third_party/mcu_vendor/renesas/rz_mcu_boards/core_package/generate/sc_drivers/r_octabus/src/lld\r_octabus_lld_rza2m_api.c ****         }
 500              		.loc 1 344 0
 501 00fc 012082E2 		add	r2, r2, #1
 502              	.LVL65:
 340:D:/Work/DeviceTester/amazon-freertos/lib/third_party/mcu_vendor/renesas/rz_mcu_boards/core_package/generate/sc_drivers/r_octabus/src/lld\r_octabus_lld_rza2m_api.c ****     {
 503              		.loc 1 340 0
 504 0100 000052E1 		cmp	r2, r0
 505 0104 EAFFFF1A 		bne	.L11
 506 0108 ECFFFFEA 		b	.L16
 507              	.LVL66:
 508              	.L6:
 509              	.LBE147:
 510              	.LBE155:
 418:D:/Work/DeviceTester/amazon-freertos/lib/third_party/mcu_vendor/renesas/rz_mcu_boards/core_package/generate/sc_drivers/r_octabus/src/lld\r_octabus_lld_rza2m_api.c ****         }
 511              		.loc 1 418 0
 512 010c 0340CCE7 		strb	r4, [ip, r3]
 513              	.LVL67:
 514 0110 DBFFFFEA 		b	.L17
 515              	.L26:
 516              		.align	2
 517              	.L25:
 518 0114 0000FFFF 		.word	-65536
 519 0118 0010401F 		.word	524292096
 520 011c 00FF0008 		.word	134283008
 521 0120 00000000 		.word	.LANCHOR0
 522 0124 00000000 		.word	.LANCHOR1
 523 0128 F70000FF 		.word	-16776969
 524              	.LBE157:
 525              	.LBE159:
 526              		.cfi_endproc
 527              	.LFE12:
 529              		.section	.text.R_OCTABUS_AutoCalib,"ax",%progbits
 530              		.align	2
 531              		.global	R_OCTABUS_AutoCalib
 532              		.syntax unified
 533              		.arm
 534              		.fpu neon
 536              	R_OCTABUS_AutoCalib:
 537              	.LFB13:
 594:D:/Work/DeviceTester/amazon-freertos/lib/third_party/mcu_vendor/renesas/rz_mcu_boards/core_package/generate/sc_drivers/r_octabus/src/lld\r_octabus_lld_rza2m_api.c **** }
 595:D:/Work/DeviceTester/amazon-freertos/lib/third_party/mcu_vendor/renesas/rz_mcu_boards/core_package/generate/sc_drivers/r_octabus/src/lld\r_octabus_lld_rza2m_api.c **** /**************************************************************************************************
 596:D:/Work/DeviceTester/amazon-freertos/lib/third_party/mcu_vendor/renesas/rz_mcu_boards/core_package/generate/sc_drivers/r_octabus/src/lld\r_octabus_lld_rza2m_api.c ****  * End of function R_OCTABUS_ManualCalib
 597:D:/Work/DeviceTester/amazon-freertos/lib/third_party/mcu_vendor/renesas/rz_mcu_boards/core_package/generate/sc_drivers/r_octabus/src/lld\r_octabus_lld_rza2m_api.c ****  **************************************************************************************************
 598:D:/Work/DeviceTester/amazon-freertos/lib/third_party/mcu_vendor/renesas/rz_mcu_boards/core_package/generate/sc_drivers/r_octabus/src/lld\r_octabus_lld_rza2m_api.c **** 
 599:D:/Work/DeviceTester/amazon-freertos/lib/third_party/mcu_vendor/renesas/rz_mcu_boards/core_package/generate/sc_drivers/r_octabus/src/lld\r_octabus_lld_rza2m_api.c **** /**************************************************************************************************
 600:D:/Work/DeviceTester/amazon-freertos/lib/third_party/mcu_vendor/renesas/rz_mcu_boards/core_package/generate/sc_drivers/r_octabus/src/lld\r_octabus_lld_rza2m_api.c ****  * Function Name: R_OCTABUS_AutoCalib
 601:D:/Work/DeviceTester/amazon-freertos/lib/third_party/mcu_vendor/renesas/rz_mcu_boards/core_package/generate/sc_drivers/r_octabus/src/lld\r_octabus_lld_rza2m_api.c ****  * Description  : Auto calibration OctaBus controller of RZ/A2M
 602:D:/Work/DeviceTester/amazon-freertos/lib/third_party/mcu_vendor/renesas/rz_mcu_boards/core_package/generate/sc_drivers/r_octabus/src/lld\r_octabus_lld_rza2m_api.c ****  * Arguments    : p_cfg       : Pointer to the configuration table
 603:D:/Work/DeviceTester/amazon-freertos/lib/third_party/mcu_vendor/renesas/rz_mcu_boards/core_package/generate/sc_drivers/r_octabus/src/lld\r_octabus_lld_rza2m_api.c ****  * Return Value : DRV_SUCCESS  Successful operation (always)
 604:D:/Work/DeviceTester/amazon-freertos/lib/third_party/mcu_vendor/renesas/rz_mcu_boards/core_package/generate/sc_drivers/r_octabus/src/lld\r_octabus_lld_rza2m_api.c ****  * Precautions  : This function cannot be assigned to execute from OctaFlash or OctaRAM.
 605:D:/Work/DeviceTester/amazon-freertos/lib/third_party/mcu_vendor/renesas/rz_mcu_boards/core_package/generate/sc_drivers/r_octabus/src/lld\r_octabus_lld_rza2m_api.c ****  *              : This function must be assigned to an area other than OctaFlash or OctaRAM.
 606:D:/Work/DeviceTester/amazon-freertos/lib/third_party/mcu_vendor/renesas/rz_mcu_boards/core_package/generate/sc_drivers/r_octabus/src/lld\r_octabus_lld_rza2m_api.c ****  **************************************************************************************************
 607:D:/Work/DeviceTester/amazon-freertos/lib/third_party/mcu_vendor/renesas/rz_mcu_boards/core_package/generate/sc_drivers/r_octabus/src/lld\r_octabus_lld_rza2m_api.c **** int_t R_OCTABUS_AutoCalib(const st_octabus_cfg_t *p_cfg)
 608:D:/Work/DeviceTester/amazon-freertos/lib/third_party/mcu_vendor/renesas/rz_mcu_boards/core_package/generate/sc_drivers/r_octabus/src/lld\r_octabus_lld_rza2m_api.c **** {
 538              		.loc 1 608 0
 539              		.cfi_startproc
 540              		@ args = 0, pretend = 0, frame = 0
 541              		@ frame_needed = 0, uses_anonymous_args = 0
 542              		@ link register save eliminated.
 543              	.LVL68:
 544              	.LBB170:
 545              	.LBB171:
 472:D:/Work/DeviceTester/amazon-freertos/lib/third_party/mcu_vendor/renesas/rz_mcu_boards/core_package/generate/sc_drivers/r_octabus/src/lld\r_octabus_lld_rza2m_api.c ****     {
 546              		.loc 1 472 0
 547 0000 1B20D0E5 		ldrb	r2, [r0, #27]	@ zero_extendqisi2
 471:D:/Work/DeviceTester/amazon-freertos/lib/third_party/mcu_vendor/renesas/rz_mcu_boards/core_package/generate/sc_drivers/r_octabus/src/lld\r_octabus_lld_rza2m_api.c ****     if (OCTABUS_BYTE_ORDER_B1B0B3B2 == p_cfg->mro1)
 548              		.loc 1 471 0
 549 0004 243090E5 		ldr	r3, [r0, #36]
 472:D:/Work/DeviceTester/amazon-freertos/lib/third_party/mcu_vendor/renesas/rz_mcu_boards/core_package/generate/sc_drivers/r_octabus/src/lld\r_octabus_lld_rza2m_api.c ****     {
 550              		.loc 1 472 0
 551 0008 010052E3 		cmp	r2, #1
 552 000c 58209FE5 		ldr	r2, .L31
 474:D:/Work/DeviceTester/amazon-freertos/lib/third_party/mcu_vendor/renesas/rz_mcu_boards/core_package/generate/sc_drivers/r_octabus/src/lld\r_octabus_lld_rza2m_api.c ****         p_acar1[2] = 0x00FFF700uL;
 553              		.loc 1 474 0
 554 0010 58109F05 		ldreq	r1, .L31+4
 471:D:/Work/DeviceTester/amazon-freertos/lib/third_party/mcu_vendor/renesas/rz_mcu_boards/core_package/generate/sc_drivers/r_octabus/src/lld\r_octabus_lld_rza2m_api.c ****     if (OCTABUS_BYTE_ORDER_B1B0B3B2 == p_cfg->mro1)
 555              		.loc 1 471 0
 556 0014 063283E2 		add	r3, r3, #1610612736
 557              	.LVL69:
 481:D:/Work/DeviceTester/amazon-freertos/lib/third_party/mcu_vendor/renesas/rz_mcu_boards/core_package/generate/sc_drivers/r_octabus/src/lld\r_octabus_lld_rza2m_api.c ****         p_acar1[2] = 0xFF0000F7uL;
 558              		.loc 1 481 0
 559 0018 54109F15 		ldrne	r1, .L31+8
 474:D:/Work/DeviceTester/amazon-freertos/lib/third_party/mcu_vendor/renesas/rz_mcu_boards/core_package/generate/sc_drivers/r_octabus/src/lld\r_octabus_lld_rza2m_api.c ****         p_acar1[2] = 0x00FFF700uL;
 560              		.loc 1 474 0
 561 001c 0C108305 		streq	r1, [r3, #12]
 481:D:/Work/DeviceTester/amazon-freertos/lib/third_party/mcu_vendor/renesas/rz_mcu_boards/core_package/generate/sc_drivers/r_octabus/src/lld\r_octabus_lld_rza2m_api.c ****         p_acar1[2] = 0xFF0000F7uL;
 562              		.loc 1 481 0
 563 0020 0C108315 		strne	r1, [r3, #12]
 475:D:/Work/DeviceTester/amazon-freertos/lib/third_party/mcu_vendor/renesas/rz_mcu_boards/core_package/generate/sc_drivers/r_octabus/src/lld\r_octabus_lld_rza2m_api.c ****         p_acar1[1] = 0x000800FFuL;
 564              		.loc 1 475 0
 565 0024 4C109F05 		ldreq	r1, .L31+12
 482:D:/Work/DeviceTester/amazon-freertos/lib/third_party/mcu_vendor/renesas/rz_mcu_boards/core_package/generate/sc_drivers/r_octabus/src/lld\r_octabus_lld_rza2m_api.c ****         p_acar1[1] = 0x0800FF00uL;
 566              		.loc 1 482 0
 567 0028 4C109F15 		ldrne	r1, .L31+16
 475:D:/Work/DeviceTester/amazon-freertos/lib/third_party/mcu_vendor/renesas/rz_mcu_boards/core_package/generate/sc_drivers/r_octabus/src/lld\r_octabus_lld_rza2m_api.c ****         p_acar1[1] = 0x000800FFuL;
 568              		.loc 1 475 0
 569 002c 08108305 		streq	r1, [r3, #8]
 482:D:/Work/DeviceTester/amazon-freertos/lib/third_party/mcu_vendor/renesas/rz_mcu_boards/core_package/generate/sc_drivers/r_octabus/src/lld\r_octabus_lld_rza2m_api.c ****         p_acar1[1] = 0x0800FF00uL;
 570              		.loc 1 482 0
 571 0030 08108315 		strne	r1, [r3, #8]
 476:D:/Work/DeviceTester/amazon-freertos/lib/third_party/mcu_vendor/renesas/rz_mcu_boards/core_package/generate/sc_drivers/r_octabus/src/lld\r_octabus_lld_rza2m_api.c ****         p_acar1[0] = 0xFFFF0000uL;
 572              		.loc 1 476 0
 573 0034 44109F05 		ldreq	r1, .L31+20
 483:D:/Work/DeviceTester/amazon-freertos/lib/third_party/mcu_vendor/renesas/rz_mcu_boards/core_package/generate/sc_drivers/r_octabus/src/lld\r_octabus_lld_rza2m_api.c ****         p_acar1[0] = 0xFFFF0000uL;
 574              		.loc 1 483 0
 575 0038 44109F15 		ldrne	r1, .L31+24
 576 003c 041083E5 		str	r1, [r3, #4]
 484:D:/Work/DeviceTester/amazon-freertos/lib/third_party/mcu_vendor/renesas/rz_mcu_boards/core_package/generate/sc_drivers/r_octabus/src/lld\r_octabus_lld_rza2m_api.c ****     }
 577              		.loc 1 484 0
 578 0040 002083E5 		str	r2, [r3]
 579              	.LBB172:
 580              	.LBB173:
 119:D:/Work/DeviceTester/amazon-freertos/lib/third_party/mcu_vendor/renesas/rz_mcu_boards/core_package/generate/sc_drivers/r_octabus/src/lld\r_octabus_lld_rza2m_api.c **** }
 581              		.loc 1 119 0
 582 0044 3C309FE5 		ldr	r3, .L31+28
 583              	.LVL70:
 584              	.LBE173:
 585              	.LBE172:
 488:D:/Work/DeviceTester/amazon-freertos/lib/third_party/mcu_vendor/renesas/rz_mcu_boards/core_package/generate/sc_drivers/r_octabus/src/lld\r_octabus_lld_rza2m_api.c **** 
 586              		.loc 1 488 0
 587 0048 202090E5 		ldr	r2, [r0, #32]
 588              	.LVL71:
 589              	.LBB175:
 590              	.LBB174:
 119:D:/Work/DeviceTester/amazon-freertos/lib/third_party/mcu_vendor/renesas/rz_mcu_boards/core_package/generate/sc_drivers/r_octabus/src/lld\r_octabus_lld_rza2m_api.c **** }
 591              		.loc 1 119 0
 592 004c 182083E5 		str	r2, [r3, #24]
 593              	.LVL72:
 594              	.LBE174:
 595              	.LBE175:
 491:D:/Work/DeviceTester/amazon-freertos/lib/third_party/mcu_vendor/renesas/rz_mcu_boards/core_package/generate/sc_drivers/r_octabus/src/lld\r_octabus_lld_rza2m_api.c **** 
 596              		.loc 1 491 0
 597 0050 242090E5 		ldr	r2, [r0, #36]
 598              	.LVL73:
 599              	.LBE171:
 600              	.LBE170:
 609:D:/Work/DeviceTester/amazon-freertos/lib/third_party/mcu_vendor/renesas/rz_mcu_boards/core_package/generate/sc_drivers/r_octabus/src/lld\r_octabus_lld_rza2m_api.c ****     int_t ret;
 610:D:/Work/DeviceTester/amazon-freertos/lib/third_party/mcu_vendor/renesas/rz_mcu_boards/core_package/generate/sc_drivers/r_octabus/src/lld\r_octabus_lld_rza2m_api.c **** 
 611:D:/Work/DeviceTester/amazon-freertos/lib/third_party/mcu_vendor/renesas/rz_mcu_boards/core_package/generate/sc_drivers/r_octabus/src/lld\r_octabus_lld_rza2m_api.c ****     ret = octaram_autocalib(p_cfg);
 612:D:/Work/DeviceTester/amazon-freertos/lib/third_party/mcu_vendor/renesas/rz_mcu_boards/core_package/generate/sc_drivers/r_octabus/src/lld\r_octabus_lld_rza2m_api.c **** 
 613:D:/Work/DeviceTester/amazon-freertos/lib/third_party/mcu_vendor/renesas/rz_mcu_boards/core_package/generate/sc_drivers/r_octabus/src/lld\r_octabus_lld_rza2m_api.c ****     return ret;
 614:D:/Work/DeviceTester/amazon-freertos/lib/third_party/mcu_vendor/renesas/rz_mcu_boards/core_package/generate/sc_drivers/r_octabus/src/lld\r_octabus_lld_rza2m_api.c **** }
 601              		.loc 1 614 0
 602 0054 0000A0E3 		mov	r0, #0
 603              	.LVL74:
 604              	.LBB183:
 605              	.LBB182:
 606              	.LBB176:
 607              	.LBB177:
 119:D:/Work/DeviceTester/amazon-freertos/lib/third_party/mcu_vendor/renesas/rz_mcu_boards/core_package/generate/sc_drivers/r_octabus/src/lld\r_octabus_lld_rza2m_api.c **** }
 608              		.loc 1 119 0
 609 0058 202083E5 		str	r2, [r3, #32]
 610              	.LVL75:
 611              	.LBE177:
 612              	.LBE176:
 613              	.LBB178:
 614              	.LBB179:
 143:D:/Work/DeviceTester/amazon-freertos/lib/third_party/mcu_vendor/renesas/rz_mcu_boards/core_package/generate/sc_drivers/r_octabus/src/lld\r_octabus_lld_rza2m_api.c ****     if (IOREG_NONMASK_ACCESS != mask)
 615              		.loc 1 143 0
 616 005c 402093E5 		ldr	r2, [r3, #64]
 617              	.LVL76:
 618              	.LBE179:
 619              	.LBE178:
 495:D:/Work/DeviceTester/amazon-freertos/lib/third_party/mcu_vendor/renesas/rz_mcu_boards/core_package/generate/sc_drivers/r_octabus/src/lld\r_octabus_lld_rza2m_api.c ****                 |    (2 << OCTA_CDSR_ACMEME_SHIFT));      /** enable automatic calibration for Octa
 620              		.loc 1 495 0
 621 0060 062B82E3 		orr	r2, r2, #6144
 622              	.LVL77:
 623              	.LBB180:
 624              	.LBB181:
 119:D:/Work/DeviceTester/amazon-freertos/lib/third_party/mcu_vendor/renesas/rz_mcu_boards/core_package/generate/sc_drivers/r_octabus/src/lld\r_octabus_lld_rza2m_api.c **** }
 625              		.loc 1 119 0
 626 0064 402083E5 		str	r2, [r3, #64]
 627              	.LVL78:
 628              	.LBE181:
 629              	.LBE180:
 630              	.LBE182:
 631              	.LBE183:
 632              		.loc 1 614 0
 633 0068 1EFF2FE1 		bx	lr
 634              	.L32:
 635              		.align	2
 636              	.L31:
 637 006c 0000FFFF 		.word	-65536
 638 0070 08F700F7 		.word	-150931704
 639 0074 F708F700 		.word	16189687
 640 0078 00F7FF00 		.word	16774912
 641 007c F70000FF 		.word	-16776969
 642 0080 FF000800 		.word	524543
 643 0084 00FF0008 		.word	134283008
 644 0088 0010401F 		.word	524292096
 645              		.cfi_endproc
 646              	.LFE13:
 648              		.section	.text.R_OCTABUS_Setup,"ax",%progbits
 649              		.align	2
 650              		.weak	R_OCTABUS_Setup
 651              		.syntax unified
 652              		.arm
 653              		.fpu neon
 655              	R_OCTABUS_Setup:
 656              	.LFB10:
 516:D:/Work/DeviceTester/amazon-freertos/lib/third_party/mcu_vendor/renesas/rz_mcu_boards/core_package/generate/sc_drivers/r_octabus/src/lld\r_octabus_lld_rza2m_api.c ****     int_t ret;
 657              		.loc 1 516 0
 658              		.cfi_startproc
 659              		@ args = 0, pretend = 0, frame = 0
 660              		@ frame_needed = 0, uses_anonymous_args = 0
 661 0000 10402DE9 		push	{r4, lr}
 662              		.cfi_def_cfa_offset 8
 663              		.cfi_offset 4, -8
 664              		.cfi_offset 14, -4
 520:D:/Work/DeviceTester/amazon-freertos/lib/third_party/mcu_vendor/renesas/rz_mcu_boards/core_package/generate/sc_drivers/r_octabus/src/lld\r_octabus_lld_rza2m_api.c **** 
 665              		.loc 1 520 0
 666 0004 2A00A0E3 		mov	r0, #42
 667 0008 FEFFFFEB 		bl	R_STB_StartModule
 668              	.LVL79:
 669              	.LBB184:
 670              	.LBB185:
 570:D:/Work/DeviceTester/amazon-freertos/lib/third_party/mcu_vendor/renesas/rz_mcu_boards/core_package/generate/sc_drivers/r_octabus/src/lld\r_octabus_lld_rza2m_api.c **** 
 671              		.loc 1 570 0
 672 000c 48009FE5 		ldr	r0, .L45
 673 0010 FEFFFFEB 		bl	octaram_init
 674              	.LVL80:
 675              	.LBE185:
 676              	.LBE184:
 524:D:/Work/DeviceTester/amazon-freertos/lib/third_party/mcu_vendor/renesas/rz_mcu_boards/core_package/generate/sc_drivers/r_octabus/src/lld\r_octabus_lld_rza2m_api.c ****     {
 677              		.loc 1 524 0
 678 0014 000050E3 		cmp	r0, #0
 679 0018 0100000A 		beq	.L34
 680              	.L42:
 681              	.LBB186:
 682              	.LBB187:
 683              		.file 2 "D:\\Work\\DeviceTester\\amazon-freertos\\lib\\third_party\\mcu_vendor\\renesas\\rz_mcu_bo
   1:D:\Work\DeviceTester\amazon-freertos\lib\third_party\mcu_vendor\renesas\rz_mcu_boards\core_package\generate\compiler\inc\r_compiler_abstraction_api.h **** /**************************************************************************************************
   2:D:\Work\DeviceTester\amazon-freertos\lib\third_party\mcu_vendor\renesas\rz_mcu_boards\core_package\generate\compiler\inc\r_compiler_abstraction_api.h ****  * DISCLAIMER
   3:D:\Work\DeviceTester\amazon-freertos\lib\third_party\mcu_vendor\renesas\rz_mcu_boards\core_package\generate\compiler\inc\r_compiler_abstraction_api.h ****  * This software is supplied by Renesas Electronics Corporation and is only intended for use with R
   4:D:\Work\DeviceTester\amazon-freertos\lib\third_party\mcu_vendor\renesas\rz_mcu_boards\core_package\generate\compiler\inc\r_compiler_abstraction_api.h ****  * other uses are authorized. This software is owned by Renesas Electronics Corporation and is prot
   5:D:\Work\DeviceTester\amazon-freertos\lib\third_party\mcu_vendor\renesas\rz_mcu_boards\core_package\generate\compiler\inc\r_compiler_abstraction_api.h ****  * applicable laws, including copyright laws.
   6:D:\Work\DeviceTester\amazon-freertos\lib\third_party\mcu_vendor\renesas\rz_mcu_boards\core_package\generate\compiler\inc\r_compiler_abstraction_api.h ****  * THIS SOFTWARE IS PROVIDED "AS IS" AND RENESAS MAKES NO WARRANTIES REGARDING
   7:D:\Work\DeviceTester\amazon-freertos\lib\third_party\mcu_vendor\renesas\rz_mcu_boards\core_package\generate\compiler\inc\r_compiler_abstraction_api.h ****  * THIS SOFTWARE, WHETHER EXPRESS, IMPLIED OR STATUTORY, INCLUDING BUT NOT LIMITED TO WARRANTIES OF
   8:D:\Work\DeviceTester\amazon-freertos\lib\third_party\mcu_vendor\renesas\rz_mcu_boards\core_package\generate\compiler\inc\r_compiler_abstraction_api.h ****  * FITNESS FOR A PARTICULAR PURPOSE AND NON-INFRINGEMENT. ALL SUCH WARRANTIES ARE EXPRESSLY DISCLAI
   9:D:\Work\DeviceTester\amazon-freertos\lib\third_party\mcu_vendor\renesas\rz_mcu_boards\core_package\generate\compiler\inc\r_compiler_abstraction_api.h ****  * EXTENT PERMITTED NOT PROHIBITED BY LAW, NEITHER RENESAS ELECTRONICS CORPORATION NOR ANY OF ITS A
  10:D:\Work\DeviceTester\amazon-freertos\lib\third_party\mcu_vendor\renesas\rz_mcu_boards\core_package\generate\compiler\inc\r_compiler_abstraction_api.h ****  * SHALL BE LIABLE FOR ANY DIRECT, INDIRECT, SPECIAL, INCIDENTAL OR CONSEQUENTIAL DAMAGES FOR ANY R
  11:D:\Work\DeviceTester\amazon-freertos\lib\third_party\mcu_vendor\renesas\rz_mcu_boards\core_package\generate\compiler\inc\r_compiler_abstraction_api.h ****  * SOFTWARE, EVEN IF RENESAS OR ITS AFFILIATES HAVE BEEN ADVISED OF THE POSSIBILITY OF SUCH DAMAGES
  12:D:\Work\DeviceTester\amazon-freertos\lib\third_party\mcu_vendor\renesas\rz_mcu_boards\core_package\generate\compiler\inc\r_compiler_abstraction_api.h ****  * Renesas reserves the right, without notice, to make changes to this software and to discontinue 
  13:D:\Work\DeviceTester\amazon-freertos\lib\third_party\mcu_vendor\renesas\rz_mcu_boards\core_package\generate\compiler\inc\r_compiler_abstraction_api.h ****  * this software. By using this software, you agree to the additional terms and conditions found by
  14:D:\Work\DeviceTester\amazon-freertos\lib\third_party\mcu_vendor\renesas\rz_mcu_boards\core_package\generate\compiler\inc\r_compiler_abstraction_api.h ****  * following link:
  15:D:\Work\DeviceTester\amazon-freertos\lib\third_party\mcu_vendor\renesas\rz_mcu_boards\core_package\generate\compiler\inc\r_compiler_abstraction_api.h ****  * http://www.renesas.com/disclaimer
  16:D:\Work\DeviceTester\amazon-freertos\lib\third_party\mcu_vendor\renesas\rz_mcu_boards\core_package\generate\compiler\inc\r_compiler_abstraction_api.h ****  *
  17:D:\Work\DeviceTester\amazon-freertos\lib\third_party\mcu_vendor\renesas\rz_mcu_boards\core_package\generate\compiler\inc\r_compiler_abstraction_api.h ****  * Copyright (C) 2020 Renesas Electronics Corporation. All rights reserved.
  18:D:\Work\DeviceTester\amazon-freertos\lib\third_party\mcu_vendor\renesas\rz_mcu_boards\core_package\generate\compiler\inc\r_compiler_abstraction_api.h ****  **************************************************************************************************
  19:D:\Work\DeviceTester\amazon-freertos\lib\third_party\mcu_vendor\renesas\rz_mcu_boards\core_package\generate\compiler\inc\r_compiler_abstraction_api.h **** /**************************************************************************************************
  20:D:\Work\DeviceTester\amazon-freertos\lib\third_party\mcu_vendor\renesas\rz_mcu_boards\core_package\generate\compiler\inc\r_compiler_abstraction_api.h ****  * File Name    : r_compiler_abstraction_api.h
  21:D:\Work\DeviceTester\amazon-freertos\lib\third_party\mcu_vendor\renesas\rz_mcu_boards\core_package\generate\compiler\inc\r_compiler_abstraction_api.h ****  * Description  : Provides a common API for frequently used compiler specific operations
  22:D:\Work\DeviceTester\amazon-freertos\lib\third_party\mcu_vendor\renesas\rz_mcu_boards\core_package\generate\compiler\inc\r_compiler_abstraction_api.h ****  **************************************************************************************************
  23:D:\Work\DeviceTester\amazon-freertos\lib\third_party\mcu_vendor\renesas\rz_mcu_boards\core_package\generate\compiler\inc\r_compiler_abstraction_api.h **** #include  "r_typedefs.h"
  24:D:\Work\DeviceTester\amazon-freertos\lib\third_party\mcu_vendor\renesas\rz_mcu_boards\core_package\generate\compiler\inc\r_compiler_abstraction_api.h **** 
  25:D:\Work\DeviceTester\amazon-freertos\lib\third_party\mcu_vendor\renesas\rz_mcu_boards\core_package\generate\compiler\inc\r_compiler_abstraction_api.h **** #ifndef SRC_PRV_RENESAS_COMPILER_INC_R_COMPILER_ABSTRACTION_API_H_
  26:D:\Work\DeviceTester\amazon-freertos\lib\third_party\mcu_vendor\renesas\rz_mcu_boards\core_package\generate\compiler\inc\r_compiler_abstraction_api.h **** #define SRC_PRV_RENESAS_COMPILER_INC_R_COMPILER_ABSTRACTION_API_H_
  27:D:\Work\DeviceTester\amazon-freertos\lib\third_party\mcu_vendor\renesas\rz_mcu_boards\core_package\generate\compiler\inc\r_compiler_abstraction_api.h **** 
  28:D:\Work\DeviceTester\amazon-freertos\lib\third_party\mcu_vendor\renesas\rz_mcu_boards\core_package\generate\compiler\inc\r_compiler_abstraction_api.h **** /* Macro is used to declare linkage to a function as weak so that it can be overridden by a normall
  29:D:\Work\DeviceTester\amazon-freertos\lib\third_party\mcu_vendor\renesas\rz_mcu_boards\core_package\generate\compiler\inc\r_compiler_abstraction_api.h ****  * Update this when using a different compiler. */
  30:D:\Work\DeviceTester\amazon-freertos\lib\third_party\mcu_vendor\renesas\rz_mcu_boards\core_package\generate\compiler\inc\r_compiler_abstraction_api.h **** #define R_COMPILER_WEAK __attribute__((weak))
  31:D:\Work\DeviceTester\amazon-freertos\lib\third_party\mcu_vendor\renesas\rz_mcu_boards\core_package\generate\compiler\inc\r_compiler_abstraction_api.h **** 
  32:D:\Work\DeviceTester\amazon-freertos\lib\third_party\mcu_vendor\renesas\rz_mcu_boards\core_package\generate\compiler\inc\r_compiler_abstraction_api.h **** #define R_COMPILER_INLINE static inline
  33:D:\Work\DeviceTester\amazon-freertos\lib\third_party\mcu_vendor\renesas\rz_mcu_boards\core_package\generate\compiler\inc\r_compiler_abstraction_api.h **** 
  34:D:\Work\DeviceTester\amazon-freertos\lib\third_party\mcu_vendor\renesas\rz_mcu_boards\core_package\generate\compiler\inc\r_compiler_abstraction_api.h **** extern void __enable_irq (void);
  35:D:\Work\DeviceTester\amazon-freertos\lib\third_party\mcu_vendor\renesas\rz_mcu_boards\core_package\generate\compiler\inc\r_compiler_abstraction_api.h **** extern uint32_t __disable_irq (void);
  36:D:\Work\DeviceTester\amazon-freertos\lib\third_party\mcu_vendor\renesas\rz_mcu_boards\core_package\generate\compiler\inc\r_compiler_abstraction_api.h **** extern void __enable_fiq (void);
  37:D:\Work\DeviceTester\amazon-freertos\lib\third_party\mcu_vendor\renesas\rz_mcu_boards\core_package\generate\compiler\inc\r_compiler_abstraction_api.h **** extern void __disable_fiq (void);
  38:D:\Work\DeviceTester\amazon-freertos\lib\third_party\mcu_vendor\renesas\rz_mcu_boards\core_package\generate\compiler\inc\r_compiler_abstraction_api.h **** 
  39:D:\Work\DeviceTester\amazon-freertos\lib\third_party\mcu_vendor\renesas\rz_mcu_boards\core_package\generate\compiler\inc\r_compiler_abstraction_api.h **** /**************************************************************************************************
  40:D:\Work\DeviceTester\amazon-freertos\lib\third_party\mcu_vendor\renesas\rz_mcu_boards\core_package\generate\compiler\inc\r_compiler_abstraction_api.h ****  * Function Name: R_COMPILER_Nop
  41:D:\Work\DeviceTester\amazon-freertos\lib\third_party\mcu_vendor\renesas\rz_mcu_boards\core_package\generate\compiler\inc\r_compiler_abstraction_api.h ****  * Description  : Abstracting a compiler No Operation opcode into a C function. Update this when us
  42:D:\Work\DeviceTester\amazon-freertos\lib\third_party\mcu_vendor\renesas\rz_mcu_boards\core_package\generate\compiler\inc\r_compiler_abstraction_api.h ****  *                compiler.
  43:D:\Work\DeviceTester\amazon-freertos\lib\third_party\mcu_vendor\renesas\rz_mcu_boards\core_package\generate\compiler\inc\r_compiler_abstraction_api.h ****  * Return Value : None.
  44:D:\Work\DeviceTester\amazon-freertos\lib\third_party\mcu_vendor\renesas\rz_mcu_boards\core_package\generate\compiler\inc\r_compiler_abstraction_api.h ****  **************************************************************************************************
  45:D:\Work\DeviceTester\amazon-freertos\lib\third_party\mcu_vendor\renesas\rz_mcu_boards\core_package\generate\compiler\inc\r_compiler_abstraction_api.h **** R_COMPILER_INLINE void R_COMPILER_Nop (void)
  46:D:\Work\DeviceTester\amazon-freertos\lib\third_party\mcu_vendor\renesas\rz_mcu_boards\core_package\generate\compiler\inc\r_compiler_abstraction_api.h ****     {
  47:D:\Work\DeviceTester\amazon-freertos\lib\third_party\mcu_vendor\renesas\rz_mcu_boards\core_package\generate\compiler\inc\r_compiler_abstraction_api.h ****         __asm volatile ("nop");
 684              		.loc 2 47 0 discriminator 1
 685              		.syntax divided
 686              	@ 47 "D:\Work\DeviceTester\amazon-freertos\lib\third_party\mcu_vendor\renesas\rz_mcu_boards\core_pa
 687 001c 00F020E3 		nop
 688              	@ 0 "" 2
 689              		.arm
 690              		.syntax unified
 691 0020 FDFFFFEA 		b	.L42
 692              	.L34:
 693              	.LBE187:
 694              	.LBE186:
 534:D:/Work/DeviceTester/amazon-freertos/lib/third_party/mcu_vendor/renesas/rz_mcu_boards/core_package/generate/sc_drivers/r_octabus/src/lld\r_octabus_lld_rza2m_api.c ****     {
 695              		.loc 1 534 0
 696 0024 34309FE5 		ldr	r3, .L45+4
 697 0028 000053E3 		cmp	r3, #0
 698 002c 0100000A 		beq	.L36
 536:D:/Work/DeviceTester/amazon-freertos/lib/third_party/mcu_vendor/renesas/rz_mcu_boards/core_package/generate/sc_drivers/r_octabus/src/lld\r_octabus_lld_rza2m_api.c ****     }
 699              		.loc 1 536 0
 700 0030 24009FE5 		ldr	r0, .L45
 701 0034 FEFFFFEB 		bl	OctaBus_UserConfig
 702              	.LVL81:
 703              	.L36:
 540:D:/Work/DeviceTester/amazon-freertos/lib/third_party/mcu_vendor/renesas/rz_mcu_boards/core_package/generate/sc_drivers/r_octabus/src/lld\r_octabus_lld_rza2m_api.c ****     if (DRV_SUCCESS != ret)
 704              		.loc 1 540 0
 705 0038 1C009FE5 		ldr	r0, .L45
 706 003c FEFFFFEB 		bl	R_OCTABUS_ManualCalib
 707              	.LVL82:
 541:D:/Work/DeviceTester/amazon-freertos/lib/third_party/mcu_vendor/renesas/rz_mcu_boards/core_package/generate/sc_drivers/r_octabus/src/lld\r_octabus_lld_rza2m_api.c ****     {
 708              		.loc 1 541 0
 709 0040 000050E3 		cmp	r0, #0
 710 0044 0100000A 		beq	.L37
 711              	.L43:
 712              	.LBB188:
 713              	.LBB189:
 714              		.loc 2 47 0 discriminator 1
 715              		.syntax divided
 716              	@ 47 "D:\Work\DeviceTester\amazon-freertos\lib\third_party\mcu_vendor\renesas\rz_mcu_boards\core_pa
 717 0048 00F020E3 		nop
 718              	@ 0 "" 2
 719              		.arm
 720              		.syntax unified
 721 004c FDFFFFEA 		b	.L43
 722              	.L37:
 723              	.LBE189:
 724              	.LBE188:
 551:D:/Work/DeviceTester/amazon-freertos/lib/third_party/mcu_vendor/renesas/rz_mcu_boards/core_package/generate/sc_drivers/r_octabus/src/lld\r_octabus_lld_rza2m_api.c **** 
 725              		.loc 1 551 0
 726 0050 04009FE5 		ldr	r0, .L45
 727              	.LVL83:
 553:D:/Work/DeviceTester/amazon-freertos/lib/third_party/mcu_vendor/renesas/rz_mcu_boards/core_package/generate/sc_drivers/r_octabus/src/lld\r_octabus_lld_rza2m_api.c **** /**************************************************************************************************
 728              		.loc 1 553 0
 729 0054 1040BDE8 		pop	{r4, lr}
 730              		.cfi_restore 14
 731              		.cfi_restore 4
 732              		.cfi_def_cfa_offset 0
 551:D:/Work/DeviceTester/amazon-freertos/lib/third_party/mcu_vendor/renesas/rz_mcu_boards/core_package/generate/sc_drivers/r_octabus/src/lld\r_octabus_lld_rza2m_api.c **** 
 733              		.loc 1 551 0
 734 0058 FEFFFFEA 		b	R_OCTABUS_AutoCalib
 735              	.LVL84:
 736              	.L46:
 737              		.align	2
 738              	.L45:
 739 005c 00000000 		.word	.LANCHOR2
 740 0060 00000000 		.word	OctaBus_UserConfig
 741              		.cfi_endproc
 742              	.LFE10:
 744              		.section	.text.R_OCTABUS_WriteConfigMode,"ax",%progbits
 745              		.align	2
 746              		.global	R_OCTABUS_WriteConfigMode
 747              		.syntax unified
 748              		.arm
 749              		.fpu neon
 751              	R_OCTABUS_WriteConfigMode:
 752              	.LFB14:
 615:D:/Work/DeviceTester/amazon-freertos/lib/third_party/mcu_vendor/renesas/rz_mcu_boards/core_package/generate/sc_drivers/r_octabus/src/lld\r_octabus_lld_rza2m_api.c **** /**************************************************************************************************
 616:D:/Work/DeviceTester/amazon-freertos/lib/third_party/mcu_vendor/renesas/rz_mcu_boards/core_package/generate/sc_drivers/r_octabus/src/lld\r_octabus_lld_rza2m_api.c ****  * End of function R_OCTABUS_AutoCalib
 617:D:/Work/DeviceTester/amazon-freertos/lib/third_party/mcu_vendor/renesas/rz_mcu_boards/core_package/generate/sc_drivers/r_octabus/src/lld\r_octabus_lld_rza2m_api.c ****  **************************************************************************************************
 618:D:/Work/DeviceTester/amazon-freertos/lib/third_party/mcu_vendor/renesas/rz_mcu_boards/core_package/generate/sc_drivers/r_octabus/src/lld\r_octabus_lld_rza2m_api.c **** 
 619:D:/Work/DeviceTester/amazon-freertos/lib/third_party/mcu_vendor/renesas/rz_mcu_boards/core_package/generate/sc_drivers/r_octabus/src/lld\r_octabus_lld_rza2m_api.c **** /**************************************************************************************************
 620:D:/Work/DeviceTester/amazon-freertos/lib/third_party/mcu_vendor/renesas/rz_mcu_boards/core_package/generate/sc_drivers/r_octabus/src/lld\r_octabus_lld_rza2m_api.c ****  * Function Name: R_OCTABUS_WriteConfigMode
 621:D:/Work/DeviceTester/amazon-freertos/lib/third_party/mcu_vendor/renesas/rz_mcu_boards/core_package/generate/sc_drivers/r_octabus/src/lld\r_octabus_lld_rza2m_api.c ****  * Description  : Write data in configuration mode
 622:D:/Work/DeviceTester/amazon-freertos/lib/third_party/mcu_vendor/renesas/rz_mcu_boards/core_package/generate/sc_drivers/r_octabus/src/lld\r_octabus_lld_rza2m_api.c ****  * Arguments    : p_config  : pointer to register setting data
 623:D:/Work/DeviceTester/amazon-freertos/lib/third_party/mcu_vendor/renesas/rz_mcu_boards/core_package/generate/sc_drivers/r_octabus/src/lld\r_octabus_lld_rza2m_api.c ****  *              : write_value : write data
 624:D:/Work/DeviceTester/amazon-freertos/lib/third_party/mcu_vendor/renesas/rz_mcu_boards/core_package/generate/sc_drivers/r_octabus/src/lld\r_octabus_lld_rza2m_api.c ****  * Return Value : none
 625:D:/Work/DeviceTester/amazon-freertos/lib/third_party/mcu_vendor/renesas/rz_mcu_boards/core_package/generate/sc_drivers/r_octabus/src/lld\r_octabus_lld_rza2m_api.c ****  * Precautions  : This function cannot be assigned to execute from OctaFlash or OctaRAM.
 626:D:/Work/DeviceTester/amazon-freertos/lib/third_party/mcu_vendor/renesas/rz_mcu_boards/core_package/generate/sc_drivers/r_octabus/src/lld\r_octabus_lld_rza2m_api.c ****  *              : This function must be assigned to an area other than OctaFlash or OctaRAM.
 627:D:/Work/DeviceTester/amazon-freertos/lib/third_party/mcu_vendor/renesas/rz_mcu_boards/core_package/generate/sc_drivers/r_octabus/src/lld\r_octabus_lld_rza2m_api.c ****  **************************************************************************************************
 628:D:/Work/DeviceTester/amazon-freertos/lib/third_party/mcu_vendor/renesas/rz_mcu_boards/core_package/generate/sc_drivers/r_octabus/src/lld\r_octabus_lld_rza2m_api.c **** void R_OCTABUS_WriteConfigMode(st_octabus_configmode_t *p_config, uint32_t write_value)
 629:D:/Work/DeviceTester/amazon-freertos/lib/third_party/mcu_vendor/renesas/rz_mcu_boards/core_package/generate/sc_drivers/r_octabus/src/lld\r_octabus_lld_rza2m_api.c **** {
 753              		.loc 1 629 0
 754              		.cfi_startproc
 755              		@ args = 0, pretend = 0, frame = 0
 756              		@ frame_needed = 0, uses_anonymous_args = 0
 757              		@ link register save eliminated.
 758              	.LVL85:
 630:D:/Work/DeviceTester/amazon-freertos/lib/third_party/mcu_vendor/renesas/rz_mcu_boards/core_package/generate/sc_drivers/r_octabus/src/lld\r_octabus_lld_rza2m_api.c ****     /** Write Configuration Register */
 631:D:/Work/DeviceTester/amazon-freertos/lib/third_party/mcu_vendor/renesas/rz_mcu_boards/core_package/generate/sc_drivers/r_octabus/src/lld\r_octabus_lld_rza2m_api.c ****     octabus_io_regwrite_32(&OCTA.DCR.LONG,   p_config->dcr_value,   IOREG_NONSHIFT_ACCESS, IOREG_NO
 759              		.loc 1 631 0
 760 0000 002090E5 		ldr	r2, [r0]
 761              	.LVL86:
 762              	.LBB190:
 763              	.LBB191:
 119:D:/Work/DeviceTester/amazon-freertos/lib/third_party/mcu_vendor/renesas/rz_mcu_boards/core_package/generate/sc_drivers/r_octabus/src/lld\r_octabus_lld_rza2m_api.c **** }
 764              		.loc 1 119 0
 765 0004 2C309FE5 		ldr	r3, .L50
 766 0008 002083E5 		str	r2, [r3]
 767              	.LVL87:
 768              	.LBE191:
 769              	.LBE190:
 632:D:/Work/DeviceTester/amazon-freertos/lib/third_party/mcu_vendor/renesas/rz_mcu_boards/core_package/generate/sc_drivers/r_octabus/src/lld\r_octabus_lld_rza2m_api.c ****     octabus_io_regwrite_32(&OCTA.DAR.LONG,   p_config->dar_value,   IOREG_NONSHIFT_ACCESS, IOREG_NO
 770              		.loc 1 632 0
 771 000c 042090E5 		ldr	r2, [r0, #4]
 772              	.LVL88:
 773              	.LBB192:
 774              	.LBB193:
 119:D:/Work/DeviceTester/amazon-freertos/lib/third_party/mcu_vendor/renesas/rz_mcu_boards/core_package/generate/sc_drivers/r_octabus/src/lld\r_octabus_lld_rza2m_api.c **** }
 775              		.loc 1 119 0
 776 0010 042083E5 		str	r2, [r3, #4]
 777              	.LVL89:
 778              	.LBE193:
 779              	.LBE192:
 633:D:/Work/DeviceTester/amazon-freertos/lib/third_party/mcu_vendor/renesas/rz_mcu_boards/core_package/generate/sc_drivers/r_octabus/src/lld\r_octabus_lld_rza2m_api.c ****     octabus_io_regwrite_32(&OCTA.DCSR.LONG,  p_config->dcsr_value,  IOREG_NONSHIFT_ACCESS, IOREG_NO
 780              		.loc 1 633 0
 781 0014 082090E5 		ldr	r2, [r0, #8]
 782              	.LVL90:
 783              	.LBB194:
 784              	.LBB195:
 119:D:/Work/DeviceTester/amazon-freertos/lib/third_party/mcu_vendor/renesas/rz_mcu_boards/core_package/generate/sc_drivers/r_octabus/src/lld\r_octabus_lld_rza2m_api.c **** }
 785              		.loc 1 119 0
 786 0018 082083E5 		str	r2, [r3, #8]
 787              	.LVL91:
 788              	.LBE195:
 789              	.LBE194:
 634:D:/Work/DeviceTester/amazon-freertos/lib/third_party/mcu_vendor/renesas/rz_mcu_boards/core_package/generate/sc_drivers/r_octabus/src/lld\r_octabus_lld_rza2m_api.c ****     octabus_io_regwrite_32(&OCTA.DCSTR.LONG, p_config->dcstr_value, IOREG_NONSHIFT_ACCESS, IOREG_NO
 790              		.loc 1 634 0
 791 001c 0C2090E5 		ldr	r2, [r0, #12]
 792              	.LVL92:
 793              	.LBB196:
 794              	.LBB197:
 119:D:/Work/DeviceTester/amazon-freertos/lib/third_party/mcu_vendor/renesas/rz_mcu_boards/core_package/generate/sc_drivers/r_octabus/src/lld\r_octabus_lld_rza2m_api.c **** }
 795              		.loc 1 119 0
 796 0020 3C2083E5 		str	r2, [r3, #60]
 797              	.LVL93:
 798              	.LBE197:
 799              	.LBE196:
 635:D:/Work/DeviceTester/amazon-freertos/lib/third_party/mcu_vendor/renesas/rz_mcu_boards/core_package/generate/sc_drivers/r_octabus/src/lld\r_octabus_lld_rza2m_api.c **** 
 636:D:/Work/DeviceTester/amazon-freertos/lib/third_party/mcu_vendor/renesas/rz_mcu_boards/core_package/generate/sc_drivers/r_octabus/src/lld\r_octabus_lld_rza2m_api.c ****     if (0 != (p_config->dcsr_value & 0xff))
 800              		.loc 1 636 0
 801 0024 0820D0E5 		ldrb	r2, [r0, #8]	@ zero_extendqisi2
 802 0028 000052E3 		cmp	r2, #0
 803              	.LVL94:
 804              	.LBB198:
 805              	.LBB199:
 119:D:/Work/DeviceTester/amazon-freertos/lib/third_party/mcu_vendor/renesas/rz_mcu_boards/core_package/generate/sc_drivers/r_octabus/src/lld\r_octabus_lld_rza2m_api.c **** }
 806              		.loc 1 119 0
 807 002c 5C108315 		strne	r1, [r3, #92]
 808              	.LVL95:
 809              	.LBE199:
 810              	.LBE198:
 811              	.LBB200:
 812              	.LBB201:
 813 0030 58208305 		streq	r2, [r3, #88]
 814 0034 1EFF2FE1 		bx	lr
 815              	.L51:
 816              		.align	2
 817              	.L50:
 818 0038 0010401F 		.word	524292096
 819              	.LBE201:
 820              	.LBE200:
 821              		.cfi_endproc
 822              	.LFE14:
 824              		.section	.text.R_OCTABUS_ReadConfigMode,"ax",%progbits
 825              		.align	2
 826              		.global	R_OCTABUS_ReadConfigMode
 827              		.syntax unified
 828              		.arm
 829              		.fpu neon
 831              	R_OCTABUS_ReadConfigMode:
 832              	.LFB15:
 637:D:/Work/DeviceTester/amazon-freertos/lib/third_party/mcu_vendor/renesas/rz_mcu_boards/core_package/generate/sc_drivers/r_octabus/src/lld\r_octabus_lld_rza2m_api.c ****     {
 638:D:/Work/DeviceTester/amazon-freertos/lib/third_party/mcu_vendor/renesas/rz_mcu_boards/core_package/generate/sc_drivers/r_octabus/src/lld\r_octabus_lld_rza2m_api.c ****         /** Write to CWDR */
 639:D:/Work/DeviceTester/amazon-freertos/lib/third_party/mcu_vendor/renesas/rz_mcu_boards/core_package/generate/sc_drivers/r_octabus/src/lld\r_octabus_lld_rza2m_api.c ****         octabus_io_regwrite_32(&OCTA.CWDR.LONG, write_value, IOREG_NONSHIFT_ACCESS, IOREG_NONMASK_A
 640:D:/Work/DeviceTester/amazon-freertos/lib/third_party/mcu_vendor/renesas/rz_mcu_boards/core_package/generate/sc_drivers/r_octabus/src/lld\r_octabus_lld_rza2m_api.c ****     }
 641:D:/Work/DeviceTester/amazon-freertos/lib/third_party/mcu_vendor/renesas/rz_mcu_boards/core_package/generate/sc_drivers/r_octabus/src/lld\r_octabus_lld_rza2m_api.c ****     else
 642:D:/Work/DeviceTester/amazon-freertos/lib/third_party/mcu_vendor/renesas/rz_mcu_boards/core_package/generate/sc_drivers/r_octabus/src/lld\r_octabus_lld_rza2m_api.c ****     {
 643:D:/Work/DeviceTester/amazon-freertos/lib/third_party/mcu_vendor/renesas/rz_mcu_boards/core_package/generate/sc_drivers/r_octabus/src/lld\r_octabus_lld_rza2m_api.c ****         /** Wrige to CWNDR */
 644:D:/Work/DeviceTester/amazon-freertos/lib/third_party/mcu_vendor/renesas/rz_mcu_boards/core_package/generate/sc_drivers/r_octabus/src/lld\r_octabus_lld_rza2m_api.c ****         octabus_io_regwrite_32(&OCTA.CWNDR, (uint32_t)0, IOREG_NONSHIFT_ACCESS, IOREG_NONMASK_ACCES
 645:D:/Work/DeviceTester/amazon-freertos/lib/third_party/mcu_vendor/renesas/rz_mcu_boards/core_package/generate/sc_drivers/r_octabus/src/lld\r_octabus_lld_rza2m_api.c ****     }
 646:D:/Work/DeviceTester/amazon-freertos/lib/third_party/mcu_vendor/renesas/rz_mcu_boards/core_package/generate/sc_drivers/r_octabus/src/lld\r_octabus_lld_rza2m_api.c **** 
 647:D:/Work/DeviceTester/amazon-freertos/lib/third_party/mcu_vendor/renesas/rz_mcu_boards/core_package/generate/sc_drivers/r_octabus/src/lld\r_octabus_lld_rza2m_api.c **** }
 648:D:/Work/DeviceTester/amazon-freertos/lib/third_party/mcu_vendor/renesas/rz_mcu_boards/core_package/generate/sc_drivers/r_octabus/src/lld\r_octabus_lld_rza2m_api.c **** /**************************************************************************************************
 649:D:/Work/DeviceTester/amazon-freertos/lib/third_party/mcu_vendor/renesas/rz_mcu_boards/core_package/generate/sc_drivers/r_octabus/src/lld\r_octabus_lld_rza2m_api.c ****  * End of function R_OCTABUS_WriteConfigMode
 650:D:/Work/DeviceTester/amazon-freertos/lib/third_party/mcu_vendor/renesas/rz_mcu_boards/core_package/generate/sc_drivers/r_octabus/src/lld\r_octabus_lld_rza2m_api.c ****  **************************************************************************************************
 651:D:/Work/DeviceTester/amazon-freertos/lib/third_party/mcu_vendor/renesas/rz_mcu_boards/core_package/generate/sc_drivers/r_octabus/src/lld\r_octabus_lld_rza2m_api.c **** 
 652:D:/Work/DeviceTester/amazon-freertos/lib/third_party/mcu_vendor/renesas/rz_mcu_boards/core_package/generate/sc_drivers/r_octabus/src/lld\r_octabus_lld_rza2m_api.c **** /**************************************************************************************************
 653:D:/Work/DeviceTester/amazon-freertos/lib/third_party/mcu_vendor/renesas/rz_mcu_boards/core_package/generate/sc_drivers/r_octabus/src/lld\r_octabus_lld_rza2m_api.c ****  * Function Name: R_OCTABUS_ReadConfigMode
 654:D:/Work/DeviceTester/amazon-freertos/lib/third_party/mcu_vendor/renesas/rz_mcu_boards/core_package/generate/sc_drivers/r_octabus/src/lld\r_octabus_lld_rza2m_api.c ****  * Description  : Read data in configuration mode
 655:D:/Work/DeviceTester/amazon-freertos/lib/third_party/mcu_vendor/renesas/rz_mcu_boards/core_package/generate/sc_drivers/r_octabus/src/lld\r_octabus_lld_rza2m_api.c ****  * Arguments    : p_config  : pointer to register setting data
 656:D:/Work/DeviceTester/amazon-freertos/lib/third_party/mcu_vendor/renesas/rz_mcu_boards/core_package/generate/sc_drivers/r_octabus/src/lld\r_octabus_lld_rza2m_api.c ****  * Return Value : read value
 657:D:/Work/DeviceTester/amazon-freertos/lib/third_party/mcu_vendor/renesas/rz_mcu_boards/core_package/generate/sc_drivers/r_octabus/src/lld\r_octabus_lld_rza2m_api.c ****  * Precautions  : This function cannot be assigned to execute from OctaFlash or OctaRAM.
 658:D:/Work/DeviceTester/amazon-freertos/lib/third_party/mcu_vendor/renesas/rz_mcu_boards/core_package/generate/sc_drivers/r_octabus/src/lld\r_octabus_lld_rza2m_api.c ****  *              : This function must be assigned to an area other than OctaFlash or OctaRAM.
 659:D:/Work/DeviceTester/amazon-freertos/lib/third_party/mcu_vendor/renesas/rz_mcu_boards/core_package/generate/sc_drivers/r_octabus/src/lld\r_octabus_lld_rza2m_api.c ****  **************************************************************************************************
 660:D:/Work/DeviceTester/amazon-freertos/lib/third_party/mcu_vendor/renesas/rz_mcu_boards/core_package/generate/sc_drivers/r_octabus/src/lld\r_octabus_lld_rza2m_api.c **** uint32_t R_OCTABUS_ReadConfigMode(st_octabus_configmode_t *p_config)
 661:D:/Work/DeviceTester/amazon-freertos/lib/third_party/mcu_vendor/renesas/rz_mcu_boards/core_package/generate/sc_drivers/r_octabus/src/lld\r_octabus_lld_rza2m_api.c **** {
 833              		.loc 1 661 0
 834              		.cfi_startproc
 835              		@ args = 0, pretend = 0, frame = 8
 836              		@ frame_needed = 0, uses_anonymous_args = 0
 837              		@ link register save eliminated.
 838              	.LVL96:
 662:D:/Work/DeviceTester/amazon-freertos/lib/third_party/mcu_vendor/renesas/rz_mcu_boards/core_package/generate/sc_drivers/r_octabus/src/lld\r_octabus_lld_rza2m_api.c ****     volatile uint32_t read_value;
 663:D:/Work/DeviceTester/amazon-freertos/lib/third_party/mcu_vendor/renesas/rz_mcu_boards/core_package/generate/sc_drivers/r_octabus/src/lld\r_octabus_lld_rza2m_api.c **** 
 664:D:/Work/DeviceTester/amazon-freertos/lib/third_party/mcu_vendor/renesas/rz_mcu_boards/core_package/generate/sc_drivers/r_octabus/src/lld\r_octabus_lld_rza2m_api.c ****     /** Read Configuration Register */
 665:D:/Work/DeviceTester/amazon-freertos/lib/third_party/mcu_vendor/renesas/rz_mcu_boards/core_package/generate/sc_drivers/r_octabus/src/lld\r_octabus_lld_rza2m_api.c ****     octabus_io_regwrite_32(&OCTA.DCR.LONG,   p_config->dcr_value,   IOREG_NONSHIFT_ACCESS, IOREG_NO
 839              		.loc 1 665 0
 840 0000 002090E5 		ldr	r2, [r0]
 841              	.LVL97:
 661:D:/Work/DeviceTester/amazon-freertos/lib/third_party/mcu_vendor/renesas/rz_mcu_boards/core_package/generate/sc_drivers/r_octabus/src/lld\r_octabus_lld_rza2m_api.c ****     volatile uint32_t read_value;
 842              		.loc 1 661 0
 843 0004 08D04DE2 		sub	sp, sp, #8
 844              		.cfi_def_cfa_offset 8
 845              	.LBB202:
 846              	.LBB203:
 119:D:/Work/DeviceTester/amazon-freertos/lib/third_party/mcu_vendor/renesas/rz_mcu_boards/core_package/generate/sc_drivers/r_octabus/src/lld\r_octabus_lld_rza2m_api.c **** }
 847              		.loc 1 119 0
 848 0008 2C309FE5 		ldr	r3, .L54
 849 000c 002083E5 		str	r2, [r3]
 850              	.LVL98:
 851              	.LBE203:
 852              	.LBE202:
 666:D:/Work/DeviceTester/amazon-freertos/lib/third_party/mcu_vendor/renesas/rz_mcu_boards/core_package/generate/sc_drivers/r_octabus/src/lld\r_octabus_lld_rza2m_api.c ****     octabus_io_regwrite_32(&OCTA.DAR.LONG,   p_config->dar_value,   IOREG_NONSHIFT_ACCESS, IOREG_NO
 853              		.loc 1 666 0
 854 0010 042090E5 		ldr	r2, [r0, #4]
 855              	.LVL99:
 856              	.LBB204:
 857              	.LBB205:
 119:D:/Work/DeviceTester/amazon-freertos/lib/third_party/mcu_vendor/renesas/rz_mcu_boards/core_package/generate/sc_drivers/r_octabus/src/lld\r_octabus_lld_rza2m_api.c **** }
 858              		.loc 1 119 0
 859 0014 042083E5 		str	r2, [r3, #4]
 860              	.LVL100:
 861              	.LBE205:
 862              	.LBE204:
 667:D:/Work/DeviceTester/amazon-freertos/lib/third_party/mcu_vendor/renesas/rz_mcu_boards/core_package/generate/sc_drivers/r_octabus/src/lld\r_octabus_lld_rza2m_api.c ****     octabus_io_regwrite_32(&OCTA.DCSR.LONG,  p_config->dcsr_value,  IOREG_NONSHIFT_ACCESS, IOREG_NO
 863              		.loc 1 667 0
 864 0018 082090E5 		ldr	r2, [r0, #8]
 865              	.LVL101:
 866              	.LBB206:
 867              	.LBB207:
 119:D:/Work/DeviceTester/amazon-freertos/lib/third_party/mcu_vendor/renesas/rz_mcu_boards/core_package/generate/sc_drivers/r_octabus/src/lld\r_octabus_lld_rza2m_api.c **** }
 868              		.loc 1 119 0
 869 001c 082083E5 		str	r2, [r3, #8]
 870              	.LVL102:
 871              	.LBE207:
 872              	.LBE206:
 668:D:/Work/DeviceTester/amazon-freertos/lib/third_party/mcu_vendor/renesas/rz_mcu_boards/core_package/generate/sc_drivers/r_octabus/src/lld\r_octabus_lld_rza2m_api.c ****     octabus_io_regwrite_32(&OCTA.DCSTR.LONG, p_config->dcstr_value, IOREG_NONSHIFT_ACCESS, IOREG_NO
 873              		.loc 1 668 0
 874 0020 0C2090E5 		ldr	r2, [r0, #12]
 875              	.LVL103:
 876              	.LBB208:
 877              	.LBB209:
 119:D:/Work/DeviceTester/amazon-freertos/lib/third_party/mcu_vendor/renesas/rz_mcu_boards/core_package/generate/sc_drivers/r_octabus/src/lld\r_octabus_lld_rza2m_api.c **** }
 878              		.loc 1 119 0
 879 0024 3C2083E5 		str	r2, [r3, #60]
 880              	.LVL104:
 881              	.LBE209:
 882              	.LBE208:
 883              	.LBB210:
 884              	.LBB211:
 143:D:/Work/DeviceTester/amazon-freertos/lib/third_party/mcu_vendor/renesas/rz_mcu_boards/core_package/generate/sc_drivers/r_octabus/src/lld\r_octabus_lld_rza2m_api.c ****     if (IOREG_NONMASK_ACCESS != mask)
 885              		.loc 1 143 0
 886 0028 603093E5 		ldr	r3, [r3, #96]
 887              	.LVL105:
 888              	.LBE211:
 889              	.LBE210:
 669:D:/Work/DeviceTester/amazon-freertos/lib/third_party/mcu_vendor/renesas/rz_mcu_boards/core_package/generate/sc_drivers/r_octabus/src/lld\r_octabus_lld_rza2m_api.c **** 
 670:D:/Work/DeviceTester/amazon-freertos/lib/third_party/mcu_vendor/renesas/rz_mcu_boards/core_package/generate/sc_drivers/r_octabus/src/lld\r_octabus_lld_rza2m_api.c ****     read_value = octabus_io_regread_32(&OCTA.CRR.LONG, IOREG_NONSHIFT_ACCESS, IOREG_NONMASK_ACCESS)
 890              		.loc 1 670 0
 891 002c 04308DE5 		str	r3, [sp, #4]
 671:D:/Work/DeviceTester/amazon-freertos/lib/third_party/mcu_vendor/renesas/rz_mcu_boards/core_package/generate/sc_drivers/r_octabus/src/lld\r_octabus_lld_rza2m_api.c **** 
 672:D:/Work/DeviceTester/amazon-freertos/lib/third_party/mcu_vendor/renesas/rz_mcu_boards/core_package/generate/sc_drivers/r_octabus/src/lld\r_octabus_lld_rza2m_api.c ****     return read_value;
 892              		.loc 1 672 0
 893 0030 04009DE5 		ldr	r0, [sp, #4]
 894              	.LVL106:
 673:D:/Work/DeviceTester/amazon-freertos/lib/third_party/mcu_vendor/renesas/rz_mcu_boards/core_package/generate/sc_drivers/r_octabus/src/lld\r_octabus_lld_rza2m_api.c **** }
 895              		.loc 1 673 0
 896 0034 08D08DE2 		add	sp, sp, #8
 897              		.cfi_def_cfa_offset 0
 898              		@ sp needed
 899 0038 1EFF2FE1 		bx	lr
 900              	.L55:
 901              		.align	2
 902              	.L54:
 903 003c 0010401F 		.word	524292096
 904              		.cfi_endproc
 905              	.LFE15:
 907              		.section	.text.R_OCTABUS_GetVersion,"ax",%progbits
 908              		.align	2
 909              		.global	R_OCTABUS_GetVersion
 910              		.syntax unified
 911              		.arm
 912              		.fpu neon
 914              	R_OCTABUS_GetVersion:
 915              	.LFB16:
 674:D:/Work/DeviceTester/amazon-freertos/lib/third_party/mcu_vendor/renesas/rz_mcu_boards/core_package/generate/sc_drivers/r_octabus/src/lld\r_octabus_lld_rza2m_api.c **** /**************************************************************************************************
 675:D:/Work/DeviceTester/amazon-freertos/lib/third_party/mcu_vendor/renesas/rz_mcu_boards/core_package/generate/sc_drivers/r_octabus/src/lld\r_octabus_lld_rza2m_api.c ****  * End of function R_OCTABUS_ReadConfigMode
 676:D:/Work/DeviceTester/amazon-freertos/lib/third_party/mcu_vendor/renesas/rz_mcu_boards/core_package/generate/sc_drivers/r_octabus/src/lld\r_octabus_lld_rza2m_api.c ****  **************************************************************************************************
 677:D:/Work/DeviceTester/amazon-freertos/lib/third_party/mcu_vendor/renesas/rz_mcu_boards/core_package/generate/sc_drivers/r_octabus/src/lld\r_octabus_lld_rza2m_api.c **** 
 678:D:/Work/DeviceTester/amazon-freertos/lib/third_party/mcu_vendor/renesas/rz_mcu_boards/core_package/generate/sc_drivers/r_octabus/src/lld\r_octabus_lld_rza2m_api.c **** /**************************************************************************************************
 679:D:/Work/DeviceTester/amazon-freertos/lib/third_party/mcu_vendor/renesas/rz_mcu_boards/core_package/generate/sc_drivers/r_octabus/src/lld\r_octabus_lld_rza2m_api.c ****  * Function Name: R_OCTABUS_GetVersion
 680:D:/Work/DeviceTester/amazon-freertos/lib/third_party/mcu_vendor/renesas/rz_mcu_boards/core_package/generate/sc_drivers/r_octabus/src/lld\r_octabus_lld_rza2m_api.c ****  * Description  : Obtains driver specific version information which is used for
 681:D:/Work/DeviceTester/amazon-freertos/lib/third_party/mcu_vendor/renesas/rz_mcu_boards/core_package/generate/sc_drivers/r_octabus/src/lld\r_octabus_lld_rza2m_api.c ****  *              : reporting
 682:D:/Work/DeviceTester/amazon-freertos/lib/third_party/mcu_vendor/renesas/rz_mcu_boards/core_package/generate/sc_drivers/r_octabus/src/lld\r_octabus_lld_rza2m_api.c ****  * Arguments    : p_ver_info: driver version information is populated into
 683:D:/Work/DeviceTester/amazon-freertos/lib/third_party/mcu_vendor/renesas/rz_mcu_boards/core_package/generate/sc_drivers/r_octabus/src/lld\r_octabus_lld_rza2m_api.c ****  *                            this structure
 684:D:/Work/DeviceTester/amazon-freertos/lib/third_party/mcu_vendor/renesas/rz_mcu_boards/core_package/generate/sc_drivers/r_octabus/src/lld\r_octabus_lld_rza2m_api.c ****  *                            @note the structure resources are created by
 685:D:/Work/DeviceTester/amazon-freertos/lib/third_party/mcu_vendor/renesas/rz_mcu_boards/core_package/generate/sc_drivers/r_octabus/src/lld\r_octabus_lld_rza2m_api.c ****  *                             the application not this function.
 686:D:/Work/DeviceTester/amazon-freertos/lib/third_party/mcu_vendor/renesas/rz_mcu_boards/core_package/generate/sc_drivers/r_octabus/src/lld\r_octabus_lld_rza2m_api.c ****  * Return Value : DRV_SUCCESS  Successful operation (always)
 687:D:/Work/DeviceTester/amazon-freertos/lib/third_party/mcu_vendor/renesas/rz_mcu_boards/core_package/generate/sc_drivers/r_octabus/src/lld\r_octabus_lld_rza2m_api.c ****  * Precautions  : This function cannot be assigned to execute from OctaFlash or OctaRAM.
 688:D:/Work/DeviceTester/amazon-freertos/lib/third_party/mcu_vendor/renesas/rz_mcu_boards/core_package/generate/sc_drivers/r_octabus/src/lld\r_octabus_lld_rza2m_api.c ****  *              : This function must be assigned to an area other than OctaFlash or OctaRAM.
 689:D:/Work/DeviceTester/amazon-freertos/lib/third_party/mcu_vendor/renesas/rz_mcu_boards/core_package/generate/sc_drivers/r_octabus/src/lld\r_octabus_lld_rza2m_api.c ****  **************************************************************************************************
 690:D:/Work/DeviceTester/amazon-freertos/lib/third_party/mcu_vendor/renesas/rz_mcu_boards/core_package/generate/sc_drivers/r_octabus/src/lld\r_octabus_lld_rza2m_api.c **** int_t R_OCTABUS_GetVersion(st_ver_info_t *p_ver_info)
 691:D:/Work/DeviceTester/amazon-freertos/lib/third_party/mcu_vendor/renesas/rz_mcu_boards/core_package/generate/sc_drivers/r_octabus/src/lld\r_octabus_lld_rza2m_api.c **** {
 916              		.loc 1 691 0
 917              		.cfi_startproc
 918              		@ args = 0, pretend = 0, frame = 0
 919              		@ frame_needed = 0, uses_anonymous_args = 0
 920              		@ link register save eliminated.
 921              	.LVL107:
 692:D:/Work/DeviceTester/amazon-freertos/lib/third_party/mcu_vendor/renesas/rz_mcu_boards/core_package/generate/sc_drivers/r_octabus/src/lld\r_octabus_lld_rza2m_api.c ****     p_ver_info->lld.p_szdriver_name   = gs_lld_info.p_szdriver_name;
 922              		.loc 1 692 0
 923 0000 1C209FE5 		ldr	r2, .L57
 691:D:/Work/DeviceTester/amazon-freertos/lib/third_party/mcu_vendor/renesas/rz_mcu_boards/core_package/generate/sc_drivers/r_octabus/src/lld\r_octabus_lld_rza2m_api.c ****     p_ver_info->lld.p_szdriver_name   = gs_lld_info.p_szdriver_name;
 924              		.loc 1 691 0
 925 0004 0030A0E1 		mov	r3, r0
 926              		.loc 1 692 0
 927 0008 142080E5 		str	r2, [r0, #20]
 693:D:/Work/DeviceTester/amazon-freertos/lib/third_party/mcu_vendor/renesas/rz_mcu_boards/core_package/generate/sc_drivers/r_octabus/src/lld\r_octabus_lld_rza2m_api.c ****     p_ver_info->lld.version.sub.major = gs_lld_info.version.sub.major;
 928              		.loc 1 693 0
 929 000c 0120A0E3 		mov	r2, #1
 930 0010 BE20C0E1 		strh	r2, [r0, #14]	@ movhi
 694:D:/Work/DeviceTester/amazon-freertos/lib/third_party/mcu_vendor/renesas/rz_mcu_boards/core_package/generate/sc_drivers/r_octabus/src/lld\r_octabus_lld_rza2m_api.c ****     p_ver_info->lld.version.sub.minor = gs_lld_info.version.sub.minor;
 931              		.loc 1 694 0
 932 0014 0000A0E3 		mov	r0, #0
 933              	.LVL108:
 934 0018 BC00C3E1 		strh	r0, [r3, #12]	@ movhi
 695:D:/Work/DeviceTester/amazon-freertos/lib/third_party/mcu_vendor/renesas/rz_mcu_boards/core_package/generate/sc_drivers/r_octabus/src/lld\r_octabus_lld_rza2m_api.c ****     p_ver_info->lld.build = gs_lld_info.build;
 935              		.loc 1 695 0
 936 001c 100083E5 		str	r0, [r3, #16]
 696:D:/Work/DeviceTester/amazon-freertos/lib/third_party/mcu_vendor/renesas/rz_mcu_boards/core_package/generate/sc_drivers/r_octabus/src/lld\r_octabus_lld_rza2m_api.c **** 
 697:D:/Work/DeviceTester/amazon-freertos/lib/third_party/mcu_vendor/renesas/rz_mcu_boards/core_package/generate/sc_drivers/r_octabus/src/lld\r_octabus_lld_rza2m_api.c ****     return DRV_SUCCESS;
 698:D:/Work/DeviceTester/amazon-freertos/lib/third_party/mcu_vendor/renesas/rz_mcu_boards/core_package/generate/sc_drivers/r_octabus/src/lld\r_octabus_lld_rza2m_api.c **** }
 937              		.loc 1 698 0
 938 0020 1EFF2FE1 		bx	lr
 939              	.L58:
 940              		.align	2
 941              	.L57:
 942 0024 00000000 		.word	.LC0
 943              		.cfi_endproc
 944              	.LFE16:
 946              		.section	.bss.s_ok_ng_result,"aw",%nobits
 947              		.set	.LANCHOR1,. + 0
 950              	s_ok_ng_result:
 951 0000 00000000 		.space	16
 951      00000000 
 951      00000000 
 951      00000000 
 952              		.section	.rodata.OCTABUS_SC_TABLE,"a",%progbits
 953              		.align	2
 954              		.set	.LANCHOR2,. + 0
 957              	OCTABUS_SC_TABLE:
 958 0000 00       		.byte	0
 959 0001 01       		.byte	1
 960 0002 0000     		.space	2
 961 0004 00000001 		.word	16777216
 962 0008 00       		.byte	0
 963 0009 02       		.byte	2
 964 000a 05       		.byte	5
 965 000b 05       		.byte	5
 966 000c 00       		.byte	0
 967 000d 06       		.byte	6
 968 000e 00       		.byte	0
 969 000f 05       		.byte	5
 970 0010 02       		.byte	2
 971 0011 00       		.byte	0
 972 0012 00       		.byte	0
 973 0013 02       		.byte	2
 974 0014 00       		.byte	0
 975 0015 00       		.byte	0
 976 0016 80       		.byte	-128
 977 0017 00       		.byte	0
 978 0018 01       		.byte	1
 979 0019 02       		.byte	2
 980 001a 04       		.byte	4
 981 001b 01       		.byte	1
 982 001c 02       		.byte	2
 983 001d 04       		.byte	4
 984 001e 0000     		.space	2
 985 0020 0029DE07 		.word	132000000
 986 0024 F0FFFF00 		.word	16777200
 987              		.section	.rodata.R_OCTABUS_GetVersion.str1.1,"aMS",%progbits,1
 988              	.LC0:
 989 0000 4C4C4420 		.ascii	"LLD RZA2M.OCTABUS\000"
 989      525A4132 
 989      4D2E4F43 
 989      54414255 
 989      5300
 990              		.section	.rodata.s_preamble_data,"a",%progbits
 991              		.align	2
 992              		.set	.LANCHOR0,. + 0
 995              	s_preamble_data:
 996 0000 0000FFFF 		.word	-65536
 997 0004 00FF0008 		.word	134283008
 998 0008 F70000FF 		.word	-16776969
 999 000c F708F700 		.word	16189687
 1000              		.weak	OctaBus_UserConfig
 1001              		.text
 1002              	.Letext0:
 1003              		.file 3 "c:\\program files (x86)\\gnu tools arm embedded\\6 2017-q2-update\\arm-none-eabi\\include
 1004              		.file 4 "c:\\program files (x86)\\gnu tools arm embedded\\6 2017-q2-update\\arm-none-eabi\\include
 1005              		.file 5 "c:\\program files (x86)\\gnu tools arm embedded\\6 2017-q2-update\\arm-none-eabi\\include
 1006              		.file 6 "c:\\program files (x86)\\gnu tools arm embedded\\6 2017-q2-update\\arm-none-eabi\\include
 1007              		.file 7 "c:\\program files (x86)\\gnu tools arm embedded\\6 2017-q2-update\\lib\\gcc\\arm-none-eab
 1008              		.file 8 "c:\\program files (x86)\\gnu tools arm embedded\\6 2017-q2-update\\arm-none-eabi\\include
 1009              		.file 9 "c:\\program files (x86)\\gnu tools arm embedded\\6 2017-q2-update\\arm-none-eabi\\include
 1010              		.file 10 "D:\\Work\\DeviceTester\\amazon-freertos\\lib\\third_party\\mcu_vendor\\renesas\\rz_mcu_b
 1011              		.file 11 "D:\\Work\\DeviceTester\\amazon-freertos\\lib\\third_party\\mcu_vendor\\renesas\\rz_mcu_b
 1012              		.file 12 "D:\\Work\\DeviceTester\\amazon-freertos\\lib\\third_party\\mcu_vendor\\renesas\\rz_mcu_b
 1013              		.file 13 "D:\\Work\\DeviceTester\\amazon-freertos\\lib\\third_party\\mcu_vendor\\renesas\\rz_mcu_b
 1014              		.file 14 "D:\\Work\\DeviceTester\\amazon-freertos\\lib\\third_party\\mcu_vendor\\renesas\\rz_mcu_b
 1015              		.file 15 "D:\\Work\\DeviceTester\\amazon-freertos\\lib\\third_party\\mcu_vendor\\renesas\\rz_mcu_b
 1016              		.file 16 "D:\\Work\\DeviceTester\\amazon-freertos\\lib\\third_party\\mcu_vendor\\renesas\\rz_mcu_b
DEFINED SYMBOLS
                            *ABS*:00000000 r_octabus_lld_rza2m_api.c
C:\Users\a5089698\AppData\Local\Temp\ccpgHj9r.s:17     .text.octaram_init:00000000 $a
C:\Users\a5089698\AppData\Local\Temp\ccpgHj9r.s:22     .text.octaram_init:00000000 octaram_init
C:\Users\a5089698\AppData\Local\Temp\ccpgHj9r.s:257    .text.octaram_init:00000120 $d
C:\Users\a5089698\AppData\Local\Temp\ccpgHj9r.s:263    .text.R_OCTABUS_Init:00000000 $a
C:\Users\a5089698\AppData\Local\Temp\ccpgHj9r.s:269    .text.R_OCTABUS_Init:00000000 R_OCTABUS_Init
C:\Users\a5089698\AppData\Local\Temp\ccpgHj9r.s:284    .text.R_OCTABUS_ManualCalib:00000000 $a
C:\Users\a5089698\AppData\Local\Temp\ccpgHj9r.s:290    .text.R_OCTABUS_ManualCalib:00000000 R_OCTABUS_ManualCalib
C:\Users\a5089698\AppData\Local\Temp\ccpgHj9r.s:518    .text.R_OCTABUS_ManualCalib:00000114 $d
C:\Users\a5089698\AppData\Local\Temp\ccpgHj9r.s:530    .text.R_OCTABUS_AutoCalib:00000000 $a
C:\Users\a5089698\AppData\Local\Temp\ccpgHj9r.s:536    .text.R_OCTABUS_AutoCalib:00000000 R_OCTABUS_AutoCalib
C:\Users\a5089698\AppData\Local\Temp\ccpgHj9r.s:637    .text.R_OCTABUS_AutoCalib:0000006c $d
C:\Users\a5089698\AppData\Local\Temp\ccpgHj9r.s:649    .text.R_OCTABUS_Setup:00000000 $a
C:\Users\a5089698\AppData\Local\Temp\ccpgHj9r.s:655    .text.R_OCTABUS_Setup:00000000 R_OCTABUS_Setup
C:\Users\a5089698\AppData\Local\Temp\ccpgHj9r.s:739    .text.R_OCTABUS_Setup:0000005c $d
C:\Users\a5089698\AppData\Local\Temp\ccpgHj9r.s:745    .text.R_OCTABUS_WriteConfigMode:00000000 $a
C:\Users\a5089698\AppData\Local\Temp\ccpgHj9r.s:751    .text.R_OCTABUS_WriteConfigMode:00000000 R_OCTABUS_WriteConfigMode
C:\Users\a5089698\AppData\Local\Temp\ccpgHj9r.s:818    .text.R_OCTABUS_WriteConfigMode:00000038 $d
C:\Users\a5089698\AppData\Local\Temp\ccpgHj9r.s:825    .text.R_OCTABUS_ReadConfigMode:00000000 $a
C:\Users\a5089698\AppData\Local\Temp\ccpgHj9r.s:831    .text.R_OCTABUS_ReadConfigMode:00000000 R_OCTABUS_ReadConfigMode
C:\Users\a5089698\AppData\Local\Temp\ccpgHj9r.s:903    .text.R_OCTABUS_ReadConfigMode:0000003c $d
C:\Users\a5089698\AppData\Local\Temp\ccpgHj9r.s:908    .text.R_OCTABUS_GetVersion:00000000 $a
C:\Users\a5089698\AppData\Local\Temp\ccpgHj9r.s:914    .text.R_OCTABUS_GetVersion:00000000 R_OCTABUS_GetVersion
C:\Users\a5089698\AppData\Local\Temp\ccpgHj9r.s:942    .text.R_OCTABUS_GetVersion:00000024 $d
C:\Users\a5089698\AppData\Local\Temp\ccpgHj9r.s:950    .bss.s_ok_ng_result:00000000 s_ok_ng_result
C:\Users\a5089698\AppData\Local\Temp\ccpgHj9r.s:951    .bss.s_ok_ng_result:00000000 $d
C:\Users\a5089698\AppData\Local\Temp\ccpgHj9r.s:953    .rodata.OCTABUS_SC_TABLE:00000000 $d
C:\Users\a5089698\AppData\Local\Temp\ccpgHj9r.s:957    .rodata.OCTABUS_SC_TABLE:00000000 OCTABUS_SC_TABLE
C:\Users\a5089698\AppData\Local\Temp\ccpgHj9r.s:991    .rodata.s_preamble_data:00000000 $d
C:\Users\a5089698\AppData\Local\Temp\ccpgHj9r.s:995    .rodata.s_preamble_data:00000000 s_preamble_data
                     .debug_frame:00000010 $d

UNDEFINED SYMBOLS
R_STB_StartModule
OctaBus_UserConfig
