   1              		.cpu cortex-a9
   2              		.eabi_attribute 28, 1
   3              		.eabi_attribute 20, 1
   4              		.eabi_attribute 21, 1
   5              		.eabi_attribute 23, 3
   6              		.eabi_attribute 24, 1
   7              		.eabi_attribute 25, 1
   8              		.eabi_attribute 26, 1
   9              		.eabi_attribute 30, 4
  10              		.eabi_attribute 34, 0
  11              		.eabi_attribute 18, 4
  12              		.file	"aws_test_crypto.c"
  13              		.text
  14              	.Ltext0:
  15              		.cfi_sections	.debug_frame
  16              		.section	.text.TEST_Full_CRYPTO_TEAR_DOWN,"ax",%progbits
  17              		.align	2
  18              		.global	TEST_Full_CRYPTO_TEAR_DOWN
  19              		.syntax unified
  20              		.arm
  21              		.fpu neon
  23              	TEST_Full_CRYPTO_TEAR_DOWN:
  24              	.LFB1:
  25              		.file 1 "D:/Work/DeviceTester/amazon-freertos/tests/common/crypto/aws_test_crypto.c"
   1:D:/Work/DeviceTester/amazon-freertos/tests/common/crypto\aws_test_crypto.c **** /*
   2:D:/Work/DeviceTester/amazon-freertos/tests/common/crypto\aws_test_crypto.c ****  * Amazon FreeRTOS Crypto AFQP V1.1.4
   3:D:/Work/DeviceTester/amazon-freertos/tests/common/crypto\aws_test_crypto.c ****  * Copyright (C) 2017 Amazon.com, Inc. or its affiliates.  All Rights Reserved.
   4:D:/Work/DeviceTester/amazon-freertos/tests/common/crypto\aws_test_crypto.c ****  *
   5:D:/Work/DeviceTester/amazon-freertos/tests/common/crypto\aws_test_crypto.c ****  * Permission is hereby granted, free of charge, to any person obtaining a copy of
   6:D:/Work/DeviceTester/amazon-freertos/tests/common/crypto\aws_test_crypto.c ****  * this software and associated documentation files (the "Software"), to deal in
   7:D:/Work/DeviceTester/amazon-freertos/tests/common/crypto\aws_test_crypto.c ****  * the Software without restriction, including without limitation the rights to
   8:D:/Work/DeviceTester/amazon-freertos/tests/common/crypto\aws_test_crypto.c ****  * use, copy, modify, merge, publish, distribute, sublicense, and/or sell copies of
   9:D:/Work/DeviceTester/amazon-freertos/tests/common/crypto\aws_test_crypto.c ****  * the Software, and to permit persons to whom the Software is furnished to do so,
  10:D:/Work/DeviceTester/amazon-freertos/tests/common/crypto\aws_test_crypto.c ****  * subject to the following conditions:
  11:D:/Work/DeviceTester/amazon-freertos/tests/common/crypto\aws_test_crypto.c ****  *
  12:D:/Work/DeviceTester/amazon-freertos/tests/common/crypto\aws_test_crypto.c ****  * The above copyright notice and this permission notice shall be included in all
  13:D:/Work/DeviceTester/amazon-freertos/tests/common/crypto\aws_test_crypto.c ****  * copies or substantial portions of the Software.
  14:D:/Work/DeviceTester/amazon-freertos/tests/common/crypto\aws_test_crypto.c ****  *
  15:D:/Work/DeviceTester/amazon-freertos/tests/common/crypto\aws_test_crypto.c ****  * THE SOFTWARE IS PROVIDED "AS IS", WITHOUT WARRANTY OF ANY KIND, EXPRESS OR
  16:D:/Work/DeviceTester/amazon-freertos/tests/common/crypto\aws_test_crypto.c ****  * IMPLIED, INCLUDING BUT NOT LIMITED TO THE WARRANTIES OF MERCHANTABILITY, FITNESS
  17:D:/Work/DeviceTester/amazon-freertos/tests/common/crypto\aws_test_crypto.c ****  * FOR A PARTICULAR PURPOSE AND NONINFRINGEMENT. IN NO EVENT SHALL THE AUTHORS OR
  18:D:/Work/DeviceTester/amazon-freertos/tests/common/crypto\aws_test_crypto.c ****  * COPYRIGHT HOLDERS BE LIABLE FOR ANY CLAIM, DAMAGES OR OTHER LIABILITY, WHETHER
  19:D:/Work/DeviceTester/amazon-freertos/tests/common/crypto\aws_test_crypto.c ****  * IN AN ACTION OF CONTRACT, TORT OR OTHERWISE, ARISING FROM, OUT OF OR IN
  20:D:/Work/DeviceTester/amazon-freertos/tests/common/crypto\aws_test_crypto.c ****  * CONNECTION WITH THE SOFTWARE OR THE USE OR OTHER DEALINGS IN THE SOFTWARE.
  21:D:/Work/DeviceTester/amazon-freertos/tests/common/crypto\aws_test_crypto.c ****  *
  22:D:/Work/DeviceTester/amazon-freertos/tests/common/crypto\aws_test_crypto.c ****  * http://aws.amazon.com/freertos
  23:D:/Work/DeviceTester/amazon-freertos/tests/common/crypto\aws_test_crypto.c ****  * http://www.FreeRTOS.org
  24:D:/Work/DeviceTester/amazon-freertos/tests/common/crypto\aws_test_crypto.c ****  */
  25:D:/Work/DeviceTester/amazon-freertos/tests/common/crypto\aws_test_crypto.c **** 
  26:D:/Work/DeviceTester/amazon-freertos/tests/common/crypto\aws_test_crypto.c **** /* Standard includes. */
  27:D:/Work/DeviceTester/amazon-freertos/tests/common/crypto\aws_test_crypto.c **** #include <stdint.h>
  28:D:/Work/DeviceTester/amazon-freertos/tests/common/crypto\aws_test_crypto.c **** 
  29:D:/Work/DeviceTester/amazon-freertos/tests/common/crypto\aws_test_crypto.c **** /* FreeRTOS includes. */
  30:D:/Work/DeviceTester/amazon-freertos/tests/common/crypto\aws_test_crypto.c **** #include "FreeRTOS.h"
  31:D:/Work/DeviceTester/amazon-freertos/tests/common/crypto\aws_test_crypto.c **** 
  32:D:/Work/DeviceTester/amazon-freertos/tests/common/crypto\aws_test_crypto.c **** /* Crypto includes. */
  33:D:/Work/DeviceTester/amazon-freertos/tests/common/crypto\aws_test_crypto.c **** #include "aws_crypto.h"
  34:D:/Work/DeviceTester/amazon-freertos/tests/common/crypto\aws_test_crypto.c **** 
  35:D:/Work/DeviceTester/amazon-freertos/tests/common/crypto\aws_test_crypto.c **** /* Unity framework includes. */
  36:D:/Work/DeviceTester/amazon-freertos/tests/common/crypto\aws_test_crypto.c **** #include "unity_fixture.h"
  37:D:/Work/DeviceTester/amazon-freertos/tests/common/crypto\aws_test_crypto.c **** #include "unity.h"
  38:D:/Work/DeviceTester/amazon-freertos/tests/common/crypto\aws_test_crypto.c **** 
  39:D:/Work/DeviceTester/amazon-freertos/tests/common/crypto\aws_test_crypto.c **** TEST_GROUP( Full_CRYPTO );
  40:D:/Work/DeviceTester/amazon-freertos/tests/common/crypto\aws_test_crypto.c **** 
  41:D:/Work/DeviceTester/amazon-freertos/tests/common/crypto\aws_test_crypto.c **** TEST_SETUP( Full_CRYPTO )
  42:D:/Work/DeviceTester/amazon-freertos/tests/common/crypto\aws_test_crypto.c **** {
  43:D:/Work/DeviceTester/amazon-freertos/tests/common/crypto\aws_test_crypto.c **** }
  44:D:/Work/DeviceTester/amazon-freertos/tests/common/crypto\aws_test_crypto.c **** 
  45:D:/Work/DeviceTester/amazon-freertos/tests/common/crypto\aws_test_crypto.c **** TEST_TEAR_DOWN( Full_CRYPTO )
  46:D:/Work/DeviceTester/amazon-freertos/tests/common/crypto\aws_test_crypto.c **** {
  26              		.loc 1 46 0
  27              		.cfi_startproc
  28              		@ args = 0, pretend = 0, frame = 0
  29              		@ frame_needed = 0, uses_anonymous_args = 0
  30              		@ link register save eliminated.
  31 0000 1EFF2FE1 		bx	lr
  32              		.cfi_endproc
  33              	.LFE1:
  35              		.section	.text.TEST_Full_CRYPTO_VerifySignatureTestVectors_,"ax",%progbits
  36              		.align	2
  37              		.global	TEST_Full_CRYPTO_VerifySignatureTestVectors_
  38              		.syntax unified
  39              		.arm
  40              		.fpu neon
  42              	TEST_Full_CRYPTO_VerifySignatureTestVectors_:
  43              	.LFB4:
  47:D:/Work/DeviceTester/amazon-freertos/tests/common/crypto\aws_test_crypto.c **** }
  48:D:/Work/DeviceTester/amazon-freertos/tests/common/crypto\aws_test_crypto.c **** 
  49:D:/Work/DeviceTester/amazon-freertos/tests/common/crypto\aws_test_crypto.c **** TEST_GROUP_RUNNER( Full_CRYPTO )
  50:D:/Work/DeviceTester/amazon-freertos/tests/common/crypto\aws_test_crypto.c **** {
  51:D:/Work/DeviceTester/amazon-freertos/tests/common/crypto\aws_test_crypto.c ****     RUN_TEST_CASE( Full_CRYPTO, VerifySignatureTestVectors );
  52:D:/Work/DeviceTester/amazon-freertos/tests/common/crypto\aws_test_crypto.c **** }
  53:D:/Work/DeviceTester/amazon-freertos/tests/common/crypto\aws_test_crypto.c **** 
  54:D:/Work/DeviceTester/amazon-freertos/tests/common/crypto\aws_test_crypto.c **** TEST( Full_CRYPTO, VerifySignatureTestVectors )
  55:D:/Work/DeviceTester/amazon-freertos/tests/common/crypto\aws_test_crypto.c **** {
  44              		.loc 1 55 0
  45              		.cfi_startproc
  46              		@ args = 0, pretend = 0, frame = 3784
  47              		@ frame_needed = 0, uses_anonymous_args = 0
  48              	.LVL0:
  49              		.loc 1 55 0
  50 0000 10402DE9 		push	{r4, lr}
  51              		.cfi_def_cfa_offset 8
  52              		.cfi_offset 4, -8
  53              		.cfi_offset 14, -4
  54 0004 EDDE4DE2 		sub	sp, sp, #3792
  55              		.cfi_def_cfa_offset 3800
  56:D:/Work/DeviceTester/amazon-freertos/tests/common/crypto\aws_test_crypto.c ****     BaseType_t xResult = pdFALSE;
  57:D:/Work/DeviceTester/amazon-freertos/tests/common/crypto\aws_test_crypto.c ****     void * pvSignatureVerificationContext = NULL;
  58:D:/Work/DeviceTester/amazon-freertos/tests/common/crypto\aws_test_crypto.c ****     char cSignerCertificateRSA[] =
  56              		.loc 1 58 0
  57 0008 260D8DE2 		add	r0, sp, #2432
  57:D:/Work/DeviceTester/amazon-freertos/tests/common/crypto\aws_test_crypto.c ****     char cSignerCertificateRSA[] =
  58              		.loc 1 57 0
  59 000c 0040A0E3 		mov	r4, #0
  60              		.loc 1 58 0
  61 0010 472500E3 		movw	r2, #1351
  62 0014 080080E2 		add	r0, r0, #8
  63 0018 04139FE5 		ldr	r1, .L25
  57:D:/Work/DeviceTester/amazon-freertos/tests/common/crypto\aws_test_crypto.c ****     char cSignerCertificateRSA[] =
  64              		.loc 1 57 0
  65 001c 0C408DE5 		str	r4, [sp, #12]
  66              		.loc 1 58 0
  67 0020 FEFFFFEB 		bl	memcpy
  68              	.LVL1:
  59:D:/Work/DeviceTester/amazon-freertos/tests/common/crypto\aws_test_crypto.c ****         "-----BEGIN CERTIFICATE-----\n"
  60:D:/Work/DeviceTester/amazon-freertos/tests/common/crypto\aws_test_crypto.c ****         "MIIDtzCCAp+gAwIBAgIJAMAJ51I17/tXMA0GCSqGSIb3DQEBCwUAMHIxCzAJBgNV\n"
  61:D:/Work/DeviceTester/amazon-freertos/tests/common/crypto\aws_test_crypto.c ****         "BAYTAlVTMQswCQYDVQQIDAJXQTEQMA4GA1UEBwwHU2VhdHRsZTEMMAoGA1UECgwD\n"
  62:D:/Work/DeviceTester/amazon-freertos/tests/common/crypto\aws_test_crypto.c ****         "QVdTMQwwCgYDVQQLDANJb1QxDDAKBgNVBAMMA0RhbjEaMBgGCSqGSIb3DQEJARYL\n"
  63:D:/Work/DeviceTester/amazon-freertos/tests/common/crypto\aws_test_crypto.c ****         "ZGFuQGZvby5jb20wHhcNMTcwNzMxMjI0OTE3WhcNMTgwNzMxMjI0OTE3WjByMQsw\n"
  64:D:/Work/DeviceTester/amazon-freertos/tests/common/crypto\aws_test_crypto.c ****         "CQYDVQQGEwJVUzELMAkGA1UECAwCV0ExEDAOBgNVBAcMB1NlYXR0bGUxDDAKBgNV\n"
  65:D:/Work/DeviceTester/amazon-freertos/tests/common/crypto\aws_test_crypto.c ****         "BAoMA0FXUzEMMAoGA1UECwwDSW9UMQwwCgYDVQQDDANEYW4xGjAYBgkqhkiG9w0B\n"
  66:D:/Work/DeviceTester/amazon-freertos/tests/common/crypto\aws_test_crypto.c ****         "CQEWC2RhbkBmb28uY29tMIIBIjANBgkqhkiG9w0BAQEFAAOCAQ8AMIIBCgKCAQEA\n"
  67:D:/Work/DeviceTester/amazon-freertos/tests/common/crypto\aws_test_crypto.c ****         "rQB70DjusUYtNRgGfnrt9bzVT6K50TEwC22FTTmMFzc2TayGZLyXvVEvpaT3RSQp\n"
  68:D:/Work/DeviceTester/amazon-freertos/tests/common/crypto\aws_test_crypto.c ****         "WPXtSN6PI9P/r9t1281UqfeBkt/0Mg5p1Yqd7XhXdziREi/pcKrj/umk1AsrgL7t\n"
  69:D:/Work/DeviceTester/amazon-freertos/tests/common/crypto\aws_test_crypto.c ****         "9XuwIFX5hluej6MyDDAuhtPFAdu7WGAdZr+aBrZyohAgfFcBSNs9/bLoU36FxoWM\n"
  70:D:/Work/DeviceTester/amazon-freertos/tests/common/crypto\aws_test_crypto.c ****         "0iByBztnEdy3k+b+JqwAUOxYLnZTSD28eO4AwXj1WZ2VSLBs+DeDL6SAjRy7v7DF\n"
  71:D:/Work/DeviceTester/amazon-freertos/tests/common/crypto\aws_test_crypto.c ****         "+vrqw82OoYmSk5nzLBYf16H8cEW/zVeWlP+Liw0WTJNGGp2YCwlNx20ywHiNBZDd\n"
  72:D:/Work/DeviceTester/amazon-freertos/tests/common/crypto\aws_test_crypto.c ****         "f/Djw7GsObG5oRs7939kJwIDAQABo1AwTjAdBgNVHQ4EFgQUokZzCOJv6EW6dUHn\n"
  73:D:/Work/DeviceTester/amazon-freertos/tests/common/crypto\aws_test_crypto.c ****         "oDAAQG5BKYcwHwYDVR0jBBgwFoAUokZzCOJv6EW6dUHnoDAAQG5BKYcwDAYDVR0T\n"
  74:D:/Work/DeviceTester/amazon-freertos/tests/common/crypto\aws_test_crypto.c ****         "BAUwAwEB/zANBgkqhkiG9w0BAQsFAAOCAQEAXO/ggGB8ykOozOs6mciY2kH1l6yI\n"
  75:D:/Work/DeviceTester/amazon-freertos/tests/common/crypto\aws_test_crypto.c ****         "ldnvXn6ilsfICWxj0Xvd+HoDe64ycUmcLUmN2U4NVD42+l9AoZJ6KaewTSiqWo15\n"
  76:D:/Work/DeviceTester/amazon-freertos/tests/common/crypto\aws_test_crypto.c ****         "cMxUs+huysXYS3Kynv/TUTvhqh8yia1mkTFetfDWzgjVsaV0vb9KJcziQXIzAaLc\n"
  77:D:/Work/DeviceTester/amazon-freertos/tests/common/crypto\aws_test_crypto.c ****         "O7WjvCW90YZpxlAwlJgtLfCpD0T1V4vzgT7w2sDMmE8637+3/eDNtP+U/CK+eo0w\n"
  78:D:/Work/DeviceTester/amazon-freertos/tests/common/crypto\aws_test_crypto.c ****         "fjBdyj+3TOG3F6/X4+SFrk+64++CoWuD/y9yJ8FBpPEv2jW2EDWL6quWyqLs1Qye\n"
  79:D:/Work/DeviceTester/amazon-freertos/tests/common/crypto\aws_test_crypto.c ****         "KiOc4Xj4X034Bm9JF5tnaj51igCWrXBcxUHrh2xfkMuQvKyIu6Bkz0IbgQ==\n"
  80:D:/Work/DeviceTester/amazon-freertos/tests/common/crypto\aws_test_crypto.c ****         "-----END CERTIFICATE-----\n";
  81:D:/Work/DeviceTester/amazon-freertos/tests/common/crypto\aws_test_crypto.c ****     uint8_t ucRSA_SHA1Signature[] =
  69              		.loc 1 81 0
  70 0024 012CA0E3 		mov	r2, #256
  71 0028 F8129FE5 		ldr	r1, .L25+4
  72 002c 58008DE2 		add	r0, sp, #88
  73 0030 FEFFFFEB 		bl	memcpy
  74              	.LVL2:
  82:D:/Work/DeviceTester/amazon-freertos/tests/common/crypto\aws_test_crypto.c ****     {
  83:D:/Work/DeviceTester/amazon-freertos/tests/common/crypto\aws_test_crypto.c ****         0x07, 0x77, 0x7C, 0xDD, 0x50, 0xB3, 0xC6, 0x6B, 0x76, 0x1D, 0xC4, 0x99, 0x3C, 0xED, 0xFE, 0
  84:D:/Work/DeviceTester/amazon-freertos/tests/common/crypto\aws_test_crypto.c ****         0xBE, 0x6E, 0x76, 0xD3, 0xBF, 0x2E, 0x2E, 0x28, 0xFD, 0x99, 0x9E, 0xF2, 0xE6, 0x3B, 0x0B, 0
  85:D:/Work/DeviceTester/amazon-freertos/tests/common/crypto\aws_test_crypto.c ****         0x55, 0xB0, 0xE3, 0x67, 0x24, 0x39, 0x24, 0x28, 0x1D, 0xF2, 0x7A, 0x16, 0xA6, 0x17, 0xE3, 0
  86:D:/Work/DeviceTester/amazon-freertos/tests/common/crypto\aws_test_crypto.c ****         0x46, 0x90, 0x09, 0xB6, 0x17, 0x55, 0xB0, 0xA1, 0xA8, 0x55, 0xDC, 0x0C, 0x20, 0x0F, 0xC2, 0
  87:D:/Work/DeviceTester/amazon-freertos/tests/common/crypto\aws_test_crypto.c ****         0x36, 0xE0, 0xCD, 0xAF, 0x31, 0x52, 0x83, 0x7B, 0x12, 0x58, 0x93, 0x77, 0x66, 0x5A, 0x4A, 0
  88:D:/Work/DeviceTester/amazon-freertos/tests/common/crypto\aws_test_crypto.c ****         0xD9, 0x42, 0xAD, 0x5D, 0xA9, 0xF2, 0x2E, 0x5C, 0xBB, 0x14, 0x82, 0x9F, 0xED, 0x10, 0x8A, 0
  89:D:/Work/DeviceTester/amazon-freertos/tests/common/crypto\aws_test_crypto.c ****         0xD3, 0xC8, 0x06, 0xAB, 0xFA, 0x03, 0x65, 0xA8, 0xC5, 0x96, 0xEE, 0xC4, 0xC6, 0x6E, 0x31, 0
  90:D:/Work/DeviceTester/amazon-freertos/tests/common/crypto\aws_test_crypto.c ****         0xA8, 0x23, 0xF9, 0xBF, 0x7C, 0xA7, 0xED, 0xED, 0xA4, 0xCD, 0xD5, 0xD6, 0x5D, 0xE8, 0xCF, 0
  91:D:/Work/DeviceTester/amazon-freertos/tests/common/crypto\aws_test_crypto.c ****         0xFA, 0x5F, 0xA9, 0xB5, 0x1F, 0xF1, 0x8A, 0xB7, 0x1A, 0x12, 0xCD, 0x67, 0xE8, 0x5C, 0x89, 0
  92:D:/Work/DeviceTester/amazon-freertos/tests/common/crypto\aws_test_crypto.c ****         0xD7, 0xDB, 0xD3, 0xD0, 0xBA, 0x01, 0xFA, 0x4E, 0x32, 0xF4, 0x08, 0xB8, 0x3B, 0xC6, 0x5E, 0
  93:D:/Work/DeviceTester/amazon-freertos/tests/common/crypto\aws_test_crypto.c ****         0xF8, 0x9E, 0x06, 0x0B, 0x84, 0x5D, 0x0D, 0xF3, 0x34, 0x4F, 0x17, 0xFE, 0x6F, 0xF6, 0x4F, 0
  94:D:/Work/DeviceTester/amazon-freertos/tests/common/crypto\aws_test_crypto.c ****         0x87, 0xE5, 0x7E, 0x72, 0x23, 0x09, 0x29, 0x69, 0x74, 0xAA, 0x79, 0xA6, 0xBA, 0xCC, 0x46, 0
  95:D:/Work/DeviceTester/amazon-freertos/tests/common/crypto\aws_test_crypto.c ****         0xAC, 0xAE, 0xB9, 0xC4, 0xAE, 0x5C, 0x20, 0x5E, 0x47, 0x02, 0x8B, 0x39, 0x56, 0x5F, 0xC0, 0
  96:D:/Work/DeviceTester/amazon-freertos/tests/common/crypto\aws_test_crypto.c ****         0xEF, 0x82, 0xC5, 0x83, 0x6D, 0x3E, 0x99, 0x05, 0xF0, 0x36, 0x4A, 0x2F, 0xA0, 0x95, 0xC1, 0
  97:D:/Work/DeviceTester/amazon-freertos/tests/common/crypto\aws_test_crypto.c ****         0x6C, 0xBD, 0x3C, 0x33, 0xD3, 0x6F, 0x01, 0x61, 0x51, 0x05, 0x6A, 0x00, 0x82, 0x3D, 0x1F, 0
  98:D:/Work/DeviceTester/amazon-freertos/tests/common/crypto\aws_test_crypto.c ****         0xB8, 0xC1, 0x88, 0xBB, 0xB2, 0xE6, 0x37, 0xBC, 0xA6, 0x5C, 0x4B, 0xAC, 0x02, 0x6E, 0xA3, 0
  99:D:/Work/DeviceTester/amazon-freertos/tests/common/crypto\aws_test_crypto.c ****     };
 100:D:/Work/DeviceTester/amazon-freertos/tests/common/crypto\aws_test_crypto.c ****     uint8_t ucRSA_SHA256Signature[] =
  75              		.loc 1 100 0
  76 0034 012CA0E3 		mov	r2, #256
  77 0038 EC129FE5 		ldr	r1, .L25+8
  78 003c 560F8DE2 		add	r0, sp, #344
  79 0040 FEFFFFEB 		bl	memcpy
  80              	.LVL3:
 101:D:/Work/DeviceTester/amazon-freertos/tests/common/crypto\aws_test_crypto.c ****     {
 102:D:/Work/DeviceTester/amazon-freertos/tests/common/crypto\aws_test_crypto.c ****         0x06, 0x5C, 0x35, 0x49, 0x43, 0x22, 0xDF, 0x12, 0xAE, 0xEE, 0x65, 0x4B, 0x1D, 0x5A, 0x1A, 0
 103:D:/Work/DeviceTester/amazon-freertos/tests/common/crypto\aws_test_crypto.c ****         0xA7, 0xA9, 0x8D, 0x9B, 0xCB, 0x76, 0xC4, 0xF9, 0x36, 0x22, 0xF6, 0xB3, 0x4B, 0x40, 0x3E, 0
 104:D:/Work/DeviceTester/amazon-freertos/tests/common/crypto\aws_test_crypto.c ****         0x5D, 0x9C, 0x33, 0x5E, 0xEB, 0xCC, 0xAB, 0x27, 0xFC, 0x0C, 0x65, 0x72, 0x2E, 0x7D, 0x1D, 0
 105:D:/Work/DeviceTester/amazon-freertos/tests/common/crypto\aws_test_crypto.c ****         0x36, 0xAF, 0xAF, 0xA9, 0x3E, 0x62, 0x4F, 0xFA, 0x9A, 0x5C, 0x52, 0xF2, 0x62, 0x17, 0x9F, 0
 106:D:/Work/DeviceTester/amazon-freertos/tests/common/crypto\aws_test_crypto.c ****         0xE0, 0x22, 0xEC, 0xD1, 0x5F, 0x34, 0x7B, 0x94, 0x2B, 0x0F, 0x4D, 0xD0, 0x65, 0x08, 0x0E, 0
 107:D:/Work/DeviceTester/amazon-freertos/tests/common/crypto\aws_test_crypto.c ****         0xCB, 0xE9, 0x7F, 0x76, 0x0C, 0x4D, 0x5E, 0xD3, 0xF7, 0x9F, 0xEF, 0xD7, 0x28, 0x93, 0x41, 0
 108:D:/Work/DeviceTester/amazon-freertos/tests/common/crypto\aws_test_crypto.c ****         0xF3, 0x9C, 0x94, 0xF4, 0x46, 0x5D, 0x38, 0xF4, 0xAF, 0x23, 0x8A, 0x47, 0x34, 0xDD, 0x33, 0
 109:D:/Work/DeviceTester/amazon-freertos/tests/common/crypto\aws_test_crypto.c ****         0x47, 0x5C, 0x8D, 0xD5, 0x10, 0x61, 0x8E, 0x2C, 0x3E, 0x77, 0xA0, 0xBB, 0x7B, 0xE7, 0x4D, 0
 110:D:/Work/DeviceTester/amazon-freertos/tests/common/crypto\aws_test_crypto.c ****         0x6E, 0x65, 0xA2, 0x07, 0x5B, 0xB7, 0xC9, 0x85, 0xC3, 0x96, 0x98, 0xA9, 0x1E, 0x90, 0xB0, 0
 111:D:/Work/DeviceTester/amazon-freertos/tests/common/crypto\aws_test_crypto.c ****         0x07, 0xE7, 0x8C, 0xB0, 0x8B, 0x25, 0x66, 0x9F, 0xDB, 0xB6, 0x11, 0x25, 0x60, 0xA1, 0x46, 0
 112:D:/Work/DeviceTester/amazon-freertos/tests/common/crypto\aws_test_crypto.c ****         0xEB, 0x48, 0x65, 0xE4, 0x5D, 0xB8, 0xD3, 0x42, 0x58, 0xC9, 0xB5, 0x01, 0x8E, 0xFF, 0x35, 0
 113:D:/Work/DeviceTester/amazon-freertos/tests/common/crypto\aws_test_crypto.c ****         0x67, 0x45, 0xE8, 0x62, 0xBD, 0xB5, 0xA0, 0x9E, 0x87, 0xA4, 0xE9, 0xDD, 0xC8, 0xE6, 0x39, 0
 114:D:/Work/DeviceTester/amazon-freertos/tests/common/crypto\aws_test_crypto.c ****         0x97, 0x2B, 0xF1, 0x04, 0x99, 0x8F, 0xB6, 0xD7, 0xD6, 0xFE, 0xAF, 0x35, 0xC2, 0xC1, 0x62, 0
 115:D:/Work/DeviceTester/amazon-freertos/tests/common/crypto\aws_test_crypto.c ****         0x1C, 0x33, 0x55, 0x87, 0xA9, 0xE9, 0xBC, 0xEF, 0x5E, 0xBC, 0xB7, 0x79, 0xCF, 0xF5, 0xB5, 0
 116:D:/Work/DeviceTester/amazon-freertos/tests/common/crypto\aws_test_crypto.c ****         0x4A, 0xC8, 0xD9, 0xD0, 0xA2, 0xE9, 0x47, 0x72, 0x04, 0x23, 0xD1, 0x90, 0x1C, 0x61, 0x3B, 0
 117:D:/Work/DeviceTester/amazon-freertos/tests/common/crypto\aws_test_crypto.c ****         0x9A, 0xFC, 0xAC, 0x4D, 0x35, 0xE2, 0xE3, 0xA6, 0x90, 0x3A, 0x3E, 0xFA, 0x92, 0x0F, 0xA4, 0
 118:D:/Work/DeviceTester/amazon-freertos/tests/common/crypto\aws_test_crypto.c ****     };
 119:D:/Work/DeviceTester/amazon-freertos/tests/common/crypto\aws_test_crypto.c ****     char cSignerCertificateECDSA[] =
  81              		.loc 1 119 0
  82 0044 2F2300E3 		movw	r2, #815
  83 0048 E0129FE5 		ldr	r1, .L25+12
  84 004c 960F8DE2 		add	r0, sp, #600
  85 0050 FEFFFFEB 		bl	memcpy
  86              	.LVL4:
 120:D:/Work/DeviceTester/amazon-freertos/tests/common/crypto\aws_test_crypto.c ****         "-----BEGIN CERTIFICATE-----\n"
 121:D:/Work/DeviceTester/amazon-freertos/tests/common/crypto\aws_test_crypto.c ****         "MIICKzCCAdGgAwIBAgIJAKNGg1OpqFRbMAoGCCqGSM49BAMCMHIxCzAJBgNVBAYT\n"
 122:D:/Work/DeviceTester/amazon-freertos/tests/common/crypto\aws_test_crypto.c ****         "AlVTMQswCQYDVQQIDAJXQTEQMA4GA1UEBwwHU2VhdHRsZTEMMAoGA1UECgwDQVdT\n"
 123:D:/Work/DeviceTester/amazon-freertos/tests/common/crypto\aws_test_crypto.c ****         "MQwwCgYDVQQLDANJb1QxDDAKBgNVBAMMA0RhbjEaMBgGCSqGSIb3DQEJARYLZGFu\n"
 124:D:/Work/DeviceTester/amazon-freertos/tests/common/crypto\aws_test_crypto.c ****         "QGZvby5jb20wHhcNMTcwODAxMTUzOTQ4WhcNMTgwODAxMTUzOTQ4WjByMQswCQYD\n"
 125:D:/Work/DeviceTester/amazon-freertos/tests/common/crypto\aws_test_crypto.c ****         "VQQGEwJVUzELMAkGA1UECAwCV0ExEDAOBgNVBAcMB1NlYXR0bGUxDDAKBgNVBAoM\n"
 126:D:/Work/DeviceTester/amazon-freertos/tests/common/crypto\aws_test_crypto.c ****         "A0FXUzEMMAoGA1UECwwDSW9UMQwwCgYDVQQDDANEYW4xGjAYBgkqhkiG9w0BCQEW\n"
 127:D:/Work/DeviceTester/amazon-freertos/tests/common/crypto\aws_test_crypto.c ****         "C2RhbkBmb28uY29tMFkwEwYHKoZIzj0CAQYIKoZIzj0DAQcDQgAEQXHTh/4Bglwa\n"
 128:D:/Work/DeviceTester/amazon-freertos/tests/common/crypto\aws_test_crypto.c ****         "P9Eb4UzekSAbdO7pjTOxiHcySJbF77HwB54VNpURb4Ezdbinq/i/4ZWAgrtXZqAH\n"
 129:D:/Work/DeviceTester/amazon-freertos/tests/common/crypto\aws_test_crypto.c ****         "3SRhMnIOuKNQME4wHQYDVR0OBBYEFJDG0d5hX9C14PmtSq3pC0cfTjVyMB8GA1Ud\n"
 130:D:/Work/DeviceTester/amazon-freertos/tests/common/crypto\aws_test_crypto.c ****         "IwQYMBaAFJDG0d5hX9C14PmtSq3pC0cfTjVyMAwGA1UdEwQFMAMBAf8wCgYIKoZI\n"
 131:D:/Work/DeviceTester/amazon-freertos/tests/common/crypto\aws_test_crypto.c ****         "zj0EAwIDSAAwRQIgfqoTxQqp0eW5rEOZt36vcdVC989DLAMfrdEo49IxjxACIQDX\n"
 132:D:/Work/DeviceTester/amazon-freertos/tests/common/crypto\aws_test_crypto.c ****         "iR2uXx4o5BNFKfk+aD60EEtFV9tdLvxMYNJy9ftnsg==\n"
 133:D:/Work/DeviceTester/amazon-freertos/tests/common/crypto\aws_test_crypto.c ****         "-----END CERTIFICATE-----\n";
 134:D:/Work/DeviceTester/amazon-freertos/tests/common/crypto\aws_test_crypto.c ****     uint8_t ucECDSA_SHA256Signature[] =
  87              		.loc 1 134 0
  88 0054 4720A0E3 		mov	r2, #71
  89 0058 D4129FE5 		ldr	r1, .L25+16
  90 005c 10008DE2 		add	r0, sp, #16
  91 0060 FEFFFFEB 		bl	memcpy
  92              	.LVL5:
 135:D:/Work/DeviceTester/amazon-freertos/tests/common/crypto\aws_test_crypto.c ****     {
 136:D:/Work/DeviceTester/amazon-freertos/tests/common/crypto\aws_test_crypto.c ****         0x30, 0x45, 0x02, 0x20, 0x5C, 0xF5, 0x58, 0x76, 0x9F, 0xFC, 0x7E, 0xDE, 0x34, 0xAC, 0x72, 0
 137:D:/Work/DeviceTester/amazon-freertos/tests/common/crypto\aws_test_crypto.c ****         0x1A, 0x8B, 0xF9, 0x63, 0xBB, 0x72, 0x3A, 0x08, 0xCA, 0x70, 0x16, 0xE0, 0x9D, 0x6F, 0xBD, 0
 138:D:/Work/DeviceTester/amazon-freertos/tests/common/crypto\aws_test_crypto.c ****         0xEA, 0x22, 0x61, 0x2F, 0x02, 0x21, 0x00, 0xCD, 0x68, 0xB8, 0x49, 0x81, 0x88, 0x3C, 0xD3, 0
 139:D:/Work/DeviceTester/amazon-freertos/tests/common/crypto\aws_test_crypto.c ****         0x2D, 0x15, 0x30, 0xB2, 0xCF, 0xF0, 0x6B, 0x3C, 0xB9, 0x8A, 0x92, 0xE8, 0x70, 0x5F, 0x50, 0
 140:D:/Work/DeviceTester/amazon-freertos/tests/common/crypto\aws_test_crypto.c ****         0x00, 0xC0, 0xDF, 0x6E, 0x3A, 0xF5, 0x27
 141:D:/Work/DeviceTester/amazon-freertos/tests/common/crypto\aws_test_crypto.c ****     };
 142:D:/Work/DeviceTester/amazon-freertos/tests/common/crypto\aws_test_crypto.c **** 
 143:D:/Work/DeviceTester/amazon-freertos/tests/common/crypto\aws_test_crypto.c **** #define TEST_DATA_TO_SIGN_BYTES    1024
 144:D:/Work/DeviceTester/amazon-freertos/tests/common/crypto\aws_test_crypto.c ****     uint8_t ucDataToSign[ TEST_DATA_TO_SIGN_BYTES ] = { 0 };
  93              		.loc 1 144 0
  94 0064 160D8DE2 		add	r0, sp, #1408
  95 0068 012BA0E3 		mov	r2, #1024
  96 006c 0410A0E1 		mov	r1, r4
  97 0070 080080E2 		add	r0, r0, #8
  98 0074 FEFFFFEB 		bl	memset
  99              	.LVL6:
 145:D:/Work/DeviceTester/amazon-freertos/tests/common/crypto\aws_test_crypto.c **** 
 146:D:/Work/DeviceTester/amazon-freertos/tests/common/crypto\aws_test_crypto.c ****     /** \brief Verify an RSA-SHA256 signature test vector.
 147:D:/Work/DeviceTester/amazon-freertos/tests/common/crypto\aws_test_crypto.c ****      *  @{
 148:D:/Work/DeviceTester/amazon-freertos/tests/common/crypto\aws_test_crypto.c ****      */
 149:D:/Work/DeviceTester/amazon-freertos/tests/common/crypto\aws_test_crypto.c **** 
 150:D:/Work/DeviceTester/amazon-freertos/tests/common/crypto\aws_test_crypto.c ****     xResult = CRYPTO_SignatureVerificationStart(
 100              		.loc 1 150 0
 101 0078 0220A0E3 		mov	r2, #2
 102 007c 0110A0E3 		mov	r1, #1
 103 0080 0C008DE2 		add	r0, sp, #12
 104 0084 FEFFFFEB 		bl	CRYPTO_SignatureVerificationStart
 105              	.LVL7:
 151:D:/Work/DeviceTester/amazon-freertos/tests/common/crypto\aws_test_crypto.c ****         &pvSignatureVerificationContext,
 152:D:/Work/DeviceTester/amazon-freertos/tests/common/crypto\aws_test_crypto.c ****         cryptoASYMMETRIC_ALGORITHM_RSA,
 153:D:/Work/DeviceTester/amazon-freertos/tests/common/crypto\aws_test_crypto.c ****         cryptoHASH_ALGORITHM_SHA256 );
 154:D:/Work/DeviceTester/amazon-freertos/tests/common/crypto\aws_test_crypto.c ****     TEST_ASSERT_TRUE( xResult );
 106              		.loc 1 154 0
 107 0088 040050E1 		cmp	r0, r4
 108 008c 0200001A 		bne	.L3
 109              		.loc 1 154 0 is_stmt 0 discriminator 1
 110 0090 9A10A0E3 		mov	r1, #154
 111 0094 9C029FE5 		ldr	r0, .L25+20
 112              	.LVL8:
 113 0098 FEFFFFEB 		bl	UnityFail
 114              	.LVL9:
 115              	.L3:
 155:D:/Work/DeviceTester/amazon-freertos/tests/common/crypto\aws_test_crypto.c **** 
 156:D:/Work/DeviceTester/amazon-freertos/tests/common/crypto\aws_test_crypto.c ****     CRYPTO_SignatureVerificationUpdate(
 116              		.loc 1 156 0 is_stmt 1
 117 009c 161D8DE2 		add	r1, sp, #1408
 118 00a0 012BA0E3 		mov	r2, #1024
 119 00a4 081081E2 		add	r1, r1, #8
 120 00a8 0C009DE5 		ldr	r0, [sp, #12]
 121 00ac FEFFFFEB 		bl	CRYPTO_SignatureVerificationUpdate
 122              	.LVL10:
 157:D:/Work/DeviceTester/amazon-freertos/tests/common/crypto\aws_test_crypto.c ****         pvSignatureVerificationContext,
 158:D:/Work/DeviceTester/amazon-freertos/tests/common/crypto\aws_test_crypto.c ****         ucDataToSign,
 159:D:/Work/DeviceTester/amazon-freertos/tests/common/crypto\aws_test_crypto.c ****         sizeof( ucDataToSign ) );
 160:D:/Work/DeviceTester/amazon-freertos/tests/common/crypto\aws_test_crypto.c **** 
 161:D:/Work/DeviceTester/amazon-freertos/tests/common/crypto\aws_test_crypto.c ****     xResult = CRYPTO_SignatureVerificationFinal(
 123              		.loc 1 161 0
 124 00b0 013CA0E3 		mov	r3, #256
 125 00b4 261D8DE2 		add	r1, sp, #2432
 126 00b8 00308DE5 		str	r3, [sp]
 127 00bc 472500E3 		movw	r2, #1351
 128 00c0 563F8DE2 		add	r3, sp, #344
 129 00c4 081081E2 		add	r1, r1, #8
 130 00c8 0C009DE5 		ldr	r0, [sp, #12]
 131 00cc FEFFFFEB 		bl	CRYPTO_SignatureVerificationFinal
 132              	.LVL11:
 162:D:/Work/DeviceTester/amazon-freertos/tests/common/crypto\aws_test_crypto.c ****         pvSignatureVerificationContext,
 163:D:/Work/DeviceTester/amazon-freertos/tests/common/crypto\aws_test_crypto.c ****         cSignerCertificateRSA,
 164:D:/Work/DeviceTester/amazon-freertos/tests/common/crypto\aws_test_crypto.c ****         sizeof( cSignerCertificateRSA ),
 165:D:/Work/DeviceTester/amazon-freertos/tests/common/crypto\aws_test_crypto.c ****         ucRSA_SHA256Signature,
 166:D:/Work/DeviceTester/amazon-freertos/tests/common/crypto\aws_test_crypto.c ****         sizeof( ucRSA_SHA256Signature ) );
 167:D:/Work/DeviceTester/amazon-freertos/tests/common/crypto\aws_test_crypto.c ****     TEST_ASSERT_TRUE( xResult );
 133              		.loc 1 167 0
 134 00d0 000050E3 		cmp	r0, #0
 135 00d4 0200001A 		bne	.L4
 136              		.loc 1 167 0 is_stmt 0 discriminator 1
 137 00d8 A710A0E3 		mov	r1, #167
 138 00dc 54029FE5 		ldr	r0, .L25+20
 139              	.LVL12:
 140 00e0 FEFFFFEB 		bl	UnityFail
 141              	.LVL13:
 142              	.L4:
 168:D:/Work/DeviceTester/amazon-freertos/tests/common/crypto\aws_test_crypto.c **** 
 169:D:/Work/DeviceTester/amazon-freertos/tests/common/crypto\aws_test_crypto.c ****     /* Flip the bits of first byte, this should fail the verification. */
 170:D:/Work/DeviceTester/amazon-freertos/tests/common/crypto\aws_test_crypto.c ****     ucRSA_SHA256Signature[ 0 ] = ~ucRSA_SHA256Signature[ 0 ];
 143              		.loc 1 170 0 is_stmt 1
 144 00e4 5831DDE5 		ldrb	r3, [sp, #344]	@ zero_extendqisi2
 171:D:/Work/DeviceTester/amazon-freertos/tests/common/crypto\aws_test_crypto.c **** 
 172:D:/Work/DeviceTester/amazon-freertos/tests/common/crypto\aws_test_crypto.c ****     xResult = CRYPTO_SignatureVerificationStart(
 145              		.loc 1 172 0
 146 00e8 0220A0E3 		mov	r2, #2
 147 00ec 0110A0E3 		mov	r1, #1
 148 00f0 0C008DE2 		add	r0, sp, #12
 170:D:/Work/DeviceTester/amazon-freertos/tests/common/crypto\aws_test_crypto.c **** 
 149              		.loc 1 170 0
 150 00f4 0330E0E1 		mvn	r3, r3
 151 00f8 5831CDE5 		strb	r3, [sp, #344]
 152              		.loc 1 172 0
 153 00fc FEFFFFEB 		bl	CRYPTO_SignatureVerificationStart
 154              	.LVL14:
 173:D:/Work/DeviceTester/amazon-freertos/tests/common/crypto\aws_test_crypto.c ****         &pvSignatureVerificationContext,
 174:D:/Work/DeviceTester/amazon-freertos/tests/common/crypto\aws_test_crypto.c ****         cryptoASYMMETRIC_ALGORITHM_RSA,
 175:D:/Work/DeviceTester/amazon-freertos/tests/common/crypto\aws_test_crypto.c ****         cryptoHASH_ALGORITHM_SHA256 );
 176:D:/Work/DeviceTester/amazon-freertos/tests/common/crypto\aws_test_crypto.c ****     TEST_ASSERT_TRUE( xResult );
 155              		.loc 1 176 0
 156 0100 000050E3 		cmp	r0, #0
 157 0104 0200001A 		bne	.L5
 158              		.loc 1 176 0 is_stmt 0 discriminator 1
 159 0108 B010A0E3 		mov	r1, #176
 160 010c 24029FE5 		ldr	r0, .L25+20
 161              	.LVL15:
 162 0110 FEFFFFEB 		bl	UnityFail
 163              	.LVL16:
 164              	.L5:
 177:D:/Work/DeviceTester/amazon-freertos/tests/common/crypto\aws_test_crypto.c **** 
 178:D:/Work/DeviceTester/amazon-freertos/tests/common/crypto\aws_test_crypto.c ****     CRYPTO_SignatureVerificationUpdate(
 165              		.loc 1 178 0 is_stmt 1
 166 0114 161D8DE2 		add	r1, sp, #1408
 167 0118 012BA0E3 		mov	r2, #1024
 168 011c 081081E2 		add	r1, r1, #8
 169 0120 0C009DE5 		ldr	r0, [sp, #12]
 170 0124 FEFFFFEB 		bl	CRYPTO_SignatureVerificationUpdate
 171              	.LVL17:
 179:D:/Work/DeviceTester/amazon-freertos/tests/common/crypto\aws_test_crypto.c ****         pvSignatureVerificationContext,
 180:D:/Work/DeviceTester/amazon-freertos/tests/common/crypto\aws_test_crypto.c ****         ucDataToSign,
 181:D:/Work/DeviceTester/amazon-freertos/tests/common/crypto\aws_test_crypto.c ****         sizeof( ucDataToSign ) );
 182:D:/Work/DeviceTester/amazon-freertos/tests/common/crypto\aws_test_crypto.c **** 
 183:D:/Work/DeviceTester/amazon-freertos/tests/common/crypto\aws_test_crypto.c ****     xResult = CRYPTO_SignatureVerificationFinal(
 172              		.loc 1 183 0
 173 0128 013CA0E3 		mov	r3, #256
 174 012c 261D8DE2 		add	r1, sp, #2432
 175 0130 00308DE5 		str	r3, [sp]
 176 0134 472500E3 		movw	r2, #1351
 177 0138 563F8DE2 		add	r3, sp, #344
 178 013c 081081E2 		add	r1, r1, #8
 179 0140 0C009DE5 		ldr	r0, [sp, #12]
 180 0144 FEFFFFEB 		bl	CRYPTO_SignatureVerificationFinal
 181              	.LVL18:
 184:D:/Work/DeviceTester/amazon-freertos/tests/common/crypto\aws_test_crypto.c ****         pvSignatureVerificationContext,
 185:D:/Work/DeviceTester/amazon-freertos/tests/common/crypto\aws_test_crypto.c ****         cSignerCertificateRSA,
 186:D:/Work/DeviceTester/amazon-freertos/tests/common/crypto\aws_test_crypto.c ****         sizeof( cSignerCertificateRSA ),
 187:D:/Work/DeviceTester/amazon-freertos/tests/common/crypto\aws_test_crypto.c ****         ucRSA_SHA256Signature,
 188:D:/Work/DeviceTester/amazon-freertos/tests/common/crypto\aws_test_crypto.c ****         sizeof( ucRSA_SHA256Signature ) );
 189:D:/Work/DeviceTester/amazon-freertos/tests/common/crypto\aws_test_crypto.c ****     TEST_ASSERT_FALSE( xResult );
 182              		.loc 1 189 0
 183 0148 000050E3 		cmp	r0, #0
 184 014c 0200000A 		beq	.L6
 185              		.loc 1 189 0 is_stmt 0 discriminator 1
 186 0150 BD10A0E3 		mov	r1, #189
 187 0154 E0019FE5 		ldr	r0, .L25+24
 188              	.LVL19:
 189 0158 FEFFFFEB 		bl	UnityFail
 190              	.LVL20:
 191              	.L6:
 190:D:/Work/DeviceTester/amazon-freertos/tests/common/crypto\aws_test_crypto.c ****     /** @}*/
 191:D:/Work/DeviceTester/amazon-freertos/tests/common/crypto\aws_test_crypto.c **** 
 192:D:/Work/DeviceTester/amazon-freertos/tests/common/crypto\aws_test_crypto.c ****     /** \brief Verify an RSA-SHA1 signature test vector.
 193:D:/Work/DeviceTester/amazon-freertos/tests/common/crypto\aws_test_crypto.c ****      *  @{
 194:D:/Work/DeviceTester/amazon-freertos/tests/common/crypto\aws_test_crypto.c ****      */
 195:D:/Work/DeviceTester/amazon-freertos/tests/common/crypto\aws_test_crypto.c **** 
 196:D:/Work/DeviceTester/amazon-freertos/tests/common/crypto\aws_test_crypto.c ****     xResult = CRYPTO_SignatureVerificationStart(
 192              		.loc 1 196 0 is_stmt 1
 193 015c 0120A0E3 		mov	r2, #1
 194 0160 0C008DE2 		add	r0, sp, #12
 195 0164 0210A0E1 		mov	r1, r2
 196 0168 FEFFFFEB 		bl	CRYPTO_SignatureVerificationStart
 197              	.LVL21:
 197:D:/Work/DeviceTester/amazon-freertos/tests/common/crypto\aws_test_crypto.c ****         &pvSignatureVerificationContext,
 198:D:/Work/DeviceTester/amazon-freertos/tests/common/crypto\aws_test_crypto.c ****         cryptoASYMMETRIC_ALGORITHM_RSA,
 199:D:/Work/DeviceTester/amazon-freertos/tests/common/crypto\aws_test_crypto.c ****         cryptoHASH_ALGORITHM_SHA1 );
 200:D:/Work/DeviceTester/amazon-freertos/tests/common/crypto\aws_test_crypto.c ****     TEST_ASSERT_TRUE( xResult );
 198              		.loc 1 200 0
 199 016c 000050E3 		cmp	r0, #0
 200 0170 0200001A 		bne	.L7
 201              		.loc 1 200 0 is_stmt 0 discriminator 1
 202 0174 C810A0E3 		mov	r1, #200
 203 0178 B8019FE5 		ldr	r0, .L25+20
 204              	.LVL22:
 205 017c FEFFFFEB 		bl	UnityFail
 206              	.LVL23:
 207              	.L7:
 201:D:/Work/DeviceTester/amazon-freertos/tests/common/crypto\aws_test_crypto.c **** 
 202:D:/Work/DeviceTester/amazon-freertos/tests/common/crypto\aws_test_crypto.c ****     CRYPTO_SignatureVerificationUpdate(
 208              		.loc 1 202 0 is_stmt 1
 209 0180 161D8DE2 		add	r1, sp, #1408
 210 0184 012BA0E3 		mov	r2, #1024
 211 0188 081081E2 		add	r1, r1, #8
 212 018c 0C009DE5 		ldr	r0, [sp, #12]
 213 0190 FEFFFFEB 		bl	CRYPTO_SignatureVerificationUpdate
 214              	.LVL24:
 203:D:/Work/DeviceTester/amazon-freertos/tests/common/crypto\aws_test_crypto.c ****         pvSignatureVerificationContext,
 204:D:/Work/DeviceTester/amazon-freertos/tests/common/crypto\aws_test_crypto.c ****         ucDataToSign,
 205:D:/Work/DeviceTester/amazon-freertos/tests/common/crypto\aws_test_crypto.c ****         sizeof( ucDataToSign ) );
 206:D:/Work/DeviceTester/amazon-freertos/tests/common/crypto\aws_test_crypto.c **** 
 207:D:/Work/DeviceTester/amazon-freertos/tests/common/crypto\aws_test_crypto.c ****     xResult = CRYPTO_SignatureVerificationFinal(
 215              		.loc 1 207 0
 216 0194 013CA0E3 		mov	r3, #256
 217 0198 261D8DE2 		add	r1, sp, #2432
 218 019c 00308DE5 		str	r3, [sp]
 219 01a0 472500E3 		movw	r2, #1351
 220 01a4 58308DE2 		add	r3, sp, #88
 221 01a8 081081E2 		add	r1, r1, #8
 222 01ac 0C009DE5 		ldr	r0, [sp, #12]
 223 01b0 FEFFFFEB 		bl	CRYPTO_SignatureVerificationFinal
 224              	.LVL25:
 208:D:/Work/DeviceTester/amazon-freertos/tests/common/crypto\aws_test_crypto.c ****         pvSignatureVerificationContext,
 209:D:/Work/DeviceTester/amazon-freertos/tests/common/crypto\aws_test_crypto.c ****         cSignerCertificateRSA,
 210:D:/Work/DeviceTester/amazon-freertos/tests/common/crypto\aws_test_crypto.c ****         sizeof( cSignerCertificateRSA ),
 211:D:/Work/DeviceTester/amazon-freertos/tests/common/crypto\aws_test_crypto.c ****         ucRSA_SHA1Signature,
 212:D:/Work/DeviceTester/amazon-freertos/tests/common/crypto\aws_test_crypto.c ****         sizeof( ucRSA_SHA1Signature ) );
 213:D:/Work/DeviceTester/amazon-freertos/tests/common/crypto\aws_test_crypto.c ****     TEST_ASSERT_TRUE( xResult );
 225              		.loc 1 213 0
 226 01b4 000050E3 		cmp	r0, #0
 227 01b8 0200001A 		bne	.L8
 228              		.loc 1 213 0 is_stmt 0 discriminator 1
 229 01bc D510A0E3 		mov	r1, #213
 230 01c0 70019FE5 		ldr	r0, .L25+20
 231              	.LVL26:
 232 01c4 FEFFFFEB 		bl	UnityFail
 233              	.LVL27:
 234              	.L8:
 214:D:/Work/DeviceTester/amazon-freertos/tests/common/crypto\aws_test_crypto.c **** 
 215:D:/Work/DeviceTester/amazon-freertos/tests/common/crypto\aws_test_crypto.c ****     /* Flip the bits of first byte, this should fail the verification. */
 216:D:/Work/DeviceTester/amazon-freertos/tests/common/crypto\aws_test_crypto.c ****     ucRSA_SHA1Signature[ 0 ] = ~ucRSA_SHA1Signature[ 0 ];
 235              		.loc 1 216 0 is_stmt 1
 236 01c8 5830DDE5 		ldrb	r3, [sp, #88]	@ zero_extendqisi2
 217:D:/Work/DeviceTester/amazon-freertos/tests/common/crypto\aws_test_crypto.c **** 
 218:D:/Work/DeviceTester/amazon-freertos/tests/common/crypto\aws_test_crypto.c ****     xResult = CRYPTO_SignatureVerificationStart(
 237              		.loc 1 218 0
 238 01cc 0120A0E3 		mov	r2, #1
 239 01d0 0210A0E1 		mov	r1, r2
 240 01d4 0C008DE2 		add	r0, sp, #12
 216:D:/Work/DeviceTester/amazon-freertos/tests/common/crypto\aws_test_crypto.c **** 
 241              		.loc 1 216 0
 242 01d8 0330E0E1 		mvn	r3, r3
 243 01dc 5830CDE5 		strb	r3, [sp, #88]
 244              		.loc 1 218 0
 245 01e0 FEFFFFEB 		bl	CRYPTO_SignatureVerificationStart
 246              	.LVL28:
 219:D:/Work/DeviceTester/amazon-freertos/tests/common/crypto\aws_test_crypto.c ****         &pvSignatureVerificationContext,
 220:D:/Work/DeviceTester/amazon-freertos/tests/common/crypto\aws_test_crypto.c ****         cryptoASYMMETRIC_ALGORITHM_RSA,
 221:D:/Work/DeviceTester/amazon-freertos/tests/common/crypto\aws_test_crypto.c ****         cryptoHASH_ALGORITHM_SHA1 );
 222:D:/Work/DeviceTester/amazon-freertos/tests/common/crypto\aws_test_crypto.c ****     TEST_ASSERT_TRUE( xResult );
 247              		.loc 1 222 0
 248 01e4 000050E3 		cmp	r0, #0
 249 01e8 0200001A 		bne	.L9
 250              		.loc 1 222 0 is_stmt 0 discriminator 1
 251 01ec DE10A0E3 		mov	r1, #222
 252 01f0 40019FE5 		ldr	r0, .L25+20
 253              	.LVL29:
 254 01f4 FEFFFFEB 		bl	UnityFail
 255              	.LVL30:
 256              	.L9:
 223:D:/Work/DeviceTester/amazon-freertos/tests/common/crypto\aws_test_crypto.c **** 
 224:D:/Work/DeviceTester/amazon-freertos/tests/common/crypto\aws_test_crypto.c ****     CRYPTO_SignatureVerificationUpdate(
 257              		.loc 1 224 0 is_stmt 1
 258 01f8 161D8DE2 		add	r1, sp, #1408
 259 01fc 012BA0E3 		mov	r2, #1024
 260 0200 081081E2 		add	r1, r1, #8
 261 0204 0C009DE5 		ldr	r0, [sp, #12]
 262 0208 FEFFFFEB 		bl	CRYPTO_SignatureVerificationUpdate
 263              	.LVL31:
 225:D:/Work/DeviceTester/amazon-freertos/tests/common/crypto\aws_test_crypto.c ****         pvSignatureVerificationContext,
 226:D:/Work/DeviceTester/amazon-freertos/tests/common/crypto\aws_test_crypto.c ****         ucDataToSign,
 227:D:/Work/DeviceTester/amazon-freertos/tests/common/crypto\aws_test_crypto.c ****         sizeof( ucDataToSign ) );
 228:D:/Work/DeviceTester/amazon-freertos/tests/common/crypto\aws_test_crypto.c **** 
 229:D:/Work/DeviceTester/amazon-freertos/tests/common/crypto\aws_test_crypto.c ****     xResult = CRYPTO_SignatureVerificationFinal(
 264              		.loc 1 229 0
 265 020c 013CA0E3 		mov	r3, #256
 266 0210 261D8DE2 		add	r1, sp, #2432
 267 0214 00308DE5 		str	r3, [sp]
 268 0218 472500E3 		movw	r2, #1351
 269 021c 58308DE2 		add	r3, sp, #88
 270 0220 081081E2 		add	r1, r1, #8
 271 0224 0C009DE5 		ldr	r0, [sp, #12]
 272 0228 FEFFFFEB 		bl	CRYPTO_SignatureVerificationFinal
 273              	.LVL32:
 230:D:/Work/DeviceTester/amazon-freertos/tests/common/crypto\aws_test_crypto.c ****         pvSignatureVerificationContext,
 231:D:/Work/DeviceTester/amazon-freertos/tests/common/crypto\aws_test_crypto.c ****         cSignerCertificateRSA,
 232:D:/Work/DeviceTester/amazon-freertos/tests/common/crypto\aws_test_crypto.c ****         sizeof( cSignerCertificateRSA ),
 233:D:/Work/DeviceTester/amazon-freertos/tests/common/crypto\aws_test_crypto.c ****         ucRSA_SHA1Signature,
 234:D:/Work/DeviceTester/amazon-freertos/tests/common/crypto\aws_test_crypto.c ****         sizeof( ucRSA_SHA1Signature ) );
 235:D:/Work/DeviceTester/amazon-freertos/tests/common/crypto\aws_test_crypto.c ****     TEST_ASSERT_FALSE( xResult );
 274              		.loc 1 235 0
 275 022c 000050E3 		cmp	r0, #0
 276 0230 0200000A 		beq	.L10
 277              		.loc 1 235 0 is_stmt 0 discriminator 1
 278 0234 EB10A0E3 		mov	r1, #235
 279 0238 FC009FE5 		ldr	r0, .L25+24
 280              	.LVL33:
 281 023c FEFFFFEB 		bl	UnityFail
 282              	.LVL34:
 283              	.L10:
 236:D:/Work/DeviceTester/amazon-freertos/tests/common/crypto\aws_test_crypto.c ****     /** @}*/
 237:D:/Work/DeviceTester/amazon-freertos/tests/common/crypto\aws_test_crypto.c **** 
 238:D:/Work/DeviceTester/amazon-freertos/tests/common/crypto\aws_test_crypto.c ****     /** \brief Verify an ECDSA signature test vector.
 239:D:/Work/DeviceTester/amazon-freertos/tests/common/crypto\aws_test_crypto.c ****      *  @{
 240:D:/Work/DeviceTester/amazon-freertos/tests/common/crypto\aws_test_crypto.c ****      */
 241:D:/Work/DeviceTester/amazon-freertos/tests/common/crypto\aws_test_crypto.c **** 
 242:D:/Work/DeviceTester/amazon-freertos/tests/common/crypto\aws_test_crypto.c ****     xResult = CRYPTO_SignatureVerificationStart(
 284              		.loc 1 242 0 is_stmt 1
 285 0240 0220A0E3 		mov	r2, #2
 286 0244 0C008DE2 		add	r0, sp, #12
 287 0248 0210A0E1 		mov	r1, r2
 288 024c FEFFFFEB 		bl	CRYPTO_SignatureVerificationStart
 289              	.LVL35:
 243:D:/Work/DeviceTester/amazon-freertos/tests/common/crypto\aws_test_crypto.c ****         &pvSignatureVerificationContext,
 244:D:/Work/DeviceTester/amazon-freertos/tests/common/crypto\aws_test_crypto.c ****         cryptoASYMMETRIC_ALGORITHM_ECDSA,
 245:D:/Work/DeviceTester/amazon-freertos/tests/common/crypto\aws_test_crypto.c ****         cryptoHASH_ALGORITHM_SHA256 );
 246:D:/Work/DeviceTester/amazon-freertos/tests/common/crypto\aws_test_crypto.c ****     TEST_ASSERT_TRUE( xResult );
 290              		.loc 1 246 0
 291 0250 000050E3 		cmp	r0, #0
 292 0254 0200001A 		bne	.L11
 293              		.loc 1 246 0 is_stmt 0 discriminator 1
 294 0258 F610A0E3 		mov	r1, #246
 295 025c D4009FE5 		ldr	r0, .L25+20
 296              	.LVL36:
 297 0260 FEFFFFEB 		bl	UnityFail
 298              	.LVL37:
 299              	.L11:
 247:D:/Work/DeviceTester/amazon-freertos/tests/common/crypto\aws_test_crypto.c **** 
 248:D:/Work/DeviceTester/amazon-freertos/tests/common/crypto\aws_test_crypto.c ****     CRYPTO_SignatureVerificationUpdate(
 300              		.loc 1 248 0 is_stmt 1
 301 0264 161D8DE2 		add	r1, sp, #1408
 302 0268 012BA0E3 		mov	r2, #1024
 303 026c 081081E2 		add	r1, r1, #8
 304 0270 0C009DE5 		ldr	r0, [sp, #12]
 305 0274 FEFFFFEB 		bl	CRYPTO_SignatureVerificationUpdate
 306              	.LVL38:
 249:D:/Work/DeviceTester/amazon-freertos/tests/common/crypto\aws_test_crypto.c ****         pvSignatureVerificationContext,
 250:D:/Work/DeviceTester/amazon-freertos/tests/common/crypto\aws_test_crypto.c ****         ucDataToSign,
 251:D:/Work/DeviceTester/amazon-freertos/tests/common/crypto\aws_test_crypto.c ****         sizeof( ucDataToSign ) );
 252:D:/Work/DeviceTester/amazon-freertos/tests/common/crypto\aws_test_crypto.c **** 
 253:D:/Work/DeviceTester/amazon-freertos/tests/common/crypto\aws_test_crypto.c ****     xResult = CRYPTO_SignatureVerificationFinal(
 307              		.loc 1 253 0
 308 0278 4730A0E3 		mov	r3, #71
 309 027c 2F2300E3 		movw	r2, #815
 310 0280 00308DE5 		str	r3, [sp]
 311 0284 961F8DE2 		add	r1, sp, #600
 312 0288 10308DE2 		add	r3, sp, #16
 313 028c 0C009DE5 		ldr	r0, [sp, #12]
 314 0290 FEFFFFEB 		bl	CRYPTO_SignatureVerificationFinal
 315              	.LVL39:
 254:D:/Work/DeviceTester/amazon-freertos/tests/common/crypto\aws_test_crypto.c ****         pvSignatureVerificationContext,
 255:D:/Work/DeviceTester/amazon-freertos/tests/common/crypto\aws_test_crypto.c ****         cSignerCertificateECDSA,
 256:D:/Work/DeviceTester/amazon-freertos/tests/common/crypto\aws_test_crypto.c ****         sizeof( cSignerCertificateECDSA ),
 257:D:/Work/DeviceTester/amazon-freertos/tests/common/crypto\aws_test_crypto.c ****         ucECDSA_SHA256Signature,
 258:D:/Work/DeviceTester/amazon-freertos/tests/common/crypto\aws_test_crypto.c ****         sizeof( ucECDSA_SHA256Signature ) );
 259:D:/Work/DeviceTester/amazon-freertos/tests/common/crypto\aws_test_crypto.c ****     TEST_ASSERT_TRUE( xResult );
 316              		.loc 1 259 0
 317 0294 000050E3 		cmp	r0, #0
 318 0298 0200001A 		bne	.L12
 319              		.loc 1 259 0 is_stmt 0 discriminator 1
 320 029c 031100E3 		movw	r1, #259
 321 02a0 90009FE5 		ldr	r0, .L25+20
 322              	.LVL40:
 323 02a4 FEFFFFEB 		bl	UnityFail
 324              	.LVL41:
 325              	.L12:
 260:D:/Work/DeviceTester/amazon-freertos/tests/common/crypto\aws_test_crypto.c **** 
 261:D:/Work/DeviceTester/amazon-freertos/tests/common/crypto\aws_test_crypto.c ****     /* Flip the bits of first byte, this should fail the verification. */
 262:D:/Work/DeviceTester/amazon-freertos/tests/common/crypto\aws_test_crypto.c ****     ucECDSA_SHA256Signature[ 0 ] = ~ucECDSA_SHA256Signature[ 0 ];
 326              		.loc 1 262 0 is_stmt 1
 327 02a8 1030DDE5 		ldrb	r3, [sp, #16]	@ zero_extendqisi2
 263:D:/Work/DeviceTester/amazon-freertos/tests/common/crypto\aws_test_crypto.c **** 
 264:D:/Work/DeviceTester/amazon-freertos/tests/common/crypto\aws_test_crypto.c ****     xResult = CRYPTO_SignatureVerificationStart(
 328              		.loc 1 264 0
 329 02ac 0220A0E3 		mov	r2, #2
 330 02b0 0210A0E1 		mov	r1, r2
 331 02b4 0C008DE2 		add	r0, sp, #12
 262:D:/Work/DeviceTester/amazon-freertos/tests/common/crypto\aws_test_crypto.c **** 
 332              		.loc 1 262 0
 333 02b8 0330E0E1 		mvn	r3, r3
 334 02bc 1030CDE5 		strb	r3, [sp, #16]
 335              		.loc 1 264 0
 336 02c0 FEFFFFEB 		bl	CRYPTO_SignatureVerificationStart
 337              	.LVL42:
 265:D:/Work/DeviceTester/amazon-freertos/tests/common/crypto\aws_test_crypto.c ****         &pvSignatureVerificationContext,
 266:D:/Work/DeviceTester/amazon-freertos/tests/common/crypto\aws_test_crypto.c ****         cryptoASYMMETRIC_ALGORITHM_ECDSA,
 267:D:/Work/DeviceTester/amazon-freertos/tests/common/crypto\aws_test_crypto.c ****         cryptoHASH_ALGORITHM_SHA256 );
 268:D:/Work/DeviceTester/amazon-freertos/tests/common/crypto\aws_test_crypto.c ****     TEST_ASSERT_TRUE( xResult );
 338              		.loc 1 268 0
 339 02c4 000050E3 		cmp	r0, #0
 340 02c8 0200001A 		bne	.L13
 341              		.loc 1 268 0 is_stmt 0 discriminator 1
 342 02cc 431FA0E3 		mov	r1, #268
 343 02d0 60009FE5 		ldr	r0, .L25+20
 344              	.LVL43:
 345 02d4 FEFFFFEB 		bl	UnityFail
 346              	.LVL44:
 347              	.L13:
 269:D:/Work/DeviceTester/amazon-freertos/tests/common/crypto\aws_test_crypto.c **** 
 270:D:/Work/DeviceTester/amazon-freertos/tests/common/crypto\aws_test_crypto.c ****     CRYPTO_SignatureVerificationUpdate(
 348              		.loc 1 270 0 is_stmt 1
 349 02d8 161D8DE2 		add	r1, sp, #1408
 350 02dc 012BA0E3 		mov	r2, #1024
 351 02e0 081081E2 		add	r1, r1, #8
 352 02e4 0C009DE5 		ldr	r0, [sp, #12]
 353 02e8 FEFFFFEB 		bl	CRYPTO_SignatureVerificationUpdate
 354              	.LVL45:
 271:D:/Work/DeviceTester/amazon-freertos/tests/common/crypto\aws_test_crypto.c ****         pvSignatureVerificationContext,
 272:D:/Work/DeviceTester/amazon-freertos/tests/common/crypto\aws_test_crypto.c ****         ucDataToSign,
 273:D:/Work/DeviceTester/amazon-freertos/tests/common/crypto\aws_test_crypto.c ****         sizeof( ucDataToSign ) );
 274:D:/Work/DeviceTester/amazon-freertos/tests/common/crypto\aws_test_crypto.c **** 
 275:D:/Work/DeviceTester/amazon-freertos/tests/common/crypto\aws_test_crypto.c ****     xResult = CRYPTO_SignatureVerificationFinal(
 355              		.loc 1 275 0
 356 02ec 4730A0E3 		mov	r3, #71
 357 02f0 2F2300E3 		movw	r2, #815
 358 02f4 00308DE5 		str	r3, [sp]
 359 02f8 961F8DE2 		add	r1, sp, #600
 360 02fc 10308DE2 		add	r3, sp, #16
 361 0300 0C009DE5 		ldr	r0, [sp, #12]
 362 0304 FEFFFFEB 		bl	CRYPTO_SignatureVerificationFinal
 363              	.LVL46:
 276:D:/Work/DeviceTester/amazon-freertos/tests/common/crypto\aws_test_crypto.c ****         pvSignatureVerificationContext,
 277:D:/Work/DeviceTester/amazon-freertos/tests/common/crypto\aws_test_crypto.c ****         cSignerCertificateECDSA,
 278:D:/Work/DeviceTester/amazon-freertos/tests/common/crypto\aws_test_crypto.c ****         sizeof( cSignerCertificateECDSA ),
 279:D:/Work/DeviceTester/amazon-freertos/tests/common/crypto\aws_test_crypto.c ****         ucECDSA_SHA256Signature,
 280:D:/Work/DeviceTester/amazon-freertos/tests/common/crypto\aws_test_crypto.c ****         sizeof( ucECDSA_SHA256Signature ) );
 281:D:/Work/DeviceTester/amazon-freertos/tests/common/crypto\aws_test_crypto.c ****     TEST_ASSERT_FALSE( xResult );
 364              		.loc 1 281 0
 365 0308 000050E3 		cmp	r0, #0
 366 030c 0200000A 		beq	.L2
 367              		.loc 1 281 0 is_stmt 0 discriminator 1
 368 0310 191100E3 		movw	r1, #281
 369 0314 20009FE5 		ldr	r0, .L25+24
 370              	.LVL47:
 371 0318 FEFFFFEB 		bl	UnityFail
 372              	.LVL48:
 373              	.L2:
 282:D:/Work/DeviceTester/amazon-freertos/tests/common/crypto\aws_test_crypto.c ****     /** @}*/
 283:D:/Work/DeviceTester/amazon-freertos/tests/common/crypto\aws_test_crypto.c **** }
 374              		.loc 1 283 0 is_stmt 1
 375 031c EDDE8DE2 		add	sp, sp, #3792
 376              		.cfi_def_cfa_offset 8
 377              		@ sp needed
 378 0320 1080BDE8 		pop	{r4, pc}
 379              	.L26:
 380              		.align	2
 381              	.L25:
 382 0324 32000000 		.word	.LC3
 383 0328 00000000 		.word	.LANCHOR0
 384 032c 00010000 		.word	.LANCHOR0+256
 385 0330 79050000 		.word	.LC4
 386 0334 00020000 		.word	.LANCHOR0+512
 387 0338 00000000 		.word	.LC5
 388 033c 19000000 		.word	.LC6
 389              		.cfi_endproc
 390              	.LFE4:
 392              		.section	.text.TEST_Full_CRYPTO_SETUP,"ax",%progbits
 393              		.align	2
 394              		.global	TEST_Full_CRYPTO_SETUP
 395              		.syntax unified
 396              		.arm
 397              		.fpu neon
 399              	TEST_Full_CRYPTO_SETUP:
 400              	.LFB6:
 401              		.cfi_startproc
 402              		@ args = 0, pretend = 0, frame = 0
 403              		@ frame_needed = 0, uses_anonymous_args = 0
 404              		@ link register save eliminated.
 405 0000 1EFF2FE1 		bx	lr
 406              		.cfi_endproc
 407              	.LFE6:
 409              		.section	.text.TEST_Full_CRYPTO_VerifySignatureTestVectors_run,"ax",%progbits
 410              		.align	2
 411              		.global	TEST_Full_CRYPTO_VerifySignatureTestVectors_run
 412              		.syntax unified
 413              		.arm
 414              		.fpu neon
 416              	TEST_Full_CRYPTO_VerifySignatureTestVectors_run:
 417              	.LFB3:
  54:D:/Work/DeviceTester/amazon-freertos/tests/common/crypto\aws_test_crypto.c **** {
 418              		.loc 1 54 0
 419              		.cfi_startproc
 420              		@ args = 0, pretend = 0, frame = 0
 421              		@ frame_needed = 0, uses_anonymous_args = 0
  54:D:/Work/DeviceTester/amazon-freertos/tests/common/crypto\aws_test_crypto.c **** {
 422              		.loc 1 54 0
 423 0000 1F402DE9 		push	{r0, r1, r2, r3, r4, lr}
 424              		.cfi_def_cfa_offset 24
 425              		.cfi_offset 14, -4
  54:D:/Work/DeviceTester/amazon-freertos/tests/common/crypto\aws_test_crypto.c **** {
 426              		.loc 1 54 0
 427 0004 3630A0E3 		mov	r3, #54
 428 0008 0C308DE5 		str	r3, [sp, #12]
 429 000c 2C309FE5 		ldr	r3, .L30
 430 0010 2C209FE5 		ldr	r2, .L30+4
 431 0014 2C109FE5 		ldr	r1, .L30+8
 432 0018 08308DE5 		str	r3, [sp, #8]
 433 001c 28309FE5 		ldr	r3, .L30+12
 434 0020 28009FE5 		ldr	r0, .L30+16
 435 0024 04308DE5 		str	r3, [sp, #4]
 436 0028 24309FE5 		ldr	r3, .L30+20
 437 002c 00308DE5 		str	r3, [sp]
 438 0030 20309FE5 		ldr	r3, .L30+24
 439 0034 FEFFFFEB 		bl	UnityTestRunner
 440              	.LVL49:
 441 0038 14D08DE2 		add	sp, sp, #20
 442              		.cfi_def_cfa_offset 4
 443              		@ sp needed
 444 003c 04F09DE4 		ldr	pc, [sp], #4
 445              	.L31:
 446              		.align	2
 447              	.L30:
 448 0040 2E000000 		.word	.LC8
 449 0044 00000000 		.word	TEST_Full_CRYPTO_TEAR_DOWN
 450 0048 00000000 		.word	TEST_Full_CRYPTO_VerifySignatureTestVectors_
 451 004c 79000000 		.word	.LC9
 452 0050 00000000 		.word	TEST_Full_CRYPTO_SETUP
 453 0054 94000000 		.word	.LC10
 454 0058 00000000 		.word	.LC7
 455              		.cfi_endproc
 456              	.LFE3:
 458              		.section	.text.TEST_Full_CRYPTO_GROUP_RUNNER,"ax",%progbits
 459              		.align	2
 460              		.global	TEST_Full_CRYPTO_GROUP_RUNNER
 461              		.syntax unified
 462              		.arm
 463              		.fpu neon
 465              	TEST_Full_CRYPTO_GROUP_RUNNER:
 466              	.LFB2:
  50:D:/Work/DeviceTester/amazon-freertos/tests/common/crypto\aws_test_crypto.c ****     RUN_TEST_CASE( Full_CRYPTO, VerifySignatureTestVectors );
 467              		.loc 1 50 0
 468              		.cfi_startproc
 469              		@ args = 0, pretend = 0, frame = 0
 470              		@ frame_needed = 0, uses_anonymous_args = 0
 471              		@ link register save eliminated.
 472              	.LBB2:
  51:D:/Work/DeviceTester/amazon-freertos/tests/common/crypto\aws_test_crypto.c **** }
 473              		.loc 1 51 0
 474 0000 FEFFFFEA 		b	TEST_Full_CRYPTO_VerifySignatureTestVectors_run
 475              	.LVL50:
 476              	.LBE2:
 477              		.cfi_endproc
 478              	.LFE2:
 480              		.section	.rodata
 481              		.set	.LANCHOR0,. + 0
 482              	.LC0:
 483 0000 07       		.byte	7
 484 0001 77       		.byte	119
 485 0002 7C       		.byte	124
 486 0003 DD       		.byte	-35
 487 0004 50       		.byte	80
 488 0005 B3       		.byte	-77
 489 0006 C6       		.byte	-58
 490 0007 6B       		.byte	107
 491 0008 76       		.byte	118
 492 0009 1D       		.byte	29
 493 000a C4       		.byte	-60
 494 000b 99       		.byte	-103
 495 000c 3C       		.byte	60
 496 000d ED       		.byte	-19
 497 000e FE       		.byte	-2
 498 000f 27       		.byte	39
 499 0010 BE       		.byte	-66
 500 0011 6E       		.byte	110
 501 0012 76       		.byte	118
 502 0013 D3       		.byte	-45
 503 0014 BF       		.byte	-65
 504 0015 2E       		.byte	46
 505 0016 2E       		.byte	46
 506 0017 28       		.byte	40
 507 0018 FD       		.byte	-3
 508 0019 99       		.byte	-103
 509 001a 9E       		.byte	-98
 510 001b F2       		.byte	-14
 511 001c E6       		.byte	-26
 512 001d 3B       		.byte	59
 513 001e 0B       		.byte	11
 514 001f 39       		.byte	57
 515 0020 55       		.byte	85
 516 0021 B0       		.byte	-80
 517 0022 E3       		.byte	-29
 518 0023 67       		.byte	103
 519 0024 24       		.byte	36
 520 0025 39       		.byte	57
 521 0026 24       		.byte	36
 522 0027 28       		.byte	40
 523 0028 1D       		.byte	29
 524 0029 F2       		.byte	-14
 525 002a 7A       		.byte	122
 526 002b 16       		.byte	22
 527 002c A6       		.byte	-90
 528 002d 17       		.byte	23
 529 002e E3       		.byte	-29
 530 002f 42       		.byte	66
 531 0030 46       		.byte	70
 532 0031 90       		.byte	-112
 533 0032 09       		.byte	9
 534 0033 B6       		.byte	-74
 535 0034 17       		.byte	23
 536 0035 55       		.byte	85
 537 0036 B0       		.byte	-80
 538 0037 A1       		.byte	-95
 539 0038 A8       		.byte	-88
 540 0039 55       		.byte	85
 541 003a DC       		.byte	-36
 542 003b 0C       		.byte	12
 543 003c 20       		.byte	32
 544 003d 0F       		.byte	15
 545 003e C2       		.byte	-62
 546 003f 66       		.byte	102
 547 0040 36       		.byte	54
 548 0041 E0       		.byte	-32
 549 0042 CD       		.byte	-51
 550 0043 AF       		.byte	-81
 551 0044 31       		.byte	49
 552 0045 52       		.byte	82
 553 0046 83       		.byte	-125
 554 0047 7B       		.byte	123
 555 0048 12       		.byte	18
 556 0049 58       		.byte	88
 557 004a 93       		.byte	-109
 558 004b 77       		.byte	119
 559 004c 66       		.byte	102
 560 004d 5A       		.byte	90
 561 004e 4A       		.byte	74
 562 004f 1C       		.byte	28
 563 0050 D9       		.byte	-39
 564 0051 42       		.byte	66
 565 0052 AD       		.byte	-83
 566 0053 5D       		.byte	93
 567 0054 A9       		.byte	-87
 568 0055 F2       		.byte	-14
 569 0056 2E       		.byte	46
 570 0057 5C       		.byte	92
 571 0058 BB       		.byte	-69
 572 0059 14       		.byte	20
 573 005a 82       		.byte	-126
 574 005b 9F       		.byte	-97
 575 005c ED       		.byte	-19
 576 005d 10       		.byte	16
 577 005e 8A       		.byte	-118
 578 005f F4       		.byte	-12
 579 0060 D3       		.byte	-45
 580 0061 C8       		.byte	-56
 581 0062 06       		.byte	6
 582 0063 AB       		.byte	-85
 583 0064 FA       		.byte	-6
 584 0065 03       		.byte	3
 585 0066 65       		.byte	101
 586 0067 A8       		.byte	-88
 587 0068 C5       		.byte	-59
 588 0069 96       		.byte	-106
 589 006a EE       		.byte	-18
 590 006b C4       		.byte	-60
 591 006c C6       		.byte	-58
 592 006d 6E       		.byte	110
 593 006e 31       		.byte	49
 594 006f 1E       		.byte	30
 595 0070 A8       		.byte	-88
 596 0071 23       		.byte	35
 597 0072 F9       		.byte	-7
 598 0073 BF       		.byte	-65
 599 0074 7C       		.byte	124
 600 0075 A7       		.byte	-89
 601 0076 ED       		.byte	-19
 602 0077 ED       		.byte	-19
 603 0078 A4       		.byte	-92
 604 0079 CD       		.byte	-51
 605 007a D5       		.byte	-43
 606 007b D6       		.byte	-42
 607 007c 5D       		.byte	93
 608 007d E8       		.byte	-24
 609 007e CF       		.byte	-49
 610 007f B9       		.byte	-71
 611 0080 FA       		.byte	-6
 612 0081 5F       		.byte	95
 613 0082 A9       		.byte	-87
 614 0083 B5       		.byte	-75
 615 0084 1F       		.byte	31
 616 0085 F1       		.byte	-15
 617 0086 8A       		.byte	-118
 618 0087 B7       		.byte	-73
 619 0088 1A       		.byte	26
 620 0089 12       		.byte	18
 621 008a CD       		.byte	-51
 622 008b 67       		.byte	103
 623 008c E8       		.byte	-24
 624 008d 5C       		.byte	92
 625 008e 89       		.byte	-119
 626 008f 6B       		.byte	107
 627 0090 D7       		.byte	-41
 628 0091 DB       		.byte	-37
 629 0092 D3       		.byte	-45
 630 0093 D0       		.byte	-48
 631 0094 BA       		.byte	-70
 632 0095 01       		.byte	1
 633 0096 FA       		.byte	-6
 634 0097 4E       		.byte	78
 635 0098 32       		.byte	50
 636 0099 F4       		.byte	-12
 637 009a 08       		.byte	8
 638 009b B8       		.byte	-72
 639 009c 3B       		.byte	59
 640 009d C6       		.byte	-58
 641 009e 5E       		.byte	94
 642 009f E4       		.byte	-28
 643 00a0 F8       		.byte	-8
 644 00a1 9E       		.byte	-98
 645 00a2 06       		.byte	6
 646 00a3 0B       		.byte	11
 647 00a4 84       		.byte	-124
 648 00a5 5D       		.byte	93
 649 00a6 0D       		.byte	13
 650 00a7 F3       		.byte	-13
 651 00a8 34       		.byte	52
 652 00a9 4F       		.byte	79
 653 00aa 17       		.byte	23
 654 00ab FE       		.byte	-2
 655 00ac 6F       		.byte	111
 656 00ad F6       		.byte	-10
 657 00ae 4F       		.byte	79
 658 00af AC       		.byte	-84
 659 00b0 87       		.byte	-121
 660 00b1 E5       		.byte	-27
 661 00b2 7E       		.byte	126
 662 00b3 72       		.byte	114
 663 00b4 23       		.byte	35
 664 00b5 09       		.byte	9
 665 00b6 29       		.byte	41
 666 00b7 69       		.byte	105
 667 00b8 74       		.byte	116
 668 00b9 AA       		.byte	-86
 669 00ba 79       		.byte	121
 670 00bb A6       		.byte	-90
 671 00bc BA       		.byte	-70
 672 00bd CC       		.byte	-52
 673 00be 46       		.byte	70
 674 00bf 20       		.byte	32
 675 00c0 AC       		.byte	-84
 676 00c1 AE       		.byte	-82
 677 00c2 B9       		.byte	-71
 678 00c3 C4       		.byte	-60
 679 00c4 AE       		.byte	-82
 680 00c5 5C       		.byte	92
 681 00c6 20       		.byte	32
 682 00c7 5E       		.byte	94
 683 00c8 47       		.byte	71
 684 00c9 02       		.byte	2
 685 00ca 8B       		.byte	-117
 686 00cb 39       		.byte	57
 687 00cc 56       		.byte	86
 688 00cd 5F       		.byte	95
 689 00ce C0       		.byte	-64
 690 00cf A3       		.byte	-93
 691 00d0 EF       		.byte	-17
 692 00d1 82       		.byte	-126
 693 00d2 C5       		.byte	-59
 694 00d3 83       		.byte	-125
 695 00d4 6D       		.byte	109
 696 00d5 3E       		.byte	62
 697 00d6 99       		.byte	-103
 698 00d7 05       		.byte	5
 699 00d8 F0       		.byte	-16
 700 00d9 36       		.byte	54
 701 00da 4A       		.byte	74
 702 00db 2F       		.byte	47
 703 00dc A0       		.byte	-96
 704 00dd 95       		.byte	-107
 705 00de C1       		.byte	-63
 706 00df 0E       		.byte	14
 707 00e0 6C       		.byte	108
 708 00e1 BD       		.byte	-67
 709 00e2 3C       		.byte	60
 710 00e3 33       		.byte	51
 711 00e4 D3       		.byte	-45
 712 00e5 6F       		.byte	111
 713 00e6 01       		.byte	1
 714 00e7 61       		.byte	97
 715 00e8 51       		.byte	81
 716 00e9 05       		.byte	5
 717 00ea 6A       		.byte	106
 718 00eb 00       		.byte	0
 719 00ec 82       		.byte	-126
 720 00ed 3D       		.byte	61
 721 00ee 1F       		.byte	31
 722 00ef EF       		.byte	-17
 723 00f0 B8       		.byte	-72
 724 00f1 C1       		.byte	-63
 725 00f2 88       		.byte	-120
 726 00f3 BB       		.byte	-69
 727 00f4 B2       		.byte	-78
 728 00f5 E6       		.byte	-26
 729 00f6 37       		.byte	55
 730 00f7 BC       		.byte	-68
 731 00f8 A6       		.byte	-90
 732 00f9 5C       		.byte	92
 733 00fa 4B       		.byte	75
 734 00fb AC       		.byte	-84
 735 00fc 02       		.byte	2
 736 00fd 6E       		.byte	110
 737 00fe A3       		.byte	-93
 738 00ff 26       		.byte	38
 739              	.LC1:
 740 0100 06       		.byte	6
 741 0101 5C       		.byte	92
 742 0102 35       		.byte	53
 743 0103 49       		.byte	73
 744 0104 43       		.byte	67
 745 0105 22       		.byte	34
 746 0106 DF       		.byte	-33
 747 0107 12       		.byte	18
 748 0108 AE       		.byte	-82
 749 0109 EE       		.byte	-18
 750 010a 65       		.byte	101
 751 010b 4B       		.byte	75
 752 010c 1D       		.byte	29
 753 010d 5A       		.byte	90
 754 010e 1A       		.byte	26
 755 010f 57       		.byte	87
 756 0110 A7       		.byte	-89
 757 0111 A9       		.byte	-87
 758 0112 8D       		.byte	-115
 759 0113 9B       		.byte	-101
 760 0114 CB       		.byte	-53
 761 0115 76       		.byte	118
 762 0116 C4       		.byte	-60
 763 0117 F9       		.byte	-7
 764 0118 36       		.byte	54
 765 0119 22       		.byte	34
 766 011a F6       		.byte	-10
 767 011b B3       		.byte	-77
 768 011c 4B       		.byte	75
 769 011d 40       		.byte	64
 770 011e 3E       		.byte	62
 771 011f F7       		.byte	-9
 772 0120 5D       		.byte	93
 773 0121 9C       		.byte	-100
 774 0122 33       		.byte	51
 775 0123 5E       		.byte	94
 776 0124 EB       		.byte	-21
 777 0125 CC       		.byte	-52
 778 0126 AB       		.byte	-85
 779 0127 27       		.byte	39
 780 0128 FC       		.byte	-4
 781 0129 0C       		.byte	12
 782 012a 65       		.byte	101
 783 012b 72       		.byte	114
 784 012c 2E       		.byte	46
 785 012d 7D       		.byte	125
 786 012e 1D       		.byte	29
 787 012f 14       		.byte	20
 788 0130 36       		.byte	54
 789 0131 AF       		.byte	-81
 790 0132 AF       		.byte	-81
 791 0133 A9       		.byte	-87
 792 0134 3E       		.byte	62
 793 0135 62       		.byte	98
 794 0136 4F       		.byte	79
 795 0137 FA       		.byte	-6
 796 0138 9A       		.byte	-102
 797 0139 5C       		.byte	92
 798 013a 52       		.byte	82
 799 013b F2       		.byte	-14
 800 013c 62       		.byte	98
 801 013d 17       		.byte	23
 802 013e 9F       		.byte	-97
 803 013f C0       		.byte	-64
 804 0140 E0       		.byte	-32
 805 0141 22       		.byte	34
 806 0142 EC       		.byte	-20
 807 0143 D1       		.byte	-47
 808 0144 5F       		.byte	95
 809 0145 34       		.byte	52
 810 0146 7B       		.byte	123
 811 0147 94       		.byte	-108
 812 0148 2B       		.byte	43
 813 0149 0F       		.byte	15
 814 014a 4D       		.byte	77
 815 014b D0       		.byte	-48
 816 014c 65       		.byte	101
 817 014d 08       		.byte	8
 818 014e 0E       		.byte	14
 819 014f 4E       		.byte	78
 820 0150 CB       		.byte	-53
 821 0151 E9       		.byte	-23
 822 0152 7F       		.byte	127
 823 0153 76       		.byte	118
 824 0154 0C       		.byte	12
 825 0155 4D       		.byte	77
 826 0156 5E       		.byte	94
 827 0157 D3       		.byte	-45
 828 0158 F7       		.byte	-9
 829 0159 9F       		.byte	-97
 830 015a EF       		.byte	-17
 831 015b D7       		.byte	-41
 832 015c 28       		.byte	40
 833 015d 93       		.byte	-109
 834 015e 41       		.byte	65
 835 015f 34       		.byte	52
 836 0160 F3       		.byte	-13
 837 0161 9C       		.byte	-100
 838 0162 94       		.byte	-108
 839 0163 F4       		.byte	-12
 840 0164 46       		.byte	70
 841 0165 5D       		.byte	93
 842 0166 38       		.byte	56
 843 0167 F4       		.byte	-12
 844 0168 AF       		.byte	-81
 845 0169 23       		.byte	35
 846 016a 8A       		.byte	-118
 847 016b 47       		.byte	71
 848 016c 34       		.byte	52
 849 016d DD       		.byte	-35
 850 016e 33       		.byte	51
 851 016f B3       		.byte	-77
 852 0170 47       		.byte	71
 853 0171 5C       		.byte	92
 854 0172 8D       		.byte	-115
 855 0173 D5       		.byte	-43
 856 0174 10       		.byte	16
 857 0175 61       		.byte	97
 858 0176 8E       		.byte	-114
 859 0177 2C       		.byte	44
 860 0178 3E       		.byte	62
 861 0179 77       		.byte	119
 862 017a A0       		.byte	-96
 863 017b BB       		.byte	-69
 864 017c 7B       		.byte	123
 865 017d E7       		.byte	-25
 866 017e 4D       		.byte	77
 867 017f 9A       		.byte	-102
 868 0180 6E       		.byte	110
 869 0181 65       		.byte	101
 870 0182 A2       		.byte	-94
 871 0183 07       		.byte	7
 872 0184 5B       		.byte	91
 873 0185 B7       		.byte	-73
 874 0186 C9       		.byte	-55
 875 0187 85       		.byte	-123
 876 0188 C3       		.byte	-61
 877 0189 96       		.byte	-106
 878 018a 98       		.byte	-104
 879 018b A9       		.byte	-87
 880 018c 1E       		.byte	30
 881 018d 90       		.byte	-112
 882 018e B0       		.byte	-80
 883 018f 04       		.byte	4
 884 0190 07       		.byte	7
 885 0191 E7       		.byte	-25
 886 0192 8C       		.byte	-116
 887 0193 B0       		.byte	-80
 888 0194 8B       		.byte	-117
 889 0195 25       		.byte	37
 890 0196 66       		.byte	102
 891 0197 9F       		.byte	-97
 892 0198 DB       		.byte	-37
 893 0199 B6       		.byte	-74
 894 019a 11       		.byte	17
 895 019b 25       		.byte	37
 896 019c 60       		.byte	96
 897 019d A1       		.byte	-95
 898 019e 46       		.byte	70
 899 019f 75       		.byte	117
 900 01a0 EB       		.byte	-21
 901 01a1 48       		.byte	72
 902 01a2 65       		.byte	101
 903 01a3 E4       		.byte	-28
 904 01a4 5D       		.byte	93
 905 01a5 B8       		.byte	-72
 906 01a6 D3       		.byte	-45
 907 01a7 42       		.byte	66
 908 01a8 58       		.byte	88
 909 01a9 C9       		.byte	-55
 910 01aa B5       		.byte	-75
 911 01ab 01       		.byte	1
 912 01ac 8E       		.byte	-114
 913 01ad FF       		.byte	-1
 914 01ae 35       		.byte	53
 915 01af A5       		.byte	-91
 916 01b0 67       		.byte	103
 917 01b1 45       		.byte	69
 918 01b2 E8       		.byte	-24
 919 01b3 62       		.byte	98
 920 01b4 BD       		.byte	-67
 921 01b5 B5       		.byte	-75
 922 01b6 A0       		.byte	-96
 923 01b7 9E       		.byte	-98
 924 01b8 87       		.byte	-121
 925 01b9 A4       		.byte	-92
 926 01ba E9       		.byte	-23
 927 01bb DD       		.byte	-35
 928 01bc C8       		.byte	-56
 929 01bd E6       		.byte	-26
 930 01be 39       		.byte	57
 931 01bf A8       		.byte	-88
 932 01c0 97       		.byte	-105
 933 01c1 2B       		.byte	43
 934 01c2 F1       		.byte	-15
 935 01c3 04       		.byte	4
 936 01c4 99       		.byte	-103
 937 01c5 8F       		.byte	-113
 938 01c6 B6       		.byte	-74
 939 01c7 D7       		.byte	-41
 940 01c8 D6       		.byte	-42
 941 01c9 FE       		.byte	-2
 942 01ca AF       		.byte	-81
 943 01cb 35       		.byte	53
 944 01cc C2       		.byte	-62
 945 01cd C1       		.byte	-63
 946 01ce 62       		.byte	98
 947 01cf 7C       		.byte	124
 948 01d0 1C       		.byte	28
 949 01d1 33       		.byte	51
 950 01d2 55       		.byte	85
 951 01d3 87       		.byte	-121
 952 01d4 A9       		.byte	-87
 953 01d5 E9       		.byte	-23
 954 01d6 BC       		.byte	-68
 955 01d7 EF       		.byte	-17
 956 01d8 5E       		.byte	94
 957 01d9 BC       		.byte	-68
 958 01da B7       		.byte	-73
 959 01db 79       		.byte	121
 960 01dc CF       		.byte	-49
 961 01dd F5       		.byte	-11
 962 01de B5       		.byte	-75
 963 01df CB       		.byte	-53
 964 01e0 4A       		.byte	74
 965 01e1 C8       		.byte	-56
 966 01e2 D9       		.byte	-39
 967 01e3 D0       		.byte	-48
 968 01e4 A2       		.byte	-94
 969 01e5 E9       		.byte	-23
 970 01e6 47       		.byte	71
 971 01e7 72       		.byte	114
 972 01e8 04       		.byte	4
 973 01e9 23       		.byte	35
 974 01ea D1       		.byte	-47
 975 01eb 90       		.byte	-112
 976 01ec 1C       		.byte	28
 977 01ed 61       		.byte	97
 978 01ee 3B       		.byte	59
 979 01ef 60       		.byte	96
 980 01f0 9A       		.byte	-102
 981 01f1 FC       		.byte	-4
 982 01f2 AC       		.byte	-84
 983 01f3 4D       		.byte	77
 984 01f4 35       		.byte	53
 985 01f5 E2       		.byte	-30
 986 01f6 E3       		.byte	-29
 987 01f7 A6       		.byte	-90
 988 01f8 90       		.byte	-112
 989 01f9 3A       		.byte	58
 990 01fa 3E       		.byte	62
 991 01fb FA       		.byte	-6
 992 01fc 92       		.byte	-110
 993 01fd 0F       		.byte	15
 994 01fe A4       		.byte	-92
 995 01ff AC       		.byte	-84
 996              	.LC2:
 997 0200 30       		.byte	48
 998 0201 45       		.byte	69
 999 0202 02       		.byte	2
 1000 0203 20       		.byte	32
 1001 0204 5C       		.byte	92
 1002 0205 F5       		.byte	-11
 1003 0206 58       		.byte	88
 1004 0207 76       		.byte	118
 1005 0208 9F       		.byte	-97
 1006 0209 FC       		.byte	-4
 1007 020a 7E       		.byte	126
 1008 020b DE       		.byte	-34
 1009 020c 34       		.byte	52
 1010 020d AC       		.byte	-84
 1011 020e 72       		.byte	114
 1012 020f B2       		.byte	-78
 1013 0210 1A       		.byte	26
 1014 0211 8B       		.byte	-117
 1015 0212 F9       		.byte	-7
 1016 0213 63       		.byte	99
 1017 0214 BB       		.byte	-69
 1018 0215 72       		.byte	114
 1019 0216 3A       		.byte	58
 1020 0217 08       		.byte	8
 1021 0218 CA       		.byte	-54
 1022 0219 70       		.byte	112
 1023 021a 16       		.byte	22
 1024 021b E0       		.byte	-32
 1025 021c 9D       		.byte	-99
 1026 021d 6F       		.byte	111
 1027 021e BD       		.byte	-67
 1028 021f 03       		.byte	3
 1029 0220 EA       		.byte	-22
 1030 0221 22       		.byte	34
 1031 0222 61       		.byte	97
 1032 0223 2F       		.byte	47
 1033 0224 02       		.byte	2
 1034 0225 21       		.byte	33
 1035 0226 00       		.byte	0
 1036 0227 CD       		.byte	-51
 1037 0228 68       		.byte	104
 1038 0229 B8       		.byte	-72
 1039 022a 49       		.byte	73
 1040 022b 81       		.byte	-127
 1041 022c 88       		.byte	-120
 1042 022d 3C       		.byte	60
 1043 022e D3       		.byte	-45
 1044 022f E2       		.byte	-30
 1045 0230 2D       		.byte	45
 1046 0231 15       		.byte	21
 1047 0232 30       		.byte	48
 1048 0233 B2       		.byte	-78
 1049 0234 CF       		.byte	-49
 1050 0235 F0       		.byte	-16
 1051 0236 6B       		.byte	107
 1052 0237 3C       		.byte	60
 1053 0238 B9       		.byte	-71
 1054 0239 8A       		.byte	-118
 1055 023a 92       		.byte	-110
 1056 023b E8       		.byte	-24
 1057 023c 70       		.byte	112
 1058 023d 5F       		.byte	95
 1059 023e 50       		.byte	80
 1060 023f D6       		.byte	-42
 1061 0240 00       		.byte	0
 1062 0241 C0       		.byte	-64
 1063 0242 DF       		.byte	-33
 1064 0243 6E       		.byte	110
 1065 0244 3A       		.byte	58
 1066 0245 F5       		.byte	-11
 1067 0246 27       		.byte	39
 1068              		.section	.rodata.TEST_Full_CRYPTO_VerifySignatureTestVectors_.str1.1,"aMS",%progbits,1
 1069              	.LC5:
 1070 0000 20457870 		.ascii	" Expected TRUE Was FALSE\000"
 1070      65637465 
 1070      64205452 
 1070      55452057 
 1070      61732046 
 1071              	.LC6:
 1072 0019 20457870 		.ascii	" Expected FALSE Was TRUE\000"
 1072      65637465 
 1072      64204641 
 1072      4C534520 
 1072      57617320 
 1073              	.LC3:
 1074 0032 2D2D2D2D 		.ascii	"-----BEGIN CERTIFICATE-----\012MIIDtzCCAp+gAwIBAgIJ"
 1074      2D424547 
 1074      494E2043 
 1074      45525449 
 1074      46494341 
 1075 0062 414D414A 		.ascii	"AMAJ51I17/tXMA0GCSqGSIb3DQEBCwUAMHIxCzAJBgNV\012BAY"
 1075      35314931 
 1075      372F7458 
 1075      4D413047 
 1075      43537147 
 1076 0092 54416C56 		.ascii	"TAlVTMQswCQYDVQQIDAJXQTEQMA4GA1UEBwwHU2VhdHRsZTEMMA"
 1076      544D5173 
 1076      77435159 
 1076      44565151 
 1076      4944414A 
 1077 00c5 6F474131 		.ascii	"oGA1UECgwD\012QVdTMQwwCgYDVQQLDANJb1QxDDAKBgNVBAMMA"
 1077      55454367 
 1077      77440A51 
 1077      5664544D 
 1077      51777743 
 1078 00f5 30526862 		.ascii	"0RhbjEaMBgGCSqGSIb3DQEJARYL\012ZGFuQGZvby5jb20wHhcN"
 1078      6A45614D 
 1078      42674743 
 1078      53714753 
 1078      49623344 
 1079 0125 4D546377 		.ascii	"MTcwNzMxMjI0OTE3WhcNMTgwNzMxMjI0OTE3WjByMQsw\012CQY"
 1079      4E7A4D78 
 1079      4D6A4930 
 1079      4F544533 
 1079      5768634E 
 1080 0155 44565151 		.ascii	"DVQQGEwJVUzELMAkGA1UECAwCV0ExEDAOBgNVBAcMB1NlYXR0bG"
 1080      4745774A 
 1080      56557A45 
 1080      4C4D416B 
 1080      47413155 
 1081 0188 55784444 		.ascii	"UxDDAKBgNV\012BAoMA0FXUzEMMAoGA1UECwwDSW9UMQwwCgYDV"
 1081      414B4267 
 1081      4E560A42 
 1081      416F4D41 
 1081      30465855 
 1082 01b8 51514444 		.ascii	"QQDDANEYW4xGjAYBgkqhkiG9w0B\012CQEWC2RhbkBmb28uY29t"
 1082      414E4559 
 1082      57347847 
 1082      6A415942 
 1082      676B7168 
 1083 01e8 4D494942 		.ascii	"MIIBIjANBgkqhkiG9w0BAQEFAAOCAQ8AMIIBCgKCAQEA\012rQB"
 1083      496A414E 
 1083      42676B71 
 1083      686B6947 
 1083      39773042 
 1084 0218 3730446A 		.ascii	"70DjusUYtNRgGfnrt9bzVT6K50TEwC22FTTmMFzc2TayGZLyXvV"
 1084      75735559 
 1084      744E5267 
 1084      47666E72 
 1084      7439627A 
 1085 024b 45767061 		.ascii	"EvpaT3RSQp\012WPXtSN6PI9P/r9t1281UqfeBkt/0Mg5p1Yqd7"
 1085      54335253 
 1085      51700A57 
 1085      50587453 
 1085      4E365049 
 1086 027b 58685864 		.ascii	"XhXdziREi/pcKrj/umk1AsrgL7t\0129XuwIFX5hluej6MyDDAu"
 1086      7A695245 
 1086      692F7063 
 1086      4B726A2F 
 1086      756D6B31 
 1087 02ab 68745046 		.ascii	"htPFAdu7WGAdZr+aBrZyohAgfFcBSNs9/bLoU36FxoWM\0120iB"
 1087      41647537 
 1087      57474164 
 1087      5A722B61 
 1087      42725A79 
 1088 02db 79427A74 		.ascii	"yBztnEdy3k+b+JqwAUOxYLnZTSD28eO4AwXj1WZ2VSLBs+DeDL6"
 1088      6E456479 
 1088      336B2B62 
 1088      2B4A7177 
 1088      41554F78 
 1089 030e 53416A52 		.ascii	"SAjRy7v7DF\012+vrqw82OoYmSk5nzLBYf16H8cEW/zVeWlP+Li"
 1089      79377637 
 1089      44460A2B 
 1089      76727177 
 1089      38324F6F 
 1090 033e 77305754 		.ascii	"w0WTJNGGp2YCwlNx20ywHiNBZDd\012f/Djw7GsObG5oRs7939k"
 1090      4A4E4747 
 1090      70325943 
 1090      776C4E78 
 1090      32307977 
 1091 036e 4A774944 		.ascii	"JwIDAQABo1AwTjAdBgNVHQ4EFgQUokZzCOJv6EW6dUHn\012oDA"
 1091      41514142 
 1091      6F314177 
 1091      546A4164 
 1091      42674E56 
 1092 039e 41514735 		.ascii	"AQG5BKYcwHwYDVR0jBBgwFoAUokZzCOJv6EW6dUHnoDAAQG5BKY"
 1092      424B5963 
 1092      77487759 
 1092      44565230 
 1092      6A424267 
 1093 03d1 63774441 		.ascii	"cwDAYDVR0T\012BAUwAwEB/zANBgkqhkiG9w0BAQsFAAOCAQEAX"
 1093      59445652 
 1093      30540A42 
 1093      41557741 
 1093      7745422F 
 1094 0401 4F2F6767 		.ascii	"O/ggGB8ykOozOs6mciY2kH1l6yI\012ldnvXn6ilsfICWxj0Xvd"
 1094      47423879 
 1094      6B4F6F7A 
 1094      4F73366D 
 1094      63695932 
 1095 0431 2B486F44 		.ascii	"+HoDe64ycUmcLUmN2U4NVD42+l9AoZJ6KaewTSiqWo15\012cMx"
 1095      65363479 
 1095      63556D63 
 1095      4C556D4E 
 1095      3255344E 
 1096 0461 55732B68 		.ascii	"Us+huysXYS3Kynv/TUTvhqh8yia1mkTFetfDWzgjVsaV0vb9KJc"
 1096      75797358 
 1096      5953334B 
 1096      796E762F 
 1096      54555476 
 1097 0494 7A695158 		.ascii	"ziQXIzAaLc\012O7WjvCW90YZpxlAwlJgtLfCpD0T1V4vzgT7w2"
 1097      497A4161 
 1097      4C630A4F 
 1097      37576A76 
 1097      43573930 
 1098 04c4 73444D6D 		.ascii	"sDMmE8637+3/eDNtP+U/CK+eo0w\012fjBdyj+3TOG3F6/X4+SF"
 1098      45383633 
 1098      372B332F 
 1098      65444E74 
 1098      502B552F 
 1099 04f4 726B2B36 		.ascii	"rk+64++CoWuD/y9yJ8FBpPEv2jW2EDWL6quWyqLs1Qye\012KiO"
 1099      342B2B43 
 1099      6F577544 
 1099      2F793979 
 1099      4A384642 
 1100 0524 6334586A 		.ascii	"c4Xj4X034Bm9JF5tnaj51igCWrXBcxUHrh2xfkMuQvKyIu6Bkz0"
 1100      34583033 
 1100      34426D39 
 1100      4A463574 
 1100      6E616A35 
 1101 0557 49626751 		.ascii	"IbgQ==\012-----END CERTIFICATE-----\012\000"
 1101      3D3D0A2D 
 1101      2D2D2D2D 
 1101      454E4420 
 1101      43455254 
 1102              	.LC4:
 1103 0579 2D2D2D2D 		.ascii	"-----BEGIN CERTIFICATE-----\012MIICKzCCAdGgAwIBAgIJ"
 1103      2D424547 
 1103      494E2043 
 1103      45525449 
 1103      46494341 
 1104 05a9 414B4E47 		.ascii	"AKNGg1OpqFRbMAoGCCqGSM49BAMCMHIxCzAJBgNVBAYT\012AlV"
 1104      67314F70 
 1104      71465262 
 1104      4D416F47 
 1104      43437147 
 1105 05d9 544D5173 		.ascii	"TMQswCQYDVQQIDAJXQTEQMA4GA1UEBwwHU2VhdHRsZTEMMAoGA1"
 1105      77435159 
 1105      44565151 
 1105      4944414A 
 1105      58515445 
 1106 060c 55454367 		.ascii	"UECgwDQVdT\012MQwwCgYDVQQLDANJb1QxDDAKBgNVBAMMA0Rhb"
 1106      77445156 
 1106      64540A4D 
 1106      51777743 
 1106      67594456 
 1107 063c 6A45614D 		.ascii	"jEaMBgGCSqGSIb3DQEJARYLZGFu\012QGZvby5jb20wHhcNMTcw"
 1107      42674743 
 1107      53714753 
 1107      49623344 
 1107      51454A41 
 1108 066c 4F444178 		.ascii	"ODAxMTUzOTQ4WhcNMTgwODAxMTUzOTQ4WjByMQswCQYD\012VQQ"
 1108      4D54557A 
 1108      4F545134 
 1108      5768634E 
 1108      4D546777 
 1109 069c 4745774A 		.ascii	"GEwJVUzELMAkGA1UECAwCV0ExEDAOBgNVBAcMB1NlYXR0bGUxDD"
 1109      56557A45 
 1109      4C4D416B 
 1109      47413155 
 1109      45434177 
 1110 06cf 414B4267 		.ascii	"AKBgNVBAoM\012A0FXUzEMMAoGA1UECwwDSW9UMQwwCgYDVQQDD"
 1110      4E564241 
 1110      6F4D0A41 
 1110      30465855 
 1110      7A454D4D 
 1111 06ff 414E4559 		.ascii	"ANEYW4xGjAYBgkqhkiG9w0BCQEW\012C2RhbkBmb28uY29tMFkw"
 1111      57347847 
 1111      6A415942 
 1111      676B7168 
 1111      6B694739 
 1112 072f 45775948 		.ascii	"EwYHKoZIzj0CAQYIKoZIzj0DAQcDQgAEQXHTh/4Bglwa\012P9E"
 1112      4B6F5A49 
 1112      7A6A3043 
 1112      41515949 
 1112      4B6F5A49 
 1113 075f 6234557A 		.ascii	"b4UzekSAbdO7pjTOxiHcySJbF77HwB54VNpURb4Ezdbinq/i/4Z"
 1113      656B5341 
 1113      62644F37 
 1113      706A544F 
 1113      78694863 
 1114 0792 57416772 		.ascii	"WAgrtXZqAH\0123SRhMnIOuKNQME4wHQYDVR0OBBYEFJDG0d5hX"
 1114      74585A71 
 1114      41480A33 
 1114      5352684D 
 1114      6E494F75 
 1115 07c2 39433134 		.ascii	"9C14PmtSq3pC0cfTjVyMB8GA1Ud\012IwQYMBaAFJDG0d5hX9C1"
 1115      506D7453 
 1115      71337043 
 1115      30636654 
 1115      6A56794D 
 1116 07f2 34506D74 		.ascii	"4PmtSq3pC0cfTjVyMAwGA1UdEwQFMAMBAf8wCgYIKoZI\012zj0"
 1116      53713370 
 1116      43306366 
 1116      546A5679 
 1116      4D417747 
 1117 0822 45417749 		.ascii	"EAwIDSAAwRQIgfqoTxQqp0eW5rEOZt36vcdVC989DLAMfrdEo49"
 1117      44534141 
 1117      77525149 
 1117      6766716F 
 1117      54785171 
 1118 0855 49786A78 		.ascii	"IxjxACIQDX\012iR2uXx4o5BNFKfk+aD60EEtFV9tdLvxMYNJy9"
 1118      41434951 
 1118      44580A69 
 1118      52327558 
 1118      78346F35 
 1119 0885 66746E73 		.ascii	"ftnsg==\012-----END CERTIFICATE-----\012\000"
 1119      673D3D0A 
 1119      2D2D2D2D 
 1119      2D454E44 
 1119      20434552 
 1120              		.section	.rodata.TEST_Full_CRYPTO_VerifySignatureTestVectors_run.str1.1,"aMS",%progbits,1
 1121              	.LC7:
 1122 0000 54455354 		.ascii	"TEST(Full_CRYPTO, VerifySignatureTestVectors)\000"
 1122      2846756C 
 1122      6C5F4352 
 1122      5950544F 
 1122      2C205665 
 1123              	.LC8:
 1124 002e 443A2F57 		.ascii	"D:/Work/DeviceTester/amazon-freertos/tests/common/c"
 1124      6F726B2F 
 1124      44657669 
 1124      63655465 
 1124      73746572 
 1125 0061 72797074 		.ascii	"rypto/aws_test_crypto.c\000"
 1125      6F2F6177 
 1125      735F7465 
 1125      73745F63 
 1125      72797074 
 1126              	.LC9:
 1127 0079 56657269 		.ascii	"VerifySignatureTestVectors\000"
 1127      66795369 
 1127      676E6174 
 1127      75726554 
 1127      65737456 
 1128              	.LC10:
 1129 0094 46756C6C 		.ascii	"Full_CRYPTO\000"
 1129      5F435259 
 1129      50544F00 
 1130              		.text
 1131              	.Letext0:
 1132              		.file 2 "c:\\program files (x86)\\gnu tools arm embedded\\6 2017-q2-update\\arm-none-eabi\\include
 1133              		.file 3 "c:\\program files (x86)\\gnu tools arm embedded\\6 2017-q2-update\\arm-none-eabi\\include
 1134              		.file 4 "c:\\program files (x86)\\gnu tools arm embedded\\6 2017-q2-update\\arm-none-eabi\\include
 1135              		.file 5 "c:\\program files (x86)\\gnu tools arm embedded\\6 2017-q2-update\\arm-none-eabi\\include
 1136              		.file 6 "c:\\program files (x86)\\gnu tools arm embedded\\6 2017-q2-update\\arm-none-eabi\\include
 1137              		.file 7 "c:\\program files (x86)\\gnu tools arm embedded\\6 2017-q2-update\\lib\\gcc\\arm-none-eab
 1138              		.file 8 "c:\\program files (x86)\\gnu tools arm embedded\\6 2017-q2-update\\arm-none-eabi\\include
 1139              		.file 9 "c:\\program files (x86)\\gnu tools arm embedded\\6 2017-q2-update\\arm-none-eabi\\include
 1140              		.file 10 "D:\\Work\\DeviceTester\\amazon-freertos\\lib\\third_party\\unity\\src/unity_internals.h"
 1141              		.file 11 "D:\\Work\\DeviceTester\\amazon-freertos\\lib\\FreeRTOS\\portable\\GCC\\ARM_CA9_RZA2M/por
 1142              		.file 12 "c:\\program files (x86)\\gnu tools arm embedded\\6 2017-q2-update\\arm-none-eabi\\includ
 1143              		.file 13 "D:\\Work\\DeviceTester\\amazon-freertos\\lib\\third_party\\unity\\extras\\fixture\\src/u
 1144              		.file 14 "D:\\Work\\DeviceTester\\amazon-freertos\\lib\\include/aws_crypto.h"