   1              		.cpu cortex-a9
   2              		.eabi_attribute 28, 1
   3              		.eabi_attribute 20, 1
   4              		.eabi_attribute 21, 1
   5              		.eabi_attribute 23, 3
   6              		.eabi_attribute 24, 1
   7              		.eabi_attribute 25, 1
   8              		.eabi_attribute 26, 1
   9              		.eabi_attribute 30, 4
  10              		.eabi_attribute 34, 0
  11              		.eabi_attribute 18, 4
  12              		.file	"aws_test_framework.c"
  13              		.text
  14              	.Ltext0:
  15              		.cfi_sections	.debug_frame
  16              		.section	.text.TEST_SubmitResult,"ax",%progbits
  17              		.align	2
  18              		.global	TEST_SubmitResult
  19              		.syntax unified
  20              		.arm
  21              		.fpu neon
  23              	TEST_SubmitResult:
  24              	.LFB5:
  25              		.file 1 "D:/Work/DeviceTester/amazon-freertos/tests/common/framework/aws_test_framework.c"
   1:D:/Work/DeviceTester/amazon-freertos/tests/common/framework\aws_test_framework.c **** /*
   2:D:/Work/DeviceTester/amazon-freertos/tests/common/framework\aws_test_framework.c ****  * Amazon FreeRTOS
   3:D:/Work/DeviceTester/amazon-freertos/tests/common/framework\aws_test_framework.c ****  * Copyright (C) 2017 Amazon.com, Inc. or its affiliates.  All Rights Reserved.
   4:D:/Work/DeviceTester/amazon-freertos/tests/common/framework\aws_test_framework.c ****  *
   5:D:/Work/DeviceTester/amazon-freertos/tests/common/framework\aws_test_framework.c ****  * Permission is hereby granted, free of charge, to any person obtaining a copy of
   6:D:/Work/DeviceTester/amazon-freertos/tests/common/framework\aws_test_framework.c ****  * this software and associated documentation files (the "Software"), to deal in
   7:D:/Work/DeviceTester/amazon-freertos/tests/common/framework\aws_test_framework.c ****  * the Software without restriction, including without limitation the rights to
   8:D:/Work/DeviceTester/amazon-freertos/tests/common/framework\aws_test_framework.c ****  * use, copy, modify, merge, publish, distribute, sublicense, and/or sell copies of
   9:D:/Work/DeviceTester/amazon-freertos/tests/common/framework\aws_test_framework.c ****  * the Software, and to permit persons to whom the Software is furnished to do so,
  10:D:/Work/DeviceTester/amazon-freertos/tests/common/framework\aws_test_framework.c ****  * subject to the following conditions:
  11:D:/Work/DeviceTester/amazon-freertos/tests/common/framework\aws_test_framework.c ****  *
  12:D:/Work/DeviceTester/amazon-freertos/tests/common/framework\aws_test_framework.c ****  * The above copyright notice and this permission notice shall be included in all
  13:D:/Work/DeviceTester/amazon-freertos/tests/common/framework\aws_test_framework.c ****  * copies or substantial portions of the Software.
  14:D:/Work/DeviceTester/amazon-freertos/tests/common/framework\aws_test_framework.c ****  *
  15:D:/Work/DeviceTester/amazon-freertos/tests/common/framework\aws_test_framework.c ****  * THE SOFTWARE IS PROVIDED "AS IS", WITHOUT WARRANTY OF ANY KIND, EXPRESS OR
  16:D:/Work/DeviceTester/amazon-freertos/tests/common/framework\aws_test_framework.c ****  * IMPLIED, INCLUDING BUT NOT LIMITED TO THE WARRANTIES OF MERCHANTABILITY, FITNESS
  17:D:/Work/DeviceTester/amazon-freertos/tests/common/framework\aws_test_framework.c ****  * FOR A PARTICULAR PURPOSE AND NONINFRINGEMENT. IN NO EVENT SHALL THE AUTHORS OR
  18:D:/Work/DeviceTester/amazon-freertos/tests/common/framework\aws_test_framework.c ****  * COPYRIGHT HOLDERS BE LIABLE FOR ANY CLAIM, DAMAGES OR OTHER LIABILITY, WHETHER
  19:D:/Work/DeviceTester/amazon-freertos/tests/common/framework\aws_test_framework.c ****  * IN AN ACTION OF CONTRACT, TORT OR OTHERWISE, ARISING FROM, OUT OF OR IN
  20:D:/Work/DeviceTester/amazon-freertos/tests/common/framework\aws_test_framework.c ****  * CONNECTION WITH THE SOFTWARE OR THE USE OR OTHER DEALINGS IN THE SOFTWARE.
  21:D:/Work/DeviceTester/amazon-freertos/tests/common/framework\aws_test_framework.c ****  *
  22:D:/Work/DeviceTester/amazon-freertos/tests/common/framework\aws_test_framework.c ****  * http://aws.amazon.com/freertos
  23:D:/Work/DeviceTester/amazon-freertos/tests/common/framework\aws_test_framework.c ****  * http://www.FreeRTOS.org
  24:D:/Work/DeviceTester/amazon-freertos/tests/common/framework\aws_test_framework.c ****  */
  25:D:/Work/DeviceTester/amazon-freertos/tests/common/framework\aws_test_framework.c **** 
  26:D:/Work/DeviceTester/amazon-freertos/tests/common/framework\aws_test_framework.c **** /* Standard includes. */
  27:D:/Work/DeviceTester/amazon-freertos/tests/common/framework\aws_test_framework.c **** #include <stdio.h>
  28:D:/Work/DeviceTester/amazon-freertos/tests/common/framework\aws_test_framework.c **** #include <string.h>
  29:D:/Work/DeviceTester/amazon-freertos/tests/common/framework\aws_test_framework.c **** 
  30:D:/Work/DeviceTester/amazon-freertos/tests/common/framework\aws_test_framework.c **** /* FreeRTOS includes. */
  31:D:/Work/DeviceTester/amazon-freertos/tests/common/framework\aws_test_framework.c **** #include "FreeRTOS.h"
  32:D:/Work/DeviceTester/amazon-freertos/tests/common/framework\aws_test_framework.c **** #include "task.h"
  33:D:/Work/DeviceTester/amazon-freertos/tests/common/framework\aws_test_framework.c **** #include "aws_logging_task.h"
  34:D:/Work/DeviceTester/amazon-freertos/tests/common/framework\aws_test_framework.c **** 
  35:D:/Work/DeviceTester/amazon-freertos/tests/common/framework\aws_test_framework.c **** /* Test framework include */
  36:D:/Work/DeviceTester/amazon-freertos/tests/common/framework\aws_test_framework.c **** #include "aws_test_framework.h"
  37:D:/Work/DeviceTester/amazon-freertos/tests/common/framework\aws_test_framework.c **** 
  38:D:/Work/DeviceTester/amazon-freertos/tests/common/framework\aws_test_framework.c **** /* Unity include */
  39:D:/Work/DeviceTester/amazon-freertos/tests/common/framework\aws_test_framework.c **** #include "unity.h"
  40:D:/Work/DeviceTester/amazon-freertos/tests/common/framework\aws_test_framework.c **** 
  41:D:/Work/DeviceTester/amazon-freertos/tests/common/framework\aws_test_framework.c **** #define TEST_RESULT_BUFFER_CAPACITY    1024
  42:D:/Work/DeviceTester/amazon-freertos/tests/common/framework\aws_test_framework.c **** 
  43:D:/Work/DeviceTester/amazon-freertos/tests/common/framework\aws_test_framework.c **** /*-----------------------------------------------------------*/
  44:D:/Work/DeviceTester/amazon-freertos/tests/common/framework\aws_test_framework.c **** 
  45:D:/Work/DeviceTester/amazon-freertos/tests/common/framework\aws_test_framework.c **** /* The buffer to store test result. The content will be printed if an eol character
  46:D:/Work/DeviceTester/amazon-freertos/tests/common/framework\aws_test_framework.c ****  * is received */
  47:D:/Work/DeviceTester/amazon-freertos/tests/common/framework\aws_test_framework.c **** static char pcTestResultBuffer[ TEST_RESULT_BUFFER_CAPACITY ];
  48:D:/Work/DeviceTester/amazon-freertos/tests/common/framework\aws_test_framework.c **** static int16_t xBufferSize = 0;
  49:D:/Work/DeviceTester/amazon-freertos/tests/common/framework\aws_test_framework.c **** 
  50:D:/Work/DeviceTester/amazon-freertos/tests/common/framework\aws_test_framework.c **** /*-----------------------------------------------------------*/
  51:D:/Work/DeviceTester/amazon-freertos/tests/common/framework\aws_test_framework.c **** 
  52:D:/Work/DeviceTester/amazon-freertos/tests/common/framework\aws_test_framework.c **** void TEST_CacheResult( char cResult )
  53:D:/Work/DeviceTester/amazon-freertos/tests/common/framework\aws_test_framework.c **** {
  54:D:/Work/DeviceTester/amazon-freertos/tests/common/framework\aws_test_framework.c ****     if( TEST_RESULT_BUFFER_CAPACITY - xBufferSize == 2 )
  55:D:/Work/DeviceTester/amazon-freertos/tests/common/framework\aws_test_framework.c ****     {
  56:D:/Work/DeviceTester/amazon-freertos/tests/common/framework\aws_test_framework.c ****         cResult = '\n';
  57:D:/Work/DeviceTester/amazon-freertos/tests/common/framework\aws_test_framework.c ****     }
  58:D:/Work/DeviceTester/amazon-freertos/tests/common/framework\aws_test_framework.c **** 
  59:D:/Work/DeviceTester/amazon-freertos/tests/common/framework\aws_test_framework.c ****     pcTestResultBuffer[ xBufferSize++ ] = cResult;
  60:D:/Work/DeviceTester/amazon-freertos/tests/common/framework\aws_test_framework.c **** 
  61:D:/Work/DeviceTester/amazon-freertos/tests/common/framework\aws_test_framework.c ****     if( ( '\n' == cResult ) )
  62:D:/Work/DeviceTester/amazon-freertos/tests/common/framework\aws_test_framework.c ****     {
  63:D:/Work/DeviceTester/amazon-freertos/tests/common/framework\aws_test_framework.c ****         TEST_SubmitResultBuffer();
  64:D:/Work/DeviceTester/amazon-freertos/tests/common/framework\aws_test_framework.c ****     }
  65:D:/Work/DeviceTester/amazon-freertos/tests/common/framework\aws_test_framework.c **** }
  66:D:/Work/DeviceTester/amazon-freertos/tests/common/framework\aws_test_framework.c **** /*-----------------------------------------------------------*/
  67:D:/Work/DeviceTester/amazon-freertos/tests/common/framework\aws_test_framework.c **** 
  68:D:/Work/DeviceTester/amazon-freertos/tests/common/framework\aws_test_framework.c **** void TEST_SubmitResultBuffer()
  69:D:/Work/DeviceTester/amazon-freertos/tests/common/framework\aws_test_framework.c **** {
  70:D:/Work/DeviceTester/amazon-freertos/tests/common/framework\aws_test_framework.c ****     if( 0 != xBufferSize )
  71:D:/Work/DeviceTester/amazon-freertos/tests/common/framework\aws_test_framework.c ****     {
  72:D:/Work/DeviceTester/amazon-freertos/tests/common/framework\aws_test_framework.c ****         TEST_SubmitResult( pcTestResultBuffer );
  73:D:/Work/DeviceTester/amazon-freertos/tests/common/framework\aws_test_framework.c ****         memset( pcTestResultBuffer, 0, TEST_RESULT_BUFFER_CAPACITY );
  74:D:/Work/DeviceTester/amazon-freertos/tests/common/framework\aws_test_framework.c ****         xBufferSize = 0;
  75:D:/Work/DeviceTester/amazon-freertos/tests/common/framework\aws_test_framework.c ****     }
  76:D:/Work/DeviceTester/amazon-freertos/tests/common/framework\aws_test_framework.c **** }
  77:D:/Work/DeviceTester/amazon-freertos/tests/common/framework\aws_test_framework.c **** /*-----------------------------------------------------------*/
  78:D:/Work/DeviceTester/amazon-freertos/tests/common/framework\aws_test_framework.c **** 
  79:D:/Work/DeviceTester/amazon-freertos/tests/common/framework\aws_test_framework.c **** void TEST_NotifyTestStart()
  80:D:/Work/DeviceTester/amazon-freertos/tests/common/framework\aws_test_framework.c **** {
  81:D:/Work/DeviceTester/amazon-freertos/tests/common/framework\aws_test_framework.c ****     /* Wait for test script to open serial port before starting tests on the
  82:D:/Work/DeviceTester/amazon-freertos/tests/common/framework\aws_test_framework.c ****      * board.*/
  83:D:/Work/DeviceTester/amazon-freertos/tests/common/framework\aws_test_framework.c ****     vTaskDelay( pdMS_TO_TICKS( 5000UL ) );
  84:D:/Work/DeviceTester/amazon-freertos/tests/common/framework\aws_test_framework.c ****     TEST_SubmitResult( "---------STARTING TESTS---------\n" );
  85:D:/Work/DeviceTester/amazon-freertos/tests/common/framework\aws_test_framework.c **** }
  86:D:/Work/DeviceTester/amazon-freertos/tests/common/framework\aws_test_framework.c **** /*-----------------------------------------------------------*/
  87:D:/Work/DeviceTester/amazon-freertos/tests/common/framework\aws_test_framework.c **** 
  88:D:/Work/DeviceTester/amazon-freertos/tests/common/framework\aws_test_framework.c **** void TEST_NotifyTestFinished()
  89:D:/Work/DeviceTester/amazon-freertos/tests/common/framework\aws_test_framework.c **** {
  90:D:/Work/DeviceTester/amazon-freertos/tests/common/framework\aws_test_framework.c ****     TEST_SubmitResult( "-------ALL TESTS FINISHED-------\n" );
  91:D:/Work/DeviceTester/amazon-freertos/tests/common/framework\aws_test_framework.c **** }
  92:D:/Work/DeviceTester/amazon-freertos/tests/common/framework\aws_test_framework.c **** /*-----------------------------------------------------------*/
  93:D:/Work/DeviceTester/amazon-freertos/tests/common/framework\aws_test_framework.c **** 
  94:D:/Work/DeviceTester/amazon-freertos/tests/common/framework\aws_test_framework.c **** void TEST_SubmitResult( const char * pcResult )
  95:D:/Work/DeviceTester/amazon-freertos/tests/common/framework\aws_test_framework.c **** {
  26              		.loc 1 95 0
  27              		.cfi_startproc
  28              		@ args = 0, pretend = 0, frame = 0
  29              		@ frame_needed = 0, uses_anonymous_args = 0
  30              	.LVL0:
  31 0000 10402DE9 		push	{r4, lr}
  32              		.cfi_def_cfa_offset 8
  33              		.cfi_offset 4, -8
  34              		.cfi_offset 14, -4
  96:D:/Work/DeviceTester/amazon-freertos/tests/common/framework\aws_test_framework.c ****     /* We want to print test result no matter configPRINTF is defined or not */
  97:D:/Work/DeviceTester/amazon-freertos/tests/common/framework\aws_test_framework.c ****     vLoggingPrint( pcResult );
  35              		.loc 1 97 0
  36 0004 FEFFFFEB 		bl	vLoggingPrint
  37              	.LVL1:
  98:D:/Work/DeviceTester/amazon-freertos/tests/common/framework\aws_test_framework.c **** 
  99:D:/Work/DeviceTester/amazon-freertos/tests/common/framework\aws_test_framework.c ****     /* Wait for 0.1 seconds to let print task empty its buffer. */
 100:D:/Work/DeviceTester/amazon-freertos/tests/common/framework\aws_test_framework.c ****     vTaskDelay( pdMS_TO_TICKS( 100UL ) );
  38              		.loc 1 100 0
  39 0008 6400A0E3 		mov	r0, #100
 101:D:/Work/DeviceTester/amazon-freertos/tests/common/framework\aws_test_framework.c **** }
  40              		.loc 1 101 0
  41 000c 1040BDE8 		pop	{r4, lr}
  42              		.cfi_restore 14
  43              		.cfi_restore 4
  44              		.cfi_def_cfa_offset 0
 100:D:/Work/DeviceTester/amazon-freertos/tests/common/framework\aws_test_framework.c **** }
  45              		.loc 1 100 0
  46 0010 FEFFFFEA 		b	vTaskDelay
  47              	.LVL2:
  48              		.cfi_endproc
  49              	.LFE5:
  51              		.section	.text.TEST_SubmitResultBuffer,"ax",%progbits
  52              		.align	2
  53              		.global	TEST_SubmitResultBuffer
  54              		.syntax unified
  55              		.arm
  56              		.fpu neon
  58              	TEST_SubmitResultBuffer:
  59              	.LFB2:
  69:D:/Work/DeviceTester/amazon-freertos/tests/common/framework\aws_test_framework.c ****     if( 0 != xBufferSize )
  60              		.loc 1 69 0
  61              		.cfi_startproc
  62              		@ args = 0, pretend = 0, frame = 0
  63              		@ frame_needed = 0, uses_anonymous_args = 0
  64 0000 10402DE9 		push	{r4, lr}
  65              		.cfi_def_cfa_offset 8
  66              		.cfi_offset 4, -8
  67              		.cfi_offset 14, -4
  70:D:/Work/DeviceTester/amazon-freertos/tests/common/framework\aws_test_framework.c ****     {
  68              		.loc 1 70 0
  69 0004 2C409FE5 		ldr	r4, .L9
  70 0008 F030D4E1 		ldrsh	r3, [r4]
  71 000c 000053E3 		cmp	r3, #0
  72 0010 1080BD08 		popeq	{r4, pc}
  73              	.LBB4:
  74              	.LBB5:
  72:D:/Work/DeviceTester/amazon-freertos/tests/common/framework\aws_test_framework.c ****         memset( pcTestResultBuffer, 0, TEST_RESULT_BUFFER_CAPACITY );
  75              		.loc 1 72 0
  76 0014 20009FE5 		ldr	r0, .L9+4
  77 0018 FEFFFFEB 		bl	TEST_SubmitResult
  78              	.LVL3:
  73:D:/Work/DeviceTester/amazon-freertos/tests/common/framework\aws_test_framework.c ****         xBufferSize = 0;
  79              		.loc 1 73 0
  80 001c 012BA0E3 		mov	r2, #1024
  81 0020 0010A0E3 		mov	r1, #0
  82 0024 10009FE5 		ldr	r0, .L9+4
  83 0028 FEFFFFEB 		bl	memset
  84              	.LVL4:
  74:D:/Work/DeviceTester/amazon-freertos/tests/common/framework\aws_test_framework.c ****     }
  85              		.loc 1 74 0
  86 002c 0030A0E3 		mov	r3, #0
  87 0030 B030C4E1 		strh	r3, [r4]	@ movhi
  88 0034 1080BDE8 		pop	{r4, pc}
  89              	.L10:
  90              		.align	2
  91              	.L9:
  92 0038 00000000 		.word	.LANCHOR0
  93 003c 00000000 		.word	.LANCHOR1
  94              	.LBE5:
  95              	.LBE4:
  96              		.cfi_endproc
  97              	.LFE2:
  99              		.section	.text.TEST_CacheResult,"ax",%progbits
 100              		.align	2
 101              		.global	TEST_CacheResult
 102              		.syntax unified
 103              		.arm
 104              		.fpu neon
 106              	TEST_CacheResult:
 107              	.LFB1:
  53:D:/Work/DeviceTester/amazon-freertos/tests/common/framework\aws_test_framework.c ****     if( TEST_RESULT_BUFFER_CAPACITY - xBufferSize == 2 )
 108              		.loc 1 53 0
 109              		.cfi_startproc
 110              		@ args = 0, pretend = 0, frame = 0
 111              		@ frame_needed = 0, uses_anonymous_args = 0
 112              		@ link register save eliminated.
 113              	.LVL5:
  54:D:/Work/DeviceTester/amazon-freertos/tests/common/framework\aws_test_framework.c ****     {
 114              		.loc 1 54 0
 115 0000 28209FE5 		ldr	r2, .L14
 116 0004 F030D2E1 		ldrsh	r3, [r2]
 117 0008 011B63E2 		rsb	r1, r3, #1024
  56:D:/Work/DeviceTester/amazon-freertos/tests/common/framework\aws_test_framework.c ****     }
 118              		.loc 1 56 0
 119 000c 020051E3 		cmp	r1, #2
  59:D:/Work/DeviceTester/amazon-freertos/tests/common/framework\aws_test_framework.c **** 
 120              		.loc 1 59 0
 121 0010 011083E2 		add	r1, r3, #1
 122 0014 B010C2E1 		strh	r1, [r2]	@ movhi
  56:D:/Work/DeviceTester/amazon-freertos/tests/common/framework\aws_test_framework.c ****     }
 123              		.loc 1 56 0
 124 0018 0A00A003 		moveq	r0, #10
 125              	.LVL6:
  59:D:/Work/DeviceTester/amazon-freertos/tests/common/framework\aws_test_framework.c **** 
 126              		.loc 1 59 0
 127 001c 10209FE5 		ldr	r2, .L14+4
  61:D:/Work/DeviceTester/amazon-freertos/tests/common/framework\aws_test_framework.c ****     {
 128              		.loc 1 61 0
 129 0020 0A0050E3 		cmp	r0, #10
  59:D:/Work/DeviceTester/amazon-freertos/tests/common/framework\aws_test_framework.c **** 
 130              		.loc 1 59 0
 131 0024 0300C2E7 		strb	r0, [r2, r3]
  61:D:/Work/DeviceTester/amazon-freertos/tests/common/framework\aws_test_framework.c ****     {
 132              		.loc 1 61 0
 133 0028 1EFF2F11 		bxne	lr
 134              	.LVL7:
  63:D:/Work/DeviceTester/amazon-freertos/tests/common/framework\aws_test_framework.c ****     }
 135              		.loc 1 63 0
 136 002c FEFFFFEA 		b	TEST_SubmitResultBuffer
 137              	.LVL8:
 138              	.L15:
 139              		.align	2
 140              	.L14:
 141 0030 00000000 		.word	.LANCHOR0
 142 0034 00000000 		.word	.LANCHOR1
 143              		.cfi_endproc
 144              	.LFE1:
 146              		.section	.text.TEST_NotifyTestStart,"ax",%progbits
 147              		.align	2
 148              		.global	TEST_NotifyTestStart
 149              		.syntax unified
 150              		.arm
 151              		.fpu neon
 153              	TEST_NotifyTestStart:
 154              	.LFB3:
  80:D:/Work/DeviceTester/amazon-freertos/tests/common/framework\aws_test_framework.c ****     /* Wait for test script to open serial port before starting tests on the
 155              		.loc 1 80 0
 156              		.cfi_startproc
 157              		@ args = 0, pretend = 0, frame = 0
 158              		@ frame_needed = 0, uses_anonymous_args = 0
 159 0000 10402DE9 		push	{r4, lr}
 160              		.cfi_def_cfa_offset 8
 161              		.cfi_offset 4, -8
 162              		.cfi_offset 14, -4
  83:D:/Work/DeviceTester/amazon-freertos/tests/common/framework\aws_test_framework.c ****     TEST_SubmitResult( "---------STARTING TESTS---------\n" );
 163              		.loc 1 83 0
 164 0004 880301E3 		movw	r0, #5000
 165 0008 FEFFFFEB 		bl	vTaskDelay
 166              	.LVL9:
  84:D:/Work/DeviceTester/amazon-freertos/tests/common/framework\aws_test_framework.c **** }
 167              		.loc 1 84 0
 168 000c 04009FE5 		ldr	r0, .L18
  85:D:/Work/DeviceTester/amazon-freertos/tests/common/framework\aws_test_framework.c **** /*-----------------------------------------------------------*/
 169              		.loc 1 85 0
 170 0010 1040BDE8 		pop	{r4, lr}
 171              		.cfi_restore 14
 172              		.cfi_restore 4
 173              		.cfi_def_cfa_offset 0
  84:D:/Work/DeviceTester/amazon-freertos/tests/common/framework\aws_test_framework.c **** }
 174              		.loc 1 84 0
 175 0014 FEFFFFEA 		b	TEST_SubmitResult
 176              	.LVL10:
 177              	.L19:
 178              		.align	2
 179              	.L18:
 180 0018 00000000 		.word	.LC0
 181              		.cfi_endproc
 182              	.LFE3:
 184              		.section	.text.TEST_NotifyTestFinished,"ax",%progbits
 185              		.align	2
 186              		.global	TEST_NotifyTestFinished
 187              		.syntax unified
 188              		.arm
 189              		.fpu neon
 191              	TEST_NotifyTestFinished:
 192              	.LFB4:
  89:D:/Work/DeviceTester/amazon-freertos/tests/common/framework\aws_test_framework.c ****     TEST_SubmitResult( "-------ALL TESTS FINISHED-------\n" );
 193              		.loc 1 89 0
 194              		.cfi_startproc
 195              		@ args = 0, pretend = 0, frame = 0
 196              		@ frame_needed = 0, uses_anonymous_args = 0
 197              		@ link register save eliminated.
  90:D:/Work/DeviceTester/amazon-freertos/tests/common/framework\aws_test_framework.c **** }
 198              		.loc 1 90 0
 199 0000 00009FE5 		ldr	r0, .L21
 200 0004 FEFFFFEA 		b	TEST_SubmitResult
 201              	.LVL11:
 202              	.L22:
 203              		.align	2
 204              	.L21:
 205 0008 00000000 		.word	.LC1
 206              		.cfi_endproc
 207              	.LFE4:
 209              		.section	.bss.pcTestResultBuffer,"aw",%nobits
 210              		.set	.LANCHOR1,. + 0
 213              	pcTestResultBuffer:
 214 0000 00000000 		.space	1024
 214      00000000 
 214      00000000 
 214      00000000 
 214      00000000 
 215              		.section	.bss.xBufferSize,"aw",%nobits
 216              		.align	1
 217              		.set	.LANCHOR0,. + 0
 220              	xBufferSize:
 221 0000 0000     		.space	2
 222              		.section	.rodata.TEST_NotifyTestFinished.str1.1,"aMS",%progbits,1
 223              	.LC1:
 224 0000 2D2D2D2D 		.ascii	"-------ALL TESTS FINISHED-------\012\000"
 224      2D2D2D41 
 224      4C4C2054 
 224      45535453 
 224      2046494E 
 225              		.section	.rodata.TEST_NotifyTestStart.str1.1,"aMS",%progbits,1
 226              	.LC0:
 227 0000 2D2D2D2D 		.ascii	"---------STARTING TESTS---------\012\000"
 227      2D2D2D2D 
 227      2D535441 
 227      5254494E 
 227      47205445 
 228              		.text
 229              	.Letext0:
 230              		.file 2 "c:\\program files (x86)\\gnu tools arm embedded\\6 2017-q2-update\\arm-none-eabi\\include
 231              		.file 3 "c:\\program files (x86)\\gnu tools arm embedded\\6 2017-q2-update\\arm-none-eabi\\include
 232              		.file 4 "c:\\program files (x86)\\gnu tools arm embedded\\6 2017-q2-update\\arm-none-eabi\\include
 233              		.file 5 "c:\\program files (x86)\\gnu tools arm embedded\\6 2017-q2-update\\lib\\gcc\\arm-none-eab
 234              		.file 6 "c:\\program files (x86)\\gnu tools arm embedded\\6 2017-q2-update\\arm-none-eabi\\include
 235              		.file 7 "c:\\program files (x86)\\gnu tools arm embedded\\6 2017-q2-update\\arm-none-eabi\\include
 236              		.file 8 "c:\\program files (x86)\\gnu tools arm embedded\\6 2017-q2-update\\arm-none-eabi\\include
 237              		.file 9 "c:\\program files (x86)\\gnu tools arm embedded\\6 2017-q2-update\\arm-none-eabi\\include
 238              		.file 10 "D:\\Work\\DeviceTester\\amazon-freertos\\lib\\third_party\\unity\\src/unity_internals.h"
 239              		.file 11 "D:\\Work\\DeviceTester\\amazon-freertos\\lib\\FreeRTOS\\portable\\GCC\\ARM_CA9_RZA2M/por
 240              		.file 12 "D:\\Work\\DeviceTester\\amazon-freertos\\tests\\renesas\\rza2m-gr-mango\\common\\config_
 241              		.file 13 "D:\\Work\\DeviceTester\\amazon-freertos\\lib\\include/task.h"