   1              		.cpu cortex-a9
   2              		.eabi_attribute 28, 1
   3              		.eabi_attribute 20, 1
   4              		.eabi_attribute 21, 1
   5              		.eabi_attribute 23, 3
   6              		.eabi_attribute 24, 1
   7              		.eabi_attribute 25, 1
   8              		.eabi_attribute 26, 1
   9              		.eabi_attribute 30, 4
  10              		.eabi_attribute 34, 0
  11              		.eabi_attribute 18, 4
  12              		.file	"aws_shadow_json.c"
  13              		.text
  14              	.Ltext0:
  15              		.cfi_sections	.debug_frame
  16              		.section	.text.prvGetJSONValue,"ax",%progbits
  17              		.align	2
  18              		.syntax unified
  19              		.arm
  20              		.fpu neon
  22              	prvGetJSONValue:
  23              	.LFB3:
  24              		.file 1 "D:/Work/DeviceTester/amazon-freertos/lib/shadow/aws_shadow_json.c"
   1:D:/Work/DeviceTester/amazon-freertos/lib/shadow\aws_shadow_json.c **** /*
   2:D:/Work/DeviceTester/amazon-freertos/lib/shadow\aws_shadow_json.c ****  * Amazon FreeRTOS Shadow V1.0.5
   3:D:/Work/DeviceTester/amazon-freertos/lib/shadow\aws_shadow_json.c ****  * Copyright (C) 2017 Amazon.com, Inc. or its affiliates.  All Rights Reserved.
   4:D:/Work/DeviceTester/amazon-freertos/lib/shadow\aws_shadow_json.c ****  *
   5:D:/Work/DeviceTester/amazon-freertos/lib/shadow\aws_shadow_json.c ****  * Permission is hereby granted, free of charge, to any person obtaining a copy of
   6:D:/Work/DeviceTester/amazon-freertos/lib/shadow\aws_shadow_json.c ****  * this software and associated documentation files (the "Software"), to deal in
   7:D:/Work/DeviceTester/amazon-freertos/lib/shadow\aws_shadow_json.c ****  * the Software without restriction, including without limitation the rights to
   8:D:/Work/DeviceTester/amazon-freertos/lib/shadow\aws_shadow_json.c ****  * use, copy, modify, merge, publish, distribute, sublicense, and/or sell copies of
   9:D:/Work/DeviceTester/amazon-freertos/lib/shadow\aws_shadow_json.c ****  * the Software, and to permit persons to whom the Software is furnished to do so,
  10:D:/Work/DeviceTester/amazon-freertos/lib/shadow\aws_shadow_json.c ****  * subject to the following conditions:
  11:D:/Work/DeviceTester/amazon-freertos/lib/shadow\aws_shadow_json.c ****  *
  12:D:/Work/DeviceTester/amazon-freertos/lib/shadow\aws_shadow_json.c ****  * The above copyright notice and this permission notice shall be included in all
  13:D:/Work/DeviceTester/amazon-freertos/lib/shadow\aws_shadow_json.c ****  * copies or substantial portions of the Software.
  14:D:/Work/DeviceTester/amazon-freertos/lib/shadow\aws_shadow_json.c ****  *
  15:D:/Work/DeviceTester/amazon-freertos/lib/shadow\aws_shadow_json.c ****  * THE SOFTWARE IS PROVIDED "AS IS", WITHOUT WARRANTY OF ANY KIND, EXPRESS OR
  16:D:/Work/DeviceTester/amazon-freertos/lib/shadow\aws_shadow_json.c ****  * IMPLIED, INCLUDING BUT NOT LIMITED TO THE WARRANTIES OF MERCHANTABILITY, FITNESS
  17:D:/Work/DeviceTester/amazon-freertos/lib/shadow\aws_shadow_json.c ****  * FOR A PARTICULAR PURPOSE AND NONINFRINGEMENT. IN NO EVENT SHALL THE AUTHORS OR
  18:D:/Work/DeviceTester/amazon-freertos/lib/shadow\aws_shadow_json.c ****  * COPYRIGHT HOLDERS BE LIABLE FOR ANY CLAIM, DAMAGES OR OTHER LIABILITY, WHETHER
  19:D:/Work/DeviceTester/amazon-freertos/lib/shadow\aws_shadow_json.c ****  * IN AN ACTION OF CONTRACT, TORT OR OTHERWISE, ARISING FROM, OUT OF OR IN
  20:D:/Work/DeviceTester/amazon-freertos/lib/shadow\aws_shadow_json.c ****  * CONNECTION WITH THE SOFTWARE OR THE USE OR OTHER DEALINGS IN THE SOFTWARE.
  21:D:/Work/DeviceTester/amazon-freertos/lib/shadow\aws_shadow_json.c ****  *
  22:D:/Work/DeviceTester/amazon-freertos/lib/shadow\aws_shadow_json.c ****  * http://aws.amazon.com/freertos
  23:D:/Work/DeviceTester/amazon-freertos/lib/shadow\aws_shadow_json.c ****  * http://www.FreeRTOS.org
  24:D:/Work/DeviceTester/amazon-freertos/lib/shadow\aws_shadow_json.c ****  */
  25:D:/Work/DeviceTester/amazon-freertos/lib/shadow\aws_shadow_json.c **** 
  26:D:/Work/DeviceTester/amazon-freertos/lib/shadow\aws_shadow_json.c **** /**
  27:D:/Work/DeviceTester/amazon-freertos/lib/shadow\aws_shadow_json.c ****  * @file aws_shadow_json.c
  28:D:/Work/DeviceTester/amazon-freertos/lib/shadow\aws_shadow_json.c ****  * @brief JSON wrapper for shadow API.
  29:D:/Work/DeviceTester/amazon-freertos/lib/shadow\aws_shadow_json.c ****  */
  30:D:/Work/DeviceTester/amazon-freertos/lib/shadow\aws_shadow_json.c **** 
  31:D:/Work/DeviceTester/amazon-freertos/lib/shadow\aws_shadow_json.c **** /* C library includes. */
  32:D:/Work/DeviceTester/amazon-freertos/lib/shadow\aws_shadow_json.c **** #include <string.h>
  33:D:/Work/DeviceTester/amazon-freertos/lib/shadow\aws_shadow_json.c **** #include <stdlib.h>
  34:D:/Work/DeviceTester/amazon-freertos/lib/shadow\aws_shadow_json.c **** 
  35:D:/Work/DeviceTester/amazon-freertos/lib/shadow\aws_shadow_json.c **** /* AWS includes. */
  36:D:/Work/DeviceTester/amazon-freertos/lib/shadow\aws_shadow_json.c **** #include "aws_shadow_json.h"
  37:D:/Work/DeviceTester/amazon-freertos/lib/shadow\aws_shadow_json.c **** 
  38:D:/Work/DeviceTester/amazon-freertos/lib/shadow\aws_shadow_json.c **** /* Other includes. */
  39:D:/Work/DeviceTester/amazon-freertos/lib/shadow\aws_shadow_json.c **** #include "jsmn.h"
  40:D:/Work/DeviceTester/amazon-freertos/lib/shadow\aws_shadow_json.c **** 
  41:D:/Work/DeviceTester/amazon-freertos/lib/shadow\aws_shadow_json.c **** /* Sockets configuration includes. */
  42:D:/Work/DeviceTester/amazon-freertos/lib/shadow\aws_shadow_json.c **** #include "aws_shadow_config.h"
  43:D:/Work/DeviceTester/amazon-freertos/lib/shadow\aws_shadow_json.c **** #include "aws_shadow_config_defaults.h"
  44:D:/Work/DeviceTester/amazon-freertos/lib/shadow\aws_shadow_json.c **** 
  45:D:/Work/DeviceTester/amazon-freertos/lib/shadow\aws_shadow_json.c **** /* The JSON keys to search for when looking for the error code and message,
  46:D:/Work/DeviceTester/amazon-freertos/lib/shadow\aws_shadow_json.c ****  * and client token, respectively. */
  47:D:/Work/DeviceTester/amazon-freertos/lib/shadow\aws_shadow_json.c **** #define shadowJSON_ERROR_CODE       "code"
  48:D:/Work/DeviceTester/amazon-freertos/lib/shadow\aws_shadow_json.c **** #define shadowJSON_ERROR_MESSAGE    "message"
  49:D:/Work/DeviceTester/amazon-freertos/lib/shadow\aws_shadow_json.c **** #define shadowJSON_CLIENT_TOKEN     "clientToken"
  50:D:/Work/DeviceTester/amazon-freertos/lib/shadow\aws_shadow_json.c **** 
  51:D:/Work/DeviceTester/amazon-freertos/lib/shadow\aws_shadow_json.c **** /**
  52:D:/Work/DeviceTester/amazon-freertos/lib/shadow\aws_shadow_json.c ****  * @brief Given a JSON key, get its value. Does not work on arrays or objects.  Returns
  53:D:/Work/DeviceTester/amazon-freertos/lib/shadow\aws_shadow_json.c ****  * length of value and sets ppcValue to the start of the value.  Returns 0 on
  54:D:/Work/DeviceTester/amazon-freertos/lib/shadow\aws_shadow_json.c ****  * error (key-value does not exist).
  55:D:/Work/DeviceTester/amazon-freertos/lib/shadow\aws_shadow_json.c ****  */
  56:D:/Work/DeviceTester/amazon-freertos/lib/shadow\aws_shadow_json.c **** static uint16_t prvGetJSONValue( const char ** ppcValue,
  57:D:/Work/DeviceTester/amazon-freertos/lib/shadow\aws_shadow_json.c ****                                  const char * const pcKey,
  58:D:/Work/DeviceTester/amazon-freertos/lib/shadow\aws_shadow_json.c ****                                  const char * const pcDoc,
  59:D:/Work/DeviceTester/amazon-freertos/lib/shadow\aws_shadow_json.c ****                                  jsmntok_t * pxJSMNTokens,
  60:D:/Work/DeviceTester/amazon-freertos/lib/shadow\aws_shadow_json.c ****                                  int16_t sTokensParsed );
  61:D:/Work/DeviceTester/amazon-freertos/lib/shadow\aws_shadow_json.c **** 
  62:D:/Work/DeviceTester/amazon-freertos/lib/shadow\aws_shadow_json.c **** /**
  63:D:/Work/DeviceTester/amazon-freertos/lib/shadow\aws_shadow_json.c ****  * @brief Wrapper for jsmn functions. Returns negative values (see jsmn error codes) on
  64:D:/Work/DeviceTester/amazon-freertos/lib/shadow\aws_shadow_json.c ****  * error.  Returns the number of tokens parsed on success.
  65:D:/Work/DeviceTester/amazon-freertos/lib/shadow\aws_shadow_json.c ****  */
  66:D:/Work/DeviceTester/amazon-freertos/lib/shadow\aws_shadow_json.c **** static int16_t prvParseJSON( const char * const pcDoc,
  67:D:/Work/DeviceTester/amazon-freertos/lib/shadow\aws_shadow_json.c ****                              uint32_t ulDocLength,
  68:D:/Work/DeviceTester/amazon-freertos/lib/shadow\aws_shadow_json.c ****                              jsmntok_t * pxJSMNTokens );
  69:D:/Work/DeviceTester/amazon-freertos/lib/shadow\aws_shadow_json.c **** 
  70:D:/Work/DeviceTester/amazon-freertos/lib/shadow\aws_shadow_json.c **** /*-----------------------------------------------------------*/
  71:D:/Work/DeviceTester/amazon-freertos/lib/shadow\aws_shadow_json.c **** 
  72:D:/Work/DeviceTester/amazon-freertos/lib/shadow\aws_shadow_json.c **** BaseType_t SHADOW_JSONDocClientTokenMatch( const char * const pcDoc1,
  73:D:/Work/DeviceTester/amazon-freertos/lib/shadow\aws_shadow_json.c ****                                            uint32_t ulDoc1Length,
  74:D:/Work/DeviceTester/amazon-freertos/lib/shadow\aws_shadow_json.c ****                                            const char * const pcDoc2,
  75:D:/Work/DeviceTester/amazon-freertos/lib/shadow\aws_shadow_json.c ****                                            uint32_t ulDoc2Length )
  76:D:/Work/DeviceTester/amazon-freertos/lib/shadow\aws_shadow_json.c **** {
  77:D:/Work/DeviceTester/amazon-freertos/lib/shadow\aws_shadow_json.c ****     jsmntok_t pxJSMNTokens[ shadowconfigJSON_JSMN_TOKENS ];
  78:D:/Work/DeviceTester/amazon-freertos/lib/shadow\aws_shadow_json.c ****     BaseType_t xReturn = pdFAIL;
  79:D:/Work/DeviceTester/amazon-freertos/lib/shadow\aws_shadow_json.c ****     uint16_t usClientToken1Length, usClientToken2Length;
  80:D:/Work/DeviceTester/amazon-freertos/lib/shadow\aws_shadow_json.c ****     int16_t sNbTokens;
  81:D:/Work/DeviceTester/amazon-freertos/lib/shadow\aws_shadow_json.c ****     char * pcClientToken1;
  82:D:/Work/DeviceTester/amazon-freertos/lib/shadow\aws_shadow_json.c ****     char * pcClientToken2;
  83:D:/Work/DeviceTester/amazon-freertos/lib/shadow\aws_shadow_json.c **** 
  84:D:/Work/DeviceTester/amazon-freertos/lib/shadow\aws_shadow_json.c ****     /* Parse pcDoc1 with jsmn. */
  85:D:/Work/DeviceTester/amazon-freertos/lib/shadow\aws_shadow_json.c ****     sNbTokens = prvParseJSON( pcDoc1, ulDoc1Length, pxJSMNTokens );
  86:D:/Work/DeviceTester/amazon-freertos/lib/shadow\aws_shadow_json.c **** 
  87:D:/Work/DeviceTester/amazon-freertos/lib/shadow\aws_shadow_json.c ****     if( sNbTokens > 0 )
  88:D:/Work/DeviceTester/amazon-freertos/lib/shadow\aws_shadow_json.c ****     {
  89:D:/Work/DeviceTester/amazon-freertos/lib/shadow\aws_shadow_json.c ****         /* Attempt to find the "clientToken" string in parsed pcDoc1. */
  90:D:/Work/DeviceTester/amazon-freertos/lib/shadow\aws_shadow_json.c ****         usClientToken1Length = prvGetJSONValue( ( const char ** ) &pcClientToken1,
  91:D:/Work/DeviceTester/amazon-freertos/lib/shadow\aws_shadow_json.c ****                                                 shadowJSON_CLIENT_TOKEN,
  92:D:/Work/DeviceTester/amazon-freertos/lib/shadow\aws_shadow_json.c ****                                                 pcDoc1,
  93:D:/Work/DeviceTester/amazon-freertos/lib/shadow\aws_shadow_json.c ****                                                 ( jsmntok_t * ) pxJSMNTokens,
  94:D:/Work/DeviceTester/amazon-freertos/lib/shadow\aws_shadow_json.c ****                                                 sNbTokens );
  95:D:/Work/DeviceTester/amazon-freertos/lib/shadow\aws_shadow_json.c **** 
  96:D:/Work/DeviceTester/amazon-freertos/lib/shadow\aws_shadow_json.c ****         if( usClientToken1Length > ( uint16_t ) 0 )
  97:D:/Work/DeviceTester/amazon-freertos/lib/shadow\aws_shadow_json.c ****         {
  98:D:/Work/DeviceTester/amazon-freertos/lib/shadow\aws_shadow_json.c ****             /* Parse pcDoc2 with jsmn. */
  99:D:/Work/DeviceTester/amazon-freertos/lib/shadow\aws_shadow_json.c ****             sNbTokens = prvParseJSON( pcDoc2, ulDoc2Length, pxJSMNTokens );
 100:D:/Work/DeviceTester/amazon-freertos/lib/shadow\aws_shadow_json.c **** 
 101:D:/Work/DeviceTester/amazon-freertos/lib/shadow\aws_shadow_json.c ****             if( sNbTokens > 0 )
 102:D:/Work/DeviceTester/amazon-freertos/lib/shadow\aws_shadow_json.c ****             {
 103:D:/Work/DeviceTester/amazon-freertos/lib/shadow\aws_shadow_json.c ****                 /* If "clientToken" was found in pcDoc1, attempt to find "clientToken" in pcDoc2. *
 104:D:/Work/DeviceTester/amazon-freertos/lib/shadow\aws_shadow_json.c ****                 usClientToken2Length = prvGetJSONValue( ( const char ** ) &pcClientToken2,
 105:D:/Work/DeviceTester/amazon-freertos/lib/shadow\aws_shadow_json.c ****                                                         shadowJSON_CLIENT_TOKEN,
 106:D:/Work/DeviceTester/amazon-freertos/lib/shadow\aws_shadow_json.c ****                                                         pcDoc2,
 107:D:/Work/DeviceTester/amazon-freertos/lib/shadow\aws_shadow_json.c ****                                                         ( jsmntok_t * ) pxJSMNTokens,
 108:D:/Work/DeviceTester/amazon-freertos/lib/shadow\aws_shadow_json.c ****                                                         sNbTokens );
 109:D:/Work/DeviceTester/amazon-freertos/lib/shadow\aws_shadow_json.c **** 
 110:D:/Work/DeviceTester/amazon-freertos/lib/shadow\aws_shadow_json.c ****                 /* Compare the client tokens. */
 111:D:/Work/DeviceTester/amazon-freertos/lib/shadow\aws_shadow_json.c ****                 if( usClientToken2Length == usClientToken1Length )
 112:D:/Work/DeviceTester/amazon-freertos/lib/shadow\aws_shadow_json.c ****                 {
 113:D:/Work/DeviceTester/amazon-freertos/lib/shadow\aws_shadow_json.c ****                     if( strncmp( ( const char * ) pcClientToken1,
 114:D:/Work/DeviceTester/amazon-freertos/lib/shadow\aws_shadow_json.c ****                                  ( const char * ) pcClientToken2,
 115:D:/Work/DeviceTester/amazon-freertos/lib/shadow\aws_shadow_json.c ****                                  ( size_t ) usClientToken1Length ) == 0 )
 116:D:/Work/DeviceTester/amazon-freertos/lib/shadow\aws_shadow_json.c ****                     {
 117:D:/Work/DeviceTester/amazon-freertos/lib/shadow\aws_shadow_json.c ****                         xReturn = pdPASS;
 118:D:/Work/DeviceTester/amazon-freertos/lib/shadow\aws_shadow_json.c ****                     }
 119:D:/Work/DeviceTester/amazon-freertos/lib/shadow\aws_shadow_json.c ****                 }
 120:D:/Work/DeviceTester/amazon-freertos/lib/shadow\aws_shadow_json.c ****             }
 121:D:/Work/DeviceTester/amazon-freertos/lib/shadow\aws_shadow_json.c ****         }
 122:D:/Work/DeviceTester/amazon-freertos/lib/shadow\aws_shadow_json.c ****     }
 123:D:/Work/DeviceTester/amazon-freertos/lib/shadow\aws_shadow_json.c **** 
 124:D:/Work/DeviceTester/amazon-freertos/lib/shadow\aws_shadow_json.c ****     return xReturn;
 125:D:/Work/DeviceTester/amazon-freertos/lib/shadow\aws_shadow_json.c **** }
 126:D:/Work/DeviceTester/amazon-freertos/lib/shadow\aws_shadow_json.c **** /*-----------------------------------------------------------*/
 127:D:/Work/DeviceTester/amazon-freertos/lib/shadow\aws_shadow_json.c **** 
 128:D:/Work/DeviceTester/amazon-freertos/lib/shadow\aws_shadow_json.c **** int16_t SHADOW_JSONGetErrorCodeAndMessage( const char * const pcErrorJSON,
 129:D:/Work/DeviceTester/amazon-freertos/lib/shadow\aws_shadow_json.c ****                                            uint32_t ulErrorJSONLength,
 130:D:/Work/DeviceTester/amazon-freertos/lib/shadow\aws_shadow_json.c ****                                            char ** ppcErrorMessage,
 131:D:/Work/DeviceTester/amazon-freertos/lib/shadow\aws_shadow_json.c ****                                            uint16_t * pusErrorMessageLength )
 132:D:/Work/DeviceTester/amazon-freertos/lib/shadow\aws_shadow_json.c **** {
 133:D:/Work/DeviceTester/amazon-freertos/lib/shadow\aws_shadow_json.c ****     jsmntok_t pxJSMNTokens[ shadowconfigJSON_JSMN_TOKENS ];
 134:D:/Work/DeviceTester/amazon-freertos/lib/shadow\aws_shadow_json.c ****     char * pcErrorCode;
 135:D:/Work/DeviceTester/amazon-freertos/lib/shadow\aws_shadow_json.c ****     int16_t sReturn = 0;
 136:D:/Work/DeviceTester/amazon-freertos/lib/shadow\aws_shadow_json.c ****     int16_t sTokensParsed;
 137:D:/Work/DeviceTester/amazon-freertos/lib/shadow\aws_shadow_json.c **** 
 138:D:/Work/DeviceTester/amazon-freertos/lib/shadow\aws_shadow_json.c ****     sTokensParsed = prvParseJSON( pcErrorJSON, ulErrorJSONLength, pxJSMNTokens );
 139:D:/Work/DeviceTester/amazon-freertos/lib/shadow\aws_shadow_json.c **** 
 140:D:/Work/DeviceTester/amazon-freertos/lib/shadow\aws_shadow_json.c ****     if( sTokensParsed > 0 )
 141:D:/Work/DeviceTester/amazon-freertos/lib/shadow\aws_shadow_json.c ****     {
 142:D:/Work/DeviceTester/amazon-freertos/lib/shadow\aws_shadow_json.c ****         /* Attempt to find the error code. */
 143:D:/Work/DeviceTester/amazon-freertos/lib/shadow\aws_shadow_json.c ****         sReturn = ( int16_t ) prvGetJSONValue( ( const char ** ) &pcErrorCode,
 144:D:/Work/DeviceTester/amazon-freertos/lib/shadow\aws_shadow_json.c ****                                                shadowJSON_ERROR_CODE,
 145:D:/Work/DeviceTester/amazon-freertos/lib/shadow\aws_shadow_json.c ****                                                pcErrorJSON,
 146:D:/Work/DeviceTester/amazon-freertos/lib/shadow\aws_shadow_json.c ****                                                pxJSMNTokens,
 147:D:/Work/DeviceTester/amazon-freertos/lib/shadow\aws_shadow_json.c ****                                                sTokensParsed );
 148:D:/Work/DeviceTester/amazon-freertos/lib/shadow\aws_shadow_json.c **** 
 149:D:/Work/DeviceTester/amazon-freertos/lib/shadow\aws_shadow_json.c ****         if( sReturn > 0 )
 150:D:/Work/DeviceTester/amazon-freertos/lib/shadow\aws_shadow_json.c ****         {
 151:D:/Work/DeviceTester/amazon-freertos/lib/shadow\aws_shadow_json.c ****             /* Convert the error code to int16_t for return value. */
 152:D:/Work/DeviceTester/amazon-freertos/lib/shadow\aws_shadow_json.c ****             sReturn = ( int16_t ) strtol( pcErrorCode, NULL, 0 );
 153:D:/Work/DeviceTester/amazon-freertos/lib/shadow\aws_shadow_json.c **** 
 154:D:/Work/DeviceTester/amazon-freertos/lib/shadow\aws_shadow_json.c ****             if( ( ppcErrorMessage != NULL ) && ( pusErrorMessageLength != NULL ) )
 155:D:/Work/DeviceTester/amazon-freertos/lib/shadow\aws_shadow_json.c ****             {
 156:D:/Work/DeviceTester/amazon-freertos/lib/shadow\aws_shadow_json.c ****                 /* Set the pointer to the error message and the error message length. */
 157:D:/Work/DeviceTester/amazon-freertos/lib/shadow\aws_shadow_json.c ****                 *pusErrorMessageLength = prvGetJSONValue( ( const char ** ) ppcErrorMessage,
 158:D:/Work/DeviceTester/amazon-freertos/lib/shadow\aws_shadow_json.c ****                                                           shadowJSON_ERROR_MESSAGE,
 159:D:/Work/DeviceTester/amazon-freertos/lib/shadow\aws_shadow_json.c ****                                                           pcErrorJSON,
 160:D:/Work/DeviceTester/amazon-freertos/lib/shadow\aws_shadow_json.c ****                                                           pxJSMNTokens,
 161:D:/Work/DeviceTester/amazon-freertos/lib/shadow\aws_shadow_json.c ****                                                           sTokensParsed );
 162:D:/Work/DeviceTester/amazon-freertos/lib/shadow\aws_shadow_json.c ****             }
 163:D:/Work/DeviceTester/amazon-freertos/lib/shadow\aws_shadow_json.c ****         }
 164:D:/Work/DeviceTester/amazon-freertos/lib/shadow\aws_shadow_json.c ****     }
 165:D:/Work/DeviceTester/amazon-freertos/lib/shadow\aws_shadow_json.c ****     else
 166:D:/Work/DeviceTester/amazon-freertos/lib/shadow\aws_shadow_json.c ****     {
 167:D:/Work/DeviceTester/amazon-freertos/lib/shadow\aws_shadow_json.c ****         /* On failure, sTokenParsed returns a jsmn error code.  Return this error code. */
 168:D:/Work/DeviceTester/amazon-freertos/lib/shadow\aws_shadow_json.c ****         sReturn = sTokensParsed;
 169:D:/Work/DeviceTester/amazon-freertos/lib/shadow\aws_shadow_json.c ****     }
 170:D:/Work/DeviceTester/amazon-freertos/lib/shadow\aws_shadow_json.c **** 
 171:D:/Work/DeviceTester/amazon-freertos/lib/shadow\aws_shadow_json.c ****     return sReturn;
 172:D:/Work/DeviceTester/amazon-freertos/lib/shadow\aws_shadow_json.c **** }
 173:D:/Work/DeviceTester/amazon-freertos/lib/shadow\aws_shadow_json.c **** /*-----------------------------------------------------------*/
 174:D:/Work/DeviceTester/amazon-freertos/lib/shadow\aws_shadow_json.c **** 
 175:D:/Work/DeviceTester/amazon-freertos/lib/shadow\aws_shadow_json.c **** static int16_t prvParseJSON( const char * const pcDoc,
 176:D:/Work/DeviceTester/amazon-freertos/lib/shadow\aws_shadow_json.c ****                              uint32_t ulDocLength,
 177:D:/Work/DeviceTester/amazon-freertos/lib/shadow\aws_shadow_json.c ****                              jsmntok_t * pxJSMNTokens )
 178:D:/Work/DeviceTester/amazon-freertos/lib/shadow\aws_shadow_json.c **** {
 179:D:/Work/DeviceTester/amazon-freertos/lib/shadow\aws_shadow_json.c ****     jsmn_parser xJSMNParser;
 180:D:/Work/DeviceTester/amazon-freertos/lib/shadow\aws_shadow_json.c ****     int16_t sReturn;
 181:D:/Work/DeviceTester/amazon-freertos/lib/shadow\aws_shadow_json.c **** 
 182:D:/Work/DeviceTester/amazon-freertos/lib/shadow\aws_shadow_json.c ****     jsmn_init( &xJSMNParser );
 183:D:/Work/DeviceTester/amazon-freertos/lib/shadow\aws_shadow_json.c ****     sReturn = ( int16_t ) jsmn_parse( &xJSMNParser,
 184:D:/Work/DeviceTester/amazon-freertos/lib/shadow\aws_shadow_json.c ****                                       pcDoc,
 185:D:/Work/DeviceTester/amazon-freertos/lib/shadow\aws_shadow_json.c ****                                       ulDocLength,
 186:D:/Work/DeviceTester/amazon-freertos/lib/shadow\aws_shadow_json.c ****                                       pxJSMNTokens,
 187:D:/Work/DeviceTester/amazon-freertos/lib/shadow\aws_shadow_json.c ****                                       shadowconfigJSON_JSMN_TOKENS );
 188:D:/Work/DeviceTester/amazon-freertos/lib/shadow\aws_shadow_json.c **** 
 189:D:/Work/DeviceTester/amazon-freertos/lib/shadow\aws_shadow_json.c ****     return sReturn;
 190:D:/Work/DeviceTester/amazon-freertos/lib/shadow\aws_shadow_json.c **** }
 191:D:/Work/DeviceTester/amazon-freertos/lib/shadow\aws_shadow_json.c **** /*-----------------------------------------------------------*/
 192:D:/Work/DeviceTester/amazon-freertos/lib/shadow\aws_shadow_json.c **** 
 193:D:/Work/DeviceTester/amazon-freertos/lib/shadow\aws_shadow_json.c **** static uint16_t prvGetJSONValue( const char ** ppcValue,
 194:D:/Work/DeviceTester/amazon-freertos/lib/shadow\aws_shadow_json.c ****                                  const char * const pcKey,
 195:D:/Work/DeviceTester/amazon-freertos/lib/shadow\aws_shadow_json.c ****                                  const char * const pcDoc,
 196:D:/Work/DeviceTester/amazon-freertos/lib/shadow\aws_shadow_json.c ****                                  jsmntok_t * pxJSMNTokens,
 197:D:/Work/DeviceTester/amazon-freertos/lib/shadow\aws_shadow_json.c ****                                  int16_t sTokensParsed )
 198:D:/Work/DeviceTester/amazon-freertos/lib/shadow\aws_shadow_json.c **** {
  25              		.loc 1 198 0
  26              		.cfi_startproc
  27              		@ args = 4, pretend = 0, frame = 0
  28              		@ frame_needed = 0, uses_anonymous_args = 0
  29              	.LVL0:
 199:D:/Work/DeviceTester/amazon-freertos/lib/shadow\aws_shadow_json.c ****     jsmntok_t * pxJSMNToken;
 200:D:/Work/DeviceTester/amazon-freertos/lib/shadow\aws_shadow_json.c ****     uint16_t usReturn = 0;
 201:D:/Work/DeviceTester/amazon-freertos/lib/shadow\aws_shadow_json.c ****     int16_t sIterator;
 202:D:/Work/DeviceTester/amazon-freertos/lib/shadow\aws_shadow_json.c ****     uint16_t usCompareLength;
 203:D:/Work/DeviceTester/amazon-freertos/lib/shadow\aws_shadow_json.c ****     BaseType_t xValueFound = pdFALSE;
 204:D:/Work/DeviceTester/amazon-freertos/lib/shadow\aws_shadow_json.c **** 
 205:D:/Work/DeviceTester/amazon-freertos/lib/shadow\aws_shadow_json.c ****     if( ppcValue != NULL )
  30              		.loc 1 205 0
  31 0000 000050E3 		cmp	r0, #0
  32 0004 1EFF2F01 		bxeq	lr
 198:D:/Work/DeviceTester/amazon-freertos/lib/shadow\aws_shadow_json.c ****     jsmntok_t * pxJSMNToken;
  33              		.loc 1 198 0
  34 0008 F84F2DE9 		push	{r3, r4, r5, r6, r7, r8, r9, r10, fp, lr}
  35              		.cfi_def_cfa_offset 40
  36              		.cfi_offset 3, -40
  37              		.cfi_offset 4, -36
  38              		.cfi_offset 5, -32
  39              		.cfi_offset 6, -28
  40              		.cfi_offset 7, -24
  41              		.cfi_offset 8, -20
  42              		.cfi_offset 9, -16
  43              		.cfi_offset 10, -12
  44              		.cfi_offset 11, -8
  45              		.cfi_offset 14, -4
  46 000c 0040A0E1 		mov	r4, r0
 206:D:/Work/DeviceTester/amazon-freertos/lib/shadow\aws_shadow_json.c ****     {
 207:D:/Work/DeviceTester/amazon-freertos/lib/shadow\aws_shadow_json.c ****         /* "clientToken" is usually (but not guaranteed to be) the last key in the Shadow JSON docu
 208:D:/Work/DeviceTester/amazon-freertos/lib/shadow\aws_shadow_json.c ****          * Since this function is primarily used to find "clientToken", find "clientToken" faster
 209:D:/Work/DeviceTester/amazon-freertos/lib/shadow\aws_shadow_json.c ****          * by starting from the end. */
 210:D:/Work/DeviceTester/amazon-freertos/lib/shadow\aws_shadow_json.c ****         for( sIterator = ( sTokensParsed - 1 ); sIterator >= 0; sIterator-- )
  47              		.loc 1 210 0
  48 0010 F852DDE1 		ldrsh	r5, [sp, #40]
  49 0014 03A0A0E1 		mov	r10, r3
  50 0018 0280A0E1 		mov	r8, r2
  51 001c 0190A0E1 		mov	r9, r1
  52              	.LVL1:
  53              	.L6:
  54 0020 015045E2 		sub	r5, r5, #1
  55 0024 7550BFE6 		sxth	r5, r5
  56              	.LVL2:
  57              		.loc 1 210 0 is_stmt 0 discriminator 2
  58 0028 000055E3 		cmp	r5, #0
  59 002c 010000AA 		bge	.L7
 211:D:/Work/DeviceTester/amazon-freertos/lib/shadow\aws_shadow_json.c ****         {
 212:D:/Work/DeviceTester/amazon-freertos/lib/shadow\aws_shadow_json.c ****             pxJSMNToken = &( pxJSMNTokens[ sIterator ] );
 213:D:/Work/DeviceTester/amazon-freertos/lib/shadow\aws_shadow_json.c ****             usCompareLength = configMAX( ( ( uint16_t ) pxJSMNToken->end - ( uint16_t ) pxJSMNToken
 214:D:/Work/DeviceTester/amazon-freertos/lib/shadow\aws_shadow_json.c ****                                          ( ( uint16_t ) strlen( pcKey ) ) );
 215:D:/Work/DeviceTester/amazon-freertos/lib/shadow\aws_shadow_json.c **** 
 216:D:/Work/DeviceTester/amazon-freertos/lib/shadow\aws_shadow_json.c ****             /* Compare pcKey with the keys in the JSON document. */
 217:D:/Work/DeviceTester/amazon-freertos/lib/shadow\aws_shadow_json.c ****             if( ( ( strncmp( pcKey, pcDoc + pxJSMNToken->start, usCompareLength ) ) == 0 ) && ( pxJ
 218:D:/Work/DeviceTester/amazon-freertos/lib/shadow\aws_shadow_json.c ****             {
 219:D:/Work/DeviceTester/amazon-freertos/lib/shadow\aws_shadow_json.c ****                 /* The JSON value is the next jsmn token after the key. */
 220:D:/Work/DeviceTester/amazon-freertos/lib/shadow\aws_shadow_json.c ****                 pxJSMNToken++;
 221:D:/Work/DeviceTester/amazon-freertos/lib/shadow\aws_shadow_json.c **** 
 222:D:/Work/DeviceTester/amazon-freertos/lib/shadow\aws_shadow_json.c ****                 /* Set the pointer to the value and the value's length. */
 223:D:/Work/DeviceTester/amazon-freertos/lib/shadow\aws_shadow_json.c ****                 *ppcValue = ( const char * ) ( pcDoc + pxJSMNToken->start );
 224:D:/Work/DeviceTester/amazon-freertos/lib/shadow\aws_shadow_json.c ****                 usReturn = ( uint16_t ) pxJSMNToken->end - ( uint16_t ) pxJSMNToken->start;
 225:D:/Work/DeviceTester/amazon-freertos/lib/shadow\aws_shadow_json.c ****                 xValueFound = pdTRUE;
 226:D:/Work/DeviceTester/amazon-freertos/lib/shadow\aws_shadow_json.c ****                 break;
 227:D:/Work/DeviceTester/amazon-freertos/lib/shadow\aws_shadow_json.c ****             }
 228:D:/Work/DeviceTester/amazon-freertos/lib/shadow\aws_shadow_json.c ****         }
 229:D:/Work/DeviceTester/amazon-freertos/lib/shadow\aws_shadow_json.c ****     }
 230:D:/Work/DeviceTester/amazon-freertos/lib/shadow\aws_shadow_json.c **** 
 231:D:/Work/DeviceTester/amazon-freertos/lib/shadow\aws_shadow_json.c ****     if( xValueFound == pdFALSE )
 232:D:/Work/DeviceTester/amazon-freertos/lib/shadow\aws_shadow_json.c ****     {
 233:D:/Work/DeviceTester/amazon-freertos/lib/shadow\aws_shadow_json.c ****         usReturn = 0;
  60              		.loc 1 233 0 is_stmt 1
  61 0030 0000A0E3 		mov	r0, #0
  62              	.LVL3:
 234:D:/Work/DeviceTester/amazon-freertos/lib/shadow\aws_shadow_json.c ****     }
 235:D:/Work/DeviceTester/amazon-freertos/lib/shadow\aws_shadow_json.c **** 
 236:D:/Work/DeviceTester/amazon-freertos/lib/shadow\aws_shadow_json.c ****     return usReturn;
 237:D:/Work/DeviceTester/amazon-freertos/lib/shadow\aws_shadow_json.c **** }
  63              		.loc 1 237 0
  64 0034 F88FBDE8 		pop	{r3, r4, r5, r6, r7, r8, r9, r10, fp, pc}
  65              	.LVL4:
  66              	.L7:
 212:D:/Work/DeviceTester/amazon-freertos/lib/shadow\aws_shadow_json.c ****             usCompareLength = configMAX( ( ( uint16_t ) pxJSMNToken->end - ( uint16_t ) pxJSMNToken
  67              		.loc 1 212 0
  68 0038 056185E0 		add	r6, r5, r5, lsl #2
 213:D:/Work/DeviceTester/amazon-freertos/lib/shadow\aws_shadow_json.c ****                                          ( ( uint16_t ) strlen( pcKey ) ) );
  69              		.loc 1 213 0
  70 003c 0900A0E1 		mov	r0, r9
 212:D:/Work/DeviceTester/amazon-freertos/lib/shadow\aws_shadow_json.c ****             usCompareLength = configMAX( ( ( uint16_t ) pxJSMNToken->end - ( uint16_t ) pxJSMNToken
  71              		.loc 1 212 0
  72 0040 06618AE0 		add	r6, r10, r6, lsl #2
  73              	.LVL5:
 213:D:/Work/DeviceTester/amazon-freertos/lib/shadow\aws_shadow_json.c ****                                          ( ( uint16_t ) strlen( pcKey ) ) );
  74              		.loc 1 213 0
  75 0044 04B096E5 		ldr	fp, [r6, #4]
  76 0048 087096E5 		ldr	r7, [r6, #8]
  77 004c FEFFFFEB 		bl	strlen
  78              	.LVL6:
 217:D:/Work/DeviceTester/amazon-freertos/lib/shadow\aws_shadow_json.c ****             {
  79              		.loc 1 217 0
  80 0050 0B1088E0 		add	r1, r8, fp
 213:D:/Work/DeviceTester/amazon-freertos/lib/shadow\aws_shadow_json.c ****                                          ( ( uint16_t ) strlen( pcKey ) ) );
  81              		.loc 1 213 0
  82 0054 7B20FFE6 		uxth	r2, fp
  83 0058 7730FFE6 		uxth	r3, r7
  84 005c 023043E0 		sub	r3, r3, r2
  85 0060 7020FFE6 		uxth	r2, r0
 217:D:/Work/DeviceTester/amazon-freertos/lib/shadow\aws_shadow_json.c ****             {
  86              		.loc 1 217 0
  87 0064 0900A0E1 		mov	r0, r9
 213:D:/Work/DeviceTester/amazon-freertos/lib/shadow\aws_shadow_json.c ****                                          ( ( uint16_t ) strlen( pcKey ) ) );
  88              		.loc 1 213 0
  89 0068 020053E1 		cmp	r3, r2
  90 006c 0B2047C0 		subgt	r2, r7, fp
  91 0070 7220FFC6 		uxthgt	r2, r2
  92              	.LVL7:
 217:D:/Work/DeviceTester/amazon-freertos/lib/shadow\aws_shadow_json.c ****             {
  93              		.loc 1 217 0
  94 0074 FEFFFFEB 		bl	strncmp
  95              	.LVL8:
  96 0078 000050E3 		cmp	r0, #0
  97 007c E7FFFF1A 		bne	.L6
 217:D:/Work/DeviceTester/amazon-freertos/lib/shadow\aws_shadow_json.c ****             {
  98              		.loc 1 217 0 is_stmt 0 discriminator 1
  99 0080 0C3096E5 		ldr	r3, [r6, #12]
 100 0084 010053E3 		cmp	r3, #1
 101 0088 E4FFFF1A 		bne	.L6
 102              	.LVL9:
 223:D:/Work/DeviceTester/amazon-freertos/lib/shadow\aws_shadow_json.c ****                 usReturn = ( uint16_t ) pxJSMNToken->end - ( uint16_t ) pxJSMNToken->start;
 103              		.loc 1 223 0 is_stmt 1
 104 008c 183096E5 		ldr	r3, [r6, #24]
 224:D:/Work/DeviceTester/amazon-freertos/lib/shadow\aws_shadow_json.c ****                 xValueFound = pdTRUE;
 105              		.loc 1 224 0
 106 0090 1C0096E5 		ldr	r0, [r6, #28]
 223:D:/Work/DeviceTester/amazon-freertos/lib/shadow\aws_shadow_json.c ****                 usReturn = ( uint16_t ) pxJSMNToken->end - ( uint16_t ) pxJSMNToken->start;
 107              		.loc 1 223 0
 108 0094 038088E0 		add	r8, r8, r3
 109              	.LVL10:
 224:D:/Work/DeviceTester/amazon-freertos/lib/shadow\aws_shadow_json.c ****                 xValueFound = pdTRUE;
 110              		.loc 1 224 0
 111 0098 030040E0 		sub	r0, r0, r3
 223:D:/Work/DeviceTester/amazon-freertos/lib/shadow\aws_shadow_json.c ****                 usReturn = ( uint16_t ) pxJSMNToken->end - ( uint16_t ) pxJSMNToken->start;
 112              		.loc 1 223 0
 113 009c 008084E5 		str	r8, [r4]
 224:D:/Work/DeviceTester/amazon-freertos/lib/shadow\aws_shadow_json.c ****                 xValueFound = pdTRUE;
 114              		.loc 1 224 0
 115 00a0 7000FFE6 		uxth	r0, r0
 116              	.LVL11:
 117 00a4 F88FBDE8 		pop	{r3, r4, r5, r6, r7, r8, r9, r10, fp, pc}
 118              		.cfi_endproc
 119              	.LFE3:
 121              		.section	.text.SHADOW_JSONDocClientTokenMatch,"ax",%progbits
 122              		.align	2
 123              		.global	SHADOW_JSONDocClientTokenMatch
 124              		.syntax unified
 125              		.arm
 126              		.fpu neon
 128              	SHADOW_JSONDocClientTokenMatch:
 129              	.LFB0:
  76:D:/Work/DeviceTester/amazon-freertos/lib/shadow\aws_shadow_json.c ****     jsmntok_t pxJSMNTokens[ shadowconfigJSON_JSMN_TOKENS ];
 130              		.loc 1 76 0
 131              		.cfi_startproc
 132              		@ args = 0, pretend = 0, frame = 1296
 133              		@ frame_needed = 0, uses_anonymous_args = 0
 134              	.LVL12:
 135 0000 F0412DE9 		push	{r4, r5, r6, r7, r8, lr}
 136              		.cfi_def_cfa_offset 24
 137              		.cfi_offset 4, -24
 138              		.cfi_offset 5, -20
 139              		.cfi_offset 6, -16
 140              		.cfi_offset 7, -12
 141              		.cfi_offset 8, -8
 142              		.cfi_offset 14, -4
 143 0004 51DE4DE2 		sub	sp, sp, #1296
 144              		.cfi_def_cfa_offset 1320
 145 0008 08D04DE2 		sub	sp, sp, #8
 146              		.cfi_def_cfa_offset 1328
  76:D:/Work/DeviceTester/amazon-freertos/lib/shadow\aws_shadow_json.c ****     jsmntok_t pxJSMNTokens[ shadowconfigJSON_JSMN_TOKENS ];
 147              		.loc 1 76 0
 148 000c 0180A0E1 		mov	r8, r1
 149 0010 0040A0E1 		mov	r4, r0
 150              	.LVL13:
 151              	.LBB6:
 152              	.LBB7:
 183:D:/Work/DeviceTester/amazon-freertos/lib/shadow\aws_shadow_json.c ****                                       pcDoc,
 153              		.loc 1 183 0
 154 0014 4060A0E3 		mov	r6, #64
 182:D:/Work/DeviceTester/amazon-freertos/lib/shadow\aws_shadow_json.c ****     sReturn = ( int16_t ) jsmn_parse( &xJSMNParser,
 155              		.loc 1 182 0
 156 0018 0C008DE2 		add	r0, sp, #12
 157              	.LVL14:
 158              	.LBE7:
 159              	.LBE6:
  76:D:/Work/DeviceTester/amazon-freertos/lib/shadow\aws_shadow_json.c ****     jsmntok_t pxJSMNTokens[ shadowconfigJSON_JSMN_TOKENS ];
 160              		.loc 1 76 0
 161 001c 0250A0E1 		mov	r5, r2
 162 0020 0370A0E1 		mov	r7, r3
 163              	.LBB9:
 164              	.LBB8:
 182:D:/Work/DeviceTester/amazon-freertos/lib/shadow\aws_shadow_json.c ****     sReturn = ( int16_t ) jsmn_parse( &xJSMNParser,
 165              		.loc 1 182 0
 166 0024 FEFFFFEB 		bl	jsmn_init
 167              	.LVL15:
 183:D:/Work/DeviceTester/amazon-freertos/lib/shadow\aws_shadow_json.c ****                                       pcDoc,
 168              		.loc 1 183 0
 169 0028 00608DE5 		str	r6, [sp]
 170 002c 18308DE2 		add	r3, sp, #24
 171              	.LVL16:
 172 0030 0820A0E1 		mov	r2, r8
 173 0034 0410A0E1 		mov	r1, r4
 174 0038 0C008DE2 		add	r0, sp, #12
 175 003c FEFFFFEB 		bl	jsmn_parse
 176              	.LVL17:
 177 0040 7000BFE6 		sxth	r0, r0
 178              	.LVL18:
 179              	.LBE8:
 180              	.LBE9:
  87:D:/Work/DeviceTester/amazon-freertos/lib/shadow\aws_shadow_json.c ****     {
 181              		.loc 1 87 0
 182 0044 000050E3 		cmp	r0, #0
 183 0048 030000CA 		bgt	.L14
 184              	.LVL19:
 185              	.L16:
  78:D:/Work/DeviceTester/amazon-freertos/lib/shadow\aws_shadow_json.c ****     uint16_t usClientToken1Length, usClientToken2Length;
 186              		.loc 1 78 0
 187 004c 0000A0E3 		mov	r0, #0
 188              	.LVL20:
 189              	.L13:
 125:D:/Work/DeviceTester/amazon-freertos/lib/shadow\aws_shadow_json.c **** /*-----------------------------------------------------------*/
 190              		.loc 1 125 0
 191 0050 51DE8DE2 		add	sp, sp, #1296
 192 0054 08D08DE2 		add	sp, sp, #8
 193              		.cfi_remember_state
 194              		.cfi_def_cfa_offset 24
 195              		@ sp needed
 196 0058 F081BDE8 		pop	{r4, r5, r6, r7, r8, pc}
 197              	.LVL21:
 198              	.L14:
 199              		.cfi_restore_state
  90:D:/Work/DeviceTester/amazon-freertos/lib/shadow\aws_shadow_json.c ****                                                 shadowJSON_CLIENT_TOKEN,
 200              		.loc 1 90 0
 201 005c 00008DE5 		str	r0, [sp]
 202 0060 0420A0E1 		mov	r2, r4
 203 0064 18308DE2 		add	r3, sp, #24
 204 0068 74109FE5 		ldr	r1, .L21
 205 006c 08008DE2 		add	r0, sp, #8
 206 0070 FEFFFFEB 		bl	prvGetJSONValue
 207              	.LVL22:
  96:D:/Work/DeviceTester/amazon-freertos/lib/shadow\aws_shadow_json.c ****         {
 208              		.loc 1 96 0
 209 0074 004050E2 		subs	r4, r0, #0
 210              	.LVL23:
 211 0078 F3FFFF0A 		beq	.L16
 212              	.LVL24:
 213              	.LBB10:
 214              	.LBB11:
 182:D:/Work/DeviceTester/amazon-freertos/lib/shadow\aws_shadow_json.c ****     sReturn = ( int16_t ) jsmn_parse( &xJSMNParser,
 215              		.loc 1 182 0
 216 007c 0C008DE2 		add	r0, sp, #12
 217              	.LVL25:
 218 0080 FEFFFFEB 		bl	jsmn_init
 219              	.LVL26:
 183:D:/Work/DeviceTester/amazon-freertos/lib/shadow\aws_shadow_json.c ****                                       pcDoc,
 220              		.loc 1 183 0
 221 0084 00608DE5 		str	r6, [sp]
 222 0088 18308DE2 		add	r3, sp, #24
 223              	.LVL27:
 224 008c 0720A0E1 		mov	r2, r7
 225 0090 0510A0E1 		mov	r1, r5
 226 0094 0C008DE2 		add	r0, sp, #12
 227 0098 FEFFFFEB 		bl	jsmn_parse
 228              	.LVL28:
 229 009c 7000BFE6 		sxth	r0, r0
 230              	.LVL29:
 231              	.LBE11:
 232              	.LBE10:
 101:D:/Work/DeviceTester/amazon-freertos/lib/shadow\aws_shadow_json.c ****             {
 233              		.loc 1 101 0
 234 00a0 000050E3 		cmp	r0, #0
 235 00a4 E8FFFFDA 		ble	.L16
 104:D:/Work/DeviceTester/amazon-freertos/lib/shadow\aws_shadow_json.c ****                                                         shadowJSON_CLIENT_TOKEN,
 236              		.loc 1 104 0
 237 00a8 00008DE5 		str	r0, [sp]
 238 00ac 18308DE2 		add	r3, sp, #24
 239 00b0 0520A0E1 		mov	r2, r5
 240 00b4 28109FE5 		ldr	r1, .L21
 241 00b8 0C008DE2 		add	r0, sp, #12
 242 00bc FEFFFFEB 		bl	prvGetJSONValue
 243              	.LVL30:
 111:D:/Work/DeviceTester/amazon-freertos/lib/shadow\aws_shadow_json.c ****                 {
 244              		.loc 1 111 0
 245 00c0 000054E1 		cmp	r4, r0
 246 00c4 E0FFFF1A 		bne	.L16
 113:D:/Work/DeviceTester/amazon-freertos/lib/shadow\aws_shadow_json.c ****                                  ( const char * ) pcClientToken2,
 247              		.loc 1 113 0
 248 00c8 0420A0E1 		mov	r2, r4
 249 00cc 0C109DE5 		ldr	r1, [sp, #12]
 250 00d0 08009DE5 		ldr	r0, [sp, #8]
 251              	.LVL31:
 252 00d4 FEFFFFEB 		bl	strncmp
 253              	.LVL32:
 254 00d8 100F6FE1 		clz	r0, r0
 255 00dc A002A0E1 		lsr	r0, r0, #5
 256              	.LVL33:
 124:D:/Work/DeviceTester/amazon-freertos/lib/shadow\aws_shadow_json.c **** }
 257              		.loc 1 124 0
 258 00e0 DAFFFFEA 		b	.L13
 259              	.L22:
 260              		.align	2
 261              	.L21:
 262 00e4 00000000 		.word	.LC0
 263              		.cfi_endproc
 264              	.LFE0:
 266              		.section	.text.SHADOW_JSONGetErrorCodeAndMessage,"ax",%progbits
 267              		.align	2
 268              		.global	SHADOW_JSONGetErrorCodeAndMessage
 269              		.syntax unified
 270              		.arm
 271              		.fpu neon
 273              	SHADOW_JSONGetErrorCodeAndMessage:
 274              	.LFB1:
 132:D:/Work/DeviceTester/amazon-freertos/lib/shadow\aws_shadow_json.c ****     jsmntok_t pxJSMNTokens[ shadowconfigJSON_JSMN_TOKENS ];
 275              		.loc 1 132 0
 276              		.cfi_startproc
 277              		@ args = 0, pretend = 0, frame = 1296
 278              		@ frame_needed = 0, uses_anonymous_args = 0
 279              	.LVL34:
 280 0000 F0412DE9 		push	{r4, r5, r6, r7, r8, lr}
 281              		.cfi_def_cfa_offset 24
 282              		.cfi_offset 4, -24
 283              		.cfi_offset 5, -20
 284              		.cfi_offset 6, -16
 285              		.cfi_offset 7, -12
 286              		.cfi_offset 8, -8
 287              		.cfi_offset 14, -4
 288 0004 51DE4DE2 		sub	sp, sp, #1296
 289              		.cfi_def_cfa_offset 1320
 290 0008 08D04DE2 		sub	sp, sp, #8
 291              		.cfi_def_cfa_offset 1328
 132:D:/Work/DeviceTester/amazon-freertos/lib/shadow\aws_shadow_json.c ****     jsmntok_t pxJSMNTokens[ shadowconfigJSON_JSMN_TOKENS ];
 292              		.loc 1 132 0
 293 000c 0060A0E1 		mov	r6, r0
 294              	.LVL35:
 295              	.LBB14:
 296              	.LBB15:
 182:D:/Work/DeviceTester/amazon-freertos/lib/shadow\aws_shadow_json.c ****     sReturn = ( int16_t ) jsmn_parse( &xJSMNParser,
 297              		.loc 1 182 0
 298 0010 0C008DE2 		add	r0, sp, #12
 299              	.LVL36:
 300              	.LBE15:
 301              	.LBE14:
 132:D:/Work/DeviceTester/amazon-freertos/lib/shadow\aws_shadow_json.c ****     jsmntok_t pxJSMNTokens[ shadowconfigJSON_JSMN_TOKENS ];
 302              		.loc 1 132 0
 303 0014 0140A0E1 		mov	r4, r1
 304              	.LVL37:
 305 0018 0280A0E1 		mov	r8, r2
 306 001c 0370A0E1 		mov	r7, r3
 307              	.LBB17:
 308              	.LBB16:
 182:D:/Work/DeviceTester/amazon-freertos/lib/shadow\aws_shadow_json.c ****     sReturn = ( int16_t ) jsmn_parse( &xJSMNParser,
 309              		.loc 1 182 0
 310 0020 FEFFFFEB 		bl	jsmn_init
 311              	.LVL38:
 183:D:/Work/DeviceTester/amazon-freertos/lib/shadow\aws_shadow_json.c ****                                       pcDoc,
 312              		.loc 1 183 0
 313 0024 4030A0E3 		mov	r3, #64
 314 0028 0420A0E1 		mov	r2, r4
 315 002c 00308DE5 		str	r3, [sp]
 316 0030 0610A0E1 		mov	r1, r6
 317 0034 18308DE2 		add	r3, sp, #24
 318              	.LVL39:
 319 0038 0C008DE2 		add	r0, sp, #12
 320 003c FEFFFFEB 		bl	jsmn_parse
 321              	.LVL40:
 322 0040 7050BFE6 		sxth	r5, r0
 323              	.LVL41:
 324              	.LBE16:
 325              	.LBE17:
 140:D:/Work/DeviceTester/amazon-freertos/lib/shadow\aws_shadow_json.c ****     {
 326              		.loc 1 140 0
 327 0044 000055E3 		cmp	r5, #0
 328 0048 0540A0D1 		movle	r4, r5
 329              	.LVL42:
 330 004c 170000DA 		ble	.L24
 143:D:/Work/DeviceTester/amazon-freertos/lib/shadow\aws_shadow_json.c ****                                                shadowJSON_ERROR_CODE,
 331              		.loc 1 143 0
 332 0050 00508DE5 		str	r5, [sp]
 333 0054 18308DE2 		add	r3, sp, #24
 334 0058 0620A0E1 		mov	r2, r6
 335 005c 5C109FE5 		ldr	r1, .L30
 336 0060 0C008DE2 		add	r0, sp, #12
 337 0064 FEFFFFEB 		bl	prvGetJSONValue
 338              	.LVL43:
 339 0068 7040BFE6 		sxth	r4, r0
 340              	.LVL44:
 149:D:/Work/DeviceTester/amazon-freertos/lib/shadow\aws_shadow_json.c ****         {
 341              		.loc 1 149 0
 342 006c 000054E3 		cmp	r4, #0
 343 0070 0E0000DA 		ble	.L24
 152:D:/Work/DeviceTester/amazon-freertos/lib/shadow\aws_shadow_json.c **** 
 344              		.loc 1 152 0
 345 0074 0020A0E3 		mov	r2, #0
 346 0078 0C009DE5 		ldr	r0, [sp, #12]
 347 007c 0210A0E1 		mov	r1, r2
 348 0080 FEFFFFEB 		bl	strtol
 349              	.LVL45:
 154:D:/Work/DeviceTester/amazon-freertos/lib/shadow\aws_shadow_json.c ****             {
 350              		.loc 1 154 0
 351 0084 000058E3 		cmp	r8, #0
 352 0088 00005713 		cmpne	r7, #0
 152:D:/Work/DeviceTester/amazon-freertos/lib/shadow\aws_shadow_json.c **** 
 353              		.loc 1 152 0
 354 008c 7040BFE6 		sxth	r4, r0
 355              	.LVL46:
 154:D:/Work/DeviceTester/amazon-freertos/lib/shadow\aws_shadow_json.c ****             {
 356              		.loc 1 154 0
 357 0090 0600000A 		beq	.L24
 157:D:/Work/DeviceTester/amazon-freertos/lib/shadow\aws_shadow_json.c ****                                                           shadowJSON_ERROR_MESSAGE,
 358              		.loc 1 157 0
 359 0094 00508DE5 		str	r5, [sp]
 360 0098 18308DE2 		add	r3, sp, #24
 361 009c 0620A0E1 		mov	r2, r6
 362 00a0 1C109FE5 		ldr	r1, .L30+4
 363 00a4 0800A0E1 		mov	r0, r8
 364 00a8 FEFFFFEB 		bl	prvGetJSONValue
 365              	.LVL47:
 366 00ac B000C7E1 		strh	r0, [r7]	@ movhi
 367              	.LVL48:
 368              	.L24:
 172:D:/Work/DeviceTester/amazon-freertos/lib/shadow\aws_shadow_json.c **** /*-----------------------------------------------------------*/
 369              		.loc 1 172 0
 370 00b0 0400A0E1 		mov	r0, r4
 371 00b4 51DE8DE2 		add	sp, sp, #1296
 372 00b8 08D08DE2 		add	sp, sp, #8
 373              		.cfi_def_cfa_offset 24
 374              		@ sp needed
 375 00bc F081BDE8 		pop	{r4, r5, r6, r7, r8, pc}
 376              	.LVL49:
 377              	.L31:
 378              		.align	2
 379              	.L30:
 380 00c0 00000000 		.word	.LC1
 381 00c4 05000000 		.word	.LC2
 382              		.cfi_endproc
 383              	.LFE1:
 385              		.section	.rodata.SHADOW_JSONDocClientTokenMatch.str1.1,"aMS",%progbits,1
 386              	.LC0:
 387 0000 636C6965 		.ascii	"clientToken\000"
 387      6E74546F 
 387      6B656E00 
 388              		.section	.rodata.SHADOW_JSONGetErrorCodeAndMessage.str1.1,"aMS",%progbits,1
 389              	.LC1:
 390 0000 636F6465 		.ascii	"code\000"
 390      00
 391              	.LC2:
 392 0005 6D657373 		.ascii	"message\000"
 392      61676500 
 393              		.text
 394              	.Letext0:
 395              		.file 2 "c:\\program files (x86)\\gnu tools arm embedded\\6 2017-q2-update\\lib\\gcc\\arm-none-eab
 396              		.file 3 "c:\\program files (x86)\\gnu tools arm embedded\\6 2017-q2-update\\arm-none-eabi\\include
 397              		.file 4 "c:\\program files (x86)\\gnu tools arm embedded\\6 2017-q2-update\\arm-none-eabi\\include
 398              		.file 5 "c:\\program files (x86)\\gnu tools arm embedded\\6 2017-q2-update\\arm-none-eabi\\include
 399              		.file 6 "c:\\program files (x86)\\gnu tools arm embedded\\6 2017-q2-update\\arm-none-eabi\\include
 400              		.file 7 "c:\\program files (x86)\\gnu tools arm embedded\\6 2017-q2-update\\arm-none-eabi\\include
 401              		.file 8 "c:\\program files (x86)\\gnu tools arm embedded\\6 2017-q2-update\\arm-none-eabi\\include
 402              		.file 9 "c:\\program files (x86)\\gnu tools arm embedded\\6 2017-q2-update\\arm-none-eabi\\include
 403              		.file 10 "c:\\program files (x86)\\gnu tools arm embedded\\6 2017-q2-update\\arm-none-eabi\\includ
 404              		.file 11 "D:\\Work\\DeviceTester\\amazon-freertos\\lib\\third_party\\unity\\src/unity_internals.h"
 405              		.file 12 "D:\\Work\\DeviceTester\\amazon-freertos\\lib\\FreeRTOS\\portable\\GCC\\ARM_CA9_RZA2M/por
 406              		.file 13 "D:\\Work\\DeviceTester\\amazon-freertos\\lib\\third_party\\jsmn/jsmn.h"
 407              		.file 14 "c:\\program files (x86)\\gnu tools arm embedded\\6 2017-q2-update\\arm-none-eabi\\includ