   1              		.cpu cortex-a9
   2              		.eabi_attribute 28, 1
   3              		.eabi_attribute 20, 1
   4              		.eabi_attribute 21, 1
   5              		.eabi_attribute 23, 3
   6              		.eabi_attribute 24, 1
   7              		.eabi_attribute 25, 1
   8              		.eabi_attribute 26, 1
   9              		.eabi_attribute 30, 4
  10              		.eabi_attribute 34, 0
  11              		.eabi_attribute 18, 4
  12              		.file	"aws_shadow.c"
  13              		.text
  14              	.Ltext0:
  15              		.cfi_sections	.debug_frame
  16              		.section	.text.prvSetSubscribedFlag,"ax",%progbits
  17              		.align	2
  18              		.syntax unified
  19              		.arm
  20              		.fpu neon
  22              	prvSetSubscribedFlag:
  23              	.LFB16:
  24              		.file 1 "D:/Work/DeviceTester/amazon-freertos/lib/shadow/aws_shadow.c"
   1:D:/Work/DeviceTester/amazon-freertos/lib/shadow\aws_shadow.c **** /*
   2:D:/Work/DeviceTester/amazon-freertos/lib/shadow\aws_shadow.c ****  * Amazon FreeRTOS Shadow V1.0.5
   3:D:/Work/DeviceTester/amazon-freertos/lib/shadow\aws_shadow.c ****  * Copyright (C) 2017 Amazon.com, Inc. or its affiliates.  All Rights Reserved.
   4:D:/Work/DeviceTester/amazon-freertos/lib/shadow\aws_shadow.c ****  *
   5:D:/Work/DeviceTester/amazon-freertos/lib/shadow\aws_shadow.c ****  * Permission is hereby granted, free of charge, to any person obtaining a copy of
   6:D:/Work/DeviceTester/amazon-freertos/lib/shadow\aws_shadow.c ****  * this software and associated documentation files (the "Software"), to deal in
   7:D:/Work/DeviceTester/amazon-freertos/lib/shadow\aws_shadow.c ****  * the Software without restriction, including without limitation the rights to
   8:D:/Work/DeviceTester/amazon-freertos/lib/shadow\aws_shadow.c ****  * use, copy, modify, merge, publish, distribute, sublicense, and/or sell copies of
   9:D:/Work/DeviceTester/amazon-freertos/lib/shadow\aws_shadow.c ****  * the Software, and to permit persons to whom the Software is furnished to do so,
  10:D:/Work/DeviceTester/amazon-freertos/lib/shadow\aws_shadow.c ****  * subject to the following conditions:
  11:D:/Work/DeviceTester/amazon-freertos/lib/shadow\aws_shadow.c ****  *
  12:D:/Work/DeviceTester/amazon-freertos/lib/shadow\aws_shadow.c ****  * The above copyright notice and this permission notice shall be included in all
  13:D:/Work/DeviceTester/amazon-freertos/lib/shadow\aws_shadow.c ****  * copies or substantial portions of the Software.
  14:D:/Work/DeviceTester/amazon-freertos/lib/shadow\aws_shadow.c ****  *
  15:D:/Work/DeviceTester/amazon-freertos/lib/shadow\aws_shadow.c ****  * THE SOFTWARE IS PROVIDED "AS IS", WITHOUT WARRANTY OF ANY KIND, EXPRESS OR
  16:D:/Work/DeviceTester/amazon-freertos/lib/shadow\aws_shadow.c ****  * IMPLIED, INCLUDING BUT NOT LIMITED TO THE WARRANTIES OF MERCHANTABILITY, FITNESS
  17:D:/Work/DeviceTester/amazon-freertos/lib/shadow\aws_shadow.c ****  * FOR A PARTICULAR PURPOSE AND NONINFRINGEMENT. IN NO EVENT SHALL THE AUTHORS OR
  18:D:/Work/DeviceTester/amazon-freertos/lib/shadow\aws_shadow.c ****  * COPYRIGHT HOLDERS BE LIABLE FOR ANY CLAIM, DAMAGES OR OTHER LIABILITY, WHETHER
  19:D:/Work/DeviceTester/amazon-freertos/lib/shadow\aws_shadow.c ****  * IN AN ACTION OF CONTRACT, TORT OR OTHERWISE, ARISING FROM, OUT OF OR IN
  20:D:/Work/DeviceTester/amazon-freertos/lib/shadow\aws_shadow.c ****  * CONNECTION WITH THE SOFTWARE OR THE USE OR OTHER DEALINGS IN THE SOFTWARE.
  21:D:/Work/DeviceTester/amazon-freertos/lib/shadow\aws_shadow.c ****  *
  22:D:/Work/DeviceTester/amazon-freertos/lib/shadow\aws_shadow.c ****  * http://aws.amazon.com/freertos
  23:D:/Work/DeviceTester/amazon-freertos/lib/shadow\aws_shadow.c ****  * http://www.FreeRTOS.org
  24:D:/Work/DeviceTester/amazon-freertos/lib/shadow\aws_shadow.c ****  */
  25:D:/Work/DeviceTester/amazon-freertos/lib/shadow\aws_shadow.c **** 
  26:D:/Work/DeviceTester/amazon-freertos/lib/shadow\aws_shadow.c **** /**
  27:D:/Work/DeviceTester/amazon-freertos/lib/shadow\aws_shadow.c ****  * @file aws_shadow.c
  28:D:/Work/DeviceTester/amazon-freertos/lib/shadow\aws_shadow.c ****  * @brief Shadow API. Provide simple function to modify/create/delete Things shadows.
  29:D:/Work/DeviceTester/amazon-freertos/lib/shadow\aws_shadow.c ****  */
  30:D:/Work/DeviceTester/amazon-freertos/lib/shadow\aws_shadow.c **** 
  31:D:/Work/DeviceTester/amazon-freertos/lib/shadow\aws_shadow.c **** /* C library includes. */
  32:D:/Work/DeviceTester/amazon-freertos/lib/shadow\aws_shadow.c **** #include <stdio.h>
  33:D:/Work/DeviceTester/amazon-freertos/lib/shadow\aws_shadow.c **** #include <string.h>
  34:D:/Work/DeviceTester/amazon-freertos/lib/shadow\aws_shadow.c **** #include <stdlib.h>
  35:D:/Work/DeviceTester/amazon-freertos/lib/shadow\aws_shadow.c **** 
  36:D:/Work/DeviceTester/amazon-freertos/lib/shadow\aws_shadow.c **** /* FreeRTOS includes. */
  37:D:/Work/DeviceTester/amazon-freertos/lib/shadow\aws_shadow.c **** #include "FreeRTOS.h"
  38:D:/Work/DeviceTester/amazon-freertos/lib/shadow\aws_shadow.c **** #include "task.h"
  39:D:/Work/DeviceTester/amazon-freertos/lib/shadow\aws_shadow.c **** #include "semphr.h"
  40:D:/Work/DeviceTester/amazon-freertos/lib/shadow\aws_shadow.c **** 
  41:D:/Work/DeviceTester/amazon-freertos/lib/shadow\aws_shadow.c **** /* AWS includes. */
  42:D:/Work/DeviceTester/amazon-freertos/lib/shadow\aws_shadow.c **** #include "aws_shadow_config.h"
  43:D:/Work/DeviceTester/amazon-freertos/lib/shadow\aws_shadow.c **** #include "aws_shadow_config_defaults.h"
  44:D:/Work/DeviceTester/amazon-freertos/lib/shadow\aws_shadow.c **** #include "aws_shadow.h"
  45:D:/Work/DeviceTester/amazon-freertos/lib/shadow\aws_shadow.c **** #include "aws_shadow_json.h"
  46:D:/Work/DeviceTester/amazon-freertos/lib/shadow\aws_shadow.c **** 
  47:D:/Work/DeviceTester/amazon-freertos/lib/shadow\aws_shadow.c **** /**
  48:D:/Work/DeviceTester/amazon-freertos/lib/shadow\aws_shadow.c ****  * @brief Format strings for the AWS IoT Shadow MQTT topics.
  49:D:/Work/DeviceTester/amazon-freertos/lib/shadow\aws_shadow.c ****  * Refer to docs.aws.amazon.com/iot/latest/developerguide/device-shadow-mqtt.html
  50:D:/Work/DeviceTester/amazon-freertos/lib/shadow\aws_shadow.c ****  * If the MQTT topics change, update them here. Use %s for 'thingName'.
  51:D:/Work/DeviceTester/amazon-freertos/lib/shadow\aws_shadow.c ****  *
  52:D:/Work/DeviceTester/amazon-freertos/lib/shadow\aws_shadow.c ****  * These topics may also be changed to trim Thing Shadow messages.
  53:D:/Work/DeviceTester/amazon-freertos/lib/shadow\aws_shadow.c ****  * Refer to docs.aws.amazon.com/iot/latest/developerguide/using-device-shadows.html#device-shadow-t
  54:D:/Work/DeviceTester/amazon-freertos/lib/shadow\aws_shadow.c ****  */
  55:D:/Work/DeviceTester/amazon-freertos/lib/shadow\aws_shadow.c **** /** @{ */
  56:D:/Work/DeviceTester/amazon-freertos/lib/shadow\aws_shadow.c **** #define shadowTOPIC_PREFIX              "$aws/things/%s/shadow/" /* All shadow topics begin with th
  57:D:/Work/DeviceTester/amazon-freertos/lib/shadow\aws_shadow.c **** #define shadowTOPIC_OPERATION_UPDATE    "update"
  58:D:/Work/DeviceTester/amazon-freertos/lib/shadow\aws_shadow.c **** #define shadowTOPIC_OPERATION_GET       "get"
  59:D:/Work/DeviceTester/amazon-freertos/lib/shadow\aws_shadow.c **** #define shadowTOPIC_OPERATION_DELETE    "delete"
  60:D:/Work/DeviceTester/amazon-freertos/lib/shadow\aws_shadow.c **** #define shadowTOPIC_SUFFIX_ACCEPTED     "/accepted" /* All accepted topics end with this. */
  61:D:/Work/DeviceTester/amazon-freertos/lib/shadow\aws_shadow.c **** #define shadowTOPIC_SUFFIX_REJECTED     "/rejected" /* All rejected topics end with this. */
  62:D:/Work/DeviceTester/amazon-freertos/lib/shadow\aws_shadow.c **** 
  63:D:/Work/DeviceTester/amazon-freertos/lib/shadow\aws_shadow.c **** #define shadowTOPIC_UPDATE              shadowTOPIC_PREFIX shadowTOPIC_OPERATION_UPDATE
  64:D:/Work/DeviceTester/amazon-freertos/lib/shadow\aws_shadow.c **** #define shadowTOPIC_UPDATE_ACCEPTED     shadowTOPIC_UPDATE shadowTOPIC_SUFFIX_ACCEPTED
  65:D:/Work/DeviceTester/amazon-freertos/lib/shadow\aws_shadow.c **** #define shadowTOPIC_UPDATE_REJECTED     shadowTOPIC_UPDATE shadowTOPIC_SUFFIX_REJECTED
  66:D:/Work/DeviceTester/amazon-freertos/lib/shadow\aws_shadow.c **** #define shadowTOPIC_UPDATE_DOCUMENTS    shadowTOPIC_UPDATE "/documents"
  67:D:/Work/DeviceTester/amazon-freertos/lib/shadow\aws_shadow.c **** #define shadowTOPIC_UPDATE_DELTA        shadowTOPIC_UPDATE "/delta"
  68:D:/Work/DeviceTester/amazon-freertos/lib/shadow\aws_shadow.c **** #define shadowTOPIC_GET                 shadowTOPIC_PREFIX shadowTOPIC_OPERATION_GET
  69:D:/Work/DeviceTester/amazon-freertos/lib/shadow\aws_shadow.c **** #define shadowTOPIC_GET_ACCEPTED        shadowTOPIC_GET shadowTOPIC_SUFFIX_ACCEPTED
  70:D:/Work/DeviceTester/amazon-freertos/lib/shadow\aws_shadow.c **** #define shadowTOPIC_GET_REJECTED        shadowTOPIC_GET shadowTOPIC_SUFFIX_REJECTED
  71:D:/Work/DeviceTester/amazon-freertos/lib/shadow\aws_shadow.c **** #define shadowTOPIC_DELETE              shadowTOPIC_PREFIX shadowTOPIC_OPERATION_DELETE
  72:D:/Work/DeviceTester/amazon-freertos/lib/shadow\aws_shadow.c **** #define shadowTOPIC_DELETE_ACCEPTED     shadowTOPIC_DELETE shadowTOPIC_SUFFIX_ACCEPTED
  73:D:/Work/DeviceTester/amazon-freertos/lib/shadow\aws_shadow.c **** #define shadowTOPIC_DELETE_REJECTED     shadowTOPIC_DELETE shadowTOPIC_SUFFIX_REJECTED
  74:D:/Work/DeviceTester/amazon-freertos/lib/shadow\aws_shadow.c **** /** @} */
  75:D:/Work/DeviceTester/amazon-freertos/lib/shadow\aws_shadow.c **** 
  76:D:/Work/DeviceTester/amazon-freertos/lib/shadow\aws_shadow.c **** /** Maximum length of a Shadow MQTT topic. 128 is currently the longest Thing
  77:D:/Work/DeviceTester/amazon-freertos/lib/shadow\aws_shadow.c **** * Name that AWS IoT accepts. shadowTOPIC_UPDATE_DOCUMENTS is currently the
  78:D:/Work/DeviceTester/amazon-freertos/lib/shadow\aws_shadow.c **** * longest topic. All Shadow MQTT topics should be shorter than this value. */
  79:D:/Work/DeviceTester/amazon-freertos/lib/shadow\aws_shadow.c **** #define configMAX_THING_NAME_LENGTH    128
  80:D:/Work/DeviceTester/amazon-freertos/lib/shadow\aws_shadow.c **** #define shadowTOPIC_BUFFER_LENGTH      ( configMAX_THING_NAME_LENGTH + ( int16_t ) sizeof( shadowTO
  81:D:/Work/DeviceTester/amazon-freertos/lib/shadow\aws_shadow.c **** 
  82:D:/Work/DeviceTester/amazon-freertos/lib/shadow\aws_shadow.c **** #if shadowconfigENABLE_DEBUG_LOGS == 1
  83:D:/Work/DeviceTester/amazon-freertos/lib/shadow\aws_shadow.c ****     #define Shadow_debug_printf( X )    configPRINTF( X )
  84:D:/Work/DeviceTester/amazon-freertos/lib/shadow\aws_shadow.c **** #else
  85:D:/Work/DeviceTester/amazon-freertos/lib/shadow\aws_shadow.c ****     #define Shadow_debug_printf( X )
  86:D:/Work/DeviceTester/amazon-freertos/lib/shadow\aws_shadow.c **** #endif
  87:D:/Work/DeviceTester/amazon-freertos/lib/shadow\aws_shadow.c **** 
  88:D:/Work/DeviceTester/amazon-freertos/lib/shadow\aws_shadow.c **** /**
  89:D:/Work/DeviceTester/amazon-freertos/lib/shadow\aws_shadow.c ****  * @brief Shadow operation that can be parsed from MQTT topics.
  90:D:/Work/DeviceTester/amazon-freertos/lib/shadow\aws_shadow.c ****  *
  91:D:/Work/DeviceTester/amazon-freertos/lib/shadow\aws_shadow.c ****  */
  92:D:/Work/DeviceTester/amazon-freertos/lib/shadow\aws_shadow.c **** typedef enum ShadowOperationName
  93:D:/Work/DeviceTester/amazon-freertos/lib/shadow\aws_shadow.c **** {
  94:D:/Work/DeviceTester/amazon-freertos/lib/shadow\aws_shadow.c ****     eShadowOperationUpdate,
  95:D:/Work/DeviceTester/amazon-freertos/lib/shadow\aws_shadow.c ****     eShadowOperationGet,
  96:D:/Work/DeviceTester/amazon-freertos/lib/shadow\aws_shadow.c ****     eShadowOperationDelete,
  97:D:/Work/DeviceTester/amazon-freertos/lib/shadow\aws_shadow.c ****     eShadowOperationUpdateDocuments,
  98:D:/Work/DeviceTester/amazon-freertos/lib/shadow\aws_shadow.c ****     eShadowOperationUpdateDelta,
  99:D:/Work/DeviceTester/amazon-freertos/lib/shadow\aws_shadow.c ****     eShadowOperationDeletedByAnother,
 100:D:/Work/DeviceTester/amazon-freertos/lib/shadow\aws_shadow.c ****     eShadowOperationOther
 101:D:/Work/DeviceTester/amazon-freertos/lib/shadow\aws_shadow.c **** } ShadowOperationName_t;
 102:D:/Work/DeviceTester/amazon-freertos/lib/shadow\aws_shadow.c **** 
 103:D:/Work/DeviceTester/amazon-freertos/lib/shadow\aws_shadow.c **** /**
 104:D:/Work/DeviceTester/amazon-freertos/lib/shadow\aws_shadow.c ****  * @brief Data on the Shadow operation currently in progress.
 105:D:/Work/DeviceTester/amazon-freertos/lib/shadow\aws_shadow.c ****  *
 106:D:/Work/DeviceTester/amazon-freertos/lib/shadow\aws_shadow.c ****  */
 107:D:/Work/DeviceTester/amazon-freertos/lib/shadow\aws_shadow.c **** typedef struct ShadowOperationData
 108:D:/Work/DeviceTester/amazon-freertos/lib/shadow\aws_shadow.c **** {
 109:D:/Work/DeviceTester/amazon-freertos/lib/shadow\aws_shadow.c ****     ShadowOperationName_t xOperationInProgress;
 110:D:/Work/DeviceTester/amazon-freertos/lib/shadow\aws_shadow.c ****     ShadowOperationParams_t * pxOperationParams;
 111:D:/Work/DeviceTester/amazon-freertos/lib/shadow\aws_shadow.c **** } ShadowOperationData_t;
 112:D:/Work/DeviceTester/amazon-freertos/lib/shadow\aws_shadow.c **** 
 113:D:/Work/DeviceTester/amazon-freertos/lib/shadow\aws_shadow.c **** /**
 114:D:/Work/DeviceTester/amazon-freertos/lib/shadow\aws_shadow.c ****  * @brief Data on the timeout by which a function needs to complete.
 115:D:/Work/DeviceTester/amazon-freertos/lib/shadow\aws_shadow.c ****  *
 116:D:/Work/DeviceTester/amazon-freertos/lib/shadow\aws_shadow.c ****  */
 117:D:/Work/DeviceTester/amazon-freertos/lib/shadow\aws_shadow.c **** typedef struct TimeOutData
 118:D:/Work/DeviceTester/amazon-freertos/lib/shadow\aws_shadow.c **** {
 119:D:/Work/DeviceTester/amazon-freertos/lib/shadow\aws_shadow.c ****     TimeOut_t xTimeOut;
 120:D:/Work/DeviceTester/amazon-freertos/lib/shadow\aws_shadow.c ****     TickType_t xTicksRemaining;
 121:D:/Work/DeviceTester/amazon-freertos/lib/shadow\aws_shadow.c **** } TimeOutData_t;
 122:D:/Work/DeviceTester/amazon-freertos/lib/shadow\aws_shadow.c **** 
 123:D:/Work/DeviceTester/amazon-freertos/lib/shadow\aws_shadow.c **** /**
 124:D:/Work/DeviceTester/amazon-freertos/lib/shadow\aws_shadow.c ****  * @brief Data passed to prvShadowOperation.
 125:D:/Work/DeviceTester/amazon-freertos/lib/shadow\aws_shadow.c ****  *
 126:D:/Work/DeviceTester/amazon-freertos/lib/shadow\aws_shadow.c ****  */
 127:D:/Work/DeviceTester/amazon-freertos/lib/shadow\aws_shadow.c **** typedef struct ShadowOperationCallParams
 128:D:/Work/DeviceTester/amazon-freertos/lib/shadow\aws_shadow.c **** {
 129:D:/Work/DeviceTester/amazon-freertos/lib/shadow\aws_shadow.c ****     BaseType_t xShadowClientID;
 130:D:/Work/DeviceTester/amazon-freertos/lib/shadow\aws_shadow.c **** 
 131:D:/Work/DeviceTester/amazon-freertos/lib/shadow\aws_shadow.c ****     ShadowOperationName_t xOperationName;
 132:D:/Work/DeviceTester/amazon-freertos/lib/shadow\aws_shadow.c ****     const char * pcOperationName;
 133:D:/Work/DeviceTester/amazon-freertos/lib/shadow\aws_shadow.c **** 
 134:D:/Work/DeviceTester/amazon-freertos/lib/shadow\aws_shadow.c ****     /* Operation MQTT topics. */
 135:D:/Work/DeviceTester/amazon-freertos/lib/shadow\aws_shadow.c ****     const char * pcOperationTopic;
 136:D:/Work/DeviceTester/amazon-freertos/lib/shadow\aws_shadow.c ****     const char * pcOperationAcceptedTopic;
 137:D:/Work/DeviceTester/amazon-freertos/lib/shadow\aws_shadow.c ****     const char * pcOperationRejectedTopic;
 138:D:/Work/DeviceTester/amazon-freertos/lib/shadow\aws_shadow.c **** 
 139:D:/Work/DeviceTester/amazon-freertos/lib/shadow\aws_shadow.c ****     /* The message to publish to MQTT topics. */
 140:D:/Work/DeviceTester/amazon-freertos/lib/shadow\aws_shadow.c ****     const char * pcPublishMessage;
 141:D:/Work/DeviceTester/amazon-freertos/lib/shadow\aws_shadow.c ****     uint32_t ulPublishMessageLength;
 142:D:/Work/DeviceTester/amazon-freertos/lib/shadow\aws_shadow.c **** 
 143:D:/Work/DeviceTester/amazon-freertos/lib/shadow\aws_shadow.c ****     ShadowOperationParams_t * pxOperationParams;
 144:D:/Work/DeviceTester/amazon-freertos/lib/shadow\aws_shadow.c ****     TickType_t xTimeoutTicks;
 145:D:/Work/DeviceTester/amazon-freertos/lib/shadow\aws_shadow.c **** } ShadowOperationCallParams_t;
 146:D:/Work/DeviceTester/amazon-freertos/lib/shadow\aws_shadow.c **** 
 147:D:/Work/DeviceTester/amazon-freertos/lib/shadow\aws_shadow.c **** /**
 148:D:/Work/DeviceTester/amazon-freertos/lib/shadow\aws_shadow.c ****  * @brief An entry of the callback catalog.
 149:D:/Work/DeviceTester/amazon-freertos/lib/shadow\aws_shadow.c ****  *
 150:D:/Work/DeviceTester/amazon-freertos/lib/shadow\aws_shadow.c ****  * The callback catalog is the member of the Shadow Client that stores the
 151:D:/Work/DeviceTester/amazon-freertos/lib/shadow\aws_shadow.c ****  * callback functions associated with Thing Names.
 152:D:/Work/DeviceTester/amazon-freertos/lib/shadow\aws_shadow.c ****  */
 153:D:/Work/DeviceTester/amazon-freertos/lib/shadow\aws_shadow.c **** typedef struct CallbackCatalogEntry
 154:D:/Work/DeviceTester/amazon-freertos/lib/shadow\aws_shadow.c **** {
 155:D:/Work/DeviceTester/amazon-freertos/lib/shadow\aws_shadow.c ****     ShadowCallbackParams_t xCallbackInfo;
 156:D:/Work/DeviceTester/amazon-freertos/lib/shadow\aws_shadow.c ****     BaseType_t xInUse;
 157:D:/Work/DeviceTester/amazon-freertos/lib/shadow\aws_shadow.c **** } CallbackCatalogEntry_t;
 158:D:/Work/DeviceTester/amazon-freertos/lib/shadow\aws_shadow.c **** 
 159:D:/Work/DeviceTester/amazon-freertos/lib/shadow\aws_shadow.c **** /**
 160:D:/Work/DeviceTester/amazon-freertos/lib/shadow\aws_shadow.c ****  * @brief The Shadow Client.
 161:D:/Work/DeviceTester/amazon-freertos/lib/shadow\aws_shadow.c ****  *
 162:D:/Work/DeviceTester/amazon-freertos/lib/shadow\aws_shadow.c ****  */
 163:D:/Work/DeviceTester/amazon-freertos/lib/shadow\aws_shadow.c **** typedef struct ShadowClient
 164:D:/Work/DeviceTester/amazon-freertos/lib/shadow\aws_shadow.c **** {
 165:D:/Work/DeviceTester/amazon-freertos/lib/shadow\aws_shadow.c ****     /* MQTT Client handle. */
 166:D:/Work/DeviceTester/amazon-freertos/lib/shadow\aws_shadow.c ****     MQTTAgentHandle_t xMQTTClient;
 167:D:/Work/DeviceTester/amazon-freertos/lib/shadow\aws_shadow.c **** 
 168:D:/Work/DeviceTester/amazon-freertos/lib/shadow\aws_shadow.c ****     /* Shadow Client flags. */
 169:D:/Work/DeviceTester/amazon-freertos/lib/shadow\aws_shadow.c ****     BaseType_t xInUse;
 170:D:/Work/DeviceTester/amazon-freertos/lib/shadow\aws_shadow.c ****     BaseType_t xUpdateSubscribed;
 171:D:/Work/DeviceTester/amazon-freertos/lib/shadow\aws_shadow.c ****     BaseType_t xGetSubscribed;
 172:D:/Work/DeviceTester/amazon-freertos/lib/shadow\aws_shadow.c ****     BaseType_t xDeleteSubscribed;
 173:D:/Work/DeviceTester/amazon-freertos/lib/shadow\aws_shadow.c **** 
 174:D:/Work/DeviceTester/amazon-freertos/lib/shadow\aws_shadow.c ****     /* Synchronization mechanisms. */
 175:D:/Work/DeviceTester/amazon-freertos/lib/shadow\aws_shadow.c ****     SemaphoreHandle_t xOperationDataMutex; /* Allows only one in-progress operation. */
 176:D:/Work/DeviceTester/amazon-freertos/lib/shadow\aws_shadow.c ****     SemaphoreHandle_t xOperationMutex;     /* Allows only one in-progress operation. */
 177:D:/Work/DeviceTester/amazon-freertos/lib/shadow\aws_shadow.c ****     SemaphoreHandle_t xCallbackSemaphore;  /* Communication with callbacks. */
 178:D:/Work/DeviceTester/amazon-freertos/lib/shadow\aws_shadow.c ****     StaticSemaphore_t xOperationMutexBuffer;
 179:D:/Work/DeviceTester/amazon-freertos/lib/shadow\aws_shadow.c ****     StaticSemaphore_t xCallbackSemaphoreBuffer;
 180:D:/Work/DeviceTester/amazon-freertos/lib/shadow\aws_shadow.c ****     StaticSemaphore_t xOperationDataMutexBuffer;
 181:D:/Work/DeviceTester/amazon-freertos/lib/shadow\aws_shadow.c **** 
 182:D:/Work/DeviceTester/amazon-freertos/lib/shadow\aws_shadow.c ****     /* Data shared between blocking function and MQTT callback. */
 183:D:/Work/DeviceTester/amazon-freertos/lib/shadow\aws_shadow.c ****     ShadowOperationData_t * pxOperationData;
 184:D:/Work/DeviceTester/amazon-freertos/lib/shadow\aws_shadow.c **** 
 185:D:/Work/DeviceTester/amazon-freertos/lib/shadow\aws_shadow.c ****     /* The callback functions pass data to the API calls by setting xOperationResult.
 186:D:/Work/DeviceTester/amazon-freertos/lib/shadow\aws_shadow.c ****      * This value is volatile to ensure that the compiler knows the value can change
 187:D:/Work/DeviceTester/amazon-freertos/lib/shadow\aws_shadow.c ****      * without anything happening in the API call. */
 188:D:/Work/DeviceTester/amazon-freertos/lib/shadow\aws_shadow.c ****     volatile ShadowReturnCode_t xOperationResult;
 189:D:/Work/DeviceTester/amazon-freertos/lib/shadow\aws_shadow.c **** 
 190:D:/Work/DeviceTester/amazon-freertos/lib/shadow\aws_shadow.c ****     /* Callback catalog stores Thing Names and registered callbacks. */
 191:D:/Work/DeviceTester/amazon-freertos/lib/shadow\aws_shadow.c ****     CallbackCatalogEntry_t xCallbackCatalog[ shadowconfigMAX_THINGS_WITH_CALLBACKS ];
 192:D:/Work/DeviceTester/amazon-freertos/lib/shadow\aws_shadow.c **** 
 193:D:/Work/DeviceTester/amazon-freertos/lib/shadow\aws_shadow.c ****     /* Stores the topic of the in-progress operation. Some of the Shadow API's
 194:D:/Work/DeviceTester/amazon-freertos/lib/shadow\aws_shadow.c ****      * static functions depend on this buffer remaining the same throughout a
 195:D:/Work/DeviceTester/amazon-freertos/lib/shadow\aws_shadow.c ****      * Shadow API operation. Therefore, only prvShadowOperation (and the static
 196:D:/Work/DeviceTester/amazon-freertos/lib/shadow\aws_shadow.c ****      * functions called by prvShadowOperation) should modify the contents of this
 197:D:/Work/DeviceTester/amazon-freertos/lib/shadow\aws_shadow.c ****      * buffer. */
 198:D:/Work/DeviceTester/amazon-freertos/lib/shadow\aws_shadow.c ****     uint8_t ucTopicBuffer[ shadowTOPIC_BUFFER_LENGTH ];
 199:D:/Work/DeviceTester/amazon-freertos/lib/shadow\aws_shadow.c **** } ShadowClient_t;
 200:D:/Work/DeviceTester/amazon-freertos/lib/shadow\aws_shadow.c **** 
 201:D:/Work/DeviceTester/amazon-freertos/lib/shadow\aws_shadow.c **** /**
 202:D:/Work/DeviceTester/amazon-freertos/lib/shadow\aws_shadow.c ****  * @brief Searches memory for a not-in-use Shadow Client.
 203:D:/Work/DeviceTester/amazon-freertos/lib/shadow\aws_shadow.c ****  *
 204:D:/Work/DeviceTester/amazon-freertos/lib/shadow\aws_shadow.c ****  */
 205:D:/Work/DeviceTester/amazon-freertos/lib/shadow\aws_shadow.c **** static BaseType_t prvGetFreeShadowClient( void );
 206:D:/Work/DeviceTester/amazon-freertos/lib/shadow\aws_shadow.c **** 
 207:D:/Work/DeviceTester/amazon-freertos/lib/shadow\aws_shadow.c **** /**
 208:D:/Work/DeviceTester/amazon-freertos/lib/shadow\aws_shadow.c ****  * @brief Returns the slot index of callback catalog for matching thing name, if thing name not fou
 209:D:/Work/DeviceTester/amazon-freertos/lib/shadow\aws_shadow.c ****  * returns the next available unused slot index in catalog.
 210:D:/Work/DeviceTester/amazon-freertos/lib/shadow\aws_shadow.c ****  *
 211:D:/Work/DeviceTester/amazon-freertos/lib/shadow\aws_shadow.c ****  */
 212:D:/Work/DeviceTester/amazon-freertos/lib/shadow\aws_shadow.c **** static BaseType_t prvGetCallbackCatalogEntry( CallbackCatalogEntry_t * const xCallbackCatalog,
 213:D:/Work/DeviceTester/amazon-freertos/lib/shadow\aws_shadow.c ****                                               const char * const pcThingName );
 214:D:/Work/DeviceTester/amazon-freertos/lib/shadow\aws_shadow.c **** 
 215:D:/Work/DeviceTester/amazon-freertos/lib/shadow\aws_shadow.c **** 
 216:D:/Work/DeviceTester/amazon-freertos/lib/shadow\aws_shadow.c **** /**
 217:D:/Work/DeviceTester/amazon-freertos/lib/shadow\aws_shadow.c ****  * @brief Wrapper function for MQTT API calls; converts MQTTAgentReturnCode_t to
 218:D:/Work/DeviceTester/amazon-freertos/lib/shadow\aws_shadow.c ****  * ShadowReturnCode_t and optionally prints debug messages.
 219:D:/Work/DeviceTester/amazon-freertos/lib/shadow\aws_shadow.c ****  *
 220:D:/Work/DeviceTester/amazon-freertos/lib/shadow\aws_shadow.c ****  */
 221:D:/Work/DeviceTester/amazon-freertos/lib/shadow\aws_shadow.c **** static ShadowReturnCode_t prvConvertMQTTReturnCode( MQTTAgentReturnCode_t xMQTTReturn,
 222:D:/Work/DeviceTester/amazon-freertos/lib/shadow\aws_shadow.c ****                                                     ShadowClientHandle_t xShadowClientHandle,
 223:D:/Work/DeviceTester/amazon-freertos/lib/shadow\aws_shadow.c ****                                                     const char * const pcDebugMessageSubject );
 224:D:/Work/DeviceTester/amazon-freertos/lib/shadow\aws_shadow.c **** 
 225:D:/Work/DeviceTester/amazon-freertos/lib/shadow\aws_shadow.c **** 
 226:D:/Work/DeviceTester/amazon-freertos/lib/shadow\aws_shadow.c **** /**
 227:D:/Work/DeviceTester/amazon-freertos/lib/shadow\aws_shadow.c ****  * @brief Function to register a callback by subscribing to Shadow MQTT topics or removes a callbac
 228:D:/Work/DeviceTester/amazon-freertos/lib/shadow\aws_shadow.c ****  * Function by unsubscribing to Shadow MQTT topics
 229:D:/Work/DeviceTester/amazon-freertos/lib/shadow\aws_shadow.c ****  *
 230:D:/Work/DeviceTester/amazon-freertos/lib/shadow\aws_shadow.c ****  */
 231:D:/Work/DeviceTester/amazon-freertos/lib/shadow\aws_shadow.c **** static ShadowReturnCode_t prvRegisterCallback( BaseType_t xShadowClientID,
 232:D:/Work/DeviceTester/amazon-freertos/lib/shadow\aws_shadow.c ****                                                const void ** const ppvOldCallback,
 233:D:/Work/DeviceTester/amazon-freertos/lib/shadow\aws_shadow.c ****                                                const void ** const ppvNewCallback,
 234:D:/Work/DeviceTester/amazon-freertos/lib/shadow\aws_shadow.c ****                                                const char * const pcThingName,
 235:D:/Work/DeviceTester/amazon-freertos/lib/shadow\aws_shadow.c ****                                                const uint8_t * const pucTopicFormat,
 236:D:/Work/DeviceTester/amazon-freertos/lib/shadow\aws_shadow.c ****                                                TickType_t xTimeoutTicks );
 237:D:/Work/DeviceTester/amazon-freertos/lib/shadow\aws_shadow.c **** 
 238:D:/Work/DeviceTester/amazon-freertos/lib/shadow\aws_shadow.c **** /**
 239:D:/Work/DeviceTester/amazon-freertos/lib/shadow\aws_shadow.c ****  * @brief Subscribes to an accepted and rejected topic
 240:D:/Work/DeviceTester/amazon-freertos/lib/shadow\aws_shadow.c ****  *
 241:D:/Work/DeviceTester/amazon-freertos/lib/shadow\aws_shadow.c ****  */
 242:D:/Work/DeviceTester/amazon-freertos/lib/shadow\aws_shadow.c **** static ShadowReturnCode_t prvShadowSubscribeToAcceptedRejected( BaseType_t
 243:D:/Work/DeviceTester/amazon-freertos/lib/shadow\aws_shadow.c ****                                                                 xShadowClientID,
 244:D:/Work/DeviceTester/amazon-freertos/lib/shadow\aws_shadow.c ****                                                                 const char * const pcThingName,
 245:D:/Work/DeviceTester/amazon-freertos/lib/shadow\aws_shadow.c ****                                                                 const char * const pcAcceptedTopic,
 246:D:/Work/DeviceTester/amazon-freertos/lib/shadow\aws_shadow.c ****                                                                 const char * const pcRejectedTopic,
 247:D:/Work/DeviceTester/amazon-freertos/lib/shadow\aws_shadow.c ****                                                                 TimeOutData_t * const pxTimeOutData
 248:D:/Work/DeviceTester/amazon-freertos/lib/shadow\aws_shadow.c **** 
 249:D:/Work/DeviceTester/amazon-freertos/lib/shadow\aws_shadow.c **** /**
 250:D:/Work/DeviceTester/amazon-freertos/lib/shadow\aws_shadow.c ****  * @brief Unsubscribe to an accepted and rejected topic.
 251:D:/Work/DeviceTester/amazon-freertos/lib/shadow\aws_shadow.c ****  *
 252:D:/Work/DeviceTester/amazon-freertos/lib/shadow\aws_shadow.c ****  */
 253:D:/Work/DeviceTester/amazon-freertos/lib/shadow\aws_shadow.c **** static ShadowReturnCode_t prvShadowUnsubscribeFromAcceptedRejected( BaseType_t xShadowClientID,
 254:D:/Work/DeviceTester/amazon-freertos/lib/shadow\aws_shadow.c ****                                                                     const char * const pcThingName,
 255:D:/Work/DeviceTester/amazon-freertos/lib/shadow\aws_shadow.c ****                                                                     const char * const pcAcceptedTo
 256:D:/Work/DeviceTester/amazon-freertos/lib/shadow\aws_shadow.c ****                                                                     const char * const pcRejectedTo
 257:D:/Work/DeviceTester/amazon-freertos/lib/shadow\aws_shadow.c ****                                                                     TimeOutData_t * const pxTimeOut
 258:D:/Work/DeviceTester/amazon-freertos/lib/shadow\aws_shadow.c **** 
 259:D:/Work/DeviceTester/amazon-freertos/lib/shadow\aws_shadow.c **** /**
 260:D:/Work/DeviceTester/amazon-freertos/lib/shadow\aws_shadow.c ****  * @brief Universal MQTT callback; parses topics for Thing Name and operation matches.
 261:D:/Work/DeviceTester/amazon-freertos/lib/shadow\aws_shadow.c ****  *
 262:D:/Work/DeviceTester/amazon-freertos/lib/shadow\aws_shadow.c ****  */
 263:D:/Work/DeviceTester/amazon-freertos/lib/shadow\aws_shadow.c **** static BaseType_t prvShadowMQTTCallback( void * pvUserData,
 264:D:/Work/DeviceTester/amazon-freertos/lib/shadow\aws_shadow.c ****                                          const MQTTAgentCallbackParams_t * const pxCallbackParams )
 265:D:/Work/DeviceTester/amazon-freertos/lib/shadow\aws_shadow.c **** 
 266:D:/Work/DeviceTester/amazon-freertos/lib/shadow\aws_shadow.c **** /**
 267:D:/Work/DeviceTester/amazon-freertos/lib/shadow\aws_shadow.c ****  * @brief Parses "accepted" or "rejected" from MQTT topic.
 268:D:/Work/DeviceTester/amazon-freertos/lib/shadow\aws_shadow.c ****  *
 269:D:/Work/DeviceTester/amazon-freertos/lib/shadow\aws_shadow.c ****  */
 270:D:/Work/DeviceTester/amazon-freertos/lib/shadow\aws_shadow.c **** static ShadowReturnCode_t prvParseShadowOperationStatus( const uint8_t * const
 271:D:/Work/DeviceTester/amazon-freertos/lib/shadow\aws_shadow.c ****                                                          pucTopic,
 272:D:/Work/DeviceTester/amazon-freertos/lib/shadow\aws_shadow.c ****                                                          uint16_t usTopicLength );
 273:D:/Work/DeviceTester/amazon-freertos/lib/shadow\aws_shadow.c **** 
 274:D:/Work/DeviceTester/amazon-freertos/lib/shadow\aws_shadow.c **** /**
 275:D:/Work/DeviceTester/amazon-freertos/lib/shadow\aws_shadow.c ****  * @briefMatch topic with registered callback and return reference to catalog entry found or NULL i
 276:D:/Work/DeviceTester/amazon-freertos/lib/shadow\aws_shadow.c ****  */
 277:D:/Work/DeviceTester/amazon-freertos/lib/shadow\aws_shadow.c **** static const CallbackCatalogEntry_t * prvMatchCallbackTopic( const ShadowClient_t *
 278:D:/Work/DeviceTester/amazon-freertos/lib/shadow\aws_shadow.c ****                                                              const pxShadowClient,
 279:D:/Work/DeviceTester/amazon-freertos/lib/shadow\aws_shadow.c ****                                                              const uint8_t * const pucTopic,
 280:D:/Work/DeviceTester/amazon-freertos/lib/shadow\aws_shadow.c ****                                                              uint16_t usTopicLength,
 281:D:/Work/DeviceTester/amazon-freertos/lib/shadow\aws_shadow.c ****                                                              ShadowOperationName_t * const pxOperat
 282:D:/Work/DeviceTester/amazon-freertos/lib/shadow\aws_shadow.c **** 
 283:D:/Work/DeviceTester/amazon-freertos/lib/shadow\aws_shadow.c **** /**
 284:D:/Work/DeviceTester/amazon-freertos/lib/shadow\aws_shadow.c ****  * @brief Update callback for Shadow Operations.
 285:D:/Work/DeviceTester/amazon-freertos/lib/shadow\aws_shadow.c ****  */
 286:D:/Work/DeviceTester/amazon-freertos/lib/shadow\aws_shadow.c **** static void prvShadowUpdateCallback( BaseType_t xShadowClientID,
 287:D:/Work/DeviceTester/amazon-freertos/lib/shadow\aws_shadow.c ****                                      ShadowReturnCode_t xResult,
 288:D:/Work/DeviceTester/amazon-freertos/lib/shadow\aws_shadow.c ****                                      const ShadowOperationParams_t * const pxParams,
 289:D:/Work/DeviceTester/amazon-freertos/lib/shadow\aws_shadow.c ****                                      const char * const pcData,
 290:D:/Work/DeviceTester/amazon-freertos/lib/shadow\aws_shadow.c ****                                      uint32_t ulDataLength );
 291:D:/Work/DeviceTester/amazon-freertos/lib/shadow\aws_shadow.c **** 
 292:D:/Work/DeviceTester/amazon-freertos/lib/shadow\aws_shadow.c **** /**
 293:D:/Work/DeviceTester/amazon-freertos/lib/shadow\aws_shadow.c ****  * @brief Get callback for shadow operations
 294:D:/Work/DeviceTester/amazon-freertos/lib/shadow\aws_shadow.c ****  */
 295:D:/Work/DeviceTester/amazon-freertos/lib/shadow\aws_shadow.c **** static void prvShadowGetCallback( BaseType_t xShadowClientID,
 296:D:/Work/DeviceTester/amazon-freertos/lib/shadow\aws_shadow.c ****                                   ShadowReturnCode_t xResult,
 297:D:/Work/DeviceTester/amazon-freertos/lib/shadow\aws_shadow.c ****                                   ShadowOperationParams_t * const pxParams,
 298:D:/Work/DeviceTester/amazon-freertos/lib/shadow\aws_shadow.c ****                                   const char * const pcData,
 299:D:/Work/DeviceTester/amazon-freertos/lib/shadow\aws_shadow.c ****                                   uint32_t ulDataLength,
 300:D:/Work/DeviceTester/amazon-freertos/lib/shadow\aws_shadow.c ****                                   MQTTBufferHandle_t xBuffer );
 301:D:/Work/DeviceTester/amazon-freertos/lib/shadow\aws_shadow.c **** 
 302:D:/Work/DeviceTester/amazon-freertos/lib/shadow\aws_shadow.c **** /**
 303:D:/Work/DeviceTester/amazon-freertos/lib/shadow\aws_shadow.c ****  * @briefDelete callback for shadow operations
 304:D:/Work/DeviceTester/amazon-freertos/lib/shadow\aws_shadow.c ****  */
 305:D:/Work/DeviceTester/amazon-freertos/lib/shadow\aws_shadow.c **** static void prvShadowDeleteCallback( BaseType_t xShadowClientID,
 306:D:/Work/DeviceTester/amazon-freertos/lib/shadow\aws_shadow.c ****                                      ShadowReturnCode_t xResult,
 307:D:/Work/DeviceTester/amazon-freertos/lib/shadow\aws_shadow.c ****                                      const char * const pcData,
 308:D:/Work/DeviceTester/amazon-freertos/lib/shadow\aws_shadow.c ****                                      uint32_t ulDataLength );
 309:D:/Work/DeviceTester/amazon-freertos/lib/shadow\aws_shadow.c **** 
 310:D:/Work/DeviceTester/amazon-freertos/lib/shadow\aws_shadow.c **** /**
 311:D:/Work/DeviceTester/amazon-freertos/lib/shadow\aws_shadow.c ****  * @brief Handles error codes and messages in callbacks.
 312:D:/Work/DeviceTester/amazon-freertos/lib/shadow\aws_shadow.c ****  */
 313:D:/Work/DeviceTester/amazon-freertos/lib/shadow\aws_shadow.c **** static ShadowReturnCode_t prvGetErrorCodeAndMessage( const char * const pcData,
 314:D:/Work/DeviceTester/amazon-freertos/lib/shadow\aws_shadow.c ****                                                      uint32_t ulDataLength,
 315:D:/Work/DeviceTester/amazon-freertos/lib/shadow\aws_shadow.c ****                                                      BaseType_t xShadowClientID,
 316:D:/Work/DeviceTester/amazon-freertos/lib/shadow\aws_shadow.c ****                                                      const char * const pcOperationName );
 317:D:/Work/DeviceTester/amazon-freertos/lib/shadow\aws_shadow.c **** 
 318:D:/Work/DeviceTester/amazon-freertos/lib/shadow\aws_shadow.c **** /**
 319:D:/Work/DeviceTester/amazon-freertos/lib/shadow\aws_shadow.c ****  * @briefShadow Operation common code.
 320:D:/Work/DeviceTester/amazon-freertos/lib/shadow\aws_shadow.c ****  */
 321:D:/Work/DeviceTester/amazon-freertos/lib/shadow\aws_shadow.c **** static ShadowReturnCode_t prvShadowOperation( ShadowOperationCallParams_t * pxParams );
 322:D:/Work/DeviceTester/amazon-freertos/lib/shadow\aws_shadow.c **** 
 323:D:/Work/DeviceTester/amazon-freertos/lib/shadow\aws_shadow.c **** static void prvSetSubscribedFlag( ShadowClient_t * const pxShadowClient,
 324:D:/Work/DeviceTester/amazon-freertos/lib/shadow\aws_shadow.c ****                                   ShadowOperationName_t xOperationName,
 325:D:/Work/DeviceTester/amazon-freertos/lib/shadow\aws_shadow.c ****                                   BaseType_t xValue );
 326:D:/Work/DeviceTester/amazon-freertos/lib/shadow\aws_shadow.c **** 
 327:D:/Work/DeviceTester/amazon-freertos/lib/shadow\aws_shadow.c **** static uint8_t prvGetSubscribedFlag( const ShadowClient_t * const pxShadowClient,
 328:D:/Work/DeviceTester/amazon-freertos/lib/shadow\aws_shadow.c ****                                      ShadowOperationName_t xOperationName );
 329:D:/Work/DeviceTester/amazon-freertos/lib/shadow\aws_shadow.c **** 
 330:D:/Work/DeviceTester/amazon-freertos/lib/shadow\aws_shadow.c **** /**
 331:D:/Work/DeviceTester/amazon-freertos/lib/shadow\aws_shadow.c ****  * @brief Memory allocated to store Shadow Clients.
 332:D:/Work/DeviceTester/amazon-freertos/lib/shadow\aws_shadow.c ****  */
 333:D:/Work/DeviceTester/amazon-freertos/lib/shadow\aws_shadow.c **** static ShadowClient_t xShadowClients[ shadowconfigMAX_CLIENTS ];
 334:D:/Work/DeviceTester/amazon-freertos/lib/shadow\aws_shadow.c **** 
 335:D:/Work/DeviceTester/amazon-freertos/lib/shadow\aws_shadow.c **** /**
 336:D:/Work/DeviceTester/amazon-freertos/lib/shadow\aws_shadow.c ****  * @brief Custom prvCreateTopic function since prvCreateTopic is not MISRA 2012 compliant (rule 21.
 337:D:/Work/DeviceTester/amazon-freertos/lib/shadow\aws_shadow.c ****  */
 338:D:/Work/DeviceTester/amazon-freertos/lib/shadow\aws_shadow.c **** static uint16_t prvCreateTopic( char * pcTopicString,
 339:D:/Work/DeviceTester/amazon-freertos/lib/shadow\aws_shadow.c ****                                 const uint16_t usBufferLength,
 340:D:/Work/DeviceTester/amazon-freertos/lib/shadow\aws_shadow.c ****                                 const char * pcTopicFormat,
 341:D:/Work/DeviceTester/amazon-freertos/lib/shadow\aws_shadow.c ****                                 const char * pcThingName );
 342:D:/Work/DeviceTester/amazon-freertos/lib/shadow\aws_shadow.c **** 
 343:D:/Work/DeviceTester/amazon-freertos/lib/shadow\aws_shadow.c **** /*-----------------------------------------------------------*/
 344:D:/Work/DeviceTester/amazon-freertos/lib/shadow\aws_shadow.c **** 
 345:D:/Work/DeviceTester/amazon-freertos/lib/shadow\aws_shadow.c **** static BaseType_t prvGetFreeShadowClient( void )
 346:D:/Work/DeviceTester/amazon-freertos/lib/shadow\aws_shadow.c **** {
 347:D:/Work/DeviceTester/amazon-freertos/lib/shadow\aws_shadow.c ****     BaseType_t xIterator, xReturn = -1;
 348:D:/Work/DeviceTester/amazon-freertos/lib/shadow\aws_shadow.c **** 
 349:D:/Work/DeviceTester/amazon-freertos/lib/shadow\aws_shadow.c ****     taskENTER_CRITICAL();
 350:D:/Work/DeviceTester/amazon-freertos/lib/shadow\aws_shadow.c ****     {
 351:D:/Work/DeviceTester/amazon-freertos/lib/shadow\aws_shadow.c ****         for( xIterator = 0; xIterator < shadowconfigMAX_CLIENTS; xIterator++ )
 352:D:/Work/DeviceTester/amazon-freertos/lib/shadow\aws_shadow.c ****         {
 353:D:/Work/DeviceTester/amazon-freertos/lib/shadow\aws_shadow.c ****             if( xShadowClients[ xIterator ].xInUse == pdFALSE )
 354:D:/Work/DeviceTester/amazon-freertos/lib/shadow\aws_shadow.c ****             {
 355:D:/Work/DeviceTester/amazon-freertos/lib/shadow\aws_shadow.c ****                 xShadowClients[ xIterator ].xInUse = pdTRUE;
 356:D:/Work/DeviceTester/amazon-freertos/lib/shadow\aws_shadow.c ****                 xReturn = xIterator;
 357:D:/Work/DeviceTester/amazon-freertos/lib/shadow\aws_shadow.c ****                 break;
 358:D:/Work/DeviceTester/amazon-freertos/lib/shadow\aws_shadow.c ****             }
 359:D:/Work/DeviceTester/amazon-freertos/lib/shadow\aws_shadow.c ****         }
 360:D:/Work/DeviceTester/amazon-freertos/lib/shadow\aws_shadow.c ****     }
 361:D:/Work/DeviceTester/amazon-freertos/lib/shadow\aws_shadow.c ****     taskEXIT_CRITICAL();
 362:D:/Work/DeviceTester/amazon-freertos/lib/shadow\aws_shadow.c **** 
 363:D:/Work/DeviceTester/amazon-freertos/lib/shadow\aws_shadow.c ****     return xReturn;
 364:D:/Work/DeviceTester/amazon-freertos/lib/shadow\aws_shadow.c **** }
 365:D:/Work/DeviceTester/amazon-freertos/lib/shadow\aws_shadow.c **** /*-----------------------------------------------------------*/
 366:D:/Work/DeviceTester/amazon-freertos/lib/shadow\aws_shadow.c **** 
 367:D:/Work/DeviceTester/amazon-freertos/lib/shadow\aws_shadow.c **** static BaseType_t prvGetCallbackCatalogEntry( CallbackCatalogEntry_t * const xCallbackCatalog,
 368:D:/Work/DeviceTester/amazon-freertos/lib/shadow\aws_shadow.c ****                                               const char * const pcThingName ) /*_RB_ I find the na
 369:D:/Work/DeviceTester/amazon-freertos/lib/shadow\aws_shadow.c **** {                                                                              /* Todo: sub manager
 370:D:/Work/DeviceTester/amazon-freertos/lib/shadow\aws_shadow.c ****     CallbackCatalogEntry_t * pxCallbackCatalogEntry;
 371:D:/Work/DeviceTester/amazon-freertos/lib/shadow\aws_shadow.c ****     BaseType_t xIterator, xReturn = -1, xThingNameFound = pdFALSE;
 372:D:/Work/DeviceTester/amazon-freertos/lib/shadow\aws_shadow.c ****     size_t xThingNameLengh;
 373:D:/Work/DeviceTester/amazon-freertos/lib/shadow\aws_shadow.c ****     size_t xThingName_cb_Lengh;
 374:D:/Work/DeviceTester/amazon-freertos/lib/shadow\aws_shadow.c **** 
 375:D:/Work/DeviceTester/amazon-freertos/lib/shadow\aws_shadow.c ****     taskENTER_CRITICAL();
 376:D:/Work/DeviceTester/amazon-freertos/lib/shadow\aws_shadow.c ****     {
 377:D:/Work/DeviceTester/amazon-freertos/lib/shadow\aws_shadow.c ****         for( xIterator = 0; xIterator < shadowconfigMAX_THINGS_WITH_CALLBACKS; xIterator++ )
 378:D:/Work/DeviceTester/amazon-freertos/lib/shadow\aws_shadow.c ****         {
 379:D:/Work/DeviceTester/amazon-freertos/lib/shadow\aws_shadow.c ****             pxCallbackCatalogEntry = &( xCallbackCatalog[ xIterator ] );
 380:D:/Work/DeviceTester/amazon-freertos/lib/shadow\aws_shadow.c **** 
 381:D:/Work/DeviceTester/amazon-freertos/lib/shadow\aws_shadow.c ****             if( pxCallbackCatalogEntry->xInUse == pdFALSE )
 382:D:/Work/DeviceTester/amazon-freertos/lib/shadow\aws_shadow.c ****             {
 383:D:/Work/DeviceTester/amazon-freertos/lib/shadow\aws_shadow.c ****                 xReturn = xIterator;
 384:D:/Work/DeviceTester/amazon-freertos/lib/shadow\aws_shadow.c ****             }
 385:D:/Work/DeviceTester/amazon-freertos/lib/shadow\aws_shadow.c ****             else
 386:D:/Work/DeviceTester/amazon-freertos/lib/shadow\aws_shadow.c ****             {
 387:D:/Work/DeviceTester/amazon-freertos/lib/shadow\aws_shadow.c ****                 xThingNameLengh = strlen( pxCallbackCatalogEntry->xCallbackInfo.pcThingName );
 388:D:/Work/DeviceTester/amazon-freertos/lib/shadow\aws_shadow.c ****                 xThingName_cb_Lengh = strlen( pcThingName );
 389:D:/Work/DeviceTester/amazon-freertos/lib/shadow\aws_shadow.c **** 
 390:D:/Work/DeviceTester/amazon-freertos/lib/shadow\aws_shadow.c ****                 if( xThingNameLengh == xThingName_cb_Lengh )
 391:D:/Work/DeviceTester/amazon-freertos/lib/shadow\aws_shadow.c ****                 {
 392:D:/Work/DeviceTester/amazon-freertos/lib/shadow\aws_shadow.c ****                     if( strncmp( pcThingName,
 393:D:/Work/DeviceTester/amazon-freertos/lib/shadow\aws_shadow.c ****                                  pxCallbackCatalogEntry->xCallbackInfo.pcThingName,
 394:D:/Work/DeviceTester/amazon-freertos/lib/shadow\aws_shadow.c ****                                  xThingNameLengh ) == 0 )
 395:D:/Work/DeviceTester/amazon-freertos/lib/shadow\aws_shadow.c ****                     {
 396:D:/Work/DeviceTester/amazon-freertos/lib/shadow\aws_shadow.c ****                         xReturn = xIterator;
 397:D:/Work/DeviceTester/amazon-freertos/lib/shadow\aws_shadow.c ****                         xThingNameFound = pdTRUE;
 398:D:/Work/DeviceTester/amazon-freertos/lib/shadow\aws_shadow.c ****                         break;
 399:D:/Work/DeviceTester/amazon-freertos/lib/shadow\aws_shadow.c ****                     }
 400:D:/Work/DeviceTester/amazon-freertos/lib/shadow\aws_shadow.c ****                 }
 401:D:/Work/DeviceTester/amazon-freertos/lib/shadow\aws_shadow.c ****             }
 402:D:/Work/DeviceTester/amazon-freertos/lib/shadow\aws_shadow.c ****         }
 403:D:/Work/DeviceTester/amazon-freertos/lib/shadow\aws_shadow.c ****     }
 404:D:/Work/DeviceTester/amazon-freertos/lib/shadow\aws_shadow.c ****     taskEXIT_CRITICAL();
 405:D:/Work/DeviceTester/amazon-freertos/lib/shadow\aws_shadow.c **** 
 406:D:/Work/DeviceTester/amazon-freertos/lib/shadow\aws_shadow.c ****     if( xThingNameFound == pdFALSE )
 407:D:/Work/DeviceTester/amazon-freertos/lib/shadow\aws_shadow.c ****     {
 408:D:/Work/DeviceTester/amazon-freertos/lib/shadow\aws_shadow.c ****         xCallbackCatalog[ xReturn ].xInUse = pdTRUE;
 409:D:/Work/DeviceTester/amazon-freertos/lib/shadow\aws_shadow.c ****         xCallbackCatalog[ xReturn ].xCallbackInfo.pcThingName = pcThingName;
 410:D:/Work/DeviceTester/amazon-freertos/lib/shadow\aws_shadow.c ****     }
 411:D:/Work/DeviceTester/amazon-freertos/lib/shadow\aws_shadow.c **** 
 412:D:/Work/DeviceTester/amazon-freertos/lib/shadow\aws_shadow.c ****     return xReturn;
 413:D:/Work/DeviceTester/amazon-freertos/lib/shadow\aws_shadow.c **** }
 414:D:/Work/DeviceTester/amazon-freertos/lib/shadow\aws_shadow.c **** 
 415:D:/Work/DeviceTester/amazon-freertos/lib/shadow\aws_shadow.c **** /*-----------------------------------------------------------*/
 416:D:/Work/DeviceTester/amazon-freertos/lib/shadow\aws_shadow.c **** 
 417:D:/Work/DeviceTester/amazon-freertos/lib/shadow\aws_shadow.c **** static ShadowReturnCode_t prvConvertMQTTReturnCode( MQTTAgentReturnCode_t xMQTTReturn,
 418:D:/Work/DeviceTester/amazon-freertos/lib/shadow\aws_shadow.c ****                                                     ShadowClientHandle_t xShadowClientHandle,
 419:D:/Work/DeviceTester/amazon-freertos/lib/shadow\aws_shadow.c ****                                                     const char * const pcDebugMessageSubject )
 420:D:/Work/DeviceTester/amazon-freertos/lib/shadow\aws_shadow.c **** {
 421:D:/Work/DeviceTester/amazon-freertos/lib/shadow\aws_shadow.c ****     ShadowReturnCode_t xReturn = eShadowUnknown;
 422:D:/Work/DeviceTester/amazon-freertos/lib/shadow\aws_shadow.c **** 
 423:D:/Work/DeviceTester/amazon-freertos/lib/shadow\aws_shadow.c ****     switch( xMQTTReturn )
 424:D:/Work/DeviceTester/amazon-freertos/lib/shadow\aws_shadow.c ****     {
 425:D:/Work/DeviceTester/amazon-freertos/lib/shadow\aws_shadow.c ****         case eMQTTAgentSuccess:
 426:D:/Work/DeviceTester/amazon-freertos/lib/shadow\aws_shadow.c ****             Shadow_debug_printf( ( "[Shadow %d] MQTT: %s succeeded.\r\n",
 427:D:/Work/DeviceTester/amazon-freertos/lib/shadow\aws_shadow.c ****                                    ( BaseType_t ) xShadowClientHandle, /*lint !e923 Safe cast from 
 428:D:/Work/DeviceTester/amazon-freertos/lib/shadow\aws_shadow.c ****                                    pcDebugMessageSubject ) );
 429:D:/Work/DeviceTester/amazon-freertos/lib/shadow\aws_shadow.c ****             xReturn = eShadowSuccess;
 430:D:/Work/DeviceTester/amazon-freertos/lib/shadow\aws_shadow.c ****             break;
 431:D:/Work/DeviceTester/amazon-freertos/lib/shadow\aws_shadow.c **** 
 432:D:/Work/DeviceTester/amazon-freertos/lib/shadow\aws_shadow.c ****         case eMQTTAgentTimeout:
 433:D:/Work/DeviceTester/amazon-freertos/lib/shadow\aws_shadow.c ****             Shadow_debug_printf( ( "[Shadow %d] MQTT: %s timed out.\r\n",
 434:D:/Work/DeviceTester/amazon-freertos/lib/shadow\aws_shadow.c ****                                    ( BaseType_t ) xShadowClientHandle, /*lint !e923 Safe cast from 
 435:D:/Work/DeviceTester/amazon-freertos/lib/shadow\aws_shadow.c ****                                    pcDebugMessageSubject ) );
 436:D:/Work/DeviceTester/amazon-freertos/lib/shadow\aws_shadow.c ****             xReturn = eShadowTimeout;
 437:D:/Work/DeviceTester/amazon-freertos/lib/shadow\aws_shadow.c ****             break;
 438:D:/Work/DeviceTester/amazon-freertos/lib/shadow\aws_shadow.c **** 
 439:D:/Work/DeviceTester/amazon-freertos/lib/shadow\aws_shadow.c ****         case eMQTTAgentFailure:
 440:D:/Work/DeviceTester/amazon-freertos/lib/shadow\aws_shadow.c ****         default:
 441:D:/Work/DeviceTester/amazon-freertos/lib/shadow\aws_shadow.c ****             Shadow_debug_printf( ( "[Shadow %d] MQTT: %s failed.\r\n",
 442:D:/Work/DeviceTester/amazon-freertos/lib/shadow\aws_shadow.c ****                                    ( BaseType_t ) xShadowClientHandle, /*lint !e923 Safe cast from 
 443:D:/Work/DeviceTester/amazon-freertos/lib/shadow\aws_shadow.c ****                                    pcDebugMessageSubject ) );
 444:D:/Work/DeviceTester/amazon-freertos/lib/shadow\aws_shadow.c ****             xReturn = eShadowFailure;
 445:D:/Work/DeviceTester/amazon-freertos/lib/shadow\aws_shadow.c ****             break;
 446:D:/Work/DeviceTester/amazon-freertos/lib/shadow\aws_shadow.c ****     }
 447:D:/Work/DeviceTester/amazon-freertos/lib/shadow\aws_shadow.c **** 
 448:D:/Work/DeviceTester/amazon-freertos/lib/shadow\aws_shadow.c ****     /* Prevent compiler warning in case Shadow_debug_printf() is not defined. */
 449:D:/Work/DeviceTester/amazon-freertos/lib/shadow\aws_shadow.c ****     ( void ) xShadowClientHandle;
 450:D:/Work/DeviceTester/amazon-freertos/lib/shadow\aws_shadow.c ****     ( void ) pcDebugMessageSubject;
 451:D:/Work/DeviceTester/amazon-freertos/lib/shadow\aws_shadow.c **** 
 452:D:/Work/DeviceTester/amazon-freertos/lib/shadow\aws_shadow.c ****     return xReturn;
 453:D:/Work/DeviceTester/amazon-freertos/lib/shadow\aws_shadow.c **** }
 454:D:/Work/DeviceTester/amazon-freertos/lib/shadow\aws_shadow.c **** 
 455:D:/Work/DeviceTester/amazon-freertos/lib/shadow\aws_shadow.c **** /*-----------------------------------------------------------*/
 456:D:/Work/DeviceTester/amazon-freertos/lib/shadow\aws_shadow.c **** 
 457:D:/Work/DeviceTester/amazon-freertos/lib/shadow\aws_shadow.c **** static uint16_t prvCreateTopic( char * pcTopicString,
 458:D:/Work/DeviceTester/amazon-freertos/lib/shadow\aws_shadow.c ****                                 const uint16_t usBufferLength,
 459:D:/Work/DeviceTester/amazon-freertos/lib/shadow\aws_shadow.c ****                                 const char * pcTopicFormat,
 460:D:/Work/DeviceTester/amazon-freertos/lib/shadow\aws_shadow.c ****                                 const char * pcThingName )
 461:D:/Work/DeviceTester/amazon-freertos/lib/shadow\aws_shadow.c **** {
 462:D:/Work/DeviceTester/amazon-freertos/lib/shadow\aws_shadow.c ****     uint16_t usTopicFormatIdx;
 463:D:/Work/DeviceTester/amazon-freertos/lib/shadow\aws_shadow.c ****     uint16_t usThingIdx;
 464:D:/Work/DeviceTester/amazon-freertos/lib/shadow\aws_shadow.c ****     uint16_t usTopicFormatSize;
 465:D:/Work/DeviceTester/amazon-freertos/lib/shadow\aws_shadow.c ****     uint16_t usThingNameSize;
 466:D:/Work/DeviceTester/amazon-freertos/lib/shadow\aws_shadow.c ****     uint16_t usTopicSize;
 467:D:/Work/DeviceTester/amazon-freertos/lib/shadow\aws_shadow.c ****     uint16_t usTopicIdx = 0;
 468:D:/Work/DeviceTester/amazon-freertos/lib/shadow\aws_shadow.c ****     char cCurrentChar;
 469:D:/Work/DeviceTester/amazon-freertos/lib/shadow\aws_shadow.c ****     char cPrevChar = '0';
 470:D:/Work/DeviceTester/amazon-freertos/lib/shadow\aws_shadow.c **** 
 471:D:/Work/DeviceTester/amazon-freertos/lib/shadow\aws_shadow.c ****     usTopicFormatSize = ( uint16_t ) strlen( pcTopicFormat );
 472:D:/Work/DeviceTester/amazon-freertos/lib/shadow\aws_shadow.c ****     usThingNameSize = ( uint16_t ) strlen( pcThingName );
 473:D:/Work/DeviceTester/amazon-freertos/lib/shadow\aws_shadow.c **** 
 474:D:/Work/DeviceTester/amazon-freertos/lib/shadow\aws_shadow.c ****     /* Buffer length check. */
 475:D:/Work/DeviceTester/amazon-freertos/lib/shadow\aws_shadow.c ****     if( usTopicFormatSize + usThingNameSize >= usBufferLength )
 476:D:/Work/DeviceTester/amazon-freertos/lib/shadow\aws_shadow.c ****     {
 477:D:/Work/DeviceTester/amazon-freertos/lib/shadow\aws_shadow.c ****         return 0;
 478:D:/Work/DeviceTester/amazon-freertos/lib/shadow\aws_shadow.c ****     }
 479:D:/Work/DeviceTester/amazon-freertos/lib/shadow\aws_shadow.c **** 
 480:D:/Work/DeviceTester/amazon-freertos/lib/shadow\aws_shadow.c ****     /* The topic format string is expected to include a %s. However, the length
 481:D:/Work/DeviceTester/amazon-freertos/lib/shadow\aws_shadow.c ****      * check above assumes, worst case, that the %s was for some reason missing. */
 482:D:/Work/DeviceTester/amazon-freertos/lib/shadow\aws_shadow.c ****     usTopicSize = usTopicFormatSize + usThingNameSize - ( uint16_t ) 2;
 483:D:/Work/DeviceTester/amazon-freertos/lib/shadow\aws_shadow.c **** 
 484:D:/Work/DeviceTester/amazon-freertos/lib/shadow\aws_shadow.c ****     for( usTopicFormatIdx = 0;
 485:D:/Work/DeviceTester/amazon-freertos/lib/shadow\aws_shadow.c ****          usTopicFormatIdx < usTopicFormatSize;
 486:D:/Work/DeviceTester/amazon-freertos/lib/shadow\aws_shadow.c ****          usTopicFormatIdx++ )
 487:D:/Work/DeviceTester/amazon-freertos/lib/shadow\aws_shadow.c ****     {
 488:D:/Work/DeviceTester/amazon-freertos/lib/shadow\aws_shadow.c ****         cCurrentChar = pcTopicFormat[ usTopicFormatIdx ];
 489:D:/Work/DeviceTester/amazon-freertos/lib/shadow\aws_shadow.c **** 
 490:D:/Work/DeviceTester/amazon-freertos/lib/shadow\aws_shadow.c ****         if( ( cPrevChar == '%' ) && ( cCurrentChar == 's' ) )
 491:D:/Work/DeviceTester/amazon-freertos/lib/shadow\aws_shadow.c ****         {
 492:D:/Work/DeviceTester/amazon-freertos/lib/shadow\aws_shadow.c ****             for( usThingIdx = 0;
 493:D:/Work/DeviceTester/amazon-freertos/lib/shadow\aws_shadow.c ****                  usThingIdx < usThingNameSize;
 494:D:/Work/DeviceTester/amazon-freertos/lib/shadow\aws_shadow.c ****                  usThingIdx++ )
 495:D:/Work/DeviceTester/amazon-freertos/lib/shadow\aws_shadow.c ****             {
 496:D:/Work/DeviceTester/amazon-freertos/lib/shadow\aws_shadow.c ****                 pcTopicString[ usThingIdx + usTopicFormatIdx - ( uint16_t ) 1 ]
 497:D:/Work/DeviceTester/amazon-freertos/lib/shadow\aws_shadow.c ****                     = ( char ) pcThingName[ usThingIdx ];
 498:D:/Work/DeviceTester/amazon-freertos/lib/shadow\aws_shadow.c ****             }
 499:D:/Work/DeviceTester/amazon-freertos/lib/shadow\aws_shadow.c **** 
 500:D:/Work/DeviceTester/amazon-freertos/lib/shadow\aws_shadow.c ****             /* Remove 1 because we backtracked in order to overwrite the %s. */
 501:D:/Work/DeviceTester/amazon-freertos/lib/shadow\aws_shadow.c ****             usTopicIdx += usThingNameSize - ( uint16_t ) 1;
 502:D:/Work/DeviceTester/amazon-freertos/lib/shadow\aws_shadow.c ****         }
 503:D:/Work/DeviceTester/amazon-freertos/lib/shadow\aws_shadow.c ****         else
 504:D:/Work/DeviceTester/amazon-freertos/lib/shadow\aws_shadow.c ****         {
 505:D:/Work/DeviceTester/amazon-freertos/lib/shadow\aws_shadow.c ****             pcTopicString[ usTopicIdx ] = cCurrentChar;
 506:D:/Work/DeviceTester/amazon-freertos/lib/shadow\aws_shadow.c ****             usTopicIdx++;
 507:D:/Work/DeviceTester/amazon-freertos/lib/shadow\aws_shadow.c ****         }
 508:D:/Work/DeviceTester/amazon-freertos/lib/shadow\aws_shadow.c **** 
 509:D:/Work/DeviceTester/amazon-freertos/lib/shadow\aws_shadow.c ****         cPrevChar = cCurrentChar;
 510:D:/Work/DeviceTester/amazon-freertos/lib/shadow\aws_shadow.c ****     }
 511:D:/Work/DeviceTester/amazon-freertos/lib/shadow\aws_shadow.c **** 
 512:D:/Work/DeviceTester/amazon-freertos/lib/shadow\aws_shadow.c ****     pcTopicString[ usTopicIdx ] = '\0';
 513:D:/Work/DeviceTester/amazon-freertos/lib/shadow\aws_shadow.c **** 
 514:D:/Work/DeviceTester/amazon-freertos/lib/shadow\aws_shadow.c ****     return usTopicSize;
 515:D:/Work/DeviceTester/amazon-freertos/lib/shadow\aws_shadow.c **** }
 516:D:/Work/DeviceTester/amazon-freertos/lib/shadow\aws_shadow.c **** 
 517:D:/Work/DeviceTester/amazon-freertos/lib/shadow\aws_shadow.c **** /*-----------------------------------------------------------*/
 518:D:/Work/DeviceTester/amazon-freertos/lib/shadow\aws_shadow.c **** 
 519:D:/Work/DeviceTester/amazon-freertos/lib/shadow\aws_shadow.c **** static ShadowReturnCode_t prvRegisterCallback( BaseType_t xShadowClientID,
 520:D:/Work/DeviceTester/amazon-freertos/lib/shadow\aws_shadow.c ****                                                const void ** const ppvOldCallback,
 521:D:/Work/DeviceTester/amazon-freertos/lib/shadow\aws_shadow.c ****                                                const void ** const ppvNewCallback,
 522:D:/Work/DeviceTester/amazon-freertos/lib/shadow\aws_shadow.c ****                                                const char * const pcThingName,
 523:D:/Work/DeviceTester/amazon-freertos/lib/shadow\aws_shadow.c ****                                                const uint8_t * const pucTopicFormat,
 524:D:/Work/DeviceTester/amazon-freertos/lib/shadow\aws_shadow.c ****                                                TickType_t xTimeoutTicks )
 525:D:/Work/DeviceTester/amazon-freertos/lib/shadow\aws_shadow.c **** {
 526:D:/Work/DeviceTester/amazon-freertos/lib/shadow\aws_shadow.c ****     uint8_t ucTopicString[ shadowTOPIC_BUFFER_LENGTH ];
 527:D:/Work/DeviceTester/amazon-freertos/lib/shadow\aws_shadow.c ****     ShadowReturnCode_t xReturn = eShadowSuccess;
 528:D:/Work/DeviceTester/amazon-freertos/lib/shadow\aws_shadow.c ****     MQTTAgentSubscribeParams_t xSubscribeParams;
 529:D:/Work/DeviceTester/amazon-freertos/lib/shadow\aws_shadow.c ****     MQTTAgentUnsubscribeParams_t xUnsubscribeParams;
 530:D:/Work/DeviceTester/amazon-freertos/lib/shadow\aws_shadow.c ****     ShadowClient_t * pxShadowClient;
 531:D:/Work/DeviceTester/amazon-freertos/lib/shadow\aws_shadow.c ****     MQTTAgentReturnCode_t xMQTTReturn;
 532:D:/Work/DeviceTester/amazon-freertos/lib/shadow\aws_shadow.c ****     uint16_t usTopicLength;
 533:D:/Work/DeviceTester/amazon-freertos/lib/shadow\aws_shadow.c **** 
 534:D:/Work/DeviceTester/amazon-freertos/lib/shadow\aws_shadow.c ****     usTopicLength = prvCreateTopic( ( char * ) ucTopicString, shadowTOPIC_BUFFER_LENGTH,
 535:D:/Work/DeviceTester/amazon-freertos/lib/shadow\aws_shadow.c ****                                     ( const char * ) pucTopicFormat, pcThingName );
 536:D:/Work/DeviceTester/amazon-freertos/lib/shadow\aws_shadow.c ****     pxShadowClient = &( xShadowClients[ xShadowClientID ] );
 537:D:/Work/DeviceTester/amazon-freertos/lib/shadow\aws_shadow.c **** 
 538:D:/Work/DeviceTester/amazon-freertos/lib/shadow\aws_shadow.c ****     if( *ppvOldCallback != NULL )
 539:D:/Work/DeviceTester/amazon-freertos/lib/shadow\aws_shadow.c ****     {
 540:D:/Work/DeviceTester/amazon-freertos/lib/shadow\aws_shadow.c ****         xUnsubscribeParams.usTopicLength = usTopicLength;
 541:D:/Work/DeviceTester/amazon-freertos/lib/shadow\aws_shadow.c ****         xUnsubscribeParams.pucTopic = ucTopicString;
 542:D:/Work/DeviceTester/amazon-freertos/lib/shadow\aws_shadow.c **** 
 543:D:/Work/DeviceTester/amazon-freertos/lib/shadow\aws_shadow.c ****         xMQTTReturn = MQTT_AGENT_Unsubscribe( pxShadowClient->xMQTTClient,
 544:D:/Work/DeviceTester/amazon-freertos/lib/shadow\aws_shadow.c ****                                               &xUnsubscribeParams,
 545:D:/Work/DeviceTester/amazon-freertos/lib/shadow\aws_shadow.c ****                                               xTimeoutTicks );
 546:D:/Work/DeviceTester/amazon-freertos/lib/shadow\aws_shadow.c **** 
 547:D:/Work/DeviceTester/amazon-freertos/lib/shadow\aws_shadow.c ****         xReturn = prvConvertMQTTReturnCode( xMQTTReturn,
 548:D:/Work/DeviceTester/amazon-freertos/lib/shadow\aws_shadow.c ****                                             ( ShadowClientHandle_t ) xShadowClientID, /*lint !e923 
 549:D:/Work/DeviceTester/amazon-freertos/lib/shadow\aws_shadow.c ****                                             "Unsubscribe from callback topic" );
 550:D:/Work/DeviceTester/amazon-freertos/lib/shadow\aws_shadow.c ****     }
 551:D:/Work/DeviceTester/amazon-freertos/lib/shadow\aws_shadow.c **** 
 552:D:/Work/DeviceTester/amazon-freertos/lib/shadow\aws_shadow.c ****     /* Registering a new callback; subscribe to topic. */
 553:D:/Work/DeviceTester/amazon-freertos/lib/shadow\aws_shadow.c ****     if( *ppvNewCallback != NULL )
 554:D:/Work/DeviceTester/amazon-freertos/lib/shadow\aws_shadow.c ****     {
 555:D:/Work/DeviceTester/amazon-freertos/lib/shadow\aws_shadow.c ****         xSubscribeParams.usTopicLength = usTopicLength;
 556:D:/Work/DeviceTester/amazon-freertos/lib/shadow\aws_shadow.c ****         xSubscribeParams.pucTopic = ucTopicString;
 557:D:/Work/DeviceTester/amazon-freertos/lib/shadow\aws_shadow.c **** 
 558:D:/Work/DeviceTester/amazon-freertos/lib/shadow\aws_shadow.c ****         #if ( mqttconfigENABLE_SUBSCRIPTION_MANAGEMENT == 1 )
 559:D:/Work/DeviceTester/amazon-freertos/lib/shadow\aws_shadow.c ****             xSubscribeParams.pvPublishCallbackContext = NULL;
 560:D:/Work/DeviceTester/amazon-freertos/lib/shadow\aws_shadow.c ****             xSubscribeParams.pxPublishCallback = NULL;
 561:D:/Work/DeviceTester/amazon-freertos/lib/shadow\aws_shadow.c ****         #endif /* mqttconfigENABLE_SUBSCRIPTION_MANAGEMENT */
 562:D:/Work/DeviceTester/amazon-freertos/lib/shadow\aws_shadow.c **** 
 563:D:/Work/DeviceTester/amazon-freertos/lib/shadow\aws_shadow.c ****         /* Shadow service always publishes QoS 1, regardless of the value below. */
 564:D:/Work/DeviceTester/amazon-freertos/lib/shadow\aws_shadow.c ****         xSubscribeParams.xQoS = eMQTTQoS1;
 565:D:/Work/DeviceTester/amazon-freertos/lib/shadow\aws_shadow.c **** 
 566:D:/Work/DeviceTester/amazon-freertos/lib/shadow\aws_shadow.c ****         xMQTTReturn = MQTT_AGENT_Subscribe( pxShadowClient->xMQTTClient,
 567:D:/Work/DeviceTester/amazon-freertos/lib/shadow\aws_shadow.c ****                                             &xSubscribeParams,
 568:D:/Work/DeviceTester/amazon-freertos/lib/shadow\aws_shadow.c ****                                             xTimeoutTicks );
 569:D:/Work/DeviceTester/amazon-freertos/lib/shadow\aws_shadow.c **** 
 570:D:/Work/DeviceTester/amazon-freertos/lib/shadow\aws_shadow.c ****         xReturn = prvConvertMQTTReturnCode( xMQTTReturn,
 571:D:/Work/DeviceTester/amazon-freertos/lib/shadow\aws_shadow.c ****                                             ( ShadowClientHandle_t ) xShadowClientID, /*lint !e923 
 572:D:/Work/DeviceTester/amazon-freertos/lib/shadow\aws_shadow.c ****                                             "Subscribe to callback topic" );
 573:D:/Work/DeviceTester/amazon-freertos/lib/shadow\aws_shadow.c ****     }
 574:D:/Work/DeviceTester/amazon-freertos/lib/shadow\aws_shadow.c **** 
 575:D:/Work/DeviceTester/amazon-freertos/lib/shadow\aws_shadow.c ****     /* Change the callback. */
 576:D:/Work/DeviceTester/amazon-freertos/lib/shadow\aws_shadow.c ****     if( xReturn == eShadowSuccess )
 577:D:/Work/DeviceTester/amazon-freertos/lib/shadow\aws_shadow.c ****     {
 578:D:/Work/DeviceTester/amazon-freertos/lib/shadow\aws_shadow.c ****         *ppvOldCallback = ( *ppvNewCallback );
 579:D:/Work/DeviceTester/amazon-freertos/lib/shadow\aws_shadow.c ****     }
 580:D:/Work/DeviceTester/amazon-freertos/lib/shadow\aws_shadow.c **** 
 581:D:/Work/DeviceTester/amazon-freertos/lib/shadow\aws_shadow.c ****     return xReturn;
 582:D:/Work/DeviceTester/amazon-freertos/lib/shadow\aws_shadow.c **** }
 583:D:/Work/DeviceTester/amazon-freertos/lib/shadow\aws_shadow.c **** 
 584:D:/Work/DeviceTester/amazon-freertos/lib/shadow\aws_shadow.c **** /*-----------------------------------------------------------*/
 585:D:/Work/DeviceTester/amazon-freertos/lib/shadow\aws_shadow.c **** 
 586:D:/Work/DeviceTester/amazon-freertos/lib/shadow\aws_shadow.c **** static ShadowReturnCode_t prvShadowSubscribeToAcceptedRejected( BaseType_t
 587:D:/Work/DeviceTester/amazon-freertos/lib/shadow\aws_shadow.c ****                                                                 xShadowClientID,
 588:D:/Work/DeviceTester/amazon-freertos/lib/shadow\aws_shadow.c ****                                                                 const char * const pcThingName,
 589:D:/Work/DeviceTester/amazon-freertos/lib/shadow\aws_shadow.c ****                                                                 const char * const
 590:D:/Work/DeviceTester/amazon-freertos/lib/shadow\aws_shadow.c ****                                                                 pcAcceptedTopic,
 591:D:/Work/DeviceTester/amazon-freertos/lib/shadow\aws_shadow.c ****                                                                 const char * const pcRejectedTopic,
 592:D:/Work/DeviceTester/amazon-freertos/lib/shadow\aws_shadow.c ****                                                                 TimeOutData_t * const pxTimeOutData
 593:D:/Work/DeviceTester/amazon-freertos/lib/shadow\aws_shadow.c **** {
 594:D:/Work/DeviceTester/amazon-freertos/lib/shadow\aws_shadow.c ****     ShadowReturnCode_t xReturn;
 595:D:/Work/DeviceTester/amazon-freertos/lib/shadow\aws_shadow.c ****     ShadowClient_t * pxShadowClient;
 596:D:/Work/DeviceTester/amazon-freertos/lib/shadow\aws_shadow.c ****     MQTTAgentSubscribeParams_t xSubscribeParams;
 597:D:/Work/DeviceTester/amazon-freertos/lib/shadow\aws_shadow.c ****     MQTTAgentUnsubscribeParams_t xUnsubscribeParams;
 598:D:/Work/DeviceTester/amazon-freertos/lib/shadow\aws_shadow.c ****     MQTTAgentReturnCode_t xMQTTReturn;
 599:D:/Work/DeviceTester/amazon-freertos/lib/shadow\aws_shadow.c ****     TickType_t xTimeoutTicks;
 600:D:/Work/DeviceTester/amazon-freertos/lib/shadow\aws_shadow.c **** 
 601:D:/Work/DeviceTester/amazon-freertos/lib/shadow\aws_shadow.c ****     pxShadowClient = &( xShadowClients[ xShadowClientID ] );
 602:D:/Work/DeviceTester/amazon-freertos/lib/shadow\aws_shadow.c **** 
 603:D:/Work/DeviceTester/amazon-freertos/lib/shadow\aws_shadow.c ****     /* MQTT subscription parameters. */
 604:D:/Work/DeviceTester/amazon-freertos/lib/shadow\aws_shadow.c ****     xSubscribeParams.pucTopic = pxShadowClient->ucTopicBuffer;
 605:D:/Work/DeviceTester/amazon-freertos/lib/shadow\aws_shadow.c ****     /* Shadow service always publishes QoS 1, regardless of the value below. */
 606:D:/Work/DeviceTester/amazon-freertos/lib/shadow\aws_shadow.c ****     xSubscribeParams.xQoS = eMQTTQoS1;
 607:D:/Work/DeviceTester/amazon-freertos/lib/shadow\aws_shadow.c **** 
 608:D:/Work/DeviceTester/amazon-freertos/lib/shadow\aws_shadow.c ****     #if ( mqttconfigENABLE_SUBSCRIPTION_MANAGEMENT == 1 )
 609:D:/Work/DeviceTester/amazon-freertos/lib/shadow\aws_shadow.c ****         xSubscribeParams.pvPublishCallbackContext = NULL;
 610:D:/Work/DeviceTester/amazon-freertos/lib/shadow\aws_shadow.c ****         xSubscribeParams.pxPublishCallback = NULL;
 611:D:/Work/DeviceTester/amazon-freertos/lib/shadow\aws_shadow.c ****     #endif /* mqttconfigENABLE_SUBSCRIPTION_MANAGEMENT */
 612:D:/Work/DeviceTester/amazon-freertos/lib/shadow\aws_shadow.c **** 
 613:D:/Work/DeviceTester/amazon-freertos/lib/shadow\aws_shadow.c ****     /* Fill the accepted topic. */
 614:D:/Work/DeviceTester/amazon-freertos/lib/shadow\aws_shadow.c ****     xSubscribeParams.usTopicLength = prvCreateTopic( ( char * ) pxShadowClient->ucTopicBuffer,
 615:D:/Work/DeviceTester/amazon-freertos/lib/shadow\aws_shadow.c ****                                                      shadowTOPIC_BUFFER_LENGTH,
 616:D:/Work/DeviceTester/amazon-freertos/lib/shadow\aws_shadow.c ****                                                      pcAcceptedTopic,
 617:D:/Work/DeviceTester/amazon-freertos/lib/shadow\aws_shadow.c ****                                                      pcThingName );
 618:D:/Work/DeviceTester/amazon-freertos/lib/shadow\aws_shadow.c **** 
 619:D:/Work/DeviceTester/amazon-freertos/lib/shadow\aws_shadow.c ****     xMQTTReturn = MQTT_AGENT_Subscribe( pxShadowClient->xMQTTClient,
 620:D:/Work/DeviceTester/amazon-freertos/lib/shadow\aws_shadow.c ****                                         &xSubscribeParams,
 621:D:/Work/DeviceTester/amazon-freertos/lib/shadow\aws_shadow.c ****                                         pxTimeOutData->xTicksRemaining );
 622:D:/Work/DeviceTester/amazon-freertos/lib/shadow\aws_shadow.c **** 
 623:D:/Work/DeviceTester/amazon-freertos/lib/shadow\aws_shadow.c ****     xReturn = prvConvertMQTTReturnCode( xMQTTReturn,
 624:D:/Work/DeviceTester/amazon-freertos/lib/shadow\aws_shadow.c ****                                         ( ShadowClientHandle_t ) xShadowClientID, /*lint !e923 Safe
 625:D:/Work/DeviceTester/amazon-freertos/lib/shadow\aws_shadow.c ****                                         "Subscribe to accepted topic" );
 626:D:/Work/DeviceTester/amazon-freertos/lib/shadow\aws_shadow.c **** 
 627:D:/Work/DeviceTester/amazon-freertos/lib/shadow\aws_shadow.c ****     if( xReturn == eShadowSuccess )
 628:D:/Work/DeviceTester/amazon-freertos/lib/shadow\aws_shadow.c ****     {
 629:D:/Work/DeviceTester/amazon-freertos/lib/shadow\aws_shadow.c ****         /* Fill the rejected topic. */
 630:D:/Work/DeviceTester/amazon-freertos/lib/shadow\aws_shadow.c ****         xSubscribeParams.usTopicLength = prvCreateTopic( ( char * ) pxShadowClient->ucTopicBuffer,
 631:D:/Work/DeviceTester/amazon-freertos/lib/shadow\aws_shadow.c ****                                                          shadowTOPIC_BUFFER_LENGTH,
 632:D:/Work/DeviceTester/amazon-freertos/lib/shadow\aws_shadow.c ****                                                          pcRejectedTopic, pcThingName );
 633:D:/Work/DeviceTester/amazon-freertos/lib/shadow\aws_shadow.c **** 
 634:D:/Work/DeviceTester/amazon-freertos/lib/shadow\aws_shadow.c ****         xMQTTReturn = MQTT_AGENT_Subscribe( pxShadowClient->xMQTTClient,
 635:D:/Work/DeviceTester/amazon-freertos/lib/shadow\aws_shadow.c ****                                             &xSubscribeParams,
 636:D:/Work/DeviceTester/amazon-freertos/lib/shadow\aws_shadow.c ****                                             pxTimeOutData->xTicksRemaining );
 637:D:/Work/DeviceTester/amazon-freertos/lib/shadow\aws_shadow.c **** 
 638:D:/Work/DeviceTester/amazon-freertos/lib/shadow\aws_shadow.c ****         xReturn = prvConvertMQTTReturnCode( xMQTTReturn,
 639:D:/Work/DeviceTester/amazon-freertos/lib/shadow\aws_shadow.c ****                                             ( ShadowClientHandle_t ) xShadowClientID, /*lint !e923 
 640:D:/Work/DeviceTester/amazon-freertos/lib/shadow\aws_shadow.c ****                                             "Subscribe to rejected topic" );
 641:D:/Work/DeviceTester/amazon-freertos/lib/shadow\aws_shadow.c **** 
 642:D:/Work/DeviceTester/amazon-freertos/lib/shadow\aws_shadow.c ****         if( xReturn != eShadowSuccess )
 643:D:/Work/DeviceTester/amazon-freertos/lib/shadow\aws_shadow.c ****         {
 644:D:/Work/DeviceTester/amazon-freertos/lib/shadow\aws_shadow.c ****             xUnsubscribeParams.usTopicLength = prvCreateTopic( ( char * ) pxShadowClient->ucTopicBu
 645:D:/Work/DeviceTester/amazon-freertos/lib/shadow\aws_shadow.c ****                                                                shadowTOPIC_BUFFER_LENGTH,
 646:D:/Work/DeviceTester/amazon-freertos/lib/shadow\aws_shadow.c ****                                                                pcAcceptedTopic,
 647:D:/Work/DeviceTester/amazon-freertos/lib/shadow\aws_shadow.c ****                                                                pcThingName );
 648:D:/Work/DeviceTester/amazon-freertos/lib/shadow\aws_shadow.c **** 
 649:D:/Work/DeviceTester/amazon-freertos/lib/shadow\aws_shadow.c ****             xUnsubscribeParams.pucTopic = pxShadowClient->ucTopicBuffer;
 650:D:/Work/DeviceTester/amazon-freertos/lib/shadow\aws_shadow.c **** 
 651:D:/Work/DeviceTester/amazon-freertos/lib/shadow\aws_shadow.c ****             xTimeoutTicks = pdMS_TO_TICKS( shadowconfigCLEANUP_TIME_MS );
 652:D:/Work/DeviceTester/amazon-freertos/lib/shadow\aws_shadow.c **** 
 653:D:/Work/DeviceTester/amazon-freertos/lib/shadow\aws_shadow.c ****             ( void ) MQTT_AGENT_Unsubscribe( pxShadowClient->xMQTTClient,
 654:D:/Work/DeviceTester/amazon-freertos/lib/shadow\aws_shadow.c ****                                              &xUnsubscribeParams,
 655:D:/Work/DeviceTester/amazon-freertos/lib/shadow\aws_shadow.c ****                                              xTimeoutTicks );
 656:D:/Work/DeviceTester/amazon-freertos/lib/shadow\aws_shadow.c **** 
 657:D:/Work/DeviceTester/amazon-freertos/lib/shadow\aws_shadow.c ****             ( void ) prvConvertMQTTReturnCode( xMQTTReturn,
 658:D:/Work/DeviceTester/amazon-freertos/lib/shadow\aws_shadow.c ****                                                ( ShadowClientHandle_t ) xShadowClientID, /*lint !e9
 659:D:/Work/DeviceTester/amazon-freertos/lib/shadow\aws_shadow.c ****                                                "Cleanup: Unsubscribe from accepted topic" );
 660:D:/Work/DeviceTester/amazon-freertos/lib/shadow\aws_shadow.c ****         }
 661:D:/Work/DeviceTester/amazon-freertos/lib/shadow\aws_shadow.c ****     }
 662:D:/Work/DeviceTester/amazon-freertos/lib/shadow\aws_shadow.c **** 
 663:D:/Work/DeviceTester/amazon-freertos/lib/shadow\aws_shadow.c ****     return xReturn;
 664:D:/Work/DeviceTester/amazon-freertos/lib/shadow\aws_shadow.c **** }
 665:D:/Work/DeviceTester/amazon-freertos/lib/shadow\aws_shadow.c **** 
 666:D:/Work/DeviceTester/amazon-freertos/lib/shadow\aws_shadow.c **** /*-----------------------------------------------------------*/
 667:D:/Work/DeviceTester/amazon-freertos/lib/shadow\aws_shadow.c **** static ShadowReturnCode_t prvShadowUnsubscribeFromAcceptedRejected( BaseType_t
 668:D:/Work/DeviceTester/amazon-freertos/lib/shadow\aws_shadow.c ****                                                                     xShadowClientID,
 669:D:/Work/DeviceTester/amazon-freertos/lib/shadow\aws_shadow.c ****                                                                     const char * const pcThingName,
 670:D:/Work/DeviceTester/amazon-freertos/lib/shadow\aws_shadow.c ****                                                                     const char * const
 671:D:/Work/DeviceTester/amazon-freertos/lib/shadow\aws_shadow.c ****                                                                     pcAcceptedTopic,
 672:D:/Work/DeviceTester/amazon-freertos/lib/shadow\aws_shadow.c ****                                                                     const char * const pcRejectedTo
 673:D:/Work/DeviceTester/amazon-freertos/lib/shadow\aws_shadow.c ****                                                                     TimeOutData_t * const pxTimeOut
 674:D:/Work/DeviceTester/amazon-freertos/lib/shadow\aws_shadow.c **** {
 675:D:/Work/DeviceTester/amazon-freertos/lib/shadow\aws_shadow.c ****     ShadowReturnCode_t xReturn = eShadowFailure;
 676:D:/Work/DeviceTester/amazon-freertos/lib/shadow\aws_shadow.c ****     ShadowClient_t * pxShadowClient;
 677:D:/Work/DeviceTester/amazon-freertos/lib/shadow\aws_shadow.c ****     MQTTAgentUnsubscribeParams_t xUnsubscribeParams;
 678:D:/Work/DeviceTester/amazon-freertos/lib/shadow\aws_shadow.c ****     MQTTAgentReturnCode_t xMQTTReturn;
 679:D:/Work/DeviceTester/amazon-freertos/lib/shadow\aws_shadow.c **** 
 680:D:/Work/DeviceTester/amazon-freertos/lib/shadow\aws_shadow.c ****     pxShadowClient = &( xShadowClients[ xShadowClientID ] );
 681:D:/Work/DeviceTester/amazon-freertos/lib/shadow\aws_shadow.c **** 
 682:D:/Work/DeviceTester/amazon-freertos/lib/shadow\aws_shadow.c ****     /* MQTT unsubscribe parameters. */
 683:D:/Work/DeviceTester/amazon-freertos/lib/shadow\aws_shadow.c ****     xUnsubscribeParams.pucTopic = pxShadowClient->ucTopicBuffer;
 684:D:/Work/DeviceTester/amazon-freertos/lib/shadow\aws_shadow.c **** 
 685:D:/Work/DeviceTester/amazon-freertos/lib/shadow\aws_shadow.c ****     if( pcAcceptedTopic != NULL )
 686:D:/Work/DeviceTester/amazon-freertos/lib/shadow\aws_shadow.c ****     {
 687:D:/Work/DeviceTester/amazon-freertos/lib/shadow\aws_shadow.c ****         /* Fill the accepted topic. */
 688:D:/Work/DeviceTester/amazon-freertos/lib/shadow\aws_shadow.c ****         xUnsubscribeParams.usTopicLength = prvCreateTopic( ( char * ) pxShadowClient->ucTopicBuffer
 689:D:/Work/DeviceTester/amazon-freertos/lib/shadow\aws_shadow.c ****                                                            shadowTOPIC_BUFFER_LENGTH,
 690:D:/Work/DeviceTester/amazon-freertos/lib/shadow\aws_shadow.c ****                                                            pcAcceptedTopic,
 691:D:/Work/DeviceTester/amazon-freertos/lib/shadow\aws_shadow.c ****                                                            pcThingName );
 692:D:/Work/DeviceTester/amazon-freertos/lib/shadow\aws_shadow.c **** 
 693:D:/Work/DeviceTester/amazon-freertos/lib/shadow\aws_shadow.c ****         xMQTTReturn = MQTT_AGENT_Unsubscribe( pxShadowClient->xMQTTClient,
 694:D:/Work/DeviceTester/amazon-freertos/lib/shadow\aws_shadow.c ****                                               &xUnsubscribeParams,
 695:D:/Work/DeviceTester/amazon-freertos/lib/shadow\aws_shadow.c ****                                               pxTimeOutData->xTicksRemaining );
 696:D:/Work/DeviceTester/amazon-freertos/lib/shadow\aws_shadow.c **** 
 697:D:/Work/DeviceTester/amazon-freertos/lib/shadow\aws_shadow.c ****         xReturn = prvConvertMQTTReturnCode( xMQTTReturn,
 698:D:/Work/DeviceTester/amazon-freertos/lib/shadow\aws_shadow.c ****                                             ( ShadowClientHandle_t ) xShadowClientID, /*lint !e923 
 699:D:/Work/DeviceTester/amazon-freertos/lib/shadow\aws_shadow.c ****                                             "Unsubscribe from accepted topic" );
 700:D:/Work/DeviceTester/amazon-freertos/lib/shadow\aws_shadow.c ****     }
 701:D:/Work/DeviceTester/amazon-freertos/lib/shadow\aws_shadow.c **** 
 702:D:/Work/DeviceTester/amazon-freertos/lib/shadow\aws_shadow.c ****     if( pcRejectedTopic != NULL )
 703:D:/Work/DeviceTester/amazon-freertos/lib/shadow\aws_shadow.c ****     {
 704:D:/Work/DeviceTester/amazon-freertos/lib/shadow\aws_shadow.c ****         /* Fill the rejected topic. */
 705:D:/Work/DeviceTester/amazon-freertos/lib/shadow\aws_shadow.c ****         xUnsubscribeParams.usTopicLength = prvCreateTopic( ( char * ) pxShadowClient->ucTopicBuffer
 706:D:/Work/DeviceTester/amazon-freertos/lib/shadow\aws_shadow.c ****                                                            shadowTOPIC_BUFFER_LENGTH,
 707:D:/Work/DeviceTester/amazon-freertos/lib/shadow\aws_shadow.c ****                                                            pcRejectedTopic,
 708:D:/Work/DeviceTester/amazon-freertos/lib/shadow\aws_shadow.c ****                                                            pcThingName );
 709:D:/Work/DeviceTester/amazon-freertos/lib/shadow\aws_shadow.c **** 
 710:D:/Work/DeviceTester/amazon-freertos/lib/shadow\aws_shadow.c ****         xMQTTReturn = MQTT_AGENT_Unsubscribe( pxShadowClient->xMQTTClient,
 711:D:/Work/DeviceTester/amazon-freertos/lib/shadow\aws_shadow.c ****                                               &xUnsubscribeParams,
 712:D:/Work/DeviceTester/amazon-freertos/lib/shadow\aws_shadow.c ****                                               pxTimeOutData->xTicksRemaining );
 713:D:/Work/DeviceTester/amazon-freertos/lib/shadow\aws_shadow.c **** 
 714:D:/Work/DeviceTester/amazon-freertos/lib/shadow\aws_shadow.c ****         xReturn = prvConvertMQTTReturnCode( xMQTTReturn,
 715:D:/Work/DeviceTester/amazon-freertos/lib/shadow\aws_shadow.c ****                                             ( ShadowClientHandle_t ) xShadowClientID, /*lint !e923 
 716:D:/Work/DeviceTester/amazon-freertos/lib/shadow\aws_shadow.c ****                                             "Unsubscribe from rejected topic" );
 717:D:/Work/DeviceTester/amazon-freertos/lib/shadow\aws_shadow.c ****     }
 718:D:/Work/DeviceTester/amazon-freertos/lib/shadow\aws_shadow.c **** 
 719:D:/Work/DeviceTester/amazon-freertos/lib/shadow\aws_shadow.c ****     return xReturn;
 720:D:/Work/DeviceTester/amazon-freertos/lib/shadow\aws_shadow.c **** }
 721:D:/Work/DeviceTester/amazon-freertos/lib/shadow\aws_shadow.c **** /*-----------------------------------------------------------*/
 722:D:/Work/DeviceTester/amazon-freertos/lib/shadow\aws_shadow.c **** 
 723:D:/Work/DeviceTester/amazon-freertos/lib/shadow\aws_shadow.c **** static BaseType_t prvShadowMQTTCallback( void * pvUserData,
 724:D:/Work/DeviceTester/amazon-freertos/lib/shadow\aws_shadow.c ****                                          const MQTTAgentCallbackParams_t * const pxCallbackParams )
 725:D:/Work/DeviceTester/amazon-freertos/lib/shadow\aws_shadow.c **** {
 726:D:/Work/DeviceTester/amazon-freertos/lib/shadow\aws_shadow.c ****     BaseType_t xOperationMatched = pdFALSE;
 727:D:/Work/DeviceTester/amazon-freertos/lib/shadow\aws_shadow.c ****     ShadowClient_t * pxShadowClient;
 728:D:/Work/DeviceTester/amazon-freertos/lib/shadow\aws_shadow.c ****     const MQTTPublishData_t * pxPublishData;
 729:D:/Work/DeviceTester/amazon-freertos/lib/shadow\aws_shadow.c ****     ShadowOperationName_t xOperationName;
 730:D:/Work/DeviceTester/amazon-freertos/lib/shadow\aws_shadow.c ****     ShadowReturnCode_t xResult;
 731:D:/Work/DeviceTester/amazon-freertos/lib/shadow\aws_shadow.c ****     const CallbackCatalogEntry_t * pxCallbackCatalogEntry;
 732:D:/Work/DeviceTester/amazon-freertos/lib/shadow\aws_shadow.c ****     BaseType_t xReturn = pdFALSE;
 733:D:/Work/DeviceTester/amazon-freertos/lib/shadow\aws_shadow.c ****     BaseType_t xCompareLen;
 734:D:/Work/DeviceTester/amazon-freertos/lib/shadow\aws_shadow.c ****     BaseType_t xShadowClientID;
 735:D:/Work/DeviceTester/amazon-freertos/lib/shadow\aws_shadow.c **** 
 736:D:/Work/DeviceTester/amazon-freertos/lib/shadow\aws_shadow.c **** 
 737:D:/Work/DeviceTester/amazon-freertos/lib/shadow\aws_shadow.c ****     xShadowClientID = *( ( BaseType_t * ) pvUserData ); /*lint !e9087 Safe cast from pointer handle
 738:D:/Work/DeviceTester/amazon-freertos/lib/shadow\aws_shadow.c ****     pxShadowClient = &( xShadowClients[ xShadowClientID ] );
 739:D:/Work/DeviceTester/amazon-freertos/lib/shadow\aws_shadow.c **** 
 740:D:/Work/DeviceTester/amazon-freertos/lib/shadow\aws_shadow.c ****     if( pxCallbackParams->xMQTTEvent == eMQTTAgentPublish )
 741:D:/Work/DeviceTester/amazon-freertos/lib/shadow\aws_shadow.c ****     {
 742:D:/Work/DeviceTester/amazon-freertos/lib/shadow\aws_shadow.c ****         pxPublishData = ( &( pxCallbackParams->u.xPublishData ) );
 743:D:/Work/DeviceTester/amazon-freertos/lib/shadow\aws_shadow.c **** 
 744:D:/Work/DeviceTester/amazon-freertos/lib/shadow\aws_shadow.c ****         /* If xOperationMutex is locked, the client is waiting on the acceptance
 745:D:/Work/DeviceTester/amazon-freertos/lib/shadow\aws_shadow.c ****          * or rejection of a publish. Publish results take priority over user notify
 746:D:/Work/DeviceTester/amazon-freertos/lib/shadow\aws_shadow.c ****          * callbacks. This also means that the client will not be notified of gets or
 747:D:/Work/DeviceTester/amazon-freertos/lib/shadow\aws_shadow.c ****          * deletes performed by itself in a user notify callback. However, the client
 748:D:/Work/DeviceTester/amazon-freertos/lib/shadow\aws_shadow.c ****          * will still be notified of updates performed by itself if it has registered
 749:D:/Work/DeviceTester/amazon-freertos/lib/shadow\aws_shadow.c ****          * a callback for /update/documents or update/delta. */
 750:D:/Work/DeviceTester/amazon-freertos/lib/shadow\aws_shadow.c **** 
 751:D:/Work/DeviceTester/amazon-freertos/lib/shadow\aws_shadow.c ****         if( xSemaphoreTake( pxShadowClient->xOperationDataMutex,
 752:D:/Work/DeviceTester/amazon-freertos/lib/shadow\aws_shadow.c ****                             portMAX_DELAY ) == pdPASS )
 753:D:/Work/DeviceTester/amazon-freertos/lib/shadow\aws_shadow.c ****         {
 754:D:/Work/DeviceTester/amazon-freertos/lib/shadow\aws_shadow.c ****             if( pxShadowClient->pxOperationData != NULL )
 755:D:/Work/DeviceTester/amazon-freertos/lib/shadow\aws_shadow.c ****             {
 756:D:/Work/DeviceTester/amazon-freertos/lib/shadow\aws_shadow.c ****                 /* Verify Thing Name and operation by comparing the received topic with
 757:D:/Work/DeviceTester/amazon-freertos/lib/shadow\aws_shadow.c ****                  * the current operation's topic. */
 758:D:/Work/DeviceTester/amazon-freertos/lib/shadow\aws_shadow.c **** 
 759:D:/Work/DeviceTester/amazon-freertos/lib/shadow\aws_shadow.c ****                 xCompareLen = ( BaseType_t ) configMIN( ( BaseType_t ) strlen( ( const char * ) pxS
 760:D:/Work/DeviceTester/amazon-freertos/lib/shadow\aws_shadow.c ****                                                         ( BaseType_t ) pxPublishData->usTopicLength
 761:D:/Work/DeviceTester/amazon-freertos/lib/shadow\aws_shadow.c **** 
 762:D:/Work/DeviceTester/amazon-freertos/lib/shadow\aws_shadow.c ****                 if( strncmp( ( const char * ) pxPublishData->pucTopic,
 763:D:/Work/DeviceTester/amazon-freertos/lib/shadow\aws_shadow.c ****                              ( const char * ) pxShadowClient->ucTopicBuffer,
 764:D:/Work/DeviceTester/amazon-freertos/lib/shadow\aws_shadow.c ****                              ( size_t ) xCompareLen ) == 0 )
 765:D:/Work/DeviceTester/amazon-freertos/lib/shadow\aws_shadow.c ****                 {
 766:D:/Work/DeviceTester/amazon-freertos/lib/shadow\aws_shadow.c ****                     /* Parse the in-progress operation and result. */
 767:D:/Work/DeviceTester/amazon-freertos/lib/shadow\aws_shadow.c ****                     xOperationName = ( pxShadowClient->pxOperationData )->xOperationInProgress;
 768:D:/Work/DeviceTester/amazon-freertos/lib/shadow\aws_shadow.c ****                     xResult = prvParseShadowOperationStatus( pxPublishData->pucTopic,
 769:D:/Work/DeviceTester/amazon-freertos/lib/shadow\aws_shadow.c ****                                                              pxPublishData->usTopicLength );
 770:D:/Work/DeviceTester/amazon-freertos/lib/shadow\aws_shadow.c **** 
 771:D:/Work/DeviceTester/amazon-freertos/lib/shadow\aws_shadow.c ****                     /* Both an operation and result were identified, and both match
 772:D:/Work/DeviceTester/amazon-freertos/lib/shadow\aws_shadow.c ****                      * the operation this Shadow Client is waiting on; call the
 773:D:/Work/DeviceTester/amazon-freertos/lib/shadow\aws_shadow.c ****                      * operation-specific callback. */
 774:D:/Work/DeviceTester/amazon-freertos/lib/shadow\aws_shadow.c ****                     if( ( xResult != eShadowUnknown ) && ( xOperationName != eShadowOperationOther 
 775:D:/Work/DeviceTester/amazon-freertos/lib/shadow\aws_shadow.c ****                     {
 776:D:/Work/DeviceTester/amazon-freertos/lib/shadow\aws_shadow.c ****                         xOperationMatched = pdTRUE;
 777:D:/Work/DeviceTester/amazon-freertos/lib/shadow\aws_shadow.c **** 
 778:D:/Work/DeviceTester/amazon-freertos/lib/shadow\aws_shadow.c ****                         switch( xOperationName )
 779:D:/Work/DeviceTester/amazon-freertos/lib/shadow\aws_shadow.c ****                         {
 780:D:/Work/DeviceTester/amazon-freertos/lib/shadow\aws_shadow.c ****                             case eShadowOperationUpdate:
 781:D:/Work/DeviceTester/amazon-freertos/lib/shadow\aws_shadow.c ****                                 prvShadowUpdateCallback( xShadowClientID,
 782:D:/Work/DeviceTester/amazon-freertos/lib/shadow\aws_shadow.c ****                                                          xResult,
 783:D:/Work/DeviceTester/amazon-freertos/lib/shadow\aws_shadow.c ****                                                          ( pxShadowClient->pxOperationData )->pxOpe
 784:D:/Work/DeviceTester/amazon-freertos/lib/shadow\aws_shadow.c ****                                                          ( const char * ) pxPublishData->pvData,
 785:D:/Work/DeviceTester/amazon-freertos/lib/shadow\aws_shadow.c ****                                                          pxPublishData->ulDataLength );
 786:D:/Work/DeviceTester/amazon-freertos/lib/shadow\aws_shadow.c ****                                 break;
 787:D:/Work/DeviceTester/amazon-freertos/lib/shadow\aws_shadow.c **** 
 788:D:/Work/DeviceTester/amazon-freertos/lib/shadow\aws_shadow.c ****                             case eShadowOperationGet:
 789:D:/Work/DeviceTester/amazon-freertos/lib/shadow\aws_shadow.c ****                                 prvShadowGetCallback( xShadowClientID,
 790:D:/Work/DeviceTester/amazon-freertos/lib/shadow\aws_shadow.c ****                                                       xResult,
 791:D:/Work/DeviceTester/amazon-freertos/lib/shadow\aws_shadow.c ****                                                       ( pxShadowClient->pxOperationData )->pxOperat
 792:D:/Work/DeviceTester/amazon-freertos/lib/shadow\aws_shadow.c ****                                                       ( const char * ) pxPublishData->pvData,
 793:D:/Work/DeviceTester/amazon-freertos/lib/shadow\aws_shadow.c ****                                                       pxPublishData->ulDataLength,
 794:D:/Work/DeviceTester/amazon-freertos/lib/shadow\aws_shadow.c ****                                                       pxPublishData->xBuffer );
 795:D:/Work/DeviceTester/amazon-freertos/lib/shadow\aws_shadow.c **** 
 796:D:/Work/DeviceTester/amazon-freertos/lib/shadow\aws_shadow.c ****                                 /* Only take an MQTT buffer if the Get operation succeeded. */
 797:D:/Work/DeviceTester/amazon-freertos/lib/shadow\aws_shadow.c ****                                 if( xResult == eShadowSuccess )
 798:D:/Work/DeviceTester/amazon-freertos/lib/shadow\aws_shadow.c ****                                 {
 799:D:/Work/DeviceTester/amazon-freertos/lib/shadow\aws_shadow.c ****                                     xReturn = pdTRUE;
 800:D:/Work/DeviceTester/amazon-freertos/lib/shadow\aws_shadow.c ****                                 }
 801:D:/Work/DeviceTester/amazon-freertos/lib/shadow\aws_shadow.c **** 
 802:D:/Work/DeviceTester/amazon-freertos/lib/shadow\aws_shadow.c ****                                 break;
 803:D:/Work/DeviceTester/amazon-freertos/lib/shadow\aws_shadow.c **** 
 804:D:/Work/DeviceTester/amazon-freertos/lib/shadow\aws_shadow.c ****                             case eShadowOperationDelete:
 805:D:/Work/DeviceTester/amazon-freertos/lib/shadow\aws_shadow.c ****                                 prvShadowDeleteCallback( xShadowClientID,
 806:D:/Work/DeviceTester/amazon-freertos/lib/shadow\aws_shadow.c ****                                                          xResult,
 807:D:/Work/DeviceTester/amazon-freertos/lib/shadow\aws_shadow.c ****                                                          ( const char * ) pxPublishData->pvData,
 808:D:/Work/DeviceTester/amazon-freertos/lib/shadow\aws_shadow.c ****                                                          pxPublishData->ulDataLength );
 809:D:/Work/DeviceTester/amazon-freertos/lib/shadow\aws_shadow.c ****                                 break;
 810:D:/Work/DeviceTester/amazon-freertos/lib/shadow\aws_shadow.c **** 
 811:D:/Work/DeviceTester/amazon-freertos/lib/shadow\aws_shadow.c ****                             default:
 812:D:/Work/DeviceTester/amazon-freertos/lib/shadow\aws_shadow.c ****                                 /* Should not fall here. */
 813:D:/Work/DeviceTester/amazon-freertos/lib/shadow\aws_shadow.c ****                                 break;
 814:D:/Work/DeviceTester/amazon-freertos/lib/shadow\aws_shadow.c ****                         }
 815:D:/Work/DeviceTester/amazon-freertos/lib/shadow\aws_shadow.c ****                     }
 816:D:/Work/DeviceTester/amazon-freertos/lib/shadow\aws_shadow.c ****                 }
 817:D:/Work/DeviceTester/amazon-freertos/lib/shadow\aws_shadow.c ****             }
 818:D:/Work/DeviceTester/amazon-freertos/lib/shadow\aws_shadow.c **** 
 819:D:/Work/DeviceTester/amazon-freertos/lib/shadow\aws_shadow.c ****             configASSERT( xSemaphoreGive( pxShadowClient->xOperationDataMutex ) == pdPASS );
 820:D:/Work/DeviceTester/amazon-freertos/lib/shadow\aws_shadow.c ****         }
 821:D:/Work/DeviceTester/amazon-freertos/lib/shadow\aws_shadow.c **** 
 822:D:/Work/DeviceTester/amazon-freertos/lib/shadow\aws_shadow.c ****         /* If the received topic doesn't match the current operation, it's
 823:D:/Work/DeviceTester/amazon-freertos/lib/shadow\aws_shadow.c ****          * still possible for it to match a registered callback. */
 824:D:/Work/DeviceTester/amazon-freertos/lib/shadow\aws_shadow.c ****         if( xOperationMatched == pdFALSE )
 825:D:/Work/DeviceTester/amazon-freertos/lib/shadow\aws_shadow.c ****         {
 826:D:/Work/DeviceTester/amazon-freertos/lib/shadow\aws_shadow.c ****             pxCallbackCatalogEntry = prvMatchCallbackTopic( pxShadowClient,
 827:D:/Work/DeviceTester/amazon-freertos/lib/shadow\aws_shadow.c ****                                                             pxPublishData->pucTopic, pxPublishData-
 828:D:/Work/DeviceTester/amazon-freertos/lib/shadow\aws_shadow.c ****                                                             &xOperationName );
 829:D:/Work/DeviceTester/amazon-freertos/lib/shadow\aws_shadow.c **** 
 830:D:/Work/DeviceTester/amazon-freertos/lib/shadow\aws_shadow.c ****             if( pxCallbackCatalogEntry != NULL )
 831:D:/Work/DeviceTester/amazon-freertos/lib/shadow\aws_shadow.c ****             {
 832:D:/Work/DeviceTester/amazon-freertos/lib/shadow\aws_shadow.c ****                 switch( xOperationName )
 833:D:/Work/DeviceTester/amazon-freertos/lib/shadow\aws_shadow.c ****                 {
 834:D:/Work/DeviceTester/amazon-freertos/lib/shadow\aws_shadow.c ****                     case eShadowOperationUpdateDocuments:
 835:D:/Work/DeviceTester/amazon-freertos/lib/shadow\aws_shadow.c **** 
 836:D:/Work/DeviceTester/amazon-freertos/lib/shadow\aws_shadow.c ****                         if( pxCallbackCatalogEntry->xCallbackInfo.xShadowUpdatedCallback != NULL )
 837:D:/Work/DeviceTester/amazon-freertos/lib/shadow\aws_shadow.c ****                         {
 838:D:/Work/DeviceTester/amazon-freertos/lib/shadow\aws_shadow.c ****                             xReturn = pxCallbackCatalogEntry->xCallbackInfo.xShadowUpdatedCallback(
 839:D:/Work/DeviceTester/amazon-freertos/lib/shadow\aws_shadow.c ****                                                                                                    
 840:D:/Work/DeviceTester/amazon-freertos/lib/shadow\aws_shadow.c ****                                                                                                    
 841:D:/Work/DeviceTester/amazon-freertos/lib/shadow\aws_shadow.c ****                                                                                                    
 842:D:/Work/DeviceTester/amazon-freertos/lib/shadow\aws_shadow.c ****                                                                                                    
 843:D:/Work/DeviceTester/amazon-freertos/lib/shadow\aws_shadow.c ****                         }
 844:D:/Work/DeviceTester/amazon-freertos/lib/shadow\aws_shadow.c **** 
 845:D:/Work/DeviceTester/amazon-freertos/lib/shadow\aws_shadow.c ****                         break;
 846:D:/Work/DeviceTester/amazon-freertos/lib/shadow\aws_shadow.c **** 
 847:D:/Work/DeviceTester/amazon-freertos/lib/shadow\aws_shadow.c ****                     case eShadowOperationUpdateDelta:
 848:D:/Work/DeviceTester/amazon-freertos/lib/shadow\aws_shadow.c **** 
 849:D:/Work/DeviceTester/amazon-freertos/lib/shadow\aws_shadow.c ****                         if( pxCallbackCatalogEntry->xCallbackInfo.xShadowDeltaCallback != NULL )
 850:D:/Work/DeviceTester/amazon-freertos/lib/shadow\aws_shadow.c ****                         {
 851:D:/Work/DeviceTester/amazon-freertos/lib/shadow\aws_shadow.c ****                             xReturn = pxCallbackCatalogEntry->xCallbackInfo.xShadowDeltaCallback( p
 852:D:/Work/DeviceTester/amazon-freertos/lib/shadow\aws_shadow.c ****                                                                                                   p
 853:D:/Work/DeviceTester/amazon-freertos/lib/shadow\aws_shadow.c ****                                                                                                   (
 854:D:/Work/DeviceTester/amazon-freertos/lib/shadow\aws_shadow.c ****                                                                                                   p
 855:D:/Work/DeviceTester/amazon-freertos/lib/shadow\aws_shadow.c ****                                                                                                   p
 856:D:/Work/DeviceTester/amazon-freertos/lib/shadow\aws_shadow.c ****                         }
 857:D:/Work/DeviceTester/amazon-freertos/lib/shadow\aws_shadow.c **** 
 858:D:/Work/DeviceTester/amazon-freertos/lib/shadow\aws_shadow.c ****                         break;
 859:D:/Work/DeviceTester/amazon-freertos/lib/shadow\aws_shadow.c **** 
 860:D:/Work/DeviceTester/amazon-freertos/lib/shadow\aws_shadow.c ****                     case eShadowOperationDeletedByAnother:
 861:D:/Work/DeviceTester/amazon-freertos/lib/shadow\aws_shadow.c **** 
 862:D:/Work/DeviceTester/amazon-freertos/lib/shadow\aws_shadow.c ****                         if( pxCallbackCatalogEntry->xCallbackInfo.xShadowDeletedCallback != NULL )
 863:D:/Work/DeviceTester/amazon-freertos/lib/shadow\aws_shadow.c ****                         {
 864:D:/Work/DeviceTester/amazon-freertos/lib/shadow\aws_shadow.c ****                             pxCallbackCatalogEntry->xCallbackInfo.xShadowDeletedCallback( pvUserDat
 865:D:/Work/DeviceTester/amazon-freertos/lib/shadow\aws_shadow.c ****                                                                                           pxCallbac
 866:D:/Work/DeviceTester/amazon-freertos/lib/shadow\aws_shadow.c ****                         }
 867:D:/Work/DeviceTester/amazon-freertos/lib/shadow\aws_shadow.c **** 
 868:D:/Work/DeviceTester/amazon-freertos/lib/shadow\aws_shadow.c ****                         break;
 869:D:/Work/DeviceTester/amazon-freertos/lib/shadow\aws_shadow.c **** 
 870:D:/Work/DeviceTester/amazon-freertos/lib/shadow\aws_shadow.c ****                     default:
 871:D:/Work/DeviceTester/amazon-freertos/lib/shadow\aws_shadow.c ****                         /* Should not fall here. */
 872:D:/Work/DeviceTester/amazon-freertos/lib/shadow\aws_shadow.c ****                         break;
 873:D:/Work/DeviceTester/amazon-freertos/lib/shadow\aws_shadow.c ****                 }
 874:D:/Work/DeviceTester/amazon-freertos/lib/shadow\aws_shadow.c ****             }
 875:D:/Work/DeviceTester/amazon-freertos/lib/shadow\aws_shadow.c ****         }
 876:D:/Work/DeviceTester/amazon-freertos/lib/shadow\aws_shadow.c ****     }
 877:D:/Work/DeviceTester/amazon-freertos/lib/shadow\aws_shadow.c ****     /* The Shadow Client assumes all subscriptions are lost on disconnect. */
 878:D:/Work/DeviceTester/amazon-freertos/lib/shadow\aws_shadow.c ****     else
 879:D:/Work/DeviceTester/amazon-freertos/lib/shadow\aws_shadow.c ****     {
 880:D:/Work/DeviceTester/amazon-freertos/lib/shadow\aws_shadow.c ****         if( pxCallbackParams->xMQTTEvent == eMQTTAgentDisconnect )
 881:D:/Work/DeviceTester/amazon-freertos/lib/shadow\aws_shadow.c ****         {
 882:D:/Work/DeviceTester/amazon-freertos/lib/shadow\aws_shadow.c ****             Shadow_debug_printf( ( "[Shadow %d] Warning: got an MQTT disconnect"
 883:D:/Work/DeviceTester/amazon-freertos/lib/shadow\aws_shadow.c ****                                    " message.\r\n", xShadowClientID ) );
 884:D:/Work/DeviceTester/amazon-freertos/lib/shadow\aws_shadow.c **** 
 885:D:/Work/DeviceTester/amazon-freertos/lib/shadow\aws_shadow.c ****             prvSetSubscribedFlag( pxShadowClient, eShadowOperationUpdate, 0 );
 886:D:/Work/DeviceTester/amazon-freertos/lib/shadow\aws_shadow.c ****             prvSetSubscribedFlag( pxShadowClient, eShadowOperationGet, 0 );
 887:D:/Work/DeviceTester/amazon-freertos/lib/shadow\aws_shadow.c ****             prvSetSubscribedFlag( pxShadowClient, eShadowOperationDelete, 0 );
 888:D:/Work/DeviceTester/amazon-freertos/lib/shadow\aws_shadow.c **** 
 889:D:/Work/DeviceTester/amazon-freertos/lib/shadow\aws_shadow.c ****             /*_RB_ TODO below. */
 890:D:/Work/DeviceTester/amazon-freertos/lib/shadow\aws_shadow.c ****             /* TODO: resubscribe to all callback topics. */
 891:D:/Work/DeviceTester/amazon-freertos/lib/shadow\aws_shadow.c ****         }
 892:D:/Work/DeviceTester/amazon-freertos/lib/shadow\aws_shadow.c ****     }
 893:D:/Work/DeviceTester/amazon-freertos/lib/shadow\aws_shadow.c **** 
 894:D:/Work/DeviceTester/amazon-freertos/lib/shadow\aws_shadow.c ****     return xReturn;
 895:D:/Work/DeviceTester/amazon-freertos/lib/shadow\aws_shadow.c **** }
 896:D:/Work/DeviceTester/amazon-freertos/lib/shadow\aws_shadow.c **** 
 897:D:/Work/DeviceTester/amazon-freertos/lib/shadow\aws_shadow.c **** /*-----------------------------------------------------------*/
 898:D:/Work/DeviceTester/amazon-freertos/lib/shadow\aws_shadow.c **** 
 899:D:/Work/DeviceTester/amazon-freertos/lib/shadow\aws_shadow.c **** static ShadowReturnCode_t prvParseShadowOperationStatus( const uint8_t * const
 900:D:/Work/DeviceTester/amazon-freertos/lib/shadow\aws_shadow.c ****                                                          pucTopic,
 901:D:/Work/DeviceTester/amazon-freertos/lib/shadow\aws_shadow.c ****                                                          uint16_t usTopicLength )
 902:D:/Work/DeviceTester/amazon-freertos/lib/shadow\aws_shadow.c **** {
 903:D:/Work/DeviceTester/amazon-freertos/lib/shadow\aws_shadow.c ****     ShadowReturnCode_t xResult = eShadowUnknown;
 904:D:/Work/DeviceTester/amazon-freertos/lib/shadow\aws_shadow.c ****     const uint8_t * pucTopicStatus;
 905:D:/Work/DeviceTester/amazon-freertos/lib/shadow\aws_shadow.c ****     size_t xCompareLength;
 906:D:/Work/DeviceTester/amazon-freertos/lib/shadow\aws_shadow.c **** 
 907:D:/Work/DeviceTester/amazon-freertos/lib/shadow\aws_shadow.c ****     xCompareLength = strlen( shadowTOPIC_SUFFIX_ACCEPTED );
 908:D:/Work/DeviceTester/amazon-freertos/lib/shadow\aws_shadow.c ****     pucTopicStatus = pucTopic + usTopicLength - xCompareLength;
 909:D:/Work/DeviceTester/amazon-freertos/lib/shadow\aws_shadow.c **** 
 910:D:/Work/DeviceTester/amazon-freertos/lib/shadow\aws_shadow.c ****     if( strncmp( ( const char * ) pucTopicStatus,
 911:D:/Work/DeviceTester/amazon-freertos/lib/shadow\aws_shadow.c ****                  shadowTOPIC_SUFFIX_ACCEPTED,
 912:D:/Work/DeviceTester/amazon-freertos/lib/shadow\aws_shadow.c ****                  xCompareLength ) == 0 )
 913:D:/Work/DeviceTester/amazon-freertos/lib/shadow\aws_shadow.c ****     {
 914:D:/Work/DeviceTester/amazon-freertos/lib/shadow\aws_shadow.c ****         xResult = eShadowSuccess;
 915:D:/Work/DeviceTester/amazon-freertos/lib/shadow\aws_shadow.c ****     }
 916:D:/Work/DeviceTester/amazon-freertos/lib/shadow\aws_shadow.c ****     else
 917:D:/Work/DeviceTester/amazon-freertos/lib/shadow\aws_shadow.c ****     {
 918:D:/Work/DeviceTester/amazon-freertos/lib/shadow\aws_shadow.c ****         xCompareLength = strlen( shadowTOPIC_SUFFIX_REJECTED );
 919:D:/Work/DeviceTester/amazon-freertos/lib/shadow\aws_shadow.c ****         pucTopicStatus = pucTopic + usTopicLength - xCompareLength;
 920:D:/Work/DeviceTester/amazon-freertos/lib/shadow\aws_shadow.c **** 
 921:D:/Work/DeviceTester/amazon-freertos/lib/shadow\aws_shadow.c ****         if( strncmp( ( const char * ) pucTopicStatus,
 922:D:/Work/DeviceTester/amazon-freertos/lib/shadow\aws_shadow.c ****                      shadowTOPIC_SUFFIX_REJECTED,
 923:D:/Work/DeviceTester/amazon-freertos/lib/shadow\aws_shadow.c ****                      xCompareLength ) == 0 )
 924:D:/Work/DeviceTester/amazon-freertos/lib/shadow\aws_shadow.c ****         {
 925:D:/Work/DeviceTester/amazon-freertos/lib/shadow\aws_shadow.c ****             xResult = eShadowFailure;
 926:D:/Work/DeviceTester/amazon-freertos/lib/shadow\aws_shadow.c ****         }
 927:D:/Work/DeviceTester/amazon-freertos/lib/shadow\aws_shadow.c ****     }
 928:D:/Work/DeviceTester/amazon-freertos/lib/shadow\aws_shadow.c **** 
 929:D:/Work/DeviceTester/amazon-freertos/lib/shadow\aws_shadow.c ****     return xResult;
 930:D:/Work/DeviceTester/amazon-freertos/lib/shadow\aws_shadow.c **** }
 931:D:/Work/DeviceTester/amazon-freertos/lib/shadow\aws_shadow.c **** 
 932:D:/Work/DeviceTester/amazon-freertos/lib/shadow\aws_shadow.c **** /*-----------------------------------------------------------*/
 933:D:/Work/DeviceTester/amazon-freertos/lib/shadow\aws_shadow.c **** 
 934:D:/Work/DeviceTester/amazon-freertos/lib/shadow\aws_shadow.c **** static const CallbackCatalogEntry_t * prvMatchCallbackTopic( const ShadowClient_t * const pxShadowC
 935:D:/Work/DeviceTester/amazon-freertos/lib/shadow\aws_shadow.c ****                                                              const uint8_t * const pucTopic,
 936:D:/Work/DeviceTester/amazon-freertos/lib/shadow\aws_shadow.c ****                                                              uint16_t usTopicLength,
 937:D:/Work/DeviceTester/amazon-freertos/lib/shadow\aws_shadow.c ****                                                              ShadowOperationName_t * const pxOperat
 938:D:/Work/DeviceTester/amazon-freertos/lib/shadow\aws_shadow.c **** {
 939:D:/Work/DeviceTester/amazon-freertos/lib/shadow\aws_shadow.c ****     const CallbackCatalogEntry_t * pxReturn = NULL;
 940:D:/Work/DeviceTester/amazon-freertos/lib/shadow\aws_shadow.c ****     BaseType_t xIterator, xTopicFound = pdFALSE;
 941:D:/Work/DeviceTester/amazon-freertos/lib/shadow\aws_shadow.c ****     uint8_t ucTopicBuffer[ shadowTOPIC_BUFFER_LENGTH ];
 942:D:/Work/DeviceTester/amazon-freertos/lib/shadow\aws_shadow.c ****     size_t xCompareLength;
 943:D:/Work/DeviceTester/amazon-freertos/lib/shadow\aws_shadow.c **** 
 944:D:/Work/DeviceTester/amazon-freertos/lib/shadow\aws_shadow.c ****     for( xIterator = 0; xIterator < shadowconfigMAX_THINGS_WITH_CALLBACKS; xIterator++ )
 945:D:/Work/DeviceTester/amazon-freertos/lib/shadow\aws_shadow.c ****     {
 946:D:/Work/DeviceTester/amazon-freertos/lib/shadow\aws_shadow.c ****         pxReturn = &( pxShadowClient->xCallbackCatalog[ xIterator ] );
 947:D:/Work/DeviceTester/amazon-freertos/lib/shadow\aws_shadow.c **** 
 948:D:/Work/DeviceTester/amazon-freertos/lib/shadow\aws_shadow.c ****         if( pxReturn->xInUse == pdTRUE )
 949:D:/Work/DeviceTester/amazon-freertos/lib/shadow\aws_shadow.c ****         {
 950:D:/Work/DeviceTester/amazon-freertos/lib/shadow\aws_shadow.c ****             xCompareLength = prvCreateTopic( ( char * ) ucTopicBuffer,
 951:D:/Work/DeviceTester/amazon-freertos/lib/shadow\aws_shadow.c ****                                              shadowTOPIC_BUFFER_LENGTH,
 952:D:/Work/DeviceTester/amazon-freertos/lib/shadow\aws_shadow.c ****                                              shadowTOPIC_PREFIX, pxReturn->xCallbackInfo.pcThingNam
 953:D:/Work/DeviceTester/amazon-freertos/lib/shadow\aws_shadow.c **** 
 954:D:/Work/DeviceTester/amazon-freertos/lib/shadow\aws_shadow.c ****             if( strncmp( ( const char * ) ucTopicBuffer,
 955:D:/Work/DeviceTester/amazon-freertos/lib/shadow\aws_shadow.c ****                          ( const char * ) pucTopic,
 956:D:/Work/DeviceTester/amazon-freertos/lib/shadow\aws_shadow.c ****                          xCompareLength ) == 0 )
 957:D:/Work/DeviceTester/amazon-freertos/lib/shadow\aws_shadow.c ****             {
 958:D:/Work/DeviceTester/amazon-freertos/lib/shadow\aws_shadow.c ****                 xTopicFound = pdTRUE;
 959:D:/Work/DeviceTester/amazon-freertos/lib/shadow\aws_shadow.c **** 
 960:D:/Work/DeviceTester/amazon-freertos/lib/shadow\aws_shadow.c ****                 xCompareLength = prvCreateTopic( ( char * ) ucTopicBuffer,
 961:D:/Work/DeviceTester/amazon-freertos/lib/shadow\aws_shadow.c ****                                                  shadowTOPIC_BUFFER_LENGTH, shadowTOPIC_UPDATE_DOCU
 962:D:/Work/DeviceTester/amazon-freertos/lib/shadow\aws_shadow.c ****                                                  pxReturn->xCallbackInfo.pcThingName );
 963:D:/Work/DeviceTester/amazon-freertos/lib/shadow\aws_shadow.c **** 
 964:D:/Work/DeviceTester/amazon-freertos/lib/shadow\aws_shadow.c ****                 xCompareLength = configMAX( xCompareLength, usTopicLength );
 965:D:/Work/DeviceTester/amazon-freertos/lib/shadow\aws_shadow.c **** 
 966:D:/Work/DeviceTester/amazon-freertos/lib/shadow\aws_shadow.c ****                 if( pxOperationName != NULL )
 967:D:/Work/DeviceTester/amazon-freertos/lib/shadow\aws_shadow.c ****                 {
 968:D:/Work/DeviceTester/amazon-freertos/lib/shadow\aws_shadow.c ****                     if( strncmp( ( const char * ) ucTopicBuffer,
 969:D:/Work/DeviceTester/amazon-freertos/lib/shadow\aws_shadow.c ****                                  ( const char * ) pucTopic,
 970:D:/Work/DeviceTester/amazon-freertos/lib/shadow\aws_shadow.c ****                                  xCompareLength ) == 0 )
 971:D:/Work/DeviceTester/amazon-freertos/lib/shadow\aws_shadow.c ****                     {
 972:D:/Work/DeviceTester/amazon-freertos/lib/shadow\aws_shadow.c ****                         *pxOperationName = eShadowOperationUpdateDocuments;
 973:D:/Work/DeviceTester/amazon-freertos/lib/shadow\aws_shadow.c ****                     }
 974:D:/Work/DeviceTester/amazon-freertos/lib/shadow\aws_shadow.c ****                     else
 975:D:/Work/DeviceTester/amazon-freertos/lib/shadow\aws_shadow.c ****                     {
 976:D:/Work/DeviceTester/amazon-freertos/lib/shadow\aws_shadow.c ****                         xCompareLength = prvCreateTopic( ( char * ) ucTopicBuffer,
 977:D:/Work/DeviceTester/amazon-freertos/lib/shadow\aws_shadow.c ****                                                          shadowTOPIC_BUFFER_LENGTH, shadowTOPIC_UPD
 978:D:/Work/DeviceTester/amazon-freertos/lib/shadow\aws_shadow.c ****                                                          pxReturn->xCallbackInfo.pcThingName );
 979:D:/Work/DeviceTester/amazon-freertos/lib/shadow\aws_shadow.c **** 
 980:D:/Work/DeviceTester/amazon-freertos/lib/shadow\aws_shadow.c ****                         xCompareLength = configMAX( xCompareLength, usTopicLength );
 981:D:/Work/DeviceTester/amazon-freertos/lib/shadow\aws_shadow.c **** 
 982:D:/Work/DeviceTester/amazon-freertos/lib/shadow\aws_shadow.c ****                         if( strncmp( ( const char * ) ucTopicBuffer,
 983:D:/Work/DeviceTester/amazon-freertos/lib/shadow\aws_shadow.c ****                                      ( const char * ) pucTopic,
 984:D:/Work/DeviceTester/amazon-freertos/lib/shadow\aws_shadow.c ****                                      xCompareLength ) == 0 )
 985:D:/Work/DeviceTester/amazon-freertos/lib/shadow\aws_shadow.c ****                         {
 986:D:/Work/DeviceTester/amazon-freertos/lib/shadow\aws_shadow.c ****                             *pxOperationName = eShadowOperationUpdateDelta;
 987:D:/Work/DeviceTester/amazon-freertos/lib/shadow\aws_shadow.c ****                         }
 988:D:/Work/DeviceTester/amazon-freertos/lib/shadow\aws_shadow.c ****                         else
 989:D:/Work/DeviceTester/amazon-freertos/lib/shadow\aws_shadow.c ****                         {
 990:D:/Work/DeviceTester/amazon-freertos/lib/shadow\aws_shadow.c ****                             xCompareLength = prvCreateTopic( ( char * ) ucTopicBuffer,
 991:D:/Work/DeviceTester/amazon-freertos/lib/shadow\aws_shadow.c ****                                                              shadowTOPIC_BUFFER_LENGTH,
 992:D:/Work/DeviceTester/amazon-freertos/lib/shadow\aws_shadow.c ****                                                              shadowTOPIC_DELETE_ACCEPTED,
 993:D:/Work/DeviceTester/amazon-freertos/lib/shadow\aws_shadow.c ****                                                              pxReturn->xCallbackInfo.pcThingName );
 994:D:/Work/DeviceTester/amazon-freertos/lib/shadow\aws_shadow.c **** 
 995:D:/Work/DeviceTester/amazon-freertos/lib/shadow\aws_shadow.c ****                             xCompareLength = configMAX( xCompareLength, usTopicLength );
 996:D:/Work/DeviceTester/amazon-freertos/lib/shadow\aws_shadow.c **** 
 997:D:/Work/DeviceTester/amazon-freertos/lib/shadow\aws_shadow.c ****                             if( strncmp( ( const char * ) ucTopicBuffer,
 998:D:/Work/DeviceTester/amazon-freertos/lib/shadow\aws_shadow.c ****                                          ( const char * ) pucTopic,
 999:D:/Work/DeviceTester/amazon-freertos/lib/shadow\aws_shadow.c ****                                          xCompareLength ) == 0 )
1000:D:/Work/DeviceTester/amazon-freertos/lib/shadow\aws_shadow.c ****                             {
1001:D:/Work/DeviceTester/amazon-freertos/lib/shadow\aws_shadow.c ****                                 *pxOperationName = eShadowOperationDeletedByAnother;
1002:D:/Work/DeviceTester/amazon-freertos/lib/shadow\aws_shadow.c ****                             }
1003:D:/Work/DeviceTester/amazon-freertos/lib/shadow\aws_shadow.c ****                             else
1004:D:/Work/DeviceTester/amazon-freertos/lib/shadow\aws_shadow.c ****                             {
1005:D:/Work/DeviceTester/amazon-freertos/lib/shadow\aws_shadow.c ****                                 *pxOperationName = eShadowOperationOther;
1006:D:/Work/DeviceTester/amazon-freertos/lib/shadow\aws_shadow.c ****                             }
1007:D:/Work/DeviceTester/amazon-freertos/lib/shadow\aws_shadow.c ****                         }
1008:D:/Work/DeviceTester/amazon-freertos/lib/shadow\aws_shadow.c ****                     }
1009:D:/Work/DeviceTester/amazon-freertos/lib/shadow\aws_shadow.c ****                 }
1010:D:/Work/DeviceTester/amazon-freertos/lib/shadow\aws_shadow.c **** 
1011:D:/Work/DeviceTester/amazon-freertos/lib/shadow\aws_shadow.c ****                 break;
1012:D:/Work/DeviceTester/amazon-freertos/lib/shadow\aws_shadow.c ****             }
1013:D:/Work/DeviceTester/amazon-freertos/lib/shadow\aws_shadow.c ****         }
1014:D:/Work/DeviceTester/amazon-freertos/lib/shadow\aws_shadow.c ****     }
1015:D:/Work/DeviceTester/amazon-freertos/lib/shadow\aws_shadow.c **** 
1016:D:/Work/DeviceTester/amazon-freertos/lib/shadow\aws_shadow.c ****     if( xTopicFound == pdFALSE )
1017:D:/Work/DeviceTester/amazon-freertos/lib/shadow\aws_shadow.c ****     {
1018:D:/Work/DeviceTester/amazon-freertos/lib/shadow\aws_shadow.c ****         pxReturn = NULL;
1019:D:/Work/DeviceTester/amazon-freertos/lib/shadow\aws_shadow.c ****     }
1020:D:/Work/DeviceTester/amazon-freertos/lib/shadow\aws_shadow.c **** 
1021:D:/Work/DeviceTester/amazon-freertos/lib/shadow\aws_shadow.c ****     return pxReturn;
1022:D:/Work/DeviceTester/amazon-freertos/lib/shadow\aws_shadow.c **** }
1023:D:/Work/DeviceTester/amazon-freertos/lib/shadow\aws_shadow.c **** 
1024:D:/Work/DeviceTester/amazon-freertos/lib/shadow\aws_shadow.c **** /*-----------------------------------------------------------*/
1025:D:/Work/DeviceTester/amazon-freertos/lib/shadow\aws_shadow.c **** 
1026:D:/Work/DeviceTester/amazon-freertos/lib/shadow\aws_shadow.c **** static void prvShadowUpdateCallback( BaseType_t xShadowClientID,
1027:D:/Work/DeviceTester/amazon-freertos/lib/shadow\aws_shadow.c ****                                      ShadowReturnCode_t xResult,
1028:D:/Work/DeviceTester/amazon-freertos/lib/shadow\aws_shadow.c ****                                      const ShadowOperationParams_t * const pxParams,
1029:D:/Work/DeviceTester/amazon-freertos/lib/shadow\aws_shadow.c ****                                      const char * const pcData,
1030:D:/Work/DeviceTester/amazon-freertos/lib/shadow\aws_shadow.c ****                                      uint32_t ulDataLength )
1031:D:/Work/DeviceTester/amazon-freertos/lib/shadow\aws_shadow.c **** {
1032:D:/Work/DeviceTester/amazon-freertos/lib/shadow\aws_shadow.c ****     /* Remove warning about unused parameters. */
1033:D:/Work/DeviceTester/amazon-freertos/lib/shadow\aws_shadow.c ****     ( void ) pxParams;
1034:D:/Work/DeviceTester/amazon-freertos/lib/shadow\aws_shadow.c **** 
1035:D:/Work/DeviceTester/amazon-freertos/lib/shadow\aws_shadow.c ****     ShadowClient_t * pxShadowClient;
1036:D:/Work/DeviceTester/amazon-freertos/lib/shadow\aws_shadow.c **** 
1037:D:/Work/DeviceTester/amazon-freertos/lib/shadow\aws_shadow.c ****     BaseType_t xReturn;
1038:D:/Work/DeviceTester/amazon-freertos/lib/shadow\aws_shadow.c **** 
1039:D:/Work/DeviceTester/amazon-freertos/lib/shadow\aws_shadow.c ****     pxShadowClient = &( xShadowClients[ xShadowClientID ] );
1040:D:/Work/DeviceTester/amazon-freertos/lib/shadow\aws_shadow.c **** 
1041:D:/Work/DeviceTester/amazon-freertos/lib/shadow\aws_shadow.c ****     /* Verify client token match. */
1042:D:/Work/DeviceTester/amazon-freertos/lib/shadow\aws_shadow.c ****     xReturn = SHADOW_JSONDocClientTokenMatch( pxParams->pcData,
1043:D:/Work/DeviceTester/amazon-freertos/lib/shadow\aws_shadow.c ****                                               pxParams->ulDataLength,
1044:D:/Work/DeviceTester/amazon-freertos/lib/shadow\aws_shadow.c ****                                               pcData,
1045:D:/Work/DeviceTester/amazon-freertos/lib/shadow\aws_shadow.c ****                                               ulDataLength );
1046:D:/Work/DeviceTester/amazon-freertos/lib/shadow\aws_shadow.c **** 
1047:D:/Work/DeviceTester/amazon-freertos/lib/shadow\aws_shadow.c ****     if( xReturn == pdPASS )
1048:D:/Work/DeviceTester/amazon-freertos/lib/shadow\aws_shadow.c ****     {
1049:D:/Work/DeviceTester/amazon-freertos/lib/shadow\aws_shadow.c ****         pxShadowClient->xOperationResult = xResult;
1050:D:/Work/DeviceTester/amazon-freertos/lib/shadow\aws_shadow.c **** 
1051:D:/Work/DeviceTester/amazon-freertos/lib/shadow\aws_shadow.c ****         /* For failures, get the code and message. */
1052:D:/Work/DeviceTester/amazon-freertos/lib/shadow\aws_shadow.c ****         if( xResult == eShadowFailure )
1053:D:/Work/DeviceTester/amazon-freertos/lib/shadow\aws_shadow.c ****         {
1054:D:/Work/DeviceTester/amazon-freertos/lib/shadow\aws_shadow.c ****             pxShadowClient->xOperationResult = prvGetErrorCodeAndMessage( pcData,
1055:D:/Work/DeviceTester/amazon-freertos/lib/shadow\aws_shadow.c ****                                                                           ulDataLength,
1056:D:/Work/DeviceTester/amazon-freertos/lib/shadow\aws_shadow.c ****                                                                           xShadowClientID,
1057:D:/Work/DeviceTester/amazon-freertos/lib/shadow\aws_shadow.c ****                                                                           shadowTOPIC_OPERATION_UPD
1058:D:/Work/DeviceTester/amazon-freertos/lib/shadow\aws_shadow.c ****         }
1059:D:/Work/DeviceTester/amazon-freertos/lib/shadow\aws_shadow.c **** 
1060:D:/Work/DeviceTester/amazon-freertos/lib/shadow\aws_shadow.c ****         configASSERT( xSemaphoreGive( pxShadowClient->xCallbackSemaphore ) == pdPASS );
1061:D:/Work/DeviceTester/amazon-freertos/lib/shadow\aws_shadow.c ****     }
1062:D:/Work/DeviceTester/amazon-freertos/lib/shadow\aws_shadow.c **** }
1063:D:/Work/DeviceTester/amazon-freertos/lib/shadow\aws_shadow.c **** 
1064:D:/Work/DeviceTester/amazon-freertos/lib/shadow\aws_shadow.c **** /*-----------------------------------------------------------*/
1065:D:/Work/DeviceTester/amazon-freertos/lib/shadow\aws_shadow.c **** 
1066:D:/Work/DeviceTester/amazon-freertos/lib/shadow\aws_shadow.c **** static void prvShadowGetCallback( BaseType_t xShadowClientID,
1067:D:/Work/DeviceTester/amazon-freertos/lib/shadow\aws_shadow.c ****                                   ShadowReturnCode_t xResult,
1068:D:/Work/DeviceTester/amazon-freertos/lib/shadow\aws_shadow.c ****                                   ShadowOperationParams_t * const pxParams,
1069:D:/Work/DeviceTester/amazon-freertos/lib/shadow\aws_shadow.c ****                                   const char * const pcData,
1070:D:/Work/DeviceTester/amazon-freertos/lib/shadow\aws_shadow.c ****                                   uint32_t ulDataLength,
1071:D:/Work/DeviceTester/amazon-freertos/lib/shadow\aws_shadow.c ****                                   MQTTBufferHandle_t xBuffer )
1072:D:/Work/DeviceTester/amazon-freertos/lib/shadow\aws_shadow.c **** {
1073:D:/Work/DeviceTester/amazon-freertos/lib/shadow\aws_shadow.c ****     ShadowClient_t * pxShadowClient;
1074:D:/Work/DeviceTester/amazon-freertos/lib/shadow\aws_shadow.c **** 
1075:D:/Work/DeviceTester/amazon-freertos/lib/shadow\aws_shadow.c ****     pxShadowClient = &( xShadowClients[ xShadowClientID ] );
1076:D:/Work/DeviceTester/amazon-freertos/lib/shadow\aws_shadow.c ****     pxShadowClient->xOperationResult = xResult;
1077:D:/Work/DeviceTester/amazon-freertos/lib/shadow\aws_shadow.c **** 
1078:D:/Work/DeviceTester/amazon-freertos/lib/shadow\aws_shadow.c **** /* For successes, fill the user's buffer with the Shadow document. */
1079:D:/Work/DeviceTester/amazon-freertos/lib/shadow\aws_shadow.c ****     if( xResult == eShadowSuccess )
1080:D:/Work/DeviceTester/amazon-freertos/lib/shadow\aws_shadow.c ****     {
1081:D:/Work/DeviceTester/amazon-freertos/lib/shadow\aws_shadow.c ****         pxParams->pcData = pcData;
1082:D:/Work/DeviceTester/amazon-freertos/lib/shadow\aws_shadow.c ****         pxParams->ulDataLength = ulDataLength;
1083:D:/Work/DeviceTester/amazon-freertos/lib/shadow\aws_shadow.c ****         pxParams->xBuffer = xBuffer;
1084:D:/Work/DeviceTester/amazon-freertos/lib/shadow\aws_shadow.c ****     }
1085:D:/Work/DeviceTester/amazon-freertos/lib/shadow\aws_shadow.c **** /* For failures , get the code and message. */
1086:D:/Work/DeviceTester/amazon-freertos/lib/shadow\aws_shadow.c ****     else
1087:D:/Work/DeviceTester/amazon-freertos/lib/shadow\aws_shadow.c ****     {
1088:D:/Work/DeviceTester/amazon-freertos/lib/shadow\aws_shadow.c ****         pxShadowClient->xOperationResult = prvGetErrorCodeAndMessage( pcData,
1089:D:/Work/DeviceTester/amazon-freertos/lib/shadow\aws_shadow.c ****                                                                       ulDataLength,
1090:D:/Work/DeviceTester/amazon-freertos/lib/shadow\aws_shadow.c ****                                                                       xShadowClientID,
1091:D:/Work/DeviceTester/amazon-freertos/lib/shadow\aws_shadow.c ****                                                                       shadowTOPIC_OPERATION_GET );
1092:D:/Work/DeviceTester/amazon-freertos/lib/shadow\aws_shadow.c ****         pxParams->pcData = NULL;
1093:D:/Work/DeviceTester/amazon-freertos/lib/shadow\aws_shadow.c ****         pxParams->ulDataLength = 0;
1094:D:/Work/DeviceTester/amazon-freertos/lib/shadow\aws_shadow.c ****     }
1095:D:/Work/DeviceTester/amazon-freertos/lib/shadow\aws_shadow.c **** 
1096:D:/Work/DeviceTester/amazon-freertos/lib/shadow\aws_shadow.c ****     configASSERT( xSemaphoreGive( pxShadowClient->xCallbackSemaphore ) == pdPASS );
1097:D:/Work/DeviceTester/amazon-freertos/lib/shadow\aws_shadow.c **** }
1098:D:/Work/DeviceTester/amazon-freertos/lib/shadow\aws_shadow.c **** /*-----------------------------------------------------------*/
1099:D:/Work/DeviceTester/amazon-freertos/lib/shadow\aws_shadow.c **** 
1100:D:/Work/DeviceTester/amazon-freertos/lib/shadow\aws_shadow.c **** static void prvShadowDeleteCallback( BaseType_t xShadowClientID,
1101:D:/Work/DeviceTester/amazon-freertos/lib/shadow\aws_shadow.c ****                                      ShadowReturnCode_t xResult,
1102:D:/Work/DeviceTester/amazon-freertos/lib/shadow\aws_shadow.c ****                                      const char * const pcData,
1103:D:/Work/DeviceTester/amazon-freertos/lib/shadow\aws_shadow.c ****                                      uint32_t ulDataLength )
1104:D:/Work/DeviceTester/amazon-freertos/lib/shadow\aws_shadow.c **** {
1105:D:/Work/DeviceTester/amazon-freertos/lib/shadow\aws_shadow.c ****     ShadowClient_t * pxShadowClient;
1106:D:/Work/DeviceTester/amazon-freertos/lib/shadow\aws_shadow.c **** 
1107:D:/Work/DeviceTester/amazon-freertos/lib/shadow\aws_shadow.c ****     pxShadowClient = &( xShadowClients[ xShadowClientID ] );
1108:D:/Work/DeviceTester/amazon-freertos/lib/shadow\aws_shadow.c ****     pxShadowClient->xOperationResult = xResult;
1109:D:/Work/DeviceTester/amazon-freertos/lib/shadow\aws_shadow.c **** 
1110:D:/Work/DeviceTester/amazon-freertos/lib/shadow\aws_shadow.c ****     if( xResult == eShadowFailure )
1111:D:/Work/DeviceTester/amazon-freertos/lib/shadow\aws_shadow.c ****     {
1112:D:/Work/DeviceTester/amazon-freertos/lib/shadow\aws_shadow.c ****         pxShadowClient->xOperationResult = prvGetErrorCodeAndMessage( pcData,
1113:D:/Work/DeviceTester/amazon-freertos/lib/shadow\aws_shadow.c ****                                                                       ulDataLength,
1114:D:/Work/DeviceTester/amazon-freertos/lib/shadow\aws_shadow.c ****                                                                       xShadowClientID,
1115:D:/Work/DeviceTester/amazon-freertos/lib/shadow\aws_shadow.c ****                                                                       shadowTOPIC_OPERATION_DELETE 
1116:D:/Work/DeviceTester/amazon-freertos/lib/shadow\aws_shadow.c ****     }
1117:D:/Work/DeviceTester/amazon-freertos/lib/shadow\aws_shadow.c **** 
1118:D:/Work/DeviceTester/amazon-freertos/lib/shadow\aws_shadow.c ****     configASSERT( xSemaphoreGive( pxShadowClient->xCallbackSemaphore ) == pdPASS );
1119:D:/Work/DeviceTester/amazon-freertos/lib/shadow\aws_shadow.c **** }
1120:D:/Work/DeviceTester/amazon-freertos/lib/shadow\aws_shadow.c **** /*-----------------------------------------------------------*/
1121:D:/Work/DeviceTester/amazon-freertos/lib/shadow\aws_shadow.c **** 
1122:D:/Work/DeviceTester/amazon-freertos/lib/shadow\aws_shadow.c **** static ShadowReturnCode_t prvGetErrorCodeAndMessage( const char * const pcData,
1123:D:/Work/DeviceTester/amazon-freertos/lib/shadow\aws_shadow.c ****                                                      uint32_t ulDataLength,
1124:D:/Work/DeviceTester/amazon-freertos/lib/shadow\aws_shadow.c ****                                                      BaseType_t xShadowClientID,
1125:D:/Work/DeviceTester/amazon-freertos/lib/shadow\aws_shadow.c ****                                                      const char * const pcOperationName )
1126:D:/Work/DeviceTester/amazon-freertos/lib/shadow\aws_shadow.c **** {
1127:D:/Work/DeviceTester/amazon-freertos/lib/shadow\aws_shadow.c ****     ShadowReturnCode_t xErrorCode;
1128:D:/Work/DeviceTester/amazon-freertos/lib/shadow\aws_shadow.c ****     char * pcErrorMessage;
1129:D:/Work/DeviceTester/amazon-freertos/lib/shadow\aws_shadow.c ****     uint16_t usErrorMessageLength;
1130:D:/Work/DeviceTester/amazon-freertos/lib/shadow\aws_shadow.c **** 
1131:D:/Work/DeviceTester/amazon-freertos/lib/shadow\aws_shadow.c ****     xErrorCode = ( ShadowReturnCode_t ) SHADOW_JSONGetErrorCodeAndMessage( pcData,
1132:D:/Work/DeviceTester/amazon-freertos/lib/shadow\aws_shadow.c ****                                                                            ulDataLength,
1133:D:/Work/DeviceTester/amazon-freertos/lib/shadow\aws_shadow.c ****                                                                            &pcErrorMessage,
1134:D:/Work/DeviceTester/amazon-freertos/lib/shadow\aws_shadow.c ****                                                                            &usErrorMessageLength );
1135:D:/Work/DeviceTester/amazon-freertos/lib/shadow\aws_shadow.c **** 
1136:D:/Work/DeviceTester/amazon-freertos/lib/shadow\aws_shadow.c ****     if( xErrorCode > 0 )
1137:D:/Work/DeviceTester/amazon-freertos/lib/shadow\aws_shadow.c ****     {
1138:D:/Work/DeviceTester/amazon-freertos/lib/shadow\aws_shadow.c ****         Shadow_debug_printf( ( "[Shadow %d] %s rejected, code %d: %.*s.\r\n",
1139:D:/Work/DeviceTester/amazon-freertos/lib/shadow\aws_shadow.c ****                                xShadowClientID, pcOperationName,
1140:D:/Work/DeviceTester/amazon-freertos/lib/shadow\aws_shadow.c ****                                xErrorCode,
1141:D:/Work/DeviceTester/amazon-freertos/lib/shadow\aws_shadow.c ****                                usErrorMessageLength,
1142:D:/Work/DeviceTester/amazon-freertos/lib/shadow\aws_shadow.c ****                                pcErrorMessage ) );
1143:D:/Work/DeviceTester/amazon-freertos/lib/shadow\aws_shadow.c ****     }
1144:D:/Work/DeviceTester/amazon-freertos/lib/shadow\aws_shadow.c ****     else
1145:D:/Work/DeviceTester/amazon-freertos/lib/shadow\aws_shadow.c ****     {
1146:D:/Work/DeviceTester/amazon-freertos/lib/shadow\aws_shadow.c ****         Shadow_debug_printf( ( "[Shadow %d] JSON parse error while parsing"
1147:D:/Work/DeviceTester/amazon-freertos/lib/shadow\aws_shadow.c ****                                " error code and message.\r\n", xShadowClientID ) );
1148:D:/Work/DeviceTester/amazon-freertos/lib/shadow\aws_shadow.c ****     }
1149:D:/Work/DeviceTester/amazon-freertos/lib/shadow\aws_shadow.c **** 
1150:D:/Work/DeviceTester/amazon-freertos/lib/shadow\aws_shadow.c ****     /* Remove compiler warnings in the case that Shadow_debug_printf() is not
1151:D:/Work/DeviceTester/amazon-freertos/lib/shadow\aws_shadow.c ****      * defined. */
1152:D:/Work/DeviceTester/amazon-freertos/lib/shadow\aws_shadow.c ****     ( void ) pcOperationName;
1153:D:/Work/DeviceTester/amazon-freertos/lib/shadow\aws_shadow.c ****     ( void ) xShadowClientID;
1154:D:/Work/DeviceTester/amazon-freertos/lib/shadow\aws_shadow.c **** 
1155:D:/Work/DeviceTester/amazon-freertos/lib/shadow\aws_shadow.c ****     /* SHADOW_JSONGetErrorCodeAndMessage may return 0 for bad pointer arguments.
1156:D:/Work/DeviceTester/amazon-freertos/lib/shadow\aws_shadow.c ****      * Convert this to a JSON parse error, as 0 is eShadowSuccess. */
1157:D:/Work/DeviceTester/amazon-freertos/lib/shadow\aws_shadow.c ****     if( xErrorCode == 0 )
1158:D:/Work/DeviceTester/amazon-freertos/lib/shadow\aws_shadow.c ****     {
1159:D:/Work/DeviceTester/amazon-freertos/lib/shadow\aws_shadow.c ****         xErrorCode = eShadowJSMNInval;
1160:D:/Work/DeviceTester/amazon-freertos/lib/shadow\aws_shadow.c ****     }
1161:D:/Work/DeviceTester/amazon-freertos/lib/shadow\aws_shadow.c **** 
1162:D:/Work/DeviceTester/amazon-freertos/lib/shadow\aws_shadow.c ****     return xErrorCode;
1163:D:/Work/DeviceTester/amazon-freertos/lib/shadow\aws_shadow.c **** }
1164:D:/Work/DeviceTester/amazon-freertos/lib/shadow\aws_shadow.c **** 
1165:D:/Work/DeviceTester/amazon-freertos/lib/shadow\aws_shadow.c **** /*-----------------------------------------------------------*/
1166:D:/Work/DeviceTester/amazon-freertos/lib/shadow\aws_shadow.c **** 
1167:D:/Work/DeviceTester/amazon-freertos/lib/shadow\aws_shadow.c **** static ShadowReturnCode_t prvShadowOperation( ShadowOperationCallParams_t * pxParams )
1168:D:/Work/DeviceTester/amazon-freertos/lib/shadow\aws_shadow.c **** {
1169:D:/Work/DeviceTester/amazon-freertos/lib/shadow\aws_shadow.c ****     ShadowReturnCode_t xReturn = eShadowFailure;
1170:D:/Work/DeviceTester/amazon-freertos/lib/shadow\aws_shadow.c ****     MQTTAgentPublishParams_t xPublishParams;
1171:D:/Work/DeviceTester/amazon-freertos/lib/shadow\aws_shadow.c ****     ShadowClient_t * pxShadowClient;
1172:D:/Work/DeviceTester/amazon-freertos/lib/shadow\aws_shadow.c ****     TimeOutData_t xTimeOutData;
1173:D:/Work/DeviceTester/amazon-freertos/lib/shadow\aws_shadow.c ****     ShadowOperationData_t xOperationData;
1174:D:/Work/DeviceTester/amazon-freertos/lib/shadow\aws_shadow.c ****     MQTTAgentReturnCode_t xMQTTReturn;
1175:D:/Work/DeviceTester/amazon-freertos/lib/shadow\aws_shadow.c **** 
1176:D:/Work/DeviceTester/amazon-freertos/lib/shadow\aws_shadow.c ****     /* Initialize timeout data. */
1177:D:/Work/DeviceTester/amazon-freertos/lib/shadow\aws_shadow.c ****     xTimeOutData.xTicksRemaining = pxParams->xTimeoutTicks;
1178:D:/Work/DeviceTester/amazon-freertos/lib/shadow\aws_shadow.c **** 
1179:D:/Work/DeviceTester/amazon-freertos/lib/shadow\aws_shadow.c ****     /* Identify the relevant Shadow Client, then lock that client's operation mutex.
1180:D:/Work/DeviceTester/amazon-freertos/lib/shadow\aws_shadow.c ****      * This allows only one operation to be in progress. */
1181:D:/Work/DeviceTester/amazon-freertos/lib/shadow\aws_shadow.c ****     pxShadowClient = &( xShadowClients[ ( pxParams->xShadowClientID ) ] );
1182:D:/Work/DeviceTester/amazon-freertos/lib/shadow\aws_shadow.c **** 
1183:D:/Work/DeviceTester/amazon-freertos/lib/shadow\aws_shadow.c ****     if( xSemaphoreTake( pxShadowClient->xOperationMutex,
1184:D:/Work/DeviceTester/amazon-freertos/lib/shadow\aws_shadow.c ****                         xTimeOutData.xTicksRemaining ) == pdPASS )
1185:D:/Work/DeviceTester/amazon-freertos/lib/shadow\aws_shadow.c ****     {
1186:D:/Work/DeviceTester/amazon-freertos/lib/shadow\aws_shadow.c ****         /* Subscribe to accepted/rejected if necessary. */
1187:D:/Work/DeviceTester/amazon-freertos/lib/shadow\aws_shadow.c ****         if( ( BaseType_t ) prvGetSubscribedFlag( pxShadowClient,
1188:D:/Work/DeviceTester/amazon-freertos/lib/shadow\aws_shadow.c ****                                                  pxParams->xOperationName ) == pdFALSE )
1189:D:/Work/DeviceTester/amazon-freertos/lib/shadow\aws_shadow.c ****         {
1190:D:/Work/DeviceTester/amazon-freertos/lib/shadow\aws_shadow.c ****             xReturn = prvShadowSubscribeToAcceptedRejected( pxParams->xShadowClientID,
1191:D:/Work/DeviceTester/amazon-freertos/lib/shadow\aws_shadow.c ****                                                             ( pxParams->pxOperationParams )->pcThin
1192:D:/Work/DeviceTester/amazon-freertos/lib/shadow\aws_shadow.c ****                                                             pxParams->pcOperationAcceptedTopic,
1193:D:/Work/DeviceTester/amazon-freertos/lib/shadow\aws_shadow.c ****                                                             pxParams->pcOperationRejectedTopic,
1194:D:/Work/DeviceTester/amazon-freertos/lib/shadow\aws_shadow.c ****                                                             &xTimeOutData );
1195:D:/Work/DeviceTester/amazon-freertos/lib/shadow\aws_shadow.c ****         }
1196:D:/Work/DeviceTester/amazon-freertos/lib/shadow\aws_shadow.c ****         else
1197:D:/Work/DeviceTester/amazon-freertos/lib/shadow\aws_shadow.c ****         {
1198:D:/Work/DeviceTester/amazon-freertos/lib/shadow\aws_shadow.c ****             xReturn = eShadowSuccess;
1199:D:/Work/DeviceTester/amazon-freertos/lib/shadow\aws_shadow.c ****         }
1200:D:/Work/DeviceTester/amazon-freertos/lib/shadow\aws_shadow.c **** 
1201:D:/Work/DeviceTester/amazon-freertos/lib/shadow\aws_shadow.c ****         if( xReturn == eShadowSuccess )
1202:D:/Work/DeviceTester/amazon-freertos/lib/shadow\aws_shadow.c ****         {
1203:D:/Work/DeviceTester/amazon-freertos/lib/shadow\aws_shadow.c ****             /* The subscribe to update/accepted and update/rejected succeeded,
1204:D:/Work/DeviceTester/amazon-freertos/lib/shadow\aws_shadow.c ****              * so set the appropriate flag. */
1205:D:/Work/DeviceTester/amazon-freertos/lib/shadow\aws_shadow.c ****             prvSetSubscribedFlag( pxShadowClient, pxParams->xOperationName, 1 );
1206:D:/Work/DeviceTester/amazon-freertos/lib/shadow\aws_shadow.c **** 
1207:D:/Work/DeviceTester/amazon-freertos/lib/shadow\aws_shadow.c ****             /* This is guarded by xOperationMutex and should never fail. */
1208:D:/Work/DeviceTester/amazon-freertos/lib/shadow\aws_shadow.c ****             configASSERT( xSemaphoreTake( pxShadowClient->xCallbackSemaphore,
1209:D:/Work/DeviceTester/amazon-freertos/lib/shadow\aws_shadow.c ****                                           xTimeOutData.xTicksRemaining ) == pdPASS );
1210:D:/Work/DeviceTester/amazon-freertos/lib/shadow\aws_shadow.c **** 
1211:D:/Work/DeviceTester/amazon-freertos/lib/shadow\aws_shadow.c ****             /* Fill ucTopicBuffer with the update topic. */
1212:D:/Work/DeviceTester/amazon-freertos/lib/shadow\aws_shadow.c ****             xPublishParams.usTopicLength =
1213:D:/Work/DeviceTester/amazon-freertos/lib/shadow\aws_shadow.c ****                 prvCreateTopic( ( char * ) pxShadowClient->ucTopicBuffer,
1214:D:/Work/DeviceTester/amazon-freertos/lib/shadow\aws_shadow.c ****                                 shadowTOPIC_BUFFER_LENGTH,
1215:D:/Work/DeviceTester/amazon-freertos/lib/shadow\aws_shadow.c ****                                 pxParams->pcOperationTopic,
1216:D:/Work/DeviceTester/amazon-freertos/lib/shadow\aws_shadow.c ****                                 ( pxParams->pxOperationParams )->pcThingName );
1217:D:/Work/DeviceTester/amazon-freertos/lib/shadow\aws_shadow.c **** 
1218:D:/Work/DeviceTester/amazon-freertos/lib/shadow\aws_shadow.c ****             /* Operation parameters. */
1219:D:/Work/DeviceTester/amazon-freertos/lib/shadow\aws_shadow.c ****             xPublishParams.pucTopic = pxShadowClient->ucTopicBuffer;
1220:D:/Work/DeviceTester/amazon-freertos/lib/shadow\aws_shadow.c ****             xPublishParams.pvData = pxParams->pcPublishMessage;
1221:D:/Work/DeviceTester/amazon-freertos/lib/shadow\aws_shadow.c ****             xPublishParams.ulDataLength = pxParams->ulPublishMessageLength;
1222:D:/Work/DeviceTester/amazon-freertos/lib/shadow\aws_shadow.c ****             xPublishParams.xQoS = ( pxParams->pxOperationParams )->xQoS;
1223:D:/Work/DeviceTester/amazon-freertos/lib/shadow\aws_shadow.c **** 
1224:D:/Work/DeviceTester/amazon-freertos/lib/shadow\aws_shadow.c ****             /* Data to pass to the callback. */
1225:D:/Work/DeviceTester/amazon-freertos/lib/shadow\aws_shadow.c ****             xOperationData.xOperationInProgress = pxParams->xOperationName;
1226:D:/Work/DeviceTester/amazon-freertos/lib/shadow\aws_shadow.c ****             xOperationData.pxOperationParams = pxParams->pxOperationParams;
1227:D:/Work/DeviceTester/amazon-freertos/lib/shadow\aws_shadow.c ****             pxShadowClient->pxOperationData = &xOperationData;
1228:D:/Work/DeviceTester/amazon-freertos/lib/shadow\aws_shadow.c **** 
1229:D:/Work/DeviceTester/amazon-freertos/lib/shadow\aws_shadow.c ****             xMQTTReturn = MQTT_AGENT_Publish( pxShadowClient->xMQTTClient,
1230:D:/Work/DeviceTester/amazon-freertos/lib/shadow\aws_shadow.c ****                                               &xPublishParams,
1231:D:/Work/DeviceTester/amazon-freertos/lib/shadow\aws_shadow.c ****                                               xTimeOutData.xTicksRemaining );
1232:D:/Work/DeviceTester/amazon-freertos/lib/shadow\aws_shadow.c **** 
1233:D:/Work/DeviceTester/amazon-freertos/lib/shadow\aws_shadow.c ****             /* Publish to operation topic. */
1234:D:/Work/DeviceTester/amazon-freertos/lib/shadow\aws_shadow.c ****             xReturn = prvConvertMQTTReturnCode( xMQTTReturn,
1235:D:/Work/DeviceTester/amazon-freertos/lib/shadow\aws_shadow.c ****                                                 ( ShadowClientHandle_t ) ( pxParams->xShadowClientI
1236:D:/Work/DeviceTester/amazon-freertos/lib/shadow\aws_shadow.c ****                                                 "Publish to operation topic" );
1237:D:/Work/DeviceTester/amazon-freertos/lib/shadow\aws_shadow.c **** 
1238:D:/Work/DeviceTester/amazon-freertos/lib/shadow\aws_shadow.c ****             if( xReturn == eShadowSuccess )
1239:D:/Work/DeviceTester/amazon-freertos/lib/shadow\aws_shadow.c ****             {
1240:D:/Work/DeviceTester/amazon-freertos/lib/shadow\aws_shadow.c ****                 /* Wait for the semaphore to become available again; it should be
1241:D:/Work/DeviceTester/amazon-freertos/lib/shadow\aws_shadow.c ****                  * released by the update callback. */
1242:D:/Work/DeviceTester/amazon-freertos/lib/shadow\aws_shadow.c ****                 if( xSemaphoreTake( pxShadowClient->xCallbackSemaphore,
1243:D:/Work/DeviceTester/amazon-freertos/lib/shadow\aws_shadow.c ****                                     xTimeOutData.xTicksRemaining ) != pdPASS )
1244:D:/Work/DeviceTester/amazon-freertos/lib/shadow\aws_shadow.c ****                 {
1245:D:/Work/DeviceTester/amazon-freertos/lib/shadow\aws_shadow.c ****                     Shadow_debug_printf( ( "[Shadow %d] Timeout waiting on"
1246:D:/Work/DeviceTester/amazon-freertos/lib/shadow\aws_shadow.c ****                                            " %s accepted/rejected.\r\n",
1247:D:/Work/DeviceTester/amazon-freertos/lib/shadow\aws_shadow.c ****                                            pxParams->xShadowClientID,
1248:D:/Work/DeviceTester/amazon-freertos/lib/shadow\aws_shadow.c ****                                            pxParams->pcOperationName ) );
1249:D:/Work/DeviceTester/amazon-freertos/lib/shadow\aws_shadow.c ****                     xReturn = eShadowTimeout;
1250:D:/Work/DeviceTester/amazon-freertos/lib/shadow\aws_shadow.c ****                 }
1251:D:/Work/DeviceTester/amazon-freertos/lib/shadow\aws_shadow.c ****                 else
1252:D:/Work/DeviceTester/amazon-freertos/lib/shadow\aws_shadow.c ****                 {
1253:D:/Work/DeviceTester/amazon-freertos/lib/shadow\aws_shadow.c ****                     /* The update callback reports its status as xOperationResult. */
1254:D:/Work/DeviceTester/amazon-freertos/lib/shadow\aws_shadow.c ****                     xReturn = pxShadowClient->xOperationResult;
1255:D:/Work/DeviceTester/amazon-freertos/lib/shadow\aws_shadow.c ****                 }
1256:D:/Work/DeviceTester/amazon-freertos/lib/shadow\aws_shadow.c ****             }
1257:D:/Work/DeviceTester/amazon-freertos/lib/shadow\aws_shadow.c **** 
1258:D:/Work/DeviceTester/amazon-freertos/lib/shadow\aws_shadow.c ****             configASSERT( xSemaphoreGive( pxShadowClient->xCallbackSemaphore ) == pdPASS );
1259:D:/Work/DeviceTester/amazon-freertos/lib/shadow\aws_shadow.c ****         }
1260:D:/Work/DeviceTester/amazon-freertos/lib/shadow\aws_shadow.c **** 
1261:D:/Work/DeviceTester/amazon-freertos/lib/shadow\aws_shadow.c ****         /* Unsubscribe. */
1262:D:/Work/DeviceTester/amazon-freertos/lib/shadow\aws_shadow.c ****         if( ( pxParams->pxOperationParams )->ucKeepSubscriptions == ( uint8_t ) 0 )
1263:D:/Work/DeviceTester/amazon-freertos/lib/shadow\aws_shadow.c ****         {
1264:D:/Work/DeviceTester/amazon-freertos/lib/shadow\aws_shadow.c ****             xTimeOutData.xTicksRemaining = configMAX( xTimeOutData.xTicksRemaining,
1265:D:/Work/DeviceTester/amazon-freertos/lib/shadow\aws_shadow.c ****                                                       pdMS_TO_TICKS( shadowconfigCLEANUP_TIME_MS ) 
1266:D:/Work/DeviceTester/amazon-freertos/lib/shadow\aws_shadow.c **** 
1267:D:/Work/DeviceTester/amazon-freertos/lib/shadow\aws_shadow.c ****             /* If the Shadow client is subscribed to delete/accepted for this
1268:D:/Work/DeviceTester/amazon-freertos/lib/shadow\aws_shadow.c ****              * Thing for a user notify callback, do not unsubscribe; that would
1269:D:/Work/DeviceTester/amazon-freertos/lib/shadow\aws_shadow.c ****              * break callback notify. */
1270:D:/Work/DeviceTester/amazon-freertos/lib/shadow\aws_shadow.c ****             if( pxParams->xOperationName == eShadowOperationDelete )
1271:D:/Work/DeviceTester/amazon-freertos/lib/shadow\aws_shadow.c ****             {
1272:D:/Work/DeviceTester/amazon-freertos/lib/shadow\aws_shadow.c ****                 ( void ) prvCreateTopic( ( char * ) pxShadowClient->ucTopicBuffer,
1273:D:/Work/DeviceTester/amazon-freertos/lib/shadow\aws_shadow.c ****                                          shadowTOPIC_BUFFER_LENGTH,
1274:D:/Work/DeviceTester/amazon-freertos/lib/shadow\aws_shadow.c ****                                          shadowTOPIC_DELETE_ACCEPTED,
1275:D:/Work/DeviceTester/amazon-freertos/lib/shadow\aws_shadow.c ****                                          pxParams->pxOperationParams->pcThingName );
1276:D:/Work/DeviceTester/amazon-freertos/lib/shadow\aws_shadow.c **** 
1277:D:/Work/DeviceTester/amazon-freertos/lib/shadow\aws_shadow.c ****                 /* If there's a callback registered for delete/accepted, only
1278:D:/Work/DeviceTester/amazon-freertos/lib/shadow\aws_shadow.c ****                  * unsubscribe from delete/rejected. */
1279:D:/Work/DeviceTester/amazon-freertos/lib/shadow\aws_shadow.c ****                 if( prvMatchCallbackTopic( pxShadowClient,
1280:D:/Work/DeviceTester/amazon-freertos/lib/shadow\aws_shadow.c ****                                            pxShadowClient->ucTopicBuffer,
1281:D:/Work/DeviceTester/amazon-freertos/lib/shadow\aws_shadow.c ****                                            ( uint16_t )
1282:D:/Work/DeviceTester/amazon-freertos/lib/shadow\aws_shadow.c ****                                            strlen( ( const char * ) pxShadowClient->ucTopicBuffer )
1283:D:/Work/DeviceTester/amazon-freertos/lib/shadow\aws_shadow.c ****                                            NULL ) == NULL )
1284:D:/Work/DeviceTester/amazon-freertos/lib/shadow\aws_shadow.c ****                 {
1285:D:/Work/DeviceTester/amazon-freertos/lib/shadow\aws_shadow.c ****                     if( prvShadowUnsubscribeFromAcceptedRejected( pxParams->xShadowClientID,
1286:D:/Work/DeviceTester/amazon-freertos/lib/shadow\aws_shadow.c ****                                                                   pxParams->pxOperationParams->pcTh
1287:D:/Work/DeviceTester/amazon-freertos/lib/shadow\aws_shadow.c ****                                                                   NULL,
1288:D:/Work/DeviceTester/amazon-freertos/lib/shadow\aws_shadow.c ****                                                                   pxParams->pcOperationRejectedTopi
1289:D:/Work/DeviceTester/amazon-freertos/lib/shadow\aws_shadow.c ****                                                                   &xTimeOutData ) == eShadowSuccess
1290:D:/Work/DeviceTester/amazon-freertos/lib/shadow\aws_shadow.c ****                     {
1291:D:/Work/DeviceTester/amazon-freertos/lib/shadow\aws_shadow.c ****                         prvSetSubscribedFlag( pxShadowClient,
1292:D:/Work/DeviceTester/amazon-freertos/lib/shadow\aws_shadow.c ****                                               pxParams->xOperationName,
1293:D:/Work/DeviceTester/amazon-freertos/lib/shadow\aws_shadow.c ****                                               0 );
1294:D:/Work/DeviceTester/amazon-freertos/lib/shadow\aws_shadow.c ****                     }
1295:D:/Work/DeviceTester/amazon-freertos/lib/shadow\aws_shadow.c ****                 }
1296:D:/Work/DeviceTester/amazon-freertos/lib/shadow\aws_shadow.c ****             }
1297:D:/Work/DeviceTester/amazon-freertos/lib/shadow\aws_shadow.c ****             else
1298:D:/Work/DeviceTester/amazon-freertos/lib/shadow\aws_shadow.c ****             {
1299:D:/Work/DeviceTester/amazon-freertos/lib/shadow\aws_shadow.c ****                 if( prvShadowUnsubscribeFromAcceptedRejected( pxParams->xShadowClientID,
1300:D:/Work/DeviceTester/amazon-freertos/lib/shadow\aws_shadow.c ****                                                               pxParams->pxOperationParams->pcThingN
1301:D:/Work/DeviceTester/amazon-freertos/lib/shadow\aws_shadow.c ****                                                               pxParams->pcOperationAcceptedTopic,
1302:D:/Work/DeviceTester/amazon-freertos/lib/shadow\aws_shadow.c ****                                                               pxParams->pcOperationRejectedTopic,
1303:D:/Work/DeviceTester/amazon-freertos/lib/shadow\aws_shadow.c ****                                                               &xTimeOutData ) == eShadowSuccess )
1304:D:/Work/DeviceTester/amazon-freertos/lib/shadow\aws_shadow.c ****                 {
1305:D:/Work/DeviceTester/amazon-freertos/lib/shadow\aws_shadow.c ****                     prvSetSubscribedFlag( pxShadowClient,
1306:D:/Work/DeviceTester/amazon-freertos/lib/shadow\aws_shadow.c ****                                           pxParams->xOperationName,
1307:D:/Work/DeviceTester/amazon-freertos/lib/shadow\aws_shadow.c ****                                           0 );
1308:D:/Work/DeviceTester/amazon-freertos/lib/shadow\aws_shadow.c ****                 }
1309:D:/Work/DeviceTester/amazon-freertos/lib/shadow\aws_shadow.c ****             }
1310:D:/Work/DeviceTester/amazon-freertos/lib/shadow\aws_shadow.c ****         }
1311:D:/Work/DeviceTester/amazon-freertos/lib/shadow\aws_shadow.c **** 
1312:D:/Work/DeviceTester/amazon-freertos/lib/shadow\aws_shadow.c ****         /* Delete this operation's data so that the next operation has a clean Shadow
1313:D:/Work/DeviceTester/amazon-freertos/lib/shadow\aws_shadow.c ****          * Client, then release the operation mutex. */
1314:D:/Work/DeviceTester/amazon-freertos/lib/shadow\aws_shadow.c ****         if( xSemaphoreTake( pxShadowClient->xOperationDataMutex,
1315:D:/Work/DeviceTester/amazon-freertos/lib/shadow\aws_shadow.c ****                             portMAX_DELAY ) == pdPASS )
1316:D:/Work/DeviceTester/amazon-freertos/lib/shadow\aws_shadow.c ****         {
1317:D:/Work/DeviceTester/amazon-freertos/lib/shadow\aws_shadow.c ****             pxShadowClient->pxOperationData = NULL;
1318:D:/Work/DeviceTester/amazon-freertos/lib/shadow\aws_shadow.c ****             configASSERT( xSemaphoreGive( pxShadowClient->xOperationDataMutex ) == pdPASS );
1319:D:/Work/DeviceTester/amazon-freertos/lib/shadow\aws_shadow.c ****         }
1320:D:/Work/DeviceTester/amazon-freertos/lib/shadow\aws_shadow.c ****         else
1321:D:/Work/DeviceTester/amazon-freertos/lib/shadow\aws_shadow.c ****         {
1322:D:/Work/DeviceTester/amazon-freertos/lib/shadow\aws_shadow.c ****             Shadow_debug_printf( ( "Error while taking mutex\n" ) );
1323:D:/Work/DeviceTester/amazon-freertos/lib/shadow\aws_shadow.c ****             configASSERT( 0 );
1324:D:/Work/DeviceTester/amazon-freertos/lib/shadow\aws_shadow.c ****         }
1325:D:/Work/DeviceTester/amazon-freertos/lib/shadow\aws_shadow.c **** 
1326:D:/Work/DeviceTester/amazon-freertos/lib/shadow\aws_shadow.c ****         pxShadowClient->xOperationResult = eShadowSuccess;
1327:D:/Work/DeviceTester/amazon-freertos/lib/shadow\aws_shadow.c ****         memset( pxShadowClient->ucTopicBuffer, 0, shadowTOPIC_BUFFER_LENGTH );
1328:D:/Work/DeviceTester/amazon-freertos/lib/shadow\aws_shadow.c ****         configASSERT( xSemaphoreGive( pxShadowClient->xOperationMutex )
1329:D:/Work/DeviceTester/amazon-freertos/lib/shadow\aws_shadow.c ****                       == pdPASS );
1330:D:/Work/DeviceTester/amazon-freertos/lib/shadow\aws_shadow.c ****     }
1331:D:/Work/DeviceTester/amazon-freertos/lib/shadow\aws_shadow.c **** 
1332:D:/Work/DeviceTester/amazon-freertos/lib/shadow\aws_shadow.c ****     return xReturn;
1333:D:/Work/DeviceTester/amazon-freertos/lib/shadow\aws_shadow.c **** }
1334:D:/Work/DeviceTester/amazon-freertos/lib/shadow\aws_shadow.c **** 
1335:D:/Work/DeviceTester/amazon-freertos/lib/shadow\aws_shadow.c **** /*-----------------------------------------------------------*/
1336:D:/Work/DeviceTester/amazon-freertos/lib/shadow\aws_shadow.c **** 
1337:D:/Work/DeviceTester/amazon-freertos/lib/shadow\aws_shadow.c **** static void prvSetSubscribedFlag( ShadowClient_t * const pxShadowClient,
1338:D:/Work/DeviceTester/amazon-freertos/lib/shadow\aws_shadow.c ****                                   ShadowOperationName_t xOperationName,
1339:D:/Work/DeviceTester/amazon-freertos/lib/shadow\aws_shadow.c ****                                   BaseType_t xValue )
1340:D:/Work/DeviceTester/amazon-freertos/lib/shadow\aws_shadow.c **** {
  25              		.loc 1 1340 0
  26              		.cfi_startproc
  27              		@ args = 0, pretend = 0, frame = 0
  28              		@ frame_needed = 0, uses_anonymous_args = 0
  29              		@ link register save eliminated.
  30              	.LVL0:
1341:D:/Work/DeviceTester/amazon-freertos/lib/shadow\aws_shadow.c ****     switch( xOperationName )
  31              		.loc 1 1341 0
  32 0000 010051E3 		cmp	r1, #1
  33 0004 0500000A 		beq	.L3
  34 0008 0200003A 		bcc	.L4
  35 000c 020051E3 		cmp	r1, #2
  36 0010 0400000A 		beq	.L5
  37 0014 1EFF2FE1 		bx	lr
  38              	.L4:
1342:D:/Work/DeviceTester/amazon-freertos/lib/shadow\aws_shadow.c ****     {
1343:D:/Work/DeviceTester/amazon-freertos/lib/shadow\aws_shadow.c ****         case eShadowOperationUpdate:
1344:D:/Work/DeviceTester/amazon-freertos/lib/shadow\aws_shadow.c ****             pxShadowClient->xUpdateSubscribed = xValue;
  39              		.loc 1 1344 0
  40 0018 082080E5 		str	r2, [r0, #8]
1345:D:/Work/DeviceTester/amazon-freertos/lib/shadow\aws_shadow.c ****             break;
  41              		.loc 1 1345 0
  42 001c 1EFF2FE1 		bx	lr
  43              	.L3:
1346:D:/Work/DeviceTester/amazon-freertos/lib/shadow\aws_shadow.c **** 
1347:D:/Work/DeviceTester/amazon-freertos/lib/shadow\aws_shadow.c ****         case eShadowOperationGet:
1348:D:/Work/DeviceTester/amazon-freertos/lib/shadow\aws_shadow.c ****             pxShadowClient->xGetSubscribed = xValue;
  44              		.loc 1 1348 0
  45 0020 0C2080E5 		str	r2, [r0, #12]
1349:D:/Work/DeviceTester/amazon-freertos/lib/shadow\aws_shadow.c ****             break;
  46              		.loc 1 1349 0
  47 0024 1EFF2FE1 		bx	lr
  48              	.L5:
1350:D:/Work/DeviceTester/amazon-freertos/lib/shadow\aws_shadow.c **** 
1351:D:/Work/DeviceTester/amazon-freertos/lib/shadow\aws_shadow.c ****         case eShadowOperationDelete:
1352:D:/Work/DeviceTester/amazon-freertos/lib/shadow\aws_shadow.c ****             pxShadowClient->xDeleteSubscribed = xValue;
  49              		.loc 1 1352 0
  50 0028 102080E5 		str	r2, [r0, #16]
  51 002c 1EFF2FE1 		bx	lr
  52              		.cfi_endproc
  53              	.LFE16:
  55              		.section	.text.prvConvertMQTTReturnCode.isra.0,"ax",%progbits
  56              		.align	2
  57              		.syntax unified
  58              		.arm
  59              		.fpu neon
  61              	prvConvertMQTTReturnCode.isra.0:
  62              	.LFB27:
 417:D:/Work/DeviceTester/amazon-freertos/lib/shadow\aws_shadow.c ****                                                     ShadowClientHandle_t xShadowClientHandle,
  63              		.loc 1 417 0
  64              		.cfi_startproc
  65              		@ args = 0, pretend = 0, frame = 0
  66              		@ frame_needed = 0, uses_anonymous_args = 0
  67              		@ link register save eliminated.
  68              	.LVL1:
 423:D:/Work/DeviceTester/amazon-freertos/lib/shadow\aws_shadow.c ****     {
  69              		.loc 1 423 0
  70 0000 000050E3 		cmp	r0, #0
  71              	.LVL2:
  72 0004 1EFF2F01 		bxeq	lr
  73 0008 020050E3 		cmp	r0, #2
 444:D:/Work/DeviceTester/amazon-freertos/lib/shadow\aws_shadow.c ****             break;
  74              		.loc 1 444 0
  75 000c 0100A003 		moveq	r0, #1
  76 0010 0200A013 		movne	r0, #2
  77              	.LVL3:
 453:D:/Work/DeviceTester/amazon-freertos/lib/shadow\aws_shadow.c **** 
  78              		.loc 1 453 0
  79 0014 1EFF2FE1 		bx	lr
  80              		.cfi_endproc
  81              	.LFE27:
  83              		.section	.text.prvGetErrorCodeAndMessage.isra.1,"ax",%progbits
  84              		.align	2
  85              		.syntax unified
  86              		.arm
  87              		.fpu neon
  89              	prvGetErrorCodeAndMessage.isra.1:
  90              	.LFB28:
1122:D:/Work/DeviceTester/amazon-freertos/lib/shadow\aws_shadow.c ****                                                      uint32_t ulDataLength,
  91              		.loc 1 1122 0
  92              		.cfi_startproc
  93              		@ args = 0, pretend = 0, frame = 8
  94              		@ frame_needed = 0, uses_anonymous_args = 0
  95              	.LVL4:
  96 0000 07402DE9 		push	{r0, r1, r2, lr}
  97              		.cfi_def_cfa_offset 16
  98              		.cfi_offset 14, -4
1131:D:/Work/DeviceTester/amazon-freertos/lib/shadow\aws_shadow.c ****                                                                            ulDataLength,
  99              		.loc 1 1131 0
 100 0004 02308DE2 		add	r3, sp, #2
 101 0008 04208DE2 		add	r2, sp, #4
 102 000c FEFFFFEB 		bl	SHADOW_JSONGetErrorCodeAndMessage
 103              	.LVL5:
1157:D:/Work/DeviceTester/amazon-freertos/lib/shadow\aws_shadow.c ****     {
 104              		.loc 1 1157 0
 105 0010 000050E3 		cmp	r0, #0
 106              	.LVL6:
1163:D:/Work/DeviceTester/amazon-freertos/lib/shadow\aws_shadow.c **** 
 107              		.loc 1 1163 0
 108 0014 0100E003 		mvneq	r0, #1
 109              	.LVL7:
 110 0018 0CD08DE2 		add	sp, sp, #12
 111              		.cfi_def_cfa_offset 4
 112              		@ sp needed
 113 001c 04F09DE4 		ldr	pc, [sp], #4
 114              		.cfi_endproc
 115              	.LFE28:
 117              		.section	.text.prvCreateTopic.constprop.5,"ax",%progbits
 118              		.align	2
 119              		.syntax unified
 120              		.arm
 121              		.fpu neon
 123              	prvCreateTopic.constprop.5:
 124              	.LFB32:
 457:D:/Work/DeviceTester/amazon-freertos/lib/shadow\aws_shadow.c ****                                 const uint16_t usBufferLength,
 125              		.loc 1 457 0
 126              		.cfi_startproc
 127              		@ args = 0, pretend = 0, frame = 0
 128              		@ frame_needed = 0, uses_anonymous_args = 0
 129              	.LVL8:
 130 0000 F0472DE9 		push	{r4, r5, r6, r7, r8, r9, r10, lr}
 131              		.cfi_def_cfa_offset 32
 132              		.cfi_offset 4, -32
 133              		.cfi_offset 5, -28
 134              		.cfi_offset 6, -24
 135              		.cfi_offset 7, -20
 136              		.cfi_offset 8, -16
 137              		.cfi_offset 9, -12
 138              		.cfi_offset 10, -8
 139              		.cfi_offset 14, -4
 457:D:/Work/DeviceTester/amazon-freertos/lib/shadow\aws_shadow.c ****                                 const uint16_t usBufferLength,
 140              		.loc 1 457 0
 141 0004 0250A0E1 		mov	r5, r2
 142 0008 0040A0E1 		mov	r4, r0
 471:D:/Work/DeviceTester/amazon-freertos/lib/shadow\aws_shadow.c ****     usThingNameSize = ( uint16_t ) strlen( pcThingName );
 143              		.loc 1 471 0
 144 000c 0100A0E1 		mov	r0, r1
 145              	.LVL9:
 457:D:/Work/DeviceTester/amazon-freertos/lib/shadow\aws_shadow.c ****                                 const uint16_t usBufferLength,
 146              		.loc 1 457 0
 147 0010 0180A0E1 		mov	r8, r1
 471:D:/Work/DeviceTester/amazon-freertos/lib/shadow\aws_shadow.c ****     usThingNameSize = ( uint16_t ) strlen( pcThingName );
 148              		.loc 1 471 0
 149 0014 FEFFFFEB 		bl	strlen
 150              	.LVL10:
 151 0018 0070A0E1 		mov	r7, r0
 152              	.LVL11:
 472:D:/Work/DeviceTester/amazon-freertos/lib/shadow\aws_shadow.c **** 
 153              		.loc 1 472 0
 154 001c 0500A0E1 		mov	r0, r5
 155 0020 FEFFFFEB 		bl	strlen
 156              	.LVL12:
 475:D:/Work/DeviceTester/amazon-freertos/lib/shadow\aws_shadow.c ****     {
 157              		.loc 1 475 0
 158 0024 7030FFE6 		uxth	r3, r0
 159 0028 7730F3E6 		uxtah	r3, r3, r7
 160 002c A60053E3 		cmp	r3, #166
 161 0030 230000CA 		bgt	.L22
 472:D:/Work/DeviceTester/amazon-freertos/lib/shadow\aws_shadow.c **** 
 162              		.loc 1 472 0
 163 0034 7060FFE6 		uxth	r6, r0
 482:D:/Work/DeviceTester/amazon-freertos/lib/shadow\aws_shadow.c **** 
 164              		.loc 1 482 0
 165 0038 020043E2 		sub	r0, r3, #2
 166              	.LVL13:
 471:D:/Work/DeviceTester/amazon-freertos/lib/shadow\aws_shadow.c ****     usThingNameSize = ( uint16_t ) strlen( pcThingName );
 167              		.loc 1 471 0
 168 003c 7770FFE6 		uxth	r7, r7
 482:D:/Work/DeviceTester/amazon-freertos/lib/shadow\aws_shadow.c **** 
 169              		.loc 1 482 0
 170 0040 7000FFE6 		uxth	r0, r0
 171              	.LVL14:
 172 0044 018048E2 		sub	r8, r8, #1
 173              	.LVL15:
 174 0048 04C0A0E1 		mov	ip, r4
 469:D:/Work/DeviceTester/amazon-freertos/lib/shadow\aws_shadow.c **** 
 175              		.loc 1 469 0
 176 004c 3090A0E3 		mov	r9, #48
 467:D:/Work/DeviceTester/amazon-freertos/lib/shadow\aws_shadow.c ****     char cCurrentChar;
 177              		.loc 1 467 0
 178 0050 0030A0E3 		mov	r3, #0
 501:D:/Work/DeviceTester/amazon-freertos/lib/shadow\aws_shadow.c ****         }
 179              		.loc 1 501 0
 180 0054 011046E2 		sub	r1, r6, #1
 181              	.LVL16:
 182              	.L16:
 484:D:/Work/DeviceTester/amazon-freertos/lib/shadow\aws_shadow.c ****          usTopicFormatIdx < usTopicFormatSize;
 183              		.loc 1 484 0
 184 0058 04204CE0 		sub	r2, ip, r4
 185 005c 7220FFE6 		uxth	r2, r2
 186 0060 020057E1 		cmp	r7, r2
 187 0064 0200008A 		bhi	.L21
 512:D:/Work/DeviceTester/amazon-freertos/lib/shadow\aws_shadow.c **** 
 188              		.loc 1 512 0
 189 0068 0020A0E3 		mov	r2, #0
 190 006c 0320C4E7 		strb	r2, [r4, r3]
 191 0070 F087BDE8 		pop	{r4, r5, r6, r7, r8, r9, r10, pc}
 192              	.L21:
 488:D:/Work/DeviceTester/amazon-freertos/lib/shadow\aws_shadow.c **** 
 193              		.loc 1 488 0
 194 0074 01E0F8E5 		ldrb	lr, [r8, #1]!	@ zero_extendqisi2
 195              	.LVL17:
 490:D:/Work/DeviceTester/amazon-freertos/lib/shadow\aws_shadow.c ****         {
 196              		.loc 1 490 0
 197 0078 250059E3 		cmp	r9, #37
 198 007c 73005E03 		cmpeq	lr, #115
 199 0080 0020A003 		moveq	r2, #0
 200 0084 0600000A 		beq	.L18
 505:D:/Work/DeviceTester/amazon-freertos/lib/shadow\aws_shadow.c ****             usTopicIdx++;
 201              		.loc 1 505 0
 202 0088 03E0C4E7 		strb	lr, [r4, r3]
 506:D:/Work/DeviceTester/amazon-freertos/lib/shadow\aws_shadow.c ****         }
 203              		.loc 1 506 0
 204 008c 013083E2 		add	r3, r3, #1
 205              	.LVL18:
 206 0090 070000EA 		b	.L24
 207              	.LVL19:
 208              	.L19:
 497:D:/Work/DeviceTester/amazon-freertos/lib/shadow\aws_shadow.c ****             }
 209              		.loc 1 497 0
 210 0094 02A0D5E7 		ldrb	r10, [r5, r2]	@ zero_extendqisi2
 211 0098 02908CE0 		add	r9, ip, r2
 212 009c 012082E2 		add	r2, r2, #1
 213              	.LVL20:
 214 00a0 01A049E5 		strb	r10, [r9, #-1]
 215              	.L18:
 216              	.LVL21:
 492:D:/Work/DeviceTester/amazon-freertos/lib/shadow\aws_shadow.c ****                  usThingIdx < usThingNameSize;
 217              		.loc 1 492 0
 218 00a4 7290FFE6 		uxth	r9, r2
 219 00a8 090056E1 		cmp	r6, r9
 220 00ac F8FFFF8A 		bhi	.L19
 501:D:/Work/DeviceTester/amazon-freertos/lib/shadow\aws_shadow.c ****         }
 221              		.loc 1 501 0
 222 00b0 013083E0 		add	r3, r3, r1
 223              	.LVL22:
 224              	.L24:
 506:D:/Work/DeviceTester/amazon-freertos/lib/shadow\aws_shadow.c ****         }
 225              		.loc 1 506 0
 226 00b4 7330FFE6 		uxth	r3, r3
 227              	.LVL23:
 228 00b8 01C08CE2 		add	ip, ip, #1
 488:D:/Work/DeviceTester/amazon-freertos/lib/shadow\aws_shadow.c **** 
 229              		.loc 1 488 0
 230 00bc 0E90A0E1 		mov	r9, lr
 231 00c0 E4FFFFEA 		b	.L16
 232              	.LVL24:
 233              	.L22:
 477:D:/Work/DeviceTester/amazon-freertos/lib/shadow\aws_shadow.c ****     }
 234              		.loc 1 477 0
 235 00c4 0000A0E3 		mov	r0, #0
 236              	.LVL25:
 515:D:/Work/DeviceTester/amazon-freertos/lib/shadow\aws_shadow.c **** 
 237              		.loc 1 515 0
 238 00c8 F087BDE8 		pop	{r4, r5, r6, r7, r8, r9, r10, pc}
 239              		.cfi_endproc
 240              	.LFE32:
 242              		.section	.text.prvRegisterCallback,"ax",%progbits
 243              		.align	2
 244              		.syntax unified
 245              		.arm
 246              		.fpu neon
 248              	prvRegisterCallback:
 249              	.LFB5:
 525:D:/Work/DeviceTester/amazon-freertos/lib/shadow\aws_shadow.c ****     uint8_t ucTopicString[ shadowTOPIC_BUFFER_LENGTH ];
 250              		.loc 1 525 0
 251              		.cfi_startproc
 252              		@ args = 8, pretend = 0, frame = 192
 253              		@ frame_needed = 0, uses_anonymous_args = 0
 254              	.LVL26:
 255 0000 F0412DE9 		push	{r4, r5, r6, r7, r8, lr}
 256              		.cfi_def_cfa_offset 24
 257              		.cfi_offset 4, -24
 258              		.cfi_offset 5, -20
 259              		.cfi_offset 6, -16
 260              		.cfi_offset 7, -12
 261              		.cfi_offset 8, -8
 262              		.cfi_offset 14, -4
 263 0004 C0D04DE2 		sub	sp, sp, #192
 264              		.cfi_def_cfa_offset 216
 534:D:/Work/DeviceTester/amazon-freertos/lib/shadow\aws_shadow.c ****                                     ( const char * ) pucTopicFormat, pcThingName );
 265              		.loc 1 534 0
 266 0008 18408DE2 		add	r4, sp, #24
 525:D:/Work/DeviceTester/amazon-freertos/lib/shadow\aws_shadow.c ****     uint8_t ucTopicString[ shadowTOPIC_BUFFER_LENGTH ];
 267              		.loc 1 525 0
 268 000c 0150A0E1 		mov	r5, r1
 269 0010 0070A0E1 		mov	r7, r0
 270 0014 0260A0E1 		mov	r6, r2
 534:D:/Work/DeviceTester/amazon-freertos/lib/shadow\aws_shadow.c ****                                     ( const char * ) pucTopicFormat, pcThingName );
 271              		.loc 1 534 0
 272 0018 D8109DE5 		ldr	r1, [sp, #216]
 273              	.LVL27:
 274 001c 0320A0E1 		mov	r2, r3
 275              	.LVL28:
 276 0020 0400A0E1 		mov	r0, r4
 277              	.LVL29:
 278 0024 FEFFFFEB 		bl	prvCreateTopic.constprop.5
 279              	.LVL30:
 280 0028 0080A0E1 		mov	r8, r0
 281              	.LVL31:
 538:D:/Work/DeviceTester/amazon-freertos/lib/shadow\aws_shadow.c ****     {
 282              		.loc 1 538 0
 283 002c 000095E5 		ldr	r0, [r5]
 284 0030 000050E3 		cmp	r0, #0
 285 0034 0900000A 		beq	.L26
 543:D:/Work/DeviceTester/amazon-freertos/lib/shadow\aws_shadow.c ****                                               &xUnsubscribeParams,
 286              		.loc 1 543 0
 287 0038 753FA0E3 		mov	r3, #468
 288 003c 78009FE5 		ldr	r0, .L34
 289 0040 930703E0 		mul	r3, r3, r7
 541:D:/Work/DeviceTester/amazon-freertos/lib/shadow\aws_shadow.c **** 
 290              		.loc 1 541 0
 291 0044 C0108DE2 		add	r1, sp, #192
 292 0048 C04021E5 		str	r4, [r1, #-192]!
 543:D:/Work/DeviceTester/amazon-freertos/lib/shadow\aws_shadow.c ****                                               &xUnsubscribeParams,
 293              		.loc 1 543 0
 294 004c DC209DE5 		ldr	r2, [sp, #220]
 540:D:/Work/DeviceTester/amazon-freertos/lib/shadow\aws_shadow.c ****         xUnsubscribeParams.pucTopic = ucTopicString;
 295              		.loc 1 540 0
 296 0050 B480CDE1 		strh	r8, [sp, #4]	@ movhi
 543:D:/Work/DeviceTester/amazon-freertos/lib/shadow\aws_shadow.c ****                                               &xUnsubscribeParams,
 297              		.loc 1 543 0
 298 0054 030090E7 		ldr	r0, [r0, r3]
 299 0058 FEFFFFEB 		bl	MQTT_AGENT_Unsubscribe
 300              	.LVL32:
 547:D:/Work/DeviceTester/amazon-freertos/lib/shadow\aws_shadow.c ****                                             ( ShadowClientHandle_t ) xShadowClientID, /*lint !e923 
 301              		.loc 1 547 0
 302 005c FEFFFFEB 		bl	prvConvertMQTTReturnCode.isra.0
 303              	.LVL33:
 304              	.L26:
 553:D:/Work/DeviceTester/amazon-freertos/lib/shadow\aws_shadow.c ****     {
 305              		.loc 1 553 0
 306 0060 003096E5 		ldr	r3, [r6]
 307 0064 000053E3 		cmp	r3, #0
 308 0068 0E00000A 		beq	.L27
 559:D:/Work/DeviceTester/amazon-freertos/lib/shadow\aws_shadow.c ****             xSubscribeParams.pxPublishCallback = NULL;
 309              		.loc 1 559 0
 310 006c 0030A0E3 		mov	r3, #0
 566:D:/Work/DeviceTester/amazon-freertos/lib/shadow\aws_shadow.c ****                                             &xSubscribeParams,
 311              		.loc 1 566 0
 312 0070 750FA0E3 		mov	r0, #468
 313              	.LVL34:
 559:D:/Work/DeviceTester/amazon-freertos/lib/shadow\aws_shadow.c ****             xSubscribeParams.pxPublishCallback = NULL;
 314              		.loc 1 559 0
 315 0074 10308DE5 		str	r3, [sp, #16]
 566:D:/Work/DeviceTester/amazon-freertos/lib/shadow\aws_shadow.c ****                                             &xSubscribeParams,
 316              		.loc 1 566 0
 317 0078 900700E0 		mul	r0, r0, r7
 560:D:/Work/DeviceTester/amazon-freertos/lib/shadow\aws_shadow.c ****         #endif /* mqttconfigENABLE_SUBSCRIPTION_MANAGEMENT */
 318              		.loc 1 560 0
 319 007c 14308DE5 		str	r3, [sp, #20]
 564:D:/Work/DeviceTester/amazon-freertos/lib/shadow\aws_shadow.c **** 
 320              		.loc 1 564 0
 321 0080 0130A0E3 		mov	r3, #1
 322 0084 0E30CDE5 		strb	r3, [sp, #14]
 566:D:/Work/DeviceTester/amazon-freertos/lib/shadow\aws_shadow.c ****                                             &xSubscribeParams,
 323              		.loc 1 566 0
 324 0088 08108DE2 		add	r1, sp, #8
 325 008c 28309FE5 		ldr	r3, .L34
 326 0090 DC209DE5 		ldr	r2, [sp, #220]
 555:D:/Work/DeviceTester/amazon-freertos/lib/shadow\aws_shadow.c ****         xSubscribeParams.pucTopic = ucTopicString;
 327              		.loc 1 555 0
 328 0094 BC80CDE1 		strh	r8, [sp, #12]	@ movhi
 566:D:/Work/DeviceTester/amazon-freertos/lib/shadow\aws_shadow.c ****                                             &xSubscribeParams,
 329              		.loc 1 566 0
 330 0098 000093E7 		ldr	r0, [r3, r0]
 556:D:/Work/DeviceTester/amazon-freertos/lib/shadow\aws_shadow.c **** 
 331              		.loc 1 556 0
 332 009c 08408DE5 		str	r4, [sp, #8]
 566:D:/Work/DeviceTester/amazon-freertos/lib/shadow\aws_shadow.c ****                                             &xSubscribeParams,
 333              		.loc 1 566 0
 334 00a0 FEFFFFEB 		bl	MQTT_AGENT_Subscribe
 335              	.LVL35:
 570:D:/Work/DeviceTester/amazon-freertos/lib/shadow\aws_shadow.c ****                                             ( ShadowClientHandle_t ) xShadowClientID, /*lint !e923 
 336              		.loc 1 570 0
 337 00a4 FEFFFFEB 		bl	prvConvertMQTTReturnCode.isra.0
 338              	.LVL36:
 339              	.L27:
 576:D:/Work/DeviceTester/amazon-freertos/lib/shadow\aws_shadow.c ****     {
 340              		.loc 1 576 0
 341 00a8 000050E3 		cmp	r0, #0
 342              	.LVL37:
 578:D:/Work/DeviceTester/amazon-freertos/lib/shadow\aws_shadow.c ****     }
 343              		.loc 1 578 0
 344 00ac 00309605 		ldreq	r3, [r6]
 345 00b0 00308505 		streq	r3, [r5]
 582:D:/Work/DeviceTester/amazon-freertos/lib/shadow\aws_shadow.c **** 
 346              		.loc 1 582 0
 347 00b4 C0D08DE2 		add	sp, sp, #192
 348              		.cfi_def_cfa_offset 24
 349              		@ sp needed
 350 00b8 F081BDE8 		pop	{r4, r5, r6, r7, r8, pc}
 351              	.LVL38:
 352              	.L35:
 353              		.align	2
 354              	.L34:
 355 00bc 00000000 		.word	.LANCHOR0
 356              		.cfi_endproc
 357              	.LFE5:
 359              		.section	.text.prvShadowUnsubscribeFromAcceptedRejected.isra.3,"ax",%progbits
 360              		.align	2
 361              		.syntax unified
 362              		.arm
 363              		.fpu neon
 365              	prvShadowUnsubscribeFromAcceptedRejected.isra.3:
 366              	.LFB30:
 667:D:/Work/DeviceTester/amazon-freertos/lib/shadow\aws_shadow.c ****                                                                     xShadowClientID,
 367              		.loc 1 667 0
 368              		.cfi_startproc
 369              		@ args = 4, pretend = 0, frame = 8
 370              		@ frame_needed = 0, uses_anonymous_args = 0
 371              	.LVL39:
 372 0000 F3472DE9 		push	{r0, r1, r4, r5, r6, r7, r8, r9, r10, lr}
 373              		.cfi_def_cfa_offset 40
 374              		.cfi_offset 4, -32
 375              		.cfi_offset 5, -28
 376              		.cfi_offset 6, -24
 377              		.cfi_offset 7, -20
 378              		.cfi_offset 8, -16
 379              		.cfi_offset 9, -12
 380              		.cfi_offset 10, -8
 381              		.cfi_offset 14, -4
 683:D:/Work/DeviceTester/amazon-freertos/lib/shadow\aws_shadow.c **** 
 382              		.loc 1 683 0
 383 0004 756FA0E3 		mov	r6, #468
 384 0008 960006E0 		mul	r6, r6, r0
 385 000c 90409FE5 		ldr	r4, .L41
 667:D:/Work/DeviceTester/amazon-freertos/lib/shadow\aws_shadow.c ****                                                                     xShadowClientID,
 386              		.loc 1 667 0
 387 0010 01A0A0E1 		mov	r10, r1
 685:D:/Work/DeviceTester/amazon-freertos/lib/shadow\aws_shadow.c ****     {
 388              		.loc 1 685 0
 389 0014 001052E2 		subs	r1, r2, #0
 390              	.LVL40:
 667:D:/Work/DeviceTester/amazon-freertos/lib/shadow\aws_shadow.c ****                                                                     xShadowClientID,
 391              		.loc 1 667 0
 392 0018 0080A0E1 		mov	r8, r0
 393 001c 28709DE5 		ldr	r7, [sp, #40]
 394 0020 0390A0E1 		mov	r9, r3
 675:D:/Work/DeviceTester/amazon-freertos/lib/shadow\aws_shadow.c ****     ShadowClient_t * pxShadowClient;
 395              		.loc 1 675 0
 396 0024 0200A003 		moveq	r0, #2
 397              	.LVL41:
 683:D:/Work/DeviceTester/amazon-freertos/lib/shadow\aws_shadow.c **** 
 398              		.loc 1 683 0
 399 0028 4B5F86E2 		add	r5, r6, #300
 400 002c 055084E0 		add	r5, r4, r5
 401 0030 00508DE5 		str	r5, [sp]
 685:D:/Work/DeviceTester/amazon-freertos/lib/shadow\aws_shadow.c ****     {
 402              		.loc 1 685 0
 403 0034 0800000A 		beq	.L37
 688:D:/Work/DeviceTester/amazon-freertos/lib/shadow\aws_shadow.c ****                                                            shadowTOPIC_BUFFER_LENGTH,
 404              		.loc 1 688 0
 405 0038 0A20A0E1 		mov	r2, r10
 406              	.LVL42:
 407 003c 0500A0E1 		mov	r0, r5
 408 0040 FEFFFFEB 		bl	prvCreateTopic.constprop.5
 409              	.LVL43:
 693:D:/Work/DeviceTester/amazon-freertos/lib/shadow\aws_shadow.c ****                                               &xUnsubscribeParams,
 410              		.loc 1 693 0
 411 0044 002097E5 		ldr	r2, [r7]
 412 0048 0D10A0E1 		mov	r1, sp
 688:D:/Work/DeviceTester/amazon-freertos/lib/shadow\aws_shadow.c ****                                                            shadowTOPIC_BUFFER_LENGTH,
 413              		.loc 1 688 0
 414 004c B400CDE1 		strh	r0, [sp, #4]	@ movhi
 693:D:/Work/DeviceTester/amazon-freertos/lib/shadow\aws_shadow.c ****                                               &xUnsubscribeParams,
 415              		.loc 1 693 0
 416 0050 060094E7 		ldr	r0, [r4, r6]
 417 0054 FEFFFFEB 		bl	MQTT_AGENT_Unsubscribe
 418              	.LVL44:
 697:D:/Work/DeviceTester/amazon-freertos/lib/shadow\aws_shadow.c ****                                             ( ShadowClientHandle_t ) xShadowClientID, /*lint !e923 
 419              		.loc 1 697 0
 420 0058 FEFFFFEB 		bl	prvConvertMQTTReturnCode.isra.0
 421              	.LVL45:
 422              	.L37:
 702:D:/Work/DeviceTester/amazon-freertos/lib/shadow\aws_shadow.c ****     {
 423              		.loc 1 702 0
 424 005c 000059E3 		cmp	r9, #0
 425 0060 0D00000A 		beq	.L38
 705:D:/Work/DeviceTester/amazon-freertos/lib/shadow\aws_shadow.c ****                                                            shadowTOPIC_BUFFER_LENGTH,
 426              		.loc 1 705 0
 427 0064 0A20A0E1 		mov	r2, r10
 428 0068 0910A0E1 		mov	r1, r9
 429 006c 0500A0E1 		mov	r0, r5
 430              	.LVL46:
 431 0070 FEFFFFEB 		bl	prvCreateTopic.constprop.5
 432              	.LVL47:
 433 0074 B400CDE1 		strh	r0, [sp, #4]	@ movhi
 710:D:/Work/DeviceTester/amazon-freertos/lib/shadow\aws_shadow.c ****                                               &xUnsubscribeParams,
 434              		.loc 1 710 0
 435 0078 750FA0E3 		mov	r0, #468
 436 007c 900800E0 		mul	r0, r0, r8
 437 0080 002097E5 		ldr	r2, [r7]
 438 0084 0D10A0E1 		mov	r1, sp
 439 0088 000094E7 		ldr	r0, [r4, r0]
 440 008c FEFFFFEB 		bl	MQTT_AGENT_Unsubscribe
 441              	.LVL48:
 720:D:/Work/DeviceTester/amazon-freertos/lib/shadow\aws_shadow.c **** /*-----------------------------------------------------------*/
 442              		.loc 1 720 0
 443 0090 08D08DE2 		add	sp, sp, #8
 444              		.cfi_remember_state
 445              		.cfi_def_cfa_offset 32
 446              		@ sp needed
 447 0094 F047BDE8 		pop	{r4, r5, r6, r7, r8, r9, r10, lr}
 448              		.cfi_restore 14
 449              		.cfi_restore 10
 450              		.cfi_restore 9
 451              		.cfi_restore 8
 452              		.cfi_restore 7
 453              		.cfi_restore 6
 454              		.cfi_restore 5
 455              		.cfi_restore 4
 456              		.cfi_def_cfa_offset 0
 457              	.LVL49:
 714:D:/Work/DeviceTester/amazon-freertos/lib/shadow\aws_shadow.c ****                                             ( ShadowClientHandle_t ) xShadowClientID, /*lint !e923 
 458              		.loc 1 714 0
 459 0098 FEFFFFEA 		b	prvConvertMQTTReturnCode.isra.0
 460              	.LVL50:
 461              	.L38:
 462              		.cfi_restore_state
 720:D:/Work/DeviceTester/amazon-freertos/lib/shadow\aws_shadow.c **** /*-----------------------------------------------------------*/
 463              		.loc 1 720 0
 464 009c 08D08DE2 		add	sp, sp, #8
 465              		.cfi_def_cfa_offset 32
 466              		@ sp needed
 467 00a0 F087BDE8 		pop	{r4, r5, r6, r7, r8, r9, r10, pc}
 468              	.LVL51:
 469              	.L42:
 470              		.align	2
 471              	.L41:
 472 00a4 00000000 		.word	.LANCHOR0
 473              		.cfi_endproc
 474              	.LFE30:
 476              		.section	.text.prvMatchCallbackTopic,"ax",%progbits
 477              		.align	2
 478              		.syntax unified
 479              		.arm
 480              		.fpu neon
 482              	prvMatchCallbackTopic:
 483              	.LFB10:
 938:D:/Work/DeviceTester/amazon-freertos/lib/shadow\aws_shadow.c ****     const CallbackCatalogEntry_t * pxReturn = NULL;
 484              		.loc 1 938 0
 485              		.cfi_startproc
 486              		@ args = 0, pretend = 0, frame = 168
 487              		@ frame_needed = 0, uses_anonymous_args = 0
 488              	.LVL52:
 948:D:/Work/DeviceTester/amazon-freertos/lib/shadow\aws_shadow.c ****         {
 489              		.loc 1 948 0
 490 0000 28C190E5 		ldr	ip, [r0, #296]
 938:D:/Work/DeviceTester/amazon-freertos/lib/shadow\aws_shadow.c ****     const CallbackCatalogEntry_t * pxReturn = NULL;
 491              		.loc 1 938 0
 492 0004 F0412DE9 		push	{r4, r5, r6, r7, r8, lr}
 493              		.cfi_def_cfa_offset 24
 494              		.cfi_offset 4, -24
 495              		.cfi_offset 5, -20
 496              		.cfi_offset 6, -16
 497              		.cfi_offset 7, -12
 498              		.cfi_offset 8, -8
 499              		.cfi_offset 14, -4
 500 0008 A8D04DE2 		sub	sp, sp, #168
 501              		.cfi_def_cfa_offset 192
 948:D:/Work/DeviceTester/amazon-freertos/lib/shadow\aws_shadow.c ****         {
 502              		.loc 1 948 0
 503 000c 01005CE3 		cmp	ip, #1
 504 0010 0300000A 		beq	.L44
 505              	.LVL53:
 506              	.L46:
1018:D:/Work/DeviceTester/amazon-freertos/lib/shadow\aws_shadow.c ****     }
 507              		.loc 1 1018 0
 508 0014 0080A0E3 		mov	r8, #0
 509              	.LVL54:
 510              	.L43:
1022:D:/Work/DeviceTester/amazon-freertos/lib/shadow\aws_shadow.c **** 
 511              		.loc 1 1022 0
 512 0018 0800A0E1 		mov	r0, r8
 513 001c A8D08DE2 		add	sp, sp, #168
 514              		.cfi_remember_state
 515              		.cfi_def_cfa_offset 24
 516              		@ sp needed
 517 0020 F081BDE8 		pop	{r4, r5, r6, r7, r8, pc}
 518              	.LVL55:
 519              	.L44:
 520              		.cfi_restore_state
 521 0024 0170A0E1 		mov	r7, r1
 522 0028 468F80E2 		add	r8, r0, #280
 950:D:/Work/DeviceTester/amazon-freertos/lib/shadow\aws_shadow.c ****                                              shadowTOPIC_BUFFER_LENGTH,
 523              		.loc 1 950 0
 524 002c D8109FE5 		ldr	r1, .L55
 525              	.LVL56:
 526 0030 0240A0E1 		mov	r4, r2
 527 0034 0050A0E1 		mov	r5, r0
 528 0038 182190E5 		ldr	r2, [r0, #280]
 529              	.LVL57:
 530 003c 0D00A0E1 		mov	r0, sp
 531              	.LVL58:
 532 0040 0360A0E1 		mov	r6, r3
 533 0044 FEFFFFEB 		bl	prvCreateTopic.constprop.5
 534              	.LVL59:
 954:D:/Work/DeviceTester/amazon-freertos/lib/shadow\aws_shadow.c ****                          ( const char * ) pucTopic,
 535              		.loc 1 954 0
 536 0048 0710A0E1 		mov	r1, r7
 537 004c 0020A0E1 		mov	r2, r0
 538 0050 0D00A0E1 		mov	r0, sp
 539              	.LVL60:
 540 0054 FEFFFFEB 		bl	strncmp
 541              	.LVL61:
 542 0058 000050E3 		cmp	r0, #0
 543 005c ECFFFF1A 		bne	.L46
 544              	.LVL62:
 960:D:/Work/DeviceTester/amazon-freertos/lib/shadow\aws_shadow.c ****                                                  shadowTOPIC_BUFFER_LENGTH, shadowTOPIC_UPDATE_DOCU
 545              		.loc 1 960 0
 546 0060 182195E5 		ldr	r2, [r5, #280]
 547 0064 0D00A0E1 		mov	r0, sp
 548 0068 A0109FE5 		ldr	r1, .L55+4
 549 006c FEFFFFEB 		bl	prvCreateTopic.constprop.5
 550              	.LVL63:
 964:D:/Work/DeviceTester/amazon-freertos/lib/shadow\aws_shadow.c **** 
 551              		.loc 1 964 0
 552 0070 040050E1 		cmp	r0, r4
 553 0074 0020A021 		movcs	r2, r0
 554 0078 0420A031 		movcc	r2, r4
 555              	.LVL64:
 966:D:/Work/DeviceTester/amazon-freertos/lib/shadow\aws_shadow.c ****                 {
 556              		.loc 1 966 0
 557 007c 000056E3 		cmp	r6, #0
 558 0080 E4FFFF0A 		beq	.L43
 968:D:/Work/DeviceTester/amazon-freertos/lib/shadow\aws_shadow.c ****                                  ( const char * ) pucTopic,
 559              		.loc 1 968 0
 560 0084 0710A0E1 		mov	r1, r7
 561 0088 0D00A0E1 		mov	r0, sp
 562 008c FEFFFFEB 		bl	strncmp
 563              	.LVL65:
 564 0090 000050E3 		cmp	r0, #0
 972:D:/Work/DeviceTester/amazon-freertos/lib/shadow\aws_shadow.c ****                     }
 565              		.loc 1 972 0
 566 0094 0330A003 		moveq	r3, #3
 968:D:/Work/DeviceTester/amazon-freertos/lib/shadow\aws_shadow.c ****                                  ( const char * ) pucTopic,
 567              		.loc 1 968 0
 568 0098 1900000A 		beq	.L54
 976:D:/Work/DeviceTester/amazon-freertos/lib/shadow\aws_shadow.c ****                                                          shadowTOPIC_BUFFER_LENGTH, shadowTOPIC_UPD
 569              		.loc 1 976 0
 570 009c 182195E5 		ldr	r2, [r5, #280]
 571 00a0 0D00A0E1 		mov	r0, sp
 572 00a4 68109FE5 		ldr	r1, .L55+8
 573 00a8 FEFFFFEB 		bl	prvCreateTopic.constprop.5
 574              	.LVL66:
 982:D:/Work/DeviceTester/amazon-freertos/lib/shadow\aws_shadow.c ****                                      ( const char * ) pucTopic,
 575              		.loc 1 982 0
 576 00ac 000054E1 		cmp	r4, r0
 577 00b0 0710A0E1 		mov	r1, r7
 578 00b4 0020A031 		movcc	r2, r0
 579 00b8 0420A021 		movcs	r2, r4
 580 00bc 0D00A0E1 		mov	r0, sp
 581              	.LVL67:
 582 00c0 FEFFFFEB 		bl	strncmp
 583              	.LVL68:
 584 00c4 000050E3 		cmp	r0, #0
 986:D:/Work/DeviceTester/amazon-freertos/lib/shadow\aws_shadow.c ****                         }
 585              		.loc 1 986 0
 586 00c8 0430A003 		moveq	r3, #4
 982:D:/Work/DeviceTester/amazon-freertos/lib/shadow\aws_shadow.c ****                                      ( const char * ) pucTopic,
 587              		.loc 1 982 0
 588 00cc 0C00000A 		beq	.L54
 990:D:/Work/DeviceTester/amazon-freertos/lib/shadow\aws_shadow.c ****                                                              shadowTOPIC_BUFFER_LENGTH,
 589              		.loc 1 990 0
 590 00d0 182195E5 		ldr	r2, [r5, #280]
 591 00d4 0D00A0E1 		mov	r0, sp
 592 00d8 38109FE5 		ldr	r1, .L55+12
 593 00dc FEFFFFEB 		bl	prvCreateTopic.constprop.5
 594              	.LVL69:
 997:D:/Work/DeviceTester/amazon-freertos/lib/shadow\aws_shadow.c ****                                          ( const char * ) pucTopic,
 595              		.loc 1 997 0
 596 00e0 000054E1 		cmp	r4, r0
 597 00e4 0710A0E1 		mov	r1, r7
 598 00e8 0020A031 		movcc	r2, r0
 599 00ec 0420A021 		movcs	r2, r4
 600 00f0 0D00A0E1 		mov	r0, sp
 601              	.LVL70:
 602 00f4 FEFFFFEB 		bl	strncmp
 603              	.LVL71:
 604 00f8 000050E3 		cmp	r0, #0
1001:D:/Work/DeviceTester/amazon-freertos/lib/shadow\aws_shadow.c ****                             }
 605              		.loc 1 1001 0
 606 00fc 0530A003 		moveq	r3, #5
1005:D:/Work/DeviceTester/amazon-freertos/lib/shadow\aws_shadow.c ****                             }
 607              		.loc 1 1005 0
 608 0100 0630A013 		movne	r3, #6
 609              	.L54:
 610 0104 0030C6E5 		strb	r3, [r6]
 611              	.LVL72:
1021:D:/Work/DeviceTester/amazon-freertos/lib/shadow\aws_shadow.c **** }
 612              		.loc 1 1021 0
 613 0108 C2FFFFEA 		b	.L43
 614              	.L56:
 615              		.align	2
 616              	.L55:
 617 010c 00000000 		.word	.LC0
 618 0110 17000000 		.word	.LC1
 619 0114 3E000000 		.word	.LC2
 620 0118 61000000 		.word	.LC3
 621              		.cfi_endproc
 622              	.LFE10:
 624              		.section	.text.prvShadowMQTTCallback,"ax",%progbits
 625              		.align	2
 626              		.syntax unified
 627              		.arm
 628              		.fpu neon
 630              	prvShadowMQTTCallback:
 631              	.LFB8:
 725:D:/Work/DeviceTester/amazon-freertos/lib/shadow\aws_shadow.c ****     BaseType_t xOperationMatched = pdFALSE;
 632              		.loc 1 725 0
 633              		.cfi_startproc
 634              		@ args = 0, pretend = 0, frame = 16
 635              		@ frame_needed = 0, uses_anonymous_args = 0
 636              	.LVL73:
 637 0000 F04F2DE9 		push	{r4, r5, r6, r7, r8, r9, r10, fp, lr}
 638              		.cfi_def_cfa_offset 36
 639              		.cfi_offset 4, -36
 640              		.cfi_offset 5, -32
 641              		.cfi_offset 6, -28
 642              		.cfi_offset 7, -24
 643              		.cfi_offset 8, -20
 644              		.cfi_offset 9, -16
 645              		.cfi_offset 10, -12
 646              		.cfi_offset 11, -8
 647              		.cfi_offset 14, -4
 648 0004 1CD04DE2 		sub	sp, sp, #28
 649              		.cfi_def_cfa_offset 64
 740:D:/Work/DeviceTester/amazon-freertos/lib/shadow\aws_shadow.c ****     {
 650              		.loc 1 740 0
 651 0008 0040D1E5 		ldrb	r4, [r1]	@ zero_extendqisi2
 737:D:/Work/DeviceTester/amazon-freertos/lib/shadow\aws_shadow.c ****     pxShadowClient = &( xShadowClients[ xShadowClientID ] );
 652              		.loc 1 737 0
 653 000c 006090E5 		ldr	r6, [r0]
 654              	.LVL74:
 740:D:/Work/DeviceTester/amazon-freertos/lib/shadow\aws_shadow.c ****     {
 655              		.loc 1 740 0
 656 0010 000054E3 		cmp	r4, #0
 657 0014 B500001A 		bne	.L58
 658 0018 75AFA0E3 		mov	r10, #468
 751:D:/Work/DeviceTester/amazon-freertos/lib/shadow\aws_shadow.c ****                             portMAX_DELAY ) == pdPASS )
 659              		.loc 1 751 0
 660 001c F4729FE5 		ldr	r7, .L110
 661 0020 9A060AE0 		mul	r10, r10, r6
 662 0024 0150A0E1 		mov	r5, r1
 663              	.LVL75:
 664 0028 0090A0E1 		mov	r9, r0
 665 002c 0010E0E3 		mvn	r1, #0
 666              	.LVL76:
 667 0030 0A8087E0 		add	r8, r7, r10
 668 0034 140098E5 		ldr	r0, [r8, #20]
 669              	.LVL77:
 670 0038 FEFFFFEB 		bl	xQueueSemaphoreTake
 671              	.LVL78:
 672 003c 010050E3 		cmp	r0, #1
 673 0040 8500001A 		bne	.L59
 754:D:/Work/DeviceTester/amazon-freertos/lib/shadow\aws_shadow.c ****             {
 674              		.loc 1 754 0
 675 0044 10B198E5 		ldr	fp, [r8, #272]
 676 0048 00005BE3 		cmp	fp, #0
 677 004c 7500000A 		beq	.L60
 759:D:/Work/DeviceTester/amazon-freertos/lib/shadow\aws_shadow.c ****                                                         ( BaseType_t ) pxPublishData->usTopicLength
 678              		.loc 1 759 0
 679 0050 4B1F8AE2 		add	r1, r10, #300
 680 0054 011087E0 		add	r1, r7, r1
 681 0058 0100A0E1 		mov	r0, r1
 682 005c 0C108DE5 		str	r1, [sp, #12]
 683 0060 FEFFFFEB 		bl	strlen
 684              	.LVL79:
 685 0064 BC80D5E1 		ldrh	r8, [r5, #12]
 686              	.LVL80:
 762:D:/Work/DeviceTester/amazon-freertos/lib/shadow\aws_shadow.c ****                              ( const char * ) pxShadowClient->ucTopicBuffer,
 687              		.loc 1 762 0
 688 0068 084095E5 		ldr	r4, [r5, #8]
 689 006c 0C109DE5 		ldr	r1, [sp, #12]
 690 0070 080050E1 		cmp	r0, r8
 691 0074 0020A0B1 		movlt	r2, r0
 692 0078 0820A0A1 		movge	r2, r8
 693 007c 0400A0E1 		mov	r0, r4
 694              	.LVL81:
 695 0080 FEFFFFEB 		bl	strncmp
 696              	.LVL82:
 697 0084 000050E3 		cmp	r0, #0
 698 0088 6600001A 		bne	.L60
 767:D:/Work/DeviceTester/amazon-freertos/lib/shadow\aws_shadow.c ****                     xResult = prvParseShadowOperationStatus( pxPublishData->pucTopic,
 699              		.loc 1 767 0
 700 008c 0030DBE5 		ldrb	r3, [fp]	@ zero_extendqisi2
 701              	.LBB22:
 702              	.LBB23:
 908:D:/Work/DeviceTester/amazon-freertos/lib/shadow\aws_shadow.c **** 
 703              		.loc 1 908 0
 704 0090 092048E2 		sub	r2, r8, #9
 705 0094 028084E0 		add	r8, r4, r2
 910:D:/Work/DeviceTester/amazon-freertos/lib/shadow\aws_shadow.c ****                  shadowTOPIC_SUFFIX_ACCEPTED,
 706              		.loc 1 910 0
 707 0098 7C129FE5 		ldr	r1, .L110+4
 708 009c 0920A0E3 		mov	r2, #9
 709 00a0 0800A0E1 		mov	r0, r8
 710              	.LBE23:
 711              	.LBE22:
 767:D:/Work/DeviceTester/amazon-freertos/lib/shadow\aws_shadow.c ****                     xResult = prvParseShadowOperationStatus( pxPublishData->pucTopic,
 712              		.loc 1 767 0
 713 00a4 1730CDE5 		strb	r3, [sp, #23]
 714 00a8 0C308DE5 		str	r3, [sp, #12]
 715              	.LVL83:
 716              	.LBB25:
 717              	.LBB24:
 910:D:/Work/DeviceTester/amazon-freertos/lib/shadow\aws_shadow.c ****                  shadowTOPIC_SUFFIX_ACCEPTED,
 718              		.loc 1 910 0
 719 00ac FEFFFFEB 		bl	strncmp
 720              	.LVL84:
 721 00b0 004050E2 		subs	r4, r0, #0
 722              	.LVL85:
 723 00b4 0C309DE5 		ldr	r3, [sp, #12]
 724 00b8 0700000A 		beq	.L61
 921:D:/Work/DeviceTester/amazon-freertos/lib/shadow\aws_shadow.c ****                      shadowTOPIC_SUFFIX_REJECTED,
 725              		.loc 1 921 0
 726 00bc 0920A0E3 		mov	r2, #9
 727 00c0 58129FE5 		ldr	r1, .L110+8
 728 00c4 0800A0E1 		mov	r0, r8
 729 00c8 FEFFFFEB 		bl	strncmp
 730              	.LVL86:
 731 00cc 0C309DE5 		ldr	r3, [sp, #12]
 903:D:/Work/DeviceTester/amazon-freertos/lib/shadow\aws_shadow.c ****     const uint8_t * pucTopicStatus;
 732              		.loc 1 903 0
 733 00d0 000050E3 		cmp	r0, #0
 734 00d4 0240A003 		moveq	r4, #2
 735 00d8 0340A013 		movne	r4, #3
 736              	.L61:
 737              	.LVL87:
 738              	.LBE24:
 739              	.LBE25:
 774:D:/Work/DeviceTester/amazon-freertos/lib/shadow\aws_shadow.c ****                     {
 740              		.loc 1 774 0
 741 00dc 030054E3 		cmp	r4, #3
 742 00e0 06005313 		cmpne	r3, #6
 743 00e4 4F00000A 		beq	.L60
 744              	.LVL88:
 778:D:/Work/DeviceTester/amazon-freertos/lib/shadow\aws_shadow.c ****                         {
 745              		.loc 1 778 0
 746 00e8 010053E3 		cmp	r3, #1
 747 00ec 2500000A 		beq	.L63
 748 00f0 0300003A 		bcc	.L64
 749 00f4 020053E3 		cmp	r3, #2
 750 00f8 3F00000A 		beq	.L65
 751              	.L103:
 732:D:/Work/DeviceTester/amazon-freertos/lib/shadow\aws_shadow.c ****     BaseType_t xCompareLen;
 752              		.loc 1 732 0
 753 00fc 0040A0E3 		mov	r4, #0
 754 0100 350000EA 		b	.L106
 755              	.L64:
 783:D:/Work/DeviceTester/amazon-freertos/lib/shadow\aws_shadow.c ****                                                          ( const char * ) pxPublishData->pvData,
 756              		.loc 1 783 0
 757 0104 04009BE5 		ldr	r0, [fp, #4]
 784:D:/Work/DeviceTester/amazon-freertos/lib/shadow\aws_shadow.c ****                                                          pxPublishData->ulDataLength );
 758              		.loc 1 784 0
 759 0108 108095E5 		ldr	r8, [r5, #16]
 781:D:/Work/DeviceTester/amazon-freertos/lib/shadow\aws_shadow.c ****                                                          xResult,
 760              		.loc 1 781 0
 761 010c 14B095E5 		ldr	fp, [r5, #20]
 762              	.LVL89:
 763              	.LBB26:
 764              	.LBB27:
1042:D:/Work/DeviceTester/amazon-freertos/lib/shadow\aws_shadow.c ****                                               pxParams->ulDataLength,
 765              		.loc 1 1042 0
 766 0110 030090E9 		ldmib	r0, {r0, r1}
 767              	.LVL90:
 768 0114 0820A0E1 		mov	r2, r8
 769 0118 0B30A0E1 		mov	r3, fp
 770 011c FEFFFFEB 		bl	SHADOW_JSONDocClientTokenMatch
 771              	.LVL91:
1047:D:/Work/DeviceTester/amazon-freertos/lib/shadow\aws_shadow.c ****     {
 772              		.loc 1 1047 0
 773 0120 010050E3 		cmp	r0, #1
 774 0124 F4FFFF1A 		bne	.L103
1049:D:/Work/DeviceTester/amazon-freertos/lib/shadow\aws_shadow.c **** 
 775              		.loc 1 1049 0
 776 0128 753FA0E3 		mov	r3, #468
1052:D:/Work/DeviceTester/amazon-freertos/lib/shadow\aws_shadow.c ****         {
 777              		.loc 1 1052 0
 778 012c 020054E3 		cmp	r4, #2
1049:D:/Work/DeviceTester/amazon-freertos/lib/shadow\aws_shadow.c **** 
 779              		.loc 1 1049 0
 780 0130 937623E0 		mla	r3, r3, r6, r7
 781 0134 453F83E2 		add	r3, r3, #276
 782 0138 B040C3E1 		strh	r4, [r3]	@ movhi
1052:D:/Work/DeviceTester/amazon-freertos/lib/shadow\aws_shadow.c ****         {
 783              		.loc 1 1052 0
 784 013c 0500001A 		bne	.L67
1054:D:/Work/DeviceTester/amazon-freertos/lib/shadow\aws_shadow.c ****                                                                           ulDataLength,
 785              		.loc 1 1054 0
 786 0140 0B10A0E1 		mov	r1, fp
 787 0144 0800A0E1 		mov	r0, r8
 788              	.LVL92:
 789 0148 0C308DE5 		str	r3, [sp, #12]
 790 014c FEFFFFEB 		bl	prvGetErrorCodeAndMessage.isra.1
 791              	.LVL93:
 792 0150 0C309DE5 		ldr	r3, [sp, #12]
 793 0154 B000C3E1 		strh	r0, [r3]	@ movhi
 794              	.LVL94:
 795              	.L67:
1060:D:/Work/DeviceTester/amazon-freertos/lib/shadow\aws_shadow.c ****     }
 796              		.loc 1 1060 0
 797 0158 750FA0E3 		mov	r0, #468
 798 015c 0030A0E3 		mov	r3, #0
 799 0160 907620E0 		mla	r0, r0, r6, r7
 800 0164 0320A0E1 		mov	r2, r3
 801 0168 0310A0E1 		mov	r1, r3
 802 016c 1C0090E5 		ldr	r0, [r0, #28]
 803 0170 FEFFFFEB 		bl	xQueueGenericSend
 804              	.LVL95:
 805 0174 010050E3 		cmp	r0, #1
 806 0178 DFFFFF0A 		beq	.L103
 807              	.LVL96:
 808              	.L71:
 809 017c 0110A0E3 		mov	r1, #1
 810 0180 9C019FE5 		ldr	r0, .L110+12
 811 0184 FEFFFFEB 		bl	longjmp
 812              	.LVL97:
 813              	.L63:
 814              	.LBE27:
 815              	.LBE26:
 816              	.LBB28:
 817              	.LBB29:
1076:D:/Work/DeviceTester/amazon-freertos/lib/shadow\aws_shadow.c **** 
 818              		.loc 1 1076 0
 819 0188 758FA0E3 		mov	r8, #468
1079:D:/Work/DeviceTester/amazon-freertos/lib/shadow\aws_shadow.c ****     {
 820              		.loc 1 1079 0
 821 018c 000054E3 		cmp	r4, #0
1076:D:/Work/DeviceTester/amazon-freertos/lib/shadow\aws_shadow.c **** 
 822              		.loc 1 1076 0
 823 0190 987628E0 		mla	r8, r8, r6, r7
 824              	.LBE29:
 825              	.LBE28:
 789:D:/Work/DeviceTester/amazon-freertos/lib/shadow\aws_shadow.c ****                                                       xResult,
 826              		.loc 1 789 0
 827 0194 04B09BE5 		ldr	fp, [fp, #4]
 828 0198 100085E2 		add	r0, r5, #16
 829 019c 0B0090E8 		ldm	r0, {r0, r1, r3}
 830              	.LVL98:
 831              	.LBB33:
 832              	.LBB30:
1076:D:/Work/DeviceTester/amazon-freertos/lib/shadow\aws_shadow.c **** 
 833              		.loc 1 1076 0
 834 01a0 458F88E2 		add	r8, r8, #276
 835 01a4 B040C8E1 		strh	r4, [r8]	@ movhi
1079:D:/Work/DeviceTester/amazon-freertos/lib/shadow\aws_shadow.c ****     {
 836              		.loc 1 1079 0
 837 01a8 0D00001A 		bne	.L69
1083:D:/Work/DeviceTester/amazon-freertos/lib/shadow\aws_shadow.c ****     }
 838              		.loc 1 1083 0
 839 01ac 0B008BE9 		stmib	fp, {r0, r1, r3}
 840              	.LVL99:
 841              	.L70:
1096:D:/Work/DeviceTester/amazon-freertos/lib/shadow\aws_shadow.c **** }
 842              		.loc 1 1096 0
 843 01b0 750FA0E3 		mov	r0, #468
 844 01b4 0030A0E3 		mov	r3, #0
 845 01b8 907620E0 		mla	r0, r0, r6, r7
 846 01bc 0320A0E1 		mov	r2, r3
 847 01c0 0310A0E1 		mov	r1, r3
 848 01c4 1C0090E5 		ldr	r0, [r0, #28]
 849 01c8 FEFFFFEB 		bl	xQueueGenericSend
 850              	.LVL100:
 851 01cc 010050E3 		cmp	r0, #1
 852              	.LBE30:
 853              	.LBE33:
 797:D:/Work/DeviceTester/amazon-freertos/lib/shadow\aws_shadow.c ****                                 {
 854              		.loc 1 797 0
 855 01d0 144F6F01 		clzeq	r4, r4
 856              	.LVL101:
 857 01d4 A442A001 		lsreq	r4, r4, #5
 858              	.LBB34:
 859              	.LBB31:
1096:D:/Work/DeviceTester/amazon-freertos/lib/shadow\aws_shadow.c **** }
 860              		.loc 1 1096 0
 861 01d8 E7FFFF1A 		bne	.L71
 862              	.LVL102:
 863              	.L106:
 864              	.LBE31:
 865              	.LBE34:
 776:D:/Work/DeviceTester/amazon-freertos/lib/shadow\aws_shadow.c **** 
 866              		.loc 1 776 0
 867 01dc 0180A0E3 		mov	r8, #1
 868 01e0 120000EA 		b	.L62
 869              	.LVL103:
 870              	.L69:
 871              	.LBB35:
 872              	.LBB32:
1088:D:/Work/DeviceTester/amazon-freertos/lib/shadow\aws_shadow.c ****                                                                       ulDataLength,
 873              		.loc 1 1088 0
 874 01e4 FEFFFFEB 		bl	prvGetErrorCodeAndMessage.isra.1
 875              	.LVL104:
1092:D:/Work/DeviceTester/amazon-freertos/lib/shadow\aws_shadow.c ****         pxParams->ulDataLength = 0;
 876              		.loc 1 1092 0
 877 01e8 0030A0E3 		mov	r3, #0
1088:D:/Work/DeviceTester/amazon-freertos/lib/shadow\aws_shadow.c ****                                                                       ulDataLength,
 878              		.loc 1 1088 0
 879 01ec B000C8E1 		strh	r0, [r8]	@ movhi
1092:D:/Work/DeviceTester/amazon-freertos/lib/shadow\aws_shadow.c ****         pxParams->ulDataLength = 0;
 880              		.loc 1 1092 0
 881 01f0 04308BE5 		str	r3, [fp, #4]
1093:D:/Work/DeviceTester/amazon-freertos/lib/shadow\aws_shadow.c ****     }
 882              		.loc 1 1093 0
 883 01f4 08308BE5 		str	r3, [fp, #8]
 884 01f8 ECFFFFEA 		b	.L70
 885              	.LVL105:
 886              	.L65:
 887              	.LBE32:
 888              	.LBE35:
 889              	.LBB36:
 890              	.LBB37:
1108:D:/Work/DeviceTester/amazon-freertos/lib/shadow\aws_shadow.c **** 
 891              		.loc 1 1108 0
 892 01fc 758FA0E3 		mov	r8, #468
1110:D:/Work/DeviceTester/amazon-freertos/lib/shadow\aws_shadow.c ****     {
 893              		.loc 1 1110 0
 894 0200 020054E3 		cmp	r4, #2
1108:D:/Work/DeviceTester/amazon-freertos/lib/shadow\aws_shadow.c **** 
 895              		.loc 1 1108 0
 896 0204 987628E0 		mla	r8, r8, r6, r7
 897              	.LBE37:
 898              	.LBE36:
 807:D:/Work/DeviceTester/amazon-freertos/lib/shadow\aws_shadow.c ****                                                          pxPublishData->ulDataLength );
 899              		.loc 1 807 0
 900 0208 100095E5 		ldr	r0, [r5, #16]
 805:D:/Work/DeviceTester/amazon-freertos/lib/shadow\aws_shadow.c ****                                                          xResult,
 901              		.loc 1 805 0
 902 020c 141095E5 		ldr	r1, [r5, #20]
 903              	.LVL106:
 904              	.LBB39:
 905              	.LBB38:
1108:D:/Work/DeviceTester/amazon-freertos/lib/shadow\aws_shadow.c **** 
 906              		.loc 1 1108 0
 907 0210 458F88E2 		add	r8, r8, #276
 908 0214 B040C8E1 		strh	r4, [r8]	@ movhi
1110:D:/Work/DeviceTester/amazon-freertos/lib/shadow\aws_shadow.c ****     {
 909              		.loc 1 1110 0
 910 0218 CEFFFF1A 		bne	.L67
1112:D:/Work/DeviceTester/amazon-freertos/lib/shadow\aws_shadow.c ****                                                                       ulDataLength,
 911              		.loc 1 1112 0
 912 021c FEFFFFEB 		bl	prvGetErrorCodeAndMessage.isra.1
 913              	.LVL107:
 914 0220 B000C8E1 		strh	r0, [r8]	@ movhi
 915 0224 CBFFFFEA 		b	.L67
 916              	.LVL108:
 917              	.L60:
 918              	.LBE38:
 919              	.LBE39:
 732:D:/Work/DeviceTester/amazon-freertos/lib/shadow\aws_shadow.c ****     BaseType_t xCompareLen;
 920              		.loc 1 732 0
 921 0228 0040A0E3 		mov	r4, #0
 726:D:/Work/DeviceTester/amazon-freertos/lib/shadow\aws_shadow.c ****     ShadowClient_t * pxShadowClient;
 922              		.loc 1 726 0
 923 022c 0480A0E1 		mov	r8, r4
 924              	.LVL109:
 925              	.L62:
 819:D:/Work/DeviceTester/amazon-freertos/lib/shadow\aws_shadow.c ****         }
 926              		.loc 1 819 0
 927 0230 753FA0E3 		mov	r3, #468
 928 0234 937626E0 		mla	r6, r3, r6, r7
 929              	.LVL110:
 930 0238 0030A0E3 		mov	r3, #0
 931 023c 0320A0E1 		mov	r2, r3
 932 0240 0310A0E1 		mov	r1, r3
 933 0244 140096E5 		ldr	r0, [r6, #20]
 934 0248 FEFFFFEB 		bl	xQueueGenericSend
 935              	.LVL111:
 936 024c 010050E3 		cmp	r0, #1
 937 0250 C9FFFF1A 		bne	.L71
 824:D:/Work/DeviceTester/amazon-freertos/lib/shadow\aws_shadow.c ****         {
 938              		.loc 1 824 0
 939 0254 000058E3 		cmp	r8, #0
 940 0258 0E00001A 		bne	.L57
 941              	.LVL112:
 942              	.L59:
 826:D:/Work/DeviceTester/amazon-freertos/lib/shadow\aws_shadow.c ****                                                             pxPublishData->pucTopic, pxPublishData-
 943              		.loc 1 826 0
 944 025c 17308DE2 		add	r3, sp, #23
 945 0260 BC20D5E1 		ldrh	r2, [r5, #12]
 946 0264 081095E5 		ldr	r1, [r5, #8]
 947 0268 0A0087E0 		add	r0, r7, r10
 948 026c FEFFFFEB 		bl	prvMatchCallbackTopic
 949              	.LVL113:
 830:D:/Work/DeviceTester/amazon-freertos/lib/shadow\aws_shadow.c ****             {
 950              		.loc 1 830 0
 951 0270 000050E3 		cmp	r0, #0
 952 0274 0700000A 		beq	.L57
 832:D:/Work/DeviceTester/amazon-freertos/lib/shadow\aws_shadow.c ****                 {
 953              		.loc 1 832 0
 954 0278 1730DDE5 		ldrb	r3, [sp, #23]	@ zero_extendqisi2
 955 027c 040053E3 		cmp	r3, #4
 956 0280 0700000A 		beq	.L74
 957 0284 050053E3 		cmp	r3, #5
 958 0288 1100000A 		beq	.L75
 959 028c 030053E3 		cmp	r3, #3
 836:D:/Work/DeviceTester/amazon-freertos/lib/shadow\aws_shadow.c ****                         {
 960              		.loc 1 836 0
 961 0290 04609005 		ldreq	r6, [r0, #4]
 832:D:/Work/DeviceTester/amazon-freertos/lib/shadow\aws_shadow.c ****                 {
 962              		.loc 1 832 0
 963 0294 0300000A 		beq	.L109
 964              	.LVL114:
 965              	.L57:
 895:D:/Work/DeviceTester/amazon-freertos/lib/shadow\aws_shadow.c **** 
 966              		.loc 1 895 0
 967 0298 0400A0E1 		mov	r0, r4
 968 029c 1CD08DE2 		add	sp, sp, #28
 969              		.cfi_remember_state
 970              		.cfi_def_cfa_offset 36
 971              		@ sp needed
 972 02a0 F08FBDE8 		pop	{r4, r5, r6, r7, r8, r9, r10, fp, pc}
 973              	.LVL115:
 974              	.L74:
 975              		.cfi_restore_state
 849:D:/Work/DeviceTester/amazon-freertos/lib/shadow\aws_shadow.c ****                         {
 976              		.loc 1 849 0
 977 02a4 0C6090E5 		ldr	r6, [r0, #12]
 978              	.L109:
 979 02a8 000056E3 		cmp	r6, #0
 980 02ac F9FFFF0A 		beq	.L57
 851:D:/Work/DeviceTester/amazon-freertos/lib/shadow\aws_shadow.c ****                                                                                                   p
 981              		.loc 1 851 0
 982 02b0 183095E5 		ldr	r3, [r5, #24]
 983 02b4 00308DE5 		str	r3, [sp]
 984 02b8 001090E5 		ldr	r1, [r0]
 985 02bc 0900A0E1 		mov	r0, r9
 986              	.LVL116:
 987 02c0 143095E5 		ldr	r3, [r5, #20]
 988 02c4 102095E5 		ldr	r2, [r5, #16]
 989 02c8 36FF2FE1 		blx	r6
 990              	.LVL117:
 991 02cc 0040A0E1 		mov	r4, r0
 992              	.LVL118:
 993 02d0 F0FFFFEA 		b	.L57
 994              	.LVL119:
 995              	.L75:
 862:D:/Work/DeviceTester/amazon-freertos/lib/shadow\aws_shadow.c ****                         {
 996              		.loc 1 862 0
 997 02d4 083090E5 		ldr	r3, [r0, #8]
 998 02d8 000053E3 		cmp	r3, #0
 999 02dc EDFFFF0A 		beq	.L57
 864:D:/Work/DeviceTester/amazon-freertos/lib/shadow\aws_shadow.c ****                                                                                           pxCallbac
 1000              		.loc 1 864 0
 1001 02e0 001090E5 		ldr	r1, [r0]
 1002 02e4 0900A0E1 		mov	r0, r9
 1003              	.LVL120:
 1004 02e8 33FF2FE1 		blx	r3
 1005              	.LVL121:
 1006 02ec E9FFFFEA 		b	.L57
 1007              	.LVL122:
 1008              	.L58:
 880:D:/Work/DeviceTester/amazon-freertos/lib/shadow\aws_shadow.c ****         {
 1009              		.loc 1 880 0
 1010 02f0 010054E3 		cmp	r4, #1
 1011              	.LVL123:
 1012              	.LBB40:
 1013              	.LBB41:
1344:D:/Work/DeviceTester/amazon-freertos/lib/shadow\aws_shadow.c ****             break;
 1014              		.loc 1 1344 0
 1015 02f4 1C309F05 		ldreq	r3, .L110
 1016 02f8 752FA003 		moveq	r2, #468
 1017 02fc 0040A003 		moveq	r4, #0
 1018              	.LBE41:
 1019              	.LBE40:
 732:D:/Work/DeviceTester/amazon-freertos/lib/shadow\aws_shadow.c ****     BaseType_t xCompareLen;
 1020              		.loc 1 732 0
 1021 0300 0040A013 		movne	r4, #0
 1022              	.LBB43:
 1023              	.LBB42:
1344:D:/Work/DeviceTester/amazon-freertos/lib/shadow\aws_shadow.c ****             break;
 1024              		.loc 1 1344 0
 1025 0304 92362600 		mlaeq	r6, r2, r6, r3
 1026              	.LVL124:
 1027 0308 08408605 		streq	r4, [r6, #8]
 1028              	.LVL125:
 1029              	.LBE42:
 1030              	.LBE43:
 1031              	.LBB44:
 1032              	.LBB45:
1348:D:/Work/DeviceTester/amazon-freertos/lib/shadow\aws_shadow.c ****             break;
 1033              		.loc 1 1348 0
 1034 030c 0C408605 		streq	r4, [r6, #12]
 1035              	.LVL126:
 1036              	.LBE45:
 1037              	.LBE44:
 1038              	.LBB46:
 1039              	.LBB47:
 1040              		.loc 1 1352 0
 1041 0310 10408605 		streq	r4, [r6, #16]
 1042              	.LBE47:
 1043              	.LBE46:
 894:D:/Work/DeviceTester/amazon-freertos/lib/shadow\aws_shadow.c **** }
 1044              		.loc 1 894 0
 1045 0314 DFFFFFEA 		b	.L57
 1046              	.L111:
 1047              		.align	2
 1048              	.L110:
 1049 0318 00000000 		.word	.LANCHOR0
 1050 031c 00000000 		.word	.LC4
 1051 0320 0A000000 		.word	.LC5
 1052 0324 28000000 		.word	Unity+40
 1053              		.cfi_endproc
 1054              	.LFE8:
 1056              		.section	.text.prvShadowOperation,"ax",%progbits
 1057              		.align	2
 1058              		.syntax unified
 1059              		.arm
 1060              		.fpu neon
 1062              	prvShadowOperation:
 1063              	.LFB15:
1168:D:/Work/DeviceTester/amazon-freertos/lib/shadow\aws_shadow.c ****     ShadowReturnCode_t xReturn = eShadowFailure;
 1064              		.loc 1 1168 0
 1065              		.cfi_startproc
 1066              		@ args = 0, pretend = 0, frame = 56
 1067              		@ frame_needed = 0, uses_anonymous_args = 0
 1068              	.LVL127:
 1069 0000 F04F2DE9 		push	{r4, r5, r6, r7, r8, r9, r10, fp, lr}
 1070              		.cfi_def_cfa_offset 36
 1071              		.cfi_offset 4, -36
 1072              		.cfi_offset 5, -32
 1073              		.cfi_offset 6, -28
 1074              		.cfi_offset 7, -24
 1075              		.cfi_offset 8, -20
 1076              		.cfi_offset 9, -16
 1077              		.cfi_offset 10, -12
 1078              		.cfi_offset 11, -8
 1079              		.cfi_offset 14, -4
1183:D:/Work/DeviceTester/amazon-freertos/lib/shadow\aws_shadow.c ****                         xTimeOutData.xTicksRemaining ) == pdPASS )
 1080              		.loc 1 1183 0
 1081 0004 757FA0E3 		mov	r7, #468
1181:D:/Work/DeviceTester/amazon-freertos/lib/shadow\aws_shadow.c **** 
 1082              		.loc 1 1181 0
 1083 0008 005090E5 		ldr	r5, [r0]
 1084              	.LVL128:
1168:D:/Work/DeviceTester/amazon-freertos/lib/shadow\aws_shadow.c ****     ShadowReturnCode_t xReturn = eShadowFailure;
 1085              		.loc 1 1168 0
 1086 000c 44D04DE2 		sub	sp, sp, #68
 1087              		.cfi_def_cfa_offset 104
1168:D:/Work/DeviceTester/amazon-freertos/lib/shadow\aws_shadow.c ****     ShadowReturnCode_t xReturn = eShadowFailure;
 1088              		.loc 1 1168 0
 1089 0010 0040A0E1 		mov	r4, r0
1183:D:/Work/DeviceTester/amazon-freertos/lib/shadow\aws_shadow.c ****                         xTimeOutData.xTicksRemaining ) == pdPASS )
 1090              		.loc 1 1183 0
 1091 0014 64939FE5 		ldr	r9, .L139
1177:D:/Work/DeviceTester/amazon-freertos/lib/shadow\aws_shadow.c **** 
 1092              		.loc 1 1177 0
 1093 0018 241090E5 		ldr	r1, [r0, #36]
1183:D:/Work/DeviceTester/amazon-freertos/lib/shadow\aws_shadow.c ****                         xTimeOutData.xTicksRemaining ) == pdPASS )
 1094              		.loc 1 1183 0
 1095 001c 970507E0 		mul	r7, r7, r5
1177:D:/Work/DeviceTester/amazon-freertos/lib/shadow\aws_shadow.c **** 
 1096              		.loc 1 1177 0
 1097 0020 2C108DE5 		str	r1, [sp, #44]
1183:D:/Work/DeviceTester/amazon-freertos/lib/shadow\aws_shadow.c ****                         xTimeOutData.xTicksRemaining ) == pdPASS )
 1098              		.loc 1 1183 0
 1099 0024 078089E0 		add	r8, r9, r7
 1100 0028 180098E5 		ldr	r0, [r8, #24]
 1101              	.LVL129:
 1102 002c FEFFFFEB 		bl	xQueueSemaphoreTake
 1103              	.LVL130:
 1104 0030 010050E3 		cmp	r0, #1
1169:D:/Work/DeviceTester/amazon-freertos/lib/shadow\aws_shadow.c ****     MQTTAgentPublishParams_t xPublishParams;
 1105              		.loc 1 1169 0
 1106 0034 0260A013 		movne	r6, #2
1183:D:/Work/DeviceTester/amazon-freertos/lib/shadow\aws_shadow.c ****                         xTimeOutData.xTicksRemaining ) == pdPASS )
 1107              		.loc 1 1183 0
 1108 0038 8000001A 		bne	.L113
 1109              	.LVL131:
 1110              	.LBB52:
 1111              	.LBB53:
1353:D:/Work/DeviceTester/amazon-freertos/lib/shadow\aws_shadow.c ****             break;
1354:D:/Work/DeviceTester/amazon-freertos/lib/shadow\aws_shadow.c **** 
1355:D:/Work/DeviceTester/amazon-freertos/lib/shadow\aws_shadow.c ****         default:
1356:D:/Work/DeviceTester/amazon-freertos/lib/shadow\aws_shadow.c ****             /* Should not fall here. */
1357:D:/Work/DeviceTester/amazon-freertos/lib/shadow\aws_shadow.c ****             break;
1358:D:/Work/DeviceTester/amazon-freertos/lib/shadow\aws_shadow.c ****     }
1359:D:/Work/DeviceTester/amazon-freertos/lib/shadow\aws_shadow.c **** }
1360:D:/Work/DeviceTester/amazon-freertos/lib/shadow\aws_shadow.c **** 
1361:D:/Work/DeviceTester/amazon-freertos/lib/shadow\aws_shadow.c **** /*-----------------------------------------------------------*/
1362:D:/Work/DeviceTester/amazon-freertos/lib/shadow\aws_shadow.c **** 
1363:D:/Work/DeviceTester/amazon-freertos/lib/shadow\aws_shadow.c **** static uint8_t prvGetSubscribedFlag( const ShadowClient_t * const pxShadowClient,
1364:D:/Work/DeviceTester/amazon-freertos/lib/shadow\aws_shadow.c ****                                      ShadowOperationName_t xOperationName )
1365:D:/Work/DeviceTester/amazon-freertos/lib/shadow\aws_shadow.c **** {
1366:D:/Work/DeviceTester/amazon-freertos/lib/shadow\aws_shadow.c ****     uint8_t ucReturn = 0;
1367:D:/Work/DeviceTester/amazon-freertos/lib/shadow\aws_shadow.c **** 
1368:D:/Work/DeviceTester/amazon-freertos/lib/shadow\aws_shadow.c ****     switch( xOperationName )
 1112              		.loc 1 1368 0
 1113 003c 0430D4E5 		ldrb	r3, [r4, #4]	@ zero_extendqisi2
 1114 0040 010053E3 		cmp	r3, #1
 1115 0044 9400000A 		beq	.L115
 1116 0048 7F00003A 		bcc	.L116
 1117 004c 020053E3 		cmp	r3, #2
 1118 0050 9300000A 		beq	.L117
 1119              	.LVL132:
 1120              	.L114:
 1121              	.LBE53:
 1122              	.LBE52:
1190:D:/Work/DeviceTester/amazon-freertos/lib/shadow\aws_shadow.c ****                                                             ( pxParams->pxOperationParams )->pcThin
 1123              		.loc 1 1190 0
 1124 0054 002094E5 		ldr	r2, [r4]
 1125              	.LBB56:
 1126              	.LBB57:
 604:D:/Work/DeviceTester/amazon-freertos/lib/shadow\aws_shadow.c ****     /* Shadow service always publishes QoS 1, regardless of the value below. */
 1127              		.loc 1 604 0
 1128 0058 75BFA0E3 		mov	fp, #468
 1129              	.LBE57:
 1130              	.LBE56:
1190:D:/Work/DeviceTester/amazon-freertos/lib/shadow\aws_shadow.c ****                                                             ( pxParams->pxOperationParams )->pcThin
 1131              		.loc 1 1190 0
 1132 005c 101094E5 		ldr	r1, [r4, #16]
 1133 0060 203094E5 		ldr	r3, [r4, #32]
 1134              	.LBB62:
 1135              	.LBB58:
 604:D:/Work/DeviceTester/amazon-freertos/lib/shadow\aws_shadow.c ****     /* Shadow service always publishes QoS 1, regardless of the value below. */
 1136              		.loc 1 604 0
 1137 0064 9B020BE0 		mul	fp, fp, r2
 1138              	.LBE58:
 1139              	.LBE62:
1190:D:/Work/DeviceTester/amazon-freertos/lib/shadow\aws_shadow.c ****                                                             ( pxParams->pxOperationParams )->pcThin
 1140              		.loc 1 1190 0
 1141 0068 0C108DE5 		str	r1, [sp, #12]
 1142 006c 003093E5 		ldr	r3, [r3]
 1143              	.LBB63:
 1144              	.LBB59:
 606:D:/Work/DeviceTester/amazon-freertos/lib/shadow\aws_shadow.c **** 
 1145              		.loc 1 606 0
 1146 0070 0120A0E3 		mov	r2, #1
 1147              	.LBE59:
 1148              	.LBE63:
1190:D:/Work/DeviceTester/amazon-freertos/lib/shadow\aws_shadow.c ****                                                             ( pxParams->pxOperationParams )->pcThin
 1149              		.loc 1 1190 0
 1150 0074 141094E5 		ldr	r1, [r4, #20]
 1151              	.LBB64:
 1152              	.LBB60:
 606:D:/Work/DeviceTester/amazon-freertos/lib/shadow\aws_shadow.c **** 
 1153              		.loc 1 606 0
 1154 0078 3620CDE5 		strb	r2, [sp, #54]
 609:D:/Work/DeviceTester/amazon-freertos/lib/shadow\aws_shadow.c ****         xSubscribeParams.pxPublishCallback = NULL;
 1155              		.loc 1 609 0
 1156 007c 0020A0E3 		mov	r2, #0
 604:D:/Work/DeviceTester/amazon-freertos/lib/shadow\aws_shadow.c ****     /* Shadow service always publishes QoS 1, regardless of the value below. */
 1157              		.loc 1 604 0
 1158 0080 4BAF8BE2 		add	r10, fp, #300
 609:D:/Work/DeviceTester/amazon-freertos/lib/shadow\aws_shadow.c ****         xSubscribeParams.pxPublishCallback = NULL;
 1159              		.loc 1 609 0
 1160 0084 38208DE5 		str	r2, [sp, #56]
 604:D:/Work/DeviceTester/amazon-freertos/lib/shadow\aws_shadow.c ****     /* Shadow service always publishes QoS 1, regardless of the value below. */
 1161              		.loc 1 604 0
 1162 0088 0AA089E0 		add	r10, r9, r10
 1163              	.LBE60:
 1164              	.LBE64:
1190:D:/Work/DeviceTester/amazon-freertos/lib/shadow\aws_shadow.c ****                                                             ( pxParams->pxOperationParams )->pcThin
 1165              		.loc 1 1190 0
 1166 008c 10108DE5 		str	r1, [sp, #16]
 1167              	.LVL133:
 1168              	.LBB65:
 1169              	.LBB61:
 610:D:/Work/DeviceTester/amazon-freertos/lib/shadow\aws_shadow.c ****     #endif /* mqttconfigENABLE_SUBSCRIPTION_MANAGEMENT */
 1170              		.loc 1 610 0
 1171 0090 3C208DE5 		str	r2, [sp, #60]
 614:D:/Work/DeviceTester/amazon-freertos/lib/shadow\aws_shadow.c ****                                                      shadowTOPIC_BUFFER_LENGTH,
 1172              		.loc 1 614 0
 1173 0094 0A00A0E1 		mov	r0, r10
 1174 0098 0320A0E1 		mov	r2, r3
 1175 009c 0C109DE5 		ldr	r1, [sp, #12]
 1176              	.LVL134:
 1177 00a0 14308DE5 		str	r3, [sp, #20]
 604:D:/Work/DeviceTester/amazon-freertos/lib/shadow\aws_shadow.c ****     /* Shadow service always publishes QoS 1, regardless of the value below. */
 1178              		.loc 1 604 0
 1179 00a4 30A08DE5 		str	r10, [sp, #48]
 614:D:/Work/DeviceTester/amazon-freertos/lib/shadow\aws_shadow.c ****                                                      shadowTOPIC_BUFFER_LENGTH,
 1180              		.loc 1 614 0
 1181 00a8 FEFFFFEB 		bl	prvCreateTopic.constprop.5
 1182              	.LVL135:
 619:D:/Work/DeviceTester/amazon-freertos/lib/shadow\aws_shadow.c ****                                         &xSubscribeParams,
 1183              		.loc 1 619 0
 1184 00ac 2C209DE5 		ldr	r2, [sp, #44]
 1185 00b0 30108DE2 		add	r1, sp, #48
 614:D:/Work/DeviceTester/amazon-freertos/lib/shadow\aws_shadow.c ****                                                      shadowTOPIC_BUFFER_LENGTH,
 1186              		.loc 1 614 0
 1187 00b4 B403CDE1 		strh	r0, [sp, #52]	@ movhi
 619:D:/Work/DeviceTester/amazon-freertos/lib/shadow\aws_shadow.c ****                                         &xSubscribeParams,
 1188              		.loc 1 619 0
 1189 00b8 0B0099E7 		ldr	r0, [r9, fp]
 1190 00bc FEFFFFEB 		bl	MQTT_AGENT_Subscribe
 1191              	.LVL136:
 623:D:/Work/DeviceTester/amazon-freertos/lib/shadow\aws_shadow.c ****                                         ( ShadowClientHandle_t ) xShadowClientID, /*lint !e923 Safe
 1192              		.loc 1 623 0
 1193 00c0 FEFFFFEB 		bl	prvConvertMQTTReturnCode.isra.0
 1194              	.LVL137:
 627:D:/Work/DeviceTester/amazon-freertos/lib/shadow\aws_shadow.c ****     {
 1195              		.loc 1 627 0
 1196 00c4 006050E2 		subs	r6, r0, #0
 1197 00c8 14309DE5 		ldr	r3, [sp, #20]
 1198 00cc 1600001A 		bne	.L129
 630:D:/Work/DeviceTester/amazon-freertos/lib/shadow\aws_shadow.c ****                                                          shadowTOPIC_BUFFER_LENGTH,
 1199              		.loc 1 630 0
 1200 00d0 0320A0E1 		mov	r2, r3
 1201 00d4 10109DE5 		ldr	r1, [sp, #16]
 1202 00d8 0A00A0E1 		mov	r0, r10
 1203              	.LVL138:
 1204 00dc FEFFFFEB 		bl	prvCreateTopic.constprop.5
 1205              	.LVL139:
 634:D:/Work/DeviceTester/amazon-freertos/lib/shadow\aws_shadow.c ****                                             &xSubscribeParams,
 1206              		.loc 1 634 0
 1207 00e0 2C209DE5 		ldr	r2, [sp, #44]
 1208 00e4 30108DE2 		add	r1, sp, #48
 630:D:/Work/DeviceTester/amazon-freertos/lib/shadow\aws_shadow.c ****                                                          shadowTOPIC_BUFFER_LENGTH,
 1209              		.loc 1 630 0
 1210 00e8 B403CDE1 		strh	r0, [sp, #52]	@ movhi
 634:D:/Work/DeviceTester/amazon-freertos/lib/shadow\aws_shadow.c ****                                             &xSubscribeParams,
 1211              		.loc 1 634 0
 1212 00ec 0B0099E7 		ldr	r0, [r9, fp]
 1213 00f0 FEFFFFEB 		bl	MQTT_AGENT_Subscribe
 1214              	.LVL140:
 638:D:/Work/DeviceTester/amazon-freertos/lib/shadow\aws_shadow.c ****                                             ( ShadowClientHandle_t ) xShadowClientID, /*lint !e923 
 1215              		.loc 1 638 0
 1216 00f4 FEFFFFEB 		bl	prvConvertMQTTReturnCode.isra.0
 1217              	.LVL141:
 642:D:/Work/DeviceTester/amazon-freertos/lib/shadow\aws_shadow.c ****         {
 1218              		.loc 1 642 0
 1219 00f8 006050E2 		subs	r6, r0, #0
 1220 00fc 14309DE5 		ldr	r3, [sp, #20]
 1221 0100 5400000A 		beq	.L119
 644:D:/Work/DeviceTester/amazon-freertos/lib/shadow\aws_shadow.c ****                                                                shadowTOPIC_BUFFER_LENGTH,
 1222              		.loc 1 644 0
 1223 0104 0320A0E1 		mov	r2, r3
 1224 0108 0C109DE5 		ldr	r1, [sp, #12]
 1225 010c 0A00A0E1 		mov	r0, r10
 1226              	.LVL142:
 1227 0110 FEFFFFEB 		bl	prvCreateTopic.constprop.5
 1228              	.LVL143:
 649:D:/Work/DeviceTester/amazon-freertos/lib/shadow\aws_shadow.c **** 
 1229              		.loc 1 649 0
 1230 0114 40108DE2 		add	r1, sp, #64
 644:D:/Work/DeviceTester/amazon-freertos/lib/shadow\aws_shadow.c ****                                                                shadowTOPIC_BUFFER_LENGTH,
 1231              		.loc 1 644 0
 1232 0118 B002CDE1 		strh	r0, [sp, #32]	@ movhi
 649:D:/Work/DeviceTester/amazon-freertos/lib/shadow\aws_shadow.c **** 
 1233              		.loc 1 649 0
 1234 011c 24A021E5 		str	r10, [r1, #-36]!
 1235              	.LVL144:
 653:D:/Work/DeviceTester/amazon-freertos/lib/shadow\aws_shadow.c ****                                              &xUnsubscribeParams,
 1236              		.loc 1 653 0
 1237 0120 882301E3 		movw	r2, #5000
 1238 0124 0B0099E7 		ldr	r0, [r9, fp]
 1239 0128 FEFFFFEB 		bl	MQTT_AGENT_Unsubscribe
 1240              	.LVL145:
 1241              	.L129:
 1242              	.LBE61:
 1243              	.LBE65:
1262:D:/Work/DeviceTester/amazon-freertos/lib/shadow\aws_shadow.c ****         {
 1244              		.loc 1 1262 0
 1245 012c 201094E5 		ldr	r1, [r4, #32]
 1246 0130 4B7F87E2 		add	r7, r7, #300
 1247 0134 44929FE5 		ldr	r9, .L139
 1248 0138 10B0D1E5 		ldrb	fp, [r1, #16]	@ zero_extendqisi2
 1249 013c 00005BE3 		cmp	fp, #0
 1250 0140 2100001A 		bne	.L126
1264:D:/Work/DeviceTester/amazon-freertos/lib/shadow\aws_shadow.c ****                                                       pdMS_TO_TICKS( shadowconfigCLEANUP_TIME_MS ) 
 1251              		.loc 1 1264 0
 1252 0144 2C209DE5 		ldr	r2, [sp, #44]
 1253 0148 883301E3 		movw	r3, #5000
 1254 014c 030052E1 		cmp	r2, r3
 1255 0150 2C208D25 		strcs	r2, [sp, #44]
 1256 0154 2C308D35 		strcc	r3, [sp, #44]
1270:D:/Work/DeviceTester/amazon-freertos/lib/shadow\aws_shadow.c ****             {
 1257              		.loc 1 1270 0
 1258 0158 0430D4E5 		ldrb	r3, [r4, #4]	@ zero_extendqisi2
 1259 015c 020053E3 		cmp	r3, #2
 1260 0160 8100001A 		bne	.L127
1272:D:/Work/DeviceTester/amazon-freertos/lib/shadow\aws_shadow.c ****                                          shadowTOPIC_BUFFER_LENGTH,
 1261              		.loc 1 1272 0
 1262 0164 07A089E0 		add	r10, r9, r7
 1263 0168 002091E5 		ldr	r2, [r1]
 1264 016c 0A00A0E1 		mov	r0, r10
 1265 0170 0C129FE5 		ldr	r1, .L139+4
 1266 0174 FEFFFFEB 		bl	prvCreateTopic.constprop.5
 1267              	.LVL146:
1282:D:/Work/DeviceTester/amazon-freertos/lib/shadow\aws_shadow.c ****                                            NULL ) == NULL )
 1268              		.loc 1 1282 0
 1269 0178 0A00A0E1 		mov	r0, r10
 1270 017c FEFFFFEB 		bl	strlen
 1271              	.LVL147:
1279:D:/Work/DeviceTester/amazon-freertos/lib/shadow\aws_shadow.c ****                                            pxShadowClient->ucTopicBuffer,
 1272              		.loc 1 1279 0
 1273 0180 0B30A0E1 		mov	r3, fp
 1274 0184 7020FFE6 		uxth	r2, r0
 1275 0188 0A10A0E1 		mov	r1, r10
 1276 018c 0800A0E1 		mov	r0, r8
 1277 0190 FEFFFFEB 		bl	prvMatchCallbackTopic
 1278              	.LVL148:
 1279 0194 002050E2 		subs	r2, r0, #0
 1280 0198 0B00001A 		bne	.L126
1285:D:/Work/DeviceTester/amazon-freertos/lib/shadow\aws_shadow.c ****                                                                   pxParams->pxOperationParams->pcTh
 1281              		.loc 1 1285 0
 1282 019c 2C308DE2 		add	r3, sp, #44
 1283 01a0 201094E5 		ldr	r1, [r4, #32]
 1284 01a4 00308DE5 		str	r3, [sp]
 1285 01a8 143094E5 		ldr	r3, [r4, #20]
 1286              	.L138:
1299:D:/Work/DeviceTester/amazon-freertos/lib/shadow\aws_shadow.c ****                                                               pxParams->pxOperationParams->pcThingN
 1287              		.loc 1 1299 0
 1288 01ac 001091E5 		ldr	r1, [r1]
 1289 01b0 000094E5 		ldr	r0, [r4]
 1290 01b4 FEFFFFEB 		bl	prvShadowUnsubscribeFromAcceptedRejected.isra.3
 1291              	.LVL149:
 1292 01b8 002050E2 		subs	r2, r0, #0
 1293 01bc 0200001A 		bne	.L126
1305:D:/Work/DeviceTester/amazon-freertos/lib/shadow\aws_shadow.c ****                                           pxParams->xOperationName,
 1294              		.loc 1 1305 0
 1295 01c0 0410D4E5 		ldrb	r1, [r4, #4]	@ zero_extendqisi2
 1296 01c4 0800A0E1 		mov	r0, r8
 1297 01c8 FEFFFFEB 		bl	prvSetSubscribedFlag
 1298              	.LVL150:
 1299              	.L126:
1314:D:/Work/DeviceTester/amazon-freertos/lib/shadow\aws_shadow.c ****                             portMAX_DELAY ) == pdPASS )
 1300              		.loc 1 1314 0
 1301 01cc 753FA0E3 		mov	r3, #468
 1302 01d0 0010E0E3 		mvn	r1, #0
 1303 01d4 939525E0 		mla	r5, r3, r5, r9
 1304              	.LVL151:
 1305 01d8 140095E5 		ldr	r0, [r5, #20]
 1306 01dc FEFFFFEB 		bl	xQueueSemaphoreTake
 1307              	.LVL152:
 1308 01e0 010050E3 		cmp	r0, #1
 1309 01e4 2900001A 		bne	.L124
1317:D:/Work/DeviceTester/amazon-freertos/lib/shadow\aws_shadow.c ****             configASSERT( xSemaphoreGive( pxShadowClient->xOperationDataMutex ) == pdPASS );
 1310              		.loc 1 1317 0
 1311 01e8 0040A0E3 		mov	r4, #0
 1312              	.LVL153:
1318:D:/Work/DeviceTester/amazon-freertos/lib/shadow\aws_shadow.c ****         }
 1313              		.loc 1 1318 0
 1314 01ec 140095E5 		ldr	r0, [r5, #20]
1317:D:/Work/DeviceTester/amazon-freertos/lib/shadow\aws_shadow.c ****             configASSERT( xSemaphoreGive( pxShadowClient->xOperationDataMutex ) == pdPASS );
 1315              		.loc 1 1317 0
 1316 01f0 104185E5 		str	r4, [r5, #272]
1318:D:/Work/DeviceTester/amazon-freertos/lib/shadow\aws_shadow.c ****         }
 1317              		.loc 1 1318 0
 1318 01f4 0430A0E1 		mov	r3, r4
 1319 01f8 0420A0E1 		mov	r2, r4
 1320 01fc 0410A0E1 		mov	r1, r4
 1321 0200 FEFFFFEB 		bl	xQueueGenericSend
 1322              	.LVL154:
 1323 0204 010050E3 		cmp	r0, #1
 1324 0208 2000001A 		bne	.L124
1326:D:/Work/DeviceTester/amazon-freertos/lib/shadow\aws_shadow.c ****         memset( pxShadowClient->ucTopicBuffer, 0, shadowTOPIC_BUFFER_LENGTH );
 1325              		.loc 1 1326 0
 1326 020c 453F85E2 		add	r3, r5, #276
1327:D:/Work/DeviceTester/amazon-freertos/lib/shadow\aws_shadow.c ****         configASSERT( xSemaphoreGive( pxShadowClient->xOperationMutex )
 1327              		.loc 1 1327 0
 1328 0210 A720A0E3 		mov	r2, #167
1326:D:/Work/DeviceTester/amazon-freertos/lib/shadow\aws_shadow.c ****         memset( pxShadowClient->ucTopicBuffer, 0, shadowTOPIC_BUFFER_LENGTH );
 1329              		.loc 1 1326 0
 1330 0214 B040C3E1 		strh	r4, [r3]	@ movhi
1327:D:/Work/DeviceTester/amazon-freertos/lib/shadow\aws_shadow.c ****         configASSERT( xSemaphoreGive( pxShadowClient->xOperationMutex )
 1331              		.loc 1 1327 0
 1332 0218 0410A0E1 		mov	r1, r4
 1333 021c 070089E0 		add	r0, r9, r7
 1334 0220 FEFFFFEB 		bl	memset
 1335              	.LVL155:
1328:D:/Work/DeviceTester/amazon-freertos/lib/shadow\aws_shadow.c ****                       == pdPASS );
 1336              		.loc 1 1328 0
 1337 0224 0430A0E1 		mov	r3, r4
 1338 0228 0420A0E1 		mov	r2, r4
 1339 022c 0410A0E1 		mov	r1, r4
 1340 0230 180095E5 		ldr	r0, [r5, #24]
 1341 0234 FEFFFFEB 		bl	xQueueGenericSend
 1342              	.LVL156:
 1343 0238 010050E3 		cmp	r0, #1
 1344 023c 1300001A 		bne	.L124
 1345              	.LVL157:
 1346              	.L113:
1333:D:/Work/DeviceTester/amazon-freertos/lib/shadow\aws_shadow.c **** 
 1347              		.loc 1 1333 0
 1348 0240 0600A0E1 		mov	r0, r6
 1349 0244 44D08DE2 		add	sp, sp, #68
 1350              		.cfi_remember_state
 1351              		.cfi_def_cfa_offset 36
 1352              		@ sp needed
 1353 0248 F08FBDE8 		pop	{r4, r5, r6, r7, r8, r9, r10, fp, pc}
 1354              	.LVL158:
 1355              	.L116:
 1356              		.cfi_restore_state
 1357              	.LBB66:
 1358              	.LBB54:
1369:D:/Work/DeviceTester/amazon-freertos/lib/shadow\aws_shadow.c ****     {
1370:D:/Work/DeviceTester/amazon-freertos/lib/shadow\aws_shadow.c ****         case eShadowOperationUpdate:
1371:D:/Work/DeviceTester/amazon-freertos/lib/shadow\aws_shadow.c ****             ucReturn = ( uint8_t ) pxShadowClient->xUpdateSubscribed;
 1359              		.loc 1 1371 0
 1360 024c 0830D8E5 		ldrb	r3, [r8, #8]	@ zero_extendqisi2
 1361              	.LVL159:
 1362              	.L118:
 1363              	.LBE54:
 1364              	.LBE66:
1187:D:/Work/DeviceTester/amazon-freertos/lib/shadow\aws_shadow.c ****                                                  pxParams->xOperationName ) == pdFALSE )
 1365              		.loc 1 1187 0
 1366 0250 000053E3 		cmp	r3, #0
 1367 0254 7EFFFF0A 		beq	.L114
 1368              	.L119:
 1369              	.LVL160:
1208:D:/Work/DeviceTester/amazon-freertos/lib/shadow\aws_shadow.c ****                                           xTimeOutData.xTicksRemaining ) == pdPASS );
 1370              		.loc 1 1208 0
 1371 0258 756FA0E3 		mov	r6, #468
 1372 025c 1C919FE5 		ldr	r9, .L139
 1373 0260 960506E0 		mul	r6, r6, r5
1205:D:/Work/DeviceTester/amazon-freertos/lib/shadow\aws_shadow.c **** 
 1374              		.loc 1 1205 0
 1375 0264 0120A0E3 		mov	r2, #1
 1376 0268 0410D4E5 		ldrb	r1, [r4, #4]	@ zero_extendqisi2
 1377 026c 0800A0E1 		mov	r0, r8
 1378 0270 FEFFFFEB 		bl	prvSetSubscribedFlag
 1379              	.LVL161:
1208:D:/Work/DeviceTester/amazon-freertos/lib/shadow\aws_shadow.c ****                                           xTimeOutData.xTicksRemaining ) == pdPASS );
 1380              		.loc 1 1208 0
 1381 0274 06A089E0 		add	r10, r9, r6
 1382 0278 2C109DE5 		ldr	r1, [sp, #44]
 1383 027c 1C009AE5 		ldr	r0, [r10, #28]
 1384 0280 FEFFFFEB 		bl	xQueueSemaphoreTake
 1385              	.LVL162:
 1386 0284 010050E3 		cmp	r0, #1
 1387 0288 00B0A0E1 		mov	fp, r0
 1388 028c 0600000A 		beq	.L122
 1389              	.LVL163:
 1390              	.L124:
1208:D:/Work/DeviceTester/amazon-freertos/lib/shadow\aws_shadow.c ****                                           xTimeOutData.xTicksRemaining ) == pdPASS );
 1391              		.loc 1 1208 0 is_stmt 0 discriminator 1
 1392 0290 0110A0E3 		mov	r1, #1
 1393 0294 EC009FE5 		ldr	r0, .L139+8
 1394 0298 FEFFFFEB 		bl	longjmp
 1395              	.LVL164:
 1396              	.L115:
 1397              	.LBB67:
 1398              	.LBB55:
1372:D:/Work/DeviceTester/amazon-freertos/lib/shadow\aws_shadow.c ****             break;
1373:D:/Work/DeviceTester/amazon-freertos/lib/shadow\aws_shadow.c **** 
1374:D:/Work/DeviceTester/amazon-freertos/lib/shadow\aws_shadow.c ****         case eShadowOperationGet:
1375:D:/Work/DeviceTester/amazon-freertos/lib/shadow\aws_shadow.c ****             ucReturn = ( uint8_t ) pxShadowClient->xGetSubscribed;
 1399              		.loc 1 1375 0 is_stmt 1
 1400 029c 0C30D8E5 		ldrb	r3, [r8, #12]	@ zero_extendqisi2
 1401              	.LVL165:
 1402 02a0 EAFFFFEA 		b	.L118
 1403              	.LVL166:
 1404              	.L117:
1376:D:/Work/DeviceTester/amazon-freertos/lib/shadow\aws_shadow.c ****             break;
1377:D:/Work/DeviceTester/amazon-freertos/lib/shadow\aws_shadow.c **** 
1378:D:/Work/DeviceTester/amazon-freertos/lib/shadow\aws_shadow.c ****         case eShadowOperationDelete:
1379:D:/Work/DeviceTester/amazon-freertos/lib/shadow\aws_shadow.c ****             ucReturn = ( uint8_t ) pxShadowClient->xDeleteSubscribed;
 1405              		.loc 1 1379 0
 1406 02a4 1030D8E5 		ldrb	r3, [r8, #16]	@ zero_extendqisi2
 1407              	.LVL167:
 1408 02a8 E8FFFFEA 		b	.L118
 1409              	.LVL168:
 1410              	.L122:
 1411              	.LBE55:
 1412              	.LBE67:
1213:D:/Work/DeviceTester/amazon-freertos/lib/shadow\aws_shadow.c ****                                 shadowTOPIC_BUFFER_LENGTH,
 1413              		.loc 1 1213 0
 1414 02ac 202094E5 		ldr	r2, [r4, #32]
 1415 02b0 4B3F87E2 		add	r3, r7, #300
 1416 02b4 033089E0 		add	r3, r9, r3
 1417 02b8 0C1094E5 		ldr	r1, [r4, #12]
 1418 02bc 0300A0E1 		mov	r0, r3
 1419 02c0 0C308DE5 		str	r3, [sp, #12]
 1420 02c4 002092E5 		ldr	r2, [r2]
 1421 02c8 FEFFFFEB 		bl	prvCreateTopic.constprop.5
 1422              	.LVL169:
1219:D:/Work/DeviceTester/amazon-freertos/lib/shadow\aws_shadow.c ****             xPublishParams.pvData = pxParams->pcPublishMessage;
 1423              		.loc 1 1219 0
 1424 02cc 0C309DE5 		ldr	r3, [sp, #12]
1229:D:/Work/DeviceTester/amazon-freertos/lib/shadow\aws_shadow.c ****                                               &xPublishParams,
 1425              		.loc 1 1229 0
 1426 02d0 30108DE2 		add	r1, sp, #48
1212:D:/Work/DeviceTester/amazon-freertos/lib/shadow\aws_shadow.c ****                 prvCreateTopic( ( char * ) pxShadowClient->ucTopicBuffer,
 1427              		.loc 1 1212 0
 1428 02d4 B403CDE1 		strh	r0, [sp, #52]	@ movhi
1229:D:/Work/DeviceTester/amazon-freertos/lib/shadow\aws_shadow.c ****                                               &xPublishParams,
 1429              		.loc 1 1229 0
 1430 02d8 060099E7 		ldr	r0, [r9, r6]
1219:D:/Work/DeviceTester/amazon-freertos/lib/shadow\aws_shadow.c ****             xPublishParams.pvData = pxParams->pcPublishMessage;
 1431              		.loc 1 1219 0
 1432 02dc 30308DE5 		str	r3, [sp, #48]
1220:D:/Work/DeviceTester/amazon-freertos/lib/shadow\aws_shadow.c ****             xPublishParams.ulDataLength = pxParams->ulPublishMessageLength;
 1433              		.loc 1 1220 0
 1434 02e0 183094E5 		ldr	r3, [r4, #24]
 1435 02e4 38308DE5 		str	r3, [sp, #56]
1221:D:/Work/DeviceTester/amazon-freertos/lib/shadow\aws_shadow.c ****             xPublishParams.xQoS = ( pxParams->pxOperationParams )->xQoS;
 1436              		.loc 1 1221 0
 1437 02e8 1C3094E5 		ldr	r3, [r4, #28]
 1438 02ec 3C308DE5 		str	r3, [sp, #60]
1222:D:/Work/DeviceTester/amazon-freertos/lib/shadow\aws_shadow.c **** 
 1439              		.loc 1 1222 0
 1440 02f0 203094E5 		ldr	r3, [r4, #32]
 1441 02f4 1120D3E5 		ldrb	r2, [r3, #17]	@ zero_extendqisi2
1226:D:/Work/DeviceTester/amazon-freertos/lib/shadow\aws_shadow.c ****             pxShadowClient->pxOperationData = &xOperationData;
 1442              		.loc 1 1226 0
 1443 02f8 20308DE5 		str	r3, [sp, #32]
1227:D:/Work/DeviceTester/amazon-freertos/lib/shadow\aws_shadow.c **** 
 1444              		.loc 1 1227 0
 1445 02fc 1C308DE2 		add	r3, sp, #28
1222:D:/Work/DeviceTester/amazon-freertos/lib/shadow\aws_shadow.c **** 
 1446              		.loc 1 1222 0
 1447 0300 3620CDE5 		strb	r2, [sp, #54]
1225:D:/Work/DeviceTester/amazon-freertos/lib/shadow\aws_shadow.c ****             xOperationData.pxOperationParams = pxParams->pxOperationParams;
 1448              		.loc 1 1225 0
 1449 0304 0420D4E5 		ldrb	r2, [r4, #4]	@ zero_extendqisi2
1227:D:/Work/DeviceTester/amazon-freertos/lib/shadow\aws_shadow.c **** 
 1450              		.loc 1 1227 0
 1451 0308 10318AE5 		str	r3, [r10, #272]
1225:D:/Work/DeviceTester/amazon-freertos/lib/shadow\aws_shadow.c ****             xOperationData.pxOperationParams = pxParams->pxOperationParams;
 1452              		.loc 1 1225 0
 1453 030c 1C20CDE5 		strb	r2, [sp, #28]
1229:D:/Work/DeviceTester/amazon-freertos/lib/shadow\aws_shadow.c ****                                               &xPublishParams,
 1454              		.loc 1 1229 0
 1455 0310 2C209DE5 		ldr	r2, [sp, #44]
 1456 0314 FEFFFFEB 		bl	MQTT_AGENT_Publish
 1457              	.LVL170:
1234:D:/Work/DeviceTester/amazon-freertos/lib/shadow\aws_shadow.c ****                                                 ( ShadowClientHandle_t ) ( pxParams->xShadowClientI
 1458              		.loc 1 1234 0
 1459 0318 FEFFFFEB 		bl	prvConvertMQTTReturnCode.isra.0
 1460              	.LVL171:
1238:D:/Work/DeviceTester/amazon-freertos/lib/shadow\aws_shadow.c ****             {
 1461              		.loc 1 1238 0
 1462 031c 006050E2 		subs	r6, r0, #0
 1463 0320 0700001A 		bne	.L123
1242:D:/Work/DeviceTester/amazon-freertos/lib/shadow\aws_shadow.c ****                                     xTimeOutData.xTicksRemaining ) != pdPASS )
 1464              		.loc 1 1242 0
 1465 0324 1C009AE5 		ldr	r0, [r10, #28]
 1466              	.LVL172:
 1467 0328 2C109DE5 		ldr	r1, [sp, #44]
 1468 032c FEFFFFEB 		bl	xQueueSemaphoreTake
 1469              	.LVL173:
 1470 0330 010050E3 		cmp	r0, #1
1254:D:/Work/DeviceTester/amazon-freertos/lib/shadow\aws_shadow.c ****                 }
 1471              		.loc 1 1254 0
 1472 0334 45AF8A02 		addeq	r10, r10, #276
1249:D:/Work/DeviceTester/amazon-freertos/lib/shadow\aws_shadow.c ****                 }
 1473              		.loc 1 1249 0
 1474 0338 0B60A011 		movne	r6, fp
1254:D:/Work/DeviceTester/amazon-freertos/lib/shadow\aws_shadow.c ****                 }
 1475              		.loc 1 1254 0
 1476 033c B060DA01 		ldrheq	r6, [r10]
 1477 0340 7660BF06 		sxtheq	r6, r6
 1478              	.L123:
 1479              	.LVL174:
1258:D:/Work/DeviceTester/amazon-freertos/lib/shadow\aws_shadow.c ****         }
 1480              		.loc 1 1258 0
 1481 0344 753FA0E3 		mov	r3, #468
 1482 0348 939529E0 		mla	r9, r3, r5, r9
 1483 034c 0030A0E3 		mov	r3, #0
 1484 0350 0320A0E1 		mov	r2, r3
 1485 0354 0310A0E1 		mov	r1, r3
 1486 0358 1C0099E5 		ldr	r0, [r9, #28]
 1487 035c FEFFFFEB 		bl	xQueueGenericSend
 1488              	.LVL175:
 1489 0360 010050E3 		cmp	r0, #1
 1490 0364 70FFFF0A 		beq	.L129
 1491 0368 C8FFFFEA 		b	.L124
 1492              	.L127:
1299:D:/Work/DeviceTester/amazon-freertos/lib/shadow\aws_shadow.c ****                                                               pxParams->pxOperationParams->pcThingN
 1493              		.loc 1 1299 0
 1494 036c 2C308DE2 		add	r3, sp, #44
 1495 0370 00308DE5 		str	r3, [sp]
 1496 0374 143094E5 		ldr	r3, [r4, #20]
 1497 0378 102094E5 		ldr	r2, [r4, #16]
 1498 037c 8AFFFFEA 		b	.L138
 1499              	.L140:
 1500              		.align	2
 1501              	.L139:
 1502 0380 00000000 		.word	.LANCHOR0
 1503 0384 61000000 		.word	.LC3
 1504 0388 28000000 		.word	Unity+40
 1505              		.cfi_endproc
 1506              	.LFE15:
 1508              		.section	.text.SHADOW_ClientConnect,"ax",%progbits
 1509              		.align	2
 1510              		.global	SHADOW_ClientConnect
 1511              		.syntax unified
 1512              		.arm
 1513              		.fpu neon
 1515              	SHADOW_ClientConnect:
 1516              	.LFB19:
1380:D:/Work/DeviceTester/amazon-freertos/lib/shadow\aws_shadow.c ****             break;
1381:D:/Work/DeviceTester/amazon-freertos/lib/shadow\aws_shadow.c **** 
1382:D:/Work/DeviceTester/amazon-freertos/lib/shadow\aws_shadow.c ****         default:
1383:D:/Work/DeviceTester/amazon-freertos/lib/shadow\aws_shadow.c ****             /* Should not fall here. */
1384:D:/Work/DeviceTester/amazon-freertos/lib/shadow\aws_shadow.c ****             break;
1385:D:/Work/DeviceTester/amazon-freertos/lib/shadow\aws_shadow.c ****     }
1386:D:/Work/DeviceTester/amazon-freertos/lib/shadow\aws_shadow.c **** 
1387:D:/Work/DeviceTester/amazon-freertos/lib/shadow\aws_shadow.c ****     return ucReturn;
1388:D:/Work/DeviceTester/amazon-freertos/lib/shadow\aws_shadow.c **** }
1389:D:/Work/DeviceTester/amazon-freertos/lib/shadow\aws_shadow.c **** 
1390:D:/Work/DeviceTester/amazon-freertos/lib/shadow\aws_shadow.c **** /*-----------------------------------------------------------*/
1391:D:/Work/DeviceTester/amazon-freertos/lib/shadow\aws_shadow.c **** 
1392:D:/Work/DeviceTester/amazon-freertos/lib/shadow\aws_shadow.c **** ShadowReturnCode_t SHADOW_ClientCreate( ShadowClientHandle_t * pxShadowClientHandle,
1393:D:/Work/DeviceTester/amazon-freertos/lib/shadow\aws_shadow.c ****                                         const ShadowCreateParams_t * const pxShadowCreateParams )
1394:D:/Work/DeviceTester/amazon-freertos/lib/shadow\aws_shadow.c **** {
1395:D:/Work/DeviceTester/amazon-freertos/lib/shadow\aws_shadow.c ****     ShadowClient_t * pxShadowClient;
1396:D:/Work/DeviceTester/amazon-freertos/lib/shadow\aws_shadow.c ****     BaseType_t xShadowClientID;
1397:D:/Work/DeviceTester/amazon-freertos/lib/shadow\aws_shadow.c ****     ShadowReturnCode_t xReturn = eShadowFailure;
1398:D:/Work/DeviceTester/amazon-freertos/lib/shadow\aws_shadow.c ****     MQTTAgentReturnCode_t xMQTTReturn;
1399:D:/Work/DeviceTester/amazon-freertos/lib/shadow\aws_shadow.c **** 
1400:D:/Work/DeviceTester/amazon-freertos/lib/shadow\aws_shadow.c ****     configASSERT( ( pxShadowClientHandle != NULL ) );
1401:D:/Work/DeviceTester/amazon-freertos/lib/shadow\aws_shadow.c ****     configASSERT( ( pxShadowCreateParams != NULL ) );
1402:D:/Work/DeviceTester/amazon-freertos/lib/shadow\aws_shadow.c **** 
1403:D:/Work/DeviceTester/amazon-freertos/lib/shadow\aws_shadow.c ****     /* For now, only dedicated MQTT clients are supported. Remove this assert
1404:D:/Work/DeviceTester/amazon-freertos/lib/shadow\aws_shadow.c ****      * once support for shared clients is added. */
1405:D:/Work/DeviceTester/amazon-freertos/lib/shadow\aws_shadow.c ****     configASSERT( ( pxShadowCreateParams->xMQTTClientType == eDedicatedMQTTClient ) );
1406:D:/Work/DeviceTester/amazon-freertos/lib/shadow\aws_shadow.c **** 
1407:D:/Work/DeviceTester/amazon-freertos/lib/shadow\aws_shadow.c ****     xShadowClientID = prvGetFreeShadowClient();
1408:D:/Work/DeviceTester/amazon-freertos/lib/shadow\aws_shadow.c ****     configASSERT( xShadowClientID >= 0 );
1409:D:/Work/DeviceTester/amazon-freertos/lib/shadow\aws_shadow.c **** 
1410:D:/Work/DeviceTester/amazon-freertos/lib/shadow\aws_shadow.c ****     if( xShadowClientID >= 0 )
1411:D:/Work/DeviceTester/amazon-freertos/lib/shadow\aws_shadow.c ****     {
1412:D:/Work/DeviceTester/amazon-freertos/lib/shadow\aws_shadow.c ****         pxShadowClient = &( xShadowClients[ xShadowClientID ] );
1413:D:/Work/DeviceTester/amazon-freertos/lib/shadow\aws_shadow.c **** 
1414:D:/Work/DeviceTester/amazon-freertos/lib/shadow\aws_shadow.c ****         xMQTTReturn = MQTT_AGENT_Create( &( pxShadowClient->xMQTTClient ) );
1415:D:/Work/DeviceTester/amazon-freertos/lib/shadow\aws_shadow.c **** 
1416:D:/Work/DeviceTester/amazon-freertos/lib/shadow\aws_shadow.c ****         xReturn = prvConvertMQTTReturnCode( xMQTTReturn,
1417:D:/Work/DeviceTester/amazon-freertos/lib/shadow\aws_shadow.c ****                                             ( ShadowClientHandle_t ) xShadowClientID, /*lint !e923 
1418:D:/Work/DeviceTester/amazon-freertos/lib/shadow\aws_shadow.c ****                                             "Creation of dedicated MQTT client" );
1419:D:/Work/DeviceTester/amazon-freertos/lib/shadow\aws_shadow.c **** 
1420:D:/Work/DeviceTester/amazon-freertos/lib/shadow\aws_shadow.c ****         if( xReturn == eShadowSuccess )
1421:D:/Work/DeviceTester/amazon-freertos/lib/shadow\aws_shadow.c ****         {
1422:D:/Work/DeviceTester/amazon-freertos/lib/shadow\aws_shadow.c ****             /* Create synchronization mechanisms; these calls should never fail. */
1423:D:/Work/DeviceTester/amazon-freertos/lib/shadow\aws_shadow.c ****             pxShadowClient->xCallbackSemaphore = xSemaphoreCreateBinaryStatic( &( pxShadowClient->x
1424:D:/Work/DeviceTester/amazon-freertos/lib/shadow\aws_shadow.c ****             pxShadowClient->xOperationMutex = xSemaphoreCreateMutexStatic( &( pxShadowClient->xOper
1425:D:/Work/DeviceTester/amazon-freertos/lib/shadow\aws_shadow.c ****             pxShadowClient->xOperationDataMutex = xSemaphoreCreateMutexStatic( &( pxShadowClient->x
1426:D:/Work/DeviceTester/amazon-freertos/lib/shadow\aws_shadow.c ****             configASSERT( xSemaphoreGive( pxShadowClient->xCallbackSemaphore ) == pdPASS );
1427:D:/Work/DeviceTester/amazon-freertos/lib/shadow\aws_shadow.c **** 
1428:D:/Work/DeviceTester/amazon-freertos/lib/shadow\aws_shadow.c ****             /* Set the output parameter. */
1429:D:/Work/DeviceTester/amazon-freertos/lib/shadow\aws_shadow.c ****             *pxShadowClientHandle = ( ShadowClientHandle_t ) xShadowClientID; /*lint !e923 Safe cas
1430:D:/Work/DeviceTester/amazon-freertos/lib/shadow\aws_shadow.c ****         }
1431:D:/Work/DeviceTester/amazon-freertos/lib/shadow\aws_shadow.c ****         else
1432:D:/Work/DeviceTester/amazon-freertos/lib/shadow\aws_shadow.c ****         {
1433:D:/Work/DeviceTester/amazon-freertos/lib/shadow\aws_shadow.c ****             Shadow_debug_printf( ( "[Shadow Init] Failed to create dedicated"
1434:D:/Work/DeviceTester/amazon-freertos/lib/shadow\aws_shadow.c ****                                    "client; deleting partially-initialized client.\r\n" ) );
1435:D:/Work/DeviceTester/amazon-freertos/lib/shadow\aws_shadow.c **** 
1436:D:/Work/DeviceTester/amazon-freertos/lib/shadow\aws_shadow.c ****             /* Delete the partially-initialized client. */
1437:D:/Work/DeviceTester/amazon-freertos/lib/shadow\aws_shadow.c ****             xReturn = SHADOW_ClientDelete( *( pxShadowClientHandle ) );
1438:D:/Work/DeviceTester/amazon-freertos/lib/shadow\aws_shadow.c ****         }
1439:D:/Work/DeviceTester/amazon-freertos/lib/shadow\aws_shadow.c ****     }
1440:D:/Work/DeviceTester/amazon-freertos/lib/shadow\aws_shadow.c **** 
1441:D:/Work/DeviceTester/amazon-freertos/lib/shadow\aws_shadow.c ****     return xReturn;
1442:D:/Work/DeviceTester/amazon-freertos/lib/shadow\aws_shadow.c **** }
1443:D:/Work/DeviceTester/amazon-freertos/lib/shadow\aws_shadow.c **** 
1444:D:/Work/DeviceTester/amazon-freertos/lib/shadow\aws_shadow.c **** /*-----------------------------------------------------------*/
1445:D:/Work/DeviceTester/amazon-freertos/lib/shadow\aws_shadow.c **** 
1446:D:/Work/DeviceTester/amazon-freertos/lib/shadow\aws_shadow.c **** ShadowReturnCode_t SHADOW_ClientConnect( ShadowClientHandle_t xShadowClientHandle,
1447:D:/Work/DeviceTester/amazon-freertos/lib/shadow\aws_shadow.c ****                                          MQTTAgentConnectParams_t * const pxConnectParams,
1448:D:/Work/DeviceTester/amazon-freertos/lib/shadow\aws_shadow.c ****                                          TickType_t xTimeoutTicks )
1449:D:/Work/DeviceTester/amazon-freertos/lib/shadow\aws_shadow.c **** {
 1517              		.loc 1 1449 0
 1518              		.cfi_startproc
 1519              		@ args = 0, pretend = 0, frame = 0
 1520              		@ frame_needed = 0, uses_anonymous_args = 0
 1521              	.LVL176:
 1522 0000 70402DE9 		push	{r4, r5, r6, lr}
 1523              		.cfi_def_cfa_offset 16
 1524              		.cfi_offset 4, -16
 1525              		.cfi_offset 5, -12
 1526              		.cfi_offset 6, -8
 1527              		.cfi_offset 14, -4
1450:D:/Work/DeviceTester/amazon-freertos/lib/shadow\aws_shadow.c ****     ShadowClient_t * pxShadowClient;
1451:D:/Work/DeviceTester/amazon-freertos/lib/shadow\aws_shadow.c ****     ShadowReturnCode_t xReturn;
1452:D:/Work/DeviceTester/amazon-freertos/lib/shadow\aws_shadow.c ****     MQTTAgentReturnCode_t xMQTTReturn;
1453:D:/Work/DeviceTester/amazon-freertos/lib/shadow\aws_shadow.c **** 
1454:D:/Work/DeviceTester/amazon-freertos/lib/shadow\aws_shadow.c ****     configASSERT( ( ( BaseType_t ) xShadowClientHandle >= 0 &&
 1528              		.loc 1 1454 0
 1529 0004 005050E2 		subs	r5, r0, #0
 1530 0008 0200000A 		beq	.L142
 1531              	.LVL177:
 1532              	.L143:
 1533              		.loc 1 1454 0 is_stmt 0 discriminator 1
 1534 000c 0110A0E3 		mov	r1, #1
 1535              	.LVL178:
 1536 0010 40009FE5 		ldr	r0, .L145
 1537 0014 FEFFFFEB 		bl	longjmp
 1538              	.LVL179:
 1539              	.L142:
1455:D:/Work/DeviceTester/amazon-freertos/lib/shadow\aws_shadow.c ****                     ( BaseType_t ) xShadowClientHandle < shadowconfigMAX_CLIENTS ) );              
1456:D:/Work/DeviceTester/amazon-freertos/lib/shadow\aws_shadow.c ****     configASSERT( xShadowClientHandle == *( ( ShadowClientHandle_t * ) ( pxConnectParams->pvUserDat
 1540              		.loc 1 1456 0 is_stmt 1
 1541 0018 1C3091E5 		ldr	r3, [r1, #28]
 1542 001c 0140A0E1 		mov	r4, r1
 1543 0020 003093E5 		ldr	r3, [r3]
 1544 0024 030055E1 		cmp	r5, r3
 1545 0028 F7FFFF1A 		bne	.L143
 1546              	.LVL180:
1457:D:/Work/DeviceTester/amazon-freertos/lib/shadow\aws_shadow.c **** 
1458:D:/Work/DeviceTester/amazon-freertos/lib/shadow\aws_shadow.c ****     pxShadowClient = &( xShadowClients[ ( BaseType_t ) xShadowClientHandle ] );                    
1459:D:/Work/DeviceTester/amazon-freertos/lib/shadow\aws_shadow.c ****     configASSERT( ( pxShadowClient->xInUse == pdTRUE ) );
 1547              		.loc 1 1459 0
 1548 002c 28309FE5 		ldr	r3, .L145+4
 1549 0030 040093E5 		ldr	r0, [r3, #4]
 1550              	.LVL181:
 1551 0034 010050E3 		cmp	r0, #1
 1552 0038 F3FFFF1A 		bne	.L143
1460:D:/Work/DeviceTester/amazon-freertos/lib/shadow\aws_shadow.c **** 
1461:D:/Work/DeviceTester/amazon-freertos/lib/shadow\aws_shadow.c ****     pxConnectParams->pxCallback = prvShadowMQTTCallback;
 1553              		.loc 1 1461 0
 1554 003c 1C009FE5 		ldr	r0, .L145+8
 1555 0040 200081E5 		str	r0, [r1, #32]
1462:D:/Work/DeviceTester/amazon-freertos/lib/shadow\aws_shadow.c **** 
1463:D:/Work/DeviceTester/amazon-freertos/lib/shadow\aws_shadow.c ****     xMQTTReturn = MQTT_AGENT_Connect( pxShadowClient->xMQTTClient,
 1556              		.loc 1 1463 0
 1557 0044 000093E5 		ldr	r0, [r3]
 1558 0048 FEFFFFEB 		bl	MQTT_AGENT_Connect
 1559              	.LVL182:
1464:D:/Work/DeviceTester/amazon-freertos/lib/shadow\aws_shadow.c ****                                       pxConnectParams,
1465:D:/Work/DeviceTester/amazon-freertos/lib/shadow\aws_shadow.c ****                                       xTimeoutTicks );
1466:D:/Work/DeviceTester/amazon-freertos/lib/shadow\aws_shadow.c **** 
1467:D:/Work/DeviceTester/amazon-freertos/lib/shadow\aws_shadow.c ****     xReturn = prvConvertMQTTReturnCode( xMQTTReturn,
 1560              		.loc 1 1467 0
 1561 004c FEFFFFEB 		bl	prvConvertMQTTReturnCode.isra.0
 1562              	.LVL183:
1468:D:/Work/DeviceTester/amazon-freertos/lib/shadow\aws_shadow.c ****                                         xShadowClientHandle,
1469:D:/Work/DeviceTester/amazon-freertos/lib/shadow\aws_shadow.c ****                                         "Connect" );
1470:D:/Work/DeviceTester/amazon-freertos/lib/shadow\aws_shadow.c **** 
1471:D:/Work/DeviceTester/amazon-freertos/lib/shadow\aws_shadow.c ****     pxConnectParams->pxCallback = NULL;
 1563              		.loc 1 1471 0
 1564 0050 205084E5 		str	r5, [r4, #32]
1472:D:/Work/DeviceTester/amazon-freertos/lib/shadow\aws_shadow.c **** 
1473:D:/Work/DeviceTester/amazon-freertos/lib/shadow\aws_shadow.c ****     return xReturn;
1474:D:/Work/DeviceTester/amazon-freertos/lib/shadow\aws_shadow.c **** }
 1565              		.loc 1 1474 0
 1566 0054 7080BDE8 		pop	{r4, r5, r6, pc}
 1567              	.L146:
 1568              		.align	2
 1569              	.L145:
 1570 0058 28000000 		.word	Unity+40
 1571 005c 00000000 		.word	.LANCHOR0
 1572 0060 00000000 		.word	prvShadowMQTTCallback
 1573              		.cfi_endproc
 1574              	.LFE19:
 1576              		.section	.text.SHADOW_ClientDisconnect,"ax",%progbits
 1577              		.align	2
 1578              		.global	SHADOW_ClientDisconnect
 1579              		.syntax unified
 1580              		.arm
 1581              		.fpu neon
 1583              	SHADOW_ClientDisconnect:
 1584              	.LFB20:
1475:D:/Work/DeviceTester/amazon-freertos/lib/shadow\aws_shadow.c **** 
1476:D:/Work/DeviceTester/amazon-freertos/lib/shadow\aws_shadow.c **** /*-----------------------------------------------------------*/
1477:D:/Work/DeviceTester/amazon-freertos/lib/shadow\aws_shadow.c **** 
1478:D:/Work/DeviceTester/amazon-freertos/lib/shadow\aws_shadow.c **** ShadowReturnCode_t SHADOW_ClientDisconnect( ShadowClientHandle_t xShadowClientHandle )
1479:D:/Work/DeviceTester/amazon-freertos/lib/shadow\aws_shadow.c **** {
 1585              		.loc 1 1479 0
 1586              		.cfi_startproc
 1587              		@ args = 0, pretend = 0, frame = 0
 1588              		@ frame_needed = 0, uses_anonymous_args = 0
 1589              	.LVL184:
1480:D:/Work/DeviceTester/amazon-freertos/lib/shadow\aws_shadow.c ****     ShadowClient_t * pxShadowClient;
1481:D:/Work/DeviceTester/amazon-freertos/lib/shadow\aws_shadow.c ****     MQTTAgentReturnCode_t xMQTTReturn;
1482:D:/Work/DeviceTester/amazon-freertos/lib/shadow\aws_shadow.c ****     TickType_t xTimeoutTicks;
1483:D:/Work/DeviceTester/amazon-freertos/lib/shadow\aws_shadow.c ****     ShadowReturnCode_t xReturn;
1484:D:/Work/DeviceTester/amazon-freertos/lib/shadow\aws_shadow.c **** 
1485:D:/Work/DeviceTester/amazon-freertos/lib/shadow\aws_shadow.c ****     configASSERT( ( ( BaseType_t ) xShadowClientHandle >= 0 &&
 1590              		.loc 1 1485 0
 1591 0000 000050E3 		cmp	r0, #0
1479:D:/Work/DeviceTester/amazon-freertos/lib/shadow\aws_shadow.c ****     ShadowClient_t * pxShadowClient;
 1592              		.loc 1 1479 0
 1593 0004 10402DE9 		push	{r4, lr}
 1594              		.cfi_def_cfa_offset 8
 1595              		.cfi_offset 4, -8
 1596              		.cfi_offset 14, -4
 1597              		.loc 1 1485 0
 1598 0008 0200000A 		beq	.L148
 1599              	.L149:
 1600              		.loc 1 1485 0 is_stmt 0 discriminator 1
 1601 000c 0110A0E3 		mov	r1, #1
 1602 0010 24009FE5 		ldr	r0, .L151
 1603              	.LVL185:
 1604 0014 FEFFFFEB 		bl	longjmp
 1605              	.LVL186:
 1606              	.L148:
1486:D:/Work/DeviceTester/amazon-freertos/lib/shadow\aws_shadow.c ****                     ( BaseType_t ) xShadowClientHandle < shadowconfigMAX_CLIENTS ) ); /*lint !e923 
1487:D:/Work/DeviceTester/amazon-freertos/lib/shadow\aws_shadow.c **** 
1488:D:/Work/DeviceTester/amazon-freertos/lib/shadow\aws_shadow.c ****     pxShadowClient = &( xShadowClients[ ( BaseType_t ) xShadowClientHandle ] );       /*lint !e923 
1489:D:/Work/DeviceTester/amazon-freertos/lib/shadow\aws_shadow.c ****     configASSERT( ( pxShadowClient->xInUse == pdTRUE ) );
 1607              		.loc 1 1489 0 is_stmt 1
 1608 0018 20309FE5 		ldr	r3, .L151+4
 1609 001c 042093E5 		ldr	r2, [r3, #4]
 1610 0020 010052E3 		cmp	r2, #1
 1611 0024 F8FFFF1A 		bne	.L149
 1612              	.LVL187:
1490:D:/Work/DeviceTester/amazon-freertos/lib/shadow\aws_shadow.c **** 
1491:D:/Work/DeviceTester/amazon-freertos/lib/shadow\aws_shadow.c ****     xTimeoutTicks = pdMS_TO_TICKS( shadowconfigCLEANUP_TIME_MS );
1492:D:/Work/DeviceTester/amazon-freertos/lib/shadow\aws_shadow.c **** 
1493:D:/Work/DeviceTester/amazon-freertos/lib/shadow\aws_shadow.c ****     xMQTTReturn = MQTT_AGENT_Disconnect( pxShadowClient->xMQTTClient,
 1613              		.loc 1 1493 0
 1614 0028 881301E3 		movw	r1, #5000
 1615 002c 000093E5 		ldr	r0, [r3]
 1616              	.LVL188:
 1617 0030 FEFFFFEB 		bl	MQTT_AGENT_Disconnect
 1618              	.LVL189:
1494:D:/Work/DeviceTester/amazon-freertos/lib/shadow\aws_shadow.c ****                                          xTimeoutTicks );
1495:D:/Work/DeviceTester/amazon-freertos/lib/shadow\aws_shadow.c **** 
1496:D:/Work/DeviceTester/amazon-freertos/lib/shadow\aws_shadow.c ****     xReturn = prvConvertMQTTReturnCode( xMQTTReturn,
1497:D:/Work/DeviceTester/amazon-freertos/lib/shadow\aws_shadow.c ****                                         xShadowClientHandle,
1498:D:/Work/DeviceTester/amazon-freertos/lib/shadow\aws_shadow.c ****                                         "Disconnect" );
1499:D:/Work/DeviceTester/amazon-freertos/lib/shadow\aws_shadow.c **** 
1500:D:/Work/DeviceTester/amazon-freertos/lib/shadow\aws_shadow.c ****     return xReturn;
1501:D:/Work/DeviceTester/amazon-freertos/lib/shadow\aws_shadow.c **** }
 1619              		.loc 1 1501 0
 1620 0034 1040BDE8 		pop	{r4, lr}
 1621              		.cfi_restore 14
 1622              		.cfi_restore 4
 1623              		.cfi_def_cfa_offset 0
1496:D:/Work/DeviceTester/amazon-freertos/lib/shadow\aws_shadow.c ****                                         xShadowClientHandle,
 1624              		.loc 1 1496 0
 1625 0038 FEFFFFEA 		b	prvConvertMQTTReturnCode.isra.0
 1626              	.LVL190:
 1627              	.L152:
 1628              		.align	2
 1629              	.L151:
 1630 003c 28000000 		.word	Unity+40
 1631 0040 00000000 		.word	.LANCHOR0
 1632              		.cfi_endproc
 1633              	.LFE20:
 1635              		.section	.text.SHADOW_ClientDelete,"ax",%progbits
 1636              		.align	2
 1637              		.global	SHADOW_ClientDelete
 1638              		.syntax unified
 1639              		.arm
 1640              		.fpu neon
 1642              	SHADOW_ClientDelete:
 1643              	.LFB21:
1502:D:/Work/DeviceTester/amazon-freertos/lib/shadow\aws_shadow.c **** 
1503:D:/Work/DeviceTester/amazon-freertos/lib/shadow\aws_shadow.c **** /*-----------------------------------------------------------*/
1504:D:/Work/DeviceTester/amazon-freertos/lib/shadow\aws_shadow.c **** 
1505:D:/Work/DeviceTester/amazon-freertos/lib/shadow\aws_shadow.c **** ShadowReturnCode_t SHADOW_ClientDelete( ShadowClientHandle_t xShadowClientHandle )
1506:D:/Work/DeviceTester/amazon-freertos/lib/shadow\aws_shadow.c **** {
 1644              		.loc 1 1506 0
 1645              		.cfi_startproc
 1646              		@ args = 0, pretend = 0, frame = 0
 1647              		@ frame_needed = 0, uses_anonymous_args = 0
 1648              	.LVL191:
1507:D:/Work/DeviceTester/amazon-freertos/lib/shadow\aws_shadow.c ****     ShadowClient_t * pxShadowClient;
1508:D:/Work/DeviceTester/amazon-freertos/lib/shadow\aws_shadow.c ****     ShadowReturnCode_t xReturn = eShadowFailure;
1509:D:/Work/DeviceTester/amazon-freertos/lib/shadow\aws_shadow.c ****     MQTTAgentReturnCode_t xMQTTReturn;
1510:D:/Work/DeviceTester/amazon-freertos/lib/shadow\aws_shadow.c **** 
1511:D:/Work/DeviceTester/amazon-freertos/lib/shadow\aws_shadow.c ****     configASSERT( ( ( BaseType_t ) xShadowClientHandle >= 0 &&
 1649              		.loc 1 1511 0
 1650 0000 000050E3 		cmp	r0, #0
1506:D:/Work/DeviceTester/amazon-freertos/lib/shadow\aws_shadow.c ****     ShadowClient_t * pxShadowClient;
 1651              		.loc 1 1506 0
 1652 0004 70402DE9 		push	{r4, r5, r6, lr}
 1653              		.cfi_def_cfa_offset 16
 1654              		.cfi_offset 4, -16
 1655              		.cfi_offset 5, -12
 1656              		.cfi_offset 6, -8
 1657              		.cfi_offset 14, -4
 1658              		.loc 1 1511 0
 1659 0008 0200000A 		beq	.L154
 1660              	.L155:
 1661              	.LVL192:
 1662              	.LBB70:
 1663              	.LBB71:
 1664 000c 0110A0E3 		mov	r1, #1
 1665 0010 44009FE5 		ldr	r0, .L158
 1666              	.LVL193:
 1667 0014 FEFFFFEB 		bl	longjmp
 1668              	.LVL194:
 1669              	.L154:
 1670              	.LBE71:
 1671              	.LBE70:
1512:D:/Work/DeviceTester/amazon-freertos/lib/shadow\aws_shadow.c ****                     ( BaseType_t ) xShadowClientHandle < shadowconfigMAX_CLIENTS ) ); /*lint !e923 
1513:D:/Work/DeviceTester/amazon-freertos/lib/shadow\aws_shadow.c **** 
1514:D:/Work/DeviceTester/amazon-freertos/lib/shadow\aws_shadow.c ****     pxShadowClient = &( xShadowClients[ ( BaseType_t ) xShadowClientHandle ] );       /*lint !e923 
1515:D:/Work/DeviceTester/amazon-freertos/lib/shadow\aws_shadow.c ****     configASSERT( ( pxShadowClient->xInUse == pdTRUE ) );
 1672              		.loc 1 1515 0
 1673 0018 40409FE5 		ldr	r4, .L158+4
 1674 001c 043094E5 		ldr	r3, [r4, #4]
 1675 0020 010053E3 		cmp	r3, #1
 1676 0024 F8FFFF1A 		bne	.L155
1516:D:/Work/DeviceTester/amazon-freertos/lib/shadow\aws_shadow.c **** 
1517:D:/Work/DeviceTester/amazon-freertos/lib/shadow\aws_shadow.c ****     xMQTTReturn = MQTT_AGENT_Delete( pxShadowClient->xMQTTClient );
 1677              		.loc 1 1517 0
 1678 0028 000094E5 		ldr	r0, [r4]
 1679              	.LVL195:
 1680 002c FEFFFFEB 		bl	MQTT_AGENT_Delete
 1681              	.LVL196:
1518:D:/Work/DeviceTester/amazon-freertos/lib/shadow\aws_shadow.c **** 
1519:D:/Work/DeviceTester/amazon-freertos/lib/shadow\aws_shadow.c ****     xReturn = prvConvertMQTTReturnCode( xMQTTReturn,
 1682              		.loc 1 1519 0
 1683 0030 FEFFFFEB 		bl	prvConvertMQTTReturnCode.isra.0
 1684              	.LVL197:
1520:D:/Work/DeviceTester/amazon-freertos/lib/shadow\aws_shadow.c ****                                         xShadowClientHandle,
1521:D:/Work/DeviceTester/amazon-freertos/lib/shadow\aws_shadow.c ****                                         "MQTT Client delete" );
1522:D:/Work/DeviceTester/amazon-freertos/lib/shadow\aws_shadow.c **** 
1523:D:/Work/DeviceTester/amazon-freertos/lib/shadow\aws_shadow.c ****     if( xReturn == eShadowSuccess )
 1685              		.loc 1 1523 0
 1686 0034 005050E2 		subs	r5, r0, #0
 1687 0038 0500001A 		bne	.L156
1524:D:/Work/DeviceTester/amazon-freertos/lib/shadow\aws_shadow.c ****     {
1525:D:/Work/DeviceTester/amazon-freertos/lib/shadow\aws_shadow.c ****         taskENTER_CRITICAL();
 1688              		.loc 1 1525 0
 1689 003c FEFFFFEB 		bl	vPortEnterCritical
 1690              	.LVL198:
1526:D:/Work/DeviceTester/amazon-freertos/lib/shadow\aws_shadow.c ****         memset( pxShadowClient, 0, sizeof( ShadowClient_t ) );
 1691              		.loc 1 1526 0
 1692 0040 752FA0E3 		mov	r2, #468
 1693 0044 0510A0E1 		mov	r1, r5
 1694 0048 0400A0E1 		mov	r0, r4
 1695 004c FEFFFFEB 		bl	memset
 1696              	.LVL199:
1527:D:/Work/DeviceTester/amazon-freertos/lib/shadow\aws_shadow.c ****         taskEXIT_CRITICAL();
 1697              		.loc 1 1527 0
 1698 0050 FEFFFFEB 		bl	vPortExitCritical
 1699              	.LVL200:
 1700              	.L156:
1528:D:/Work/DeviceTester/amazon-freertos/lib/shadow\aws_shadow.c ****     }
1529:D:/Work/DeviceTester/amazon-freertos/lib/shadow\aws_shadow.c **** 
1530:D:/Work/DeviceTester/amazon-freertos/lib/shadow\aws_shadow.c ****     return xReturn;
1531:D:/Work/DeviceTester/amazon-freertos/lib/shadow\aws_shadow.c **** }
 1701              		.loc 1 1531 0
 1702 0054 0500A0E1 		mov	r0, r5
 1703 0058 7080BDE8 		pop	{r4, r5, r6, pc}
 1704              	.L159:
 1705              		.align	2
 1706              	.L158:
 1707 005c 28000000 		.word	Unity+40
 1708 0060 00000000 		.word	.LANCHOR0
 1709              		.cfi_endproc
 1710              	.LFE21:
 1712              		.section	.text.SHADOW_ClientCreate,"ax",%progbits
 1713              		.align	2
 1714              		.global	SHADOW_ClientCreate
 1715              		.syntax unified
 1716              		.arm
 1717              		.fpu neon
 1719              	SHADOW_ClientCreate:
 1720              	.LFB18:
1394:D:/Work/DeviceTester/amazon-freertos/lib/shadow\aws_shadow.c ****     ShadowClient_t * pxShadowClient;
 1721              		.loc 1 1394 0
 1722              		.cfi_startproc
 1723              		@ args = 0, pretend = 0, frame = 0
 1724              		@ frame_needed = 0, uses_anonymous_args = 0
 1725              	.LVL201:
 1726 0000 F7402DE9 		push	{r0, r1, r2, r4, r5, r6, r7, lr}
 1727              		.cfi_def_cfa_offset 32
 1728              		.cfi_offset 4, -20
 1729              		.cfi_offset 5, -16
 1730              		.cfi_offset 6, -12
 1731              		.cfi_offset 7, -8
 1732              		.cfi_offset 14, -4
1400:D:/Work/DeviceTester/amazon-freertos/lib/shadow\aws_shadow.c ****     configASSERT( ( pxShadowCreateParams != NULL ) );
 1733              		.loc 1 1400 0
 1734 0004 006050E2 		subs	r6, r0, #0
 1735 0008 0200001A 		bne	.L161
 1736              	.LVL202:
 1737              	.L162:
1400:D:/Work/DeviceTester/amazon-freertos/lib/shadow\aws_shadow.c ****     configASSERT( ( pxShadowCreateParams != NULL ) );
 1738              		.loc 1 1400 0 is_stmt 0 discriminator 1
 1739 000c 0110A0E3 		mov	r1, #1
 1740 0010 C8009FE5 		ldr	r0, .L176
 1741 0014 FEFFFFEB 		bl	longjmp
 1742              	.LVL203:
 1743              	.L161:
1401:D:/Work/DeviceTester/amazon-freertos/lib/shadow\aws_shadow.c **** 
 1744              		.loc 1 1401 0 is_stmt 1
 1745 0018 000051E3 		cmp	r1, #0
 1746 001c FAFFFF0A 		beq	.L162
1405:D:/Work/DeviceTester/amazon-freertos/lib/shadow\aws_shadow.c **** 
 1747              		.loc 1 1405 0
 1748 0020 0070D1E5 		ldrb	r7, [r1]	@ zero_extendqisi2
 1749 0024 010057E3 		cmp	r7, #1
 1750 0028 F7FFFF1A 		bne	.L162
 1751              	.LVL204:
 1752              	.LBB74:
 1753              	.LBB75:
 353:D:/Work/DeviceTester/amazon-freertos/lib/shadow\aws_shadow.c ****             {
 1754              		.loc 1 353 0
 1755 002c B0409FE5 		ldr	r4, .L176+4
 349:D:/Work/DeviceTester/amazon-freertos/lib/shadow\aws_shadow.c ****     {
 1756              		.loc 1 349 0
 1757 0030 FEFFFFEB 		bl	vPortEnterCritical
 1758              	.LVL205:
 353:D:/Work/DeviceTester/amazon-freertos/lib/shadow\aws_shadow.c ****             {
 1759              		.loc 1 353 0
 1760 0034 045094E5 		ldr	r5, [r4, #4]
 1761 0038 000055E3 		cmp	r5, #0
 347:D:/Work/DeviceTester/amazon-freertos/lib/shadow\aws_shadow.c **** 
 1762              		.loc 1 347 0
 1763 003c 0050E013 		mvnne	r5, #0
 355:D:/Work/DeviceTester/amazon-freertos/lib/shadow\aws_shadow.c ****                 xReturn = xIterator;
 1764              		.loc 1 355 0
 1765 0040 04708405 		streq	r7, [r4, #4]
 1766              	.LVL206:
 361:D:/Work/DeviceTester/amazon-freertos/lib/shadow\aws_shadow.c **** 
 1767              		.loc 1 361 0
 1768 0044 FEFFFFEB 		bl	vPortExitCritical
 1769              	.LVL207:
 1770              	.LBE75:
 1771              	.LBE74:
1408:D:/Work/DeviceTester/amazon-freertos/lib/shadow\aws_shadow.c **** 
 1772              		.loc 1 1408 0
 1773 0048 010075E3 		cmn	r5, #1
 1774 004c EEFFFF0A 		beq	.L162
 1775              	.LVL208:
1414:D:/Work/DeviceTester/amazon-freertos/lib/shadow\aws_shadow.c **** 
 1776              		.loc 1 1414 0
 1777 0050 8C009FE5 		ldr	r0, .L176+4
 1778 0054 FEFFFFEB 		bl	MQTT_AGENT_Create
 1779              	.LVL209:
1416:D:/Work/DeviceTester/amazon-freertos/lib/shadow\aws_shadow.c ****                                             ( ShadowClientHandle_t ) xShadowClientID, /*lint !e923 
 1780              		.loc 1 1416 0
 1781 0058 FEFFFFEB 		bl	prvConvertMQTTReturnCode.isra.0
 1782              	.LVL210:
1420:D:/Work/DeviceTester/amazon-freertos/lib/shadow\aws_shadow.c ****         {
 1783              		.loc 1 1420 0
 1784 005c 005050E2 		subs	r5, r0, #0
 1785 0060 1A00001A 		bne	.L164
1423:D:/Work/DeviceTester/amazon-freertos/lib/shadow\aws_shadow.c ****             pxShadowClient->xOperationMutex = xSemaphoreCreateMutexStatic( &( pxShadowClient->xOper
 1786              		.loc 1 1423 0
 1787 0064 0330A0E3 		mov	r3, #3
 1788 0068 0520A0E1 		mov	r2, r5
 1789 006c 00308DE5 		str	r3, [sp]
 1790 0070 0510A0E1 		mov	r1, r5
 1791 0074 6C309FE5 		ldr	r3, .L176+8
 1792 0078 0100A0E3 		mov	r0, #1
 1793              	.LVL211:
 1794 007c FEFFFFEB 		bl	xQueueGenericCreateStatic
 1795              	.LVL212:
1424:D:/Work/DeviceTester/amazon-freertos/lib/shadow\aws_shadow.c ****             pxShadowClient->xOperationDataMutex = xSemaphoreCreateMutexStatic( &( pxShadowClient->x
 1796              		.loc 1 1424 0
 1797 0080 64109FE5 		ldr	r1, .L176+12
1423:D:/Work/DeviceTester/amazon-freertos/lib/shadow\aws_shadow.c ****             pxShadowClient->xOperationMutex = xSemaphoreCreateMutexStatic( &( pxShadowClient->xOper
 1798              		.loc 1 1423 0
 1799 0084 1C0084E5 		str	r0, [r4, #28]
1424:D:/Work/DeviceTester/amazon-freertos/lib/shadow\aws_shadow.c ****             pxShadowClient->xOperationDataMutex = xSemaphoreCreateMutexStatic( &( pxShadowClient->x
 1800              		.loc 1 1424 0
 1801 0088 0100A0E3 		mov	r0, #1
 1802 008c FEFFFFEB 		bl	xQueueCreateMutexStatic
 1803              	.LVL213:
1425:D:/Work/DeviceTester/amazon-freertos/lib/shadow\aws_shadow.c ****             configASSERT( xSemaphoreGive( pxShadowClient->xCallbackSemaphore ) == pdPASS );
 1804              		.loc 1 1425 0
 1805 0090 58109FE5 		ldr	r1, .L176+16
1424:D:/Work/DeviceTester/amazon-freertos/lib/shadow\aws_shadow.c ****             pxShadowClient->xOperationDataMutex = xSemaphoreCreateMutexStatic( &( pxShadowClient->x
 1806              		.loc 1 1424 0
 1807 0094 180084E5 		str	r0, [r4, #24]
1425:D:/Work/DeviceTester/amazon-freertos/lib/shadow\aws_shadow.c ****             configASSERT( xSemaphoreGive( pxShadowClient->xCallbackSemaphore ) == pdPASS );
 1808              		.loc 1 1425 0
 1809 0098 0100A0E3 		mov	r0, #1
 1810 009c FEFFFFEB 		bl	xQueueCreateMutexStatic
 1811              	.LVL214:
1426:D:/Work/DeviceTester/amazon-freertos/lib/shadow\aws_shadow.c **** 
 1812              		.loc 1 1426 0
 1813 00a0 0530A0E1 		mov	r3, r5
1425:D:/Work/DeviceTester/amazon-freertos/lib/shadow\aws_shadow.c ****             configASSERT( xSemaphoreGive( pxShadowClient->xCallbackSemaphore ) == pdPASS );
 1814              		.loc 1 1425 0
 1815 00a4 140084E5 		str	r0, [r4, #20]
1426:D:/Work/DeviceTester/amazon-freertos/lib/shadow\aws_shadow.c **** 
 1816              		.loc 1 1426 0
 1817 00a8 0520A0E1 		mov	r2, r5
 1818 00ac 0510A0E1 		mov	r1, r5
 1819 00b0 1C0094E5 		ldr	r0, [r4, #28]
 1820 00b4 FEFFFFEB 		bl	xQueueGenericSend
 1821              	.LVL215:
 1822 00b8 010050E3 		cmp	r0, #1
 1823 00bc D2FFFF1A 		bne	.L162
1442:D:/Work/DeviceTester/amazon-freertos/lib/shadow\aws_shadow.c **** 
 1824              		.loc 1 1442 0
 1825 00c0 0500A0E1 		mov	r0, r5
1429:D:/Work/DeviceTester/amazon-freertos/lib/shadow\aws_shadow.c ****         }
 1826              		.loc 1 1429 0
 1827 00c4 005086E5 		str	r5, [r6]
1442:D:/Work/DeviceTester/amazon-freertos/lib/shadow\aws_shadow.c **** 
 1828              		.loc 1 1442 0
 1829 00c8 0CD08DE2 		add	sp, sp, #12
 1830              		.cfi_remember_state
 1831              		.cfi_def_cfa_offset 20
 1832              		@ sp needed
 1833 00cc F080BDE8 		pop	{r4, r5, r6, r7, pc}
 1834              	.LVL216:
 1835              	.L164:
 1836              		.cfi_restore_state
1437:D:/Work/DeviceTester/amazon-freertos/lib/shadow\aws_shadow.c ****         }
 1837              		.loc 1 1437 0
 1838 00d0 000096E5 		ldr	r0, [r6]
 1839              	.LVL217:
1442:D:/Work/DeviceTester/amazon-freertos/lib/shadow\aws_shadow.c **** 
 1840              		.loc 1 1442 0
 1841 00d4 0CD08DE2 		add	sp, sp, #12
 1842              		.cfi_def_cfa_offset 20
 1843              		@ sp needed
 1844 00d8 F040BDE8 		pop	{r4, r5, r6, r7, lr}
 1845              		.cfi_restore 14
 1846              		.cfi_restore 7
 1847              		.cfi_restore 6
 1848              		.cfi_restore 5
 1849              		.cfi_restore 4
 1850              		.cfi_def_cfa_offset 0
 1851              	.LVL218:
1437:D:/Work/DeviceTester/amazon-freertos/lib/shadow\aws_shadow.c ****         }
 1852              		.loc 1 1437 0
 1853 00dc FEFFFFEA 		b	SHADOW_ClientDelete
 1854              	.LVL219:
 1855              	.L177:
 1856              		.align	2
 1857              	.L176:
 1858 00e0 28000000 		.word	Unity+40
 1859 00e4 00000000 		.word	.LANCHOR0
 1860 00e8 70000000 		.word	.LANCHOR0+112
 1861 00ec 20000000 		.word	.LANCHOR0+32
 1862 00f0 C0000000 		.word	.LANCHOR0+192
 1863              		.cfi_endproc
 1864              	.LFE18:
 1866              		.section	.text.SHADOW_Update,"ax",%progbits
 1867              		.align	2
 1868              		.global	SHADOW_Update
 1869              		.syntax unified
 1870              		.arm
 1871              		.fpu neon
 1873              	SHADOW_Update:
 1874              	.LFB22:
1532:D:/Work/DeviceTester/amazon-freertos/lib/shadow\aws_shadow.c **** 
1533:D:/Work/DeviceTester/amazon-freertos/lib/shadow\aws_shadow.c **** /*-----------------------------------------------------------*/
1534:D:/Work/DeviceTester/amazon-freertos/lib/shadow\aws_shadow.c **** 
1535:D:/Work/DeviceTester/amazon-freertos/lib/shadow\aws_shadow.c **** ShadowReturnCode_t SHADOW_Update( ShadowClientHandle_t xShadowClientHandle,
1536:D:/Work/DeviceTester/amazon-freertos/lib/shadow\aws_shadow.c ****                                   ShadowOperationParams_t * const pxUpdateParams,
1537:D:/Work/DeviceTester/amazon-freertos/lib/shadow\aws_shadow.c ****                                   TickType_t xTimeoutTicks )
1538:D:/Work/DeviceTester/amazon-freertos/lib/shadow\aws_shadow.c **** {
 1875              		.loc 1 1538 0
 1876              		.cfi_startproc
 1877              		@ args = 0, pretend = 0, frame = 40
 1878              		@ frame_needed = 0, uses_anonymous_args = 0
 1879              	.LVL220:
1539:D:/Work/DeviceTester/amazon-freertos/lib/shadow\aws_shadow.c ****     ShadowOperationCallParams_t xUpdateCallParams;
1540:D:/Work/DeviceTester/amazon-freertos/lib/shadow\aws_shadow.c **** 
1541:D:/Work/DeviceTester/amazon-freertos/lib/shadow\aws_shadow.c ****     configASSERT( ( ( BaseType_t ) xShadowClientHandle >= 0 &&
 1880              		.loc 1 1541 0
 1881 0000 000050E3 		cmp	r0, #0
1538:D:/Work/DeviceTester/amazon-freertos/lib/shadow\aws_shadow.c ****     ShadowOperationCallParams_t xUpdateCallParams;
 1882              		.loc 1 1538 0
 1883 0004 04E02DE5 		str	lr, [sp, #-4]!
 1884              		.cfi_def_cfa_offset 4
 1885              		.cfi_offset 14, -4
 1886 0008 2CD04DE2 		sub	sp, sp, #44
 1887              		.cfi_def_cfa_offset 48
 1888              		.loc 1 1541 0
 1889 000c 0200000A 		beq	.L179
 1890              	.L180:
 1891              		.loc 1 1541 0 is_stmt 0 discriminator 1
 1892 0010 0110A0E3 		mov	r1, #1
 1893              	.LVL221:
 1894 0014 78009FE5 		ldr	r0, .L191
 1895              	.LVL222:
 1896 0018 FEFFFFEB 		bl	longjmp
 1897              	.LVL223:
 1898              	.L179:
1542:D:/Work/DeviceTester/amazon-freertos/lib/shadow\aws_shadow.c ****                     ( BaseType_t ) xShadowClientHandle < shadowconfigMAX_CLIENTS ) ); /*lint !e923 
1543:D:/Work/DeviceTester/amazon-freertos/lib/shadow\aws_shadow.c **** 
1544:D:/Work/DeviceTester/amazon-freertos/lib/shadow\aws_shadow.c ****     configASSERT( ( pxUpdateParams != NULL ) );
 1899              		.loc 1 1544 0 is_stmt 1
 1900 001c 000051E3 		cmp	r1, #0
 1901 0020 FAFFFF0A 		beq	.L180
1545:D:/Work/DeviceTester/amazon-freertos/lib/shadow\aws_shadow.c ****     configASSERT( ( pxUpdateParams->pcThingName != NULL ) );
 1902              		.loc 1 1545 0
 1903 0024 003091E5 		ldr	r3, [r1]
 1904 0028 000053E3 		cmp	r3, #0
 1905 002c F7FFFF0A 		beq	.L180
1546:D:/Work/DeviceTester/amazon-freertos/lib/shadow\aws_shadow.c ****     configASSERT( ( pxUpdateParams->pcData != NULL ) );
 1906              		.loc 1 1546 0
 1907 0030 043091E5 		ldr	r3, [r1, #4]
 1908 0034 000053E3 		cmp	r3, #0
 1909 0038 F4FFFF0A 		beq	.L180
1547:D:/Work/DeviceTester/amazon-freertos/lib/shadow\aws_shadow.c ****     configASSERT( ( pxUpdateParams->xQoS == eMQTTQoS0 ||
 1910              		.loc 1 1547 0
 1911 003c 11C0D1E5 		ldrb	ip, [r1, #17]	@ zero_extendqisi2
 1912 0040 01005CE3 		cmp	ip, #1
 1913 0044 F1FFFF8A 		bhi	.L180
1548:D:/Work/DeviceTester/amazon-freertos/lib/shadow\aws_shadow.c ****                     pxUpdateParams->xQoS == eMQTTQoS1 ) );
1549:D:/Work/DeviceTester/amazon-freertos/lib/shadow\aws_shadow.c **** 
1550:D:/Work/DeviceTester/amazon-freertos/lib/shadow\aws_shadow.c ****     xUpdateCallParams.xShadowClientID = ( BaseType_t ) xShadowClientHandle; /*lint !e923 Safe cast 
 1914              		.loc 1 1550 0
 1915 0048 00008DE5 		str	r0, [sp]
1551:D:/Work/DeviceTester/amazon-freertos/lib/shadow\aws_shadow.c ****     xUpdateCallParams.xOperationName = eShadowOperationUpdate;
 1916              		.loc 1 1551 0
 1917 004c 0400CDE5 		strb	r0, [sp, #4]
1552:D:/Work/DeviceTester/amazon-freertos/lib/shadow\aws_shadow.c **** 
1553:D:/Work/DeviceTester/amazon-freertos/lib/shadow\aws_shadow.c ****     xUpdateCallParams.pcOperationName = shadowTOPIC_OPERATION_UPDATE;
 1918              		.loc 1 1553 0
 1919 0050 40009FE5 		ldr	r0, .L191+4
 1920              	.LVL224:
1554:D:/Work/DeviceTester/amazon-freertos/lib/shadow\aws_shadow.c **** 
1555:D:/Work/DeviceTester/amazon-freertos/lib/shadow\aws_shadow.c ****     xUpdateCallParams.pcOperationTopic = shadowTOPIC_UPDATE;
1556:D:/Work/DeviceTester/amazon-freertos/lib/shadow\aws_shadow.c ****     xUpdateCallParams.pcOperationAcceptedTopic = shadowTOPIC_UPDATE_ACCEPTED;
1557:D:/Work/DeviceTester/amazon-freertos/lib/shadow\aws_shadow.c ****     xUpdateCallParams.pcOperationRejectedTopic = shadowTOPIC_UPDATE_REJECTED;
1558:D:/Work/DeviceTester/amazon-freertos/lib/shadow\aws_shadow.c **** 
1559:D:/Work/DeviceTester/amazon-freertos/lib/shadow\aws_shadow.c ****     xUpdateCallParams.pcPublishMessage = pxUpdateParams->pcData;
 1921              		.loc 1 1559 0
 1922 0054 18308DE5 		str	r3, [sp, #24]
1560:D:/Work/DeviceTester/amazon-freertos/lib/shadow\aws_shadow.c ****     xUpdateCallParams.ulPublishMessageLength = pxUpdateParams->ulDataLength;
 1923              		.loc 1 1560 0
 1924 0058 083091E5 		ldr	r3, [r1, #8]
1553:D:/Work/DeviceTester/amazon-freertos/lib/shadow\aws_shadow.c **** 
 1925              		.loc 1 1553 0
 1926 005c 08008DE5 		str	r0, [sp, #8]
1555:D:/Work/DeviceTester/amazon-freertos/lib/shadow\aws_shadow.c ****     xUpdateCallParams.pcOperationAcceptedTopic = shadowTOPIC_UPDATE_ACCEPTED;
 1927              		.loc 1 1555 0
 1928 0060 34009FE5 		ldr	r0, .L191+8
 1929              		.loc 1 1560 0
 1930 0064 1C308DE5 		str	r3, [sp, #28]
1561:D:/Work/DeviceTester/amazon-freertos/lib/shadow\aws_shadow.c ****     xUpdateCallParams.pxOperationParams = ( ShadowOperationParams_t * ) pxUpdateParams;
 1931              		.loc 1 1561 0
 1932 0068 20108DE5 		str	r1, [sp, #32]
1555:D:/Work/DeviceTester/amazon-freertos/lib/shadow\aws_shadow.c ****     xUpdateCallParams.pcOperationAcceptedTopic = shadowTOPIC_UPDATE_ACCEPTED;
 1933              		.loc 1 1555 0
 1934 006c 0C008DE5 		str	r0, [sp, #12]
1556:D:/Work/DeviceTester/amazon-freertos/lib/shadow\aws_shadow.c ****     xUpdateCallParams.pcOperationRejectedTopic = shadowTOPIC_UPDATE_REJECTED;
 1935              		.loc 1 1556 0
 1936 0070 28009FE5 		ldr	r0, .L191+12
1562:D:/Work/DeviceTester/amazon-freertos/lib/shadow\aws_shadow.c ****     xUpdateCallParams.xTimeoutTicks = xTimeoutTicks;
 1937              		.loc 1 1562 0
 1938 0074 24208DE5 		str	r2, [sp, #36]
1556:D:/Work/DeviceTester/amazon-freertos/lib/shadow\aws_shadow.c ****     xUpdateCallParams.pcOperationRejectedTopic = shadowTOPIC_UPDATE_REJECTED;
 1939              		.loc 1 1556 0
 1940 0078 10008DE5 		str	r0, [sp, #16]
1557:D:/Work/DeviceTester/amazon-freertos/lib/shadow\aws_shadow.c **** 
 1941              		.loc 1 1557 0
 1942 007c 20009FE5 		ldr	r0, .L191+16
 1943 0080 14008DE5 		str	r0, [sp, #20]
1563:D:/Work/DeviceTester/amazon-freertos/lib/shadow\aws_shadow.c **** 
1564:D:/Work/DeviceTester/amazon-freertos/lib/shadow\aws_shadow.c ****     return prvShadowOperation( &xUpdateCallParams );
 1944              		.loc 1 1564 0
 1945 0084 0D00A0E1 		mov	r0, sp
 1946 0088 FEFFFFEB 		bl	prvShadowOperation
 1947              	.LVL225:
1565:D:/Work/DeviceTester/amazon-freertos/lib/shadow\aws_shadow.c **** }
 1948              		.loc 1 1565 0
 1949 008c 2CD08DE2 		add	sp, sp, #44
 1950              		.cfi_def_cfa_offset 4
 1951              		@ sp needed
 1952 0090 04F09DE4 		ldr	pc, [sp], #4
 1953              	.L192:
 1954              		.align	2
 1955              	.L191:
 1956 0094 28000000 		.word	Unity+40
 1957 0098 00000000 		.word	.LC6
 1958 009c 07000000 		.word	.LC7
 1959 00a0 24000000 		.word	.LC8
 1960 00a4 4A000000 		.word	.LC9
 1961              		.cfi_endproc
 1962              	.LFE22:
 1964              		.section	.text.SHADOW_Get,"ax",%progbits
 1965              		.align	2
 1966              		.global	SHADOW_Get
 1967              		.syntax unified
 1968              		.arm
 1969              		.fpu neon
 1971              	SHADOW_Get:
 1972              	.LFB23:
1566:D:/Work/DeviceTester/amazon-freertos/lib/shadow\aws_shadow.c **** 
1567:D:/Work/DeviceTester/amazon-freertos/lib/shadow\aws_shadow.c **** /*-----------------------------------------------------------*/
1568:D:/Work/DeviceTester/amazon-freertos/lib/shadow\aws_shadow.c **** 
1569:D:/Work/DeviceTester/amazon-freertos/lib/shadow\aws_shadow.c **** ShadowReturnCode_t SHADOW_Get( ShadowClientHandle_t xShadowClientHandle,
1570:D:/Work/DeviceTester/amazon-freertos/lib/shadow\aws_shadow.c ****                                ShadowOperationParams_t * const pxGetParams,
1571:D:/Work/DeviceTester/amazon-freertos/lib/shadow\aws_shadow.c ****                                TickType_t xTimeoutTicks )
1572:D:/Work/DeviceTester/amazon-freertos/lib/shadow\aws_shadow.c **** {
 1973              		.loc 1 1572 0
 1974              		.cfi_startproc
 1975              		@ args = 0, pretend = 0, frame = 40
 1976              		@ frame_needed = 0, uses_anonymous_args = 0
 1977              	.LVL226:
1573:D:/Work/DeviceTester/amazon-freertos/lib/shadow\aws_shadow.c ****     ShadowOperationCallParams_t xGetCallParams;
1574:D:/Work/DeviceTester/amazon-freertos/lib/shadow\aws_shadow.c **** 
1575:D:/Work/DeviceTester/amazon-freertos/lib/shadow\aws_shadow.c ****     configASSERT( ( ( BaseType_t ) xShadowClientHandle >= 0 &&
 1978              		.loc 1 1575 0
 1979 0000 000050E3 		cmp	r0, #0
1572:D:/Work/DeviceTester/amazon-freertos/lib/shadow\aws_shadow.c ****     ShadowOperationCallParams_t xGetCallParams;
 1980              		.loc 1 1572 0
 1981 0004 04E02DE5 		str	lr, [sp, #-4]!
 1982              		.cfi_def_cfa_offset 4
 1983              		.cfi_offset 14, -4
 1984 0008 2CD04DE2 		sub	sp, sp, #44
 1985              		.cfi_def_cfa_offset 48
 1986              		.loc 1 1575 0
 1987 000c 0200000A 		beq	.L194
 1988              	.L195:
 1989              		.loc 1 1575 0 is_stmt 0 discriminator 1
 1990 0010 0110A0E3 		mov	r1, #1
 1991              	.LVL227:
 1992 0014 70009FE5 		ldr	r0, .L203
 1993              	.LVL228:
 1994 0018 FEFFFFEB 		bl	longjmp
 1995              	.LVL229:
 1996              	.L194:
1576:D:/Work/DeviceTester/amazon-freertos/lib/shadow\aws_shadow.c ****                     ( BaseType_t ) xShadowClientHandle < shadowconfigMAX_CLIENTS ) ); /*lint !e923 
1577:D:/Work/DeviceTester/amazon-freertos/lib/shadow\aws_shadow.c **** 
1578:D:/Work/DeviceTester/amazon-freertos/lib/shadow\aws_shadow.c ****     configASSERT( ( pxGetParams != NULL ) );
 1997              		.loc 1 1578 0 is_stmt 1
 1998 001c 000051E3 		cmp	r1, #0
 1999 0020 FAFFFF0A 		beq	.L195
1579:D:/Work/DeviceTester/amazon-freertos/lib/shadow\aws_shadow.c ****     configASSERT( ( pxGetParams->pcThingName != NULL ) );
 2000              		.loc 1 1579 0
 2001 0024 003091E5 		ldr	r3, [r1]
 2002 0028 000053E3 		cmp	r3, #0
 2003 002c F7FFFF0A 		beq	.L195
1580:D:/Work/DeviceTester/amazon-freertos/lib/shadow\aws_shadow.c ****     configASSERT( ( pxGetParams->xQoS == eMQTTQoS0 ||
 2004              		.loc 1 1580 0
 2005 0030 1130D1E5 		ldrb	r3, [r1, #17]	@ zero_extendqisi2
 2006 0034 010053E3 		cmp	r3, #1
 2007 0038 F4FFFF8A 		bhi	.L195
1581:D:/Work/DeviceTester/amazon-freertos/lib/shadow\aws_shadow.c ****                     pxGetParams->xQoS == eMQTTQoS1 ) );
1582:D:/Work/DeviceTester/amazon-freertos/lib/shadow\aws_shadow.c **** 
1583:D:/Work/DeviceTester/amazon-freertos/lib/shadow\aws_shadow.c ****     xGetCallParams.xShadowClientID = ( BaseType_t ) xShadowClientHandle; /*lint !e923 Safe cast fro
1584:D:/Work/DeviceTester/amazon-freertos/lib/shadow\aws_shadow.c ****     xGetCallParams.xOperationName = eShadowOperationGet;
 2008              		.loc 1 1584 0
 2009 003c 0130A0E3 		mov	r3, #1
1583:D:/Work/DeviceTester/amazon-freertos/lib/shadow\aws_shadow.c ****     xGetCallParams.xOperationName = eShadowOperationGet;
 2010              		.loc 1 1583 0
 2011 0040 00008DE5 		str	r0, [sp]
 2012              		.loc 1 1584 0
 2013 0044 0430CDE5 		strb	r3, [sp, #4]
1585:D:/Work/DeviceTester/amazon-freertos/lib/shadow\aws_shadow.c **** 
1586:D:/Work/DeviceTester/amazon-freertos/lib/shadow\aws_shadow.c ****     xGetCallParams.pcOperationName = shadowTOPIC_OPERATION_GET;
 2014              		.loc 1 1586 0
 2015 0048 40309FE5 		ldr	r3, .L203+4
1587:D:/Work/DeviceTester/amazon-freertos/lib/shadow\aws_shadow.c **** 
1588:D:/Work/DeviceTester/amazon-freertos/lib/shadow\aws_shadow.c ****     xGetCallParams.pcOperationTopic = shadowTOPIC_GET;
1589:D:/Work/DeviceTester/amazon-freertos/lib/shadow\aws_shadow.c ****     xGetCallParams.pcOperationAcceptedTopic = shadowTOPIC_GET_ACCEPTED;
1590:D:/Work/DeviceTester/amazon-freertos/lib/shadow\aws_shadow.c ****     xGetCallParams.pcOperationRejectedTopic = shadowTOPIC_GET_REJECTED;
1591:D:/Work/DeviceTester/amazon-freertos/lib/shadow\aws_shadow.c **** 
1592:D:/Work/DeviceTester/amazon-freertos/lib/shadow\aws_shadow.c ****     xGetCallParams.pcPublishMessage = "";
1593:D:/Work/DeviceTester/amazon-freertos/lib/shadow\aws_shadow.c ****     xGetCallParams.ulPublishMessageLength = 0;
 2016              		.loc 1 1593 0
 2017 004c 1C008DE5 		str	r0, [sp, #28]
1594:D:/Work/DeviceTester/amazon-freertos/lib/shadow\aws_shadow.c ****     xGetCallParams.pxOperationParams = pxGetParams;
1595:D:/Work/DeviceTester/amazon-freertos/lib/shadow\aws_shadow.c ****     xGetCallParams.xTimeoutTicks = xTimeoutTicks;
1596:D:/Work/DeviceTester/amazon-freertos/lib/shadow\aws_shadow.c **** 
1597:D:/Work/DeviceTester/amazon-freertos/lib/shadow\aws_shadow.c ****     return prvShadowOperation( &xGetCallParams );
 2018              		.loc 1 1597 0
 2019 0050 0D00A0E1 		mov	r0, sp
 2020              	.LVL230:
1594:D:/Work/DeviceTester/amazon-freertos/lib/shadow\aws_shadow.c ****     xGetCallParams.pxOperationParams = pxGetParams;
 2021              		.loc 1 1594 0
 2022 0054 20108DE5 		str	r1, [sp, #32]
1586:D:/Work/DeviceTester/amazon-freertos/lib/shadow\aws_shadow.c **** 
 2023              		.loc 1 1586 0
 2024 0058 08308DE5 		str	r3, [sp, #8]
1588:D:/Work/DeviceTester/amazon-freertos/lib/shadow\aws_shadow.c ****     xGetCallParams.pcOperationAcceptedTopic = shadowTOPIC_GET_ACCEPTED;
 2025              		.loc 1 1588 0
 2026 005c 30309FE5 		ldr	r3, .L203+8
1595:D:/Work/DeviceTester/amazon-freertos/lib/shadow\aws_shadow.c **** 
 2027              		.loc 1 1595 0
 2028 0060 24208DE5 		str	r2, [sp, #36]
1588:D:/Work/DeviceTester/amazon-freertos/lib/shadow\aws_shadow.c ****     xGetCallParams.pcOperationAcceptedTopic = shadowTOPIC_GET_ACCEPTED;
 2029              		.loc 1 1588 0
 2030 0064 0C308DE5 		str	r3, [sp, #12]
1589:D:/Work/DeviceTester/amazon-freertos/lib/shadow\aws_shadow.c ****     xGetCallParams.pcOperationRejectedTopic = shadowTOPIC_GET_REJECTED;
 2031              		.loc 1 1589 0
 2032 0068 28309FE5 		ldr	r3, .L203+12
 2033 006c 10308DE5 		str	r3, [sp, #16]
1590:D:/Work/DeviceTester/amazon-freertos/lib/shadow\aws_shadow.c **** 
 2034              		.loc 1 1590 0
 2035 0070 24309FE5 		ldr	r3, .L203+16
 2036 0074 14308DE5 		str	r3, [sp, #20]
1592:D:/Work/DeviceTester/amazon-freertos/lib/shadow\aws_shadow.c ****     xGetCallParams.ulPublishMessageLength = 0;
 2037              		.loc 1 1592 0
 2038 0078 20309FE5 		ldr	r3, .L203+20
 2039 007c 18308DE5 		str	r3, [sp, #24]
 2040              		.loc 1 1597 0
 2041 0080 FEFFFFEB 		bl	prvShadowOperation
 2042              	.LVL231:
1598:D:/Work/DeviceTester/amazon-freertos/lib/shadow\aws_shadow.c **** }
 2043              		.loc 1 1598 0
 2044 0084 2CD08DE2 		add	sp, sp, #44
 2045              		.cfi_def_cfa_offset 4
 2046              		@ sp needed
 2047 0088 04F09DE4 		ldr	pc, [sp], #4
 2048              	.L204:
 2049              		.align	2
 2050              	.L203:
 2051 008c 28000000 		.word	Unity+40
 2052 0090 00000000 		.word	.LC10
 2053 0094 04000000 		.word	.LC11
 2054 0098 1E000000 		.word	.LC12
 2055 009c 41000000 		.word	.LC13
 2056 00a0 64000000 		.word	.LC14
 2057              		.cfi_endproc
 2058              	.LFE23:
 2060              		.section	.text.SHADOW_Delete,"ax",%progbits
 2061              		.align	2
 2062              		.global	SHADOW_Delete
 2063              		.syntax unified
 2064              		.arm
 2065              		.fpu neon
 2067              	SHADOW_Delete:
 2068              	.LFB24:
1599:D:/Work/DeviceTester/amazon-freertos/lib/shadow\aws_shadow.c **** 
1600:D:/Work/DeviceTester/amazon-freertos/lib/shadow\aws_shadow.c **** /*-----------------------------------------------------------*/
1601:D:/Work/DeviceTester/amazon-freertos/lib/shadow\aws_shadow.c **** 
1602:D:/Work/DeviceTester/amazon-freertos/lib/shadow\aws_shadow.c **** ShadowReturnCode_t SHADOW_Delete( ShadowClientHandle_t xShadowClientHandle,
1603:D:/Work/DeviceTester/amazon-freertos/lib/shadow\aws_shadow.c ****                                   ShadowOperationParams_t * const pxDeleteParams,
1604:D:/Work/DeviceTester/amazon-freertos/lib/shadow\aws_shadow.c ****                                   TickType_t xTimeoutTicks )
1605:D:/Work/DeviceTester/amazon-freertos/lib/shadow\aws_shadow.c **** {
 2069              		.loc 1 1605 0
 2070              		.cfi_startproc
 2071              		@ args = 0, pretend = 0, frame = 40
 2072              		@ frame_needed = 0, uses_anonymous_args = 0
 2073              	.LVL232:
1606:D:/Work/DeviceTester/amazon-freertos/lib/shadow\aws_shadow.c ****     ShadowOperationCallParams_t xDeleteCallParams;
1607:D:/Work/DeviceTester/amazon-freertos/lib/shadow\aws_shadow.c ****     ShadowReturnCode_t xStatus;
1608:D:/Work/DeviceTester/amazon-freertos/lib/shadow\aws_shadow.c **** 
1609:D:/Work/DeviceTester/amazon-freertos/lib/shadow\aws_shadow.c ****     configASSERT( ( ( BaseType_t ) xShadowClientHandle >= 0 &&
 2074              		.loc 1 1609 0
 2075 0000 000050E3 		cmp	r0, #0
1605:D:/Work/DeviceTester/amazon-freertos/lib/shadow\aws_shadow.c ****     ShadowOperationCallParams_t xDeleteCallParams;
 2076              		.loc 1 1605 0
 2077 0004 04E02DE5 		str	lr, [sp, #-4]!
 2078              		.cfi_def_cfa_offset 4
 2079              		.cfi_offset 14, -4
 2080 0008 2CD04DE2 		sub	sp, sp, #44
 2081              		.cfi_def_cfa_offset 48
 2082              		.loc 1 1609 0
 2083 000c 0200000A 		beq	.L206
 2084              	.L207:
 2085              		.loc 1 1609 0 is_stmt 0 discriminator 1
 2086 0010 0110A0E3 		mov	r1, #1
 2087              	.LVL233:
 2088 0014 70009FE5 		ldr	r0, .L215
 2089              	.LVL234:
 2090 0018 FEFFFFEB 		bl	longjmp
 2091              	.LVL235:
 2092              	.L206:
1610:D:/Work/DeviceTester/amazon-freertos/lib/shadow\aws_shadow.c ****                     ( BaseType_t ) xShadowClientHandle < shadowconfigMAX_CLIENTS ) ); /*lint !e923 
1611:D:/Work/DeviceTester/amazon-freertos/lib/shadow\aws_shadow.c **** 
1612:D:/Work/DeviceTester/amazon-freertos/lib/shadow\aws_shadow.c ****     configASSERT( ( pxDeleteParams != NULL ) );
 2093              		.loc 1 1612 0 is_stmt 1
 2094 001c 000051E3 		cmp	r1, #0
 2095 0020 FAFFFF0A 		beq	.L207
1613:D:/Work/DeviceTester/amazon-freertos/lib/shadow\aws_shadow.c ****     configASSERT( ( pxDeleteParams->pcThingName != NULL ) );
 2096              		.loc 1 1613 0
 2097 0024 003091E5 		ldr	r3, [r1]
 2098 0028 000053E3 		cmp	r3, #0
 2099 002c F7FFFF0A 		beq	.L207
1614:D:/Work/DeviceTester/amazon-freertos/lib/shadow\aws_shadow.c ****     configASSERT( ( pxDeleteParams->xQoS == eMQTTQoS0 ||
 2100              		.loc 1 1614 0
 2101 0030 1130D1E5 		ldrb	r3, [r1, #17]	@ zero_extendqisi2
 2102 0034 010053E3 		cmp	r3, #1
 2103 0038 F4FFFF8A 		bhi	.L207
1615:D:/Work/DeviceTester/amazon-freertos/lib/shadow\aws_shadow.c ****                     pxDeleteParams->xQoS == eMQTTQoS1 ) );
1616:D:/Work/DeviceTester/amazon-freertos/lib/shadow\aws_shadow.c **** 
1617:D:/Work/DeviceTester/amazon-freertos/lib/shadow\aws_shadow.c ****     xDeleteCallParams.xShadowClientID = ( BaseType_t ) xShadowClientHandle; /*lint !e923 Safe cast 
1618:D:/Work/DeviceTester/amazon-freertos/lib/shadow\aws_shadow.c ****     xDeleteCallParams.xOperationName = eShadowOperationDelete;
 2104              		.loc 1 1618 0
 2105 003c 0230A0E3 		mov	r3, #2
1617:D:/Work/DeviceTester/amazon-freertos/lib/shadow\aws_shadow.c ****     xDeleteCallParams.xOperationName = eShadowOperationDelete;
 2106              		.loc 1 1617 0
 2107 0040 00008DE5 		str	r0, [sp]
 2108              		.loc 1 1618 0
 2109 0044 0430CDE5 		strb	r3, [sp, #4]
1619:D:/Work/DeviceTester/amazon-freertos/lib/shadow\aws_shadow.c **** 
1620:D:/Work/DeviceTester/amazon-freertos/lib/shadow\aws_shadow.c ****     xDeleteCallParams.pcOperationName = shadowTOPIC_OPERATION_DELETE;
 2110              		.loc 1 1620 0
 2111 0048 40309FE5 		ldr	r3, .L215+4
1621:D:/Work/DeviceTester/amazon-freertos/lib/shadow\aws_shadow.c **** 
1622:D:/Work/DeviceTester/amazon-freertos/lib/shadow\aws_shadow.c ****     xDeleteCallParams.pcOperationTopic = shadowTOPIC_DELETE;
1623:D:/Work/DeviceTester/amazon-freertos/lib/shadow\aws_shadow.c ****     xDeleteCallParams.pcOperationAcceptedTopic = shadowTOPIC_DELETE_ACCEPTED;
1624:D:/Work/DeviceTester/amazon-freertos/lib/shadow\aws_shadow.c ****     xDeleteCallParams.pcOperationRejectedTopic = shadowTOPIC_DELETE_REJECTED;
1625:D:/Work/DeviceTester/amazon-freertos/lib/shadow\aws_shadow.c **** 
1626:D:/Work/DeviceTester/amazon-freertos/lib/shadow\aws_shadow.c ****     xDeleteCallParams.pcPublishMessage = "";
1627:D:/Work/DeviceTester/amazon-freertos/lib/shadow\aws_shadow.c ****     xDeleteCallParams.ulPublishMessageLength = 0;
 2112              		.loc 1 1627 0
 2113 004c 1C008DE5 		str	r0, [sp, #28]
1628:D:/Work/DeviceTester/amazon-freertos/lib/shadow\aws_shadow.c ****     xDeleteCallParams.pxOperationParams = ( ShadowOperationParams_t * ) pxDeleteParams;
1629:D:/Work/DeviceTester/amazon-freertos/lib/shadow\aws_shadow.c ****     xDeleteCallParams.xTimeoutTicks = xTimeoutTicks;
1630:D:/Work/DeviceTester/amazon-freertos/lib/shadow\aws_shadow.c **** 
1631:D:/Work/DeviceTester/amazon-freertos/lib/shadow\aws_shadow.c ****     xStatus = prvShadowOperation( &xDeleteCallParams );
 2114              		.loc 1 1631 0
 2115 0050 0D00A0E1 		mov	r0, sp
 2116              	.LVL236:
1628:D:/Work/DeviceTester/amazon-freertos/lib/shadow\aws_shadow.c ****     xDeleteCallParams.pxOperationParams = ( ShadowOperationParams_t * ) pxDeleteParams;
 2117              		.loc 1 1628 0
 2118 0054 20108DE5 		str	r1, [sp, #32]
1620:D:/Work/DeviceTester/amazon-freertos/lib/shadow\aws_shadow.c **** 
 2119              		.loc 1 1620 0
 2120 0058 08308DE5 		str	r3, [sp, #8]
1622:D:/Work/DeviceTester/amazon-freertos/lib/shadow\aws_shadow.c ****     xDeleteCallParams.pcOperationAcceptedTopic = shadowTOPIC_DELETE_ACCEPTED;
 2121              		.loc 1 1622 0
 2122 005c 30309FE5 		ldr	r3, .L215+8
1629:D:/Work/DeviceTester/amazon-freertos/lib/shadow\aws_shadow.c **** 
 2123              		.loc 1 1629 0
 2124 0060 24208DE5 		str	r2, [sp, #36]
1622:D:/Work/DeviceTester/amazon-freertos/lib/shadow\aws_shadow.c ****     xDeleteCallParams.pcOperationAcceptedTopic = shadowTOPIC_DELETE_ACCEPTED;
 2125              		.loc 1 1622 0
 2126 0064 0C308DE5 		str	r3, [sp, #12]
1623:D:/Work/DeviceTester/amazon-freertos/lib/shadow\aws_shadow.c ****     xDeleteCallParams.pcOperationRejectedTopic = shadowTOPIC_DELETE_REJECTED;
 2127              		.loc 1 1623 0
 2128 0068 28309FE5 		ldr	r3, .L215+12
 2129 006c 10308DE5 		str	r3, [sp, #16]
1624:D:/Work/DeviceTester/amazon-freertos/lib/shadow\aws_shadow.c **** 
 2130              		.loc 1 1624 0
 2131 0070 24309FE5 		ldr	r3, .L215+16
 2132 0074 14308DE5 		str	r3, [sp, #20]
1626:D:/Work/DeviceTester/amazon-freertos/lib/shadow\aws_shadow.c ****     xDeleteCallParams.ulPublishMessageLength = 0;
 2133              		.loc 1 1626 0
 2134 0078 20309FE5 		ldr	r3, .L215+20
 2135 007c 18308DE5 		str	r3, [sp, #24]
 2136              		.loc 1 1631 0
 2137 0080 FEFFFFEB 		bl	prvShadowOperation
 2138              	.LVL237:
1632:D:/Work/DeviceTester/amazon-freertos/lib/shadow\aws_shadow.c **** 
1633:D:/Work/DeviceTester/amazon-freertos/lib/shadow\aws_shadow.c ****     return xStatus;
1634:D:/Work/DeviceTester/amazon-freertos/lib/shadow\aws_shadow.c **** }
 2139              		.loc 1 1634 0
 2140 0084 2CD08DE2 		add	sp, sp, #44
 2141              		.cfi_def_cfa_offset 4
 2142              		@ sp needed
 2143 0088 04F09DE4 		ldr	pc, [sp], #4
 2144              	.L216:
 2145              		.align	2
 2146              	.L215:
 2147 008c 28000000 		.word	Unity+40
 2148 0090 00000000 		.word	.LC15
 2149 0094 07000000 		.word	.LC16
 2150 0098 61000000 		.word	.LC3
 2151 009c 24000000 		.word	.LC17
 2152 00a0 64000000 		.word	.LC14
 2153              		.cfi_endproc
 2154              	.LFE24:
 2156              		.section	.text.SHADOW_RegisterCallbacks,"ax",%progbits
 2157              		.align	2
 2158              		.global	SHADOW_RegisterCallbacks
 2159              		.syntax unified
 2160              		.arm
 2161              		.fpu neon
 2163              	SHADOW_RegisterCallbacks:
 2164              	.LFB25:
1635:D:/Work/DeviceTester/amazon-freertos/lib/shadow\aws_shadow.c **** 
1636:D:/Work/DeviceTester/amazon-freertos/lib/shadow\aws_shadow.c **** /*-----------------------------------------------------------*/
1637:D:/Work/DeviceTester/amazon-freertos/lib/shadow\aws_shadow.c **** 
1638:D:/Work/DeviceTester/amazon-freertos/lib/shadow\aws_shadow.c **** ShadowReturnCode_t SHADOW_RegisterCallbacks( ShadowClientHandle_t xShadowClientHandle,
1639:D:/Work/DeviceTester/amazon-freertos/lib/shadow\aws_shadow.c ****                                              ShadowCallbackParams_t * const pxCallbackParams,
1640:D:/Work/DeviceTester/amazon-freertos/lib/shadow\aws_shadow.c ****                                              TickType_t xTimeoutTicks )
1641:D:/Work/DeviceTester/amazon-freertos/lib/shadow\aws_shadow.c **** {
 2165              		.loc 1 1641 0
 2166              		.cfi_startproc
 2167              		@ args = 0, pretend = 0, frame = 0
 2168              		@ frame_needed = 0, uses_anonymous_args = 0
 2169              	.LVL238:
 2170 0000 F3472DE9 		push	{r0, r1, r4, r5, r6, r7, r8, r9, r10, lr}
 2171              		.cfi_def_cfa_offset 40
 2172              		.cfi_offset 4, -32
 2173              		.cfi_offset 5, -28
 2174              		.cfi_offset 6, -24
 2175              		.cfi_offset 7, -20
 2176              		.cfi_offset 8, -16
 2177              		.cfi_offset 9, -12
 2178              		.cfi_offset 10, -8
 2179              		.cfi_offset 14, -4
1642:D:/Work/DeviceTester/amazon-freertos/lib/shadow\aws_shadow.c ****     ShadowClient_t * pxShadowClient;
1643:D:/Work/DeviceTester/amazon-freertos/lib/shadow\aws_shadow.c ****     CallbackCatalogEntry_t * pxCallbackCatalogEntry;
1644:D:/Work/DeviceTester/amazon-freertos/lib/shadow\aws_shadow.c ****     ShadowReturnCode_t xReturn = eShadowFailure;
1645:D:/Work/DeviceTester/amazon-freertos/lib/shadow\aws_shadow.c ****     BaseType_t xCallbackCatalogIndex;
1646:D:/Work/DeviceTester/amazon-freertos/lib/shadow\aws_shadow.c **** 
1647:D:/Work/DeviceTester/amazon-freertos/lib/shadow\aws_shadow.c ****     configASSERT( ( ( BaseType_t ) xShadowClientHandle >= 0 &&
 2180              		.loc 1 1647 0
 2181 0004 009050E2 		subs	r9, r0, #0
 2182 0008 0200000A 		beq	.L218
 2183              	.LVL239:
 2184              	.L219:
 2185              		.loc 1 1647 0 is_stmt 0 discriminator 1
 2186 000c 0110A0E3 		mov	r1, #1
 2187 0010 64019FE5 		ldr	r0, .L239
 2188 0014 FEFFFFEB 		bl	longjmp
 2189              	.LVL240:
 2190              	.L218:
1648:D:/Work/DeviceTester/amazon-freertos/lib/shadow\aws_shadow.c ****                     ( BaseType_t ) xShadowClientHandle < shadowconfigMAX_CLIENTS ) ); /*lint !e923 
1649:D:/Work/DeviceTester/amazon-freertos/lib/shadow\aws_shadow.c **** 
1650:D:/Work/DeviceTester/amazon-freertos/lib/shadow\aws_shadow.c ****     configASSERT( ( pxCallbackParams != NULL ) );
 2191              		.loc 1 1650 0 is_stmt 1
 2192 0018 000051E3 		cmp	r1, #0
 2193 001c 0150A0E1 		mov	r5, r1
 2194 0020 F9FFFF0A 		beq	.L219
1651:D:/Work/DeviceTester/amazon-freertos/lib/shadow\aws_shadow.c ****     configASSERT( ( pxCallbackParams->pcThingName != NULL ) );
 2195              		.loc 1 1651 0
 2196 0024 007091E5 		ldr	r7, [r1]
 2197 0028 000057E3 		cmp	r7, #0
 2198 002c F6FFFF0A 		beq	.L219
 2199              	.LVL241:
1652:D:/Work/DeviceTester/amazon-freertos/lib/shadow\aws_shadow.c **** 
1653:D:/Work/DeviceTester/amazon-freertos/lib/shadow\aws_shadow.c ****     pxShadowClient = &( xShadowClients[ ( BaseType_t ) xShadowClientHandle ] ); /*lint !e923 Safe c
1654:D:/Work/DeviceTester/amazon-freertos/lib/shadow\aws_shadow.c ****     configASSERT( ( pxShadowClient->xInUse == pdTRUE ) );
 2200              		.loc 1 1654 0
 2201 0030 48419FE5 		ldr	r4, .L239+4
 2202 0034 043094E5 		ldr	r3, [r4, #4]
 2203 0038 010053E3 		cmp	r3, #1
 2204 003c F2FFFF1A 		bne	.L219
 2205 0040 0280A0E1 		mov	r8, r2
 2206              	.LVL242:
 2207              	.LBB78:
 2208              	.LBB79:
 375:D:/Work/DeviceTester/amazon-freertos/lib/shadow\aws_shadow.c ****     {
 2209              		.loc 1 375 0
 2210 0044 FEFFFFEB 		bl	vPortEnterCritical
 2211              	.LVL243:
 381:D:/Work/DeviceTester/amazon-freertos/lib/shadow\aws_shadow.c ****             {
 2212              		.loc 1 381 0
 2213 0048 286194E5 		ldr	r6, [r4, #296]
 2214 004c 000056E3 		cmp	r6, #0
 2215 0050 1000000A 		beq	.L220
 387:D:/Work/DeviceTester/amazon-freertos/lib/shadow\aws_shadow.c ****                 xThingName_cb_Lengh = strlen( pcThingName );
 2216              		.loc 1 387 0
 2217 0054 186194E5 		ldr	r6, [r4, #280]
 2218 0058 0600A0E1 		mov	r0, r6
 2219 005c FEFFFFEB 		bl	strlen
 2220              	.LVL244:
 2221 0060 00A0A0E1 		mov	r10, r0
 2222              	.LVL245:
 388:D:/Work/DeviceTester/amazon-freertos/lib/shadow\aws_shadow.c **** 
 2223              		.loc 1 388 0
 2224 0064 0700A0E1 		mov	r0, r7
 2225              	.LVL246:
 2226 0068 FEFFFFEB 		bl	strlen
 2227              	.LVL247:
 390:D:/Work/DeviceTester/amazon-freertos/lib/shadow\aws_shadow.c ****                 {
 2228              		.loc 1 390 0
 2229 006c 00005AE1 		cmp	r10, r0
 371:D:/Work/DeviceTester/amazon-freertos/lib/shadow\aws_shadow.c ****     size_t xThingNameLengh;
 2230              		.loc 1 371 0
 2231 0070 0060E013 		mvnne	r6, #0
 390:D:/Work/DeviceTester/amazon-freertos/lib/shadow\aws_shadow.c ****                 {
 2232              		.loc 1 390 0
 2233 0074 0700001A 		bne	.L220
 392:D:/Work/DeviceTester/amazon-freertos/lib/shadow\aws_shadow.c ****                                  pxCallbackCatalogEntry->xCallbackInfo.pcThingName,
 2234              		.loc 1 392 0
 2235 0078 0610A0E1 		mov	r1, r6
 2236 007c 0A20A0E1 		mov	r2, r10
 2237 0080 0700A0E1 		mov	r0, r7
 2238              	.LVL248:
 2239 0084 FEFFFFEB 		bl	strncmp
 2240              	.LVL249:
 397:D:/Work/DeviceTester/amazon-freertos/lib/shadow\aws_shadow.c ****                         break;
 2241              		.loc 1 397 0
 2242 0088 000050E3 		cmp	r0, #0
 2243 008c 0190A003 		moveq	r9, #1
 2244              	.LVL250:
 2245 0090 0060E013 		mvnne	r6, #0
 2246 0094 0060A003 		moveq	r6, #0
 2247              	.LVL251:
 2248              	.L220:
 404:D:/Work/DeviceTester/amazon-freertos/lib/shadow\aws_shadow.c **** 
 2249              		.loc 1 404 0
 2250 0098 FEFFFFEB 		bl	vPortExitCritical
 2251              	.LVL252:
 406:D:/Work/DeviceTester/amazon-freertos/lib/shadow\aws_shadow.c ****     {
 2252              		.loc 1 406 0
 2253 009c 000059E3 		cmp	r9, #0
 2254 00a0 0600001A 		bne	.L221
 2255              	.LVL253:
 408:D:/Work/DeviceTester/amazon-freertos/lib/shadow\aws_shadow.c ****         xCallbackCatalog[ xReturn ].xCallbackInfo.pcThingName = pcThingName;
 2256              		.loc 1 408 0
 2257 00a4 1430A0E3 		mov	r3, #20
 2258 00a8 D4209FE5 		ldr	r2, .L239+8
 2259 00ac 930603E0 		mul	r3, r3, r6
 2260 00b0 0100A0E3 		mov	r0, #1
 2261 00b4 031082E0 		add	r1, r2, r3
 2262 00b8 100081E5 		str	r0, [r1, #16]
 409:D:/Work/DeviceTester/amazon-freertos/lib/shadow\aws_shadow.c ****     }
 2263              		.loc 1 409 0
 2264 00bc 037082E7 		str	r7, [r2, r3]
 2265              	.LVL254:
 2266              	.L221:
 2267              	.LBE79:
 2268              	.LBE78:
1655:D:/Work/DeviceTester/amazon-freertos/lib/shadow\aws_shadow.c **** 
1656:D:/Work/DeviceTester/amazon-freertos/lib/shadow\aws_shadow.c ****     xCallbackCatalogIndex = prvGetCallbackCatalogEntry( pxShadowClient->xCallbackCatalog,
1657:D:/Work/DeviceTester/amazon-freertos/lib/shadow\aws_shadow.c ****                                                         pxCallbackParams->pcThingName );
1658:D:/Work/DeviceTester/amazon-freertos/lib/shadow\aws_shadow.c ****     configASSERT( xCallbackCatalogIndex >= 0 );
 2269              		.loc 1 1658 0
 2270 00c0 010076E3 		cmn	r6, #1
 2271 00c4 D0FFFF0A 		beq	.L219
 2272              	.LVL255:
1659:D:/Work/DeviceTester/amazon-freertos/lib/shadow\aws_shadow.c **** 
1660:D:/Work/DeviceTester/amazon-freertos/lib/shadow\aws_shadow.c ****     /* Initialize timeout data. */
1661:D:/Work/DeviceTester/amazon-freertos/lib/shadow\aws_shadow.c **** 
1662:D:/Work/DeviceTester/amazon-freertos/lib/shadow\aws_shadow.c ****     pxCallbackCatalogEntry = &( pxShadowClient->xCallbackCatalog
1663:D:/Work/DeviceTester/amazon-freertos/lib/shadow\aws_shadow.c ****                                 [ xCallbackCatalogIndex ] );
1664:D:/Work/DeviceTester/amazon-freertos/lib/shadow\aws_shadow.c **** 
1665:D:/Work/DeviceTester/amazon-freertos/lib/shadow\aws_shadow.c ****     /*_RB_ Casting on these calls make the code unreadable.  Types need changing to remove the need
1666:D:/Work/DeviceTester/amazon-freertos/lib/shadow\aws_shadow.c ****     /* ToDo: sub manager. */
1667:D:/Work/DeviceTester/amazon-freertos/lib/shadow\aws_shadow.c ****     xReturn = prvRegisterCallback( ( BaseType_t ) xShadowClientHandle,                             
 2273              		.loc 1 1667 0
 2274 00c8 B8309FE5 		ldr	r3, .L239+12
 2275 00cc 042085E2 		add	r2, r5, #4
 2276 00d0 04808DE5 		str	r8, [sp, #4]
 2277 00d4 0000A0E3 		mov	r0, #0
 2278 00d8 AC109FE5 		ldr	r1, .L239+16
 2279 00dc 00308DE5 		str	r3, [sp]
 2280 00e0 003095E5 		ldr	r3, [r5]
 2281 00e4 FEFFFFEB 		bl	prvRegisterCallback
 2282              	.LVL256:
1668:D:/Work/DeviceTester/amazon-freertos/lib/shadow\aws_shadow.c ****                                    ( const void ** ) &( ( pxCallbackCatalogEntry->xCallbackInfo ).x
1669:D:/Work/DeviceTester/amazon-freertos/lib/shadow\aws_shadow.c ****                                    ( const void ** ) &( pxCallbackParams->xShadowUpdatedCallback ),
1670:D:/Work/DeviceTester/amazon-freertos/lib/shadow\aws_shadow.c ****                                    pxCallbackParams->pcThingName,
1671:D:/Work/DeviceTester/amazon-freertos/lib/shadow\aws_shadow.c ****                                    ( const uint8_t * ) shadowTOPIC_UPDATE_DOCUMENTS,
1672:D:/Work/DeviceTester/amazon-freertos/lib/shadow\aws_shadow.c ****                                    xTimeoutTicks );
1673:D:/Work/DeviceTester/amazon-freertos/lib/shadow\aws_shadow.c **** 
1674:D:/Work/DeviceTester/amazon-freertos/lib/shadow\aws_shadow.c ****     if( xReturn == eShadowSuccess )
 2283              		.loc 1 1674 0
 2284 00e8 006050E2 		subs	r6, r0, #0
 2285 00ec 1000001A 		bne	.L222
1675:D:/Work/DeviceTester/amazon-freertos/lib/shadow\aws_shadow.c ****     {
1676:D:/Work/DeviceTester/amazon-freertos/lib/shadow\aws_shadow.c ****         xReturn = prvRegisterCallback( ( BaseType_t ) xShadowClientHandle,                         
 2286              		.loc 1 1676 0
 2287 00f0 98309FE5 		ldr	r3, .L239+20
 2288 00f4 082085E2 		add	r2, r5, #8
 2289 00f8 04808DE5 		str	r8, [sp, #4]
 2290 00fc 90109FE5 		ldr	r1, .L239+24
 2291 0100 00308DE5 		str	r3, [sp]
 2292 0104 003095E5 		ldr	r3, [r5]
 2293 0108 FEFFFFEB 		bl	prvRegisterCallback
 2294              	.LVL257:
1677:D:/Work/DeviceTester/amazon-freertos/lib/shadow\aws_shadow.c ****                                        ( const void ** ) &( ( pxCallbackCatalogEntry->xCallbackInfo
1678:D:/Work/DeviceTester/amazon-freertos/lib/shadow\aws_shadow.c ****                                        ( const void ** ) &( pxCallbackParams->xShadowDeletedCallbac
1679:D:/Work/DeviceTester/amazon-freertos/lib/shadow\aws_shadow.c ****                                        pxCallbackParams->pcThingName,
1680:D:/Work/DeviceTester/amazon-freertos/lib/shadow\aws_shadow.c ****                                        ( const uint8_t * ) shadowTOPIC_DELETE_ACCEPTED,
1681:D:/Work/DeviceTester/amazon-freertos/lib/shadow\aws_shadow.c ****                                        xTimeoutTicks );
1682:D:/Work/DeviceTester/amazon-freertos/lib/shadow\aws_shadow.c ****     }
1683:D:/Work/DeviceTester/amazon-freertos/lib/shadow\aws_shadow.c **** 
1684:D:/Work/DeviceTester/amazon-freertos/lib/shadow\aws_shadow.c ****     if( xReturn == eShadowSuccess )
 2295              		.loc 1 1684 0
 2296 010c 006050E2 		subs	r6, r0, #0
 2297 0110 0700001A 		bne	.L222
1685:D:/Work/DeviceTester/amazon-freertos/lib/shadow\aws_shadow.c ****     {
1686:D:/Work/DeviceTester/amazon-freertos/lib/shadow\aws_shadow.c ****         xReturn = prvRegisterCallback( ( BaseType_t ) xShadowClientHandle,                         
 2298              		.loc 1 1686 0
 2299 0114 7C309FE5 		ldr	r3, .L239+28
 2300 0118 0C2085E2 		add	r2, r5, #12
 2301 011c 04808DE5 		str	r8, [sp, #4]
 2302 0120 74109FE5 		ldr	r1, .L239+32
 2303 0124 00308DE5 		str	r3, [sp]
 2304 0128 003095E5 		ldr	r3, [r5]
 2305 012c FEFFFFEB 		bl	prvRegisterCallback
 2306              	.LVL258:
 2307 0130 0060A0E1 		mov	r6, r0
 2308              	.LVL259:
 2309              	.L222:
1687:D:/Work/DeviceTester/amazon-freertos/lib/shadow\aws_shadow.c ****                                        ( const void ** ) &( ( pxCallbackCatalogEntry->xCallbackInfo
1688:D:/Work/DeviceTester/amazon-freertos/lib/shadow\aws_shadow.c ****                                        ( const void ** ) &( pxCallbackParams->xShadowDeltaCallback 
1689:D:/Work/DeviceTester/amazon-freertos/lib/shadow\aws_shadow.c ****                                        pxCallbackParams->pcThingName,
1690:D:/Work/DeviceTester/amazon-freertos/lib/shadow\aws_shadow.c ****                                        ( const uint8_t * ) shadowTOPIC_UPDATE_DELTA,
1691:D:/Work/DeviceTester/amazon-freertos/lib/shadow\aws_shadow.c ****                                        xTimeoutTicks );
1692:D:/Work/DeviceTester/amazon-freertos/lib/shadow\aws_shadow.c ****     }
1693:D:/Work/DeviceTester/amazon-freertos/lib/shadow\aws_shadow.c **** 
1694:D:/Work/DeviceTester/amazon-freertos/lib/shadow\aws_shadow.c ****     if( ( ( pxCallbackCatalogEntry->xCallbackInfo ).xShadowUpdatedCallback == NULL ) &&
 2310              		.loc 1 1694 0
 2311 0134 1C3194E5 		ldr	r3, [r4, #284]
 2312 0138 000053E3 		cmp	r3, #0
 2313 013c 0B00001A 		bne	.L223
 2314              		.loc 1 1694 0 is_stmt 0 discriminator 1
 2315 0140 243194E5 		ldr	r3, [r4, #292]
 2316 0144 000053E3 		cmp	r3, #0
 2317 0148 0800001A 		bne	.L223
1695:D:/Work/DeviceTester/amazon-freertos/lib/shadow\aws_shadow.c ****         ( ( pxCallbackCatalogEntry->xCallbackInfo ).xShadowDeltaCallback == NULL ) &&
 2318              		.loc 1 1695 0 is_stmt 1
 2319 014c 204194E5 		ldr	r4, [r4, #288]
 2320 0150 000054E3 		cmp	r4, #0
 2321 0154 0500001A 		bne	.L223
1696:D:/Work/DeviceTester/amazon-freertos/lib/shadow\aws_shadow.c ****         ( ( pxCallbackCatalogEntry->xCallbackInfo ).xShadowDeletedCallback == NULL ) )
1697:D:/Work/DeviceTester/amazon-freertos/lib/shadow\aws_shadow.c ****     {
1698:D:/Work/DeviceTester/amazon-freertos/lib/shadow\aws_shadow.c ****         taskENTER_CRITICAL();
 2322              		.loc 1 1698 0
 2323 0158 FEFFFFEB 		bl	vPortEnterCritical
 2324              	.LVL260:
1699:D:/Work/DeviceTester/amazon-freertos/lib/shadow\aws_shadow.c ****         {
1700:D:/Work/DeviceTester/amazon-freertos/lib/shadow\aws_shadow.c ****             memset( pxCallbackCatalogEntry,
 2325              		.loc 1 1700 0
 2326 015c 1420A0E3 		mov	r2, #20
 2327 0160 0410A0E1 		mov	r1, r4
 2328 0164 18009FE5 		ldr	r0, .L239+8
 2329 0168 FEFFFFEB 		bl	memset
 2330              	.LVL261:
1701:D:/Work/DeviceTester/amazon-freertos/lib/shadow\aws_shadow.c ****                     0,
1702:D:/Work/DeviceTester/amazon-freertos/lib/shadow\aws_shadow.c ****                     sizeof( CallbackCatalogEntry_t ) );
1703:D:/Work/DeviceTester/amazon-freertos/lib/shadow\aws_shadow.c ****         }
1704:D:/Work/DeviceTester/amazon-freertos/lib/shadow\aws_shadow.c ****         taskEXIT_CRITICAL();
 2331              		.loc 1 1704 0
 2332 016c FEFFFFEB 		bl	vPortExitCritical
 2333              	.LVL262:
 2334              	.L223:
1705:D:/Work/DeviceTester/amazon-freertos/lib/shadow\aws_shadow.c ****     }
1706:D:/Work/DeviceTester/amazon-freertos/lib/shadow\aws_shadow.c **** 
1707:D:/Work/DeviceTester/amazon-freertos/lib/shadow\aws_shadow.c ****     return xReturn;
1708:D:/Work/DeviceTester/amazon-freertos/lib/shadow\aws_shadow.c **** }
 2335              		.loc 1 1708 0
 2336 0170 0600A0E1 		mov	r0, r6
 2337 0174 08D08DE2 		add	sp, sp, #8
 2338              		.cfi_def_cfa_offset 32
 2339              		@ sp needed
 2340 0178 F087BDE8 		pop	{r4, r5, r6, r7, r8, r9, r10, pc}
 2341              	.LVL263:
 2342              	.L240:
 2343              		.align	2
 2344              	.L239:
 2345 017c 28000000 		.word	Unity+40
 2346 0180 00000000 		.word	.LANCHOR0
 2347 0184 18010000 		.word	.LANCHOR0+280
 2348 0188 17000000 		.word	.LC1
 2349 018c 1C010000 		.word	.LANCHOR0+284
 2350 0190 61000000 		.word	.LC3
 2351 0194 20010000 		.word	.LANCHOR0+288
 2352 0198 3E000000 		.word	.LC2
 2353 019c 24010000 		.word	.LANCHOR0+292
 2354              		.cfi_endproc
 2355              	.LFE25:
 2357              		.section	.text.SHADOW_ReturnMQTTBuffer,"ax",%progbits
 2358              		.align	2
 2359              		.global	SHADOW_ReturnMQTTBuffer
 2360              		.syntax unified
 2361              		.arm
 2362              		.fpu neon
 2364              	SHADOW_ReturnMQTTBuffer:
 2365              	.LFB26:
1709:D:/Work/DeviceTester/amazon-freertos/lib/shadow\aws_shadow.c **** 
1710:D:/Work/DeviceTester/amazon-freertos/lib/shadow\aws_shadow.c **** /*-----------------------------------------------------------*/
1711:D:/Work/DeviceTester/amazon-freertos/lib/shadow\aws_shadow.c **** 
1712:D:/Work/DeviceTester/amazon-freertos/lib/shadow\aws_shadow.c **** ShadowReturnCode_t SHADOW_ReturnMQTTBuffer( ShadowClientHandle_t xShadowClientHandle,
1713:D:/Work/DeviceTester/amazon-freertos/lib/shadow\aws_shadow.c ****                                             MQTTBufferHandle_t xBufferHandle )
1714:D:/Work/DeviceTester/amazon-freertos/lib/shadow\aws_shadow.c **** {
 2366              		.loc 1 1714 0
 2367              		.cfi_startproc
 2368              		@ args = 0, pretend = 0, frame = 0
 2369              		@ frame_needed = 0, uses_anonymous_args = 0
 2370              	.LVL264:
1715:D:/Work/DeviceTester/amazon-freertos/lib/shadow\aws_shadow.c ****     ShadowClient_t * pxShadowClient;
1716:D:/Work/DeviceTester/amazon-freertos/lib/shadow\aws_shadow.c ****     MQTTAgentReturnCode_t xMQTTReturn;
1717:D:/Work/DeviceTester/amazon-freertos/lib/shadow\aws_shadow.c ****     ShadowReturnCode_t xReturn = eShadowFailure;
1718:D:/Work/DeviceTester/amazon-freertos/lib/shadow\aws_shadow.c **** 
1719:D:/Work/DeviceTester/amazon-freertos/lib/shadow\aws_shadow.c ****     configASSERT( ( ( BaseType_t ) xShadowClientHandle >= 0 &&
 2371              		.loc 1 1719 0
 2372 0000 000050E3 		cmp	r0, #0
1714:D:/Work/DeviceTester/amazon-freertos/lib/shadow\aws_shadow.c ****     ShadowClient_t * pxShadowClient;
 2373              		.loc 1 1714 0
 2374 0004 10402DE9 		push	{r4, lr}
 2375              		.cfi_def_cfa_offset 8
 2376              		.cfi_offset 4, -8
 2377              		.cfi_offset 14, -4
 2378              		.loc 1 1719 0
 2379 0008 0200000A 		beq	.L242
 2380              	.L243:
 2381              		.loc 1 1719 0 is_stmt 0 discriminator 1
 2382 000c 0110A0E3 		mov	r1, #1
 2383              	.LVL265:
 2384 0010 20009FE5 		ldr	r0, .L245
 2385              	.LVL266:
 2386 0014 FEFFFFEB 		bl	longjmp
 2387              	.LVL267:
 2388              	.L242:
1720:D:/Work/DeviceTester/amazon-freertos/lib/shadow\aws_shadow.c ****                     ( BaseType_t ) xShadowClientHandle < shadowconfigMAX_CLIENTS ) ); /*lint !e923 
1721:D:/Work/DeviceTester/amazon-freertos/lib/shadow\aws_shadow.c **** 
1722:D:/Work/DeviceTester/amazon-freertos/lib/shadow\aws_shadow.c ****     pxShadowClient = &( xShadowClients[ ( BaseType_t ) xShadowClientHandle ] );       /*lint !e923 
1723:D:/Work/DeviceTester/amazon-freertos/lib/shadow\aws_shadow.c ****     configASSERT( ( pxShadowClient->xInUse == pdTRUE ) );
 2389              		.loc 1 1723 0 is_stmt 1
 2390 0018 1C309FE5 		ldr	r3, .L245+4
 2391 001c 042093E5 		ldr	r2, [r3, #4]
 2392 0020 010052E3 		cmp	r2, #1
 2393 0024 F8FFFF1A 		bne	.L243
1724:D:/Work/DeviceTester/amazon-freertos/lib/shadow\aws_shadow.c **** 
1725:D:/Work/DeviceTester/amazon-freertos/lib/shadow\aws_shadow.c ****     xMQTTReturn = MQTT_AGENT_ReturnBuffer( pxShadowClient->xMQTTClient,
 2394              		.loc 1 1725 0
 2395 0028 000093E5 		ldr	r0, [r3]
 2396              	.LVL268:
 2397 002c FEFFFFEB 		bl	MQTT_AGENT_ReturnBuffer
 2398              	.LVL269:
1726:D:/Work/DeviceTester/amazon-freertos/lib/shadow\aws_shadow.c ****                                            xBufferHandle );
1727:D:/Work/DeviceTester/amazon-freertos/lib/shadow\aws_shadow.c **** 
1728:D:/Work/DeviceTester/amazon-freertos/lib/shadow\aws_shadow.c ****     xReturn = prvConvertMQTTReturnCode( xMQTTReturn,
1729:D:/Work/DeviceTester/amazon-freertos/lib/shadow\aws_shadow.c ****                                         xShadowClientHandle,
1730:D:/Work/DeviceTester/amazon-freertos/lib/shadow\aws_shadow.c ****                                         "Return MQTT buffer" );
1731:D:/Work/DeviceTester/amazon-freertos/lib/shadow\aws_shadow.c **** 
1732:D:/Work/DeviceTester/amazon-freertos/lib/shadow\aws_shadow.c ****     return xReturn;
1733:D:/Work/DeviceTester/amazon-freertos/lib/shadow\aws_shadow.c **** }
 2399              		.loc 1 1733 0
 2400 0030 1040BDE8 		pop	{r4, lr}
 2401              		.cfi_restore 14
 2402              		.cfi_restore 4
 2403              		.cfi_def_cfa_offset 0
1728:D:/Work/DeviceTester/amazon-freertos/lib/shadow\aws_shadow.c ****                                         xShadowClientHandle,
 2404              		.loc 1 1728 0
 2405 0034 FEFFFFEA 		b	prvConvertMQTTReturnCode.isra.0
 2406              	.LVL270:
 2407              	.L246:
 2408              		.align	2
 2409              	.L245:
 2410 0038 28000000 		.word	Unity+40
 2411 003c 00000000 		.word	.LANCHOR0
 2412              		.cfi_endproc
 2413              	.LFE26:
 2415              		.section	.bss.xShadowClients,"aw",%nobits
 2416              		.align	2
 2417              		.set	.LANCHOR0,. + 0
 2420              	xShadowClients:
 2421 0000 00000000 		.space	468
 2421      00000000 
 2421      00000000 
 2421      00000000 
 2421      00000000 
 2422              		.section	.rodata.SHADOW_Delete.str1.1,"aMS",%progbits,1
 2423              	.LC15:
 2424 0000 64656C65 		.ascii	"delete\000"
 2424      746500
 2425              	.LC16:
 2426 0007 24617773 		.ascii	"$aws/things/%s/shadow/delete\000"
 2426      2F746869 
 2426      6E67732F 
 2426      25732F73 
 2426      6861646F 
 2427              	.LC17:
 2428 0024 24617773 		.ascii	"$aws/things/%s/shadow/delete/rejected\000"
 2428      2F746869 
 2428      6E67732F 
 2428      25732F73 
 2428      6861646F 
 2429              		.section	.rodata.SHADOW_Get.str1.1,"aMS",%progbits,1
 2430              	.LC10:
 2431 0000 67657400 		.ascii	"get\000"
 2432              	.LC11:
 2433 0004 24617773 		.ascii	"$aws/things/%s/shadow/get\000"
 2433      2F746869 
 2433      6E67732F 
 2433      25732F73 
 2433      6861646F 
 2434              	.LC12:
 2435 001e 24617773 		.ascii	"$aws/things/%s/shadow/get/accepted\000"
 2435      2F746869 
 2435      6E67732F 
 2435      25732F73 
 2435      6861646F 
 2436              	.LC13:
 2437 0041 24617773 		.ascii	"$aws/things/%s/shadow/get/rejected\000"
 2437      2F746869 
 2437      6E67732F 
 2437      25732F73 
 2437      6861646F 
 2438              	.LC14:
 2439 0064 00       		.ascii	"\000"
 2440              		.section	.rodata.SHADOW_Update.str1.1,"aMS",%progbits,1
 2441              	.LC6:
 2442 0000 75706461 		.ascii	"update\000"
 2442      746500
 2443              	.LC7:
 2444 0007 24617773 		.ascii	"$aws/things/%s/shadow/update\000"
 2444      2F746869 
 2444      6E67732F 
 2444      25732F73 
 2444      6861646F 
 2445              	.LC8:
 2446 0024 24617773 		.ascii	"$aws/things/%s/shadow/update/accepted\000"
 2446      2F746869 
 2446      6E67732F 
 2446      25732F73 
 2446      6861646F 
 2447              	.LC9:
 2448 004a 24617773 		.ascii	"$aws/things/%s/shadow/update/rejected\000"
 2448      2F746869 
 2448      6E67732F 
 2448      25732F73 
 2448      6861646F 
 2449              		.section	.rodata.prvMatchCallbackTopic.str1.1,"aMS",%progbits,1
 2450              	.LC0:
 2451 0000 24617773 		.ascii	"$aws/things/%s/shadow/\000"
 2451      2F746869 
 2451      6E67732F 
 2451      25732F73 
 2451      6861646F 
 2452              	.LC1:
 2453 0017 24617773 		.ascii	"$aws/things/%s/shadow/update/documents\000"
 2453      2F746869 
 2453      6E67732F 
 2453      25732F73 
 2453      6861646F 
 2454              	.LC2:
 2455 003e 24617773 		.ascii	"$aws/things/%s/shadow/update/delta\000"
 2455      2F746869 
 2455      6E67732F 
 2455      25732F73 
 2455      6861646F 
 2456              	.LC3:
 2457 0061 24617773 		.ascii	"$aws/things/%s/shadow/delete/accepted\000"
 2457      2F746869 
 2457      6E67732F 
 2457      25732F73 
 2457      6861646F 
 2458              		.section	.rodata.prvShadowMQTTCallback.str1.1,"aMS",%progbits,1
 2459              	.LC4:
 2460 0000 2F616363 		.ascii	"/accepted\000"
 2460      65707465 
 2460      6400
 2461              	.LC5:
 2462 000a 2F72656A 		.ascii	"/rejected\000"
 2462      65637465 
 2462      6400
 2463              		.text
 2464              	.Letext0:
 2465              		.file 2 "c:\\program files (x86)\\gnu tools arm embedded\\6 2017-q2-update\\arm-none-eabi\\include
 2466              		.file 3 "c:\\program files (x86)\\gnu tools arm embedded\\6 2017-q2-update\\lib\\gcc\\arm-none-eab
 2467              		.file 4 "c:\\program files (x86)\\gnu tools arm embedded\\6 2017-q2-update\\arm-none-eabi\\include
 2468              		.file 5 "c:\\program files (x86)\\gnu tools arm embedded\\6 2017-q2-update\\arm-none-eabi\\include
 2469              		.file 6 "c:\\program files (x86)\\gnu tools arm embedded\\6 2017-q2-update\\arm-none-eabi\\include
 2470              		.file 7 "c:\\program files (x86)\\gnu tools arm embedded\\6 2017-q2-update\\arm-none-eabi\\include
 2471              		.file 8 "c:\\program files (x86)\\gnu tools arm embedded\\6 2017-q2-update\\arm-none-eabi\\include
 2472              		.file 9 "c:\\program files (x86)\\gnu tools arm embedded\\6 2017-q2-update\\arm-none-eabi\\include
 2473              		.file 10 "c:\\program files (x86)\\gnu tools arm embedded\\6 2017-q2-update\\arm-none-eabi\\includ
 2474              		.file 11 "D:\\Work\\DeviceTester\\amazon-freertos\\lib\\third_party\\unity\\src/unity_internals.h"
 2475              		.file 12 "D:\\Work\\DeviceTester\\amazon-freertos\\lib\\FreeRTOS\\portable\\GCC\\ARM_CA9_RZA2M/por
 2476              		.file 13 "D:\\Work\\DeviceTester\\amazon-freertos\\lib\\include/FreeRTOS.h"
 2477              		.file 14 "D:\\Work\\DeviceTester\\amazon-freertos\\lib\\include/task.h"
 2478              		.file 15 "D:\\Work\\DeviceTester\\amazon-freertos\\lib\\include/queue.h"
 2479              		.file 16 "D:\\Work\\DeviceTester\\amazon-freertos\\lib\\include/semphr.h"
 2480              		.file 17 "D:\\Work\\DeviceTester\\amazon-freertos\\lib\\include\\private/aws_mqtt_buffer.h"
 2481              		.file 18 "D:\\Work\\DeviceTester\\amazon-freertos\\lib\\include/aws_mqtt_lib.h"
 2482              		.file 19 "D:\\Work\\DeviceTester\\amazon-freertos\\lib\\include/aws_mqtt_agent.h"
 2483              		.file 20 "D:\\Work\\DeviceTester\\amazon-freertos\\lib\\include/aws_shadow.h"
 2484              		.file 21 "c:\\program files (x86)\\gnu tools arm embedded\\6 2017-q2-update\\arm-none-eabi\\includ
 2485              		.file 22 "c:\\program files (x86)\\gnu tools arm embedded\\6 2017-q2-update\\arm-none-eabi\\includ
 2486              		.file 23 "D:\\Work\\DeviceTester\\amazon-freertos\\lib\\include\\private/aws_shadow_json.h"
DEFINED SYMBOLS
                            *ABS*:00000000 aws_shadow.c
C:\Users\a5089698\AppData\Local\Temp\ccxzrwdb.s:17     .text.prvSetSubscribedFlag:00000000 $a
C:\Users\a5089698\AppData\Local\Temp\ccxzrwdb.s:22     .text.prvSetSubscribedFlag:00000000 prvSetSubscribedFlag
C:\Users\a5089698\AppData\Local\Temp\ccxzrwdb.s:56     .text.prvConvertMQTTReturnCode.isra.0:00000000 $a
C:\Users\a5089698\AppData\Local\Temp\ccxzrwdb.s:61     .text.prvConvertMQTTReturnCode.isra.0:00000000 prvConvertMQTTReturnCode.isra.0
C:\Users\a5089698\AppData\Local\Temp\ccxzrwdb.s:84     .text.prvGetErrorCodeAndMessage.isra.1:00000000 $a
C:\Users\a5089698\AppData\Local\Temp\ccxzrwdb.s:89     .text.prvGetErrorCodeAndMessage.isra.1:00000000 prvGetErrorCodeAndMessage.isra.1
C:\Users\a5089698\AppData\Local\Temp\ccxzrwdb.s:118    .text.prvCreateTopic.constprop.5:00000000 $a
C:\Users\a5089698\AppData\Local\Temp\ccxzrwdb.s:123    .text.prvCreateTopic.constprop.5:00000000 prvCreateTopic.constprop.5
C:\Users\a5089698\AppData\Local\Temp\ccxzrwdb.s:243    .text.prvRegisterCallback:00000000 $a
C:\Users\a5089698\AppData\Local\Temp\ccxzrwdb.s:248    .text.prvRegisterCallback:00000000 prvRegisterCallback
C:\Users\a5089698\AppData\Local\Temp\ccxzrwdb.s:355    .text.prvRegisterCallback:000000bc $d
C:\Users\a5089698\AppData\Local\Temp\ccxzrwdb.s:360    .text.prvShadowUnsubscribeFromAcceptedRejected.isra.3:00000000 $a
C:\Users\a5089698\AppData\Local\Temp\ccxzrwdb.s:365    .text.prvShadowUnsubscribeFromAcceptedRejected.isra.3:00000000 prvShadowUnsubscribeFromAcceptedRejected.isra.3
C:\Users\a5089698\AppData\Local\Temp\ccxzrwdb.s:472    .text.prvShadowUnsubscribeFromAcceptedRejected.isra.3:000000a4 $d
C:\Users\a5089698\AppData\Local\Temp\ccxzrwdb.s:477    .text.prvMatchCallbackTopic:00000000 $a
C:\Users\a5089698\AppData\Local\Temp\ccxzrwdb.s:482    .text.prvMatchCallbackTopic:00000000 prvMatchCallbackTopic
C:\Users\a5089698\AppData\Local\Temp\ccxzrwdb.s:617    .text.prvMatchCallbackTopic:0000010c $d
C:\Users\a5089698\AppData\Local\Temp\ccxzrwdb.s:625    .text.prvShadowMQTTCallback:00000000 $a
C:\Users\a5089698\AppData\Local\Temp\ccxzrwdb.s:630    .text.prvShadowMQTTCallback:00000000 prvShadowMQTTCallback
C:\Users\a5089698\AppData\Local\Temp\ccxzrwdb.s:1049   .text.prvShadowMQTTCallback:00000318 $d
C:\Users\a5089698\AppData\Local\Temp\ccxzrwdb.s:1057   .text.prvShadowOperation:00000000 $a
C:\Users\a5089698\AppData\Local\Temp\ccxzrwdb.s:1062   .text.prvShadowOperation:00000000 prvShadowOperation
C:\Users\a5089698\AppData\Local\Temp\ccxzrwdb.s:1502   .text.prvShadowOperation:00000380 $d
C:\Users\a5089698\AppData\Local\Temp\ccxzrwdb.s:1509   .text.SHADOW_ClientConnect:00000000 $a
C:\Users\a5089698\AppData\Local\Temp\ccxzrwdb.s:1515   .text.SHADOW_ClientConnect:00000000 SHADOW_ClientConnect
C:\Users\a5089698\AppData\Local\Temp\ccxzrwdb.s:1570   .text.SHADOW_ClientConnect:00000058 $d
C:\Users\a5089698\AppData\Local\Temp\ccxzrwdb.s:1577   .text.SHADOW_ClientDisconnect:00000000 $a
C:\Users\a5089698\AppData\Local\Temp\ccxzrwdb.s:1583   .text.SHADOW_ClientDisconnect:00000000 SHADOW_ClientDisconnect
C:\Users\a5089698\AppData\Local\Temp\ccxzrwdb.s:1630   .text.SHADOW_ClientDisconnect:0000003c $d
C:\Users\a5089698\AppData\Local\Temp\ccxzrwdb.s:1636   .text.SHADOW_ClientDelete:00000000 $a
C:\Users\a5089698\AppData\Local\Temp\ccxzrwdb.s:1642   .text.SHADOW_ClientDelete:00000000 SHADOW_ClientDelete
C:\Users\a5089698\AppData\Local\Temp\ccxzrwdb.s:1707   .text.SHADOW_ClientDelete:0000005c $d
C:\Users\a5089698\AppData\Local\Temp\ccxzrwdb.s:1713   .text.SHADOW_ClientCreate:00000000 $a
C:\Users\a5089698\AppData\Local\Temp\ccxzrwdb.s:1719   .text.SHADOW_ClientCreate:00000000 SHADOW_ClientCreate
C:\Users\a5089698\AppData\Local\Temp\ccxzrwdb.s:1858   .text.SHADOW_ClientCreate:000000e0 $d
C:\Users\a5089698\AppData\Local\Temp\ccxzrwdb.s:1867   .text.SHADOW_Update:00000000 $a
C:\Users\a5089698\AppData\Local\Temp\ccxzrwdb.s:1873   .text.SHADOW_Update:00000000 SHADOW_Update
C:\Users\a5089698\AppData\Local\Temp\ccxzrwdb.s:1956   .text.SHADOW_Update:00000094 $d
C:\Users\a5089698\AppData\Local\Temp\ccxzrwdb.s:1965   .text.SHADOW_Get:00000000 $a
C:\Users\a5089698\AppData\Local\Temp\ccxzrwdb.s:1971   .text.SHADOW_Get:00000000 SHADOW_Get
C:\Users\a5089698\AppData\Local\Temp\ccxzrwdb.s:2051   .text.SHADOW_Get:0000008c $d
C:\Users\a5089698\AppData\Local\Temp\ccxzrwdb.s:2061   .text.SHADOW_Delete:00000000 $a
C:\Users\a5089698\AppData\Local\Temp\ccxzrwdb.s:2067   .text.SHADOW_Delete:00000000 SHADOW_Delete
C:\Users\a5089698\AppData\Local\Temp\ccxzrwdb.s:2147   .text.SHADOW_Delete:0000008c $d
C:\Users\a5089698\AppData\Local\Temp\ccxzrwdb.s:2157   .text.SHADOW_RegisterCallbacks:00000000 $a
C:\Users\a5089698\AppData\Local\Temp\ccxzrwdb.s:2163   .text.SHADOW_RegisterCallbacks:00000000 SHADOW_RegisterCallbacks
C:\Users\a5089698\AppData\Local\Temp\ccxzrwdb.s:2345   .text.SHADOW_RegisterCallbacks:0000017c $d
C:\Users\a5089698\AppData\Local\Temp\ccxzrwdb.s:2358   .text.SHADOW_ReturnMQTTBuffer:00000000 $a
C:\Users\a5089698\AppData\Local\Temp\ccxzrwdb.s:2364   .text.SHADOW_ReturnMQTTBuffer:00000000 SHADOW_ReturnMQTTBuffer
C:\Users\a5089698\AppData\Local\Temp\ccxzrwdb.s:2410   .text.SHADOW_ReturnMQTTBuffer:00000038 $d
C:\Users\a5089698\AppData\Local\Temp\ccxzrwdb.s:2416   .bss.xShadowClients:00000000 $d
C:\Users\a5089698\AppData\Local\Temp\ccxzrwdb.s:2420   .bss.xShadowClients:00000000 xShadowClients
                     .debug_frame:00000010 $d

UNDEFINED SYMBOLS
SHADOW_JSONGetErrorCodeAndMessage
strlen
MQTT_AGENT_Unsubscribe
MQTT_AGENT_Subscribe
strncmp
xQueueSemaphoreTake
SHADOW_JSONDocClientTokenMatch
xQueueGenericSend
longjmp
Unity
memset
MQTT_AGENT_Publish
MQTT_AGENT_Connect
MQTT_AGENT_Disconnect
MQTT_AGENT_Delete
vPortEnterCritical
vPortExitCritical
MQTT_AGENT_Create
xQueueGenericCreateStatic
xQueueCreateMutexStatic
MQTT_AGENT_ReturnBuffer
