   1              		.cpu cortex-a9
   2              		.eabi_attribute 28, 1
   3              		.eabi_attribute 20, 1
   4              		.eabi_attribute 21, 1
   5              		.eabi_attribute 23, 3
   6              		.eabi_attribute 24, 1
   7              		.eabi_attribute 25, 1
   8              		.eabi_attribute 26, 1
   9              		.eabi_attribute 30, 4
  10              		.eabi_attribute 34, 0
  11              		.eabi_attribute 18, 4
  12              		.file	"FreeRTOS_IP.c"
  13              		.text
  14              	.Ltext0:
  15              		.cfi_sections	.debug_frame
  16              		.section	.text.prvIPTimerCheck,"ax",%progbits
  17              		.align	2
  18              		.syntax unified
  19              		.arm
  20              		.fpu neon
  22              	prvIPTimerCheck:
  23              	.LFB32:
  24              		.file 1 "D:/Work/DeviceTester/amazon-freertos/lib/FreeRTOS-Plus-TCP/source/FreeRTOS_IP.c"
   1:D:/Work/DeviceTester/amazon-freertos/lib/FreeRTOS-Plus-TCP/source\FreeRTOS_IP.c **** /*
   2:D:/Work/DeviceTester/amazon-freertos/lib/FreeRTOS-Plus-TCP/source\FreeRTOS_IP.c ****  * FreeRTOS+TCP V2.0.10
   3:D:/Work/DeviceTester/amazon-freertos/lib/FreeRTOS-Plus-TCP/source\FreeRTOS_IP.c ****  * Copyright (C) 2017 Amazon.com, Inc. or its affiliates.  All Rights Reserved.
   4:D:/Work/DeviceTester/amazon-freertos/lib/FreeRTOS-Plus-TCP/source\FreeRTOS_IP.c ****  *
   5:D:/Work/DeviceTester/amazon-freertos/lib/FreeRTOS-Plus-TCP/source\FreeRTOS_IP.c ****  * Permission is hereby granted, free of charge, to any person obtaining a copy of
   6:D:/Work/DeviceTester/amazon-freertos/lib/FreeRTOS-Plus-TCP/source\FreeRTOS_IP.c ****  * this software and associated documentation files (the "Software"), to deal in
   7:D:/Work/DeviceTester/amazon-freertos/lib/FreeRTOS-Plus-TCP/source\FreeRTOS_IP.c ****  * the Software without restriction, including without limitation the rights to
   8:D:/Work/DeviceTester/amazon-freertos/lib/FreeRTOS-Plus-TCP/source\FreeRTOS_IP.c ****  * use, copy, modify, merge, publish, distribute, sublicense, and/or sell copies of
   9:D:/Work/DeviceTester/amazon-freertos/lib/FreeRTOS-Plus-TCP/source\FreeRTOS_IP.c ****  * the Software, and to permit persons to whom the Software is furnished to do so,
  10:D:/Work/DeviceTester/amazon-freertos/lib/FreeRTOS-Plus-TCP/source\FreeRTOS_IP.c ****  * subject to the following conditions:
  11:D:/Work/DeviceTester/amazon-freertos/lib/FreeRTOS-Plus-TCP/source\FreeRTOS_IP.c ****  *
  12:D:/Work/DeviceTester/amazon-freertos/lib/FreeRTOS-Plus-TCP/source\FreeRTOS_IP.c ****  * The above copyright notice and this permission notice shall be included in all
  13:D:/Work/DeviceTester/amazon-freertos/lib/FreeRTOS-Plus-TCP/source\FreeRTOS_IP.c ****  * copies or substantial portions of the Software.
  14:D:/Work/DeviceTester/amazon-freertos/lib/FreeRTOS-Plus-TCP/source\FreeRTOS_IP.c ****  *
  15:D:/Work/DeviceTester/amazon-freertos/lib/FreeRTOS-Plus-TCP/source\FreeRTOS_IP.c ****  * THE SOFTWARE IS PROVIDED "AS IS", WITHOUT WARRANTY OF ANY KIND, EXPRESS OR
  16:D:/Work/DeviceTester/amazon-freertos/lib/FreeRTOS-Plus-TCP/source\FreeRTOS_IP.c ****  * IMPLIED, INCLUDING BUT NOT LIMITED TO THE WARRANTIES OF MERCHANTABILITY, FITNESS
  17:D:/Work/DeviceTester/amazon-freertos/lib/FreeRTOS-Plus-TCP/source\FreeRTOS_IP.c ****  * FOR A PARTICULAR PURPOSE AND NONINFRINGEMENT. IN NO EVENT SHALL THE AUTHORS OR
  18:D:/Work/DeviceTester/amazon-freertos/lib/FreeRTOS-Plus-TCP/source\FreeRTOS_IP.c ****  * COPYRIGHT HOLDERS BE LIABLE FOR ANY CLAIM, DAMAGES OR OTHER LIABILITY, WHETHER
  19:D:/Work/DeviceTester/amazon-freertos/lib/FreeRTOS-Plus-TCP/source\FreeRTOS_IP.c ****  * IN AN ACTION OF CONTRACT, TORT OR OTHERWISE, ARISING FROM, OUT OF OR IN
  20:D:/Work/DeviceTester/amazon-freertos/lib/FreeRTOS-Plus-TCP/source\FreeRTOS_IP.c ****  * CONNECTION WITH THE SOFTWARE OR THE USE OR OTHER DEALINGS IN THE SOFTWARE.
  21:D:/Work/DeviceTester/amazon-freertos/lib/FreeRTOS-Plus-TCP/source\FreeRTOS_IP.c ****  *
  22:D:/Work/DeviceTester/amazon-freertos/lib/FreeRTOS-Plus-TCP/source\FreeRTOS_IP.c ****  * http://aws.amazon.com/freertos
  23:D:/Work/DeviceTester/amazon-freertos/lib/FreeRTOS-Plus-TCP/source\FreeRTOS_IP.c ****  * http://www.FreeRTOS.org
  24:D:/Work/DeviceTester/amazon-freertos/lib/FreeRTOS-Plus-TCP/source\FreeRTOS_IP.c ****  */
  25:D:/Work/DeviceTester/amazon-freertos/lib/FreeRTOS-Plus-TCP/source\FreeRTOS_IP.c **** 
  26:D:/Work/DeviceTester/amazon-freertos/lib/FreeRTOS-Plus-TCP/source\FreeRTOS_IP.c **** /* Standard includes. */
  27:D:/Work/DeviceTester/amazon-freertos/lib/FreeRTOS-Plus-TCP/source\FreeRTOS_IP.c **** #include <stdint.h>
  28:D:/Work/DeviceTester/amazon-freertos/lib/FreeRTOS-Plus-TCP/source\FreeRTOS_IP.c **** #include <stdio.h>
  29:D:/Work/DeviceTester/amazon-freertos/lib/FreeRTOS-Plus-TCP/source\FreeRTOS_IP.c **** #include <string.h>
  30:D:/Work/DeviceTester/amazon-freertos/lib/FreeRTOS-Plus-TCP/source\FreeRTOS_IP.c **** 
  31:D:/Work/DeviceTester/amazon-freertos/lib/FreeRTOS-Plus-TCP/source\FreeRTOS_IP.c **** /* FreeRTOS includes. */
  32:D:/Work/DeviceTester/amazon-freertos/lib/FreeRTOS-Plus-TCP/source\FreeRTOS_IP.c **** #include "FreeRTOS.h"
  33:D:/Work/DeviceTester/amazon-freertos/lib/FreeRTOS-Plus-TCP/source\FreeRTOS_IP.c **** #include "task.h"
  34:D:/Work/DeviceTester/amazon-freertos/lib/FreeRTOS-Plus-TCP/source\FreeRTOS_IP.c **** #include "queue.h"
  35:D:/Work/DeviceTester/amazon-freertos/lib/FreeRTOS-Plus-TCP/source\FreeRTOS_IP.c **** #include "semphr.h"
  36:D:/Work/DeviceTester/amazon-freertos/lib/FreeRTOS-Plus-TCP/source\FreeRTOS_IP.c **** 
  37:D:/Work/DeviceTester/amazon-freertos/lib/FreeRTOS-Plus-TCP/source\FreeRTOS_IP.c **** /* FreeRTOS+TCP includes. */
  38:D:/Work/DeviceTester/amazon-freertos/lib/FreeRTOS-Plus-TCP/source\FreeRTOS_IP.c **** #include "FreeRTOS_IP.h"
  39:D:/Work/DeviceTester/amazon-freertos/lib/FreeRTOS-Plus-TCP/source\FreeRTOS_IP.c **** #include "FreeRTOS_Sockets.h"
  40:D:/Work/DeviceTester/amazon-freertos/lib/FreeRTOS-Plus-TCP/source\FreeRTOS_IP.c **** #include "FreeRTOS_IP_Private.h"
  41:D:/Work/DeviceTester/amazon-freertos/lib/FreeRTOS-Plus-TCP/source\FreeRTOS_IP.c **** #include "FreeRTOS_ARP.h"
  42:D:/Work/DeviceTester/amazon-freertos/lib/FreeRTOS-Plus-TCP/source\FreeRTOS_IP.c **** #include "FreeRTOS_UDP_IP.h"
  43:D:/Work/DeviceTester/amazon-freertos/lib/FreeRTOS-Plus-TCP/source\FreeRTOS_IP.c **** #include "FreeRTOS_TCP_IP.h"
  44:D:/Work/DeviceTester/amazon-freertos/lib/FreeRTOS-Plus-TCP/source\FreeRTOS_IP.c **** #include "FreeRTOS_DHCP.h"
  45:D:/Work/DeviceTester/amazon-freertos/lib/FreeRTOS-Plus-TCP/source\FreeRTOS_IP.c **** #include "NetworkInterface.h"
  46:D:/Work/DeviceTester/amazon-freertos/lib/FreeRTOS-Plus-TCP/source\FreeRTOS_IP.c **** #include "NetworkBufferManagement.h"
  47:D:/Work/DeviceTester/amazon-freertos/lib/FreeRTOS-Plus-TCP/source\FreeRTOS_IP.c **** #include "FreeRTOS_DNS.h"
  48:D:/Work/DeviceTester/amazon-freertos/lib/FreeRTOS-Plus-TCP/source\FreeRTOS_IP.c **** 
  49:D:/Work/DeviceTester/amazon-freertos/lib/FreeRTOS-Plus-TCP/source\FreeRTOS_IP.c **** 
  50:D:/Work/DeviceTester/amazon-freertos/lib/FreeRTOS-Plus-TCP/source\FreeRTOS_IP.c **** /* Used to ensure the structure packing is having the desired effect.  The
  51:D:/Work/DeviceTester/amazon-freertos/lib/FreeRTOS-Plus-TCP/source\FreeRTOS_IP.c **** 'volatile' is used to prevent compiler warnings about comparing a constant with
  52:D:/Work/DeviceTester/amazon-freertos/lib/FreeRTOS-Plus-TCP/source\FreeRTOS_IP.c **** a constant. */
  53:D:/Work/DeviceTester/amazon-freertos/lib/FreeRTOS-Plus-TCP/source\FreeRTOS_IP.c **** #define ipEXPECTED_EthernetHeader_t_SIZE	( ( size_t ) 14 )
  54:D:/Work/DeviceTester/amazon-freertos/lib/FreeRTOS-Plus-TCP/source\FreeRTOS_IP.c **** #define ipEXPECTED_ARPHeader_t_SIZE			( ( size_t ) 28 )
  55:D:/Work/DeviceTester/amazon-freertos/lib/FreeRTOS-Plus-TCP/source\FreeRTOS_IP.c **** #define ipEXPECTED_IPHeader_t_SIZE			( ( size_t ) 20 )
  56:D:/Work/DeviceTester/amazon-freertos/lib/FreeRTOS-Plus-TCP/source\FreeRTOS_IP.c **** #define ipEXPECTED_IGMPHeader__SIZE			( ( size_t ) 8 )
  57:D:/Work/DeviceTester/amazon-freertos/lib/FreeRTOS-Plus-TCP/source\FreeRTOS_IP.c **** #define ipEXPECTED_ICMPHeader_t_SIZE		( ( size_t ) 8 )
  58:D:/Work/DeviceTester/amazon-freertos/lib/FreeRTOS-Plus-TCP/source\FreeRTOS_IP.c **** #define ipEXPECTED_UDPHeader_t_SIZE			( ( size_t ) 8 )
  59:D:/Work/DeviceTester/amazon-freertos/lib/FreeRTOS-Plus-TCP/source\FreeRTOS_IP.c **** #define ipEXPECTED_TCPHeader_t_SIZE			( ( size_t ) 20 )
  60:D:/Work/DeviceTester/amazon-freertos/lib/FreeRTOS-Plus-TCP/source\FreeRTOS_IP.c **** 
  61:D:/Work/DeviceTester/amazon-freertos/lib/FreeRTOS-Plus-TCP/source\FreeRTOS_IP.c **** 
  62:D:/Work/DeviceTester/amazon-freertos/lib/FreeRTOS-Plus-TCP/source\FreeRTOS_IP.c **** /* ICMP protocol definitions. */
  63:D:/Work/DeviceTester/amazon-freertos/lib/FreeRTOS-Plus-TCP/source\FreeRTOS_IP.c **** #define ipICMP_ECHO_REQUEST				( ( uint8_t ) 8 )
  64:D:/Work/DeviceTester/amazon-freertos/lib/FreeRTOS-Plus-TCP/source\FreeRTOS_IP.c **** #define ipICMP_ECHO_REPLY				( ( uint8_t ) 0 )
  65:D:/Work/DeviceTester/amazon-freertos/lib/FreeRTOS-Plus-TCP/source\FreeRTOS_IP.c **** 
  66:D:/Work/DeviceTester/amazon-freertos/lib/FreeRTOS-Plus-TCP/source\FreeRTOS_IP.c **** 
  67:D:/Work/DeviceTester/amazon-freertos/lib/FreeRTOS-Plus-TCP/source\FreeRTOS_IP.c **** /* Time delay between repeated attempts to initialise the network hardware. */
  68:D:/Work/DeviceTester/amazon-freertos/lib/FreeRTOS-Plus-TCP/source\FreeRTOS_IP.c **** #define ipINITIALISATION_RETRY_DELAY	( pdMS_TO_TICKS( 3000 ) )
  69:D:/Work/DeviceTester/amazon-freertos/lib/FreeRTOS-Plus-TCP/source\FreeRTOS_IP.c **** 
  70:D:/Work/DeviceTester/amazon-freertos/lib/FreeRTOS-Plus-TCP/source\FreeRTOS_IP.c **** /* Defines how often the ARP timer callback function is executed.  The time is
  71:D:/Work/DeviceTester/amazon-freertos/lib/FreeRTOS-Plus-TCP/source\FreeRTOS_IP.c **** shorted in the Windows simulator as simulated time is not real time. */
  72:D:/Work/DeviceTester/amazon-freertos/lib/FreeRTOS-Plus-TCP/source\FreeRTOS_IP.c **** #ifndef	ipARP_TIMER_PERIOD_MS
  73:D:/Work/DeviceTester/amazon-freertos/lib/FreeRTOS-Plus-TCP/source\FreeRTOS_IP.c **** 	#ifdef _WINDOWS_
  74:D:/Work/DeviceTester/amazon-freertos/lib/FreeRTOS-Plus-TCP/source\FreeRTOS_IP.c **** 		#define ipARP_TIMER_PERIOD_MS	( 500 ) /* For windows simulator builds. */
  75:D:/Work/DeviceTester/amazon-freertos/lib/FreeRTOS-Plus-TCP/source\FreeRTOS_IP.c **** 	#else
  76:D:/Work/DeviceTester/amazon-freertos/lib/FreeRTOS-Plus-TCP/source\FreeRTOS_IP.c **** 		#define ipARP_TIMER_PERIOD_MS	( 10000 )
  77:D:/Work/DeviceTester/amazon-freertos/lib/FreeRTOS-Plus-TCP/source\FreeRTOS_IP.c **** 	#endif
  78:D:/Work/DeviceTester/amazon-freertos/lib/FreeRTOS-Plus-TCP/source\FreeRTOS_IP.c **** #endif
  79:D:/Work/DeviceTester/amazon-freertos/lib/FreeRTOS-Plus-TCP/source\FreeRTOS_IP.c **** 
  80:D:/Work/DeviceTester/amazon-freertos/lib/FreeRTOS-Plus-TCP/source\FreeRTOS_IP.c **** #ifndef iptraceIP_TASK_STARTING
  81:D:/Work/DeviceTester/amazon-freertos/lib/FreeRTOS-Plus-TCP/source\FreeRTOS_IP.c **** 	#define	iptraceIP_TASK_STARTING()	do {} while( 0 )
  82:D:/Work/DeviceTester/amazon-freertos/lib/FreeRTOS-Plus-TCP/source\FreeRTOS_IP.c **** #endif
  83:D:/Work/DeviceTester/amazon-freertos/lib/FreeRTOS-Plus-TCP/source\FreeRTOS_IP.c **** 
  84:D:/Work/DeviceTester/amazon-freertos/lib/FreeRTOS-Plus-TCP/source\FreeRTOS_IP.c **** #if( ( ipconfigUSE_TCP == 1 ) && !defined( ipTCP_TIMER_PERIOD_MS ) )
  85:D:/Work/DeviceTester/amazon-freertos/lib/FreeRTOS-Plus-TCP/source\FreeRTOS_IP.c **** 	/* When initialising the TCP timer,
  86:D:/Work/DeviceTester/amazon-freertos/lib/FreeRTOS-Plus-TCP/source\FreeRTOS_IP.c **** 	give it an initial time-out of 1 second. */
  87:D:/Work/DeviceTester/amazon-freertos/lib/FreeRTOS-Plus-TCP/source\FreeRTOS_IP.c **** 	#define ipTCP_TIMER_PERIOD_MS	( 1000 )
  88:D:/Work/DeviceTester/amazon-freertos/lib/FreeRTOS-Plus-TCP/source\FreeRTOS_IP.c **** #endif
  89:D:/Work/DeviceTester/amazon-freertos/lib/FreeRTOS-Plus-TCP/source\FreeRTOS_IP.c **** 
  90:D:/Work/DeviceTester/amazon-freertos/lib/FreeRTOS-Plus-TCP/source\FreeRTOS_IP.c **** /* If ipconfigETHERNET_DRIVER_FILTERS_FRAME_TYPES is set to 1, then the Ethernet
  91:D:/Work/DeviceTester/amazon-freertos/lib/FreeRTOS-Plus-TCP/source\FreeRTOS_IP.c **** driver will filter incoming packets and only pass the stack those packets it
  92:D:/Work/DeviceTester/amazon-freertos/lib/FreeRTOS-Plus-TCP/source\FreeRTOS_IP.c **** considers need processing.  In this case ipCONSIDER_FRAME_FOR_PROCESSING() can
  93:D:/Work/DeviceTester/amazon-freertos/lib/FreeRTOS-Plus-TCP/source\FreeRTOS_IP.c **** be #defined away.  If ipconfigETHERNET_DRIVER_FILTERS_FRAME_TYPES is set to 0
  94:D:/Work/DeviceTester/amazon-freertos/lib/FreeRTOS-Plus-TCP/source\FreeRTOS_IP.c **** then the Ethernet driver will pass all received packets to the stack, and the
  95:D:/Work/DeviceTester/amazon-freertos/lib/FreeRTOS-Plus-TCP/source\FreeRTOS_IP.c **** stack must do the filtering itself.  In this case ipCONSIDER_FRAME_FOR_PROCESSING
  96:D:/Work/DeviceTester/amazon-freertos/lib/FreeRTOS-Plus-TCP/source\FreeRTOS_IP.c **** needs to call eConsiderFrameForProcessing. */
  97:D:/Work/DeviceTester/amazon-freertos/lib/FreeRTOS-Plus-TCP/source\FreeRTOS_IP.c **** #if ipconfigETHERNET_DRIVER_FILTERS_FRAME_TYPES == 0
  98:D:/Work/DeviceTester/amazon-freertos/lib/FreeRTOS-Plus-TCP/source\FreeRTOS_IP.c **** 	#define ipCONSIDER_FRAME_FOR_PROCESSING( pucEthernetBuffer ) eConsiderFrameForProcessing( ( pucEth
  99:D:/Work/DeviceTester/amazon-freertos/lib/FreeRTOS-Plus-TCP/source\FreeRTOS_IP.c **** #else
 100:D:/Work/DeviceTester/amazon-freertos/lib/FreeRTOS-Plus-TCP/source\FreeRTOS_IP.c **** 	#define ipCONSIDER_FRAME_FOR_PROCESSING( pucEthernetBuffer ) eProcessBuffer
 101:D:/Work/DeviceTester/amazon-freertos/lib/FreeRTOS-Plus-TCP/source\FreeRTOS_IP.c **** #endif
 102:D:/Work/DeviceTester/amazon-freertos/lib/FreeRTOS-Plus-TCP/source\FreeRTOS_IP.c **** 
 103:D:/Work/DeviceTester/amazon-freertos/lib/FreeRTOS-Plus-TCP/source\FreeRTOS_IP.c **** /* The character used to fill ICMP echo requests, and therefore also the
 104:D:/Work/DeviceTester/amazon-freertos/lib/FreeRTOS-Plus-TCP/source\FreeRTOS_IP.c **** character expected to fill ICMP echo replies. */
 105:D:/Work/DeviceTester/amazon-freertos/lib/FreeRTOS-Plus-TCP/source\FreeRTOS_IP.c **** #define ipECHO_DATA_FILL_BYTE						'x'
 106:D:/Work/DeviceTester/amazon-freertos/lib/FreeRTOS-Plus-TCP/source\FreeRTOS_IP.c **** 
 107:D:/Work/DeviceTester/amazon-freertos/lib/FreeRTOS-Plus-TCP/source\FreeRTOS_IP.c **** #if( ipconfigBYTE_ORDER == pdFREERTOS_LITTLE_ENDIAN )
 108:D:/Work/DeviceTester/amazon-freertos/lib/FreeRTOS-Plus-TCP/source\FreeRTOS_IP.c **** 	/* The bits in the two byte IP header field that make up the fragment offset value. */
 109:D:/Work/DeviceTester/amazon-freertos/lib/FreeRTOS-Plus-TCP/source\FreeRTOS_IP.c **** 	#define ipFRAGMENT_OFFSET_BIT_MASK				( ( uint16_t ) 0xff0f )
 110:D:/Work/DeviceTester/amazon-freertos/lib/FreeRTOS-Plus-TCP/source\FreeRTOS_IP.c **** #else
 111:D:/Work/DeviceTester/amazon-freertos/lib/FreeRTOS-Plus-TCP/source\FreeRTOS_IP.c **** 	/* The bits in the two byte IP header field that make up the fragment offset value. */
 112:D:/Work/DeviceTester/amazon-freertos/lib/FreeRTOS-Plus-TCP/source\FreeRTOS_IP.c **** 	#define ipFRAGMENT_OFFSET_BIT_MASK				( ( uint16_t ) 0x0fff )
 113:D:/Work/DeviceTester/amazon-freertos/lib/FreeRTOS-Plus-TCP/source\FreeRTOS_IP.c **** #endif /* ipconfigBYTE_ORDER */
 114:D:/Work/DeviceTester/amazon-freertos/lib/FreeRTOS-Plus-TCP/source\FreeRTOS_IP.c **** 
 115:D:/Work/DeviceTester/amazon-freertos/lib/FreeRTOS-Plus-TCP/source\FreeRTOS_IP.c **** /* The maximum time the IP task is allowed to remain in the Blocked state if no
 116:D:/Work/DeviceTester/amazon-freertos/lib/FreeRTOS-Plus-TCP/source\FreeRTOS_IP.c **** events are posted to the network event queue. */
 117:D:/Work/DeviceTester/amazon-freertos/lib/FreeRTOS-Plus-TCP/source\FreeRTOS_IP.c **** #ifndef	ipconfigMAX_IP_TASK_SLEEP_TIME
 118:D:/Work/DeviceTester/amazon-freertos/lib/FreeRTOS-Plus-TCP/source\FreeRTOS_IP.c **** 	#define ipconfigMAX_IP_TASK_SLEEP_TIME ( pdMS_TO_TICKS( 10000UL ) )
 119:D:/Work/DeviceTester/amazon-freertos/lib/FreeRTOS-Plus-TCP/source\FreeRTOS_IP.c **** #endif
 120:D:/Work/DeviceTester/amazon-freertos/lib/FreeRTOS-Plus-TCP/source\FreeRTOS_IP.c **** 
 121:D:/Work/DeviceTester/amazon-freertos/lib/FreeRTOS-Plus-TCP/source\FreeRTOS_IP.c **** /* When a new TCP connection is established, the value of
 122:D:/Work/DeviceTester/amazon-freertos/lib/FreeRTOS-Plus-TCP/source\FreeRTOS_IP.c **** 'ulNextInitialSequenceNumber' will be used as the initial sequence number.  It
 123:D:/Work/DeviceTester/amazon-freertos/lib/FreeRTOS-Plus-TCP/source\FreeRTOS_IP.c **** is very important that at start-up, 'ulNextInitialSequenceNumber' contains a
 124:D:/Work/DeviceTester/amazon-freertos/lib/FreeRTOS-Plus-TCP/source\FreeRTOS_IP.c **** random value.  Also its value must be increased continuously in time, to prevent
 125:D:/Work/DeviceTester/amazon-freertos/lib/FreeRTOS-Plus-TCP/source\FreeRTOS_IP.c **** a third party guessing the next sequence number and take-over a TCP connection.
 126:D:/Work/DeviceTester/amazon-freertos/lib/FreeRTOS-Plus-TCP/source\FreeRTOS_IP.c **** It is advised to increment it by 1 ever 4us, which makes about 256 times
 127:D:/Work/DeviceTester/amazon-freertos/lib/FreeRTOS-Plus-TCP/source\FreeRTOS_IP.c **** per ms: */
 128:D:/Work/DeviceTester/amazon-freertos/lib/FreeRTOS-Plus-TCP/source\FreeRTOS_IP.c **** #define ipINITIAL_SEQUENCE_NUMBER_FACTOR	256UL
 129:D:/Work/DeviceTester/amazon-freertos/lib/FreeRTOS-Plus-TCP/source\FreeRTOS_IP.c **** 
 130:D:/Work/DeviceTester/amazon-freertos/lib/FreeRTOS-Plus-TCP/source\FreeRTOS_IP.c **** /* Returned as the (invalid) checksum when the protocol being checked is not
 131:D:/Work/DeviceTester/amazon-freertos/lib/FreeRTOS-Plus-TCP/source\FreeRTOS_IP.c **** handled.  The value is chosen simply to be easy to spot when debugging. */
 132:D:/Work/DeviceTester/amazon-freertos/lib/FreeRTOS-Plus-TCP/source\FreeRTOS_IP.c **** #define ipUNHANDLED_PROTOCOL		0x4321u
 133:D:/Work/DeviceTester/amazon-freertos/lib/FreeRTOS-Plus-TCP/source\FreeRTOS_IP.c **** 
 134:D:/Work/DeviceTester/amazon-freertos/lib/FreeRTOS-Plus-TCP/source\FreeRTOS_IP.c **** /* Returned to indicate a valid checksum when the checksum does not need to be
 135:D:/Work/DeviceTester/amazon-freertos/lib/FreeRTOS-Plus-TCP/source\FreeRTOS_IP.c **** calculated. */
 136:D:/Work/DeviceTester/amazon-freertos/lib/FreeRTOS-Plus-TCP/source\FreeRTOS_IP.c **** #define ipCORRECT_CRC				0xffffu
 137:D:/Work/DeviceTester/amazon-freertos/lib/FreeRTOS-Plus-TCP/source\FreeRTOS_IP.c **** 
 138:D:/Work/DeviceTester/amazon-freertos/lib/FreeRTOS-Plus-TCP/source\FreeRTOS_IP.c **** /* Returned as the (invalid) checksum when the length of the data being checked
 139:D:/Work/DeviceTester/amazon-freertos/lib/FreeRTOS-Plus-TCP/source\FreeRTOS_IP.c **** had an invalid length. */
 140:D:/Work/DeviceTester/amazon-freertos/lib/FreeRTOS-Plus-TCP/source\FreeRTOS_IP.c **** #define ipINVALID_LENGTH			0x1234u
 141:D:/Work/DeviceTester/amazon-freertos/lib/FreeRTOS-Plus-TCP/source\FreeRTOS_IP.c **** 
 142:D:/Work/DeviceTester/amazon-freertos/lib/FreeRTOS-Plus-TCP/source\FreeRTOS_IP.c **** /*-----------------------------------------------------------*/
 143:D:/Work/DeviceTester/amazon-freertos/lib/FreeRTOS-Plus-TCP/source\FreeRTOS_IP.c **** 
 144:D:/Work/DeviceTester/amazon-freertos/lib/FreeRTOS-Plus-TCP/source\FreeRTOS_IP.c **** typedef struct xIP_TIMER
 145:D:/Work/DeviceTester/amazon-freertos/lib/FreeRTOS-Plus-TCP/source\FreeRTOS_IP.c **** {
 146:D:/Work/DeviceTester/amazon-freertos/lib/FreeRTOS-Plus-TCP/source\FreeRTOS_IP.c **** 	uint32_t
 147:D:/Work/DeviceTester/amazon-freertos/lib/FreeRTOS-Plus-TCP/source\FreeRTOS_IP.c **** 		bActive : 1,	/* This timer is running and must be processed. */
 148:D:/Work/DeviceTester/amazon-freertos/lib/FreeRTOS-Plus-TCP/source\FreeRTOS_IP.c **** 		bExpired : 1;	/* Timer has expired and a task must be processed. */
 149:D:/Work/DeviceTester/amazon-freertos/lib/FreeRTOS-Plus-TCP/source\FreeRTOS_IP.c **** 	TimeOut_t xTimeOut;
 150:D:/Work/DeviceTester/amazon-freertos/lib/FreeRTOS-Plus-TCP/source\FreeRTOS_IP.c **** 	TickType_t ulRemainingTime;
 151:D:/Work/DeviceTester/amazon-freertos/lib/FreeRTOS-Plus-TCP/source\FreeRTOS_IP.c **** 	TickType_t ulReloadTime;
 152:D:/Work/DeviceTester/amazon-freertos/lib/FreeRTOS-Plus-TCP/source\FreeRTOS_IP.c **** } IPTimer_t;
 153:D:/Work/DeviceTester/amazon-freertos/lib/FreeRTOS-Plus-TCP/source\FreeRTOS_IP.c **** 
 154:D:/Work/DeviceTester/amazon-freertos/lib/FreeRTOS-Plus-TCP/source\FreeRTOS_IP.c **** /* Used in checksum calculation. */
 155:D:/Work/DeviceTester/amazon-freertos/lib/FreeRTOS-Plus-TCP/source\FreeRTOS_IP.c **** typedef union _xUnion32
 156:D:/Work/DeviceTester/amazon-freertos/lib/FreeRTOS-Plus-TCP/source\FreeRTOS_IP.c **** {
 157:D:/Work/DeviceTester/amazon-freertos/lib/FreeRTOS-Plus-TCP/source\FreeRTOS_IP.c **** 	uint32_t u32;
 158:D:/Work/DeviceTester/amazon-freertos/lib/FreeRTOS-Plus-TCP/source\FreeRTOS_IP.c **** 	uint16_t u16[ 2 ];
 159:D:/Work/DeviceTester/amazon-freertos/lib/FreeRTOS-Plus-TCP/source\FreeRTOS_IP.c **** 	uint8_t u8[ 4 ];
 160:D:/Work/DeviceTester/amazon-freertos/lib/FreeRTOS-Plus-TCP/source\FreeRTOS_IP.c **** } xUnion32;
 161:D:/Work/DeviceTester/amazon-freertos/lib/FreeRTOS-Plus-TCP/source\FreeRTOS_IP.c **** 
 162:D:/Work/DeviceTester/amazon-freertos/lib/FreeRTOS-Plus-TCP/source\FreeRTOS_IP.c **** /* Used in checksum calculation. */
 163:D:/Work/DeviceTester/amazon-freertos/lib/FreeRTOS-Plus-TCP/source\FreeRTOS_IP.c **** typedef union _xUnionPtr
 164:D:/Work/DeviceTester/amazon-freertos/lib/FreeRTOS-Plus-TCP/source\FreeRTOS_IP.c **** {
 165:D:/Work/DeviceTester/amazon-freertos/lib/FreeRTOS-Plus-TCP/source\FreeRTOS_IP.c **** 	uint32_t *u32ptr;
 166:D:/Work/DeviceTester/amazon-freertos/lib/FreeRTOS-Plus-TCP/source\FreeRTOS_IP.c **** 	uint16_t *u16ptr;
 167:D:/Work/DeviceTester/amazon-freertos/lib/FreeRTOS-Plus-TCP/source\FreeRTOS_IP.c **** 	uint8_t *u8ptr;
 168:D:/Work/DeviceTester/amazon-freertos/lib/FreeRTOS-Plus-TCP/source\FreeRTOS_IP.c **** } xUnionPtr;
 169:D:/Work/DeviceTester/amazon-freertos/lib/FreeRTOS-Plus-TCP/source\FreeRTOS_IP.c **** 
 170:D:/Work/DeviceTester/amazon-freertos/lib/FreeRTOS-Plus-TCP/source\FreeRTOS_IP.c **** /*-----------------------------------------------------------*/
 171:D:/Work/DeviceTester/amazon-freertos/lib/FreeRTOS-Plus-TCP/source\FreeRTOS_IP.c **** 
 172:D:/Work/DeviceTester/amazon-freertos/lib/FreeRTOS-Plus-TCP/source\FreeRTOS_IP.c **** /*
 173:D:/Work/DeviceTester/amazon-freertos/lib/FreeRTOS-Plus-TCP/source\FreeRTOS_IP.c ****  * The main TCP/IP stack processing task.  This task receives commands/events
 174:D:/Work/DeviceTester/amazon-freertos/lib/FreeRTOS-Plus-TCP/source\FreeRTOS_IP.c ****  * from the network hardware drivers and tasks that are using sockets.  It also
 175:D:/Work/DeviceTester/amazon-freertos/lib/FreeRTOS-Plus-TCP/source\FreeRTOS_IP.c ****  * maintains a set of protocol timers.
 176:D:/Work/DeviceTester/amazon-freertos/lib/FreeRTOS-Plus-TCP/source\FreeRTOS_IP.c ****  */
 177:D:/Work/DeviceTester/amazon-freertos/lib/FreeRTOS-Plus-TCP/source\FreeRTOS_IP.c **** static void prvIPTask( void *pvParameters );
 178:D:/Work/DeviceTester/amazon-freertos/lib/FreeRTOS-Plus-TCP/source\FreeRTOS_IP.c **** 
 179:D:/Work/DeviceTester/amazon-freertos/lib/FreeRTOS-Plus-TCP/source\FreeRTOS_IP.c **** /*
 180:D:/Work/DeviceTester/amazon-freertos/lib/FreeRTOS-Plus-TCP/source\FreeRTOS_IP.c ****  * Called when new data is available from the network interface.
 181:D:/Work/DeviceTester/amazon-freertos/lib/FreeRTOS-Plus-TCP/source\FreeRTOS_IP.c ****  */
 182:D:/Work/DeviceTester/amazon-freertos/lib/FreeRTOS-Plus-TCP/source\FreeRTOS_IP.c **** static void prvProcessEthernetPacket( NetworkBufferDescriptor_t * const pxNetworkBuffer );
 183:D:/Work/DeviceTester/amazon-freertos/lib/FreeRTOS-Plus-TCP/source\FreeRTOS_IP.c **** 
 184:D:/Work/DeviceTester/amazon-freertos/lib/FreeRTOS-Plus-TCP/source\FreeRTOS_IP.c **** /*
 185:D:/Work/DeviceTester/amazon-freertos/lib/FreeRTOS-Plus-TCP/source\FreeRTOS_IP.c ****  * Process incoming IP packets.
 186:D:/Work/DeviceTester/amazon-freertos/lib/FreeRTOS-Plus-TCP/source\FreeRTOS_IP.c ****  */
 187:D:/Work/DeviceTester/amazon-freertos/lib/FreeRTOS-Plus-TCP/source\FreeRTOS_IP.c **** static eFrameProcessingResult_t prvProcessIPPacket( IPPacket_t * const pxIPPacket, NetworkBufferDes
 188:D:/Work/DeviceTester/amazon-freertos/lib/FreeRTOS-Plus-TCP/source\FreeRTOS_IP.c **** 
 189:D:/Work/DeviceTester/amazon-freertos/lib/FreeRTOS-Plus-TCP/source\FreeRTOS_IP.c **** #if ( ipconfigREPLY_TO_INCOMING_PINGS == 1 ) || ( ipconfigSUPPORT_OUTGOING_PINGS == 1 )
 190:D:/Work/DeviceTester/amazon-freertos/lib/FreeRTOS-Plus-TCP/source\FreeRTOS_IP.c **** 	/*
 191:D:/Work/DeviceTester/amazon-freertos/lib/FreeRTOS-Plus-TCP/source\FreeRTOS_IP.c **** 	 * Process incoming ICMP packets.
 192:D:/Work/DeviceTester/amazon-freertos/lib/FreeRTOS-Plus-TCP/source\FreeRTOS_IP.c **** 	 */
 193:D:/Work/DeviceTester/amazon-freertos/lib/FreeRTOS-Plus-TCP/source\FreeRTOS_IP.c **** 	static eFrameProcessingResult_t prvProcessICMPPacket( ICMPPacket_t * const pxICMPPacket );
 194:D:/Work/DeviceTester/amazon-freertos/lib/FreeRTOS-Plus-TCP/source\FreeRTOS_IP.c **** #endif /* ( ipconfigREPLY_TO_INCOMING_PINGS == 1 ) || ( ipconfigSUPPORT_OUTGOING_PINGS == 1 ) */
 195:D:/Work/DeviceTester/amazon-freertos/lib/FreeRTOS-Plus-TCP/source\FreeRTOS_IP.c **** 
 196:D:/Work/DeviceTester/amazon-freertos/lib/FreeRTOS-Plus-TCP/source\FreeRTOS_IP.c **** /*
 197:D:/Work/DeviceTester/amazon-freertos/lib/FreeRTOS-Plus-TCP/source\FreeRTOS_IP.c ****  * Turns around an incoming ping request to convert it into a ping reply.
 198:D:/Work/DeviceTester/amazon-freertos/lib/FreeRTOS-Plus-TCP/source\FreeRTOS_IP.c ****  */
 199:D:/Work/DeviceTester/amazon-freertos/lib/FreeRTOS-Plus-TCP/source\FreeRTOS_IP.c **** #if ( ipconfigREPLY_TO_INCOMING_PINGS == 1 )
 200:D:/Work/DeviceTester/amazon-freertos/lib/FreeRTOS-Plus-TCP/source\FreeRTOS_IP.c **** 	static eFrameProcessingResult_t prvProcessICMPEchoRequest( ICMPPacket_t * const pxICMPPacket );
 201:D:/Work/DeviceTester/amazon-freertos/lib/FreeRTOS-Plus-TCP/source\FreeRTOS_IP.c **** #endif /* ipconfigREPLY_TO_INCOMING_PINGS */
 202:D:/Work/DeviceTester/amazon-freertos/lib/FreeRTOS-Plus-TCP/source\FreeRTOS_IP.c **** 
 203:D:/Work/DeviceTester/amazon-freertos/lib/FreeRTOS-Plus-TCP/source\FreeRTOS_IP.c **** /*
 204:D:/Work/DeviceTester/amazon-freertos/lib/FreeRTOS-Plus-TCP/source\FreeRTOS_IP.c ****  * Processes incoming ping replies.  The application callback function
 205:D:/Work/DeviceTester/amazon-freertos/lib/FreeRTOS-Plus-TCP/source\FreeRTOS_IP.c ****  * vApplicationPingReplyHook() is called with the results.
 206:D:/Work/DeviceTester/amazon-freertos/lib/FreeRTOS-Plus-TCP/source\FreeRTOS_IP.c ****  */
 207:D:/Work/DeviceTester/amazon-freertos/lib/FreeRTOS-Plus-TCP/source\FreeRTOS_IP.c **** #if ( ipconfigSUPPORT_OUTGOING_PINGS == 1 )
 208:D:/Work/DeviceTester/amazon-freertos/lib/FreeRTOS-Plus-TCP/source\FreeRTOS_IP.c **** 	static void prvProcessICMPEchoReply( ICMPPacket_t * const pxICMPPacket );
 209:D:/Work/DeviceTester/amazon-freertos/lib/FreeRTOS-Plus-TCP/source\FreeRTOS_IP.c **** #endif /* ipconfigSUPPORT_OUTGOING_PINGS */
 210:D:/Work/DeviceTester/amazon-freertos/lib/FreeRTOS-Plus-TCP/source\FreeRTOS_IP.c **** 
 211:D:/Work/DeviceTester/amazon-freertos/lib/FreeRTOS-Plus-TCP/source\FreeRTOS_IP.c **** /*
 212:D:/Work/DeviceTester/amazon-freertos/lib/FreeRTOS-Plus-TCP/source\FreeRTOS_IP.c ****  * Called to create a network connection when the stack is first started, or
 213:D:/Work/DeviceTester/amazon-freertos/lib/FreeRTOS-Plus-TCP/source\FreeRTOS_IP.c ****  * when the network connection is lost.
 214:D:/Work/DeviceTester/amazon-freertos/lib/FreeRTOS-Plus-TCP/source\FreeRTOS_IP.c ****  */
 215:D:/Work/DeviceTester/amazon-freertos/lib/FreeRTOS-Plus-TCP/source\FreeRTOS_IP.c **** static void prvProcessNetworkDownEvent( void );
 216:D:/Work/DeviceTester/amazon-freertos/lib/FreeRTOS-Plus-TCP/source\FreeRTOS_IP.c **** 
 217:D:/Work/DeviceTester/amazon-freertos/lib/FreeRTOS-Plus-TCP/source\FreeRTOS_IP.c **** /*
 218:D:/Work/DeviceTester/amazon-freertos/lib/FreeRTOS-Plus-TCP/source\FreeRTOS_IP.c ****  * Checks the ARP, DHCP and TCP timers to see if any periodic or timeout
 219:D:/Work/DeviceTester/amazon-freertos/lib/FreeRTOS-Plus-TCP/source\FreeRTOS_IP.c ****  * processing is required.
 220:D:/Work/DeviceTester/amazon-freertos/lib/FreeRTOS-Plus-TCP/source\FreeRTOS_IP.c ****  */
 221:D:/Work/DeviceTester/amazon-freertos/lib/FreeRTOS-Plus-TCP/source\FreeRTOS_IP.c **** static void prvCheckNetworkTimers( void );
 222:D:/Work/DeviceTester/amazon-freertos/lib/FreeRTOS-Plus-TCP/source\FreeRTOS_IP.c **** 
 223:D:/Work/DeviceTester/amazon-freertos/lib/FreeRTOS-Plus-TCP/source\FreeRTOS_IP.c **** /*
 224:D:/Work/DeviceTester/amazon-freertos/lib/FreeRTOS-Plus-TCP/source\FreeRTOS_IP.c ****  * Determine how long the IP task can sleep for, which depends on when the next
 225:D:/Work/DeviceTester/amazon-freertos/lib/FreeRTOS-Plus-TCP/source\FreeRTOS_IP.c ****  * periodic or timeout processing must be performed.
 226:D:/Work/DeviceTester/amazon-freertos/lib/FreeRTOS-Plus-TCP/source\FreeRTOS_IP.c ****  */
 227:D:/Work/DeviceTester/amazon-freertos/lib/FreeRTOS-Plus-TCP/source\FreeRTOS_IP.c **** static TickType_t prvCalculateSleepTime( void );
 228:D:/Work/DeviceTester/amazon-freertos/lib/FreeRTOS-Plus-TCP/source\FreeRTOS_IP.c **** 
 229:D:/Work/DeviceTester/amazon-freertos/lib/FreeRTOS-Plus-TCP/source\FreeRTOS_IP.c **** /*
 230:D:/Work/DeviceTester/amazon-freertos/lib/FreeRTOS-Plus-TCP/source\FreeRTOS_IP.c ****  * The network card driver has received a packet.  In the case that it is part
 231:D:/Work/DeviceTester/amazon-freertos/lib/FreeRTOS-Plus-TCP/source\FreeRTOS_IP.c ****  * of a linked packet chain, walk through it to handle every message.
 232:D:/Work/DeviceTester/amazon-freertos/lib/FreeRTOS-Plus-TCP/source\FreeRTOS_IP.c ****  */
 233:D:/Work/DeviceTester/amazon-freertos/lib/FreeRTOS-Plus-TCP/source\FreeRTOS_IP.c **** static void prvHandleEthernetPacket( NetworkBufferDescriptor_t *pxBuffer );
 234:D:/Work/DeviceTester/amazon-freertos/lib/FreeRTOS-Plus-TCP/source\FreeRTOS_IP.c **** 
 235:D:/Work/DeviceTester/amazon-freertos/lib/FreeRTOS-Plus-TCP/source\FreeRTOS_IP.c **** /*
 236:D:/Work/DeviceTester/amazon-freertos/lib/FreeRTOS-Plus-TCP/source\FreeRTOS_IP.c ****  * Utility functions for the light weight IP timers.
 237:D:/Work/DeviceTester/amazon-freertos/lib/FreeRTOS-Plus-TCP/source\FreeRTOS_IP.c ****  */
 238:D:/Work/DeviceTester/amazon-freertos/lib/FreeRTOS-Plus-TCP/source\FreeRTOS_IP.c **** static void prvIPTimerStart( IPTimer_t *pxTimer, TickType_t xTime );
 239:D:/Work/DeviceTester/amazon-freertos/lib/FreeRTOS-Plus-TCP/source\FreeRTOS_IP.c **** static BaseType_t prvIPTimerCheck( IPTimer_t *pxTimer );
 240:D:/Work/DeviceTester/amazon-freertos/lib/FreeRTOS-Plus-TCP/source\FreeRTOS_IP.c **** static void prvIPTimerReload( IPTimer_t *pxTimer, TickType_t xTime );
 241:D:/Work/DeviceTester/amazon-freertos/lib/FreeRTOS-Plus-TCP/source\FreeRTOS_IP.c **** 
 242:D:/Work/DeviceTester/amazon-freertos/lib/FreeRTOS-Plus-TCP/source\FreeRTOS_IP.c **** static eFrameProcessingResult_t prvAllowIPPacket( const IPPacket_t * const pxIPPacket,
 243:D:/Work/DeviceTester/amazon-freertos/lib/FreeRTOS-Plus-TCP/source\FreeRTOS_IP.c **** 	NetworkBufferDescriptor_t * const pxNetworkBuffer, UBaseType_t uxHeaderLength );
 244:D:/Work/DeviceTester/amazon-freertos/lib/FreeRTOS-Plus-TCP/source\FreeRTOS_IP.c **** 
 245:D:/Work/DeviceTester/amazon-freertos/lib/FreeRTOS-Plus-TCP/source\FreeRTOS_IP.c **** /*-----------------------------------------------------------*/
 246:D:/Work/DeviceTester/amazon-freertos/lib/FreeRTOS-Plus-TCP/source\FreeRTOS_IP.c **** 
 247:D:/Work/DeviceTester/amazon-freertos/lib/FreeRTOS-Plus-TCP/source\FreeRTOS_IP.c **** /* The queue used to pass events into the IP-task for processing. */
 248:D:/Work/DeviceTester/amazon-freertos/lib/FreeRTOS-Plus-TCP/source\FreeRTOS_IP.c **** QueueHandle_t xNetworkEventQueue = NULL;
 249:D:/Work/DeviceTester/amazon-freertos/lib/FreeRTOS-Plus-TCP/source\FreeRTOS_IP.c **** 
 250:D:/Work/DeviceTester/amazon-freertos/lib/FreeRTOS-Plus-TCP/source\FreeRTOS_IP.c **** /*_RB_ Requires comment. */
 251:D:/Work/DeviceTester/amazon-freertos/lib/FreeRTOS-Plus-TCP/source\FreeRTOS_IP.c **** uint16_t usPacketIdentifier = 0U;
 252:D:/Work/DeviceTester/amazon-freertos/lib/FreeRTOS-Plus-TCP/source\FreeRTOS_IP.c **** 
 253:D:/Work/DeviceTester/amazon-freertos/lib/FreeRTOS-Plus-TCP/source\FreeRTOS_IP.c **** /* For convenience, a MAC address of all 0xffs is defined const for quick
 254:D:/Work/DeviceTester/amazon-freertos/lib/FreeRTOS-Plus-TCP/source\FreeRTOS_IP.c **** reference. */
 255:D:/Work/DeviceTester/amazon-freertos/lib/FreeRTOS-Plus-TCP/source\FreeRTOS_IP.c **** const MACAddress_t xBroadcastMACAddress = { { 0xff, 0xff, 0xff, 0xff, 0xff, 0xff } };
 256:D:/Work/DeviceTester/amazon-freertos/lib/FreeRTOS-Plus-TCP/source\FreeRTOS_IP.c **** 
 257:D:/Work/DeviceTester/amazon-freertos/lib/FreeRTOS-Plus-TCP/source\FreeRTOS_IP.c **** /* Structure that stores the netmask, gateway address and DNS server addresses. */
 258:D:/Work/DeviceTester/amazon-freertos/lib/FreeRTOS-Plus-TCP/source\FreeRTOS_IP.c **** NetworkAddressingParameters_t xNetworkAddressing = { 0, 0, 0, 0, 0 };
 259:D:/Work/DeviceTester/amazon-freertos/lib/FreeRTOS-Plus-TCP/source\FreeRTOS_IP.c **** 
 260:D:/Work/DeviceTester/amazon-freertos/lib/FreeRTOS-Plus-TCP/source\FreeRTOS_IP.c **** /* Default values for the above struct in case DHCP
 261:D:/Work/DeviceTester/amazon-freertos/lib/FreeRTOS-Plus-TCP/source\FreeRTOS_IP.c **** does not lead to a confirmed request. */
 262:D:/Work/DeviceTester/amazon-freertos/lib/FreeRTOS-Plus-TCP/source\FreeRTOS_IP.c **** NetworkAddressingParameters_t xDefaultAddressing = { 0, 0, 0, 0, 0 };
 263:D:/Work/DeviceTester/amazon-freertos/lib/FreeRTOS-Plus-TCP/source\FreeRTOS_IP.c **** 
 264:D:/Work/DeviceTester/amazon-freertos/lib/FreeRTOS-Plus-TCP/source\FreeRTOS_IP.c **** /* Used to ensure network down events cannot be missed when they cannot be
 265:D:/Work/DeviceTester/amazon-freertos/lib/FreeRTOS-Plus-TCP/source\FreeRTOS_IP.c **** posted to the network event queue because the network event queue is already
 266:D:/Work/DeviceTester/amazon-freertos/lib/FreeRTOS-Plus-TCP/source\FreeRTOS_IP.c **** full. */
 267:D:/Work/DeviceTester/amazon-freertos/lib/FreeRTOS-Plus-TCP/source\FreeRTOS_IP.c **** static BaseType_t xNetworkDownEventPending = pdFALSE;
 268:D:/Work/DeviceTester/amazon-freertos/lib/FreeRTOS-Plus-TCP/source\FreeRTOS_IP.c **** 
 269:D:/Work/DeviceTester/amazon-freertos/lib/FreeRTOS-Plus-TCP/source\FreeRTOS_IP.c **** /* Stores the handle of the task that handles the stack.  The handle is used
 270:D:/Work/DeviceTester/amazon-freertos/lib/FreeRTOS-Plus-TCP/source\FreeRTOS_IP.c **** (indirectly) by some utility function to determine if the utility function is
 271:D:/Work/DeviceTester/amazon-freertos/lib/FreeRTOS-Plus-TCP/source\FreeRTOS_IP.c **** being called by a task (in which case it is ok to block) or by the IP task
 272:D:/Work/DeviceTester/amazon-freertos/lib/FreeRTOS-Plus-TCP/source\FreeRTOS_IP.c **** itself (in which case it is not ok to block). */
 273:D:/Work/DeviceTester/amazon-freertos/lib/FreeRTOS-Plus-TCP/source\FreeRTOS_IP.c **** static TaskHandle_t xIPTaskHandle = NULL;
 274:D:/Work/DeviceTester/amazon-freertos/lib/FreeRTOS-Plus-TCP/source\FreeRTOS_IP.c **** 
 275:D:/Work/DeviceTester/amazon-freertos/lib/FreeRTOS-Plus-TCP/source\FreeRTOS_IP.c **** #if( ipconfigUSE_TCP != 0 )
 276:D:/Work/DeviceTester/amazon-freertos/lib/FreeRTOS-Plus-TCP/source\FreeRTOS_IP.c **** 	/* Set to a non-zero value if one or more TCP message have been processed
 277:D:/Work/DeviceTester/amazon-freertos/lib/FreeRTOS-Plus-TCP/source\FreeRTOS_IP.c **** 	within the last round. */
 278:D:/Work/DeviceTester/amazon-freertos/lib/FreeRTOS-Plus-TCP/source\FreeRTOS_IP.c **** 	static BaseType_t xProcessedTCPMessage;
 279:D:/Work/DeviceTester/amazon-freertos/lib/FreeRTOS-Plus-TCP/source\FreeRTOS_IP.c **** #endif
 280:D:/Work/DeviceTester/amazon-freertos/lib/FreeRTOS-Plus-TCP/source\FreeRTOS_IP.c **** 
 281:D:/Work/DeviceTester/amazon-freertos/lib/FreeRTOS-Plus-TCP/source\FreeRTOS_IP.c **** /* Simple set to pdTRUE or pdFALSE depending on whether the network is up or
 282:D:/Work/DeviceTester/amazon-freertos/lib/FreeRTOS-Plus-TCP/source\FreeRTOS_IP.c **** down (connected, not connected) respectively. */
 283:D:/Work/DeviceTester/amazon-freertos/lib/FreeRTOS-Plus-TCP/source\FreeRTOS_IP.c **** static BaseType_t xNetworkUp = pdFALSE;
 284:D:/Work/DeviceTester/amazon-freertos/lib/FreeRTOS-Plus-TCP/source\FreeRTOS_IP.c **** 
 285:D:/Work/DeviceTester/amazon-freertos/lib/FreeRTOS-Plus-TCP/source\FreeRTOS_IP.c **** /*
 286:D:/Work/DeviceTester/amazon-freertos/lib/FreeRTOS-Plus-TCP/source\FreeRTOS_IP.c **** A timer for each of the following processes, all of which need attention on a
 287:D:/Work/DeviceTester/amazon-freertos/lib/FreeRTOS-Plus-TCP/source\FreeRTOS_IP.c **** regular basis:
 288:D:/Work/DeviceTester/amazon-freertos/lib/FreeRTOS-Plus-TCP/source\FreeRTOS_IP.c **** 	1. ARP, to check its table entries
 289:D:/Work/DeviceTester/amazon-freertos/lib/FreeRTOS-Plus-TCP/source\FreeRTOS_IP.c **** 	2. DPHC, to send requests and to renew a reservation
 290:D:/Work/DeviceTester/amazon-freertos/lib/FreeRTOS-Plus-TCP/source\FreeRTOS_IP.c **** 	3. TCP, to check for timeouts, resends
 291:D:/Work/DeviceTester/amazon-freertos/lib/FreeRTOS-Plus-TCP/source\FreeRTOS_IP.c **** 	4. DNS, to check for timeouts when looking-up a domain.
 292:D:/Work/DeviceTester/amazon-freertos/lib/FreeRTOS-Plus-TCP/source\FreeRTOS_IP.c ****  */
 293:D:/Work/DeviceTester/amazon-freertos/lib/FreeRTOS-Plus-TCP/source\FreeRTOS_IP.c **** static IPTimer_t xARPTimer;
 294:D:/Work/DeviceTester/amazon-freertos/lib/FreeRTOS-Plus-TCP/source\FreeRTOS_IP.c **** #if( ipconfigUSE_DHCP != 0 )
 295:D:/Work/DeviceTester/amazon-freertos/lib/FreeRTOS-Plus-TCP/source\FreeRTOS_IP.c **** 	static IPTimer_t xDHCPTimer;
 296:D:/Work/DeviceTester/amazon-freertos/lib/FreeRTOS-Plus-TCP/source\FreeRTOS_IP.c **** #endif
 297:D:/Work/DeviceTester/amazon-freertos/lib/FreeRTOS-Plus-TCP/source\FreeRTOS_IP.c **** #if( ipconfigUSE_TCP != 0 )
 298:D:/Work/DeviceTester/amazon-freertos/lib/FreeRTOS-Plus-TCP/source\FreeRTOS_IP.c **** 	static IPTimer_t xTCPTimer;
 299:D:/Work/DeviceTester/amazon-freertos/lib/FreeRTOS-Plus-TCP/source\FreeRTOS_IP.c **** #endif
 300:D:/Work/DeviceTester/amazon-freertos/lib/FreeRTOS-Plus-TCP/source\FreeRTOS_IP.c **** #if( ipconfigDNS_USE_CALLBACKS != 0 )
 301:D:/Work/DeviceTester/amazon-freertos/lib/FreeRTOS-Plus-TCP/source\FreeRTOS_IP.c **** 	static IPTimer_t xDNSTimer;
 302:D:/Work/DeviceTester/amazon-freertos/lib/FreeRTOS-Plus-TCP/source\FreeRTOS_IP.c **** #endif
 303:D:/Work/DeviceTester/amazon-freertos/lib/FreeRTOS-Plus-TCP/source\FreeRTOS_IP.c **** 
 304:D:/Work/DeviceTester/amazon-freertos/lib/FreeRTOS-Plus-TCP/source\FreeRTOS_IP.c **** /* Set to pdTRUE when the IP task is ready to start processing packets. */
 305:D:/Work/DeviceTester/amazon-freertos/lib/FreeRTOS-Plus-TCP/source\FreeRTOS_IP.c **** static BaseType_t xIPTaskInitialised = pdFALSE;
 306:D:/Work/DeviceTester/amazon-freertos/lib/FreeRTOS-Plus-TCP/source\FreeRTOS_IP.c **** 
 307:D:/Work/DeviceTester/amazon-freertos/lib/FreeRTOS-Plus-TCP/source\FreeRTOS_IP.c **** #if( ipconfigCHECK_IP_QUEUE_SPACE != 0 )
 308:D:/Work/DeviceTester/amazon-freertos/lib/FreeRTOS-Plus-TCP/source\FreeRTOS_IP.c **** 	/* Keep track of the lowest amount of space in 'xNetworkEventQueue'. */
 309:D:/Work/DeviceTester/amazon-freertos/lib/FreeRTOS-Plus-TCP/source\FreeRTOS_IP.c **** 	static UBaseType_t uxQueueMinimumSpace = ipconfigEVENT_QUEUE_LENGTH;
 310:D:/Work/DeviceTester/amazon-freertos/lib/FreeRTOS-Plus-TCP/source\FreeRTOS_IP.c **** #endif
 311:D:/Work/DeviceTester/amazon-freertos/lib/FreeRTOS-Plus-TCP/source\FreeRTOS_IP.c **** 
 312:D:/Work/DeviceTester/amazon-freertos/lib/FreeRTOS-Plus-TCP/source\FreeRTOS_IP.c **** /*-----------------------------------------------------------*/
 313:D:/Work/DeviceTester/amazon-freertos/lib/FreeRTOS-Plus-TCP/source\FreeRTOS_IP.c **** 
 314:D:/Work/DeviceTester/amazon-freertos/lib/FreeRTOS-Plus-TCP/source\FreeRTOS_IP.c **** static void prvIPTask( void *pvParameters )
 315:D:/Work/DeviceTester/amazon-freertos/lib/FreeRTOS-Plus-TCP/source\FreeRTOS_IP.c **** {
 316:D:/Work/DeviceTester/amazon-freertos/lib/FreeRTOS-Plus-TCP/source\FreeRTOS_IP.c **** IPStackEvent_t xReceivedEvent;
 317:D:/Work/DeviceTester/amazon-freertos/lib/FreeRTOS-Plus-TCP/source\FreeRTOS_IP.c **** TickType_t xNextIPSleep;
 318:D:/Work/DeviceTester/amazon-freertos/lib/FreeRTOS-Plus-TCP/source\FreeRTOS_IP.c **** FreeRTOS_Socket_t *pxSocket;
 319:D:/Work/DeviceTester/amazon-freertos/lib/FreeRTOS-Plus-TCP/source\FreeRTOS_IP.c **** struct freertos_sockaddr xAddress;
 320:D:/Work/DeviceTester/amazon-freertos/lib/FreeRTOS-Plus-TCP/source\FreeRTOS_IP.c **** 
 321:D:/Work/DeviceTester/amazon-freertos/lib/FreeRTOS-Plus-TCP/source\FreeRTOS_IP.c **** 	/* Just to prevent compiler warnings about unused parameters. */
 322:D:/Work/DeviceTester/amazon-freertos/lib/FreeRTOS-Plus-TCP/source\FreeRTOS_IP.c **** 	( void ) pvParameters;
 323:D:/Work/DeviceTester/amazon-freertos/lib/FreeRTOS-Plus-TCP/source\FreeRTOS_IP.c **** 
 324:D:/Work/DeviceTester/amazon-freertos/lib/FreeRTOS-Plus-TCP/source\FreeRTOS_IP.c **** 	/* A possibility to set some additional task properties. */
 325:D:/Work/DeviceTester/amazon-freertos/lib/FreeRTOS-Plus-TCP/source\FreeRTOS_IP.c **** 	iptraceIP_TASK_STARTING();
 326:D:/Work/DeviceTester/amazon-freertos/lib/FreeRTOS-Plus-TCP/source\FreeRTOS_IP.c **** 
 327:D:/Work/DeviceTester/amazon-freertos/lib/FreeRTOS-Plus-TCP/source\FreeRTOS_IP.c **** 	/* Generate a dummy message to say that the network connection has gone
 328:D:/Work/DeviceTester/amazon-freertos/lib/FreeRTOS-Plus-TCP/source\FreeRTOS_IP.c **** 	down.  This will cause this task to initialise the network interface.  After
 329:D:/Work/DeviceTester/amazon-freertos/lib/FreeRTOS-Plus-TCP/source\FreeRTOS_IP.c **** 	this it is the responsibility of the network interface hardware driver to
 330:D:/Work/DeviceTester/amazon-freertos/lib/FreeRTOS-Plus-TCP/source\FreeRTOS_IP.c **** 	send this message if a previously connected network is disconnected. */
 331:D:/Work/DeviceTester/amazon-freertos/lib/FreeRTOS-Plus-TCP/source\FreeRTOS_IP.c **** 	FreeRTOS_NetworkDown();
 332:D:/Work/DeviceTester/amazon-freertos/lib/FreeRTOS-Plus-TCP/source\FreeRTOS_IP.c **** 
 333:D:/Work/DeviceTester/amazon-freertos/lib/FreeRTOS-Plus-TCP/source\FreeRTOS_IP.c **** 	#if( ipconfigUSE_TCP == 1 )
 334:D:/Work/DeviceTester/amazon-freertos/lib/FreeRTOS-Plus-TCP/source\FreeRTOS_IP.c **** 	{
 335:D:/Work/DeviceTester/amazon-freertos/lib/FreeRTOS-Plus-TCP/source\FreeRTOS_IP.c **** 		/* Initialise the TCP timer. */
 336:D:/Work/DeviceTester/amazon-freertos/lib/FreeRTOS-Plus-TCP/source\FreeRTOS_IP.c **** 		prvIPTimerReload( &xTCPTimer, pdMS_TO_TICKS( ipTCP_TIMER_PERIOD_MS ) );
 337:D:/Work/DeviceTester/amazon-freertos/lib/FreeRTOS-Plus-TCP/source\FreeRTOS_IP.c **** 	}
 338:D:/Work/DeviceTester/amazon-freertos/lib/FreeRTOS-Plus-TCP/source\FreeRTOS_IP.c **** 	#endif
 339:D:/Work/DeviceTester/amazon-freertos/lib/FreeRTOS-Plus-TCP/source\FreeRTOS_IP.c **** 
 340:D:/Work/DeviceTester/amazon-freertos/lib/FreeRTOS-Plus-TCP/source\FreeRTOS_IP.c **** 	/* Initialisation is complete and events can now be processed. */
 341:D:/Work/DeviceTester/amazon-freertos/lib/FreeRTOS-Plus-TCP/source\FreeRTOS_IP.c **** 	xIPTaskInitialised = pdTRUE;
 342:D:/Work/DeviceTester/amazon-freertos/lib/FreeRTOS-Plus-TCP/source\FreeRTOS_IP.c **** 
 343:D:/Work/DeviceTester/amazon-freertos/lib/FreeRTOS-Plus-TCP/source\FreeRTOS_IP.c **** 	FreeRTOS_debug_printf( ( "prvIPTask started\n" ) );
 344:D:/Work/DeviceTester/amazon-freertos/lib/FreeRTOS-Plus-TCP/source\FreeRTOS_IP.c **** 
 345:D:/Work/DeviceTester/amazon-freertos/lib/FreeRTOS-Plus-TCP/source\FreeRTOS_IP.c **** 	/* Loop, processing IP events. */
 346:D:/Work/DeviceTester/amazon-freertos/lib/FreeRTOS-Plus-TCP/source\FreeRTOS_IP.c **** 	for( ;; )
 347:D:/Work/DeviceTester/amazon-freertos/lib/FreeRTOS-Plus-TCP/source\FreeRTOS_IP.c **** 	{
 348:D:/Work/DeviceTester/amazon-freertos/lib/FreeRTOS-Plus-TCP/source\FreeRTOS_IP.c **** 		ipconfigWATCHDOG_TIMER();
 349:D:/Work/DeviceTester/amazon-freertos/lib/FreeRTOS-Plus-TCP/source\FreeRTOS_IP.c **** 
 350:D:/Work/DeviceTester/amazon-freertos/lib/FreeRTOS-Plus-TCP/source\FreeRTOS_IP.c **** 		/* Check the ARP, DHCP and TCP timers to see if there is any periodic
 351:D:/Work/DeviceTester/amazon-freertos/lib/FreeRTOS-Plus-TCP/source\FreeRTOS_IP.c **** 		or timeout processing to perform. */
 352:D:/Work/DeviceTester/amazon-freertos/lib/FreeRTOS-Plus-TCP/source\FreeRTOS_IP.c **** 		prvCheckNetworkTimers();
 353:D:/Work/DeviceTester/amazon-freertos/lib/FreeRTOS-Plus-TCP/source\FreeRTOS_IP.c **** 
 354:D:/Work/DeviceTester/amazon-freertos/lib/FreeRTOS-Plus-TCP/source\FreeRTOS_IP.c **** 		/* Calculate the acceptable maximum sleep time. */
 355:D:/Work/DeviceTester/amazon-freertos/lib/FreeRTOS-Plus-TCP/source\FreeRTOS_IP.c **** 		xNextIPSleep = prvCalculateSleepTime();
 356:D:/Work/DeviceTester/amazon-freertos/lib/FreeRTOS-Plus-TCP/source\FreeRTOS_IP.c **** 
 357:D:/Work/DeviceTester/amazon-freertos/lib/FreeRTOS-Plus-TCP/source\FreeRTOS_IP.c **** 		/* Wait until there is something to do. If the following call exits
 358:D:/Work/DeviceTester/amazon-freertos/lib/FreeRTOS-Plus-TCP/source\FreeRTOS_IP.c **** 		 * due to a time out rather than a message being received, set a
 359:D:/Work/DeviceTester/amazon-freertos/lib/FreeRTOS-Plus-TCP/source\FreeRTOS_IP.c **** 		 * 'NoEvent' value. */
 360:D:/Work/DeviceTester/amazon-freertos/lib/FreeRTOS-Plus-TCP/source\FreeRTOS_IP.c **** 		if ( xQueueReceive( xNetworkEventQueue, ( void * ) &xReceivedEvent, xNextIPSleep ) == pdFALSE ) 
 361:D:/Work/DeviceTester/amazon-freertos/lib/FreeRTOS-Plus-TCP/source\FreeRTOS_IP.c **** 		{
 362:D:/Work/DeviceTester/amazon-freertos/lib/FreeRTOS-Plus-TCP/source\FreeRTOS_IP.c **** 			xReceivedEvent.eEventType = eNoEvent;
 363:D:/Work/DeviceTester/amazon-freertos/lib/FreeRTOS-Plus-TCP/source\FreeRTOS_IP.c **** 		}
 364:D:/Work/DeviceTester/amazon-freertos/lib/FreeRTOS-Plus-TCP/source\FreeRTOS_IP.c **** 
 365:D:/Work/DeviceTester/amazon-freertos/lib/FreeRTOS-Plus-TCP/source\FreeRTOS_IP.c **** 		#if( ipconfigCHECK_IP_QUEUE_SPACE != 0 )
 366:D:/Work/DeviceTester/amazon-freertos/lib/FreeRTOS-Plus-TCP/source\FreeRTOS_IP.c **** 		{
 367:D:/Work/DeviceTester/amazon-freertos/lib/FreeRTOS-Plus-TCP/source\FreeRTOS_IP.c **** 			if( xReceivedEvent.eEventType != eNoEvent )
 368:D:/Work/DeviceTester/amazon-freertos/lib/FreeRTOS-Plus-TCP/source\FreeRTOS_IP.c **** 			{
 369:D:/Work/DeviceTester/amazon-freertos/lib/FreeRTOS-Plus-TCP/source\FreeRTOS_IP.c **** 			UBaseType_t uxCount;
 370:D:/Work/DeviceTester/amazon-freertos/lib/FreeRTOS-Plus-TCP/source\FreeRTOS_IP.c **** 
 371:D:/Work/DeviceTester/amazon-freertos/lib/FreeRTOS-Plus-TCP/source\FreeRTOS_IP.c **** 				uxCount = uxQueueSpacesAvailable( xNetworkEventQueue );
 372:D:/Work/DeviceTester/amazon-freertos/lib/FreeRTOS-Plus-TCP/source\FreeRTOS_IP.c **** 				if( uxQueueMinimumSpace > uxCount )
 373:D:/Work/DeviceTester/amazon-freertos/lib/FreeRTOS-Plus-TCP/source\FreeRTOS_IP.c **** 				{
 374:D:/Work/DeviceTester/amazon-freertos/lib/FreeRTOS-Plus-TCP/source\FreeRTOS_IP.c **** 					uxQueueMinimumSpace = uxCount;
 375:D:/Work/DeviceTester/amazon-freertos/lib/FreeRTOS-Plus-TCP/source\FreeRTOS_IP.c **** 				}
 376:D:/Work/DeviceTester/amazon-freertos/lib/FreeRTOS-Plus-TCP/source\FreeRTOS_IP.c **** 			}
 377:D:/Work/DeviceTester/amazon-freertos/lib/FreeRTOS-Plus-TCP/source\FreeRTOS_IP.c **** 		}
 378:D:/Work/DeviceTester/amazon-freertos/lib/FreeRTOS-Plus-TCP/source\FreeRTOS_IP.c **** 		#endif /* ipconfigCHECK_IP_QUEUE_SPACE */
 379:D:/Work/DeviceTester/amazon-freertos/lib/FreeRTOS-Plus-TCP/source\FreeRTOS_IP.c **** 
 380:D:/Work/DeviceTester/amazon-freertos/lib/FreeRTOS-Plus-TCP/source\FreeRTOS_IP.c **** 		iptraceNETWORK_EVENT_RECEIVED( xReceivedEvent.eEventType );
 381:D:/Work/DeviceTester/amazon-freertos/lib/FreeRTOS-Plus-TCP/source\FreeRTOS_IP.c **** 
 382:D:/Work/DeviceTester/amazon-freertos/lib/FreeRTOS-Plus-TCP/source\FreeRTOS_IP.c **** 		switch( xReceivedEvent.eEventType )
 383:D:/Work/DeviceTester/amazon-freertos/lib/FreeRTOS-Plus-TCP/source\FreeRTOS_IP.c **** 		{
 384:D:/Work/DeviceTester/amazon-freertos/lib/FreeRTOS-Plus-TCP/source\FreeRTOS_IP.c **** 			case eNetworkDownEvent :
 385:D:/Work/DeviceTester/amazon-freertos/lib/FreeRTOS-Plus-TCP/source\FreeRTOS_IP.c **** 				/* Attempt to establish a connection. */
 386:D:/Work/DeviceTester/amazon-freertos/lib/FreeRTOS-Plus-TCP/source\FreeRTOS_IP.c **** 				xNetworkUp = pdFALSE;
 387:D:/Work/DeviceTester/amazon-freertos/lib/FreeRTOS-Plus-TCP/source\FreeRTOS_IP.c **** 				prvProcessNetworkDownEvent();
 388:D:/Work/DeviceTester/amazon-freertos/lib/FreeRTOS-Plus-TCP/source\FreeRTOS_IP.c **** 				break;
 389:D:/Work/DeviceTester/amazon-freertos/lib/FreeRTOS-Plus-TCP/source\FreeRTOS_IP.c **** 
 390:D:/Work/DeviceTester/amazon-freertos/lib/FreeRTOS-Plus-TCP/source\FreeRTOS_IP.c **** 			case eNetworkRxEvent:
 391:D:/Work/DeviceTester/amazon-freertos/lib/FreeRTOS-Plus-TCP/source\FreeRTOS_IP.c **** 				/* The network hardware driver has received a new packet.  A
 392:D:/Work/DeviceTester/amazon-freertos/lib/FreeRTOS-Plus-TCP/source\FreeRTOS_IP.c **** 				pointer to the received buffer is located in the pvData member
 393:D:/Work/DeviceTester/amazon-freertos/lib/FreeRTOS-Plus-TCP/source\FreeRTOS_IP.c **** 				of the received event structure. */
 394:D:/Work/DeviceTester/amazon-freertos/lib/FreeRTOS-Plus-TCP/source\FreeRTOS_IP.c **** 				prvHandleEthernetPacket( ( NetworkBufferDescriptor_t * ) ( xReceivedEvent.pvData ) );
 395:D:/Work/DeviceTester/amazon-freertos/lib/FreeRTOS-Plus-TCP/source\FreeRTOS_IP.c **** 				break;
 396:D:/Work/DeviceTester/amazon-freertos/lib/FreeRTOS-Plus-TCP/source\FreeRTOS_IP.c **** 
 397:D:/Work/DeviceTester/amazon-freertos/lib/FreeRTOS-Plus-TCP/source\FreeRTOS_IP.c **** 			case eARPTimerEvent :
 398:D:/Work/DeviceTester/amazon-freertos/lib/FreeRTOS-Plus-TCP/source\FreeRTOS_IP.c **** 				/* The ARP timer has expired, process the ARP cache. */
 399:D:/Work/DeviceTester/amazon-freertos/lib/FreeRTOS-Plus-TCP/source\FreeRTOS_IP.c **** 				vARPAgeCache();
 400:D:/Work/DeviceTester/amazon-freertos/lib/FreeRTOS-Plus-TCP/source\FreeRTOS_IP.c **** 				break;
 401:D:/Work/DeviceTester/amazon-freertos/lib/FreeRTOS-Plus-TCP/source\FreeRTOS_IP.c **** 
 402:D:/Work/DeviceTester/amazon-freertos/lib/FreeRTOS-Plus-TCP/source\FreeRTOS_IP.c **** 			case eSocketBindEvent:
 403:D:/Work/DeviceTester/amazon-freertos/lib/FreeRTOS-Plus-TCP/source\FreeRTOS_IP.c **** 				/* FreeRTOS_bind (a user API) wants the IP-task to bind a socket
 404:D:/Work/DeviceTester/amazon-freertos/lib/FreeRTOS-Plus-TCP/source\FreeRTOS_IP.c **** 				to a port. The port number is communicated in the socket field
 405:D:/Work/DeviceTester/amazon-freertos/lib/FreeRTOS-Plus-TCP/source\FreeRTOS_IP.c **** 				usLocalPort. vSocketBind() will actually bind the socket and the
 406:D:/Work/DeviceTester/amazon-freertos/lib/FreeRTOS-Plus-TCP/source\FreeRTOS_IP.c **** 				API will unblock as soon as the eSOCKET_BOUND event is
 407:D:/Work/DeviceTester/amazon-freertos/lib/FreeRTOS-Plus-TCP/source\FreeRTOS_IP.c **** 				triggered. */
 408:D:/Work/DeviceTester/amazon-freertos/lib/FreeRTOS-Plus-TCP/source\FreeRTOS_IP.c **** 				pxSocket = ( FreeRTOS_Socket_t * ) ( xReceivedEvent.pvData );
 409:D:/Work/DeviceTester/amazon-freertos/lib/FreeRTOS-Plus-TCP/source\FreeRTOS_IP.c **** 				xAddress.sin_addr = 0u;	/* For the moment. */
 410:D:/Work/DeviceTester/amazon-freertos/lib/FreeRTOS-Plus-TCP/source\FreeRTOS_IP.c **** 				xAddress.sin_port = FreeRTOS_ntohs( pxSocket->usLocalPort );
 411:D:/Work/DeviceTester/amazon-freertos/lib/FreeRTOS-Plus-TCP/source\FreeRTOS_IP.c **** 				pxSocket->usLocalPort = 0u;
 412:D:/Work/DeviceTester/amazon-freertos/lib/FreeRTOS-Plus-TCP/source\FreeRTOS_IP.c **** 				vSocketBind( pxSocket, &xAddress, sizeof( xAddress ), pdFALSE );
 413:D:/Work/DeviceTester/amazon-freertos/lib/FreeRTOS-Plus-TCP/source\FreeRTOS_IP.c **** 
 414:D:/Work/DeviceTester/amazon-freertos/lib/FreeRTOS-Plus-TCP/source\FreeRTOS_IP.c **** 				/* Before 'eSocketBindEvent' was sent it was tested that
 415:D:/Work/DeviceTester/amazon-freertos/lib/FreeRTOS-Plus-TCP/source\FreeRTOS_IP.c **** 				( xEventGroup != NULL ) so it can be used now to wake up the
 416:D:/Work/DeviceTester/amazon-freertos/lib/FreeRTOS-Plus-TCP/source\FreeRTOS_IP.c **** 				user. */
 417:D:/Work/DeviceTester/amazon-freertos/lib/FreeRTOS-Plus-TCP/source\FreeRTOS_IP.c **** 				pxSocket->xEventBits |= eSOCKET_BOUND;
 418:D:/Work/DeviceTester/amazon-freertos/lib/FreeRTOS-Plus-TCP/source\FreeRTOS_IP.c **** 				vSocketWakeUpUser( pxSocket );
 419:D:/Work/DeviceTester/amazon-freertos/lib/FreeRTOS-Plus-TCP/source\FreeRTOS_IP.c **** 				break;
 420:D:/Work/DeviceTester/amazon-freertos/lib/FreeRTOS-Plus-TCP/source\FreeRTOS_IP.c **** 
 421:D:/Work/DeviceTester/amazon-freertos/lib/FreeRTOS-Plus-TCP/source\FreeRTOS_IP.c **** 			case eSocketCloseEvent :
 422:D:/Work/DeviceTester/amazon-freertos/lib/FreeRTOS-Plus-TCP/source\FreeRTOS_IP.c **** 				/* The user API FreeRTOS_closesocket() has sent a message to the
 423:D:/Work/DeviceTester/amazon-freertos/lib/FreeRTOS-Plus-TCP/source\FreeRTOS_IP.c **** 				IP-task to actually close a socket. This is handled in
 424:D:/Work/DeviceTester/amazon-freertos/lib/FreeRTOS-Plus-TCP/source\FreeRTOS_IP.c **** 				vSocketClose().  As the socket gets closed, there is no way to
 425:D:/Work/DeviceTester/amazon-freertos/lib/FreeRTOS-Plus-TCP/source\FreeRTOS_IP.c **** 				report back to the API, so the API won't wait for the result */
 426:D:/Work/DeviceTester/amazon-freertos/lib/FreeRTOS-Plus-TCP/source\FreeRTOS_IP.c **** 				vSocketClose( ( FreeRTOS_Socket_t * ) ( xReceivedEvent.pvData ) );
 427:D:/Work/DeviceTester/amazon-freertos/lib/FreeRTOS-Plus-TCP/source\FreeRTOS_IP.c **** 				break;
 428:D:/Work/DeviceTester/amazon-freertos/lib/FreeRTOS-Plus-TCP/source\FreeRTOS_IP.c **** 
 429:D:/Work/DeviceTester/amazon-freertos/lib/FreeRTOS-Plus-TCP/source\FreeRTOS_IP.c **** 			case eStackTxEvent :
 430:D:/Work/DeviceTester/amazon-freertos/lib/FreeRTOS-Plus-TCP/source\FreeRTOS_IP.c **** 				/* The network stack has generated a packet to send.  A
 431:D:/Work/DeviceTester/amazon-freertos/lib/FreeRTOS-Plus-TCP/source\FreeRTOS_IP.c **** 				pointer to the generated buffer is located in the pvData
 432:D:/Work/DeviceTester/amazon-freertos/lib/FreeRTOS-Plus-TCP/source\FreeRTOS_IP.c **** 				member of the received event structure. */
 433:D:/Work/DeviceTester/amazon-freertos/lib/FreeRTOS-Plus-TCP/source\FreeRTOS_IP.c **** 				vProcessGeneratedUDPPacket( ( NetworkBufferDescriptor_t * ) ( xReceivedEvent.pvData ) );
 434:D:/Work/DeviceTester/amazon-freertos/lib/FreeRTOS-Plus-TCP/source\FreeRTOS_IP.c **** 				break;
 435:D:/Work/DeviceTester/amazon-freertos/lib/FreeRTOS-Plus-TCP/source\FreeRTOS_IP.c **** 
 436:D:/Work/DeviceTester/amazon-freertos/lib/FreeRTOS-Plus-TCP/source\FreeRTOS_IP.c **** 			case eDHCPEvent:
 437:D:/Work/DeviceTester/amazon-freertos/lib/FreeRTOS-Plus-TCP/source\FreeRTOS_IP.c **** 				/* The DHCP state machine needs processing. */
 438:D:/Work/DeviceTester/amazon-freertos/lib/FreeRTOS-Plus-TCP/source\FreeRTOS_IP.c **** 				#if( ipconfigUSE_DHCP == 1 )
 439:D:/Work/DeviceTester/amazon-freertos/lib/FreeRTOS-Plus-TCP/source\FreeRTOS_IP.c **** 				{
 440:D:/Work/DeviceTester/amazon-freertos/lib/FreeRTOS-Plus-TCP/source\FreeRTOS_IP.c **** 					vDHCPProcess( pdFALSE );
 441:D:/Work/DeviceTester/amazon-freertos/lib/FreeRTOS-Plus-TCP/source\FreeRTOS_IP.c **** 				}
 442:D:/Work/DeviceTester/amazon-freertos/lib/FreeRTOS-Plus-TCP/source\FreeRTOS_IP.c **** 				#endif /* ipconfigUSE_DHCP */
 443:D:/Work/DeviceTester/amazon-freertos/lib/FreeRTOS-Plus-TCP/source\FreeRTOS_IP.c **** 				break;
 444:D:/Work/DeviceTester/amazon-freertos/lib/FreeRTOS-Plus-TCP/source\FreeRTOS_IP.c **** 
 445:D:/Work/DeviceTester/amazon-freertos/lib/FreeRTOS-Plus-TCP/source\FreeRTOS_IP.c **** 			case eSocketSelectEvent :
 446:D:/Work/DeviceTester/amazon-freertos/lib/FreeRTOS-Plus-TCP/source\FreeRTOS_IP.c **** 				/* FreeRTOS_select() has got unblocked by a socket event,
 447:D:/Work/DeviceTester/amazon-freertos/lib/FreeRTOS-Plus-TCP/source\FreeRTOS_IP.c **** 				vSocketSelect() will check which sockets actually have an event
 448:D:/Work/DeviceTester/amazon-freertos/lib/FreeRTOS-Plus-TCP/source\FreeRTOS_IP.c **** 				and update the socket field xSocketBits. */
 449:D:/Work/DeviceTester/amazon-freertos/lib/FreeRTOS-Plus-TCP/source\FreeRTOS_IP.c **** 				#if( ipconfigSUPPORT_SELECT_FUNCTION == 1 )
 450:D:/Work/DeviceTester/amazon-freertos/lib/FreeRTOS-Plus-TCP/source\FreeRTOS_IP.c **** 				{
 451:D:/Work/DeviceTester/amazon-freertos/lib/FreeRTOS-Plus-TCP/source\FreeRTOS_IP.c **** 					vSocketSelect( ( SocketSelect_t * ) ( xReceivedEvent.pvData ) );
 452:D:/Work/DeviceTester/amazon-freertos/lib/FreeRTOS-Plus-TCP/source\FreeRTOS_IP.c **** 				}
 453:D:/Work/DeviceTester/amazon-freertos/lib/FreeRTOS-Plus-TCP/source\FreeRTOS_IP.c **** 				#endif /* ipconfigSUPPORT_SELECT_FUNCTION == 1 */
 454:D:/Work/DeviceTester/amazon-freertos/lib/FreeRTOS-Plus-TCP/source\FreeRTOS_IP.c **** 				break;
 455:D:/Work/DeviceTester/amazon-freertos/lib/FreeRTOS-Plus-TCP/source\FreeRTOS_IP.c **** 
 456:D:/Work/DeviceTester/amazon-freertos/lib/FreeRTOS-Plus-TCP/source\FreeRTOS_IP.c **** 			case eSocketSignalEvent :
 457:D:/Work/DeviceTester/amazon-freertos/lib/FreeRTOS-Plus-TCP/source\FreeRTOS_IP.c **** 				#if( ipconfigSUPPORT_SIGNALS != 0 )
 458:D:/Work/DeviceTester/amazon-freertos/lib/FreeRTOS-Plus-TCP/source\FreeRTOS_IP.c **** 				{
 459:D:/Work/DeviceTester/amazon-freertos/lib/FreeRTOS-Plus-TCP/source\FreeRTOS_IP.c **** 					/* Some task wants to signal the user of this socket in
 460:D:/Work/DeviceTester/amazon-freertos/lib/FreeRTOS-Plus-TCP/source\FreeRTOS_IP.c **** 					order to interrupt a call to recv() or a call to select(). */
 461:D:/Work/DeviceTester/amazon-freertos/lib/FreeRTOS-Plus-TCP/source\FreeRTOS_IP.c **** 					FreeRTOS_SignalSocket( ( Socket_t ) xReceivedEvent.pvData );
 462:D:/Work/DeviceTester/amazon-freertos/lib/FreeRTOS-Plus-TCP/source\FreeRTOS_IP.c **** 				}
 463:D:/Work/DeviceTester/amazon-freertos/lib/FreeRTOS-Plus-TCP/source\FreeRTOS_IP.c **** 				#endif /* ipconfigSUPPORT_SIGNALS */
 464:D:/Work/DeviceTester/amazon-freertos/lib/FreeRTOS-Plus-TCP/source\FreeRTOS_IP.c **** 				break;
 465:D:/Work/DeviceTester/amazon-freertos/lib/FreeRTOS-Plus-TCP/source\FreeRTOS_IP.c **** 
 466:D:/Work/DeviceTester/amazon-freertos/lib/FreeRTOS-Plus-TCP/source\FreeRTOS_IP.c **** 			case eTCPTimerEvent :
 467:D:/Work/DeviceTester/amazon-freertos/lib/FreeRTOS-Plus-TCP/source\FreeRTOS_IP.c **** 				#if( ipconfigUSE_TCP == 1 )
 468:D:/Work/DeviceTester/amazon-freertos/lib/FreeRTOS-Plus-TCP/source\FreeRTOS_IP.c **** 				{
 469:D:/Work/DeviceTester/amazon-freertos/lib/FreeRTOS-Plus-TCP/source\FreeRTOS_IP.c **** 					/* Simply mark the TCP timer as expired so it gets processed
 470:D:/Work/DeviceTester/amazon-freertos/lib/FreeRTOS-Plus-TCP/source\FreeRTOS_IP.c **** 					the next time prvCheckNetworkTimers() is called. */
 471:D:/Work/DeviceTester/amazon-freertos/lib/FreeRTOS-Plus-TCP/source\FreeRTOS_IP.c **** 					xTCPTimer.bExpired = pdTRUE_UNSIGNED;
 472:D:/Work/DeviceTester/amazon-freertos/lib/FreeRTOS-Plus-TCP/source\FreeRTOS_IP.c **** 				}
 473:D:/Work/DeviceTester/amazon-freertos/lib/FreeRTOS-Plus-TCP/source\FreeRTOS_IP.c **** 				#endif /* ipconfigUSE_TCP */
 474:D:/Work/DeviceTester/amazon-freertos/lib/FreeRTOS-Plus-TCP/source\FreeRTOS_IP.c **** 				break;
 475:D:/Work/DeviceTester/amazon-freertos/lib/FreeRTOS-Plus-TCP/source\FreeRTOS_IP.c **** 
 476:D:/Work/DeviceTester/amazon-freertos/lib/FreeRTOS-Plus-TCP/source\FreeRTOS_IP.c **** 			case eTCPAcceptEvent:
 477:D:/Work/DeviceTester/amazon-freertos/lib/FreeRTOS-Plus-TCP/source\FreeRTOS_IP.c **** 				/* The API FreeRTOS_accept() was called, the IP-task will now
 478:D:/Work/DeviceTester/amazon-freertos/lib/FreeRTOS-Plus-TCP/source\FreeRTOS_IP.c **** 				check if the listening socket (communicated in pvData) actually
 479:D:/Work/DeviceTester/amazon-freertos/lib/FreeRTOS-Plus-TCP/source\FreeRTOS_IP.c **** 				received a new connection. */
 480:D:/Work/DeviceTester/amazon-freertos/lib/FreeRTOS-Plus-TCP/source\FreeRTOS_IP.c **** 				#if( ipconfigUSE_TCP == 1 )
 481:D:/Work/DeviceTester/amazon-freertos/lib/FreeRTOS-Plus-TCP/source\FreeRTOS_IP.c **** 				{
 482:D:/Work/DeviceTester/amazon-freertos/lib/FreeRTOS-Plus-TCP/source\FreeRTOS_IP.c **** 					pxSocket = ( FreeRTOS_Socket_t * ) ( xReceivedEvent.pvData );
 483:D:/Work/DeviceTester/amazon-freertos/lib/FreeRTOS-Plus-TCP/source\FreeRTOS_IP.c **** 
 484:D:/Work/DeviceTester/amazon-freertos/lib/FreeRTOS-Plus-TCP/source\FreeRTOS_IP.c **** 					if( xTCPCheckNewClient( pxSocket ) != pdFALSE )
 485:D:/Work/DeviceTester/amazon-freertos/lib/FreeRTOS-Plus-TCP/source\FreeRTOS_IP.c **** 					{
 486:D:/Work/DeviceTester/amazon-freertos/lib/FreeRTOS-Plus-TCP/source\FreeRTOS_IP.c **** 						pxSocket->xEventBits |= eSOCKET_ACCEPT;
 487:D:/Work/DeviceTester/amazon-freertos/lib/FreeRTOS-Plus-TCP/source\FreeRTOS_IP.c **** 						vSocketWakeUpUser( pxSocket );
 488:D:/Work/DeviceTester/amazon-freertos/lib/FreeRTOS-Plus-TCP/source\FreeRTOS_IP.c **** 					}
 489:D:/Work/DeviceTester/amazon-freertos/lib/FreeRTOS-Plus-TCP/source\FreeRTOS_IP.c **** 				}
 490:D:/Work/DeviceTester/amazon-freertos/lib/FreeRTOS-Plus-TCP/source\FreeRTOS_IP.c **** 				#endif /* ipconfigUSE_TCP */
 491:D:/Work/DeviceTester/amazon-freertos/lib/FreeRTOS-Plus-TCP/source\FreeRTOS_IP.c **** 				break;
 492:D:/Work/DeviceTester/amazon-freertos/lib/FreeRTOS-Plus-TCP/source\FreeRTOS_IP.c **** 
 493:D:/Work/DeviceTester/amazon-freertos/lib/FreeRTOS-Plus-TCP/source\FreeRTOS_IP.c **** 			case eTCPNetStat:
 494:D:/Work/DeviceTester/amazon-freertos/lib/FreeRTOS-Plus-TCP/source\FreeRTOS_IP.c **** 				/* FreeRTOS_netstat() was called to have the IP-task print an
 495:D:/Work/DeviceTester/amazon-freertos/lib/FreeRTOS-Plus-TCP/source\FreeRTOS_IP.c **** 				overview of all sockets and their connections */
 496:D:/Work/DeviceTester/amazon-freertos/lib/FreeRTOS-Plus-TCP/source\FreeRTOS_IP.c **** 				#if( ( ipconfigUSE_TCP == 1 ) && ( ipconfigHAS_PRINTF == 1 ) )
 497:D:/Work/DeviceTester/amazon-freertos/lib/FreeRTOS-Plus-TCP/source\FreeRTOS_IP.c **** 				{
 498:D:/Work/DeviceTester/amazon-freertos/lib/FreeRTOS-Plus-TCP/source\FreeRTOS_IP.c **** 					vTCPNetStat();
 499:D:/Work/DeviceTester/amazon-freertos/lib/FreeRTOS-Plus-TCP/source\FreeRTOS_IP.c **** 				}
 500:D:/Work/DeviceTester/amazon-freertos/lib/FreeRTOS-Plus-TCP/source\FreeRTOS_IP.c **** 				#endif /* ipconfigUSE_TCP */
 501:D:/Work/DeviceTester/amazon-freertos/lib/FreeRTOS-Plus-TCP/source\FreeRTOS_IP.c **** 				break;
 502:D:/Work/DeviceTester/amazon-freertos/lib/FreeRTOS-Plus-TCP/source\FreeRTOS_IP.c **** 
 503:D:/Work/DeviceTester/amazon-freertos/lib/FreeRTOS-Plus-TCP/source\FreeRTOS_IP.c **** 			default :
 504:D:/Work/DeviceTester/amazon-freertos/lib/FreeRTOS-Plus-TCP/source\FreeRTOS_IP.c **** 				/* Should not get here. */
 505:D:/Work/DeviceTester/amazon-freertos/lib/FreeRTOS-Plus-TCP/source\FreeRTOS_IP.c **** 				break;
 506:D:/Work/DeviceTester/amazon-freertos/lib/FreeRTOS-Plus-TCP/source\FreeRTOS_IP.c **** 		}
 507:D:/Work/DeviceTester/amazon-freertos/lib/FreeRTOS-Plus-TCP/source\FreeRTOS_IP.c **** 
 508:D:/Work/DeviceTester/amazon-freertos/lib/FreeRTOS-Plus-TCP/source\FreeRTOS_IP.c **** 		if( xNetworkDownEventPending != pdFALSE )
 509:D:/Work/DeviceTester/amazon-freertos/lib/FreeRTOS-Plus-TCP/source\FreeRTOS_IP.c **** 		{
 510:D:/Work/DeviceTester/amazon-freertos/lib/FreeRTOS-Plus-TCP/source\FreeRTOS_IP.c **** 			/* A network down event could not be posted to the network event
 511:D:/Work/DeviceTester/amazon-freertos/lib/FreeRTOS-Plus-TCP/source\FreeRTOS_IP.c **** 			queue because the queue was full.  Try posting again. */
 512:D:/Work/DeviceTester/amazon-freertos/lib/FreeRTOS-Plus-TCP/source\FreeRTOS_IP.c **** 			FreeRTOS_NetworkDown();
 513:D:/Work/DeviceTester/amazon-freertos/lib/FreeRTOS-Plus-TCP/source\FreeRTOS_IP.c **** 		}
 514:D:/Work/DeviceTester/amazon-freertos/lib/FreeRTOS-Plus-TCP/source\FreeRTOS_IP.c **** 	}
 515:D:/Work/DeviceTester/amazon-freertos/lib/FreeRTOS-Plus-TCP/source\FreeRTOS_IP.c **** }
 516:D:/Work/DeviceTester/amazon-freertos/lib/FreeRTOS-Plus-TCP/source\FreeRTOS_IP.c **** /*-----------------------------------------------------------*/
 517:D:/Work/DeviceTester/amazon-freertos/lib/FreeRTOS-Plus-TCP/source\FreeRTOS_IP.c **** 
 518:D:/Work/DeviceTester/amazon-freertos/lib/FreeRTOS-Plus-TCP/source\FreeRTOS_IP.c **** BaseType_t xIsCallingFromIPTask( void )
 519:D:/Work/DeviceTester/amazon-freertos/lib/FreeRTOS-Plus-TCP/source\FreeRTOS_IP.c **** {
 520:D:/Work/DeviceTester/amazon-freertos/lib/FreeRTOS-Plus-TCP/source\FreeRTOS_IP.c **** BaseType_t xReturn;
 521:D:/Work/DeviceTester/amazon-freertos/lib/FreeRTOS-Plus-TCP/source\FreeRTOS_IP.c **** 
 522:D:/Work/DeviceTester/amazon-freertos/lib/FreeRTOS-Plus-TCP/source\FreeRTOS_IP.c **** 	if( xTaskGetCurrentTaskHandle() == xIPTaskHandle )
 523:D:/Work/DeviceTester/amazon-freertos/lib/FreeRTOS-Plus-TCP/source\FreeRTOS_IP.c **** 	{
 524:D:/Work/DeviceTester/amazon-freertos/lib/FreeRTOS-Plus-TCP/source\FreeRTOS_IP.c **** 		xReturn = pdTRUE;
 525:D:/Work/DeviceTester/amazon-freertos/lib/FreeRTOS-Plus-TCP/source\FreeRTOS_IP.c **** 	}
 526:D:/Work/DeviceTester/amazon-freertos/lib/FreeRTOS-Plus-TCP/source\FreeRTOS_IP.c **** 	else
 527:D:/Work/DeviceTester/amazon-freertos/lib/FreeRTOS-Plus-TCP/source\FreeRTOS_IP.c **** 	{
 528:D:/Work/DeviceTester/amazon-freertos/lib/FreeRTOS-Plus-TCP/source\FreeRTOS_IP.c **** 		xReturn = pdFALSE;
 529:D:/Work/DeviceTester/amazon-freertos/lib/FreeRTOS-Plus-TCP/source\FreeRTOS_IP.c **** 	}
 530:D:/Work/DeviceTester/amazon-freertos/lib/FreeRTOS-Plus-TCP/source\FreeRTOS_IP.c **** 
 531:D:/Work/DeviceTester/amazon-freertos/lib/FreeRTOS-Plus-TCP/source\FreeRTOS_IP.c **** 	return xReturn;
 532:D:/Work/DeviceTester/amazon-freertos/lib/FreeRTOS-Plus-TCP/source\FreeRTOS_IP.c **** }
 533:D:/Work/DeviceTester/amazon-freertos/lib/FreeRTOS-Plus-TCP/source\FreeRTOS_IP.c **** /*-----------------------------------------------------------*/
 534:D:/Work/DeviceTester/amazon-freertos/lib/FreeRTOS-Plus-TCP/source\FreeRTOS_IP.c **** 
 535:D:/Work/DeviceTester/amazon-freertos/lib/FreeRTOS-Plus-TCP/source\FreeRTOS_IP.c **** static void prvHandleEthernetPacket( NetworkBufferDescriptor_t *pxBuffer )
 536:D:/Work/DeviceTester/amazon-freertos/lib/FreeRTOS-Plus-TCP/source\FreeRTOS_IP.c **** {
 537:D:/Work/DeviceTester/amazon-freertos/lib/FreeRTOS-Plus-TCP/source\FreeRTOS_IP.c **** 	#if( ipconfigUSE_LINKED_RX_MESSAGES == 0 )
 538:D:/Work/DeviceTester/amazon-freertos/lib/FreeRTOS-Plus-TCP/source\FreeRTOS_IP.c **** 	{
 539:D:/Work/DeviceTester/amazon-freertos/lib/FreeRTOS-Plus-TCP/source\FreeRTOS_IP.c **** 		/* When ipconfigUSE_LINKED_RX_MESSAGES is not set to 0 then only one
 540:D:/Work/DeviceTester/amazon-freertos/lib/FreeRTOS-Plus-TCP/source\FreeRTOS_IP.c **** 		buffer will be sent at a time.  This is the default way for +TCP to pass
 541:D:/Work/DeviceTester/amazon-freertos/lib/FreeRTOS-Plus-TCP/source\FreeRTOS_IP.c **** 		messages from the MAC to the TCP/IP stack. */
 542:D:/Work/DeviceTester/amazon-freertos/lib/FreeRTOS-Plus-TCP/source\FreeRTOS_IP.c **** 		prvProcessEthernetPacket( pxBuffer );
 543:D:/Work/DeviceTester/amazon-freertos/lib/FreeRTOS-Plus-TCP/source\FreeRTOS_IP.c **** 	}
 544:D:/Work/DeviceTester/amazon-freertos/lib/FreeRTOS-Plus-TCP/source\FreeRTOS_IP.c **** 	#else /* ipconfigUSE_LINKED_RX_MESSAGES */
 545:D:/Work/DeviceTester/amazon-freertos/lib/FreeRTOS-Plus-TCP/source\FreeRTOS_IP.c **** 	{
 546:D:/Work/DeviceTester/amazon-freertos/lib/FreeRTOS-Plus-TCP/source\FreeRTOS_IP.c **** 	NetworkBufferDescriptor_t *pxNextBuffer;
 547:D:/Work/DeviceTester/amazon-freertos/lib/FreeRTOS-Plus-TCP/source\FreeRTOS_IP.c **** 
 548:D:/Work/DeviceTester/amazon-freertos/lib/FreeRTOS-Plus-TCP/source\FreeRTOS_IP.c **** 		/* An optimisation that is useful when there is high network traffic.
 549:D:/Work/DeviceTester/amazon-freertos/lib/FreeRTOS-Plus-TCP/source\FreeRTOS_IP.c **** 		Instead of passing received packets into the IP task one at a time the
 550:D:/Work/DeviceTester/amazon-freertos/lib/FreeRTOS-Plus-TCP/source\FreeRTOS_IP.c **** 		network interface can chain received packets together and pass them into
 551:D:/Work/DeviceTester/amazon-freertos/lib/FreeRTOS-Plus-TCP/source\FreeRTOS_IP.c **** 		the IP task in one go.  The packets are chained using the pxNextBuffer
 552:D:/Work/DeviceTester/amazon-freertos/lib/FreeRTOS-Plus-TCP/source\FreeRTOS_IP.c **** 		member.  The loop below walks through the chain processing each packet
 553:D:/Work/DeviceTester/amazon-freertos/lib/FreeRTOS-Plus-TCP/source\FreeRTOS_IP.c **** 		in the chain in turn. */
 554:D:/Work/DeviceTester/amazon-freertos/lib/FreeRTOS-Plus-TCP/source\FreeRTOS_IP.c **** 		do
 555:D:/Work/DeviceTester/amazon-freertos/lib/FreeRTOS-Plus-TCP/source\FreeRTOS_IP.c **** 		{
 556:D:/Work/DeviceTester/amazon-freertos/lib/FreeRTOS-Plus-TCP/source\FreeRTOS_IP.c **** 			/* Store a pointer to the buffer after pxBuffer for use later on. */
 557:D:/Work/DeviceTester/amazon-freertos/lib/FreeRTOS-Plus-TCP/source\FreeRTOS_IP.c **** 			pxNextBuffer = pxBuffer->pxNextBuffer;
 558:D:/Work/DeviceTester/amazon-freertos/lib/FreeRTOS-Plus-TCP/source\FreeRTOS_IP.c **** 
 559:D:/Work/DeviceTester/amazon-freertos/lib/FreeRTOS-Plus-TCP/source\FreeRTOS_IP.c **** 			/* Make it NULL to avoid using it later on. */
 560:D:/Work/DeviceTester/amazon-freertos/lib/FreeRTOS-Plus-TCP/source\FreeRTOS_IP.c **** 			pxBuffer->pxNextBuffer = NULL;
 561:D:/Work/DeviceTester/amazon-freertos/lib/FreeRTOS-Plus-TCP/source\FreeRTOS_IP.c **** 
 562:D:/Work/DeviceTester/amazon-freertos/lib/FreeRTOS-Plus-TCP/source\FreeRTOS_IP.c **** 			prvProcessEthernetPacket( pxBuffer );
 563:D:/Work/DeviceTester/amazon-freertos/lib/FreeRTOS-Plus-TCP/source\FreeRTOS_IP.c **** 			pxBuffer = pxNextBuffer;
 564:D:/Work/DeviceTester/amazon-freertos/lib/FreeRTOS-Plus-TCP/source\FreeRTOS_IP.c **** 
 565:D:/Work/DeviceTester/amazon-freertos/lib/FreeRTOS-Plus-TCP/source\FreeRTOS_IP.c **** 		/* While there is another packet in the chain. */
 566:D:/Work/DeviceTester/amazon-freertos/lib/FreeRTOS-Plus-TCP/source\FreeRTOS_IP.c **** 		} while( pxBuffer != NULL );
 567:D:/Work/DeviceTester/amazon-freertos/lib/FreeRTOS-Plus-TCP/source\FreeRTOS_IP.c **** 	}
 568:D:/Work/DeviceTester/amazon-freertos/lib/FreeRTOS-Plus-TCP/source\FreeRTOS_IP.c **** 	#endif /* ipconfigUSE_LINKED_RX_MESSAGES */
 569:D:/Work/DeviceTester/amazon-freertos/lib/FreeRTOS-Plus-TCP/source\FreeRTOS_IP.c **** }
 570:D:/Work/DeviceTester/amazon-freertos/lib/FreeRTOS-Plus-TCP/source\FreeRTOS_IP.c **** /*-----------------------------------------------------------*/
 571:D:/Work/DeviceTester/amazon-freertos/lib/FreeRTOS-Plus-TCP/source\FreeRTOS_IP.c **** 
 572:D:/Work/DeviceTester/amazon-freertos/lib/FreeRTOS-Plus-TCP/source\FreeRTOS_IP.c **** static TickType_t prvCalculateSleepTime( void )
 573:D:/Work/DeviceTester/amazon-freertos/lib/FreeRTOS-Plus-TCP/source\FreeRTOS_IP.c **** {
 574:D:/Work/DeviceTester/amazon-freertos/lib/FreeRTOS-Plus-TCP/source\FreeRTOS_IP.c **** TickType_t xMaximumSleepTime;
 575:D:/Work/DeviceTester/amazon-freertos/lib/FreeRTOS-Plus-TCP/source\FreeRTOS_IP.c **** 
 576:D:/Work/DeviceTester/amazon-freertos/lib/FreeRTOS-Plus-TCP/source\FreeRTOS_IP.c **** 	/* Start with the maximum sleep time, then check this against the remaining
 577:D:/Work/DeviceTester/amazon-freertos/lib/FreeRTOS-Plus-TCP/source\FreeRTOS_IP.c **** 	time in any other timers that are active. */
 578:D:/Work/DeviceTester/amazon-freertos/lib/FreeRTOS-Plus-TCP/source\FreeRTOS_IP.c **** 	xMaximumSleepTime = ipconfigMAX_IP_TASK_SLEEP_TIME;
 579:D:/Work/DeviceTester/amazon-freertos/lib/FreeRTOS-Plus-TCP/source\FreeRTOS_IP.c **** 
 580:D:/Work/DeviceTester/amazon-freertos/lib/FreeRTOS-Plus-TCP/source\FreeRTOS_IP.c **** 	if( xARPTimer.bActive != pdFALSE_UNSIGNED )
 581:D:/Work/DeviceTester/amazon-freertos/lib/FreeRTOS-Plus-TCP/source\FreeRTOS_IP.c **** 	{
 582:D:/Work/DeviceTester/amazon-freertos/lib/FreeRTOS-Plus-TCP/source\FreeRTOS_IP.c **** 		if( xARPTimer.ulRemainingTime < xMaximumSleepTime )
 583:D:/Work/DeviceTester/amazon-freertos/lib/FreeRTOS-Plus-TCP/source\FreeRTOS_IP.c **** 		{
 584:D:/Work/DeviceTester/amazon-freertos/lib/FreeRTOS-Plus-TCP/source\FreeRTOS_IP.c **** 			xMaximumSleepTime = xARPTimer.ulReloadTime;
 585:D:/Work/DeviceTester/amazon-freertos/lib/FreeRTOS-Plus-TCP/source\FreeRTOS_IP.c **** 		}
 586:D:/Work/DeviceTester/amazon-freertos/lib/FreeRTOS-Plus-TCP/source\FreeRTOS_IP.c **** 	}
 587:D:/Work/DeviceTester/amazon-freertos/lib/FreeRTOS-Plus-TCP/source\FreeRTOS_IP.c **** 
 588:D:/Work/DeviceTester/amazon-freertos/lib/FreeRTOS-Plus-TCP/source\FreeRTOS_IP.c **** 	#if( ipconfigUSE_DHCP == 1 )
 589:D:/Work/DeviceTester/amazon-freertos/lib/FreeRTOS-Plus-TCP/source\FreeRTOS_IP.c **** 	{
 590:D:/Work/DeviceTester/amazon-freertos/lib/FreeRTOS-Plus-TCP/source\FreeRTOS_IP.c **** 		if( xDHCPTimer.bActive != pdFALSE_UNSIGNED )
 591:D:/Work/DeviceTester/amazon-freertos/lib/FreeRTOS-Plus-TCP/source\FreeRTOS_IP.c **** 		{
 592:D:/Work/DeviceTester/amazon-freertos/lib/FreeRTOS-Plus-TCP/source\FreeRTOS_IP.c **** 			if( xDHCPTimer.ulRemainingTime < xMaximumSleepTime )
 593:D:/Work/DeviceTester/amazon-freertos/lib/FreeRTOS-Plus-TCP/source\FreeRTOS_IP.c **** 			{
 594:D:/Work/DeviceTester/amazon-freertos/lib/FreeRTOS-Plus-TCP/source\FreeRTOS_IP.c **** 				xMaximumSleepTime = xDHCPTimer.ulRemainingTime;
 595:D:/Work/DeviceTester/amazon-freertos/lib/FreeRTOS-Plus-TCP/source\FreeRTOS_IP.c **** 			}
 596:D:/Work/DeviceTester/amazon-freertos/lib/FreeRTOS-Plus-TCP/source\FreeRTOS_IP.c **** 		}
 597:D:/Work/DeviceTester/amazon-freertos/lib/FreeRTOS-Plus-TCP/source\FreeRTOS_IP.c **** 	}
 598:D:/Work/DeviceTester/amazon-freertos/lib/FreeRTOS-Plus-TCP/source\FreeRTOS_IP.c **** 	#endif /* ipconfigUSE_DHCP */
 599:D:/Work/DeviceTester/amazon-freertos/lib/FreeRTOS-Plus-TCP/source\FreeRTOS_IP.c **** 
 600:D:/Work/DeviceTester/amazon-freertos/lib/FreeRTOS-Plus-TCP/source\FreeRTOS_IP.c **** 	#if( ipconfigUSE_TCP == 1 )
 601:D:/Work/DeviceTester/amazon-freertos/lib/FreeRTOS-Plus-TCP/source\FreeRTOS_IP.c **** 	{
 602:D:/Work/DeviceTester/amazon-freertos/lib/FreeRTOS-Plus-TCP/source\FreeRTOS_IP.c **** 		if( xTCPTimer.ulRemainingTime < xMaximumSleepTime )
 603:D:/Work/DeviceTester/amazon-freertos/lib/FreeRTOS-Plus-TCP/source\FreeRTOS_IP.c **** 		{
 604:D:/Work/DeviceTester/amazon-freertos/lib/FreeRTOS-Plus-TCP/source\FreeRTOS_IP.c **** 			xMaximumSleepTime = xTCPTimer.ulRemainingTime;
 605:D:/Work/DeviceTester/amazon-freertos/lib/FreeRTOS-Plus-TCP/source\FreeRTOS_IP.c **** 		}
 606:D:/Work/DeviceTester/amazon-freertos/lib/FreeRTOS-Plus-TCP/source\FreeRTOS_IP.c **** 	}
 607:D:/Work/DeviceTester/amazon-freertos/lib/FreeRTOS-Plus-TCP/source\FreeRTOS_IP.c **** 	#endif
 608:D:/Work/DeviceTester/amazon-freertos/lib/FreeRTOS-Plus-TCP/source\FreeRTOS_IP.c **** 
 609:D:/Work/DeviceTester/amazon-freertos/lib/FreeRTOS-Plus-TCP/source\FreeRTOS_IP.c **** 	#if( ipconfigDNS_USE_CALLBACKS != 0 )
 610:D:/Work/DeviceTester/amazon-freertos/lib/FreeRTOS-Plus-TCP/source\FreeRTOS_IP.c **** 	{
 611:D:/Work/DeviceTester/amazon-freertos/lib/FreeRTOS-Plus-TCP/source\FreeRTOS_IP.c **** 		if( xDNSTimer.bActive != pdFALSE )
 612:D:/Work/DeviceTester/amazon-freertos/lib/FreeRTOS-Plus-TCP/source\FreeRTOS_IP.c **** 		{
 613:D:/Work/DeviceTester/amazon-freertos/lib/FreeRTOS-Plus-TCP/source\FreeRTOS_IP.c **** 			if( xDNSTimer.ulRemainingTime < xMaximumSleepTime )
 614:D:/Work/DeviceTester/amazon-freertos/lib/FreeRTOS-Plus-TCP/source\FreeRTOS_IP.c **** 			{
 615:D:/Work/DeviceTester/amazon-freertos/lib/FreeRTOS-Plus-TCP/source\FreeRTOS_IP.c **** 				xMaximumSleepTime = xDNSTimer.ulRemainingTime;
 616:D:/Work/DeviceTester/amazon-freertos/lib/FreeRTOS-Plus-TCP/source\FreeRTOS_IP.c **** 			}
 617:D:/Work/DeviceTester/amazon-freertos/lib/FreeRTOS-Plus-TCP/source\FreeRTOS_IP.c **** 		}
 618:D:/Work/DeviceTester/amazon-freertos/lib/FreeRTOS-Plus-TCP/source\FreeRTOS_IP.c **** 	}
 619:D:/Work/DeviceTester/amazon-freertos/lib/FreeRTOS-Plus-TCP/source\FreeRTOS_IP.c **** 	#endif
 620:D:/Work/DeviceTester/amazon-freertos/lib/FreeRTOS-Plus-TCP/source\FreeRTOS_IP.c **** 
 621:D:/Work/DeviceTester/amazon-freertos/lib/FreeRTOS-Plus-TCP/source\FreeRTOS_IP.c **** 	return xMaximumSleepTime;
 622:D:/Work/DeviceTester/amazon-freertos/lib/FreeRTOS-Plus-TCP/source\FreeRTOS_IP.c **** }
 623:D:/Work/DeviceTester/amazon-freertos/lib/FreeRTOS-Plus-TCP/source\FreeRTOS_IP.c **** /*-----------------------------------------------------------*/
 624:D:/Work/DeviceTester/amazon-freertos/lib/FreeRTOS-Plus-TCP/source\FreeRTOS_IP.c **** 
 625:D:/Work/DeviceTester/amazon-freertos/lib/FreeRTOS-Plus-TCP/source\FreeRTOS_IP.c **** static void prvCheckNetworkTimers( void )
 626:D:/Work/DeviceTester/amazon-freertos/lib/FreeRTOS-Plus-TCP/source\FreeRTOS_IP.c **** {
 627:D:/Work/DeviceTester/amazon-freertos/lib/FreeRTOS-Plus-TCP/source\FreeRTOS_IP.c **** 	/* Is it time for ARP processing? */
 628:D:/Work/DeviceTester/amazon-freertos/lib/FreeRTOS-Plus-TCP/source\FreeRTOS_IP.c **** 	if( prvIPTimerCheck( &xARPTimer ) != pdFALSE )
 629:D:/Work/DeviceTester/amazon-freertos/lib/FreeRTOS-Plus-TCP/source\FreeRTOS_IP.c **** 	{
 630:D:/Work/DeviceTester/amazon-freertos/lib/FreeRTOS-Plus-TCP/source\FreeRTOS_IP.c **** 		xSendEventToIPTask( eARPTimerEvent );
 631:D:/Work/DeviceTester/amazon-freertos/lib/FreeRTOS-Plus-TCP/source\FreeRTOS_IP.c **** 	}
 632:D:/Work/DeviceTester/amazon-freertos/lib/FreeRTOS-Plus-TCP/source\FreeRTOS_IP.c **** 
 633:D:/Work/DeviceTester/amazon-freertos/lib/FreeRTOS-Plus-TCP/source\FreeRTOS_IP.c **** 	#if( ipconfigUSE_DHCP == 1 )
 634:D:/Work/DeviceTester/amazon-freertos/lib/FreeRTOS-Plus-TCP/source\FreeRTOS_IP.c **** 	{
 635:D:/Work/DeviceTester/amazon-freertos/lib/FreeRTOS-Plus-TCP/source\FreeRTOS_IP.c **** 		/* Is it time for DHCP processing? */
 636:D:/Work/DeviceTester/amazon-freertos/lib/FreeRTOS-Plus-TCP/source\FreeRTOS_IP.c **** 		if( prvIPTimerCheck( &xDHCPTimer ) != pdFALSE )
 637:D:/Work/DeviceTester/amazon-freertos/lib/FreeRTOS-Plus-TCP/source\FreeRTOS_IP.c **** 		{
 638:D:/Work/DeviceTester/amazon-freertos/lib/FreeRTOS-Plus-TCP/source\FreeRTOS_IP.c **** 			xSendEventToIPTask( eDHCPEvent );
 639:D:/Work/DeviceTester/amazon-freertos/lib/FreeRTOS-Plus-TCP/source\FreeRTOS_IP.c **** 		}
 640:D:/Work/DeviceTester/amazon-freertos/lib/FreeRTOS-Plus-TCP/source\FreeRTOS_IP.c **** 	}
 641:D:/Work/DeviceTester/amazon-freertos/lib/FreeRTOS-Plus-TCP/source\FreeRTOS_IP.c **** 	#endif /* ipconfigUSE_DHCP */
 642:D:/Work/DeviceTester/amazon-freertos/lib/FreeRTOS-Plus-TCP/source\FreeRTOS_IP.c **** 
 643:D:/Work/DeviceTester/amazon-freertos/lib/FreeRTOS-Plus-TCP/source\FreeRTOS_IP.c **** 	#if( ipconfigDNS_USE_CALLBACKS != 0 )
 644:D:/Work/DeviceTester/amazon-freertos/lib/FreeRTOS-Plus-TCP/source\FreeRTOS_IP.c **** 	{
 645:D:/Work/DeviceTester/amazon-freertos/lib/FreeRTOS-Plus-TCP/source\FreeRTOS_IP.c **** 	extern void vDNSCheckCallBack( void *pvSearchID );
 646:D:/Work/DeviceTester/amazon-freertos/lib/FreeRTOS-Plus-TCP/source\FreeRTOS_IP.c **** 
 647:D:/Work/DeviceTester/amazon-freertos/lib/FreeRTOS-Plus-TCP/source\FreeRTOS_IP.c **** 		/* Is it time for DNS processing? */
 648:D:/Work/DeviceTester/amazon-freertos/lib/FreeRTOS-Plus-TCP/source\FreeRTOS_IP.c **** 		if( prvIPTimerCheck( &xDNSTimer ) != pdFALSE )
 649:D:/Work/DeviceTester/amazon-freertos/lib/FreeRTOS-Plus-TCP/source\FreeRTOS_IP.c **** 		{
 650:D:/Work/DeviceTester/amazon-freertos/lib/FreeRTOS-Plus-TCP/source\FreeRTOS_IP.c **** 			vDNSCheckCallBack( NULL );
 651:D:/Work/DeviceTester/amazon-freertos/lib/FreeRTOS-Plus-TCP/source\FreeRTOS_IP.c **** 		}
 652:D:/Work/DeviceTester/amazon-freertos/lib/FreeRTOS-Plus-TCP/source\FreeRTOS_IP.c **** 	}
 653:D:/Work/DeviceTester/amazon-freertos/lib/FreeRTOS-Plus-TCP/source\FreeRTOS_IP.c **** 	#endif /* ipconfigDNS_USE_CALLBACKS */
 654:D:/Work/DeviceTester/amazon-freertos/lib/FreeRTOS-Plus-TCP/source\FreeRTOS_IP.c **** 
 655:D:/Work/DeviceTester/amazon-freertos/lib/FreeRTOS-Plus-TCP/source\FreeRTOS_IP.c **** 	#if( ipconfigUSE_TCP == 1 )
 656:D:/Work/DeviceTester/amazon-freertos/lib/FreeRTOS-Plus-TCP/source\FreeRTOS_IP.c **** 	{
 657:D:/Work/DeviceTester/amazon-freertos/lib/FreeRTOS-Plus-TCP/source\FreeRTOS_IP.c **** 	BaseType_t xWillSleep;
 658:D:/Work/DeviceTester/amazon-freertos/lib/FreeRTOS-Plus-TCP/source\FreeRTOS_IP.c **** 	TickType_t xNextTime;
 659:D:/Work/DeviceTester/amazon-freertos/lib/FreeRTOS-Plus-TCP/source\FreeRTOS_IP.c **** 	BaseType_t xCheckTCPSockets;
 660:D:/Work/DeviceTester/amazon-freertos/lib/FreeRTOS-Plus-TCP/source\FreeRTOS_IP.c **** 
 661:D:/Work/DeviceTester/amazon-freertos/lib/FreeRTOS-Plus-TCP/source\FreeRTOS_IP.c **** 		if( uxQueueMessagesWaiting( xNetworkEventQueue ) == 0u )
 662:D:/Work/DeviceTester/amazon-freertos/lib/FreeRTOS-Plus-TCP/source\FreeRTOS_IP.c **** 		{
 663:D:/Work/DeviceTester/amazon-freertos/lib/FreeRTOS-Plus-TCP/source\FreeRTOS_IP.c **** 			xWillSleep = pdTRUE;
 664:D:/Work/DeviceTester/amazon-freertos/lib/FreeRTOS-Plus-TCP/source\FreeRTOS_IP.c **** 		}
 665:D:/Work/DeviceTester/amazon-freertos/lib/FreeRTOS-Plus-TCP/source\FreeRTOS_IP.c **** 		else
 666:D:/Work/DeviceTester/amazon-freertos/lib/FreeRTOS-Plus-TCP/source\FreeRTOS_IP.c **** 		{
 667:D:/Work/DeviceTester/amazon-freertos/lib/FreeRTOS-Plus-TCP/source\FreeRTOS_IP.c **** 			xWillSleep = pdFALSE;
 668:D:/Work/DeviceTester/amazon-freertos/lib/FreeRTOS-Plus-TCP/source\FreeRTOS_IP.c **** 		}
 669:D:/Work/DeviceTester/amazon-freertos/lib/FreeRTOS-Plus-TCP/source\FreeRTOS_IP.c **** 
 670:D:/Work/DeviceTester/amazon-freertos/lib/FreeRTOS-Plus-TCP/source\FreeRTOS_IP.c **** 		/* Sockets need to be checked if the TCP timer has expired. */
 671:D:/Work/DeviceTester/amazon-freertos/lib/FreeRTOS-Plus-TCP/source\FreeRTOS_IP.c **** 		xCheckTCPSockets = prvIPTimerCheck( &xTCPTimer );
 672:D:/Work/DeviceTester/amazon-freertos/lib/FreeRTOS-Plus-TCP/source\FreeRTOS_IP.c **** 
 673:D:/Work/DeviceTester/amazon-freertos/lib/FreeRTOS-Plus-TCP/source\FreeRTOS_IP.c **** 		/* Sockets will also be checked if there are TCP messages but the
 674:D:/Work/DeviceTester/amazon-freertos/lib/FreeRTOS-Plus-TCP/source\FreeRTOS_IP.c **** 		message queue is empty (indicated by xWillSleep being true). */
 675:D:/Work/DeviceTester/amazon-freertos/lib/FreeRTOS-Plus-TCP/source\FreeRTOS_IP.c **** 		if( ( xProcessedTCPMessage != pdFALSE ) && ( xWillSleep != pdFALSE ) )
 676:D:/Work/DeviceTester/amazon-freertos/lib/FreeRTOS-Plus-TCP/source\FreeRTOS_IP.c **** 		{
 677:D:/Work/DeviceTester/amazon-freertos/lib/FreeRTOS-Plus-TCP/source\FreeRTOS_IP.c **** 			xCheckTCPSockets = pdTRUE;
 678:D:/Work/DeviceTester/amazon-freertos/lib/FreeRTOS-Plus-TCP/source\FreeRTOS_IP.c **** 		}
 679:D:/Work/DeviceTester/amazon-freertos/lib/FreeRTOS-Plus-TCP/source\FreeRTOS_IP.c **** 
 680:D:/Work/DeviceTester/amazon-freertos/lib/FreeRTOS-Plus-TCP/source\FreeRTOS_IP.c **** 		if( xCheckTCPSockets != pdFALSE )
 681:D:/Work/DeviceTester/amazon-freertos/lib/FreeRTOS-Plus-TCP/source\FreeRTOS_IP.c **** 		{
 682:D:/Work/DeviceTester/amazon-freertos/lib/FreeRTOS-Plus-TCP/source\FreeRTOS_IP.c **** 			/* Attend to the sockets, returning the period after which the
 683:D:/Work/DeviceTester/amazon-freertos/lib/FreeRTOS-Plus-TCP/source\FreeRTOS_IP.c **** 			check must be repeated. */
 684:D:/Work/DeviceTester/amazon-freertos/lib/FreeRTOS-Plus-TCP/source\FreeRTOS_IP.c **** 			xNextTime = xTCPTimerCheck( xWillSleep );
 685:D:/Work/DeviceTester/amazon-freertos/lib/FreeRTOS-Plus-TCP/source\FreeRTOS_IP.c **** 			prvIPTimerStart( &xTCPTimer, xNextTime );
 686:D:/Work/DeviceTester/amazon-freertos/lib/FreeRTOS-Plus-TCP/source\FreeRTOS_IP.c **** 			xProcessedTCPMessage = 0;
 687:D:/Work/DeviceTester/amazon-freertos/lib/FreeRTOS-Plus-TCP/source\FreeRTOS_IP.c **** 		}
 688:D:/Work/DeviceTester/amazon-freertos/lib/FreeRTOS-Plus-TCP/source\FreeRTOS_IP.c **** 	}
 689:D:/Work/DeviceTester/amazon-freertos/lib/FreeRTOS-Plus-TCP/source\FreeRTOS_IP.c **** 	#endif /* ipconfigUSE_TCP == 1 */
 690:D:/Work/DeviceTester/amazon-freertos/lib/FreeRTOS-Plus-TCP/source\FreeRTOS_IP.c **** }
 691:D:/Work/DeviceTester/amazon-freertos/lib/FreeRTOS-Plus-TCP/source\FreeRTOS_IP.c **** /*-----------------------------------------------------------*/
 692:D:/Work/DeviceTester/amazon-freertos/lib/FreeRTOS-Plus-TCP/source\FreeRTOS_IP.c **** 
 693:D:/Work/DeviceTester/amazon-freertos/lib/FreeRTOS-Plus-TCP/source\FreeRTOS_IP.c **** static void prvIPTimerStart( IPTimer_t *pxTimer, TickType_t xTime )
 694:D:/Work/DeviceTester/amazon-freertos/lib/FreeRTOS-Plus-TCP/source\FreeRTOS_IP.c **** {
 695:D:/Work/DeviceTester/amazon-freertos/lib/FreeRTOS-Plus-TCP/source\FreeRTOS_IP.c **** 	vTaskSetTimeOutState( &pxTimer->xTimeOut );
 696:D:/Work/DeviceTester/amazon-freertos/lib/FreeRTOS-Plus-TCP/source\FreeRTOS_IP.c **** 	pxTimer->ulRemainingTime = xTime;
 697:D:/Work/DeviceTester/amazon-freertos/lib/FreeRTOS-Plus-TCP/source\FreeRTOS_IP.c **** 
 698:D:/Work/DeviceTester/amazon-freertos/lib/FreeRTOS-Plus-TCP/source\FreeRTOS_IP.c **** 	if( xTime == ( TickType_t ) 0 )
 699:D:/Work/DeviceTester/amazon-freertos/lib/FreeRTOS-Plus-TCP/source\FreeRTOS_IP.c **** 	{
 700:D:/Work/DeviceTester/amazon-freertos/lib/FreeRTOS-Plus-TCP/source\FreeRTOS_IP.c **** 		pxTimer->bExpired = pdTRUE_UNSIGNED;
 701:D:/Work/DeviceTester/amazon-freertos/lib/FreeRTOS-Plus-TCP/source\FreeRTOS_IP.c **** 	}
 702:D:/Work/DeviceTester/amazon-freertos/lib/FreeRTOS-Plus-TCP/source\FreeRTOS_IP.c **** 	else
 703:D:/Work/DeviceTester/amazon-freertos/lib/FreeRTOS-Plus-TCP/source\FreeRTOS_IP.c **** 	{
 704:D:/Work/DeviceTester/amazon-freertos/lib/FreeRTOS-Plus-TCP/source\FreeRTOS_IP.c **** 		pxTimer->bExpired = pdFALSE_UNSIGNED;
 705:D:/Work/DeviceTester/amazon-freertos/lib/FreeRTOS-Plus-TCP/source\FreeRTOS_IP.c **** 	}
 706:D:/Work/DeviceTester/amazon-freertos/lib/FreeRTOS-Plus-TCP/source\FreeRTOS_IP.c **** 
 707:D:/Work/DeviceTester/amazon-freertos/lib/FreeRTOS-Plus-TCP/source\FreeRTOS_IP.c **** 	pxTimer->bActive = pdTRUE_UNSIGNED;
 708:D:/Work/DeviceTester/amazon-freertos/lib/FreeRTOS-Plus-TCP/source\FreeRTOS_IP.c **** }
 709:D:/Work/DeviceTester/amazon-freertos/lib/FreeRTOS-Plus-TCP/source\FreeRTOS_IP.c **** /*-----------------------------------------------------------*/
 710:D:/Work/DeviceTester/amazon-freertos/lib/FreeRTOS-Plus-TCP/source\FreeRTOS_IP.c **** 
 711:D:/Work/DeviceTester/amazon-freertos/lib/FreeRTOS-Plus-TCP/source\FreeRTOS_IP.c **** static void prvIPTimerReload( IPTimer_t *pxTimer, TickType_t xTime )
 712:D:/Work/DeviceTester/amazon-freertos/lib/FreeRTOS-Plus-TCP/source\FreeRTOS_IP.c **** {
 713:D:/Work/DeviceTester/amazon-freertos/lib/FreeRTOS-Plus-TCP/source\FreeRTOS_IP.c **** 	pxTimer->ulReloadTime = xTime;
 714:D:/Work/DeviceTester/amazon-freertos/lib/FreeRTOS-Plus-TCP/source\FreeRTOS_IP.c **** 	prvIPTimerStart( pxTimer, xTime );
 715:D:/Work/DeviceTester/amazon-freertos/lib/FreeRTOS-Plus-TCP/source\FreeRTOS_IP.c **** }
 716:D:/Work/DeviceTester/amazon-freertos/lib/FreeRTOS-Plus-TCP/source\FreeRTOS_IP.c **** /*-----------------------------------------------------------*/
 717:D:/Work/DeviceTester/amazon-freertos/lib/FreeRTOS-Plus-TCP/source\FreeRTOS_IP.c **** 
 718:D:/Work/DeviceTester/amazon-freertos/lib/FreeRTOS-Plus-TCP/source\FreeRTOS_IP.c **** static BaseType_t prvIPTimerCheck( IPTimer_t *pxTimer )
 719:D:/Work/DeviceTester/amazon-freertos/lib/FreeRTOS-Plus-TCP/source\FreeRTOS_IP.c **** {
  25              		.loc 1 719 0
  26              		.cfi_startproc
  27              		@ args = 0, pretend = 0, frame = 0
  28              		@ frame_needed = 0, uses_anonymous_args = 0
  29              	.LVL0:
 720:D:/Work/DeviceTester/amazon-freertos/lib/FreeRTOS-Plus-TCP/source\FreeRTOS_IP.c **** BaseType_t xReturn;
 721:D:/Work/DeviceTester/amazon-freertos/lib/FreeRTOS-Plus-TCP/source\FreeRTOS_IP.c **** 
 722:D:/Work/DeviceTester/amazon-freertos/lib/FreeRTOS-Plus-TCP/source\FreeRTOS_IP.c **** 	if( pxTimer->bActive == pdFALSE_UNSIGNED )
  30              		.loc 1 722 0
  31 0000 0030D0E5 		ldrb	r3, [r0]	@ zero_extendqisi2
  32 0004 010013E3 		tst	r3, #1
  33 0008 0100001A 		bne	.L2
 723:D:/Work/DeviceTester/amazon-freertos/lib/FreeRTOS-Plus-TCP/source\FreeRTOS_IP.c **** 	{
 724:D:/Work/DeviceTester/amazon-freertos/lib/FreeRTOS-Plus-TCP/source\FreeRTOS_IP.c **** 		/* The timer is not enabled. */
 725:D:/Work/DeviceTester/amazon-freertos/lib/FreeRTOS-Plus-TCP/source\FreeRTOS_IP.c **** 		xReturn = pdFALSE;
  34              		.loc 1 725 0
  35 000c 0000A0E3 		mov	r0, #0
  36              	.LVL1:
 726:D:/Work/DeviceTester/amazon-freertos/lib/FreeRTOS-Plus-TCP/source\FreeRTOS_IP.c **** 	}
 727:D:/Work/DeviceTester/amazon-freertos/lib/FreeRTOS-Plus-TCP/source\FreeRTOS_IP.c **** 	else
 728:D:/Work/DeviceTester/amazon-freertos/lib/FreeRTOS-Plus-TCP/source\FreeRTOS_IP.c **** 	{
 729:D:/Work/DeviceTester/amazon-freertos/lib/FreeRTOS-Plus-TCP/source\FreeRTOS_IP.c **** 		/* The timer might have set the bExpired flag already, if not, check the
 730:D:/Work/DeviceTester/amazon-freertos/lib/FreeRTOS-Plus-TCP/source\FreeRTOS_IP.c **** 		value of xTimeOut against ulRemainingTime. */
 731:D:/Work/DeviceTester/amazon-freertos/lib/FreeRTOS-Plus-TCP/source\FreeRTOS_IP.c **** 		if( ( pxTimer->bExpired != pdFALSE_UNSIGNED ) ||
 732:D:/Work/DeviceTester/amazon-freertos/lib/FreeRTOS-Plus-TCP/source\FreeRTOS_IP.c **** 			( xTaskCheckForTimeOut( &( pxTimer->xTimeOut ), &( pxTimer->ulRemainingTime ) ) != pdFALSE ) )
 733:D:/Work/DeviceTester/amazon-freertos/lib/FreeRTOS-Plus-TCP/source\FreeRTOS_IP.c **** 		{
 734:D:/Work/DeviceTester/amazon-freertos/lib/FreeRTOS-Plus-TCP/source\FreeRTOS_IP.c **** 			prvIPTimerStart( pxTimer, pxTimer->ulReloadTime );
 735:D:/Work/DeviceTester/amazon-freertos/lib/FreeRTOS-Plus-TCP/source\FreeRTOS_IP.c **** 			xReturn = pdTRUE;
 736:D:/Work/DeviceTester/amazon-freertos/lib/FreeRTOS-Plus-TCP/source\FreeRTOS_IP.c **** 		}
 737:D:/Work/DeviceTester/amazon-freertos/lib/FreeRTOS-Plus-TCP/source\FreeRTOS_IP.c **** 		else
 738:D:/Work/DeviceTester/amazon-freertos/lib/FreeRTOS-Plus-TCP/source\FreeRTOS_IP.c **** 		{
 739:D:/Work/DeviceTester/amazon-freertos/lib/FreeRTOS-Plus-TCP/source\FreeRTOS_IP.c **** 			xReturn = pdFALSE;
 740:D:/Work/DeviceTester/amazon-freertos/lib/FreeRTOS-Plus-TCP/source\FreeRTOS_IP.c **** 		}
 741:D:/Work/DeviceTester/amazon-freertos/lib/FreeRTOS-Plus-TCP/source\FreeRTOS_IP.c **** 	}
 742:D:/Work/DeviceTester/amazon-freertos/lib/FreeRTOS-Plus-TCP/source\FreeRTOS_IP.c **** 
 743:D:/Work/DeviceTester/amazon-freertos/lib/FreeRTOS-Plus-TCP/source\FreeRTOS_IP.c **** 	return xReturn;
 744:D:/Work/DeviceTester/amazon-freertos/lib/FreeRTOS-Plus-TCP/source\FreeRTOS_IP.c **** }
  37              		.loc 1 744 0
  38 0010 1EFF2FE1 		bx	lr
  39              	.LVL2:
  40              	.L2:
 731:D:/Work/DeviceTester/amazon-freertos/lib/FreeRTOS-Plus-TCP/source\FreeRTOS_IP.c **** 			( xTaskCheckForTimeOut( &( pxTimer->xTimeOut ), &( pxTimer->ulRemainingTime ) ) != pdFALSE ) )
  41              		.loc 1 731 0
  42 0014 020013E3 		tst	r3, #2
 719:D:/Work/DeviceTester/amazon-freertos/lib/FreeRTOS-Plus-TCP/source\FreeRTOS_IP.c **** BaseType_t xReturn;
  43              		.loc 1 719 0
  44 0018 70402DE9 		push	{r4, r5, r6, lr}
  45              		.cfi_def_cfa_offset 16
  46              		.cfi_offset 4, -16
  47              		.cfi_offset 5, -12
  48              		.cfi_offset 6, -8
  49              		.cfi_offset 14, -4
  50 001c 0040A0E1 		mov	r4, r0
  51 0020 045080E2 		add	r5, r0, #4
 731:D:/Work/DeviceTester/amazon-freertos/lib/FreeRTOS-Plus-TCP/source\FreeRTOS_IP.c **** 			( xTaskCheckForTimeOut( &( pxTimer->xTimeOut ), &( pxTimer->ulRemainingTime ) ) != pdFALSE ) )
  52              		.loc 1 731 0
  53 0024 0D00000A 		beq	.L4
  54              	.LVL3:
  55              	.L7:
  56              	.LBB15:
  57              	.LBB16:
 734:D:/Work/DeviceTester/amazon-freertos/lib/FreeRTOS-Plus-TCP/source\FreeRTOS_IP.c **** 			xReturn = pdTRUE;
  58              		.loc 1 734 0
  59 0028 106094E5 		ldr	r6, [r4, #16]
  60              	.LVL4:
  61              	.LBB17:
  62              	.LBB18:
 695:D:/Work/DeviceTester/amazon-freertos/lib/FreeRTOS-Plus-TCP/source\FreeRTOS_IP.c **** 	pxTimer->ulRemainingTime = xTime;
  63              		.loc 1 695 0
  64 002c 0500A0E1 		mov	r0, r5
  65 0030 FEFFFFEB 		bl	vTaskSetTimeOutState
  66              	.LVL5:
  67 0034 0030D4E5 		ldrb	r3, [r4]	@ zero_extendqisi2
 698:D:/Work/DeviceTester/amazon-freertos/lib/FreeRTOS-Plus-TCP/source\FreeRTOS_IP.c **** 	{
  68              		.loc 1 698 0
  69 0038 000056E3 		cmp	r6, #0
 696:D:/Work/DeviceTester/amazon-freertos/lib/FreeRTOS-Plus-TCP/source\FreeRTOS_IP.c **** 
  70              		.loc 1 696 0
  71 003c 0C6084E5 		str	r6, [r4, #12]
 704:D:/Work/DeviceTester/amazon-freertos/lib/FreeRTOS-Plus-TCP/source\FreeRTOS_IP.c **** 	}
  72              		.loc 1 704 0
  73 0040 9F30C117 		bfcne	r3, #1, #1
 698:D:/Work/DeviceTester/amazon-freertos/lib/FreeRTOS-Plus-TCP/source\FreeRTOS_IP.c **** 	{
  74              		.loc 1 698 0
 700:D:/Work/DeviceTester/amazon-freertos/lib/FreeRTOS-Plus-TCP/source\FreeRTOS_IP.c **** 	}
  75              		.loc 1 700 0
  76 0044 02308303 		orreq	r3, r3, #2
  77              	.L14:
 704:D:/Work/DeviceTester/amazon-freertos/lib/FreeRTOS-Plus-TCP/source\FreeRTOS_IP.c **** 	}
  78              		.loc 1 704 0
  79 0048 0030C4E5 		strb	r3, [r4]
 707:D:/Work/DeviceTester/amazon-freertos/lib/FreeRTOS-Plus-TCP/source\FreeRTOS_IP.c **** }
  80              		.loc 1 707 0
  81 004c 0100A0E3 		mov	r0, #1
  82 0050 0030D4E5 		ldrb	r3, [r4]	@ zero_extendqisi2
  83 0054 013083E3 		orr	r3, r3, #1
  84 0058 0030C4E5 		strb	r3, [r4]
  85              	.LVL6:
  86              	.LBE18:
  87              	.LBE17:
  88              	.LBE16:
  89              	.LBE15:
  90              		.loc 1 744 0
  91 005c 7080BDE8 		pop	{r4, r5, r6, pc}
  92              	.LVL7:
  93              	.L4:
 732:D:/Work/DeviceTester/amazon-freertos/lib/FreeRTOS-Plus-TCP/source\FreeRTOS_IP.c **** 		{
  94              		.loc 1 732 0 discriminator 1
  95 0060 0C1080E2 		add	r1, r0, #12
  96 0064 0500A0E1 		mov	r0, r5
  97              	.LVL8:
  98 0068 FEFFFFEB 		bl	xTaskCheckForTimeOut
  99              	.LVL9:
 731:D:/Work/DeviceTester/amazon-freertos/lib/FreeRTOS-Plus-TCP/source\FreeRTOS_IP.c **** 			( xTaskCheckForTimeOut( &( pxTimer->xTimeOut ), &( pxTimer->ulRemainingTime ) ) != pdFALSE ) )
 100              		.loc 1 731 0 discriminator 1
 101 006c 000050E3 		cmp	r0, #0
 102 0070 ECFFFF1A 		bne	.L7
 725:D:/Work/DeviceTester/amazon-freertos/lib/FreeRTOS-Plus-TCP/source\FreeRTOS_IP.c **** 	}
 103              		.loc 1 725 0
 104 0074 0000A0E3 		mov	r0, #0
 105 0078 7080BDE8 		pop	{r4, r5, r6, pc}
 106              		.cfi_endproc
 107              	.LFE32:
 109              		.section	.text.xIsCallingFromIPTask,"ax",%progbits
 110              		.align	2
 111              		.global	xIsCallingFromIPTask
 112              		.syntax unified
 113              		.arm
 114              		.fpu neon
 116              	xIsCallingFromIPTask:
 117              	.LFB26:
 519:D:/Work/DeviceTester/amazon-freertos/lib/FreeRTOS-Plus-TCP/source\FreeRTOS_IP.c **** BaseType_t xReturn;
 118              		.loc 1 519 0
 119              		.cfi_startproc
 120              		@ args = 0, pretend = 0, frame = 0
 121              		@ frame_needed = 0, uses_anonymous_args = 0
 122 0000 10402DE9 		push	{r4, lr}
 123              		.cfi_def_cfa_offset 8
 124              		.cfi_offset 4, -8
 125              		.cfi_offset 14, -4
 522:D:/Work/DeviceTester/amazon-freertos/lib/FreeRTOS-Plus-TCP/source\FreeRTOS_IP.c **** 	{
 126              		.loc 1 522 0
 127 0004 FEFFFFEB 		bl	xTaskGetCurrentTaskHandle
 128              	.LVL10:
 129 0008 10309FE5 		ldr	r3, .L17
 130 000c 003093E5 		ldr	r3, [r3]
 532:D:/Work/DeviceTester/amazon-freertos/lib/FreeRTOS-Plus-TCP/source\FreeRTOS_IP.c **** /*-----------------------------------------------------------*/
 131              		.loc 1 532 0
 132 0010 000043E0 		sub	r0, r3, r0
 133              	.LVL11:
 134 0014 100F6FE1 		clz	r0, r0
 135 0018 A002A0E1 		lsr	r0, r0, #5
 136 001c 1080BDE8 		pop	{r4, pc}
 137              	.L18:
 138              		.align	2
 139              	.L17:
 140 0020 00000000 		.word	.LANCHOR0
 141              		.cfi_endproc
 142              	.LFE26:
 144              		.section	.text.FreeRTOS_NetworkDownFromISR,"ax",%progbits
 145              		.align	2
 146              		.global	FreeRTOS_NetworkDownFromISR
 147              		.syntax unified
 148              		.arm
 149              		.fpu neon
 151              	FreeRTOS_NetworkDownFromISR:
 152              	.LFB34:
 745:D:/Work/DeviceTester/amazon-freertos/lib/FreeRTOS-Plus-TCP/source\FreeRTOS_IP.c **** /*-----------------------------------------------------------*/
 746:D:/Work/DeviceTester/amazon-freertos/lib/FreeRTOS-Plus-TCP/source\FreeRTOS_IP.c **** 
 747:D:/Work/DeviceTester/amazon-freertos/lib/FreeRTOS-Plus-TCP/source\FreeRTOS_IP.c **** void FreeRTOS_NetworkDown( void )
 748:D:/Work/DeviceTester/amazon-freertos/lib/FreeRTOS-Plus-TCP/source\FreeRTOS_IP.c **** {
 749:D:/Work/DeviceTester/amazon-freertos/lib/FreeRTOS-Plus-TCP/source\FreeRTOS_IP.c **** static const IPStackEvent_t xNetworkDownEvent = { eNetworkDownEvent, NULL };
 750:D:/Work/DeviceTester/amazon-freertos/lib/FreeRTOS-Plus-TCP/source\FreeRTOS_IP.c **** const TickType_t xDontBlock = ( TickType_t ) 0;
 751:D:/Work/DeviceTester/amazon-freertos/lib/FreeRTOS-Plus-TCP/source\FreeRTOS_IP.c **** 
 752:D:/Work/DeviceTester/amazon-freertos/lib/FreeRTOS-Plus-TCP/source\FreeRTOS_IP.c **** 	/* Simply send the network task the appropriate event. */
 753:D:/Work/DeviceTester/amazon-freertos/lib/FreeRTOS-Plus-TCP/source\FreeRTOS_IP.c **** 	if( xSendEventStructToIPTask( &xNetworkDownEvent, xDontBlock ) != pdPASS )
 754:D:/Work/DeviceTester/amazon-freertos/lib/FreeRTOS-Plus-TCP/source\FreeRTOS_IP.c **** 	{
 755:D:/Work/DeviceTester/amazon-freertos/lib/FreeRTOS-Plus-TCP/source\FreeRTOS_IP.c **** 		/* Could not send the message, so it is still pending. */
 756:D:/Work/DeviceTester/amazon-freertos/lib/FreeRTOS-Plus-TCP/source\FreeRTOS_IP.c **** 		xNetworkDownEventPending = pdTRUE;
 757:D:/Work/DeviceTester/amazon-freertos/lib/FreeRTOS-Plus-TCP/source\FreeRTOS_IP.c **** 	}
 758:D:/Work/DeviceTester/amazon-freertos/lib/FreeRTOS-Plus-TCP/source\FreeRTOS_IP.c **** 	else
 759:D:/Work/DeviceTester/amazon-freertos/lib/FreeRTOS-Plus-TCP/source\FreeRTOS_IP.c **** 	{
 760:D:/Work/DeviceTester/amazon-freertos/lib/FreeRTOS-Plus-TCP/source\FreeRTOS_IP.c **** 		/* Message was sent so it is not pending. */
 761:D:/Work/DeviceTester/amazon-freertos/lib/FreeRTOS-Plus-TCP/source\FreeRTOS_IP.c **** 		xNetworkDownEventPending = pdFALSE;
 762:D:/Work/DeviceTester/amazon-freertos/lib/FreeRTOS-Plus-TCP/source\FreeRTOS_IP.c **** 	}
 763:D:/Work/DeviceTester/amazon-freertos/lib/FreeRTOS-Plus-TCP/source\FreeRTOS_IP.c **** 
 764:D:/Work/DeviceTester/amazon-freertos/lib/FreeRTOS-Plus-TCP/source\FreeRTOS_IP.c **** 	iptraceNETWORK_DOWN();
 765:D:/Work/DeviceTester/amazon-freertos/lib/FreeRTOS-Plus-TCP/source\FreeRTOS_IP.c **** }
 766:D:/Work/DeviceTester/amazon-freertos/lib/FreeRTOS-Plus-TCP/source\FreeRTOS_IP.c **** /*-----------------------------------------------------------*/
 767:D:/Work/DeviceTester/amazon-freertos/lib/FreeRTOS-Plus-TCP/source\FreeRTOS_IP.c **** 
 768:D:/Work/DeviceTester/amazon-freertos/lib/FreeRTOS-Plus-TCP/source\FreeRTOS_IP.c **** BaseType_t FreeRTOS_NetworkDownFromISR( void )
 769:D:/Work/DeviceTester/amazon-freertos/lib/FreeRTOS-Plus-TCP/source\FreeRTOS_IP.c **** {
 153              		.loc 1 769 0
 154              		.cfi_startproc
 155              		@ args = 0, pretend = 0, frame = 8
 156              		@ frame_needed = 0, uses_anonymous_args = 0
 157 0000 13402DE9 		push	{r0, r1, r4, lr}
 158              		.cfi_def_cfa_offset 16
 159              		.cfi_offset 4, -8
 160              		.cfi_offset 14, -4
 770:D:/Work/DeviceTester/amazon-freertos/lib/FreeRTOS-Plus-TCP/source\FreeRTOS_IP.c **** static const IPStackEvent_t xNetworkDownEvent = { eNetworkDownEvent, NULL };
 771:D:/Work/DeviceTester/amazon-freertos/lib/FreeRTOS-Plus-TCP/source\FreeRTOS_IP.c **** BaseType_t xHigherPriorityTaskWoken = pdFALSE;
 161              		.loc 1 771 0
 162 0004 0040A0E3 		mov	r4, #0
 772:D:/Work/DeviceTester/amazon-freertos/lib/FreeRTOS-Plus-TCP/source\FreeRTOS_IP.c **** 
 773:D:/Work/DeviceTester/amazon-freertos/lib/FreeRTOS-Plus-TCP/source\FreeRTOS_IP.c **** 	/* Simply send the network task the appropriate event. */
 774:D:/Work/DeviceTester/amazon-freertos/lib/FreeRTOS-Plus-TCP/source\FreeRTOS_IP.c **** 	if( xQueueSendToBackFromISR( xNetworkEventQueue, &xNetworkDownEvent, &xHigherPriorityTaskWoken ) !
 163              		.loc 1 774 0
 164 0008 34009FE5 		ldr	r0, .L23
 771:D:/Work/DeviceTester/amazon-freertos/lib/FreeRTOS-Plus-TCP/source\FreeRTOS_IP.c **** 
 165              		.loc 1 771 0
 166 000c 08208DE2 		add	r2, sp, #8
 167              		.loc 1 774 0
 168 0010 0430A0E1 		mov	r3, r4
 771:D:/Work/DeviceTester/amazon-freertos/lib/FreeRTOS-Plus-TCP/source\FreeRTOS_IP.c **** 
 169              		.loc 1 771 0
 170 0014 044022E5 		str	r4, [r2, #-4]!
 171              		.loc 1 774 0
 172 0018 28109FE5 		ldr	r1, .L23+4
 173 001c 000090E5 		ldr	r0, [r0]
 174 0020 FEFFFFEB 		bl	xQueueGenericSendFromISR
 175              	.LVL12:
 176 0024 20309FE5 		ldr	r3, .L23+8
 177 0028 010050E3 		cmp	r0, #1
 775:D:/Work/DeviceTester/amazon-freertos/lib/FreeRTOS-Plus-TCP/source\FreeRTOS_IP.c **** 	{
 776:D:/Work/DeviceTester/amazon-freertos/lib/FreeRTOS-Plus-TCP/source\FreeRTOS_IP.c **** 		xNetworkDownEventPending = pdTRUE;
 178              		.loc 1 776 0
 179 002c 0120A013 		movne	r2, #1
 777:D:/Work/DeviceTester/amazon-freertos/lib/FreeRTOS-Plus-TCP/source\FreeRTOS_IP.c **** 	}
 778:D:/Work/DeviceTester/amazon-freertos/lib/FreeRTOS-Plus-TCP/source\FreeRTOS_IP.c **** 	else
 779:D:/Work/DeviceTester/amazon-freertos/lib/FreeRTOS-Plus-TCP/source\FreeRTOS_IP.c **** 	{
 780:D:/Work/DeviceTester/amazon-freertos/lib/FreeRTOS-Plus-TCP/source\FreeRTOS_IP.c **** 		xNetworkDownEventPending = pdFALSE;
 781:D:/Work/DeviceTester/amazon-freertos/lib/FreeRTOS-Plus-TCP/source\FreeRTOS_IP.c **** 	}
 782:D:/Work/DeviceTester/amazon-freertos/lib/FreeRTOS-Plus-TCP/source\FreeRTOS_IP.c **** 
 783:D:/Work/DeviceTester/amazon-freertos/lib/FreeRTOS-Plus-TCP/source\FreeRTOS_IP.c **** 	iptraceNETWORK_DOWN();
 784:D:/Work/DeviceTester/amazon-freertos/lib/FreeRTOS-Plus-TCP/source\FreeRTOS_IP.c **** 
 785:D:/Work/DeviceTester/amazon-freertos/lib/FreeRTOS-Plus-TCP/source\FreeRTOS_IP.c **** 	return xHigherPriorityTaskWoken;
 786:D:/Work/DeviceTester/amazon-freertos/lib/FreeRTOS-Plus-TCP/source\FreeRTOS_IP.c **** }
 180              		.loc 1 786 0
 181 0030 04009DE5 		ldr	r0, [sp, #4]
 776:D:/Work/DeviceTester/amazon-freertos/lib/FreeRTOS-Plus-TCP/source\FreeRTOS_IP.c **** 	}
 182              		.loc 1 776 0
 183 0034 00208315 		strne	r2, [r3]
 780:D:/Work/DeviceTester/amazon-freertos/lib/FreeRTOS-Plus-TCP/source\FreeRTOS_IP.c **** 	}
 184              		.loc 1 780 0
 185 0038 00408305 		streq	r4, [r3]
 186              		.loc 1 786 0
 187 003c 08D08DE2 		add	sp, sp, #8
 188              		.cfi_def_cfa_offset 8
 189              		@ sp needed
 190 0040 1080BDE8 		pop	{r4, pc}
 191              	.L24:
 192              		.align	2
 193              	.L23:
 194 0044 00000000 		.word	.LANCHOR2
 195 0048 00000000 		.word	.LANCHOR1
 196 004c 00000000 		.word	.LANCHOR3
 197              		.cfi_endproc
 198              	.LFE34:
 200              		.section	.text.FreeRTOS_GetUDPPayloadBuffer,"ax",%progbits
 201              		.align	2
 202              		.global	FreeRTOS_GetUDPPayloadBuffer
 203              		.syntax unified
 204              		.arm
 205              		.fpu neon
 207              	FreeRTOS_GetUDPPayloadBuffer:
 208              	.LFB35:
 787:D:/Work/DeviceTester/amazon-freertos/lib/FreeRTOS-Plus-TCP/source\FreeRTOS_IP.c **** /*-----------------------------------------------------------*/
 788:D:/Work/DeviceTester/amazon-freertos/lib/FreeRTOS-Plus-TCP/source\FreeRTOS_IP.c **** 
 789:D:/Work/DeviceTester/amazon-freertos/lib/FreeRTOS-Plus-TCP/source\FreeRTOS_IP.c **** void *FreeRTOS_GetUDPPayloadBuffer( size_t xRequestedSizeBytes, TickType_t xBlockTimeTicks )
 790:D:/Work/DeviceTester/amazon-freertos/lib/FreeRTOS-Plus-TCP/source\FreeRTOS_IP.c **** {
 209              		.loc 1 790 0
 210              		.cfi_startproc
 211              		@ args = 0, pretend = 0, frame = 0
 212              		@ frame_needed = 0, uses_anonymous_args = 0
 213              	.LVL13:
 791:D:/Work/DeviceTester/amazon-freertos/lib/FreeRTOS-Plus-TCP/source\FreeRTOS_IP.c **** NetworkBufferDescriptor_t *pxNetworkBuffer;
 792:D:/Work/DeviceTester/amazon-freertos/lib/FreeRTOS-Plus-TCP/source\FreeRTOS_IP.c **** void *pvReturn;
 793:D:/Work/DeviceTester/amazon-freertos/lib/FreeRTOS-Plus-TCP/source\FreeRTOS_IP.c **** 
 794:D:/Work/DeviceTester/amazon-freertos/lib/FreeRTOS-Plus-TCP/source\FreeRTOS_IP.c **** 	/* Cap the block time.  The reason for this is explained where
 795:D:/Work/DeviceTester/amazon-freertos/lib/FreeRTOS-Plus-TCP/source\FreeRTOS_IP.c **** 	ipconfigUDP_MAX_SEND_BLOCK_TIME_TICKS is defined (assuming an official
 796:D:/Work/DeviceTester/amazon-freertos/lib/FreeRTOS-Plus-TCP/source\FreeRTOS_IP.c **** 	FreeRTOSIPConfig.h header file is being used). */
 797:D:/Work/DeviceTester/amazon-freertos/lib/FreeRTOS-Plus-TCP/source\FreeRTOS_IP.c **** 	if( xBlockTimeTicks > ipconfigUDP_MAX_SEND_BLOCK_TIME_TICKS )
 798:D:/Work/DeviceTester/amazon-freertos/lib/FreeRTOS-Plus-TCP/source\FreeRTOS_IP.c **** 	{
 799:D:/Work/DeviceTester/amazon-freertos/lib/FreeRTOS-Plus-TCP/source\FreeRTOS_IP.c **** 		xBlockTimeTicks = ipconfigUDP_MAX_SEND_BLOCK_TIME_TICKS;
 800:D:/Work/DeviceTester/amazon-freertos/lib/FreeRTOS-Plus-TCP/source\FreeRTOS_IP.c **** 	}
 801:D:/Work/DeviceTester/amazon-freertos/lib/FreeRTOS-Plus-TCP/source\FreeRTOS_IP.c **** 
 802:D:/Work/DeviceTester/amazon-freertos/lib/FreeRTOS-Plus-TCP/source\FreeRTOS_IP.c **** 	/* Obtain a network buffer with the required amount of storage. */
 803:D:/Work/DeviceTester/amazon-freertos/lib/FreeRTOS-Plus-TCP/source\FreeRTOS_IP.c **** 	pxNetworkBuffer = pxGetNetworkBufferWithDescriptor( sizeof( UDPPacket_t ) + xRequestedSizeBytes, x
 214              		.loc 1 803 0
 215 0000 883301E3 		movw	r3, #5000
 790:D:/Work/DeviceTester/amazon-freertos/lib/FreeRTOS-Plus-TCP/source\FreeRTOS_IP.c **** NetworkBufferDescriptor_t *pxNetworkBuffer;
 216              		.loc 1 790 0
 217 0004 10402DE9 		push	{r4, lr}
 218              		.cfi_def_cfa_offset 8
 219              		.cfi_offset 4, -8
 220              		.cfi_offset 14, -4
 221              		.loc 1 803 0
 222 0008 030051E1 		cmp	r1, r3
 223 000c 2A4080E2 		add	r4, r0, #42
 224 0010 0310A021 		movcs	r1, r3
 225              	.LVL14:
 226 0014 0400A0E1 		mov	r0, r4
 227              	.LVL15:
 228 0018 FEFFFFEB 		bl	pxGetNetworkBufferWithDescriptor
 229              	.LVL16:
 804:D:/Work/DeviceTester/amazon-freertos/lib/FreeRTOS-Plus-TCP/source\FreeRTOS_IP.c **** 
 805:D:/Work/DeviceTester/amazon-freertos/lib/FreeRTOS-Plus-TCP/source\FreeRTOS_IP.c **** 	if( pxNetworkBuffer != NULL )
 230              		.loc 1 805 0
 231 001c 000050E3 		cmp	r0, #0
 806:D:/Work/DeviceTester/amazon-freertos/lib/FreeRTOS-Plus-TCP/source\FreeRTOS_IP.c **** 	{
 807:D:/Work/DeviceTester/amazon-freertos/lib/FreeRTOS-Plus-TCP/source\FreeRTOS_IP.c **** 		/* Set the actual packet size in case a bigger buffer was returned. */
 808:D:/Work/DeviceTester/amazon-freertos/lib/FreeRTOS-Plus-TCP/source\FreeRTOS_IP.c **** 		pxNetworkBuffer->xDataLength = sizeof( UDPPacket_t ) + xRequestedSizeBytes;
 232              		.loc 1 808 0
 233 0020 1C408015 		strne	r4, [r0, #28]
 809:D:/Work/DeviceTester/amazon-freertos/lib/FreeRTOS-Plus-TCP/source\FreeRTOS_IP.c **** 
 810:D:/Work/DeviceTester/amazon-freertos/lib/FreeRTOS-Plus-TCP/source\FreeRTOS_IP.c **** 		/* Leave space for the UPD header. */
 811:D:/Work/DeviceTester/amazon-freertos/lib/FreeRTOS-Plus-TCP/source\FreeRTOS_IP.c **** 		pvReturn = ( void * ) &( pxNetworkBuffer->pucEthernetBuffer[ ipUDP_PAYLOAD_OFFSET_IPv4 ] );
 234              		.loc 1 811 0
 235 0024 18009015 		ldrne	r0, [r0, #24]
 236              	.LVL17:
 237 0028 2A008012 		addne	r0, r0, #42
 238              	.LVL18:
 812:D:/Work/DeviceTester/amazon-freertos/lib/FreeRTOS-Plus-TCP/source\FreeRTOS_IP.c **** 	}
 813:D:/Work/DeviceTester/amazon-freertos/lib/FreeRTOS-Plus-TCP/source\FreeRTOS_IP.c **** 	else
 814:D:/Work/DeviceTester/amazon-freertos/lib/FreeRTOS-Plus-TCP/source\FreeRTOS_IP.c **** 	{
 815:D:/Work/DeviceTester/amazon-freertos/lib/FreeRTOS-Plus-TCP/source\FreeRTOS_IP.c **** 		pvReturn = NULL;
 816:D:/Work/DeviceTester/amazon-freertos/lib/FreeRTOS-Plus-TCP/source\FreeRTOS_IP.c **** 	}
 817:D:/Work/DeviceTester/amazon-freertos/lib/FreeRTOS-Plus-TCP/source\FreeRTOS_IP.c **** 
 818:D:/Work/DeviceTester/amazon-freertos/lib/FreeRTOS-Plus-TCP/source\FreeRTOS_IP.c **** 	return ( void * ) pvReturn;
 819:D:/Work/DeviceTester/amazon-freertos/lib/FreeRTOS-Plus-TCP/source\FreeRTOS_IP.c **** }
 239              		.loc 1 819 0
 240 002c 1080BDE8 		pop	{r4, pc}
 241              		.cfi_endproc
 242              	.LFE35:
 244              		.section	.text.pxDuplicateNetworkBufferWithDescriptor,"ax",%progbits
 245              		.align	2
 246              		.global	pxDuplicateNetworkBufferWithDescriptor
 247              		.syntax unified
 248              		.arm
 249              		.fpu neon
 251              	pxDuplicateNetworkBufferWithDescriptor:
 252              	.LFB36:
 820:D:/Work/DeviceTester/amazon-freertos/lib/FreeRTOS-Plus-TCP/source\FreeRTOS_IP.c **** /*-----------------------------------------------------------*/
 821:D:/Work/DeviceTester/amazon-freertos/lib/FreeRTOS-Plus-TCP/source\FreeRTOS_IP.c **** 
 822:D:/Work/DeviceTester/amazon-freertos/lib/FreeRTOS-Plus-TCP/source\FreeRTOS_IP.c **** NetworkBufferDescriptor_t *pxDuplicateNetworkBufferWithDescriptor( NetworkBufferDescriptor_t * cons
 823:D:/Work/DeviceTester/amazon-freertos/lib/FreeRTOS-Plus-TCP/source\FreeRTOS_IP.c **** 	BaseType_t xNewLength )
 824:D:/Work/DeviceTester/amazon-freertos/lib/FreeRTOS-Plus-TCP/source\FreeRTOS_IP.c **** {
 253              		.loc 1 824 0
 254              		.cfi_startproc
 255              		@ args = 0, pretend = 0, frame = 0
 256              		@ frame_needed = 0, uses_anonymous_args = 0
 257              	.LVL19:
 258 0000 70402DE9 		push	{r4, r5, r6, lr}
 259              		.cfi_def_cfa_offset 16
 260              		.cfi_offset 4, -16
 261              		.cfi_offset 5, -12
 262              		.cfi_offset 6, -8
 263              		.cfi_offset 14, -4
 264              		.loc 1 824 0
 265 0004 0160A0E1 		mov	r6, r1
 266 0008 0050A0E1 		mov	r5, r0
 825:D:/Work/DeviceTester/amazon-freertos/lib/FreeRTOS-Plus-TCP/source\FreeRTOS_IP.c **** NetworkBufferDescriptor_t * pxNewBuffer;
 826:D:/Work/DeviceTester/amazon-freertos/lib/FreeRTOS-Plus-TCP/source\FreeRTOS_IP.c **** 
 827:D:/Work/DeviceTester/amazon-freertos/lib/FreeRTOS-Plus-TCP/source\FreeRTOS_IP.c **** 	/* This function is only used when 'ipconfigZERO_COPY_TX_DRIVER' is set to 1.
 828:D:/Work/DeviceTester/amazon-freertos/lib/FreeRTOS-Plus-TCP/source\FreeRTOS_IP.c **** 	The transmit routine wants to have ownership of the network buffer
 829:D:/Work/DeviceTester/amazon-freertos/lib/FreeRTOS-Plus-TCP/source\FreeRTOS_IP.c **** 	descriptor, because it will pass the buffer straight to DMA. */
 830:D:/Work/DeviceTester/amazon-freertos/lib/FreeRTOS-Plus-TCP/source\FreeRTOS_IP.c **** 	pxNewBuffer = pxGetNetworkBufferWithDescriptor( ( size_t ) xNewLength, ( TickType_t ) 0 );
 267              		.loc 1 830 0
 268 000c 0010A0E3 		mov	r1, #0
 269              	.LVL20:
 270 0010 0600A0E1 		mov	r0, r6
 271              	.LVL21:
 272 0014 FEFFFFEB 		bl	pxGetNetworkBufferWithDescriptor
 273              	.LVL22:
 831:D:/Work/DeviceTester/amazon-freertos/lib/FreeRTOS-Plus-TCP/source\FreeRTOS_IP.c **** 
 832:D:/Work/DeviceTester/amazon-freertos/lib/FreeRTOS-Plus-TCP/source\FreeRTOS_IP.c **** 	if( pxNewBuffer != NULL )
 274              		.loc 1 832 0
 275 0018 004050E2 		subs	r4, r0, #0
 276 001c 0A00000A 		beq	.L29
 833:D:/Work/DeviceTester/amazon-freertos/lib/FreeRTOS-Plus-TCP/source\FreeRTOS_IP.c **** 	{
 834:D:/Work/DeviceTester/amazon-freertos/lib/FreeRTOS-Plus-TCP/source\FreeRTOS_IP.c **** 		/* Set the actual packet size in case a bigger buffer than requested
 835:D:/Work/DeviceTester/amazon-freertos/lib/FreeRTOS-Plus-TCP/source\FreeRTOS_IP.c **** 		was returned. */
 836:D:/Work/DeviceTester/amazon-freertos/lib/FreeRTOS-Plus-TCP/source\FreeRTOS_IP.c **** 		pxNewBuffer->xDataLength = xNewLength;
 837:D:/Work/DeviceTester/amazon-freertos/lib/FreeRTOS-Plus-TCP/source\FreeRTOS_IP.c **** 
 838:D:/Work/DeviceTester/amazon-freertos/lib/FreeRTOS-Plus-TCP/source\FreeRTOS_IP.c **** 		/* Copy the original packet information. */
 839:D:/Work/DeviceTester/amazon-freertos/lib/FreeRTOS-Plus-TCP/source\FreeRTOS_IP.c **** 		pxNewBuffer->ulIPAddress = pxNetworkBuffer->ulIPAddress;
 277              		.loc 1 839 0
 278 0020 143095E5 		ldr	r3, [r5, #20]
 836:D:/Work/DeviceTester/amazon-freertos/lib/FreeRTOS-Plus-TCP/source\FreeRTOS_IP.c **** 
 279              		.loc 1 836 0
 280 0024 1C6084E5 		str	r6, [r4, #28]
 840:D:/Work/DeviceTester/amazon-freertos/lib/FreeRTOS-Plus-TCP/source\FreeRTOS_IP.c **** 		pxNewBuffer->usPort = pxNetworkBuffer->usPort;
 841:D:/Work/DeviceTester/amazon-freertos/lib/FreeRTOS-Plus-TCP/source\FreeRTOS_IP.c **** 		pxNewBuffer->usBoundPort = pxNetworkBuffer->usBoundPort;
 842:D:/Work/DeviceTester/amazon-freertos/lib/FreeRTOS-Plus-TCP/source\FreeRTOS_IP.c **** 		memcpy( pxNewBuffer->pucEthernetBuffer, pxNetworkBuffer->pucEthernetBuffer, pxNetworkBuffer->xDat
 281              		.loc 1 842 0
 282 0028 181095E5 		ldr	r1, [r5, #24]
 839:D:/Work/DeviceTester/amazon-freertos/lib/FreeRTOS-Plus-TCP/source\FreeRTOS_IP.c **** 		pxNewBuffer->usPort = pxNetworkBuffer->usPort;
 283              		.loc 1 839 0
 284 002c 143084E5 		str	r3, [r4, #20]
 840:D:/Work/DeviceTester/amazon-freertos/lib/FreeRTOS-Plus-TCP/source\FreeRTOS_IP.c **** 		pxNewBuffer->usPort = pxNetworkBuffer->usPort;
 285              		.loc 1 840 0
 286 0030 B032D5E1 		ldrh	r3, [r5, #32]
 287              		.loc 1 842 0
 288 0034 1C2095E5 		ldr	r2, [r5, #28]
 289 0038 180094E5 		ldr	r0, [r4, #24]
 290              	.LVL23:
 840:D:/Work/DeviceTester/amazon-freertos/lib/FreeRTOS-Plus-TCP/source\FreeRTOS_IP.c **** 		pxNewBuffer->usPort = pxNetworkBuffer->usPort;
 291              		.loc 1 840 0
 292 003c B032C4E1 		strh	r3, [r4, #32]	@ movhi
 841:D:/Work/DeviceTester/amazon-freertos/lib/FreeRTOS-Plus-TCP/source\FreeRTOS_IP.c **** 		memcpy( pxNewBuffer->pucEthernetBuffer, pxNetworkBuffer->pucEthernetBuffer, pxNetworkBuffer->xDat
 293              		.loc 1 841 0
 294 0040 B232D5E1 		ldrh	r3, [r5, #34]
 295 0044 B232C4E1 		strh	r3, [r4, #34]	@ movhi
 296              		.loc 1 842 0
 297 0048 FEFFFFEB 		bl	memcpy
 298              	.LVL24:
 299              	.L29:
 843:D:/Work/DeviceTester/amazon-freertos/lib/FreeRTOS-Plus-TCP/source\FreeRTOS_IP.c **** 	}
 844:D:/Work/DeviceTester/amazon-freertos/lib/FreeRTOS-Plus-TCP/source\FreeRTOS_IP.c **** 
 845:D:/Work/DeviceTester/amazon-freertos/lib/FreeRTOS-Plus-TCP/source\FreeRTOS_IP.c **** 	return pxNewBuffer;
 846:D:/Work/DeviceTester/amazon-freertos/lib/FreeRTOS-Plus-TCP/source\FreeRTOS_IP.c **** }
 300              		.loc 1 846 0
 301 004c 0400A0E1 		mov	r0, r4
 302 0050 7080BDE8 		pop	{r4, r5, r6, pc}
 303              		.cfi_endproc
 304              	.LFE36:
 306              		.section	.text.pxUDPPayloadBuffer_to_NetworkBuffer,"ax",%progbits
 307              		.align	2
 308              		.global	pxUDPPayloadBuffer_to_NetworkBuffer
 309              		.syntax unified
 310              		.arm
 311              		.fpu neon
 313              	pxUDPPayloadBuffer_to_NetworkBuffer:
 314              	.LFB37:
 847:D:/Work/DeviceTester/amazon-freertos/lib/FreeRTOS-Plus-TCP/source\FreeRTOS_IP.c **** /*-----------------------------------------------------------*/
 848:D:/Work/DeviceTester/amazon-freertos/lib/FreeRTOS-Plus-TCP/source\FreeRTOS_IP.c **** 
 849:D:/Work/DeviceTester/amazon-freertos/lib/FreeRTOS-Plus-TCP/source\FreeRTOS_IP.c **** #if( ipconfigZERO_COPY_TX_DRIVER != 0 ) || ( ipconfigZERO_COPY_RX_DRIVER != 0 )
 850:D:/Work/DeviceTester/amazon-freertos/lib/FreeRTOS-Plus-TCP/source\FreeRTOS_IP.c **** 
 851:D:/Work/DeviceTester/amazon-freertos/lib/FreeRTOS-Plus-TCP/source\FreeRTOS_IP.c **** 	NetworkBufferDescriptor_t *pxPacketBuffer_to_NetworkBuffer( const void *pvBuffer )
 852:D:/Work/DeviceTester/amazon-freertos/lib/FreeRTOS-Plus-TCP/source\FreeRTOS_IP.c **** 	{
 853:D:/Work/DeviceTester/amazon-freertos/lib/FreeRTOS-Plus-TCP/source\FreeRTOS_IP.c **** 	uint8_t *pucBuffer;
 854:D:/Work/DeviceTester/amazon-freertos/lib/FreeRTOS-Plus-TCP/source\FreeRTOS_IP.c **** 	NetworkBufferDescriptor_t *pxResult;
 855:D:/Work/DeviceTester/amazon-freertos/lib/FreeRTOS-Plus-TCP/source\FreeRTOS_IP.c **** 
 856:D:/Work/DeviceTester/amazon-freertos/lib/FreeRTOS-Plus-TCP/source\FreeRTOS_IP.c **** 		if( pvBuffer == NULL )
 857:D:/Work/DeviceTester/amazon-freertos/lib/FreeRTOS-Plus-TCP/source\FreeRTOS_IP.c **** 		{
 858:D:/Work/DeviceTester/amazon-freertos/lib/FreeRTOS-Plus-TCP/source\FreeRTOS_IP.c **** 			pxResult = NULL;
 859:D:/Work/DeviceTester/amazon-freertos/lib/FreeRTOS-Plus-TCP/source\FreeRTOS_IP.c **** 		}
 860:D:/Work/DeviceTester/amazon-freertos/lib/FreeRTOS-Plus-TCP/source\FreeRTOS_IP.c **** 		else
 861:D:/Work/DeviceTester/amazon-freertos/lib/FreeRTOS-Plus-TCP/source\FreeRTOS_IP.c **** 		{
 862:D:/Work/DeviceTester/amazon-freertos/lib/FreeRTOS-Plus-TCP/source\FreeRTOS_IP.c **** 			/* Obtain the network buffer from the zero copy pointer. */
 863:D:/Work/DeviceTester/amazon-freertos/lib/FreeRTOS-Plus-TCP/source\FreeRTOS_IP.c **** 			pucBuffer = ( uint8_t * ) pvBuffer;
 864:D:/Work/DeviceTester/amazon-freertos/lib/FreeRTOS-Plus-TCP/source\FreeRTOS_IP.c **** 
 865:D:/Work/DeviceTester/amazon-freertos/lib/FreeRTOS-Plus-TCP/source\FreeRTOS_IP.c **** 			/* The input here is a pointer to a payload buffer.  Subtract the
 866:D:/Work/DeviceTester/amazon-freertos/lib/FreeRTOS-Plus-TCP/source\FreeRTOS_IP.c **** 			size of the header in the network buffer, usually 8 + 2 bytes. */
 867:D:/Work/DeviceTester/amazon-freertos/lib/FreeRTOS-Plus-TCP/source\FreeRTOS_IP.c **** 			pucBuffer -= ipBUFFER_PADDING;
 868:D:/Work/DeviceTester/amazon-freertos/lib/FreeRTOS-Plus-TCP/source\FreeRTOS_IP.c **** 
 869:D:/Work/DeviceTester/amazon-freertos/lib/FreeRTOS-Plus-TCP/source\FreeRTOS_IP.c **** 			/* Here a pointer was placed to the network descriptor.  As a
 870:D:/Work/DeviceTester/amazon-freertos/lib/FreeRTOS-Plus-TCP/source\FreeRTOS_IP.c **** 			pointer is dereferenced, make sure it is well aligned. */
 871:D:/Work/DeviceTester/amazon-freertos/lib/FreeRTOS-Plus-TCP/source\FreeRTOS_IP.c **** 			if( ( ( ( uint32_t ) pucBuffer ) & ( sizeof( pucBuffer ) - ( size_t ) 1 ) ) == ( uint32_t ) 0 )
 872:D:/Work/DeviceTester/amazon-freertos/lib/FreeRTOS-Plus-TCP/source\FreeRTOS_IP.c **** 			{
 873:D:/Work/DeviceTester/amazon-freertos/lib/FreeRTOS-Plus-TCP/source\FreeRTOS_IP.c **** 				pxResult = * ( ( NetworkBufferDescriptor_t ** ) pucBuffer );
 874:D:/Work/DeviceTester/amazon-freertos/lib/FreeRTOS-Plus-TCP/source\FreeRTOS_IP.c **** 			}
 875:D:/Work/DeviceTester/amazon-freertos/lib/FreeRTOS-Plus-TCP/source\FreeRTOS_IP.c **** 			else
 876:D:/Work/DeviceTester/amazon-freertos/lib/FreeRTOS-Plus-TCP/source\FreeRTOS_IP.c **** 			{
 877:D:/Work/DeviceTester/amazon-freertos/lib/FreeRTOS-Plus-TCP/source\FreeRTOS_IP.c **** 				pxResult = NULL;
 878:D:/Work/DeviceTester/amazon-freertos/lib/FreeRTOS-Plus-TCP/source\FreeRTOS_IP.c **** 			}
 879:D:/Work/DeviceTester/amazon-freertos/lib/FreeRTOS-Plus-TCP/source\FreeRTOS_IP.c **** 		}
 880:D:/Work/DeviceTester/amazon-freertos/lib/FreeRTOS-Plus-TCP/source\FreeRTOS_IP.c **** 
 881:D:/Work/DeviceTester/amazon-freertos/lib/FreeRTOS-Plus-TCP/source\FreeRTOS_IP.c **** 		return pxResult;
 882:D:/Work/DeviceTester/amazon-freertos/lib/FreeRTOS-Plus-TCP/source\FreeRTOS_IP.c **** 	}
 883:D:/Work/DeviceTester/amazon-freertos/lib/FreeRTOS-Plus-TCP/source\FreeRTOS_IP.c **** 
 884:D:/Work/DeviceTester/amazon-freertos/lib/FreeRTOS-Plus-TCP/source\FreeRTOS_IP.c **** #endif /* ipconfigZERO_COPY_TX_DRIVER != 0 */
 885:D:/Work/DeviceTester/amazon-freertos/lib/FreeRTOS-Plus-TCP/source\FreeRTOS_IP.c **** /*-----------------------------------------------------------*/
 886:D:/Work/DeviceTester/amazon-freertos/lib/FreeRTOS-Plus-TCP/source\FreeRTOS_IP.c **** 
 887:D:/Work/DeviceTester/amazon-freertos/lib/FreeRTOS-Plus-TCP/source\FreeRTOS_IP.c **** NetworkBufferDescriptor_t *pxUDPPayloadBuffer_to_NetworkBuffer( void *pvBuffer )
 888:D:/Work/DeviceTester/amazon-freertos/lib/FreeRTOS-Plus-TCP/source\FreeRTOS_IP.c **** {
 315              		.loc 1 888 0
 316              		.cfi_startproc
 317              		@ args = 0, pretend = 0, frame = 0
 318              		@ frame_needed = 0, uses_anonymous_args = 0
 319              		@ link register save eliminated.
 320              	.LVL25:
 889:D:/Work/DeviceTester/amazon-freertos/lib/FreeRTOS-Plus-TCP/source\FreeRTOS_IP.c **** uint8_t *pucBuffer;
 890:D:/Work/DeviceTester/amazon-freertos/lib/FreeRTOS-Plus-TCP/source\FreeRTOS_IP.c **** NetworkBufferDescriptor_t *pxResult;
 891:D:/Work/DeviceTester/amazon-freertos/lib/FreeRTOS-Plus-TCP/source\FreeRTOS_IP.c **** 
 892:D:/Work/DeviceTester/amazon-freertos/lib/FreeRTOS-Plus-TCP/source\FreeRTOS_IP.c **** 	if( pvBuffer == NULL )
 321              		.loc 1 892 0
 322 0000 000050E3 		cmp	r0, #0
 323 0004 1EFF2F01 		bxeq	lr
 324              	.LVL26:
 893:D:/Work/DeviceTester/amazon-freertos/lib/FreeRTOS-Plus-TCP/source\FreeRTOS_IP.c **** 	{
 894:D:/Work/DeviceTester/amazon-freertos/lib/FreeRTOS-Plus-TCP/source\FreeRTOS_IP.c **** 		pxResult = NULL;
 895:D:/Work/DeviceTester/amazon-freertos/lib/FreeRTOS-Plus-TCP/source\FreeRTOS_IP.c **** 	}
 896:D:/Work/DeviceTester/amazon-freertos/lib/FreeRTOS-Plus-TCP/source\FreeRTOS_IP.c **** 	else
 897:D:/Work/DeviceTester/amazon-freertos/lib/FreeRTOS-Plus-TCP/source\FreeRTOS_IP.c **** 	{
 898:D:/Work/DeviceTester/amazon-freertos/lib/FreeRTOS-Plus-TCP/source\FreeRTOS_IP.c **** 		/* Obtain the network buffer from the zero copy pointer. */
 899:D:/Work/DeviceTester/amazon-freertos/lib/FreeRTOS-Plus-TCP/source\FreeRTOS_IP.c **** 		pucBuffer = ( uint8_t * ) pvBuffer;
 900:D:/Work/DeviceTester/amazon-freertos/lib/FreeRTOS-Plus-TCP/source\FreeRTOS_IP.c **** 
 901:D:/Work/DeviceTester/amazon-freertos/lib/FreeRTOS-Plus-TCP/source\FreeRTOS_IP.c **** 		/* The input here is a pointer to a payload buffer.  Subtract
 902:D:/Work/DeviceTester/amazon-freertos/lib/FreeRTOS-Plus-TCP/source\FreeRTOS_IP.c **** 		the total size of a UDP/IP header plus the size of the header in
 903:D:/Work/DeviceTester/amazon-freertos/lib/FreeRTOS-Plus-TCP/source\FreeRTOS_IP.c **** 		the network buffer, usually 8 + 2 bytes. */
 904:D:/Work/DeviceTester/amazon-freertos/lib/FreeRTOS-Plus-TCP/source\FreeRTOS_IP.c **** 		pucBuffer -= ( sizeof( UDPPacket_t ) + ipBUFFER_PADDING );
 905:D:/Work/DeviceTester/amazon-freertos/lib/FreeRTOS-Plus-TCP/source\FreeRTOS_IP.c **** 
 906:D:/Work/DeviceTester/amazon-freertos/lib/FreeRTOS-Plus-TCP/source\FreeRTOS_IP.c **** 		/* Here a pointer was placed to the network descriptor,
 907:D:/Work/DeviceTester/amazon-freertos/lib/FreeRTOS-Plus-TCP/source\FreeRTOS_IP.c **** 		As a pointer is dereferenced, make sure it is well aligned */
 908:D:/Work/DeviceTester/amazon-freertos/lib/FreeRTOS-Plus-TCP/source\FreeRTOS_IP.c **** 		if( ( ( ( uint32_t ) pucBuffer ) & ( sizeof( pucBuffer ) - 1 ) ) == 0 )
 325              		.loc 1 908 0
 326 0008 030010E3 		tst	r0, #3
 909:D:/Work/DeviceTester/amazon-freertos/lib/FreeRTOS-Plus-TCP/source\FreeRTOS_IP.c **** 		{
 910:D:/Work/DeviceTester/amazon-freertos/lib/FreeRTOS-Plus-TCP/source\FreeRTOS_IP.c **** 			/* The following statement may trigger a:
 911:D:/Work/DeviceTester/amazon-freertos/lib/FreeRTOS-Plus-TCP/source\FreeRTOS_IP.c **** 			warning: cast increases required alignment of target type [-Wcast-align].
 912:D:/Work/DeviceTester/amazon-freertos/lib/FreeRTOS-Plus-TCP/source\FreeRTOS_IP.c **** 			It has been confirmed though that the alignment is suitable. */
 913:D:/Work/DeviceTester/amazon-freertos/lib/FreeRTOS-Plus-TCP/source\FreeRTOS_IP.c **** 			pxResult = * ( ( NetworkBufferDescriptor_t ** ) pucBuffer );
 327              		.loc 1 913 0
 328 000c 34001005 		ldreq	r0, [r0, #-52]
 329              	.LVL27:
 894:D:/Work/DeviceTester/amazon-freertos/lib/FreeRTOS-Plus-TCP/source\FreeRTOS_IP.c **** 	}
 330              		.loc 1 894 0
 331 0010 0000A013 		movne	r0, #0
 332              	.LVL28:
 914:D:/Work/DeviceTester/amazon-freertos/lib/FreeRTOS-Plus-TCP/source\FreeRTOS_IP.c **** 		}
 915:D:/Work/DeviceTester/amazon-freertos/lib/FreeRTOS-Plus-TCP/source\FreeRTOS_IP.c **** 		else
 916:D:/Work/DeviceTester/amazon-freertos/lib/FreeRTOS-Plus-TCP/source\FreeRTOS_IP.c **** 		{
 917:D:/Work/DeviceTester/amazon-freertos/lib/FreeRTOS-Plus-TCP/source\FreeRTOS_IP.c **** 			pxResult = NULL;
 918:D:/Work/DeviceTester/amazon-freertos/lib/FreeRTOS-Plus-TCP/source\FreeRTOS_IP.c **** 		}
 919:D:/Work/DeviceTester/amazon-freertos/lib/FreeRTOS-Plus-TCP/source\FreeRTOS_IP.c **** 	}
 920:D:/Work/DeviceTester/amazon-freertos/lib/FreeRTOS-Plus-TCP/source\FreeRTOS_IP.c **** 
 921:D:/Work/DeviceTester/amazon-freertos/lib/FreeRTOS-Plus-TCP/source\FreeRTOS_IP.c **** 	return pxResult;
 922:D:/Work/DeviceTester/amazon-freertos/lib/FreeRTOS-Plus-TCP/source\FreeRTOS_IP.c **** }
 333              		.loc 1 922 0
 334 0014 1EFF2FE1 		bx	lr
 335              		.cfi_endproc
 336              	.LFE37:
 338              		.section	.text.FreeRTOS_ReleaseUDPPayloadBuffer,"ax",%progbits
 339              		.align	2
 340              		.global	FreeRTOS_ReleaseUDPPayloadBuffer
 341              		.syntax unified
 342              		.arm
 343              		.fpu neon
 345              	FreeRTOS_ReleaseUDPPayloadBuffer:
 346              	.LFB38:
 923:D:/Work/DeviceTester/amazon-freertos/lib/FreeRTOS-Plus-TCP/source\FreeRTOS_IP.c **** /*-----------------------------------------------------------*/
 924:D:/Work/DeviceTester/amazon-freertos/lib/FreeRTOS-Plus-TCP/source\FreeRTOS_IP.c **** 
 925:D:/Work/DeviceTester/amazon-freertos/lib/FreeRTOS-Plus-TCP/source\FreeRTOS_IP.c **** void FreeRTOS_ReleaseUDPPayloadBuffer( void *pvBuffer )
 926:D:/Work/DeviceTester/amazon-freertos/lib/FreeRTOS-Plus-TCP/source\FreeRTOS_IP.c **** {
 347              		.loc 1 926 0
 348              		.cfi_startproc
 349              		@ args = 0, pretend = 0, frame = 0
 350              		@ frame_needed = 0, uses_anonymous_args = 0
 351              	.LVL29:
 352 0000 10402DE9 		push	{r4, lr}
 353              		.cfi_def_cfa_offset 8
 354              		.cfi_offset 4, -8
 355              		.cfi_offset 14, -4
 927:D:/Work/DeviceTester/amazon-freertos/lib/FreeRTOS-Plus-TCP/source\FreeRTOS_IP.c **** 	vReleaseNetworkBufferAndDescriptor( pxUDPPayloadBuffer_to_NetworkBuffer( pvBuffer ) );
 356              		.loc 1 927 0
 357 0004 FEFFFFEB 		bl	pxUDPPayloadBuffer_to_NetworkBuffer
 358              	.LVL30:
 928:D:/Work/DeviceTester/amazon-freertos/lib/FreeRTOS-Plus-TCP/source\FreeRTOS_IP.c **** }
 359              		.loc 1 928 0
 360 0008 1040BDE8 		pop	{r4, lr}
 361              		.cfi_restore 14
 362              		.cfi_restore 4
 363              		.cfi_def_cfa_offset 0
 927:D:/Work/DeviceTester/amazon-freertos/lib/FreeRTOS-Plus-TCP/source\FreeRTOS_IP.c **** 	vReleaseNetworkBufferAndDescriptor( pxUDPPayloadBuffer_to_NetworkBuffer( pvBuffer ) );
 364              		.loc 1 927 0
 365 000c FEFFFFEA 		b	vReleaseNetworkBufferAndDescriptor
 366              	.LVL31:
 367              		.cfi_endproc
 368              	.LFE38:
 370              		.section	.text.FreeRTOS_IPInit,"ax",%progbits
 371              		.align	2
 372              		.global	FreeRTOS_IPInit
 373              		.syntax unified
 374              		.arm
 375              		.fpu neon
 377              	FreeRTOS_IPInit:
 378              	.LFB39:
 929:D:/Work/DeviceTester/amazon-freertos/lib/FreeRTOS-Plus-TCP/source\FreeRTOS_IP.c **** /*-----------------------------------------------------------*/
 930:D:/Work/DeviceTester/amazon-freertos/lib/FreeRTOS-Plus-TCP/source\FreeRTOS_IP.c **** 
 931:D:/Work/DeviceTester/amazon-freertos/lib/FreeRTOS-Plus-TCP/source\FreeRTOS_IP.c **** /*_RB_ Should we add an error or assert if the task priorities are set such that the servers won't 
 932:D:/Work/DeviceTester/amazon-freertos/lib/FreeRTOS-Plus-TCP/source\FreeRTOS_IP.c **** /*_HT_ There was a bug in FreeRTOS_TCP_IP.c that only occurred when the applications' priority was 
 933:D:/Work/DeviceTester/amazon-freertos/lib/FreeRTOS-Plus-TCP/source\FreeRTOS_IP.c ****  As that bug has been repaired, there is not an urgent reason to warn.
 934:D:/Work/DeviceTester/amazon-freertos/lib/FreeRTOS-Plus-TCP/source\FreeRTOS_IP.c ****  It is better though to use the advised priority scheme. */
 935:D:/Work/DeviceTester/amazon-freertos/lib/FreeRTOS-Plus-TCP/source\FreeRTOS_IP.c **** BaseType_t FreeRTOS_IPInit( const uint8_t ucIPAddress[ ipIP_ADDRESS_LENGTH_BYTES ], const uint8_t u
 936:D:/Work/DeviceTester/amazon-freertos/lib/FreeRTOS-Plus-TCP/source\FreeRTOS_IP.c **** {
 379              		.loc 1 936 0
 380              		.cfi_startproc
 381              		@ args = 4, pretend = 0, frame = 0
 382              		@ frame_needed = 0, uses_anonymous_args = 0
 383              	.LVL32:
 384 0000 F3472DE9 		push	{r0, r1, r4, r5, r6, r7, r8, r9, r10, lr}
 385              		.cfi_def_cfa_offset 40
 386              		.cfi_offset 4, -32
 387              		.cfi_offset 5, -28
 388              		.cfi_offset 6, -24
 389              		.cfi_offset 7, -20
 390              		.cfi_offset 8, -16
 391              		.cfi_offset 9, -12
 392              		.cfi_offset 10, -8
 393              		.cfi_offset 14, -4
 394              		.loc 1 936 0
 395 0004 0370A0E1 		mov	r7, r3
 396              	.LBB19:
 397              	.LBB20:
 937:D:/Work/DeviceTester/amazon-freertos/lib/FreeRTOS-Plus-TCP/source\FreeRTOS_IP.c **** BaseType_t xReturn = pdFALSE;
 938:D:/Work/DeviceTester/amazon-freertos/lib/FreeRTOS-Plus-TCP/source\FreeRTOS_IP.c **** 
 939:D:/Work/DeviceTester/amazon-freertos/lib/FreeRTOS-Plus-TCP/source\FreeRTOS_IP.c **** 	/* This function should only be called once. */
 940:D:/Work/DeviceTester/amazon-freertos/lib/FreeRTOS-Plus-TCP/source\FreeRTOS_IP.c **** 	configASSERT( xIPIsNetworkTaskReady() == pdFALSE );
 941:D:/Work/DeviceTester/amazon-freertos/lib/FreeRTOS-Plus-TCP/source\FreeRTOS_IP.c **** 	configASSERT( xNetworkEventQueue == NULL );
 942:D:/Work/DeviceTester/amazon-freertos/lib/FreeRTOS-Plus-TCP/source\FreeRTOS_IP.c **** 	configASSERT( xIPTaskHandle == NULL );
 943:D:/Work/DeviceTester/amazon-freertos/lib/FreeRTOS-Plus-TCP/source\FreeRTOS_IP.c **** 
 944:D:/Work/DeviceTester/amazon-freertos/lib/FreeRTOS-Plus-TCP/source\FreeRTOS_IP.c **** 	/* Check structure packing is correct. */
 945:D:/Work/DeviceTester/amazon-freertos/lib/FreeRTOS-Plus-TCP/source\FreeRTOS_IP.c **** 	configASSERT( sizeof( EthernetHeader_t ) == ipEXPECTED_EthernetHeader_t_SIZE );
 946:D:/Work/DeviceTester/amazon-freertos/lib/FreeRTOS-Plus-TCP/source\FreeRTOS_IP.c **** 	configASSERT( sizeof( ARPHeader_t ) == ipEXPECTED_ARPHeader_t_SIZE );
 947:D:/Work/DeviceTester/amazon-freertos/lib/FreeRTOS-Plus-TCP/source\FreeRTOS_IP.c **** 	configASSERT( sizeof( IPHeader_t ) == ipEXPECTED_IPHeader_t_SIZE );
 948:D:/Work/DeviceTester/amazon-freertos/lib/FreeRTOS-Plus-TCP/source\FreeRTOS_IP.c **** 	configASSERT( sizeof( ICMPHeader_t ) == ipEXPECTED_ICMPHeader_t_SIZE );
 949:D:/Work/DeviceTester/amazon-freertos/lib/FreeRTOS-Plus-TCP/source\FreeRTOS_IP.c **** 	configASSERT( sizeof( UDPHeader_t ) == ipEXPECTED_UDPHeader_t_SIZE );
 950:D:/Work/DeviceTester/amazon-freertos/lib/FreeRTOS-Plus-TCP/source\FreeRTOS_IP.c **** 
 951:D:/Work/DeviceTester/amazon-freertos/lib/FreeRTOS-Plus-TCP/source\FreeRTOS_IP.c **** 	/* Attempt to create the queue used to communicate with the IP task. */
 952:D:/Work/DeviceTester/amazon-freertos/lib/FreeRTOS-Plus-TCP/source\FreeRTOS_IP.c **** 	xNetworkEventQueue = xQueueCreate( ( UBaseType_t ) ipconfigEVENT_QUEUE_LENGTH, ( UBaseType_t ) siz
 953:D:/Work/DeviceTester/amazon-freertos/lib/FreeRTOS-Plus-TCP/source\FreeRTOS_IP.c **** 	configASSERT( xNetworkEventQueue );
 954:D:/Work/DeviceTester/amazon-freertos/lib/FreeRTOS-Plus-TCP/source\FreeRTOS_IP.c **** 
 955:D:/Work/DeviceTester/amazon-freertos/lib/FreeRTOS-Plus-TCP/source\FreeRTOS_IP.c **** 	if( xNetworkEventQueue != NULL )
 956:D:/Work/DeviceTester/amazon-freertos/lib/FreeRTOS-Plus-TCP/source\FreeRTOS_IP.c **** 	{
 957:D:/Work/DeviceTester/amazon-freertos/lib/FreeRTOS-Plus-TCP/source\FreeRTOS_IP.c **** 		#if ( configQUEUE_REGISTRY_SIZE > 0 )
 958:D:/Work/DeviceTester/amazon-freertos/lib/FreeRTOS-Plus-TCP/source\FreeRTOS_IP.c **** 		{
 959:D:/Work/DeviceTester/amazon-freertos/lib/FreeRTOS-Plus-TCP/source\FreeRTOS_IP.c **** 			/* A queue registry is normally used to assist a kernel aware
 960:D:/Work/DeviceTester/amazon-freertos/lib/FreeRTOS-Plus-TCP/source\FreeRTOS_IP.c **** 			debugger.  If one is in use then it will be helpful for the debugger
 961:D:/Work/DeviceTester/amazon-freertos/lib/FreeRTOS-Plus-TCP/source\FreeRTOS_IP.c **** 			to show information about the network event queue. */
 962:D:/Work/DeviceTester/amazon-freertos/lib/FreeRTOS-Plus-TCP/source\FreeRTOS_IP.c **** 			vQueueAddToRegistry( xNetworkEventQueue, "NetEvnt" );
 963:D:/Work/DeviceTester/amazon-freertos/lib/FreeRTOS-Plus-TCP/source\FreeRTOS_IP.c **** 		}
 964:D:/Work/DeviceTester/amazon-freertos/lib/FreeRTOS-Plus-TCP/source\FreeRTOS_IP.c **** 		#endif /* configQUEUE_REGISTRY_SIZE */
 965:D:/Work/DeviceTester/amazon-freertos/lib/FreeRTOS-Plus-TCP/source\FreeRTOS_IP.c **** 
 966:D:/Work/DeviceTester/amazon-freertos/lib/FreeRTOS-Plus-TCP/source\FreeRTOS_IP.c **** 		if( xNetworkBuffersInitialise() == pdPASS )
 967:D:/Work/DeviceTester/amazon-freertos/lib/FreeRTOS-Plus-TCP/source\FreeRTOS_IP.c **** 		{
 968:D:/Work/DeviceTester/amazon-freertos/lib/FreeRTOS-Plus-TCP/source\FreeRTOS_IP.c **** 			/* Store the local IP and MAC address. */
 969:D:/Work/DeviceTester/amazon-freertos/lib/FreeRTOS-Plus-TCP/source\FreeRTOS_IP.c **** 			xNetworkAddressing.ulDefaultIPAddress = FreeRTOS_inet_addr_quick( ucIPAddress[ 0 ], ucIPAddress[
 970:D:/Work/DeviceTester/amazon-freertos/lib/FreeRTOS-Plus-TCP/source\FreeRTOS_IP.c **** 			xNetworkAddressing.ulNetMask = FreeRTOS_inet_addr_quick( ucNetMask[ 0 ], ucNetMask[ 1 ], ucNetMa
 971:D:/Work/DeviceTester/amazon-freertos/lib/FreeRTOS-Plus-TCP/source\FreeRTOS_IP.c **** 			xNetworkAddressing.ulGatewayAddress = FreeRTOS_inet_addr_quick( ucGatewayAddress[ 0 ], ucGateway
 972:D:/Work/DeviceTester/amazon-freertos/lib/FreeRTOS-Plus-TCP/source\FreeRTOS_IP.c **** 			xNetworkAddressing.ulDNSServerAddress = FreeRTOS_inet_addr_quick( ucDNSServerAddress[ 0 ], ucDNS
 973:D:/Work/DeviceTester/amazon-freertos/lib/FreeRTOS-Plus-TCP/source\FreeRTOS_IP.c **** 			xNetworkAddressing.ulBroadcastAddress = ( xNetworkAddressing.ulDefaultIPAddress & xNetworkAddres
 974:D:/Work/DeviceTester/amazon-freertos/lib/FreeRTOS-Plus-TCP/source\FreeRTOS_IP.c **** 
 975:D:/Work/DeviceTester/amazon-freertos/lib/FreeRTOS-Plus-TCP/source\FreeRTOS_IP.c **** 			memcpy( &xDefaultAddressing, &xNetworkAddressing, sizeof( xDefaultAddressing ) );
 976:D:/Work/DeviceTester/amazon-freertos/lib/FreeRTOS-Plus-TCP/source\FreeRTOS_IP.c **** 
 977:D:/Work/DeviceTester/amazon-freertos/lib/FreeRTOS-Plus-TCP/source\FreeRTOS_IP.c **** 			#if ipconfigUSE_DHCP == 1
 978:D:/Work/DeviceTester/amazon-freertos/lib/FreeRTOS-Plus-TCP/source\FreeRTOS_IP.c **** 			{
 979:D:/Work/DeviceTester/amazon-freertos/lib/FreeRTOS-Plus-TCP/source\FreeRTOS_IP.c **** 				/* The IP address is not set until DHCP completes. */
 980:D:/Work/DeviceTester/amazon-freertos/lib/FreeRTOS-Plus-TCP/source\FreeRTOS_IP.c **** 				*ipLOCAL_IP_ADDRESS_POINTER = 0x00UL;
 981:D:/Work/DeviceTester/amazon-freertos/lib/FreeRTOS-Plus-TCP/source\FreeRTOS_IP.c **** 			}
 982:D:/Work/DeviceTester/amazon-freertos/lib/FreeRTOS-Plus-TCP/source\FreeRTOS_IP.c **** 			#else
 983:D:/Work/DeviceTester/amazon-freertos/lib/FreeRTOS-Plus-TCP/source\FreeRTOS_IP.c **** 			{
 984:D:/Work/DeviceTester/amazon-freertos/lib/FreeRTOS-Plus-TCP/source\FreeRTOS_IP.c **** 				/* The IP address is set from the value passed in. */
 985:D:/Work/DeviceTester/amazon-freertos/lib/FreeRTOS-Plus-TCP/source\FreeRTOS_IP.c **** 				*ipLOCAL_IP_ADDRESS_POINTER = xNetworkAddressing.ulDefaultIPAddress;
 986:D:/Work/DeviceTester/amazon-freertos/lib/FreeRTOS-Plus-TCP/source\FreeRTOS_IP.c **** 
 987:D:/Work/DeviceTester/amazon-freertos/lib/FreeRTOS-Plus-TCP/source\FreeRTOS_IP.c **** 				/* Added to prevent ARP flood to gateway.  Ensure the
 988:D:/Work/DeviceTester/amazon-freertos/lib/FreeRTOS-Plus-TCP/source\FreeRTOS_IP.c **** 				gateway is on the same subnet as the IP	address. */
 989:D:/Work/DeviceTester/amazon-freertos/lib/FreeRTOS-Plus-TCP/source\FreeRTOS_IP.c **** 				configASSERT( ( ( *ipLOCAL_IP_ADDRESS_POINTER ) & xNetworkAddressing.ulNetMask ) == ( xNetworkA
 990:D:/Work/DeviceTester/amazon-freertos/lib/FreeRTOS-Plus-TCP/source\FreeRTOS_IP.c **** 			}
 991:D:/Work/DeviceTester/amazon-freertos/lib/FreeRTOS-Plus-TCP/source\FreeRTOS_IP.c **** 			#endif /* ipconfigUSE_DHCP == 1 */
 992:D:/Work/DeviceTester/amazon-freertos/lib/FreeRTOS-Plus-TCP/source\FreeRTOS_IP.c **** 
 993:D:/Work/DeviceTester/amazon-freertos/lib/FreeRTOS-Plus-TCP/source\FreeRTOS_IP.c **** 			/* The MAC address is stored in the start of the default packet
 994:D:/Work/DeviceTester/amazon-freertos/lib/FreeRTOS-Plus-TCP/source\FreeRTOS_IP.c **** 			header fragment, which is used when sending UDP packets. */
 995:D:/Work/DeviceTester/amazon-freertos/lib/FreeRTOS-Plus-TCP/source\FreeRTOS_IP.c **** 			memcpy( ( void * ) ipLOCAL_MAC_ADDRESS, ( void * ) ucMACAddress, ( size_t ) ipMAC_ADDRESS_LENGTH
 996:D:/Work/DeviceTester/amazon-freertos/lib/FreeRTOS-Plus-TCP/source\FreeRTOS_IP.c **** 
 997:D:/Work/DeviceTester/amazon-freertos/lib/FreeRTOS-Plus-TCP/source\FreeRTOS_IP.c **** 			/* Prepare the sockets interface. */
 998:D:/Work/DeviceTester/amazon-freertos/lib/FreeRTOS-Plus-TCP/source\FreeRTOS_IP.c **** 			xReturn = vNetworkSocketsInit();
 999:D:/Work/DeviceTester/amazon-freertos/lib/FreeRTOS-Plus-TCP/source\FreeRTOS_IP.c **** 
1000:D:/Work/DeviceTester/amazon-freertos/lib/FreeRTOS-Plus-TCP/source\FreeRTOS_IP.c **** 			if( pdTRUE == xReturn )
1001:D:/Work/DeviceTester/amazon-freertos/lib/FreeRTOS-Plus-TCP/source\FreeRTOS_IP.c **** 			{
1002:D:/Work/DeviceTester/amazon-freertos/lib/FreeRTOS-Plus-TCP/source\FreeRTOS_IP.c **** 				/* Create the task that processes Ethernet and stack events. */
1003:D:/Work/DeviceTester/amazon-freertos/lib/FreeRTOS-Plus-TCP/source\FreeRTOS_IP.c **** 				xReturn = xTaskCreate( prvIPTask, "IP-task", ( uint16_t )ipconfigIP_TASK_STACK_SIZE_WORDS, NULL
1004:D:/Work/DeviceTester/amazon-freertos/lib/FreeRTOS-Plus-TCP/source\FreeRTOS_IP.c **** 			}
1005:D:/Work/DeviceTester/amazon-freertos/lib/FreeRTOS-Plus-TCP/source\FreeRTOS_IP.c **** 		}
1006:D:/Work/DeviceTester/amazon-freertos/lib/FreeRTOS-Plus-TCP/source\FreeRTOS_IP.c **** 		else
1007:D:/Work/DeviceTester/amazon-freertos/lib/FreeRTOS-Plus-TCP/source\FreeRTOS_IP.c **** 		{
1008:D:/Work/DeviceTester/amazon-freertos/lib/FreeRTOS-Plus-TCP/source\FreeRTOS_IP.c **** 			FreeRTOS_debug_printf( ( "FreeRTOS_IPInit: xNetworkBuffersInitialise() failed\n") );
1009:D:/Work/DeviceTester/amazon-freertos/lib/FreeRTOS-Plus-TCP/source\FreeRTOS_IP.c **** 
1010:D:/Work/DeviceTester/amazon-freertos/lib/FreeRTOS-Plus-TCP/source\FreeRTOS_IP.c **** 			/* Clean up. */
1011:D:/Work/DeviceTester/amazon-freertos/lib/FreeRTOS-Plus-TCP/source\FreeRTOS_IP.c **** 			vQueueDelete( xNetworkEventQueue );
1012:D:/Work/DeviceTester/amazon-freertos/lib/FreeRTOS-Plus-TCP/source\FreeRTOS_IP.c **** 			xNetworkEventQueue = NULL;
1013:D:/Work/DeviceTester/amazon-freertos/lib/FreeRTOS-Plus-TCP/source\FreeRTOS_IP.c **** 		}
1014:D:/Work/DeviceTester/amazon-freertos/lib/FreeRTOS-Plus-TCP/source\FreeRTOS_IP.c **** 	}
1015:D:/Work/DeviceTester/amazon-freertos/lib/FreeRTOS-Plus-TCP/source\FreeRTOS_IP.c **** 	else
1016:D:/Work/DeviceTester/amazon-freertos/lib/FreeRTOS-Plus-TCP/source\FreeRTOS_IP.c **** 	{
1017:D:/Work/DeviceTester/amazon-freertos/lib/FreeRTOS-Plus-TCP/source\FreeRTOS_IP.c **** 		FreeRTOS_debug_printf( ( "FreeRTOS_IPInit: Network event queue could not be created\n") );
1018:D:/Work/DeviceTester/amazon-freertos/lib/FreeRTOS-Plus-TCP/source\FreeRTOS_IP.c **** 	}
1019:D:/Work/DeviceTester/amazon-freertos/lib/FreeRTOS-Plus-TCP/source\FreeRTOS_IP.c **** 
1020:D:/Work/DeviceTester/amazon-freertos/lib/FreeRTOS-Plus-TCP/source\FreeRTOS_IP.c **** 	return xReturn;
1021:D:/Work/DeviceTester/amazon-freertos/lib/FreeRTOS-Plus-TCP/source\FreeRTOS_IP.c **** }
1022:D:/Work/DeviceTester/amazon-freertos/lib/FreeRTOS-Plus-TCP/source\FreeRTOS_IP.c **** /*-----------------------------------------------------------*/
1023:D:/Work/DeviceTester/amazon-freertos/lib/FreeRTOS-Plus-TCP/source\FreeRTOS_IP.c **** 
1024:D:/Work/DeviceTester/amazon-freertos/lib/FreeRTOS-Plus-TCP/source\FreeRTOS_IP.c **** void FreeRTOS_GetAddressConfiguration( uint32_t *pulIPAddress, uint32_t *pulNetMask, uint32_t *pulG
1025:D:/Work/DeviceTester/amazon-freertos/lib/FreeRTOS-Plus-TCP/source\FreeRTOS_IP.c **** {
1026:D:/Work/DeviceTester/amazon-freertos/lib/FreeRTOS-Plus-TCP/source\FreeRTOS_IP.c **** 	/* Return the address configuration to the caller. */
1027:D:/Work/DeviceTester/amazon-freertos/lib/FreeRTOS-Plus-TCP/source\FreeRTOS_IP.c **** 
1028:D:/Work/DeviceTester/amazon-freertos/lib/FreeRTOS-Plus-TCP/source\FreeRTOS_IP.c **** 	if( pulIPAddress != NULL )
1029:D:/Work/DeviceTester/amazon-freertos/lib/FreeRTOS-Plus-TCP/source\FreeRTOS_IP.c **** 	{
1030:D:/Work/DeviceTester/amazon-freertos/lib/FreeRTOS-Plus-TCP/source\FreeRTOS_IP.c **** 		*pulIPAddress = *ipLOCAL_IP_ADDRESS_POINTER;
1031:D:/Work/DeviceTester/amazon-freertos/lib/FreeRTOS-Plus-TCP/source\FreeRTOS_IP.c **** 	}
1032:D:/Work/DeviceTester/amazon-freertos/lib/FreeRTOS-Plus-TCP/source\FreeRTOS_IP.c **** 
1033:D:/Work/DeviceTester/amazon-freertos/lib/FreeRTOS-Plus-TCP/source\FreeRTOS_IP.c **** 	if( pulNetMask != NULL )
1034:D:/Work/DeviceTester/amazon-freertos/lib/FreeRTOS-Plus-TCP/source\FreeRTOS_IP.c **** 	{
1035:D:/Work/DeviceTester/amazon-freertos/lib/FreeRTOS-Plus-TCP/source\FreeRTOS_IP.c **** 		*pulNetMask = xNetworkAddressing.ulNetMask;
1036:D:/Work/DeviceTester/amazon-freertos/lib/FreeRTOS-Plus-TCP/source\FreeRTOS_IP.c **** 	}
1037:D:/Work/DeviceTester/amazon-freertos/lib/FreeRTOS-Plus-TCP/source\FreeRTOS_IP.c **** 
1038:D:/Work/DeviceTester/amazon-freertos/lib/FreeRTOS-Plus-TCP/source\FreeRTOS_IP.c **** 	if( pulGatewayAddress != NULL )
1039:D:/Work/DeviceTester/amazon-freertos/lib/FreeRTOS-Plus-TCP/source\FreeRTOS_IP.c **** 	{
1040:D:/Work/DeviceTester/amazon-freertos/lib/FreeRTOS-Plus-TCP/source\FreeRTOS_IP.c **** 		*pulGatewayAddress = xNetworkAddressing.ulGatewayAddress;
1041:D:/Work/DeviceTester/amazon-freertos/lib/FreeRTOS-Plus-TCP/source\FreeRTOS_IP.c **** 	}
1042:D:/Work/DeviceTester/amazon-freertos/lib/FreeRTOS-Plus-TCP/source\FreeRTOS_IP.c **** 
1043:D:/Work/DeviceTester/amazon-freertos/lib/FreeRTOS-Plus-TCP/source\FreeRTOS_IP.c **** 	if( pulDNSServerAddress != NULL )
1044:D:/Work/DeviceTester/amazon-freertos/lib/FreeRTOS-Plus-TCP/source\FreeRTOS_IP.c **** 	{
1045:D:/Work/DeviceTester/amazon-freertos/lib/FreeRTOS-Plus-TCP/source\FreeRTOS_IP.c **** 		*pulDNSServerAddress = xNetworkAddressing.ulDNSServerAddress;
1046:D:/Work/DeviceTester/amazon-freertos/lib/FreeRTOS-Plus-TCP/source\FreeRTOS_IP.c **** 	}
1047:D:/Work/DeviceTester/amazon-freertos/lib/FreeRTOS-Plus-TCP/source\FreeRTOS_IP.c **** }
1048:D:/Work/DeviceTester/amazon-freertos/lib/FreeRTOS-Plus-TCP/source\FreeRTOS_IP.c **** /*-----------------------------------------------------------*/
1049:D:/Work/DeviceTester/amazon-freertos/lib/FreeRTOS-Plus-TCP/source\FreeRTOS_IP.c **** 
1050:D:/Work/DeviceTester/amazon-freertos/lib/FreeRTOS-Plus-TCP/source\FreeRTOS_IP.c **** void FreeRTOS_SetAddressConfiguration( const uint32_t *pulIPAddress, const uint32_t *pulNetMask, co
1051:D:/Work/DeviceTester/amazon-freertos/lib/FreeRTOS-Plus-TCP/source\FreeRTOS_IP.c **** {
1052:D:/Work/DeviceTester/amazon-freertos/lib/FreeRTOS-Plus-TCP/source\FreeRTOS_IP.c **** 	/* Update the address configuration. */
1053:D:/Work/DeviceTester/amazon-freertos/lib/FreeRTOS-Plus-TCP/source\FreeRTOS_IP.c **** 
1054:D:/Work/DeviceTester/amazon-freertos/lib/FreeRTOS-Plus-TCP/source\FreeRTOS_IP.c **** 	if( pulIPAddress != NULL )
1055:D:/Work/DeviceTester/amazon-freertos/lib/FreeRTOS-Plus-TCP/source\FreeRTOS_IP.c **** 	{
1056:D:/Work/DeviceTester/amazon-freertos/lib/FreeRTOS-Plus-TCP/source\FreeRTOS_IP.c **** 		*ipLOCAL_IP_ADDRESS_POINTER = *pulIPAddress;
1057:D:/Work/DeviceTester/amazon-freertos/lib/FreeRTOS-Plus-TCP/source\FreeRTOS_IP.c **** 	}
1058:D:/Work/DeviceTester/amazon-freertos/lib/FreeRTOS-Plus-TCP/source\FreeRTOS_IP.c **** 
1059:D:/Work/DeviceTester/amazon-freertos/lib/FreeRTOS-Plus-TCP/source\FreeRTOS_IP.c **** 	if( pulNetMask != NULL )
1060:D:/Work/DeviceTester/amazon-freertos/lib/FreeRTOS-Plus-TCP/source\FreeRTOS_IP.c **** 	{
1061:D:/Work/DeviceTester/amazon-freertos/lib/FreeRTOS-Plus-TCP/source\FreeRTOS_IP.c **** 		xNetworkAddressing.ulNetMask = *pulNetMask;
1062:D:/Work/DeviceTester/amazon-freertos/lib/FreeRTOS-Plus-TCP/source\FreeRTOS_IP.c **** 	}
1063:D:/Work/DeviceTester/amazon-freertos/lib/FreeRTOS-Plus-TCP/source\FreeRTOS_IP.c **** 
1064:D:/Work/DeviceTester/amazon-freertos/lib/FreeRTOS-Plus-TCP/source\FreeRTOS_IP.c **** 	if( pulGatewayAddress != NULL )
1065:D:/Work/DeviceTester/amazon-freertos/lib/FreeRTOS-Plus-TCP/source\FreeRTOS_IP.c **** 	{
1066:D:/Work/DeviceTester/amazon-freertos/lib/FreeRTOS-Plus-TCP/source\FreeRTOS_IP.c **** 		xNetworkAddressing.ulGatewayAddress = *pulGatewayAddress;
1067:D:/Work/DeviceTester/amazon-freertos/lib/FreeRTOS-Plus-TCP/source\FreeRTOS_IP.c **** 	}
1068:D:/Work/DeviceTester/amazon-freertos/lib/FreeRTOS-Plus-TCP/source\FreeRTOS_IP.c **** 
1069:D:/Work/DeviceTester/amazon-freertos/lib/FreeRTOS-Plus-TCP/source\FreeRTOS_IP.c **** 	if( pulDNSServerAddress != NULL )
1070:D:/Work/DeviceTester/amazon-freertos/lib/FreeRTOS-Plus-TCP/source\FreeRTOS_IP.c **** 	{
1071:D:/Work/DeviceTester/amazon-freertos/lib/FreeRTOS-Plus-TCP/source\FreeRTOS_IP.c **** 		xNetworkAddressing.ulDNSServerAddress = *pulDNSServerAddress;
1072:D:/Work/DeviceTester/amazon-freertos/lib/FreeRTOS-Plus-TCP/source\FreeRTOS_IP.c **** 	}
1073:D:/Work/DeviceTester/amazon-freertos/lib/FreeRTOS-Plus-TCP/source\FreeRTOS_IP.c **** }
1074:D:/Work/DeviceTester/amazon-freertos/lib/FreeRTOS-Plus-TCP/source\FreeRTOS_IP.c **** /*-----------------------------------------------------------*/
1075:D:/Work/DeviceTester/amazon-freertos/lib/FreeRTOS-Plus-TCP/source\FreeRTOS_IP.c **** 
1076:D:/Work/DeviceTester/amazon-freertos/lib/FreeRTOS-Plus-TCP/source\FreeRTOS_IP.c **** #if ( ipconfigSUPPORT_OUTGOING_PINGS == 1 )
1077:D:/Work/DeviceTester/amazon-freertos/lib/FreeRTOS-Plus-TCP/source\FreeRTOS_IP.c **** 
1078:D:/Work/DeviceTester/amazon-freertos/lib/FreeRTOS-Plus-TCP/source\FreeRTOS_IP.c **** 	BaseType_t FreeRTOS_SendPingRequest( uint32_t ulIPAddress, size_t xNumberOfBytesToSend, TickType_t
1079:D:/Work/DeviceTester/amazon-freertos/lib/FreeRTOS-Plus-TCP/source\FreeRTOS_IP.c **** 	{
1080:D:/Work/DeviceTester/amazon-freertos/lib/FreeRTOS-Plus-TCP/source\FreeRTOS_IP.c **** 	NetworkBufferDescriptor_t *pxNetworkBuffer;
1081:D:/Work/DeviceTester/amazon-freertos/lib/FreeRTOS-Plus-TCP/source\FreeRTOS_IP.c **** 	ICMPHeader_t *pxICMPHeader;
1082:D:/Work/DeviceTester/amazon-freertos/lib/FreeRTOS-Plus-TCP/source\FreeRTOS_IP.c **** 	BaseType_t xReturn = pdFAIL;
1083:D:/Work/DeviceTester/amazon-freertos/lib/FreeRTOS-Plus-TCP/source\FreeRTOS_IP.c **** 	static uint16_t usSequenceNumber = 0;
1084:D:/Work/DeviceTester/amazon-freertos/lib/FreeRTOS-Plus-TCP/source\FreeRTOS_IP.c **** 	uint8_t *pucChar;
1085:D:/Work/DeviceTester/amazon-freertos/lib/FreeRTOS-Plus-TCP/source\FreeRTOS_IP.c **** 	IPStackEvent_t xStackTxEvent = { eStackTxEvent, NULL };
1086:D:/Work/DeviceTester/amazon-freertos/lib/FreeRTOS-Plus-TCP/source\FreeRTOS_IP.c **** 
1087:D:/Work/DeviceTester/amazon-freertos/lib/FreeRTOS-Plus-TCP/source\FreeRTOS_IP.c **** 		if( (xNumberOfBytesToSend >= 1 ) && ( xNumberOfBytesToSend < ( ( ipconfigNETWORK_MTU - sizeof( IP
1088:D:/Work/DeviceTester/amazon-freertos/lib/FreeRTOS-Plus-TCP/source\FreeRTOS_IP.c **** 		{
1089:D:/Work/DeviceTester/amazon-freertos/lib/FreeRTOS-Plus-TCP/source\FreeRTOS_IP.c **** 			pxNetworkBuffer = pxGetNetworkBufferWithDescriptor( xNumberOfBytesToSend + sizeof( ICMPPacket_t 
1090:D:/Work/DeviceTester/amazon-freertos/lib/FreeRTOS-Plus-TCP/source\FreeRTOS_IP.c **** 
1091:D:/Work/DeviceTester/amazon-freertos/lib/FreeRTOS-Plus-TCP/source\FreeRTOS_IP.c **** 			if( pxNetworkBuffer != NULL )
1092:D:/Work/DeviceTester/amazon-freertos/lib/FreeRTOS-Plus-TCP/source\FreeRTOS_IP.c **** 			{
1093:D:/Work/DeviceTester/amazon-freertos/lib/FreeRTOS-Plus-TCP/source\FreeRTOS_IP.c **** 				pxICMPHeader = ( ICMPHeader_t * ) &( pxNetworkBuffer->pucEthernetBuffer[ ipIP_PAYLOAD_OFFSET ] 
1094:D:/Work/DeviceTester/amazon-freertos/lib/FreeRTOS-Plus-TCP/source\FreeRTOS_IP.c **** 				usSequenceNumber++;
1095:D:/Work/DeviceTester/amazon-freertos/lib/FreeRTOS-Plus-TCP/source\FreeRTOS_IP.c **** 
1096:D:/Work/DeviceTester/amazon-freertos/lib/FreeRTOS-Plus-TCP/source\FreeRTOS_IP.c **** 				/* Fill in the basic header information. */
1097:D:/Work/DeviceTester/amazon-freertos/lib/FreeRTOS-Plus-TCP/source\FreeRTOS_IP.c **** 				pxICMPHeader->ucTypeOfMessage = ipICMP_ECHO_REQUEST;
1098:D:/Work/DeviceTester/amazon-freertos/lib/FreeRTOS-Plus-TCP/source\FreeRTOS_IP.c **** 				pxICMPHeader->ucTypeOfService = 0;
1099:D:/Work/DeviceTester/amazon-freertos/lib/FreeRTOS-Plus-TCP/source\FreeRTOS_IP.c **** 				pxICMPHeader->usIdentifier = usSequenceNumber;
1100:D:/Work/DeviceTester/amazon-freertos/lib/FreeRTOS-Plus-TCP/source\FreeRTOS_IP.c **** 				pxICMPHeader->usSequenceNumber = usSequenceNumber;
1101:D:/Work/DeviceTester/amazon-freertos/lib/FreeRTOS-Plus-TCP/source\FreeRTOS_IP.c **** 
1102:D:/Work/DeviceTester/amazon-freertos/lib/FreeRTOS-Plus-TCP/source\FreeRTOS_IP.c **** 				/* Find the start of the data. */
1103:D:/Work/DeviceTester/amazon-freertos/lib/FreeRTOS-Plus-TCP/source\FreeRTOS_IP.c **** 				pucChar = ( uint8_t * ) pxICMPHeader;
1104:D:/Work/DeviceTester/amazon-freertos/lib/FreeRTOS-Plus-TCP/source\FreeRTOS_IP.c **** 				pucChar += sizeof( ICMPHeader_t );
1105:D:/Work/DeviceTester/amazon-freertos/lib/FreeRTOS-Plus-TCP/source\FreeRTOS_IP.c **** 
1106:D:/Work/DeviceTester/amazon-freertos/lib/FreeRTOS-Plus-TCP/source\FreeRTOS_IP.c **** 				/* Just memset the data to a fixed value. */
1107:D:/Work/DeviceTester/amazon-freertos/lib/FreeRTOS-Plus-TCP/source\FreeRTOS_IP.c **** 				memset( ( void * ) pucChar, ( int ) ipECHO_DATA_FILL_BYTE, xNumberOfBytesToSend );
1108:D:/Work/DeviceTester/amazon-freertos/lib/FreeRTOS-Plus-TCP/source\FreeRTOS_IP.c **** 
1109:D:/Work/DeviceTester/amazon-freertos/lib/FreeRTOS-Plus-TCP/source\FreeRTOS_IP.c **** 				/* The message is complete, IP and checksum's are handled by
1110:D:/Work/DeviceTester/amazon-freertos/lib/FreeRTOS-Plus-TCP/source\FreeRTOS_IP.c **** 				vProcessGeneratedUDPPacket */
1111:D:/Work/DeviceTester/amazon-freertos/lib/FreeRTOS-Plus-TCP/source\FreeRTOS_IP.c **** 				pxNetworkBuffer->pucEthernetBuffer[ ipSOCKET_OPTIONS_OFFSET ] = FREERTOS_SO_UDPCKSUM_OUT;
1112:D:/Work/DeviceTester/amazon-freertos/lib/FreeRTOS-Plus-TCP/source\FreeRTOS_IP.c **** 				pxNetworkBuffer->ulIPAddress = ulIPAddress;
1113:D:/Work/DeviceTester/amazon-freertos/lib/FreeRTOS-Plus-TCP/source\FreeRTOS_IP.c **** 				pxNetworkBuffer->usPort = ipPACKET_CONTAINS_ICMP_DATA;
1114:D:/Work/DeviceTester/amazon-freertos/lib/FreeRTOS-Plus-TCP/source\FreeRTOS_IP.c **** 				pxNetworkBuffer->xDataLength = xNumberOfBytesToSend + sizeof( ICMPHeader_t );
1115:D:/Work/DeviceTester/amazon-freertos/lib/FreeRTOS-Plus-TCP/source\FreeRTOS_IP.c **** 
1116:D:/Work/DeviceTester/amazon-freertos/lib/FreeRTOS-Plus-TCP/source\FreeRTOS_IP.c **** 				/* Send to the stack. */
1117:D:/Work/DeviceTester/amazon-freertos/lib/FreeRTOS-Plus-TCP/source\FreeRTOS_IP.c **** 				xStackTxEvent.pvData = pxNetworkBuffer;
1118:D:/Work/DeviceTester/amazon-freertos/lib/FreeRTOS-Plus-TCP/source\FreeRTOS_IP.c **** 
1119:D:/Work/DeviceTester/amazon-freertos/lib/FreeRTOS-Plus-TCP/source\FreeRTOS_IP.c **** 				if( xSendEventStructToIPTask( &xStackTxEvent, xBlockTimeTicks) != pdPASS )
1120:D:/Work/DeviceTester/amazon-freertos/lib/FreeRTOS-Plus-TCP/source\FreeRTOS_IP.c **** 				{
1121:D:/Work/DeviceTester/amazon-freertos/lib/FreeRTOS-Plus-TCP/source\FreeRTOS_IP.c **** 					vReleaseNetworkBufferAndDescriptor( pxNetworkBuffer );
1122:D:/Work/DeviceTester/amazon-freertos/lib/FreeRTOS-Plus-TCP/source\FreeRTOS_IP.c **** 					iptraceSTACK_TX_EVENT_LOST( ipSTACK_TX_EVENT );
1123:D:/Work/DeviceTester/amazon-freertos/lib/FreeRTOS-Plus-TCP/source\FreeRTOS_IP.c **** 				}
1124:D:/Work/DeviceTester/amazon-freertos/lib/FreeRTOS-Plus-TCP/source\FreeRTOS_IP.c **** 				else
1125:D:/Work/DeviceTester/amazon-freertos/lib/FreeRTOS-Plus-TCP/source\FreeRTOS_IP.c **** 				{
1126:D:/Work/DeviceTester/amazon-freertos/lib/FreeRTOS-Plus-TCP/source\FreeRTOS_IP.c **** 					xReturn = usSequenceNumber;
1127:D:/Work/DeviceTester/amazon-freertos/lib/FreeRTOS-Plus-TCP/source\FreeRTOS_IP.c **** 				}
1128:D:/Work/DeviceTester/amazon-freertos/lib/FreeRTOS-Plus-TCP/source\FreeRTOS_IP.c **** 			}
1129:D:/Work/DeviceTester/amazon-freertos/lib/FreeRTOS-Plus-TCP/source\FreeRTOS_IP.c **** 		}
1130:D:/Work/DeviceTester/amazon-freertos/lib/FreeRTOS-Plus-TCP/source\FreeRTOS_IP.c **** 		else
1131:D:/Work/DeviceTester/amazon-freertos/lib/FreeRTOS-Plus-TCP/source\FreeRTOS_IP.c **** 		{
1132:D:/Work/DeviceTester/amazon-freertos/lib/FreeRTOS-Plus-TCP/source\FreeRTOS_IP.c **** 			/* The requested number of bytes will not fit in the available space
1133:D:/Work/DeviceTester/amazon-freertos/lib/FreeRTOS-Plus-TCP/source\FreeRTOS_IP.c **** 			in the network buffer. */
1134:D:/Work/DeviceTester/amazon-freertos/lib/FreeRTOS-Plus-TCP/source\FreeRTOS_IP.c **** 		}
1135:D:/Work/DeviceTester/amazon-freertos/lib/FreeRTOS-Plus-TCP/source\FreeRTOS_IP.c **** 
1136:D:/Work/DeviceTester/amazon-freertos/lib/FreeRTOS-Plus-TCP/source\FreeRTOS_IP.c **** 		return xReturn;
1137:D:/Work/DeviceTester/amazon-freertos/lib/FreeRTOS-Plus-TCP/source\FreeRTOS_IP.c **** 	}
1138:D:/Work/DeviceTester/amazon-freertos/lib/FreeRTOS-Plus-TCP/source\FreeRTOS_IP.c **** 
1139:D:/Work/DeviceTester/amazon-freertos/lib/FreeRTOS-Plus-TCP/source\FreeRTOS_IP.c **** #endif /* ipconfigSUPPORT_OUTGOING_PINGS == 1 */
1140:D:/Work/DeviceTester/amazon-freertos/lib/FreeRTOS-Plus-TCP/source\FreeRTOS_IP.c **** /*-----------------------------------------------------------*/
1141:D:/Work/DeviceTester/amazon-freertos/lib/FreeRTOS-Plus-TCP/source\FreeRTOS_IP.c **** 
1142:D:/Work/DeviceTester/amazon-freertos/lib/FreeRTOS-Plus-TCP/source\FreeRTOS_IP.c **** BaseType_t xSendEventToIPTask( eIPEvent_t eEvent )
1143:D:/Work/DeviceTester/amazon-freertos/lib/FreeRTOS-Plus-TCP/source\FreeRTOS_IP.c **** {
1144:D:/Work/DeviceTester/amazon-freertos/lib/FreeRTOS-Plus-TCP/source\FreeRTOS_IP.c **** IPStackEvent_t xEventMessage;
1145:D:/Work/DeviceTester/amazon-freertos/lib/FreeRTOS-Plus-TCP/source\FreeRTOS_IP.c **** const TickType_t xDontBlock = ( TickType_t ) 0;
1146:D:/Work/DeviceTester/amazon-freertos/lib/FreeRTOS-Plus-TCP/source\FreeRTOS_IP.c **** 
1147:D:/Work/DeviceTester/amazon-freertos/lib/FreeRTOS-Plus-TCP/source\FreeRTOS_IP.c **** 	xEventMessage.eEventType = eEvent;
1148:D:/Work/DeviceTester/amazon-freertos/lib/FreeRTOS-Plus-TCP/source\FreeRTOS_IP.c **** 	xEventMessage.pvData = ( void* )NULL;
1149:D:/Work/DeviceTester/amazon-freertos/lib/FreeRTOS-Plus-TCP/source\FreeRTOS_IP.c **** 
1150:D:/Work/DeviceTester/amazon-freertos/lib/FreeRTOS-Plus-TCP/source\FreeRTOS_IP.c **** 	return xSendEventStructToIPTask( &xEventMessage, xDontBlock );
1151:D:/Work/DeviceTester/amazon-freertos/lib/FreeRTOS-Plus-TCP/source\FreeRTOS_IP.c **** }
1152:D:/Work/DeviceTester/amazon-freertos/lib/FreeRTOS-Plus-TCP/source\FreeRTOS_IP.c **** /*-----------------------------------------------------------*/
1153:D:/Work/DeviceTester/amazon-freertos/lib/FreeRTOS-Plus-TCP/source\FreeRTOS_IP.c **** 
1154:D:/Work/DeviceTester/amazon-freertos/lib/FreeRTOS-Plus-TCP/source\FreeRTOS_IP.c **** BaseType_t xSendEventStructToIPTask( const IPStackEvent_t *pxEvent, TickType_t xTimeout )
1155:D:/Work/DeviceTester/amazon-freertos/lib/FreeRTOS-Plus-TCP/source\FreeRTOS_IP.c **** {
1156:D:/Work/DeviceTester/amazon-freertos/lib/FreeRTOS-Plus-TCP/source\FreeRTOS_IP.c **** BaseType_t xReturn, xSendMessage;
1157:D:/Work/DeviceTester/amazon-freertos/lib/FreeRTOS-Plus-TCP/source\FreeRTOS_IP.c **** 
1158:D:/Work/DeviceTester/amazon-freertos/lib/FreeRTOS-Plus-TCP/source\FreeRTOS_IP.c **** 	if( ( xIPIsNetworkTaskReady() == pdFALSE ) && ( pxEvent->eEventType != eNetworkDownEvent ) )
1159:D:/Work/DeviceTester/amazon-freertos/lib/FreeRTOS-Plus-TCP/source\FreeRTOS_IP.c **** 	{
1160:D:/Work/DeviceTester/amazon-freertos/lib/FreeRTOS-Plus-TCP/source\FreeRTOS_IP.c **** 		/* Only allow eNetworkDownEvent events if the IP task is not ready
1161:D:/Work/DeviceTester/amazon-freertos/lib/FreeRTOS-Plus-TCP/source\FreeRTOS_IP.c **** 		yet.  Not going to attempt to send the message so the send failed. */
1162:D:/Work/DeviceTester/amazon-freertos/lib/FreeRTOS-Plus-TCP/source\FreeRTOS_IP.c **** 		xReturn = pdFAIL;
1163:D:/Work/DeviceTester/amazon-freertos/lib/FreeRTOS-Plus-TCP/source\FreeRTOS_IP.c **** 	}
1164:D:/Work/DeviceTester/amazon-freertos/lib/FreeRTOS-Plus-TCP/source\FreeRTOS_IP.c **** 	else
1165:D:/Work/DeviceTester/amazon-freertos/lib/FreeRTOS-Plus-TCP/source\FreeRTOS_IP.c **** 	{
1166:D:/Work/DeviceTester/amazon-freertos/lib/FreeRTOS-Plus-TCP/source\FreeRTOS_IP.c **** 		xSendMessage = pdTRUE;
1167:D:/Work/DeviceTester/amazon-freertos/lib/FreeRTOS-Plus-TCP/source\FreeRTOS_IP.c **** 
1168:D:/Work/DeviceTester/amazon-freertos/lib/FreeRTOS-Plus-TCP/source\FreeRTOS_IP.c **** 		#if( ipconfigUSE_TCP == 1 )
1169:D:/Work/DeviceTester/amazon-freertos/lib/FreeRTOS-Plus-TCP/source\FreeRTOS_IP.c **** 		{
1170:D:/Work/DeviceTester/amazon-freertos/lib/FreeRTOS-Plus-TCP/source\FreeRTOS_IP.c **** 			if( pxEvent->eEventType == eTCPTimerEvent )
1171:D:/Work/DeviceTester/amazon-freertos/lib/FreeRTOS-Plus-TCP/source\FreeRTOS_IP.c **** 			{
1172:D:/Work/DeviceTester/amazon-freertos/lib/FreeRTOS-Plus-TCP/source\FreeRTOS_IP.c **** 				/* TCP timer events are sent to wake the timer task when
1173:D:/Work/DeviceTester/amazon-freertos/lib/FreeRTOS-Plus-TCP/source\FreeRTOS_IP.c **** 				xTCPTimer has expired, but there is no point sending them if the
1174:D:/Work/DeviceTester/amazon-freertos/lib/FreeRTOS-Plus-TCP/source\FreeRTOS_IP.c **** 				IP task is already awake processing other message. */
1175:D:/Work/DeviceTester/amazon-freertos/lib/FreeRTOS-Plus-TCP/source\FreeRTOS_IP.c **** 				xTCPTimer.bExpired = pdTRUE_UNSIGNED;
1176:D:/Work/DeviceTester/amazon-freertos/lib/FreeRTOS-Plus-TCP/source\FreeRTOS_IP.c **** 
1177:D:/Work/DeviceTester/amazon-freertos/lib/FreeRTOS-Plus-TCP/source\FreeRTOS_IP.c **** 				if( uxQueueMessagesWaiting( xNetworkEventQueue ) != 0u )
1178:D:/Work/DeviceTester/amazon-freertos/lib/FreeRTOS-Plus-TCP/source\FreeRTOS_IP.c **** 				{
1179:D:/Work/DeviceTester/amazon-freertos/lib/FreeRTOS-Plus-TCP/source\FreeRTOS_IP.c **** 					/* Not actually going to send the message but this is not a
1180:D:/Work/DeviceTester/amazon-freertos/lib/FreeRTOS-Plus-TCP/source\FreeRTOS_IP.c **** 					failure as the message didn't need to be sent. */
1181:D:/Work/DeviceTester/amazon-freertos/lib/FreeRTOS-Plus-TCP/source\FreeRTOS_IP.c **** 					xSendMessage = pdFALSE;
1182:D:/Work/DeviceTester/amazon-freertos/lib/FreeRTOS-Plus-TCP/source\FreeRTOS_IP.c **** 				}
1183:D:/Work/DeviceTester/amazon-freertos/lib/FreeRTOS-Plus-TCP/source\FreeRTOS_IP.c **** 			}
1184:D:/Work/DeviceTester/amazon-freertos/lib/FreeRTOS-Plus-TCP/source\FreeRTOS_IP.c **** 		}
1185:D:/Work/DeviceTester/amazon-freertos/lib/FreeRTOS-Plus-TCP/source\FreeRTOS_IP.c **** 		#endif /* ipconfigUSE_TCP */
1186:D:/Work/DeviceTester/amazon-freertos/lib/FreeRTOS-Plus-TCP/source\FreeRTOS_IP.c **** 
1187:D:/Work/DeviceTester/amazon-freertos/lib/FreeRTOS-Plus-TCP/source\FreeRTOS_IP.c **** 		if( xSendMessage != pdFALSE )
1188:D:/Work/DeviceTester/amazon-freertos/lib/FreeRTOS-Plus-TCP/source\FreeRTOS_IP.c **** 		{
1189:D:/Work/DeviceTester/amazon-freertos/lib/FreeRTOS-Plus-TCP/source\FreeRTOS_IP.c **** 			/* The IP task cannot block itself while waiting for itself to
1190:D:/Work/DeviceTester/amazon-freertos/lib/FreeRTOS-Plus-TCP/source\FreeRTOS_IP.c **** 			respond. */
1191:D:/Work/DeviceTester/amazon-freertos/lib/FreeRTOS-Plus-TCP/source\FreeRTOS_IP.c **** 			if( ( xIsCallingFromIPTask() == pdTRUE ) && ( xTimeout > ( TickType_t ) 0 ) )
1192:D:/Work/DeviceTester/amazon-freertos/lib/FreeRTOS-Plus-TCP/source\FreeRTOS_IP.c **** 			{
1193:D:/Work/DeviceTester/amazon-freertos/lib/FreeRTOS-Plus-TCP/source\FreeRTOS_IP.c **** 				xTimeout = ( TickType_t ) 0;
1194:D:/Work/DeviceTester/amazon-freertos/lib/FreeRTOS-Plus-TCP/source\FreeRTOS_IP.c **** 			}
1195:D:/Work/DeviceTester/amazon-freertos/lib/FreeRTOS-Plus-TCP/source\FreeRTOS_IP.c **** 
1196:D:/Work/DeviceTester/amazon-freertos/lib/FreeRTOS-Plus-TCP/source\FreeRTOS_IP.c **** 			xReturn = xQueueSendToBack( xNetworkEventQueue, pxEvent, xTimeout );
1197:D:/Work/DeviceTester/amazon-freertos/lib/FreeRTOS-Plus-TCP/source\FreeRTOS_IP.c **** 
1198:D:/Work/DeviceTester/amazon-freertos/lib/FreeRTOS-Plus-TCP/source\FreeRTOS_IP.c **** 			if( xReturn == pdFAIL )
1199:D:/Work/DeviceTester/amazon-freertos/lib/FreeRTOS-Plus-TCP/source\FreeRTOS_IP.c **** 			{
1200:D:/Work/DeviceTester/amazon-freertos/lib/FreeRTOS-Plus-TCP/source\FreeRTOS_IP.c **** 				/* A message should have been sent to the IP task, but wasn't. */
1201:D:/Work/DeviceTester/amazon-freertos/lib/FreeRTOS-Plus-TCP/source\FreeRTOS_IP.c **** 				FreeRTOS_debug_printf( ( "xSendEventStructToIPTask: CAN NOT ADD %d\n", pxEvent->eEventType ) );
1202:D:/Work/DeviceTester/amazon-freertos/lib/FreeRTOS-Plus-TCP/source\FreeRTOS_IP.c **** 				iptraceSTACK_TX_EVENT_LOST( pxEvent->eEventType );
1203:D:/Work/DeviceTester/amazon-freertos/lib/FreeRTOS-Plus-TCP/source\FreeRTOS_IP.c **** 			}
1204:D:/Work/DeviceTester/amazon-freertos/lib/FreeRTOS-Plus-TCP/source\FreeRTOS_IP.c **** 		}
1205:D:/Work/DeviceTester/amazon-freertos/lib/FreeRTOS-Plus-TCP/source\FreeRTOS_IP.c **** 		else
1206:D:/Work/DeviceTester/amazon-freertos/lib/FreeRTOS-Plus-TCP/source\FreeRTOS_IP.c **** 		{
1207:D:/Work/DeviceTester/amazon-freertos/lib/FreeRTOS-Plus-TCP/source\FreeRTOS_IP.c **** 			/* It was not necessary to send the message to process the event so
1208:D:/Work/DeviceTester/amazon-freertos/lib/FreeRTOS-Plus-TCP/source\FreeRTOS_IP.c **** 			even though the message was not sent the call was successful. */
1209:D:/Work/DeviceTester/amazon-freertos/lib/FreeRTOS-Plus-TCP/source\FreeRTOS_IP.c **** 			xReturn = pdPASS;
1210:D:/Work/DeviceTester/amazon-freertos/lib/FreeRTOS-Plus-TCP/source\FreeRTOS_IP.c **** 		}
1211:D:/Work/DeviceTester/amazon-freertos/lib/FreeRTOS-Plus-TCP/source\FreeRTOS_IP.c **** 	}
1212:D:/Work/DeviceTester/amazon-freertos/lib/FreeRTOS-Plus-TCP/source\FreeRTOS_IP.c **** 
1213:D:/Work/DeviceTester/amazon-freertos/lib/FreeRTOS-Plus-TCP/source\FreeRTOS_IP.c **** 	return xReturn;
1214:D:/Work/DeviceTester/amazon-freertos/lib/FreeRTOS-Plus-TCP/source\FreeRTOS_IP.c **** }
1215:D:/Work/DeviceTester/amazon-freertos/lib/FreeRTOS-Plus-TCP/source\FreeRTOS_IP.c **** /*-----------------------------------------------------------*/
1216:D:/Work/DeviceTester/amazon-freertos/lib/FreeRTOS-Plus-TCP/source\FreeRTOS_IP.c **** 
1217:D:/Work/DeviceTester/amazon-freertos/lib/FreeRTOS-Plus-TCP/source\FreeRTOS_IP.c **** eFrameProcessingResult_t eConsiderFrameForProcessing( const uint8_t * const pucEthernetBuffer )
1218:D:/Work/DeviceTester/amazon-freertos/lib/FreeRTOS-Plus-TCP/source\FreeRTOS_IP.c **** {
1219:D:/Work/DeviceTester/amazon-freertos/lib/FreeRTOS-Plus-TCP/source\FreeRTOS_IP.c **** eFrameProcessingResult_t eReturn;
1220:D:/Work/DeviceTester/amazon-freertos/lib/FreeRTOS-Plus-TCP/source\FreeRTOS_IP.c **** const EthernetHeader_t *pxEthernetHeader;
1221:D:/Work/DeviceTester/amazon-freertos/lib/FreeRTOS-Plus-TCP/source\FreeRTOS_IP.c **** 
1222:D:/Work/DeviceTester/amazon-freertos/lib/FreeRTOS-Plus-TCP/source\FreeRTOS_IP.c **** 	pxEthernetHeader = ( const EthernetHeader_t * ) pucEthernetBuffer;
1223:D:/Work/DeviceTester/amazon-freertos/lib/FreeRTOS-Plus-TCP/source\FreeRTOS_IP.c **** 
1224:D:/Work/DeviceTester/amazon-freertos/lib/FreeRTOS-Plus-TCP/source\FreeRTOS_IP.c **** 	if( memcmp( ( void * ) ipLOCAL_MAC_ADDRESS, ( void * ) &( pxEthernetHeader->xDestinationAddress ),
1225:D:/Work/DeviceTester/amazon-freertos/lib/FreeRTOS-Plus-TCP/source\FreeRTOS_IP.c **** 	{
1226:D:/Work/DeviceTester/amazon-freertos/lib/FreeRTOS-Plus-TCP/source\FreeRTOS_IP.c **** 		/* The packet was directed to this node directly - process it. */
1227:D:/Work/DeviceTester/amazon-freertos/lib/FreeRTOS-Plus-TCP/source\FreeRTOS_IP.c **** 		eReturn = eProcessBuffer;
1228:D:/Work/DeviceTester/amazon-freertos/lib/FreeRTOS-Plus-TCP/source\FreeRTOS_IP.c **** 	}
1229:D:/Work/DeviceTester/amazon-freertos/lib/FreeRTOS-Plus-TCP/source\FreeRTOS_IP.c **** 	else if( memcmp( ( void * ) xBroadcastMACAddress.ucBytes, ( void * ) pxEthernetHeader->xDestinatio
1230:D:/Work/DeviceTester/amazon-freertos/lib/FreeRTOS-Plus-TCP/source\FreeRTOS_IP.c **** 	{
1231:D:/Work/DeviceTester/amazon-freertos/lib/FreeRTOS-Plus-TCP/source\FreeRTOS_IP.c **** 		/* The packet was a broadcast - process it. */
1232:D:/Work/DeviceTester/amazon-freertos/lib/FreeRTOS-Plus-TCP/source\FreeRTOS_IP.c **** 		eReturn = eProcessBuffer;
1233:D:/Work/DeviceTester/amazon-freertos/lib/FreeRTOS-Plus-TCP/source\FreeRTOS_IP.c **** 	}
1234:D:/Work/DeviceTester/amazon-freertos/lib/FreeRTOS-Plus-TCP/source\FreeRTOS_IP.c **** 	else
1235:D:/Work/DeviceTester/amazon-freertos/lib/FreeRTOS-Plus-TCP/source\FreeRTOS_IP.c **** #if( ipconfigUSE_LLMNR == 1 )
1236:D:/Work/DeviceTester/amazon-freertos/lib/FreeRTOS-Plus-TCP/source\FreeRTOS_IP.c **** 	if( memcmp( ( void * ) xLLMNR_MacAdress.ucBytes, ( void * ) pxEthernetHeader->xDestinationAddress.
1237:D:/Work/DeviceTester/amazon-freertos/lib/FreeRTOS-Plus-TCP/source\FreeRTOS_IP.c **** 	{
1238:D:/Work/DeviceTester/amazon-freertos/lib/FreeRTOS-Plus-TCP/source\FreeRTOS_IP.c **** 		/* The packet is a request for LLMNR - process it. */
1239:D:/Work/DeviceTester/amazon-freertos/lib/FreeRTOS-Plus-TCP/source\FreeRTOS_IP.c **** 		eReturn = eProcessBuffer;
1240:D:/Work/DeviceTester/amazon-freertos/lib/FreeRTOS-Plus-TCP/source\FreeRTOS_IP.c **** 	}
1241:D:/Work/DeviceTester/amazon-freertos/lib/FreeRTOS-Plus-TCP/source\FreeRTOS_IP.c **** 	else
1242:D:/Work/DeviceTester/amazon-freertos/lib/FreeRTOS-Plus-TCP/source\FreeRTOS_IP.c **** #endif /* ipconfigUSE_LLMNR */
1243:D:/Work/DeviceTester/amazon-freertos/lib/FreeRTOS-Plus-TCP/source\FreeRTOS_IP.c **** 	{
1244:D:/Work/DeviceTester/amazon-freertos/lib/FreeRTOS-Plus-TCP/source\FreeRTOS_IP.c **** 		/* The packet was not a broadcast, or for this node, just release
1245:D:/Work/DeviceTester/amazon-freertos/lib/FreeRTOS-Plus-TCP/source\FreeRTOS_IP.c **** 		the buffer without taking any other action. */
1246:D:/Work/DeviceTester/amazon-freertos/lib/FreeRTOS-Plus-TCP/source\FreeRTOS_IP.c **** 		eReturn = eReleaseBuffer;
1247:D:/Work/DeviceTester/amazon-freertos/lib/FreeRTOS-Plus-TCP/source\FreeRTOS_IP.c **** 	}
1248:D:/Work/DeviceTester/amazon-freertos/lib/FreeRTOS-Plus-TCP/source\FreeRTOS_IP.c **** 
1249:D:/Work/DeviceTester/amazon-freertos/lib/FreeRTOS-Plus-TCP/source\FreeRTOS_IP.c **** 	#if( ipconfigFILTER_OUT_NON_ETHERNET_II_FRAMES == 1 )
1250:D:/Work/DeviceTester/amazon-freertos/lib/FreeRTOS-Plus-TCP/source\FreeRTOS_IP.c **** 	{
1251:D:/Work/DeviceTester/amazon-freertos/lib/FreeRTOS-Plus-TCP/source\FreeRTOS_IP.c **** 	uint16_t usFrameType;
1252:D:/Work/DeviceTester/amazon-freertos/lib/FreeRTOS-Plus-TCP/source\FreeRTOS_IP.c **** 
1253:D:/Work/DeviceTester/amazon-freertos/lib/FreeRTOS-Plus-TCP/source\FreeRTOS_IP.c **** 		if( eReturn == eProcessBuffer )
1254:D:/Work/DeviceTester/amazon-freertos/lib/FreeRTOS-Plus-TCP/source\FreeRTOS_IP.c **** 		{
1255:D:/Work/DeviceTester/amazon-freertos/lib/FreeRTOS-Plus-TCP/source\FreeRTOS_IP.c **** 			usFrameType = pxEthernetHeader->usFrameType;
1256:D:/Work/DeviceTester/amazon-freertos/lib/FreeRTOS-Plus-TCP/source\FreeRTOS_IP.c **** 			usFrameType = FreeRTOS_ntohs( usFrameType );
1257:D:/Work/DeviceTester/amazon-freertos/lib/FreeRTOS-Plus-TCP/source\FreeRTOS_IP.c **** 
1258:D:/Work/DeviceTester/amazon-freertos/lib/FreeRTOS-Plus-TCP/source\FreeRTOS_IP.c **** 			if( usFrameType <= 0x600U )
1259:D:/Work/DeviceTester/amazon-freertos/lib/FreeRTOS-Plus-TCP/source\FreeRTOS_IP.c **** 			{
1260:D:/Work/DeviceTester/amazon-freertos/lib/FreeRTOS-Plus-TCP/source\FreeRTOS_IP.c **** 				/* Not an Ethernet II frame. */
1261:D:/Work/DeviceTester/amazon-freertos/lib/FreeRTOS-Plus-TCP/source\FreeRTOS_IP.c **** 				eReturn = eReleaseBuffer;
1262:D:/Work/DeviceTester/amazon-freertos/lib/FreeRTOS-Plus-TCP/source\FreeRTOS_IP.c **** 			}
1263:D:/Work/DeviceTester/amazon-freertos/lib/FreeRTOS-Plus-TCP/source\FreeRTOS_IP.c **** 		}
1264:D:/Work/DeviceTester/amazon-freertos/lib/FreeRTOS-Plus-TCP/source\FreeRTOS_IP.c **** 	}
1265:D:/Work/DeviceTester/amazon-freertos/lib/FreeRTOS-Plus-TCP/source\FreeRTOS_IP.c **** 	#endif /* ipconfigFILTER_OUT_NON_ETHERNET_II_FRAMES == 1  */
1266:D:/Work/DeviceTester/amazon-freertos/lib/FreeRTOS-Plus-TCP/source\FreeRTOS_IP.c **** 
1267:D:/Work/DeviceTester/amazon-freertos/lib/FreeRTOS-Plus-TCP/source\FreeRTOS_IP.c **** 	return eReturn;
1268:D:/Work/DeviceTester/amazon-freertos/lib/FreeRTOS-Plus-TCP/source\FreeRTOS_IP.c **** }
1269:D:/Work/DeviceTester/amazon-freertos/lib/FreeRTOS-Plus-TCP/source\FreeRTOS_IP.c **** /*-----------------------------------------------------------*/
1270:D:/Work/DeviceTester/amazon-freertos/lib/FreeRTOS-Plus-TCP/source\FreeRTOS_IP.c **** 
1271:D:/Work/DeviceTester/amazon-freertos/lib/FreeRTOS-Plus-TCP/source\FreeRTOS_IP.c **** static void prvProcessNetworkDownEvent( void )
1272:D:/Work/DeviceTester/amazon-freertos/lib/FreeRTOS-Plus-TCP/source\FreeRTOS_IP.c **** {
1273:D:/Work/DeviceTester/amazon-freertos/lib/FreeRTOS-Plus-TCP/source\FreeRTOS_IP.c **** 	/* Stop the ARP timer while there is no network. */
1274:D:/Work/DeviceTester/amazon-freertos/lib/FreeRTOS-Plus-TCP/source\FreeRTOS_IP.c **** 	xARPTimer.bActive = pdFALSE_UNSIGNED;
1275:D:/Work/DeviceTester/amazon-freertos/lib/FreeRTOS-Plus-TCP/source\FreeRTOS_IP.c **** 
1276:D:/Work/DeviceTester/amazon-freertos/lib/FreeRTOS-Plus-TCP/source\FreeRTOS_IP.c **** 	#if ipconfigUSE_NETWORK_EVENT_HOOK == 1
1277:D:/Work/DeviceTester/amazon-freertos/lib/FreeRTOS-Plus-TCP/source\FreeRTOS_IP.c **** 	{
1278:D:/Work/DeviceTester/amazon-freertos/lib/FreeRTOS-Plus-TCP/source\FreeRTOS_IP.c **** 		static BaseType_t xCallEventHook = pdFALSE;
1279:D:/Work/DeviceTester/amazon-freertos/lib/FreeRTOS-Plus-TCP/source\FreeRTOS_IP.c **** 
1280:D:/Work/DeviceTester/amazon-freertos/lib/FreeRTOS-Plus-TCP/source\FreeRTOS_IP.c **** 		/* The first network down event is generated by the IP stack itself to
1281:D:/Work/DeviceTester/amazon-freertos/lib/FreeRTOS-Plus-TCP/source\FreeRTOS_IP.c **** 		initialise the network hardware, so do not call the network down event
1282:D:/Work/DeviceTester/amazon-freertos/lib/FreeRTOS-Plus-TCP/source\FreeRTOS_IP.c **** 		the first time through. */
1283:D:/Work/DeviceTester/amazon-freertos/lib/FreeRTOS-Plus-TCP/source\FreeRTOS_IP.c **** 		if( xCallEventHook == pdTRUE )
1284:D:/Work/DeviceTester/amazon-freertos/lib/FreeRTOS-Plus-TCP/source\FreeRTOS_IP.c **** 		{
1285:D:/Work/DeviceTester/amazon-freertos/lib/FreeRTOS-Plus-TCP/source\FreeRTOS_IP.c **** 			vApplicationIPNetworkEventHook( eNetworkDown );
1286:D:/Work/DeviceTester/amazon-freertos/lib/FreeRTOS-Plus-TCP/source\FreeRTOS_IP.c **** 		}
1287:D:/Work/DeviceTester/amazon-freertos/lib/FreeRTOS-Plus-TCP/source\FreeRTOS_IP.c **** 		xCallEventHook = pdTRUE;
1288:D:/Work/DeviceTester/amazon-freertos/lib/FreeRTOS-Plus-TCP/source\FreeRTOS_IP.c **** 	}
1289:D:/Work/DeviceTester/amazon-freertos/lib/FreeRTOS-Plus-TCP/source\FreeRTOS_IP.c **** 	#endif
1290:D:/Work/DeviceTester/amazon-freertos/lib/FreeRTOS-Plus-TCP/source\FreeRTOS_IP.c **** 
1291:D:/Work/DeviceTester/amazon-freertos/lib/FreeRTOS-Plus-TCP/source\FreeRTOS_IP.c **** 	/* Per the ARP Cache Validation section of https://tools.ietf.org/html/rfc1122, 
1292:D:/Work/DeviceTester/amazon-freertos/lib/FreeRTOS-Plus-TCP/source\FreeRTOS_IP.c **** 	treat network down as a "delivery problem" and flush the ARP cache for this
1293:D:/Work/DeviceTester/amazon-freertos/lib/FreeRTOS-Plus-TCP/source\FreeRTOS_IP.c **** 	interface. */
1294:D:/Work/DeviceTester/amazon-freertos/lib/FreeRTOS-Plus-TCP/source\FreeRTOS_IP.c **** 	FreeRTOS_ClearARP( );
1295:D:/Work/DeviceTester/amazon-freertos/lib/FreeRTOS-Plus-TCP/source\FreeRTOS_IP.c **** 
1296:D:/Work/DeviceTester/amazon-freertos/lib/FreeRTOS-Plus-TCP/source\FreeRTOS_IP.c **** 	/* The network has been disconnected (or is being initialised for the first
1297:D:/Work/DeviceTester/amazon-freertos/lib/FreeRTOS-Plus-TCP/source\FreeRTOS_IP.c **** 	time).  Perform whatever hardware processing is necessary to bring it up
1298:D:/Work/DeviceTester/amazon-freertos/lib/FreeRTOS-Plus-TCP/source\FreeRTOS_IP.c **** 	again, or wait for it to be available again.  This is hardware dependent. */
1299:D:/Work/DeviceTester/amazon-freertos/lib/FreeRTOS-Plus-TCP/source\FreeRTOS_IP.c **** 	if( xNetworkInterfaceInitialise() != pdPASS )
1300:D:/Work/DeviceTester/amazon-freertos/lib/FreeRTOS-Plus-TCP/source\FreeRTOS_IP.c **** 	{
1301:D:/Work/DeviceTester/amazon-freertos/lib/FreeRTOS-Plus-TCP/source\FreeRTOS_IP.c **** 		/* Ideally the network interface initialisation function will only
1302:D:/Work/DeviceTester/amazon-freertos/lib/FreeRTOS-Plus-TCP/source\FreeRTOS_IP.c **** 		return when the network is available.  In case this is not the case,
1303:D:/Work/DeviceTester/amazon-freertos/lib/FreeRTOS-Plus-TCP/source\FreeRTOS_IP.c **** 		wait a while before retrying the initialisation. */
1304:D:/Work/DeviceTester/amazon-freertos/lib/FreeRTOS-Plus-TCP/source\FreeRTOS_IP.c **** 		vTaskDelay( ipINITIALISATION_RETRY_DELAY );
1305:D:/Work/DeviceTester/amazon-freertos/lib/FreeRTOS-Plus-TCP/source\FreeRTOS_IP.c **** 		FreeRTOS_NetworkDown();
1306:D:/Work/DeviceTester/amazon-freertos/lib/FreeRTOS-Plus-TCP/source\FreeRTOS_IP.c **** 	}
1307:D:/Work/DeviceTester/amazon-freertos/lib/FreeRTOS-Plus-TCP/source\FreeRTOS_IP.c **** 	else
1308:D:/Work/DeviceTester/amazon-freertos/lib/FreeRTOS-Plus-TCP/source\FreeRTOS_IP.c **** 	{
1309:D:/Work/DeviceTester/amazon-freertos/lib/FreeRTOS-Plus-TCP/source\FreeRTOS_IP.c **** 		/* Set remaining time to 0 so it will become active immediately. */
1310:D:/Work/DeviceTester/amazon-freertos/lib/FreeRTOS-Plus-TCP/source\FreeRTOS_IP.c **** 		#if ipconfigUSE_DHCP == 1
1311:D:/Work/DeviceTester/amazon-freertos/lib/FreeRTOS-Plus-TCP/source\FreeRTOS_IP.c **** 		{
1312:D:/Work/DeviceTester/amazon-freertos/lib/FreeRTOS-Plus-TCP/source\FreeRTOS_IP.c **** 			/* The network is not up until DHCP has completed. */
1313:D:/Work/DeviceTester/amazon-freertos/lib/FreeRTOS-Plus-TCP/source\FreeRTOS_IP.c **** 			vDHCPProcess( pdTRUE );
1314:D:/Work/DeviceTester/amazon-freertos/lib/FreeRTOS-Plus-TCP/source\FreeRTOS_IP.c **** 			xSendEventToIPTask( eDHCPEvent );
1315:D:/Work/DeviceTester/amazon-freertos/lib/FreeRTOS-Plus-TCP/source\FreeRTOS_IP.c **** 		}
1316:D:/Work/DeviceTester/amazon-freertos/lib/FreeRTOS-Plus-TCP/source\FreeRTOS_IP.c **** 		#else
1317:D:/Work/DeviceTester/amazon-freertos/lib/FreeRTOS-Plus-TCP/source\FreeRTOS_IP.c **** 		{
1318:D:/Work/DeviceTester/amazon-freertos/lib/FreeRTOS-Plus-TCP/source\FreeRTOS_IP.c **** 			/* Perform any necessary 'network up' processing. */
1319:D:/Work/DeviceTester/amazon-freertos/lib/FreeRTOS-Plus-TCP/source\FreeRTOS_IP.c **** 			vIPNetworkUpCalls();
1320:D:/Work/DeviceTester/amazon-freertos/lib/FreeRTOS-Plus-TCP/source\FreeRTOS_IP.c **** 		}
1321:D:/Work/DeviceTester/amazon-freertos/lib/FreeRTOS-Plus-TCP/source\FreeRTOS_IP.c **** 		#endif
1322:D:/Work/DeviceTester/amazon-freertos/lib/FreeRTOS-Plus-TCP/source\FreeRTOS_IP.c **** 	}
1323:D:/Work/DeviceTester/amazon-freertos/lib/FreeRTOS-Plus-TCP/source\FreeRTOS_IP.c **** }
1324:D:/Work/DeviceTester/amazon-freertos/lib/FreeRTOS-Plus-TCP/source\FreeRTOS_IP.c **** /*-----------------------------------------------------------*/
1325:D:/Work/DeviceTester/amazon-freertos/lib/FreeRTOS-Plus-TCP/source\FreeRTOS_IP.c **** 
1326:D:/Work/DeviceTester/amazon-freertos/lib/FreeRTOS-Plus-TCP/source\FreeRTOS_IP.c **** void vIPNetworkUpCalls( void )
1327:D:/Work/DeviceTester/amazon-freertos/lib/FreeRTOS-Plus-TCP/source\FreeRTOS_IP.c **** {
1328:D:/Work/DeviceTester/amazon-freertos/lib/FreeRTOS-Plus-TCP/source\FreeRTOS_IP.c **** 	xNetworkUp = pdTRUE;
1329:D:/Work/DeviceTester/amazon-freertos/lib/FreeRTOS-Plus-TCP/source\FreeRTOS_IP.c **** 
1330:D:/Work/DeviceTester/amazon-freertos/lib/FreeRTOS-Plus-TCP/source\FreeRTOS_IP.c **** 	#if( ipconfigUSE_NETWORK_EVENT_HOOK == 1 )
1331:D:/Work/DeviceTester/amazon-freertos/lib/FreeRTOS-Plus-TCP/source\FreeRTOS_IP.c **** 	{
1332:D:/Work/DeviceTester/amazon-freertos/lib/FreeRTOS-Plus-TCP/source\FreeRTOS_IP.c **** 		vApplicationIPNetworkEventHook( eNetworkUp );
1333:D:/Work/DeviceTester/amazon-freertos/lib/FreeRTOS-Plus-TCP/source\FreeRTOS_IP.c **** 	}
1334:D:/Work/DeviceTester/amazon-freertos/lib/FreeRTOS-Plus-TCP/source\FreeRTOS_IP.c **** 	#endif /* ipconfigUSE_NETWORK_EVENT_HOOK */
1335:D:/Work/DeviceTester/amazon-freertos/lib/FreeRTOS-Plus-TCP/source\FreeRTOS_IP.c **** 
1336:D:/Work/DeviceTester/amazon-freertos/lib/FreeRTOS-Plus-TCP/source\FreeRTOS_IP.c **** 	#if( ipconfigDNS_USE_CALLBACKS != 0 )
1337:D:/Work/DeviceTester/amazon-freertos/lib/FreeRTOS-Plus-TCP/source\FreeRTOS_IP.c **** 	{
1338:D:/Work/DeviceTester/amazon-freertos/lib/FreeRTOS-Plus-TCP/source\FreeRTOS_IP.c **** 		/* The following function is declared in FreeRTOS_DNS.c	and 'private' to
1339:D:/Work/DeviceTester/amazon-freertos/lib/FreeRTOS-Plus-TCP/source\FreeRTOS_IP.c **** 		this library */
1340:D:/Work/DeviceTester/amazon-freertos/lib/FreeRTOS-Plus-TCP/source\FreeRTOS_IP.c **** 		extern void vDNSInitialise( void );
1341:D:/Work/DeviceTester/amazon-freertos/lib/FreeRTOS-Plus-TCP/source\FreeRTOS_IP.c **** 		vDNSInitialise();
1342:D:/Work/DeviceTester/amazon-freertos/lib/FreeRTOS-Plus-TCP/source\FreeRTOS_IP.c **** 	}
1343:D:/Work/DeviceTester/amazon-freertos/lib/FreeRTOS-Plus-TCP/source\FreeRTOS_IP.c **** 	#endif /* ipconfigDNS_USE_CALLBACKS != 0 */
1344:D:/Work/DeviceTester/amazon-freertos/lib/FreeRTOS-Plus-TCP/source\FreeRTOS_IP.c **** 
1345:D:/Work/DeviceTester/amazon-freertos/lib/FreeRTOS-Plus-TCP/source\FreeRTOS_IP.c **** 	/* Set remaining time to 0 so it will become active immediately. */
1346:D:/Work/DeviceTester/amazon-freertos/lib/FreeRTOS-Plus-TCP/source\FreeRTOS_IP.c **** 	prvIPTimerReload( &xARPTimer, pdMS_TO_TICKS( ipARP_TIMER_PERIOD_MS ) );
1347:D:/Work/DeviceTester/amazon-freertos/lib/FreeRTOS-Plus-TCP/source\FreeRTOS_IP.c **** }
1348:D:/Work/DeviceTester/amazon-freertos/lib/FreeRTOS-Plus-TCP/source\FreeRTOS_IP.c **** /*-----------------------------------------------------------*/
1349:D:/Work/DeviceTester/amazon-freertos/lib/FreeRTOS-Plus-TCP/source\FreeRTOS_IP.c **** 
1350:D:/Work/DeviceTester/amazon-freertos/lib/FreeRTOS-Plus-TCP/source\FreeRTOS_IP.c **** static void prvProcessEthernetPacket( NetworkBufferDescriptor_t * const pxNetworkBuffer )
1351:D:/Work/DeviceTester/amazon-freertos/lib/FreeRTOS-Plus-TCP/source\FreeRTOS_IP.c **** {
1352:D:/Work/DeviceTester/amazon-freertos/lib/FreeRTOS-Plus-TCP/source\FreeRTOS_IP.c **** EthernetHeader_t *pxEthernetHeader;
1353:D:/Work/DeviceTester/amazon-freertos/lib/FreeRTOS-Plus-TCP/source\FreeRTOS_IP.c **** eFrameProcessingResult_t eReturned = eReleaseBuffer;
1354:D:/Work/DeviceTester/amazon-freertos/lib/FreeRTOS-Plus-TCP/source\FreeRTOS_IP.c **** 
1355:D:/Work/DeviceTester/amazon-freertos/lib/FreeRTOS-Plus-TCP/source\FreeRTOS_IP.c **** 	configASSERT( pxNetworkBuffer );
1356:D:/Work/DeviceTester/amazon-freertos/lib/FreeRTOS-Plus-TCP/source\FreeRTOS_IP.c **** 
1357:D:/Work/DeviceTester/amazon-freertos/lib/FreeRTOS-Plus-TCP/source\FreeRTOS_IP.c **** 	/* Interpret the Ethernet frame. */
1358:D:/Work/DeviceTester/amazon-freertos/lib/FreeRTOS-Plus-TCP/source\FreeRTOS_IP.c **** 	if( pxNetworkBuffer->xDataLength >= sizeof( EthernetHeader_t ) )
1359:D:/Work/DeviceTester/amazon-freertos/lib/FreeRTOS-Plus-TCP/source\FreeRTOS_IP.c **** 	{
1360:D:/Work/DeviceTester/amazon-freertos/lib/FreeRTOS-Plus-TCP/source\FreeRTOS_IP.c **** 		eReturned = ipCONSIDER_FRAME_FOR_PROCESSING( pxNetworkBuffer->pucEthernetBuffer );
1361:D:/Work/DeviceTester/amazon-freertos/lib/FreeRTOS-Plus-TCP/source\FreeRTOS_IP.c **** 		pxEthernetHeader = ( EthernetHeader_t * )( pxNetworkBuffer->pucEthernetBuffer );
1362:D:/Work/DeviceTester/amazon-freertos/lib/FreeRTOS-Plus-TCP/source\FreeRTOS_IP.c **** 
1363:D:/Work/DeviceTester/amazon-freertos/lib/FreeRTOS-Plus-TCP/source\FreeRTOS_IP.c **** 		if( eReturned == eProcessBuffer )
1364:D:/Work/DeviceTester/amazon-freertos/lib/FreeRTOS-Plus-TCP/source\FreeRTOS_IP.c **** 		{
1365:D:/Work/DeviceTester/amazon-freertos/lib/FreeRTOS-Plus-TCP/source\FreeRTOS_IP.c **** 			/* Interpret the received Ethernet packet. */
1366:D:/Work/DeviceTester/amazon-freertos/lib/FreeRTOS-Plus-TCP/source\FreeRTOS_IP.c **** 			switch( pxEthernetHeader->usFrameType )
1367:D:/Work/DeviceTester/amazon-freertos/lib/FreeRTOS-Plus-TCP/source\FreeRTOS_IP.c **** 			{
1368:D:/Work/DeviceTester/amazon-freertos/lib/FreeRTOS-Plus-TCP/source\FreeRTOS_IP.c **** 			case ipARP_FRAME_TYPE:
1369:D:/Work/DeviceTester/amazon-freertos/lib/FreeRTOS-Plus-TCP/source\FreeRTOS_IP.c **** 				/* The Ethernet frame contains an ARP packet. */
1370:D:/Work/DeviceTester/amazon-freertos/lib/FreeRTOS-Plus-TCP/source\FreeRTOS_IP.c **** 				if( pxNetworkBuffer->xDataLength >= sizeof( ARPPacket_t ) )
1371:D:/Work/DeviceTester/amazon-freertos/lib/FreeRTOS-Plus-TCP/source\FreeRTOS_IP.c **** 				{
1372:D:/Work/DeviceTester/amazon-freertos/lib/FreeRTOS-Plus-TCP/source\FreeRTOS_IP.c **** 					eReturned = eARPProcessPacket( ( ARPPacket_t * )pxNetworkBuffer->pucEthernetBuffer );
1373:D:/Work/DeviceTester/amazon-freertos/lib/FreeRTOS-Plus-TCP/source\FreeRTOS_IP.c **** 				}
1374:D:/Work/DeviceTester/amazon-freertos/lib/FreeRTOS-Plus-TCP/source\FreeRTOS_IP.c **** 				else
1375:D:/Work/DeviceTester/amazon-freertos/lib/FreeRTOS-Plus-TCP/source\FreeRTOS_IP.c **** 				{
1376:D:/Work/DeviceTester/amazon-freertos/lib/FreeRTOS-Plus-TCP/source\FreeRTOS_IP.c **** 					eReturned = eReleaseBuffer;
1377:D:/Work/DeviceTester/amazon-freertos/lib/FreeRTOS-Plus-TCP/source\FreeRTOS_IP.c **** 				}
1378:D:/Work/DeviceTester/amazon-freertos/lib/FreeRTOS-Plus-TCP/source\FreeRTOS_IP.c **** 				break;
1379:D:/Work/DeviceTester/amazon-freertos/lib/FreeRTOS-Plus-TCP/source\FreeRTOS_IP.c **** 
1380:D:/Work/DeviceTester/amazon-freertos/lib/FreeRTOS-Plus-TCP/source\FreeRTOS_IP.c **** 			case ipIPv4_FRAME_TYPE:
1381:D:/Work/DeviceTester/amazon-freertos/lib/FreeRTOS-Plus-TCP/source\FreeRTOS_IP.c **** 				/* The Ethernet frame contains an IP packet. */
1382:D:/Work/DeviceTester/amazon-freertos/lib/FreeRTOS-Plus-TCP/source\FreeRTOS_IP.c **** 				if( pxNetworkBuffer->xDataLength >= sizeof( IPPacket_t ) )
1383:D:/Work/DeviceTester/amazon-freertos/lib/FreeRTOS-Plus-TCP/source\FreeRTOS_IP.c **** 				{
1384:D:/Work/DeviceTester/amazon-freertos/lib/FreeRTOS-Plus-TCP/source\FreeRTOS_IP.c **** 					eReturned = prvProcessIPPacket( ( IPPacket_t * )pxNetworkBuffer->pucEthernetBuffer, pxNetworkB
1385:D:/Work/DeviceTester/amazon-freertos/lib/FreeRTOS-Plus-TCP/source\FreeRTOS_IP.c **** 				}
1386:D:/Work/DeviceTester/amazon-freertos/lib/FreeRTOS-Plus-TCP/source\FreeRTOS_IP.c **** 				else
1387:D:/Work/DeviceTester/amazon-freertos/lib/FreeRTOS-Plus-TCP/source\FreeRTOS_IP.c **** 				{
1388:D:/Work/DeviceTester/amazon-freertos/lib/FreeRTOS-Plus-TCP/source\FreeRTOS_IP.c **** 					eReturned = eReleaseBuffer;
1389:D:/Work/DeviceTester/amazon-freertos/lib/FreeRTOS-Plus-TCP/source\FreeRTOS_IP.c **** 				}
1390:D:/Work/DeviceTester/amazon-freertos/lib/FreeRTOS-Plus-TCP/source\FreeRTOS_IP.c **** 				break;
1391:D:/Work/DeviceTester/amazon-freertos/lib/FreeRTOS-Plus-TCP/source\FreeRTOS_IP.c **** 
1392:D:/Work/DeviceTester/amazon-freertos/lib/FreeRTOS-Plus-TCP/source\FreeRTOS_IP.c **** 			default:
1393:D:/Work/DeviceTester/amazon-freertos/lib/FreeRTOS-Plus-TCP/source\FreeRTOS_IP.c **** 				/* No other packet types are handled.  Nothing to do. */
1394:D:/Work/DeviceTester/amazon-freertos/lib/FreeRTOS-Plus-TCP/source\FreeRTOS_IP.c **** 				eReturned = eReleaseBuffer;
1395:D:/Work/DeviceTester/amazon-freertos/lib/FreeRTOS-Plus-TCP/source\FreeRTOS_IP.c **** 				break;
1396:D:/Work/DeviceTester/amazon-freertos/lib/FreeRTOS-Plus-TCP/source\FreeRTOS_IP.c **** 			}
1397:D:/Work/DeviceTester/amazon-freertos/lib/FreeRTOS-Plus-TCP/source\FreeRTOS_IP.c **** 		}
1398:D:/Work/DeviceTester/amazon-freertos/lib/FreeRTOS-Plus-TCP/source\FreeRTOS_IP.c **** 	}
1399:D:/Work/DeviceTester/amazon-freertos/lib/FreeRTOS-Plus-TCP/source\FreeRTOS_IP.c **** 
1400:D:/Work/DeviceTester/amazon-freertos/lib/FreeRTOS-Plus-TCP/source\FreeRTOS_IP.c **** 	/* Perform any actions that resulted from processing the Ethernet frame. */
1401:D:/Work/DeviceTester/amazon-freertos/lib/FreeRTOS-Plus-TCP/source\FreeRTOS_IP.c **** 	switch( eReturned )
1402:D:/Work/DeviceTester/amazon-freertos/lib/FreeRTOS-Plus-TCP/source\FreeRTOS_IP.c **** 	{
1403:D:/Work/DeviceTester/amazon-freertos/lib/FreeRTOS-Plus-TCP/source\FreeRTOS_IP.c **** 		case eReturnEthernetFrame :
1404:D:/Work/DeviceTester/amazon-freertos/lib/FreeRTOS-Plus-TCP/source\FreeRTOS_IP.c **** 			/* The Ethernet frame will have been updated (maybe it was
1405:D:/Work/DeviceTester/amazon-freertos/lib/FreeRTOS-Plus-TCP/source\FreeRTOS_IP.c **** 			an ARP request or a PING request?) and should be sent back to
1406:D:/Work/DeviceTester/amazon-freertos/lib/FreeRTOS-Plus-TCP/source\FreeRTOS_IP.c **** 			its source. */
1407:D:/Work/DeviceTester/amazon-freertos/lib/FreeRTOS-Plus-TCP/source\FreeRTOS_IP.c **** 			vReturnEthernetFrame( pxNetworkBuffer, pdTRUE );
1408:D:/Work/DeviceTester/amazon-freertos/lib/FreeRTOS-Plus-TCP/source\FreeRTOS_IP.c **** 			/* parameter pdTRUE: the buffer must be released once
1409:D:/Work/DeviceTester/amazon-freertos/lib/FreeRTOS-Plus-TCP/source\FreeRTOS_IP.c **** 			the frame has been transmitted */
1410:D:/Work/DeviceTester/amazon-freertos/lib/FreeRTOS-Plus-TCP/source\FreeRTOS_IP.c **** 			break;
1411:D:/Work/DeviceTester/amazon-freertos/lib/FreeRTOS-Plus-TCP/source\FreeRTOS_IP.c **** 
1412:D:/Work/DeviceTester/amazon-freertos/lib/FreeRTOS-Plus-TCP/source\FreeRTOS_IP.c **** 		case eFrameConsumed :
1413:D:/Work/DeviceTester/amazon-freertos/lib/FreeRTOS-Plus-TCP/source\FreeRTOS_IP.c **** 			/* The frame is in use somewhere, don't release the buffer
1414:D:/Work/DeviceTester/amazon-freertos/lib/FreeRTOS-Plus-TCP/source\FreeRTOS_IP.c **** 			yet. */
1415:D:/Work/DeviceTester/amazon-freertos/lib/FreeRTOS-Plus-TCP/source\FreeRTOS_IP.c **** 			break;
1416:D:/Work/DeviceTester/amazon-freertos/lib/FreeRTOS-Plus-TCP/source\FreeRTOS_IP.c **** 
1417:D:/Work/DeviceTester/amazon-freertos/lib/FreeRTOS-Plus-TCP/source\FreeRTOS_IP.c **** 		default :
1418:D:/Work/DeviceTester/amazon-freertos/lib/FreeRTOS-Plus-TCP/source\FreeRTOS_IP.c **** 			/* The frame is not being used anywhere, and the
1419:D:/Work/DeviceTester/amazon-freertos/lib/FreeRTOS-Plus-TCP/source\FreeRTOS_IP.c **** 			NetworkBufferDescriptor_t structure containing the frame should
1420:D:/Work/DeviceTester/amazon-freertos/lib/FreeRTOS-Plus-TCP/source\FreeRTOS_IP.c **** 			just be	released back to the list of free buffers. */
1421:D:/Work/DeviceTester/amazon-freertos/lib/FreeRTOS-Plus-TCP/source\FreeRTOS_IP.c **** 			vReleaseNetworkBufferAndDescriptor( pxNetworkBuffer );
1422:D:/Work/DeviceTester/amazon-freertos/lib/FreeRTOS-Plus-TCP/source\FreeRTOS_IP.c **** 			break;
1423:D:/Work/DeviceTester/amazon-freertos/lib/FreeRTOS-Plus-TCP/source\FreeRTOS_IP.c **** 	}
1424:D:/Work/DeviceTester/amazon-freertos/lib/FreeRTOS-Plus-TCP/source\FreeRTOS_IP.c **** }
1425:D:/Work/DeviceTester/amazon-freertos/lib/FreeRTOS-Plus-TCP/source\FreeRTOS_IP.c **** /*-----------------------------------------------------------*/
1426:D:/Work/DeviceTester/amazon-freertos/lib/FreeRTOS-Plus-TCP/source\FreeRTOS_IP.c **** 
1427:D:/Work/DeviceTester/amazon-freertos/lib/FreeRTOS-Plus-TCP/source\FreeRTOS_IP.c **** static eFrameProcessingResult_t prvAllowIPPacket( const IPPacket_t * const pxIPPacket,
1428:D:/Work/DeviceTester/amazon-freertos/lib/FreeRTOS-Plus-TCP/source\FreeRTOS_IP.c **** 	NetworkBufferDescriptor_t * const pxNetworkBuffer, UBaseType_t uxHeaderLength )
1429:D:/Work/DeviceTester/amazon-freertos/lib/FreeRTOS-Plus-TCP/source\FreeRTOS_IP.c **** {
1430:D:/Work/DeviceTester/amazon-freertos/lib/FreeRTOS-Plus-TCP/source\FreeRTOS_IP.c **** eFrameProcessingResult_t eReturn = eProcessBuffer;
1431:D:/Work/DeviceTester/amazon-freertos/lib/FreeRTOS-Plus-TCP/source\FreeRTOS_IP.c **** 
1432:D:/Work/DeviceTester/amazon-freertos/lib/FreeRTOS-Plus-TCP/source\FreeRTOS_IP.c **** #if( ( ipconfigETHERNET_DRIVER_FILTERS_PACKETS == 0 ) || ( ipconfigDRIVER_INCLUDED_RX_IP_CHECKSUM =
1433:D:/Work/DeviceTester/amazon-freertos/lib/FreeRTOS-Plus-TCP/source\FreeRTOS_IP.c **** 	const IPHeader_t * pxIPHeader = &( pxIPPacket->xIPHeader );
1434:D:/Work/DeviceTester/amazon-freertos/lib/FreeRTOS-Plus-TCP/source\FreeRTOS_IP.c **** #else
1435:D:/Work/DeviceTester/amazon-freertos/lib/FreeRTOS-Plus-TCP/source\FreeRTOS_IP.c **** 	/* or else, the parameter won't be used and the function will be optimised
1436:D:/Work/DeviceTester/amazon-freertos/lib/FreeRTOS-Plus-TCP/source\FreeRTOS_IP.c **** 	away */
1437:D:/Work/DeviceTester/amazon-freertos/lib/FreeRTOS-Plus-TCP/source\FreeRTOS_IP.c **** 	( void ) pxIPPacket;
1438:D:/Work/DeviceTester/amazon-freertos/lib/FreeRTOS-Plus-TCP/source\FreeRTOS_IP.c **** #endif
1439:D:/Work/DeviceTester/amazon-freertos/lib/FreeRTOS-Plus-TCP/source\FreeRTOS_IP.c **** 
1440:D:/Work/DeviceTester/amazon-freertos/lib/FreeRTOS-Plus-TCP/source\FreeRTOS_IP.c **** 	#if( ipconfigETHERNET_DRIVER_FILTERS_PACKETS == 0 )
1441:D:/Work/DeviceTester/amazon-freertos/lib/FreeRTOS-Plus-TCP/source\FreeRTOS_IP.c **** 	{
1442:D:/Work/DeviceTester/amazon-freertos/lib/FreeRTOS-Plus-TCP/source\FreeRTOS_IP.c **** 		/* In systems with a very small amount of RAM, it might be advantageous
1443:D:/Work/DeviceTester/amazon-freertos/lib/FreeRTOS-Plus-TCP/source\FreeRTOS_IP.c **** 		to have incoming messages checked earlier, by the network card driver.
1444:D:/Work/DeviceTester/amazon-freertos/lib/FreeRTOS-Plus-TCP/source\FreeRTOS_IP.c **** 		This method may decrease the usage of sparse network buffers. */
1445:D:/Work/DeviceTester/amazon-freertos/lib/FreeRTOS-Plus-TCP/source\FreeRTOS_IP.c **** 		uint32_t ulDestinationIPAddress = pxIPHeader->ulDestinationIPAddress;
1446:D:/Work/DeviceTester/amazon-freertos/lib/FreeRTOS-Plus-TCP/source\FreeRTOS_IP.c **** 
1447:D:/Work/DeviceTester/amazon-freertos/lib/FreeRTOS-Plus-TCP/source\FreeRTOS_IP.c **** 			/* Ensure that the incoming packet is not fragmented (only outgoing
1448:D:/Work/DeviceTester/amazon-freertos/lib/FreeRTOS-Plus-TCP/source\FreeRTOS_IP.c **** 			packets can be fragmented) as these are the only handled IP frames
1449:D:/Work/DeviceTester/amazon-freertos/lib/FreeRTOS-Plus-TCP/source\FreeRTOS_IP.c **** 			currently. */
1450:D:/Work/DeviceTester/amazon-freertos/lib/FreeRTOS-Plus-TCP/source\FreeRTOS_IP.c **** 			if( ( pxIPHeader->usFragmentOffset & ipFRAGMENT_OFFSET_BIT_MASK ) != 0U )
1451:D:/Work/DeviceTester/amazon-freertos/lib/FreeRTOS-Plus-TCP/source\FreeRTOS_IP.c **** 			{
1452:D:/Work/DeviceTester/amazon-freertos/lib/FreeRTOS-Plus-TCP/source\FreeRTOS_IP.c **** 				/* Can not handle, fragmented packet. */
1453:D:/Work/DeviceTester/amazon-freertos/lib/FreeRTOS-Plus-TCP/source\FreeRTOS_IP.c **** 				eReturn = eReleaseBuffer;
1454:D:/Work/DeviceTester/amazon-freertos/lib/FreeRTOS-Plus-TCP/source\FreeRTOS_IP.c **** 			}
1455:D:/Work/DeviceTester/amazon-freertos/lib/FreeRTOS-Plus-TCP/source\FreeRTOS_IP.c **** 			/* 0x45 means: IPv4 with an IP header of 5 x 4 = 20 bytes
1456:D:/Work/DeviceTester/amazon-freertos/lib/FreeRTOS-Plus-TCP/source\FreeRTOS_IP.c **** 			 * 0x47 means: IPv4 with an IP header of 7 x 4 = 28 bytes */
1457:D:/Work/DeviceTester/amazon-freertos/lib/FreeRTOS-Plus-TCP/source\FreeRTOS_IP.c **** 			else if( ( pxIPHeader->ucVersionHeaderLength < 0x45u ) || ( pxIPHeader->ucVersionHeaderLength > 
1458:D:/Work/DeviceTester/amazon-freertos/lib/FreeRTOS-Plus-TCP/source\FreeRTOS_IP.c **** 			{
1459:D:/Work/DeviceTester/amazon-freertos/lib/FreeRTOS-Plus-TCP/source\FreeRTOS_IP.c **** 				/* Can not handle, unknown or invalid header version. */
1460:D:/Work/DeviceTester/amazon-freertos/lib/FreeRTOS-Plus-TCP/source\FreeRTOS_IP.c **** 				eReturn = eReleaseBuffer;
1461:D:/Work/DeviceTester/amazon-freertos/lib/FreeRTOS-Plus-TCP/source\FreeRTOS_IP.c **** 			}
1462:D:/Work/DeviceTester/amazon-freertos/lib/FreeRTOS-Plus-TCP/source\FreeRTOS_IP.c **** 				/* Is the packet for this IP address? */
1463:D:/Work/DeviceTester/amazon-freertos/lib/FreeRTOS-Plus-TCP/source\FreeRTOS_IP.c **** 			else if( ( ulDestinationIPAddress != *ipLOCAL_IP_ADDRESS_POINTER ) &&
1464:D:/Work/DeviceTester/amazon-freertos/lib/FreeRTOS-Plus-TCP/source\FreeRTOS_IP.c **** 				/* Is it the global broadcast address 255.255.255.255 ? */
1465:D:/Work/DeviceTester/amazon-freertos/lib/FreeRTOS-Plus-TCP/source\FreeRTOS_IP.c **** 				( ulDestinationIPAddress != ipBROADCAST_IP_ADDRESS ) &&
1466:D:/Work/DeviceTester/amazon-freertos/lib/FreeRTOS-Plus-TCP/source\FreeRTOS_IP.c **** 				/* Is it a specific broadcast address 192.168.1.255 ? */
1467:D:/Work/DeviceTester/amazon-freertos/lib/FreeRTOS-Plus-TCP/source\FreeRTOS_IP.c **** 				( ulDestinationIPAddress != xNetworkAddressing.ulBroadcastAddress ) &&
1468:D:/Work/DeviceTester/amazon-freertos/lib/FreeRTOS-Plus-TCP/source\FreeRTOS_IP.c **** 			#if( ipconfigUSE_LLMNR == 1 )
1469:D:/Work/DeviceTester/amazon-freertos/lib/FreeRTOS-Plus-TCP/source\FreeRTOS_IP.c **** 				/* Is it the LLMNR multicast address? */
1470:D:/Work/DeviceTester/amazon-freertos/lib/FreeRTOS-Plus-TCP/source\FreeRTOS_IP.c **** 				( ulDestinationIPAddress != ipLLMNR_IP_ADDR ) &&
1471:D:/Work/DeviceTester/amazon-freertos/lib/FreeRTOS-Plus-TCP/source\FreeRTOS_IP.c **** 			#endif
1472:D:/Work/DeviceTester/amazon-freertos/lib/FreeRTOS-Plus-TCP/source\FreeRTOS_IP.c **** 				/* Or (during DHCP negotiation) we have no IP-address yet? */
1473:D:/Work/DeviceTester/amazon-freertos/lib/FreeRTOS-Plus-TCP/source\FreeRTOS_IP.c **** 				( *ipLOCAL_IP_ADDRESS_POINTER != 0UL ) )
1474:D:/Work/DeviceTester/amazon-freertos/lib/FreeRTOS-Plus-TCP/source\FreeRTOS_IP.c **** 			{
1475:D:/Work/DeviceTester/amazon-freertos/lib/FreeRTOS-Plus-TCP/source\FreeRTOS_IP.c **** 				/* Packet is not for this node, release it */
1476:D:/Work/DeviceTester/amazon-freertos/lib/FreeRTOS-Plus-TCP/source\FreeRTOS_IP.c **** 				eReturn = eReleaseBuffer;
1477:D:/Work/DeviceTester/amazon-freertos/lib/FreeRTOS-Plus-TCP/source\FreeRTOS_IP.c **** 			}
1478:D:/Work/DeviceTester/amazon-freertos/lib/FreeRTOS-Plus-TCP/source\FreeRTOS_IP.c **** 	}
1479:D:/Work/DeviceTester/amazon-freertos/lib/FreeRTOS-Plus-TCP/source\FreeRTOS_IP.c **** 	#endif /* ipconfigETHERNET_DRIVER_FILTERS_PACKETS */
1480:D:/Work/DeviceTester/amazon-freertos/lib/FreeRTOS-Plus-TCP/source\FreeRTOS_IP.c **** 
1481:D:/Work/DeviceTester/amazon-freertos/lib/FreeRTOS-Plus-TCP/source\FreeRTOS_IP.c **** 	#if( ipconfigDRIVER_INCLUDED_RX_IP_CHECKSUM == 0 )
1482:D:/Work/DeviceTester/amazon-freertos/lib/FreeRTOS-Plus-TCP/source\FreeRTOS_IP.c **** 	{
1483:D:/Work/DeviceTester/amazon-freertos/lib/FreeRTOS-Plus-TCP/source\FreeRTOS_IP.c **** 		/* Some drivers of NIC's with checksum-offloading will enable the above
1484:D:/Work/DeviceTester/amazon-freertos/lib/FreeRTOS-Plus-TCP/source\FreeRTOS_IP.c **** 		define, so that the checksum won't be checked again here */
1485:D:/Work/DeviceTester/amazon-freertos/lib/FreeRTOS-Plus-TCP/source\FreeRTOS_IP.c **** 		if (eReturn == eProcessBuffer )
1486:D:/Work/DeviceTester/amazon-freertos/lib/FreeRTOS-Plus-TCP/source\FreeRTOS_IP.c **** 		{
1487:D:/Work/DeviceTester/amazon-freertos/lib/FreeRTOS-Plus-TCP/source\FreeRTOS_IP.c **** 			/* Is the IP header checksum correct? */
1488:D:/Work/DeviceTester/amazon-freertos/lib/FreeRTOS-Plus-TCP/source\FreeRTOS_IP.c **** 			if( ( pxIPHeader->ucProtocol != ( uint8_t ) ipPROTOCOL_ICMP ) &&
1489:D:/Work/DeviceTester/amazon-freertos/lib/FreeRTOS-Plus-TCP/source\FreeRTOS_IP.c **** 				( usGenerateChecksum( 0UL, ( uint8_t * ) &( pxIPHeader->ucVersionHeaderLength ), ( size_t ) uxH
1490:D:/Work/DeviceTester/amazon-freertos/lib/FreeRTOS-Plus-TCP/source\FreeRTOS_IP.c **** 			{
1491:D:/Work/DeviceTester/amazon-freertos/lib/FreeRTOS-Plus-TCP/source\FreeRTOS_IP.c **** 				/* Check sum in IP-header not correct. */
1492:D:/Work/DeviceTester/amazon-freertos/lib/FreeRTOS-Plus-TCP/source\FreeRTOS_IP.c **** 				eReturn = eReleaseBuffer;
1493:D:/Work/DeviceTester/amazon-freertos/lib/FreeRTOS-Plus-TCP/source\FreeRTOS_IP.c **** 			}
1494:D:/Work/DeviceTester/amazon-freertos/lib/FreeRTOS-Plus-TCP/source\FreeRTOS_IP.c **** 			/* Is the upper-layer checksum (TCP/UDP/ICMP) correct? */
1495:D:/Work/DeviceTester/amazon-freertos/lib/FreeRTOS-Plus-TCP/source\FreeRTOS_IP.c **** 			else if( usGenerateProtocolChecksum( ( uint8_t * )( pxNetworkBuffer->pucEthernetBuffer ), pxNetw
1496:D:/Work/DeviceTester/amazon-freertos/lib/FreeRTOS-Plus-TCP/source\FreeRTOS_IP.c **** 			{
1497:D:/Work/DeviceTester/amazon-freertos/lib/FreeRTOS-Plus-TCP/source\FreeRTOS_IP.c **** 				/* Protocol checksum not accepted. */
1498:D:/Work/DeviceTester/amazon-freertos/lib/FreeRTOS-Plus-TCP/source\FreeRTOS_IP.c **** 				eReturn = eReleaseBuffer;
1499:D:/Work/DeviceTester/amazon-freertos/lib/FreeRTOS-Plus-TCP/source\FreeRTOS_IP.c **** 			}
1500:D:/Work/DeviceTester/amazon-freertos/lib/FreeRTOS-Plus-TCP/source\FreeRTOS_IP.c **** 		}
1501:D:/Work/DeviceTester/amazon-freertos/lib/FreeRTOS-Plus-TCP/source\FreeRTOS_IP.c **** 	}
1502:D:/Work/DeviceTester/amazon-freertos/lib/FreeRTOS-Plus-TCP/source\FreeRTOS_IP.c **** 	#else
1503:D:/Work/DeviceTester/amazon-freertos/lib/FreeRTOS-Plus-TCP/source\FreeRTOS_IP.c **** 	{
1504:D:/Work/DeviceTester/amazon-freertos/lib/FreeRTOS-Plus-TCP/source\FreeRTOS_IP.c **** 		/* to avoid warning unused parameters */
1505:D:/Work/DeviceTester/amazon-freertos/lib/FreeRTOS-Plus-TCP/source\FreeRTOS_IP.c **** 		( void ) pxNetworkBuffer;
1506:D:/Work/DeviceTester/amazon-freertos/lib/FreeRTOS-Plus-TCP/source\FreeRTOS_IP.c **** 		( void ) uxHeaderLength;
1507:D:/Work/DeviceTester/amazon-freertos/lib/FreeRTOS-Plus-TCP/source\FreeRTOS_IP.c **** 	}
1508:D:/Work/DeviceTester/amazon-freertos/lib/FreeRTOS-Plus-TCP/source\FreeRTOS_IP.c **** 	#endif /* ipconfigDRIVER_INCLUDED_RX_IP_CHECKSUM == 0 */
1509:D:/Work/DeviceTester/amazon-freertos/lib/FreeRTOS-Plus-TCP/source\FreeRTOS_IP.c **** 
1510:D:/Work/DeviceTester/amazon-freertos/lib/FreeRTOS-Plus-TCP/source\FreeRTOS_IP.c **** 	return eReturn;
1511:D:/Work/DeviceTester/amazon-freertos/lib/FreeRTOS-Plus-TCP/source\FreeRTOS_IP.c **** }
1512:D:/Work/DeviceTester/amazon-freertos/lib/FreeRTOS-Plus-TCP/source\FreeRTOS_IP.c **** /*-----------------------------------------------------------*/
1513:D:/Work/DeviceTester/amazon-freertos/lib/FreeRTOS-Plus-TCP/source\FreeRTOS_IP.c **** 
1514:D:/Work/DeviceTester/amazon-freertos/lib/FreeRTOS-Plus-TCP/source\FreeRTOS_IP.c **** static eFrameProcessingResult_t prvProcessIPPacket( IPPacket_t * const pxIPPacket, NetworkBufferDes
1515:D:/Work/DeviceTester/amazon-freertos/lib/FreeRTOS-Plus-TCP/source\FreeRTOS_IP.c **** {
1516:D:/Work/DeviceTester/amazon-freertos/lib/FreeRTOS-Plus-TCP/source\FreeRTOS_IP.c **** eFrameProcessingResult_t eReturn;
1517:D:/Work/DeviceTester/amazon-freertos/lib/FreeRTOS-Plus-TCP/source\FreeRTOS_IP.c **** IPHeader_t * pxIPHeader = &( pxIPPacket->xIPHeader );
1518:D:/Work/DeviceTester/amazon-freertos/lib/FreeRTOS-Plus-TCP/source\FreeRTOS_IP.c **** UBaseType_t uxHeaderLength = ( UBaseType_t ) ( ( pxIPHeader->ucVersionHeaderLength & 0x0Fu ) << 2 )
1519:D:/Work/DeviceTester/amazon-freertos/lib/FreeRTOS-Plus-TCP/source\FreeRTOS_IP.c **** uint8_t ucProtocol;
1520:D:/Work/DeviceTester/amazon-freertos/lib/FreeRTOS-Plus-TCP/source\FreeRTOS_IP.c **** 
1521:D:/Work/DeviceTester/amazon-freertos/lib/FreeRTOS-Plus-TCP/source\FreeRTOS_IP.c **** 	/* Bound the calculated header length: take away the Ethernet header size,
1522:D:/Work/DeviceTester/amazon-freertos/lib/FreeRTOS-Plus-TCP/source\FreeRTOS_IP.c **** 	then check if the IP header is claiming to be longer than the remaining
1523:D:/Work/DeviceTester/amazon-freertos/lib/FreeRTOS-Plus-TCP/source\FreeRTOS_IP.c **** 	total packet size. Also check for minimal header field length. */
1524:D:/Work/DeviceTester/amazon-freertos/lib/FreeRTOS-Plus-TCP/source\FreeRTOS_IP.c **** 	if( ( uxHeaderLength > ( pxNetworkBuffer->xDataLength - ipSIZE_OF_ETH_HEADER ) ) ||
1525:D:/Work/DeviceTester/amazon-freertos/lib/FreeRTOS-Plus-TCP/source\FreeRTOS_IP.c **** 		( uxHeaderLength < ipSIZE_OF_IPv4_HEADER ) )
1526:D:/Work/DeviceTester/amazon-freertos/lib/FreeRTOS-Plus-TCP/source\FreeRTOS_IP.c **** 	{
1527:D:/Work/DeviceTester/amazon-freertos/lib/FreeRTOS-Plus-TCP/source\FreeRTOS_IP.c **** 		return eReleaseBuffer;
1528:D:/Work/DeviceTester/amazon-freertos/lib/FreeRTOS-Plus-TCP/source\FreeRTOS_IP.c **** 	}
1529:D:/Work/DeviceTester/amazon-freertos/lib/FreeRTOS-Plus-TCP/source\FreeRTOS_IP.c **** 
1530:D:/Work/DeviceTester/amazon-freertos/lib/FreeRTOS-Plus-TCP/source\FreeRTOS_IP.c **** 	ucProtocol = pxIPPacket->xIPHeader.ucProtocol;
1531:D:/Work/DeviceTester/amazon-freertos/lib/FreeRTOS-Plus-TCP/source\FreeRTOS_IP.c **** 	/* Check if the IP headers are acceptable and if it has our destination. */
1532:D:/Work/DeviceTester/amazon-freertos/lib/FreeRTOS-Plus-TCP/source\FreeRTOS_IP.c **** 	eReturn = prvAllowIPPacket( pxIPPacket, pxNetworkBuffer, uxHeaderLength );
1533:D:/Work/DeviceTester/amazon-freertos/lib/FreeRTOS-Plus-TCP/source\FreeRTOS_IP.c **** 
1534:D:/Work/DeviceTester/amazon-freertos/lib/FreeRTOS-Plus-TCP/source\FreeRTOS_IP.c **** 	if( eReturn == eProcessBuffer )
1535:D:/Work/DeviceTester/amazon-freertos/lib/FreeRTOS-Plus-TCP/source\FreeRTOS_IP.c **** 	{
1536:D:/Work/DeviceTester/amazon-freertos/lib/FreeRTOS-Plus-TCP/source\FreeRTOS_IP.c **** 		if( uxHeaderLength > ipSIZE_OF_IPv4_HEADER )
1537:D:/Work/DeviceTester/amazon-freertos/lib/FreeRTOS-Plus-TCP/source\FreeRTOS_IP.c **** 		{
1538:D:/Work/DeviceTester/amazon-freertos/lib/FreeRTOS-Plus-TCP/source\FreeRTOS_IP.c **** 			/* All structs of headers expect a IP header size of 20 bytes
1539:D:/Work/DeviceTester/amazon-freertos/lib/FreeRTOS-Plus-TCP/source\FreeRTOS_IP.c **** 			 * IP header options were included, we'll ignore them and cut them out
1540:D:/Work/DeviceTester/amazon-freertos/lib/FreeRTOS-Plus-TCP/source\FreeRTOS_IP.c **** 			 * Note: IP options are mostly use in Multi-cast protocols */
1541:D:/Work/DeviceTester/amazon-freertos/lib/FreeRTOS-Plus-TCP/source\FreeRTOS_IP.c **** 			const size_t optlen = ( ( size_t ) uxHeaderLength ) - ipSIZE_OF_IPv4_HEADER;
1542:D:/Work/DeviceTester/amazon-freertos/lib/FreeRTOS-Plus-TCP/source\FreeRTOS_IP.c **** 			/* From: the previous start of UDP/ICMP/TCP data */
1543:D:/Work/DeviceTester/amazon-freertos/lib/FreeRTOS-Plus-TCP/source\FreeRTOS_IP.c **** 			uint8_t *pucSource = ( uint8_t* )(pxNetworkBuffer->pucEthernetBuffer + sizeof( EthernetHeader_t 
1544:D:/Work/DeviceTester/amazon-freertos/lib/FreeRTOS-Plus-TCP/source\FreeRTOS_IP.c **** 			/* To: the usual start of UDP/ICMP/TCP data at offset 20 from IP header */
1545:D:/Work/DeviceTester/amazon-freertos/lib/FreeRTOS-Plus-TCP/source\FreeRTOS_IP.c **** 			uint8_t *pucTarget = ( uint8_t* )(pxNetworkBuffer->pucEthernetBuffer + sizeof( EthernetHeader_t 
1546:D:/Work/DeviceTester/amazon-freertos/lib/FreeRTOS-Plus-TCP/source\FreeRTOS_IP.c **** 			/* How many: total length minus the options and the lower headers */
1547:D:/Work/DeviceTester/amazon-freertos/lib/FreeRTOS-Plus-TCP/source\FreeRTOS_IP.c **** 			const size_t  xMoveLen = pxNetworkBuffer->xDataLength - optlen - ipSIZE_OF_IPv4_HEADER - ipSIZE_
1548:D:/Work/DeviceTester/amazon-freertos/lib/FreeRTOS-Plus-TCP/source\FreeRTOS_IP.c **** 
1549:D:/Work/DeviceTester/amazon-freertos/lib/FreeRTOS-Plus-TCP/source\FreeRTOS_IP.c **** 			memmove( pucTarget, pucSource, xMoveLen );
1550:D:/Work/DeviceTester/amazon-freertos/lib/FreeRTOS-Plus-TCP/source\FreeRTOS_IP.c **** 			pxNetworkBuffer->xDataLength -= optlen;
1551:D:/Work/DeviceTester/amazon-freertos/lib/FreeRTOS-Plus-TCP/source\FreeRTOS_IP.c **** 
1552:D:/Work/DeviceTester/amazon-freertos/lib/FreeRTOS-Plus-TCP/source\FreeRTOS_IP.c **** 			/* Fix-up new version/header length field in IP packet. */
1553:D:/Work/DeviceTester/amazon-freertos/lib/FreeRTOS-Plus-TCP/source\FreeRTOS_IP.c **** 			pxIPHeader->ucVersionHeaderLength = ( pxIPHeader->ucVersionHeaderLength & 0xF0 ) | /* High nibbl
1554:D:/Work/DeviceTester/amazon-freertos/lib/FreeRTOS-Plus-TCP/source\FreeRTOS_IP.c **** 												( ( ipSIZE_OF_IPv4_HEADER >> 2 ) & 0x0F ); /* Low nibble is the header size, in bytes, 
1555:D:/Work/DeviceTester/amazon-freertos/lib/FreeRTOS-Plus-TCP/source\FreeRTOS_IP.c **** 		}
1556:D:/Work/DeviceTester/amazon-freertos/lib/FreeRTOS-Plus-TCP/source\FreeRTOS_IP.c **** 
1557:D:/Work/DeviceTester/amazon-freertos/lib/FreeRTOS-Plus-TCP/source\FreeRTOS_IP.c **** 		/* Add the IP and MAC addresses to the ARP table if they are not
1558:D:/Work/DeviceTester/amazon-freertos/lib/FreeRTOS-Plus-TCP/source\FreeRTOS_IP.c **** 		already there - otherwise refresh the age of the existing
1559:D:/Work/DeviceTester/amazon-freertos/lib/FreeRTOS-Plus-TCP/source\FreeRTOS_IP.c **** 		entry. */
1560:D:/Work/DeviceTester/amazon-freertos/lib/FreeRTOS-Plus-TCP/source\FreeRTOS_IP.c **** 		if( ucProtocol != ( uint8_t ) ipPROTOCOL_UDP )
1561:D:/Work/DeviceTester/amazon-freertos/lib/FreeRTOS-Plus-TCP/source\FreeRTOS_IP.c **** 		{
1562:D:/Work/DeviceTester/amazon-freertos/lib/FreeRTOS-Plus-TCP/source\FreeRTOS_IP.c **** 			/* Refresh the ARP cache with the IP/MAC-address of the received packet
1563:D:/Work/DeviceTester/amazon-freertos/lib/FreeRTOS-Plus-TCP/source\FreeRTOS_IP.c **** 			 * For UDP packets, this will be done later in xProcessReceivedUDPPacket()
1564:D:/Work/DeviceTester/amazon-freertos/lib/FreeRTOS-Plus-TCP/source\FreeRTOS_IP.c **** 			 * as soon as know that the message will be handled by someone
1565:D:/Work/DeviceTester/amazon-freertos/lib/FreeRTOS-Plus-TCP/source\FreeRTOS_IP.c **** 			 * This will prevent that the ARP cache will get overwritten
1566:D:/Work/DeviceTester/amazon-freertos/lib/FreeRTOS-Plus-TCP/source\FreeRTOS_IP.c **** 			 * with the IP-address of useless broadcast packets
1567:D:/Work/DeviceTester/amazon-freertos/lib/FreeRTOS-Plus-TCP/source\FreeRTOS_IP.c **** 			 */
1568:D:/Work/DeviceTester/amazon-freertos/lib/FreeRTOS-Plus-TCP/source\FreeRTOS_IP.c **** 			vARPRefreshCacheEntry( &( pxIPPacket->xEthernetHeader.xSourceAddress ), pxIPHeader->ulSourceIPAd
1569:D:/Work/DeviceTester/amazon-freertos/lib/FreeRTOS-Plus-TCP/source\FreeRTOS_IP.c **** 		}
1570:D:/Work/DeviceTester/amazon-freertos/lib/FreeRTOS-Plus-TCP/source\FreeRTOS_IP.c **** 		switch( ucProtocol )
1571:D:/Work/DeviceTester/amazon-freertos/lib/FreeRTOS-Plus-TCP/source\FreeRTOS_IP.c **** 		{
1572:D:/Work/DeviceTester/amazon-freertos/lib/FreeRTOS-Plus-TCP/source\FreeRTOS_IP.c **** 			case ipPROTOCOL_ICMP :
1573:D:/Work/DeviceTester/amazon-freertos/lib/FreeRTOS-Plus-TCP/source\FreeRTOS_IP.c **** 				/* The IP packet contained an ICMP frame.  Don't bother
1574:D:/Work/DeviceTester/amazon-freertos/lib/FreeRTOS-Plus-TCP/source\FreeRTOS_IP.c **** 				checking the ICMP checksum, as if it is wrong then the
1575:D:/Work/DeviceTester/amazon-freertos/lib/FreeRTOS-Plus-TCP/source\FreeRTOS_IP.c **** 				wrong data will also be returned, and the source of the
1576:D:/Work/DeviceTester/amazon-freertos/lib/FreeRTOS-Plus-TCP/source\FreeRTOS_IP.c **** 				ping will know something went wrong because it will not
1577:D:/Work/DeviceTester/amazon-freertos/lib/FreeRTOS-Plus-TCP/source\FreeRTOS_IP.c **** 				be able to validate what it receives. */
1578:D:/Work/DeviceTester/amazon-freertos/lib/FreeRTOS-Plus-TCP/source\FreeRTOS_IP.c **** 				#if ( ipconfigREPLY_TO_INCOMING_PINGS == 1 ) || ( ipconfigSUPPORT_OUTGOING_PINGS == 1 )
1579:D:/Work/DeviceTester/amazon-freertos/lib/FreeRTOS-Plus-TCP/source\FreeRTOS_IP.c **** 				{
1580:D:/Work/DeviceTester/amazon-freertos/lib/FreeRTOS-Plus-TCP/source\FreeRTOS_IP.c **** 					if( pxNetworkBuffer->xDataLength >= sizeof( ICMPPacket_t ) )
1581:D:/Work/DeviceTester/amazon-freertos/lib/FreeRTOS-Plus-TCP/source\FreeRTOS_IP.c **** 					{
1582:D:/Work/DeviceTester/amazon-freertos/lib/FreeRTOS-Plus-TCP/source\FreeRTOS_IP.c **** 						ICMPPacket_t *pxICMPPacket = ( ICMPPacket_t * )( pxNetworkBuffer->pucEthernetBuffer );
1583:D:/Work/DeviceTester/amazon-freertos/lib/FreeRTOS-Plus-TCP/source\FreeRTOS_IP.c **** 						if( pxIPHeader->ulDestinationIPAddress == *ipLOCAL_IP_ADDRESS_POINTER )
1584:D:/Work/DeviceTester/amazon-freertos/lib/FreeRTOS-Plus-TCP/source\FreeRTOS_IP.c **** 						{
1585:D:/Work/DeviceTester/amazon-freertos/lib/FreeRTOS-Plus-TCP/source\FreeRTOS_IP.c **** 							eReturn = prvProcessICMPPacket( pxICMPPacket );
1586:D:/Work/DeviceTester/amazon-freertos/lib/FreeRTOS-Plus-TCP/source\FreeRTOS_IP.c **** 						}
1587:D:/Work/DeviceTester/amazon-freertos/lib/FreeRTOS-Plus-TCP/source\FreeRTOS_IP.c **** 					}
1588:D:/Work/DeviceTester/amazon-freertos/lib/FreeRTOS-Plus-TCP/source\FreeRTOS_IP.c **** 					else
1589:D:/Work/DeviceTester/amazon-freertos/lib/FreeRTOS-Plus-TCP/source\FreeRTOS_IP.c **** 					{
1590:D:/Work/DeviceTester/amazon-freertos/lib/FreeRTOS-Plus-TCP/source\FreeRTOS_IP.c **** 						eReturn = eReleaseBuffer;
1591:D:/Work/DeviceTester/amazon-freertos/lib/FreeRTOS-Plus-TCP/source\FreeRTOS_IP.c **** 					}
1592:D:/Work/DeviceTester/amazon-freertos/lib/FreeRTOS-Plus-TCP/source\FreeRTOS_IP.c **** 				}
1593:D:/Work/DeviceTester/amazon-freertos/lib/FreeRTOS-Plus-TCP/source\FreeRTOS_IP.c **** 				#endif /* ( ipconfigREPLY_TO_INCOMING_PINGS == 1 ) || ( ipconfigSUPPORT_OUTGOING_PINGS == 1 ) *
1594:D:/Work/DeviceTester/amazon-freertos/lib/FreeRTOS-Plus-TCP/source\FreeRTOS_IP.c **** 				break;
1595:D:/Work/DeviceTester/amazon-freertos/lib/FreeRTOS-Plus-TCP/source\FreeRTOS_IP.c **** 
1596:D:/Work/DeviceTester/amazon-freertos/lib/FreeRTOS-Plus-TCP/source\FreeRTOS_IP.c **** 			case ipPROTOCOL_UDP :
1597:D:/Work/DeviceTester/amazon-freertos/lib/FreeRTOS-Plus-TCP/source\FreeRTOS_IP.c **** 				{
1598:D:/Work/DeviceTester/amazon-freertos/lib/FreeRTOS-Plus-TCP/source\FreeRTOS_IP.c **** 					/* The IP packet contained a UDP frame. */
1599:D:/Work/DeviceTester/amazon-freertos/lib/FreeRTOS-Plus-TCP/source\FreeRTOS_IP.c **** 					UDPPacket_t *pxUDPPacket = ( UDPPacket_t * ) ( pxNetworkBuffer->pucEthernetBuffer );
1600:D:/Work/DeviceTester/amazon-freertos/lib/FreeRTOS-Plus-TCP/source\FreeRTOS_IP.c **** 
1601:D:/Work/DeviceTester/amazon-freertos/lib/FreeRTOS-Plus-TCP/source\FreeRTOS_IP.c **** 					/* Only proceed if the payload length indicated in the header
1602:D:/Work/DeviceTester/amazon-freertos/lib/FreeRTOS-Plus-TCP/source\FreeRTOS_IP.c **** 					appears to be valid. */
1603:D:/Work/DeviceTester/amazon-freertos/lib/FreeRTOS-Plus-TCP/source\FreeRTOS_IP.c **** 					if ( pxNetworkBuffer->xDataLength >= sizeof( UDPPacket_t ) )
1604:D:/Work/DeviceTester/amazon-freertos/lib/FreeRTOS-Plus-TCP/source\FreeRTOS_IP.c **** 					{
1605:D:/Work/DeviceTester/amazon-freertos/lib/FreeRTOS-Plus-TCP/source\FreeRTOS_IP.c **** 						/* Ensure that downstream UDP packet handling has the lesser
1606:D:/Work/DeviceTester/amazon-freertos/lib/FreeRTOS-Plus-TCP/source\FreeRTOS_IP.c **** 						 * of: the actual network buffer Ethernet frame length, or
1607:D:/Work/DeviceTester/amazon-freertos/lib/FreeRTOS-Plus-TCP/source\FreeRTOS_IP.c **** 						 * the sender's UDP packet header payload length, minus the
1608:D:/Work/DeviceTester/amazon-freertos/lib/FreeRTOS-Plus-TCP/source\FreeRTOS_IP.c **** 						 * size of the UDP header.
1609:D:/Work/DeviceTester/amazon-freertos/lib/FreeRTOS-Plus-TCP/source\FreeRTOS_IP.c **** 						 *
1610:D:/Work/DeviceTester/amazon-freertos/lib/FreeRTOS-Plus-TCP/source\FreeRTOS_IP.c **** 						 * The size of the UDP packet structure in this implementation
1611:D:/Work/DeviceTester/amazon-freertos/lib/FreeRTOS-Plus-TCP/source\FreeRTOS_IP.c **** 						 * includes the size of the Ethernet header, the size of
1612:D:/Work/DeviceTester/amazon-freertos/lib/FreeRTOS-Plus-TCP/source\FreeRTOS_IP.c **** 						 * the IP header, and the size of the UDP header.
1613:D:/Work/DeviceTester/amazon-freertos/lib/FreeRTOS-Plus-TCP/source\FreeRTOS_IP.c **** 						 */
1614:D:/Work/DeviceTester/amazon-freertos/lib/FreeRTOS-Plus-TCP/source\FreeRTOS_IP.c **** 
1615:D:/Work/DeviceTester/amazon-freertos/lib/FreeRTOS-Plus-TCP/source\FreeRTOS_IP.c **** 						pxNetworkBuffer->xDataLength -= sizeof( UDPPacket_t );
1616:D:/Work/DeviceTester/amazon-freertos/lib/FreeRTOS-Plus-TCP/source\FreeRTOS_IP.c **** 						if( ( FreeRTOS_ntohs( pxUDPPacket->xUDPHeader.usLength ) - sizeof( UDPHeader_t ) ) <
1617:D:/Work/DeviceTester/amazon-freertos/lib/FreeRTOS-Plus-TCP/source\FreeRTOS_IP.c **** 								pxNetworkBuffer->xDataLength )
1618:D:/Work/DeviceTester/amazon-freertos/lib/FreeRTOS-Plus-TCP/source\FreeRTOS_IP.c **** 						{
1619:D:/Work/DeviceTester/amazon-freertos/lib/FreeRTOS-Plus-TCP/source\FreeRTOS_IP.c **** 							pxNetworkBuffer->xDataLength = FreeRTOS_ntohs( pxUDPPacket->xUDPHeader.usLength ) - sizeof( 
1620:D:/Work/DeviceTester/amazon-freertos/lib/FreeRTOS-Plus-TCP/source\FreeRTOS_IP.c **** 						}
1621:D:/Work/DeviceTester/amazon-freertos/lib/FreeRTOS-Plus-TCP/source\FreeRTOS_IP.c **** 
1622:D:/Work/DeviceTester/amazon-freertos/lib/FreeRTOS-Plus-TCP/source\FreeRTOS_IP.c **** 						/* Fields in pxNetworkBuffer (usPort, ulIPAddress) are network order. */
1623:D:/Work/DeviceTester/amazon-freertos/lib/FreeRTOS-Plus-TCP/source\FreeRTOS_IP.c **** 						pxNetworkBuffer->usPort = pxUDPPacket->xUDPHeader.usSourcePort;
1624:D:/Work/DeviceTester/amazon-freertos/lib/FreeRTOS-Plus-TCP/source\FreeRTOS_IP.c **** 						pxNetworkBuffer->ulIPAddress = pxUDPPacket->xIPHeader.ulSourceIPAddress;
1625:D:/Work/DeviceTester/amazon-freertos/lib/FreeRTOS-Plus-TCP/source\FreeRTOS_IP.c **** 
1626:D:/Work/DeviceTester/amazon-freertos/lib/FreeRTOS-Plus-TCP/source\FreeRTOS_IP.c **** 						/* ipconfigDRIVER_INCLUDED_RX_IP_CHECKSUM:
1627:D:/Work/DeviceTester/amazon-freertos/lib/FreeRTOS-Plus-TCP/source\FreeRTOS_IP.c **** 						 * In some cases, the upper-layer checksum has been calculated
1628:D:/Work/DeviceTester/amazon-freertos/lib/FreeRTOS-Plus-TCP/source\FreeRTOS_IP.c **** 						 * by the NIC driver.
1629:D:/Work/DeviceTester/amazon-freertos/lib/FreeRTOS-Plus-TCP/source\FreeRTOS_IP.c **** 						 *
1630:D:/Work/DeviceTester/amazon-freertos/lib/FreeRTOS-Plus-TCP/source\FreeRTOS_IP.c **** 						 * Pass the packet payload to the UDP sockets implementation. */
1631:D:/Work/DeviceTester/amazon-freertos/lib/FreeRTOS-Plus-TCP/source\FreeRTOS_IP.c **** 						if( xProcessReceivedUDPPacket( pxNetworkBuffer,
1632:D:/Work/DeviceTester/amazon-freertos/lib/FreeRTOS-Plus-TCP/source\FreeRTOS_IP.c **** 													   pxUDPPacket->xUDPHeader.usDestinationPort ) == pdPASS )
1633:D:/Work/DeviceTester/amazon-freertos/lib/FreeRTOS-Plus-TCP/source\FreeRTOS_IP.c **** 						{
1634:D:/Work/DeviceTester/amazon-freertos/lib/FreeRTOS-Plus-TCP/source\FreeRTOS_IP.c **** 							eReturn = eFrameConsumed;
1635:D:/Work/DeviceTester/amazon-freertos/lib/FreeRTOS-Plus-TCP/source\FreeRTOS_IP.c **** 						}
1636:D:/Work/DeviceTester/amazon-freertos/lib/FreeRTOS-Plus-TCP/source\FreeRTOS_IP.c **** 					}
1637:D:/Work/DeviceTester/amazon-freertos/lib/FreeRTOS-Plus-TCP/source\FreeRTOS_IP.c **** 					else
1638:D:/Work/DeviceTester/amazon-freertos/lib/FreeRTOS-Plus-TCP/source\FreeRTOS_IP.c **** 					{
1639:D:/Work/DeviceTester/amazon-freertos/lib/FreeRTOS-Plus-TCP/source\FreeRTOS_IP.c **** 						eReturn = eReleaseBuffer;
1640:D:/Work/DeviceTester/amazon-freertos/lib/FreeRTOS-Plus-TCP/source\FreeRTOS_IP.c **** 					}
1641:D:/Work/DeviceTester/amazon-freertos/lib/FreeRTOS-Plus-TCP/source\FreeRTOS_IP.c **** 				}
1642:D:/Work/DeviceTester/amazon-freertos/lib/FreeRTOS-Plus-TCP/source\FreeRTOS_IP.c **** 				break;
1643:D:/Work/DeviceTester/amazon-freertos/lib/FreeRTOS-Plus-TCP/source\FreeRTOS_IP.c **** 
1644:D:/Work/DeviceTester/amazon-freertos/lib/FreeRTOS-Plus-TCP/source\FreeRTOS_IP.c **** #if ipconfigUSE_TCP == 1
1645:D:/Work/DeviceTester/amazon-freertos/lib/FreeRTOS-Plus-TCP/source\FreeRTOS_IP.c **** 			case ipPROTOCOL_TCP :
1646:D:/Work/DeviceTester/amazon-freertos/lib/FreeRTOS-Plus-TCP/source\FreeRTOS_IP.c **** 				{
1647:D:/Work/DeviceTester/amazon-freertos/lib/FreeRTOS-Plus-TCP/source\FreeRTOS_IP.c **** 
1648:D:/Work/DeviceTester/amazon-freertos/lib/FreeRTOS-Plus-TCP/source\FreeRTOS_IP.c **** 					if( xProcessReceivedTCPPacket( pxNetworkBuffer ) == pdPASS )
1649:D:/Work/DeviceTester/amazon-freertos/lib/FreeRTOS-Plus-TCP/source\FreeRTOS_IP.c **** 					{
1650:D:/Work/DeviceTester/amazon-freertos/lib/FreeRTOS-Plus-TCP/source\FreeRTOS_IP.c **** 						eReturn = eFrameConsumed;
1651:D:/Work/DeviceTester/amazon-freertos/lib/FreeRTOS-Plus-TCP/source\FreeRTOS_IP.c **** 					}
1652:D:/Work/DeviceTester/amazon-freertos/lib/FreeRTOS-Plus-TCP/source\FreeRTOS_IP.c **** 
1653:D:/Work/DeviceTester/amazon-freertos/lib/FreeRTOS-Plus-TCP/source\FreeRTOS_IP.c **** 					/* Setting this variable will cause xTCPTimerCheck()
1654:D:/Work/DeviceTester/amazon-freertos/lib/FreeRTOS-Plus-TCP/source\FreeRTOS_IP.c **** 					to be called just before the IP-task blocks. */
1655:D:/Work/DeviceTester/amazon-freertos/lib/FreeRTOS-Plus-TCP/source\FreeRTOS_IP.c **** 					xProcessedTCPMessage++;
1656:D:/Work/DeviceTester/amazon-freertos/lib/FreeRTOS-Plus-TCP/source\FreeRTOS_IP.c **** 				}
1657:D:/Work/DeviceTester/amazon-freertos/lib/FreeRTOS-Plus-TCP/source\FreeRTOS_IP.c **** 				break;
1658:D:/Work/DeviceTester/amazon-freertos/lib/FreeRTOS-Plus-TCP/source\FreeRTOS_IP.c **** #endif
1659:D:/Work/DeviceTester/amazon-freertos/lib/FreeRTOS-Plus-TCP/source\FreeRTOS_IP.c **** 			default	:
1660:D:/Work/DeviceTester/amazon-freertos/lib/FreeRTOS-Plus-TCP/source\FreeRTOS_IP.c **** 				/* Not a supported frame type. */
1661:D:/Work/DeviceTester/amazon-freertos/lib/FreeRTOS-Plus-TCP/source\FreeRTOS_IP.c **** 				break;
1662:D:/Work/DeviceTester/amazon-freertos/lib/FreeRTOS-Plus-TCP/source\FreeRTOS_IP.c **** 		}
1663:D:/Work/DeviceTester/amazon-freertos/lib/FreeRTOS-Plus-TCP/source\FreeRTOS_IP.c **** 	}
1664:D:/Work/DeviceTester/amazon-freertos/lib/FreeRTOS-Plus-TCP/source\FreeRTOS_IP.c **** 
1665:D:/Work/DeviceTester/amazon-freertos/lib/FreeRTOS-Plus-TCP/source\FreeRTOS_IP.c **** 	return eReturn;
1666:D:/Work/DeviceTester/amazon-freertos/lib/FreeRTOS-Plus-TCP/source\FreeRTOS_IP.c **** }
1667:D:/Work/DeviceTester/amazon-freertos/lib/FreeRTOS-Plus-TCP/source\FreeRTOS_IP.c **** /*-----------------------------------------------------------*/
1668:D:/Work/DeviceTester/amazon-freertos/lib/FreeRTOS-Plus-TCP/source\FreeRTOS_IP.c **** 
1669:D:/Work/DeviceTester/amazon-freertos/lib/FreeRTOS-Plus-TCP/source\FreeRTOS_IP.c **** #if ( ipconfigSUPPORT_OUTGOING_PINGS == 1 )
1670:D:/Work/DeviceTester/amazon-freertos/lib/FreeRTOS-Plus-TCP/source\FreeRTOS_IP.c **** 
1671:D:/Work/DeviceTester/amazon-freertos/lib/FreeRTOS-Plus-TCP/source\FreeRTOS_IP.c **** 	static void prvProcessICMPEchoReply( ICMPPacket_t * const pxICMPPacket )
1672:D:/Work/DeviceTester/amazon-freertos/lib/FreeRTOS-Plus-TCP/source\FreeRTOS_IP.c **** 	{
1673:D:/Work/DeviceTester/amazon-freertos/lib/FreeRTOS-Plus-TCP/source\FreeRTOS_IP.c **** 	ePingReplyStatus_t eStatus = eSuccess;
1674:D:/Work/DeviceTester/amazon-freertos/lib/FreeRTOS-Plus-TCP/source\FreeRTOS_IP.c **** 	uint16_t usDataLength, usCount;
1675:D:/Work/DeviceTester/amazon-freertos/lib/FreeRTOS-Plus-TCP/source\FreeRTOS_IP.c **** 	uint8_t *pucByte;
1676:D:/Work/DeviceTester/amazon-freertos/lib/FreeRTOS-Plus-TCP/source\FreeRTOS_IP.c **** 
1677:D:/Work/DeviceTester/amazon-freertos/lib/FreeRTOS-Plus-TCP/source\FreeRTOS_IP.c **** 		/* Find the total length of the IP packet. */
1678:D:/Work/DeviceTester/amazon-freertos/lib/FreeRTOS-Plus-TCP/source\FreeRTOS_IP.c **** 		usDataLength = pxICMPPacket->xIPHeader.usLength;
1679:D:/Work/DeviceTester/amazon-freertos/lib/FreeRTOS-Plus-TCP/source\FreeRTOS_IP.c **** 		usDataLength = FreeRTOS_ntohs( usDataLength );
1680:D:/Work/DeviceTester/amazon-freertos/lib/FreeRTOS-Plus-TCP/source\FreeRTOS_IP.c **** 
1681:D:/Work/DeviceTester/amazon-freertos/lib/FreeRTOS-Plus-TCP/source\FreeRTOS_IP.c **** 		/* Remove the length of the IP headers to obtain the length of the ICMP
1682:D:/Work/DeviceTester/amazon-freertos/lib/FreeRTOS-Plus-TCP/source\FreeRTOS_IP.c **** 		message itself. */
1683:D:/Work/DeviceTester/amazon-freertos/lib/FreeRTOS-Plus-TCP/source\FreeRTOS_IP.c **** 		usDataLength = ( uint16_t ) ( ( ( uint32_t ) usDataLength ) - ipSIZE_OF_IPv4_HEADER );
1684:D:/Work/DeviceTester/amazon-freertos/lib/FreeRTOS-Plus-TCP/source\FreeRTOS_IP.c **** 
1685:D:/Work/DeviceTester/amazon-freertos/lib/FreeRTOS-Plus-TCP/source\FreeRTOS_IP.c **** 		/* Remove the length of the ICMP header, to obtain the length of
1686:D:/Work/DeviceTester/amazon-freertos/lib/FreeRTOS-Plus-TCP/source\FreeRTOS_IP.c **** 		data contained in the ping. */
1687:D:/Work/DeviceTester/amazon-freertos/lib/FreeRTOS-Plus-TCP/source\FreeRTOS_IP.c **** 		usDataLength = ( uint16_t ) ( ( ( uint32_t ) usDataLength ) - ipSIZE_OF_ICMP_HEADER );
1688:D:/Work/DeviceTester/amazon-freertos/lib/FreeRTOS-Plus-TCP/source\FreeRTOS_IP.c **** 
1689:D:/Work/DeviceTester/amazon-freertos/lib/FreeRTOS-Plus-TCP/source\FreeRTOS_IP.c **** 		/* Checksum has already been checked before in prvProcessIPPacket */
1690:D:/Work/DeviceTester/amazon-freertos/lib/FreeRTOS-Plus-TCP/source\FreeRTOS_IP.c **** 
1691:D:/Work/DeviceTester/amazon-freertos/lib/FreeRTOS-Plus-TCP/source\FreeRTOS_IP.c **** 		/* Find the first byte of the data within the ICMP packet. */
1692:D:/Work/DeviceTester/amazon-freertos/lib/FreeRTOS-Plus-TCP/source\FreeRTOS_IP.c **** 		pucByte = ( uint8_t * ) pxICMPPacket;
1693:D:/Work/DeviceTester/amazon-freertos/lib/FreeRTOS-Plus-TCP/source\FreeRTOS_IP.c **** 		pucByte += sizeof( ICMPPacket_t );
1694:D:/Work/DeviceTester/amazon-freertos/lib/FreeRTOS-Plus-TCP/source\FreeRTOS_IP.c **** 
1695:D:/Work/DeviceTester/amazon-freertos/lib/FreeRTOS-Plus-TCP/source\FreeRTOS_IP.c **** 		/* Check each byte. */
1696:D:/Work/DeviceTester/amazon-freertos/lib/FreeRTOS-Plus-TCP/source\FreeRTOS_IP.c **** 		for( usCount = 0; usCount < usDataLength; usCount++ )
1697:D:/Work/DeviceTester/amazon-freertos/lib/FreeRTOS-Plus-TCP/source\FreeRTOS_IP.c **** 		{
1698:D:/Work/DeviceTester/amazon-freertos/lib/FreeRTOS-Plus-TCP/source\FreeRTOS_IP.c **** 			if( *pucByte != ipECHO_DATA_FILL_BYTE )
1699:D:/Work/DeviceTester/amazon-freertos/lib/FreeRTOS-Plus-TCP/source\FreeRTOS_IP.c **** 			{
1700:D:/Work/DeviceTester/amazon-freertos/lib/FreeRTOS-Plus-TCP/source\FreeRTOS_IP.c **** 				eStatus = eInvalidData;
1701:D:/Work/DeviceTester/amazon-freertos/lib/FreeRTOS-Plus-TCP/source\FreeRTOS_IP.c **** 				break;
1702:D:/Work/DeviceTester/amazon-freertos/lib/FreeRTOS-Plus-TCP/source\FreeRTOS_IP.c **** 			}
1703:D:/Work/DeviceTester/amazon-freertos/lib/FreeRTOS-Plus-TCP/source\FreeRTOS_IP.c **** 
1704:D:/Work/DeviceTester/amazon-freertos/lib/FreeRTOS-Plus-TCP/source\FreeRTOS_IP.c **** 			pucByte++;
1705:D:/Work/DeviceTester/amazon-freertos/lib/FreeRTOS-Plus-TCP/source\FreeRTOS_IP.c **** 		}
1706:D:/Work/DeviceTester/amazon-freertos/lib/FreeRTOS-Plus-TCP/source\FreeRTOS_IP.c **** 
1707:D:/Work/DeviceTester/amazon-freertos/lib/FreeRTOS-Plus-TCP/source\FreeRTOS_IP.c **** 		/* Call back into the application to pass it the result. */
1708:D:/Work/DeviceTester/amazon-freertos/lib/FreeRTOS-Plus-TCP/source\FreeRTOS_IP.c **** 		vApplicationPingReplyHook( eStatus, pxICMPPacket->xICMPHeader.usIdentifier );
1709:D:/Work/DeviceTester/amazon-freertos/lib/FreeRTOS-Plus-TCP/source\FreeRTOS_IP.c **** 	}
1710:D:/Work/DeviceTester/amazon-freertos/lib/FreeRTOS-Plus-TCP/source\FreeRTOS_IP.c **** 
1711:D:/Work/DeviceTester/amazon-freertos/lib/FreeRTOS-Plus-TCP/source\FreeRTOS_IP.c **** #endif
1712:D:/Work/DeviceTester/amazon-freertos/lib/FreeRTOS-Plus-TCP/source\FreeRTOS_IP.c **** /*-----------------------------------------------------------*/
1713:D:/Work/DeviceTester/amazon-freertos/lib/FreeRTOS-Plus-TCP/source\FreeRTOS_IP.c **** 
1714:D:/Work/DeviceTester/amazon-freertos/lib/FreeRTOS-Plus-TCP/source\FreeRTOS_IP.c **** #if ( ipconfigREPLY_TO_INCOMING_PINGS == 1 )
1715:D:/Work/DeviceTester/amazon-freertos/lib/FreeRTOS-Plus-TCP/source\FreeRTOS_IP.c **** 
1716:D:/Work/DeviceTester/amazon-freertos/lib/FreeRTOS-Plus-TCP/source\FreeRTOS_IP.c **** 	static eFrameProcessingResult_t prvProcessICMPEchoRequest( ICMPPacket_t * const pxICMPPacket )
1717:D:/Work/DeviceTester/amazon-freertos/lib/FreeRTOS-Plus-TCP/source\FreeRTOS_IP.c **** 	{
1718:D:/Work/DeviceTester/amazon-freertos/lib/FreeRTOS-Plus-TCP/source\FreeRTOS_IP.c **** 	ICMPHeader_t *pxICMPHeader;
1719:D:/Work/DeviceTester/amazon-freertos/lib/FreeRTOS-Plus-TCP/source\FreeRTOS_IP.c **** 	IPHeader_t *pxIPHeader;
1720:D:/Work/DeviceTester/amazon-freertos/lib/FreeRTOS-Plus-TCP/source\FreeRTOS_IP.c **** 	uint16_t usRequest;
1721:D:/Work/DeviceTester/amazon-freertos/lib/FreeRTOS-Plus-TCP/source\FreeRTOS_IP.c **** 
1722:D:/Work/DeviceTester/amazon-freertos/lib/FreeRTOS-Plus-TCP/source\FreeRTOS_IP.c **** 		pxICMPHeader = &( pxICMPPacket->xICMPHeader );
1723:D:/Work/DeviceTester/amazon-freertos/lib/FreeRTOS-Plus-TCP/source\FreeRTOS_IP.c **** 		pxIPHeader = &( pxICMPPacket->xIPHeader );
1724:D:/Work/DeviceTester/amazon-freertos/lib/FreeRTOS-Plus-TCP/source\FreeRTOS_IP.c **** 
1725:D:/Work/DeviceTester/amazon-freertos/lib/FreeRTOS-Plus-TCP/source\FreeRTOS_IP.c **** 		/* HT:endian: changed back */
1726:D:/Work/DeviceTester/amazon-freertos/lib/FreeRTOS-Plus-TCP/source\FreeRTOS_IP.c **** 		iptraceSENDING_PING_REPLY( pxIPHeader->ulSourceIPAddress );
1727:D:/Work/DeviceTester/amazon-freertos/lib/FreeRTOS-Plus-TCP/source\FreeRTOS_IP.c **** 
1728:D:/Work/DeviceTester/amazon-freertos/lib/FreeRTOS-Plus-TCP/source\FreeRTOS_IP.c **** 		/* The checksum can be checked here - but a ping reply should be
1729:D:/Work/DeviceTester/amazon-freertos/lib/FreeRTOS-Plus-TCP/source\FreeRTOS_IP.c **** 		returned even if the checksum is incorrect so the other end can
1730:D:/Work/DeviceTester/amazon-freertos/lib/FreeRTOS-Plus-TCP/source\FreeRTOS_IP.c **** 		tell that the ping was received - even if the ping reply contains
1731:D:/Work/DeviceTester/amazon-freertos/lib/FreeRTOS-Plus-TCP/source\FreeRTOS_IP.c **** 		invalid data. */
1732:D:/Work/DeviceTester/amazon-freertos/lib/FreeRTOS-Plus-TCP/source\FreeRTOS_IP.c **** 		pxICMPHeader->ucTypeOfMessage = ( uint8_t ) ipICMP_ECHO_REPLY;
1733:D:/Work/DeviceTester/amazon-freertos/lib/FreeRTOS-Plus-TCP/source\FreeRTOS_IP.c **** 		pxIPHeader->ulDestinationIPAddress = pxIPHeader->ulSourceIPAddress;
1734:D:/Work/DeviceTester/amazon-freertos/lib/FreeRTOS-Plus-TCP/source\FreeRTOS_IP.c **** 		pxIPHeader->ulSourceIPAddress = *ipLOCAL_IP_ADDRESS_POINTER;
1735:D:/Work/DeviceTester/amazon-freertos/lib/FreeRTOS-Plus-TCP/source\FreeRTOS_IP.c **** 
1736:D:/Work/DeviceTester/amazon-freertos/lib/FreeRTOS-Plus-TCP/source\FreeRTOS_IP.c **** 		/* Update the checksum because the ucTypeOfMessage member in the header
1737:D:/Work/DeviceTester/amazon-freertos/lib/FreeRTOS-Plus-TCP/source\FreeRTOS_IP.c **** 		has been changed to ipICMP_ECHO_REPLY.  This is faster than calling
1738:D:/Work/DeviceTester/amazon-freertos/lib/FreeRTOS-Plus-TCP/source\FreeRTOS_IP.c **** 		usGenerateChecksum(). */
1739:D:/Work/DeviceTester/amazon-freertos/lib/FreeRTOS-Plus-TCP/source\FreeRTOS_IP.c **** 
1740:D:/Work/DeviceTester/amazon-freertos/lib/FreeRTOS-Plus-TCP/source\FreeRTOS_IP.c **** 		/* due to compiler warning "integer operation result is out of range" */
1741:D:/Work/DeviceTester/amazon-freertos/lib/FreeRTOS-Plus-TCP/source\FreeRTOS_IP.c **** 
1742:D:/Work/DeviceTester/amazon-freertos/lib/FreeRTOS-Plus-TCP/source\FreeRTOS_IP.c **** 		usRequest = ( uint16_t ) ( ( uint16_t )ipICMP_ECHO_REQUEST << 8 );
1743:D:/Work/DeviceTester/amazon-freertos/lib/FreeRTOS-Plus-TCP/source\FreeRTOS_IP.c **** 
1744:D:/Work/DeviceTester/amazon-freertos/lib/FreeRTOS-Plus-TCP/source\FreeRTOS_IP.c **** 		if( pxICMPHeader->usChecksum >= FreeRTOS_htons( 0xFFFFu - usRequest ) )
1745:D:/Work/DeviceTester/amazon-freertos/lib/FreeRTOS-Plus-TCP/source\FreeRTOS_IP.c **** 		{
1746:D:/Work/DeviceTester/amazon-freertos/lib/FreeRTOS-Plus-TCP/source\FreeRTOS_IP.c **** 			pxICMPHeader->usChecksum = ( uint16_t )
1747:D:/Work/DeviceTester/amazon-freertos/lib/FreeRTOS-Plus-TCP/source\FreeRTOS_IP.c **** 				( ( ( uint32_t ) pxICMPHeader->usChecksum ) +
1748:D:/Work/DeviceTester/amazon-freertos/lib/FreeRTOS-Plus-TCP/source\FreeRTOS_IP.c **** 					FreeRTOS_htons( usRequest + 1UL ) );
1749:D:/Work/DeviceTester/amazon-freertos/lib/FreeRTOS-Plus-TCP/source\FreeRTOS_IP.c **** 		}
1750:D:/Work/DeviceTester/amazon-freertos/lib/FreeRTOS-Plus-TCP/source\FreeRTOS_IP.c **** 		else
1751:D:/Work/DeviceTester/amazon-freertos/lib/FreeRTOS-Plus-TCP/source\FreeRTOS_IP.c **** 		{
1752:D:/Work/DeviceTester/amazon-freertos/lib/FreeRTOS-Plus-TCP/source\FreeRTOS_IP.c **** 			pxICMPHeader->usChecksum = ( uint16_t )
1753:D:/Work/DeviceTester/amazon-freertos/lib/FreeRTOS-Plus-TCP/source\FreeRTOS_IP.c **** 				( ( ( uint32_t ) pxICMPHeader->usChecksum ) +
1754:D:/Work/DeviceTester/amazon-freertos/lib/FreeRTOS-Plus-TCP/source\FreeRTOS_IP.c **** 					FreeRTOS_htons( usRequest ) );
1755:D:/Work/DeviceTester/amazon-freertos/lib/FreeRTOS-Plus-TCP/source\FreeRTOS_IP.c **** 		}
1756:D:/Work/DeviceTester/amazon-freertos/lib/FreeRTOS-Plus-TCP/source\FreeRTOS_IP.c **** 		return eReturnEthernetFrame;
1757:D:/Work/DeviceTester/amazon-freertos/lib/FreeRTOS-Plus-TCP/source\FreeRTOS_IP.c **** 	}
1758:D:/Work/DeviceTester/amazon-freertos/lib/FreeRTOS-Plus-TCP/source\FreeRTOS_IP.c **** 
1759:D:/Work/DeviceTester/amazon-freertos/lib/FreeRTOS-Plus-TCP/source\FreeRTOS_IP.c **** #endif /* ipconfigREPLY_TO_INCOMING_PINGS == 1 */
1760:D:/Work/DeviceTester/amazon-freertos/lib/FreeRTOS-Plus-TCP/source\FreeRTOS_IP.c **** /*-----------------------------------------------------------*/
1761:D:/Work/DeviceTester/amazon-freertos/lib/FreeRTOS-Plus-TCP/source\FreeRTOS_IP.c **** 
1762:D:/Work/DeviceTester/amazon-freertos/lib/FreeRTOS-Plus-TCP/source\FreeRTOS_IP.c **** #if ( ipconfigREPLY_TO_INCOMING_PINGS == 1 ) || ( ipconfigSUPPORT_OUTGOING_PINGS == 1 )
1763:D:/Work/DeviceTester/amazon-freertos/lib/FreeRTOS-Plus-TCP/source\FreeRTOS_IP.c **** 
1764:D:/Work/DeviceTester/amazon-freertos/lib/FreeRTOS-Plus-TCP/source\FreeRTOS_IP.c **** 	static eFrameProcessingResult_t prvProcessICMPPacket( ICMPPacket_t * const pxICMPPacket )
1765:D:/Work/DeviceTester/amazon-freertos/lib/FreeRTOS-Plus-TCP/source\FreeRTOS_IP.c **** 	{
1766:D:/Work/DeviceTester/amazon-freertos/lib/FreeRTOS-Plus-TCP/source\FreeRTOS_IP.c **** 	eFrameProcessingResult_t eReturn = eReleaseBuffer;
1767:D:/Work/DeviceTester/amazon-freertos/lib/FreeRTOS-Plus-TCP/source\FreeRTOS_IP.c **** 
1768:D:/Work/DeviceTester/amazon-freertos/lib/FreeRTOS-Plus-TCP/source\FreeRTOS_IP.c **** 		iptraceICMP_PACKET_RECEIVED();
1769:D:/Work/DeviceTester/amazon-freertos/lib/FreeRTOS-Plus-TCP/source\FreeRTOS_IP.c **** 		switch( pxICMPPacket->xICMPHeader.ucTypeOfMessage )
1770:D:/Work/DeviceTester/amazon-freertos/lib/FreeRTOS-Plus-TCP/source\FreeRTOS_IP.c **** 		{
1771:D:/Work/DeviceTester/amazon-freertos/lib/FreeRTOS-Plus-TCP/source\FreeRTOS_IP.c **** 			case ipICMP_ECHO_REQUEST	:
1772:D:/Work/DeviceTester/amazon-freertos/lib/FreeRTOS-Plus-TCP/source\FreeRTOS_IP.c **** 				#if ( ipconfigREPLY_TO_INCOMING_PINGS == 1 )
1773:D:/Work/DeviceTester/amazon-freertos/lib/FreeRTOS-Plus-TCP/source\FreeRTOS_IP.c **** 				{
1774:D:/Work/DeviceTester/amazon-freertos/lib/FreeRTOS-Plus-TCP/source\FreeRTOS_IP.c **** 					eReturn = prvProcessICMPEchoRequest( pxICMPPacket );
1775:D:/Work/DeviceTester/amazon-freertos/lib/FreeRTOS-Plus-TCP/source\FreeRTOS_IP.c **** 				}
1776:D:/Work/DeviceTester/amazon-freertos/lib/FreeRTOS-Plus-TCP/source\FreeRTOS_IP.c **** 				#endif /* ( ipconfigREPLY_TO_INCOMING_PINGS == 1 ) */
1777:D:/Work/DeviceTester/amazon-freertos/lib/FreeRTOS-Plus-TCP/source\FreeRTOS_IP.c **** 				break;
1778:D:/Work/DeviceTester/amazon-freertos/lib/FreeRTOS-Plus-TCP/source\FreeRTOS_IP.c **** 
1779:D:/Work/DeviceTester/amazon-freertos/lib/FreeRTOS-Plus-TCP/source\FreeRTOS_IP.c **** 			case ipICMP_ECHO_REPLY		:
1780:D:/Work/DeviceTester/amazon-freertos/lib/FreeRTOS-Plus-TCP/source\FreeRTOS_IP.c **** 				#if ( ipconfigSUPPORT_OUTGOING_PINGS == 1 )
1781:D:/Work/DeviceTester/amazon-freertos/lib/FreeRTOS-Plus-TCP/source\FreeRTOS_IP.c **** 				{
1782:D:/Work/DeviceTester/amazon-freertos/lib/FreeRTOS-Plus-TCP/source\FreeRTOS_IP.c **** 					prvProcessICMPEchoReply( pxICMPPacket );
1783:D:/Work/DeviceTester/amazon-freertos/lib/FreeRTOS-Plus-TCP/source\FreeRTOS_IP.c **** 				}
1784:D:/Work/DeviceTester/amazon-freertos/lib/FreeRTOS-Plus-TCP/source\FreeRTOS_IP.c **** 				#endif /* ipconfigSUPPORT_OUTGOING_PINGS */
1785:D:/Work/DeviceTester/amazon-freertos/lib/FreeRTOS-Plus-TCP/source\FreeRTOS_IP.c **** 				break;
1786:D:/Work/DeviceTester/amazon-freertos/lib/FreeRTOS-Plus-TCP/source\FreeRTOS_IP.c **** 
1787:D:/Work/DeviceTester/amazon-freertos/lib/FreeRTOS-Plus-TCP/source\FreeRTOS_IP.c **** 			default	:
1788:D:/Work/DeviceTester/amazon-freertos/lib/FreeRTOS-Plus-TCP/source\FreeRTOS_IP.c **** 				break;
1789:D:/Work/DeviceTester/amazon-freertos/lib/FreeRTOS-Plus-TCP/source\FreeRTOS_IP.c **** 		}
1790:D:/Work/DeviceTester/amazon-freertos/lib/FreeRTOS-Plus-TCP/source\FreeRTOS_IP.c **** 
1791:D:/Work/DeviceTester/amazon-freertos/lib/FreeRTOS-Plus-TCP/source\FreeRTOS_IP.c **** 		return eReturn;
1792:D:/Work/DeviceTester/amazon-freertos/lib/FreeRTOS-Plus-TCP/source\FreeRTOS_IP.c **** 	}
1793:D:/Work/DeviceTester/amazon-freertos/lib/FreeRTOS-Plus-TCP/source\FreeRTOS_IP.c **** 
1794:D:/Work/DeviceTester/amazon-freertos/lib/FreeRTOS-Plus-TCP/source\FreeRTOS_IP.c **** #endif /* ( ipconfigREPLY_TO_INCOMING_PINGS == 1 ) || ( ipconfigSUPPORT_OUTGOING_PINGS == 1 ) */
1795:D:/Work/DeviceTester/amazon-freertos/lib/FreeRTOS-Plus-TCP/source\FreeRTOS_IP.c **** /*-----------------------------------------------------------*/
1796:D:/Work/DeviceTester/amazon-freertos/lib/FreeRTOS-Plus-TCP/source\FreeRTOS_IP.c **** 
1797:D:/Work/DeviceTester/amazon-freertos/lib/FreeRTOS-Plus-TCP/source\FreeRTOS_IP.c **** uint16_t usGenerateProtocolChecksum( const uint8_t * const pucEthernetBuffer, size_t uxBufferLength
1798:D:/Work/DeviceTester/amazon-freertos/lib/FreeRTOS-Plus-TCP/source\FreeRTOS_IP.c **** {
1799:D:/Work/DeviceTester/amazon-freertos/lib/FreeRTOS-Plus-TCP/source\FreeRTOS_IP.c **** uint32_t ulLength;
1800:D:/Work/DeviceTester/amazon-freertos/lib/FreeRTOS-Plus-TCP/source\FreeRTOS_IP.c **** uint16_t usChecksum, *pusChecksum;
1801:D:/Work/DeviceTester/amazon-freertos/lib/FreeRTOS-Plus-TCP/source\FreeRTOS_IP.c **** const IPPacket_t * pxIPPacket;
1802:D:/Work/DeviceTester/amazon-freertos/lib/FreeRTOS-Plus-TCP/source\FreeRTOS_IP.c **** UBaseType_t uxIPHeaderLength;
1803:D:/Work/DeviceTester/amazon-freertos/lib/FreeRTOS-Plus-TCP/source\FreeRTOS_IP.c **** ProtocolPacket_t *pxProtPack;
1804:D:/Work/DeviceTester/amazon-freertos/lib/FreeRTOS-Plus-TCP/source\FreeRTOS_IP.c **** uint8_t ucProtocol;
1805:D:/Work/DeviceTester/amazon-freertos/lib/FreeRTOS-Plus-TCP/source\FreeRTOS_IP.c **** #if( ipconfigHAS_DEBUG_PRINTF != 0 )
1806:D:/Work/DeviceTester/amazon-freertos/lib/FreeRTOS-Plus-TCP/source\FreeRTOS_IP.c **** 	const char *pcType;
1807:D:/Work/DeviceTester/amazon-freertos/lib/FreeRTOS-Plus-TCP/source\FreeRTOS_IP.c **** #endif
1808:D:/Work/DeviceTester/amazon-freertos/lib/FreeRTOS-Plus-TCP/source\FreeRTOS_IP.c **** 
1809:D:/Work/DeviceTester/amazon-freertos/lib/FreeRTOS-Plus-TCP/source\FreeRTOS_IP.c **** 	/* Check for minimum packet size. */
1810:D:/Work/DeviceTester/amazon-freertos/lib/FreeRTOS-Plus-TCP/source\FreeRTOS_IP.c **** 	if( uxBufferLength < sizeof( IPPacket_t ) )
1811:D:/Work/DeviceTester/amazon-freertos/lib/FreeRTOS-Plus-TCP/source\FreeRTOS_IP.c **** 	{
1812:D:/Work/DeviceTester/amazon-freertos/lib/FreeRTOS-Plus-TCP/source\FreeRTOS_IP.c **** 		return ipINVALID_LENGTH;
1813:D:/Work/DeviceTester/amazon-freertos/lib/FreeRTOS-Plus-TCP/source\FreeRTOS_IP.c **** 	}
1814:D:/Work/DeviceTester/amazon-freertos/lib/FreeRTOS-Plus-TCP/source\FreeRTOS_IP.c **** 
1815:D:/Work/DeviceTester/amazon-freertos/lib/FreeRTOS-Plus-TCP/source\FreeRTOS_IP.c **** 	/* Parse the packet length. */
1816:D:/Work/DeviceTester/amazon-freertos/lib/FreeRTOS-Plus-TCP/source\FreeRTOS_IP.c **** 	pxIPPacket = ( const IPPacket_t * ) pucEthernetBuffer;
1817:D:/Work/DeviceTester/amazon-freertos/lib/FreeRTOS-Plus-TCP/source\FreeRTOS_IP.c **** 
1818:D:/Work/DeviceTester/amazon-freertos/lib/FreeRTOS-Plus-TCP/source\FreeRTOS_IP.c **** 	/* Per https://tools.ietf.org/html/rfc791, the four-bit Internet Header
1819:D:/Work/DeviceTester/amazon-freertos/lib/FreeRTOS-Plus-TCP/source\FreeRTOS_IP.c **** 	Length field contains the length of the internet header in 32-bit words. */
1820:D:/Work/DeviceTester/amazon-freertos/lib/FreeRTOS-Plus-TCP/source\FreeRTOS_IP.c **** 	uxIPHeaderLength = ( UBaseType_t ) ( sizeof( uint32_t ) * ( pxIPPacket->xIPHeader.ucVersionHeaderL
1821:D:/Work/DeviceTester/amazon-freertos/lib/FreeRTOS-Plus-TCP/source\FreeRTOS_IP.c **** 
1822:D:/Work/DeviceTester/amazon-freertos/lib/FreeRTOS-Plus-TCP/source\FreeRTOS_IP.c **** 	/* Check for minimum packet size. */
1823:D:/Work/DeviceTester/amazon-freertos/lib/FreeRTOS-Plus-TCP/source\FreeRTOS_IP.c **** 	if( uxBufferLength < sizeof( IPPacket_t ) + uxIPHeaderLength - ipSIZE_OF_IPv4_HEADER )
1824:D:/Work/DeviceTester/amazon-freertos/lib/FreeRTOS-Plus-TCP/source\FreeRTOS_IP.c **** 	{
1825:D:/Work/DeviceTester/amazon-freertos/lib/FreeRTOS-Plus-TCP/source\FreeRTOS_IP.c **** 		return ipINVALID_LENGTH;
1826:D:/Work/DeviceTester/amazon-freertos/lib/FreeRTOS-Plus-TCP/source\FreeRTOS_IP.c **** 	}
1827:D:/Work/DeviceTester/amazon-freertos/lib/FreeRTOS-Plus-TCP/source\FreeRTOS_IP.c **** 	if( uxBufferLength < FreeRTOS_ntohs( pxIPPacket->xIPHeader.usLength ) )
1828:D:/Work/DeviceTester/amazon-freertos/lib/FreeRTOS-Plus-TCP/source\FreeRTOS_IP.c **** 	{
1829:D:/Work/DeviceTester/amazon-freertos/lib/FreeRTOS-Plus-TCP/source\FreeRTOS_IP.c **** 		return ipINVALID_LENGTH;
1830:D:/Work/DeviceTester/amazon-freertos/lib/FreeRTOS-Plus-TCP/source\FreeRTOS_IP.c **** 	}
1831:D:/Work/DeviceTester/amazon-freertos/lib/FreeRTOS-Plus-TCP/source\FreeRTOS_IP.c **** 
1832:D:/Work/DeviceTester/amazon-freertos/lib/FreeRTOS-Plus-TCP/source\FreeRTOS_IP.c **** 	/* Identify the next protocol. */
1833:D:/Work/DeviceTester/amazon-freertos/lib/FreeRTOS-Plus-TCP/source\FreeRTOS_IP.c **** 	ucProtocol = pxIPPacket->xIPHeader.ucProtocol;
1834:D:/Work/DeviceTester/amazon-freertos/lib/FreeRTOS-Plus-TCP/source\FreeRTOS_IP.c **** 
1835:D:/Work/DeviceTester/amazon-freertos/lib/FreeRTOS-Plus-TCP/source\FreeRTOS_IP.c **** 	/* N.B., if this IP packet header includes Options, then the following
1836:D:/Work/DeviceTester/amazon-freertos/lib/FreeRTOS-Plus-TCP/source\FreeRTOS_IP.c **** 	assignment results in a pointer into the protocol packet with the Ethernet
1837:D:/Work/DeviceTester/amazon-freertos/lib/FreeRTOS-Plus-TCP/source\FreeRTOS_IP.c **** 	and IP headers incorrectly aligned. However, either way, the "third"
1838:D:/Work/DeviceTester/amazon-freertos/lib/FreeRTOS-Plus-TCP/source\FreeRTOS_IP.c **** 	protocol (Layer 3 or 4) header will be aligned, which is the convenience
1839:D:/Work/DeviceTester/amazon-freertos/lib/FreeRTOS-Plus-TCP/source\FreeRTOS_IP.c **** 	of this calculation. */
1840:D:/Work/DeviceTester/amazon-freertos/lib/FreeRTOS-Plus-TCP/source\FreeRTOS_IP.c **** 	pxProtPack = ( ProtocolPacket_t * ) ( pucEthernetBuffer + ( uxIPHeaderLength - ipSIZE_OF_IPv4_HEAD
1841:D:/Work/DeviceTester/amazon-freertos/lib/FreeRTOS-Plus-TCP/source\FreeRTOS_IP.c **** 
1842:D:/Work/DeviceTester/amazon-freertos/lib/FreeRTOS-Plus-TCP/source\FreeRTOS_IP.c **** 	/* Switch on the Layer 3/4 protocol. */
1843:D:/Work/DeviceTester/amazon-freertos/lib/FreeRTOS-Plus-TCP/source\FreeRTOS_IP.c **** 	if( ucProtocol == ( uint8_t ) ipPROTOCOL_UDP )
1844:D:/Work/DeviceTester/amazon-freertos/lib/FreeRTOS-Plus-TCP/source\FreeRTOS_IP.c **** 	{
1845:D:/Work/DeviceTester/amazon-freertos/lib/FreeRTOS-Plus-TCP/source\FreeRTOS_IP.c **** 		if( uxBufferLength < ( uxIPHeaderLength + ipSIZE_OF_ETH_HEADER + ipSIZE_OF_UDP_HEADER ) )
1846:D:/Work/DeviceTester/amazon-freertos/lib/FreeRTOS-Plus-TCP/source\FreeRTOS_IP.c **** 		{
1847:D:/Work/DeviceTester/amazon-freertos/lib/FreeRTOS-Plus-TCP/source\FreeRTOS_IP.c **** 			return ipINVALID_LENGTH;
1848:D:/Work/DeviceTester/amazon-freertos/lib/FreeRTOS-Plus-TCP/source\FreeRTOS_IP.c **** 		}
1849:D:/Work/DeviceTester/amazon-freertos/lib/FreeRTOS-Plus-TCP/source\FreeRTOS_IP.c **** 
1850:D:/Work/DeviceTester/amazon-freertos/lib/FreeRTOS-Plus-TCP/source\FreeRTOS_IP.c **** 		pusChecksum = ( uint16_t * ) ( &( pxProtPack->xUDPPacket.xUDPHeader.usChecksum ) );
1851:D:/Work/DeviceTester/amazon-freertos/lib/FreeRTOS-Plus-TCP/source\FreeRTOS_IP.c **** 		#if( ipconfigHAS_DEBUG_PRINTF != 0 )
1852:D:/Work/DeviceTester/amazon-freertos/lib/FreeRTOS-Plus-TCP/source\FreeRTOS_IP.c **** 		{
1853:D:/Work/DeviceTester/amazon-freertos/lib/FreeRTOS-Plus-TCP/source\FreeRTOS_IP.c **** 			pcType = "UDP";
1854:D:/Work/DeviceTester/amazon-freertos/lib/FreeRTOS-Plus-TCP/source\FreeRTOS_IP.c **** 		}
1855:D:/Work/DeviceTester/amazon-freertos/lib/FreeRTOS-Plus-TCP/source\FreeRTOS_IP.c **** 		#endif	/* ipconfigHAS_DEBUG_PRINTF != 0 */
1856:D:/Work/DeviceTester/amazon-freertos/lib/FreeRTOS-Plus-TCP/source\FreeRTOS_IP.c **** 	}
1857:D:/Work/DeviceTester/amazon-freertos/lib/FreeRTOS-Plus-TCP/source\FreeRTOS_IP.c **** 	else if( ucProtocol == ( uint8_t ) ipPROTOCOL_TCP )
1858:D:/Work/DeviceTester/amazon-freertos/lib/FreeRTOS-Plus-TCP/source\FreeRTOS_IP.c **** 	{
1859:D:/Work/DeviceTester/amazon-freertos/lib/FreeRTOS-Plus-TCP/source\FreeRTOS_IP.c **** 		if( uxBufferLength < ( uxIPHeaderLength + ipSIZE_OF_ETH_HEADER + ipSIZE_OF_TCP_HEADER ) )
1860:D:/Work/DeviceTester/amazon-freertos/lib/FreeRTOS-Plus-TCP/source\FreeRTOS_IP.c **** 		{
1861:D:/Work/DeviceTester/amazon-freertos/lib/FreeRTOS-Plus-TCP/source\FreeRTOS_IP.c **** 			return ipINVALID_LENGTH;
1862:D:/Work/DeviceTester/amazon-freertos/lib/FreeRTOS-Plus-TCP/source\FreeRTOS_IP.c **** 		}
1863:D:/Work/DeviceTester/amazon-freertos/lib/FreeRTOS-Plus-TCP/source\FreeRTOS_IP.c **** 
1864:D:/Work/DeviceTester/amazon-freertos/lib/FreeRTOS-Plus-TCP/source\FreeRTOS_IP.c **** 		pusChecksum = ( uint16_t * ) ( &( pxProtPack->xTCPPacket.xTCPHeader.usChecksum ) );
1865:D:/Work/DeviceTester/amazon-freertos/lib/FreeRTOS-Plus-TCP/source\FreeRTOS_IP.c **** 		#if( ipconfigHAS_DEBUG_PRINTF != 0 )
1866:D:/Work/DeviceTester/amazon-freertos/lib/FreeRTOS-Plus-TCP/source\FreeRTOS_IP.c **** 		{
1867:D:/Work/DeviceTester/amazon-freertos/lib/FreeRTOS-Plus-TCP/source\FreeRTOS_IP.c **** 			pcType = "TCP";
1868:D:/Work/DeviceTester/amazon-freertos/lib/FreeRTOS-Plus-TCP/source\FreeRTOS_IP.c **** 		}
1869:D:/Work/DeviceTester/amazon-freertos/lib/FreeRTOS-Plus-TCP/source\FreeRTOS_IP.c **** 		#endif	/* ipconfigHAS_DEBUG_PRINTF != 0 */
1870:D:/Work/DeviceTester/amazon-freertos/lib/FreeRTOS-Plus-TCP/source\FreeRTOS_IP.c **** 	}
1871:D:/Work/DeviceTester/amazon-freertos/lib/FreeRTOS-Plus-TCP/source\FreeRTOS_IP.c **** 	else if( ( ucProtocol == ( uint8_t ) ipPROTOCOL_ICMP ) ||
1872:D:/Work/DeviceTester/amazon-freertos/lib/FreeRTOS-Plus-TCP/source\FreeRTOS_IP.c **** 			( ucProtocol == ( uint8_t ) ipPROTOCOL_IGMP ) )
1873:D:/Work/DeviceTester/amazon-freertos/lib/FreeRTOS-Plus-TCP/source\FreeRTOS_IP.c **** 	{
1874:D:/Work/DeviceTester/amazon-freertos/lib/FreeRTOS-Plus-TCP/source\FreeRTOS_IP.c **** 		if( uxBufferLength < ( uxIPHeaderLength + ipSIZE_OF_ETH_HEADER + ipSIZE_OF_ICMP_HEADER ) )
1875:D:/Work/DeviceTester/amazon-freertos/lib/FreeRTOS-Plus-TCP/source\FreeRTOS_IP.c **** 		{
1876:D:/Work/DeviceTester/amazon-freertos/lib/FreeRTOS-Plus-TCP/source\FreeRTOS_IP.c **** 			return ipINVALID_LENGTH;
1877:D:/Work/DeviceTester/amazon-freertos/lib/FreeRTOS-Plus-TCP/source\FreeRTOS_IP.c **** 		}
1878:D:/Work/DeviceTester/amazon-freertos/lib/FreeRTOS-Plus-TCP/source\FreeRTOS_IP.c **** 
1879:D:/Work/DeviceTester/amazon-freertos/lib/FreeRTOS-Plus-TCP/source\FreeRTOS_IP.c **** 		pusChecksum = ( uint16_t * ) ( &( pxProtPack->xICMPPacket.xICMPHeader.usChecksum ) );
1880:D:/Work/DeviceTester/amazon-freertos/lib/FreeRTOS-Plus-TCP/source\FreeRTOS_IP.c **** 		#if( ipconfigHAS_DEBUG_PRINTF != 0 )
1881:D:/Work/DeviceTester/amazon-freertos/lib/FreeRTOS-Plus-TCP/source\FreeRTOS_IP.c **** 		{
1882:D:/Work/DeviceTester/amazon-freertos/lib/FreeRTOS-Plus-TCP/source\FreeRTOS_IP.c **** 			if( ucProtocol == ( uint8_t ) ipPROTOCOL_ICMP )
1883:D:/Work/DeviceTester/amazon-freertos/lib/FreeRTOS-Plus-TCP/source\FreeRTOS_IP.c **** 			{
1884:D:/Work/DeviceTester/amazon-freertos/lib/FreeRTOS-Plus-TCP/source\FreeRTOS_IP.c **** 				pcType = "ICMP";
1885:D:/Work/DeviceTester/amazon-freertos/lib/FreeRTOS-Plus-TCP/source\FreeRTOS_IP.c **** 			}
1886:D:/Work/DeviceTester/amazon-freertos/lib/FreeRTOS-Plus-TCP/source\FreeRTOS_IP.c **** 			else
1887:D:/Work/DeviceTester/amazon-freertos/lib/FreeRTOS-Plus-TCP/source\FreeRTOS_IP.c **** 			{
1888:D:/Work/DeviceTester/amazon-freertos/lib/FreeRTOS-Plus-TCP/source\FreeRTOS_IP.c **** 				pcType = "IGMP";
1889:D:/Work/DeviceTester/amazon-freertos/lib/FreeRTOS-Plus-TCP/source\FreeRTOS_IP.c **** 			}
1890:D:/Work/DeviceTester/amazon-freertos/lib/FreeRTOS-Plus-TCP/source\FreeRTOS_IP.c **** 		}
1891:D:/Work/DeviceTester/amazon-freertos/lib/FreeRTOS-Plus-TCP/source\FreeRTOS_IP.c **** 		#endif	/* ipconfigHAS_DEBUG_PRINTF != 0 */
1892:D:/Work/DeviceTester/amazon-freertos/lib/FreeRTOS-Plus-TCP/source\FreeRTOS_IP.c **** 	}
1893:D:/Work/DeviceTester/amazon-freertos/lib/FreeRTOS-Plus-TCP/source\FreeRTOS_IP.c **** 	else
1894:D:/Work/DeviceTester/amazon-freertos/lib/FreeRTOS-Plus-TCP/source\FreeRTOS_IP.c **** 	{
1895:D:/Work/DeviceTester/amazon-freertos/lib/FreeRTOS-Plus-TCP/source\FreeRTOS_IP.c **** 		/* Unhandled protocol, other than ICMP, IGMP, UDP, or TCP. */
1896:D:/Work/DeviceTester/amazon-freertos/lib/FreeRTOS-Plus-TCP/source\FreeRTOS_IP.c **** 		return ipUNHANDLED_PROTOCOL;
1897:D:/Work/DeviceTester/amazon-freertos/lib/FreeRTOS-Plus-TCP/source\FreeRTOS_IP.c **** 	}
1898:D:/Work/DeviceTester/amazon-freertos/lib/FreeRTOS-Plus-TCP/source\FreeRTOS_IP.c **** 
1899:D:/Work/DeviceTester/amazon-freertos/lib/FreeRTOS-Plus-TCP/source\FreeRTOS_IP.c **** 	/* The protocol and checksum field have been identified. Check the direction
1900:D:/Work/DeviceTester/amazon-freertos/lib/FreeRTOS-Plus-TCP/source\FreeRTOS_IP.c **** 	of the packet. */
1901:D:/Work/DeviceTester/amazon-freertos/lib/FreeRTOS-Plus-TCP/source\FreeRTOS_IP.c **** 	if( xOutgoingPacket != pdFALSE )
1902:D:/Work/DeviceTester/amazon-freertos/lib/FreeRTOS-Plus-TCP/source\FreeRTOS_IP.c **** 	{
