   1              		.cpu cortex-a9
   2              		.eabi_attribute 28, 1
   3              		.eabi_attribute 20, 1
   4              		.eabi_attribute 21, 1
   5              		.eabi_attribute 23, 3
   6              		.eabi_attribute 24, 1
   7              		.eabi_attribute 25, 1
   8              		.eabi_attribute 26, 1
   9              		.eabi_attribute 30, 4
  10              		.eabi_attribute 34, 0
  11              		.eabi_attribute 18, 4
  12              		.file	"FreeRTOS_UDP_IP.c"
  13              		.text
  14              	.Ltext0:
  15              		.cfi_sections	.debug_frame
  16              		.section	.text.vProcessGeneratedUDPPacket,"ax",%progbits
  17              		.align	2
  18              		.global	vProcessGeneratedUDPPacket
  19              		.syntax unified
  20              		.arm
  21              		.fpu neon
  23              	vProcessGeneratedUDPPacket:
  24              	.LFB25:
  25              		.file 1 "D:/Work/DeviceTester/amazon-freertos/lib/FreeRTOS-Plus-TCP/source/FreeRTOS_UDP_IP.c"
   1:D:/Work/DeviceTester/amazon-freertos/lib/FreeRTOS-Plus-TCP/source\FreeRTOS_UDP_IP.c **** /*
   2:D:/Work/DeviceTester/amazon-freertos/lib/FreeRTOS-Plus-TCP/source\FreeRTOS_UDP_IP.c ****  * FreeRTOS+TCP V2.0.10
   3:D:/Work/DeviceTester/amazon-freertos/lib/FreeRTOS-Plus-TCP/source\FreeRTOS_UDP_IP.c ****  * Copyright (C) 2017 Amazon.com, Inc. or its affiliates.  All Rights Reserved.
   4:D:/Work/DeviceTester/amazon-freertos/lib/FreeRTOS-Plus-TCP/source\FreeRTOS_UDP_IP.c ****  *
   5:D:/Work/DeviceTester/amazon-freertos/lib/FreeRTOS-Plus-TCP/source\FreeRTOS_UDP_IP.c ****  * Permission is hereby granted, free of charge, to any person obtaining a copy of
   6:D:/Work/DeviceTester/amazon-freertos/lib/FreeRTOS-Plus-TCP/source\FreeRTOS_UDP_IP.c ****  * this software and associated documentation files (the "Software"), to deal in
   7:D:/Work/DeviceTester/amazon-freertos/lib/FreeRTOS-Plus-TCP/source\FreeRTOS_UDP_IP.c ****  * the Software without restriction, including without limitation the rights to
   8:D:/Work/DeviceTester/amazon-freertos/lib/FreeRTOS-Plus-TCP/source\FreeRTOS_UDP_IP.c ****  * use, copy, modify, merge, publish, distribute, sublicense, and/or sell copies of
   9:D:/Work/DeviceTester/amazon-freertos/lib/FreeRTOS-Plus-TCP/source\FreeRTOS_UDP_IP.c ****  * the Software, and to permit persons to whom the Software is furnished to do so,
  10:D:/Work/DeviceTester/amazon-freertos/lib/FreeRTOS-Plus-TCP/source\FreeRTOS_UDP_IP.c ****  * subject to the following conditions:
  11:D:/Work/DeviceTester/amazon-freertos/lib/FreeRTOS-Plus-TCP/source\FreeRTOS_UDP_IP.c ****  *
  12:D:/Work/DeviceTester/amazon-freertos/lib/FreeRTOS-Plus-TCP/source\FreeRTOS_UDP_IP.c ****  * The above copyright notice and this permission notice shall be included in all
  13:D:/Work/DeviceTester/amazon-freertos/lib/FreeRTOS-Plus-TCP/source\FreeRTOS_UDP_IP.c ****  * copies or substantial portions of the Software.
  14:D:/Work/DeviceTester/amazon-freertos/lib/FreeRTOS-Plus-TCP/source\FreeRTOS_UDP_IP.c ****  *
  15:D:/Work/DeviceTester/amazon-freertos/lib/FreeRTOS-Plus-TCP/source\FreeRTOS_UDP_IP.c ****  * THE SOFTWARE IS PROVIDED "AS IS", WITHOUT WARRANTY OF ANY KIND, EXPRESS OR
  16:D:/Work/DeviceTester/amazon-freertos/lib/FreeRTOS-Plus-TCP/source\FreeRTOS_UDP_IP.c ****  * IMPLIED, INCLUDING BUT NOT LIMITED TO THE WARRANTIES OF MERCHANTABILITY, FITNESS
  17:D:/Work/DeviceTester/amazon-freertos/lib/FreeRTOS-Plus-TCP/source\FreeRTOS_UDP_IP.c ****  * FOR A PARTICULAR PURPOSE AND NONINFRINGEMENT. IN NO EVENT SHALL THE AUTHORS OR
  18:D:/Work/DeviceTester/amazon-freertos/lib/FreeRTOS-Plus-TCP/source\FreeRTOS_UDP_IP.c ****  * COPYRIGHT HOLDERS BE LIABLE FOR ANY CLAIM, DAMAGES OR OTHER LIABILITY, WHETHER
  19:D:/Work/DeviceTester/amazon-freertos/lib/FreeRTOS-Plus-TCP/source\FreeRTOS_UDP_IP.c ****  * IN AN ACTION OF CONTRACT, TORT OR OTHERWISE, ARISING FROM, OUT OF OR IN
  20:D:/Work/DeviceTester/amazon-freertos/lib/FreeRTOS-Plus-TCP/source\FreeRTOS_UDP_IP.c ****  * CONNECTION WITH THE SOFTWARE OR THE USE OR OTHER DEALINGS IN THE SOFTWARE.
  21:D:/Work/DeviceTester/amazon-freertos/lib/FreeRTOS-Plus-TCP/source\FreeRTOS_UDP_IP.c ****  *
  22:D:/Work/DeviceTester/amazon-freertos/lib/FreeRTOS-Plus-TCP/source\FreeRTOS_UDP_IP.c ****  * http://aws.amazon.com/freertos
  23:D:/Work/DeviceTester/amazon-freertos/lib/FreeRTOS-Plus-TCP/source\FreeRTOS_UDP_IP.c ****  * http://www.FreeRTOS.org
  24:D:/Work/DeviceTester/amazon-freertos/lib/FreeRTOS-Plus-TCP/source\FreeRTOS_UDP_IP.c ****  */
  25:D:/Work/DeviceTester/amazon-freertos/lib/FreeRTOS-Plus-TCP/source\FreeRTOS_UDP_IP.c **** 
  26:D:/Work/DeviceTester/amazon-freertos/lib/FreeRTOS-Plus-TCP/source\FreeRTOS_UDP_IP.c **** /* Standard includes. */
  27:D:/Work/DeviceTester/amazon-freertos/lib/FreeRTOS-Plus-TCP/source\FreeRTOS_UDP_IP.c **** #include <stdint.h>
  28:D:/Work/DeviceTester/amazon-freertos/lib/FreeRTOS-Plus-TCP/source\FreeRTOS_UDP_IP.c **** #include <stdio.h>
  29:D:/Work/DeviceTester/amazon-freertos/lib/FreeRTOS-Plus-TCP/source\FreeRTOS_UDP_IP.c **** 
  30:D:/Work/DeviceTester/amazon-freertos/lib/FreeRTOS-Plus-TCP/source\FreeRTOS_UDP_IP.c **** /* FreeRTOS includes. */
  31:D:/Work/DeviceTester/amazon-freertos/lib/FreeRTOS-Plus-TCP/source\FreeRTOS_UDP_IP.c **** #include "FreeRTOS.h"
  32:D:/Work/DeviceTester/amazon-freertos/lib/FreeRTOS-Plus-TCP/source\FreeRTOS_UDP_IP.c **** #include "task.h"
  33:D:/Work/DeviceTester/amazon-freertos/lib/FreeRTOS-Plus-TCP/source\FreeRTOS_UDP_IP.c **** #include "queue.h"
  34:D:/Work/DeviceTester/amazon-freertos/lib/FreeRTOS-Plus-TCP/source\FreeRTOS_UDP_IP.c **** #include "semphr.h"
  35:D:/Work/DeviceTester/amazon-freertos/lib/FreeRTOS-Plus-TCP/source\FreeRTOS_UDP_IP.c **** 
  36:D:/Work/DeviceTester/amazon-freertos/lib/FreeRTOS-Plus-TCP/source\FreeRTOS_UDP_IP.c **** /* FreeRTOS+TCP includes. */
  37:D:/Work/DeviceTester/amazon-freertos/lib/FreeRTOS-Plus-TCP/source\FreeRTOS_UDP_IP.c **** #include "FreeRTOS_IP.h"
  38:D:/Work/DeviceTester/amazon-freertos/lib/FreeRTOS-Plus-TCP/source\FreeRTOS_UDP_IP.c **** #include "FreeRTOS_Sockets.h"
  39:D:/Work/DeviceTester/amazon-freertos/lib/FreeRTOS-Plus-TCP/source\FreeRTOS_UDP_IP.c **** #include "FreeRTOS_IP_Private.h"
  40:D:/Work/DeviceTester/amazon-freertos/lib/FreeRTOS-Plus-TCP/source\FreeRTOS_UDP_IP.c **** #include "FreeRTOS_UDP_IP.h"
  41:D:/Work/DeviceTester/amazon-freertos/lib/FreeRTOS-Plus-TCP/source\FreeRTOS_UDP_IP.c **** #include "FreeRTOS_ARP.h"
  42:D:/Work/DeviceTester/amazon-freertos/lib/FreeRTOS-Plus-TCP/source\FreeRTOS_UDP_IP.c **** #include "FreeRTOS_DHCP.h"
  43:D:/Work/DeviceTester/amazon-freertos/lib/FreeRTOS-Plus-TCP/source\FreeRTOS_UDP_IP.c **** #include "NetworkInterface.h"
  44:D:/Work/DeviceTester/amazon-freertos/lib/FreeRTOS-Plus-TCP/source\FreeRTOS_UDP_IP.c **** #include "NetworkBufferManagement.h"
  45:D:/Work/DeviceTester/amazon-freertos/lib/FreeRTOS-Plus-TCP/source\FreeRTOS_UDP_IP.c **** 
  46:D:/Work/DeviceTester/amazon-freertos/lib/FreeRTOS-Plus-TCP/source\FreeRTOS_UDP_IP.c **** #if( ipconfigUSE_DNS == 1 )
  47:D:/Work/DeviceTester/amazon-freertos/lib/FreeRTOS-Plus-TCP/source\FreeRTOS_UDP_IP.c **** 	#include "FreeRTOS_DNS.h"
  48:D:/Work/DeviceTester/amazon-freertos/lib/FreeRTOS-Plus-TCP/source\FreeRTOS_UDP_IP.c **** #endif
  49:D:/Work/DeviceTester/amazon-freertos/lib/FreeRTOS-Plus-TCP/source\FreeRTOS_UDP_IP.c **** 
  50:D:/Work/DeviceTester/amazon-freertos/lib/FreeRTOS-Plus-TCP/source\FreeRTOS_UDP_IP.c **** /* The expected IP version and header length coded into the IP header itself. */
  51:D:/Work/DeviceTester/amazon-freertos/lib/FreeRTOS-Plus-TCP/source\FreeRTOS_UDP_IP.c **** #define ipIP_VERSION_AND_HEADER_LENGTH_BYTE ( ( uint8_t ) 0x45 )
  52:D:/Work/DeviceTester/amazon-freertos/lib/FreeRTOS-Plus-TCP/source\FreeRTOS_UDP_IP.c **** 
  53:D:/Work/DeviceTester/amazon-freertos/lib/FreeRTOS-Plus-TCP/source\FreeRTOS_UDP_IP.c **** /* Part of the Ethernet and IP headers are always constant when sending an IPv4
  54:D:/Work/DeviceTester/amazon-freertos/lib/FreeRTOS-Plus-TCP/source\FreeRTOS_UDP_IP.c **** UDP packet.  This array defines the constant parts, allowing this part of the
  55:D:/Work/DeviceTester/amazon-freertos/lib/FreeRTOS-Plus-TCP/source\FreeRTOS_UDP_IP.c **** packet to be filled in using a simple memcpy() instead of individual writes. */
  56:D:/Work/DeviceTester/amazon-freertos/lib/FreeRTOS-Plus-TCP/source\FreeRTOS_UDP_IP.c **** UDPPacketHeader_t xDefaultPartUDPPacketHeader =
  57:D:/Work/DeviceTester/amazon-freertos/lib/FreeRTOS-Plus-TCP/source\FreeRTOS_UDP_IP.c **** {
  58:D:/Work/DeviceTester/amazon-freertos/lib/FreeRTOS-Plus-TCP/source\FreeRTOS_UDP_IP.c **** 	/* .ucBytes : */
  59:D:/Work/DeviceTester/amazon-freertos/lib/FreeRTOS-Plus-TCP/source\FreeRTOS_UDP_IP.c **** 	{
  60:D:/Work/DeviceTester/amazon-freertos/lib/FreeRTOS-Plus-TCP/source\FreeRTOS_UDP_IP.c **** 		0x00, 0x00, 0x00, 0x00, 0x00, 0x00, 	/* Ethernet source MAC address. */
  61:D:/Work/DeviceTester/amazon-freertos/lib/FreeRTOS-Plus-TCP/source\FreeRTOS_UDP_IP.c **** 		0x08, 0x00, 							/* Ethernet frame type. */
  62:D:/Work/DeviceTester/amazon-freertos/lib/FreeRTOS-Plus-TCP/source\FreeRTOS_UDP_IP.c **** 		ipIP_VERSION_AND_HEADER_LENGTH_BYTE, 	/* ucVersionHeaderLength. */
  63:D:/Work/DeviceTester/amazon-freertos/lib/FreeRTOS-Plus-TCP/source\FreeRTOS_UDP_IP.c **** 		0x00, 									/* ucDifferentiatedServicesCode. */
  64:D:/Work/DeviceTester/amazon-freertos/lib/FreeRTOS-Plus-TCP/source\FreeRTOS_UDP_IP.c **** 		0x00, 0x00, 							/* usLength. */
  65:D:/Work/DeviceTester/amazon-freertos/lib/FreeRTOS-Plus-TCP/source\FreeRTOS_UDP_IP.c **** 		0x00, 0x00, 							/* usIdentification. */
  66:D:/Work/DeviceTester/amazon-freertos/lib/FreeRTOS-Plus-TCP/source\FreeRTOS_UDP_IP.c **** 		0x00, 0x00, 							/* usFragmentOffset. */
  67:D:/Work/DeviceTester/amazon-freertos/lib/FreeRTOS-Plus-TCP/source\FreeRTOS_UDP_IP.c **** 		ipconfigUDP_TIME_TO_LIVE, 				/* ucTimeToLive */
  68:D:/Work/DeviceTester/amazon-freertos/lib/FreeRTOS-Plus-TCP/source\FreeRTOS_UDP_IP.c **** 		ipPROTOCOL_UDP, 						/* ucProtocol. */
  69:D:/Work/DeviceTester/amazon-freertos/lib/FreeRTOS-Plus-TCP/source\FreeRTOS_UDP_IP.c **** 		0x00, 0x00, 							/* usHeaderChecksum. */
  70:D:/Work/DeviceTester/amazon-freertos/lib/FreeRTOS-Plus-TCP/source\FreeRTOS_UDP_IP.c **** 		0x00, 0x00, 0x00, 0x00 					/* Source IP address. */
  71:D:/Work/DeviceTester/amazon-freertos/lib/FreeRTOS-Plus-TCP/source\FreeRTOS_UDP_IP.c **** 	}
  72:D:/Work/DeviceTester/amazon-freertos/lib/FreeRTOS-Plus-TCP/source\FreeRTOS_UDP_IP.c **** };
  73:D:/Work/DeviceTester/amazon-freertos/lib/FreeRTOS-Plus-TCP/source\FreeRTOS_UDP_IP.c **** /*-----------------------------------------------------------*/
  74:D:/Work/DeviceTester/amazon-freertos/lib/FreeRTOS-Plus-TCP/source\FreeRTOS_UDP_IP.c **** 
  75:D:/Work/DeviceTester/amazon-freertos/lib/FreeRTOS-Plus-TCP/source\FreeRTOS_UDP_IP.c **** void vProcessGeneratedUDPPacket( NetworkBufferDescriptor_t * const pxNetworkBuffer )
  76:D:/Work/DeviceTester/amazon-freertos/lib/FreeRTOS-Plus-TCP/source\FreeRTOS_UDP_IP.c **** {
  26              		.loc 1 76 0
  27              		.cfi_startproc
  28              		@ args = 0, pretend = 0, frame = 8
  29              		@ frame_needed = 0, uses_anonymous_args = 0
  30              	.LVL0:
  31 0000 F3412DE9 		push	{r0, r1, r4, r5, r6, r7, r8, lr}
  32              		.cfi_def_cfa_offset 32
  33              		.cfi_offset 4, -24
  34              		.cfi_offset 5, -20
  35              		.cfi_offset 6, -16
  36              		.cfi_offset 7, -12
  37              		.cfi_offset 8, -8
  38              		.cfi_offset 14, -4
  39              		.loc 1 76 0
  40 0004 0050A0E1 		mov	r5, r0
  77:D:/Work/DeviceTester/amazon-freertos/lib/FreeRTOS-Plus-TCP/source\FreeRTOS_UDP_IP.c **** UDPPacket_t *pxUDPPacket;
  78:D:/Work/DeviceTester/amazon-freertos/lib/FreeRTOS-Plus-TCP/source\FreeRTOS_UDP_IP.c **** IPHeader_t *pxIPHeader;
  79:D:/Work/DeviceTester/amazon-freertos/lib/FreeRTOS-Plus-TCP/source\FreeRTOS_UDP_IP.c **** eARPLookupResult_t eReturned;
  80:D:/Work/DeviceTester/amazon-freertos/lib/FreeRTOS-Plus-TCP/source\FreeRTOS_UDP_IP.c **** uint32_t ulIPAddress = pxNetworkBuffer->ulIPAddress;
  41              		.loc 1 80 0
  42 0008 143090E5 		ldr	r3, [r0, #20]
  43 000c 08008DE2 		add	r0, sp, #8
  44              	.LVL1:
  81:D:/Work/DeviceTester/amazon-freertos/lib/FreeRTOS-Plus-TCP/source\FreeRTOS_UDP_IP.c **** 
  82:D:/Work/DeviceTester/amazon-freertos/lib/FreeRTOS-Plus-TCP/source\FreeRTOS_UDP_IP.c **** 	/* Map the UDP packet onto the start of the frame. */
  83:D:/Work/DeviceTester/amazon-freertos/lib/FreeRTOS-Plus-TCP/source\FreeRTOS_UDP_IP.c **** 	pxUDPPacket = ( UDPPacket_t * ) pxNetworkBuffer->pucEthernetBuffer;
  45              		.loc 1 83 0
  46 0010 184095E5 		ldr	r4, [r5, #24]
  47              	.LVL2:
  80:D:/Work/DeviceTester/amazon-freertos/lib/FreeRTOS-Plus-TCP/source\FreeRTOS_UDP_IP.c **** 
  48              		.loc 1 80 0
  49 0014 043020E5 		str	r3, [r0, #-4]!
  84:D:/Work/DeviceTester/amazon-freertos/lib/FreeRTOS-Plus-TCP/source\FreeRTOS_UDP_IP.c **** 
  85:D:/Work/DeviceTester/amazon-freertos/lib/FreeRTOS-Plus-TCP/source\FreeRTOS_UDP_IP.c **** 	/* Determine the ARP cache status for the requested IP address. */
  86:D:/Work/DeviceTester/amazon-freertos/lib/FreeRTOS-Plus-TCP/source\FreeRTOS_UDP_IP.c **** 	eReturned = eARPGetCacheEntry( &( ulIPAddress ), &( pxUDPPacket->xEthernetHeader.xDestinationAddre
  50              		.loc 1 86 0
  51 0018 0410A0E1 		mov	r1, r4
  52 001c FEFFFFEB 		bl	eARPGetCacheEntry
  53              	.LVL3:
  87:D:/Work/DeviceTester/amazon-freertos/lib/FreeRTOS-Plus-TCP/source\FreeRTOS_UDP_IP.c **** 
  88:D:/Work/DeviceTester/amazon-freertos/lib/FreeRTOS-Plus-TCP/source\FreeRTOS_UDP_IP.c **** 	if( eReturned != eCantSendPacket )
  54              		.loc 1 88 0
  55 0020 020050E3 		cmp	r0, #2
  56 0024 4E00000A 		beq	.L2
  89:D:/Work/DeviceTester/amazon-freertos/lib/FreeRTOS-Plus-TCP/source\FreeRTOS_UDP_IP.c **** 	{
  90:D:/Work/DeviceTester/amazon-freertos/lib/FreeRTOS-Plus-TCP/source\FreeRTOS_UDP_IP.c **** 		if( eReturned == eARPCacheHit )
  57              		.loc 1 90 0
  58 0028 010050E3 		cmp	r0, #1
  59 002c 0080A0E1 		mov	r8, r0
  60 0030 4200001A 		bne	.L3
  61              	.LVL4:
  62              	.LBB2:
  63              	.LBB3:
  91:D:/Work/DeviceTester/amazon-freertos/lib/FreeRTOS-Plus-TCP/source\FreeRTOS_UDP_IP.c **** 		{
  92:D:/Work/DeviceTester/amazon-freertos/lib/FreeRTOS-Plus-TCP/source\FreeRTOS_UDP_IP.c **** 			#if( ipconfigDRIVER_INCLUDED_TX_IP_CHECKSUM == 0 )
  93:D:/Work/DeviceTester/amazon-freertos/lib/FreeRTOS-Plus-TCP/source\FreeRTOS_UDP_IP.c **** 				uint8_t ucSocketOptions;
  94:D:/Work/DeviceTester/amazon-freertos/lib/FreeRTOS-Plus-TCP/source\FreeRTOS_UDP_IP.c **** 			#endif
  95:D:/Work/DeviceTester/amazon-freertos/lib/FreeRTOS-Plus-TCP/source\FreeRTOS_UDP_IP.c **** 			iptraceSENDING_UDP_PACKET( pxNetworkBuffer->ulIPAddress );
  96:D:/Work/DeviceTester/amazon-freertos/lib/FreeRTOS-Plus-TCP/source\FreeRTOS_UDP_IP.c **** 
  97:D:/Work/DeviceTester/amazon-freertos/lib/FreeRTOS-Plus-TCP/source\FreeRTOS_UDP_IP.c **** 			/* Create short cuts to the data within the packet. */
  98:D:/Work/DeviceTester/amazon-freertos/lib/FreeRTOS-Plus-TCP/source\FreeRTOS_UDP_IP.c **** 			pxIPHeader = &( pxUDPPacket->xIPHeader );
  99:D:/Work/DeviceTester/amazon-freertos/lib/FreeRTOS-Plus-TCP/source\FreeRTOS_UDP_IP.c **** 
 100:D:/Work/DeviceTester/amazon-freertos/lib/FreeRTOS-Plus-TCP/source\FreeRTOS_UDP_IP.c **** 		#if ( ipconfigSUPPORT_OUTGOING_PINGS == 1 )
 101:D:/Work/DeviceTester/amazon-freertos/lib/FreeRTOS-Plus-TCP/source\FreeRTOS_UDP_IP.c **** 			/* Is it possible that the packet is not actually a UDP packet
 102:D:/Work/DeviceTester/amazon-freertos/lib/FreeRTOS-Plus-TCP/source\FreeRTOS_UDP_IP.c **** 			after all, but an ICMP packet. */
 103:D:/Work/DeviceTester/amazon-freertos/lib/FreeRTOS-Plus-TCP/source\FreeRTOS_UDP_IP.c **** 			if( pxNetworkBuffer->usPort != ipPACKET_CONTAINS_ICMP_DATA )
 104:D:/Work/DeviceTester/amazon-freertos/lib/FreeRTOS-Plus-TCP/source\FreeRTOS_UDP_IP.c **** 		#endif /* ipconfigSUPPORT_OUTGOING_PINGS */
 105:D:/Work/DeviceTester/amazon-freertos/lib/FreeRTOS-Plus-TCP/source\FreeRTOS_UDP_IP.c **** 			{
 106:D:/Work/DeviceTester/amazon-freertos/lib/FreeRTOS-Plus-TCP/source\FreeRTOS_UDP_IP.c **** 			UDPHeader_t *pxUDPHeader;
 107:D:/Work/DeviceTester/amazon-freertos/lib/FreeRTOS-Plus-TCP/source\FreeRTOS_UDP_IP.c **** 
 108:D:/Work/DeviceTester/amazon-freertos/lib/FreeRTOS-Plus-TCP/source\FreeRTOS_UDP_IP.c **** 				pxUDPHeader = &( pxUDPPacket->xUDPHeader );
 109:D:/Work/DeviceTester/amazon-freertos/lib/FreeRTOS-Plus-TCP/source\FreeRTOS_UDP_IP.c **** 
 110:D:/Work/DeviceTester/amazon-freertos/lib/FreeRTOS-Plus-TCP/source\FreeRTOS_UDP_IP.c **** 				pxUDPHeader->usDestinationPort = pxNetworkBuffer->usPort;
  64              		.loc 1 110 0
  65 0034 2030D5E5 		ldrb	r3, [r5, #32]	@ zero_extendqisi2
  66 0038 0070A0E3 		mov	r7, #0
  67              	.LBE3:
 111:D:/Work/DeviceTester/amazon-freertos/lib/FreeRTOS-Plus-TCP/source\FreeRTOS_UDP_IP.c **** 				pxUDPHeader->usSourcePort = pxNetworkBuffer->usBoundPort;
 112:D:/Work/DeviceTester/amazon-freertos/lib/FreeRTOS-Plus-TCP/source\FreeRTOS_UDP_IP.c **** 				pxUDPHeader->usLength = ( uint16_t ) ( pxNetworkBuffer->xDataLength + sizeof( UDPHeader_t ) );
 113:D:/Work/DeviceTester/amazon-freertos/lib/FreeRTOS-Plus-TCP/source\FreeRTOS_UDP_IP.c **** 				pxUDPHeader->usLength = FreeRTOS_htons( pxUDPHeader->usLength );
 114:D:/Work/DeviceTester/amazon-freertos/lib/FreeRTOS-Plus-TCP/source\FreeRTOS_UDP_IP.c **** 				pxUDPHeader->usChecksum = 0u;
 115:D:/Work/DeviceTester/amazon-freertos/lib/FreeRTOS-Plus-TCP/source\FreeRTOS_UDP_IP.c **** 			}
 116:D:/Work/DeviceTester/amazon-freertos/lib/FreeRTOS-Plus-TCP/source\FreeRTOS_UDP_IP.c **** 
 117:D:/Work/DeviceTester/amazon-freertos/lib/FreeRTOS-Plus-TCP/source\FreeRTOS_UDP_IP.c **** 			/* memcpy() the constant parts of the header information into
 118:D:/Work/DeviceTester/amazon-freertos/lib/FreeRTOS-Plus-TCP/source\FreeRTOS_UDP_IP.c **** 			the	correct location within the packet.  This fills in:
 119:D:/Work/DeviceTester/amazon-freertos/lib/FreeRTOS-Plus-TCP/source\FreeRTOS_UDP_IP.c **** 				xEthernetHeader.xSourceAddress
 120:D:/Work/DeviceTester/amazon-freertos/lib/FreeRTOS-Plus-TCP/source\FreeRTOS_UDP_IP.c **** 				xEthernetHeader.usFrameType
 121:D:/Work/DeviceTester/amazon-freertos/lib/FreeRTOS-Plus-TCP/source\FreeRTOS_UDP_IP.c **** 				xIPHeader.ucVersionHeaderLength
 122:D:/Work/DeviceTester/amazon-freertos/lib/FreeRTOS-Plus-TCP/source\FreeRTOS_UDP_IP.c **** 				xIPHeader.ucDifferentiatedServicesCode
 123:D:/Work/DeviceTester/amazon-freertos/lib/FreeRTOS-Plus-TCP/source\FreeRTOS_UDP_IP.c **** 				xIPHeader.usLength
 124:D:/Work/DeviceTester/amazon-freertos/lib/FreeRTOS-Plus-TCP/source\FreeRTOS_UDP_IP.c **** 				xIPHeader.usIdentification
 125:D:/Work/DeviceTester/amazon-freertos/lib/FreeRTOS-Plus-TCP/source\FreeRTOS_UDP_IP.c **** 				xIPHeader.usFragmentOffset
 126:D:/Work/DeviceTester/amazon-freertos/lib/FreeRTOS-Plus-TCP/source\FreeRTOS_UDP_IP.c **** 				xIPHeader.ucTimeToLive
 127:D:/Work/DeviceTester/amazon-freertos/lib/FreeRTOS-Plus-TCP/source\FreeRTOS_UDP_IP.c **** 				xIPHeader.ucProtocol
 128:D:/Work/DeviceTester/amazon-freertos/lib/FreeRTOS-Plus-TCP/source\FreeRTOS_UDP_IP.c **** 			and
 129:D:/Work/DeviceTester/amazon-freertos/lib/FreeRTOS-Plus-TCP/source\FreeRTOS_UDP_IP.c **** 				xIPHeader.usHeaderChecksum
 130:D:/Work/DeviceTester/amazon-freertos/lib/FreeRTOS-Plus-TCP/source\FreeRTOS_UDP_IP.c **** 			*/
 131:D:/Work/DeviceTester/amazon-freertos/lib/FreeRTOS-Plus-TCP/source\FreeRTOS_UDP_IP.c **** 			/* Save options now, as they will be overwritten by memcpy */
 132:D:/Work/DeviceTester/amazon-freertos/lib/FreeRTOS-Plus-TCP/source\FreeRTOS_UDP_IP.c **** 			#if( ipconfigDRIVER_INCLUDED_TX_IP_CHECKSUM == 0 )
 133:D:/Work/DeviceTester/amazon-freertos/lib/FreeRTOS-Plus-TCP/source\FreeRTOS_UDP_IP.c **** 				ucSocketOptions = pxNetworkBuffer->pucEthernetBuffer[ ipSOCKET_OPTIONS_OFFSET ];
 134:D:/Work/DeviceTester/amazon-freertos/lib/FreeRTOS-Plus-TCP/source\FreeRTOS_UDP_IP.c **** 			#endif
 135:D:/Work/DeviceTester/amazon-freertos/lib/FreeRTOS-Plus-TCP/source\FreeRTOS_UDP_IP.c **** 			/*
 136:D:/Work/DeviceTester/amazon-freertos/lib/FreeRTOS-Plus-TCP/source\FreeRTOS_UDP_IP.c **** 			 * Offset the memcpy by the size of a MAC address to start at the packet's
 137:D:/Work/DeviceTester/amazon-freertos/lib/FreeRTOS-Plus-TCP/source\FreeRTOS_UDP_IP.c **** 			 * Ethernet header 'source' MAC address; the preceding 'destination' should not be altered.
 138:D:/Work/DeviceTester/amazon-freertos/lib/FreeRTOS-Plus-TCP/source\FreeRTOS_UDP_IP.c **** 			 */
 139:D:/Work/DeviceTester/amazon-freertos/lib/FreeRTOS-Plus-TCP/source\FreeRTOS_UDP_IP.c **** 			char *pxUdpSrcAddrOffset = ( char *) pxUDPPacket + sizeof( MACAddress_t );
 140:D:/Work/DeviceTester/amazon-freertos/lib/FreeRTOS-Plus-TCP/source\FreeRTOS_UDP_IP.c **** 			memcpy( pxUdpSrcAddrOffset, xDefaultPartUDPPacketHeader.ucBytes, sizeof( xDefaultPartUDPPacketHe
  68              		.loc 1 140 0
  69 003c 1820A0E3 		mov	r2, #24
  70 0040 28119FE5 		ldr	r1, .L11
  71 0044 060084E2 		add	r0, r4, #6
  72              	.LVL5:
  73              	.LBB4:
 110:D:/Work/DeviceTester/amazon-freertos/lib/FreeRTOS-Plus-TCP/source\FreeRTOS_UDP_IP.c **** 				pxUDPHeader->usSourcePort = pxNetworkBuffer->usBoundPort;
  74              		.loc 1 110 0
  75 0048 2430C4E5 		strb	r3, [r4, #36]
  76 004c 2130D5E5 		ldrb	r3, [r5, #33]	@ zero_extendqisi2
  77 0050 2530C4E5 		strb	r3, [r4, #37]
 111:D:/Work/DeviceTester/amazon-freertos/lib/FreeRTOS-Plus-TCP/source\FreeRTOS_UDP_IP.c **** 				pxUDPHeader->usSourcePort = pxNetworkBuffer->usBoundPort;
  78              		.loc 1 111 0
  79 0054 2230D5E5 		ldrb	r3, [r5, #34]	@ zero_extendqisi2
  80 0058 2230C4E5 		strb	r3, [r4, #34]
  81 005c 2330D5E5 		ldrb	r3, [r5, #35]	@ zero_extendqisi2
  82 0060 2330C4E5 		strb	r3, [r4, #35]
 112:D:/Work/DeviceTester/amazon-freertos/lib/FreeRTOS-Plus-TCP/source\FreeRTOS_UDP_IP.c **** 				pxUDPHeader->usLength = FreeRTOS_htons( pxUDPHeader->usLength );
  83              		.loc 1 112 0
  84 0064 1C3095E5 		ldr	r3, [r5, #28]
 114:D:/Work/DeviceTester/amazon-freertos/lib/FreeRTOS-Plus-TCP/source\FreeRTOS_UDP_IP.c **** 			}
  85              		.loc 1 114 0
  86 0068 2870C4E5 		strb	r7, [r4, #40]
  87 006c 2970C4E5 		strb	r7, [r4, #41]
 112:D:/Work/DeviceTester/amazon-freertos/lib/FreeRTOS-Plus-TCP/source\FreeRTOS_UDP_IP.c **** 				pxUDPHeader->usLength = FreeRTOS_htons( pxUDPHeader->usLength );
  88              		.loc 1 112 0
  89 0070 083083E2 		add	r3, r3, #8
 113:D:/Work/DeviceTester/amazon-freertos/lib/FreeRTOS-Plus-TCP/source\FreeRTOS_UDP_IP.c **** 				pxUDPHeader->usChecksum = 0u;
  90              		.loc 1 113 0
  91 0074 B33FBFE6 		rev16	r3, r3
  92 0078 7330FFE6 		uxth	r3, r3
  93 007c 2630C4E5 		strb	r3, [r4, #38]
  94 0080 2334A0E1 		lsr	r3, r3, #8
  95 0084 2730C4E5 		strb	r3, [r4, #39]
  96              	.LBE4:
 133:D:/Work/DeviceTester/amazon-freertos/lib/FreeRTOS-Plus-TCP/source\FreeRTOS_UDP_IP.c **** 			#endif
  97              		.loc 1 133 0
  98 0088 183095E5 		ldr	r3, [r5, #24]
  99 008c 0660D3E5 		ldrb	r6, [r3, #6]	@ zero_extendqisi2
 100              	.LVL6:
 101              		.loc 1 140 0
 102 0090 FEFFFFEB 		bl	memcpy
 103              	.LVL7:
 141:D:/Work/DeviceTester/amazon-freertos/lib/FreeRTOS-Plus-TCP/source\FreeRTOS_UDP_IP.c **** 
 142:D:/Work/DeviceTester/amazon-freertos/lib/FreeRTOS-Plus-TCP/source\FreeRTOS_UDP_IP.c **** 		#if ipconfigSUPPORT_OUTGOING_PINGS == 1
 143:D:/Work/DeviceTester/amazon-freertos/lib/FreeRTOS-Plus-TCP/source\FreeRTOS_UDP_IP.c **** 			if( pxNetworkBuffer->usPort == ipPACKET_CONTAINS_ICMP_DATA )
 144:D:/Work/DeviceTester/amazon-freertos/lib/FreeRTOS-Plus-TCP/source\FreeRTOS_UDP_IP.c **** 			{
 145:D:/Work/DeviceTester/amazon-freertos/lib/FreeRTOS-Plus-TCP/source\FreeRTOS_UDP_IP.c **** 				pxIPHeader->ucProtocol = ipPROTOCOL_ICMP;
 146:D:/Work/DeviceTester/amazon-freertos/lib/FreeRTOS-Plus-TCP/source\FreeRTOS_UDP_IP.c **** 				pxIPHeader->usLength = ( uint16_t ) ( pxNetworkBuffer->xDataLength + sizeof( IPHeader_t ) );
 147:D:/Work/DeviceTester/amazon-freertos/lib/FreeRTOS-Plus-TCP/source\FreeRTOS_UDP_IP.c **** 			}
 148:D:/Work/DeviceTester/amazon-freertos/lib/FreeRTOS-Plus-TCP/source\FreeRTOS_UDP_IP.c **** 			else
 149:D:/Work/DeviceTester/amazon-freertos/lib/FreeRTOS-Plus-TCP/source\FreeRTOS_UDP_IP.c **** 		#endif /* ipconfigSUPPORT_OUTGOING_PINGS */
 150:D:/Work/DeviceTester/amazon-freertos/lib/FreeRTOS-Plus-TCP/source\FreeRTOS_UDP_IP.c **** 			{
 151:D:/Work/DeviceTester/amazon-freertos/lib/FreeRTOS-Plus-TCP/source\FreeRTOS_UDP_IP.c **** 				pxIPHeader->usLength = ( uint16_t ) ( pxNetworkBuffer->xDataLength + sizeof( IPHeader_t ) + siz
 104              		.loc 1 151 0
 105 0094 1C3095E5 		ldr	r3, [r5, #28]
 152:D:/Work/DeviceTester/amazon-freertos/lib/FreeRTOS-Plus-TCP/source\FreeRTOS_UDP_IP.c **** 			}
 153:D:/Work/DeviceTester/amazon-freertos/lib/FreeRTOS-Plus-TCP/source\FreeRTOS_UDP_IP.c **** 
 154:D:/Work/DeviceTester/amazon-freertos/lib/FreeRTOS-Plus-TCP/source\FreeRTOS_UDP_IP.c **** 			/* The total transmit size adds on the Ethernet header. */
 155:D:/Work/DeviceTester/amazon-freertos/lib/FreeRTOS-Plus-TCP/source\FreeRTOS_UDP_IP.c **** 			pxNetworkBuffer->xDataLength = pxIPHeader->usLength + sizeof( EthernetHeader_t );
 156:D:/Work/DeviceTester/amazon-freertos/lib/FreeRTOS-Plus-TCP/source\FreeRTOS_UDP_IP.c **** 			pxIPHeader->usLength = FreeRTOS_htons( pxIPHeader->usLength );
 157:D:/Work/DeviceTester/amazon-freertos/lib/FreeRTOS-Plus-TCP/source\FreeRTOS_UDP_IP.c **** 			/* HT:endian: changed back to network endian */
 158:D:/Work/DeviceTester/amazon-freertos/lib/FreeRTOS-Plus-TCP/source\FreeRTOS_UDP_IP.c **** 			pxIPHeader->ulDestinationIPAddress = pxNetworkBuffer->ulIPAddress;
 159:D:/Work/DeviceTester/amazon-freertos/lib/FreeRTOS-Plus-TCP/source\FreeRTOS_UDP_IP.c **** 
 160:D:/Work/DeviceTester/amazon-freertos/lib/FreeRTOS-Plus-TCP/source\FreeRTOS_UDP_IP.c **** 			#if( ipconfigUSE_LLMNR == 1 )
 161:D:/Work/DeviceTester/amazon-freertos/lib/FreeRTOS-Plus-TCP/source\FreeRTOS_UDP_IP.c **** 			{
 162:D:/Work/DeviceTester/amazon-freertos/lib/FreeRTOS-Plus-TCP/source\FreeRTOS_UDP_IP.c **** 				/* LLMNR messages are typically used on a LAN and they're
 163:D:/Work/DeviceTester/amazon-freertos/lib/FreeRTOS-Plus-TCP/source\FreeRTOS_UDP_IP.c **** 				 * not supposed to cross routers */
 164:D:/Work/DeviceTester/amazon-freertos/lib/FreeRTOS-Plus-TCP/source\FreeRTOS_UDP_IP.c **** 				if( pxNetworkBuffer->ulIPAddress == ipLLMNR_IP_ADDR )
 165:D:/Work/DeviceTester/amazon-freertos/lib/FreeRTOS-Plus-TCP/source\FreeRTOS_UDP_IP.c **** 				{
 166:D:/Work/DeviceTester/amazon-freertos/lib/FreeRTOS-Plus-TCP/source\FreeRTOS_UDP_IP.c **** 					pxIPHeader->ucTimeToLive = 0x01;
 167:D:/Work/DeviceTester/amazon-freertos/lib/FreeRTOS-Plus-TCP/source\FreeRTOS_UDP_IP.c **** 				}
 168:D:/Work/DeviceTester/amazon-freertos/lib/FreeRTOS-Plus-TCP/source\FreeRTOS_UDP_IP.c **** 			}
 169:D:/Work/DeviceTester/amazon-freertos/lib/FreeRTOS-Plus-TCP/source\FreeRTOS_UDP_IP.c **** 			#endif
 170:D:/Work/DeviceTester/amazon-freertos/lib/FreeRTOS-Plus-TCP/source\FreeRTOS_UDP_IP.c **** 
 171:D:/Work/DeviceTester/amazon-freertos/lib/FreeRTOS-Plus-TCP/source\FreeRTOS_UDP_IP.c **** 			#if( ipconfigDRIVER_INCLUDED_TX_IP_CHECKSUM == 0 )
 172:D:/Work/DeviceTester/amazon-freertos/lib/FreeRTOS-Plus-TCP/source\FreeRTOS_UDP_IP.c **** 			{
 173:D:/Work/DeviceTester/amazon-freertos/lib/FreeRTOS-Plus-TCP/source\FreeRTOS_UDP_IP.c **** 				pxIPHeader->usHeaderChecksum = 0u;
 174:D:/Work/DeviceTester/amazon-freertos/lib/FreeRTOS-Plus-TCP/source\FreeRTOS_UDP_IP.c **** 				pxIPHeader->usHeaderChecksum = usGenerateChecksum( 0UL, ( uint8_t * ) &( pxIPHeader->ucVersionH
 106              		.loc 1 174 0
 107 0098 0E1084E2 		add	r1, r4, #14
 108              	.LVL8:
 109 009c 0700A0E1 		mov	r0, r7
 151:D:/Work/DeviceTester/amazon-freertos/lib/FreeRTOS-Plus-TCP/source\FreeRTOS_UDP_IP.c **** 			}
 110              		.loc 1 151 0
 111 00a0 1C3083E2 		add	r3, r3, #28
 112 00a4 7330FFE6 		uxth	r3, r3
 155:D:/Work/DeviceTester/amazon-freertos/lib/FreeRTOS-Plus-TCP/source\FreeRTOS_UDP_IP.c **** 			pxIPHeader->usLength = FreeRTOS_htons( pxIPHeader->usLength );
 113              		.loc 1 155 0
 114 00a8 0E2083E2 		add	r2, r3, #14
 156:D:/Work/DeviceTester/amazon-freertos/lib/FreeRTOS-Plus-TCP/source\FreeRTOS_UDP_IP.c **** 			/* HT:endian: changed back to network endian */
 115              		.loc 1 156 0
 116 00ac B33FBFE6 		rev16	r3, r3
 117 00b0 7330FFE6 		uxth	r3, r3
 155:D:/Work/DeviceTester/amazon-freertos/lib/FreeRTOS-Plus-TCP/source\FreeRTOS_UDP_IP.c **** 			pxIPHeader->usLength = FreeRTOS_htons( pxIPHeader->usLength );
 118              		.loc 1 155 0
 119 00b4 1C2085E5 		str	r2, [r5, #28]
 120              		.loc 1 174 0
 121 00b8 1420A0E3 		mov	r2, #20
 156:D:/Work/DeviceTester/amazon-freertos/lib/FreeRTOS-Plus-TCP/source\FreeRTOS_UDP_IP.c **** 			/* HT:endian: changed back to network endian */
 122              		.loc 1 156 0
 123 00bc 1030C4E5 		strb	r3, [r4, #16]
 124 00c0 2334A0E1 		lsr	r3, r3, #8
 125 00c4 1130C4E5 		strb	r3, [r4, #17]
 158:D:/Work/DeviceTester/amazon-freertos/lib/FreeRTOS-Plus-TCP/source\FreeRTOS_UDP_IP.c **** 
 126              		.loc 1 158 0
 127 00c8 1430D5E5 		ldrb	r3, [r5, #20]	@ zero_extendqisi2
 128 00cc 1E30C4E5 		strb	r3, [r4, #30]
 129 00d0 1530D5E5 		ldrb	r3, [r5, #21]	@ zero_extendqisi2
 130 00d4 1F30C4E5 		strb	r3, [r4, #31]
 131 00d8 1630D5E5 		ldrb	r3, [r5, #22]	@ zero_extendqisi2
 132 00dc 2030C4E5 		strb	r3, [r4, #32]
 133 00e0 1730D5E5 		ldrb	r3, [r5, #23]	@ zero_extendqisi2
 173:D:/Work/DeviceTester/amazon-freertos/lib/FreeRTOS-Plus-TCP/source\FreeRTOS_UDP_IP.c **** 				pxIPHeader->usHeaderChecksum = usGenerateChecksum( 0UL, ( uint8_t * ) &( pxIPHeader->ucVersionH
 134              		.loc 1 173 0
 135 00e4 1870C4E5 		strb	r7, [r4, #24]
 136 00e8 1970C4E5 		strb	r7, [r4, #25]
 158:D:/Work/DeviceTester/amazon-freertos/lib/FreeRTOS-Plus-TCP/source\FreeRTOS_UDP_IP.c **** 
 137              		.loc 1 158 0
 138 00ec 2130C4E5 		strb	r3, [r4, #33]
 139              		.loc 1 174 0
 140 00f0 FEFFFFEB 		bl	usGenerateChecksum
 141              	.LVL9:
 175:D:/Work/DeviceTester/amazon-freertos/lib/FreeRTOS-Plus-TCP/source\FreeRTOS_UDP_IP.c **** 				pxIPHeader->usHeaderChecksum = ~FreeRTOS_htons( pxIPHeader->usHeaderChecksum );
 142              		.loc 1 175 0
 143 00f4 B00FBFE6 		rev16	r0, r0
 176:D:/Work/DeviceTester/amazon-freertos/lib/FreeRTOS-Plus-TCP/source\FreeRTOS_UDP_IP.c **** 
 177:D:/Work/DeviceTester/amazon-freertos/lib/FreeRTOS-Plus-TCP/source\FreeRTOS_UDP_IP.c **** 				if( ( ucSocketOptions & ( uint8_t ) FREERTOS_SO_UDPCKSUM_OUT ) != 0u )
 144              		.loc 1 177 0
 145 00f8 026016E2 		ands	r6, r6, #2
 146              	.LVL10:
 175:D:/Work/DeviceTester/amazon-freertos/lib/FreeRTOS-Plus-TCP/source\FreeRTOS_UDP_IP.c **** 				pxIPHeader->usHeaderChecksum = ~FreeRTOS_htons( pxIPHeader->usHeaderChecksum );
 147              		.loc 1 175 0
 148 00fc 0000E0E1 		mvn	r0, r0
 178:D:/Work/DeviceTester/amazon-freertos/lib/FreeRTOS-Plus-TCP/source\FreeRTOS_UDP_IP.c **** 				{
 179:D:/Work/DeviceTester/amazon-freertos/lib/FreeRTOS-Plus-TCP/source\FreeRTOS_UDP_IP.c **** 					usGenerateProtocolChecksum( (uint8_t*)pxUDPPacket, pxNetworkBuffer->xDataLength, pdTRUE );
 180:D:/Work/DeviceTester/amazon-freertos/lib/FreeRTOS-Plus-TCP/source\FreeRTOS_UDP_IP.c **** 				}
 181:D:/Work/DeviceTester/amazon-freertos/lib/FreeRTOS-Plus-TCP/source\FreeRTOS_UDP_IP.c **** 				else
 182:D:/Work/DeviceTester/amazon-freertos/lib/FreeRTOS-Plus-TCP/source\FreeRTOS_UDP_IP.c **** 				{
 183:D:/Work/DeviceTester/amazon-freertos/lib/FreeRTOS-Plus-TCP/source\FreeRTOS_UDP_IP.c **** 					pxUDPPacket->xUDPHeader.usChecksum = 0u;
 149              		.loc 1 183 0
 150 0100 2860C405 		strbeq	r6, [r4, #40]
 175:D:/Work/DeviceTester/amazon-freertos/lib/FreeRTOS-Plus-TCP/source\FreeRTOS_UDP_IP.c **** 
 151              		.loc 1 175 0
 152 0104 7000FFE6 		uxth	r0, r0
 153              		.loc 1 183 0
 154 0108 2960C405 		strbeq	r6, [r4, #41]
 175:D:/Work/DeviceTester/amazon-freertos/lib/FreeRTOS-Plus-TCP/source\FreeRTOS_UDP_IP.c **** 
 155              		.loc 1 175 0
 156 010c 1800C4E5 		strb	r0, [r4, #24]
 157 0110 2004A0E1 		lsr	r0, r0, #8
 158 0114 1900C4E5 		strb	r0, [r4, #25]
 177:D:/Work/DeviceTester/amazon-freertos/lib/FreeRTOS-Plus-TCP/source\FreeRTOS_UDP_IP.c **** 				{
 159              		.loc 1 177 0
 160 0118 0300000A 		beq	.L5
 179:D:/Work/DeviceTester/amazon-freertos/lib/FreeRTOS-Plus-TCP/source\FreeRTOS_UDP_IP.c **** 				}
 161              		.loc 1 179 0
 162 011c 0820A0E1 		mov	r2, r8
 163 0120 1C1095E5 		ldr	r1, [r5, #28]
 164 0124 0400A0E1 		mov	r0, r4
 165 0128 FEFFFFEB 		bl	usGenerateProtocolChecksum
 166              	.LVL11:
 167              	.L5:
 168              	.LBE2:
 184:D:/Work/DeviceTester/amazon-freertos/lib/FreeRTOS-Plus-TCP/source\FreeRTOS_UDP_IP.c **** 				}
 185:D:/Work/DeviceTester/amazon-freertos/lib/FreeRTOS-Plus-TCP/source\FreeRTOS_UDP_IP.c **** 			}
 186:D:/Work/DeviceTester/amazon-freertos/lib/FreeRTOS-Plus-TCP/source\FreeRTOS_UDP_IP.c **** 			#endif
 187:D:/Work/DeviceTester/amazon-freertos/lib/FreeRTOS-Plus-TCP/source\FreeRTOS_UDP_IP.c **** 		}
 188:D:/Work/DeviceTester/amazon-freertos/lib/FreeRTOS-Plus-TCP/source\FreeRTOS_UDP_IP.c **** 		else if( eReturned == eARPCacheMiss )
 189:D:/Work/DeviceTester/amazon-freertos/lib/FreeRTOS-Plus-TCP/source\FreeRTOS_UDP_IP.c **** 		{
 190:D:/Work/DeviceTester/amazon-freertos/lib/FreeRTOS-Plus-TCP/source\FreeRTOS_UDP_IP.c **** 			/* Add an entry to the ARP table with a null hardware address.
 191:D:/Work/DeviceTester/amazon-freertos/lib/FreeRTOS-Plus-TCP/source\FreeRTOS_UDP_IP.c **** 			This allows the ARP timer to know that an ARP reply is
 192:D:/Work/DeviceTester/amazon-freertos/lib/FreeRTOS-Plus-TCP/source\FreeRTOS_UDP_IP.c **** 			outstanding, and perform retransmissions if necessary. */
 193:D:/Work/DeviceTester/amazon-freertos/lib/FreeRTOS-Plus-TCP/source\FreeRTOS_UDP_IP.c **** 			vARPRefreshCacheEntry( NULL, ulIPAddress );
 194:D:/Work/DeviceTester/amazon-freertos/lib/FreeRTOS-Plus-TCP/source\FreeRTOS_UDP_IP.c **** 
 195:D:/Work/DeviceTester/amazon-freertos/lib/FreeRTOS-Plus-TCP/source\FreeRTOS_UDP_IP.c **** 			/* Generate an ARP for the required IP address. */
 196:D:/Work/DeviceTester/amazon-freertos/lib/FreeRTOS-Plus-TCP/source\FreeRTOS_UDP_IP.c **** 			iptracePACKET_DROPPED_TO_GENERATE_ARP( pxNetworkBuffer->ulIPAddress );
 197:D:/Work/DeviceTester/amazon-freertos/lib/FreeRTOS-Plus-TCP/source\FreeRTOS_UDP_IP.c **** 			pxNetworkBuffer->ulIPAddress = ulIPAddress;
 198:D:/Work/DeviceTester/amazon-freertos/lib/FreeRTOS-Plus-TCP/source\FreeRTOS_UDP_IP.c **** 			vARPGenerateRequestPacket( pxNetworkBuffer );
 199:D:/Work/DeviceTester/amazon-freertos/lib/FreeRTOS-Plus-TCP/source\FreeRTOS_UDP_IP.c **** 		}
 200:D:/Work/DeviceTester/amazon-freertos/lib/FreeRTOS-Plus-TCP/source\FreeRTOS_UDP_IP.c **** 		else
 201:D:/Work/DeviceTester/amazon-freertos/lib/FreeRTOS-Plus-TCP/source\FreeRTOS_UDP_IP.c **** 		{
 202:D:/Work/DeviceTester/amazon-freertos/lib/FreeRTOS-Plus-TCP/source\FreeRTOS_UDP_IP.c **** 			/* The lookup indicated that an ARP request has already been
 203:D:/Work/DeviceTester/amazon-freertos/lib/FreeRTOS-Plus-TCP/source\FreeRTOS_UDP_IP.c **** 			sent out for the queried IP address. */
 204:D:/Work/DeviceTester/amazon-freertos/lib/FreeRTOS-Plus-TCP/source\FreeRTOS_UDP_IP.c **** 			eReturned = eCantSendPacket;
 205:D:/Work/DeviceTester/amazon-freertos/lib/FreeRTOS-Plus-TCP/source\FreeRTOS_UDP_IP.c **** 		}
 206:D:/Work/DeviceTester/amazon-freertos/lib/FreeRTOS-Plus-TCP/source\FreeRTOS_UDP_IP.c **** 	}
 207:D:/Work/DeviceTester/amazon-freertos/lib/FreeRTOS-Plus-TCP/source\FreeRTOS_UDP_IP.c **** 
 208:D:/Work/DeviceTester/amazon-freertos/lib/FreeRTOS-Plus-TCP/source\FreeRTOS_UDP_IP.c **** 	if( eReturned != eCantSendPacket )
 209:D:/Work/DeviceTester/amazon-freertos/lib/FreeRTOS-Plus-TCP/source\FreeRTOS_UDP_IP.c **** 	{
 210:D:/Work/DeviceTester/amazon-freertos/lib/FreeRTOS-Plus-TCP/source\FreeRTOS_UDP_IP.c **** 		/* The network driver is responsible for freeing the network buffer
 211:D:/Work/DeviceTester/amazon-freertos/lib/FreeRTOS-Plus-TCP/source\FreeRTOS_UDP_IP.c **** 		after the packet has been sent. */
 212:D:/Work/DeviceTester/amazon-freertos/lib/FreeRTOS-Plus-TCP/source\FreeRTOS_UDP_IP.c **** 
 213:D:/Work/DeviceTester/amazon-freertos/lib/FreeRTOS-Plus-TCP/source\FreeRTOS_UDP_IP.c **** 		#if defined( ipconfigETHERNET_MINIMUM_PACKET_BYTES )
 214:D:/Work/DeviceTester/amazon-freertos/lib/FreeRTOS-Plus-TCP/source\FreeRTOS_UDP_IP.c **** 		{
 215:D:/Work/DeviceTester/amazon-freertos/lib/FreeRTOS-Plus-TCP/source\FreeRTOS_UDP_IP.c **** 			if( pxNetworkBuffer->xDataLength < ( size_t ) ipconfigETHERNET_MINIMUM_PACKET_BYTES )
 216:D:/Work/DeviceTester/amazon-freertos/lib/FreeRTOS-Plus-TCP/source\FreeRTOS_UDP_IP.c **** 			{
 217:D:/Work/DeviceTester/amazon-freertos/lib/FreeRTOS-Plus-TCP/source\FreeRTOS_UDP_IP.c **** 			BaseType_t xIndex;
 218:D:/Work/DeviceTester/amazon-freertos/lib/FreeRTOS-Plus-TCP/source\FreeRTOS_UDP_IP.c **** 
 219:D:/Work/DeviceTester/amazon-freertos/lib/FreeRTOS-Plus-TCP/source\FreeRTOS_UDP_IP.c **** 				for( xIndex = ( BaseType_t ) pxNetworkBuffer->xDataLength; xIndex < ( BaseType_t ) ipconfigETHE
 220:D:/Work/DeviceTester/amazon-freertos/lib/FreeRTOS-Plus-TCP/source\FreeRTOS_UDP_IP.c **** 				{
 221:D:/Work/DeviceTester/amazon-freertos/lib/FreeRTOS-Plus-TCP/source\FreeRTOS_UDP_IP.c **** 					pxNetworkBuffer->pucEthernetBuffer[ xIndex ] = 0u;
 222:D:/Work/DeviceTester/amazon-freertos/lib/FreeRTOS-Plus-TCP/source\FreeRTOS_UDP_IP.c **** 				}
 223:D:/Work/DeviceTester/amazon-freertos/lib/FreeRTOS-Plus-TCP/source\FreeRTOS_UDP_IP.c **** 				pxNetworkBuffer->xDataLength = ( size_t ) ipconfigETHERNET_MINIMUM_PACKET_BYTES;
 224:D:/Work/DeviceTester/amazon-freertos/lib/FreeRTOS-Plus-TCP/source\FreeRTOS_UDP_IP.c **** 			}
 225:D:/Work/DeviceTester/amazon-freertos/lib/FreeRTOS-Plus-TCP/source\FreeRTOS_UDP_IP.c **** 		}
 226:D:/Work/DeviceTester/amazon-freertos/lib/FreeRTOS-Plus-TCP/source\FreeRTOS_UDP_IP.c **** 		#endif
 227:D:/Work/DeviceTester/amazon-freertos/lib/FreeRTOS-Plus-TCP/source\FreeRTOS_UDP_IP.c **** 
 228:D:/Work/DeviceTester/amazon-freertos/lib/FreeRTOS-Plus-TCP/source\FreeRTOS_UDP_IP.c **** 		xNetworkInterfaceOutput( pxNetworkBuffer, pdTRUE );
 169              		.loc 1 228 0
 170 012c 0110A0E3 		mov	r1, #1
 171 0130 0500A0E1 		mov	r0, r5
 172 0134 FEFFFFEB 		bl	xNetworkInterfaceOutput
 173              	.LVL12:
 174              	.L1:
 229:D:/Work/DeviceTester/amazon-freertos/lib/FreeRTOS-Plus-TCP/source\FreeRTOS_UDP_IP.c **** 	}
 230:D:/Work/DeviceTester/amazon-freertos/lib/FreeRTOS-Plus-TCP/source\FreeRTOS_UDP_IP.c **** 	else
 231:D:/Work/DeviceTester/amazon-freertos/lib/FreeRTOS-Plus-TCP/source\FreeRTOS_UDP_IP.c **** 	{
 232:D:/Work/DeviceTester/amazon-freertos/lib/FreeRTOS-Plus-TCP/source\FreeRTOS_UDP_IP.c **** 		/* The packet can't be sent (DHCP not completed?).  Just drop the
 233:D:/Work/DeviceTester/amazon-freertos/lib/FreeRTOS-Plus-TCP/source\FreeRTOS_UDP_IP.c **** 		packet. */
 234:D:/Work/DeviceTester/amazon-freertos/lib/FreeRTOS-Plus-TCP/source\FreeRTOS_UDP_IP.c **** 		vReleaseNetworkBufferAndDescriptor( pxNetworkBuffer );
 235:D:/Work/DeviceTester/amazon-freertos/lib/FreeRTOS-Plus-TCP/source\FreeRTOS_UDP_IP.c **** 	}
 236:D:/Work/DeviceTester/amazon-freertos/lib/FreeRTOS-Plus-TCP/source\FreeRTOS_UDP_IP.c **** }
 175              		.loc 1 236 0
 176 0138 08D08DE2 		add	sp, sp, #8
 177              		.cfi_remember_state
 178              		.cfi_def_cfa_offset 24
 179              		@ sp needed
 180 013c F081BDE8 		pop	{r4, r5, r6, r7, r8, pc}
 181              	.LVL13:
 182              	.L3:
 183              		.cfi_restore_state
 188:D:/Work/DeviceTester/amazon-freertos/lib/FreeRTOS-Plus-TCP/source\FreeRTOS_UDP_IP.c **** 		{
 184              		.loc 1 188 0
 185 0140 000050E3 		cmp	r0, #0
 186 0144 0600001A 		bne	.L2
 193:D:/Work/DeviceTester/amazon-freertos/lib/FreeRTOS-Plus-TCP/source\FreeRTOS_UDP_IP.c **** 
 187              		.loc 1 193 0
 188 0148 04109DE5 		ldr	r1, [sp, #4]
 189 014c FEFFFFEB 		bl	vARPRefreshCacheEntry
 190              	.LVL14:
 197:D:/Work/DeviceTester/amazon-freertos/lib/FreeRTOS-Plus-TCP/source\FreeRTOS_UDP_IP.c **** 			vARPGenerateRequestPacket( pxNetworkBuffer );
 191              		.loc 1 197 0
 192 0150 04309DE5 		ldr	r3, [sp, #4]
 198:D:/Work/DeviceTester/amazon-freertos/lib/FreeRTOS-Plus-TCP/source\FreeRTOS_UDP_IP.c **** 		}
 193              		.loc 1 198 0
 194 0154 0500A0E1 		mov	r0, r5
 197:D:/Work/DeviceTester/amazon-freertos/lib/FreeRTOS-Plus-TCP/source\FreeRTOS_UDP_IP.c **** 			vARPGenerateRequestPacket( pxNetworkBuffer );
 195              		.loc 1 197 0
 196 0158 143085E5 		str	r3, [r5, #20]
 198:D:/Work/DeviceTester/amazon-freertos/lib/FreeRTOS-Plus-TCP/source\FreeRTOS_UDP_IP.c **** 		}
 197              		.loc 1 198 0
 198 015c FEFFFFEB 		bl	vARPGenerateRequestPacket
 199              	.LVL15:
 200 0160 F1FFFFEA 		b	.L5
 201              	.LVL16:
 202              	.L2:
 234:D:/Work/DeviceTester/amazon-freertos/lib/FreeRTOS-Plus-TCP/source\FreeRTOS_UDP_IP.c **** 	}
 203              		.loc 1 234 0
 204 0164 0500A0E1 		mov	r0, r5
 205 0168 FEFFFFEB 		bl	vReleaseNetworkBufferAndDescriptor
 206              	.LVL17:
 207 016c F1FFFFEA 		b	.L1
 208              	.L12:
 209              		.align	2
 210              	.L11:
 211 0170 00000000 		.word	.LANCHOR0
 212              		.cfi_endproc
 213              	.LFE25:
 215              		.section	.text.xProcessReceivedUDPPacket,"ax",%progbits
 216              		.align	2
 217              		.global	xProcessReceivedUDPPacket
 218              		.syntax unified
 219              		.arm
 220              		.fpu neon
 222              	xProcessReceivedUDPPacket:
 223              	.LFB26:
 237:D:/Work/DeviceTester/amazon-freertos/lib/FreeRTOS-Plus-TCP/source\FreeRTOS_UDP_IP.c **** /*-----------------------------------------------------------*/
 238:D:/Work/DeviceTester/amazon-freertos/lib/FreeRTOS-Plus-TCP/source\FreeRTOS_UDP_IP.c **** 
 239:D:/Work/DeviceTester/amazon-freertos/lib/FreeRTOS-Plus-TCP/source\FreeRTOS_UDP_IP.c **** BaseType_t xProcessReceivedUDPPacket( NetworkBufferDescriptor_t *pxNetworkBuffer, uint16_t usPort )
 240:D:/Work/DeviceTester/amazon-freertos/lib/FreeRTOS-Plus-TCP/source\FreeRTOS_UDP_IP.c **** {
 224              		.loc 1 240 0
 225              		.cfi_startproc
 226              		@ args = 0, pretend = 0, frame = 0
 227              		@ frame_needed = 0, uses_anonymous_args = 0
 228              	.LVL18:
 229 0000 70402DE9 		push	{r4, r5, r6, lr}
 230              		.cfi_def_cfa_offset 16
 231              		.cfi_offset 4, -16
 232              		.cfi_offset 5, -12
 233              		.cfi_offset 6, -8
 234              		.cfi_offset 14, -4
 235              		.loc 1 240 0
 236 0004 0060A0E1 		mov	r6, r0
 241:D:/Work/DeviceTester/amazon-freertos/lib/FreeRTOS-Plus-TCP/source\FreeRTOS_UDP_IP.c **** BaseType_t xReturn = pdPASS;
 242:D:/Work/DeviceTester/amazon-freertos/lib/FreeRTOS-Plus-TCP/source\FreeRTOS_UDP_IP.c **** FreeRTOS_Socket_t *pxSocket;
 243:D:/Work/DeviceTester/amazon-freertos/lib/FreeRTOS-Plus-TCP/source\FreeRTOS_UDP_IP.c **** 
 244:D:/Work/DeviceTester/amazon-freertos/lib/FreeRTOS-Plus-TCP/source\FreeRTOS_UDP_IP.c **** UDPPacket_t *pxUDPPacket = (UDPPacket_t *) pxNetworkBuffer->pucEthernetBuffer;
 237              		.loc 1 244 0
 238 0008 185090E5 		ldr	r5, [r0, #24]
 239              	.LVL19:
 245:D:/Work/DeviceTester/amazon-freertos/lib/FreeRTOS-Plus-TCP/source\FreeRTOS_UDP_IP.c **** 
 246:D:/Work/DeviceTester/amazon-freertos/lib/FreeRTOS-Plus-TCP/source\FreeRTOS_UDP_IP.c **** 	/* Caller must check for minimum packet size. */
 247:D:/Work/DeviceTester/amazon-freertos/lib/FreeRTOS-Plus-TCP/source\FreeRTOS_UDP_IP.c **** 	pxSocket = pxUDPSocketLookup( usPort );
 240              		.loc 1 247 0
 241 000c 0100A0E1 		mov	r0, r1
 242              	.LVL20:
 243 0010 FEFFFFEB 		bl	pxUDPSocketLookup
 244              	.LVL21:
 248:D:/Work/DeviceTester/amazon-freertos/lib/FreeRTOS-Plus-TCP/source\FreeRTOS_UDP_IP.c **** 
 249:D:/Work/DeviceTester/amazon-freertos/lib/FreeRTOS-Plus-TCP/source\FreeRTOS_UDP_IP.c **** 	if( pxSocket )
 245              		.loc 1 249 0
 246 0014 004050E2 		subs	r4, r0, #0
 247 0018 1C00000A 		beq	.L16
 250:D:/Work/DeviceTester/amazon-freertos/lib/FreeRTOS-Plus-TCP/source\FreeRTOS_UDP_IP.c **** 	{
 251:D:/Work/DeviceTester/amazon-freertos/lib/FreeRTOS-Plus-TCP/source\FreeRTOS_UDP_IP.c **** 
 252:D:/Work/DeviceTester/amazon-freertos/lib/FreeRTOS-Plus-TCP/source\FreeRTOS_UDP_IP.c **** 		/* When refreshing the ARP cache with received UDP packets we must be
 253:D:/Work/DeviceTester/amazon-freertos/lib/FreeRTOS-Plus-TCP/source\FreeRTOS_UDP_IP.c **** 		careful;  hundreds of broadcast messages may pass and if we're not
 254:D:/Work/DeviceTester/amazon-freertos/lib/FreeRTOS-Plus-TCP/source\FreeRTOS_UDP_IP.c **** 		handling them, no use to fill the ARP cache with those IP addresses. */
 255:D:/Work/DeviceTester/amazon-freertos/lib/FreeRTOS-Plus-TCP/source\FreeRTOS_UDP_IP.c **** 		vARPRefreshCacheEntry( &( pxUDPPacket->xEthernetHeader.xSourceAddress ), pxUDPPacket->xIPHeader.u
 248              		.loc 1 255 0
 249 001c 1B10D5E5 		ldrb	r1, [r5, #27]	@ zero_extendqisi2
 250 0020 060085E2 		add	r0, r5, #6
 251              	.LVL22:
 252 0024 1A30D5E5 		ldrb	r3, [r5, #26]	@ zero_extendqisi2
 253 0028 013483E1 		orr	r3, r3, r1, lsl #8
 254 002c 1C10D5E5 		ldrb	r1, [r5, #28]	@ zero_extendqisi2
 255 0030 013883E1 		orr	r3, r3, r1, lsl #16
 256 0034 1D10D5E5 		ldrb	r1, [r5, #29]	@ zero_extendqisi2
 257 0038 011C83E1 		orr	r1, r3, r1, lsl #24
 258 003c FEFFFFEB 		bl	vARPRefreshCacheEntry
 259              	.LVL23:
 256:D:/Work/DeviceTester/amazon-freertos/lib/FreeRTOS-Plus-TCP/source\FreeRTOS_UDP_IP.c **** 
 257:D:/Work/DeviceTester/amazon-freertos/lib/FreeRTOS-Plus-TCP/source\FreeRTOS_UDP_IP.c **** 		#if( ipconfigUSE_CALLBACKS == 1 )
 258:D:/Work/DeviceTester/amazon-freertos/lib/FreeRTOS-Plus-TCP/source\FreeRTOS_UDP_IP.c **** 		{
 259:D:/Work/DeviceTester/amazon-freertos/lib/FreeRTOS-Plus-TCP/source\FreeRTOS_UDP_IP.c **** 			/* Did the owner of this socket register a reception handler ? */
 260:D:/Work/DeviceTester/amazon-freertos/lib/FreeRTOS-Plus-TCP/source\FreeRTOS_UDP_IP.c **** 			if( ipconfigIS_VALID_PROG_ADDRESS( pxSocket->u.xUDP.pxHandleReceive ) )
 261:D:/Work/DeviceTester/amazon-freertos/lib/FreeRTOS-Plus-TCP/source\FreeRTOS_UDP_IP.c **** 			{
 262:D:/Work/DeviceTester/amazon-freertos/lib/FreeRTOS-Plus-TCP/source\FreeRTOS_UDP_IP.c **** 				struct freertos_sockaddr xSourceAddress, destinationAddress;
 263:D:/Work/DeviceTester/amazon-freertos/lib/FreeRTOS-Plus-TCP/source\FreeRTOS_UDP_IP.c **** 				void *pcData = ( void * ) &( pxNetworkBuffer->pucEthernetBuffer[ ipUDP_PAYLOAD_OFFSET_IPv4 ] );
 264:D:/Work/DeviceTester/amazon-freertos/lib/FreeRTOS-Plus-TCP/source\FreeRTOS_UDP_IP.c **** 				FOnUDPReceive_t xHandler = ( FOnUDPReceive_t ) pxSocket->u.xUDP.pxHandleReceive;
 265:D:/Work/DeviceTester/amazon-freertos/lib/FreeRTOS-Plus-TCP/source\FreeRTOS_UDP_IP.c **** 				xSourceAddress.sin_port = pxNetworkBuffer->usPort;
 266:D:/Work/DeviceTester/amazon-freertos/lib/FreeRTOS-Plus-TCP/source\FreeRTOS_UDP_IP.c **** 				xSourceAddress.sin_addr = pxNetworkBuffer->ulIPAddress;
 267:D:/Work/DeviceTester/amazon-freertos/lib/FreeRTOS-Plus-TCP/source\FreeRTOS_UDP_IP.c **** 				destinationAddress.sin_port = usPort;
 268:D:/Work/DeviceTester/amazon-freertos/lib/FreeRTOS-Plus-TCP/source\FreeRTOS_UDP_IP.c **** 				destinationAddress.sin_addr = pxUDPPacket->xIPHeader.ulDestinationIPAddress;
 269:D:/Work/DeviceTester/amazon-freertos/lib/FreeRTOS-Plus-TCP/source\FreeRTOS_UDP_IP.c **** 
 270:D:/Work/DeviceTester/amazon-freertos/lib/FreeRTOS-Plus-TCP/source\FreeRTOS_UDP_IP.c **** 				if( xHandler( ( Socket_t * ) pxSocket, ( void* ) pcData, ( size_t ) pxNetworkBuffer->xDataLengt
 271:D:/Work/DeviceTester/amazon-freertos/lib/FreeRTOS-Plus-TCP/source\FreeRTOS_UDP_IP.c **** 					&xSourceAddress, &destinationAddress ) )
 272:D:/Work/DeviceTester/amazon-freertos/lib/FreeRTOS-Plus-TCP/source\FreeRTOS_UDP_IP.c **** 				{
 273:D:/Work/DeviceTester/amazon-freertos/lib/FreeRTOS-Plus-TCP/source\FreeRTOS_UDP_IP.c **** 					xReturn = pdFAIL; /* FAIL means that we did not consume or release the buffer */
 274:D:/Work/DeviceTester/amazon-freertos/lib/FreeRTOS-Plus-TCP/source\FreeRTOS_UDP_IP.c **** 				}
 275:D:/Work/DeviceTester/amazon-freertos/lib/FreeRTOS-Plus-TCP/source\FreeRTOS_UDP_IP.c **** 			}
 276:D:/Work/DeviceTester/amazon-freertos/lib/FreeRTOS-Plus-TCP/source\FreeRTOS_UDP_IP.c **** 		}
 277:D:/Work/DeviceTester/amazon-freertos/lib/FreeRTOS-Plus-TCP/source\FreeRTOS_UDP_IP.c **** 		#endif /* ipconfigUSE_CALLBACKS */
 278:D:/Work/DeviceTester/amazon-freertos/lib/FreeRTOS-Plus-TCP/source\FreeRTOS_UDP_IP.c **** 
 279:D:/Work/DeviceTester/amazon-freertos/lib/FreeRTOS-Plus-TCP/source\FreeRTOS_UDP_IP.c **** 		#if( ipconfigUDP_MAX_RX_PACKETS > 0 )
 280:D:/Work/DeviceTester/amazon-freertos/lib/FreeRTOS-Plus-TCP/source\FreeRTOS_UDP_IP.c **** 		{
 281:D:/Work/DeviceTester/amazon-freertos/lib/FreeRTOS-Plus-TCP/source\FreeRTOS_UDP_IP.c **** 			if( xReturn == pdPASS )
 282:D:/Work/DeviceTester/amazon-freertos/lib/FreeRTOS-Plus-TCP/source\FreeRTOS_UDP_IP.c **** 			{
 283:D:/Work/DeviceTester/amazon-freertos/lib/FreeRTOS-Plus-TCP/source\FreeRTOS_UDP_IP.c **** 				if ( listCURRENT_LIST_LENGTH( &( pxSocket->u.xUDP.xWaitingPacketsList ) ) >= pxSocket->u.xUDP.u
 284:D:/Work/DeviceTester/amazon-freertos/lib/FreeRTOS-Plus-TCP/source\FreeRTOS_UDP_IP.c **** 				{
 285:D:/Work/DeviceTester/amazon-freertos/lib/FreeRTOS-Plus-TCP/source\FreeRTOS_UDP_IP.c **** 					FreeRTOS_debug_printf( ( "xProcessReceivedUDPPacket: buffer full %ld >= %ld port %u\n",
 286:D:/Work/DeviceTester/amazon-freertos/lib/FreeRTOS-Plus-TCP/source\FreeRTOS_UDP_IP.c **** 						listCURRENT_LIST_LENGTH( &( pxSocket->u.xUDP.xWaitingPacketsList ) ),
 287:D:/Work/DeviceTester/amazon-freertos/lib/FreeRTOS-Plus-TCP/source\FreeRTOS_UDP_IP.c **** 						pxSocket->u.xUDP.uxMaxPackets, pxSocket->usLocalPort ) );
 288:D:/Work/DeviceTester/amazon-freertos/lib/FreeRTOS-Plus-TCP/source\FreeRTOS_UDP_IP.c **** 					xReturn = pdFAIL; /* we did not consume or release the buffer */
 289:D:/Work/DeviceTester/amazon-freertos/lib/FreeRTOS-Plus-TCP/source\FreeRTOS_UDP_IP.c **** 				}
 290:D:/Work/DeviceTester/amazon-freertos/lib/FreeRTOS-Plus-TCP/source\FreeRTOS_UDP_IP.c **** 			}
 291:D:/Work/DeviceTester/amazon-freertos/lib/FreeRTOS-Plus-TCP/source\FreeRTOS_UDP_IP.c **** 		}
 292:D:/Work/DeviceTester/amazon-freertos/lib/FreeRTOS-Plus-TCP/source\FreeRTOS_UDP_IP.c **** 		#endif
 293:D:/Work/DeviceTester/amazon-freertos/lib/FreeRTOS-Plus-TCP/source\FreeRTOS_UDP_IP.c **** 
 294:D:/Work/DeviceTester/amazon-freertos/lib/FreeRTOS-Plus-TCP/source\FreeRTOS_UDP_IP.c **** 		if( xReturn == pdPASS )
 295:D:/Work/DeviceTester/amazon-freertos/lib/FreeRTOS-Plus-TCP/source\FreeRTOS_UDP_IP.c **** 		{
 296:D:/Work/DeviceTester/amazon-freertos/lib/FreeRTOS-Plus-TCP/source\FreeRTOS_UDP_IP.c **** 			vTaskSuspendAll();
 260              		.loc 1 296 0
 261 0040 FEFFFFEB 		bl	vTaskSuspendAll
 262              	.LVL24:
 297:D:/Work/DeviceTester/amazon-freertos/lib/FreeRTOS-Plus-TCP/source\FreeRTOS_UDP_IP.c **** 			{
 298:D:/Work/DeviceTester/amazon-freertos/lib/FreeRTOS-Plus-TCP/source\FreeRTOS_UDP_IP.c **** 				if( xReturn == pdPASS )
 299:D:/Work/DeviceTester/amazon-freertos/lib/FreeRTOS-Plus-TCP/source\FreeRTOS_UDP_IP.c **** 				{
 300:D:/Work/DeviceTester/amazon-freertos/lib/FreeRTOS-Plus-TCP/source\FreeRTOS_UDP_IP.c **** 					taskENTER_CRITICAL();
 263              		.loc 1 300 0
 264 0044 FEFFFFEB 		bl	vPortEnterCritical
 265              	.LVL25:
 301:D:/Work/DeviceTester/amazon-freertos/lib/FreeRTOS-Plus-TCP/source\FreeRTOS_UDP_IP.c **** 					{
 302:D:/Work/DeviceTester/amazon-freertos/lib/FreeRTOS-Plus-TCP/source\FreeRTOS_UDP_IP.c **** 						/* Add the network packet to the list of packets to be
 303:D:/Work/DeviceTester/amazon-freertos/lib/FreeRTOS-Plus-TCP/source\FreeRTOS_UDP_IP.c **** 						processed by the socket. */
 304:D:/Work/DeviceTester/amazon-freertos/lib/FreeRTOS-Plus-TCP/source\FreeRTOS_UDP_IP.c **** 						vListInsertEnd( &( pxSocket->u.xUDP.xWaitingPacketsList ), &( pxNetworkBuffer->xBufferListIte
 266              		.loc 1 304 0
 267 0048 0610A0E1 		mov	r1, r6
 268 004c 300084E2 		add	r0, r4, #48
 269 0050 FEFFFFEB 		bl	vListInsertEnd
 270              	.LVL26:
 305:D:/Work/DeviceTester/amazon-freertos/lib/FreeRTOS-Plus-TCP/source\FreeRTOS_UDP_IP.c **** 					}
 306:D:/Work/DeviceTester/amazon-freertos/lib/FreeRTOS-Plus-TCP/source\FreeRTOS_UDP_IP.c **** 					taskEXIT_CRITICAL();
 271              		.loc 1 306 0
 272 0054 FEFFFFEB 		bl	vPortExitCritical
 273              	.LVL27:
 307:D:/Work/DeviceTester/amazon-freertos/lib/FreeRTOS-Plus-TCP/source\FreeRTOS_UDP_IP.c **** 				}
 308:D:/Work/DeviceTester/amazon-freertos/lib/FreeRTOS-Plus-TCP/source\FreeRTOS_UDP_IP.c **** 			}
 309:D:/Work/DeviceTester/amazon-freertos/lib/FreeRTOS-Plus-TCP/source\FreeRTOS_UDP_IP.c **** 			xTaskResumeAll();
 274              		.loc 1 309 0
 275 0058 FEFFFFEB 		bl	xTaskResumeAll
 276              	.LVL28:
 310:D:/Work/DeviceTester/amazon-freertos/lib/FreeRTOS-Plus-TCP/source\FreeRTOS_UDP_IP.c **** 
 311:D:/Work/DeviceTester/amazon-freertos/lib/FreeRTOS-Plus-TCP/source\FreeRTOS_UDP_IP.c **** 			/* Set the socket's receive event */
 312:D:/Work/DeviceTester/amazon-freertos/lib/FreeRTOS-Plus-TCP/source\FreeRTOS_UDP_IP.c **** 			if( pxSocket->xEventGroup != NULL )
 277              		.loc 1 312 0
 278 005c 040094E5 		ldr	r0, [r4, #4]
 279 0060 000050E3 		cmp	r0, #0
 280 0064 0100000A 		beq	.L15
 313:D:/Work/DeviceTester/amazon-freertos/lib/FreeRTOS-Plus-TCP/source\FreeRTOS_UDP_IP.c **** 			{
 314:D:/Work/DeviceTester/amazon-freertos/lib/FreeRTOS-Plus-TCP/source\FreeRTOS_UDP_IP.c **** 				xEventGroupSetBits( pxSocket->xEventGroup, eSOCKET_RECEIVE );
 281              		.loc 1 314 0
 282 0068 0110A0E3 		mov	r1, #1
 283 006c FEFFFFEB 		bl	xEventGroupSetBits
 284              	.LVL29:
 285              	.L15:
 315:D:/Work/DeviceTester/amazon-freertos/lib/FreeRTOS-Plus-TCP/source\FreeRTOS_UDP_IP.c **** 			}
 316:D:/Work/DeviceTester/amazon-freertos/lib/FreeRTOS-Plus-TCP/source\FreeRTOS_UDP_IP.c **** 
 317:D:/Work/DeviceTester/amazon-freertos/lib/FreeRTOS-Plus-TCP/source\FreeRTOS_UDP_IP.c **** 			#if( ipconfigSUPPORT_SELECT_FUNCTION == 1 )
 318:D:/Work/DeviceTester/amazon-freertos/lib/FreeRTOS-Plus-TCP/source\FreeRTOS_UDP_IP.c **** 			{
 319:D:/Work/DeviceTester/amazon-freertos/lib/FreeRTOS-Plus-TCP/source\FreeRTOS_UDP_IP.c **** 				if( ( pxSocket->pxSocketSet != NULL ) && ( ( pxSocket->xSelectBits & eSELECT_READ ) != 0 ) )
 320:D:/Work/DeviceTester/amazon-freertos/lib/FreeRTOS-Plus-TCP/source\FreeRTOS_UDP_IP.c **** 				{
 321:D:/Work/DeviceTester/amazon-freertos/lib/FreeRTOS-Plus-TCP/source\FreeRTOS_UDP_IP.c **** 					xEventGroupSetBits( pxSocket->pxSocketSet->xSelectGroup, eSELECT_READ );
 322:D:/Work/DeviceTester/amazon-freertos/lib/FreeRTOS-Plus-TCP/source\FreeRTOS_UDP_IP.c **** 				}
 323:D:/Work/DeviceTester/amazon-freertos/lib/FreeRTOS-Plus-TCP/source\FreeRTOS_UDP_IP.c **** 			}
 324:D:/Work/DeviceTester/amazon-freertos/lib/FreeRTOS-Plus-TCP/source\FreeRTOS_UDP_IP.c **** 			#endif
 325:D:/Work/DeviceTester/amazon-freertos/lib/FreeRTOS-Plus-TCP/source\FreeRTOS_UDP_IP.c **** 
 326:D:/Work/DeviceTester/amazon-freertos/lib/FreeRTOS-Plus-TCP/source\FreeRTOS_UDP_IP.c **** 			#if( ipconfigSOCKET_HAS_USER_SEMAPHORE == 1 )
 327:D:/Work/DeviceTester/amazon-freertos/lib/FreeRTOS-Plus-TCP/source\FreeRTOS_UDP_IP.c **** 			{
 328:D:/Work/DeviceTester/amazon-freertos/lib/FreeRTOS-Plus-TCP/source\FreeRTOS_UDP_IP.c **** 				if( pxSocket->pxUserSemaphore != NULL )
 329:D:/Work/DeviceTester/amazon-freertos/lib/FreeRTOS-Plus-TCP/source\FreeRTOS_UDP_IP.c **** 				{
 330:D:/Work/DeviceTester/amazon-freertos/lib/FreeRTOS-Plus-TCP/source\FreeRTOS_UDP_IP.c **** 					xSemaphoreGive( pxSocket->pxUserSemaphore );
 331:D:/Work/DeviceTester/amazon-freertos/lib/FreeRTOS-Plus-TCP/source\FreeRTOS_UDP_IP.c **** 				}
 332:D:/Work/DeviceTester/amazon-freertos/lib/FreeRTOS-Plus-TCP/source\FreeRTOS_UDP_IP.c **** 			}
 333:D:/Work/DeviceTester/amazon-freertos/lib/FreeRTOS-Plus-TCP/source\FreeRTOS_UDP_IP.c **** 			#endif
 334:D:/Work/DeviceTester/amazon-freertos/lib/FreeRTOS-Plus-TCP/source\FreeRTOS_UDP_IP.c **** 
 335:D:/Work/DeviceTester/amazon-freertos/lib/FreeRTOS-Plus-TCP/source\FreeRTOS_UDP_IP.c **** 			#if( ipconfigUSE_DHCP == 1 )
 336:D:/Work/DeviceTester/amazon-freertos/lib/FreeRTOS-Plus-TCP/source\FreeRTOS_UDP_IP.c **** 			{
 337:D:/Work/DeviceTester/amazon-freertos/lib/FreeRTOS-Plus-TCP/source\FreeRTOS_UDP_IP.c **** 				if( xIsDHCPSocket( pxSocket ) )
 286              		.loc 1 337 0
 287 0070 0400A0E1 		mov	r0, r4
 288 0074 FEFFFFEB 		bl	xIsDHCPSocket
 289              	.LVL30:
 290 0078 000050E3 		cmp	r0, #0
 291 007c 0100000A 		beq	.L17
 338:D:/Work/DeviceTester/amazon-freertos/lib/FreeRTOS-Plus-TCP/source\FreeRTOS_UDP_IP.c **** 				{
 339:D:/Work/DeviceTester/amazon-freertos/lib/FreeRTOS-Plus-TCP/source\FreeRTOS_UDP_IP.c **** 					xSendEventToIPTask( eDHCPEvent );
 292              		.loc 1 339 0
 293 0080 0400A0E3 		mov	r0, #4
 294 0084 FEFFFFEB 		bl	xSendEventToIPTask
 295              	.LVL31:
 296              	.L17:
 241:D:/Work/DeviceTester/amazon-freertos/lib/FreeRTOS-Plus-TCP/source\FreeRTOS_UDP_IP.c **** FreeRTOS_Socket_t *pxSocket;
 297              		.loc 1 241 0
 298 0088 0100A0E3 		mov	r0, #1
 340:D:/Work/DeviceTester/amazon-freertos/lib/FreeRTOS-Plus-TCP/source\FreeRTOS_UDP_IP.c **** 				}
 341:D:/Work/DeviceTester/amazon-freertos/lib/FreeRTOS-Plus-TCP/source\FreeRTOS_UDP_IP.c **** 			}
 342:D:/Work/DeviceTester/amazon-freertos/lib/FreeRTOS-Plus-TCP/source\FreeRTOS_UDP_IP.c **** 			#endif
 343:D:/Work/DeviceTester/amazon-freertos/lib/FreeRTOS-Plus-TCP/source\FreeRTOS_UDP_IP.c **** 		}
 344:D:/Work/DeviceTester/amazon-freertos/lib/FreeRTOS-Plus-TCP/source\FreeRTOS_UDP_IP.c **** 	}
 345:D:/Work/DeviceTester/amazon-freertos/lib/FreeRTOS-Plus-TCP/source\FreeRTOS_UDP_IP.c **** 	else
 346:D:/Work/DeviceTester/amazon-freertos/lib/FreeRTOS-Plus-TCP/source\FreeRTOS_UDP_IP.c **** 	{
 347:D:/Work/DeviceTester/amazon-freertos/lib/FreeRTOS-Plus-TCP/source\FreeRTOS_UDP_IP.c **** 		/* There is no socket listening to the target port, but still it might
 348:D:/Work/DeviceTester/amazon-freertos/lib/FreeRTOS-Plus-TCP/source\FreeRTOS_UDP_IP.c **** 		be for this node. */
 349:D:/Work/DeviceTester/amazon-freertos/lib/FreeRTOS-Plus-TCP/source\FreeRTOS_UDP_IP.c **** 
 350:D:/Work/DeviceTester/amazon-freertos/lib/FreeRTOS-Plus-TCP/source\FreeRTOS_UDP_IP.c **** 		#if( ipconfigUSE_LLMNR == 1 )
 351:D:/Work/DeviceTester/amazon-freertos/lib/FreeRTOS-Plus-TCP/source\FreeRTOS_UDP_IP.c **** 			/* a LLMNR request, check for the destination port. */
 352:D:/Work/DeviceTester/amazon-freertos/lib/FreeRTOS-Plus-TCP/source\FreeRTOS_UDP_IP.c **** 			if( ( usPort == FreeRTOS_ntohs( ipLLMNR_PORT ) ) ||
 353:D:/Work/DeviceTester/amazon-freertos/lib/FreeRTOS-Plus-TCP/source\FreeRTOS_UDP_IP.c **** 				( pxUDPPacket->xUDPHeader.usSourcePort == FreeRTOS_ntohs( ipLLMNR_PORT ) ) )
 354:D:/Work/DeviceTester/amazon-freertos/lib/FreeRTOS-Plus-TCP/source\FreeRTOS_UDP_IP.c **** 			{
 355:D:/Work/DeviceTester/amazon-freertos/lib/FreeRTOS-Plus-TCP/source\FreeRTOS_UDP_IP.c **** 				vARPRefreshCacheEntry( &( pxUDPPacket->xEthernetHeader.xSourceAddress ), pxUDPPacket->xIPHeader
 356:D:/Work/DeviceTester/amazon-freertos/lib/FreeRTOS-Plus-TCP/source\FreeRTOS_UDP_IP.c **** 				xReturn = ( BaseType_t )ulDNSHandlePacket( pxNetworkBuffer );
 357:D:/Work/DeviceTester/amazon-freertos/lib/FreeRTOS-Plus-TCP/source\FreeRTOS_UDP_IP.c **** 			}
 358:D:/Work/DeviceTester/amazon-freertos/lib/FreeRTOS-Plus-TCP/source\FreeRTOS_UDP_IP.c **** 			else
 359:D:/Work/DeviceTester/amazon-freertos/lib/FreeRTOS-Plus-TCP/source\FreeRTOS_UDP_IP.c **** 		#endif /* ipconfigUSE_LLMNR */
 360:D:/Work/DeviceTester/amazon-freertos/lib/FreeRTOS-Plus-TCP/source\FreeRTOS_UDP_IP.c **** 
 361:D:/Work/DeviceTester/amazon-freertos/lib/FreeRTOS-Plus-TCP/source\FreeRTOS_UDP_IP.c **** 		#if( ipconfigUSE_NBNS == 1 )
 362:D:/Work/DeviceTester/amazon-freertos/lib/FreeRTOS-Plus-TCP/source\FreeRTOS_UDP_IP.c **** 			/* a NetBIOS request, check for the destination port */
 363:D:/Work/DeviceTester/amazon-freertos/lib/FreeRTOS-Plus-TCP/source\FreeRTOS_UDP_IP.c **** 			if( ( usPort == FreeRTOS_ntohs( ipNBNS_PORT ) ) ||
 364:D:/Work/DeviceTester/amazon-freertos/lib/FreeRTOS-Plus-TCP/source\FreeRTOS_UDP_IP.c **** 				( pxUDPPacket->xUDPHeader.usSourcePort == FreeRTOS_ntohs( ipNBNS_PORT ) ) )
 365:D:/Work/DeviceTester/amazon-freertos/lib/FreeRTOS-Plus-TCP/source\FreeRTOS_UDP_IP.c **** 			{
 366:D:/Work/DeviceTester/amazon-freertos/lib/FreeRTOS-Plus-TCP/source\FreeRTOS_UDP_IP.c **** 				vARPRefreshCacheEntry( &( pxUDPPacket->xEthernetHeader.xSourceAddress ), pxUDPPacket->xIPHeader
 367:D:/Work/DeviceTester/amazon-freertos/lib/FreeRTOS-Plus-TCP/source\FreeRTOS_UDP_IP.c **** 				xReturn = ( BaseType_t )ulNBNSHandlePacket( pxNetworkBuffer );
 368:D:/Work/DeviceTester/amazon-freertos/lib/FreeRTOS-Plus-TCP/source\FreeRTOS_UDP_IP.c **** 			}
 369:D:/Work/DeviceTester/amazon-freertos/lib/FreeRTOS-Plus-TCP/source\FreeRTOS_UDP_IP.c **** 			else
 370:D:/Work/DeviceTester/amazon-freertos/lib/FreeRTOS-Plus-TCP/source\FreeRTOS_UDP_IP.c **** 		#endif /* ipconfigUSE_NBNS */
 371:D:/Work/DeviceTester/amazon-freertos/lib/FreeRTOS-Plus-TCP/source\FreeRTOS_UDP_IP.c **** 		{
 372:D:/Work/DeviceTester/amazon-freertos/lib/FreeRTOS-Plus-TCP/source\FreeRTOS_UDP_IP.c **** 			xReturn = pdFAIL;
 373:D:/Work/DeviceTester/amazon-freertos/lib/FreeRTOS-Plus-TCP/source\FreeRTOS_UDP_IP.c **** 		}
 374:D:/Work/DeviceTester/amazon-freertos/lib/FreeRTOS-Plus-TCP/source\FreeRTOS_UDP_IP.c **** 	}
 375:D:/Work/DeviceTester/amazon-freertos/lib/FreeRTOS-Plus-TCP/source\FreeRTOS_UDP_IP.c **** 
 376:D:/Work/DeviceTester/amazon-freertos/lib/FreeRTOS-Plus-TCP/source\FreeRTOS_UDP_IP.c **** 	return xReturn;
 377:D:/Work/DeviceTester/amazon-freertos/lib/FreeRTOS-Plus-TCP/source\FreeRTOS_UDP_IP.c **** }
 299              		.loc 1 377 0
 300 008c 7080BDE8 		pop	{r4, r5, r6, pc}
 301              	.LVL32:
 302              	.L16:
 372:D:/Work/DeviceTester/amazon-freertos/lib/FreeRTOS-Plus-TCP/source\FreeRTOS_UDP_IP.c **** 		}
 303              		.loc 1 372 0
 304 0090 0400A0E1 		mov	r0, r4
 305              	.LVL33:
 306 0094 7080BDE8 		pop	{r4, r5, r6, pc}
 307              		.cfi_endproc
 308              	.LFE26:
 310              		.global	xDefaultPartUDPPacketHeader
 311              		.section	.data.xDefaultPartUDPPacketHeader,"aw",%progbits
 312              		.align	2
 313              		.set	.LANCHOR0,. + 0
 316              	xDefaultPartUDPPacketHeader:
 317 0000 00       		.byte	0
 318 0001 00       		.byte	0
 319 0002 00       		.byte	0
 320 0003 00       		.byte	0
 321 0004 00       		.byte	0
 322 0005 00       		.byte	0
 323 0006 08       		.byte	8
 324 0007 00       		.byte	0
 325 0008 45       		.byte	69
 326 0009 00       		.byte	0
 327 000a 00       		.byte	0
 328 000b 00       		.byte	0
 329 000c 00       		.byte	0
 330 000d 00       		.byte	0
 331 000e 00       		.byte	0
 332 000f 00       		.byte	0
 333 0010 80       		.byte	-128
 334 0011 11       		.byte	17
 335 0012 00       		.byte	0
 336 0013 00       		.byte	0
 337 0014 00       		.byte	0
 338 0015 00       		.byte	0
 339 0016 00       		.byte	0
 340 0017 00       		.byte	0
 341              		.text
 342              	.Letext0:
 343              		.file 2 "c:\\program files (x86)\\gnu tools arm embedded\\6 2017-q2-update\\arm-none-eabi\\include
 344              		.file 3 "c:\\program files (x86)\\gnu tools arm embedded\\6 2017-q2-update\\arm-none-eabi\\include
 345              		.file 4 "c:\\program files (x86)\\gnu tools arm embedded\\6 2017-q2-update\\lib\\gcc\\arm-none-eab
 346              		.file 5 "c:\\program files (x86)\\gnu tools arm embedded\\6 2017-q2-update\\arm-none-eabi\\include
 347              		.file 6 "c:\\program files (x86)\\gnu tools arm embedded\\6 2017-q2-update\\arm-none-eabi\\include
 348              		.file 7 "c:\\program files (x86)\\gnu tools arm embedded\\6 2017-q2-update\\arm-none-eabi\\include
 349              		.file 8 "c:\\program files (x86)\\gnu tools arm embedded\\6 2017-q2-update\\arm-none-eabi\\include
 350              		.file 9 "c:\\program files (x86)\\gnu tools arm embedded\\6 2017-q2-update\\arm-none-eabi\\include
 351              		.file 10 "D:\\Work\\DeviceTester\\amazon-freertos\\lib\\third_party\\unity\\src/unity_internals.h"
 352              		.file 11 "D:\\Work\\DeviceTester\\amazon-freertos\\lib\\third_party\\mcu_vendor\\renesas\\rz_mcu_b
 353              		.file 12 "D:\\Work\\DeviceTester\\amazon-freertos\\lib\\FreeRTOS\\portable\\GCC\\ARM_CA9_RZA2M/por
 354              		.file 13 "D:\\Work\\DeviceTester\\amazon-freertos\\lib\\include\\private/list.h"
 355              		.file 14 "c:\\program files (x86)\\gnu tools arm embedded\\6 2017-q2-update\\arm-none-eabi\\includ
 356              		.file 15 "c:\\program files (x86)\\gnu tools arm embedded\\6 2017-q2-update\\arm-none-eabi\\includ
 357              		.file 16 "D:\\Work\\DeviceTester\\amazon-freertos\\lib\\third_party\\mcu_vendor\\renesas\\rz_mcu_b
 358              		.file 17 "D:\\Work\\DeviceTester\\amazon-freertos\\lib\\third_party\\mcu_vendor\\renesas\\rz_mcu_b
 359              		.file 18 "D:\\Work\\DeviceTester\\amazon-freertos\\lib\\third_party\\mcu_vendor\\renesas\\rz_mcu_b
 360              		.file 19 "D:\\Work\\DeviceTester\\amazon-freertos\\lib\\third_party\\mcu_vendor\\renesas\\rz_mcu_b
 361              		.file 20 "D:\\Work\\DeviceTester\\amazon-freertos\\lib\\third_party\\mcu_vendor\\renesas\\rz_mcu_b
 362              		.file 21 "D:\\Work\\DeviceTester\\amazon-freertos\\lib\\FreeRTOS-Plus-TCP\\include/FreeRTOS_IP.h"
 363              		.file 22 "D:\\Work\\DeviceTester\\amazon-freertos\\lib\\include/event_groups.h"
 364              		.file 23 "D:\\Work\\DeviceTester\\amazon-freertos\\lib\\FreeRTOS-Plus-TCP\\include/FreeRTOS_Stream
 365              		.file 24 "D:\\Work\\DeviceTester\\amazon-freertos\\lib\\FreeRTOS-Plus-TCP\\include/FreeRTOS_TCP_WI
 366              		.file 25 "D:\\Work\\DeviceTester\\amazon-freertos\\lib\\FreeRTOS-Plus-TCP\\include/FreeRTOS_IP_Pri
 367              		.file 26 "D:\\Work\\DeviceTester\\amazon-freertos\\lib\\FreeRTOS-Plus-TCP\\include/FreeRTOS_ARP.h"
 368              		.file 27 "D:\\Work\\DeviceTester\\amazon-freertos\\lib\\include/task.h"
 369              		.file 28 "D:\\Work\\DeviceTester\\amazon-freertos\\lib\\FreeRTOS-Plus-TCP\\include/FreeRTOS_DHCP.h
 370              		.file 29 "D:\\Work\\DeviceTester\\amazon-freertos\\lib\\FreeRTOS-Plus-TCP\\include/NetworkInterfac
 371              		.file 30 "D:\\Work\\DeviceTester\\amazon-freertos\\lib\\FreeRTOS-Plus-TCP\\include/NetworkBufferMa