   1              		.cpu cortex-a9
   2              		.eabi_attribute 28, 1
   3              		.eabi_attribute 20, 1
   4              		.eabi_attribute 21, 1
   5              		.eabi_attribute 23, 3
   6              		.eabi_attribute 24, 1
   7              		.eabi_attribute 25, 1
   8              		.eabi_attribute 26, 1
   9              		.eabi_attribute 30, 4
  10              		.eabi_attribute 34, 0
  11              		.eabi_attribute 18, 4
  12              		.file	"r_devlink_wrapper.c"
  13              		.text
  14              	.Ltext0:
  15              		.cfi_sections	.debug_frame
  16              		.section	.text.no_dev_open,"ax",%progbits
  17              		.align	2
  18              		.global	no_dev_open
  19              		.syntax unified
  20              		.arm
  21              		.fpu neon
  23              	no_dev_open:
  24              	.LFB10:
  25              		.file 1 "D:/Work/DeviceTester/amazon-freertos/lib/third_party/mcu_vendor/renesas/rz_mcu_boards/cor
   1:D:/Work/DeviceTester/amazon-freertos/lib/third_party/mcu_vendor/renesas/rz_mcu_boards/core_package/generate/system\r_devlink_wrapper.c **** /**************************************************************************************************
   2:D:/Work/DeviceTester/amazon-freertos/lib/third_party/mcu_vendor/renesas/rz_mcu_boards/core_package/generate/system\r_devlink_wrapper.c ****  * DISCLAIMER
   3:D:/Work/DeviceTester/amazon-freertos/lib/third_party/mcu_vendor/renesas/rz_mcu_boards/core_package/generate/system\r_devlink_wrapper.c ****  * This software is supplied by Renesas Electronics Corporation and is only intended for use with R
   4:D:/Work/DeviceTester/amazon-freertos/lib/third_party/mcu_vendor/renesas/rz_mcu_boards/core_package/generate/system\r_devlink_wrapper.c ****  * other uses are authorized. This software is owned by Renesas Electronics Corporation and is prot
   5:D:/Work/DeviceTester/amazon-freertos/lib/third_party/mcu_vendor/renesas/rz_mcu_boards/core_package/generate/system\r_devlink_wrapper.c ****  * applicable laws, including copyright laws.
   6:D:/Work/DeviceTester/amazon-freertos/lib/third_party/mcu_vendor/renesas/rz_mcu_boards/core_package/generate/system\r_devlink_wrapper.c ****  * THIS SOFTWARE IS PROVIDED "AS IS" AND RENESAS MAKES NO WARRANTIES REGARDING
   7:D:/Work/DeviceTester/amazon-freertos/lib/third_party/mcu_vendor/renesas/rz_mcu_boards/core_package/generate/system\r_devlink_wrapper.c ****  * THIS SOFTWARE, WHETHER EXPRESS, IMPLIED OR STATUTORY, INCLUDING BUT NOT LIMITED TO WARRANTIES OF
   8:D:/Work/DeviceTester/amazon-freertos/lib/third_party/mcu_vendor/renesas/rz_mcu_boards/core_package/generate/system\r_devlink_wrapper.c ****  * FITNESS FOR A PARTICULAR PURPOSE AND NON-INFRINGEMENT. ALL SUCH WARRANTIES ARE EXPRESSLY DISCLAI
   9:D:/Work/DeviceTester/amazon-freertos/lib/third_party/mcu_vendor/renesas/rz_mcu_boards/core_package/generate/system\r_devlink_wrapper.c ****  * EXTENT PERMITTED NOT PROHIBITED BY LAW, NEITHER RENESAS ELECTRONICS CORPORATION NOR ANY OF ITS A
  10:D:/Work/DeviceTester/amazon-freertos/lib/third_party/mcu_vendor/renesas/rz_mcu_boards/core_package/generate/system\r_devlink_wrapper.c ****  * SHALL BE LIABLE FOR ANY DIRECT, INDIRECT, SPECIAL, INCIDENTAL OR CONSEQUENTIAL DAMAGES FOR ANY R
  11:D:/Work/DeviceTester/amazon-freertos/lib/third_party/mcu_vendor/renesas/rz_mcu_boards/core_package/generate/system\r_devlink_wrapper.c ****  * THIS SOFTWARE, EVEN IF RENESAS OR ITS AFFILIATES HAVE BEEN ADVISED OF THE POSSIBILITY OF SUCH DA
  12:D:/Work/DeviceTester/amazon-freertos/lib/third_party/mcu_vendor/renesas/rz_mcu_boards/core_package/generate/system\r_devlink_wrapper.c ****  * Renesas reserves the right, without notice, to make changes to this software and to discontinue 
  13:D:/Work/DeviceTester/amazon-freertos/lib/third_party/mcu_vendor/renesas/rz_mcu_boards/core_package/generate/system\r_devlink_wrapper.c ****  * this software. By using this software, you agree to the additional terms and conditions found by
  14:D:/Work/DeviceTester/amazon-freertos/lib/third_party/mcu_vendor/renesas/rz_mcu_boards/core_package/generate/system\r_devlink_wrapper.c ****  * following link:
  15:D:/Work/DeviceTester/amazon-freertos/lib/third_party/mcu_vendor/renesas/rz_mcu_boards/core_package/generate/system\r_devlink_wrapper.c ****  * http://www.renesas.com/disclaimer
  16:D:/Work/DeviceTester/amazon-freertos/lib/third_party/mcu_vendor/renesas/rz_mcu_boards/core_package/generate/system\r_devlink_wrapper.c ****  *
  17:D:/Work/DeviceTester/amazon-freertos/lib/third_party/mcu_vendor/renesas/rz_mcu_boards/core_package/generate/system\r_devlink_wrapper.c ****  * Copyright (C) 2020 Renesas Electronics Corporation. All rights reserved.
  18:D:/Work/DeviceTester/amazon-freertos/lib/third_party/mcu_vendor/renesas/rz_mcu_boards/core_package/generate/system\r_devlink_wrapper.c ****  **************************************************************************************************
  19:D:/Work/DeviceTester/amazon-freertos/lib/third_party/mcu_vendor/renesas/rz_mcu_boards/core_package/generate/system\r_devlink_wrapper.c **** 
  20:D:/Work/DeviceTester/amazon-freertos/lib/third_party/mcu_vendor/renesas/rz_mcu_boards/core_package/generate/system\r_devlink_wrapper.c **** /******************************************************************************
  21:D:/Work/DeviceTester/amazon-freertos/lib/third_party/mcu_vendor/renesas/rz_mcu_boards/core_package/generate/system\r_devlink_wrapper.c ****  Includes   <System Includes> , "Project Includes"
  22:D:/Work/DeviceTester/amazon-freertos/lib/third_party/mcu_vendor/renesas/rz_mcu_boards/core_package/generate/system\r_devlink_wrapper.c ****  ******************************************************************************/
  23:D:/Work/DeviceTester/amazon-freertos/lib/third_party/mcu_vendor/renesas/rz_mcu_boards/core_package/generate/system\r_devlink_wrapper.c **** 
  24:D:/Work/DeviceTester/amazon-freertos/lib/third_party/mcu_vendor/renesas/rz_mcu_boards/core_package/generate/system\r_devlink_wrapper.c **** #include <string.h>
  25:D:/Work/DeviceTester/amazon-freertos/lib/third_party/mcu_vendor/renesas/rz_mcu_boards/core_package/generate/system\r_devlink_wrapper.c **** #include <stdio.h>
  26:D:/Work/DeviceTester/amazon-freertos/lib/third_party/mcu_vendor/renesas/rz_mcu_boards/core_package/generate/system\r_devlink_wrapper.c **** #include <fcntl.h>
  27:D:/Work/DeviceTester/amazon-freertos/lib/third_party/mcu_vendor/renesas/rz_mcu_boards/core_package/generate/system\r_devlink_wrapper.c **** 
  28:D:/Work/DeviceTester/amazon-freertos/lib/third_party/mcu_vendor/renesas/rz_mcu_boards/core_package/generate/system\r_devlink_wrapper.c **** #include "r_typedefs.h"
  29:D:/Work/DeviceTester/amazon-freertos/lib/third_party/mcu_vendor/renesas/rz_mcu_boards/core_package/generate/system\r_devlink_wrapper.c **** #include "driver.h"
  30:D:/Work/DeviceTester/amazon-freertos/lib/third_party/mcu_vendor/renesas/rz_mcu_boards/core_package/generate/system\r_devlink_wrapper.c **** #include "r_devlink_wrapper.h"
  31:D:/Work/DeviceTester/amazon-freertos/lib/third_party/mcu_vendor/renesas/rz_mcu_boards/core_package/generate/system\r_devlink_wrapper.c **** /*  #include "r_os_abstraction_api.h"  */
  32:D:/Work/DeviceTester/amazon-freertos/lib/third_party/mcu_vendor/renesas/rz_mcu_boards/core_package/generate/system\r_devlink_wrapper.c **** #include "r_devlink_wrapper_cfg.h"
  33:D:/Work/DeviceTester/amazon-freertos/lib/third_party/mcu_vendor/renesas/rz_mcu_boards/core_package/generate/system\r_devlink_wrapper.c **** #include "application_cfg.h"
  34:D:/Work/DeviceTester/amazon-freertos/lib/third_party/mcu_vendor/renesas/rz_mcu_boards/core_package/generate/system\r_devlink_wrapper.c **** 
  35:D:/Work/DeviceTester/amazon-freertos/lib/third_party/mcu_vendor/renesas/rz_mcu_boards/core_package/generate/system\r_devlink_wrapper.c **** /******************************************************************************
  36:D:/Work/DeviceTester/amazon-freertos/lib/third_party/mcu_vendor/renesas/rz_mcu_boards/core_package/generate/system\r_devlink_wrapper.c ****  Macro Definitions
  37:D:/Work/DeviceTester/amazon-freertos/lib/third_party/mcu_vendor/renesas/rz_mcu_boards/core_package/generate/system\r_devlink_wrapper.c ****  ******************************************************************************/
  38:D:/Work/DeviceTester/amazon-freertos/lib/third_party/mcu_vendor/renesas/rz_mcu_boards/core_package/generate/system\r_devlink_wrapper.c **** 
  39:D:/Work/DeviceTester/amazon-freertos/lib/third_party/mcu_vendor/renesas/rz_mcu_boards/core_package/generate/system\r_devlink_wrapper.c **** /******************************************************************************
  40:D:/Work/DeviceTester/amazon-freertos/lib/third_party/mcu_vendor/renesas/rz_mcu_boards/core_package/generate/system\r_devlink_wrapper.c ****  Private global variables and functions
  41:D:/Work/DeviceTester/amazon-freertos/lib/third_party/mcu_vendor/renesas/rz_mcu_boards/core_package/generate/system\r_devlink_wrapper.c ****  ******************************************************************************/
  42:D:/Work/DeviceTester/amazon-freertos/lib/third_party/mcu_vendor/renesas/rz_mcu_boards/core_package/generate/system\r_devlink_wrapper.c **** 
  43:D:/Work/DeviceTester/amazon-freertos/lib/third_party/mcu_vendor/renesas/rz_mcu_boards/core_package/generate/system\r_devlink_wrapper.c **** /******************************************************************************
  44:D:/Work/DeviceTester/amazon-freertos/lib/third_party/mcu_vendor/renesas/rz_mcu_boards/core_package/generate/system\r_devlink_wrapper.c ****  Imported global variables and functions (from other files)
  45:D:/Work/DeviceTester/amazon-freertos/lib/third_party/mcu_vendor/renesas/rz_mcu_boards/core_package/generate/system\r_devlink_wrapper.c ****  ******************************************************************************/
  46:D:/Work/DeviceTester/amazon-freertos/lib/third_party/mcu_vendor/renesas/rz_mcu_boards/core_package/generate/system\r_devlink_wrapper.c **** 
  47:D:/Work/DeviceTester/amazon-freertos/lib/third_party/mcu_vendor/renesas/rz_mcu_boards/core_package/generate/system\r_devlink_wrapper.c **** #ifdef UNUSED_CODE_20200521
  48:D:/Work/DeviceTester/amazon-freertos/lib/third_party/mcu_vendor/renesas/rz_mcu_boards/core_package/generate/system\r_devlink_wrapper.c **** /* Functions provided by lowsrc.c */
  49:D:/Work/DeviceTester/amazon-freertos/lib/third_party/mcu_vendor/renesas/rz_mcu_boards/core_package/generate/system\r_devlink_wrapper.c **** static void close_all(char_t *p_stream_name);
  50:D:/Work/DeviceTester/amazon-freertos/lib/third_party/mcu_vendor/renesas/rz_mcu_boards/core_package/generate/system\r_devlink_wrapper.c **** static bool_t check_open(st_r_driver_t *pDeviceDriver, char *pszLinkName);
  51:D:/Work/DeviceTester/amazon-freertos/lib/third_party/mcu_vendor/renesas/rz_mcu_boards/core_package/generate/system\r_devlink_wrapper.c **** #endif
  52:D:/Work/DeviceTester/amazon-freertos/lib/third_party/mcu_vendor/renesas/rz_mcu_boards/core_package/generate/system\r_devlink_wrapper.c **** 
  53:D:/Work/DeviceTester/amazon-freertos/lib/third_party/mcu_vendor/renesas/rz_mcu_boards/core_package/generate/system\r_devlink_wrapper.c **** /* The string that is used to differentiate a device name from a file name */
  54:D:/Work/DeviceTester/amazon-freertos/lib/third_party/mcu_vendor/renesas/rz_mcu_boards/core_package/generate/system\r_devlink_wrapper.c **** static const char_t * const gsp_dev_ident = DEVICE_INDENTIFIER;
  55:D:/Work/DeviceTester/amazon-freertos/lib/third_party/mcu_vendor/renesas/rz_mcu_boards/core_package/generate/system\r_devlink_wrapper.c **** 
  56:D:/Work/DeviceTester/amazon-freertos/lib/third_party/mcu_vendor/renesas/rz_mcu_boards/core_package/generate/system\r_devlink_wrapper.c **** /* Define a driver function table for no device */
  57:D:/Work/DeviceTester/amazon-freertos/lib/third_party/mcu_vendor/renesas/rz_mcu_boards/core_package/generate/system\r_devlink_wrapper.c **** static st_r_driver_t gs_no_driver =
  58:D:/Work/DeviceTester/amazon-freertos/lib/third_party/mcu_vendor/renesas/rz_mcu_boards/core_package/generate/system\r_devlink_wrapper.c **** { "No Device Driver", no_dev_open, no_dev_close, no_dev_read, no_dev_write, no_dev_control, no_dev_
  59:D:/Work/DeviceTester/amazon-freertos/lib/third_party/mcu_vendor/renesas/rz_mcu_boards/core_package/generate/system\r_devlink_wrapper.c **** 
  60:D:/Work/DeviceTester/amazon-freertos/lib/third_party/mcu_vendor/renesas/rz_mcu_boards/core_package/generate/system\r_devlink_wrapper.c **** /*
  61:D:/Work/DeviceTester/amazon-freertos/lib/third_party/mcu_vendor/renesas/rz_mcu_boards/core_package/generate/system\r_devlink_wrapper.c ****  * Interface between devlink and lowsrc
  62:D:/Work/DeviceTester/amazon-freertos/lib/third_party/mcu_vendor/renesas/rz_mcu_boards/core_package/generate/system\r_devlink_wrapper.c ****  * Store the lookup table in devlink to allow both direct and posix interfaces to share the same ta
  63:D:/Work/DeviceTester/amazon-freertos/lib/third_party/mcu_vendor/renesas/rz_mcu_boards/core_package/generate/system\r_devlink_wrapper.c ****  */
  64:D:/Work/DeviceTester/amazon-freertos/lib/third_party/mcu_vendor/renesas/rz_mcu_boards/core_package/generate/system\r_devlink_wrapper.c **** static st_stream_t gs_filestream[IOSTREAM];
  65:D:/Work/DeviceTester/amazon-freertos/lib/third_party/mcu_vendor/renesas/rz_mcu_boards/core_package/generate/system\r_devlink_wrapper.c **** 
  66:D:/Work/DeviceTester/amazon-freertos/lib/third_party/mcu_vendor/renesas/rz_mcu_boards/core_package/generate/system\r_devlink_wrapper.c **** /**************************************************************************************************
  67:D:/Work/DeviceTester/amazon-freertos/lib/third_party/mcu_vendor/renesas/rz_mcu_boards/core_package/generate/system\r_devlink_wrapper.c ****  Private global variables and functions
  68:D:/Work/DeviceTester/amazon-freertos/lib/third_party/mcu_vendor/renesas/rz_mcu_boards/core_package/generate/system\r_devlink_wrapper.c ****  **************************************************************************************************
  69:D:/Work/DeviceTester/amazon-freertos/lib/third_party/mcu_vendor/renesas/rz_mcu_boards/core_package/generate/system\r_devlink_wrapper.c **** /* Dummy driver configuration */
  70:D:/Work/DeviceTester/amazon-freertos/lib/third_party/mcu_vendor/renesas/rz_mcu_boards/core_package/generate/system\r_devlink_wrapper.c **** 
  71:D:/Work/DeviceTester/amazon-freertos/lib/third_party/mcu_vendor/renesas/rz_mcu_boards/core_package/generate/system\r_devlink_wrapper.c **** /**************************************************************************************************
  72:D:/Work/DeviceTester/amazon-freertos/lib/third_party/mcu_vendor/renesas/rz_mcu_boards/core_package/generate/system\r_devlink_wrapper.c ****  * Function Name: get_first_free_direct_handle
  73:D:/Work/DeviceTester/amazon-freertos/lib/third_party/mcu_vendor/renesas/rz_mcu_boards/core_package/generate/system\r_devlink_wrapper.c ****  * Description  : Function to get the first free handle from the list maintained
  74:D:/Work/DeviceTester/amazon-freertos/lib/third_party/mcu_vendor/renesas/rz_mcu_boards/core_package/generate/system\r_devlink_wrapper.c ****  *                in the array gs_filestream.
  75:D:/Work/DeviceTester/amazon-freertos/lib/third_party/mcu_vendor/renesas/rz_mcu_boards/core_package/generate/system\r_devlink_wrapper.c ****  * Arguments    : IN pszFileName - Pointer to the file name. This is to reserve the file descriptor
  76:D:/Work/DeviceTester/amazon-freertos/lib/third_party/mcu_vendor/renesas/rz_mcu_boards/core_package/generate/system\r_devlink_wrapper.c ****  *                streams defined in stdio.h, stdin, stdout and stderr
  77:D:/Work/DeviceTester/amazon-freertos/lib/third_party/mcu_vendor/renesas/rz_mcu_boards/core_package/generate/system\r_devlink_wrapper.c ****  * Return Value : File number or -1 on error
  78:D:/Work/DeviceTester/amazon-freertos/lib/third_party/mcu_vendor/renesas/rz_mcu_boards/core_package/generate/system\r_devlink_wrapper.c ****  **************************************************************************************************
  79:D:/Work/DeviceTester/amazon-freertos/lib/third_party/mcu_vendor/renesas/rz_mcu_boards/core_package/generate/system\r_devlink_wrapper.c **** static int_t get_first_free_direct_handle(const char *pszFileName)
  80:D:/Work/DeviceTester/amazon-freertos/lib/third_party/mcu_vendor/renesas/rz_mcu_boards/core_package/generate/system\r_devlink_wrapper.c **** {
  81:D:/Work/DeviceTester/amazon-freertos/lib/third_party/mcu_vendor/renesas/rz_mcu_boards/core_package/generate/system\r_devlink_wrapper.c ****     UNUSED_PARAM(pszFileName);
  82:D:/Work/DeviceTester/amazon-freertos/lib/third_party/mcu_vendor/renesas/rz_mcu_boards/core_package/generate/system\r_devlink_wrapper.c **** 
  83:D:/Work/DeviceTester/amazon-freertos/lib/third_party/mcu_vendor/renesas/rz_mcu_boards/core_package/generate/system\r_devlink_wrapper.c ****     /* Allocate all other file descriptors dynamically */
  84:D:/Work/DeviceTester/amazon-freertos/lib/third_party/mcu_vendor/renesas/rz_mcu_boards/core_package/generate/system\r_devlink_wrapper.c ****     int_t handle = DRV_ERROR;
  85:D:/Work/DeviceTester/amazon-freertos/lib/third_party/mcu_vendor/renesas/rz_mcu_boards/core_package/generate/system\r_devlink_wrapper.c ****     int_t findex;
  86:D:/Work/DeviceTester/amazon-freertos/lib/third_party/mcu_vendor/renesas/rz_mcu_boards/core_package/generate/system\r_devlink_wrapper.c **** 
  87:D:/Work/DeviceTester/amazon-freertos/lib/third_party/mcu_vendor/renesas/rz_mcu_boards/core_package/generate/system\r_devlink_wrapper.c ****     for (findex = FIRST_DIRECT_FILE; findex < IOSTREAM; findex++)
  88:D:/Work/DeviceTester/amazon-freertos/lib/third_party/mcu_vendor/renesas/rz_mcu_boards/core_package/generate/system\r_devlink_wrapper.c ****     {
  89:D:/Work/DeviceTester/amazon-freertos/lib/third_party/mcu_vendor/renesas/rz_mcu_boards/core_package/generate/system\r_devlink_wrapper.c ****         /* NULL signifies that the driver is not loaded */
  90:D:/Work/DeviceTester/amazon-freertos/lib/third_party/mcu_vendor/renesas/rz_mcu_boards/core_package/generate/system\r_devlink_wrapper.c ****         if (NULL == gs_filestream[findex].p_device_driver)
  91:D:/Work/DeviceTester/amazon-freertos/lib/third_party/mcu_vendor/renesas/rz_mcu_boards/core_package/generate/system\r_devlink_wrapper.c ****         {
  92:D:/Work/DeviceTester/amazon-freertos/lib/third_party/mcu_vendor/renesas/rz_mcu_boards/core_package/generate/system\r_devlink_wrapper.c ****             /* First free entry found */
  93:D:/Work/DeviceTester/amazon-freertos/lib/third_party/mcu_vendor/renesas/rz_mcu_boards/core_package/generate/system\r_devlink_wrapper.c ****             handle = findex;
  94:D:/Work/DeviceTester/amazon-freertos/lib/third_party/mcu_vendor/renesas/rz_mcu_boards/core_package/generate/system\r_devlink_wrapper.c **** 
  95:D:/Work/DeviceTester/amazon-freertos/lib/third_party/mcu_vendor/renesas/rz_mcu_boards/core_package/generate/system\r_devlink_wrapper.c ****             /* force the loop to terminate */
  96:D:/Work/DeviceTester/amazon-freertos/lib/third_party/mcu_vendor/renesas/rz_mcu_boards/core_package/generate/system\r_devlink_wrapper.c ****             findex = IOSTREAM + 1;
  97:D:/Work/DeviceTester/amazon-freertos/lib/third_party/mcu_vendor/renesas/rz_mcu_boards/core_package/generate/system\r_devlink_wrapper.c ****         }
  98:D:/Work/DeviceTester/amazon-freertos/lib/third_party/mcu_vendor/renesas/rz_mcu_boards/core_package/generate/system\r_devlink_wrapper.c ****     }
  99:D:/Work/DeviceTester/amazon-freertos/lib/third_party/mcu_vendor/renesas/rz_mcu_boards/core_package/generate/system\r_devlink_wrapper.c ****     return handle;
 100:D:/Work/DeviceTester/amazon-freertos/lib/third_party/mcu_vendor/renesas/rz_mcu_boards/core_package/generate/system\r_devlink_wrapper.c **** }
 101:D:/Work/DeviceTester/amazon-freertos/lib/third_party/mcu_vendor/renesas/rz_mcu_boards/core_package/generate/system\r_devlink_wrapper.c **** /**************************************************************************************************
 102:D:/Work/DeviceTester/amazon-freertos/lib/third_party/mcu_vendor/renesas/rz_mcu_boards/core_package/generate/system\r_devlink_wrapper.c ****  End of function get_first_free_direct_handle
 103:D:/Work/DeviceTester/amazon-freertos/lib/third_party/mcu_vendor/renesas/rz_mcu_boards/core_package/generate/system\r_devlink_wrapper.c ****  **************************************************************************************************
 104:D:/Work/DeviceTester/amazon-freertos/lib/third_party/mcu_vendor/renesas/rz_mcu_boards/core_package/generate/system\r_devlink_wrapper.c **** 
 105:D:/Work/DeviceTester/amazon-freertos/lib/third_party/mcu_vendor/renesas/rz_mcu_boards/core_package/generate/system\r_devlink_wrapper.c **** /**************************************************************************************************
 106:D:/Work/DeviceTester/amazon-freertos/lib/third_party/mcu_vendor/renesas/rz_mcu_boards/core_package/generate/system\r_devlink_wrapper.c ****  * Function Name: get_first_free_call_stdio_handle
 107:D:/Work/DeviceTester/amazon-freertos/lib/third_party/mcu_vendor/renesas/rz_mcu_boards/core_package/generate/system\r_devlink_wrapper.c ****  * Description  : Function to get the first free handle from the list maintained
 108:D:/Work/DeviceTester/amazon-freertos/lib/third_party/mcu_vendor/renesas/rz_mcu_boards/core_package/generate/system\r_devlink_wrapper.c ****  *                in the array gs_filestream.
 109:D:/Work/DeviceTester/amazon-freertos/lib/third_party/mcu_vendor/renesas/rz_mcu_boards/core_package/generate/system\r_devlink_wrapper.c ****  * Arguments    : IN pszFileName - Pointer to the file name. This is to reserve the file descriptor
 110:D:/Work/DeviceTester/amazon-freertos/lib/third_party/mcu_vendor/renesas/rz_mcu_boards/core_package/generate/system\r_devlink_wrapper.c ****  *                streams defined in stdio.h, stdin, stdout and stderr
 111:D:/Work/DeviceTester/amazon-freertos/lib/third_party/mcu_vendor/renesas/rz_mcu_boards/core_package/generate/system\r_devlink_wrapper.c ****  * Return Value : File number or -1 on error
 112:D:/Work/DeviceTester/amazon-freertos/lib/third_party/mcu_vendor/renesas/rz_mcu_boards/core_package/generate/system\r_devlink_wrapper.c ****  **************************************************************************************************
 113:D:/Work/DeviceTester/amazon-freertos/lib/third_party/mcu_vendor/renesas/rz_mcu_boards/core_package/generate/system\r_devlink_wrapper.c **** static int_t get_first_free_call_stdio_handle(const char *pszFileName)
 114:D:/Work/DeviceTester/amazon-freertos/lib/third_party/mcu_vendor/renesas/rz_mcu_boards/core_package/generate/system\r_devlink_wrapper.c **** {
 115:D:/Work/DeviceTester/amazon-freertos/lib/third_party/mcu_vendor/renesas/rz_mcu_boards/core_package/generate/system\r_devlink_wrapper.c ****     UNUSED_PARAM(pszFileName);
 116:D:/Work/DeviceTester/amazon-freertos/lib/third_party/mcu_vendor/renesas/rz_mcu_boards/core_package/generate/system\r_devlink_wrapper.c **** 
 117:D:/Work/DeviceTester/amazon-freertos/lib/third_party/mcu_vendor/renesas/rz_mcu_boards/core_package/generate/system\r_devlink_wrapper.c ****     /* Allocate all other file descriptors dynamically */
 118:D:/Work/DeviceTester/amazon-freertos/lib/third_party/mcu_vendor/renesas/rz_mcu_boards/core_package/generate/system\r_devlink_wrapper.c ****     int_t handle = DRV_ERROR;
 119:D:/Work/DeviceTester/amazon-freertos/lib/third_party/mcu_vendor/renesas/rz_mcu_boards/core_package/generate/system\r_devlink_wrapper.c ****     int_t findex;
 120:D:/Work/DeviceTester/amazon-freertos/lib/third_party/mcu_vendor/renesas/rz_mcu_boards/core_package/generate/system\r_devlink_wrapper.c **** 
 121:D:/Work/DeviceTester/amazon-freertos/lib/third_party/mcu_vendor/renesas/rz_mcu_boards/core_package/generate/system\r_devlink_wrapper.c ****     for (findex = FIRST_FILE; findex < IOSTREAM; findex++)
 122:D:/Work/DeviceTester/amazon-freertos/lib/third_party/mcu_vendor/renesas/rz_mcu_boards/core_package/generate/system\r_devlink_wrapper.c ****     {
 123:D:/Work/DeviceTester/amazon-freertos/lib/third_party/mcu_vendor/renesas/rz_mcu_boards/core_package/generate/system\r_devlink_wrapper.c ****         /* NULL signifies that the driver is not loaded */
 124:D:/Work/DeviceTester/amazon-freertos/lib/third_party/mcu_vendor/renesas/rz_mcu_boards/core_package/generate/system\r_devlink_wrapper.c ****         if (NULL == gs_filestream[findex].p_device_driver)
 125:D:/Work/DeviceTester/amazon-freertos/lib/third_party/mcu_vendor/renesas/rz_mcu_boards/core_package/generate/system\r_devlink_wrapper.c ****         {
 126:D:/Work/DeviceTester/amazon-freertos/lib/third_party/mcu_vendor/renesas/rz_mcu_boards/core_package/generate/system\r_devlink_wrapper.c ****             /* First free entry found */
 127:D:/Work/DeviceTester/amazon-freertos/lib/third_party/mcu_vendor/renesas/rz_mcu_boards/core_package/generate/system\r_devlink_wrapper.c ****             handle = findex;
 128:D:/Work/DeviceTester/amazon-freertos/lib/third_party/mcu_vendor/renesas/rz_mcu_boards/core_package/generate/system\r_devlink_wrapper.c **** 
 129:D:/Work/DeviceTester/amazon-freertos/lib/third_party/mcu_vendor/renesas/rz_mcu_boards/core_package/generate/system\r_devlink_wrapper.c ****             /* force the loop to terminate */
 130:D:/Work/DeviceTester/amazon-freertos/lib/third_party/mcu_vendor/renesas/rz_mcu_boards/core_package/generate/system\r_devlink_wrapper.c ****             findex = IOSTREAM + 1;
 131:D:/Work/DeviceTester/amazon-freertos/lib/third_party/mcu_vendor/renesas/rz_mcu_boards/core_package/generate/system\r_devlink_wrapper.c ****         }
 132:D:/Work/DeviceTester/amazon-freertos/lib/third_party/mcu_vendor/renesas/rz_mcu_boards/core_package/generate/system\r_devlink_wrapper.c ****     }
 133:D:/Work/DeviceTester/amazon-freertos/lib/third_party/mcu_vendor/renesas/rz_mcu_boards/core_package/generate/system\r_devlink_wrapper.c ****     return handle;
 134:D:/Work/DeviceTester/amazon-freertos/lib/third_party/mcu_vendor/renesas/rz_mcu_boards/core_package/generate/system\r_devlink_wrapper.c **** }
 135:D:/Work/DeviceTester/amazon-freertos/lib/third_party/mcu_vendor/renesas/rz_mcu_boards/core_package/generate/system\r_devlink_wrapper.c **** /**************************************************************************************************
 136:D:/Work/DeviceTester/amazon-freertos/lib/third_party/mcu_vendor/renesas/rz_mcu_boards/core_package/generate/system\r_devlink_wrapper.c ****  End of function get_first_free_call_stdio_handle
 137:D:/Work/DeviceTester/amazon-freertos/lib/third_party/mcu_vendor/renesas/rz_mcu_boards/core_package/generate/system\r_devlink_wrapper.c ****  **************************************************************************************************
 138:D:/Work/DeviceTester/amazon-freertos/lib/third_party/mcu_vendor/renesas/rz_mcu_boards/core_package/generate/system\r_devlink_wrapper.c **** 
 139:D:/Work/DeviceTester/amazon-freertos/lib/third_party/mcu_vendor/renesas/rz_mcu_boards/core_package/generate/system\r_devlink_wrapper.c **** #ifdef UNUSED_CODE_20200521
 140:D:/Work/DeviceTester/amazon-freertos/lib/third_party/mcu_vendor/renesas/rz_mcu_boards/core_package/generate/system\r_devlink_wrapper.c **** /**************************************************************************************************
 141:D:/Work/DeviceTester/amazon-freertos/lib/third_party/mcu_vendor/renesas/rz_mcu_boards/core_package/generate/system\r_devlink_wrapper.c ****  * Function Name: check_open
 142:D:/Work/DeviceTester/amazon-freertos/lib/third_party/mcu_vendor/renesas/rz_mcu_boards/core_package/generate/system\r_devlink_wrapper.c ****  * Description  : Function to find out if a device driver is open
 143:D:/Work/DeviceTester/amazon-freertos/lib/third_party/mcu_vendor/renesas/rz_mcu_boards/core_package/generate/system\r_devlink_wrapper.c ****  * Arguments    : IN  pDeviceDriver - Pointer to the device driver
 144:D:/Work/DeviceTester/amazon-freertos/lib/third_party/mcu_vendor/renesas/rz_mcu_boards/core_package/generate/system\r_devlink_wrapper.c ****  *                IN  pszLinkName - Pointer to the link name
 145:D:/Work/DeviceTester/amazon-freertos/lib/third_party/mcu_vendor/renesas/rz_mcu_boards/core_package/generate/system\r_devlink_wrapper.c ****  * Return Value : true if the device is open
 146:D:/Work/DeviceTester/amazon-freertos/lib/third_party/mcu_vendor/renesas/rz_mcu_boards/core_package/generate/system\r_devlink_wrapper.c ****  **************************************************************************************************
 147:D:/Work/DeviceTester/amazon-freertos/lib/third_party/mcu_vendor/renesas/rz_mcu_boards/core_package/generate/system\r_devlink_wrapper.c **** static bool_t check_open(st_r_driver_t *pDeviceDriver, char *pszLinkName)
 148:D:/Work/DeviceTester/amazon-freertos/lib/third_party/mcu_vendor/renesas/rz_mcu_boards/core_package/generate/system\r_devlink_wrapper.c **** {
 149:D:/Work/DeviceTester/amazon-freertos/lib/third_party/mcu_vendor/renesas/rz_mcu_boards/core_package/generate/system\r_devlink_wrapper.c ****     int_t index = FOPEN_MAX;
 150:D:/Work/DeviceTester/amazon-freertos/lib/third_party/mcu_vendor/renesas/rz_mcu_boards/core_package/generate/system\r_devlink_wrapper.c **** 
 151:D:/Work/DeviceTester/amazon-freertos/lib/third_party/mcu_vendor/renesas/rz_mcu_boards/core_package/generate/system\r_devlink_wrapper.c ****     /* For each file stream */
 152:D:/Work/DeviceTester/amazon-freertos/lib/third_party/mcu_vendor/renesas/rz_mcu_boards/core_package/generate/system\r_devlink_wrapper.c ****     while (index--)
 153:D:/Work/DeviceTester/amazon-freertos/lib/third_party/mcu_vendor/renesas/rz_mcu_boards/core_package/generate/system\r_devlink_wrapper.c ****     {
 154:D:/Work/DeviceTester/amazon-freertos/lib/third_party/mcu_vendor/renesas/rz_mcu_boards/core_package/generate/system\r_devlink_wrapper.c ****         if (gs_filestream[index].p_device_driver == pDeviceDriver)
 155:D:/Work/DeviceTester/amazon-freertos/lib/third_party/mcu_vendor/renesas/rz_mcu_boards/core_package/generate/system\r_devlink_wrapper.c ****         {
 156:D:/Work/DeviceTester/amazon-freertos/lib/third_party/mcu_vendor/renesas/rz_mcu_boards/core_package/generate/system\r_devlink_wrapper.c ****             if (strcmp(gs_filestream[index].p_stream_name, pszLinkName) == 0)
 157:D:/Work/DeviceTester/amazon-freertos/lib/third_party/mcu_vendor/renesas/rz_mcu_boards/core_package/generate/system\r_devlink_wrapper.c ****             {
 158:D:/Work/DeviceTester/amazon-freertos/lib/third_party/mcu_vendor/renesas/rz_mcu_boards/core_package/generate/system\r_devlink_wrapper.c ****                 return true;
 159:D:/Work/DeviceTester/amazon-freertos/lib/third_party/mcu_vendor/renesas/rz_mcu_boards/core_package/generate/system\r_devlink_wrapper.c ****             }
 160:D:/Work/DeviceTester/amazon-freertos/lib/third_party/mcu_vendor/renesas/rz_mcu_boards/core_package/generate/system\r_devlink_wrapper.c ****         }
 161:D:/Work/DeviceTester/amazon-freertos/lib/third_party/mcu_vendor/renesas/rz_mcu_boards/core_package/generate/system\r_devlink_wrapper.c ****     }
 162:D:/Work/DeviceTester/amazon-freertos/lib/third_party/mcu_vendor/renesas/rz_mcu_boards/core_package/generate/system\r_devlink_wrapper.c ****     return false;
 163:D:/Work/DeviceTester/amazon-freertos/lib/third_party/mcu_vendor/renesas/rz_mcu_boards/core_package/generate/system\r_devlink_wrapper.c **** }
 164:D:/Work/DeviceTester/amazon-freertos/lib/third_party/mcu_vendor/renesas/rz_mcu_boards/core_package/generate/system\r_devlink_wrapper.c **** /**************************************************************************************************
 165:D:/Work/DeviceTester/amazon-freertos/lib/third_party/mcu_vendor/renesas/rz_mcu_boards/core_package/generate/system\r_devlink_wrapper.c ****  End of function  check_open
 166:D:/Work/DeviceTester/amazon-freertos/lib/third_party/mcu_vendor/renesas/rz_mcu_boards/core_package/generate/system\r_devlink_wrapper.c ****  **************************************************************************************************
 167:D:/Work/DeviceTester/amazon-freertos/lib/third_party/mcu_vendor/renesas/rz_mcu_boards/core_package/generate/system\r_devlink_wrapper.c **** 
 168:D:/Work/DeviceTester/amazon-freertos/lib/third_party/mcu_vendor/renesas/rz_mcu_boards/core_package/generate/system\r_devlink_wrapper.c **** /**************************************************************************************************
 169:D:/Work/DeviceTester/amazon-freertos/lib/third_party/mcu_vendor/renesas/rz_mcu_boards/core_package/generate/system\r_devlink_wrapper.c ****  * Function Name: close_all
 170:D:/Work/DeviceTester/amazon-freertos/lib/third_party/mcu_vendor/renesas/rz_mcu_boards/core_package/generate/system\r_devlink_wrapper.c ****  * Description  : Function to close all files of a given name
 171:D:/Work/DeviceTester/amazon-freertos/lib/third_party/mcu_vendor/renesas/rz_mcu_boards/core_package/generate/system\r_devlink_wrapper.c ****  * Arguments    : IN  pszStreamName - Pointer to the stream name to close
 172:D:/Work/DeviceTester/amazon-freertos/lib/third_party/mcu_vendor/renesas/rz_mcu_boards/core_package/generate/system\r_devlink_wrapper.c ****  * Return Value : none
 173:D:/Work/DeviceTester/amazon-freertos/lib/third_party/mcu_vendor/renesas/rz_mcu_boards/core_package/generate/system\r_devlink_wrapper.c ****  **************************************************************************************************
 174:D:/Work/DeviceTester/amazon-freertos/lib/third_party/mcu_vendor/renesas/rz_mcu_boards/core_package/generate/system\r_devlink_wrapper.c **** static void close_all(char_t *pszStreamName)
 175:D:/Work/DeviceTester/amazon-freertos/lib/third_party/mcu_vendor/renesas/rz_mcu_boards/core_package/generate/system\r_devlink_wrapper.c **** {
 176:D:/Work/DeviceTester/amazon-freertos/lib/third_party/mcu_vendor/renesas/rz_mcu_boards/core_package/generate/system\r_devlink_wrapper.c ****     int_t index = FOPEN_MAX;
 177:D:/Work/DeviceTester/amazon-freertos/lib/third_party/mcu_vendor/renesas/rz_mcu_boards/core_package/generate/system\r_devlink_wrapper.c **** 
 178:D:/Work/DeviceTester/amazon-freertos/lib/third_party/mcu_vendor/renesas/rz_mcu_boards/core_package/generate/system\r_devlink_wrapper.c ****     /* For each file stream */
 179:D:/Work/DeviceTester/amazon-freertos/lib/third_party/mcu_vendor/renesas/rz_mcu_boards/core_package/generate/system\r_devlink_wrapper.c ****     while (index--)
 180:D:/Work/DeviceTester/amazon-freertos/lib/third_party/mcu_vendor/renesas/rz_mcu_boards/core_package/generate/system\r_devlink_wrapper.c ****     {
 181:D:/Work/DeviceTester/amazon-freertos/lib/third_party/mcu_vendor/renesas/rz_mcu_boards/core_package/generate/system\r_devlink_wrapper.c ****         /* If the device is open */
 182:D:/Work/DeviceTester/amazon-freertos/lib/third_party/mcu_vendor/renesas/rz_mcu_boards/core_package/generate/system\r_devlink_wrapper.c ****         if ((gs_filestream[index].p_device_driver)
 183:D:/Work/DeviceTester/amazon-freertos/lib/third_party/mcu_vendor/renesas/rz_mcu_boards/core_package/generate/system\r_devlink_wrapper.c **** 
 184:D:/Work/DeviceTester/amazon-freertos/lib/third_party/mcu_vendor/renesas/rz_mcu_boards/core_package/generate/system\r_devlink_wrapper.c ****                 /* Check the link name */
 185:D:/Work/DeviceTester/amazon-freertos/lib/third_party/mcu_vendor/renesas/rz_mcu_boards/core_package/generate/system\r_devlink_wrapper.c ****                 && (strcmp(pszStreamName, gs_filestream[index].p_stream_name) == 0))
 186:D:/Work/DeviceTester/amazon-freertos/lib/third_party/mcu_vendor/renesas/rz_mcu_boards/core_package/generate/system\r_devlink_wrapper.c ****         {
 187:D:/Work/DeviceTester/amazon-freertos/lib/third_party/mcu_vendor/renesas/rz_mcu_boards/core_package/generate/system\r_devlink_wrapper.c ****             /* Previously this directly hit the low
 188:D:/Work/DeviceTester/amazon-freertos/lib/third_party/mcu_vendor/renesas/rz_mcu_boards/core_package/generate/system\r_devlink_wrapper.c ****              * level close function, but left the OS level file
 189:D:/Work/DeviceTester/amazon-freertos/lib/third_party/mcu_vendor/renesas/rz_mcu_boards/core_package/generate/system\r_devlink_wrapper.c ****              * open creating a synchronising issue. Modified 020615 to call
 190:D:/Work/DeviceTester/amazon-freertos/lib/third_party/mcu_vendor/renesas/rz_mcu_boards/core_package/generate/system\r_devlink_wrapper.c ****              * the OS level close function
 191:D:/Work/DeviceTester/amazon-freertos/lib/third_party/mcu_vendor/renesas/rz_mcu_boards/core_package/generate/system\r_devlink_wrapper.c ****              * Previous code line: low_close(filestream[iindex].file_number);*/
 192:D:/Work/DeviceTester/amazon-freertos/lib/third_party/mcu_vendor/renesas/rz_mcu_boards/core_package/generate/system\r_devlink_wrapper.c **** 
 193:D:/Work/DeviceTester/amazon-freertos/lib/third_party/mcu_vendor/renesas/rz_mcu_boards/core_package/generate/system\r_devlink_wrapper.c ****             direct_close(gs_filestream[index].file_number);
 194:D:/Work/DeviceTester/amazon-freertos/lib/third_party/mcu_vendor/renesas/rz_mcu_boards/core_package/generate/system\r_devlink_wrapper.c ****         }
 195:D:/Work/DeviceTester/amazon-freertos/lib/third_party/mcu_vendor/renesas/rz_mcu_boards/core_package/generate/system\r_devlink_wrapper.c ****     }
 196:D:/Work/DeviceTester/amazon-freertos/lib/third_party/mcu_vendor/renesas/rz_mcu_boards/core_package/generate/system\r_devlink_wrapper.c **** }
 197:D:/Work/DeviceTester/amazon-freertos/lib/third_party/mcu_vendor/renesas/rz_mcu_boards/core_package/generate/system\r_devlink_wrapper.c **** /**************************************************************************************************
 198:D:/Work/DeviceTester/amazon-freertos/lib/third_party/mcu_vendor/renesas/rz_mcu_boards/core_package/generate/system\r_devlink_wrapper.c ****  End of function  close_all
 199:D:/Work/DeviceTester/amazon-freertos/lib/third_party/mcu_vendor/renesas/rz_mcu_boards/core_package/generate/system\r_devlink_wrapper.c ****  **************************************************************************************************
 200:D:/Work/DeviceTester/amazon-freertos/lib/third_party/mcu_vendor/renesas/rz_mcu_boards/core_package/generate/system\r_devlink_wrapper.c **** #endif /* UNUSED_CODE_20200521 */
 201:D:/Work/DeviceTester/amazon-freertos/lib/third_party/mcu_vendor/renesas/rz_mcu_boards/core_package/generate/system\r_devlink_wrapper.c **** 
 202:D:/Work/DeviceTester/amazon-freertos/lib/third_party/mcu_vendor/renesas/rz_mcu_boards/core_package/generate/system\r_devlink_wrapper.c **** /**************************************************************************************************
 203:D:/Work/DeviceTester/amazon-freertos/lib/third_party/mcu_vendor/renesas/rz_mcu_boards/core_package/generate/system\r_devlink_wrapper.c ****  * Function Name: dev_get_pointer
 204:D:/Work/DeviceTester/amazon-freertos/lib/third_party/mcu_vendor/renesas/rz_mcu_boards/core_package/generate/system\r_devlink_wrapper.c ****  * Description  : Function to get a pointer to the open, close, read, write, control and get_versio
 205:D:/Work/DeviceTester/amazon-freertos/lib/third_party/mcu_vendor/renesas/rz_mcu_boards/core_package/generate/system\r_devlink_wrapper.c ****  * Arguments    : IN  pszLinkName - Pointer to the link name
 206:D:/Work/DeviceTester/amazon-freertos/lib/third_party/mcu_vendor/renesas/rz_mcu_boards/core_package/generate/system\r_devlink_wrapper.c ****  *                OUT p_stream_name - Pointer to the device link name
 207:D:/Work/DeviceTester/amazon-freertos/lib/third_party/mcu_vendor/renesas/rz_mcu_boards/core_package/generate/system\r_devlink_wrapper.c ****  * Return Value : Pointer to the device or NULL on error
 208:D:/Work/DeviceTester/amazon-freertos/lib/third_party/mcu_vendor/renesas/rz_mcu_boards/core_package/generate/system\r_devlink_wrapper.c ****  **************************************************************************************************
 209:D:/Work/DeviceTester/amazon-freertos/lib/third_party/mcu_vendor/renesas/rz_mcu_boards/core_package/generate/system\r_devlink_wrapper.c **** static st_r_driver_t * dev_get_pointer(char *pszLinkName, char **p_stream_name, uint32_t *sc_index_
 210:D:/Work/DeviceTester/amazon-freertos/lib/third_party/mcu_vendor/renesas/rz_mcu_boards/core_package/generate/system\r_devlink_wrapper.c **** {
 211:D:/Work/DeviceTester/amazon-freertos/lib/third_party/mcu_vendor/renesas/rz_mcu_boards/core_package/generate/system\r_devlink_wrapper.c ****     /* NULL signifies that the driver is not loaded */
 212:D:/Work/DeviceTester/amazon-freertos/lib/third_party/mcu_vendor/renesas/rz_mcu_boards/core_package/generate/system\r_devlink_wrapper.c ****     st_r_driver_t * p_device_driver = NULL;
 213:D:/Work/DeviceTester/amazon-freertos/lib/third_party/mcu_vendor/renesas/rz_mcu_boards/core_package/generate/system\r_devlink_wrapper.c ****     int_t device = (sizeof(gs_mount_table)) / sizeof(struct _mount_table_t);
 214:D:/Work/DeviceTester/amazon-freertos/lib/third_party/mcu_vendor/renesas/rz_mcu_boards/core_package/generate/system\r_devlink_wrapper.c **** 
 215:D:/Work/DeviceTester/amazon-freertos/lib/third_party/mcu_vendor/renesas/rz_mcu_boards/core_package/generate/system\r_devlink_wrapper.c ****     /* First, search through all the static devices in the mount table */
 216:D:/Work/DeviceTester/amazon-freertos/lib/third_party/mcu_vendor/renesas/rz_mcu_boards/core_package/generate/system\r_devlink_wrapper.c ****     while (device--)
 217:D:/Work/DeviceTester/amazon-freertos/lib/third_party/mcu_vendor/renesas/rz_mcu_boards/core_package/generate/system\r_devlink_wrapper.c ****     {
 218:D:/Work/DeviceTester/amazon-freertos/lib/third_party/mcu_vendor/renesas/rz_mcu_boards/core_package/generate/system\r_devlink_wrapper.c ****         if (strcmp (pszLinkName, gs_mount_table[device].p_stream_name) == 0)
 219:D:/Work/DeviceTester/amazon-freertos/lib/third_party/mcu_vendor/renesas/rz_mcu_boards/core_package/generate/system\r_devlink_wrapper.c ****         {
 220:D:/Work/DeviceTester/amazon-freertos/lib/third_party/mcu_vendor/renesas/rz_mcu_boards/core_package/generate/system\r_devlink_wrapper.c ****             /* remove the const is necessary for assignment */
 221:D:/Work/DeviceTester/amazon-freertos/lib/third_party/mcu_vendor/renesas/rz_mcu_boards/core_package/generate/system\r_devlink_wrapper.c ****             *p_stream_name = (char *) gs_mount_table[device].p_stream_name;
 222:D:/Work/DeviceTester/amazon-freertos/lib/third_party/mcu_vendor/renesas/rz_mcu_boards/core_package/generate/system\r_devlink_wrapper.c ****             *sc_index_ptr = gs_mount_table[device].sc_config_index;
 223:D:/Work/DeviceTester/amazon-freertos/lib/third_party/mcu_vendor/renesas/rz_mcu_boards/core_package/generate/system\r_devlink_wrapper.c **** 
 224:D:/Work/DeviceTester/amazon-freertos/lib/third_party/mcu_vendor/renesas/rz_mcu_boards/core_package/generate/system\r_devlink_wrapper.c ****             /* const needs removing */
 225:D:/Work/DeviceTester/amazon-freertos/lib/third_party/mcu_vendor/renesas/rz_mcu_boards/core_package/generate/system\r_devlink_wrapper.c ****             return (st_r_driver_t *) gs_mount_table[device].p_device_driver;
 226:D:/Work/DeviceTester/amazon-freertos/lib/third_party/mcu_vendor/renesas/rz_mcu_boards/core_package/generate/system\r_devlink_wrapper.c ****         }
 227:D:/Work/DeviceTester/amazon-freertos/lib/third_party/mcu_vendor/renesas/rz_mcu_boards/core_package/generate/system\r_devlink_wrapper.c ****     }
 228:D:/Work/DeviceTester/amazon-freertos/lib/third_party/mcu_vendor/renesas/rz_mcu_boards/core_package/generate/system\r_devlink_wrapper.c **** 
 229:D:/Work/DeviceTester/amazon-freertos/lib/third_party/mcu_vendor/renesas/rz_mcu_boards/core_package/generate/system\r_devlink_wrapper.c ****     /* Device not found */
 230:D:/Work/DeviceTester/amazon-freertos/lib/third_party/mcu_vendor/renesas/rz_mcu_boards/core_package/generate/system\r_devlink_wrapper.c ****     return (p_device_driver);
 231:D:/Work/DeviceTester/amazon-freertos/lib/third_party/mcu_vendor/renesas/rz_mcu_boards/core_package/generate/system\r_devlink_wrapper.c **** }
 232:D:/Work/DeviceTester/amazon-freertos/lib/third_party/mcu_vendor/renesas/rz_mcu_boards/core_package/generate/system\r_devlink_wrapper.c **** /**************************************************************************************************
 233:D:/Work/DeviceTester/amazon-freertos/lib/third_party/mcu_vendor/renesas/rz_mcu_boards/core_package/generate/system\r_devlink_wrapper.c ****  End of function dev_get_pointer
 234:D:/Work/DeviceTester/amazon-freertos/lib/third_party/mcu_vendor/renesas/rz_mcu_boards/core_package/generate/system\r_devlink_wrapper.c ****  **************************************************************************************************
 235:D:/Work/DeviceTester/amazon-freertos/lib/third_party/mcu_vendor/renesas/rz_mcu_boards/core_package/generate/system\r_devlink_wrapper.c **** 
 236:D:/Work/DeviceTester/amazon-freertos/lib/third_party/mcu_vendor/renesas/rz_mcu_boards/core_package/generate/system\r_devlink_wrapper.c **** /**************************************************************************************************
 237:D:/Work/DeviceTester/amazon-freertos/lib/third_party/mcu_vendor/renesas/rz_mcu_boards/core_package/generate/system\r_devlink_wrapper.c ****  * Function Name: get_device_name
 238:D:/Work/DeviceTester/amazon-freertos/lib/third_party/mcu_vendor/renesas/rz_mcu_boards/core_package/generate/system\r_devlink_wrapper.c ****  * Description  : Function to see if the file name supplied is for a device
 239:D:/Work/DeviceTester/amazon-freertos/lib/third_party/mcu_vendor/renesas/rz_mcu_boards/core_package/generate/system\r_devlink_wrapper.c ****  * Arguments    : IN  pszFileName - Pointer to the file name
 240:D:/Work/DeviceTester/amazon-freertos/lib/third_party/mcu_vendor/renesas/rz_mcu_boards/core_package/generate/system\r_devlink_wrapper.c ****  * Return Value : Pointer to the device link name or NULL on failure
 241:D:/Work/DeviceTester/amazon-freertos/lib/third_party/mcu_vendor/renesas/rz_mcu_boards/core_package/generate/system\r_devlink_wrapper.c ****  **************************************************************************************************
 242:D:/Work/DeviceTester/amazon-freertos/lib/third_party/mcu_vendor/renesas/rz_mcu_boards/core_package/generate/system\r_devlink_wrapper.c **** static char_t * get_device_name(const char *pszFileName)
 243:D:/Work/DeviceTester/amazon-freertos/lib/third_party/mcu_vendor/renesas/rz_mcu_boards/core_package/generate/system\r_devlink_wrapper.c **** {
 244:D:/Work/DeviceTester/amazon-freertos/lib/third_party/mcu_vendor/renesas/rz_mcu_boards/core_package/generate/system\r_devlink_wrapper.c ****     /* NULL signifies that the driver name is not found */
 245:D:/Work/DeviceTester/amazon-freertos/lib/third_party/mcu_vendor/renesas/rz_mcu_boards/core_package/generate/system\r_devlink_wrapper.c ****     char_t * p_name = NULL;
 246:D:/Work/DeviceTester/amazon-freertos/lib/third_party/mcu_vendor/renesas/rz_mcu_boards/core_package/generate/system\r_devlink_wrapper.c **** 
 247:D:/Work/DeviceTester/amazon-freertos/lib/third_party/mcu_vendor/renesas/rz_mcu_boards/core_package/generate/system\r_devlink_wrapper.c ****     if (strstr (pszFileName, gsp_dev_ident) == pszFileName)
 248:D:/Work/DeviceTester/amazon-freertos/lib/third_party/mcu_vendor/renesas/rz_mcu_boards/core_package/generate/system\r_devlink_wrapper.c ****     {
 249:D:/Work/DeviceTester/amazon-freertos/lib/third_party/mcu_vendor/renesas/rz_mcu_boards/core_package/generate/system\r_devlink_wrapper.c ****         /* NULL signifies that the driver name is not found */
 250:D:/Work/DeviceTester/amazon-freertos/lib/third_party/mcu_vendor/renesas/rz_mcu_boards/core_package/generate/system\r_devlink_wrapper.c ****         p_name = (char_t *) (pszFileName += (sizeof(gsp_dev_ident)));
 251:D:/Work/DeviceTester/amazon-freertos/lib/third_party/mcu_vendor/renesas/rz_mcu_boards/core_package/generate/system\r_devlink_wrapper.c ****     }
 252:D:/Work/DeviceTester/amazon-freertos/lib/third_party/mcu_vendor/renesas/rz_mcu_boards/core_package/generate/system\r_devlink_wrapper.c **** 
 253:D:/Work/DeviceTester/amazon-freertos/lib/third_party/mcu_vendor/renesas/rz_mcu_boards/core_package/generate/system\r_devlink_wrapper.c ****     return (p_name);
 254:D:/Work/DeviceTester/amazon-freertos/lib/third_party/mcu_vendor/renesas/rz_mcu_boards/core_package/generate/system\r_devlink_wrapper.c **** }
 255:D:/Work/DeviceTester/amazon-freertos/lib/third_party/mcu_vendor/renesas/rz_mcu_boards/core_package/generate/system\r_devlink_wrapper.c **** /**************************************************************************************************
 256:D:/Work/DeviceTester/amazon-freertos/lib/third_party/mcu_vendor/renesas/rz_mcu_boards/core_package/generate/system\r_devlink_wrapper.c ****  End of function  get_device_name
 257:D:/Work/DeviceTester/amazon-freertos/lib/third_party/mcu_vendor/renesas/rz_mcu_boards/core_package/generate/system\r_devlink_wrapper.c ****  **************************************************************************************************
 258:D:/Work/DeviceTester/amazon-freertos/lib/third_party/mcu_vendor/renesas/rz_mcu_boards/core_package/generate/system\r_devlink_wrapper.c **** 
 259:D:/Work/DeviceTester/amazon-freertos/lib/third_party/mcu_vendor/renesas/rz_mcu_boards/core_package/generate/system\r_devlink_wrapper.c **** /**************************************************************************************************
 260:D:/Work/DeviceTester/amazon-freertos/lib/third_party/mcu_vendor/renesas/rz_mcu_boards/core_package/generate/system\r_devlink_wrapper.c ****  * Function Name: get_device_stream_from_handle
 261:D:/Work/DeviceTester/amazon-freertos/lib/third_party/mcu_vendor/renesas/rz_mcu_boards/core_package/generate/system\r_devlink_wrapper.c ****  * Description  : Function to see if the file name supplied is for a device
 262:D:/Work/DeviceTester/amazon-freertos/lib/third_party/mcu_vendor/renesas/rz_mcu_boards/core_package/generate/system\r_devlink_wrapper.c ****  * Arguments    : [IN] handle - The index to the driver to check taken from the gs_filestream
 263:D:/Work/DeviceTester/amazon-freertos/lib/third_party/mcu_vendor/renesas/rz_mcu_boards/core_package/generate/system\r_devlink_wrapper.c ****  * Return Value : DRV_SUCCESS - Hand is valid and in use
 264:D:/Work/DeviceTester/amazon-freertos/lib/third_party/mcu_vendor/renesas/rz_mcu_boards/core_package/generate/system\r_devlink_wrapper.c ****  *                DRV_ERROR - handle not in use
 265:D:/Work/DeviceTester/amazon-freertos/lib/third_party/mcu_vendor/renesas/rz_mcu_boards/core_package/generate/system\r_devlink_wrapper.c ****  **************************************************************************************************
 266:D:/Work/DeviceTester/amazon-freertos/lib/third_party/mcu_vendor/renesas/rz_mcu_boards/core_package/generate/system\r_devlink_wrapper.c **** static st_stream_ptr_t get_device_stream_from_handle(const int_t h)
 267:D:/Work/DeviceTester/amazon-freertos/lib/third_party/mcu_vendor/renesas/rz_mcu_boards/core_package/generate/system\r_devlink_wrapper.c **** {
 268:D:/Work/DeviceTester/amazon-freertos/lib/third_party/mcu_vendor/renesas/rz_mcu_boards/core_package/generate/system\r_devlink_wrapper.c ****     /* NULL signifies that the driver is not loaded */
 269:D:/Work/DeviceTester/amazon-freertos/lib/third_party/mcu_vendor/renesas/rz_mcu_boards/core_package/generate/system\r_devlink_wrapper.c ****     st_stream_ptr_t pstream = NULL;
 270:D:/Work/DeviceTester/amazon-freertos/lib/third_party/mcu_vendor/renesas/rz_mcu_boards/core_package/generate/system\r_devlink_wrapper.c **** 
 271:D:/Work/DeviceTester/amazon-freertos/lib/third_party/mcu_vendor/renesas/rz_mcu_boards/core_package/generate/system\r_devlink_wrapper.c ****     if ((h >= 0) && (h < IOSTREAM))
 272:D:/Work/DeviceTester/amazon-freertos/lib/third_party/mcu_vendor/renesas/rz_mcu_boards/core_package/generate/system\r_devlink_wrapper.c ****     {
 273:D:/Work/DeviceTester/amazon-freertos/lib/third_party/mcu_vendor/renesas/rz_mcu_boards/core_package/generate/system\r_devlink_wrapper.c ****         /* NULL signifies that the driver is not loaded */
 274:D:/Work/DeviceTester/amazon-freertos/lib/third_party/mcu_vendor/renesas/rz_mcu_boards/core_package/generate/system\r_devlink_wrapper.c ****         if (NULL != gs_filestream[h].p_device_driver)
 275:D:/Work/DeviceTester/amazon-freertos/lib/third_party/mcu_vendor/renesas/rz_mcu_boards/core_package/generate/system\r_devlink_wrapper.c ****         {
 276:D:/Work/DeviceTester/amazon-freertos/lib/third_party/mcu_vendor/renesas/rz_mcu_boards/core_package/generate/system\r_devlink_wrapper.c ****             /* handle found */
 277:D:/Work/DeviceTester/amazon-freertos/lib/third_party/mcu_vendor/renesas/rz_mcu_boards/core_package/generate/system\r_devlink_wrapper.c ****             pstream = &gs_filestream[h];
 278:D:/Work/DeviceTester/amazon-freertos/lib/third_party/mcu_vendor/renesas/rz_mcu_boards/core_package/generate/system\r_devlink_wrapper.c ****         }
 279:D:/Work/DeviceTester/amazon-freertos/lib/third_party/mcu_vendor/renesas/rz_mcu_boards/core_package/generate/system\r_devlink_wrapper.c ****     }
 280:D:/Work/DeviceTester/amazon-freertos/lib/third_party/mcu_vendor/renesas/rz_mcu_boards/core_package/generate/system\r_devlink_wrapper.c ****     return (pstream);
 281:D:/Work/DeviceTester/amazon-freertos/lib/third_party/mcu_vendor/renesas/rz_mcu_boards/core_package/generate/system\r_devlink_wrapper.c **** }
 282:D:/Work/DeviceTester/amazon-freertos/lib/third_party/mcu_vendor/renesas/rz_mcu_boards/core_package/generate/system\r_devlink_wrapper.c **** /**************************************************************************************************
 283:D:/Work/DeviceTester/amazon-freertos/lib/third_party/mcu_vendor/renesas/rz_mcu_boards/core_package/generate/system\r_devlink_wrapper.c ****  End of function get_device_stream_from_handle
 284:D:/Work/DeviceTester/amazon-freertos/lib/third_party/mcu_vendor/renesas/rz_mcu_boards/core_package/generate/system\r_devlink_wrapper.c ****  **************************************************************************************************
 285:D:/Work/DeviceTester/amazon-freertos/lib/third_party/mcu_vendor/renesas/rz_mcu_boards/core_package/generate/system\r_devlink_wrapper.c **** 
 286:D:/Work/DeviceTester/amazon-freertos/lib/third_party/mcu_vendor/renesas/rz_mcu_boards/core_package/generate/system\r_devlink_wrapper.c **** /**************************************************************************************************
 287:D:/Work/DeviceTester/amazon-freertos/lib/third_party/mcu_vendor/renesas/rz_mcu_boards/core_package/generate/system\r_devlink_wrapper.c ****  * Function Name: check_valid_handle
 288:D:/Work/DeviceTester/amazon-freertos/lib/third_party/mcu_vendor/renesas/rz_mcu_boards/core_package/generate/system\r_devlink_wrapper.c ****  * Description  : Function to ensure that the handle that is presented is in use in the gs_filestre
 289:D:/Work/DeviceTester/amazon-freertos/lib/third_party/mcu_vendor/renesas/rz_mcu_boards/core_package/generate/system\r_devlink_wrapper.c ****  * Arguments    : [IN] handle - The index to the driver to check taken from the gs_filestream
 290:D:/Work/DeviceTester/amazon-freertos/lib/third_party/mcu_vendor/renesas/rz_mcu_boards/core_package/generate/system\r_devlink_wrapper.c ****  * Return Value : DRV_SUCCESS - Hand is valid and in use
 291:D:/Work/DeviceTester/amazon-freertos/lib/third_party/mcu_vendor/renesas/rz_mcu_boards/core_package/generate/system\r_devlink_wrapper.c ****  *                DRV_ERROR - handle not in use
 292:D:/Work/DeviceTester/amazon-freertos/lib/third_party/mcu_vendor/renesas/rz_mcu_boards/core_package/generate/system\r_devlink_wrapper.c ****  **************************************************************************************************
 293:D:/Work/DeviceTester/amazon-freertos/lib/third_party/mcu_vendor/renesas/rz_mcu_boards/core_package/generate/system\r_devlink_wrapper.c **** static int_t check_valid_handle(const int_t h)
 294:D:/Work/DeviceTester/amazon-freertos/lib/third_party/mcu_vendor/renesas/rz_mcu_boards/core_package/generate/system\r_devlink_wrapper.c **** {
 295:D:/Work/DeviceTester/amazon-freertos/lib/third_party/mcu_vendor/renesas/rz_mcu_boards/core_package/generate/system\r_devlink_wrapper.c ****     int_t res = (DRV_ERROR);
 296:D:/Work/DeviceTester/amazon-freertos/lib/third_party/mcu_vendor/renesas/rz_mcu_boards/core_package/generate/system\r_devlink_wrapper.c **** 
 297:D:/Work/DeviceTester/amazon-freertos/lib/third_party/mcu_vendor/renesas/rz_mcu_boards/core_package/generate/system\r_devlink_wrapper.c ****     if ((h >= 0) && (h < IOSTREAM))
 298:D:/Work/DeviceTester/amazon-freertos/lib/third_party/mcu_vendor/renesas/rz_mcu_boards/core_package/generate/system\r_devlink_wrapper.c ****     {
 299:D:/Work/DeviceTester/amazon-freertos/lib/third_party/mcu_vendor/renesas/rz_mcu_boards/core_package/generate/system\r_devlink_wrapper.c ****         /* NULL signifies that the driver is not loaded */
 300:D:/Work/DeviceTester/amazon-freertos/lib/third_party/mcu_vendor/renesas/rz_mcu_boards/core_package/generate/system\r_devlink_wrapper.c ****         if (NULL != gs_filestream[h].p_device_driver)
 301:D:/Work/DeviceTester/amazon-freertos/lib/third_party/mcu_vendor/renesas/rz_mcu_boards/core_package/generate/system\r_devlink_wrapper.c ****         {
 302:D:/Work/DeviceTester/amazon-freertos/lib/third_party/mcu_vendor/renesas/rz_mcu_boards/core_package/generate/system\r_devlink_wrapper.c ****             /* handle found */
 303:D:/Work/DeviceTester/amazon-freertos/lib/third_party/mcu_vendor/renesas/rz_mcu_boards/core_package/generate/system\r_devlink_wrapper.c ****             res = DRV_SUCCESS;
 304:D:/Work/DeviceTester/amazon-freertos/lib/third_party/mcu_vendor/renesas/rz_mcu_boards/core_package/generate/system\r_devlink_wrapper.c ****         }
 305:D:/Work/DeviceTester/amazon-freertos/lib/third_party/mcu_vendor/renesas/rz_mcu_boards/core_package/generate/system\r_devlink_wrapper.c ****     }
 306:D:/Work/DeviceTester/amazon-freertos/lib/third_party/mcu_vendor/renesas/rz_mcu_boards/core_package/generate/system\r_devlink_wrapper.c ****     return (res);
 307:D:/Work/DeviceTester/amazon-freertos/lib/third_party/mcu_vendor/renesas/rz_mcu_boards/core_package/generate/system\r_devlink_wrapper.c **** }
 308:D:/Work/DeviceTester/amazon-freertos/lib/third_party/mcu_vendor/renesas/rz_mcu_boards/core_package/generate/system\r_devlink_wrapper.c **** /**************************************************************************************************
 309:D:/Work/DeviceTester/amazon-freertos/lib/third_party/mcu_vendor/renesas/rz_mcu_boards/core_package/generate/system\r_devlink_wrapper.c ****  End of function check_valid_handle
 310:D:/Work/DeviceTester/amazon-freertos/lib/third_party/mcu_vendor/renesas/rz_mcu_boards/core_package/generate/system\r_devlink_wrapper.c ****  **************************************************************************************************
 311:D:/Work/DeviceTester/amazon-freertos/lib/third_party/mcu_vendor/renesas/rz_mcu_boards/core_package/generate/system\r_devlink_wrapper.c **** 
 312:D:/Work/DeviceTester/amazon-freertos/lib/third_party/mcu_vendor/renesas/rz_mcu_boards/core_package/generate/system\r_devlink_wrapper.c **** /**************************************************************************************************
 313:D:/Work/DeviceTester/amazon-freertos/lib/third_party/mcu_vendor/renesas/rz_mcu_boards/core_package/generate/system\r_devlink_wrapper.c ****  Public Functions
 314:D:/Work/DeviceTester/amazon-freertos/lib/third_party/mcu_vendor/renesas/rz_mcu_boards/core_package/generate/system\r_devlink_wrapper.c ****  **************************************************************************************************
 315:D:/Work/DeviceTester/amazon-freertos/lib/third_party/mcu_vendor/renesas/rz_mcu_boards/core_package/generate/system\r_devlink_wrapper.c **** 
 316:D:/Work/DeviceTester/amazon-freertos/lib/third_party/mcu_vendor/renesas/rz_mcu_boards/core_package/generate/system\r_devlink_wrapper.c **** #ifdef UNUSED_CODE_20200521
 317:D:/Work/DeviceTester/amazon-freertos/lib/third_party/mcu_vendor/renesas/rz_mcu_boards/core_package/generate/system\r_devlink_wrapper.c **** /**************************************************************************************************
 318:D:/Work/DeviceTester/amazon-freertos/lib/third_party/mcu_vendor/renesas/rz_mcu_boards/core_package/generate/system\r_devlink_wrapper.c ****  * Function Name: get_no_driver
 319:D:/Work/DeviceTester/amazon-freertos/lib/third_party/mcu_vendor/renesas/rz_mcu_boards/core_package/generate/system\r_devlink_wrapper.c ****  * Description  : Returns address of dummy driver configuration, used
 320:D:/Work/DeviceTester/amazon-freertos/lib/third_party/mcu_vendor/renesas/rz_mcu_boards/core_package/generate/system\r_devlink_wrapper.c ****  * Arguments    : none
 321:D:/Work/DeviceTester/amazon-freertos/lib/third_party/mcu_vendor/renesas/rz_mcu_boards/core_package/generate/system\r_devlink_wrapper.c ****  * Return Value : dummy driver configuration
 322:D:/Work/DeviceTester/amazon-freertos/lib/third_party/mcu_vendor/renesas/rz_mcu_boards/core_package/generate/system\r_devlink_wrapper.c ****  **************************************************************************************************
 323:D:/Work/DeviceTester/amazon-freertos/lib/third_party/mcu_vendor/renesas/rz_mcu_boards/core_package/generate/system\r_devlink_wrapper.c **** st_r_driver_t * get_no_driver(void)
 324:D:/Work/DeviceTester/amazon-freertos/lib/third_party/mcu_vendor/renesas/rz_mcu_boards/core_package/generate/system\r_devlink_wrapper.c **** {
 325:D:/Work/DeviceTester/amazon-freertos/lib/third_party/mcu_vendor/renesas/rz_mcu_boards/core_package/generate/system\r_devlink_wrapper.c ****     return (&gs_no_driver);
 326:D:/Work/DeviceTester/amazon-freertos/lib/third_party/mcu_vendor/renesas/rz_mcu_boards/core_package/generate/system\r_devlink_wrapper.c **** }
 327:D:/Work/DeviceTester/amazon-freertos/lib/third_party/mcu_vendor/renesas/rz_mcu_boards/core_package/generate/system\r_devlink_wrapper.c **** /**************************************************************************************************
 328:D:/Work/DeviceTester/amazon-freertos/lib/third_party/mcu_vendor/renesas/rz_mcu_boards/core_package/generate/system\r_devlink_wrapper.c ****  End of function get_no_driver
 329:D:/Work/DeviceTester/amazon-freertos/lib/third_party/mcu_vendor/renesas/rz_mcu_boards/core_package/generate/system\r_devlink_wrapper.c ****  **************************************************************************************************
 330:D:/Work/DeviceTester/amazon-freertos/lib/third_party/mcu_vendor/renesas/rz_mcu_boards/core_package/generate/system\r_devlink_wrapper.c **** #endif
 331:D:/Work/DeviceTester/amazon-freertos/lib/third_party/mcu_vendor/renesas/rz_mcu_boards/core_package/generate/system\r_devlink_wrapper.c **** 
 332:D:/Work/DeviceTester/amazon-freertos/lib/third_party/mcu_vendor/renesas/rz_mcu_boards/core_package/generate/system\r_devlink_wrapper.c **** /**************************************************************************************************
 333:D:/Work/DeviceTester/amazon-freertos/lib/third_party/mcu_vendor/renesas/rz_mcu_boards/core_package/generate/system\r_devlink_wrapper.c ****  * Function Name: no_dev_open
 334:D:/Work/DeviceTester/amazon-freertos/lib/third_party/mcu_vendor/renesas/rz_mcu_boards/core_package/generate/system\r_devlink_wrapper.c ****  * Description  : Function open stub
 335:D:/Work/DeviceTester/amazon-freertos/lib/third_party/mcu_vendor/renesas/rz_mcu_boards/core_package/generate/system\r_devlink_wrapper.c ****  * Arguments    : IN  pStream - Pointer to the file stream
 336:D:/Work/DeviceTester/amazon-freertos/lib/third_party/mcu_vendor/renesas/rz_mcu_boards/core_package/generate/system\r_devlink_wrapper.c ****  * Return Value : 0 for success otherwise -1
 337:D:/Work/DeviceTester/amazon-freertos/lib/third_party/mcu_vendor/renesas/rz_mcu_boards/core_package/generate/system\r_devlink_wrapper.c ****  **************************************************************************************************
 338:D:/Work/DeviceTester/amazon-freertos/lib/third_party/mcu_vendor/renesas/rz_mcu_boards/core_package/generate/system\r_devlink_wrapper.c **** int_t no_dev_open(st_stream_ptr_t pStream)
 339:D:/Work/DeviceTester/amazon-freertos/lib/third_party/mcu_vendor/renesas/rz_mcu_boards/core_package/generate/system\r_devlink_wrapper.c **** {
  26              		.loc 1 339 0
  27              		.cfi_startproc
  28              		@ args = 0, pretend = 0, frame = 0
  29              		@ frame_needed = 0, uses_anonymous_args = 0
  30              		@ link register save eliminated.
  31              	.LVL0:
 340:D:/Work/DeviceTester/amazon-freertos/lib/third_party/mcu_vendor/renesas/rz_mcu_boards/core_package/generate/system\r_devlink_wrapper.c ****     /* avoid unused parameter warning */
 341:D:/Work/DeviceTester/amazon-freertos/lib/third_party/mcu_vendor/renesas/rz_mcu_boards/core_package/generate/system\r_devlink_wrapper.c ****     (void) pStream;
 342:D:/Work/DeviceTester/amazon-freertos/lib/third_party/mcu_vendor/renesas/rz_mcu_boards/core_package/generate/system\r_devlink_wrapper.c **** 
 343:D:/Work/DeviceTester/amazon-freertos/lib/third_party/mcu_vendor/renesas/rz_mcu_boards/core_package/generate/system\r_devlink_wrapper.c ****     return (DRV_ERROR);
 344:D:/Work/DeviceTester/amazon-freertos/lib/third_party/mcu_vendor/renesas/rz_mcu_boards/core_package/generate/system\r_devlink_wrapper.c **** }
  32              		.loc 1 344 0
  33 0000 0000E0E3 		mvn	r0, #0
  34              	.LVL1:
  35 0004 1EFF2FE1 		bx	lr
  36              		.cfi_endproc
  37              	.LFE10:
  39              		.section	.text.no_dev_close,"ax",%progbits
  40              		.align	2
  41              		.global	no_dev_close
  42              		.syntax unified
  43              		.arm
  44              		.fpu neon
  46              	no_dev_close:
  47              	.LFB11:
 345:D:/Work/DeviceTester/amazon-freertos/lib/third_party/mcu_vendor/renesas/rz_mcu_boards/core_package/generate/system\r_devlink_wrapper.c **** /**************************************************************************************************
 346:D:/Work/DeviceTester/amazon-freertos/lib/third_party/mcu_vendor/renesas/rz_mcu_boards/core_package/generate/system\r_devlink_wrapper.c ****  End of function  no_dev_open
 347:D:/Work/DeviceTester/amazon-freertos/lib/third_party/mcu_vendor/renesas/rz_mcu_boards/core_package/generate/system\r_devlink_wrapper.c ****  **************************************************************************************************
 348:D:/Work/DeviceTester/amazon-freertos/lib/third_party/mcu_vendor/renesas/rz_mcu_boards/core_package/generate/system\r_devlink_wrapper.c **** 
 349:D:/Work/DeviceTester/amazon-freertos/lib/third_party/mcu_vendor/renesas/rz_mcu_boards/core_package/generate/system\r_devlink_wrapper.c **** /**************************************************************************************************
 350:D:/Work/DeviceTester/amazon-freertos/lib/third_party/mcu_vendor/renesas/rz_mcu_boards/core_package/generate/system\r_devlink_wrapper.c ****  * Function Name: no_dev_close
 351:D:/Work/DeviceTester/amazon-freertos/lib/third_party/mcu_vendor/renesas/rz_mcu_boards/core_package/generate/system\r_devlink_wrapper.c ****  * Description  : Function close stub
 352:D:/Work/DeviceTester/amazon-freertos/lib/third_party/mcu_vendor/renesas/rz_mcu_boards/core_package/generate/system\r_devlink_wrapper.c ****  * Arguments    : IN  pStream - Pointer to the file stream
 353:D:/Work/DeviceTester/amazon-freertos/lib/third_party/mcu_vendor/renesas/rz_mcu_boards/core_package/generate/system\r_devlink_wrapper.c ****  * Return Value : none
 354:D:/Work/DeviceTester/amazon-freertos/lib/third_party/mcu_vendor/renesas/rz_mcu_boards/core_package/generate/system\r_devlink_wrapper.c ****  **************************************************************************************************
 355:D:/Work/DeviceTester/amazon-freertos/lib/third_party/mcu_vendor/renesas/rz_mcu_boards/core_package/generate/system\r_devlink_wrapper.c **** void no_dev_close(st_stream_ptr_t pStream)
 356:D:/Work/DeviceTester/amazon-freertos/lib/third_party/mcu_vendor/renesas/rz_mcu_boards/core_package/generate/system\r_devlink_wrapper.c **** {
  48              		.loc 1 356 0
  49              		.cfi_startproc
  50              		@ args = 0, pretend = 0, frame = 0
  51              		@ frame_needed = 0, uses_anonymous_args = 0
  52              		@ link register save eliminated.
  53              	.LVL2:
  54 0000 1EFF2FE1 		bx	lr
  55              		.cfi_endproc
  56              	.LFE11:
  58              		.section	.text.no_dev_write,"ax",%progbits
  59              		.align	2
  60              		.global	no_dev_write
  61              		.syntax unified
  62              		.arm
  63              		.fpu neon
  65              	no_dev_write:
  66              	.LFB13:
 357:D:/Work/DeviceTester/amazon-freertos/lib/third_party/mcu_vendor/renesas/rz_mcu_boards/core_package/generate/system\r_devlink_wrapper.c ****     /* avoid unused parameter warning */
 358:D:/Work/DeviceTester/amazon-freertos/lib/third_party/mcu_vendor/renesas/rz_mcu_boards/core_package/generate/system\r_devlink_wrapper.c ****     (void) pStream;
 359:D:/Work/DeviceTester/amazon-freertos/lib/third_party/mcu_vendor/renesas/rz_mcu_boards/core_package/generate/system\r_devlink_wrapper.c **** }
 360:D:/Work/DeviceTester/amazon-freertos/lib/third_party/mcu_vendor/renesas/rz_mcu_boards/core_package/generate/system\r_devlink_wrapper.c **** /**************************************************************************************************
 361:D:/Work/DeviceTester/amazon-freertos/lib/third_party/mcu_vendor/renesas/rz_mcu_boards/core_package/generate/system\r_devlink_wrapper.c ****  End of function  no_dev_close
 362:D:/Work/DeviceTester/amazon-freertos/lib/third_party/mcu_vendor/renesas/rz_mcu_boards/core_package/generate/system\r_devlink_wrapper.c ****  **************************************************************************************************
 363:D:/Work/DeviceTester/amazon-freertos/lib/third_party/mcu_vendor/renesas/rz_mcu_boards/core_package/generate/system\r_devlink_wrapper.c **** 
 364:D:/Work/DeviceTester/amazon-freertos/lib/third_party/mcu_vendor/renesas/rz_mcu_boards/core_package/generate/system\r_devlink_wrapper.c **** /**************************************************************************************************
 365:D:/Work/DeviceTester/amazon-freertos/lib/third_party/mcu_vendor/renesas/rz_mcu_boards/core_package/generate/system\r_devlink_wrapper.c ****  * Function Name: no_dev_read
 366:D:/Work/DeviceTester/amazon-freertos/lib/third_party/mcu_vendor/renesas/rz_mcu_boards/core_package/generate/system\r_devlink_wrapper.c ****  * Description  : Function read stub
 367:D:/Work/DeviceTester/amazon-freertos/lib/third_party/mcu_vendor/renesas/rz_mcu_boards/core_package/generate/system\r_devlink_wrapper.c ****  * Arguments    : IN  pStream - Pointer to the file stream
 368:D:/Work/DeviceTester/amazon-freertos/lib/third_party/mcu_vendor/renesas/rz_mcu_boards/core_package/generate/system\r_devlink_wrapper.c ****  *                IN  pbyBuffer - Pointer to the destination memory
 369:D:/Work/DeviceTester/amazon-freertos/lib/third_party/mcu_vendor/renesas/rz_mcu_boards/core_package/generate/system\r_devlink_wrapper.c ****  *                IN  uiCount - The number of bytes to read
 370:D:/Work/DeviceTester/amazon-freertos/lib/third_party/mcu_vendor/renesas/rz_mcu_boards/core_package/generate/system\r_devlink_wrapper.c ****  * Return Value : 0 for success -1 on error
 371:D:/Work/DeviceTester/amazon-freertos/lib/third_party/mcu_vendor/renesas/rz_mcu_boards/core_package/generate/system\r_devlink_wrapper.c ****  **************************************************************************************************
 372:D:/Work/DeviceTester/amazon-freertos/lib/third_party/mcu_vendor/renesas/rz_mcu_boards/core_package/generate/system\r_devlink_wrapper.c **** int_t no_dev_read(st_stream_ptr_t pStream, uint8_t *pbyBuffer, uint32_t uiCount)
 373:D:/Work/DeviceTester/amazon-freertos/lib/third_party/mcu_vendor/renesas/rz_mcu_boards/core_package/generate/system\r_devlink_wrapper.c **** {
 374:D:/Work/DeviceTester/amazon-freertos/lib/third_party/mcu_vendor/renesas/rz_mcu_boards/core_package/generate/system\r_devlink_wrapper.c ****     /* avoid unused parameter warning */
 375:D:/Work/DeviceTester/amazon-freertos/lib/third_party/mcu_vendor/renesas/rz_mcu_boards/core_package/generate/system\r_devlink_wrapper.c ****     (void) pStream;
 376:D:/Work/DeviceTester/amazon-freertos/lib/third_party/mcu_vendor/renesas/rz_mcu_boards/core_package/generate/system\r_devlink_wrapper.c **** 
 377:D:/Work/DeviceTester/amazon-freertos/lib/third_party/mcu_vendor/renesas/rz_mcu_boards/core_package/generate/system\r_devlink_wrapper.c ****     /* avoid unused parameter warning */
 378:D:/Work/DeviceTester/amazon-freertos/lib/third_party/mcu_vendor/renesas/rz_mcu_boards/core_package/generate/system\r_devlink_wrapper.c ****     (void) pbyBuffer;
 379:D:/Work/DeviceTester/amazon-freertos/lib/third_party/mcu_vendor/renesas/rz_mcu_boards/core_package/generate/system\r_devlink_wrapper.c **** 
 380:D:/Work/DeviceTester/amazon-freertos/lib/third_party/mcu_vendor/renesas/rz_mcu_boards/core_package/generate/system\r_devlink_wrapper.c ****     /* avoid unused parameter warning */
 381:D:/Work/DeviceTester/amazon-freertos/lib/third_party/mcu_vendor/renesas/rz_mcu_boards/core_package/generate/system\r_devlink_wrapper.c ****     (void) uiCount;
 382:D:/Work/DeviceTester/amazon-freertos/lib/third_party/mcu_vendor/renesas/rz_mcu_boards/core_package/generate/system\r_devlink_wrapper.c **** 
 383:D:/Work/DeviceTester/amazon-freertos/lib/third_party/mcu_vendor/renesas/rz_mcu_boards/core_package/generate/system\r_devlink_wrapper.c ****     return (DRV_ERROR);
 384:D:/Work/DeviceTester/amazon-freertos/lib/third_party/mcu_vendor/renesas/rz_mcu_boards/core_package/generate/system\r_devlink_wrapper.c **** }
 385:D:/Work/DeviceTester/amazon-freertos/lib/third_party/mcu_vendor/renesas/rz_mcu_boards/core_package/generate/system\r_devlink_wrapper.c **** /**************************************************************************************************
 386:D:/Work/DeviceTester/amazon-freertos/lib/third_party/mcu_vendor/renesas/rz_mcu_boards/core_package/generate/system\r_devlink_wrapper.c ****  End of function  no_dev_read
 387:D:/Work/DeviceTester/amazon-freertos/lib/third_party/mcu_vendor/renesas/rz_mcu_boards/core_package/generate/system\r_devlink_wrapper.c ****  **************************************************************************************************
 388:D:/Work/DeviceTester/amazon-freertos/lib/third_party/mcu_vendor/renesas/rz_mcu_boards/core_package/generate/system\r_devlink_wrapper.c **** 
 389:D:/Work/DeviceTester/amazon-freertos/lib/third_party/mcu_vendor/renesas/rz_mcu_boards/core_package/generate/system\r_devlink_wrapper.c **** /**************************************************************************************************
 390:D:/Work/DeviceTester/amazon-freertos/lib/third_party/mcu_vendor/renesas/rz_mcu_boards/core_package/generate/system\r_devlink_wrapper.c ****  * Function Name: no_dev_write
 391:D:/Work/DeviceTester/amazon-freertos/lib/third_party/mcu_vendor/renesas/rz_mcu_boards/core_package/generate/system\r_devlink_wrapper.c ****  * Description  : Function write stub
 392:D:/Work/DeviceTester/amazon-freertos/lib/third_party/mcu_vendor/renesas/rz_mcu_boards/core_package/generate/system\r_devlink_wrapper.c ****  * Arguments    : IN  pStream - Pointer to the file stream
 393:D:/Work/DeviceTester/amazon-freertos/lib/third_party/mcu_vendor/renesas/rz_mcu_boards/core_package/generate/system\r_devlink_wrapper.c ****  *                IN  pbyBuffer - Pointer to the destination memory
 394:D:/Work/DeviceTester/amazon-freertos/lib/third_party/mcu_vendor/renesas/rz_mcu_boards/core_package/generate/system\r_devlink_wrapper.c ****  *                IN  uiCount - The number of bytes to read
 395:D:/Work/DeviceTester/amazon-freertos/lib/third_party/mcu_vendor/renesas/rz_mcu_boards/core_package/generate/system\r_devlink_wrapper.c ****  * Return Value : 0 for success -1 on error
 396:D:/Work/DeviceTester/amazon-freertos/lib/third_party/mcu_vendor/renesas/rz_mcu_boards/core_package/generate/system\r_devlink_wrapper.c ****  **************************************************************************************************
 397:D:/Work/DeviceTester/amazon-freertos/lib/third_party/mcu_vendor/renesas/rz_mcu_boards/core_package/generate/system\r_devlink_wrapper.c **** int_t no_dev_write(st_stream_ptr_t pStream, const uint8_t *pbyBuffer, uint32_t uiCount)
 398:D:/Work/DeviceTester/amazon-freertos/lib/third_party/mcu_vendor/renesas/rz_mcu_boards/core_package/generate/system\r_devlink_wrapper.c **** {
  67              		.loc 1 398 0
  68              		.cfi_startproc
  69              		@ args = 0, pretend = 0, frame = 0
  70              		@ frame_needed = 0, uses_anonymous_args = 0
  71              		@ link register save eliminated.
  72              	.LVL3:
 399:D:/Work/DeviceTester/amazon-freertos/lib/third_party/mcu_vendor/renesas/rz_mcu_boards/core_package/generate/system\r_devlink_wrapper.c ****     /* avoid unused parameter warning */
 400:D:/Work/DeviceTester/amazon-freertos/lib/third_party/mcu_vendor/renesas/rz_mcu_boards/core_package/generate/system\r_devlink_wrapper.c ****     (void) pStream;
 401:D:/Work/DeviceTester/amazon-freertos/lib/third_party/mcu_vendor/renesas/rz_mcu_boards/core_package/generate/system\r_devlink_wrapper.c **** 
 402:D:/Work/DeviceTester/amazon-freertos/lib/third_party/mcu_vendor/renesas/rz_mcu_boards/core_package/generate/system\r_devlink_wrapper.c ****     /* avoid unused parameter warning */
 403:D:/Work/DeviceTester/amazon-freertos/lib/third_party/mcu_vendor/renesas/rz_mcu_boards/core_package/generate/system\r_devlink_wrapper.c ****     (void) pbyBuffer;
 404:D:/Work/DeviceTester/amazon-freertos/lib/third_party/mcu_vendor/renesas/rz_mcu_boards/core_package/generate/system\r_devlink_wrapper.c **** 
 405:D:/Work/DeviceTester/amazon-freertos/lib/third_party/mcu_vendor/renesas/rz_mcu_boards/core_package/generate/system\r_devlink_wrapper.c ****     /* avoid unused parameter warning */
 406:D:/Work/DeviceTester/amazon-freertos/lib/third_party/mcu_vendor/renesas/rz_mcu_boards/core_package/generate/system\r_devlink_wrapper.c ****     (void) uiCount;
 407:D:/Work/DeviceTester/amazon-freertos/lib/third_party/mcu_vendor/renesas/rz_mcu_boards/core_package/generate/system\r_devlink_wrapper.c **** 
 408:D:/Work/DeviceTester/amazon-freertos/lib/third_party/mcu_vendor/renesas/rz_mcu_boards/core_package/generate/system\r_devlink_wrapper.c ****     return (DRV_ERROR);
 409:D:/Work/DeviceTester/amazon-freertos/lib/third_party/mcu_vendor/renesas/rz_mcu_boards/core_package/generate/system\r_devlink_wrapper.c **** }
  73              		.loc 1 409 0
  74 0000 0000E0E3 		mvn	r0, #0
  75              	.LVL4:
  76 0004 1EFF2FE1 		bx	lr
  77              		.cfi_endproc
  78              	.LFE13:
  80              		.section	.text.no_dev_control,"ax",%progbits
  81              		.align	2
  82              		.global	no_dev_control
  83              		.syntax unified
  84              		.arm
  85              		.fpu neon
  87              	no_dev_control:
  88              	.LFB14:
 410:D:/Work/DeviceTester/amazon-freertos/lib/third_party/mcu_vendor/renesas/rz_mcu_boards/core_package/generate/system\r_devlink_wrapper.c **** /**************************************************************************************************
 411:D:/Work/DeviceTester/amazon-freertos/lib/third_party/mcu_vendor/renesas/rz_mcu_boards/core_package/generate/system\r_devlink_wrapper.c ****  End of function  no_dev_write
 412:D:/Work/DeviceTester/amazon-freertos/lib/third_party/mcu_vendor/renesas/rz_mcu_boards/core_package/generate/system\r_devlink_wrapper.c ****  **************************************************************************************************
 413:D:/Work/DeviceTester/amazon-freertos/lib/third_party/mcu_vendor/renesas/rz_mcu_boards/core_package/generate/system\r_devlink_wrapper.c **** 
 414:D:/Work/DeviceTester/amazon-freertos/lib/third_party/mcu_vendor/renesas/rz_mcu_boards/core_package/generate/system\r_devlink_wrapper.c **** #ifdef UNUSED_CODE_20200521
 415:D:/Work/DeviceTester/amazon-freertos/lib/third_party/mcu_vendor/renesas/rz_mcu_boards/core_package/generate/system\r_devlink_wrapper.c **** /**************************************************************************************************
 416:D:/Work/DeviceTester/amazon-freertos/lib/third_party/mcu_vendor/renesas/rz_mcu_boards/core_package/generate/system\r_devlink_wrapper.c ****  * Function Name: no_dev_io
 417:D:/Work/DeviceTester/amazon-freertos/lib/third_party/mcu_vendor/renesas/rz_mcu_boards/core_package/generate/system\r_devlink_wrapper.c ****  * Description  : Function read / write stub
 418:D:/Work/DeviceTester/amazon-freertos/lib/third_party/mcu_vendor/renesas/rz_mcu_boards/core_package/generate/system\r_devlink_wrapper.c ****  * Arguments    : IN  pStream - Pointer to the file stream
 419:D:/Work/DeviceTester/amazon-freertos/lib/third_party/mcu_vendor/renesas/rz_mcu_boards/core_package/generate/system\r_devlink_wrapper.c ****  *                IN  pbyBuffer - Pointer to the destination memory
 420:D:/Work/DeviceTester/amazon-freertos/lib/third_party/mcu_vendor/renesas/rz_mcu_boards/core_package/generate/system\r_devlink_wrapper.c ****  *                IN  uiCount - The number of bytes to read
 421:D:/Work/DeviceTester/amazon-freertos/lib/third_party/mcu_vendor/renesas/rz_mcu_boards/core_package/generate/system\r_devlink_wrapper.c ****  * Return Value : 0 for success -1 on error
 422:D:/Work/DeviceTester/amazon-freertos/lib/third_party/mcu_vendor/renesas/rz_mcu_boards/core_package/generate/system\r_devlink_wrapper.c ****  **************************************************************************************************
 423:D:/Work/DeviceTester/amazon-freertos/lib/third_party/mcu_vendor/renesas/rz_mcu_boards/core_package/generate/system\r_devlink_wrapper.c **** int_t no_dev_io(st_stream_ptr_t pStream, uint8_t *pbyBuffer, uint32_t uiCount)
 424:D:/Work/DeviceTester/amazon-freertos/lib/third_party/mcu_vendor/renesas/rz_mcu_boards/core_package/generate/system\r_devlink_wrapper.c **** {
 425:D:/Work/DeviceTester/amazon-freertos/lib/third_party/mcu_vendor/renesas/rz_mcu_boards/core_package/generate/system\r_devlink_wrapper.c ****     /* avoid unused parameter warning */
 426:D:/Work/DeviceTester/amazon-freertos/lib/third_party/mcu_vendor/renesas/rz_mcu_boards/core_package/generate/system\r_devlink_wrapper.c ****     (void)pStream;
 427:D:/Work/DeviceTester/amazon-freertos/lib/third_party/mcu_vendor/renesas/rz_mcu_boards/core_package/generate/system\r_devlink_wrapper.c **** 
 428:D:/Work/DeviceTester/amazon-freertos/lib/third_party/mcu_vendor/renesas/rz_mcu_boards/core_package/generate/system\r_devlink_wrapper.c ****     /* avoid unused parameter warning */
 429:D:/Work/DeviceTester/amazon-freertos/lib/third_party/mcu_vendor/renesas/rz_mcu_boards/core_package/generate/system\r_devlink_wrapper.c ****     (void)pbyBuffer;
 430:D:/Work/DeviceTester/amazon-freertos/lib/third_party/mcu_vendor/renesas/rz_mcu_boards/core_package/generate/system\r_devlink_wrapper.c **** 
 431:D:/Work/DeviceTester/amazon-freertos/lib/third_party/mcu_vendor/renesas/rz_mcu_boards/core_package/generate/system\r_devlink_wrapper.c ****     /* avoid unused parameter warning */
 432:D:/Work/DeviceTester/amazon-freertos/lib/third_party/mcu_vendor/renesas/rz_mcu_boards/core_package/generate/system\r_devlink_wrapper.c ****     (void)uiCount;
 433:D:/Work/DeviceTester/amazon-freertos/lib/third_party/mcu_vendor/renesas/rz_mcu_boards/core_package/generate/system\r_devlink_wrapper.c **** 
 434:D:/Work/DeviceTester/amazon-freertos/lib/third_party/mcu_vendor/renesas/rz_mcu_boards/core_package/generate/system\r_devlink_wrapper.c ****     return (DRV_ERROR);
 435:D:/Work/DeviceTester/amazon-freertos/lib/third_party/mcu_vendor/renesas/rz_mcu_boards/core_package/generate/system\r_devlink_wrapper.c **** }
 436:D:/Work/DeviceTester/amazon-freertos/lib/third_party/mcu_vendor/renesas/rz_mcu_boards/core_package/generate/system\r_devlink_wrapper.c **** /**************************************************************************************************
 437:D:/Work/DeviceTester/amazon-freertos/lib/third_party/mcu_vendor/renesas/rz_mcu_boards/core_package/generate/system\r_devlink_wrapper.c ****  End of function  no_dev_io
 438:D:/Work/DeviceTester/amazon-freertos/lib/third_party/mcu_vendor/renesas/rz_mcu_boards/core_package/generate/system\r_devlink_wrapper.c ****  **************************************************************************************************
 439:D:/Work/DeviceTester/amazon-freertos/lib/third_party/mcu_vendor/renesas/rz_mcu_boards/core_package/generate/system\r_devlink_wrapper.c **** #endif
 440:D:/Work/DeviceTester/amazon-freertos/lib/third_party/mcu_vendor/renesas/rz_mcu_boards/core_package/generate/system\r_devlink_wrapper.c **** 
 441:D:/Work/DeviceTester/amazon-freertos/lib/third_party/mcu_vendor/renesas/rz_mcu_boards/core_package/generate/system\r_devlink_wrapper.c **** /**************************************************************************************************
 442:D:/Work/DeviceTester/amazon-freertos/lib/third_party/mcu_vendor/renesas/rz_mcu_boards/core_package/generate/system\r_devlink_wrapper.c ****  * Function Name: no_dev_control
 443:D:/Work/DeviceTester/amazon-freertos/lib/third_party/mcu_vendor/renesas/rz_mcu_boards/core_package/generate/system\r_devlink_wrapper.c ****  * Description  : Function to control stub
 444:D:/Work/DeviceTester/amazon-freertos/lib/third_party/mcu_vendor/renesas/rz_mcu_boards/core_package/generate/system\r_devlink_wrapper.c ****  * Arguments    : IN  pStream - Pointer to the file stream
 445:D:/Work/DeviceTester/amazon-freertos/lib/third_party/mcu_vendor/renesas/rz_mcu_boards/core_package/generate/system\r_devlink_wrapper.c ****  *                IN  ctlCode - The custom control code
 446:D:/Work/DeviceTester/amazon-freertos/lib/third_party/mcu_vendor/renesas/rz_mcu_boards/core_package/generate/system\r_devlink_wrapper.c ****  *                IN  pCtlStruct - Pointer to the custorm control structure
 447:D:/Work/DeviceTester/amazon-freertos/lib/third_party/mcu_vendor/renesas/rz_mcu_boards/core_package/generate/system\r_devlink_wrapper.c ****  * Return Value : 0 for success -1 on error
 448:D:/Work/DeviceTester/amazon-freertos/lib/third_party/mcu_vendor/renesas/rz_mcu_boards/core_package/generate/system\r_devlink_wrapper.c ****  **************************************************************************************************
 449:D:/Work/DeviceTester/amazon-freertos/lib/third_party/mcu_vendor/renesas/rz_mcu_boards/core_package/generate/system\r_devlink_wrapper.c **** int_t no_dev_control(st_stream_ptr_t pStream, uint32_t ctlCode, void *pCtlStruct)
 450:D:/Work/DeviceTester/amazon-freertos/lib/third_party/mcu_vendor/renesas/rz_mcu_boards/core_package/generate/system\r_devlink_wrapper.c **** {
  89              		.loc 1 450 0
  90              		.cfi_startproc
  91              		@ args = 0, pretend = 0, frame = 0
  92              		@ frame_needed = 0, uses_anonymous_args = 0
  93              		@ link register save eliminated.
  94              	.LVL5:
 451:D:/Work/DeviceTester/amazon-freertos/lib/third_party/mcu_vendor/renesas/rz_mcu_boards/core_package/generate/system\r_devlink_wrapper.c ****     /* avoid unused parameter warning */
 452:D:/Work/DeviceTester/amazon-freertos/lib/third_party/mcu_vendor/renesas/rz_mcu_boards/core_package/generate/system\r_devlink_wrapper.c ****     (void) pStream;
 453:D:/Work/DeviceTester/amazon-freertos/lib/third_party/mcu_vendor/renesas/rz_mcu_boards/core_package/generate/system\r_devlink_wrapper.c **** 
 454:D:/Work/DeviceTester/amazon-freertos/lib/third_party/mcu_vendor/renesas/rz_mcu_boards/core_package/generate/system\r_devlink_wrapper.c ****     /* avoid unused parameter warning */
 455:D:/Work/DeviceTester/amazon-freertos/lib/third_party/mcu_vendor/renesas/rz_mcu_boards/core_package/generate/system\r_devlink_wrapper.c ****     (void) ctlCode;
 456:D:/Work/DeviceTester/amazon-freertos/lib/third_party/mcu_vendor/renesas/rz_mcu_boards/core_package/generate/system\r_devlink_wrapper.c **** 
 457:D:/Work/DeviceTester/amazon-freertos/lib/third_party/mcu_vendor/renesas/rz_mcu_boards/core_package/generate/system\r_devlink_wrapper.c ****     /* avoid unused parameter warning */
 458:D:/Work/DeviceTester/amazon-freertos/lib/third_party/mcu_vendor/renesas/rz_mcu_boards/core_package/generate/system\r_devlink_wrapper.c ****     (void) pCtlStruct;
 459:D:/Work/DeviceTester/amazon-freertos/lib/third_party/mcu_vendor/renesas/rz_mcu_boards/core_package/generate/system\r_devlink_wrapper.c **** 
 460:D:/Work/DeviceTester/amazon-freertos/lib/third_party/mcu_vendor/renesas/rz_mcu_boards/core_package/generate/system\r_devlink_wrapper.c ****     return (DRV_ERROR);
 461:D:/Work/DeviceTester/amazon-freertos/lib/third_party/mcu_vendor/renesas/rz_mcu_boards/core_package/generate/system\r_devlink_wrapper.c **** }
  95              		.loc 1 461 0
  96 0000 0000E0E3 		mvn	r0, #0
  97              	.LVL6:
  98 0004 1EFF2FE1 		bx	lr
  99              		.cfi_endproc
 100              	.LFE14:
 102              		.section	.text.no_dev_get_version,"ax",%progbits
 103              		.align	2
 104              		.global	no_dev_get_version
 105              		.syntax unified
 106              		.arm
 107              		.fpu neon
 109              	no_dev_get_version:
 110              	.LFB15:
 462:D:/Work/DeviceTester/amazon-freertos/lib/third_party/mcu_vendor/renesas/rz_mcu_boards/core_package/generate/system\r_devlink_wrapper.c **** /**************************************************************************************************
 463:D:/Work/DeviceTester/amazon-freertos/lib/third_party/mcu_vendor/renesas/rz_mcu_boards/core_package/generate/system\r_devlink_wrapper.c ****  End of function  no_dev_control
 464:D:/Work/DeviceTester/amazon-freertos/lib/third_party/mcu_vendor/renesas/rz_mcu_boards/core_package/generate/system\r_devlink_wrapper.c ****  **************************************************************************************************
 465:D:/Work/DeviceTester/amazon-freertos/lib/third_party/mcu_vendor/renesas/rz_mcu_boards/core_package/generate/system\r_devlink_wrapper.c **** 
 466:D:/Work/DeviceTester/amazon-freertos/lib/third_party/mcu_vendor/renesas/rz_mcu_boards/core_package/generate/system\r_devlink_wrapper.c **** /**************************************************************************************************
 467:D:/Work/DeviceTester/amazon-freertos/lib/third_party/mcu_vendor/renesas/rz_mcu_boards/core_package/generate/system\r_devlink_wrapper.c ****  * Function Name: no_dev_get_version
 468:D:/Work/DeviceTester/amazon-freertos/lib/third_party/mcu_vendor/renesas/rz_mcu_boards/core_package/generate/system\r_devlink_wrapper.c ****  * Description  : Function to version control stub
 469:D:/Work/DeviceTester/amazon-freertos/lib/third_party/mcu_vendor/renesas/rz_mcu_boards/core_package/generate/system\r_devlink_wrapper.c ****  * Arguments    :
 470:D:/Work/DeviceTester/amazon-freertos/lib/third_party/mcu_vendor/renesas/rz_mcu_boards/core_package/generate/system\r_devlink_wrapper.c ****  *
 471:D:/Work/DeviceTester/amazon-freertos/lib/third_party/mcu_vendor/renesas/rz_mcu_boards/core_package/generate/system\r_devlink_wrapper.c ****  *  IN  pStream - Pointer to the file stream
 472:D:/Work/DeviceTester/amazon-freertos/lib/third_party/mcu_vendor/renesas/rz_mcu_boards/core_package/generate/system\r_devlink_wrapper.c ****  *                IN  st_ver_info_t - The custom control code
 473:D:/Work/DeviceTester/amazon-freertos/lib/third_party/mcu_vendor/renesas/rz_mcu_boards/core_package/generate/system\r_devlink_wrapper.c ****  *                IN  pCtlStruct - Pointer to the custorm control structure
 474:D:/Work/DeviceTester/amazon-freertos/lib/third_party/mcu_vendor/renesas/rz_mcu_boards/core_package/generate/system\r_devlink_wrapper.c ****  *
 475:D:/Work/DeviceTester/amazon-freertos/lib/third_party/mcu_vendor/renesas/rz_mcu_boards/core_package/generate/system\r_devlink_wrapper.c ****  *                st_ver_info_t
 476:D:/Work/DeviceTester/amazon-freertos/lib/third_party/mcu_vendor/renesas/rz_mcu_boards/core_package/generate/system\r_devlink_wrapper.c ****  * Return Value : 0 for success -1 on error
 477:D:/Work/DeviceTester/amazon-freertos/lib/third_party/mcu_vendor/renesas/rz_mcu_boards/core_package/generate/system\r_devlink_wrapper.c ****  **************************************************************************************************
 478:D:/Work/DeviceTester/amazon-freertos/lib/third_party/mcu_vendor/renesas/rz_mcu_boards/core_package/generate/system\r_devlink_wrapper.c **** int_t no_dev_get_version(st_stream_ptr_t pStream, st_ver_info_ptr_t info_ptr)
 479:D:/Work/DeviceTester/amazon-freertos/lib/third_party/mcu_vendor/renesas/rz_mcu_boards/core_package/generate/system\r_devlink_wrapper.c **** {
 111              		.loc 1 479 0
 112              		.cfi_startproc
 113              		@ args = 0, pretend = 0, frame = 0
 114              		@ frame_needed = 0, uses_anonymous_args = 0
 115              		@ link register save eliminated.
 116              	.LVL7:
 480:D:/Work/DeviceTester/amazon-freertos/lib/third_party/mcu_vendor/renesas/rz_mcu_boards/core_package/generate/system\r_devlink_wrapper.c ****     /* avoid unused parameter warning */
 481:D:/Work/DeviceTester/amazon-freertos/lib/third_party/mcu_vendor/renesas/rz_mcu_boards/core_package/generate/system\r_devlink_wrapper.c ****     (void) pStream;
 482:D:/Work/DeviceTester/amazon-freertos/lib/third_party/mcu_vendor/renesas/rz_mcu_boards/core_package/generate/system\r_devlink_wrapper.c **** 
 483:D:/Work/DeviceTester/amazon-freertos/lib/third_party/mcu_vendor/renesas/rz_mcu_boards/core_package/generate/system\r_devlink_wrapper.c ****     /* avoid unused parameter warning */
 484:D:/Work/DeviceTester/amazon-freertos/lib/third_party/mcu_vendor/renesas/rz_mcu_boards/core_package/generate/system\r_devlink_wrapper.c ****     (void) info_ptr;
 485:D:/Work/DeviceTester/amazon-freertos/lib/third_party/mcu_vendor/renesas/rz_mcu_boards/core_package/generate/system\r_devlink_wrapper.c **** 
 486:D:/Work/DeviceTester/amazon-freertos/lib/third_party/mcu_vendor/renesas/rz_mcu_boards/core_package/generate/system\r_devlink_wrapper.c ****     return DRV_ERROR;
 487:D:/Work/DeviceTester/amazon-freertos/lib/third_party/mcu_vendor/renesas/rz_mcu_boards/core_package/generate/system\r_devlink_wrapper.c **** }
 117              		.loc 1 487 0
 118 0000 0000E0E3 		mvn	r0, #0
 119              	.LVL8:
 120 0004 1EFF2FE1 		bx	lr
 121              		.cfi_endproc
 122              	.LFE15:
 124              		.section	.text.dev_get_pointer,"ax",%progbits
 125              		.align	2
 126              		.syntax unified
 127              		.arm
 128              		.fpu neon
 130              	dev_get_pointer:
 131              	.LFB6:
 210:D:/Work/DeviceTester/amazon-freertos/lib/third_party/mcu_vendor/renesas/rz_mcu_boards/core_package/generate/system\r_devlink_wrapper.c ****     /* NULL signifies that the driver is not loaded */
 132              		.loc 1 210 0
 133              		.cfi_startproc
 134              		@ args = 0, pretend = 0, frame = 0
 135              		@ frame_needed = 0, uses_anonymous_args = 0
 136              	.LVL9:
 137 0000 F84F2DE9 		push	{r3, r4, r5, r6, r7, r8, r9, r10, fp, lr}
 138              		.cfi_def_cfa_offset 40
 139              		.cfi_offset 3, -40
 140              		.cfi_offset 4, -36
 141              		.cfi_offset 5, -32
 142              		.cfi_offset 6, -28
 143              		.cfi_offset 7, -24
 144              		.cfi_offset 8, -20
 145              		.cfi_offset 9, -16
 146              		.cfi_offset 10, -12
 147              		.cfi_offset 11, -8
 148              		.cfi_offset 14, -4
 210:D:/Work/DeviceTester/amazon-freertos/lib/third_party/mcu_vendor/renesas/rz_mcu_boards/core_package/generate/system\r_devlink_wrapper.c ****     /* NULL signifies that the driver is not loaded */
 149              		.loc 1 210 0
 150 0004 0080A0E1 		mov	r8, r0
 218:D:/Work/DeviceTester/amazon-freertos/lib/third_party/mcu_vendor/renesas/rz_mcu_boards/core_package/generate/system\r_devlink_wrapper.c ****         {
 151              		.loc 1 218 0
 152 0008 50409FE5 		ldr	r4, .L12
 210:D:/Work/DeviceTester/amazon-freertos/lib/third_party/mcu_vendor/renesas/rz_mcu_boards/core_package/generate/system\r_devlink_wrapper.c ****     /* NULL signifies that the driver is not loaded */
 153              		.loc 1 210 0
 154 000c 0190A0E1 		mov	r9, r1
 155 0010 02A0A0E1 		mov	r10, r2
 213:D:/Work/DeviceTester/amazon-freertos/lib/third_party/mcu_vendor/renesas/rz_mcu_boards/core_package/generate/system\r_devlink_wrapper.c **** 
 156              		.loc 1 213 0
 157 0014 0B50A0E3 		mov	r5, #11
 218:D:/Work/DeviceTester/amazon-freertos/lib/third_party/mcu_vendor/renesas/rz_mcu_boards/core_package/generate/system\r_devlink_wrapper.c ****         {
 158              		.loc 1 218 0
 159 0018 0CB0A0E3 		mov	fp, #12
 160              	.LVL10:
 161              	.L7:
 216:D:/Work/DeviceTester/amazon-freertos/lib/third_party/mcu_vendor/renesas/rz_mcu_boards/core_package/generate/system\r_devlink_wrapper.c ****     {
 162              		.loc 1 216 0
 163 001c 015055E2 		subs	r5, r5, #1
 164              	.LVL11:
 165 0020 0100002A 		bcs	.L9
 230:D:/Work/DeviceTester/amazon-freertos/lib/third_party/mcu_vendor/renesas/rz_mcu_boards/core_package/generate/system\r_devlink_wrapper.c **** }
 166              		.loc 1 230 0
 167 0024 0000A0E3 		mov	r0, #0
 231:D:/Work/DeviceTester/amazon-freertos/lib/third_party/mcu_vendor/renesas/rz_mcu_boards/core_package/generate/system\r_devlink_wrapper.c **** /**************************************************************************************************
 168              		.loc 1 231 0
 169 0028 F88FBDE8 		pop	{r3, r4, r5, r6, r7, r8, r9, r10, fp, pc}
 170              	.L9:
 171              	.LVL12:
 218:D:/Work/DeviceTester/amazon-freertos/lib/third_party/mcu_vendor/renesas/rz_mcu_boards/core_package/generate/system\r_devlink_wrapper.c ****         {
 172              		.loc 1 218 0
 173 002c 9B0506E0 		mul	r6, fp, r5
 174 0030 0800A0E1 		mov	r0, r8
 175 0034 047096E7 		ldr	r7, [r6, r4]
 176 0038 0710A0E1 		mov	r1, r7
 177 003c FEFFFFEB 		bl	strcmp
 178              	.LVL13:
 179 0040 000050E3 		cmp	r0, #0
 180 0044 F4FFFF1A 		bne	.L7
 222:D:/Work/DeviceTester/amazon-freertos/lib/third_party/mcu_vendor/renesas/rz_mcu_boards/core_package/generate/system\r_devlink_wrapper.c **** 
 181              		.loc 1 222 0
 182 0048 064084E0 		add	r4, r4, r6
 221:D:/Work/DeviceTester/amazon-freertos/lib/third_party/mcu_vendor/renesas/rz_mcu_boards/core_package/generate/system\r_devlink_wrapper.c ****             *sc_index_ptr = gs_mount_table[device].sc_config_index;
 183              		.loc 1 221 0
 184 004c 007089E5 		str	r7, [r9]
 222:D:/Work/DeviceTester/amazon-freertos/lib/third_party/mcu_vendor/renesas/rz_mcu_boards/core_package/generate/system\r_devlink_wrapper.c **** 
 185              		.loc 1 222 0
 186 0050 083094E5 		ldr	r3, [r4, #8]
 225:D:/Work/DeviceTester/amazon-freertos/lib/third_party/mcu_vendor/renesas/rz_mcu_boards/core_package/generate/system\r_devlink_wrapper.c ****         }
 187              		.loc 1 225 0
 188 0054 040094E5 		ldr	r0, [r4, #4]
 222:D:/Work/DeviceTester/amazon-freertos/lib/third_party/mcu_vendor/renesas/rz_mcu_boards/core_package/generate/system\r_devlink_wrapper.c **** 
 189              		.loc 1 222 0
 190 0058 00308AE5 		str	r3, [r10]
 225:D:/Work/DeviceTester/amazon-freertos/lib/third_party/mcu_vendor/renesas/rz_mcu_boards/core_package/generate/system\r_devlink_wrapper.c ****         }
 191              		.loc 1 225 0
 192 005c F88FBDE8 		pop	{r3, r4, r5, r6, r7, r8, r9, r10, fp, pc}
 193              	.L13:
 194              		.align	2
 195              	.L12:
 196 0060 00000000 		.word	.LANCHOR0
 197              		.cfi_endproc
 198              	.LFE6:
 200              		.section	.text.no_dev_read,"ax",%progbits
 201              		.align	2
 202              		.global	no_dev_read
 203              		.syntax unified
 204              		.arm
 205              		.fpu neon
 207              	no_dev_read:
 208              	.LFB35:
 209              		.cfi_startproc
 210              		@ args = 0, pretend = 0, frame = 0
 211              		@ frame_needed = 0, uses_anonymous_args = 0
 212              		@ link register save eliminated.
 213 0000 0000E0E3 		mvn	r0, #0
 214 0004 1EFF2FE1 		bx	lr
 215              		.cfi_endproc
 216              	.LFE35:
 218              		.section	.text.direct_open,"ax",%progbits
 219              		.align	2
 220              		.global	direct_open
 221              		.syntax unified
 222              		.arm
 223              		.fpu neon
 225              	direct_open:
 226              	.LFB16:
 488:D:/Work/DeviceTester/amazon-freertos/lib/third_party/mcu_vendor/renesas/rz_mcu_boards/core_package/generate/system\r_devlink_wrapper.c **** /**************************************************************************************************
 489:D:/Work/DeviceTester/amazon-freertos/lib/third_party/mcu_vendor/renesas/rz_mcu_boards/core_package/generate/system\r_devlink_wrapper.c ****  End of function no_dev_get_version
 490:D:/Work/DeviceTester/amazon-freertos/lib/third_party/mcu_vendor/renesas/rz_mcu_boards/core_package/generate/system\r_devlink_wrapper.c ****  **************************************************************************************************
 491:D:/Work/DeviceTester/amazon-freertos/lib/third_party/mcu_vendor/renesas/rz_mcu_boards/core_package/generate/system\r_devlink_wrapper.c **** 
 492:D:/Work/DeviceTester/amazon-freertos/lib/third_party/mcu_vendor/renesas/rz_mcu_boards/core_package/generate/system\r_devlink_wrapper.c **** /**************************************************************************************************
 493:D:/Work/DeviceTester/amazon-freertos/lib/third_party/mcu_vendor/renesas/rz_mcu_boards/core_package/generate/system\r_devlink_wrapper.c ****  * Function Name: direct_open
 494:D:/Work/DeviceTester/amazon-freertos/lib/third_party/mcu_vendor/renesas/rz_mcu_boards/core_package/generate/system\r_devlink_wrapper.c ****  * Description  : devlink direct API open driver function, opens the named driver assuming the name
 495:D:/Work/DeviceTester/amazon-freertos/lib/third_party/mcu_vendor/renesas/rz_mcu_boards/core_package/generate/system\r_devlink_wrapper.c ****  *                and a handle is free.
 496:D:/Work/DeviceTester/amazon-freertos/lib/third_party/mcu_vendor/renesas/rz_mcu_boards/core_package/generate/system\r_devlink_wrapper.c ****  *                direct functions do not use R_OS_Abstraction interface as they may be called befo
 497:D:/Work/DeviceTester/amazon-freertos/lib/third_party/mcu_vendor/renesas/rz_mcu_boards/core_package/generate/system\r_devlink_wrapper.c ****  *                memory manager is initialised.
 498:D:/Work/DeviceTester/amazon-freertos/lib/third_party/mcu_vendor/renesas/rz_mcu_boards/core_package/generate/system\r_devlink_wrapper.c ****  * Arguments    : [IN] p_driver_name - Pointer to the file name (NULL terminated)
 499:D:/Work/DeviceTester/amazon-freertos/lib/third_party/mcu_vendor/renesas/rz_mcu_boards/core_package/generate/system\r_devlink_wrapper.c ****  *                [IN] file_flag - the file access mode parameter
 500:D:/Work/DeviceTester/amazon-freertos/lib/third_party/mcu_vendor/renesas/rz_mcu_boards/core_package/generate/system\r_devlink_wrapper.c ****  * Return Value : 0 for success -1 on error
 501:D:/Work/DeviceTester/amazon-freertos/lib/third_party/mcu_vendor/renesas/rz_mcu_boards/core_package/generate/system\r_devlink_wrapper.c ****  **************************************************************************************************
 502:D:/Work/DeviceTester/amazon-freertos/lib/third_party/mcu_vendor/renesas/rz_mcu_boards/core_package/generate/system\r_devlink_wrapper.c **** int_t direct_open(char *p_driver_name, int_t file_flag)
 503:D:/Work/DeviceTester/amazon-freertos/lib/third_party/mcu_vendor/renesas/rz_mcu_boards/core_package/generate/system\r_devlink_wrapper.c **** {
 227              		.loc 1 503 0
 228              		.cfi_startproc
 229              		@ args = 0, pretend = 0, frame = 40
 230              		@ frame_needed = 0, uses_anonymous_args = 0
 231              	.LVL14:
 232              	.LBB10:
 233              	.LBB11:
  90:D:/Work/DeviceTester/amazon-freertos/lib/third_party/mcu_vendor/renesas/rz_mcu_boards/core_package/generate/system\r_devlink_wrapper.c ****         {
 234              		.loc 1 90 0
 235 0000 30319FE5 		ldr	r3, .L43
  87:D:/Work/DeviceTester/amazon-freertos/lib/third_party/mcu_vendor/renesas/rz_mcu_boards/core_package/generate/system\r_devlink_wrapper.c ****     {
 236              		.loc 1 87 0
 237 0004 0320A0E3 		mov	r2, #3
 238              	.LBE11:
 239              	.LBE10:
 240              		.loc 1 503 0
 241 0008 F0402DE9 		push	{r4, r5, r6, r7, lr}
 242              		.cfi_def_cfa_offset 20
 243              		.cfi_offset 4, -20
 244              		.cfi_offset 5, -16
 245              		.cfi_offset 6, -12
 246              		.cfi_offset 7, -8
 247              		.cfi_offset 14, -4
 248              	.LBB14:
 249              	.LBB12:
  84:D:/Work/DeviceTester/amazon-freertos/lib/third_party/mcu_vendor/renesas/rz_mcu_boards/core_package/generate/system\r_devlink_wrapper.c ****     int_t findex;
 250              		.loc 1 84 0
 251 000c 0040E0E3 		mvn	r4, #0
 252              	.LBE12:
 253              	.LBE14:
 254              		.loc 1 503 0
 255 0010 2CD04DE2 		sub	sp, sp, #44
 256              		.cfi_def_cfa_offset 64
 257 0014 0350A0E1 		mov	r5, r3
 258              	.LVL15:
 259              	.L17:
 260              	.LBB15:
 261              	.LBB13:
  90:D:/Work/DeviceTester/amazon-freertos/lib/third_party/mcu_vendor/renesas/rz_mcu_boards/core_package/generate/system\r_devlink_wrapper.c ****         {
 262              		.loc 1 90 0
 263 0018 82C293E7 		ldr	ip, [r3, r2, lsl #5]
 264 001c 00005CE3 		cmp	ip, #0
 265 0020 0240A001 		moveq	r4, r2
  96:D:/Work/DeviceTester/amazon-freertos/lib/third_party/mcu_vendor/renesas/rz_mcu_boards/core_package/generate/system\r_devlink_wrapper.c ****         }
 266              		.loc 1 96 0
 267 0024 5520A003 		moveq	r2, #85
 268              	.LVL16:
  87:D:/Work/DeviceTester/amazon-freertos/lib/third_party/mcu_vendor/renesas/rz_mcu_boards/core_package/generate/system\r_devlink_wrapper.c ****     {
 269              		.loc 1 87 0
 270 0028 012082E2 		add	r2, r2, #1
 271              	.LVL17:
 272 002c 530052E3 		cmp	r2, #83
 273 0030 F8FFFFDA 		ble	.L17
 274              	.LVL18:
 275              	.LBE13:
 276              	.LBE15:
 504:D:/Work/DeviceTester/amazon-freertos/lib/third_party/mcu_vendor/renesas/rz_mcu_boards/core_package/generate/system\r_devlink_wrapper.c ****     int_t handle = DRV_ERROR;
 505:D:/Work/DeviceTester/amazon-freertos/lib/third_party/mcu_vendor/renesas/rz_mcu_boards/core_package/generate/system\r_devlink_wrapper.c ****     int_t local_handle;
 506:D:/Work/DeviceTester/amazon-freertos/lib/third_party/mcu_vendor/renesas/rz_mcu_boards/core_package/generate/system\r_devlink_wrapper.c ****     int_t open_result = DRV_ERROR;
 507:D:/Work/DeviceTester/amazon-freertos/lib/third_party/mcu_vendor/renesas/rz_mcu_boards/core_package/generate/system\r_devlink_wrapper.c **** 
 508:D:/Work/DeviceTester/amazon-freertos/lib/third_party/mcu_vendor/renesas/rz_mcu_boards/core_package/generate/system\r_devlink_wrapper.c ****     /* Get the next free handle between  values of FIRST_DIRECT_FILE and IOSTREAM, or DRV_ERROR */
 509:D:/Work/DeviceTester/amazon-freertos/lib/third_party/mcu_vendor/renesas/rz_mcu_boards/core_package/generate/system\r_devlink_wrapper.c ****     local_handle = get_first_free_direct_handle (p_driver_name);
 510:D:/Work/DeviceTester/amazon-freertos/lib/third_party/mcu_vendor/renesas/rz_mcu_boards/core_package/generate/system\r_devlink_wrapper.c **** 
 511:D:/Work/DeviceTester/amazon-freertos/lib/third_party/mcu_vendor/renesas/rz_mcu_boards/core_package/generate/system\r_devlink_wrapper.c ****     if (DRV_ERROR != local_handle)
 277              		.loc 1 511 0
 278 0034 010074E3 		cmn	r4, #1
 279 0038 0C00000A 		beq	.L15
 280              	.LBB16:
 512:D:/Work/DeviceTester/amazon-freertos/lib/third_party/mcu_vendor/renesas/rz_mcu_boards/core_package/generate/system\r_devlink_wrapper.c ****     {
 513:D:/Work/DeviceTester/amazon-freertos/lib/third_party/mcu_vendor/renesas/rz_mcu_boards/core_package/generate/system\r_devlink_wrapper.c ****         char_t link_name[32];
 514:D:/Work/DeviceTester/amazon-freertos/lib/third_party/mcu_vendor/renesas/rz_mcu_boards/core_package/generate/system\r_devlink_wrapper.c **** 
 515:D:/Work/DeviceTester/amazon-freertos/lib/third_party/mcu_vendor/renesas/rz_mcu_boards/core_package/generate/system\r_devlink_wrapper.c ****         /* pre-fix the driver ID onto the device_name allowing direct and stdio calls to share code
 516:D:/Work/DeviceTester/amazon-freertos/lib/third_party/mcu_vendor/renesas/rz_mcu_boards/core_package/generate/system\r_devlink_wrapper.c ****         sprintf (link_name, "%s%s", DEVICE_INDENTIFIER, p_driver_name);
 281              		.loc 1 516 0
 282 003c 08708DE2 		add	r7, sp, #8
 283 0040 0030A0E1 		mov	r3, r0
 284 0044 F0209FE5 		ldr	r2, .L43+4
 285 0048 0160A0E1 		mov	r6, r1
 286 004c 0700A0E1 		mov	r0, r7
 287              	.LVL19:
 288 0050 E8109FE5 		ldr	r1, .L43+8
 289              	.LVL20:
 290 0054 FEFFFFEB 		bl	sprintf
 291              	.LVL21:
 292              	.LBB17:
 293              	.LBB18:
 247:D:/Work/DeviceTester/amazon-freertos/lib/third_party/mcu_vendor/renesas/rz_mcu_boards/core_package/generate/system\r_devlink_wrapper.c ****     {
 294              		.loc 1 247 0
 295 0058 DC109FE5 		ldr	r1, .L43+4
 296 005c 0700A0E1 		mov	r0, r7
 297 0060 FEFFFFEB 		bl	strstr
 298              	.LVL22:
 299 0064 000057E1 		cmp	r7, r0
 300 0068 1800000A 		beq	.L19
 301              	.LVL23:
 302              	.L42:
 303              	.LBE18:
 304              	.LBE17:
 305              	.LBB19:
 306 006c 0040E0E3 		mvn	r4, #0
 307              	.LVL24:
 308              	.L15:
 309              	.LBE19:
 310              	.LBE16:
 517:D:/Work/DeviceTester/amazon-freertos/lib/third_party/mcu_vendor/renesas/rz_mcu_boards/core_package/generate/system\r_devlink_wrapper.c **** 
 518:D:/Work/DeviceTester/amazon-freertos/lib/third_party/mcu_vendor/renesas/rz_mcu_boards/core_package/generate/system\r_devlink_wrapper.c ****         char_t * p_link_name = get_device_name (link_name);
 519:D:/Work/DeviceTester/amazon-freertos/lib/third_party/mcu_vendor/renesas/rz_mcu_boards/core_package/generate/system\r_devlink_wrapper.c **** 
 520:D:/Work/DeviceTester/amazon-freertos/lib/third_party/mcu_vendor/renesas/rz_mcu_boards/core_package/generate/system\r_devlink_wrapper.c ****         /* check to see if this is a driver NULL signifies driver name not found */
 521:D:/Work/DeviceTester/amazon-freertos/lib/third_party/mcu_vendor/renesas/rz_mcu_boards/core_package/generate/system\r_devlink_wrapper.c ****         if (p_link_name)
 522:D:/Work/DeviceTester/amazon-freertos/lib/third_party/mcu_vendor/renesas/rz_mcu_boards/core_package/generate/system\r_devlink_wrapper.c ****         {
 523:D:/Work/DeviceTester/amazon-freertos/lib/third_party/mcu_vendor/renesas/rz_mcu_boards/core_package/generate/system\r_devlink_wrapper.c ****             char_t * p_stream_name;
 524:D:/Work/DeviceTester/amazon-freertos/lib/third_party/mcu_vendor/renesas/rz_mcu_boards/core_package/generate/system\r_devlink_wrapper.c ****             uint32_t sc_index;
 525:D:/Work/DeviceTester/amazon-freertos/lib/third_party/mcu_vendor/renesas/rz_mcu_boards/core_package/generate/system\r_devlink_wrapper.c **** 
 526:D:/Work/DeviceTester/amazon-freertos/lib/third_party/mcu_vendor/renesas/rz_mcu_boards/core_package/generate/system\r_devlink_wrapper.c ****             st_r_driver_t * p_device_driver = dev_get_pointer (p_link_name, &p_stream_name, &sc_ind
 527:D:/Work/DeviceTester/amazon-freertos/lib/third_party/mcu_vendor/renesas/rz_mcu_boards/core_package/generate/system\r_devlink_wrapper.c **** 
 528:D:/Work/DeviceTester/amazon-freertos/lib/third_party/mcu_vendor/renesas/rz_mcu_boards/core_package/generate/system\r_devlink_wrapper.c ****             gs_filestream[local_handle].p_device_driver = &gs_no_driver;
 529:D:/Work/DeviceTester/amazon-freertos/lib/third_party/mcu_vendor/renesas/rz_mcu_boards/core_package/generate/system\r_devlink_wrapper.c **** 
 530:D:/Work/DeviceTester/amazon-freertos/lib/third_party/mcu_vendor/renesas/rz_mcu_boards/core_package/generate/system\r_devlink_wrapper.c ****             if (p_device_driver)
 531:D:/Work/DeviceTester/amazon-freertos/lib/third_party/mcu_vendor/renesas/rz_mcu_boards/core_package/generate/system\r_devlink_wrapper.c ****             {
 532:D:/Work/DeviceTester/amazon-freertos/lib/third_party/mcu_vendor/renesas/rz_mcu_boards/core_package/generate/system\r_devlink_wrapper.c ****                 gs_filestream[local_handle].p_stream_name = p_stream_name;
 533:D:/Work/DeviceTester/amazon-freertos/lib/third_party/mcu_vendor/renesas/rz_mcu_boards/core_package/generate/system\r_devlink_wrapper.c ****                 gs_filestream[local_handle].p_device_driver = p_device_driver;
 534:D:/Work/DeviceTester/amazon-freertos/lib/third_party/mcu_vendor/renesas/rz_mcu_boards/core_package/generate/system\r_devlink_wrapper.c ****                 gs_filestream[local_handle].sc_config_index = sc_index;
 535:D:/Work/DeviceTester/amazon-freertos/lib/third_party/mcu_vendor/renesas/rz_mcu_boards/core_package/generate/system\r_devlink_wrapper.c ****             }
 536:D:/Work/DeviceTester/amazon-freertos/lib/third_party/mcu_vendor/renesas/rz_mcu_boards/core_package/generate/system\r_devlink_wrapper.c ****             else
 537:D:/Work/DeviceTester/amazon-freertos/lib/third_party/mcu_vendor/renesas/rz_mcu_boards/core_package/generate/system\r_devlink_wrapper.c ****             {
 538:D:/Work/DeviceTester/amazon-freertos/lib/third_party/mcu_vendor/renesas/rz_mcu_boards/core_package/generate/system\r_devlink_wrapper.c ****                 open_result = DRV_ERROR;
 539:D:/Work/DeviceTester/amazon-freertos/lib/third_party/mcu_vendor/renesas/rz_mcu_boards/core_package/generate/system\r_devlink_wrapper.c ****                 handle = DRV_ERROR;
 540:D:/Work/DeviceTester/amazon-freertos/lib/third_party/mcu_vendor/renesas/rz_mcu_boards/core_package/generate/system\r_devlink_wrapper.c ****             }
 541:D:/Work/DeviceTester/amazon-freertos/lib/third_party/mcu_vendor/renesas/rz_mcu_boards/core_package/generate/system\r_devlink_wrapper.c **** 
 542:D:/Work/DeviceTester/amazon-freertos/lib/third_party/mcu_vendor/renesas/rz_mcu_boards/core_package/generate/system\r_devlink_wrapper.c ****             /* If we found a device or a file then open it */
 543:D:/Work/DeviceTester/amazon-freertos/lib/third_party/mcu_vendor/renesas/rz_mcu_boards/core_package/generate/system\r_devlink_wrapper.c ****             if ((gs_filestream[local_handle].p_device_driver)
 544:D:/Work/DeviceTester/amazon-freertos/lib/third_party/mcu_vendor/renesas/rz_mcu_boards/core_package/generate/system\r_devlink_wrapper.c ****                     && ((&gs_no_driver) != gs_filestream[local_handle].p_device_driver))
 545:D:/Work/DeviceTester/amazon-freertos/lib/third_party/mcu_vendor/renesas/rz_mcu_boards/core_package/generate/system\r_devlink_wrapper.c ****             {
 546:D:/Work/DeviceTester/amazon-freertos/lib/third_party/mcu_vendor/renesas/rz_mcu_boards/core_package/generate/system\r_devlink_wrapper.c ****                 st_stream_ptr_t pstream = &gs_filestream[local_handle];
 547:D:/Work/DeviceTester/amazon-freertos/lib/third_party/mcu_vendor/renesas/rz_mcu_boards/core_package/generate/system\r_devlink_wrapper.c **** 
 548:D:/Work/DeviceTester/amazon-freertos/lib/third_party/mcu_vendor/renesas/rz_mcu_boards/core_package/generate/system\r_devlink_wrapper.c ****                 pstream->file_number = local_handle;
 549:D:/Work/DeviceTester/amazon-freertos/lib/third_party/mcu_vendor/renesas/rz_mcu_boards/core_package/generate/system\r_devlink_wrapper.c **** 
 550:D:/Work/DeviceTester/amazon-freertos/lib/third_party/mcu_vendor/renesas/rz_mcu_boards/core_package/generate/system\r_devlink_wrapper.c ****                 /* check for read and write */
 551:D:/Work/DeviceTester/amazon-freertos/lib/third_party/mcu_vendor/renesas/rz_mcu_boards/core_package/generate/system\r_devlink_wrapper.c ****                 if ((file_flag & O_RDWR) > 0)
 552:D:/Work/DeviceTester/amazon-freertos/lib/third_party/mcu_vendor/renesas/rz_mcu_boards/core_package/generate/system\r_devlink_wrapper.c ****                 {
 553:D:/Work/DeviceTester/amazon-freertos/lib/third_party/mcu_vendor/renesas/rz_mcu_boards/core_package/generate/system\r_devlink_wrapper.c ****                     pstream->file_mode = (__SRD | __SWR);
 554:D:/Work/DeviceTester/amazon-freertos/lib/third_party/mcu_vendor/renesas/rz_mcu_boards/core_package/generate/system\r_devlink_wrapper.c ****                 }
 555:D:/Work/DeviceTester/amazon-freertos/lib/third_party/mcu_vendor/renesas/rz_mcu_boards/core_package/generate/system\r_devlink_wrapper.c **** 
 556:D:/Work/DeviceTester/amazon-freertos/lib/third_party/mcu_vendor/renesas/rz_mcu_boards/core_package/generate/system\r_devlink_wrapper.c ****                 /* check for write only */
 557:D:/Work/DeviceTester/amazon-freertos/lib/third_party/mcu_vendor/renesas/rz_mcu_boards/core_package/generate/system\r_devlink_wrapper.c ****                 else if ((file_flag & O_WRONLY) > 0)
 558:D:/Work/DeviceTester/amazon-freertos/lib/third_party/mcu_vendor/renesas/rz_mcu_boards/core_package/generate/system\r_devlink_wrapper.c ****                 {
 559:D:/Work/DeviceTester/amazon-freertos/lib/third_party/mcu_vendor/renesas/rz_mcu_boards/core_package/generate/system\r_devlink_wrapper.c ****                     pstream->file_mode = __SWR;
 560:D:/Work/DeviceTester/amazon-freertos/lib/third_party/mcu_vendor/renesas/rz_mcu_boards/core_package/generate/system\r_devlink_wrapper.c ****                 }
 561:D:/Work/DeviceTester/amazon-freertos/lib/third_party/mcu_vendor/renesas/rz_mcu_boards/core_package/generate/system\r_devlink_wrapper.c ****                 else
 562:D:/Work/DeviceTester/amazon-freertos/lib/third_party/mcu_vendor/renesas/rz_mcu_boards/core_package/generate/system\r_devlink_wrapper.c ****                 {
 563:D:/Work/DeviceTester/amazon-freertos/lib/third_party/mcu_vendor/renesas/rz_mcu_boards/core_package/generate/system\r_devlink_wrapper.c ****                     /* If a open is requested with unrecognised flags such as 'rb', grant read only
 564:D:/Work/DeviceTester/amazon-freertos/lib/third_party/mcu_vendor/renesas/rz_mcu_boards/core_package/generate/system\r_devlink_wrapper.c ****                     /* to allow a level of functionality */
 565:D:/Work/DeviceTester/amazon-freertos/lib/third_party/mcu_vendor/renesas/rz_mcu_boards/core_package/generate/system\r_devlink_wrapper.c ****                     pstream->file_mode = __SRD;
 566:D:/Work/DeviceTester/amazon-freertos/lib/third_party/mcu_vendor/renesas/rz_mcu_boards/core_package/generate/system\r_devlink_wrapper.c ****                 }
 567:D:/Work/DeviceTester/amazon-freertos/lib/third_party/mcu_vendor/renesas/rz_mcu_boards/core_package/generate/system\r_devlink_wrapper.c **** 
 568:D:/Work/DeviceTester/amazon-freertos/lib/third_party/mcu_vendor/renesas/rz_mcu_boards/core_package/generate/system\r_devlink_wrapper.c ****                 /* check for create & add write */
 569:D:/Work/DeviceTester/amazon-freertos/lib/third_party/mcu_vendor/renesas/rz_mcu_boards/core_package/generate/system\r_devlink_wrapper.c ****                 if ((file_flag & O_CREAT) > 0)
 570:D:/Work/DeviceTester/amazon-freertos/lib/third_party/mcu_vendor/renesas/rz_mcu_boards/core_package/generate/system\r_devlink_wrapper.c ****                 {
 571:D:/Work/DeviceTester/amazon-freertos/lib/third_party/mcu_vendor/renesas/rz_mcu_boards/core_package/generate/system\r_devlink_wrapper.c ****                     pstream->file_mode |= __SWR;
 572:D:/Work/DeviceTester/amazon-freertos/lib/third_party/mcu_vendor/renesas/rz_mcu_boards/core_package/generate/system\r_devlink_wrapper.c ****                 }
 573:D:/Work/DeviceTester/amazon-freertos/lib/third_party/mcu_vendor/renesas/rz_mcu_boards/core_package/generate/system\r_devlink_wrapper.c **** 
 574:D:/Work/DeviceTester/amazon-freertos/lib/third_party/mcu_vendor/renesas/rz_mcu_boards/core_package/generate/system\r_devlink_wrapper.c ****                 pstream->file_flag = file_flag;
 575:D:/Work/DeviceTester/amazon-freertos/lib/third_party/mcu_vendor/renesas/rz_mcu_boards/core_package/generate/system\r_devlink_wrapper.c **** 
 576:D:/Work/DeviceTester/amazon-freertos/lib/third_party/mcu_vendor/renesas/rz_mcu_boards/core_package/generate/system\r_devlink_wrapper.c ****                 open_result = pstream->p_device_driver->open (pstream);
 577:D:/Work/DeviceTester/amazon-freertos/lib/third_party/mcu_vendor/renesas/rz_mcu_boards/core_package/generate/system\r_devlink_wrapper.c ****             }
 578:D:/Work/DeviceTester/amazon-freertos/lib/third_party/mcu_vendor/renesas/rz_mcu_boards/core_package/generate/system\r_devlink_wrapper.c **** 
 579:D:/Work/DeviceTester/amazon-freertos/lib/third_party/mcu_vendor/renesas/rz_mcu_boards/core_package/generate/system\r_devlink_wrapper.c ****             if (DRV_ERROR == open_result)
 580:D:/Work/DeviceTester/amazon-freertos/lib/third_party/mcu_vendor/renesas/rz_mcu_boards/core_package/generate/system\r_devlink_wrapper.c ****             {
 581:D:/Work/DeviceTester/amazon-freertos/lib/third_party/mcu_vendor/renesas/rz_mcu_boards/core_package/generate/system\r_devlink_wrapper.c ****                 /* Device failed to open */
 582:D:/Work/DeviceTester/amazon-freertos/lib/third_party/mcu_vendor/renesas/rz_mcu_boards/core_package/generate/system\r_devlink_wrapper.c ****                 memset (&gs_filestream[local_handle], 0x00, sizeof(st_stream_t));
 583:D:/Work/DeviceTester/amazon-freertos/lib/third_party/mcu_vendor/renesas/rz_mcu_boards/core_package/generate/system\r_devlink_wrapper.c **** 
 584:D:/Work/DeviceTester/amazon-freertos/lib/third_party/mcu_vendor/renesas/rz_mcu_boards/core_package/generate/system\r_devlink_wrapper.c ****                 /* NULL signifies that the driver is not loaded */
 585:D:/Work/DeviceTester/amazon-freertos/lib/third_party/mcu_vendor/renesas/rz_mcu_boards/core_package/generate/system\r_devlink_wrapper.c ****                 gs_filestream[local_handle].p_device_driver = NULL;
 586:D:/Work/DeviceTester/amazon-freertos/lib/third_party/mcu_vendor/renesas/rz_mcu_boards/core_package/generate/system\r_devlink_wrapper.c ****             }
 587:D:/Work/DeviceTester/amazon-freertos/lib/third_party/mcu_vendor/renesas/rz_mcu_boards/core_package/generate/system\r_devlink_wrapper.c ****             else
 588:D:/Work/DeviceTester/amazon-freertos/lib/third_party/mcu_vendor/renesas/rz_mcu_boards/core_package/generate/system\r_devlink_wrapper.c ****             {
 589:D:/Work/DeviceTester/amazon-freertos/lib/third_party/mcu_vendor/renesas/rz_mcu_boards/core_package/generate/system\r_devlink_wrapper.c ****                 /* Device opened successfully assign the handle */
 590:D:/Work/DeviceTester/amazon-freertos/lib/third_party/mcu_vendor/renesas/rz_mcu_boards/core_package/generate/system\r_devlink_wrapper.c ****                 handle = local_handle;
 591:D:/Work/DeviceTester/amazon-freertos/lib/third_party/mcu_vendor/renesas/rz_mcu_boards/core_package/generate/system\r_devlink_wrapper.c ****             }
 592:D:/Work/DeviceTester/amazon-freertos/lib/third_party/mcu_vendor/renesas/rz_mcu_boards/core_package/generate/system\r_devlink_wrapper.c ****         }
 593:D:/Work/DeviceTester/amazon-freertos/lib/third_party/mcu_vendor/renesas/rz_mcu_boards/core_package/generate/system\r_devlink_wrapper.c ****     }
 594:D:/Work/DeviceTester/amazon-freertos/lib/third_party/mcu_vendor/renesas/rz_mcu_boards/core_package/generate/system\r_devlink_wrapper.c **** 
 595:D:/Work/DeviceTester/amazon-freertos/lib/third_party/mcu_vendor/renesas/rz_mcu_boards/core_package/generate/system\r_devlink_wrapper.c ****     return (handle);
 596:D:/Work/DeviceTester/amazon-freertos/lib/third_party/mcu_vendor/renesas/rz_mcu_boards/core_package/generate/system\r_devlink_wrapper.c **** }
 311              		.loc 1 596 0
 312 0070 0400A0E1 		mov	r0, r4
 313 0074 2CD08DE2 		add	sp, sp, #44
 314              		.cfi_remember_state
 315              		.cfi_def_cfa_offset 20
 316              		@ sp needed
 317 0078 F080BDE8 		pop	{r4, r5, r6, r7, pc}
 318              	.LVL25:
 319              	.L21:
 320              		.cfi_restore_state
 321              	.LBB22:
 322              	.LBB21:
 323              	.LBB20:
 551:D:/Work/DeviceTester/amazon-freertos/lib/third_party/mcu_vendor/renesas/rz_mcu_boards/core_package/generate/system\r_devlink_wrapper.c ****                 {
 324              		.loc 1 551 0
 325 007c 020016E3 		tst	r6, #2
 546:D:/Work/DeviceTester/amazon-freertos/lib/third_party/mcu_vendor/renesas/rz_mcu_boards/core_package/generate/system\r_devlink_wrapper.c **** 
 326              		.loc 1 546 0
 327 0080 070085E0 		add	r0, r5, r7
 328              	.LVL26:
 548:D:/Work/DeviceTester/amazon-freertos/lib/third_party/mcu_vendor/renesas/rz_mcu_boards/core_package/generate/system\r_devlink_wrapper.c **** 
 329              		.loc 1 548 0
 330 0084 104080E5 		str	r4, [r0, #16]
 553:D:/Work/DeviceTester/amazon-freertos/lib/third_party/mcu_vendor/renesas/rz_mcu_boards/core_package/generate/system\r_devlink_wrapper.c ****                 }
 331              		.loc 1 553 0
 332 0088 0C30A013 		movne	r3, #12
 551:D:/Work/DeviceTester/amazon-freertos/lib/third_party/mcu_vendor/renesas/rz_mcu_boards/core_package/generate/system\r_devlink_wrapper.c ****                 {
 333              		.loc 1 551 0
 334 008c 0200001A 		bne	.L41
 557:D:/Work/DeviceTester/amazon-freertos/lib/third_party/mcu_vendor/renesas/rz_mcu_boards/core_package/generate/system\r_devlink_wrapper.c ****                 {
 335              		.loc 1 557 0
 336 0090 010016E3 		tst	r6, #1
 559:D:/Work/DeviceTester/amazon-freertos/lib/third_party/mcu_vendor/renesas/rz_mcu_boards/core_package/generate/system\r_devlink_wrapper.c ****                 }
 337              		.loc 1 559 0
 338 0094 0830A013 		movne	r3, #8
 565:D:/Work/DeviceTester/amazon-freertos/lib/third_party/mcu_vendor/renesas/rz_mcu_boards/core_package/generate/system\r_devlink_wrapper.c ****                 }
 339              		.loc 1 565 0
 340 0098 0430A003 		moveq	r3, #4
 341              	.L41:
 569:D:/Work/DeviceTester/amazon-freertos/lib/third_party/mcu_vendor/renesas/rz_mcu_boards/core_package/generate/system\r_devlink_wrapper.c ****                 {
 342              		.loc 1 569 0
 343 009c 020C16E3 		tst	r6, #512
 565:D:/Work/DeviceTester/amazon-freertos/lib/third_party/mcu_vendor/renesas/rz_mcu_boards/core_package/generate/system\r_devlink_wrapper.c ****                 }
 344              		.loc 1 565 0
 345 00a0 143080E5 		str	r3, [r0, #20]
 571:D:/Work/DeviceTester/amazon-freertos/lib/third_party/mcu_vendor/renesas/rz_mcu_boards/core_package/generate/system\r_devlink_wrapper.c ****                 }
 346              		.loc 1 571 0
 347 00a4 07108510 		addne	r1, r5, r7
 348 00a8 14309115 		ldrne	r3, [r1, #20]
 349 00ac 08308313 		orrne	r3, r3, #8
 350 00b0 14308115 		strne	r3, [r1, #20]
 574:D:/Work/DeviceTester/amazon-freertos/lib/third_party/mcu_vendor/renesas/rz_mcu_boards/core_package/generate/system\r_devlink_wrapper.c **** 
 351              		.loc 1 574 0
 352 00b4 073085E0 		add	r3, r5, r7
 353 00b8 186083E5 		str	r6, [r3, #24]
 576:D:/Work/DeviceTester/amazon-freertos/lib/third_party/mcu_vendor/renesas/rz_mcu_boards/core_package/generate/system\r_devlink_wrapper.c ****             }
 354              		.loc 1 576 0
 355 00bc 043092E5 		ldr	r3, [r2, #4]
 356 00c0 33FF2FE1 		blx	r3
 357              	.LVL27:
 358              	.LBE20:
 579:D:/Work/DeviceTester/amazon-freertos/lib/third_party/mcu_vendor/renesas/rz_mcu_boards/core_package/generate/system\r_devlink_wrapper.c ****             {
 359              		.loc 1 579 0
 360 00c4 010070E3 		cmn	r0, #1
 361 00c8 E8FFFF1A 		bne	.L15
 362 00cc 120000EA 		b	.L27
 363              	.LVL28:
 364              	.L19:
 526:D:/Work/DeviceTester/amazon-freertos/lib/third_party/mcu_vendor/renesas/rz_mcu_boards/core_package/generate/system\r_devlink_wrapper.c **** 
 365              		.loc 1 526 0
 366 00d0 04208DE2 		add	r2, sp, #4
 367 00d4 0D10A0E1 		mov	r1, sp
 368 00d8 0C008DE2 		add	r0, sp, #12
 369 00dc 8472A0E1 		lsl	r7, r4, #5
 370 00e0 FEFFFFEB 		bl	dev_get_pointer
 371              	.LVL29:
 528:D:/Work/DeviceTester/amazon-freertos/lib/third_party/mcu_vendor/renesas/rz_mcu_boards/core_package/generate/system\r_devlink_wrapper.c **** 
 372              		.loc 1 528 0
 373 00e4 58309FE5 		ldr	r3, .L43+12
 530:D:/Work/DeviceTester/amazon-freertos/lib/third_party/mcu_vendor/renesas/rz_mcu_boards/core_package/generate/system\r_devlink_wrapper.c ****             {
 374              		.loc 1 530 0
 375 00e8 000050E3 		cmp	r0, #0
 528:D:/Work/DeviceTester/amazon-freertos/lib/third_party/mcu_vendor/renesas/rz_mcu_boards/core_package/generate/system\r_devlink_wrapper.c **** 
 376              		.loc 1 528 0
 377 00ec 843285E7 		str	r3, [r5, r4, lsl #5]
 530:D:/Work/DeviceTester/amazon-freertos/lib/third_party/mcu_vendor/renesas/rz_mcu_boards/core_package/generate/system\r_devlink_wrapper.c ****             {
 378              		.loc 1 530 0
 379 00f0 0500000A 		beq	.L29
 532:D:/Work/DeviceTester/amazon-freertos/lib/third_party/mcu_vendor/renesas/rz_mcu_boards/core_package/generate/system\r_devlink_wrapper.c ****                 gs_filestream[local_handle].p_device_driver = p_device_driver;
 380              		.loc 1 532 0
 381 00f4 00109DE5 		ldr	r1, [sp]
 382 00f8 072085E0 		add	r2, r5, r7
 533:D:/Work/DeviceTester/amazon-freertos/lib/third_party/mcu_vendor/renesas/rz_mcu_boards/core_package/generate/system\r_devlink_wrapper.c ****                 gs_filestream[local_handle].sc_config_index = sc_index;
 383              		.loc 1 533 0
 384 00fc 840285E7 		str	r0, [r5, r4, lsl #5]
 532:D:/Work/DeviceTester/amazon-freertos/lib/third_party/mcu_vendor/renesas/rz_mcu_boards/core_package/generate/system\r_devlink_wrapper.c ****                 gs_filestream[local_handle].p_device_driver = p_device_driver;
 385              		.loc 1 532 0
 386 0100 081082E5 		str	r1, [r2, #8]
 534:D:/Work/DeviceTester/amazon-freertos/lib/third_party/mcu_vendor/renesas/rz_mcu_boards/core_package/generate/system\r_devlink_wrapper.c ****             }
 387              		.loc 1 534 0
 388 0104 04109DE5 		ldr	r1, [sp, #4]
 389 0108 1C10C2E5 		strb	r1, [r2, #28]
 390              	.L29:
 543:D:/Work/DeviceTester/amazon-freertos/lib/third_party/mcu_vendor/renesas/rz_mcu_boards/core_package/generate/system\r_devlink_wrapper.c ****                     && ((&gs_no_driver) != gs_filestream[local_handle].p_device_driver))
 391              		.loc 1 543 0
 392 010c 842295E7 		ldr	r2, [r5, r4, lsl #5]
 544:D:/Work/DeviceTester/amazon-freertos/lib/third_party/mcu_vendor/renesas/rz_mcu_boards/core_package/generate/system\r_devlink_wrapper.c ****             {
 393              		.loc 1 544 0
 394 0110 030052E1 		cmp	r2, r3
 395 0114 00005213 		cmpne	r2, #0
 396 0118 D7FFFF1A 		bne	.L21
 397              	.LVL30:
 398              	.L27:
 582:D:/Work/DeviceTester/amazon-freertos/lib/third_party/mcu_vendor/renesas/rz_mcu_boards/core_package/generate/system\r_devlink_wrapper.c **** 
 399              		.loc 1 582 0
 400 011c 2020A0E3 		mov	r2, #32
 401 0120 0010A0E3 		mov	r1, #0
 402 0124 070085E0 		add	r0, r5, r7
 403 0128 FEFFFFEB 		bl	memset
 404              	.LVL31:
 585:D:/Work/DeviceTester/amazon-freertos/lib/third_party/mcu_vendor/renesas/rz_mcu_boards/core_package/generate/system\r_devlink_wrapper.c ****             }
 405              		.loc 1 585 0
 406 012c 0030A0E3 		mov	r3, #0
 407 0130 843285E7 		str	r3, [r5, r4, lsl #5]
 408 0134 CCFFFFEA 		b	.L42
 409              	.L44:
 410              		.align	2
 411              	.L43:
 412 0138 00000000 		.word	.LANCHOR1
 413 013c 00000000 		.word	.LC0
 414 0140 05000000 		.word	.LC1
 415 0144 00000000 		.word	.LANCHOR2
 416              	.LBE21:
 417              	.LBE22:
 418              		.cfi_endproc
 419              	.LFE16:
 421              		.section	.text.direct_close,"ax",%progbits
 422              		.align	2
 423              		.global	direct_close
 424              		.syntax unified
 425              		.arm
 426              		.fpu neon
 428              	direct_close:
 429              	.LFB17:
 597:D:/Work/DeviceTester/amazon-freertos/lib/third_party/mcu_vendor/renesas/rz_mcu_boards/core_package/generate/system\r_devlink_wrapper.c **** /**************************************************************************************************
 598:D:/Work/DeviceTester/amazon-freertos/lib/third_party/mcu_vendor/renesas/rz_mcu_boards/core_package/generate/system\r_devlink_wrapper.c ****  End of function direct_open
 599:D:/Work/DeviceTester/amazon-freertos/lib/third_party/mcu_vendor/renesas/rz_mcu_boards/core_package/generate/system\r_devlink_wrapper.c ****  **************************************************************************************************
 600:D:/Work/DeviceTester/amazon-freertos/lib/third_party/mcu_vendor/renesas/rz_mcu_boards/core_package/generate/system\r_devlink_wrapper.c **** 
 601:D:/Work/DeviceTester/amazon-freertos/lib/third_party/mcu_vendor/renesas/rz_mcu_boards/core_package/generate/system\r_devlink_wrapper.c **** /**************************************************************************************************
 602:D:/Work/DeviceTester/amazon-freertos/lib/third_party/mcu_vendor/renesas/rz_mcu_boards/core_package/generate/system\r_devlink_wrapper.c ****  * Function Name: direct_close
 603:D:/Work/DeviceTester/amazon-freertos/lib/third_party/mcu_vendor/renesas/rz_mcu_boards/core_package/generate/system\r_devlink_wrapper.c ****  * Description  : devlink direct api close driver function, closes the driver and frees any resourc
 604:D:/Work/DeviceTester/amazon-freertos/lib/third_party/mcu_vendor/renesas/rz_mcu_boards/core_package/generate/system\r_devlink_wrapper.c ****  * Arguments    : [IN] handle - The index to the driver to close taken from the gs_filestream
 605:D:/Work/DeviceTester/amazon-freertos/lib/third_party/mcu_vendor/renesas/rz_mcu_boards/core_package/generate/system\r_devlink_wrapper.c ****  * Return Value : 0 for success, DRV_ERROR on error
 606:D:/Work/DeviceTester/amazon-freertos/lib/third_party/mcu_vendor/renesas/rz_mcu_boards/core_package/generate/system\r_devlink_wrapper.c ****  **************************************************************************************************
 607:D:/Work/DeviceTester/amazon-freertos/lib/third_party/mcu_vendor/renesas/rz_mcu_boards/core_package/generate/system\r_devlink_wrapper.c **** int_t direct_close(int_t handle)
 608:D:/Work/DeviceTester/amazon-freertos/lib/third_party/mcu_vendor/renesas/rz_mcu_boards/core_package/generate/system\r_devlink_wrapper.c **** {
 430              		.loc 1 608 0
 431              		.cfi_startproc
 432              		@ args = 0, pretend = 0, frame = 0
 433              		@ frame_needed = 0, uses_anonymous_args = 0
 434              	.LVL32:
 435              	.LBB30:
 436              	.LBB31:
 297:D:/Work/DeviceTester/amazon-freertos/lib/third_party/mcu_vendor/renesas/rz_mcu_boards/core_package/generate/system\r_devlink_wrapper.c ****     {
 437              		.loc 1 297 0
 438 0000 530050E3 		cmp	r0, #83
 439 0004 0E00008A 		bhi	.L48
 300:D:/Work/DeviceTester/amazon-freertos/lib/third_party/mcu_vendor/renesas/rz_mcu_boards/core_package/generate/system\r_devlink_wrapper.c ****         {
 440              		.loc 1 300 0
 441 0008 3C309FE5 		ldr	r3, .L53
 442 000c 802293E7 		ldr	r2, [r3, r0, lsl #5]
 443 0010 000052E3 		cmp	r2, #0
 444 0014 0A00000A 		beq	.L48
 445              	.LVL33:
 446              	.LBE31:
 447              	.LBE30:
 448              		.loc 1 608 0
 449 0018 10402DE9 		push	{r4, lr}
 450              		.cfi_def_cfa_offset 8
 451              		.cfi_offset 4, -8
 452              		.cfi_offset 14, -4
 453              	.LBB33:
 454              	.LBB34:
 455              	.LBB35:
 456              	.LBB36:
 457              	.LBB37:
 277:D:/Work/DeviceTester/amazon-freertos/lib/third_party/mcu_vendor/renesas/rz_mcu_boards/core_package/generate/system\r_devlink_wrapper.c ****         }
 458              		.loc 1 277 0
 459 001c 804283E0 		add	r4, r3, r0, lsl #5
 460              	.LVL34:
 461              	.LBE37:
 462              	.LBE36:
 609:D:/Work/DeviceTester/amazon-freertos/lib/third_party/mcu_vendor/renesas/rz_mcu_boards/core_package/generate/system\r_devlink_wrapper.c ****     int_t res;
 610:D:/Work/DeviceTester/amazon-freertos/lib/third_party/mcu_vendor/renesas/rz_mcu_boards/core_package/generate/system\r_devlink_wrapper.c **** 
 611:D:/Work/DeviceTester/amazon-freertos/lib/third_party/mcu_vendor/renesas/rz_mcu_boards/core_package/generate/system\r_devlink_wrapper.c ****     res = check_valid_handle (handle);
 612:D:/Work/DeviceTester/amazon-freertos/lib/third_party/mcu_vendor/renesas/rz_mcu_boards/core_package/generate/system\r_devlink_wrapper.c **** 
 613:D:/Work/DeviceTester/amazon-freertos/lib/third_party/mcu_vendor/renesas/rz_mcu_boards/core_package/generate/system\r_devlink_wrapper.c ****     if (DRV_ERROR != res)
 614:D:/Work/DeviceTester/amazon-freertos/lib/third_party/mcu_vendor/renesas/rz_mcu_boards/core_package/generate/system\r_devlink_wrapper.c ****     {
 615:D:/Work/DeviceTester/amazon-freertos/lib/third_party/mcu_vendor/renesas/rz_mcu_boards/core_package/generate/system\r_devlink_wrapper.c ****         st_stream_ptr_t pstream = get_device_stream_from_handle (handle);
 616:D:/Work/DeviceTester/amazon-freertos/lib/third_party/mcu_vendor/renesas/rz_mcu_boards/core_package/generate/system\r_devlink_wrapper.c **** 
 617:D:/Work/DeviceTester/amazon-freertos/lib/third_party/mcu_vendor/renesas/rz_mcu_boards/core_package/generate/system\r_devlink_wrapper.c ****         /* driver has closed successfully, release the resource in the devlink (st_stream_t) table 
 618:D:/Work/DeviceTester/amazon-freertos/lib/third_party/mcu_vendor/renesas/rz_mcu_boards/core_package/generate/system\r_devlink_wrapper.c ****         gs_filestream[handle].p_device_driver->close (pstream);
 463              		.loc 1 618 0
 464 0020 083092E5 		ldr	r3, [r2, #8]
 465 0024 0400A0E1 		mov	r0, r4
 466              	.LVL35:
 467 0028 33FF2FE1 		blx	r3
 468              	.LVL36:
 619:D:/Work/DeviceTester/amazon-freertos/lib/third_party/mcu_vendor/renesas/rz_mcu_boards/core_package/generate/system\r_devlink_wrapper.c ****         memset (&gs_filestream[handle], 0x00, sizeof(st_stream_t));
 469              		.loc 1 619 0
 470 002c 2020A0E3 		mov	r2, #32
 471 0030 0010A0E3 		mov	r1, #0
 472 0034 0400A0E1 		mov	r0, r4
 473 0038 FEFFFFEB 		bl	memset
 474              	.LVL37:
 475              	.LBE35:
 476              	.LBE34:
 477              	.LBE33:
 478              	.LBB38:
 479              	.LBB32:
 303:D:/Work/DeviceTester/amazon-freertos/lib/third_party/mcu_vendor/renesas/rz_mcu_boards/core_package/generate/system\r_devlink_wrapper.c ****         }
 480              		.loc 1 303 0
 481 003c 0000A0E3 		mov	r0, #0
 482 0040 1080BDE8 		pop	{r4, pc}
 483              	.LVL38:
 484              	.L48:
 485              		.cfi_def_cfa_offset 0
 486              		.cfi_restore 4
 487              		.cfi_restore 14
 300:D:/Work/DeviceTester/amazon-freertos/lib/third_party/mcu_vendor/renesas/rz_mcu_boards/core_package/generate/system\r_devlink_wrapper.c ****         {
 488              		.loc 1 300 0
 489 0044 0000E0E3 		mvn	r0, #0
 490              	.LVL39:
 491              	.LBE32:
 492              	.LBE38:
 620:D:/Work/DeviceTester/amazon-freertos/lib/third_party/mcu_vendor/renesas/rz_mcu_boards/core_package/generate/system\r_devlink_wrapper.c **** 
 621:D:/Work/DeviceTester/amazon-freertos/lib/third_party/mcu_vendor/renesas/rz_mcu_boards/core_package/generate/system\r_devlink_wrapper.c ****         /* Table entry set to NULL to signify no driver loaded */
 622:D:/Work/DeviceTester/amazon-freertos/lib/third_party/mcu_vendor/renesas/rz_mcu_boards/core_package/generate/system\r_devlink_wrapper.c ****         gs_filestream[handle].p_device_driver = NULL;
 623:D:/Work/DeviceTester/amazon-freertos/lib/third_party/mcu_vendor/renesas/rz_mcu_boards/core_package/generate/system\r_devlink_wrapper.c ****     }
 624:D:/Work/DeviceTester/amazon-freertos/lib/third_party/mcu_vendor/renesas/rz_mcu_boards/core_package/generate/system\r_devlink_wrapper.c ****     return (res);
 493              		.loc 1 624 0
 494 0048 1EFF2FE1 		bx	lr
 495              	.L54:
 496              		.align	2
 497              	.L53:
 498 004c 00000000 		.word	.LANCHOR1
 499              		.cfi_endproc
 500              	.LFE17:
 502              		.section	.text.direct_read,"ax",%progbits
 503              		.align	2
 504              		.global	direct_read
 505              		.syntax unified
 506              		.arm
 507              		.fpu neon
 509              	direct_read:
 510              	.LFB18:
 625:D:/Work/DeviceTester/amazon-freertos/lib/third_party/mcu_vendor/renesas/rz_mcu_boards/core_package/generate/system\r_devlink_wrapper.c **** }
 626:D:/Work/DeviceTester/amazon-freertos/lib/third_party/mcu_vendor/renesas/rz_mcu_boards/core_package/generate/system\r_devlink_wrapper.c **** /**************************************************************************************************
 627:D:/Work/DeviceTester/amazon-freertos/lib/third_party/mcu_vendor/renesas/rz_mcu_boards/core_package/generate/system\r_devlink_wrapper.c ****  End of function direct_close
 628:D:/Work/DeviceTester/amazon-freertos/lib/third_party/mcu_vendor/renesas/rz_mcu_boards/core_package/generate/system\r_devlink_wrapper.c ****  **************************************************************************************************
 629:D:/Work/DeviceTester/amazon-freertos/lib/third_party/mcu_vendor/renesas/rz_mcu_boards/core_package/generate/system\r_devlink_wrapper.c **** 
 630:D:/Work/DeviceTester/amazon-freertos/lib/third_party/mcu_vendor/renesas/rz_mcu_boards/core_package/generate/system\r_devlink_wrapper.c **** /**************************************************************************************************
 631:D:/Work/DeviceTester/amazon-freertos/lib/third_party/mcu_vendor/renesas/rz_mcu_boards/core_package/generate/system\r_devlink_wrapper.c ****  * Function Name: direct_read
 632:D:/Work/DeviceTester/amazon-freertos/lib/third_party/mcu_vendor/renesas/rz_mcu_boards/core_package/generate/system\r_devlink_wrapper.c ****  * Description  : devlink direct api read data driver function, reads from the driver
 633:D:/Work/DeviceTester/amazon-freertos/lib/third_party/mcu_vendor/renesas/rz_mcu_boards/core_package/generate/system\r_devlink_wrapper.c ****  * Arguments    : [IN]  handle - The file index
 634:D:/Work/DeviceTester/amazon-freertos/lib/third_party/mcu_vendor/renesas/rz_mcu_boards/core_package/generate/system\r_devlink_wrapper.c ****  *                [IN]  count - The number of characters to read
 635:D:/Work/DeviceTester/amazon-freertos/lib/third_party/mcu_vendor/renesas/rz_mcu_boards/core_package/generate/system\r_devlink_wrapper.c ****  *                [OUT] buff_ptr - The pointer to the buffer
 636:D:/Work/DeviceTester/amazon-freertos/lib/third_party/mcu_vendor/renesas/rz_mcu_boards/core_package/generate/system\r_devlink_wrapper.c ****  * Return Value : Number of characters read, -1 on error
 637:D:/Work/DeviceTester/amazon-freertos/lib/third_party/mcu_vendor/renesas/rz_mcu_boards/core_package/generate/system\r_devlink_wrapper.c ****  **************************************************************************************************
 638:D:/Work/DeviceTester/amazon-freertos/lib/third_party/mcu_vendor/renesas/rz_mcu_boards/core_package/generate/system\r_devlink_wrapper.c **** int_t direct_read(int handle, uint8_t *buff_ptr, uint32_t count)
 639:D:/Work/DeviceTester/amazon-freertos/lib/third_party/mcu_vendor/renesas/rz_mcu_boards/core_package/generate/system\r_devlink_wrapper.c **** {
 511              		.loc 1 639 0
 512              		.cfi_startproc
 513              		@ args = 0, pretend = 0, frame = 0
 514              		@ frame_needed = 0, uses_anonymous_args = 0
 515              		@ link register save eliminated.
 516              	.LVL40:
 517              	.LBB42:
 518              	.LBB43:
 297:D:/Work/DeviceTester/amazon-freertos/lib/third_party/mcu_vendor/renesas/rz_mcu_boards/core_package/generate/system\r_devlink_wrapper.c ****     {
 519              		.loc 1 297 0
 520 0000 530050E3 		cmp	r0, #83
 521 0004 0300008A 		bhi	.L55
 300:D:/Work/DeviceTester/amazon-freertos/lib/third_party/mcu_vendor/renesas/rz_mcu_boards/core_package/generate/system\r_devlink_wrapper.c ****         {
 522              		.loc 1 300 0
 523 0008 28309FE5 		ldr	r3, .L60
 524 000c 80C293E7 		ldr	ip, [r3, r0, lsl #5]
 525 0010 00005CE3 		cmp	ip, #0
 526 0014 0100001A 		bne	.L57
 527              	.LVL41:
 528              	.L55:
 529              	.LBE43:
 530              	.LBE42:
 640:D:/Work/DeviceTester/amazon-freertos/lib/third_party/mcu_vendor/renesas/rz_mcu_boards/core_package/generate/system\r_devlink_wrapper.c ****     int_t res;
 641:D:/Work/DeviceTester/amazon-freertos/lib/third_party/mcu_vendor/renesas/rz_mcu_boards/core_package/generate/system\r_devlink_wrapper.c **** 
 642:D:/Work/DeviceTester/amazon-freertos/lib/third_party/mcu_vendor/renesas/rz_mcu_boards/core_package/generate/system\r_devlink_wrapper.c ****     res = check_valid_handle (handle);
 643:D:/Work/DeviceTester/amazon-freertos/lib/third_party/mcu_vendor/renesas/rz_mcu_boards/core_package/generate/system\r_devlink_wrapper.c **** 
 644:D:/Work/DeviceTester/amazon-freertos/lib/third_party/mcu_vendor/renesas/rz_mcu_boards/core_package/generate/system\r_devlink_wrapper.c ****     if (DRV_ERROR == res)
 645:D:/Work/DeviceTester/amazon-freertos/lib/third_party/mcu_vendor/renesas/rz_mcu_boards/core_package/generate/system\r_devlink_wrapper.c ****     {
 646:D:/Work/DeviceTester/amazon-freertos/lib/third_party/mcu_vendor/renesas/rz_mcu_boards/core_package/generate/system\r_devlink_wrapper.c ****         return res;
 647:D:/Work/DeviceTester/amazon-freertos/lib/third_party/mcu_vendor/renesas/rz_mcu_boards/core_package/generate/system\r_devlink_wrapper.c ****     }
 648:D:/Work/DeviceTester/amazon-freertos/lib/third_party/mcu_vendor/renesas/rz_mcu_boards/core_package/generate/system\r_devlink_wrapper.c **** 
 649:D:/Work/DeviceTester/amazon-freertos/lib/third_party/mcu_vendor/renesas/rz_mcu_boards/core_package/generate/system\r_devlink_wrapper.c ****     res = DRV_ERROR;
 650:D:/Work/DeviceTester/amazon-freertos/lib/third_party/mcu_vendor/renesas/rz_mcu_boards/core_package/generate/system\r_devlink_wrapper.c **** 
 651:D:/Work/DeviceTester/amazon-freertos/lib/third_party/mcu_vendor/renesas/rz_mcu_boards/core_package/generate/system\r_devlink_wrapper.c ****     /* File open check */
 652:D:/Work/DeviceTester/amazon-freertos/lib/third_party/mcu_vendor/renesas/rz_mcu_boards/core_package/generate/system\r_devlink_wrapper.c ****     if (gs_filestream[handle].p_device_driver)
 653:D:/Work/DeviceTester/amazon-freertos/lib/third_party/mcu_vendor/renesas/rz_mcu_boards/core_package/generate/system\r_devlink_wrapper.c ****     {
 654:D:/Work/DeviceTester/amazon-freertos/lib/third_party/mcu_vendor/renesas/rz_mcu_boards/core_package/generate/system\r_devlink_wrapper.c ****         st_stream_t * p_stream = &gs_filestream[handle];
 655:D:/Work/DeviceTester/amazon-freertos/lib/third_party/mcu_vendor/renesas/rz_mcu_boards/core_package/generate/system\r_devlink_wrapper.c **** 
 656:D:/Work/DeviceTester/amazon-freertos/lib/third_party/mcu_vendor/renesas/rz_mcu_boards/core_package/generate/system\r_devlink_wrapper.c ****         /* File access rights check */
 657:D:/Work/DeviceTester/amazon-freertos/lib/third_party/mcu_vendor/renesas/rz_mcu_boards/core_package/generate/system\r_devlink_wrapper.c ****         if ((p_stream->file_flag == O_RDONLY) || (p_stream->file_flag == O_RDWR))
 658:D:/Work/DeviceTester/amazon-freertos/lib/third_party/mcu_vendor/renesas/rz_mcu_boards/core_package/generate/system\r_devlink_wrapper.c ****         {
 659:D:/Work/DeviceTester/amazon-freertos/lib/third_party/mcu_vendor/renesas/rz_mcu_boards/core_package/generate/system\r_devlink_wrapper.c ****             res = p_stream->p_device_driver->read (p_stream, buff_ptr, count);
 660:D:/Work/DeviceTester/amazon-freertos/lib/third_party/mcu_vendor/renesas/rz_mcu_boards/core_package/generate/system\r_devlink_wrapper.c ****         }
 661:D:/Work/DeviceTester/amazon-freertos/lib/third_party/mcu_vendor/renesas/rz_mcu_boards/core_package/generate/system\r_devlink_wrapper.c ****     }
 662:D:/Work/DeviceTester/amazon-freertos/lib/third_party/mcu_vendor/renesas/rz_mcu_boards/core_package/generate/system\r_devlink_wrapper.c **** 
 663:D:/Work/DeviceTester/amazon-freertos/lib/third_party/mcu_vendor/renesas/rz_mcu_boards/core_package/generate/system\r_devlink_wrapper.c ****     return (res);
 664:D:/Work/DeviceTester/amazon-freertos/lib/third_party/mcu_vendor/renesas/rz_mcu_boards/core_package/generate/system\r_devlink_wrapper.c **** }
 531              		.loc 1 664 0
 532 0018 0000E0E3 		mvn	r0, #0
 533 001c 1EFF2FE1 		bx	lr
 534              	.LVL42:
 535              	.L57:
 536              	.LBB44:
 654:D:/Work/DeviceTester/amazon-freertos/lib/third_party/mcu_vendor/renesas/rz_mcu_boards/core_package/generate/system\r_devlink_wrapper.c **** 
 537              		.loc 1 654 0
 538 0020 800283E0 		add	r0, r3, r0, lsl #5
 539              	.LVL43:
 657:D:/Work/DeviceTester/amazon-freertos/lib/third_party/mcu_vendor/renesas/rz_mcu_boards/core_package/generate/system\r_devlink_wrapper.c ****         {
 540              		.loc 1 657 0
 541 0024 183090E5 		ldr	r3, [r0, #24]
 542 0028 0230D3E3 		bics	r3, r3, #2
 543 002c F9FFFF1A 		bne	.L55
 659:D:/Work/DeviceTester/amazon-freertos/lib/third_party/mcu_vendor/renesas/rz_mcu_boards/core_package/generate/system\r_devlink_wrapper.c ****         }
 544              		.loc 1 659 0
 545 0030 0C309CE5 		ldr	r3, [ip, #12]
 546 0034 13FF2FE1 		bx	r3
 547              	.LVL44:
 548              	.L61:
 549              		.align	2
 550              	.L60:
 551 0038 00000000 		.word	.LANCHOR1
 552              	.LBE44:
 553              		.cfi_endproc
 554              	.LFE18:
 556              		.section	.text.direct_write,"ax",%progbits
 557              		.align	2
 558              		.global	direct_write
 559              		.syntax unified
 560              		.arm
 561              		.fpu neon
 563              	direct_write:
 564              	.LFB19:
 665:D:/Work/DeviceTester/amazon-freertos/lib/third_party/mcu_vendor/renesas/rz_mcu_boards/core_package/generate/system\r_devlink_wrapper.c **** /**************************************************************************************************
 666:D:/Work/DeviceTester/amazon-freertos/lib/third_party/mcu_vendor/renesas/rz_mcu_boards/core_package/generate/system\r_devlink_wrapper.c ****  End of function direct_read
 667:D:/Work/DeviceTester/amazon-freertos/lib/third_party/mcu_vendor/renesas/rz_mcu_boards/core_package/generate/system\r_devlink_wrapper.c ****  **************************************************************************************************
 668:D:/Work/DeviceTester/amazon-freertos/lib/third_party/mcu_vendor/renesas/rz_mcu_boards/core_package/generate/system\r_devlink_wrapper.c **** 
 669:D:/Work/DeviceTester/amazon-freertos/lib/third_party/mcu_vendor/renesas/rz_mcu_boards/core_package/generate/system\r_devlink_wrapper.c **** /**************************************************************************************************
 670:D:/Work/DeviceTester/amazon-freertos/lib/third_party/mcu_vendor/renesas/rz_mcu_boards/core_package/generate/system\r_devlink_wrapper.c ****  * Function Name: direct_write
 671:D:/Work/DeviceTester/amazon-freertos/lib/third_party/mcu_vendor/renesas/rz_mcu_boards/core_package/generate/system\r_devlink_wrapper.c ****  * Description  : devlink direct api write data driver function, writes to the driver
 672:D:/Work/DeviceTester/amazon-freertos/lib/third_party/mcu_vendor/renesas/rz_mcu_boards/core_package/generate/system\r_devlink_wrapper.c ****  * Arguments    : [IN]  handle - The file index
 673:D:/Work/DeviceTester/amazon-freertos/lib/third_party/mcu_vendor/renesas/rz_mcu_boards/core_package/generate/system\r_devlink_wrapper.c ****  *                [IN]  buff_ptr - The pointer to the buffer
 674:D:/Work/DeviceTester/amazon-freertos/lib/third_party/mcu_vendor/renesas/rz_mcu_boards/core_package/generate/system\r_devlink_wrapper.c ****  *                [IN]  count - The number of characters to read
 675:D:/Work/DeviceTester/amazon-freertos/lib/third_party/mcu_vendor/renesas/rz_mcu_boards/core_package/generate/system\r_devlink_wrapper.c ****  * Return Value : Number of characters read, -1 on error
 676:D:/Work/DeviceTester/amazon-freertos/lib/third_party/mcu_vendor/renesas/rz_mcu_boards/core_package/generate/system\r_devlink_wrapper.c ****  **************************************************************************************************
 677:D:/Work/DeviceTester/amazon-freertos/lib/third_party/mcu_vendor/renesas/rz_mcu_boards/core_package/generate/system\r_devlink_wrapper.c **** int_t direct_write(int handle, uint8_t *buff_ptr, uint32_t count)
 678:D:/Work/DeviceTester/amazon-freertos/lib/third_party/mcu_vendor/renesas/rz_mcu_boards/core_package/generate/system\r_devlink_wrapper.c **** {
 565              		.loc 1 678 0
 566              		.cfi_startproc
 567              		@ args = 0, pretend = 0, frame = 0
 568              		@ frame_needed = 0, uses_anonymous_args = 0
 569              		@ link register save eliminated.
 570              	.LVL45:
 571              	.LBB48:
 572              	.LBB49:
 297:D:/Work/DeviceTester/amazon-freertos/lib/third_party/mcu_vendor/renesas/rz_mcu_boards/core_package/generate/system\r_devlink_wrapper.c ****     {
 573              		.loc 1 297 0
 574 0000 530050E3 		cmp	r0, #83
 575 0004 0300008A 		bhi	.L62
 300:D:/Work/DeviceTester/amazon-freertos/lib/third_party/mcu_vendor/renesas/rz_mcu_boards/core_package/generate/system\r_devlink_wrapper.c ****         {
 576              		.loc 1 300 0
 577 0008 30309FE5 		ldr	r3, .L67
 578 000c 80C293E7 		ldr	ip, [r3, r0, lsl #5]
 579 0010 00005CE3 		cmp	ip, #0
 580 0014 0100001A 		bne	.L64
 581              	.LVL46:
 582              	.L62:
 583              	.LBE49:
 584              	.LBE48:
 679:D:/Work/DeviceTester/amazon-freertos/lib/third_party/mcu_vendor/renesas/rz_mcu_boards/core_package/generate/system\r_devlink_wrapper.c ****     int_t res;
 680:D:/Work/DeviceTester/amazon-freertos/lib/third_party/mcu_vendor/renesas/rz_mcu_boards/core_package/generate/system\r_devlink_wrapper.c **** 
 681:D:/Work/DeviceTester/amazon-freertos/lib/third_party/mcu_vendor/renesas/rz_mcu_boards/core_package/generate/system\r_devlink_wrapper.c ****     res = check_valid_handle (handle);
 682:D:/Work/DeviceTester/amazon-freertos/lib/third_party/mcu_vendor/renesas/rz_mcu_boards/core_package/generate/system\r_devlink_wrapper.c **** 
 683:D:/Work/DeviceTester/amazon-freertos/lib/third_party/mcu_vendor/renesas/rz_mcu_boards/core_package/generate/system\r_devlink_wrapper.c ****     if (DRV_ERROR == res)
 684:D:/Work/DeviceTester/amazon-freertos/lib/third_party/mcu_vendor/renesas/rz_mcu_boards/core_package/generate/system\r_devlink_wrapper.c ****     {
 685:D:/Work/DeviceTester/amazon-freertos/lib/third_party/mcu_vendor/renesas/rz_mcu_boards/core_package/generate/system\r_devlink_wrapper.c ****         return res;
 686:D:/Work/DeviceTester/amazon-freertos/lib/third_party/mcu_vendor/renesas/rz_mcu_boards/core_package/generate/system\r_devlink_wrapper.c ****     }
 687:D:/Work/DeviceTester/amazon-freertos/lib/third_party/mcu_vendor/renesas/rz_mcu_boards/core_package/generate/system\r_devlink_wrapper.c **** 
 688:D:/Work/DeviceTester/amazon-freertos/lib/third_party/mcu_vendor/renesas/rz_mcu_boards/core_package/generate/system\r_devlink_wrapper.c ****     res = DRV_ERROR;
 689:D:/Work/DeviceTester/amazon-freertos/lib/third_party/mcu_vendor/renesas/rz_mcu_boards/core_package/generate/system\r_devlink_wrapper.c **** 
 690:D:/Work/DeviceTester/amazon-freertos/lib/third_party/mcu_vendor/renesas/rz_mcu_boards/core_package/generate/system\r_devlink_wrapper.c ****     /* File open check */
 691:D:/Work/DeviceTester/amazon-freertos/lib/third_party/mcu_vendor/renesas/rz_mcu_boards/core_package/generate/system\r_devlink_wrapper.c ****     if (gs_filestream[handle].p_device_driver)
 692:D:/Work/DeviceTester/amazon-freertos/lib/third_party/mcu_vendor/renesas/rz_mcu_boards/core_package/generate/system\r_devlink_wrapper.c ****     {
 693:D:/Work/DeviceTester/amazon-freertos/lib/third_party/mcu_vendor/renesas/rz_mcu_boards/core_package/generate/system\r_devlink_wrapper.c ****         st_stream_t * p_stream = &gs_filestream[handle];
 694:D:/Work/DeviceTester/amazon-freertos/lib/third_party/mcu_vendor/renesas/rz_mcu_boards/core_package/generate/system\r_devlink_wrapper.c **** 
 695:D:/Work/DeviceTester/amazon-freertos/lib/third_party/mcu_vendor/renesas/rz_mcu_boards/core_package/generate/system\r_devlink_wrapper.c ****         /* File access rights check */
 696:D:/Work/DeviceTester/amazon-freertos/lib/third_party/mcu_vendor/renesas/rz_mcu_boards/core_package/generate/system\r_devlink_wrapper.c ****         if ((p_stream->file_flag & O_WRONLY) || (p_stream->file_flag == O_RDWR))
 697:D:/Work/DeviceTester/amazon-freertos/lib/third_party/mcu_vendor/renesas/rz_mcu_boards/core_package/generate/system\r_devlink_wrapper.c ****         {
 698:D:/Work/DeviceTester/amazon-freertos/lib/third_party/mcu_vendor/renesas/rz_mcu_boards/core_package/generate/system\r_devlink_wrapper.c ****             res = p_stream->p_device_driver->write (p_stream, buff_ptr, count);
 699:D:/Work/DeviceTester/amazon-freertos/lib/third_party/mcu_vendor/renesas/rz_mcu_boards/core_package/generate/system\r_devlink_wrapper.c ****         }
 700:D:/Work/DeviceTester/amazon-freertos/lib/third_party/mcu_vendor/renesas/rz_mcu_boards/core_package/generate/system\r_devlink_wrapper.c ****     }
 701:D:/Work/DeviceTester/amazon-freertos/lib/third_party/mcu_vendor/renesas/rz_mcu_boards/core_package/generate/system\r_devlink_wrapper.c **** 
 702:D:/Work/DeviceTester/amazon-freertos/lib/third_party/mcu_vendor/renesas/rz_mcu_boards/core_package/generate/system\r_devlink_wrapper.c ****     return (res);
 703:D:/Work/DeviceTester/amazon-freertos/lib/third_party/mcu_vendor/renesas/rz_mcu_boards/core_package/generate/system\r_devlink_wrapper.c **** }
 585              		.loc 1 703 0
 586 0018 0000E0E3 		mvn	r0, #0
 587 001c 1EFF2FE1 		bx	lr
 588              	.LVL47:
 589              	.L64:
 590              	.LBB50:
 693:D:/Work/DeviceTester/amazon-freertos/lib/third_party/mcu_vendor/renesas/rz_mcu_boards/core_package/generate/system\r_devlink_wrapper.c **** 
 591              		.loc 1 693 0
 592 0020 800283E0 		add	r0, r3, r0, lsl #5
 593              	.LVL48:
 696:D:/Work/DeviceTester/amazon-freertos/lib/third_party/mcu_vendor/renesas/rz_mcu_boards/core_package/generate/system\r_devlink_wrapper.c ****         {
 594              		.loc 1 696 0
 595 0024 183090E5 		ldr	r3, [r0, #24]
 596 0028 020053E3 		cmp	r3, #2
 597 002c 01308303 		orreq	r3, r3, #1
 598 0030 010013E3 		tst	r3, #1
 599 0034 F7FFFF0A 		beq	.L62
 698:D:/Work/DeviceTester/amazon-freertos/lib/third_party/mcu_vendor/renesas/rz_mcu_boards/core_package/generate/system\r_devlink_wrapper.c ****         }
 600              		.loc 1 698 0
 601 0038 10309CE5 		ldr	r3, [ip, #16]
 602 003c 13FF2FE1 		bx	r3
 603              	.LVL49:
 604              	.L68:
 605              		.align	2
 606              	.L67:
 607 0040 00000000 		.word	.LANCHOR1
 608              	.LBE50:
 609              		.cfi_endproc
 610              	.LFE19:
 612              		.section	.text.direct_control,"ax",%progbits
 613              		.align	2
 614              		.global	direct_control
 615              		.syntax unified
 616              		.arm
 617              		.fpu neon
 619              	direct_control:
 620              	.LFB20:
 704:D:/Work/DeviceTester/amazon-freertos/lib/third_party/mcu_vendor/renesas/rz_mcu_boards/core_package/generate/system\r_devlink_wrapper.c **** /**************************************************************************************************
 705:D:/Work/DeviceTester/amazon-freertos/lib/third_party/mcu_vendor/renesas/rz_mcu_boards/core_package/generate/system\r_devlink_wrapper.c ****  End of function direct_write
 706:D:/Work/DeviceTester/amazon-freertos/lib/third_party/mcu_vendor/renesas/rz_mcu_boards/core_package/generate/system\r_devlink_wrapper.c ****  **************************************************************************************************
 707:D:/Work/DeviceTester/amazon-freertos/lib/third_party/mcu_vendor/renesas/rz_mcu_boards/core_package/generate/system\r_devlink_wrapper.c **** 
 708:D:/Work/DeviceTester/amazon-freertos/lib/third_party/mcu_vendor/renesas/rz_mcu_boards/core_package/generate/system\r_devlink_wrapper.c **** /**************************************************************************************************
 709:D:/Work/DeviceTester/amazon-freertos/lib/third_party/mcu_vendor/renesas/rz_mcu_boards/core_package/generate/system\r_devlink_wrapper.c ****  * Function Name: direct_control
 710:D:/Work/DeviceTester/amazon-freertos/lib/third_party/mcu_vendor/renesas/rz_mcu_boards/core_package/generate/system\r_devlink_wrapper.c ****  * Description  : devlink direct api write data driver function, writes to the driver
 711:D:/Work/DeviceTester/amazon-freertos/lib/third_party/mcu_vendor/renesas/rz_mcu_boards/core_package/generate/system\r_devlink_wrapper.c ****  * Arguments    : [IN]  handle - The file index
 712:D:/Work/DeviceTester/amazon-freertos/lib/third_party/mcu_vendor/renesas/rz_mcu_boards/core_package/generate/system\r_devlink_wrapper.c ****  *                [IN]  ctlCode - The control code selected
 713:D:/Work/DeviceTester/amazon-freertos/lib/third_party/mcu_vendor/renesas/rz_mcu_boards/core_package/generate/system\r_devlink_wrapper.c ****  *                [IN]  pCtlStruct - The pointer to the control structures associated with the cont
 714:D:/Work/DeviceTester/amazon-freertos/lib/third_party/mcu_vendor/renesas/rz_mcu_boards/core_package/generate/system\r_devlink_wrapper.c ****  * Return Value : Number of characters read, -1 on error
 715:D:/Work/DeviceTester/amazon-freertos/lib/third_party/mcu_vendor/renesas/rz_mcu_boards/core_package/generate/system\r_devlink_wrapper.c ****  **************************************************************************************************
 716:D:/Work/DeviceTester/amazon-freertos/lib/third_party/mcu_vendor/renesas/rz_mcu_boards/core_package/generate/system\r_devlink_wrapper.c **** int_t direct_control(int handle, uint32_t ctlCode, void *pCtlStruct)
 717:D:/Work/DeviceTester/amazon-freertos/lib/third_party/mcu_vendor/renesas/rz_mcu_boards/core_package/generate/system\r_devlink_wrapper.c **** {
 621              		.loc 1 717 0
 622              		.cfi_startproc
 623              		@ args = 0, pretend = 0, frame = 0
 624              		@ frame_needed = 0, uses_anonymous_args = 0
 625              	.LVL50:
 626              	.LBB54:
 627              	.LBB55:
 297:D:/Work/DeviceTester/amazon-freertos/lib/third_party/mcu_vendor/renesas/rz_mcu_boards/core_package/generate/system\r_devlink_wrapper.c ****     {
 628              		.loc 1 297 0
 629 0000 530050E3 		cmp	r0, #83
 630 0004 0900008A 		bhi	.L69
 300:D:/Work/DeviceTester/amazon-freertos/lib/third_party/mcu_vendor/renesas/rz_mcu_boards/core_package/generate/system\r_devlink_wrapper.c ****         {
 631              		.loc 1 300 0
 632 0008 28309FE5 		ldr	r3, .L76
 633 000c 80C293E7 		ldr	ip, [r3, r0, lsl #5]
 634 0010 00005CE3 		cmp	ip, #0
 635 0014 0500000A 		beq	.L69
 636              	.LVL51:
 637              	.LBE55:
 638              	.LBE54:
 639              		.loc 1 717 0
 640 0018 04E02DE5 		str	lr, [sp, #-4]!
 641              		.cfi_def_cfa_offset 4
 642              		.cfi_offset 14, -4
 643              	.LBB56:
 718:D:/Work/DeviceTester/amazon-freertos/lib/third_party/mcu_vendor/renesas/rz_mcu_boards/core_package/generate/system\r_devlink_wrapper.c ****     int_t res;
 719:D:/Work/DeviceTester/amazon-freertos/lib/third_party/mcu_vendor/renesas/rz_mcu_boards/core_package/generate/system\r_devlink_wrapper.c **** 
 720:D:/Work/DeviceTester/amazon-freertos/lib/third_party/mcu_vendor/renesas/rz_mcu_boards/core_package/generate/system\r_devlink_wrapper.c ****     res = check_valid_handle (handle);
 721:D:/Work/DeviceTester/amazon-freertos/lib/third_party/mcu_vendor/renesas/rz_mcu_boards/core_package/generate/system\r_devlink_wrapper.c **** 
 722:D:/Work/DeviceTester/amazon-freertos/lib/third_party/mcu_vendor/renesas/rz_mcu_boards/core_package/generate/system\r_devlink_wrapper.c ****     if (DRV_ERROR != res)
 723:D:/Work/DeviceTester/amazon-freertos/lib/third_party/mcu_vendor/renesas/rz_mcu_boards/core_package/generate/system\r_devlink_wrapper.c ****     {
 724:D:/Work/DeviceTester/amazon-freertos/lib/third_party/mcu_vendor/renesas/rz_mcu_boards/core_package/generate/system\r_devlink_wrapper.c ****         /* File open check */
 725:D:/Work/DeviceTester/amazon-freertos/lib/third_party/mcu_vendor/renesas/rz_mcu_boards/core_package/generate/system\r_devlink_wrapper.c ****         if (gs_filestream[handle].p_device_driver)
 726:D:/Work/DeviceTester/amazon-freertos/lib/third_party/mcu_vendor/renesas/rz_mcu_boards/core_package/generate/system\r_devlink_wrapper.c ****         {
 727:D:/Work/DeviceTester/amazon-freertos/lib/third_party/mcu_vendor/renesas/rz_mcu_boards/core_package/generate/system\r_devlink_wrapper.c ****             st_stream_t * p_stream = &gs_filestream[handle];
 728:D:/Work/DeviceTester/amazon-freertos/lib/third_party/mcu_vendor/renesas/rz_mcu_boards/core_package/generate/system\r_devlink_wrapper.c ****             res = p_stream->p_device_driver->control (p_stream, ctlCode, pCtlStruct);
 644              		.loc 1 728 0
 645 001c 800283E0 		add	r0, r3, r0, lsl #5
 646              	.LVL52:
 647 0020 14E09CE5 		ldr	lr, [ip, #20]
 648 0024 0E30A0E1 		mov	r3, lr
 649              	.LBE56:
 729:D:/Work/DeviceTester/amazon-freertos/lib/third_party/mcu_vendor/renesas/rz_mcu_boards/core_package/generate/system\r_devlink_wrapper.c ****         }
 730:D:/Work/DeviceTester/amazon-freertos/lib/third_party/mcu_vendor/renesas/rz_mcu_boards/core_package/generate/system\r_devlink_wrapper.c ****     }
 731:D:/Work/DeviceTester/amazon-freertos/lib/third_party/mcu_vendor/renesas/rz_mcu_boards/core_package/generate/system\r_devlink_wrapper.c ****     return (res);
 732:D:/Work/DeviceTester/amazon-freertos/lib/third_party/mcu_vendor/renesas/rz_mcu_boards/core_package/generate/system\r_devlink_wrapper.c **** }
 650              		.loc 1 732 0
 651 0028 04E09DE4 		ldr	lr, [sp], #4
 652              		.cfi_restore 14
 653              		.cfi_def_cfa_offset 0
 654              	.LBB57:
 728:D:/Work/DeviceTester/amazon-freertos/lib/third_party/mcu_vendor/renesas/rz_mcu_boards/core_package/generate/system\r_devlink_wrapper.c ****         }
 655              		.loc 1 728 0
 656 002c 13FF2FE1 		bx	r3
 657              	.LVL53:
 658              	.L69:
 659              	.LBE57:
 660              		.loc 1 732 0
 661 0030 0000E0E3 		mvn	r0, #0
 662              	.LVL54:
 663 0034 1EFF2FE1 		bx	lr
 664              	.L77:
 665              		.align	2
 666              	.L76:
 667 0038 00000000 		.word	.LANCHOR1
 668              		.cfi_endproc
 669              	.LFE20:
 671              		.section	.text.direct_get_version,"ax",%progbits
 672              		.align	2
 673              		.global	direct_get_version
 674              		.syntax unified
 675              		.arm
 676              		.fpu neon
 678              	direct_get_version:
 679              	.LFB21:
 733:D:/Work/DeviceTester/amazon-freertos/lib/third_party/mcu_vendor/renesas/rz_mcu_boards/core_package/generate/system\r_devlink_wrapper.c **** /**************************************************************************************************
 734:D:/Work/DeviceTester/amazon-freertos/lib/third_party/mcu_vendor/renesas/rz_mcu_boards/core_package/generate/system\r_devlink_wrapper.c ****  End of function direct_control
 735:D:/Work/DeviceTester/amazon-freertos/lib/third_party/mcu_vendor/renesas/rz_mcu_boards/core_package/generate/system\r_devlink_wrapper.c ****  **************************************************************************************************
 736:D:/Work/DeviceTester/amazon-freertos/lib/third_party/mcu_vendor/renesas/rz_mcu_boards/core_package/generate/system\r_devlink_wrapper.c **** 
 737:D:/Work/DeviceTester/amazon-freertos/lib/third_party/mcu_vendor/renesas/rz_mcu_boards/core_package/generate/system\r_devlink_wrapper.c **** /**************************************************************************************************
 738:D:/Work/DeviceTester/amazon-freertos/lib/third_party/mcu_vendor/renesas/rz_mcu_boards/core_package/generate/system\r_devlink_wrapper.c ****  * Function Name: direct_get_version
 739:D:/Work/DeviceTester/amazon-freertos/lib/third_party/mcu_vendor/renesas/rz_mcu_boards/core_package/generate/system\r_devlink_wrapper.c ****  * Description  : devlink direct api version function, retrieve the driver version number.
 740:D:/Work/DeviceTester/amazon-freertos/lib/third_party/mcu_vendor/renesas/rz_mcu_boards/core_package/generate/system\r_devlink_wrapper.c ****  * Arguments    : [IN]  p_driver_name - Pointer to the file name (NULL terminated)
 741:D:/Work/DeviceTester/amazon-freertos/lib/third_party/mcu_vendor/renesas/rz_mcu_boards/core_package/generate/system\r_devlink_wrapper.c ****  *                [OUT] info - Pointer to the version_info structure
 742:D:/Work/DeviceTester/amazon-freertos/lib/third_party/mcu_vendor/renesas/rz_mcu_boards/core_package/generate/system\r_devlink_wrapper.c ****  * Return Value : 0 for success -1 on error
 743:D:/Work/DeviceTester/amazon-freertos/lib/third_party/mcu_vendor/renesas/rz_mcu_boards/core_package/generate/system\r_devlink_wrapper.c ****  **************************************************************************************************
 744:D:/Work/DeviceTester/amazon-freertos/lib/third_party/mcu_vendor/renesas/rz_mcu_boards/core_package/generate/system\r_devlink_wrapper.c **** int_t direct_get_version(const char *p_driver_name, st_ver_info_t *info)
 745:D:/Work/DeviceTester/amazon-freertos/lib/third_party/mcu_vendor/renesas/rz_mcu_boards/core_package/generate/system\r_devlink_wrapper.c **** {
 680              		.loc 1 745 0
 681              		.cfi_startproc
 682              		@ args = 0, pretend = 0, frame = 40
 683              		@ frame_needed = 0, uses_anonymous_args = 0
 684              	.LVL55:
 685 0000 30402DE9 		push	{r4, r5, lr}
 686              		.cfi_def_cfa_offset 12
 687              		.cfi_offset 4, -12
 688              		.cfi_offset 5, -8
 689              		.cfi_offset 14, -4
 690 0004 2CD04DE2 		sub	sp, sp, #44
 691              		.cfi_def_cfa_offset 56
 746:D:/Work/DeviceTester/amazon-freertos/lib/third_party/mcu_vendor/renesas/rz_mcu_boards/core_package/generate/system\r_devlink_wrapper.c ****     e_err_code_t res = DRV_ERROR;
 747:D:/Work/DeviceTester/amazon-freertos/lib/third_party/mcu_vendor/renesas/rz_mcu_boards/core_package/generate/system\r_devlink_wrapper.c ****     char_t link_name[32];
 748:D:/Work/DeviceTester/amazon-freertos/lib/third_party/mcu_vendor/renesas/rz_mcu_boards/core_package/generate/system\r_devlink_wrapper.c **** 
 749:D:/Work/DeviceTester/amazon-freertos/lib/third_party/mcu_vendor/renesas/rz_mcu_boards/core_package/generate/system\r_devlink_wrapper.c ****     /* pre-fix the driver ID onto the device_name allowing direct and stdio calls to share code */
 750:D:/Work/DeviceTester/amazon-freertos/lib/third_party/mcu_vendor/renesas/rz_mcu_boards/core_package/generate/system\r_devlink_wrapper.c ****     sprintf (link_name, "%s%s", DEVICE_INDENTIFIER, p_driver_name);
 692              		.loc 1 750 0
 693 0008 08408DE2 		add	r4, sp, #8
 694 000c 0030A0E1 		mov	r3, r0
 745:D:/Work/DeviceTester/amazon-freertos/lib/third_party/mcu_vendor/renesas/rz_mcu_boards/core_package/generate/system\r_devlink_wrapper.c ****     e_err_code_t res = DRV_ERROR;
 695              		.loc 1 745 0
 696 0010 0150A0E1 		mov	r5, r1
 697              		.loc 1 750 0
 698 0014 0400A0E1 		mov	r0, r4
 699              	.LVL56:
 700 0018 54209FE5 		ldr	r2, .L86
 701 001c 54109FE5 		ldr	r1, .L86+4
 702              	.LVL57:
 703 0020 FEFFFFEB 		bl	sprintf
 704              	.LVL58:
 705              	.LBB61:
 706              	.LBB62:
 247:D:/Work/DeviceTester/amazon-freertos/lib/third_party/mcu_vendor/renesas/rz_mcu_boards/core_package/generate/system\r_devlink_wrapper.c ****     {
 707              		.loc 1 247 0
 708 0024 48109FE5 		ldr	r1, .L86
 709 0028 0400A0E1 		mov	r0, r4
 710 002c FEFFFFEB 		bl	strstr
 711              	.LVL59:
 712 0030 000054E1 		cmp	r4, r0
 713 0034 0100000A 		beq	.L79
 714              	.LVL60:
 715              	.L85:
 716              	.LBE62:
 717              	.LBE61:
 746:D:/Work/DeviceTester/amazon-freertos/lib/third_party/mcu_vendor/renesas/rz_mcu_boards/core_package/generate/system\r_devlink_wrapper.c ****     e_err_code_t res = DRV_ERROR;
 718              		.loc 1 746 0
 719 0038 0000E0E3 		mvn	r0, #0
 720              	.LVL61:
 751:D:/Work/DeviceTester/amazon-freertos/lib/third_party/mcu_vendor/renesas/rz_mcu_boards/core_package/generate/system\r_devlink_wrapper.c **** 
 752:D:/Work/DeviceTester/amazon-freertos/lib/third_party/mcu_vendor/renesas/rz_mcu_boards/core_package/generate/system\r_devlink_wrapper.c ****     char_t * p_link_name = get_device_name (link_name);
 753:D:/Work/DeviceTester/amazon-freertos/lib/third_party/mcu_vendor/renesas/rz_mcu_boards/core_package/generate/system\r_devlink_wrapper.c **** 
 754:D:/Work/DeviceTester/amazon-freertos/lib/third_party/mcu_vendor/renesas/rz_mcu_boards/core_package/generate/system\r_devlink_wrapper.c ****     /* Check to see if this driver is a driver and not something else */
 755:D:/Work/DeviceTester/amazon-freertos/lib/third_party/mcu_vendor/renesas/rz_mcu_boards/core_package/generate/system\r_devlink_wrapper.c ****     if (p_link_name)
 756:D:/Work/DeviceTester/amazon-freertos/lib/third_party/mcu_vendor/renesas/rz_mcu_boards/core_package/generate/system\r_devlink_wrapper.c ****     {
 757:D:/Work/DeviceTester/amazon-freertos/lib/third_party/mcu_vendor/renesas/rz_mcu_boards/core_package/generate/system\r_devlink_wrapper.c ****         char_t * p_stream_name;
 758:D:/Work/DeviceTester/amazon-freertos/lib/third_party/mcu_vendor/renesas/rz_mcu_boards/core_package/generate/system\r_devlink_wrapper.c ****         uint32_t sc_index;
 759:D:/Work/DeviceTester/amazon-freertos/lib/third_party/mcu_vendor/renesas/rz_mcu_boards/core_package/generate/system\r_devlink_wrapper.c **** 
 760:D:/Work/DeviceTester/amazon-freertos/lib/third_party/mcu_vendor/renesas/rz_mcu_boards/core_package/generate/system\r_devlink_wrapper.c ****         st_r_driver_t * p_device_driver = dev_get_pointer (p_link_name, &p_stream_name, &sc_index);
 761:D:/Work/DeviceTester/amazon-freertos/lib/third_party/mcu_vendor/renesas/rz_mcu_boards/core_package/generate/system\r_devlink_wrapper.c **** 
 762:D:/Work/DeviceTester/amazon-freertos/lib/third_party/mcu_vendor/renesas/rz_mcu_boards/core_package/generate/system\r_devlink_wrapper.c ****         /* NULL signifies that the driver is not loaded so do not call */
 763:D:/Work/DeviceTester/amazon-freertos/lib/third_party/mcu_vendor/renesas/rz_mcu_boards/core_package/generate/system\r_devlink_wrapper.c ****         if (NULL != p_device_driver)
 764:D:/Work/DeviceTester/amazon-freertos/lib/third_party/mcu_vendor/renesas/rz_mcu_boards/core_package/generate/system\r_devlink_wrapper.c ****         {
 765:D:/Work/DeviceTester/amazon-freertos/lib/third_party/mcu_vendor/renesas/rz_mcu_boards/core_package/generate/system\r_devlink_wrapper.c ****             /*  R_OS_SysWaitAccess();  */
 766:D:/Work/DeviceTester/amazon-freertos/lib/third_party/mcu_vendor/renesas/rz_mcu_boards/core_package/generate/system\r_devlink_wrapper.c **** 
 767:D:/Work/DeviceTester/amazon-freertos/lib/third_party/mcu_vendor/renesas/rz_mcu_boards/core_package/generate/system\r_devlink_wrapper.c ****             /* Driver may not be open so must cast st_stream_ptr_t to NULL */
 768:D:/Work/DeviceTester/amazon-freertos/lib/third_party/mcu_vendor/renesas/rz_mcu_boards/core_package/generate/system\r_devlink_wrapper.c ****             res = p_device_driver->get_version (NULL, info);
 769:D:/Work/DeviceTester/amazon-freertos/lib/third_party/mcu_vendor/renesas/rz_mcu_boards/core_package/generate/system\r_devlink_wrapper.c **** 
 770:D:/Work/DeviceTester/amazon-freertos/lib/third_party/mcu_vendor/renesas/rz_mcu_boards/core_package/generate/system\r_devlink_wrapper.c ****             /*  R_OS_SysReleaseAccess();  */
 771:D:/Work/DeviceTester/amazon-freertos/lib/third_party/mcu_vendor/renesas/rz_mcu_boards/core_package/generate/system\r_devlink_wrapper.c ****         }
 772:D:/Work/DeviceTester/amazon-freertos/lib/third_party/mcu_vendor/renesas/rz_mcu_boards/core_package/generate/system\r_devlink_wrapper.c ****     }
 773:D:/Work/DeviceTester/amazon-freertos/lib/third_party/mcu_vendor/renesas/rz_mcu_boards/core_package/generate/system\r_devlink_wrapper.c ****     return (res);
 721              		.loc 1 773 0
 722 003c 0A0000EA 		b	.L83
 723              	.LVL62:
 724              	.L79:
 725              	.LBB63:
 760:D:/Work/DeviceTester/amazon-freertos/lib/third_party/mcu_vendor/renesas/rz_mcu_boards/core_package/generate/system\r_devlink_wrapper.c **** 
 726              		.loc 1 760 0
 727 0040 04208DE2 		add	r2, sp, #4
 728 0044 0D10A0E1 		mov	r1, sp
 729 0048 0C008DE2 		add	r0, sp, #12
 730 004c FEFFFFEB 		bl	dev_get_pointer
 731              	.LVL63:
 763:D:/Work/DeviceTester/amazon-freertos/lib/third_party/mcu_vendor/renesas/rz_mcu_boards/core_package/generate/system\r_devlink_wrapper.c ****         {
 732              		.loc 1 763 0
 733 0050 000050E3 		cmp	r0, #0
 734 0054 F7FFFF0A 		beq	.L85
 768:D:/Work/DeviceTester/amazon-freertos/lib/third_party/mcu_vendor/renesas/rz_mcu_boards/core_package/generate/system\r_devlink_wrapper.c **** 
 735              		.loc 1 768 0
 736 0058 183090E5 		ldr	r3, [r0, #24]
 737 005c 0510A0E1 		mov	r1, r5
 738 0060 0000A0E3 		mov	r0, #0
 739              	.LVL64:
 740 0064 33FF2FE1 		blx	r3
 741              	.LVL65:
 742 0068 7000AFE6 		sxtb	r0, r0
 743              	.LVL66:
 744              	.L83:
 745              	.LBE63:
 774:D:/Work/DeviceTester/amazon-freertos/lib/third_party/mcu_vendor/renesas/rz_mcu_boards/core_package/generate/system\r_devlink_wrapper.c **** }
 746              		.loc 1 774 0
 747 006c 2CD08DE2 		add	sp, sp, #44
 748              		.cfi_def_cfa_offset 12
 749              		@ sp needed
 750 0070 3080BDE8 		pop	{r4, r5, pc}
 751              	.LVL67:
 752              	.L87:
 753              		.align	2
 754              	.L86:
 755 0074 00000000 		.word	.LC0
 756 0078 05000000 		.word	.LC1
 757              		.cfi_endproc
 758              	.LFE21:
 760              		.section	.text.low_open,"ax",%progbits
 761              		.align	2
 762              		.global	low_open
 763              		.syntax unified
 764              		.arm
 765              		.fpu neon
 767              	low_open:
 768              	.LFB22:
 775:D:/Work/DeviceTester/amazon-freertos/lib/third_party/mcu_vendor/renesas/rz_mcu_boards/core_package/generate/system\r_devlink_wrapper.c **** /**************************************************************************************************
 776:D:/Work/DeviceTester/amazon-freertos/lib/third_party/mcu_vendor/renesas/rz_mcu_boards/core_package/generate/system\r_devlink_wrapper.c ****  End of function direct_get_version
 777:D:/Work/DeviceTester/amazon-freertos/lib/third_party/mcu_vendor/renesas/rz_mcu_boards/core_package/generate/system\r_devlink_wrapper.c ****  **************************************************************************************************
 778:D:/Work/DeviceTester/amazon-freertos/lib/third_party/mcu_vendor/renesas/rz_mcu_boards/core_package/generate/system\r_devlink_wrapper.c **** 
 779:D:/Work/DeviceTester/amazon-freertos/lib/third_party/mcu_vendor/renesas/rz_mcu_boards/core_package/generate/system\r_devlink_wrapper.c **** #if R_USE_ANSI_STDIO_MODE_CFG
 780:D:/Work/DeviceTester/amazon-freertos/lib/third_party/mcu_vendor/renesas/rz_mcu_boards/core_package/generate/system\r_devlink_wrapper.c **** /* Enable STDIO interface */
 781:D:/Work/DeviceTester/amazon-freertos/lib/third_party/mcu_vendor/renesas/rz_mcu_boards/core_package/generate/system\r_devlink_wrapper.c **** 
 782:D:/Work/DeviceTester/amazon-freertos/lib/third_party/mcu_vendor/renesas/rz_mcu_boards/core_package/generate/system\r_devlink_wrapper.c **** /******************************************************************************
 783:D:/Work/DeviceTester/amazon-freertos/lib/third_party/mcu_vendor/renesas/rz_mcu_boards/core_package/generate/system\r_devlink_wrapper.c ****  * Function Name: low_open
 784:D:/Work/DeviceTester/amazon-freertos/lib/third_party/mcu_vendor/renesas/rz_mcu_boards/core_package/generate/system\r_devlink_wrapper.c ****  * Description  : ANSI library low level open function
 785:D:/Work/DeviceTester/amazon-freertos/lib/third_party/mcu_vendor/renesas/rz_mcu_boards/core_package/generate/system\r_devlink_wrapper.c ****  * Arguments    : IN  pszFileName - Pointer to the file name
 786:D:/Work/DeviceTester/amazon-freertos/lib/third_party/mcu_vendor/renesas/rz_mcu_boards/core_package/generate/system\r_devlink_wrapper.c ****  *                IN  file_flag - Passed on to open function
 787:D:/Work/DeviceTester/amazon-freertos/lib/third_party/mcu_vendor/renesas/rz_mcu_boards/core_package/generate/system\r_devlink_wrapper.c ****  * Return Value : File number or -1 on error
 788:D:/Work/DeviceTester/amazon-freertos/lib/third_party/mcu_vendor/renesas/rz_mcu_boards/core_package/generate/system\r_devlink_wrapper.c ****  ******************************************************************************/
 789:D:/Work/DeviceTester/amazon-freertos/lib/third_party/mcu_vendor/renesas/rz_mcu_boards/core_package/generate/system\r_devlink_wrapper.c **** int_t low_open(char *pszFileName, int file_flag)
 790:D:/Work/DeviceTester/amazon-freertos/lib/third_party/mcu_vendor/renesas/rz_mcu_boards/core_package/generate/system\r_devlink_wrapper.c **** {
 769              		.loc 1 790 0
 770              		.cfi_startproc
 771              		@ args = 0, pretend = 0, frame = 8
 772              		@ frame_needed = 0, uses_anonymous_args = 0
 773              	.LVL68:
 774              	.LBB71:
 775              	.LBB72:
 124:D:/Work/DeviceTester/amazon-freertos/lib/third_party/mcu_vendor/renesas/rz_mcu_boards/core_package/generate/system\r_devlink_wrapper.c ****         {
 776              		.loc 1 124 0
 777 0000 1C219FE5 		ldr	r2, .L120
 121:D:/Work/DeviceTester/amazon-freertos/lib/third_party/mcu_vendor/renesas/rz_mcu_boards/core_package/generate/system\r_devlink_wrapper.c ****     {
 778              		.loc 1 121 0
 779 0004 0030A0E3 		mov	r3, #0
 780              	.LBE72:
 781              	.LBE71:
 782              		.loc 1 790 0
 783 0008 F3412DE9 		push	{r0, r1, r4, r5, r6, r7, r8, lr}
 784              		.cfi_def_cfa_offset 32
 785              		.cfi_offset 4, -24
 786              		.cfi_offset 5, -20
 787              		.cfi_offset 6, -16
 788              		.cfi_offset 7, -12
 789              		.cfi_offset 8, -8
 790              		.cfi_offset 14, -4
 791              		.loc 1 790 0
 792 000c 0060A0E1 		mov	r6, r0
 793              	.LVL69:
 794 0010 0180A0E1 		mov	r8, r1
 795              	.LBB74:
 796              	.LBB73:
 118:D:/Work/DeviceTester/amazon-freertos/lib/third_party/mcu_vendor/renesas/rz_mcu_boards/core_package/generate/system\r_devlink_wrapper.c ****     int_t findex;
 797              		.loc 1 118 0
 798 0014 0040E0E3 		mvn	r4, #0
 799 0018 0250A0E1 		mov	r5, r2
 800              	.LVL70:
 801              	.L90:
 124:D:/Work/DeviceTester/amazon-freertos/lib/third_party/mcu_vendor/renesas/rz_mcu_boards/core_package/generate/system\r_devlink_wrapper.c ****         {
 802              		.loc 1 124 0
 803 001c 831292E7 		ldr	r1, [r2, r3, lsl #5]
 804 0020 000051E3 		cmp	r1, #0
 805 0024 0340A001 		moveq	r4, r3
 130:D:/Work/DeviceTester/amazon-freertos/lib/third_party/mcu_vendor/renesas/rz_mcu_boards/core_package/generate/system\r_devlink_wrapper.c ****         }
 806              		.loc 1 130 0
 807 0028 5530A003 		moveq	r3, #85
 808              	.LVL71:
 121:D:/Work/DeviceTester/amazon-freertos/lib/third_party/mcu_vendor/renesas/rz_mcu_boards/core_package/generate/system\r_devlink_wrapper.c ****     {
 809              		.loc 1 121 0
 810 002c 013083E2 		add	r3, r3, #1
 811              	.LVL72:
 812 0030 530053E3 		cmp	r3, #83
 813 0034 F8FFFFDA 		ble	.L90
 814              	.LVL73:
 815              	.LBE73:
 816              	.LBE74:
 791:D:/Work/DeviceTester/amazon-freertos/lib/third_party/mcu_vendor/renesas/rz_mcu_boards/core_package/generate/system\r_devlink_wrapper.c ****     int_t handle = DRV_ERROR;
 792:D:/Work/DeviceTester/amazon-freertos/lib/third_party/mcu_vendor/renesas/rz_mcu_boards/core_package/generate/system\r_devlink_wrapper.c ****     int_t local_handle;
 793:D:/Work/DeviceTester/amazon-freertos/lib/third_party/mcu_vendor/renesas/rz_mcu_boards/core_package/generate/system\r_devlink_wrapper.c ****     int_t open_result = DRV_ERROR;
 794:D:/Work/DeviceTester/amazon-freertos/lib/third_party/mcu_vendor/renesas/rz_mcu_boards/core_package/generate/system\r_devlink_wrapper.c **** 
 795:D:/Work/DeviceTester/amazon-freertos/lib/third_party/mcu_vendor/renesas/rz_mcu_boards/core_package/generate/system\r_devlink_wrapper.c ****     /*  R_OS_SysWaitAccess();  */
 796:D:/Work/DeviceTester/amazon-freertos/lib/third_party/mcu_vendor/renesas/rz_mcu_boards/core_package/generate/system\r_devlink_wrapper.c **** 
 797:D:/Work/DeviceTester/amazon-freertos/lib/third_party/mcu_vendor/renesas/rz_mcu_boards/core_package/generate/system\r_devlink_wrapper.c ****     /* Get the fist available file number */
 798:D:/Work/DeviceTester/amazon-freertos/lib/third_party/mcu_vendor/renesas/rz_mcu_boards/core_package/generate/system\r_devlink_wrapper.c ****     local_handle = get_first_free_call_stdio_handle (pszFileName);
 799:D:/Work/DeviceTester/amazon-freertos/lib/third_party/mcu_vendor/renesas/rz_mcu_boards/core_package/generate/system\r_devlink_wrapper.c ****     if (DRV_ERROR != local_handle)
 817              		.loc 1 799 0
 818 0038 010074E3 		cmn	r4, #1
 819 003c 8472A0E1 		lsl	r7, r4, #5
 820 0040 0900001A 		bne	.L91
 821              	.LVL74:
 822              	.L96:
 800:D:/Work/DeviceTester/amazon-freertos/lib/third_party/mcu_vendor/renesas/rz_mcu_boards/core_package/generate/system\r_devlink_wrapper.c ****     {
 801:D:/Work/DeviceTester/amazon-freertos/lib/third_party/mcu_vendor/renesas/rz_mcu_boards/core_package/generate/system\r_devlink_wrapper.c ****         /* First look for a device */
 802:D:/Work/DeviceTester/amazon-freertos/lib/third_party/mcu_vendor/renesas/rz_mcu_boards/core_package/generate/system\r_devlink_wrapper.c ****         char_t * p_link_name = get_device_name (pszFileName);
 803:D:/Work/DeviceTester/amazon-freertos/lib/third_party/mcu_vendor/renesas/rz_mcu_boards/core_package/generate/system\r_devlink_wrapper.c **** 
 804:D:/Work/DeviceTester/amazon-freertos/lib/third_party/mcu_vendor/renesas/rz_mcu_boards/core_package/generate/system\r_devlink_wrapper.c ****         /* Initialise the driver pointer */
 805:D:/Work/DeviceTester/amazon-freertos/lib/third_party/mcu_vendor/renesas/rz_mcu_boards/core_package/generate/system\r_devlink_wrapper.c ****         gs_filestream[local_handle].p_device_driver = &gs_no_driver;
 806:D:/Work/DeviceTester/amazon-freertos/lib/third_party/mcu_vendor/renesas/rz_mcu_boards/core_package/generate/system\r_devlink_wrapper.c **** 
 807:D:/Work/DeviceTester/amazon-freertos/lib/third_party/mcu_vendor/renesas/rz_mcu_boards/core_package/generate/system\r_devlink_wrapper.c ****         /* Check to see if this is a device driver not a file */
 808:D:/Work/DeviceTester/amazon-freertos/lib/third_party/mcu_vendor/renesas/rz_mcu_boards/core_package/generate/system\r_devlink_wrapper.c ****         if (p_link_name)
 809:D:/Work/DeviceTester/amazon-freertos/lib/third_party/mcu_vendor/renesas/rz_mcu_boards/core_package/generate/system\r_devlink_wrapper.c ****         {
 810:D:/Work/DeviceTester/amazon-freertos/lib/third_party/mcu_vendor/renesas/rz_mcu_boards/core_package/generate/system\r_devlink_wrapper.c ****             char_t * p_stream_name;
 811:D:/Work/DeviceTester/amazon-freertos/lib/third_party/mcu_vendor/renesas/rz_mcu_boards/core_package/generate/system\r_devlink_wrapper.c ****             uint32_t sc_index;
 812:D:/Work/DeviceTester/amazon-freertos/lib/third_party/mcu_vendor/renesas/rz_mcu_boards/core_package/generate/system\r_devlink_wrapper.c **** 
 813:D:/Work/DeviceTester/amazon-freertos/lib/third_party/mcu_vendor/renesas/rz_mcu_boards/core_package/generate/system\r_devlink_wrapper.c ****             st_r_driver_t * p_device_driver = dev_get_pointer (p_link_name, &p_stream_name, &sc_ind
 814:D:/Work/DeviceTester/amazon-freertos/lib/third_party/mcu_vendor/renesas/rz_mcu_boards/core_package/generate/system\r_devlink_wrapper.c **** 
 815:D:/Work/DeviceTester/amazon-freertos/lib/third_party/mcu_vendor/renesas/rz_mcu_boards/core_package/generate/system\r_devlink_wrapper.c ****             if (p_device_driver)
 816:D:/Work/DeviceTester/amazon-freertos/lib/third_party/mcu_vendor/renesas/rz_mcu_boards/core_package/generate/system\r_devlink_wrapper.c ****             {
 817:D:/Work/DeviceTester/amazon-freertos/lib/third_party/mcu_vendor/renesas/rz_mcu_boards/core_package/generate/system\r_devlink_wrapper.c ****                 gs_filestream[local_handle].p_stream_name = p_stream_name;
 818:D:/Work/DeviceTester/amazon-freertos/lib/third_party/mcu_vendor/renesas/rz_mcu_boards/core_package/generate/system\r_devlink_wrapper.c ****                 gs_filestream[local_handle].p_device_driver = p_device_driver;
 819:D:/Work/DeviceTester/amazon-freertos/lib/third_party/mcu_vendor/renesas/rz_mcu_boards/core_package/generate/system\r_devlink_wrapper.c ****                 gs_filestream[local_handle].sc_config_index = sc_index;
 820:D:/Work/DeviceTester/amazon-freertos/lib/third_party/mcu_vendor/renesas/rz_mcu_boards/core_package/generate/system\r_devlink_wrapper.c ****             }
 821:D:/Work/DeviceTester/amazon-freertos/lib/third_party/mcu_vendor/renesas/rz_mcu_boards/core_package/generate/system\r_devlink_wrapper.c ****             else
 822:D:/Work/DeviceTester/amazon-freertos/lib/third_party/mcu_vendor/renesas/rz_mcu_boards/core_package/generate/system\r_devlink_wrapper.c ****             {
 823:D:/Work/DeviceTester/amazon-freertos/lib/third_party/mcu_vendor/renesas/rz_mcu_boards/core_package/generate/system\r_devlink_wrapper.c ****                 open_result = DRV_ERROR;
 824:D:/Work/DeviceTester/amazon-freertos/lib/third_party/mcu_vendor/renesas/rz_mcu_boards/core_package/generate/system\r_devlink_wrapper.c ****             }
 825:D:/Work/DeviceTester/amazon-freertos/lib/third_party/mcu_vendor/renesas/rz_mcu_boards/core_package/generate/system\r_devlink_wrapper.c ****         }
 826:D:/Work/DeviceTester/amazon-freertos/lib/third_party/mcu_vendor/renesas/rz_mcu_boards/core_package/generate/system\r_devlink_wrapper.c **** 
 827:D:/Work/DeviceTester/amazon-freertos/lib/third_party/mcu_vendor/renesas/rz_mcu_boards/core_package/generate/system\r_devlink_wrapper.c **** #if INCLUDE_FILE_SYSTEM
 828:D:/Work/DeviceTester/amazon-freertos/lib/third_party/mcu_vendor/renesas/rz_mcu_boards/core_package/generate/system\r_devlink_wrapper.c ****         /* If it was not a device look for a file */
 829:D:/Work/DeviceTester/amazon-freertos/lib/third_party/mcu_vendor/renesas/rz_mcu_boards/core_package/generate/system\r_devlink_wrapper.c ****         if ((gs_filestream[local_handle].p_device_driver == NULL)
 830:D:/Work/DeviceTester/amazon-freertos/lib/third_party/mcu_vendor/renesas/rz_mcu_boards/core_package/generate/system\r_devlink_wrapper.c ****                 || (gs_filestream[local_handle].p_device_driver == (&gs_no_driver)))
 831:D:/Work/DeviceTester/amazon-freertos/lib/third_party/mcu_vendor/renesas/rz_mcu_boards/core_package/generate/system\r_devlink_wrapper.c ****         {
 832:D:/Work/DeviceTester/amazon-freertos/lib/third_party/mcu_vendor/renesas/rz_mcu_boards/core_package/generate/system\r_devlink_wrapper.c ****             st_stream_ptr_t pStream = &gs_filestream[local_handle];
 833:D:/Work/DeviceTester/amazon-freertos/lib/third_party/mcu_vendor/renesas/rz_mcu_boards/core_package/generate/system\r_devlink_wrapper.c ****             st_r_driver_t* p_device_driver;
 834:D:/Work/DeviceTester/amazon-freertos/lib/third_party/mcu_vendor/renesas/rz_mcu_boards/core_package/generate/system\r_devlink_wrapper.c **** 
 835:D:/Work/DeviceTester/amazon-freertos/lib/third_party/mcu_vendor/renesas/rz_mcu_boards/core_package/generate/system\r_devlink_wrapper.c ****             /* Set the file number for access to _File if required */
 836:D:/Work/DeviceTester/amazon-freertos/lib/third_party/mcu_vendor/renesas/rz_mcu_boards/core_package/generate/system\r_devlink_wrapper.c ****             pStream->file_number = local_handle;
 837:D:/Work/DeviceTester/amazon-freertos/lib/third_party/mcu_vendor/renesas/rz_mcu_boards/core_package/generate/system\r_devlink_wrapper.c **** 
 838:D:/Work/DeviceTester/amazon-freertos/lib/third_party/mcu_vendor/renesas/rz_mcu_boards/core_package/generate/system\r_devlink_wrapper.c ****             /* Try to load a driver for this file */
 839:D:/Work/DeviceTester/amazon-freertos/lib/third_party/mcu_vendor/renesas/rz_mcu_boards/core_package/generate/system\r_devlink_wrapper.c ****             p_device_driver = fileLoadDriver(pStream, pszFileName, file_flag);
 840:D:/Work/DeviceTester/amazon-freertos/lib/third_party/mcu_vendor/renesas/rz_mcu_boards/core_package/generate/system\r_devlink_wrapper.c ****             if (p_device_driver)
 841:D:/Work/DeviceTester/amazon-freertos/lib/third_party/mcu_vendor/renesas/rz_mcu_boards/core_package/generate/system\r_devlink_wrapper.c ****             {
 842:D:/Work/DeviceTester/amazon-freertos/lib/third_party/mcu_vendor/renesas/rz_mcu_boards/core_package/generate/system\r_devlink_wrapper.c **** 
 843:D:/Work/DeviceTester/amazon-freertos/lib/third_party/mcu_vendor/renesas/rz_mcu_boards/core_package/generate/system\r_devlink_wrapper.c ****                 /* Set the driver */
 844:D:/Work/DeviceTester/amazon-freertos/lib/third_party/mcu_vendor/renesas/rz_mcu_boards/core_package/generate/system\r_devlink_wrapper.c ****                 pStream->p_device_driver = p_device_driver;
 845:D:/Work/DeviceTester/amazon-freertos/lib/third_party/mcu_vendor/renesas/rz_mcu_boards/core_package/generate/system\r_devlink_wrapper.c **** 
 846:D:/Work/DeviceTester/amazon-freertos/lib/third_party/mcu_vendor/renesas/rz_mcu_boards/core_package/generate/system\r_devlink_wrapper.c ****             }
 847:D:/Work/DeviceTester/amazon-freertos/lib/third_party/mcu_vendor/renesas/rz_mcu_boards/core_package/generate/system\r_devlink_wrapper.c ****         }
 848:D:/Work/DeviceTester/amazon-freertos/lib/third_party/mcu_vendor/renesas/rz_mcu_boards/core_package/generate/system\r_devlink_wrapper.c **** #endif
 849:D:/Work/DeviceTester/amazon-freertos/lib/third_party/mcu_vendor/renesas/rz_mcu_boards/core_package/generate/system\r_devlink_wrapper.c **** 
 850:D:/Work/DeviceTester/amazon-freertos/lib/third_party/mcu_vendor/renesas/rz_mcu_boards/core_package/generate/system\r_devlink_wrapper.c ****         /* If we found a device or a file then open it */
 851:D:/Work/DeviceTester/amazon-freertos/lib/third_party/mcu_vendor/renesas/rz_mcu_boards/core_package/generate/system\r_devlink_wrapper.c ****         if ((gs_filestream[local_handle].p_device_driver)
 852:D:/Work/DeviceTester/amazon-freertos/lib/third_party/mcu_vendor/renesas/rz_mcu_boards/core_package/generate/system\r_devlink_wrapper.c ****                 && ((&gs_no_driver) != gs_filestream[local_handle].p_device_driver))
 853:D:/Work/DeviceTester/amazon-freertos/lib/third_party/mcu_vendor/renesas/rz_mcu_boards/core_package/generate/system\r_devlink_wrapper.c ****         {
 854:D:/Work/DeviceTester/amazon-freertos/lib/third_party/mcu_vendor/renesas/rz_mcu_boards/core_package/generate/system\r_devlink_wrapper.c ****             st_stream_ptr_t pstream = &gs_filestream[local_handle];
 855:D:/Work/DeviceTester/amazon-freertos/lib/third_party/mcu_vendor/renesas/rz_mcu_boards/core_package/generate/system\r_devlink_wrapper.c **** 
 856:D:/Work/DeviceTester/amazon-freertos/lib/third_party/mcu_vendor/renesas/rz_mcu_boards/core_package/generate/system\r_devlink_wrapper.c ****             pstream->file_number = local_handle;
 857:D:/Work/DeviceTester/amazon-freertos/lib/third_party/mcu_vendor/renesas/rz_mcu_boards/core_package/generate/system\r_devlink_wrapper.c **** 
 858:D:/Work/DeviceTester/amazon-freertos/lib/third_party/mcu_vendor/renesas/rz_mcu_boards/core_package/generate/system\r_devlink_wrapper.c ****             /* Check for read and write */
 859:D:/Work/DeviceTester/amazon-freertos/lib/third_party/mcu_vendor/renesas/rz_mcu_boards/core_package/generate/system\r_devlink_wrapper.c ****             if (file_flag & O_RDWR)
 860:D:/Work/DeviceTester/amazon-freertos/lib/third_party/mcu_vendor/renesas/rz_mcu_boards/core_package/generate/system\r_devlink_wrapper.c ****             {
 861:D:/Work/DeviceTester/amazon-freertos/lib/third_party/mcu_vendor/renesas/rz_mcu_boards/core_package/generate/system\r_devlink_wrapper.c ****                 pstream->file_mode = (__SRD | __SWR);
 862:D:/Work/DeviceTester/amazon-freertos/lib/third_party/mcu_vendor/renesas/rz_mcu_boards/core_package/generate/system\r_devlink_wrapper.c ****             }
 863:D:/Work/DeviceTester/amazon-freertos/lib/third_party/mcu_vendor/renesas/rz_mcu_boards/core_package/generate/system\r_devlink_wrapper.c **** 
 864:D:/Work/DeviceTester/amazon-freertos/lib/third_party/mcu_vendor/renesas/rz_mcu_boards/core_package/generate/system\r_devlink_wrapper.c ****             /* Check for write only */
 865:D:/Work/DeviceTester/amazon-freertos/lib/third_party/mcu_vendor/renesas/rz_mcu_boards/core_package/generate/system\r_devlink_wrapper.c ****             else if (file_flag & (O_WRONLY))
 866:D:/Work/DeviceTester/amazon-freertos/lib/third_party/mcu_vendor/renesas/rz_mcu_boards/core_package/generate/system\r_devlink_wrapper.c ****             {
 867:D:/Work/DeviceTester/amazon-freertos/lib/third_party/mcu_vendor/renesas/rz_mcu_boards/core_package/generate/system\r_devlink_wrapper.c ****                 pstream->file_mode = __SWR;
 868:D:/Work/DeviceTester/amazon-freertos/lib/third_party/mcu_vendor/renesas/rz_mcu_boards/core_package/generate/system\r_devlink_wrapper.c ****             }
 869:D:/Work/DeviceTester/amazon-freertos/lib/third_party/mcu_vendor/renesas/rz_mcu_boards/core_package/generate/system\r_devlink_wrapper.c ****             else
 870:D:/Work/DeviceTester/amazon-freertos/lib/third_party/mcu_vendor/renesas/rz_mcu_boards/core_package/generate/system\r_devlink_wrapper.c ****             {
 871:D:/Work/DeviceTester/amazon-freertos/lib/third_party/mcu_vendor/renesas/rz_mcu_boards/core_package/generate/system\r_devlink_wrapper.c ****                 /* If a open is requested with unrecognised flags
 872:D:/Work/DeviceTester/amazon-freertos/lib/third_party/mcu_vendor/renesas/rz_mcu_boards/core_package/generate/system\r_devlink_wrapper.c ****                  * such as 'rb', grant read only to allow  level
 873:D:/Work/DeviceTester/amazon-freertos/lib/third_party/mcu_vendor/renesas/rz_mcu_boards/core_package/generate/system\r_devlink_wrapper.c ****                  * of functionality.
 874:D:/Work/DeviceTester/amazon-freertos/lib/third_party/mcu_vendor/renesas/rz_mcu_boards/core_package/generate/system\r_devlink_wrapper.c ****                  */
 875:D:/Work/DeviceTester/amazon-freertos/lib/third_party/mcu_vendor/renesas/rz_mcu_boards/core_package/generate/system\r_devlink_wrapper.c ****                 /* Always grant read only mode */
 876:D:/Work/DeviceTester/amazon-freertos/lib/third_party/mcu_vendor/renesas/rz_mcu_boards/core_package/generate/system\r_devlink_wrapper.c ****                 pstream->file_mode = __SRD;
 877:D:/Work/DeviceTester/amazon-freertos/lib/third_party/mcu_vendor/renesas/rz_mcu_boards/core_package/generate/system\r_devlink_wrapper.c ****             }
 878:D:/Work/DeviceTester/amazon-freertos/lib/third_party/mcu_vendor/renesas/rz_mcu_boards/core_package/generate/system\r_devlink_wrapper.c **** 
 879:D:/Work/DeviceTester/amazon-freertos/lib/third_party/mcu_vendor/renesas/rz_mcu_boards/core_package/generate/system\r_devlink_wrapper.c ****             /* Check for create & add write */
 880:D:/Work/DeviceTester/amazon-freertos/lib/third_party/mcu_vendor/renesas/rz_mcu_boards/core_package/generate/system\r_devlink_wrapper.c ****             if (file_flag & O_CREAT)
 881:D:/Work/DeviceTester/amazon-freertos/lib/third_party/mcu_vendor/renesas/rz_mcu_boards/core_package/generate/system\r_devlink_wrapper.c ****             {
 882:D:/Work/DeviceTester/amazon-freertos/lib/third_party/mcu_vendor/renesas/rz_mcu_boards/core_package/generate/system\r_devlink_wrapper.c ****                 pstream->file_mode |= __SWR;
 883:D:/Work/DeviceTester/amazon-freertos/lib/third_party/mcu_vendor/renesas/rz_mcu_boards/core_package/generate/system\r_devlink_wrapper.c ****             }
 884:D:/Work/DeviceTester/amazon-freertos/lib/third_party/mcu_vendor/renesas/rz_mcu_boards/core_package/generate/system\r_devlink_wrapper.c ****             pstream->file_flag = file_flag;
 885:D:/Work/DeviceTester/amazon-freertos/lib/third_party/mcu_vendor/renesas/rz_mcu_boards/core_package/generate/system\r_devlink_wrapper.c **** 
 886:D:/Work/DeviceTester/amazon-freertos/lib/third_party/mcu_vendor/renesas/rz_mcu_boards/core_package/generate/system\r_devlink_wrapper.c ****             open_result = pstream->p_device_driver->open (pstream);
 887:D:/Work/DeviceTester/amazon-freertos/lib/third_party/mcu_vendor/renesas/rz_mcu_boards/core_package/generate/system\r_devlink_wrapper.c ****         }
 888:D:/Work/DeviceTester/amazon-freertos/lib/third_party/mcu_vendor/renesas/rz_mcu_boards/core_package/generate/system\r_devlink_wrapper.c ****     }
 889:D:/Work/DeviceTester/amazon-freertos/lib/third_party/mcu_vendor/renesas/rz_mcu_boards/core_package/generate/system\r_devlink_wrapper.c **** 
 890:D:/Work/DeviceTester/amazon-freertos/lib/third_party/mcu_vendor/renesas/rz_mcu_boards/core_package/generate/system\r_devlink_wrapper.c ****     if (DRV_ERROR == open_result)
 891:D:/Work/DeviceTester/amazon-freertos/lib/third_party/mcu_vendor/renesas/rz_mcu_boards/core_package/generate/system\r_devlink_wrapper.c ****     {
 892:D:/Work/DeviceTester/amazon-freertos/lib/third_party/mcu_vendor/renesas/rz_mcu_boards/core_package/generate/system\r_devlink_wrapper.c ****         /* Device failed to open */
 893:D:/Work/DeviceTester/amazon-freertos/lib/third_party/mcu_vendor/renesas/rz_mcu_boards/core_package/generate/system\r_devlink_wrapper.c ****         memset (&gs_filestream[local_handle], 0x00, sizeof(st_stream_t));
 823              		.loc 1 893 0
 824 0044 2020A0E3 		mov	r2, #32
 825 0048 0010A0E3 		mov	r1, #0
 826 004c 070085E0 		add	r0, r5, r7
 827 0050 FEFFFFEB 		bl	memset
 828              	.LVL75:
 894:D:/Work/DeviceTester/amazon-freertos/lib/third_party/mcu_vendor/renesas/rz_mcu_boards/core_package/generate/system\r_devlink_wrapper.c **** 
 895:D:/Work/DeviceTester/amazon-freertos/lib/third_party/mcu_vendor/renesas/rz_mcu_boards/core_package/generate/system\r_devlink_wrapper.c ****         /* NULL signifies that the driver is not loaded */
 896:D:/Work/DeviceTester/amazon-freertos/lib/third_party/mcu_vendor/renesas/rz_mcu_boards/core_package/generate/system\r_devlink_wrapper.c ****         gs_filestream[local_handle].p_device_driver = NULL;
 829              		.loc 1 896 0
 830 0054 0030A0E3 		mov	r3, #0
 831 0058 843285E7 		str	r3, [r5, r4, lsl #5]
 791:D:/Work/DeviceTester/amazon-freertos/lib/third_party/mcu_vendor/renesas/rz_mcu_boards/core_package/generate/system\r_devlink_wrapper.c ****     int_t local_handle;
 832              		.loc 1 791 0
 833 005c 0040E0E3 		mvn	r4, #0
 834              	.L88:
 897:D:/Work/DeviceTester/amazon-freertos/lib/third_party/mcu_vendor/renesas/rz_mcu_boards/core_package/generate/system\r_devlink_wrapper.c ****     }
 898:D:/Work/DeviceTester/amazon-freertos/lib/third_party/mcu_vendor/renesas/rz_mcu_boards/core_package/generate/system\r_devlink_wrapper.c ****     else
 899:D:/Work/DeviceTester/amazon-freertos/lib/third_party/mcu_vendor/renesas/rz_mcu_boards/core_package/generate/system\r_devlink_wrapper.c ****     {
 900:D:/Work/DeviceTester/amazon-freertos/lib/third_party/mcu_vendor/renesas/rz_mcu_boards/core_package/generate/system\r_devlink_wrapper.c ****         /* Device opened successfully assign the handle */
 901:D:/Work/DeviceTester/amazon-freertos/lib/third_party/mcu_vendor/renesas/rz_mcu_boards/core_package/generate/system\r_devlink_wrapper.c ****         handle = local_handle;
 902:D:/Work/DeviceTester/amazon-freertos/lib/third_party/mcu_vendor/renesas/rz_mcu_boards/core_package/generate/system\r_devlink_wrapper.c ****     }
 903:D:/Work/DeviceTester/amazon-freertos/lib/third_party/mcu_vendor/renesas/rz_mcu_boards/core_package/generate/system\r_devlink_wrapper.c **** 
 904:D:/Work/DeviceTester/amazon-freertos/lib/third_party/mcu_vendor/renesas/rz_mcu_boards/core_package/generate/system\r_devlink_wrapper.c ****     /*  R_OS_SysReleaseAccess();  */
 905:D:/Work/DeviceTester/amazon-freertos/lib/third_party/mcu_vendor/renesas/rz_mcu_boards/core_package/generate/system\r_devlink_wrapper.c **** 
 906:D:/Work/DeviceTester/amazon-freertos/lib/third_party/mcu_vendor/renesas/rz_mcu_boards/core_package/generate/system\r_devlink_wrapper.c ****     return (handle);
 907:D:/Work/DeviceTester/amazon-freertos/lib/third_party/mcu_vendor/renesas/rz_mcu_boards/core_package/generate/system\r_devlink_wrapper.c **** }
 835              		.loc 1 907 0
 836 0060 0400A0E1 		mov	r0, r4
 837 0064 08D08DE2 		add	sp, sp, #8
 838              		.cfi_remember_state
 839              		.cfi_def_cfa_offset 24
 840              		@ sp needed
 841 0068 F081BDE8 		pop	{r4, r5, r6, r7, r8, pc}
 842              	.LVL76:
 843              	.L91:
 844              		.cfi_restore_state
 845              	.LBB75:
 846              	.LBB76:
 847              	.LBB77:
 247:D:/Work/DeviceTester/amazon-freertos/lib/third_party/mcu_vendor/renesas/rz_mcu_boards/core_package/generate/system\r_devlink_wrapper.c ****     {
 848              		.loc 1 247 0
 849 006c 0600A0E1 		mov	r0, r6
 850              	.LVL77:
 851 0070 B0109FE5 		ldr	r1, .L120+4
 852 0074 FEFFFFEB 		bl	strstr
 853              	.LVL78:
 854 0078 000056E1 		cmp	r6, r0
 855              	.LBE77:
 856              	.LBE76:
 805:D:/Work/DeviceTester/amazon-freertos/lib/third_party/mcu_vendor/renesas/rz_mcu_boards/core_package/generate/system\r_devlink_wrapper.c **** 
 857              		.loc 1 805 0
 858 007c A8309FE5 		ldr	r3, .L120+8
 859              	.LBB79:
 860              	.LBB78:
 250:D:/Work/DeviceTester/amazon-freertos/lib/third_party/mcu_vendor/renesas/rz_mcu_boards/core_package/generate/system\r_devlink_wrapper.c ****     }
 861              		.loc 1 250 0
 862 0080 04008602 		addeq	r0, r6, #4
 863              	.LVL79:
 245:D:/Work/DeviceTester/amazon-freertos/lib/third_party/mcu_vendor/renesas/rz_mcu_boards/core_package/generate/system\r_devlink_wrapper.c **** 
 864              		.loc 1 245 0
 865 0084 0000A013 		movne	r0, #0
 866              	.LBE78:
 867              	.LBE79:
 808:D:/Work/DeviceTester/amazon-freertos/lib/third_party/mcu_vendor/renesas/rz_mcu_boards/core_package/generate/system\r_devlink_wrapper.c ****         {
 868              		.loc 1 808 0
 869 0088 000050E3 		cmp	r0, #0
 805:D:/Work/DeviceTester/amazon-freertos/lib/third_party/mcu_vendor/renesas/rz_mcu_boards/core_package/generate/system\r_devlink_wrapper.c **** 
 870              		.loc 1 805 0
 871 008c 843285E7 		str	r3, [r5, r4, lsl #5]
 872 0090 0360A0E1 		mov	r6, r3
 873              	.LVL80:
 808:D:/Work/DeviceTester/amazon-freertos/lib/third_party/mcu_vendor/renesas/rz_mcu_boards/core_package/generate/system\r_devlink_wrapper.c ****         {
 874              		.loc 1 808 0
 875 0094 0900000A 		beq	.L94
 876              	.LBB80:
 813:D:/Work/DeviceTester/amazon-freertos/lib/third_party/mcu_vendor/renesas/rz_mcu_boards/core_package/generate/system\r_devlink_wrapper.c **** 
 877              		.loc 1 813 0
 878 0098 04208DE2 		add	r2, sp, #4
 879 009c 0D10A0E1 		mov	r1, sp
 880 00a0 FEFFFFEB 		bl	dev_get_pointer
 881              	.LVL81:
 815:D:/Work/DeviceTester/amazon-freertos/lib/third_party/mcu_vendor/renesas/rz_mcu_boards/core_package/generate/system\r_devlink_wrapper.c ****             {
 882              		.loc 1 815 0
 883 00a4 000050E3 		cmp	r0, #0
 817:D:/Work/DeviceTester/amazon-freertos/lib/third_party/mcu_vendor/renesas/rz_mcu_boards/core_package/generate/system\r_devlink_wrapper.c ****                 gs_filestream[local_handle].p_device_driver = p_device_driver;
 884              		.loc 1 817 0
 885 00a8 00209D15 		ldrne	r2, [sp]
 886 00ac 07308510 		addne	r3, r5, r7
 818:D:/Work/DeviceTester/amazon-freertos/lib/third_party/mcu_vendor/renesas/rz_mcu_boards/core_package/generate/system\r_devlink_wrapper.c ****                 gs_filestream[local_handle].sc_config_index = sc_index;
 887              		.loc 1 818 0
 888 00b0 84028517 		strne	r0, [r5, r4, lsl #5]
 817:D:/Work/DeviceTester/amazon-freertos/lib/third_party/mcu_vendor/renesas/rz_mcu_boards/core_package/generate/system\r_devlink_wrapper.c ****                 gs_filestream[local_handle].p_device_driver = p_device_driver;
 889              		.loc 1 817 0
 890 00b4 08208315 		strne	r2, [r3, #8]
 819:D:/Work/DeviceTester/amazon-freertos/lib/third_party/mcu_vendor/renesas/rz_mcu_boards/core_package/generate/system\r_devlink_wrapper.c ****             }
 891              		.loc 1 819 0
 892 00b8 04209D15 		ldrne	r2, [sp, #4]
 893 00bc 1C20C315 		strbne	r2, [r3, #28]
 894              	.LVL82:
 895              	.L94:
 896              	.LBE80:
 851:D:/Work/DeviceTester/amazon-freertos/lib/third_party/mcu_vendor/renesas/rz_mcu_boards/core_package/generate/system\r_devlink_wrapper.c ****                 && ((&gs_no_driver) != gs_filestream[local_handle].p_device_driver))
 897              		.loc 1 851 0
 898 00c0 843295E7 		ldr	r3, [r5, r4, lsl #5]
 852:D:/Work/DeviceTester/amazon-freertos/lib/third_party/mcu_vendor/renesas/rz_mcu_boards/core_package/generate/system\r_devlink_wrapper.c ****         {
 899              		.loc 1 852 0
 900 00c4 000053E3 		cmp	r3, #0
 901 00c8 06005311 		cmpne	r3, r6
 902 00cc DCFFFF0A 		beq	.L96
 903              	.LBB81:
 859:D:/Work/DeviceTester/amazon-freertos/lib/third_party/mcu_vendor/renesas/rz_mcu_boards/core_package/generate/system\r_devlink_wrapper.c ****             {
 904              		.loc 1 859 0
 905 00d0 020018E3 		tst	r8, #2
 854:D:/Work/DeviceTester/amazon-freertos/lib/third_party/mcu_vendor/renesas/rz_mcu_boards/core_package/generate/system\r_devlink_wrapper.c **** 
 906              		.loc 1 854 0
 907 00d4 070085E0 		add	r0, r5, r7
 908              	.LVL83:
 856:D:/Work/DeviceTester/amazon-freertos/lib/third_party/mcu_vendor/renesas/rz_mcu_boards/core_package/generate/system\r_devlink_wrapper.c **** 
 909              		.loc 1 856 0
 910 00d8 104080E5 		str	r4, [r0, #16]
 861:D:/Work/DeviceTester/amazon-freertos/lib/third_party/mcu_vendor/renesas/rz_mcu_boards/core_package/generate/system\r_devlink_wrapper.c ****             }
 911              		.loc 1 861 0
 912 00dc 0C20A013 		movne	r2, #12
 859:D:/Work/DeviceTester/amazon-freertos/lib/third_party/mcu_vendor/renesas/rz_mcu_boards/core_package/generate/system\r_devlink_wrapper.c ****             {
 913              		.loc 1 859 0
 914 00e0 0200001A 		bne	.L119
 865:D:/Work/DeviceTester/amazon-freertos/lib/third_party/mcu_vendor/renesas/rz_mcu_boards/core_package/generate/system\r_devlink_wrapper.c ****             {
 915              		.loc 1 865 0
 916 00e4 010018E3 		tst	r8, #1
 867:D:/Work/DeviceTester/amazon-freertos/lib/third_party/mcu_vendor/renesas/rz_mcu_boards/core_package/generate/system\r_devlink_wrapper.c ****             }
 917              		.loc 1 867 0
 918 00e8 0820A013 		movne	r2, #8
 876:D:/Work/DeviceTester/amazon-freertos/lib/third_party/mcu_vendor/renesas/rz_mcu_boards/core_package/generate/system\r_devlink_wrapper.c ****             }
 919              		.loc 1 876 0
 920 00ec 0420A003 		moveq	r2, #4
 921              	.L119:
 880:D:/Work/DeviceTester/amazon-freertos/lib/third_party/mcu_vendor/renesas/rz_mcu_boards/core_package/generate/system\r_devlink_wrapper.c ****             {
 922              		.loc 1 880 0
 923 00f0 020C18E3 		tst	r8, #512
 876:D:/Work/DeviceTester/amazon-freertos/lib/third_party/mcu_vendor/renesas/rz_mcu_boards/core_package/generate/system\r_devlink_wrapper.c ****             }
 924              		.loc 1 876 0
 925 00f4 142080E5 		str	r2, [r0, #20]
 882:D:/Work/DeviceTester/amazon-freertos/lib/third_party/mcu_vendor/renesas/rz_mcu_boards/core_package/generate/system\r_devlink_wrapper.c ****             }
 926              		.loc 1 882 0
 927 00f8 07108510 		addne	r1, r5, r7
 886:D:/Work/DeviceTester/amazon-freertos/lib/third_party/mcu_vendor/renesas/rz_mcu_boards/core_package/generate/system\r_devlink_wrapper.c ****         }
 928              		.loc 1 886 0
 929 00fc 043093E5 		ldr	r3, [r3, #4]
 882:D:/Work/DeviceTester/amazon-freertos/lib/third_party/mcu_vendor/renesas/rz_mcu_boards/core_package/generate/system\r_devlink_wrapper.c ****             }
 930              		.loc 1 882 0
 931 0100 14209115 		ldrne	r2, [r1, #20]
 932 0104 08208213 		orrne	r2, r2, #8
 933 0108 14208115 		strne	r2, [r1, #20]
 884:D:/Work/DeviceTester/amazon-freertos/lib/third_party/mcu_vendor/renesas/rz_mcu_boards/core_package/generate/system\r_devlink_wrapper.c **** 
 934              		.loc 1 884 0
 935 010c 072085E0 		add	r2, r5, r7
 936 0110 188082E5 		str	r8, [r2, #24]
 886:D:/Work/DeviceTester/amazon-freertos/lib/third_party/mcu_vendor/renesas/rz_mcu_boards/core_package/generate/system\r_devlink_wrapper.c ****         }
 937              		.loc 1 886 0
 938 0114 33FF2FE1 		blx	r3
 939              	.LVL84:
 940              	.LBE81:
 941              	.LBE75:
 890:D:/Work/DeviceTester/amazon-freertos/lib/third_party/mcu_vendor/renesas/rz_mcu_boards/core_package/generate/system\r_devlink_wrapper.c ****     {
 942              		.loc 1 890 0
 943 0118 010070E3 		cmn	r0, #1
 944 011c CFFFFF1A 		bne	.L88
 945 0120 C7FFFFEA 		b	.L96
 946              	.L121:
 947              		.align	2
 948              	.L120:
 949 0124 00000000 		.word	.LANCHOR1
 950 0128 00000000 		.word	.LC0
 951 012c 00000000 		.word	.LANCHOR2
 952              		.cfi_endproc
 953              	.LFE22:
 955              		.section	.text.low_close,"ax",%progbits
 956              		.align	2
 957              		.global	low_close
 958              		.syntax unified
 959              		.arm
 960              		.fpu neon
 962              	low_close:
 963              	.LFB23:
 908:D:/Work/DeviceTester/amazon-freertos/lib/third_party/mcu_vendor/renesas/rz_mcu_boards/core_package/generate/system\r_devlink_wrapper.c **** /******************************************************************************
 909:D:/Work/DeviceTester/amazon-freertos/lib/third_party/mcu_vendor/renesas/rz_mcu_boards/core_package/generate/system\r_devlink_wrapper.c ****  End of function low_open
 910:D:/Work/DeviceTester/amazon-freertos/lib/third_party/mcu_vendor/renesas/rz_mcu_boards/core_package/generate/system\r_devlink_wrapper.c ****  ******************************************************************************/
 911:D:/Work/DeviceTester/amazon-freertos/lib/third_party/mcu_vendor/renesas/rz_mcu_boards/core_package/generate/system\r_devlink_wrapper.c **** 
 912:D:/Work/DeviceTester/amazon-freertos/lib/third_party/mcu_vendor/renesas/rz_mcu_boards/core_package/generate/system\r_devlink_wrapper.c **** /******************************************************************************
 913:D:/Work/DeviceTester/amazon-freertos/lib/third_party/mcu_vendor/renesas/rz_mcu_boards/core_package/generate/system\r_devlink_wrapper.c ****  * Function Name: low_close
 914:D:/Work/DeviceTester/amazon-freertos/lib/third_party/mcu_vendor/renesas/rz_mcu_boards/core_package/generate/system\r_devlink_wrapper.c ****  * Description  : ANSI library low level close function
 915:D:/Work/DeviceTester/amazon-freertos/lib/third_party/mcu_vendor/renesas/rz_mcu_boards/core_package/generate/system\r_devlink_wrapper.c ****  * Arguments    : IN  file_number - The file number to close
 916:D:/Work/DeviceTester/amazon-freertos/lib/third_party/mcu_vendor/renesas/rz_mcu_boards/core_package/generate/system\r_devlink_wrapper.c ****  * Return Value : 0 for success, -1 on error
 917:D:/Work/DeviceTester/amazon-freertos/lib/third_party/mcu_vendor/renesas/rz_mcu_boards/core_package/generate/system\r_devlink_wrapper.c ****  ******************************************************************************/
 918:D:/Work/DeviceTester/amazon-freertos/lib/third_party/mcu_vendor/renesas/rz_mcu_boards/core_package/generate/system\r_devlink_wrapper.c **** int_t low_close(int_t file_number)
 919:D:/Work/DeviceTester/amazon-freertos/lib/third_party/mcu_vendor/renesas/rz_mcu_boards/core_package/generate/system\r_devlink_wrapper.c **** {
 964              		.loc 1 919 0
 965              		.cfi_startproc
 966              		@ args = 0, pretend = 0, frame = 0
 967              		@ frame_needed = 0, uses_anonymous_args = 0
 968              		@ link register save eliminated.
 969              	.LVL85:
 920:D:/Work/DeviceTester/amazon-freertos/lib/third_party/mcu_vendor/renesas/rz_mcu_boards/core_package/generate/system\r_devlink_wrapper.c ****     return direct_close ((file_number));
 970              		.loc 1 920 0
 971 0000 FEFFFFEA 		b	direct_close
 972              	.LVL86:
 973              		.cfi_endproc
 974              	.LFE23:
 976              		.section	.text.low_read,"ax",%progbits
 977              		.align	2
 978              		.global	low_read
 979              		.syntax unified
 980              		.arm
 981              		.fpu neon
 983              	low_read:
 984              	.LFB24:
 921:D:/Work/DeviceTester/amazon-freertos/lib/third_party/mcu_vendor/renesas/rz_mcu_boards/core_package/generate/system\r_devlink_wrapper.c **** }
 922:D:/Work/DeviceTester/amazon-freertos/lib/third_party/mcu_vendor/renesas/rz_mcu_boards/core_package/generate/system\r_devlink_wrapper.c **** /******************************************************************************
 923:D:/Work/DeviceTester/amazon-freertos/lib/third_party/mcu_vendor/renesas/rz_mcu_boards/core_package/generate/system\r_devlink_wrapper.c ****  End of function low_close
 924:D:/Work/DeviceTester/amazon-freertos/lib/third_party/mcu_vendor/renesas/rz_mcu_boards/core_package/generate/system\r_devlink_wrapper.c ****  ******************************************************************************/
 925:D:/Work/DeviceTester/amazon-freertos/lib/third_party/mcu_vendor/renesas/rz_mcu_boards/core_package/generate/system\r_devlink_wrapper.c **** 
 926:D:/Work/DeviceTester/amazon-freertos/lib/third_party/mcu_vendor/renesas/rz_mcu_boards/core_package/generate/system\r_devlink_wrapper.c **** /******************************************************************************
 927:D:/Work/DeviceTester/amazon-freertos/lib/third_party/mcu_vendor/renesas/rz_mcu_boards/core_package/generate/system\r_devlink_wrapper.c ****  * Function Name: low_read
 928:D:/Work/DeviceTester/amazon-freertos/lib/third_party/mcu_vendor/renesas/rz_mcu_boards/core_package/generate/system\r_devlink_wrapper.c ****  * Description  : ANSI library low level read function
 929:D:/Work/DeviceTester/amazon-freertos/lib/third_party/mcu_vendor/renesas/rz_mcu_boards/core_package/generate/system\r_devlink_wrapper.c ****  * Arguments    : IN  file_number - The file index
 930:D:/Work/DeviceTester/amazon-freertos/lib/third_party/mcu_vendor/renesas/rz_mcu_boards/core_package/generate/system\r_devlink_wrapper.c ****  *                IN  pbyBuffer - The pointer to the buffer
 931:D:/Work/DeviceTester/amazon-freertos/lib/third_party/mcu_vendor/renesas/rz_mcu_boards/core_package/generate/system\r_devlink_wrapper.c ****  *                IN  iCount - The number of characters to read
 932:D:/Work/DeviceTester/amazon-freertos/lib/third_party/mcu_vendor/renesas/rz_mcu_boards/core_package/generate/system\r_devlink_wrapper.c ****  * Return Value : Number of characters read, -1 on error
 933:D:/Work/DeviceTester/amazon-freertos/lib/third_party/mcu_vendor/renesas/rz_mcu_boards/core_package/generate/system\r_devlink_wrapper.c ****  ******************************************************************************/
 934:D:/Work/DeviceTester/amazon-freertos/lib/third_party/mcu_vendor/renesas/rz_mcu_boards/core_package/generate/system\r_devlink_wrapper.c **** int_t low_read(int file_number, uint8_t *pbyBuffer, uint32_t iCount)
 935:D:/Work/DeviceTester/amazon-freertos/lib/third_party/mcu_vendor/renesas/rz_mcu_boards/core_package/generate/system\r_devlink_wrapper.c **** {
 985              		.loc 1 935 0
 986              		.cfi_startproc
 987              		@ args = 0, pretend = 0, frame = 0
 988              		@ frame_needed = 0, uses_anonymous_args = 0
 989              		@ link register save eliminated.
 990              	.LVL87:
 936:D:/Work/DeviceTester/amazon-freertos/lib/third_party/mcu_vendor/renesas/rz_mcu_boards/core_package/generate/system\r_devlink_wrapper.c ****     return direct_read ((file_number), pbyBuffer, iCount);
 991              		.loc 1 936 0
 992 0000 FEFFFFEA 		b	direct_read
 993              	.LVL88:
 994              		.cfi_endproc
 995              	.LFE24:
 997              		.section	.text.low_write,"ax",%progbits
 998              		.align	2
 999              		.global	low_write
 1000              		.syntax unified
 1001              		.arm
 1002              		.fpu neon
 1004              	low_write:
 1005              	.LFB25:
 937:D:/Work/DeviceTester/amazon-freertos/lib/third_party/mcu_vendor/renesas/rz_mcu_boards/core_package/generate/system\r_devlink_wrapper.c **** }
 938:D:/Work/DeviceTester/amazon-freertos/lib/third_party/mcu_vendor/renesas/rz_mcu_boards/core_package/generate/system\r_devlink_wrapper.c **** /******************************************************************************
 939:D:/Work/DeviceTester/amazon-freertos/lib/third_party/mcu_vendor/renesas/rz_mcu_boards/core_package/generate/system\r_devlink_wrapper.c ****  End of function low_read
 940:D:/Work/DeviceTester/amazon-freertos/lib/third_party/mcu_vendor/renesas/rz_mcu_boards/core_package/generate/system\r_devlink_wrapper.c ****  ******************************************************************************/
 941:D:/Work/DeviceTester/amazon-freertos/lib/third_party/mcu_vendor/renesas/rz_mcu_boards/core_package/generate/system\r_devlink_wrapper.c **** 
 942:D:/Work/DeviceTester/amazon-freertos/lib/third_party/mcu_vendor/renesas/rz_mcu_boards/core_package/generate/system\r_devlink_wrapper.c **** /******************************************************************************
 943:D:/Work/DeviceTester/amazon-freertos/lib/third_party/mcu_vendor/renesas/rz_mcu_boards/core_package/generate/system\r_devlink_wrapper.c ****  * Function Name: low_write
 944:D:/Work/DeviceTester/amazon-freertos/lib/third_party/mcu_vendor/renesas/rz_mcu_boards/core_package/generate/system\r_devlink_wrapper.c ****  * Description  : ANSI library low level read function
 945:D:/Work/DeviceTester/amazon-freertos/lib/third_party/mcu_vendor/renesas/rz_mcu_boards/core_package/generate/system\r_devlink_wrapper.c ****  * Arguments    : IN  file_number - The file index
 946:D:/Work/DeviceTester/amazon-freertos/lib/third_party/mcu_vendor/renesas/rz_mcu_boards/core_package/generate/system\r_devlink_wrapper.c ****  *                IN  pbyBuffer - The pointer to the buffer
 947:D:/Work/DeviceTester/amazon-freertos/lib/third_party/mcu_vendor/renesas/rz_mcu_boards/core_package/generate/system\r_devlink_wrapper.c ****  *                IN  iCount - The number of characters to write
 948:D:/Work/DeviceTester/amazon-freertos/lib/third_party/mcu_vendor/renesas/rz_mcu_boards/core_package/generate/system\r_devlink_wrapper.c ****  * Return Value : Number of characters written, -1 on error
 949:D:/Work/DeviceTester/amazon-freertos/lib/third_party/mcu_vendor/renesas/rz_mcu_boards/core_package/generate/system\r_devlink_wrapper.c ****  ******************************************************************************/
 950:D:/Work/DeviceTester/amazon-freertos/lib/third_party/mcu_vendor/renesas/rz_mcu_boards/core_package/generate/system\r_devlink_wrapper.c **** int_t low_write(int file_number, uint8_t *pbyBuffer, uint32_t iCount)
 951:D:/Work/DeviceTester/amazon-freertos/lib/third_party/mcu_vendor/renesas/rz_mcu_boards/core_package/generate/system\r_devlink_wrapper.c **** {
 1006              		.loc 1 951 0
 1007              		.cfi_startproc
 1008              		@ args = 0, pretend = 0, frame = 0
 1009              		@ frame_needed = 0, uses_anonymous_args = 0
 1010              		@ link register save eliminated.
 1011              	.LVL89:
 952:D:/Work/DeviceTester/amazon-freertos/lib/third_party/mcu_vendor/renesas/rz_mcu_boards/core_package/generate/system\r_devlink_wrapper.c ****     return (direct_write ((file_number), pbyBuffer, iCount));
 1012              		.loc 1 952 0
 1013 0000 FEFFFFEA 		b	direct_write
 1014              	.LVL90:
 1015              		.cfi_endproc
 1016              	.LFE25:
 1018              		.section	.text.control,"ax",%progbits
 1019              		.align	2
 1020              		.global	control
 1021              		.syntax unified
 1022              		.arm
 1023              		.fpu neon
 1025              	control:
 1026              	.LFB26:
 953:D:/Work/DeviceTester/amazon-freertos/lib/third_party/mcu_vendor/renesas/rz_mcu_boards/core_package/generate/system\r_devlink_wrapper.c **** }
 954:D:/Work/DeviceTester/amazon-freertos/lib/third_party/mcu_vendor/renesas/rz_mcu_boards/core_package/generate/system\r_devlink_wrapper.c **** /******************************************************************************
 955:D:/Work/DeviceTester/amazon-freertos/lib/third_party/mcu_vendor/renesas/rz_mcu_boards/core_package/generate/system\r_devlink_wrapper.c ****  End of function low_write
 956:D:/Work/DeviceTester/amazon-freertos/lib/third_party/mcu_vendor/renesas/rz_mcu_boards/core_package/generate/system\r_devlink_wrapper.c ****  ******************************************************************************/
 957:D:/Work/DeviceTester/amazon-freertos/lib/third_party/mcu_vendor/renesas/rz_mcu_boards/core_package/generate/system\r_devlink_wrapper.c **** 
 958:D:/Work/DeviceTester/amazon-freertos/lib/third_party/mcu_vendor/renesas/rz_mcu_boards/core_package/generate/system\r_devlink_wrapper.c **** /******************************************************************************
 959:D:/Work/DeviceTester/amazon-freertos/lib/third_party/mcu_vendor/renesas/rz_mcu_boards/core_package/generate/system\r_devlink_wrapper.c ****  * Function Name: control (NOT ANSI)
 960:D:/Work/DeviceTester/amazon-freertos/lib/third_party/mcu_vendor/renesas/rz_mcu_boards/core_package/generate/system\r_devlink_wrapper.c ****  * Description  : Function to perform a device control provided by a control code.
 961:D:/Work/DeviceTester/amazon-freertos/lib/third_party/mcu_vendor/renesas/rz_mcu_boards/core_package/generate/system\r_devlink_wrapper.c ****  *                This is not a standard ANSI function. It is provided as an extension
 962:D:/Work/DeviceTester/amazon-freertos/lib/third_party/mcu_vendor/renesas/rz_mcu_boards/core_package/generate/system\r_devlink_wrapper.c ****  *                to the ANSI architecture.
 963:D:/Work/DeviceTester/amazon-freertos/lib/third_party/mcu_vendor/renesas/rz_mcu_boards/core_package/generate/system\r_devlink_wrapper.c ****  * Arguments    : IN  file_number - The file number to control
 964:D:/Work/DeviceTester/amazon-freertos/lib/third_party/mcu_vendor/renesas/rz_mcu_boards/core_package/generate/system\r_devlink_wrapper.c ****  *                IN  ctlCode - The device specific control code
 965:D:/Work/DeviceTester/amazon-freertos/lib/third_party/mcu_vendor/renesas/rz_mcu_boards/core_package/generate/system\r_devlink_wrapper.c ****  *                IN  pCtlStruct - Pointer to the control structure
 966:D:/Work/DeviceTester/amazon-freertos/lib/third_party/mcu_vendor/renesas/rz_mcu_boards/core_package/generate/system\r_devlink_wrapper.c ****  * Return Value : 0 for success -1 on error
 967:D:/Work/DeviceTester/amazon-freertos/lib/third_party/mcu_vendor/renesas/rz_mcu_boards/core_package/generate/system\r_devlink_wrapper.c ****  ******************************************************************************/
 968:D:/Work/DeviceTester/amazon-freertos/lib/third_party/mcu_vendor/renesas/rz_mcu_boards/core_package/generate/system\r_devlink_wrapper.c **** int_t control(int file_number, uint32_t ctlCode, void *pCtlStruct)
 969:D:/Work/DeviceTester/amazon-freertos/lib/third_party/mcu_vendor/renesas/rz_mcu_boards/core_package/generate/system\r_devlink_wrapper.c **** {
 1027              		.loc 1 969 0
 1028              		.cfi_startproc
 1029              		@ args = 0, pretend = 0, frame = 0
 1030              		@ frame_needed = 0, uses_anonymous_args = 0
 1031              		@ link register save eliminated.
 1032              	.LVL91:
 970:D:/Work/DeviceTester/amazon-freertos/lib/third_party/mcu_vendor/renesas/rz_mcu_boards/core_package/generate/system\r_devlink_wrapper.c ****     return (direct_control ((file_number), ctlCode, pCtlStruct));
 1033              		.loc 1 970 0
 1034 0000 FEFFFFEA 		b	direct_control
 1035              	.LVL92:
 1036              		.cfi_endproc
 1037              	.LFE26:
 1039              		.section	.text.get_version,"ax",%progbits
 1040              		.align	2
 1041              		.global	get_version
 1042              		.syntax unified
 1043              		.arm
 1044              		.fpu neon
 1046              	get_version:
 1047              	.LFB27:
 971:D:/Work/DeviceTester/amazon-freertos/lib/third_party/mcu_vendor/renesas/rz_mcu_boards/core_package/generate/system\r_devlink_wrapper.c **** }
 972:D:/Work/DeviceTester/amazon-freertos/lib/third_party/mcu_vendor/renesas/rz_mcu_boards/core_package/generate/system\r_devlink_wrapper.c **** /******************************************************************************
 973:D:/Work/DeviceTester/amazon-freertos/lib/third_party/mcu_vendor/renesas/rz_mcu_boards/core_package/generate/system\r_devlink_wrapper.c ****  End of function  control
 974:D:/Work/DeviceTester/amazon-freertos/lib/third_party/mcu_vendor/renesas/rz_mcu_boards/core_package/generate/system\r_devlink_wrapper.c ****  ******************************************************************************/
 975:D:/Work/DeviceTester/amazon-freertos/lib/third_party/mcu_vendor/renesas/rz_mcu_boards/core_package/generate/system\r_devlink_wrapper.c **** 
 976:D:/Work/DeviceTester/amazon-freertos/lib/third_party/mcu_vendor/renesas/rz_mcu_boards/core_package/generate/system\r_devlink_wrapper.c **** /******************************************************************************
 977:D:/Work/DeviceTester/amazon-freertos/lib/third_party/mcu_vendor/renesas/rz_mcu_boards/core_package/generate/system\r_devlink_wrapper.c ****  * Function Name: get_version (NOT ANSI)
 978:D:/Work/DeviceTester/amazon-freertos/lib/third_party/mcu_vendor/renesas/rz_mcu_boards/core_package/generate/system\r_devlink_wrapper.c ****  * Description  : Function to retrieve the driver version number.
 979:D:/Work/DeviceTester/amazon-freertos/lib/third_party/mcu_vendor/renesas/rz_mcu_boards/core_package/generate/system\r_devlink_wrapper.c ****  *                This is not a standard ANSI function. It is provided as an extension
 980:D:/Work/DeviceTester/amazon-freertos/lib/third_party/mcu_vendor/renesas/rz_mcu_boards/core_package/generate/system\r_devlink_wrapper.c ****  *                to the ANSI architecture.
 981:D:/Work/DeviceTester/amazon-freertos/lib/third_party/mcu_vendor/renesas/rz_mcu_boards/core_package/generate/system\r_devlink_wrapper.c ****  * Arguments    : IN  file_number - The file number to control
 982:D:/Work/DeviceTester/amazon-freertos/lib/third_party/mcu_vendor/renesas/rz_mcu_boards/core_package/generate/system\r_devlink_wrapper.c ****  *                IN  pCtlStruct - Pointer to the version_info structure
 983:D:/Work/DeviceTester/amazon-freertos/lib/third_party/mcu_vendor/renesas/rz_mcu_boards/core_package/generate/system\r_devlink_wrapper.c ****  * Return Value : 0 for success -1 on error
 984:D:/Work/DeviceTester/amazon-freertos/lib/third_party/mcu_vendor/renesas/rz_mcu_boards/core_package/generate/system\r_devlink_wrapper.c ****  ******************************************************************************/
 985:D:/Work/DeviceTester/amazon-freertos/lib/third_party/mcu_vendor/renesas/rz_mcu_boards/core_package/generate/system\r_devlink_wrapper.c **** int_t get_version(const char *p_driver_name, st_ver_info_t *info)
 986:D:/Work/DeviceTester/amazon-freertos/lib/third_party/mcu_vendor/renesas/rz_mcu_boards/core_package/generate/system\r_devlink_wrapper.c **** {
 1048              		.loc 1 986 0
 1049              		.cfi_startproc
 1050              		@ args = 0, pretend = 0, frame = 0
 1051              		@ frame_needed = 0, uses_anonymous_args = 0
 1052              		@ link register save eliminated.
 1053              	.LVL93:
 987:D:/Work/DeviceTester/amazon-freertos/lib/third_party/mcu_vendor/renesas/rz_mcu_boards/core_package/generate/system\r_devlink_wrapper.c ****     return (direct_get_version (p_driver_name, info));
 1054              		.loc 1 987 0
 1055 0000 FEFFFFEA 		b	direct_get_version
 1056              	.LVL94:
 1057              		.cfi_endproc
 1058              	.LFE27:
 1060              		.section	.text.low_lseek,"ax",%progbits
 1061              		.align	2
 1062              		.global	low_lseek
 1063              		.syntax unified
 1064              		.arm
 1065              		.fpu neon
 1067              	low_lseek:
 1068              	.LFB28:
 988:D:/Work/DeviceTester/amazon-freertos/lib/third_party/mcu_vendor/renesas/rz_mcu_boards/core_package/generate/system\r_devlink_wrapper.c **** }
 989:D:/Work/DeviceTester/amazon-freertos/lib/third_party/mcu_vendor/renesas/rz_mcu_boards/core_package/generate/system\r_devlink_wrapper.c **** /******************************************************************************
 990:D:/Work/DeviceTester/amazon-freertos/lib/third_party/mcu_vendor/renesas/rz_mcu_boards/core_package/generate/system\r_devlink_wrapper.c ****  End of function  get_version
 991:D:/Work/DeviceTester/amazon-freertos/lib/third_party/mcu_vendor/renesas/rz_mcu_boards/core_package/generate/system\r_devlink_wrapper.c ****  ******************************************************************************/
 992:D:/Work/DeviceTester/amazon-freertos/lib/third_party/mcu_vendor/renesas/rz_mcu_boards/core_package/generate/system\r_devlink_wrapper.c **** 
 993:D:/Work/DeviceTester/amazon-freertos/lib/third_party/mcu_vendor/renesas/rz_mcu_boards/core_package/generate/system\r_devlink_wrapper.c **** /******************************************************************************
 994:D:/Work/DeviceTester/amazon-freertos/lib/third_party/mcu_vendor/renesas/rz_mcu_boards/core_package/generate/system\r_devlink_wrapper.c ****  * Function Name: low_lseek
 995:D:/Work/DeviceTester/amazon-freertos/lib/third_party/mcu_vendor/renesas/rz_mcu_boards/core_package/generate/system\r_devlink_wrapper.c ****  * Description  : ANSI library low level seek function
 996:D:/Work/DeviceTester/amazon-freertos/lib/third_party/mcu_vendor/renesas/rz_mcu_boards/core_package/generate/system\r_devlink_wrapper.c ****  * Arguments    : IN  file_number - The file index
 997:D:/Work/DeviceTester/amazon-freertos/lib/third_party/mcu_vendor/renesas/rz_mcu_boards/core_package/generate/system\r_devlink_wrapper.c ****  *                IN  lOffset - The offset
 998:D:/Work/DeviceTester/amazon-freertos/lib/third_party/mcu_vendor/renesas/rz_mcu_boards/core_package/generate/system\r_devlink_wrapper.c ****  *                IN  iBase - The base
 999:D:/Work/DeviceTester/amazon-freertos/lib/third_party/mcu_vendor/renesas/rz_mcu_boards/core_package/generate/system\r_devlink_wrapper.c ****  * Return Value : The offset in bytes to the current file position or -1 on error
1000:D:/Work/DeviceTester/amazon-freertos/lib/third_party/mcu_vendor/renesas/rz_mcu_boards/core_package/generate/system\r_devlink_wrapper.c ****  ******************************************************************************/
1001:D:/Work/DeviceTester/amazon-freertos/lib/third_party/mcu_vendor/renesas/rz_mcu_boards/core_package/generate/system\r_devlink_wrapper.c **** int_t low_lseek(int file_number, uint32_t lOffset, int iBase)
1002:D:/Work/DeviceTester/amazon-freertos/lib/third_party/mcu_vendor/renesas/rz_mcu_boards/core_package/generate/system\r_devlink_wrapper.c **** {
 1069              		.loc 1 1002 0
 1070              		.cfi_startproc
 1071              		@ args = 0, pretend = 0, frame = 16
 1072              		@ frame_needed = 0, uses_anonymous_args = 0
 1073              	.LVL95:
1003:D:/Work/DeviceTester/amazon-freertos/lib/third_party/mcu_vendor/renesas/rz_mcu_boards/core_package/generate/system\r_devlink_wrapper.c ****     /* File number range check */
1004:D:/Work/DeviceTester/amazon-freertos/lib/third_party/mcu_vendor/renesas/rz_mcu_boards/core_package/generate/system\r_devlink_wrapper.c ****     if ((file_number < 0) || ((FOPEN_MAX - 1) < file_number))
 1074              		.loc 1 1004 0
 1075 0000 130050E3 		cmp	r0, #19
1002:D:/Work/DeviceTester/amazon-freertos/lib/third_party/mcu_vendor/renesas/rz_mcu_boards/core_package/generate/system\r_devlink_wrapper.c ****     /* File number range check */
 1076              		.loc 1 1002 0
 1077 0004 1F402DE9 		push	{r0, r1, r2, r3, r4, lr}
 1078              		.cfi_def_cfa_offset 24
 1079              		.cfi_offset 4, -8
 1080              		.cfi_offset 14, -4
 1081              		.loc 1 1004 0
 1082 0008 1400008A 		bhi	.L131
1005:D:/Work/DeviceTester/amazon-freertos/lib/third_party/mcu_vendor/renesas/rz_mcu_boards/core_package/generate/system\r_devlink_wrapper.c ****     {
1006:D:/Work/DeviceTester/amazon-freertos/lib/third_party/mcu_vendor/renesas/rz_mcu_boards/core_package/generate/system\r_devlink_wrapper.c ****         return (-1L);
1007:D:/Work/DeviceTester/amazon-freertos/lib/third_party/mcu_vendor/renesas/rz_mcu_boards/core_package/generate/system\r_devlink_wrapper.c ****     }
1008:D:/Work/DeviceTester/amazon-freertos/lib/third_party/mcu_vendor/renesas/rz_mcu_boards/core_package/generate/system\r_devlink_wrapper.c **** 
1009:D:/Work/DeviceTester/amazon-freertos/lib/third_party/mcu_vendor/renesas/rz_mcu_boards/core_package/generate/system\r_devlink_wrapper.c ****     /* File open check */
1010:D:/Work/DeviceTester/amazon-freertos/lib/third_party/mcu_vendor/renesas/rz_mcu_boards/core_package/generate/system\r_devlink_wrapper.c ****     if (gs_filestream[file_number].p_device_driver)
 1083              		.loc 1 1010 0
 1084 000c 54309FE5 		ldr	r3, .L136
 1085 0010 80C293E7 		ldr	ip, [r3, r0, lsl #5]
 1086 0014 00005CE3 		cmp	ip, #0
 1087 0018 1000000A 		beq	.L131
 1088              	.LVL96:
 1089              	.LBB82:
1011:D:/Work/DeviceTester/amazon-freertos/lib/third_party/mcu_vendor/renesas/rz_mcu_boards/core_package/generate/system\r_devlink_wrapper.c ****     {
1012:D:/Work/DeviceTester/amazon-freertos/lib/third_party/mcu_vendor/renesas/rz_mcu_boards/core_package/generate/system\r_devlink_wrapper.c ****         st_stream_ptr_t pstream = &gs_filestream[file_number];
1013:D:/Work/DeviceTester/amazon-freertos/lib/third_party/mcu_vendor/renesas/rz_mcu_boards/core_package/generate/system\r_devlink_wrapper.c ****         FILESEEK file_seek;
1014:D:/Work/DeviceTester/amazon-freertos/lib/third_party/mcu_vendor/renesas/rz_mcu_boards/core_package/generate/system\r_devlink_wrapper.c ****         file_seek.lOffset = (signed) lOffset;
1015:D:/Work/DeviceTester/amazon-freertos/lib/third_party/mcu_vendor/renesas/rz_mcu_boards/core_package/generate/system\r_devlink_wrapper.c ****         file_seek.iBase = iBase;
 1090              		.loc 1 1015 0
 1091 001c 06008DE9 		stmib	sp, {r1, r2}
1016:D:/Work/DeviceTester/amazon-freertos/lib/third_party/mcu_vendor/renesas/rz_mcu_boards/core_package/generate/system\r_devlink_wrapper.c ****         file_seek.lResult = 0L;
 1092              		.loc 1 1016 0
 1093 0020 0020A0E3 		mov	r2, #0
 1094              	.LVL97:
 1095 0024 0C208DE5 		str	r2, [sp, #12]
1017:D:/Work/DeviceTester/amazon-freertos/lib/third_party/mcu_vendor/renesas/rz_mcu_boards/core_package/generate/system\r_devlink_wrapper.c ****         if ((pstream->p_device_driver->control (pstream, CTL_FILE_SEEK, &file_seek)) && (0L == file
 1096              		.loc 1 1017 0
 1097 0028 800283E0 		add	r0, r3, r0, lsl #5
 1098              	.LVL98:
 1099 002c 14409CE5 		ldr	r4, [ip, #20]
 1100 0030 04208DE2 		add	r2, sp, #4
 1101 0034 30109FE5 		ldr	r1, .L136+4
 1102              	.LVL99:
 1103 0038 34FF2FE1 		blx	r4
 1104              	.LVL100:
 1105 003c 000050E3 		cmp	r0, #0
 1106 0040 0300000A 		beq	.L129
 1107              		.loc 1 1017 0 is_stmt 0 discriminator 1
 1108 0044 0C309DE5 		ldr	r3, [sp, #12]
 1109 0048 000053E3 		cmp	r3, #0
1018:D:/Work/DeviceTester/amazon-freertos/lib/third_party/mcu_vendor/renesas/rz_mcu_boards/core_package/generate/system\r_devlink_wrapper.c ****         {
1019:D:/Work/DeviceTester/amazon-freertos/lib/third_party/mcu_vendor/renesas/rz_mcu_boards/core_package/generate/system\r_devlink_wrapper.c ****             file_seek.lResult = (-1L );
 1110              		.loc 1 1019 0 is_stmt 1 discriminator 1
 1111 004c 0030E003 		mvneq	r3, #0
 1112 0050 0C308D05 		streq	r3, [sp, #12]
 1113              	.L129:
1020:D:/Work/DeviceTester/amazon-freertos/lib/third_party/mcu_vendor/renesas/rz_mcu_boards/core_package/generate/system\r_devlink_wrapper.c ****         }
1021:D:/Work/DeviceTester/amazon-freertos/lib/third_party/mcu_vendor/renesas/rz_mcu_boards/core_package/generate/system\r_devlink_wrapper.c ****         return file_seek.lResult;
 1114              		.loc 1 1021 0
 1115 0054 0C009DE5 		ldr	r0, [sp, #12]
 1116              	.LVL101:
 1117              	.L127:
 1118              	.LBE82:
1022:D:/Work/DeviceTester/amazon-freertos/lib/third_party/mcu_vendor/renesas/rz_mcu_boards/core_package/generate/system\r_devlink_wrapper.c ****     }
1023:D:/Work/DeviceTester/amazon-freertos/lib/third_party/mcu_vendor/renesas/rz_mcu_boards/core_package/generate/system\r_devlink_wrapper.c ****     return -1L;
1024:D:/Work/DeviceTester/amazon-freertos/lib/third_party/mcu_vendor/renesas/rz_mcu_boards/core_package/generate/system\r_devlink_wrapper.c **** }
 1119              		.loc 1 1024 0
 1120 0058 10D08DE2 		add	sp, sp, #16
 1121              		.cfi_remember_state
 1122              		.cfi_def_cfa_offset 8
 1123              		@ sp needed
 1124 005c 1080BDE8 		pop	{r4, pc}
 1125              	.LVL102:
 1126              	.L131:
 1127              		.cfi_restore_state
1006:D:/Work/DeviceTester/amazon-freertos/lib/third_party/mcu_vendor/renesas/rz_mcu_boards/core_package/generate/system\r_devlink_wrapper.c ****     }
 1128              		.loc 1 1006 0
 1129 0060 0000E0E3 		mvn	r0, #0
 1130              	.LVL103:
 1131 0064 FBFFFFEA 		b	.L127
 1132              	.L137:
 1133              		.align	2
 1134              	.L136:
 1135 0068 00000000 		.word	.LANCHOR1
 1136 006c 00000F27 		.word	655294464
 1137              		.cfi_endproc
 1138              	.LFE28:
 1140              		.section	.text.R_DEVLINK_Init,"ax",%progbits
 1141              		.align	2
 1142              		.global	R_DEVLINK_Init
 1143              		.syntax unified
 1144              		.arm
 1145              		.fpu neon
 1147              	R_DEVLINK_Init:
 1148              	.LFB29:
1025:D:/Work/DeviceTester/amazon-freertos/lib/third_party/mcu_vendor/renesas/rz_mcu_boards/core_package/generate/system\r_devlink_wrapper.c **** /******************************************************************************
1026:D:/Work/DeviceTester/amazon-freertos/lib/third_party/mcu_vendor/renesas/rz_mcu_boards/core_package/generate/system\r_devlink_wrapper.c ****  End of function low_lseek
1027:D:/Work/DeviceTester/amazon-freertos/lib/third_party/mcu_vendor/renesas/rz_mcu_boards/core_package/generate/system\r_devlink_wrapper.c ****  ******************************************************************************/
1028:D:/Work/DeviceTester/amazon-freertos/lib/third_party/mcu_vendor/renesas/rz_mcu_boards/core_package/generate/system\r_devlink_wrapper.c **** 
1029:D:/Work/DeviceTester/amazon-freertos/lib/third_party/mcu_vendor/renesas/rz_mcu_boards/core_package/generate/system\r_devlink_wrapper.c **** #endif /* R_USE_ANSI_STDIO_MODE_CFG */
1030:D:/Work/DeviceTester/amazon-freertos/lib/third_party/mcu_vendor/renesas/rz_mcu_boards/core_package/generate/system\r_devlink_wrapper.c **** 
1031:D:/Work/DeviceTester/amazon-freertos/lib/third_party/mcu_vendor/renesas/rz_mcu_boards/core_package/generate/system\r_devlink_wrapper.c **** /**************************************************************************************************
1032:D:/Work/DeviceTester/amazon-freertos/lib/third_party/mcu_vendor/renesas/rz_mcu_boards/core_package/generate/system\r_devlink_wrapper.c ****  * Function Name: R_DEVLINK_Init
1033:D:/Work/DeviceTester/amazon-freertos/lib/third_party/mcu_vendor/renesas/rz_mcu_boards/core_package/generate/system\r_devlink_wrapper.c ****  * Description  : Initialisation function
1034:D:/Work/DeviceTester/amazon-freertos/lib/third_party/mcu_vendor/renesas/rz_mcu_boards/core_package/generate/system\r_devlink_wrapper.c ****  * Arguments    : none
1035:D:/Work/DeviceTester/amazon-freertos/lib/third_party/mcu_vendor/renesas/rz_mcu_boards/core_package/generate/system\r_devlink_wrapper.c ****  * Return Value : none
1036:D:/Work/DeviceTester/amazon-freertos/lib/third_party/mcu_vendor/renesas/rz_mcu_boards/core_package/generate/system\r_devlink_wrapper.c ****  **************************************************************************************************
1037:D:/Work/DeviceTester/amazon-freertos/lib/third_party/mcu_vendor/renesas/rz_mcu_boards/core_package/generate/system\r_devlink_wrapper.c **** void R_DEVLINK_Init(void)
1038:D:/Work/DeviceTester/amazon-freertos/lib/third_party/mcu_vendor/renesas/rz_mcu_boards/core_package/generate/system\r_devlink_wrapper.c **** {
 1149              		.loc 1 1038 0
 1150              		.cfi_startproc
 1151              		@ args = 0, pretend = 0, frame = 0
 1152              		@ frame_needed = 0, uses_anonymous_args = 0
 1153              		@ link register save eliminated.
