   1              		.cpu cortex-a9
   2              		.eabi_attribute 28, 1
   3              		.eabi_attribute 20, 1
   4              		.eabi_attribute 21, 1
   5              		.eabi_attribute 23, 3
   6              		.eabi_attribute 24, 1
   7              		.eabi_attribute 25, 1
   8              		.eabi_attribute 26, 1
   9              		.eabi_attribute 30, 4
  10              		.eabi_attribute 34, 0
  11              		.eabi_attribute 18, 4
  12              		.file	"jsmn.c"
  13              		.text
  14              	.Ltext0:
  15              		.cfi_sections	.debug_frame
  16              		.section	.text.jsmn_alloc_token.isra.0,"ax",%progbits
  17              		.align	2
  18              		.syntax unified
  19              		.arm
  20              		.fpu neon
  22              	jsmn_alloc_token.isra.0:
  23              	.LFB6:
  24              		.file 1 "D:/Work/DeviceTester/amazon-freertos/lib/third_party/jsmn/jsmn.c"
   1:D:/Work/DeviceTester/amazon-freertos/lib/third_party/jsmn\jsmn.c **** #include "jsmn.h"
   2:D:/Work/DeviceTester/amazon-freertos/lib/third_party/jsmn\jsmn.c **** 
   3:D:/Work/DeviceTester/amazon-freertos/lib/third_party/jsmn\jsmn.c **** /**
   4:D:/Work/DeviceTester/amazon-freertos/lib/third_party/jsmn\jsmn.c ****  * Allocates a fresh unused token from the token pull.
   5:D:/Work/DeviceTester/amazon-freertos/lib/third_party/jsmn\jsmn.c ****  */
   6:D:/Work/DeviceTester/amazon-freertos/lib/third_party/jsmn\jsmn.c **** static jsmntok_t *jsmn_alloc_token(jsmn_parser *parser,
  25              		.loc 1 6 0
  26              		.cfi_startproc
  27              		@ args = 0, pretend = 0, frame = 0
  28              		@ frame_needed = 0, uses_anonymous_args = 0
  29              		@ link register save eliminated.
  30              	.LVL0:
   7:D:/Work/DeviceTester/amazon-freertos/lib/third_party/jsmn\jsmn.c ****         jsmntok_t *tokens, size_t num_tokens) {
   8:D:/Work/DeviceTester/amazon-freertos/lib/third_party/jsmn\jsmn.c ****     jsmntok_t *tok;
   9:D:/Work/DeviceTester/amazon-freertos/lib/third_party/jsmn\jsmn.c ****     if (parser->toknext >= num_tokens) {
  31              		.loc 1 9 0
  32 0000 003090E5 		ldr	r3, [r0]
  33 0004 020053E1 		cmp	r3, r2
  10:D:/Work/DeviceTester/amazon-freertos/lib/third_party/jsmn\jsmn.c ****         return NULL;
  11:D:/Work/DeviceTester/amazon-freertos/lib/third_party/jsmn\jsmn.c ****     }
  12:D:/Work/DeviceTester/amazon-freertos/lib/third_party/jsmn\jsmn.c ****     tok = &tokens[parser->toknext++];
  34              		.loc 1 12 0
  35 0008 01208332 		addcc	r2, r3, #1
  36              	.LVL1:
  37 000c 00208035 		strcc	r2, [r0]
  38 0010 1400A033 		movcc	r0, #20
  39 0014 90132030 		mlacc	r0, r0, r3, r1
  40              	.LVL2:
  13:D:/Work/DeviceTester/amazon-freertos/lib/third_party/jsmn\jsmn.c ****     tok->start = tok->end = -1;
  41              		.loc 1 13 0
  42 0018 0030E033 		mvncc	r3, #0
  14:D:/Work/DeviceTester/amazon-freertos/lib/third_party/jsmn\jsmn.c ****     tok->size = 0;
  43              		.loc 1 14 0
  44 001c 0020A033 		movcc	r2, #0
  10:D:/Work/DeviceTester/amazon-freertos/lib/third_party/jsmn\jsmn.c ****         return NULL;
  45              		.loc 1 10 0
  46 0020 0000A023 		movcs	r0, #0
  47              	.LVL3:
  13:D:/Work/DeviceTester/amazon-freertos/lib/third_party/jsmn\jsmn.c ****     tok->start = tok->end = -1;
  48              		.loc 1 13 0
  49 0024 08308035 		strcc	r3, [r0, #8]
  50 0028 04308035 		strcc	r3, [r0, #4]
  51              		.loc 1 14 0
  52 002c 0C208035 		strcc	r2, [r0, #12]
  15:D:/Work/DeviceTester/amazon-freertos/lib/third_party/jsmn\jsmn.c **** #ifdef JSMN_PARENT_LINKS
  16:D:/Work/DeviceTester/amazon-freertos/lib/third_party/jsmn\jsmn.c ****     tok->parent = -1;
  53              		.loc 1 16 0
  54 0030 10308035 		strcc	r3, [r0, #16]
  17:D:/Work/DeviceTester/amazon-freertos/lib/third_party/jsmn\jsmn.c **** #endif
  18:D:/Work/DeviceTester/amazon-freertos/lib/third_party/jsmn\jsmn.c ****     return tok;
  19:D:/Work/DeviceTester/amazon-freertos/lib/third_party/jsmn\jsmn.c **** }
  55              		.loc 1 19 0
  56 0034 1EFF2FE1 		bx	lr
  57              		.cfi_endproc
  58              	.LFE6:
  60              		.section	.text.jsmn_parse,"ax",%progbits
  61              		.align	2
  62              		.global	jsmn_parse
  63              		.syntax unified
  64              		.arm
  65              		.fpu neon
  67              	jsmn_parse:
  68              	.LFB4:
  20:D:/Work/DeviceTester/amazon-freertos/lib/third_party/jsmn\jsmn.c **** 
  21:D:/Work/DeviceTester/amazon-freertos/lib/third_party/jsmn\jsmn.c **** /**
  22:D:/Work/DeviceTester/amazon-freertos/lib/third_party/jsmn\jsmn.c ****  * Fills token type and boundaries.
  23:D:/Work/DeviceTester/amazon-freertos/lib/third_party/jsmn\jsmn.c ****  */
  24:D:/Work/DeviceTester/amazon-freertos/lib/third_party/jsmn\jsmn.c **** static void jsmn_fill_token(jsmntok_t *token, jsmntype_t type,
  25:D:/Work/DeviceTester/amazon-freertos/lib/third_party/jsmn\jsmn.c ****                             int start, int end) {
  26:D:/Work/DeviceTester/amazon-freertos/lib/third_party/jsmn\jsmn.c ****     token->type = type;
  27:D:/Work/DeviceTester/amazon-freertos/lib/third_party/jsmn\jsmn.c ****     token->start = start;
  28:D:/Work/DeviceTester/amazon-freertos/lib/third_party/jsmn\jsmn.c ****     token->end = end;
  29:D:/Work/DeviceTester/amazon-freertos/lib/third_party/jsmn\jsmn.c ****     token->size = 0;
  30:D:/Work/DeviceTester/amazon-freertos/lib/third_party/jsmn\jsmn.c **** }
  31:D:/Work/DeviceTester/amazon-freertos/lib/third_party/jsmn\jsmn.c **** 
  32:D:/Work/DeviceTester/amazon-freertos/lib/third_party/jsmn\jsmn.c **** /**
  33:D:/Work/DeviceTester/amazon-freertos/lib/third_party/jsmn\jsmn.c ****  * Fills next available token with JSON primitive.
  34:D:/Work/DeviceTester/amazon-freertos/lib/third_party/jsmn\jsmn.c ****  */
  35:D:/Work/DeviceTester/amazon-freertos/lib/third_party/jsmn\jsmn.c **** static int jsmn_parse_primitive(jsmn_parser *parser, const char *js,
  36:D:/Work/DeviceTester/amazon-freertos/lib/third_party/jsmn\jsmn.c ****         size_t len, jsmntok_t *tokens, size_t num_tokens) {
  37:D:/Work/DeviceTester/amazon-freertos/lib/third_party/jsmn\jsmn.c ****     jsmntok_t *token;
  38:D:/Work/DeviceTester/amazon-freertos/lib/third_party/jsmn\jsmn.c ****     int start;
  39:D:/Work/DeviceTester/amazon-freertos/lib/third_party/jsmn\jsmn.c **** 
  40:D:/Work/DeviceTester/amazon-freertos/lib/third_party/jsmn\jsmn.c ****     start = parser->pos;
  41:D:/Work/DeviceTester/amazon-freertos/lib/third_party/jsmn\jsmn.c **** 
  42:D:/Work/DeviceTester/amazon-freertos/lib/third_party/jsmn\jsmn.c ****     for (; parser->pos < len && js[parser->pos] != '\0'; parser->pos++) {
  43:D:/Work/DeviceTester/amazon-freertos/lib/third_party/jsmn\jsmn.c ****         switch (js[parser->pos]) {
  44:D:/Work/DeviceTester/amazon-freertos/lib/third_party/jsmn\jsmn.c **** #ifndef JSMN_STRICT
  45:D:/Work/DeviceTester/amazon-freertos/lib/third_party/jsmn\jsmn.c ****             /* In strict mode primitive must be followed by "," or "}" or "]" */
  46:D:/Work/DeviceTester/amazon-freertos/lib/third_party/jsmn\jsmn.c ****             case ':':
  47:D:/Work/DeviceTester/amazon-freertos/lib/third_party/jsmn\jsmn.c **** #endif
  48:D:/Work/DeviceTester/amazon-freertos/lib/third_party/jsmn\jsmn.c ****             case '\t' : case '\r' : case '\n' : case ' ' :
  49:D:/Work/DeviceTester/amazon-freertos/lib/third_party/jsmn\jsmn.c ****             case ','  : case ']'  : case '}' :
  50:D:/Work/DeviceTester/amazon-freertos/lib/third_party/jsmn\jsmn.c ****                 goto found;
  51:D:/Work/DeviceTester/amazon-freertos/lib/third_party/jsmn\jsmn.c ****         }
  52:D:/Work/DeviceTester/amazon-freertos/lib/third_party/jsmn\jsmn.c ****         if (js[parser->pos] < 32 || js[parser->pos] >= 127) {
  53:D:/Work/DeviceTester/amazon-freertos/lib/third_party/jsmn\jsmn.c ****             parser->pos = start;
  54:D:/Work/DeviceTester/amazon-freertos/lib/third_party/jsmn\jsmn.c ****             return JSMN_ERROR_INVAL;
  55:D:/Work/DeviceTester/amazon-freertos/lib/third_party/jsmn\jsmn.c ****         }
  56:D:/Work/DeviceTester/amazon-freertos/lib/third_party/jsmn\jsmn.c ****     }
  57:D:/Work/DeviceTester/amazon-freertos/lib/third_party/jsmn\jsmn.c **** #ifdef JSMN_STRICT
  58:D:/Work/DeviceTester/amazon-freertos/lib/third_party/jsmn\jsmn.c ****     /* In strict mode primitive must be followed by a comma/object/array */
  59:D:/Work/DeviceTester/amazon-freertos/lib/third_party/jsmn\jsmn.c ****     parser->pos = start;
  60:D:/Work/DeviceTester/amazon-freertos/lib/third_party/jsmn\jsmn.c ****     return JSMN_ERROR_PART;
  61:D:/Work/DeviceTester/amazon-freertos/lib/third_party/jsmn\jsmn.c **** #endif
  62:D:/Work/DeviceTester/amazon-freertos/lib/third_party/jsmn\jsmn.c **** 
  63:D:/Work/DeviceTester/amazon-freertos/lib/third_party/jsmn\jsmn.c **** found:
  64:D:/Work/DeviceTester/amazon-freertos/lib/third_party/jsmn\jsmn.c ****     if (tokens == NULL) {
  65:D:/Work/DeviceTester/amazon-freertos/lib/third_party/jsmn\jsmn.c ****         parser->pos--;
  66:D:/Work/DeviceTester/amazon-freertos/lib/third_party/jsmn\jsmn.c ****         return 0;
  67:D:/Work/DeviceTester/amazon-freertos/lib/third_party/jsmn\jsmn.c ****     }
  68:D:/Work/DeviceTester/amazon-freertos/lib/third_party/jsmn\jsmn.c ****     token = jsmn_alloc_token(parser, tokens, num_tokens);
  69:D:/Work/DeviceTester/amazon-freertos/lib/third_party/jsmn\jsmn.c ****     if (token == NULL) {
  70:D:/Work/DeviceTester/amazon-freertos/lib/third_party/jsmn\jsmn.c ****         parser->pos = start;
  71:D:/Work/DeviceTester/amazon-freertos/lib/third_party/jsmn\jsmn.c ****         return JSMN_ERROR_NOMEM;
  72:D:/Work/DeviceTester/amazon-freertos/lib/third_party/jsmn\jsmn.c ****     }
  73:D:/Work/DeviceTester/amazon-freertos/lib/third_party/jsmn\jsmn.c ****     jsmn_fill_token(token, JSMN_PRIMITIVE, start, parser->pos);
  74:D:/Work/DeviceTester/amazon-freertos/lib/third_party/jsmn\jsmn.c **** #ifdef JSMN_PARENT_LINKS
  75:D:/Work/DeviceTester/amazon-freertos/lib/third_party/jsmn\jsmn.c ****     token->parent = parser->toksuper;
  76:D:/Work/DeviceTester/amazon-freertos/lib/third_party/jsmn\jsmn.c **** #endif
  77:D:/Work/DeviceTester/amazon-freertos/lib/third_party/jsmn\jsmn.c ****     parser->pos--;
  78:D:/Work/DeviceTester/amazon-freertos/lib/third_party/jsmn\jsmn.c ****     return 0;
  79:D:/Work/DeviceTester/amazon-freertos/lib/third_party/jsmn\jsmn.c **** }
  80:D:/Work/DeviceTester/amazon-freertos/lib/third_party/jsmn\jsmn.c **** 
  81:D:/Work/DeviceTester/amazon-freertos/lib/third_party/jsmn\jsmn.c **** /**
  82:D:/Work/DeviceTester/amazon-freertos/lib/third_party/jsmn\jsmn.c ****  * Fills next token with JSON string.
  83:D:/Work/DeviceTester/amazon-freertos/lib/third_party/jsmn\jsmn.c ****  */
  84:D:/Work/DeviceTester/amazon-freertos/lib/third_party/jsmn\jsmn.c **** static int jsmn_parse_string(jsmn_parser *parser, const char *js,
  85:D:/Work/DeviceTester/amazon-freertos/lib/third_party/jsmn\jsmn.c ****         size_t len, jsmntok_t *tokens, size_t num_tokens) {
  86:D:/Work/DeviceTester/amazon-freertos/lib/third_party/jsmn\jsmn.c ****     jsmntok_t *token;
  87:D:/Work/DeviceTester/amazon-freertos/lib/third_party/jsmn\jsmn.c **** 
  88:D:/Work/DeviceTester/amazon-freertos/lib/third_party/jsmn\jsmn.c ****     int start = parser->pos;
  89:D:/Work/DeviceTester/amazon-freertos/lib/third_party/jsmn\jsmn.c **** 
  90:D:/Work/DeviceTester/amazon-freertos/lib/third_party/jsmn\jsmn.c ****     parser->pos++;
  91:D:/Work/DeviceTester/amazon-freertos/lib/third_party/jsmn\jsmn.c **** 
  92:D:/Work/DeviceTester/amazon-freertos/lib/third_party/jsmn\jsmn.c ****     /* Skip starting quote */
  93:D:/Work/DeviceTester/amazon-freertos/lib/third_party/jsmn\jsmn.c ****     for (; parser->pos < len && js[parser->pos] != '\0'; parser->pos++) {
  94:D:/Work/DeviceTester/amazon-freertos/lib/third_party/jsmn\jsmn.c ****         char c = js[parser->pos];
  95:D:/Work/DeviceTester/amazon-freertos/lib/third_party/jsmn\jsmn.c **** 
  96:D:/Work/DeviceTester/amazon-freertos/lib/third_party/jsmn\jsmn.c ****         /* Quote: end of string */
  97:D:/Work/DeviceTester/amazon-freertos/lib/third_party/jsmn\jsmn.c ****         if (c == '\"') {
  98:D:/Work/DeviceTester/amazon-freertos/lib/third_party/jsmn\jsmn.c ****             if (tokens == NULL) {
  99:D:/Work/DeviceTester/amazon-freertos/lib/third_party/jsmn\jsmn.c ****                 return 0;
 100:D:/Work/DeviceTester/amazon-freertos/lib/third_party/jsmn\jsmn.c ****             }
 101:D:/Work/DeviceTester/amazon-freertos/lib/third_party/jsmn\jsmn.c ****             token = jsmn_alloc_token(parser, tokens, num_tokens);
 102:D:/Work/DeviceTester/amazon-freertos/lib/third_party/jsmn\jsmn.c ****             if (token == NULL) {
 103:D:/Work/DeviceTester/amazon-freertos/lib/third_party/jsmn\jsmn.c ****                 parser->pos = start;
 104:D:/Work/DeviceTester/amazon-freertos/lib/third_party/jsmn\jsmn.c ****                 return JSMN_ERROR_NOMEM;
 105:D:/Work/DeviceTester/amazon-freertos/lib/third_party/jsmn\jsmn.c ****             }
 106:D:/Work/DeviceTester/amazon-freertos/lib/third_party/jsmn\jsmn.c ****             jsmn_fill_token(token, JSMN_STRING, start+1, parser->pos);
 107:D:/Work/DeviceTester/amazon-freertos/lib/third_party/jsmn\jsmn.c **** #ifdef JSMN_PARENT_LINKS
 108:D:/Work/DeviceTester/amazon-freertos/lib/third_party/jsmn\jsmn.c ****             token->parent = parser->toksuper;
 109:D:/Work/DeviceTester/amazon-freertos/lib/third_party/jsmn\jsmn.c **** #endif
 110:D:/Work/DeviceTester/amazon-freertos/lib/third_party/jsmn\jsmn.c ****             return 0;
 111:D:/Work/DeviceTester/amazon-freertos/lib/third_party/jsmn\jsmn.c ****         }
 112:D:/Work/DeviceTester/amazon-freertos/lib/third_party/jsmn\jsmn.c **** 
 113:D:/Work/DeviceTester/amazon-freertos/lib/third_party/jsmn\jsmn.c ****         /* Backslash: Quoted symbol expected */
 114:D:/Work/DeviceTester/amazon-freertos/lib/third_party/jsmn\jsmn.c ****         if (c == '\\' && parser->pos + 1 < len) {
 115:D:/Work/DeviceTester/amazon-freertos/lib/third_party/jsmn\jsmn.c ****             int i;
 116:D:/Work/DeviceTester/amazon-freertos/lib/third_party/jsmn\jsmn.c ****             parser->pos++;
 117:D:/Work/DeviceTester/amazon-freertos/lib/third_party/jsmn\jsmn.c ****             switch (js[parser->pos]) {
 118:D:/Work/DeviceTester/amazon-freertos/lib/third_party/jsmn\jsmn.c ****                 /* Allowed escaped symbols */
 119:D:/Work/DeviceTester/amazon-freertos/lib/third_party/jsmn\jsmn.c ****                 case '\"': case '/' : case '\\' : case 'b' :
 120:D:/Work/DeviceTester/amazon-freertos/lib/third_party/jsmn\jsmn.c ****                 case 'f' : case 'r' : case 'n'  : case 't' :
 121:D:/Work/DeviceTester/amazon-freertos/lib/third_party/jsmn\jsmn.c ****                     break;
 122:D:/Work/DeviceTester/amazon-freertos/lib/third_party/jsmn\jsmn.c ****                 /* Allows escaped symbol \uXXXX */
 123:D:/Work/DeviceTester/amazon-freertos/lib/third_party/jsmn\jsmn.c ****                 case 'u':
 124:D:/Work/DeviceTester/amazon-freertos/lib/third_party/jsmn\jsmn.c ****                     parser->pos++;
 125:D:/Work/DeviceTester/amazon-freertos/lib/third_party/jsmn\jsmn.c ****                     for(i = 0; i < 4 && parser->pos < len && js[parser->pos] != '\0'; i++) {
 126:D:/Work/DeviceTester/amazon-freertos/lib/third_party/jsmn\jsmn.c ****                         /* If it isn't a hex character we have an error */
 127:D:/Work/DeviceTester/amazon-freertos/lib/third_party/jsmn\jsmn.c ****                         if(!((js[parser->pos] >= 48 && js[parser->pos] <= 57) || /* 0-9 */
 128:D:/Work/DeviceTester/amazon-freertos/lib/third_party/jsmn\jsmn.c ****                                     (js[parser->pos] >= 65 && js[parser->pos] <= 70) || /* A-F */
 129:D:/Work/DeviceTester/amazon-freertos/lib/third_party/jsmn\jsmn.c ****                                     (js[parser->pos] >= 97 && js[parser->pos] <= 102))) { /* a-f */
 130:D:/Work/DeviceTester/amazon-freertos/lib/third_party/jsmn\jsmn.c ****                             parser->pos = start;
 131:D:/Work/DeviceTester/amazon-freertos/lib/third_party/jsmn\jsmn.c ****                             return JSMN_ERROR_INVAL;
 132:D:/Work/DeviceTester/amazon-freertos/lib/third_party/jsmn\jsmn.c ****                         }
 133:D:/Work/DeviceTester/amazon-freertos/lib/third_party/jsmn\jsmn.c ****                         parser->pos++;
 134:D:/Work/DeviceTester/amazon-freertos/lib/third_party/jsmn\jsmn.c ****                     }
 135:D:/Work/DeviceTester/amazon-freertos/lib/third_party/jsmn\jsmn.c ****                     parser->pos--;
 136:D:/Work/DeviceTester/amazon-freertos/lib/third_party/jsmn\jsmn.c ****                     break;
 137:D:/Work/DeviceTester/amazon-freertos/lib/third_party/jsmn\jsmn.c ****                 /* Unexpected symbol */
 138:D:/Work/DeviceTester/amazon-freertos/lib/third_party/jsmn\jsmn.c ****                 default:
 139:D:/Work/DeviceTester/amazon-freertos/lib/third_party/jsmn\jsmn.c ****                     parser->pos = start;
 140:D:/Work/DeviceTester/amazon-freertos/lib/third_party/jsmn\jsmn.c ****                     return JSMN_ERROR_INVAL;
 141:D:/Work/DeviceTester/amazon-freertos/lib/third_party/jsmn\jsmn.c ****             }
 142:D:/Work/DeviceTester/amazon-freertos/lib/third_party/jsmn\jsmn.c ****         }
 143:D:/Work/DeviceTester/amazon-freertos/lib/third_party/jsmn\jsmn.c ****     }
 144:D:/Work/DeviceTester/amazon-freertos/lib/third_party/jsmn\jsmn.c ****     parser->pos = start;
 145:D:/Work/DeviceTester/amazon-freertos/lib/third_party/jsmn\jsmn.c ****     return JSMN_ERROR_PART;
 146:D:/Work/DeviceTester/amazon-freertos/lib/third_party/jsmn\jsmn.c **** }
 147:D:/Work/DeviceTester/amazon-freertos/lib/third_party/jsmn\jsmn.c **** 
 148:D:/Work/DeviceTester/amazon-freertos/lib/third_party/jsmn\jsmn.c **** /**
 149:D:/Work/DeviceTester/amazon-freertos/lib/third_party/jsmn\jsmn.c ****  * Parse JSON string and fill tokens.
 150:D:/Work/DeviceTester/amazon-freertos/lib/third_party/jsmn\jsmn.c ****  */
 151:D:/Work/DeviceTester/amazon-freertos/lib/third_party/jsmn\jsmn.c **** int jsmn_parse(jsmn_parser *parser, const char *js, size_t len,
 152:D:/Work/DeviceTester/amazon-freertos/lib/third_party/jsmn\jsmn.c ****         jsmntok_t *tokens, unsigned int num_tokens) {
  69              		.loc 1 152 0
  70              		.cfi_startproc
  71              		@ args = 4, pretend = 0, frame = 8
  72              		@ frame_needed = 0, uses_anonymous_args = 0
  73              	.LVL4:
  74 0000 F74F2DE9 		push	{r0, r1, r2, r4, r5, r6, r7, r8, r9, r10, fp, lr}
  75              		.cfi_def_cfa_offset 48
  76              		.cfi_offset 4, -36
  77              		.cfi_offset 5, -32
  78              		.cfi_offset 6, -28
  79              		.cfi_offset 7, -24
  80              		.cfi_offset 8, -20
  81              		.cfi_offset 9, -16
  82              		.cfi_offset 10, -12
  83              		.cfi_offset 11, -8
  84              		.cfi_offset 14, -4
  85              		.loc 1 152 0
  86 0004 0360A0E1 		mov	r6, r3
 153:D:/Work/DeviceTester/amazon-freertos/lib/third_party/jsmn\jsmn.c ****     int r;
 154:D:/Work/DeviceTester/amazon-freertos/lib/third_party/jsmn\jsmn.c ****     int i;
 155:D:/Work/DeviceTester/amazon-freertos/lib/third_party/jsmn\jsmn.c ****     jsmntok_t *token;
 156:D:/Work/DeviceTester/amazon-freertos/lib/third_party/jsmn\jsmn.c ****     int count = parser->toknext;
  87              		.loc 1 156 0
  88 0008 0030A0E1 		mov	r3, r0
  89              	.LVL5:
 152:D:/Work/DeviceTester/amazon-freertos/lib/third_party/jsmn\jsmn.c ****     int r;
  90              		.loc 1 152 0
  91 000c 0040A0E1 		mov	r4, r0
  92 0010 01A0A0E1 		mov	r10, r1
  93 0014 02B0A0E1 		mov	fp, r2
  94              		.loc 1 156 0
  95 0018 0450B3E5 		ldr	r5, [r3, #4]!
  96              	.LVL6:
  97              	.LBB19:
 157:D:/Work/DeviceTester/amazon-freertos/lib/third_party/jsmn\jsmn.c **** 
 158:D:/Work/DeviceTester/amazon-freertos/lib/third_party/jsmn\jsmn.c ****     for (; parser->pos < len && js[parser->pos] != '\0'; parser->pos++) {
 159:D:/Work/DeviceTester/amazon-freertos/lib/third_party/jsmn\jsmn.c ****         char c;
 160:D:/Work/DeviceTester/amazon-freertos/lib/third_party/jsmn\jsmn.c ****         jsmntype_t type;
 161:D:/Work/DeviceTester/amazon-freertos/lib/third_party/jsmn\jsmn.c **** 
 162:D:/Work/DeviceTester/amazon-freertos/lib/third_party/jsmn\jsmn.c ****         c = js[parser->pos];
 163:D:/Work/DeviceTester/amazon-freertos/lib/third_party/jsmn\jsmn.c ****         switch (c) {
 164:D:/Work/DeviceTester/amazon-freertos/lib/third_party/jsmn\jsmn.c ****             case '{': case '[':
 165:D:/Work/DeviceTester/amazon-freertos/lib/third_party/jsmn\jsmn.c ****                 count++;
 166:D:/Work/DeviceTester/amazon-freertos/lib/third_party/jsmn\jsmn.c ****                 if (tokens == NULL) {
 167:D:/Work/DeviceTester/amazon-freertos/lib/third_party/jsmn\jsmn.c ****                     break;
 168:D:/Work/DeviceTester/amazon-freertos/lib/third_party/jsmn\jsmn.c ****                 }
 169:D:/Work/DeviceTester/amazon-freertos/lib/third_party/jsmn\jsmn.c ****                 token = jsmn_alloc_token(parser, tokens, num_tokens);
 170:D:/Work/DeviceTester/amazon-freertos/lib/third_party/jsmn\jsmn.c ****                 if (token == NULL)
 171:D:/Work/DeviceTester/amazon-freertos/lib/third_party/jsmn\jsmn.c ****                     return JSMN_ERROR_NOMEM;
 172:D:/Work/DeviceTester/amazon-freertos/lib/third_party/jsmn\jsmn.c ****                 if (parser->toksuper != -1) {
 173:D:/Work/DeviceTester/amazon-freertos/lib/third_party/jsmn\jsmn.c ****                     tokens[parser->toksuper].size++;
 174:D:/Work/DeviceTester/amazon-freertos/lib/third_party/jsmn\jsmn.c **** #ifdef JSMN_PARENT_LINKS
 175:D:/Work/DeviceTester/amazon-freertos/lib/third_party/jsmn\jsmn.c ****                     token->parent = parser->toksuper;
 176:D:/Work/DeviceTester/amazon-freertos/lib/third_party/jsmn\jsmn.c **** #endif
 177:D:/Work/DeviceTester/amazon-freertos/lib/third_party/jsmn\jsmn.c ****                 }
 178:D:/Work/DeviceTester/amazon-freertos/lib/third_party/jsmn\jsmn.c ****                 token->type = (c == '{' ? JSMN_OBJECT : JSMN_ARRAY);
 179:D:/Work/DeviceTester/amazon-freertos/lib/third_party/jsmn\jsmn.c ****                 token->start = parser->pos;
 180:D:/Work/DeviceTester/amazon-freertos/lib/third_party/jsmn\jsmn.c ****                 parser->toksuper = parser->toknext - 1;
 181:D:/Work/DeviceTester/amazon-freertos/lib/third_party/jsmn\jsmn.c ****                 break;
 182:D:/Work/DeviceTester/amazon-freertos/lib/third_party/jsmn\jsmn.c ****             case '}': case ']':
 183:D:/Work/DeviceTester/amazon-freertos/lib/third_party/jsmn\jsmn.c ****                 if (tokens == NULL)
 184:D:/Work/DeviceTester/amazon-freertos/lib/third_party/jsmn\jsmn.c ****                     break;
 185:D:/Work/DeviceTester/amazon-freertos/lib/third_party/jsmn\jsmn.c ****                 type = (c == '}' ? JSMN_OBJECT : JSMN_ARRAY);
 186:D:/Work/DeviceTester/amazon-freertos/lib/third_party/jsmn\jsmn.c **** #ifdef JSMN_PARENT_LINKS
 187:D:/Work/DeviceTester/amazon-freertos/lib/third_party/jsmn\jsmn.c ****                 if (parser->toknext < 1) {
 188:D:/Work/DeviceTester/amazon-freertos/lib/third_party/jsmn\jsmn.c ****                     return JSMN_ERROR_INVAL;
 189:D:/Work/DeviceTester/amazon-freertos/lib/third_party/jsmn\jsmn.c ****                 }
 190:D:/Work/DeviceTester/amazon-freertos/lib/third_party/jsmn\jsmn.c ****                 token = &tokens[parser->toknext - 1];
 191:D:/Work/DeviceTester/amazon-freertos/lib/third_party/jsmn\jsmn.c ****                 for (;;) {
 192:D:/Work/DeviceTester/amazon-freertos/lib/third_party/jsmn\jsmn.c ****                     if (token->start != -1 && token->end == -1) {
 193:D:/Work/DeviceTester/amazon-freertos/lib/third_party/jsmn\jsmn.c ****                         if (token->type != type) {
 194:D:/Work/DeviceTester/amazon-freertos/lib/third_party/jsmn\jsmn.c ****                             return JSMN_ERROR_INVAL;
 195:D:/Work/DeviceTester/amazon-freertos/lib/third_party/jsmn\jsmn.c ****                         }
 196:D:/Work/DeviceTester/amazon-freertos/lib/third_party/jsmn\jsmn.c ****                         token->end = parser->pos + 1;
 197:D:/Work/DeviceTester/amazon-freertos/lib/third_party/jsmn\jsmn.c ****                         parser->toksuper = token->parent;
 198:D:/Work/DeviceTester/amazon-freertos/lib/third_party/jsmn\jsmn.c ****                         break;
 199:D:/Work/DeviceTester/amazon-freertos/lib/third_party/jsmn\jsmn.c ****                     }
 200:D:/Work/DeviceTester/amazon-freertos/lib/third_party/jsmn\jsmn.c ****                     if (token->parent == -1) {
 201:D:/Work/DeviceTester/amazon-freertos/lib/third_party/jsmn\jsmn.c ****                         if(token->type != type || parser->toksuper == -1) {
 202:D:/Work/DeviceTester/amazon-freertos/lib/third_party/jsmn\jsmn.c ****                             return JSMN_ERROR_INVAL;
 203:D:/Work/DeviceTester/amazon-freertos/lib/third_party/jsmn\jsmn.c ****                         }
 204:D:/Work/DeviceTester/amazon-freertos/lib/third_party/jsmn\jsmn.c ****                         break;
 205:D:/Work/DeviceTester/amazon-freertos/lib/third_party/jsmn\jsmn.c ****                     }
 206:D:/Work/DeviceTester/amazon-freertos/lib/third_party/jsmn\jsmn.c ****                     token = &tokens[token->parent];
 207:D:/Work/DeviceTester/amazon-freertos/lib/third_party/jsmn\jsmn.c ****                 }
 208:D:/Work/DeviceTester/amazon-freertos/lib/third_party/jsmn\jsmn.c **** #else
 209:D:/Work/DeviceTester/amazon-freertos/lib/third_party/jsmn\jsmn.c ****                 for (i = parser->toknext - 1; i >= 0; i--) {
 210:D:/Work/DeviceTester/amazon-freertos/lib/third_party/jsmn\jsmn.c ****                     token = &tokens[i];
 211:D:/Work/DeviceTester/amazon-freertos/lib/third_party/jsmn\jsmn.c ****                     if (token->start != -1 && token->end == -1) {
 212:D:/Work/DeviceTester/amazon-freertos/lib/third_party/jsmn\jsmn.c ****                         if (token->type != type) {
 213:D:/Work/DeviceTester/amazon-freertos/lib/third_party/jsmn\jsmn.c ****                             return JSMN_ERROR_INVAL;
 214:D:/Work/DeviceTester/amazon-freertos/lib/third_party/jsmn\jsmn.c ****                         }
 215:D:/Work/DeviceTester/amazon-freertos/lib/third_party/jsmn\jsmn.c ****                         parser->toksuper = -1;
 216:D:/Work/DeviceTester/amazon-freertos/lib/third_party/jsmn\jsmn.c ****                         token->end = parser->pos + 1;
 217:D:/Work/DeviceTester/amazon-freertos/lib/third_party/jsmn\jsmn.c ****                         break;
 218:D:/Work/DeviceTester/amazon-freertos/lib/third_party/jsmn\jsmn.c ****                     }
 219:D:/Work/DeviceTester/amazon-freertos/lib/third_party/jsmn\jsmn.c ****                 }
 220:D:/Work/DeviceTester/amazon-freertos/lib/third_party/jsmn\jsmn.c ****                 /* Error if unmatched closing bracket */
 221:D:/Work/DeviceTester/amazon-freertos/lib/third_party/jsmn\jsmn.c ****                 if (i == -1) return JSMN_ERROR_INVAL;
 222:D:/Work/DeviceTester/amazon-freertos/lib/third_party/jsmn\jsmn.c ****                 for (; i >= 0; i--) {
 223:D:/Work/DeviceTester/amazon-freertos/lib/third_party/jsmn\jsmn.c ****                     token = &tokens[i];
 224:D:/Work/DeviceTester/amazon-freertos/lib/third_party/jsmn\jsmn.c ****                     if (token->start != -1 && token->end == -1) {
 225:D:/Work/DeviceTester/amazon-freertos/lib/third_party/jsmn\jsmn.c ****                         parser->toksuper = i;
 226:D:/Work/DeviceTester/amazon-freertos/lib/third_party/jsmn\jsmn.c ****                         break;
 227:D:/Work/DeviceTester/amazon-freertos/lib/third_party/jsmn\jsmn.c ****                     }
 228:D:/Work/DeviceTester/amazon-freertos/lib/third_party/jsmn\jsmn.c ****                 }
 229:D:/Work/DeviceTester/amazon-freertos/lib/third_party/jsmn\jsmn.c **** #endif
 230:D:/Work/DeviceTester/amazon-freertos/lib/third_party/jsmn\jsmn.c ****                 break;
 231:D:/Work/DeviceTester/amazon-freertos/lib/third_party/jsmn\jsmn.c ****             case '\"':
 232:D:/Work/DeviceTester/amazon-freertos/lib/third_party/jsmn\jsmn.c ****                 r = jsmn_parse_string(parser, js, len, tokens, num_tokens);
 233:D:/Work/DeviceTester/amazon-freertos/lib/third_party/jsmn\jsmn.c ****                 if (r < 0) return r;
 234:D:/Work/DeviceTester/amazon-freertos/lib/third_party/jsmn\jsmn.c ****                 count++;
 235:D:/Work/DeviceTester/amazon-freertos/lib/third_party/jsmn\jsmn.c ****                 if (parser->toksuper != -1 && tokens != NULL)
 236:D:/Work/DeviceTester/amazon-freertos/lib/third_party/jsmn\jsmn.c ****                     tokens[parser->toksuper].size++;
 237:D:/Work/DeviceTester/amazon-freertos/lib/third_party/jsmn\jsmn.c ****                 break;
 238:D:/Work/DeviceTester/amazon-freertos/lib/third_party/jsmn\jsmn.c ****             case '\t' : case '\r' : case '\n' : case ' ':
 239:D:/Work/DeviceTester/amazon-freertos/lib/third_party/jsmn\jsmn.c ****                 break;
 240:D:/Work/DeviceTester/amazon-freertos/lib/third_party/jsmn\jsmn.c ****             case ':':
 241:D:/Work/DeviceTester/amazon-freertos/lib/third_party/jsmn\jsmn.c ****                 parser->toksuper = parser->toknext - 1;
 242:D:/Work/DeviceTester/amazon-freertos/lib/third_party/jsmn\jsmn.c ****                 break;
 243:D:/Work/DeviceTester/amazon-freertos/lib/third_party/jsmn\jsmn.c ****             case ',':
 244:D:/Work/DeviceTester/amazon-freertos/lib/third_party/jsmn\jsmn.c ****                 if (tokens != NULL && parser->toksuper != -1 &&
 245:D:/Work/DeviceTester/amazon-freertos/lib/third_party/jsmn\jsmn.c ****                         tokens[parser->toksuper].type != JSMN_ARRAY &&
  98              		.loc 1 245 0
  99 001c 1490A0E3 		mov	r9, #20
 100              	.LVL7:
 101              	.L5:
 102              	.LBE19:
 158:D:/Work/DeviceTester/amazon-freertos/lib/third_party/jsmn\jsmn.c ****         char c;
 103              		.loc 1 158 0 discriminator 1
 104 0020 008094E5 		ldr	r8, [r4]
 105 0024 0B0058E1 		cmp	r8, fp
 106 0028 E000003A 		bcc	.L49
 107              	.L52:
 246:D:/Work/DeviceTester/amazon-freertos/lib/third_party/jsmn\jsmn.c ****                         tokens[parser->toksuper].type != JSMN_OBJECT) {
 247:D:/Work/DeviceTester/amazon-freertos/lib/third_party/jsmn\jsmn.c **** #ifdef JSMN_PARENT_LINKS
 248:D:/Work/DeviceTester/amazon-freertos/lib/third_party/jsmn\jsmn.c ****                     parser->toksuper = tokens[parser->toksuper].parent;
 249:D:/Work/DeviceTester/amazon-freertos/lib/third_party/jsmn\jsmn.c **** #else
 250:D:/Work/DeviceTester/amazon-freertos/lib/third_party/jsmn\jsmn.c ****                     for (i = parser->toknext - 1; i >= 0; i--) {
 251:D:/Work/DeviceTester/amazon-freertos/lib/third_party/jsmn\jsmn.c ****                         if (tokens[i].type == JSMN_ARRAY || tokens[i].type == JSMN_OBJECT) {
 252:D:/Work/DeviceTester/amazon-freertos/lib/third_party/jsmn\jsmn.c ****                             if (tokens[i].start != -1 && tokens[i].end == -1) {
 253:D:/Work/DeviceTester/amazon-freertos/lib/third_party/jsmn\jsmn.c ****                                 parser->toksuper = i;
 254:D:/Work/DeviceTester/amazon-freertos/lib/third_party/jsmn\jsmn.c ****                                 break;
 255:D:/Work/DeviceTester/amazon-freertos/lib/third_party/jsmn\jsmn.c ****                             }
 256:D:/Work/DeviceTester/amazon-freertos/lib/third_party/jsmn\jsmn.c ****                         }
 257:D:/Work/DeviceTester/amazon-freertos/lib/third_party/jsmn\jsmn.c ****                     }
 258:D:/Work/DeviceTester/amazon-freertos/lib/third_party/jsmn\jsmn.c **** #endif
 259:D:/Work/DeviceTester/amazon-freertos/lib/third_party/jsmn\jsmn.c ****                 }
 260:D:/Work/DeviceTester/amazon-freertos/lib/third_party/jsmn\jsmn.c ****                 break;
 261:D:/Work/DeviceTester/amazon-freertos/lib/third_party/jsmn\jsmn.c **** #ifdef JSMN_STRICT
 262:D:/Work/DeviceTester/amazon-freertos/lib/third_party/jsmn\jsmn.c ****             /* In strict mode primitives are: numbers and booleans */
 263:D:/Work/DeviceTester/amazon-freertos/lib/third_party/jsmn\jsmn.c ****             case '-': case '0': case '1' : case '2': case '3' : case '4':
 264:D:/Work/DeviceTester/amazon-freertos/lib/third_party/jsmn\jsmn.c ****             case '5': case '6': case '7' : case '8': case '9':
 265:D:/Work/DeviceTester/amazon-freertos/lib/third_party/jsmn\jsmn.c ****             case 't': case 'f': case 'n' :
 266:D:/Work/DeviceTester/amazon-freertos/lib/third_party/jsmn\jsmn.c ****                 /* And they must not be keys of the object */
 267:D:/Work/DeviceTester/amazon-freertos/lib/third_party/jsmn\jsmn.c ****                 if (tokens != NULL && parser->toksuper != -1) {
 268:D:/Work/DeviceTester/amazon-freertos/lib/third_party/jsmn\jsmn.c ****                     jsmntok_t *t = &tokens[parser->toksuper];
 269:D:/Work/DeviceTester/amazon-freertos/lib/third_party/jsmn\jsmn.c ****                     if (t->type == JSMN_OBJECT ||
 270:D:/Work/DeviceTester/amazon-freertos/lib/third_party/jsmn\jsmn.c ****                             (t->type == JSMN_STRING && t->size != 0)) {
 271:D:/Work/DeviceTester/amazon-freertos/lib/third_party/jsmn\jsmn.c ****                         return JSMN_ERROR_INVAL;
 272:D:/Work/DeviceTester/amazon-freertos/lib/third_party/jsmn\jsmn.c ****                     }
 273:D:/Work/DeviceTester/amazon-freertos/lib/third_party/jsmn\jsmn.c ****                 }
 274:D:/Work/DeviceTester/amazon-freertos/lib/third_party/jsmn\jsmn.c **** #else
 275:D:/Work/DeviceTester/amazon-freertos/lib/third_party/jsmn\jsmn.c ****             /* In non-strict mode every unquoted value is a primitive */
 276:D:/Work/DeviceTester/amazon-freertos/lib/third_party/jsmn\jsmn.c ****             default:
 277:D:/Work/DeviceTester/amazon-freertos/lib/third_party/jsmn\jsmn.c **** #endif
 278:D:/Work/DeviceTester/amazon-freertos/lib/third_party/jsmn\jsmn.c ****                 r = jsmn_parse_primitive(parser, js, len, tokens, num_tokens);
 279:D:/Work/DeviceTester/amazon-freertos/lib/third_party/jsmn\jsmn.c ****                 if (r < 0) return r;
 280:D:/Work/DeviceTester/amazon-freertos/lib/third_party/jsmn\jsmn.c ****                 count++;
 281:D:/Work/DeviceTester/amazon-freertos/lib/third_party/jsmn\jsmn.c ****                 if (parser->toksuper != -1 && tokens != NULL)
 282:D:/Work/DeviceTester/amazon-freertos/lib/third_party/jsmn\jsmn.c ****                     tokens[parser->toksuper].size++;
 283:D:/Work/DeviceTester/amazon-freertos/lib/third_party/jsmn\jsmn.c ****                 break;
 284:D:/Work/DeviceTester/amazon-freertos/lib/third_party/jsmn\jsmn.c **** 
 285:D:/Work/DeviceTester/amazon-freertos/lib/third_party/jsmn\jsmn.c **** #ifdef JSMN_STRICT
 286:D:/Work/DeviceTester/amazon-freertos/lib/third_party/jsmn\jsmn.c ****             /* Unexpected char in strict mode */
 287:D:/Work/DeviceTester/amazon-freertos/lib/third_party/jsmn\jsmn.c ****             default:
 288:D:/Work/DeviceTester/amazon-freertos/lib/third_party/jsmn\jsmn.c ****                 return JSMN_ERROR_INVAL;
 289:D:/Work/DeviceTester/amazon-freertos/lib/third_party/jsmn\jsmn.c **** #endif
 290:D:/Work/DeviceTester/amazon-freertos/lib/third_party/jsmn\jsmn.c ****         }
 291:D:/Work/DeviceTester/amazon-freertos/lib/third_party/jsmn\jsmn.c ****     }
 292:D:/Work/DeviceTester/amazon-freertos/lib/third_party/jsmn\jsmn.c **** 
 293:D:/Work/DeviceTester/amazon-freertos/lib/third_party/jsmn\jsmn.c ****     if (tokens != NULL) {
 108              		.loc 1 293 0
 109 002c 000056E3 		cmp	r6, #0
 110 0030 0801001A 		bne	.L50
 111              	.LVL8:
 112              	.L4:
 294:D:/Work/DeviceTester/amazon-freertos/lib/third_party/jsmn\jsmn.c ****         for (i = parser->toknext - 1; i >= 0; i--) {
 295:D:/Work/DeviceTester/amazon-freertos/lib/third_party/jsmn\jsmn.c ****             /* Unmatched opened object or array */
 296:D:/Work/DeviceTester/amazon-freertos/lib/third_party/jsmn\jsmn.c ****             if (tokens[i].start != -1 && tokens[i].end == -1) {
 297:D:/Work/DeviceTester/amazon-freertos/lib/third_party/jsmn\jsmn.c ****                 return JSMN_ERROR_PART;
 298:D:/Work/DeviceTester/amazon-freertos/lib/third_party/jsmn\jsmn.c ****             }
 299:D:/Work/DeviceTester/amazon-freertos/lib/third_party/jsmn\jsmn.c ****         }
 300:D:/Work/DeviceTester/amazon-freertos/lib/third_party/jsmn\jsmn.c ****     }
 301:D:/Work/DeviceTester/amazon-freertos/lib/third_party/jsmn\jsmn.c **** 
 302:D:/Work/DeviceTester/amazon-freertos/lib/third_party/jsmn\jsmn.c ****     return count;
 303:D:/Work/DeviceTester/amazon-freertos/lib/third_party/jsmn\jsmn.c **** }
 113              		.loc 1 303 0
 114 0034 0500A0E1 		mov	r0, r5
 115 0038 0CD08DE2 		add	sp, sp, #12
 116              		.cfi_remember_state
 117              		.cfi_def_cfa_offset 36
 118              		@ sp needed
 119 003c F08FBDE8 		pop	{r4, r5, r6, r7, r8, r9, r10, fp, pc}
 120              	.LVL9:
 121              	.L10:
 122              		.cfi_restore_state
 123              	.LBB56:
 163:D:/Work/DeviceTester/amazon-freertos/lib/third_party/jsmn\jsmn.c ****             case '{': case '[':
 124              		.loc 1 163 0
 125 0040 200057E3 		cmp	r7, #32
 126 0044 4600000A 		beq	.L9
 127 0048 220057E3 		cmp	r7, #34
 128              	.LBB20:
 129              	.LBB21:
  90:D:/Work/DeviceTester/amazon-freertos/lib/third_party/jsmn\jsmn.c **** 
 130              		.loc 1 90 0
 131 004c 01708802 		addeq	r7, r8, #1
 132              	.LVL10:
 133 0050 00708405 		streq	r7, [r4]
 134              	.LVL11:
 135              	.LBE21:
 136              	.LBE20:
 163:D:/Work/DeviceTester/amazon-freertos/lib/third_party/jsmn\jsmn.c ****             case '{': case '[':
 137              		.loc 1 163 0
 138 0054 E100001A 		bne	.L123
 139              	.L23:
 140              	.LBB36:
 141              	.LBB32:
  93:D:/Work/DeviceTester/amazon-freertos/lib/third_party/jsmn\jsmn.c ****         char c = js[parser->pos];
 142              		.loc 1 93 0
 143 0058 001094E5 		ldr	r1, [r4]
 144 005c 01005BE1 		cmp	fp, r1
 145 0060 9B00008A 		bhi	.L37
 146              	.L39:
 144:D:/Work/DeviceTester/amazon-freertos/lib/third_party/jsmn\jsmn.c ****     return JSMN_ERROR_PART;
 147              		.loc 1 144 0
 148 0064 008084E5 		str	r8, [r4]
 149              	.LVL12:
 150              	.L65:
 151              	.LBE32:
 152              	.LBE36:
 153              	.LBE56:
 297:D:/Work/DeviceTester/amazon-freertos/lib/third_party/jsmn\jsmn.c ****             }
 154              		.loc 1 297 0
 155 0068 0250E0E3 		mvn	r5, #2
 156              	.LVL13:
 157 006c F0FFFFEA 		b	.L4
 158              	.LVL14:
 159              	.L8:
 160              	.LBB57:
 163:D:/Work/DeviceTester/amazon-freertos/lib/third_party/jsmn\jsmn.c ****             case '{': case '[':
 161              		.loc 1 163 0
 162 0070 5D0057E3 		cmp	r7, #93
 163 0074 2300000A 		beq	.L12
 164 0078 1E00008A 		bhi	.L13
 165 007c 3A0057E3 		cmp	r7, #58
 166 0080 1900000A 		beq	.L14
 167 0084 5B0057E3 		cmp	r7, #91
 168 0088 D400001A 		bne	.L123
 169              	.L15:
 166:D:/Work/DeviceTester/amazon-freertos/lib/third_party/jsmn\jsmn.c ****                     break;
 170              		.loc 1 166 0
 171 008c 000056E3 		cmp	r6, #0
 165:D:/Work/DeviceTester/amazon-freertos/lib/third_party/jsmn\jsmn.c ****                 if (tokens == NULL) {
 172              		.loc 1 165 0
 173 0090 015085E2 		add	r5, r5, #1
 174              	.LVL15:
 166:D:/Work/DeviceTester/amazon-freertos/lib/third_party/jsmn\jsmn.c ****                     break;
 175              		.loc 1 166 0
 176 0094 3200000A 		beq	.L9
 169:D:/Work/DeviceTester/amazon-freertos/lib/third_party/jsmn\jsmn.c ****                 if (token == NULL)
 177              		.loc 1 169 0
 178 0098 30209DE5 		ldr	r2, [sp, #48]
 179 009c 0610A0E1 		mov	r1, r6
 180 00a0 0300A0E1 		mov	r0, r3
 181 00a4 04308DE5 		str	r3, [sp, #4]
 182 00a8 FEFFFFEB 		bl	jsmn_alloc_token.isra.0
 183              	.LVL16:
 170:D:/Work/DeviceTester/amazon-freertos/lib/third_party/jsmn\jsmn.c ****                     return JSMN_ERROR_NOMEM;
 184              		.loc 1 170 0
 185 00ac 000050E3 		cmp	r0, #0
 186 00b0 9700000A 		beq	.L58
 187              	.LVL17:
 172:D:/Work/DeviceTester/amazon-freertos/lib/third_party/jsmn\jsmn.c ****                     tokens[parser->toksuper].size++;
 188              		.loc 1 172 0
 189 00b4 082094E5 		ldr	r2, [r4, #8]
 190 00b8 04309DE5 		ldr	r3, [sp, #4]
 191 00bc 010072E3 		cmn	r2, #1
 173:D:/Work/DeviceTester/amazon-freertos/lib/third_party/jsmn\jsmn.c **** #ifdef JSMN_PARENT_LINKS
 192              		.loc 1 173 0
 193 00c0 99622C10 		mlane	ip, r9, r2, r6
 194 00c4 0C109C15 		ldrne	r1, [ip, #12]
 195              	.LVL18:
 196 00c8 01108112 		addne	r1, r1, #1
 197 00cc 0C108C15 		strne	r1, [ip, #12]
 175:D:/Work/DeviceTester/amazon-freertos/lib/third_party/jsmn\jsmn.c **** #endif
 198              		.loc 1 175 0
 199 00d0 10208015 		strne	r2, [r0, #16]
 178:D:/Work/DeviceTester/amazon-freertos/lib/third_party/jsmn\jsmn.c ****                 token->start = parser->pos;
 200              		.loc 1 178 0
 201 00d4 7B0057E3 		cmp	r7, #123
 202 00d8 0120A003 		moveq	r2, #1
 203 00dc 0220A013 		movne	r2, #2
 204 00e0 0020C0E5 		strb	r2, [r0]
 179:D:/Work/DeviceTester/amazon-freertos/lib/third_party/jsmn\jsmn.c ****                 parser->toksuper = parser->toknext - 1;
 205              		.loc 1 179 0
 206 00e4 002094E5 		ldr	r2, [r4]
 207 00e8 042080E5 		str	r2, [r0, #4]
 208              	.LVL19:
 209              	.L14:
 241:D:/Work/DeviceTester/amazon-freertos/lib/third_party/jsmn\jsmn.c ****                 break;
 210              		.loc 1 241 0
 211 00ec 042094E5 		ldr	r2, [r4, #4]
 212 00f0 012042E2 		sub	r2, r2, #1
 213 00f4 190000EA 		b	.L157
 214              	.L13:
 163:D:/Work/DeviceTester/amazon-freertos/lib/third_party/jsmn\jsmn.c ****             case '{': case '[':
 215              		.loc 1 163 0
 216 00f8 7B0057E3 		cmp	r7, #123
 217 00fc E2FFFF0A 		beq	.L15
 218 0100 7D0057E3 		cmp	r7, #125
 219 0104 B500001A 		bne	.L123
 220              	.L12:
 183:D:/Work/DeviceTester/amazon-freertos/lib/third_party/jsmn\jsmn.c ****                     break;
 221              		.loc 1 183 0
 222 0108 000056E3 		cmp	r6, #0
 223 010c 1400000A 		beq	.L9
 187:D:/Work/DeviceTester/amazon-freertos/lib/third_party/jsmn\jsmn.c ****                     return JSMN_ERROR_INVAL;
 224              		.loc 1 187 0
 225 0110 042094E5 		ldr	r2, [r4, #4]
 185:D:/Work/DeviceTester/amazon-freertos/lib/third_party/jsmn\jsmn.c **** #ifdef JSMN_PARENT_LINKS
 226              		.loc 1 185 0
 227 0114 7D0057E3 		cmp	r7, #125
 228 0118 0100A003 		moveq	r0, #1
 229 011c 0200A013 		movne	r0, #2
 230              	.LVL20:
 187:D:/Work/DeviceTester/amazon-freertos/lib/third_party/jsmn\jsmn.c ****                     return JSMN_ERROR_INVAL;
 231              		.loc 1 187 0
 232 0120 000052E3 		cmp	r2, #0
 233 0124 1B00000A 		beq	.L64
 190:D:/Work/DeviceTester/amazon-freertos/lib/third_party/jsmn\jsmn.c ****                 for (;;) {
 234              		.loc 1 190 0
 235 0128 996222E0 		mla	r2, r9, r2, r6
 236 012c 142042E2 		sub	r2, r2, #20
 237              	.LVL21:
 238              	.L22:
 192:D:/Work/DeviceTester/amazon-freertos/lib/third_party/jsmn\jsmn.c ****                         if (token->type != type) {
 239              		.loc 1 192 0
 240 0130 041092E5 		ldr	r1, [r2, #4]
 241 0134 010071E3 		cmn	r1, #1
 242 0138 0D00000A 		beq	.L20
 192:D:/Work/DeviceTester/amazon-freertos/lib/third_party/jsmn\jsmn.c ****                         if (token->type != type) {
 243              		.loc 1 192 0 is_stmt 0 discriminator 1
 244 013c 081092E5 		ldr	r1, [r2, #8]
 245 0140 010071E3 		cmn	r1, #1
 246 0144 0A00001A 		bne	.L20
 193:D:/Work/DeviceTester/amazon-freertos/lib/third_party/jsmn\jsmn.c ****                             return JSMN_ERROR_INVAL;
 247              		.loc 1 193 0 is_stmt 1
 248 0148 0010D2E5 		ldrb	r1, [r2]	@ zero_extendqisi2
 249 014c 000051E1 		cmp	r1, r0
 250 0150 1000001A 		bne	.L64
 196:D:/Work/DeviceTester/amazon-freertos/lib/third_party/jsmn\jsmn.c ****                         parser->toksuper = token->parent;
 251              		.loc 1 196 0
 252 0154 018088E2 		add	r8, r8, #1
 253 0158 088082E5 		str	r8, [r2, #8]
 197:D:/Work/DeviceTester/amazon-freertos/lib/third_party/jsmn\jsmn.c ****                         break;
 254              		.loc 1 197 0
 255 015c 102092E5 		ldr	r2, [r2, #16]
 256              	.LVL22:
 257              	.L157:
 248:D:/Work/DeviceTester/amazon-freertos/lib/third_party/jsmn\jsmn.c **** #else
 258              		.loc 1 248 0
 259 0160 082084E5 		str	r2, [r4, #8]
 260              	.LVL23:
 261              	.L9:
 262              	.LBE57:
 158:D:/Work/DeviceTester/amazon-freertos/lib/third_party/jsmn\jsmn.c ****         char c;
 263              		.loc 1 158 0
 264 0164 002094E5 		ldr	r2, [r4]
 265 0168 012082E2 		add	r2, r2, #1
 266 016c 002084E5 		str	r2, [r4]
 267 0170 AAFFFFEA 		b	.L5
 268              	.LVL24:
 269              	.L20:
 270              	.LBB58:
 200:D:/Work/DeviceTester/amazon-freertos/lib/third_party/jsmn\jsmn.c ****                         if(token->type != type || parser->toksuper == -1) {
 271              		.loc 1 200 0
 272 0174 101092E5 		ldr	r1, [r2, #16]
 273 0178 010071E3 		cmn	r1, #1
 274 017c 0700001A 		bne	.L21
 201:D:/Work/DeviceTester/amazon-freertos/lib/third_party/jsmn\jsmn.c ****                             return JSMN_ERROR_INVAL;
 275              		.loc 1 201 0
 276 0180 0020D2E5 		ldrb	r2, [r2]	@ zero_extendqisi2
 277              	.LVL25:
 278 0184 000052E1 		cmp	r2, r0
 279 0188 0200001A 		bne	.L64
 201:D:/Work/DeviceTester/amazon-freertos/lib/third_party/jsmn\jsmn.c ****                             return JSMN_ERROR_INVAL;
 280              		.loc 1 201 0 is_stmt 0 discriminator 1
 281 018c 082094E5 		ldr	r2, [r4, #8]
 282 0190 010072E3 		cmn	r2, #1
 283 0194 F2FFFF1A 		bne	.L9
 284              	.LVL26:
 285              	.L64:
 188:D:/Work/DeviceTester/amazon-freertos/lib/third_party/jsmn\jsmn.c ****                 }
 286              		.loc 1 188 0 is_stmt 1
 287 0198 0150E0E3 		mvn	r5, #1
 288              	.LVL27:
 289 019c A4FFFFEA 		b	.L4
 290              	.LVL28:
 291              	.L21:
 206:D:/Work/DeviceTester/amazon-freertos/lib/third_party/jsmn\jsmn.c ****                 }
 292              		.loc 1 206 0
 293 01a0 996122E0 		mla	r2, r9, r1, r6
 294              	.LVL29:
 192:D:/Work/DeviceTester/amazon-freertos/lib/third_party/jsmn\jsmn.c ****                         if (token->type != type) {
 295              		.loc 1 192 0
 296 01a4 E1FFFFEA 		b	.L22
 297              	.LVL30:
 298              	.L26:
 299              	.LBB37:
 300              	.LBB33:
 301              	.LBB22:
 106:D:/Work/DeviceTester/amazon-freertos/lib/third_party/jsmn\jsmn.c **** #ifdef JSMN_PARENT_LINKS
 302              		.loc 1 106 0
 303 01a8 002094E5 		ldr	r2, [r4]
 304              	.LVL31:
 305              	.LBB23:
 306              	.LBB24:
  26:D:/Work/DeviceTester/amazon-freertos/lib/third_party/jsmn\jsmn.c ****     token->start = start;
 307              		.loc 1 26 0
 308 01ac 0310A0E3 		mov	r1, #3
 309              	.LVL32:
 310 01b0 0010C0E5 		strb	r1, [r0]
  27:D:/Work/DeviceTester/amazon-freertos/lib/third_party/jsmn\jsmn.c ****     token->end = end;
 311              		.loc 1 27 0
 312 01b4 047080E5 		str	r7, [r0, #4]
  28:D:/Work/DeviceTester/amazon-freertos/lib/third_party/jsmn\jsmn.c ****     token->size = 0;
 313              		.loc 1 28 0
 314 01b8 082080E5 		str	r2, [r0, #8]
  29:D:/Work/DeviceTester/amazon-freertos/lib/third_party/jsmn\jsmn.c **** }
 315              		.loc 1 29 0
 316 01bc 0020A0E3 		mov	r2, #0
 317              	.LVL33:
 318 01c0 0C2080E5 		str	r2, [r0, #12]
 319              	.LVL34:
 320              	.LBE24:
 321              	.LBE23:
 108:D:/Work/DeviceTester/amazon-freertos/lib/third_party/jsmn\jsmn.c **** #endif
 322              		.loc 1 108 0
 323 01c4 082094E5 		ldr	r2, [r4, #8]
 324 01c8 102080E5 		str	r2, [r0, #16]
 325              	.LVL35:
 326              	.L47:
 327              	.LBE22:
 328              	.LBE33:
 329              	.LBE37:
 281:D:/Work/DeviceTester/amazon-freertos/lib/third_party/jsmn\jsmn.c ****                     tokens[parser->toksuper].size++;
 330              		.loc 1 281 0
 331 01cc 082094E5 		ldr	r2, [r4, #8]
 280:D:/Work/DeviceTester/amazon-freertos/lib/third_party/jsmn\jsmn.c ****                 if (parser->toksuper != -1 && tokens != NULL)
 332              		.loc 1 280 0
 333 01d0 015085E2 		add	r5, r5, #1
 334              	.LVL36:
 281:D:/Work/DeviceTester/amazon-freertos/lib/third_party/jsmn\jsmn.c ****                     tokens[parser->toksuper].size++;
 335              		.loc 1 281 0
 336 01d4 000056E3 		cmp	r6, #0
 337 01d8 01007213 		cmnne	r2, #1
 282:D:/Work/DeviceTester/amazon-freertos/lib/third_party/jsmn\jsmn.c ****                 break;
 338              		.loc 1 282 0
 339 01dc 99622210 		mlane	r2, r9, r2, r6
 340 01e0 0C109215 		ldrne	r1, [r2, #12]
 341 01e4 01108112 		addne	r1, r1, #1
 342 01e8 0C108215 		strne	r1, [r2, #12]
 343 01ec DCFFFFEA 		b	.L9
 344              	.LVL37:
 345              	.L24:
 346              	.LBB38:
 347              	.LBB34:
 348              	.LBB28:
 114:D:/Work/DeviceTester/amazon-freertos/lib/third_party/jsmn\jsmn.c ****             int i;
 349              		.loc 1 114 0
 350 01f0 5C0052E3 		cmp	r2, #92
 351 01f4 0C00001A 		bne	.L27
 352 01f8 012081E2 		add	r2, r1, #1
 353              	.LVL38:
 354 01fc 02005BE1 		cmp	fp, r2
 355 0200 0900009A 		bls	.L27
 356              	.LBB25:
 116:D:/Work/DeviceTester/amazon-freertos/lib/third_party/jsmn\jsmn.c ****             switch (js[parser->pos]) {
 357              		.loc 1 116 0
 358 0204 002084E5 		str	r2, [r4]
 359              	.LVL39:
 117:D:/Work/DeviceTester/amazon-freertos/lib/third_party/jsmn\jsmn.c ****                 /* Allowed escaped symbols */
 360              		.loc 1 117 0
 361 0208 0220DAE7 		ldrb	r2, [r10, r2]	@ zero_extendqisi2
 362 020c 660052E3 		cmp	r2, #102
 363 0210 0500000A 		beq	.L27
 364 0214 0C00008A 		bhi	.L29
 365 0218 2F0052E3 		cmp	r2, #47
 366 021c 0200000A 		beq	.L27
 367 0220 0500008A 		bhi	.L30
 368 0224 220052E3 		cmp	r2, #34
 369              	.L154:
 370 0228 1F00001A 		bne	.L159
 371              	.L27:
 372              	.LBE25:
 373              	.LBE28:
  93:D:/Work/DeviceTester/amazon-freertos/lib/third_party/jsmn\jsmn.c ****         char c = js[parser->pos];
 374              		.loc 1 93 0
 375 022c 002094E5 		ldr	r2, [r4]
 376 0230 012082E2 		add	r2, r2, #1
 377 0234 002084E5 		str	r2, [r4]
 378 0238 86FFFFEA 		b	.L23
 379              	.L30:
 380              	.LBB29:
 381              	.LBB26:
 117:D:/Work/DeviceTester/amazon-freertos/lib/third_party/jsmn\jsmn.c ****                 /* Allowed escaped symbols */
 382              		.loc 1 117 0
 383 023c 5C0052E3 		cmp	r2, #92
 384 0240 F9FFFF0A 		beq	.L27
 385 0244 620052E3 		cmp	r2, #98
 386 0248 F6FFFFEA 		b	.L154
 387              	.L29:
 388 024c 720052E3 		cmp	r2, #114
 389 0250 F5FFFF0A 		beq	.L27
 390 0254 0100008A 		bhi	.L31
 391 0258 6E0052E3 		cmp	r2, #110
 392 025c F1FFFFEA 		b	.L154
 393              	.L31:
 394 0260 740052E3 		cmp	r2, #116
 395 0264 F0FFFF0A 		beq	.L27
 396 0268 750052E3 		cmp	r2, #117
 397 026c 0E00001A 		bne	.L159
 124:D:/Work/DeviceTester/amazon-freertos/lib/third_party/jsmn\jsmn.c ****                     for(i = 0; i < 4 && parser->pos < len && js[parser->pos] != '\0'; i++) {
 398              		.loc 1 124 0
 399 0270 0400A0E3 		mov	r0, #4
 400 0274 021081E2 		add	r1, r1, #2
 401 0278 001084E5 		str	r1, [r4]
 402              	.LVL40:
 403              	.L33:
 125:D:/Work/DeviceTester/amazon-freertos/lib/third_party/jsmn\jsmn.c ****                         /* If it isn't a hex character we have an error */
 404              		.loc 1 125 0
 405 027c 001094E5 		ldr	r1, [r4]
 406 0280 01005BE1 		cmp	fp, r1
 407 0284 0E00009A 		bls	.L35
 408 0288 0120DAE7 		ldrb	r2, [r10, r1]	@ zero_extendqisi2
 409 028c 000052E3 		cmp	r2, #0
 410 0290 0B00000A 		beq	.L35
 127:D:/Work/DeviceTester/amazon-freertos/lib/third_party/jsmn\jsmn.c ****                                     (js[parser->pos] >= 65 && js[parser->pos] <= 70) || /* A-F */
 411              		.loc 1 127 0
 412 0294 20C0C2E3 		bic	ip, r2, #32
 413 0298 302042E2 		sub	r2, r2, #48
 414 029c 41C04CE2 		sub	ip, ip, #65
 415 02a0 05005CE3 		cmp	ip, #5
 416 02a4 09005283 		cmphi	r2, #9
 417 02a8 0100009A 		bls	.L34
 418              	.LVL41:
 419              	.L159:
 420              	.LBE26:
 421              	.LBE29:
 422              	.LBE34:
 423              	.LBE38:
 424              	.LBB39:
 425              	.LBB40:
  53:D:/Work/DeviceTester/amazon-freertos/lib/third_party/jsmn\jsmn.c ****             return JSMN_ERROR_INVAL;
 426              		.loc 1 53 0
 427 02ac 008084E5 		str	r8, [r4]
 428 02b0 B8FFFFEA 		b	.L64
 429              	.LVL42:
 430              	.L34:
 431              	.LBE40:
 432              	.LBE39:
 433              	.LBB52:
 434              	.LBB35:
 435              	.LBB30:
 436              	.LBB27:
 125:D:/Work/DeviceTester/amazon-freertos/lib/third_party/jsmn\jsmn.c ****                         /* If it isn't a hex character we have an error */
 437              		.loc 1 125 0
 438 02b4 010050E2 		subs	r0, r0, #1
 439              	.LVL43:
 133:D:/Work/DeviceTester/amazon-freertos/lib/third_party/jsmn\jsmn.c ****                     }
 440              		.loc 1 133 0
 441 02b8 011081E2 		add	r1, r1, #1
 442 02bc 001084E5 		str	r1, [r4]
 443              	.LVL44:
 125:D:/Work/DeviceTester/amazon-freertos/lib/third_party/jsmn\jsmn.c ****                         /* If it isn't a hex character we have an error */
 444              		.loc 1 125 0
 445 02c0 EDFFFF1A 		bne	.L33
 446              	.L35:
 135:D:/Work/DeviceTester/amazon-freertos/lib/third_party/jsmn\jsmn.c ****                     break;
 447              		.loc 1 135 0
 448 02c4 002094E5 		ldr	r2, [r4]
 449 02c8 012042E2 		sub	r2, r2, #1
 450 02cc 002084E5 		str	r2, [r4]
 451 02d0 D5FFFFEA 		b	.L27
 452              	.L37:
 453              	.LBE27:
 454              	.LBE30:
  93:D:/Work/DeviceTester/amazon-freertos/lib/third_party/jsmn\jsmn.c ****         char c = js[parser->pos];
 455              		.loc 1 93 0
 456 02d4 0120DAE7 		ldrb	r2, [r10, r1]	@ zero_extendqisi2
 457 02d8 000052E3 		cmp	r2, #0
 458 02dc 60FFFF0A 		beq	.L39
 459              	.LVL45:
 460              	.LBB31:
  97:D:/Work/DeviceTester/amazon-freertos/lib/third_party/jsmn\jsmn.c ****             if (tokens == NULL) {
 461              		.loc 1 97 0
 462 02e0 220052E3 		cmp	r2, #34
 463 02e4 C1FFFF1A 		bne	.L24
  98:D:/Work/DeviceTester/amazon-freertos/lib/third_party/jsmn\jsmn.c ****                 return 0;
 464              		.loc 1 98 0
 465 02e8 000056E3 		cmp	r6, #0
 466 02ec B6FFFF0A 		beq	.L47
 101:D:/Work/DeviceTester/amazon-freertos/lib/third_party/jsmn\jsmn.c ****             if (token == NULL) {
 467              		.loc 1 101 0
 468 02f0 0300A0E1 		mov	r0, r3
 469 02f4 30209DE5 		ldr	r2, [sp, #48]
 470              	.LVL46:
 471 02f8 0610A0E1 		mov	r1, r6
 472              	.LVL47:
 473 02fc 04308DE5 		str	r3, [sp, #4]
 474 0300 FEFFFFEB 		bl	jsmn_alloc_token.isra.0
 475              	.LVL48:
 102:D:/Work/DeviceTester/amazon-freertos/lib/third_party/jsmn\jsmn.c ****                 parser->pos = start;
 476              		.loc 1 102 0
 477 0304 000050E3 		cmp	r0, #0
 478 0308 04309DE5 		ldr	r3, [sp, #4]
 479 030c A5FFFF1A 		bne	.L26
 480              	.LVL49:
 481              	.L158:
 482              	.LBE31:
 483              	.LBE35:
 484              	.LBE52:
 485              	.LBB53:
 486              	.LBB49:
  70:D:/Work/DeviceTester/amazon-freertos/lib/third_party/jsmn\jsmn.c ****         return JSMN_ERROR_NOMEM;
 487              		.loc 1 70 0
 488 0310 008084E5 		str	r8, [r4]
 489              	.L58:
 490              	.LBE49:
 491              	.LBE53:
 171:D:/Work/DeviceTester/amazon-freertos/lib/third_party/jsmn\jsmn.c ****                 if (parser->toksuper != -1) {
 492              		.loc 1 171 0
 493 0314 0050E0E3 		mvn	r5, #0
 494              	.LVL50:
 495 0318 45FFFFEA 		b	.L4
 496              	.LVL51:
 497              	.L7:
 244:D:/Work/DeviceTester/amazon-freertos/lib/third_party/jsmn\jsmn.c ****                         tokens[parser->toksuper].type != JSMN_ARRAY &&
 498              		.loc 1 244 0
 499 031c 000056E3 		cmp	r6, #0
 500 0320 8FFFFF0A 		beq	.L9
 244:D:/Work/DeviceTester/amazon-freertos/lib/third_party/jsmn\jsmn.c ****                         tokens[parser->toksuper].type != JSMN_ARRAY &&
 501              		.loc 1 244 0 is_stmt 0 discriminator 1
 502 0324 082094E5 		ldr	r2, [r4, #8]
 503 0328 010072E3 		cmn	r2, #1
 504 032c 8CFFFF0A 		beq	.L9
 245:D:/Work/DeviceTester/amazon-freertos/lib/third_party/jsmn\jsmn.c ****                         tokens[parser->toksuper].type != JSMN_OBJECT) {
 505              		.loc 1 245 0 is_stmt 1 discriminator 2
 506 0330 990202E0 		mul	r2, r9, r2
 507 0334 021086E0 		add	r1, r6, r2
 508 0338 0220D6E7 		ldrb	r2, [r6, r2]	@ zero_extendqisi2
 509 033c 012042E2 		sub	r2, r2, #1
 510 0340 010052E3 		cmp	r2, #1
 511 0344 86FFFF9A 		bls	.L9
 248:D:/Work/DeviceTester/amazon-freertos/lib/third_party/jsmn\jsmn.c **** #else
 512              		.loc 1 248 0
 513 0348 102091E5 		ldr	r2, [r1, #16]
 514 034c 83FFFFEA 		b	.L157
 515              	.LVL52:
 516              	.L45:
 517              	.LBB54:
 518              	.LBB50:
  43:D:/Work/DeviceTester/amazon-freertos/lib/third_party/jsmn\jsmn.c **** #ifndef JSMN_STRICT
 519              		.loc 1 43 0
 520 0350 200052E3 		cmp	r2, #32
 521 0354 2700000A 		beq	.L41
 522 0358 0B00008A 		bhi	.L42
 523 035c 090052E3 		cmp	r2, #9
 524 0360 0300003A 		bcc	.L40
 525 0364 0A0052E3 		cmp	r2, #10
 526 0368 2200009A 		bls	.L41
 527 036c 0D0052E3 		cmp	r2, #13
 528              	.L156:
 529 0370 2000000A 		beq	.L41
 530              	.L40:
  52:D:/Work/DeviceTester/amazon-freertos/lib/third_party/jsmn\jsmn.c ****             parser->pos = start;
 531              		.loc 1 52 0
 532 0374 202042E2 		sub	r2, r2, #32
 533 0378 5E0052E3 		cmp	r2, #94
 534 037c CAFFFF8A 		bhi	.L159
  42:D:/Work/DeviceTester/amazon-freertos/lib/third_party/jsmn\jsmn.c ****         switch (js[parser->pos]) {
 535              		.loc 1 42 0
 536 0380 011081E2 		add	r1, r1, #1
 537 0384 001084E5 		str	r1, [r4]
 538 0388 140000EA 		b	.L123
 539              	.L42:
  43:D:/Work/DeviceTester/amazon-freertos/lib/third_party/jsmn\jsmn.c **** #ifndef JSMN_STRICT
 540              		.loc 1 43 0
 541 038c 3A0052E3 		cmp	r2, #58
 542 0390 1800000A 		beq	.L41
 543 0394 0100008A 		bhi	.L43
 544 0398 2C0052E3 		cmp	r2, #44
 545 039c F3FFFFEA 		b	.L156
 546              	.L43:
 547 03a0 5D0052E3 		cmp	r2, #93
 548 03a4 1300000A 		beq	.L41
 549 03a8 7D0052E3 		cmp	r2, #125
 550 03ac EFFFFFEA 		b	.L156
 551              	.L49:
 552              	.LBE50:
 553              	.LBE54:
 554              	.LBE58:
 158:D:/Work/DeviceTester/amazon-freertos/lib/third_party/jsmn\jsmn.c ****         char c;
 555              		.loc 1 158 0 discriminator 2
 556 03b0 0870DAE7 		ldrb	r7, [r10, r8]	@ zero_extendqisi2
 557 03b4 000057E3 		cmp	r7, #0
 558 03b8 1BFFFF0A 		beq	.L52
 559              	.LVL53:
 560              	.LBB59:
 163:D:/Work/DeviceTester/amazon-freertos/lib/third_party/jsmn\jsmn.c ****             case '{': case '[':
 561              		.loc 1 163 0
 562 03bc 2C0057E3 		cmp	r7, #44
 563 03c0 D5FFFF0A 		beq	.L7
 564 03c4 29FFFF8A 		bhi	.L8
 565 03c8 0D0057E3 		cmp	r7, #13
 566 03cc 64FFFF0A 		beq	.L9
 567 03d0 1AFFFF8A 		bhi	.L10
 568 03d4 097047E2 		sub	r7, r7, #9
 569              	.LVL54:
 570 03d8 010057E3 		cmp	r7, #1
 571 03dc 60FFFF9A 		bls	.L9
 572              	.LVL55:
 573              	.L123:
 574              	.LBB55:
 575              	.LBB51:
  42:D:/Work/DeviceTester/amazon-freertos/lib/third_party/jsmn\jsmn.c ****         switch (js[parser->pos]) {
 576              		.loc 1 42 0
 577 03e0 001094E5 		ldr	r1, [r4]
 578 03e4 01005BE1 		cmp	fp, r1
 579 03e8 0200009A 		bls	.L41
 580 03ec 0120DAE7 		ldrb	r2, [r10, r1]	@ zero_extendqisi2
 581 03f0 000052E3 		cmp	r2, #0
 582 03f4 D5FFFF1A 		bne	.L45
 583              	.L41:
  64:D:/Work/DeviceTester/amazon-freertos/lib/third_party/jsmn\jsmn.c ****         parser->pos--;
 584              		.loc 1 64 0
 585 03f8 000056E3 		cmp	r6, #0
  65:D:/Work/DeviceTester/amazon-freertos/lib/third_party/jsmn\jsmn.c ****         return 0;
 586              		.loc 1 65 0
 587 03fc 01104102 		subeq	r1, r1, #1
 588 0400 00108405 		streq	r1, [r4]
  64:D:/Work/DeviceTester/amazon-freertos/lib/third_party/jsmn\jsmn.c ****         parser->pos--;
 589              		.loc 1 64 0
 590 0404 70FFFF0A 		beq	.L47
  68:D:/Work/DeviceTester/amazon-freertos/lib/third_party/jsmn\jsmn.c ****     if (token == NULL) {
 591              		.loc 1 68 0
 592 0408 0300A0E1 		mov	r0, r3
 593 040c 30209DE5 		ldr	r2, [sp, #48]
 594 0410 0610A0E1 		mov	r1, r6
 595 0414 04308DE5 		str	r3, [sp, #4]
 596 0418 FEFFFFEB 		bl	jsmn_alloc_token.isra.0
 597              	.LVL56:
  69:D:/Work/DeviceTester/amazon-freertos/lib/third_party/jsmn\jsmn.c ****         parser->pos = start;
 598              		.loc 1 69 0
 599 041c 000050E3 		cmp	r0, #0
 600 0420 04309DE5 		ldr	r3, [sp, #4]
 601 0424 B9FFFF0A 		beq	.L158
 602              	.LVL57:
 603              	.LBB41:
 604              	.LBB42:
  26:D:/Work/DeviceTester/amazon-freertos/lib/third_party/jsmn\jsmn.c ****     token->start = start;
 605              		.loc 1 26 0
 606 0428 0410A0E3 		mov	r1, #4
 607              	.LVL58:
 608              	.LBE42:
 609              	.LBE41:
  73:D:/Work/DeviceTester/amazon-freertos/lib/third_party/jsmn\jsmn.c **** #ifdef JSMN_PARENT_LINKS
 610              		.loc 1 73 0
 611 042c 002094E5 		ldr	r2, [r4]
 612              	.LVL59:
 613              	.LBB46:
 614              	.LBB43:
  26:D:/Work/DeviceTester/amazon-freertos/lib/third_party/jsmn\jsmn.c ****     token->start = start;
 615              		.loc 1 26 0
 616 0430 0010C0E5 		strb	r1, [r0]
  29:D:/Work/DeviceTester/amazon-freertos/lib/third_party/jsmn\jsmn.c **** }
 617              		.loc 1 29 0
 618 0434 0010A0E3 		mov	r1, #0
 619 0438 0C1080E5 		str	r1, [r0, #12]
 620              	.LVL60:
 621              	.LBE43:
 622              	.LBE46:
  75:D:/Work/DeviceTester/amazon-freertos/lib/third_party/jsmn\jsmn.c **** #endif
 623              		.loc 1 75 0
 624 043c 081094E5 		ldr	r1, [r4, #8]
 625              	.LBB47:
 626              	.LBB44:
  28:D:/Work/DeviceTester/amazon-freertos/lib/third_party/jsmn\jsmn.c ****     token->size = 0;
 627              		.loc 1 28 0
 628 0440 082080E5 		str	r2, [r0, #8]
 629              	.LBE44:
 630              	.LBE47:
  77:D:/Work/DeviceTester/amazon-freertos/lib/third_party/jsmn\jsmn.c ****     return 0;
 631              		.loc 1 77 0
 632 0444 012042E2 		sub	r2, r2, #1
 633              	.LBB48:
 634              	.LBB45:
  27:D:/Work/DeviceTester/amazon-freertos/lib/third_party/jsmn\jsmn.c ****     token->end = end;
 635              		.loc 1 27 0
 636 0448 048080E5 		str	r8, [r0, #4]
 637              	.LBE45:
 638              	.LBE48:
  75:D:/Work/DeviceTester/amazon-freertos/lib/third_party/jsmn\jsmn.c **** #endif
 639              		.loc 1 75 0
 640 044c 101080E5 		str	r1, [r0, #16]
  77:D:/Work/DeviceTester/amazon-freertos/lib/third_party/jsmn\jsmn.c ****     return 0;
 641              		.loc 1 77 0
 642 0450 002084E5 		str	r2, [r4]
 643 0454 5CFFFFEA 		b	.L47
 644              	.LVL61:
 645              	.L50:
 646              	.LBE51:
 647              	.LBE55:
 648              	.LBE59:
 294:D:/Work/DeviceTester/amazon-freertos/lib/third_party/jsmn\jsmn.c ****             /* Unmatched opened object or array */
 649              		.loc 1 294 0
 650 0458 043094E5 		ldr	r3, [r4, #4]
 651 045c 1410A0E3 		mov	r1, #20
 652 0460 012043E2 		sub	r2, r3, #1
 653              	.LVL62:
 654 0464 916326E0 		mla	r6, r1, r3, r6
 655              	.LVL63:
 656              	.L53:
 294:D:/Work/DeviceTester/amazon-freertos/lib/third_party/jsmn\jsmn.c ****             /* Unmatched opened object or array */
 657              		.loc 1 294 0 is_stmt 0 discriminator 1
 658 0468 000052E3 		cmp	r2, #0
 659 046c F0FEFFBA 		blt	.L4
 296:D:/Work/DeviceTester/amazon-freertos/lib/third_party/jsmn\jsmn.c ****                 return JSMN_ERROR_PART;
 660              		.loc 1 296 0 is_stmt 1
 661 0470 103016E5 		ldr	r3, [r6, #-16]
 662 0474 010073E3 		cmn	r3, #1
 663 0478 0200000A 		beq	.L54
 296:D:/Work/DeviceTester/amazon-freertos/lib/third_party/jsmn\jsmn.c ****                 return JSMN_ERROR_PART;
 664              		.loc 1 296 0 is_stmt 0 discriminator 1
 665 047c 0C3016E5 		ldr	r3, [r6, #-12]
 666 0480 010073E3 		cmn	r3, #1
 667 0484 F7FEFF0A 		beq	.L65
 668              	.L54:
 294:D:/Work/DeviceTester/amazon-freertos/lib/third_party/jsmn\jsmn.c ****             /* Unmatched opened object or array */
 669              		.loc 1 294 0 is_stmt 1 discriminator 2
 670 0488 012042E2 		sub	r2, r2, #1
 671              	.LVL64:
 672 048c 146046E2 		sub	r6, r6, #20
 673 0490 F4FFFFEA 		b	.L53
 674              		.cfi_endproc
 675              	.LFE4:
 677              		.section	.text.jsmn_init,"ax",%progbits
 678              		.align	2
 679              		.global	jsmn_init
 680              		.syntax unified
 681              		.arm
 682              		.fpu neon
 684              	jsmn_init:
 685              	.LFB5:
 304:D:/Work/DeviceTester/amazon-freertos/lib/third_party/jsmn\jsmn.c **** 
 305:D:/Work/DeviceTester/amazon-freertos/lib/third_party/jsmn\jsmn.c **** /**
 306:D:/Work/DeviceTester/amazon-freertos/lib/third_party/jsmn\jsmn.c ****  * Creates a new parser based over a given  buffer with an array of tokens
 307:D:/Work/DeviceTester/amazon-freertos/lib/third_party/jsmn\jsmn.c ****  * available.
 308:D:/Work/DeviceTester/amazon-freertos/lib/third_party/jsmn\jsmn.c ****  */
 309:D:/Work/DeviceTester/amazon-freertos/lib/third_party/jsmn\jsmn.c **** void jsmn_init(jsmn_parser *parser) {
 686              		.loc 1 309 0
 687              		.cfi_startproc
 688              		@ args = 0, pretend = 0, frame = 0
 689              		@ frame_needed = 0, uses_anonymous_args = 0
 690              		@ link register save eliminated.
 691              	.LVL65:
 310:D:/Work/DeviceTester/amazon-freertos/lib/third_party/jsmn\jsmn.c ****     parser->pos = 0;
 692              		.loc 1 310 0
 693 0000 0030A0E3 		mov	r3, #0
 694 0004 003080E5 		str	r3, [r0]
 311:D:/Work/DeviceTester/amazon-freertos/lib/third_party/jsmn\jsmn.c ****     parser->toknext = 0;
 695              		.loc 1 311 0
 696 0008 043080E5 		str	r3, [r0, #4]
 312:D:/Work/DeviceTester/amazon-freertos/lib/third_party/jsmn\jsmn.c ****     parser->toksuper = -1;
 697              		.loc 1 312 0
 698 000c 0030E0E3 		mvn	r3, #0
 699 0010 083080E5 		str	r3, [r0, #8]
 700 0014 1EFF2FE1 		bx	lr
 701              		.cfi_endproc
 702              	.LFE5:
 704              		.text
 705              	.Letext0:
 706              		.file 2 "c:\\program files (x86)\\gnu tools arm embedded\\6 2017-q2-update\\lib\\gcc\\arm-none-eab
 707              		.file 3 "D:/Work/DeviceTester/amazon-freertos/lib/third_party/jsmn/jsmn.h"