   1              		.cpu cortex-a9
   2              		.eabi_attribute 28, 1
   3              		.eabi_attribute 20, 1
   4              		.eabi_attribute 21, 1
   5              		.eabi_attribute 23, 3
   6              		.eabi_attribute 24, 1
   7              		.eabi_attribute 25, 1
   8              		.eabi_attribute 26, 1
   9              		.eabi_attribute 30, 4
  10              		.eabi_attribute 34, 0
  11              		.eabi_attribute 18, 4
  12              		.file	"aws_ota_pal.c"
  13              		.text
  14              	.Ltext0:
  15              		.cfi_sections	.debug_frame
  16              		.section	.text.ota_flashing_task,"ax",%progbits
  17              		.align	2
  18              		.syntax unified
  19              		.arm
  20              		.fpu neon
  22              	ota_flashing_task:
  23              	.LFB22:
  24              		.file 1 "D:/Work/DeviceTester/amazon-freertos/lib/ota/portable/renesas/rza2m-gr-mango/aws_ota_pal.
   1:D:/Work/DeviceTester/amazon-freertos/lib/ota/portable/renesas/rza2m-gr-mango\aws_ota_pal.c **** /*
   2:D:/Work/DeviceTester/amazon-freertos/lib/ota/portable/renesas/rza2m-gr-mango\aws_ota_pal.c ****  * Amazon FreeRTOS OTA PAL V1.0.0
   3:D:/Work/DeviceTester/amazon-freertos/lib/ota/portable/renesas/rza2m-gr-mango\aws_ota_pal.c ****  * Copyright (C) 2018 Amazon.com, Inc. or its affiliates.  All Rights Reserved.
   4:D:/Work/DeviceTester/amazon-freertos/lib/ota/portable/renesas/rza2m-gr-mango\aws_ota_pal.c ****  *
   5:D:/Work/DeviceTester/amazon-freertos/lib/ota/portable/renesas/rza2m-gr-mango\aws_ota_pal.c ****  * Permission is hereby granted, free of charge, to any person obtaining a copy of
   6:D:/Work/DeviceTester/amazon-freertos/lib/ota/portable/renesas/rza2m-gr-mango\aws_ota_pal.c ****  * this software and associated documentation files (the "Software"), to deal in
   7:D:/Work/DeviceTester/amazon-freertos/lib/ota/portable/renesas/rza2m-gr-mango\aws_ota_pal.c ****  * the Software without restriction, including without limitation the rights to
   8:D:/Work/DeviceTester/amazon-freertos/lib/ota/portable/renesas/rza2m-gr-mango\aws_ota_pal.c ****  * use, copy, modify, merge, publish, distribute, sublicense, and/or sell copies of
   9:D:/Work/DeviceTester/amazon-freertos/lib/ota/portable/renesas/rza2m-gr-mango\aws_ota_pal.c ****  * the Software, and to permit persons to whom the Software is furnished to do so,
  10:D:/Work/DeviceTester/amazon-freertos/lib/ota/portable/renesas/rza2m-gr-mango\aws_ota_pal.c ****  * subject to the following conditions:
  11:D:/Work/DeviceTester/amazon-freertos/lib/ota/portable/renesas/rza2m-gr-mango\aws_ota_pal.c ****  *
  12:D:/Work/DeviceTester/amazon-freertos/lib/ota/portable/renesas/rza2m-gr-mango\aws_ota_pal.c ****  * The above copyright notice and this permission notice shall be included in all
  13:D:/Work/DeviceTester/amazon-freertos/lib/ota/portable/renesas/rza2m-gr-mango\aws_ota_pal.c ****  * copies or substantial portions of the Software.
  14:D:/Work/DeviceTester/amazon-freertos/lib/ota/portable/renesas/rza2m-gr-mango\aws_ota_pal.c ****  *
  15:D:/Work/DeviceTester/amazon-freertos/lib/ota/portable/renesas/rza2m-gr-mango\aws_ota_pal.c ****  * THE SOFTWARE IS PROVIDED "AS IS", WITHOUT WARRANTY OF ANY KIND, EXPRESS OR
  16:D:/Work/DeviceTester/amazon-freertos/lib/ota/portable/renesas/rza2m-gr-mango\aws_ota_pal.c ****  * IMPLIED, INCLUDING BUT NOT LIMITED TO THE WARRANTIES OF MERCHANTABILITY, FITNESS
  17:D:/Work/DeviceTester/amazon-freertos/lib/ota/portable/renesas/rza2m-gr-mango\aws_ota_pal.c ****  * FOR A PARTICULAR PURPOSE AND NONINFRINGEMENT. IN NO EVENT SHALL THE AUTHORS OR
  18:D:/Work/DeviceTester/amazon-freertos/lib/ota/portable/renesas/rza2m-gr-mango\aws_ota_pal.c ****  * COPYRIGHT HOLDERS BE LIABLE FOR ANY CLAIM, DAMAGES OR OTHER LIABILITY, WHETHER
  19:D:/Work/DeviceTester/amazon-freertos/lib/ota/portable/renesas/rza2m-gr-mango\aws_ota_pal.c ****  * IN AN ACTION OF CONTRACT, TORT OR OTHERWISE, ARISING FROM, OUT OF OR IN
  20:D:/Work/DeviceTester/amazon-freertos/lib/ota/portable/renesas/rza2m-gr-mango\aws_ota_pal.c ****  * CONNECTION WITH THE SOFTWARE OR THE USE OR OTHER DEALINGS IN THE SOFTWARE.
  21:D:/Work/DeviceTester/amazon-freertos/lib/ota/portable/renesas/rza2m-gr-mango\aws_ota_pal.c ****  *
  22:D:/Work/DeviceTester/amazon-freertos/lib/ota/portable/renesas/rza2m-gr-mango\aws_ota_pal.c ****  * http://aws.amazon.com/freertos
  23:D:/Work/DeviceTester/amazon-freertos/lib/ota/portable/renesas/rza2m-gr-mango\aws_ota_pal.c ****  * http://www.FreeRTOS.org
  24:D:/Work/DeviceTester/amazon-freertos/lib/ota/portable/renesas/rza2m-gr-mango\aws_ota_pal.c ****  */
  25:D:/Work/DeviceTester/amazon-freertos/lib/ota/portable/renesas/rza2m-gr-mango\aws_ota_pal.c **** 
  26:D:/Work/DeviceTester/amazon-freertos/lib/ota/portable/renesas/rza2m-gr-mango\aws_ota_pal.c **** /* C Runtime includes. */
  27:D:/Work/DeviceTester/amazon-freertos/lib/ota/portable/renesas/rza2m-gr-mango\aws_ota_pal.c **** #include <stdio.h>
  28:D:/Work/DeviceTester/amazon-freertos/lib/ota/portable/renesas/rza2m-gr-mango\aws_ota_pal.c **** #include <stdlib.h>
  29:D:/Work/DeviceTester/amazon-freertos/lib/ota/portable/renesas/rza2m-gr-mango\aws_ota_pal.c **** #include <string.h>
  30:D:/Work/DeviceTester/amazon-freertos/lib/ota/portable/renesas/rza2m-gr-mango\aws_ota_pal.c **** 
  31:D:/Work/DeviceTester/amazon-freertos/lib/ota/portable/renesas/rza2m-gr-mango\aws_ota_pal.c **** /* Amazon FreeRTOS include. */
  32:D:/Work/DeviceTester/amazon-freertos/lib/ota/portable/renesas/rza2m-gr-mango\aws_ota_pal.c **** #include "FreeRTOS.h"
  33:D:/Work/DeviceTester/amazon-freertos/lib/ota/portable/renesas/rza2m-gr-mango\aws_ota_pal.c **** #if (1)
  34:D:/Work/DeviceTester/amazon-freertos/lib/ota/portable/renesas/rza2m-gr-mango\aws_ota_pal.c **** /* old structure */
  35:D:/Work/DeviceTester/amazon-freertos/lib/ota/portable/renesas/rza2m-gr-mango\aws_ota_pal.c **** #include "aws_ota_pal.h"
  36:D:/Work/DeviceTester/amazon-freertos/lib/ota/portable/renesas/rza2m-gr-mango\aws_ota_pal.c **** #include "aws_ota_agent_internal.h"
  37:D:/Work/DeviceTester/amazon-freertos/lib/ota/portable/renesas/rza2m-gr-mango\aws_ota_pal.c **** #include "aws_pkcs11.h"
  38:D:/Work/DeviceTester/amazon-freertos/lib/ota/portable/renesas/rza2m-gr-mango\aws_ota_pal.c **** #include "aws_crypto.h"
  39:D:/Work/DeviceTester/amazon-freertos/lib/ota/portable/renesas/rza2m-gr-mango\aws_ota_pal.c **** #include "aws_ota_codesigner_certificate.h"
  40:D:/Work/DeviceTester/amazon-freertos/lib/ota/portable/renesas/rza2m-gr-mango\aws_ota_pal.c **** #else
  41:D:/Work/DeviceTester/amazon-freertos/lib/ota/portable/renesas/rza2m-gr-mango\aws_ota_pal.c **** /* new structure */
  42:D:/Work/DeviceTester/amazon-freertos/lib/ota/portable/renesas/rza2m-gr-mango\aws_ota_pal.c **** #include "aws_iot_ota_agent.h"
  43:D:/Work/DeviceTester/amazon-freertos/lib/ota/portable/renesas/rza2m-gr-mango\aws_ota_pal.c **** #include "iot_crypto.h"
  44:D:/Work/DeviceTester/amazon-freertos/lib/ota/portable/renesas/rza2m-gr-mango\aws_ota_pal.c **** #include "iot_pkcs11.h"
  45:D:/Work/DeviceTester/amazon-freertos/lib/ota/portable/renesas/rza2m-gr-mango\aws_ota_pal.c **** #include "aws_ota_codesigner_certificate.h"
  46:D:/Work/DeviceTester/amazon-freertos/lib/ota/portable/renesas/rza2m-gr-mango\aws_ota_pal.c **** #include "aws_ota_agent_config.h"
  47:D:/Work/DeviceTester/amazon-freertos/lib/ota/portable/renesas/rza2m-gr-mango\aws_ota_pal.c **** #include "croutine.h"
  48:D:/Work/DeviceTester/amazon-freertos/lib/ota/portable/renesas/rza2m-gr-mango\aws_ota_pal.c **** #endif
  49:D:/Work/DeviceTester/amazon-freertos/lib/ota/portable/renesas/rza2m-gr-mango\aws_ota_pal.c **** 
  50:D:/Work/DeviceTester/amazon-freertos/lib/ota/portable/renesas/rza2m-gr-mango\aws_ota_pal.c **** #include "task.h"
  51:D:/Work/DeviceTester/amazon-freertos/lib/ota/portable/renesas/rza2m-gr-mango\aws_ota_pal.c **** #include "semphr.h"
  52:D:/Work/DeviceTester/amazon-freertos/lib/ota/portable/renesas/rza2m-gr-mango\aws_ota_pal.c **** #include "queue.h"
  53:D:/Work/DeviceTester/amazon-freertos/lib/ota/portable/renesas/rza2m-gr-mango\aws_ota_pal.c **** #include "timers.h"
  54:D:/Work/DeviceTester/amazon-freertos/lib/ota/portable/renesas/rza2m-gr-mango\aws_ota_pal.c **** #include "event_groups.h"
  55:D:/Work/DeviceTester/amazon-freertos/lib/ota/portable/renesas/rza2m-gr-mango\aws_ota_pal.c **** #include "message_buffer.h"
  56:D:/Work/DeviceTester/amazon-freertos/lib/ota/portable/renesas/rza2m-gr-mango\aws_ota_pal.c **** #include "r_compiler_abstraction_api.h"
  57:D:/Work/DeviceTester/amazon-freertos/lib/ota/portable/renesas/rza2m-gr-mango\aws_ota_pal.c **** #include "iodefine.h"
  58:D:/Work/DeviceTester/amazon-freertos/lib/ota/portable/renesas/rza2m-gr-mango\aws_ota_pal.c **** #include "flash_api.h"
  59:D:/Work/DeviceTester/amazon-freertos/lib/ota/portable/renesas/rza2m-gr-mango\aws_ota_pal.c **** 
  60:D:/Work/DeviceTester/amazon-freertos/lib/ota/portable/renesas/rza2m-gr-mango\aws_ota_pal.c **** 
  61:D:/Work/DeviceTester/amazon-freertos/lib/ota/portable/renesas/rza2m-gr-mango\aws_ota_pal.c **** /* Specify the OTA signature algorithm we support on this platform. */
  62:D:/Work/DeviceTester/amazon-freertos/lib/ota/portable/renesas/rza2m-gr-mango\aws_ota_pal.c **** //const char cOTA_JSON_FileSignatureKey[ OTA_FILE_SIG_KEY_STR_MAX_LENGTH ] = "sig-sha1-rsa";   /* F
  63:D:/Work/DeviceTester/amazon-freertos/lib/ota/portable/renesas/rza2m-gr-mango\aws_ota_pal.c **** const char cOTA_JSON_FileSignatureKey[ OTA_FILE_SIG_KEY_STR_MAX_LENGTH ] = "sig-sha256-ecdsa";   /*
  64:D:/Work/DeviceTester/amazon-freertos/lib/ota/portable/renesas/rza2m-gr-mango\aws_ota_pal.c **** 
  65:D:/Work/DeviceTester/amazon-freertos/lib/ota/portable/renesas/rza2m-gr-mango\aws_ota_pal.c **** 
  66:D:/Work/DeviceTester/amazon-freertos/lib/ota/portable/renesas/rza2m-gr-mango\aws_ota_pal.c **** /* The static functions below (prvPAL_CheckFileSignature and prvPAL_ReadAndAssumeCertificate) 
  67:D:/Work/DeviceTester/amazon-freertos/lib/ota/portable/renesas/rza2m-gr-mango\aws_ota_pal.c ****  * are optionally implemented. If these functions are implemented then please set the following mac
  68:D:/Work/DeviceTester/amazon-freertos/lib/ota/portable/renesas/rza2m-gr-mango\aws_ota_pal.c ****  * aws_test_ota_config.h to 1:
  69:D:/Work/DeviceTester/amazon-freertos/lib/ota/portable/renesas/rza2m-gr-mango\aws_ota_pal.c ****  * otatestpalCHECK_FILE_SIGNATURE_SUPPORTED
  70:D:/Work/DeviceTester/amazon-freertos/lib/ota/portable/renesas/rza2m-gr-mango\aws_ota_pal.c ****  * otatestpalREAD_AND_ASSUME_CERTIFICATE_SUPPORTED
  71:D:/Work/DeviceTester/amazon-freertos/lib/ota/portable/renesas/rza2m-gr-mango\aws_ota_pal.c ****  */
  72:D:/Work/DeviceTester/amazon-freertos/lib/ota/portable/renesas/rza2m-gr-mango\aws_ota_pal.c **** 
  73:D:/Work/DeviceTester/amazon-freertos/lib/ota/portable/renesas/rza2m-gr-mango\aws_ota_pal.c **** /**
  74:D:/Work/DeviceTester/amazon-freertos/lib/ota/portable/renesas/rza2m-gr-mango\aws_ota_pal.c ****  * @brief Verify the signature of the specified file.
  75:D:/Work/DeviceTester/amazon-freertos/lib/ota/portable/renesas/rza2m-gr-mango\aws_ota_pal.c ****  * 
  76:D:/Work/DeviceTester/amazon-freertos/lib/ota/portable/renesas/rza2m-gr-mango\aws_ota_pal.c ****  * This function should be implemented if signature verification is not offloaded
  77:D:/Work/DeviceTester/amazon-freertos/lib/ota/portable/renesas/rza2m-gr-mango\aws_ota_pal.c ****  * to non-volatile memory io functions.
  78:D:/Work/DeviceTester/amazon-freertos/lib/ota/portable/renesas/rza2m-gr-mango\aws_ota_pal.c ****  * 
  79:D:/Work/DeviceTester/amazon-freertos/lib/ota/portable/renesas/rza2m-gr-mango\aws_ota_pal.c ****  * This function is called from prvPAL_Close().
  80:D:/Work/DeviceTester/amazon-freertos/lib/ota/portable/renesas/rza2m-gr-mango\aws_ota_pal.c ****  * 
  81:D:/Work/DeviceTester/amazon-freertos/lib/ota/portable/renesas/rza2m-gr-mango\aws_ota_pal.c ****  * @param[in] C OTA file context information.
  82:D:/Work/DeviceTester/amazon-freertos/lib/ota/portable/renesas/rza2m-gr-mango\aws_ota_pal.c ****  * 
  83:D:/Work/DeviceTester/amazon-freertos/lib/ota/portable/renesas/rza2m-gr-mango\aws_ota_pal.c ****  * @return Below are the valid return values for this function.
  84:D:/Work/DeviceTester/amazon-freertos/lib/ota/portable/renesas/rza2m-gr-mango\aws_ota_pal.c ****  * kOTA_Err_None if the signature verification passes.
  85:D:/Work/DeviceTester/amazon-freertos/lib/ota/portable/renesas/rza2m-gr-mango\aws_ota_pal.c ****  * kOTA_Err_SignatureCheckFailed if the signature verification fails.
  86:D:/Work/DeviceTester/amazon-freertos/lib/ota/portable/renesas/rza2m-gr-mango\aws_ota_pal.c ****  * kOTA_Err_BadSignerCert if the if the signature verification certificate cannot be read.
  87:D:/Work/DeviceTester/amazon-freertos/lib/ota/portable/renesas/rza2m-gr-mango\aws_ota_pal.c ****  * 
  88:D:/Work/DeviceTester/amazon-freertos/lib/ota/portable/renesas/rza2m-gr-mango\aws_ota_pal.c ****  */
  89:D:/Work/DeviceTester/amazon-freertos/lib/ota/portable/renesas/rza2m-gr-mango\aws_ota_pal.c **** static OTA_Err_t prvPAL_CheckFileSignature( OTA_FileContext_t * const C );
  90:D:/Work/DeviceTester/amazon-freertos/lib/ota/portable/renesas/rza2m-gr-mango\aws_ota_pal.c **** 
  91:D:/Work/DeviceTester/amazon-freertos/lib/ota/portable/renesas/rza2m-gr-mango\aws_ota_pal.c **** /**
  92:D:/Work/DeviceTester/amazon-freertos/lib/ota/portable/renesas/rza2m-gr-mango\aws_ota_pal.c ****  * @brief Read the specified signer certificate from the filesystem into a local buffer.
  93:D:/Work/DeviceTester/amazon-freertos/lib/ota/portable/renesas/rza2m-gr-mango\aws_ota_pal.c ****  * 
  94:D:/Work/DeviceTester/amazon-freertos/lib/ota/portable/renesas/rza2m-gr-mango\aws_ota_pal.c ****  * The allocated memory returned becomes the property of the caller who is responsible for freeing 
  95:D:/Work/DeviceTester/amazon-freertos/lib/ota/portable/renesas/rza2m-gr-mango\aws_ota_pal.c ****  * 
  96:D:/Work/DeviceTester/amazon-freertos/lib/ota/portable/renesas/rza2m-gr-mango\aws_ota_pal.c ****  * This function is called from prvPAL_CheckFileSignature(). It should be implemented if signature
  97:D:/Work/DeviceTester/amazon-freertos/lib/ota/portable/renesas/rza2m-gr-mango\aws_ota_pal.c ****  * verification is not offloaded to non-volatile memory io function.
  98:D:/Work/DeviceTester/amazon-freertos/lib/ota/portable/renesas/rza2m-gr-mango\aws_ota_pal.c ****  * 
  99:D:/Work/DeviceTester/amazon-freertos/lib/ota/portable/renesas/rza2m-gr-mango\aws_ota_pal.c ****  * @param[in] pucCertName The file path of the certificate file.
 100:D:/Work/DeviceTester/amazon-freertos/lib/ota/portable/renesas/rza2m-gr-mango\aws_ota_pal.c ****  * @param[out] ulSignerCertSize The size of the certificate file read.
 101:D:/Work/DeviceTester/amazon-freertos/lib/ota/portable/renesas/rza2m-gr-mango\aws_ota_pal.c ****  * 
 102:D:/Work/DeviceTester/amazon-freertos/lib/ota/portable/renesas/rza2m-gr-mango\aws_ota_pal.c ****  * @return A pointer to the signer certificate in the file system. NULL if the certificate cannot b
 103:D:/Work/DeviceTester/amazon-freertos/lib/ota/portable/renesas/rza2m-gr-mango\aws_ota_pal.c ****  * This returned pointer is the responsibility of the caller; if the memory is allocated the caller
 104:D:/Work/DeviceTester/amazon-freertos/lib/ota/portable/renesas/rza2m-gr-mango\aws_ota_pal.c ****  */
 105:D:/Work/DeviceTester/amazon-freertos/lib/ota/portable/renesas/rza2m-gr-mango\aws_ota_pal.c **** static uint8_t * prvPAL_ReadAndAssumeCertificate( const uint8_t * const pucCertName,
 106:D:/Work/DeviceTester/amazon-freertos/lib/ota/portable/renesas/rza2m-gr-mango\aws_ota_pal.c ****                                                   uint32_t * const ulSignerCertSize );
 107:D:/Work/DeviceTester/amazon-freertos/lib/ota/portable/renesas/rza2m-gr-mango\aws_ota_pal.c **** 
 108:D:/Work/DeviceTester/amazon-freertos/lib/ota/portable/renesas/rza2m-gr-mango\aws_ota_pal.c **** /*------------------------------------------ firmware update configuration (start) ----------------
 109:D:/Work/DeviceTester/amazon-freertos/lib/ota/portable/renesas/rza2m-gr-mango\aws_ota_pal.c **** /* R_FLASH_Write() arguments: specify "low address" and process to "high address" */
 110:D:/Work/DeviceTester/amazon-freertos/lib/ota/portable/renesas/rza2m-gr-mango\aws_ota_pal.c **** #define BOOT_LOADER_LOW_ADDRESS FLASH_CF_BLOCK_13
 111:D:/Work/DeviceTester/amazon-freertos/lib/ota/portable/renesas/rza2m-gr-mango\aws_ota_pal.c **** #define BOOT_LOADER_MIRROR_LOW_ADDRESS FLASH_CF_BLOCK_51
 112:D:/Work/DeviceTester/amazon-freertos/lib/ota/portable/renesas/rza2m-gr-mango\aws_ota_pal.c **** 
 113:D:/Work/DeviceTester/amazon-freertos/lib/ota/portable/renesas/rza2m-gr-mango\aws_ota_pal.c **** /* R_FLASH_Erase() arguments: specify "high address (low block number)" and process to "low address
 114:D:/Work/DeviceTester/amazon-freertos/lib/ota/portable/renesas/rza2m-gr-mango\aws_ota_pal.c **** #define BOOT_LOADER_MIRROR_HIGH_ADDRESS FLASH_CF_BLOCK_38
 115:D:/Work/DeviceTester/amazon-freertos/lib/ota/portable/renesas/rza2m-gr-mango\aws_ota_pal.c **** #define BOOT_LOADER_UPDATE_TEMPORARY_AREA_HIGH_ADDRESS FLASH_CF_BLOCK_52
 116:D:/Work/DeviceTester/amazon-freertos/lib/ota/portable/renesas/rza2m-gr-mango\aws_ota_pal.c **** 
 117:D:/Work/DeviceTester/amazon-freertos/lib/ota/portable/renesas/rza2m-gr-mango\aws_ota_pal.c **** #define BOOT_LOADER_MIRROR_BLOCK_NUM_FOR_SMALL 8
 118:D:/Work/DeviceTester/amazon-freertos/lib/ota/portable/renesas/rza2m-gr-mango\aws_ota_pal.c **** #define BOOT_LOADER_MIRROR_BLOCK_NUM_FOR_MEDIUM 6
 119:D:/Work/DeviceTester/amazon-freertos/lib/ota/portable/renesas/rza2m-gr-mango\aws_ota_pal.c **** 
 120:D:/Work/DeviceTester/amazon-freertos/lib/ota/portable/renesas/rza2m-gr-mango\aws_ota_pal.c **** #define FLASH_INTERRUPT_PRIORITY configMAX_SYSCALL_INTERRUPT_PRIORITY	/* 0(low) - 15(high) */
 121:D:/Work/DeviceTester/amazon-freertos/lib/ota/portable/renesas/rza2m-gr-mango\aws_ota_pal.c **** /*------------------------------------------ firmware update configuration (end) ------------------
 122:D:/Work/DeviceTester/amazon-freertos/lib/ota/portable/renesas/rza2m-gr-mango\aws_ota_pal.c **** 
 123:D:/Work/DeviceTester/amazon-freertos/lib/ota/portable/renesas/rza2m-gr-mango\aws_ota_pal.c **** static uint8_t hyper[0x400000] __attribute((section("HYPER_RAM")));
 124:D:/Work/DeviceTester/amazon-freertos/lib/ota/portable/renesas/rza2m-gr-mango\aws_ota_pal.c **** 
 125:D:/Work/DeviceTester/amazon-freertos/lib/ota/portable/renesas/rza2m-gr-mango\aws_ota_pal.c **** #define BOOT_LOADER_UPDATE_TEMPORARY_AREA_LOW_ADDRESS 	(uint32_t)(0x50A00000)
 126:D:/Work/DeviceTester/amazon-freertos/lib/ota/portable/renesas/rza2m-gr-mango\aws_ota_pal.c **** #define BOOT_LOADER_UPDATE_EXECUTE_AREA_LOW_ADDRESS 	(uint32_t)(0x50200000)
 127:D:/Work/DeviceTester/amazon-freertos/lib/ota/portable/renesas/rza2m-gr-mango\aws_ota_pal.c **** #define BOOT_LOADER_UPDATE_TARGET_BLOCK_NUMBER (uint32_t)(FLASH_NUM_BLOCKS_CF - BOOT_LOADER_MIRROR_
 128:D:/Work/DeviceTester/amazon-freertos/lib/ota/portable/renesas/rza2m-gr-mango\aws_ota_pal.c **** 
 129:D:/Work/DeviceTester/amazon-freertos/lib/ota/portable/renesas/rza2m-gr-mango\aws_ota_pal.c **** #define otaconfigMAX_NUM_BLOCKS_REQUEST        	128U
 130:D:/Work/DeviceTester/amazon-freertos/lib/ota/portable/renesas/rza2m-gr-mango\aws_ota_pal.c **** 
 131:D:/Work/DeviceTester/amazon-freertos/lib/ota/portable/renesas/rza2m-gr-mango\aws_ota_pal.c **** #define BOOT_LOADER_USER_FIRMWARE_HEADER_LENGTH 0x200
 132:D:/Work/DeviceTester/amazon-freertos/lib/ota/portable/renesas/rza2m-gr-mango\aws_ota_pal.c **** #define BOOT_LOADER_USER_FIRMWARE_DESCRIPTOR_LENGTH 0x100
 133:D:/Work/DeviceTester/amazon-freertos/lib/ota/portable/renesas/rza2m-gr-mango\aws_ota_pal.c **** 
 134:D:/Work/DeviceTester/amazon-freertos/lib/ota/portable/renesas/rza2m-gr-mango\aws_ota_pal.c **** #define LIFECYCLE_STATE_BLANK		(0xff)
 135:D:/Work/DeviceTester/amazon-freertos/lib/ota/portable/renesas/rza2m-gr-mango\aws_ota_pal.c **** #define LIFECYCLE_STATE_TESTING		(0xfe)
 136:D:/Work/DeviceTester/amazon-freertos/lib/ota/portable/renesas/rza2m-gr-mango\aws_ota_pal.c **** #define LIFECYCLE_STATE_VALID		(0xfc)
 137:D:/Work/DeviceTester/amazon-freertos/lib/ota/portable/renesas/rza2m-gr-mango\aws_ota_pal.c **** #define LIFECYCLE_STATE_INVALID		(0xf8)
 138:D:/Work/DeviceTester/amazon-freertos/lib/ota/portable/renesas/rza2m-gr-mango\aws_ota_pal.c **** 
 139:D:/Work/DeviceTester/amazon-freertos/lib/ota/portable/renesas/rza2m-gr-mango\aws_ota_pal.c **** #define R_OTA_ERR_NONE     			(0)
 140:D:/Work/DeviceTester/amazon-freertos/lib/ota/portable/renesas/rza2m-gr-mango\aws_ota_pal.c **** #define R_OTA_ERR_INVALID_CONTEXT   (-1)
 141:D:/Work/DeviceTester/amazon-freertos/lib/ota/portable/renesas/rza2m-gr-mango\aws_ota_pal.c **** #define R_OTA_ERR_QUEUE_SEND_FAIL	(-2)
 142:D:/Work/DeviceTester/amazon-freertos/lib/ota/portable/renesas/rza2m-gr-mango\aws_ota_pal.c **** 
 143:D:/Work/DeviceTester/amazon-freertos/lib/ota/portable/renesas/rza2m-gr-mango\aws_ota_pal.c **** #define OTA_FLASHING_IN_PROGRESS    (0)
 144:D:/Work/DeviceTester/amazon-freertos/lib/ota/portable/renesas/rza2m-gr-mango\aws_ota_pal.c **** #define OTA_FLASHING_COMPLETE       (1)
 145:D:/Work/DeviceTester/amazon-freertos/lib/ota/portable/renesas/rza2m-gr-mango\aws_ota_pal.c **** 
 146:D:/Work/DeviceTester/amazon-freertos/lib/ota/portable/renesas/rza2m-gr-mango\aws_ota_pal.c **** #define OTA_SIGUNATURE_SEQUENCE_TOP_VALUE 					(0x30)
 147:D:/Work/DeviceTester/amazon-freertos/lib/ota/portable/renesas/rza2m-gr-mango\aws_ota_pal.c **** #define OTA_SIGUNATURE_INTEGER_VALUE						(0x02)
 148:D:/Work/DeviceTester/amazon-freertos/lib/ota/portable/renesas/rza2m-gr-mango\aws_ota_pal.c **** #define OTA_SIGUNATURE_NOT_INCLUDE_NEGATIVE_NUMBER_VALUE	(0x20)
 149:D:/Work/DeviceTester/amazon-freertos/lib/ota/portable/renesas/rza2m-gr-mango\aws_ota_pal.c **** #define OTA_SIGUNATURE_INCLUDE_NEGATIVE_NUMBER_VALUE		(0x21)
 150:D:/Work/DeviceTester/amazon-freertos/lib/ota/portable/renesas/rza2m-gr-mango\aws_ota_pal.c **** #define OTA_SIGUNATURE_DATA_HALF_LENGTH						(32)
 151:D:/Work/DeviceTester/amazon-freertos/lib/ota/portable/renesas/rza2m-gr-mango\aws_ota_pal.c **** #define OTA_SIGUNATURE_SEQUENCE_INFO_LENGTH					(2)
 152:D:/Work/DeviceTester/amazon-freertos/lib/ota/portable/renesas/rza2m-gr-mango\aws_ota_pal.c **** #define OTA_SIGUNATURE_SKIP									(2)
 153:D:/Work/DeviceTester/amazon-freertos/lib/ota/portable/renesas/rza2m-gr-mango\aws_ota_pal.c **** 
 154:D:/Work/DeviceTester/amazon-freertos/lib/ota/portable/renesas/rza2m-gr-mango\aws_ota_pal.c **** #define OTA_FLASH_MIN_PGM_SIZE_MASK (0xFFFFFFFF - FLASH_CF_MIN_PGM_SIZE + 1)
 155:D:/Work/DeviceTester/amazon-freertos/lib/ota/portable/renesas/rza2m-gr-mango\aws_ota_pal.c **** 
 156:D:/Work/DeviceTester/amazon-freertos/lib/ota/portable/renesas/rza2m-gr-mango\aws_ota_pal.c **** typedef struct _load_firmware_control_block {
 157:D:/Work/DeviceTester/amazon-freertos/lib/ota/portable/renesas/rza2m-gr-mango\aws_ota_pal.c **** 	uint32_t status;
 158:D:/Work/DeviceTester/amazon-freertos/lib/ota/portable/renesas/rza2m-gr-mango\aws_ota_pal.c **** 	uint32_t processed_byte;
 159:D:/Work/DeviceTester/amazon-freertos/lib/ota/portable/renesas/rza2m-gr-mango\aws_ota_pal.c **** 	uint32_t total_image_length;
 160:D:/Work/DeviceTester/amazon-freertos/lib/ota/portable/renesas/rza2m-gr-mango\aws_ota_pal.c **** 	OTA_ImageState_t eSavedAgentState;
 161:D:/Work/DeviceTester/amazon-freertos/lib/ota/portable/renesas/rza2m-gr-mango\aws_ota_pal.c **** 	OTA_FileContext_t * OTA_FileContext;
 162:D:/Work/DeviceTester/amazon-freertos/lib/ota/portable/renesas/rza2m-gr-mango\aws_ota_pal.c **** }LOAD_FIRMWARE_CONTROL_BLOCK;
 163:D:/Work/DeviceTester/amazon-freertos/lib/ota/portable/renesas/rza2m-gr-mango\aws_ota_pal.c **** 
 164:D:/Work/DeviceTester/amazon-freertos/lib/ota/portable/renesas/rza2m-gr-mango\aws_ota_pal.c **** typedef struct _flash_block
 165:D:/Work/DeviceTester/amazon-freertos/lib/ota/portable/renesas/rza2m-gr-mango\aws_ota_pal.c **** {
 166:D:/Work/DeviceTester/amazon-freertos/lib/ota/portable/renesas/rza2m-gr-mango\aws_ota_pal.c **** 	uint32_t offset;
 167:D:/Work/DeviceTester/amazon-freertos/lib/ota/portable/renesas/rza2m-gr-mango\aws_ota_pal.c **** 	uint8_t	*binary;
 168:D:/Work/DeviceTester/amazon-freertos/lib/ota/portable/renesas/rza2m-gr-mango\aws_ota_pal.c **** 	uint32_t length;
 169:D:/Work/DeviceTester/amazon-freertos/lib/ota/portable/renesas/rza2m-gr-mango\aws_ota_pal.c **** }FLASH_BLOCK;
 170:D:/Work/DeviceTester/amazon-freertos/lib/ota/portable/renesas/rza2m-gr-mango\aws_ota_pal.c **** 
 171:D:/Work/DeviceTester/amazon-freertos/lib/ota/portable/renesas/rza2m-gr-mango\aws_ota_pal.c **** typedef struct _fragmented_flash_block_list
 172:D:/Work/DeviceTester/amazon-freertos/lib/ota/portable/renesas/rza2m-gr-mango\aws_ota_pal.c **** {
 173:D:/Work/DeviceTester/amazon-freertos/lib/ota/portable/renesas/rza2m-gr-mango\aws_ota_pal.c **** 	FLASH_BLOCK content;
 174:D:/Work/DeviceTester/amazon-freertos/lib/ota/portable/renesas/rza2m-gr-mango\aws_ota_pal.c **** 	struct _fragmented_flash_block_list *next;
 175:D:/Work/DeviceTester/amazon-freertos/lib/ota/portable/renesas/rza2m-gr-mango\aws_ota_pal.c **** }FRAGMENTED_FLASH_BLOCK_LIST;
 176:D:/Work/DeviceTester/amazon-freertos/lib/ota/portable/renesas/rza2m-gr-mango\aws_ota_pal.c **** 
 177:D:/Work/DeviceTester/amazon-freertos/lib/ota/portable/renesas/rza2m-gr-mango\aws_ota_pal.c **** typedef struct _packet_block_for_queue
 178:D:/Work/DeviceTester/amazon-freertos/lib/ota/portable/renesas/rza2m-gr-mango\aws_ota_pal.c **** {
 179:D:/Work/DeviceTester/amazon-freertos/lib/ota/portable/renesas/rza2m-gr-mango\aws_ota_pal.c **** 	uint32_t ulOffset;
 180:D:/Work/DeviceTester/amazon-freertos/lib/ota/portable/renesas/rza2m-gr-mango\aws_ota_pal.c **** 	uint32_t length;
 181:D:/Work/DeviceTester/amazon-freertos/lib/ota/portable/renesas/rza2m-gr-mango\aws_ota_pal.c **** 	uint8_t *p_packet;
 182:D:/Work/DeviceTester/amazon-freertos/lib/ota/portable/renesas/rza2m-gr-mango\aws_ota_pal.c **** }PACKET_BLOCK_FOR_QUEUE;
 183:D:/Work/DeviceTester/amazon-freertos/lib/ota/portable/renesas/rza2m-gr-mango\aws_ota_pal.c **** 
 184:D:/Work/DeviceTester/amazon-freertos/lib/ota/portable/renesas/rza2m-gr-mango\aws_ota_pal.c **** typedef struct _firmware_update_control_block
 185:D:/Work/DeviceTester/amazon-freertos/lib/ota/portable/renesas/rza2m-gr-mango\aws_ota_pal.c **** {
 186:D:/Work/DeviceTester/amazon-freertos/lib/ota/portable/renesas/rza2m-gr-mango\aws_ota_pal.c **** 	uint8_t magic_code[7];
 187:D:/Work/DeviceTester/amazon-freertos/lib/ota/portable/renesas/rza2m-gr-mango\aws_ota_pal.c ****     uint8_t image_flag;
 188:D:/Work/DeviceTester/amazon-freertos/lib/ota/portable/renesas/rza2m-gr-mango\aws_ota_pal.c ****     uint8_t signature_type[32];
 189:D:/Work/DeviceTester/amazon-freertos/lib/ota/portable/renesas/rza2m-gr-mango\aws_ota_pal.c ****     uint32_t signature_size;
 190:D:/Work/DeviceTester/amazon-freertos/lib/ota/portable/renesas/rza2m-gr-mango\aws_ota_pal.c ****     uint8_t signature[256];
 191:D:/Work/DeviceTester/amazon-freertos/lib/ota/portable/renesas/rza2m-gr-mango\aws_ota_pal.c ****     uint32_t dataflash_flag;
 192:D:/Work/DeviceTester/amazon-freertos/lib/ota/portable/renesas/rza2m-gr-mango\aws_ota_pal.c ****     uint32_t dataflash_start_address;
 193:D:/Work/DeviceTester/amazon-freertos/lib/ota/portable/renesas/rza2m-gr-mango\aws_ota_pal.c ****     uint32_t dataflash_end_address;
 194:D:/Work/DeviceTester/amazon-freertos/lib/ota/portable/renesas/rza2m-gr-mango\aws_ota_pal.c ****     uint8_t reserved1[200];
 195:D:/Work/DeviceTester/amazon-freertos/lib/ota/portable/renesas/rza2m-gr-mango\aws_ota_pal.c ****     uint32_t sequence_number;
 196:D:/Work/DeviceTester/amazon-freertos/lib/ota/portable/renesas/rza2m-gr-mango\aws_ota_pal.c ****     uint32_t start_address;
 197:D:/Work/DeviceTester/amazon-freertos/lib/ota/portable/renesas/rza2m-gr-mango\aws_ota_pal.c ****     uint32_t end_address;
 198:D:/Work/DeviceTester/amazon-freertos/lib/ota/portable/renesas/rza2m-gr-mango\aws_ota_pal.c ****     uint32_t execution_address;
 199:D:/Work/DeviceTester/amazon-freertos/lib/ota/portable/renesas/rza2m-gr-mango\aws_ota_pal.c ****     uint32_t hardware_id;
 200:D:/Work/DeviceTester/amazon-freertos/lib/ota/portable/renesas/rza2m-gr-mango\aws_ota_pal.c ****     uint32_t image_size;
 201:D:/Work/DeviceTester/amazon-freertos/lib/ota/portable/renesas/rza2m-gr-mango\aws_ota_pal.c ****     uint8_t reserved2[232];
 202:D:/Work/DeviceTester/amazon-freertos/lib/ota/portable/renesas/rza2m-gr-mango\aws_ota_pal.c **** }FIRMWARE_UPDATE_CONTROL_BLOCK;
 203:D:/Work/DeviceTester/amazon-freertos/lib/ota/portable/renesas/rza2m-gr-mango\aws_ota_pal.c **** 
 204:D:/Work/DeviceTester/amazon-freertos/lib/ota/portable/renesas/rza2m-gr-mango\aws_ota_pal.c **** static uint32_t image_size = 0;
 205:D:/Work/DeviceTester/amazon-freertos/lib/ota/portable/renesas/rza2m-gr-mango\aws_ota_pal.c **** 
 206:D:/Work/DeviceTester/amazon-freertos/lib/ota/portable/renesas/rza2m-gr-mango\aws_ota_pal.c **** static int32_t ota_context_validate( OTA_FileContext_t * C );
 207:D:/Work/DeviceTester/amazon-freertos/lib/ota/portable/renesas/rza2m-gr-mango\aws_ota_pal.c **** static int32_t ota_context_update_user_firmware_header( OTA_FileContext_t * C );
 208:D:/Work/DeviceTester/amazon-freertos/lib/ota/portable/renesas/rza2m-gr-mango\aws_ota_pal.c **** static void ota_context_close( OTA_FileContext_t * C );
 209:D:/Work/DeviceTester/amazon-freertos/lib/ota/portable/renesas/rza2m-gr-mango\aws_ota_pal.c **** static void ota_flashing_task( void * pvParameters );
 210:D:/Work/DeviceTester/amazon-freertos/lib/ota/portable/renesas/rza2m-gr-mango\aws_ota_pal.c **** static void ota_flashing_callback(void *event);
 211:D:/Work/DeviceTester/amazon-freertos/lib/ota/portable/renesas/rza2m-gr-mango\aws_ota_pal.c **** static void ota_header_flashing_callback(void *event);
 212:D:/Work/DeviceTester/amazon-freertos/lib/ota/portable/renesas/rza2m-gr-mango\aws_ota_pal.c **** static CK_RV prvGetCertificateHandle( CK_FUNCTION_LIST_PTR pxFunctionList,
 213:D:/Work/DeviceTester/amazon-freertos/lib/ota/portable/renesas/rza2m-gr-mango\aws_ota_pal.c ****                                       CK_SESSION_HANDLE xSession,
 214:D:/Work/DeviceTester/amazon-freertos/lib/ota/portable/renesas/rza2m-gr-mango\aws_ota_pal.c ****                                       const char * pcLabelName,
 215:D:/Work/DeviceTester/amazon-freertos/lib/ota/portable/renesas/rza2m-gr-mango\aws_ota_pal.c ****                                       CK_OBJECT_HANDLE_PTR pxCertHandle );
 216:D:/Work/DeviceTester/amazon-freertos/lib/ota/portable/renesas/rza2m-gr-mango\aws_ota_pal.c **** static CK_RV prvGetCertificate( const char * pcLabelName,
 217:D:/Work/DeviceTester/amazon-freertos/lib/ota/portable/renesas/rza2m-gr-mango\aws_ota_pal.c ****                                 uint8_t ** ppucData,
 218:D:/Work/DeviceTester/amazon-freertos/lib/ota/portable/renesas/rza2m-gr-mango\aws_ota_pal.c ****                                 uint32_t * pulDataSize );
 219:D:/Work/DeviceTester/amazon-freertos/lib/ota/portable/renesas/rza2m-gr-mango\aws_ota_pal.c **** 
 220:D:/Work/DeviceTester/amazon-freertos/lib/ota/portable/renesas/rza2m-gr-mango\aws_ota_pal.c **** static FRAGMENTED_FLASH_BLOCK_LIST *fragmented_flash_block_list_insert(FRAGMENTED_FLASH_BLOCK_LIST 
 221:D:/Work/DeviceTester/amazon-freertos/lib/ota/portable/renesas/rza2m-gr-mango\aws_ota_pal.c **** static FRAGMENTED_FLASH_BLOCK_LIST *fragmented_flash_block_list_delete(FRAGMENTED_FLASH_BLOCK_LIST 
 222:D:/Work/DeviceTester/amazon-freertos/lib/ota/portable/renesas/rza2m-gr-mango\aws_ota_pal.c **** static FRAGMENTED_FLASH_BLOCK_LIST *fragmented_flash_block_list_print(FRAGMENTED_FLASH_BLOCK_LIST *
 223:D:/Work/DeviceTester/amazon-freertos/lib/ota/portable/renesas/rza2m-gr-mango\aws_ota_pal.c **** static FRAGMENTED_FLASH_BLOCK_LIST *fragmented_flash_block_list_assemble(FRAGMENTED_FLASH_BLOCK_LIS
 224:D:/Work/DeviceTester/amazon-freertos/lib/ota/portable/renesas/rza2m-gr-mango\aws_ota_pal.c **** 
 225:D:/Work/DeviceTester/amazon-freertos/lib/ota/portable/renesas/rza2m-gr-mango\aws_ota_pal.c **** static QueueHandle_t xQueue;
 226:D:/Work/DeviceTester/amazon-freertos/lib/ota/portable/renesas/rza2m-gr-mango\aws_ota_pal.c **** static TaskHandle_t xTask;
 227:D:/Work/DeviceTester/amazon-freertos/lib/ota/portable/renesas/rza2m-gr-mango\aws_ota_pal.c **** static xSemaphoreHandle xSemaphoreFlashig;
 228:D:/Work/DeviceTester/amazon-freertos/lib/ota/portable/renesas/rza2m-gr-mango\aws_ota_pal.c **** static xSemaphoreHandle xSemaphoreWriteBlock;
 229:D:/Work/DeviceTester/amazon-freertos/lib/ota/portable/renesas/rza2m-gr-mango\aws_ota_pal.c **** static volatile LOAD_FIRMWARE_CONTROL_BLOCK load_firmware_control_block;
 230:D:/Work/DeviceTester/amazon-freertos/lib/ota/portable/renesas/rza2m-gr-mango\aws_ota_pal.c **** static FRAGMENTED_FLASH_BLOCK_LIST *fragmented_flash_block_list;
 231:D:/Work/DeviceTester/amazon-freertos/lib/ota/portable/renesas/rza2m-gr-mango\aws_ota_pal.c **** static PACKET_BLOCK_FOR_QUEUE packet_block_for_queue1;
 232:D:/Work/DeviceTester/amazon-freertos/lib/ota/portable/renesas/rza2m-gr-mango\aws_ota_pal.c **** static PACKET_BLOCK_FOR_QUEUE packet_block_for_queue2;
 233:D:/Work/DeviceTester/amazon-freertos/lib/ota/portable/renesas/rza2m-gr-mango\aws_ota_pal.c **** static FIRMWARE_UPDATE_CONTROL_BLOCK *firmware_update_control_block_bank0 = (FIRMWARE_UPDATE_CONTRO
 234:D:/Work/DeviceTester/amazon-freertos/lib/ota/portable/renesas/rza2m-gr-mango\aws_ota_pal.c **** static volatile uint32_t gs_header_flashing_task;
 235:D:/Work/DeviceTester/amazon-freertos/lib/ota/portable/renesas/rza2m-gr-mango\aws_ota_pal.c **** static void software_reset(void);
 236:D:/Work/DeviceTester/amazon-freertos/lib/ota/portable/renesas/rza2m-gr-mango\aws_ota_pal.c **** #if defined(__IDT_MODE__)
 237:D:/Work/DeviceTester/amazon-freertos/lib/ota/portable/renesas/rza2m-gr-mango\aws_ota_pal.c **** volatile uint32_t wifi_reset_req = 0;
 238:D:/Work/DeviceTester/amazon-freertos/lib/ota/portable/renesas/rza2m-gr-mango\aws_ota_pal.c **** #endif
 239:D:/Work/DeviceTester/amazon-freertos/lib/ota/portable/renesas/rza2m-gr-mango\aws_ota_pal.c **** /*-----------------------------------------------------------*/
 240:D:/Work/DeviceTester/amazon-freertos/lib/ota/portable/renesas/rza2m-gr-mango\aws_ota_pal.c **** 
 241:D:/Work/DeviceTester/amazon-freertos/lib/ota/portable/renesas/rza2m-gr-mango\aws_ota_pal.c **** OTA_Err_t prvPAL_CreateFileForRx( OTA_FileContext_t * const C )
 242:D:/Work/DeviceTester/amazon-freertos/lib/ota/portable/renesas/rza2m-gr-mango\aws_ota_pal.c **** {
 243:D:/Work/DeviceTester/amazon-freertos/lib/ota/portable/renesas/rza2m-gr-mango\aws_ota_pal.c ****     DEFINE_OTA_METHOD_NAME( "prvPAL_CreateFileForRx" );
 244:D:/Work/DeviceTester/amazon-freertos/lib/ota/portable/renesas/rza2m-gr-mango\aws_ota_pal.c ****     OTA_LOG_L1("[%s] is called.\r\n", OTA_METHOD_NAME);
 245:D:/Work/DeviceTester/amazon-freertos/lib/ota/portable/renesas/rza2m-gr-mango\aws_ota_pal.c ****     OTA_LOG_L1("Compiled in [%s] [%s].\r\n", __DATE__, __TIME__);
 246:D:/Work/DeviceTester/amazon-freertos/lib/ota/portable/renesas/rza2m-gr-mango\aws_ota_pal.c ****     OTA_Err_t eResult = kOTA_Err_Uninitialized;
 247:D:/Work/DeviceTester/amazon-freertos/lib/ota/portable/renesas/rza2m-gr-mango\aws_ota_pal.c **** 
 248:D:/Work/DeviceTester/amazon-freertos/lib/ota/portable/renesas/rza2m-gr-mango\aws_ota_pal.c ****     if( C != NULL )
 249:D:/Work/DeviceTester/amazon-freertos/lib/ota/portable/renesas/rza2m-gr-mango\aws_ota_pal.c ****     {
 250:D:/Work/DeviceTester/amazon-freertos/lib/ota/portable/renesas/rza2m-gr-mango\aws_ota_pal.c ****         if( C->pucFilePath != NULL )
 251:D:/Work/DeviceTester/amazon-freertos/lib/ota/portable/renesas/rza2m-gr-mango\aws_ota_pal.c ****         {
 252:D:/Work/DeviceTester/amazon-freertos/lib/ota/portable/renesas/rza2m-gr-mango\aws_ota_pal.c **** 			/* create task/queue/semaphore for flashing */
 253:D:/Work/DeviceTester/amazon-freertos/lib/ota/portable/renesas/rza2m-gr-mango\aws_ota_pal.c **** 			xQueue = xQueueCreate(otaconfigMAX_NUM_BLOCKS_REQUEST, sizeof(PACKET_BLOCK_FOR_QUEUE));
 254:D:/Work/DeviceTester/amazon-freertos/lib/ota/portable/renesas/rza2m-gr-mango\aws_ota_pal.c **** 			xTaskCreate(ota_flashing_task, "OTA_FLASHING_TASK", configMINIMAL_STACK_SIZE, NULL, configMAX_PR
 255:D:/Work/DeviceTester/amazon-freertos/lib/ota/portable/renesas/rza2m-gr-mango\aws_ota_pal.c **** 			xSemaphoreFlashig = xSemaphoreCreateBinary();
 256:D:/Work/DeviceTester/amazon-freertos/lib/ota/portable/renesas/rza2m-gr-mango\aws_ota_pal.c **** 			xSemaphoreGive(xSemaphoreFlashig);
 257:D:/Work/DeviceTester/amazon-freertos/lib/ota/portable/renesas/rza2m-gr-mango\aws_ota_pal.c **** 			xSemaphoreWriteBlock = xSemaphoreCreateMutex();
 258:D:/Work/DeviceTester/amazon-freertos/lib/ota/portable/renesas/rza2m-gr-mango\aws_ota_pal.c **** 			xSemaphoreGive(xSemaphoreWriteBlock);
 259:D:/Work/DeviceTester/amazon-freertos/lib/ota/portable/renesas/rza2m-gr-mango\aws_ota_pal.c **** 			fragmented_flash_block_list = NULL;
 260:D:/Work/DeviceTester/amazon-freertos/lib/ota/portable/renesas/rza2m-gr-mango\aws_ota_pal.c **** 
 261:D:/Work/DeviceTester/amazon-freertos/lib/ota/portable/renesas/rza2m-gr-mango\aws_ota_pal.c **** 			load_firmware_control_block.OTA_FileContext = C;
 262:D:/Work/DeviceTester/amazon-freertos/lib/ota/portable/renesas/rza2m-gr-mango\aws_ota_pal.c **** 			load_firmware_control_block.total_image_length = 0;
 263:D:/Work/DeviceTester/amazon-freertos/lib/ota/portable/renesas/rza2m-gr-mango\aws_ota_pal.c **** 			load_firmware_control_block.eSavedAgentState = eOTA_ImageState_Unknown;
 264:D:/Work/DeviceTester/amazon-freertos/lib/ota/portable/renesas/rza2m-gr-mango\aws_ota_pal.c **** 			C->pucFile = (uint8_t *)&load_firmware_control_block;
 265:D:/Work/DeviceTester/amazon-freertos/lib/ota/portable/renesas/rza2m-gr-mango\aws_ota_pal.c **** 			eResult = kOTA_Err_None;
 266:D:/Work/DeviceTester/amazon-freertos/lib/ota/portable/renesas/rza2m-gr-mango\aws_ota_pal.c **** 		}
 267:D:/Work/DeviceTester/amazon-freertos/lib/ota/portable/renesas/rza2m-gr-mango\aws_ota_pal.c ****         else
 268:D:/Work/DeviceTester/amazon-freertos/lib/ota/portable/renesas/rza2m-gr-mango\aws_ota_pal.c ****         {
 269:D:/Work/DeviceTester/amazon-freertos/lib/ota/portable/renesas/rza2m-gr-mango\aws_ota_pal.c ****             eResult = kOTA_Err_RxFileCreateFailed;
 270:D:/Work/DeviceTester/amazon-freertos/lib/ota/portable/renesas/rza2m-gr-mango\aws_ota_pal.c ****             OTA_LOG_L1( "[%s] ERROR - Invalid context provided.\r\n", OTA_METHOD_NAME );
 271:D:/Work/DeviceTester/amazon-freertos/lib/ota/portable/renesas/rza2m-gr-mango\aws_ota_pal.c ****         }
 272:D:/Work/DeviceTester/amazon-freertos/lib/ota/portable/renesas/rza2m-gr-mango\aws_ota_pal.c ****     }
 273:D:/Work/DeviceTester/amazon-freertos/lib/ota/portable/renesas/rza2m-gr-mango\aws_ota_pal.c ****     else
 274:D:/Work/DeviceTester/amazon-freertos/lib/ota/portable/renesas/rza2m-gr-mango\aws_ota_pal.c ****     {
 275:D:/Work/DeviceTester/amazon-freertos/lib/ota/portable/renesas/rza2m-gr-mango\aws_ota_pal.c ****         eResult = kOTA_Err_RxFileCreateFailed;
 276:D:/Work/DeviceTester/amazon-freertos/lib/ota/portable/renesas/rza2m-gr-mango\aws_ota_pal.c ****         OTA_LOG_L1( "[%s] ERROR - Invalid context provided.\r\n", OTA_METHOD_NAME );
 277:D:/Work/DeviceTester/amazon-freertos/lib/ota/portable/renesas/rza2m-gr-mango\aws_ota_pal.c ****     }
 278:D:/Work/DeviceTester/amazon-freertos/lib/ota/portable/renesas/rza2m-gr-mango\aws_ota_pal.c **** 
 279:D:/Work/DeviceTester/amazon-freertos/lib/ota/portable/renesas/rza2m-gr-mango\aws_ota_pal.c ****     return eResult;
 280:D:/Work/DeviceTester/amazon-freertos/lib/ota/portable/renesas/rza2m-gr-mango\aws_ota_pal.c **** }
 281:D:/Work/DeviceTester/amazon-freertos/lib/ota/portable/renesas/rza2m-gr-mango\aws_ota_pal.c **** /*-----------------------------------------------------------*/
 282:D:/Work/DeviceTester/amazon-freertos/lib/ota/portable/renesas/rza2m-gr-mango\aws_ota_pal.c **** 
 283:D:/Work/DeviceTester/amazon-freertos/lib/ota/portable/renesas/rza2m-gr-mango\aws_ota_pal.c **** OTA_Err_t prvPAL_Abort( OTA_FileContext_t * const C )
 284:D:/Work/DeviceTester/amazon-freertos/lib/ota/portable/renesas/rza2m-gr-mango\aws_ota_pal.c **** {
 285:D:/Work/DeviceTester/amazon-freertos/lib/ota/portable/renesas/rza2m-gr-mango\aws_ota_pal.c ****     DEFINE_OTA_METHOD_NAME( "prvPAL_Abort" );
 286:D:/Work/DeviceTester/amazon-freertos/lib/ota/portable/renesas/rza2m-gr-mango\aws_ota_pal.c ****     OTA_LOG_L1("[%s] is called.\r\n", OTA_METHOD_NAME);
 287:D:/Work/DeviceTester/amazon-freertos/lib/ota/portable/renesas/rza2m-gr-mango\aws_ota_pal.c **** 
 288:D:/Work/DeviceTester/amazon-freertos/lib/ota/portable/renesas/rza2m-gr-mango\aws_ota_pal.c ****     OTA_Err_t eResult = kOTA_Err_None;
 289:D:/Work/DeviceTester/amazon-freertos/lib/ota/portable/renesas/rza2m-gr-mango\aws_ota_pal.c **** 
 290:D:/Work/DeviceTester/amazon-freertos/lib/ota/portable/renesas/rza2m-gr-mango\aws_ota_pal.c ****     if( ota_context_validate(C) == R_OTA_ERR_INVALID_CONTEXT )
 291:D:/Work/DeviceTester/amazon-freertos/lib/ota/portable/renesas/rza2m-gr-mango\aws_ota_pal.c ****     {
 292:D:/Work/DeviceTester/amazon-freertos/lib/ota/portable/renesas/rza2m-gr-mango\aws_ota_pal.c ****         eResult = kOTA_Err_FileClose;
 293:D:/Work/DeviceTester/amazon-freertos/lib/ota/portable/renesas/rza2m-gr-mango\aws_ota_pal.c ****     }
 294:D:/Work/DeviceTester/amazon-freertos/lib/ota/portable/renesas/rza2m-gr-mango\aws_ota_pal.c **** 
 295:D:/Work/DeviceTester/amazon-freertos/lib/ota/portable/renesas/rza2m-gr-mango\aws_ota_pal.c **** 	if (kOTA_Err_None == eResult)
 296:D:/Work/DeviceTester/amazon-freertos/lib/ota/portable/renesas/rza2m-gr-mango\aws_ota_pal.c **** 	{
 297:D:/Work/DeviceTester/amazon-freertos/lib/ota/portable/renesas/rza2m-gr-mango\aws_ota_pal.c **** 		/* delete task/queue for flashing */
 298:D:/Work/DeviceTester/amazon-freertos/lib/ota/portable/renesas/rza2m-gr-mango\aws_ota_pal.c **** 		if (NULL != xTask)
 299:D:/Work/DeviceTester/amazon-freertos/lib/ota/portable/renesas/rza2m-gr-mango\aws_ota_pal.c **** 		{
 300:D:/Work/DeviceTester/amazon-freertos/lib/ota/portable/renesas/rza2m-gr-mango\aws_ota_pal.c **** 			vTaskDelete(xTask);
 301:D:/Work/DeviceTester/amazon-freertos/lib/ota/portable/renesas/rza2m-gr-mango\aws_ota_pal.c **** 			xTask = NULL;
 302:D:/Work/DeviceTester/amazon-freertos/lib/ota/portable/renesas/rza2m-gr-mango\aws_ota_pal.c **** 		}
 303:D:/Work/DeviceTester/amazon-freertos/lib/ota/portable/renesas/rza2m-gr-mango\aws_ota_pal.c **** 		if (NULL != xQueue)
 304:D:/Work/DeviceTester/amazon-freertos/lib/ota/portable/renesas/rza2m-gr-mango\aws_ota_pal.c **** 		{
 305:D:/Work/DeviceTester/amazon-freertos/lib/ota/portable/renesas/rza2m-gr-mango\aws_ota_pal.c **** 			vQueueDelete(xQueue);
 306:D:/Work/DeviceTester/amazon-freertos/lib/ota/portable/renesas/rza2m-gr-mango\aws_ota_pal.c **** 			xQueue = NULL;
 307:D:/Work/DeviceTester/amazon-freertos/lib/ota/portable/renesas/rza2m-gr-mango\aws_ota_pal.c **** 		}
 308:D:/Work/DeviceTester/amazon-freertos/lib/ota/portable/renesas/rza2m-gr-mango\aws_ota_pal.c **** 		if (NULL != xSemaphoreFlashig)
 309:D:/Work/DeviceTester/amazon-freertos/lib/ota/portable/renesas/rza2m-gr-mango\aws_ota_pal.c **** 		{
 310:D:/Work/DeviceTester/amazon-freertos/lib/ota/portable/renesas/rza2m-gr-mango\aws_ota_pal.c **** 			vSemaphoreDelete(xSemaphoreFlashig);
 311:D:/Work/DeviceTester/amazon-freertos/lib/ota/portable/renesas/rza2m-gr-mango\aws_ota_pal.c **** 			xSemaphoreFlashig = NULL;
 312:D:/Work/DeviceTester/amazon-freertos/lib/ota/portable/renesas/rza2m-gr-mango\aws_ota_pal.c **** 		}
 313:D:/Work/DeviceTester/amazon-freertos/lib/ota/portable/renesas/rza2m-gr-mango\aws_ota_pal.c **** 		if (NULL != xSemaphoreWriteBlock)
 314:D:/Work/DeviceTester/amazon-freertos/lib/ota/portable/renesas/rza2m-gr-mango\aws_ota_pal.c **** 		{
 315:D:/Work/DeviceTester/amazon-freertos/lib/ota/portable/renesas/rza2m-gr-mango\aws_ota_pal.c **** 			vSemaphoreDelete(xSemaphoreWriteBlock);
 316:D:/Work/DeviceTester/amazon-freertos/lib/ota/portable/renesas/rza2m-gr-mango\aws_ota_pal.c **** 			xSemaphoreWriteBlock = NULL;
 317:D:/Work/DeviceTester/amazon-freertos/lib/ota/portable/renesas/rza2m-gr-mango\aws_ota_pal.c **** 		}
 318:D:/Work/DeviceTester/amazon-freertos/lib/ota/portable/renesas/rza2m-gr-mango\aws_ota_pal.c **** 	}
 319:D:/Work/DeviceTester/amazon-freertos/lib/ota/portable/renesas/rza2m-gr-mango\aws_ota_pal.c **** 
 320:D:/Work/DeviceTester/amazon-freertos/lib/ota/portable/renesas/rza2m-gr-mango\aws_ota_pal.c **** 	ota_context_close(C);
 321:D:/Work/DeviceTester/amazon-freertos/lib/ota/portable/renesas/rza2m-gr-mango\aws_ota_pal.c ****     return eResult;
 322:D:/Work/DeviceTester/amazon-freertos/lib/ota/portable/renesas/rza2m-gr-mango\aws_ota_pal.c **** }
 323:D:/Work/DeviceTester/amazon-freertos/lib/ota/portable/renesas/rza2m-gr-mango\aws_ota_pal.c **** /*-----------------------------------------------------------*/
 324:D:/Work/DeviceTester/amazon-freertos/lib/ota/portable/renesas/rza2m-gr-mango\aws_ota_pal.c **** 
 325:D:/Work/DeviceTester/amazon-freertos/lib/ota/portable/renesas/rza2m-gr-mango\aws_ota_pal.c **** /* Write a block of data to the specified file. */
 326:D:/Work/DeviceTester/amazon-freertos/lib/ota/portable/renesas/rza2m-gr-mango\aws_ota_pal.c **** int16_t prvPAL_WriteBlock( OTA_FileContext_t * const C,
 327:D:/Work/DeviceTester/amazon-freertos/lib/ota/portable/renesas/rza2m-gr-mango\aws_ota_pal.c ****                            uint32_t ulOffset,
 328:D:/Work/DeviceTester/amazon-freertos/lib/ota/portable/renesas/rza2m-gr-mango\aws_ota_pal.c ****                            uint8_t * const pacData,
 329:D:/Work/DeviceTester/amazon-freertos/lib/ota/portable/renesas/rza2m-gr-mango\aws_ota_pal.c ****                            uint32_t ulBlockSize )
 330:D:/Work/DeviceTester/amazon-freertos/lib/ota/portable/renesas/rza2m-gr-mango\aws_ota_pal.c **** {
 331:D:/Work/DeviceTester/amazon-freertos/lib/ota/portable/renesas/rza2m-gr-mango\aws_ota_pal.c ****     int16_t sNumBytesWritten = R_OTA_ERR_QUEUE_SEND_FAIL;
 332:D:/Work/DeviceTester/amazon-freertos/lib/ota/portable/renesas/rza2m-gr-mango\aws_ota_pal.c **** 	FLASH_BLOCK flash_block;
 333:D:/Work/DeviceTester/amazon-freertos/lib/ota/portable/renesas/rza2m-gr-mango\aws_ota_pal.c **** 	uint8_t *packet_buffer;
 334:D:/Work/DeviceTester/amazon-freertos/lib/ota/portable/renesas/rza2m-gr-mango\aws_ota_pal.c **** 
 335:D:/Work/DeviceTester/amazon-freertos/lib/ota/portable/renesas/rza2m-gr-mango\aws_ota_pal.c ****     DEFINE_OTA_METHOD_NAME( "prvPAL_WriteBlock" );
 336:D:/Work/DeviceTester/amazon-freertos/lib/ota/portable/renesas/rza2m-gr-mango\aws_ota_pal.c **** 	OTA_LOG_L1("[%s] is called.\r\n", OTA_METHOD_NAME);
 337:D:/Work/DeviceTester/amazon-freertos/lib/ota/portable/renesas/rza2m-gr-mango\aws_ota_pal.c **** 
 338:D:/Work/DeviceTester/amazon-freertos/lib/ota/portable/renesas/rza2m-gr-mango\aws_ota_pal.c **** 	xSemaphoreTake(xSemaphoreWriteBlock, portMAX_DELAY);
 339:D:/Work/DeviceTester/amazon-freertos/lib/ota/portable/renesas/rza2m-gr-mango\aws_ota_pal.c **** 
 340:D:/Work/DeviceTester/amazon-freertos/lib/ota/portable/renesas/rza2m-gr-mango\aws_ota_pal.c **** 	packet_buffer = pvPortMalloc(ulBlockSize);
 341:D:/Work/DeviceTester/amazon-freertos/lib/ota/portable/renesas/rza2m-gr-mango\aws_ota_pal.c **** 	memcpy(packet_buffer, pacData, ulBlockSize);
 342:D:/Work/DeviceTester/amazon-freertos/lib/ota/portable/renesas/rza2m-gr-mango\aws_ota_pal.c **** 	packet_block_for_queue1.p_packet = packet_buffer;
 343:D:/Work/DeviceTester/amazon-freertos/lib/ota/portable/renesas/rza2m-gr-mango\aws_ota_pal.c **** 	packet_block_for_queue1.ulOffset = ulOffset;
 344:D:/Work/DeviceTester/amazon-freertos/lib/ota/portable/renesas/rza2m-gr-mango\aws_ota_pal.c **** 	packet_block_for_queue1.length = ulBlockSize;
 345:D:/Work/DeviceTester/amazon-freertos/lib/ota/portable/renesas/rza2m-gr-mango\aws_ota_pal.c **** 	if(xQueueSend(xQueue, &packet_block_for_queue1, NULL) == pdPASS)
 346:D:/Work/DeviceTester/amazon-freertos/lib/ota/portable/renesas/rza2m-gr-mango\aws_ota_pal.c **** 	{
 347:D:/Work/DeviceTester/amazon-freertos/lib/ota/portable/renesas/rza2m-gr-mango\aws_ota_pal.c **** 		sNumBytesWritten = ( int16_t ) ulBlockSize;
 348:D:/Work/DeviceTester/amazon-freertos/lib/ota/portable/renesas/rza2m-gr-mango\aws_ota_pal.c **** 	}
 349:D:/Work/DeviceTester/amazon-freertos/lib/ota/portable/renesas/rza2m-gr-mango\aws_ota_pal.c **** 	else
 350:D:/Work/DeviceTester/amazon-freertos/lib/ota/portable/renesas/rza2m-gr-mango\aws_ota_pal.c **** 	{
 351:D:/Work/DeviceTester/amazon-freertos/lib/ota/portable/renesas/rza2m-gr-mango\aws_ota_pal.c **** 		vPortFree(packet_block_for_queue1.p_packet);
 352:D:/Work/DeviceTester/amazon-freertos/lib/ota/portable/renesas/rza2m-gr-mango\aws_ota_pal.c **** 		OTA_LOG_L1("OTA flashing queue send error.\r\n");
 353:D:/Work/DeviceTester/amazon-freertos/lib/ota/portable/renesas/rza2m-gr-mango\aws_ota_pal.c **** 		sNumBytesWritten = R_OTA_ERR_QUEUE_SEND_FAIL;
 354:D:/Work/DeviceTester/amazon-freertos/lib/ota/portable/renesas/rza2m-gr-mango\aws_ota_pal.c **** 	}
 355:D:/Work/DeviceTester/amazon-freertos/lib/ota/portable/renesas/rza2m-gr-mango\aws_ota_pal.c **** 
 356:D:/Work/DeviceTester/amazon-freertos/lib/ota/portable/renesas/rza2m-gr-mango\aws_ota_pal.c **** 	xSemaphoreGive(xSemaphoreWriteBlock);
 357:D:/Work/DeviceTester/amazon-freertos/lib/ota/portable/renesas/rza2m-gr-mango\aws_ota_pal.c **** 
 358:D:/Work/DeviceTester/amazon-freertos/lib/ota/portable/renesas/rza2m-gr-mango\aws_ota_pal.c **** 	return sNumBytesWritten;
 359:D:/Work/DeviceTester/amazon-freertos/lib/ota/portable/renesas/rza2m-gr-mango\aws_ota_pal.c **** }
 360:D:/Work/DeviceTester/amazon-freertos/lib/ota/portable/renesas/rza2m-gr-mango\aws_ota_pal.c **** /*-----------------------------------------------------------*/
 361:D:/Work/DeviceTester/amazon-freertos/lib/ota/portable/renesas/rza2m-gr-mango\aws_ota_pal.c **** 
 362:D:/Work/DeviceTester/amazon-freertos/lib/ota/portable/renesas/rza2m-gr-mango\aws_ota_pal.c **** OTA_Err_t prvPAL_CloseFile( OTA_FileContext_t * const C )
 363:D:/Work/DeviceTester/amazon-freertos/lib/ota/portable/renesas/rza2m-gr-mango\aws_ota_pal.c **** {
 364:D:/Work/DeviceTester/amazon-freertos/lib/ota/portable/renesas/rza2m-gr-mango\aws_ota_pal.c **** 	OTA_Err_t eResult = kOTA_Err_None;
 365:D:/Work/DeviceTester/amazon-freertos/lib/ota/portable/renesas/rza2m-gr-mango\aws_ota_pal.c **** 
 366:D:/Work/DeviceTester/amazon-freertos/lib/ota/portable/renesas/rza2m-gr-mango\aws_ota_pal.c ****     DEFINE_OTA_METHOD_NAME( "prvPAL_CloseFile" );
 367:D:/Work/DeviceTester/amazon-freertos/lib/ota/portable/renesas/rza2m-gr-mango\aws_ota_pal.c **** 
 368:D:/Work/DeviceTester/amazon-freertos/lib/ota/portable/renesas/rza2m-gr-mango\aws_ota_pal.c ****     if( ota_context_validate(C) == R_OTA_ERR_INVALID_CONTEXT )
 369:D:/Work/DeviceTester/amazon-freertos/lib/ota/portable/renesas/rza2m-gr-mango\aws_ota_pal.c ****     {
 370:D:/Work/DeviceTester/amazon-freertos/lib/ota/portable/renesas/rza2m-gr-mango\aws_ota_pal.c ****         eResult = kOTA_Err_FileClose;
 371:D:/Work/DeviceTester/amazon-freertos/lib/ota/portable/renesas/rza2m-gr-mango\aws_ota_pal.c ****     }
 372:D:/Work/DeviceTester/amazon-freertos/lib/ota/portable/renesas/rza2m-gr-mango\aws_ota_pal.c **** 
 373:D:/Work/DeviceTester/amazon-freertos/lib/ota/portable/renesas/rza2m-gr-mango\aws_ota_pal.c ****     if( C->pxSignature != NULL )
 374:D:/Work/DeviceTester/amazon-freertos/lib/ota/portable/renesas/rza2m-gr-mango\aws_ota_pal.c ****     {
 375:D:/Work/DeviceTester/amazon-freertos/lib/ota/portable/renesas/rza2m-gr-mango\aws_ota_pal.c **** 		eResult = prvPAL_CheckFileSignature(C);
 376:D:/Work/DeviceTester/amazon-freertos/lib/ota/portable/renesas/rza2m-gr-mango\aws_ota_pal.c **** 	}
 377:D:/Work/DeviceTester/amazon-freertos/lib/ota/portable/renesas/rza2m-gr-mango\aws_ota_pal.c **** 	else
 378:D:/Work/DeviceTester/amazon-freertos/lib/ota/portable/renesas/rza2m-gr-mango\aws_ota_pal.c ****     {
 379:D:/Work/DeviceTester/amazon-freertos/lib/ota/portable/renesas/rza2m-gr-mango\aws_ota_pal.c ****         eResult = kOTA_Err_SignatureCheckFailed;
 380:D:/Work/DeviceTester/amazon-freertos/lib/ota/portable/renesas/rza2m-gr-mango\aws_ota_pal.c ****     }
 381:D:/Work/DeviceTester/amazon-freertos/lib/ota/portable/renesas/rza2m-gr-mango\aws_ota_pal.c **** 
 382:D:/Work/DeviceTester/amazon-freertos/lib/ota/portable/renesas/rza2m-gr-mango\aws_ota_pal.c **** 	if (kOTA_Err_None == eResult)
 383:D:/Work/DeviceTester/amazon-freertos/lib/ota/portable/renesas/rza2m-gr-mango\aws_ota_pal.c **** 	{
 384:D:/Work/DeviceTester/amazon-freertos/lib/ota/portable/renesas/rza2m-gr-mango\aws_ota_pal.c **** 		/* Update the user firmware header. */
 385:D:/Work/DeviceTester/amazon-freertos/lib/ota/portable/renesas/rza2m-gr-mango\aws_ota_pal.c **** 		if (ota_context_update_user_firmware_header(C) == R_OTA_ERR_NONE)
 386:D:/Work/DeviceTester/amazon-freertos/lib/ota/portable/renesas/rza2m-gr-mango\aws_ota_pal.c **** 		{
 387:D:/Work/DeviceTester/amazon-freertos/lib/ota/portable/renesas/rza2m-gr-mango\aws_ota_pal.c **** 			OTA_LOG_L1( "[%s] User firmware header updated.\r\n", OTA_METHOD_NAME );
 388:D:/Work/DeviceTester/amazon-freertos/lib/ota/portable/renesas/rza2m-gr-mango\aws_ota_pal.c **** 		}
 389:D:/Work/DeviceTester/amazon-freertos/lib/ota/portable/renesas/rza2m-gr-mango\aws_ota_pal.c **** 		else
 390:D:/Work/DeviceTester/amazon-freertos/lib/ota/portable/renesas/rza2m-gr-mango\aws_ota_pal.c **** 		{
 391:D:/Work/DeviceTester/amazon-freertos/lib/ota/portable/renesas/rza2m-gr-mango\aws_ota_pal.c **** 			OTA_LOG_L1( "[%s] ERROR: Failed to update the image header.\r\n", OTA_METHOD_NAME );
 392:D:/Work/DeviceTester/amazon-freertos/lib/ota/portable/renesas/rza2m-gr-mango\aws_ota_pal.c **** 			eResult = kOTA_Err_FileClose;
 393:D:/Work/DeviceTester/amazon-freertos/lib/ota/portable/renesas/rza2m-gr-mango\aws_ota_pal.c **** 		}
 394:D:/Work/DeviceTester/amazon-freertos/lib/ota/portable/renesas/rza2m-gr-mango\aws_ota_pal.c **** 		/* delete task/queue for flashing */
 395:D:/Work/DeviceTester/amazon-freertos/lib/ota/portable/renesas/rza2m-gr-mango\aws_ota_pal.c **** 		if (NULL != xTask)
 396:D:/Work/DeviceTester/amazon-freertos/lib/ota/portable/renesas/rza2m-gr-mango\aws_ota_pal.c **** 		{
 397:D:/Work/DeviceTester/amazon-freertos/lib/ota/portable/renesas/rza2m-gr-mango\aws_ota_pal.c **** 			vTaskDelete(xTask);
 398:D:/Work/DeviceTester/amazon-freertos/lib/ota/portable/renesas/rza2m-gr-mango\aws_ota_pal.c **** 			xTask = NULL;
 399:D:/Work/DeviceTester/amazon-freertos/lib/ota/portable/renesas/rza2m-gr-mango\aws_ota_pal.c **** 		}
 400:D:/Work/DeviceTester/amazon-freertos/lib/ota/portable/renesas/rza2m-gr-mango\aws_ota_pal.c **** 		if (NULL != xQueue)
 401:D:/Work/DeviceTester/amazon-freertos/lib/ota/portable/renesas/rza2m-gr-mango\aws_ota_pal.c **** 		{
 402:D:/Work/DeviceTester/amazon-freertos/lib/ota/portable/renesas/rza2m-gr-mango\aws_ota_pal.c **** 			do
 403:D:/Work/DeviceTester/amazon-freertos/lib/ota/portable/renesas/rza2m-gr-mango\aws_ota_pal.c **** 			{
 404:D:/Work/DeviceTester/amazon-freertos/lib/ota/portable/renesas/rza2m-gr-mango\aws_ota_pal.c **** 				if (errQUEUE_FULL == xQueueReceive(xQueue, &packet_block_for_queue2, 0))
 405:D:/Work/DeviceTester/amazon-freertos/lib/ota/portable/renesas/rza2m-gr-mango\aws_ota_pal.c **** 				{
 406:D:/Work/DeviceTester/amazon-freertos/lib/ota/portable/renesas/rza2m-gr-mango\aws_ota_pal.c **** 					break;
 407:D:/Work/DeviceTester/amazon-freertos/lib/ota/portable/renesas/rza2m-gr-mango\aws_ota_pal.c **** 				}
 408:D:/Work/DeviceTester/amazon-freertos/lib/ota/portable/renesas/rza2m-gr-mango\aws_ota_pal.c **** 				else
 409:D:/Work/DeviceTester/amazon-freertos/lib/ota/portable/renesas/rza2m-gr-mango\aws_ota_pal.c **** 				{
 410:D:/Work/DeviceTester/amazon-freertos/lib/ota/portable/renesas/rza2m-gr-mango\aws_ota_pal.c **** 					vPortFree(packet_block_for_queue2.p_packet);
 411:D:/Work/DeviceTester/amazon-freertos/lib/ota/portable/renesas/rza2m-gr-mango\aws_ota_pal.c **** 				}
 412:D:/Work/DeviceTester/amazon-freertos/lib/ota/portable/renesas/rza2m-gr-mango\aws_ota_pal.c **** 			}
 413:D:/Work/DeviceTester/amazon-freertos/lib/ota/portable/renesas/rza2m-gr-mango\aws_ota_pal.c **** 			while(1);
 414:D:/Work/DeviceTester/amazon-freertos/lib/ota/portable/renesas/rza2m-gr-mango\aws_ota_pal.c **** 			vQueueDelete(xQueue);
 415:D:/Work/DeviceTester/amazon-freertos/lib/ota/portable/renesas/rza2m-gr-mango\aws_ota_pal.c **** 			xQueue = NULL;
 416:D:/Work/DeviceTester/amazon-freertos/lib/ota/portable/renesas/rza2m-gr-mango\aws_ota_pal.c **** 		}
 417:D:/Work/DeviceTester/amazon-freertos/lib/ota/portable/renesas/rza2m-gr-mango\aws_ota_pal.c **** 		if (NULL != xSemaphoreFlashig)
 418:D:/Work/DeviceTester/amazon-freertos/lib/ota/portable/renesas/rza2m-gr-mango\aws_ota_pal.c **** 		{
 419:D:/Work/DeviceTester/amazon-freertos/lib/ota/portable/renesas/rza2m-gr-mango\aws_ota_pal.c **** 			vSemaphoreDelete(xSemaphoreFlashig);
 420:D:/Work/DeviceTester/amazon-freertos/lib/ota/portable/renesas/rza2m-gr-mango\aws_ota_pal.c **** 			xSemaphoreFlashig = NULL;
 421:D:/Work/DeviceTester/amazon-freertos/lib/ota/portable/renesas/rza2m-gr-mango\aws_ota_pal.c **** 		}
 422:D:/Work/DeviceTester/amazon-freertos/lib/ota/portable/renesas/rza2m-gr-mango\aws_ota_pal.c **** 		if (NULL != xSemaphoreWriteBlock)
 423:D:/Work/DeviceTester/amazon-freertos/lib/ota/portable/renesas/rza2m-gr-mango\aws_ota_pal.c **** 		{
 424:D:/Work/DeviceTester/amazon-freertos/lib/ota/portable/renesas/rza2m-gr-mango\aws_ota_pal.c **** 			vSemaphoreDelete(xSemaphoreWriteBlock);
 425:D:/Work/DeviceTester/amazon-freertos/lib/ota/portable/renesas/rza2m-gr-mango\aws_ota_pal.c **** 			xSemaphoreWriteBlock = NULL;
 426:D:/Work/DeviceTester/amazon-freertos/lib/ota/portable/renesas/rza2m-gr-mango\aws_ota_pal.c **** 		}
 427:D:/Work/DeviceTester/amazon-freertos/lib/ota/portable/renesas/rza2m-gr-mango\aws_ota_pal.c **** 	}
 428:D:/Work/DeviceTester/amazon-freertos/lib/ota/portable/renesas/rza2m-gr-mango\aws_ota_pal.c **** 	else
 429:D:/Work/DeviceTester/amazon-freertos/lib/ota/portable/renesas/rza2m-gr-mango\aws_ota_pal.c **** 	{
 430:D:/Work/DeviceTester/amazon-freertos/lib/ota/portable/renesas/rza2m-gr-mango\aws_ota_pal.c **** 		load_firmware_control_block.eSavedAgentState = eOTA_ImageState_Rejected;
 431:D:/Work/DeviceTester/amazon-freertos/lib/ota/portable/renesas/rza2m-gr-mango\aws_ota_pal.c **** 	}
 432:D:/Work/DeviceTester/amazon-freertos/lib/ota/portable/renesas/rza2m-gr-mango\aws_ota_pal.c **** 
 433:D:/Work/DeviceTester/amazon-freertos/lib/ota/portable/renesas/rza2m-gr-mango\aws_ota_pal.c **** 	ota_context_close(C);
 434:D:/Work/DeviceTester/amazon-freertos/lib/ota/portable/renesas/rza2m-gr-mango\aws_ota_pal.c **** 	return eResult;
 435:D:/Work/DeviceTester/amazon-freertos/lib/ota/portable/renesas/rza2m-gr-mango\aws_ota_pal.c **** }
 436:D:/Work/DeviceTester/amazon-freertos/lib/ota/portable/renesas/rza2m-gr-mango\aws_ota_pal.c **** /*-----------------------------------------------------------*/
 437:D:/Work/DeviceTester/amazon-freertos/lib/ota/portable/renesas/rza2m-gr-mango\aws_ota_pal.c **** 
 438:D:/Work/DeviceTester/amazon-freertos/lib/ota/portable/renesas/rza2m-gr-mango\aws_ota_pal.c **** static OTA_Err_t prvPAL_CheckFileSignature( OTA_FileContext_t * const C )
 439:D:/Work/DeviceTester/amazon-freertos/lib/ota/portable/renesas/rza2m-gr-mango\aws_ota_pal.c **** {
 440:D:/Work/DeviceTester/amazon-freertos/lib/ota/portable/renesas/rza2m-gr-mango\aws_ota_pal.c ****     DEFINE_OTA_METHOD_NAME( "prvPAL_CheckFileSignature" );
 441:D:/Work/DeviceTester/amazon-freertos/lib/ota/portable/renesas/rza2m-gr-mango\aws_ota_pal.c **** 
 442:D:/Work/DeviceTester/amazon-freertos/lib/ota/portable/renesas/rza2m-gr-mango\aws_ota_pal.c ****     OTA_Err_t eResult;
 443:D:/Work/DeviceTester/amazon-freertos/lib/ota/portable/renesas/rza2m-gr-mango\aws_ota_pal.c ****     uint32_t ulSignerCertSize;
 444:D:/Work/DeviceTester/amazon-freertos/lib/ota/portable/renesas/rza2m-gr-mango\aws_ota_pal.c ****     void * pvSigVerifyContext;
 445:D:/Work/DeviceTester/amazon-freertos/lib/ota/portable/renesas/rza2m-gr-mango\aws_ota_pal.c ****     uint8_t * pucSignerCert = NULL;
 446:D:/Work/DeviceTester/amazon-freertos/lib/ota/portable/renesas/rza2m-gr-mango\aws_ota_pal.c **** 	uint32_t flash_aligned_address = 0;
 447:D:/Work/DeviceTester/amazon-freertos/lib/ota/portable/renesas/rza2m-gr-mango\aws_ota_pal.c **** 
 448:D:/Work/DeviceTester/amazon-freertos/lib/ota/portable/renesas/rza2m-gr-mango\aws_ota_pal.c ****     /* Verify an ECDSA-SHA256 signature. */
 449:D:/Work/DeviceTester/amazon-freertos/lib/ota/portable/renesas/rza2m-gr-mango\aws_ota_pal.c ****     if( CRYPTO_SignatureVerificationStart( &pvSigVerifyContext, cryptoASYMMETRIC_ALGORITHM_ECDSA,
 450:D:/Work/DeviceTester/amazon-freertos/lib/ota/portable/renesas/rza2m-gr-mango\aws_ota_pal.c ****                                            cryptoHASH_ALGORITHM_SHA256 ) == pdFALSE )
 451:D:/Work/DeviceTester/amazon-freertos/lib/ota/portable/renesas/rza2m-gr-mango\aws_ota_pal.c ****     {
 452:D:/Work/DeviceTester/amazon-freertos/lib/ota/portable/renesas/rza2m-gr-mango\aws_ota_pal.c ****         return kOTA_Err_SignatureCheckFailed;
 453:D:/Work/DeviceTester/amazon-freertos/lib/ota/portable/renesas/rza2m-gr-mango\aws_ota_pal.c ****     }
 454:D:/Work/DeviceTester/amazon-freertos/lib/ota/portable/renesas/rza2m-gr-mango\aws_ota_pal.c ****     else
 455:D:/Work/DeviceTester/amazon-freertos/lib/ota/portable/renesas/rza2m-gr-mango\aws_ota_pal.c ****     {
 456:D:/Work/DeviceTester/amazon-freertos/lib/ota/portable/renesas/rza2m-gr-mango\aws_ota_pal.c ****         OTA_LOG_L1( "[%s] Started %s signature verification, file: %s\r\n", OTA_METHOD_NAME,
 457:D:/Work/DeviceTester/amazon-freertos/lib/ota/portable/renesas/rza2m-gr-mango\aws_ota_pal.c ****                     cOTA_JSON_FileSignatureKey, ( const char * ) C->pucCertFilepath );
 458:D:/Work/DeviceTester/amazon-freertos/lib/ota/portable/renesas/rza2m-gr-mango\aws_ota_pal.c ****         pucSignerCert = prvPAL_ReadAndAssumeCertificate( C->pucCertFilepath, &ulSignerCertSize );
 459:D:/Work/DeviceTester/amazon-freertos/lib/ota/portable/renesas/rza2m-gr-mango\aws_ota_pal.c **** 
 460:D:/Work/DeviceTester/amazon-freertos/lib/ota/portable/renesas/rza2m-gr-mango\aws_ota_pal.c ****         if( pucSignerCert == NULL )
 461:D:/Work/DeviceTester/amazon-freertos/lib/ota/portable/renesas/rza2m-gr-mango\aws_ota_pal.c ****         {
 462:D:/Work/DeviceTester/amazon-freertos/lib/ota/portable/renesas/rza2m-gr-mango\aws_ota_pal.c ****             eResult = kOTA_Err_BadSignerCert;
 463:D:/Work/DeviceTester/amazon-freertos/lib/ota/portable/renesas/rza2m-gr-mango\aws_ota_pal.c ****         }
 464:D:/Work/DeviceTester/amazon-freertos/lib/ota/portable/renesas/rza2m-gr-mango\aws_ota_pal.c ****         else
 465:D:/Work/DeviceTester/amazon-freertos/lib/ota/portable/renesas/rza2m-gr-mango\aws_ota_pal.c ****         {
 466:D:/Work/DeviceTester/amazon-freertos/lib/ota/portable/renesas/rza2m-gr-mango\aws_ota_pal.c ****             CRYPTO_SignatureVerificationUpdate( pvSigVerifyContext,
 467:D:/Work/DeviceTester/amazon-freertos/lib/ota/portable/renesas/rza2m-gr-mango\aws_ota_pal.c ****                                                 (const uint8_t*)hyper + BOOT_LOADER_USER_FIRMWARE_H
 468:D:/Work/DeviceTester/amazon-freertos/lib/ota/portable/renesas/rza2m-gr-mango\aws_ota_pal.c ****                                                 load_firmware_control_block.total_image_length);
 469:D:/Work/DeviceTester/amazon-freertos/lib/ota/portable/renesas/rza2m-gr-mango\aws_ota_pal.c **** 
 470:D:/Work/DeviceTester/amazon-freertos/lib/ota/portable/renesas/rza2m-gr-mango\aws_ota_pal.c ****             if( CRYPTO_SignatureVerificationFinal( pvSigVerifyContext, ( char * ) pucSignerCert, ul
 471:D:/Work/DeviceTester/amazon-freertos/lib/ota/portable/renesas/rza2m-gr-mango\aws_ota_pal.c ****                                                    C->pxSignature->ucData, C->pxSignature->usSize )
 472:D:/Work/DeviceTester/amazon-freertos/lib/ota/portable/renesas/rza2m-gr-mango\aws_ota_pal.c ****             {
 473:D:/Work/DeviceTester/amazon-freertos/lib/ota/portable/renesas/rza2m-gr-mango\aws_ota_pal.c ****                 OTA_LOG_L1( "[%s] ERROR: Finished %s signature verification, but signature verifica
 474:D:/Work/DeviceTester/amazon-freertos/lib/ota/portable/renesas/rza2m-gr-mango\aws_ota_pal.c ****                     cOTA_JSON_FileSignatureKey );
 475:D:/Work/DeviceTester/amazon-freertos/lib/ota/portable/renesas/rza2m-gr-mango\aws_ota_pal.c ****                 eResult = kOTA_Err_SignatureCheckFailed;
 476:D:/Work/DeviceTester/amazon-freertos/lib/ota/portable/renesas/rza2m-gr-mango\aws_ota_pal.c ****             }
 477:D:/Work/DeviceTester/amazon-freertos/lib/ota/portable/renesas/rza2m-gr-mango\aws_ota_pal.c ****             else
 478:D:/Work/DeviceTester/amazon-freertos/lib/ota/portable/renesas/rza2m-gr-mango\aws_ota_pal.c ****             {
 479:D:/Work/DeviceTester/amazon-freertos/lib/ota/portable/renesas/rza2m-gr-mango\aws_ota_pal.c ****                 OTA_LOG_L1( "[%s] PASS: Finished %s signature verification, signature verification 
 480:D:/Work/DeviceTester/amazon-freertos/lib/ota/portable/renesas/rza2m-gr-mango\aws_ota_pal.c ****                     cOTA_JSON_FileSignatureKey );
 481:D:/Work/DeviceTester/amazon-freertos/lib/ota/portable/renesas/rza2m-gr-mango\aws_ota_pal.c ****                 eResult = kOTA_Err_None;
 482:D:/Work/DeviceTester/amazon-freertos/lib/ota/portable/renesas/rza2m-gr-mango\aws_ota_pal.c ****             	image_size = load_firmware_control_block.total_image_length;
 483:D:/Work/DeviceTester/amazon-freertos/lib/ota/portable/renesas/rza2m-gr-mango\aws_ota_pal.c ****             }
 484:D:/Work/DeviceTester/amazon-freertos/lib/ota/portable/renesas/rza2m-gr-mango\aws_ota_pal.c ****         }
 485:D:/Work/DeviceTester/amazon-freertos/lib/ota/portable/renesas/rza2m-gr-mango\aws_ota_pal.c ****     }
 486:D:/Work/DeviceTester/amazon-freertos/lib/ota/portable/renesas/rza2m-gr-mango\aws_ota_pal.c **** 
 487:D:/Work/DeviceTester/amazon-freertos/lib/ota/portable/renesas/rza2m-gr-mango\aws_ota_pal.c ****     /* Free the signer certificate that we now own after prvPAL_ReadAndAssumeCertificate(). */
 488:D:/Work/DeviceTester/amazon-freertos/lib/ota/portable/renesas/rza2m-gr-mango\aws_ota_pal.c ****     if( pucSignerCert != NULL )
 489:D:/Work/DeviceTester/amazon-freertos/lib/ota/portable/renesas/rza2m-gr-mango\aws_ota_pal.c ****     {
 490:D:/Work/DeviceTester/amazon-freertos/lib/ota/portable/renesas/rza2m-gr-mango\aws_ota_pal.c ****         vPortFree( pucSignerCert );
 491:D:/Work/DeviceTester/amazon-freertos/lib/ota/portable/renesas/rza2m-gr-mango\aws_ota_pal.c ****     }
 492:D:/Work/DeviceTester/amazon-freertos/lib/ota/portable/renesas/rza2m-gr-mango\aws_ota_pal.c **** 
 493:D:/Work/DeviceTester/amazon-freertos/lib/ota/portable/renesas/rza2m-gr-mango\aws_ota_pal.c ****     return eResult;
 494:D:/Work/DeviceTester/amazon-freertos/lib/ota/portable/renesas/rza2m-gr-mango\aws_ota_pal.c **** }
 495:D:/Work/DeviceTester/amazon-freertos/lib/ota/portable/renesas/rza2m-gr-mango\aws_ota_pal.c **** /*-----------------------------------------------------------*/
 496:D:/Work/DeviceTester/amazon-freertos/lib/ota/portable/renesas/rza2m-gr-mango\aws_ota_pal.c **** 
 497:D:/Work/DeviceTester/amazon-freertos/lib/ota/portable/renesas/rza2m-gr-mango\aws_ota_pal.c **** static uint8_t * prvPAL_ReadAndAssumeCertificate( const uint8_t * const pucCertName,
 498:D:/Work/DeviceTester/amazon-freertos/lib/ota/portable/renesas/rza2m-gr-mango\aws_ota_pal.c ****                                                   uint32_t * const ulSignerCertSize )
 499:D:/Work/DeviceTester/amazon-freertos/lib/ota/portable/renesas/rza2m-gr-mango\aws_ota_pal.c **** {
 500:D:/Work/DeviceTester/amazon-freertos/lib/ota/portable/renesas/rza2m-gr-mango\aws_ota_pal.c ****     DEFINE_OTA_METHOD_NAME( "prvPAL_ReadAndAssumeCertificate" );
 501:D:/Work/DeviceTester/amazon-freertos/lib/ota/portable/renesas/rza2m-gr-mango\aws_ota_pal.c **** 
 502:D:/Work/DeviceTester/amazon-freertos/lib/ota/portable/renesas/rza2m-gr-mango\aws_ota_pal.c ****     uint8_t * pucCertData;
 503:D:/Work/DeviceTester/amazon-freertos/lib/ota/portable/renesas/rza2m-gr-mango\aws_ota_pal.c ****     uint32_t ulCertSize;
 504:D:/Work/DeviceTester/amazon-freertos/lib/ota/portable/renesas/rza2m-gr-mango\aws_ota_pal.c ****     uint8_t * pucSignerCert = NULL;
 505:D:/Work/DeviceTester/amazon-freertos/lib/ota/portable/renesas/rza2m-gr-mango\aws_ota_pal.c ****     CK_RV xResult;
 506:D:/Work/DeviceTester/amazon-freertos/lib/ota/portable/renesas/rza2m-gr-mango\aws_ota_pal.c **** 
 507:D:/Work/DeviceTester/amazon-freertos/lib/ota/portable/renesas/rza2m-gr-mango\aws_ota_pal.c ****     xResult = prvGetCertificate( ( const char * ) pucCertName, &pucSignerCert, ulSignerCertSize );
 508:D:/Work/DeviceTester/amazon-freertos/lib/ota/portable/renesas/rza2m-gr-mango\aws_ota_pal.c **** 
 509:D:/Work/DeviceTester/amazon-freertos/lib/ota/portable/renesas/rza2m-gr-mango\aws_ota_pal.c ****     if( ( xResult == CKR_OK ) && ( pucSignerCert != NULL ) )
 510:D:/Work/DeviceTester/amazon-freertos/lib/ota/portable/renesas/rza2m-gr-mango\aws_ota_pal.c ****     {
 511:D:/Work/DeviceTester/amazon-freertos/lib/ota/portable/renesas/rza2m-gr-mango\aws_ota_pal.c ****         OTA_LOG_L1( "[%s] Using cert with label: %s OK\r\n", OTA_METHOD_NAME, ( const char * ) pucC
 512:D:/Work/DeviceTester/amazon-freertos/lib/ota/portable/renesas/rza2m-gr-mango\aws_ota_pal.c ****     }
 513:D:/Work/DeviceTester/amazon-freertos/lib/ota/portable/renesas/rza2m-gr-mango\aws_ota_pal.c ****     else
 514:D:/Work/DeviceTester/amazon-freertos/lib/ota/portable/renesas/rza2m-gr-mango\aws_ota_pal.c ****     {
 515:D:/Work/DeviceTester/amazon-freertos/lib/ota/portable/renesas/rza2m-gr-mango\aws_ota_pal.c ****         OTA_LOG_L1( "[%s] No such certificate file: %s. Using aws_ota_codesigner_certificate.h.\r\n
 516:D:/Work/DeviceTester/amazon-freertos/lib/ota/portable/renesas/rza2m-gr-mango\aws_ota_pal.c ****                     ( const char * ) pucCertName );
 517:D:/Work/DeviceTester/amazon-freertos/lib/ota/portable/renesas/rza2m-gr-mango\aws_ota_pal.c **** 
 518:D:/Work/DeviceTester/amazon-freertos/lib/ota/portable/renesas/rza2m-gr-mango\aws_ota_pal.c ****         /* Allocate memory for the signer certificate plus a terminating zero so we can copy it and
 519:D:/Work/DeviceTester/amazon-freertos/lib/ota/portable/renesas/rza2m-gr-mango\aws_ota_pal.c ****         ulCertSize = sizeof( signingcredentialSIGNING_CERTIFICATE_PEM );
 520:D:/Work/DeviceTester/amazon-freertos/lib/ota/portable/renesas/rza2m-gr-mango\aws_ota_pal.c ****         pucSignerCert = pvPortMalloc( ulCertSize + 1 );                       /*lint !e9029 !e9079 
 521:D:/Work/DeviceTester/amazon-freertos/lib/ota/portable/renesas/rza2m-gr-mango\aws_ota_pal.c ****         pucCertData = ( uint8_t * ) signingcredentialSIGNING_CERTIFICATE_PEM; /*lint !e9005 we don'
 522:D:/Work/DeviceTester/amazon-freertos/lib/ota/portable/renesas/rza2m-gr-mango\aws_ota_pal.c **** 
 523:D:/Work/DeviceTester/amazon-freertos/lib/ota/portable/renesas/rza2m-gr-mango\aws_ota_pal.c ****         if( pucSignerCert != NULL )
 524:D:/Work/DeviceTester/amazon-freertos/lib/ota/portable/renesas/rza2m-gr-mango\aws_ota_pal.c ****         {
 525:D:/Work/DeviceTester/amazon-freertos/lib/ota/portable/renesas/rza2m-gr-mango\aws_ota_pal.c ****             memcpy( pucSignerCert, pucCertData, ulCertSize );
 526:D:/Work/DeviceTester/amazon-freertos/lib/ota/portable/renesas/rza2m-gr-mango\aws_ota_pal.c ****             /* The crypto code requires the terminating zero to be part of the length so add 1 to t
 527:D:/Work/DeviceTester/amazon-freertos/lib/ota/portable/renesas/rza2m-gr-mango\aws_ota_pal.c ****             pucSignerCert[ ulCertSize ] = 0U;
 528:D:/Work/DeviceTester/amazon-freertos/lib/ota/portable/renesas/rza2m-gr-mango\aws_ota_pal.c ****             *ulSignerCertSize = ulCertSize + 1U;
 529:D:/Work/DeviceTester/amazon-freertos/lib/ota/portable/renesas/rza2m-gr-mango\aws_ota_pal.c ****         }
 530:D:/Work/DeviceTester/amazon-freertos/lib/ota/portable/renesas/rza2m-gr-mango\aws_ota_pal.c ****         else
 531:D:/Work/DeviceTester/amazon-freertos/lib/ota/portable/renesas/rza2m-gr-mango\aws_ota_pal.c ****         {
 532:D:/Work/DeviceTester/amazon-freertos/lib/ota/portable/renesas/rza2m-gr-mango\aws_ota_pal.c ****             OTA_LOG_L1( "[%s] Error: No memory for certificate of size %d!\r\n", OTA_METHOD_NAME, u
 533:D:/Work/DeviceTester/amazon-freertos/lib/ota/portable/renesas/rza2m-gr-mango\aws_ota_pal.c ****         }
 534:D:/Work/DeviceTester/amazon-freertos/lib/ota/portable/renesas/rza2m-gr-mango\aws_ota_pal.c ****     }
 535:D:/Work/DeviceTester/amazon-freertos/lib/ota/portable/renesas/rza2m-gr-mango\aws_ota_pal.c **** 
 536:D:/Work/DeviceTester/amazon-freertos/lib/ota/portable/renesas/rza2m-gr-mango\aws_ota_pal.c ****     return pucSignerCert;
 537:D:/Work/DeviceTester/amazon-freertos/lib/ota/portable/renesas/rza2m-gr-mango\aws_ota_pal.c **** }
 538:D:/Work/DeviceTester/amazon-freertos/lib/ota/portable/renesas/rza2m-gr-mango\aws_ota_pal.c **** /*-----------------------------------------------------------*/
 539:D:/Work/DeviceTester/amazon-freertos/lib/ota/portable/renesas/rza2m-gr-mango\aws_ota_pal.c **** __attribute__((weak)) void WIFI_Off(void)
 540:D:/Work/DeviceTester/amazon-freertos/lib/ota/portable/renesas/rza2m-gr-mango\aws_ota_pal.c **** {
 541:D:/Work/DeviceTester/amazon-freertos/lib/ota/portable/renesas/rza2m-gr-mango\aws_ota_pal.c **** }
 542:D:/Work/DeviceTester/amazon-freertos/lib/ota/portable/renesas/rza2m-gr-mango\aws_ota_pal.c **** 
 543:D:/Work/DeviceTester/amazon-freertos/lib/ota/portable/renesas/rza2m-gr-mango\aws_ota_pal.c **** OTA_Err_t prvPAL_ResetDevice( void )
 544:D:/Work/DeviceTester/amazon-freertos/lib/ota/portable/renesas/rza2m-gr-mango\aws_ota_pal.c **** {
 545:D:/Work/DeviceTester/amazon-freertos/lib/ota/portable/renesas/rza2m-gr-mango\aws_ota_pal.c ****     DEFINE_OTA_METHOD_NAME("prvPAL_ResetDevice");
 546:D:/Work/DeviceTester/amazon-freertos/lib/ota/portable/renesas/rza2m-gr-mango\aws_ota_pal.c **** 	int32_t fl_ret;	
 547:D:/Work/DeviceTester/amazon-freertos/lib/ota/portable/renesas/rza2m-gr-mango\aws_ota_pal.c ****    	uint8_t block[BOOT_LOADER_USER_FIRMWARE_HEADER_LENGTH + BOOT_LOADER_USER_FIRMWARE_DESCRIPTOR_LE
 548:D:/Work/DeviceTester/amazon-freertos/lib/ota/portable/renesas/rza2m-gr-mango\aws_ota_pal.c **** 	FIRMWARE_UPDATE_CONTROL_BLOCK * p_block_header;	
 549:D:/Work/DeviceTester/amazon-freertos/lib/ota/portable/renesas/rza2m-gr-mango\aws_ota_pal.c **** 	uint32_t i = 0;	
 550:D:/Work/DeviceTester/amazon-freertos/lib/ota/portable/renesas/rza2m-gr-mango\aws_ota_pal.c **** 
 551:D:/Work/DeviceTester/amazon-freertos/lib/ota/portable/renesas/rza2m-gr-mango\aws_ota_pal.c ****     OTA_LOG_L1( "[%s] Resetting the device.\r\n", OTA_METHOD_NAME );
 552:D:/Work/DeviceTester/amazon-freertos/lib/ota/portable/renesas/rza2m-gr-mango\aws_ota_pal.c **** 
 553:D:/Work/DeviceTester/amazon-freertos/lib/ota/portable/renesas/rza2m-gr-mango\aws_ota_pal.c **** 	/* erase temporary area */
 554:D:/Work/DeviceTester/amazon-freertos/lib/ota/portable/renesas/rza2m-gr-mango\aws_ota_pal.c **** 	i=BOOT_LOADER_UPDATE_TEMPORARY_AREA_LOW_ADDRESS;
 555:D:/Work/DeviceTester/amazon-freertos/lib/ota/portable/renesas/rza2m-gr-mango\aws_ota_pal.c **** 	while (i<BOOT_LOADER_UPDATE_TEMPORARY_AREA_LOW_ADDRESS + image_size + BOOT_LOADER_USER_FIRMWARE_HE
 556:D:/Work/DeviceTester/amazon-freertos/lib/ota/portable/renesas/rza2m-gr-mango\aws_ota_pal.c **** 	{
 557:D:/Work/DeviceTester/amazon-freertos/lib/ota/portable/renesas/rza2m-gr-mango\aws_ota_pal.c **** 		flash_erase_sector(NULL,i);
 558:D:/Work/DeviceTester/amazon-freertos/lib/ota/portable/renesas/rza2m-gr-mango\aws_ota_pal.c **** 		i += flash_get_sector_size(NULL,i);
 559:D:/Work/DeviceTester/amazon-freertos/lib/ota/portable/renesas/rza2m-gr-mango\aws_ota_pal.c **** 	}
 560:D:/Work/DeviceTester/amazon-freertos/lib/ota/portable/renesas/rza2m-gr-mango\aws_ota_pal.c **** 	/* program temporary area */
 561:D:/Work/DeviceTester/amazon-freertos/lib/ota/portable/renesas/rza2m-gr-mango\aws_ota_pal.c **** 	fl_ret = flash_program_page(NULL,BOOT_LOADER_UPDATE_TEMPORARY_AREA_LOW_ADDRESS,hyper,image_size + 
 562:D:/Work/DeviceTester/amazon-freertos/lib/ota/portable/renesas/rza2m-gr-mango\aws_ota_pal.c **** 
 563:D:/Work/DeviceTester/amazon-freertos/lib/ota/portable/renesas/rza2m-gr-mango\aws_ota_pal.c **** 	if(fl_ret == -1)
 564:D:/Work/DeviceTester/amazon-freertos/lib/ota/portable/renesas/rza2m-gr-mango\aws_ota_pal.c **** 	{
 565:D:/Work/DeviceTester/amazon-freertos/lib/ota/portable/renesas/rza2m-gr-mango\aws_ota_pal.c **** 		printf("flash_program_page() returns error.\r\n");
 566:D:/Work/DeviceTester/amazon-freertos/lib/ota/portable/renesas/rza2m-gr-mango\aws_ota_pal.c **** 	}
 567:D:/Work/DeviceTester/amazon-freertos/lib/ota/portable/renesas/rza2m-gr-mango\aws_ota_pal.c **** 
 568:D:/Work/DeviceTester/amazon-freertos/lib/ota/portable/renesas/rza2m-gr-mango\aws_ota_pal.c **** 	memset(&hyper[0], 0x00, image_size + BOOT_LOADER_USER_FIRMWARE_HEADER_LENGTH);
 569:D:/Work/DeviceTester/amazon-freertos/lib/ota/portable/renesas/rza2m-gr-mango\aws_ota_pal.c **** 	software_reset();
 570:D:/Work/DeviceTester/amazon-freertos/lib/ota/portable/renesas/rza2m-gr-mango\aws_ota_pal.c **** 
 571:D:/Work/DeviceTester/amazon-freertos/lib/ota/portable/renesas/rza2m-gr-mango\aws_ota_pal.c **** 	while(1);	/* software reset */
 572:D:/Work/DeviceTester/amazon-freertos/lib/ota/portable/renesas/rza2m-gr-mango\aws_ota_pal.c **** 	
 573:D:/Work/DeviceTester/amazon-freertos/lib/ota/portable/renesas/rza2m-gr-mango\aws_ota_pal.c ****     /* We shouldn't actually get here if the board supports the auto reset.
 574:D:/Work/DeviceTester/amazon-freertos/lib/ota/portable/renesas/rza2m-gr-mango\aws_ota_pal.c ****      * But, it doesn't hurt anything if we do although someone will need to
 575:D:/Work/DeviceTester/amazon-freertos/lib/ota/portable/renesas/rza2m-gr-mango\aws_ota_pal.c ****      * reset the device for the new image to boot. */
 576:D:/Work/DeviceTester/amazon-freertos/lib/ota/portable/renesas/rza2m-gr-mango\aws_ota_pal.c ****     return kOTA_Err_None;
 577:D:/Work/DeviceTester/amazon-freertos/lib/ota/portable/renesas/rza2m-gr-mango\aws_ota_pal.c **** }
 578:D:/Work/DeviceTester/amazon-freertos/lib/ota/portable/renesas/rza2m-gr-mango\aws_ota_pal.c **** /*-----------------------------------------------------------*/
 579:D:/Work/DeviceTester/amazon-freertos/lib/ota/portable/renesas/rza2m-gr-mango\aws_ota_pal.c **** 
 580:D:/Work/DeviceTester/amazon-freertos/lib/ota/portable/renesas/rza2m-gr-mango\aws_ota_pal.c **** OTA_Err_t prvPAL_ActivateNewImage( void )
 581:D:/Work/DeviceTester/amazon-freertos/lib/ota/portable/renesas/rza2m-gr-mango\aws_ota_pal.c **** {
 582:D:/Work/DeviceTester/amazon-freertos/lib/ota/portable/renesas/rza2m-gr-mango\aws_ota_pal.c ****     DEFINE_OTA_METHOD_NAME("prvPAL_ActivateNewImage");
 583:D:/Work/DeviceTester/amazon-freertos/lib/ota/portable/renesas/rza2m-gr-mango\aws_ota_pal.c **** 
 584:D:/Work/DeviceTester/amazon-freertos/lib/ota/portable/renesas/rza2m-gr-mango\aws_ota_pal.c ****     OTA_LOG_L1( "[%s] Changing the Startup Bank\r\n", OTA_METHOD_NAME );
 585:D:/Work/DeviceTester/amazon-freertos/lib/ota/portable/renesas/rza2m-gr-mango\aws_ota_pal.c ****  
 586:D:/Work/DeviceTester/amazon-freertos/lib/ota/portable/renesas/rza2m-gr-mango\aws_ota_pal.c **** 	WIFI_Off();
 587:D:/Work/DeviceTester/amazon-freertos/lib/ota/portable/renesas/rza2m-gr-mango\aws_ota_pal.c ****     /* reset for self testing */
 588:D:/Work/DeviceTester/amazon-freertos/lib/ota/portable/renesas/rza2m-gr-mango\aws_ota_pal.c **** 	vTaskDelay(5000);
 589:D:/Work/DeviceTester/amazon-freertos/lib/ota/portable/renesas/rza2m-gr-mango\aws_ota_pal.c **** 	prvPAL_ResetDevice();	/* no return from this function */
 590:D:/Work/DeviceTester/amazon-freertos/lib/ota/portable/renesas/rza2m-gr-mango\aws_ota_pal.c **** 
 591:D:/Work/DeviceTester/amazon-freertos/lib/ota/portable/renesas/rza2m-gr-mango\aws_ota_pal.c ****     return kOTA_Err_None;
 592:D:/Work/DeviceTester/amazon-freertos/lib/ota/portable/renesas/rza2m-gr-mango\aws_ota_pal.c **** }
 593:D:/Work/DeviceTester/amazon-freertos/lib/ota/portable/renesas/rza2m-gr-mango\aws_ota_pal.c **** /*-----------------------------------------------------------*/
 594:D:/Work/DeviceTester/amazon-freertos/lib/ota/portable/renesas/rza2m-gr-mango\aws_ota_pal.c **** 
 595:D:/Work/DeviceTester/amazon-freertos/lib/ota/portable/renesas/rza2m-gr-mango\aws_ota_pal.c **** OTA_Err_t prvPAL_SetPlatformImageState( OTA_ImageState_t eState )
 596:D:/Work/DeviceTester/amazon-freertos/lib/ota/portable/renesas/rza2m-gr-mango\aws_ota_pal.c **** {
 597:D:/Work/DeviceTester/amazon-freertos/lib/ota/portable/renesas/rza2m-gr-mango\aws_ota_pal.c ****     DEFINE_OTA_METHOD_NAME( "prvPAL_SetPlatformImageState" );
 598:D:/Work/DeviceTester/amazon-freertos/lib/ota/portable/renesas/rza2m-gr-mango\aws_ota_pal.c ****     OTA_LOG_L1("[%s] is called.\r\n", OTA_METHOD_NAME);
 599:D:/Work/DeviceTester/amazon-freertos/lib/ota/portable/renesas/rza2m-gr-mango\aws_ota_pal.c **** 
 600:D:/Work/DeviceTester/amazon-freertos/lib/ota/portable/renesas/rza2m-gr-mango\aws_ota_pal.c ****     OTA_Err_t eResult = kOTA_Err_Uninitialized;
 601:D:/Work/DeviceTester/amazon-freertos/lib/ota/portable/renesas/rza2m-gr-mango\aws_ota_pal.c **** 
 602:D:/Work/DeviceTester/amazon-freertos/lib/ota/portable/renesas/rza2m-gr-mango\aws_ota_pal.c **** 	/* Save the image state to eSavedAgentState. */
 603:D:/Work/DeviceTester/amazon-freertos/lib/ota/portable/renesas/rza2m-gr-mango\aws_ota_pal.c **** 	if (eOTA_ImageState_Testing == load_firmware_control_block.eSavedAgentState)
 604:D:/Work/DeviceTester/amazon-freertos/lib/ota/portable/renesas/rza2m-gr-mango\aws_ota_pal.c **** 	{
 605:D:/Work/DeviceTester/amazon-freertos/lib/ota/portable/renesas/rza2m-gr-mango\aws_ota_pal.c **** 		switch (eState)
 606:D:/Work/DeviceTester/amazon-freertos/lib/ota/portable/renesas/rza2m-gr-mango\aws_ota_pal.c **** 		{
 607:D:/Work/DeviceTester/amazon-freertos/lib/ota/portable/renesas/rza2m-gr-mango\aws_ota_pal.c **** 			case eOTA_ImageState_Accepted:
 608:D:/Work/DeviceTester/amazon-freertos/lib/ota/portable/renesas/rza2m-gr-mango\aws_ota_pal.c **** 				eResult = kOTA_Err_None;
 609:D:/Work/DeviceTester/amazon-freertos/lib/ota/portable/renesas/rza2m-gr-mango\aws_ota_pal.c **** 				break;
 610:D:/Work/DeviceTester/amazon-freertos/lib/ota/portable/renesas/rza2m-gr-mango\aws_ota_pal.c **** 			case eOTA_ImageState_Rejected:
 611:D:/Work/DeviceTester/amazon-freertos/lib/ota/portable/renesas/rza2m-gr-mango\aws_ota_pal.c **** 				OTA_LOG_L1( "[%s] Rejected image.\r\n", OTA_METHOD_NAME );
 612:D:/Work/DeviceTester/amazon-freertos/lib/ota/portable/renesas/rza2m-gr-mango\aws_ota_pal.c **** #if defined(__IDT_MODE__)
 613:D:/Work/DeviceTester/amazon-freertos/lib/ota/portable/renesas/rza2m-gr-mango\aws_ota_pal.c **** 				wifi_reset_req = 1;
 614:D:/Work/DeviceTester/amazon-freertos/lib/ota/portable/renesas/rza2m-gr-mango\aws_ota_pal.c **** #endif
 615:D:/Work/DeviceTester/amazon-freertos/lib/ota/portable/renesas/rza2m-gr-mango\aws_ota_pal.c **** 				eResult = kOTA_Err_None;
 616:D:/Work/DeviceTester/amazon-freertos/lib/ota/portable/renesas/rza2m-gr-mango\aws_ota_pal.c **** 				break;
 617:D:/Work/DeviceTester/amazon-freertos/lib/ota/portable/renesas/rza2m-gr-mango\aws_ota_pal.c **** 			case eOTA_ImageState_Aborted:
 618:D:/Work/DeviceTester/amazon-freertos/lib/ota/portable/renesas/rza2m-gr-mango\aws_ota_pal.c **** 				OTA_LOG_L1( "[%s] Aborted image.\r\n", OTA_METHOD_NAME );
 619:D:/Work/DeviceTester/amazon-freertos/lib/ota/portable/renesas/rza2m-gr-mango\aws_ota_pal.c **** 				eResult = kOTA_Err_None;
 620:D:/Work/DeviceTester/amazon-freertos/lib/ota/portable/renesas/rza2m-gr-mango\aws_ota_pal.c **** 				break;
 621:D:/Work/DeviceTester/amazon-freertos/lib/ota/portable/renesas/rza2m-gr-mango\aws_ota_pal.c **** 			case eOTA_ImageState_Testing:
 622:D:/Work/DeviceTester/amazon-freertos/lib/ota/portable/renesas/rza2m-gr-mango\aws_ota_pal.c **** 				OTA_LOG_L1( "[%s] Testing.\r\n", OTA_METHOD_NAME );
 623:D:/Work/DeviceTester/amazon-freertos/lib/ota/portable/renesas/rza2m-gr-mango\aws_ota_pal.c **** 				eResult = kOTA_Err_None;
 624:D:/Work/DeviceTester/amazon-freertos/lib/ota/portable/renesas/rza2m-gr-mango\aws_ota_pal.c **** 				break;
 625:D:/Work/DeviceTester/amazon-freertos/lib/ota/portable/renesas/rza2m-gr-mango\aws_ota_pal.c **** 			default:
 626:D:/Work/DeviceTester/amazon-freertos/lib/ota/portable/renesas/rza2m-gr-mango\aws_ota_pal.c **** 				OTA_LOG_L1( "[%s] Unknown state received %d.\r\n", OTA_METHOD_NAME, ( int32_t ) eState );
 627:D:/Work/DeviceTester/amazon-freertos/lib/ota/portable/renesas/rza2m-gr-mango\aws_ota_pal.c **** 		        eResult = kOTA_Err_BadImageState;
 628:D:/Work/DeviceTester/amazon-freertos/lib/ota/portable/renesas/rza2m-gr-mango\aws_ota_pal.c **** 				break;
 629:D:/Work/DeviceTester/amazon-freertos/lib/ota/portable/renesas/rza2m-gr-mango\aws_ota_pal.c **** 		}
 630:D:/Work/DeviceTester/amazon-freertos/lib/ota/portable/renesas/rza2m-gr-mango\aws_ota_pal.c **** 	}
 631:D:/Work/DeviceTester/amazon-freertos/lib/ota/portable/renesas/rza2m-gr-mango\aws_ota_pal.c **** 	else
 632:D:/Work/DeviceTester/amazon-freertos/lib/ota/portable/renesas/rza2m-gr-mango\aws_ota_pal.c **** 	{
 633:D:/Work/DeviceTester/amazon-freertos/lib/ota/portable/renesas/rza2m-gr-mango\aws_ota_pal.c **** 		switch (eState)
 634:D:/Work/DeviceTester/amazon-freertos/lib/ota/portable/renesas/rza2m-gr-mango\aws_ota_pal.c **** 		{
 635:D:/Work/DeviceTester/amazon-freertos/lib/ota/portable/renesas/rza2m-gr-mango\aws_ota_pal.c **** 			case eOTA_ImageState_Accepted:
 636:D:/Work/DeviceTester/amazon-freertos/lib/ota/portable/renesas/rza2m-gr-mango\aws_ota_pal.c **** 				OTA_LOG_L1( "[%s] Not in commit pending so can not mark image valid (%d).\r\n", OTA_METHOD_NAME
 637:D:/Work/DeviceTester/amazon-freertos/lib/ota/portable/renesas/rza2m-gr-mango\aws_ota_pal.c **** 				eResult = kOTA_Err_CommitFailed;
 638:D:/Work/DeviceTester/amazon-freertos/lib/ota/portable/renesas/rza2m-gr-mango\aws_ota_pal.c **** 				break;
 639:D:/Work/DeviceTester/amazon-freertos/lib/ota/portable/renesas/rza2m-gr-mango\aws_ota_pal.c **** 			case eOTA_ImageState_Rejected:
 640:D:/Work/DeviceTester/amazon-freertos/lib/ota/portable/renesas/rza2m-gr-mango\aws_ota_pal.c **** 				OTA_LOG_L1( "[%s] Rejected image.\r\n", OTA_METHOD_NAME );
 641:D:/Work/DeviceTester/amazon-freertos/lib/ota/portable/renesas/rza2m-gr-mango\aws_ota_pal.c **** #if defined(__IDT_MODE__)
 642:D:/Work/DeviceTester/amazon-freertos/lib/ota/portable/renesas/rza2m-gr-mango\aws_ota_pal.c **** 				wifi_reset_req = 1;
 643:D:/Work/DeviceTester/amazon-freertos/lib/ota/portable/renesas/rza2m-gr-mango\aws_ota_pal.c **** #endif
 644:D:/Work/DeviceTester/amazon-freertos/lib/ota/portable/renesas/rza2m-gr-mango\aws_ota_pal.c **** 				eResult = kOTA_Err_None;
 645:D:/Work/DeviceTester/amazon-freertos/lib/ota/portable/renesas/rza2m-gr-mango\aws_ota_pal.c **** 				break;
 646:D:/Work/DeviceTester/amazon-freertos/lib/ota/portable/renesas/rza2m-gr-mango\aws_ota_pal.c **** 			case eOTA_ImageState_Aborted:
 647:D:/Work/DeviceTester/amazon-freertos/lib/ota/portable/renesas/rza2m-gr-mango\aws_ota_pal.c **** 				OTA_LOG_L1( "[%s] Aborted image.\r\n", OTA_METHOD_NAME );
 648:D:/Work/DeviceTester/amazon-freertos/lib/ota/portable/renesas/rza2m-gr-mango\aws_ota_pal.c **** 				eResult = kOTA_Err_None;
 649:D:/Work/DeviceTester/amazon-freertos/lib/ota/portable/renesas/rza2m-gr-mango\aws_ota_pal.c **** 				break;
 650:D:/Work/DeviceTester/amazon-freertos/lib/ota/portable/renesas/rza2m-gr-mango\aws_ota_pal.c **** 			case eOTA_ImageState_Testing:
 651:D:/Work/DeviceTester/amazon-freertos/lib/ota/portable/renesas/rza2m-gr-mango\aws_ota_pal.c **** 				OTA_LOG_L1( "[%s] Testing.\r\n", OTA_METHOD_NAME );
 652:D:/Work/DeviceTester/amazon-freertos/lib/ota/portable/renesas/rza2m-gr-mango\aws_ota_pal.c **** 				eResult = kOTA_Err_None;
 653:D:/Work/DeviceTester/amazon-freertos/lib/ota/portable/renesas/rza2m-gr-mango\aws_ota_pal.c **** 				break;
 654:D:/Work/DeviceTester/amazon-freertos/lib/ota/portable/renesas/rza2m-gr-mango\aws_ota_pal.c **** 			default:
 655:D:/Work/DeviceTester/amazon-freertos/lib/ota/portable/renesas/rza2m-gr-mango\aws_ota_pal.c **** 				OTA_LOG_L1( "[%s] Unknown state received %d.\r\n", OTA_METHOD_NAME, ( int32_t ) eState );
 656:D:/Work/DeviceTester/amazon-freertos/lib/ota/portable/renesas/rza2m-gr-mango\aws_ota_pal.c **** 		        eResult = kOTA_Err_BadImageState;
 657:D:/Work/DeviceTester/amazon-freertos/lib/ota/portable/renesas/rza2m-gr-mango\aws_ota_pal.c **** 				break;
 658:D:/Work/DeviceTester/amazon-freertos/lib/ota/portable/renesas/rza2m-gr-mango\aws_ota_pal.c **** 		}
 659:D:/Work/DeviceTester/amazon-freertos/lib/ota/portable/renesas/rza2m-gr-mango\aws_ota_pal.c **** 	}
 660:D:/Work/DeviceTester/amazon-freertos/lib/ota/portable/renesas/rza2m-gr-mango\aws_ota_pal.c **** 
 661:D:/Work/DeviceTester/amazon-freertos/lib/ota/portable/renesas/rza2m-gr-mango\aws_ota_pal.c **** 	load_firmware_control_block.eSavedAgentState = eState;
 662:D:/Work/DeviceTester/amazon-freertos/lib/ota/portable/renesas/rza2m-gr-mango\aws_ota_pal.c **** 
 663:D:/Work/DeviceTester/amazon-freertos/lib/ota/portable/renesas/rza2m-gr-mango\aws_ota_pal.c ****     return eResult;
 664:D:/Work/DeviceTester/amazon-freertos/lib/ota/portable/renesas/rza2m-gr-mango\aws_ota_pal.c **** }
 665:D:/Work/DeviceTester/amazon-freertos/lib/ota/portable/renesas/rza2m-gr-mango\aws_ota_pal.c **** /*-----------------------------------------------------------*/
 666:D:/Work/DeviceTester/amazon-freertos/lib/ota/portable/renesas/rza2m-gr-mango\aws_ota_pal.c **** 
 667:D:/Work/DeviceTester/amazon-freertos/lib/ota/portable/renesas/rza2m-gr-mango\aws_ota_pal.c **** OTA_PAL_ImageState_t prvPAL_GetPlatformImageState( void )
 668:D:/Work/DeviceTester/amazon-freertos/lib/ota/portable/renesas/rza2m-gr-mango\aws_ota_pal.c **** {
 669:D:/Work/DeviceTester/amazon-freertos/lib/ota/portable/renesas/rza2m-gr-mango\aws_ota_pal.c ****     DEFINE_OTA_METHOD_NAME( "prvPAL_GetPlatformImageState" );
 670:D:/Work/DeviceTester/amazon-freertos/lib/ota/portable/renesas/rza2m-gr-mango\aws_ota_pal.c ****     OTA_LOG_L1("[%s] is called.\r\n", OTA_METHOD_NAME);
 671:D:/Work/DeviceTester/amazon-freertos/lib/ota/portable/renesas/rza2m-gr-mango\aws_ota_pal.c **** 
 672:D:/Work/DeviceTester/amazon-freertos/lib/ota/portable/renesas/rza2m-gr-mango\aws_ota_pal.c **** 	OTA_PAL_ImageState_t ePalState = eOTA_PAL_ImageState_Unknown;
 673:D:/Work/DeviceTester/amazon-freertos/lib/ota/portable/renesas/rza2m-gr-mango\aws_ota_pal.c **** 
 674:D:/Work/DeviceTester/amazon-freertos/lib/ota/portable/renesas/rza2m-gr-mango\aws_ota_pal.c **** 	switch (load_firmware_control_block.eSavedAgentState)
 675:D:/Work/DeviceTester/amazon-freertos/lib/ota/portable/renesas/rza2m-gr-mango\aws_ota_pal.c **** 	{
 676:D:/Work/DeviceTester/amazon-freertos/lib/ota/portable/renesas/rza2m-gr-mango\aws_ota_pal.c **** 		case eOTA_ImageState_Testing:
 677:D:/Work/DeviceTester/amazon-freertos/lib/ota/portable/renesas/rza2m-gr-mango\aws_ota_pal.c **** 			ePalState = eOTA_PAL_ImageState_PendingCommit;
 678:D:/Work/DeviceTester/amazon-freertos/lib/ota/portable/renesas/rza2m-gr-mango\aws_ota_pal.c **** 			break;
 679:D:/Work/DeviceTester/amazon-freertos/lib/ota/portable/renesas/rza2m-gr-mango\aws_ota_pal.c **** 		case eOTA_ImageState_Accepted:
 680:D:/Work/DeviceTester/amazon-freertos/lib/ota/portable/renesas/rza2m-gr-mango\aws_ota_pal.c **** 			ePalState = eOTA_PAL_ImageState_Valid;
 681:D:/Work/DeviceTester/amazon-freertos/lib/ota/portable/renesas/rza2m-gr-mango\aws_ota_pal.c **** 			break;
 682:D:/Work/DeviceTester/amazon-freertos/lib/ota/portable/renesas/rza2m-gr-mango\aws_ota_pal.c **** 		case eOTA_ImageState_Unknown: // Uninitialized image state, assume a factory image
 683:D:/Work/DeviceTester/amazon-freertos/lib/ota/portable/renesas/rza2m-gr-mango\aws_ota_pal.c **** 			ePalState = eOTA_PAL_ImageState_Valid;
 684:D:/Work/DeviceTester/amazon-freertos/lib/ota/portable/renesas/rza2m-gr-mango\aws_ota_pal.c **** 			break;
 685:D:/Work/DeviceTester/amazon-freertos/lib/ota/portable/renesas/rza2m-gr-mango\aws_ota_pal.c **** 		case eOTA_ImageState_Rejected:
 686:D:/Work/DeviceTester/amazon-freertos/lib/ota/portable/renesas/rza2m-gr-mango\aws_ota_pal.c **** 		case eOTA_ImageState_Aborted:
 687:D:/Work/DeviceTester/amazon-freertos/lib/ota/portable/renesas/rza2m-gr-mango\aws_ota_pal.c **** 		default:
 688:D:/Work/DeviceTester/amazon-freertos/lib/ota/portable/renesas/rza2m-gr-mango\aws_ota_pal.c **** 			ePalState = eOTA_PAL_ImageState_Invalid;
 689:D:/Work/DeviceTester/amazon-freertos/lib/ota/portable/renesas/rza2m-gr-mango\aws_ota_pal.c **** 			break;
 690:D:/Work/DeviceTester/amazon-freertos/lib/ota/portable/renesas/rza2m-gr-mango\aws_ota_pal.c **** 	}
 691:D:/Work/DeviceTester/amazon-freertos/lib/ota/portable/renesas/rza2m-gr-mango\aws_ota_pal.c **** 
 692:D:/Work/DeviceTester/amazon-freertos/lib/ota/portable/renesas/rza2m-gr-mango\aws_ota_pal.c **** 	OTA_LOG_L1("Function call: prvPAL_GetPlatformImageState: [%d]\r\n", ePalState);
 693:D:/Work/DeviceTester/amazon-freertos/lib/ota/portable/renesas/rza2m-gr-mango\aws_ota_pal.c ****     return ePalState; /*lint !e64 !e480 !e481 I/O calls and return type are used per design. */
 694:D:/Work/DeviceTester/amazon-freertos/lib/ota/portable/renesas/rza2m-gr-mango\aws_ota_pal.c **** }
 695:D:/Work/DeviceTester/amazon-freertos/lib/ota/portable/renesas/rza2m-gr-mango\aws_ota_pal.c **** /*-----------------------------------------------------------*/
 696:D:/Work/DeviceTester/amazon-freertos/lib/ota/portable/renesas/rza2m-gr-mango\aws_ota_pal.c **** 
 697:D:/Work/DeviceTester/amazon-freertos/lib/ota/portable/renesas/rza2m-gr-mango\aws_ota_pal.c **** /* Provide access to private members for testing. */
 698:D:/Work/DeviceTester/amazon-freertos/lib/ota/portable/renesas/rza2m-gr-mango\aws_ota_pal.c **** #ifdef AMAZON_FREERTOS_ENABLE_UNIT_TESTS
 699:D:/Work/DeviceTester/amazon-freertos/lib/ota/portable/renesas/rza2m-gr-mango\aws_ota_pal.c ****     #include "aws_ota_pal_test_access_define.h"
 700:D:/Work/DeviceTester/amazon-freertos/lib/ota/portable/renesas/rza2m-gr-mango\aws_ota_pal.c **** #endif
 701:D:/Work/DeviceTester/amazon-freertos/lib/ota/portable/renesas/rza2m-gr-mango\aws_ota_pal.c **** 
 702:D:/Work/DeviceTester/amazon-freertos/lib/ota/portable/renesas/rza2m-gr-mango\aws_ota_pal.c **** static CK_RV prvGetCertificateHandle( CK_FUNCTION_LIST_PTR pxFunctionList,
 703:D:/Work/DeviceTester/amazon-freertos/lib/ota/portable/renesas/rza2m-gr-mango\aws_ota_pal.c ****                                       CK_SESSION_HANDLE xSession,
 704:D:/Work/DeviceTester/amazon-freertos/lib/ota/portable/renesas/rza2m-gr-mango\aws_ota_pal.c ****                                       const char * pcLabelName,
 705:D:/Work/DeviceTester/amazon-freertos/lib/ota/portable/renesas/rza2m-gr-mango\aws_ota_pal.c ****                                       CK_OBJECT_HANDLE_PTR pxCertHandle )
 706:D:/Work/DeviceTester/amazon-freertos/lib/ota/portable/renesas/rza2m-gr-mango\aws_ota_pal.c **** {
 707:D:/Work/DeviceTester/amazon-freertos/lib/ota/portable/renesas/rza2m-gr-mango\aws_ota_pal.c ****     CK_ATTRIBUTE xTemplate;
 708:D:/Work/DeviceTester/amazon-freertos/lib/ota/portable/renesas/rza2m-gr-mango\aws_ota_pal.c ****     CK_RV xResult = CKR_OK;
 709:D:/Work/DeviceTester/amazon-freertos/lib/ota/portable/renesas/rza2m-gr-mango\aws_ota_pal.c ****     CK_ULONG ulCount = 0;
 710:D:/Work/DeviceTester/amazon-freertos/lib/ota/portable/renesas/rza2m-gr-mango\aws_ota_pal.c ****     CK_BBOOL xFindInit = CK_FALSE;
 711:D:/Work/DeviceTester/amazon-freertos/lib/ota/portable/renesas/rza2m-gr-mango\aws_ota_pal.c **** 
 712:D:/Work/DeviceTester/amazon-freertos/lib/ota/portable/renesas/rza2m-gr-mango\aws_ota_pal.c ****     /* Get the certificate handle. */
 713:D:/Work/DeviceTester/amazon-freertos/lib/ota/portable/renesas/rza2m-gr-mango\aws_ota_pal.c ****     if( 0 == xResult )
 714:D:/Work/DeviceTester/amazon-freertos/lib/ota/portable/renesas/rza2m-gr-mango\aws_ota_pal.c ****     {
 715:D:/Work/DeviceTester/amazon-freertos/lib/ota/portable/renesas/rza2m-gr-mango\aws_ota_pal.c ****         xTemplate.type = CKA_LABEL;
 716:D:/Work/DeviceTester/amazon-freertos/lib/ota/portable/renesas/rza2m-gr-mango\aws_ota_pal.c ****         xTemplate.ulValueLen = strlen( pcLabelName ) + 1;
 717:D:/Work/DeviceTester/amazon-freertos/lib/ota/portable/renesas/rza2m-gr-mango\aws_ota_pal.c ****         xTemplate.pValue = ( char * ) pcLabelName;
 718:D:/Work/DeviceTester/amazon-freertos/lib/ota/portable/renesas/rza2m-gr-mango\aws_ota_pal.c ****         xResult = pxFunctionList->C_FindObjectsInit( xSession, &xTemplate, 1 );
 719:D:/Work/DeviceTester/amazon-freertos/lib/ota/portable/renesas/rza2m-gr-mango\aws_ota_pal.c ****     }
 720:D:/Work/DeviceTester/amazon-freertos/lib/ota/portable/renesas/rza2m-gr-mango\aws_ota_pal.c **** 
 721:D:/Work/DeviceTester/amazon-freertos/lib/ota/portable/renesas/rza2m-gr-mango\aws_ota_pal.c ****     if( 0 == xResult )
 722:D:/Work/DeviceTester/amazon-freertos/lib/ota/portable/renesas/rza2m-gr-mango\aws_ota_pal.c ****     {
 723:D:/Work/DeviceTester/amazon-freertos/lib/ota/portable/renesas/rza2m-gr-mango\aws_ota_pal.c ****         xFindInit = CK_TRUE;
 724:D:/Work/DeviceTester/amazon-freertos/lib/ota/portable/renesas/rza2m-gr-mango\aws_ota_pal.c ****         xResult = pxFunctionList->C_FindObjects( xSession,
 725:D:/Work/DeviceTester/amazon-freertos/lib/ota/portable/renesas/rza2m-gr-mango\aws_ota_pal.c ****                                                  ( CK_OBJECT_HANDLE_PTR ) pxCertHandle,
 726:D:/Work/DeviceTester/amazon-freertos/lib/ota/portable/renesas/rza2m-gr-mango\aws_ota_pal.c ****                                                  1,
 727:D:/Work/DeviceTester/amazon-freertos/lib/ota/portable/renesas/rza2m-gr-mango\aws_ota_pal.c ****                                                  &ulCount );
 728:D:/Work/DeviceTester/amazon-freertos/lib/ota/portable/renesas/rza2m-gr-mango\aws_ota_pal.c ****     }
 729:D:/Work/DeviceTester/amazon-freertos/lib/ota/portable/renesas/rza2m-gr-mango\aws_ota_pal.c **** 
 730:D:/Work/DeviceTester/amazon-freertos/lib/ota/portable/renesas/rza2m-gr-mango\aws_ota_pal.c ****     if( CK_TRUE == xFindInit )
 731:D:/Work/DeviceTester/amazon-freertos/lib/ota/portable/renesas/rza2m-gr-mango\aws_ota_pal.c ****     {
 732:D:/Work/DeviceTester/amazon-freertos/lib/ota/portable/renesas/rza2m-gr-mango\aws_ota_pal.c ****         xResult = pxFunctionList->C_FindObjectsFinal( xSession );
 733:D:/Work/DeviceTester/amazon-freertos/lib/ota/portable/renesas/rza2m-gr-mango\aws_ota_pal.c ****     }
 734:D:/Work/DeviceTester/amazon-freertos/lib/ota/portable/renesas/rza2m-gr-mango\aws_ota_pal.c **** 
 735:D:/Work/DeviceTester/amazon-freertos/lib/ota/portable/renesas/rza2m-gr-mango\aws_ota_pal.c ****     return xResult;
 736:D:/Work/DeviceTester/amazon-freertos/lib/ota/portable/renesas/rza2m-gr-mango\aws_ota_pal.c **** }
 737:D:/Work/DeviceTester/amazon-freertos/lib/ota/portable/renesas/rza2m-gr-mango\aws_ota_pal.c **** 
 738:D:/Work/DeviceTester/amazon-freertos/lib/ota/portable/renesas/rza2m-gr-mango\aws_ota_pal.c **** /* Note that this function mallocs a buffer for the certificate to reside in,
 739:D:/Work/DeviceTester/amazon-freertos/lib/ota/portable/renesas/rza2m-gr-mango\aws_ota_pal.c ****  * and it is the responsibility of the caller to free the buffer. */
 740:D:/Work/DeviceTester/amazon-freertos/lib/ota/portable/renesas/rza2m-gr-mango\aws_ota_pal.c **** static CK_RV prvGetCertificate( const char * pcLabelName,
 741:D:/Work/DeviceTester/amazon-freertos/lib/ota/portable/renesas/rza2m-gr-mango\aws_ota_pal.c ****                                 uint8_t ** ppucData,
 742:D:/Work/DeviceTester/amazon-freertos/lib/ota/portable/renesas/rza2m-gr-mango\aws_ota_pal.c ****                                 uint32_t * pulDataSize )
 743:D:/Work/DeviceTester/amazon-freertos/lib/ota/portable/renesas/rza2m-gr-mango\aws_ota_pal.c **** {
 744:D:/Work/DeviceTester/amazon-freertos/lib/ota/portable/renesas/rza2m-gr-mango\aws_ota_pal.c ****     /* Find the certificate */
 745:D:/Work/DeviceTester/amazon-freertos/lib/ota/portable/renesas/rza2m-gr-mango\aws_ota_pal.c ****     CK_OBJECT_HANDLE xHandle;
 746:D:/Work/DeviceTester/amazon-freertos/lib/ota/portable/renesas/rza2m-gr-mango\aws_ota_pal.c ****     CK_RV xResult;
 747:D:/Work/DeviceTester/amazon-freertos/lib/ota/portable/renesas/rza2m-gr-mango\aws_ota_pal.c ****     CK_FUNCTION_LIST_PTR xFunctionList;
 748:D:/Work/DeviceTester/amazon-freertos/lib/ota/portable/renesas/rza2m-gr-mango\aws_ota_pal.c ****     CK_SLOT_ID xSlotId;
 749:D:/Work/DeviceTester/amazon-freertos/lib/ota/portable/renesas/rza2m-gr-mango\aws_ota_pal.c ****     CK_ULONG xCount = 1;
 750:D:/Work/DeviceTester/amazon-freertos/lib/ota/portable/renesas/rza2m-gr-mango\aws_ota_pal.c ****     CK_SESSION_HANDLE xSession;
 751:D:/Work/DeviceTester/amazon-freertos/lib/ota/portable/renesas/rza2m-gr-mango\aws_ota_pal.c ****     CK_ATTRIBUTE xTemplate = { 0 };
 752:D:/Work/DeviceTester/amazon-freertos/lib/ota/portable/renesas/rza2m-gr-mango\aws_ota_pal.c ****     uint8_t * pucCert = NULL;
 753:D:/Work/DeviceTester/amazon-freertos/lib/ota/portable/renesas/rza2m-gr-mango\aws_ota_pal.c ****     CK_BBOOL xSessionOpen = CK_FALSE;
 754:D:/Work/DeviceTester/amazon-freertos/lib/ota/portable/renesas/rza2m-gr-mango\aws_ota_pal.c **** 
 755:D:/Work/DeviceTester/amazon-freertos/lib/ota/portable/renesas/rza2m-gr-mango\aws_ota_pal.c ****     xResult = C_GetFunctionList( &xFunctionList );
 756:D:/Work/DeviceTester/amazon-freertos/lib/ota/portable/renesas/rza2m-gr-mango\aws_ota_pal.c **** 
 757:D:/Work/DeviceTester/amazon-freertos/lib/ota/portable/renesas/rza2m-gr-mango\aws_ota_pal.c ****     if( CKR_OK == xResult )
 758:D:/Work/DeviceTester/amazon-freertos/lib/ota/portable/renesas/rza2m-gr-mango\aws_ota_pal.c ****     {
 759:D:/Work/DeviceTester/amazon-freertos/lib/ota/portable/renesas/rza2m-gr-mango\aws_ota_pal.c ****         xResult = xFunctionList->C_Initialize( NULL );
 760:D:/Work/DeviceTester/amazon-freertos/lib/ota/portable/renesas/rza2m-gr-mango\aws_ota_pal.c ****     }
 761:D:/Work/DeviceTester/amazon-freertos/lib/ota/portable/renesas/rza2m-gr-mango\aws_ota_pal.c **** 
 762:D:/Work/DeviceTester/amazon-freertos/lib/ota/portable/renesas/rza2m-gr-mango\aws_ota_pal.c ****     if( ( CKR_OK == xResult ) || ( CKR_CRYPTOKI_ALREADY_INITIALIZED == xResult ) )
 763:D:/Work/DeviceTester/amazon-freertos/lib/ota/portable/renesas/rza2m-gr-mango\aws_ota_pal.c ****     {
 764:D:/Work/DeviceTester/amazon-freertos/lib/ota/portable/renesas/rza2m-gr-mango\aws_ota_pal.c ****         xResult = xFunctionList->C_GetSlotList( CK_TRUE, &xSlotId, &xCount );
 765:D:/Work/DeviceTester/amazon-freertos/lib/ota/portable/renesas/rza2m-gr-mango\aws_ota_pal.c ****     }
 766:D:/Work/DeviceTester/amazon-freertos/lib/ota/portable/renesas/rza2m-gr-mango\aws_ota_pal.c **** 
 767:D:/Work/DeviceTester/amazon-freertos/lib/ota/portable/renesas/rza2m-gr-mango\aws_ota_pal.c ****     if( CKR_OK == xResult )
 768:D:/Work/DeviceTester/amazon-freertos/lib/ota/portable/renesas/rza2m-gr-mango\aws_ota_pal.c ****     {
 769:D:/Work/DeviceTester/amazon-freertos/lib/ota/portable/renesas/rza2m-gr-mango\aws_ota_pal.c ****         xResult = xFunctionList->C_OpenSession( xSlotId, CKF_SERIAL_SESSION, NULL, NULL, &xSession 
 770:D:/Work/DeviceTester/amazon-freertos/lib/ota/portable/renesas/rza2m-gr-mango\aws_ota_pal.c ****     }
 771:D:/Work/DeviceTester/amazon-freertos/lib/ota/portable/renesas/rza2m-gr-mango\aws_ota_pal.c **** 
 772:D:/Work/DeviceTester/amazon-freertos/lib/ota/portable/renesas/rza2m-gr-mango\aws_ota_pal.c ****     if( CKR_OK == xResult )
 773:D:/Work/DeviceTester/amazon-freertos/lib/ota/portable/renesas/rza2m-gr-mango\aws_ota_pal.c ****     {
 774:D:/Work/DeviceTester/amazon-freertos/lib/ota/portable/renesas/rza2m-gr-mango\aws_ota_pal.c ****         xSessionOpen = CK_TRUE;
 775:D:/Work/DeviceTester/amazon-freertos/lib/ota/portable/renesas/rza2m-gr-mango\aws_ota_pal.c ****         xResult = prvGetCertificateHandle( xFunctionList, xSession, pcLabelName, &xHandle );
 776:D:/Work/DeviceTester/amazon-freertos/lib/ota/portable/renesas/rza2m-gr-mango\aws_ota_pal.c ****     }
 777:D:/Work/DeviceTester/amazon-freertos/lib/ota/portable/renesas/rza2m-gr-mango\aws_ota_pal.c **** 
 778:D:/Work/DeviceTester/amazon-freertos/lib/ota/portable/renesas/rza2m-gr-mango\aws_ota_pal.c ****     if( ( xHandle != 0 ) && ( xResult == CKR_OK ) ) /* 0 is an invalid handle */
 779:D:/Work/DeviceTester/amazon-freertos/lib/ota/portable/renesas/rza2m-gr-mango\aws_ota_pal.c ****     {
 780:D:/Work/DeviceTester/amazon-freertos/lib/ota/portable/renesas/rza2m-gr-mango\aws_ota_pal.c ****         /* Get the length of the certificate */
 781:D:/Work/DeviceTester/amazon-freertos/lib/ota/portable/renesas/rza2m-gr-mango\aws_ota_pal.c ****         xTemplate.type = CKA_VALUE;
 782:D:/Work/DeviceTester/amazon-freertos/lib/ota/portable/renesas/rza2m-gr-mango\aws_ota_pal.c ****         xTemplate.pValue = NULL;
 783:D:/Work/DeviceTester/amazon-freertos/lib/ota/portable/renesas/rza2m-gr-mango\aws_ota_pal.c ****         xResult = xFunctionList->C_GetAttributeValue( xSession, xHandle, &xTemplate, xCount );
 784:D:/Work/DeviceTester/amazon-freertos/lib/ota/portable/renesas/rza2m-gr-mango\aws_ota_pal.c **** 
 785:D:/Work/DeviceTester/amazon-freertos/lib/ota/portable/renesas/rza2m-gr-mango\aws_ota_pal.c ****         if( xResult == CKR_OK )
 786:D:/Work/DeviceTester/amazon-freertos/lib/ota/portable/renesas/rza2m-gr-mango\aws_ota_pal.c ****         {
 787:D:/Work/DeviceTester/amazon-freertos/lib/ota/portable/renesas/rza2m-gr-mango\aws_ota_pal.c ****             pucCert = pvPortMalloc( xTemplate.ulValueLen );
 788:D:/Work/DeviceTester/amazon-freertos/lib/ota/portable/renesas/rza2m-gr-mango\aws_ota_pal.c ****         }
 789:D:/Work/DeviceTester/amazon-freertos/lib/ota/portable/renesas/rza2m-gr-mango\aws_ota_pal.c **** 
 790:D:/Work/DeviceTester/amazon-freertos/lib/ota/portable/renesas/rza2m-gr-mango\aws_ota_pal.c ****         if( ( xResult == CKR_OK ) && ( pucCert == NULL ) )
 791:D:/Work/DeviceTester/amazon-freertos/lib/ota/portable/renesas/rza2m-gr-mango\aws_ota_pal.c ****         {
 792:D:/Work/DeviceTester/amazon-freertos/lib/ota/portable/renesas/rza2m-gr-mango\aws_ota_pal.c ****             xResult = CKR_HOST_MEMORY;
 793:D:/Work/DeviceTester/amazon-freertos/lib/ota/portable/renesas/rza2m-gr-mango\aws_ota_pal.c ****         }
 794:D:/Work/DeviceTester/amazon-freertos/lib/ota/portable/renesas/rza2m-gr-mango\aws_ota_pal.c **** 
 795:D:/Work/DeviceTester/amazon-freertos/lib/ota/portable/renesas/rza2m-gr-mango\aws_ota_pal.c ****         if( xResult == CKR_OK )
 796:D:/Work/DeviceTester/amazon-freertos/lib/ota/portable/renesas/rza2m-gr-mango\aws_ota_pal.c ****         {
 797:D:/Work/DeviceTester/amazon-freertos/lib/ota/portable/renesas/rza2m-gr-mango\aws_ota_pal.c ****             xTemplate.pValue = pucCert;
 798:D:/Work/DeviceTester/amazon-freertos/lib/ota/portable/renesas/rza2m-gr-mango\aws_ota_pal.c ****             xResult = xFunctionList->C_GetAttributeValue( xSession, xHandle, &xTemplate, xCount );
 799:D:/Work/DeviceTester/amazon-freertos/lib/ota/portable/renesas/rza2m-gr-mango\aws_ota_pal.c **** 
 800:D:/Work/DeviceTester/amazon-freertos/lib/ota/portable/renesas/rza2m-gr-mango\aws_ota_pal.c ****             if( xResult == CKR_OK )
 801:D:/Work/DeviceTester/amazon-freertos/lib/ota/portable/renesas/rza2m-gr-mango\aws_ota_pal.c ****             {
 802:D:/Work/DeviceTester/amazon-freertos/lib/ota/portable/renesas/rza2m-gr-mango\aws_ota_pal.c ****                 *ppucData = pucCert;
 803:D:/Work/DeviceTester/amazon-freertos/lib/ota/portable/renesas/rza2m-gr-mango\aws_ota_pal.c ****                 *pulDataSize = xTemplate.ulValueLen;
 804:D:/Work/DeviceTester/amazon-freertos/lib/ota/portable/renesas/rza2m-gr-mango\aws_ota_pal.c ****             }
 805:D:/Work/DeviceTester/amazon-freertos/lib/ota/portable/renesas/rza2m-gr-mango\aws_ota_pal.c ****             else
 806:D:/Work/DeviceTester/amazon-freertos/lib/ota/portable/renesas/rza2m-gr-mango\aws_ota_pal.c ****             {
 807:D:/Work/DeviceTester/amazon-freertos/lib/ota/portable/renesas/rza2m-gr-mango\aws_ota_pal.c ****                 vPortFree( pucCert );
 808:D:/Work/DeviceTester/amazon-freertos/lib/ota/portable/renesas/rza2m-gr-mango\aws_ota_pal.c ****             }
 809:D:/Work/DeviceTester/amazon-freertos/lib/ota/portable/renesas/rza2m-gr-mango\aws_ota_pal.c ****         }
 810:D:/Work/DeviceTester/amazon-freertos/lib/ota/portable/renesas/rza2m-gr-mango\aws_ota_pal.c ****     }
 811:D:/Work/DeviceTester/amazon-freertos/lib/ota/portable/renesas/rza2m-gr-mango\aws_ota_pal.c ****     else /* Certificate was not found. */
 812:D:/Work/DeviceTester/amazon-freertos/lib/ota/portable/renesas/rza2m-gr-mango\aws_ota_pal.c ****     {
 813:D:/Work/DeviceTester/amazon-freertos/lib/ota/portable/renesas/rza2m-gr-mango\aws_ota_pal.c ****         *ppucData = NULL;
 814:D:/Work/DeviceTester/amazon-freertos/lib/ota/portable/renesas/rza2m-gr-mango\aws_ota_pal.c ****         *pulDataSize = 0;
 815:D:/Work/DeviceTester/amazon-freertos/lib/ota/portable/renesas/rza2m-gr-mango\aws_ota_pal.c ****     }
 816:D:/Work/DeviceTester/amazon-freertos/lib/ota/portable/renesas/rza2m-gr-mango\aws_ota_pal.c **** 
 817:D:/Work/DeviceTester/amazon-freertos/lib/ota/portable/renesas/rza2m-gr-mango\aws_ota_pal.c ****     if( xSessionOpen == CK_TRUE )
 818:D:/Work/DeviceTester/amazon-freertos/lib/ota/portable/renesas/rza2m-gr-mango\aws_ota_pal.c ****     {
 819:D:/Work/DeviceTester/amazon-freertos/lib/ota/portable/renesas/rza2m-gr-mango\aws_ota_pal.c ****         ( void ) xFunctionList->C_CloseSession( xSession );
 820:D:/Work/DeviceTester/amazon-freertos/lib/ota/portable/renesas/rza2m-gr-mango\aws_ota_pal.c ****     }
 821:D:/Work/DeviceTester/amazon-freertos/lib/ota/portable/renesas/rza2m-gr-mango\aws_ota_pal.c **** 
 822:D:/Work/DeviceTester/amazon-freertos/lib/ota/portable/renesas/rza2m-gr-mango\aws_ota_pal.c ****     return xResult;
 823:D:/Work/DeviceTester/amazon-freertos/lib/ota/portable/renesas/rza2m-gr-mango\aws_ota_pal.c **** }
 824:D:/Work/DeviceTester/amazon-freertos/lib/ota/portable/renesas/rza2m-gr-mango\aws_ota_pal.c **** 
 825:D:/Work/DeviceTester/amazon-freertos/lib/ota/portable/renesas/rza2m-gr-mango\aws_ota_pal.c **** static int32_t ota_context_validate( OTA_FileContext_t * C )
 826:D:/Work/DeviceTester/amazon-freertos/lib/ota/portable/renesas/rza2m-gr-mango\aws_ota_pal.c **** {
 827:D:/Work/DeviceTester/amazon-freertos/lib/ota/portable/renesas/rza2m-gr-mango\aws_ota_pal.c **** 	return ( NULL != C );
 828:D:/Work/DeviceTester/amazon-freertos/lib/ota/portable/renesas/rza2m-gr-mango\aws_ota_pal.c **** }
 829:D:/Work/DeviceTester/amazon-freertos/lib/ota/portable/renesas/rza2m-gr-mango\aws_ota_pal.c **** 
 830:D:/Work/DeviceTester/amazon-freertos/lib/ota/portable/renesas/rza2m-gr-mango\aws_ota_pal.c **** static int32_t ota_context_update_user_firmware_header( OTA_FileContext_t * C )
 831:D:/Work/DeviceTester/amazon-freertos/lib/ota/portable/renesas/rza2m-gr-mango\aws_ota_pal.c **** {
 832:D:/Work/DeviceTester/amazon-freertos/lib/ota/portable/renesas/rza2m-gr-mango\aws_ota_pal.c ****     int32_t ret = R_OTA_ERR_INVALID_CONTEXT;
 833:D:/Work/DeviceTester/amazon-freertos/lib/ota/portable/renesas/rza2m-gr-mango\aws_ota_pal.c **** 	uint8_t block[BOOT_LOADER_USER_FIRMWARE_HEADER_LENGTH];
 834:D:/Work/DeviceTester/amazon-freertos/lib/ota/portable/renesas/rza2m-gr-mango\aws_ota_pal.c **** 	FIRMWARE_UPDATE_CONTROL_BLOCK * p_block_header;
 835:D:/Work/DeviceTester/amazon-freertos/lib/ota/portable/renesas/rza2m-gr-mango\aws_ota_pal.c **** 	uint32_t length;
 836:D:/Work/DeviceTester/amazon-freertos/lib/ota/portable/renesas/rza2m-gr-mango\aws_ota_pal.c **** 	uint8_t *source_pointer, *destination_pointer;
 837:D:/Work/DeviceTester/amazon-freertos/lib/ota/portable/renesas/rza2m-gr-mango\aws_ota_pal.c **** 	uint8_t data_length = 0;
 838:D:/Work/DeviceTester/amazon-freertos/lib/ota/portable/renesas/rza2m-gr-mango\aws_ota_pal.c **** 
 839:D:/Work/DeviceTester/amazon-freertos/lib/ota/portable/renesas/rza2m-gr-mango\aws_ota_pal.c **** 	memcpy(block, (const void *)firmware_update_control_block_bank0, BOOT_LOADER_USER_FIRMWARE_HEADER_
 840:D:/Work/DeviceTester/amazon-freertos/lib/ota/portable/renesas/rza2m-gr-mango\aws_ota_pal.c **** 	p_block_header = (FIRMWARE_UPDATE_CONTROL_BLOCK *)block;
 841:D:/Work/DeviceTester/amazon-freertos/lib/ota/portable/renesas/rza2m-gr-mango\aws_ota_pal.c **** 
 842:D:/Work/DeviceTester/amazon-freertos/lib/ota/portable/renesas/rza2m-gr-mango\aws_ota_pal.c **** 	/* Update image flag. */
 843:D:/Work/DeviceTester/amazon-freertos/lib/ota/portable/renesas/rza2m-gr-mango\aws_ota_pal.c **** 	p_block_header->image_flag = LIFECYCLE_STATE_TESTING;
 844:D:/Work/DeviceTester/amazon-freertos/lib/ota/portable/renesas/rza2m-gr-mango\aws_ota_pal.c **** 
 845:D:/Work/DeviceTester/amazon-freertos/lib/ota/portable/renesas/rza2m-gr-mango\aws_ota_pal.c **** 	/* Update signature type. */
 846:D:/Work/DeviceTester/amazon-freertos/lib/ota/portable/renesas/rza2m-gr-mango\aws_ota_pal.c **** 	memcpy(p_block_header->signature_type, cOTA_JSON_FileSignatureKey,sizeof(cOTA_JSON_FileSignatureKe
 847:D:/Work/DeviceTester/amazon-freertos/lib/ota/portable/renesas/rza2m-gr-mango\aws_ota_pal.c **** 
 848:D:/Work/DeviceTester/amazon-freertos/lib/ota/portable/renesas/rza2m-gr-mango\aws_ota_pal.c **** 	/* Parse the signature and extract ECDSA-SHA256 signature data. */
 849:D:/Work/DeviceTester/amazon-freertos/lib/ota/portable/renesas/rza2m-gr-mango\aws_ota_pal.c **** 	source_pointer = C->pxSignature->ucData;
 850:D:/Work/DeviceTester/amazon-freertos/lib/ota/portable/renesas/rza2m-gr-mango\aws_ota_pal.c **** 	destination_pointer = p_block_header->signature;
 851:D:/Work/DeviceTester/amazon-freertos/lib/ota/portable/renesas/rza2m-gr-mango\aws_ota_pal.c **** 	data_length = *(source_pointer + 1) + OTA_SIGUNATURE_SEQUENCE_INFO_LENGTH;
 852:D:/Work/DeviceTester/amazon-freertos/lib/ota/portable/renesas/rza2m-gr-mango\aws_ota_pal.c **** 	memset(destination_pointer, 0, sizeof(destination_pointer));
 853:D:/Work/DeviceTester/amazon-freertos/lib/ota/portable/renesas/rza2m-gr-mango\aws_ota_pal.c **** 	if (OTA_SIGUNATURE_SEQUENCE_TOP_VALUE == *source_pointer)
 854:D:/Work/DeviceTester/amazon-freertos/lib/ota/portable/renesas/rza2m-gr-mango\aws_ota_pal.c **** 	{
 855:D:/Work/DeviceTester/amazon-freertos/lib/ota/portable/renesas/rza2m-gr-mango\aws_ota_pal.c **** 		source_pointer += OTA_SIGUNATURE_SEQUENCE_INFO_LENGTH;
 856:D:/Work/DeviceTester/amazon-freertos/lib/ota/portable/renesas/rza2m-gr-mango\aws_ota_pal.c **** 		while(1)
 857:D:/Work/DeviceTester/amazon-freertos/lib/ota/portable/renesas/rza2m-gr-mango\aws_ota_pal.c **** 		{
 858:D:/Work/DeviceTester/amazon-freertos/lib/ota/portable/renesas/rza2m-gr-mango\aws_ota_pal.c **** 			if (OTA_SIGUNATURE_INTEGER_VALUE == *source_pointer)
 859:D:/Work/DeviceTester/amazon-freertos/lib/ota/portable/renesas/rza2m-gr-mango\aws_ota_pal.c **** 			{
 860:D:/Work/DeviceTester/amazon-freertos/lib/ota/portable/renesas/rza2m-gr-mango\aws_ota_pal.c **** 				source_pointer++;
 861:D:/Work/DeviceTester/amazon-freertos/lib/ota/portable/renesas/rza2m-gr-mango\aws_ota_pal.c **** 				if (OTA_SIGUNATURE_INCLUDE_NEGATIVE_NUMBER_VALUE == *source_pointer)
 862:D:/Work/DeviceTester/amazon-freertos/lib/ota/portable/renesas/rza2m-gr-mango\aws_ota_pal.c **** 				{
 863:D:/Work/DeviceTester/amazon-freertos/lib/ota/portable/renesas/rza2m-gr-mango\aws_ota_pal.c **** 					source_pointer += OTA_SIGUNATURE_SKIP;
 864:D:/Work/DeviceTester/amazon-freertos/lib/ota/portable/renesas/rza2m-gr-mango\aws_ota_pal.c **** 				}
 865:D:/Work/DeviceTester/amazon-freertos/lib/ota/portable/renesas/rza2m-gr-mango\aws_ota_pal.c **** 				else
 866:D:/Work/DeviceTester/amazon-freertos/lib/ota/portable/renesas/rza2m-gr-mango\aws_ota_pal.c **** 				{
 867:D:/Work/DeviceTester/amazon-freertos/lib/ota/portable/renesas/rza2m-gr-mango\aws_ota_pal.c **** 					source_pointer++;
 868:D:/Work/DeviceTester/amazon-freertos/lib/ota/portable/renesas/rza2m-gr-mango\aws_ota_pal.c **** 				}
 869:D:/Work/DeviceTester/amazon-freertos/lib/ota/portable/renesas/rza2m-gr-mango\aws_ota_pal.c **** 				memcpy(destination_pointer, source_pointer, OTA_SIGUNATURE_DATA_HALF_LENGTH);
 870:D:/Work/DeviceTester/amazon-freertos/lib/ota/portable/renesas/rza2m-gr-mango\aws_ota_pal.c **** 				source_pointer += OTA_SIGUNATURE_DATA_HALF_LENGTH;
 871:D:/Work/DeviceTester/amazon-freertos/lib/ota/portable/renesas/rza2m-gr-mango\aws_ota_pal.c **** 				destination_pointer += OTA_SIGUNATURE_DATA_HALF_LENGTH;
 872:D:/Work/DeviceTester/amazon-freertos/lib/ota/portable/renesas/rza2m-gr-mango\aws_ota_pal.c **** 				if ((source_pointer - C->pxSignature->ucData) == data_length)
 873:D:/Work/DeviceTester/amazon-freertos/lib/ota/portable/renesas/rza2m-gr-mango\aws_ota_pal.c **** 				{
 874:D:/Work/DeviceTester/amazon-freertos/lib/ota/portable/renesas/rza2m-gr-mango\aws_ota_pal.c **** 					ret = R_OTA_ERR_NONE;
 875:D:/Work/DeviceTester/amazon-freertos/lib/ota/portable/renesas/rza2m-gr-mango\aws_ota_pal.c **** 					break;
 876:D:/Work/DeviceTester/amazon-freertos/lib/ota/portable/renesas/rza2m-gr-mango\aws_ota_pal.c **** 				}
 877:D:/Work/DeviceTester/amazon-freertos/lib/ota/portable/renesas/rza2m-gr-mango\aws_ota_pal.c **** 			}
 878:D:/Work/DeviceTester/amazon-freertos/lib/ota/portable/renesas/rza2m-gr-mango\aws_ota_pal.c **** 			else
 879:D:/Work/DeviceTester/amazon-freertos/lib/ota/portable/renesas/rza2m-gr-mango\aws_ota_pal.c **** 			{
 880:D:/Work/DeviceTester/amazon-freertos/lib/ota/portable/renesas/rza2m-gr-mango\aws_ota_pal.c **** 				/* parsing error */
 881:D:/Work/DeviceTester/amazon-freertos/lib/ota/portable/renesas/rza2m-gr-mango\aws_ota_pal.c **** 				break;
 882:D:/Work/DeviceTester/amazon-freertos/lib/ota/portable/renesas/rza2m-gr-mango\aws_ota_pal.c **** 			}
 883:D:/Work/DeviceTester/amazon-freertos/lib/ota/portable/renesas/rza2m-gr-mango\aws_ota_pal.c **** 		}
 884:D:/Work/DeviceTester/amazon-freertos/lib/ota/portable/renesas/rza2m-gr-mango\aws_ota_pal.c **** 	}
 885:D:/Work/DeviceTester/amazon-freertos/lib/ota/portable/renesas/rza2m-gr-mango\aws_ota_pal.c **** 
 886:D:/Work/DeviceTester/amazon-freertos/lib/ota/portable/renesas/rza2m-gr-mango\aws_ota_pal.c **** 	if (R_OTA_ERR_NONE == ret)
 887:D:/Work/DeviceTester/amazon-freertos/lib/ota/portable/renesas/rza2m-gr-mango\aws_ota_pal.c **** 	{
 888:D:/Work/DeviceTester/amazon-freertos/lib/ota/portable/renesas/rza2m-gr-mango\aws_ota_pal.c **** 		length = BOOT_LOADER_USER_FIRMWARE_HEADER_LENGTH;
 889:D:/Work/DeviceTester/amazon-freertos/lib/ota/portable/renesas/rza2m-gr-mango\aws_ota_pal.c **** 		memcpy(&hyper[0], &block[0], length);
 890:D:/Work/DeviceTester/amazon-freertos/lib/ota/portable/renesas/rza2m-gr-mango\aws_ota_pal.c **** 	}
 891:D:/Work/DeviceTester/amazon-freertos/lib/ota/portable/renesas/rza2m-gr-mango\aws_ota_pal.c **** 
 892:D:/Work/DeviceTester/amazon-freertos/lib/ota/portable/renesas/rza2m-gr-mango\aws_ota_pal.c **** 	return ret;
 893:D:/Work/DeviceTester/amazon-freertos/lib/ota/portable/renesas/rza2m-gr-mango\aws_ota_pal.c **** }
 894:D:/Work/DeviceTester/amazon-freertos/lib/ota/portable/renesas/rza2m-gr-mango\aws_ota_pal.c **** 
 895:D:/Work/DeviceTester/amazon-freertos/lib/ota/portable/renesas/rza2m-gr-mango\aws_ota_pal.c **** static void ota_context_close( OTA_FileContext_t * C )
 896:D:/Work/DeviceTester/amazon-freertos/lib/ota/portable/renesas/rza2m-gr-mango\aws_ota_pal.c **** {
 897:D:/Work/DeviceTester/amazon-freertos/lib/ota/portable/renesas/rza2m-gr-mango\aws_ota_pal.c ****     if( NULL != C )
 898:D:/Work/DeviceTester/amazon-freertos/lib/ota/portable/renesas/rza2m-gr-mango\aws_ota_pal.c ****     {
 899:D:/Work/DeviceTester/amazon-freertos/lib/ota/portable/renesas/rza2m-gr-mango\aws_ota_pal.c ****         C->pucFile = NULL;
 900:D:/Work/DeviceTester/amazon-freertos/lib/ota/portable/renesas/rza2m-gr-mango\aws_ota_pal.c ****     }
 901:D:/Work/DeviceTester/amazon-freertos/lib/ota/portable/renesas/rza2m-gr-mango\aws_ota_pal.c **** }
 902:D:/Work/DeviceTester/amazon-freertos/lib/ota/portable/renesas/rza2m-gr-mango\aws_ota_pal.c **** 
 903:D:/Work/DeviceTester/amazon-freertos/lib/ota/portable/renesas/rza2m-gr-mango\aws_ota_pal.c **** static void ota_flashing_task( void * pvParameters )
 904:D:/Work/DeviceTester/amazon-freertos/lib/ota/portable/renesas/rza2m-gr-mango\aws_ota_pal.c **** {
  25              		.loc 1 904 0
  26              		.cfi_startproc
  27              		@ Volatile: function does not return.
  28              		@ args = 0, pretend = 0, frame = 0
  29              		@ frame_needed = 0, uses_anonymous_args = 0
  30              	.LVL0:
  31 0000 80402DE9 		push	{r7, lr}
  32              		.cfi_def_cfa_offset 8
  33              		.cfi_offset 7, -8
  34              		.cfi_offset 14, -4
 905:D:/Work/DeviceTester/amazon-freertos/lib/ota/portable/renesas/rza2m-gr-mango\aws_ota_pal.c **** 	static uint8_t block[(1 << otaconfigLOG2_FILE_BLOCK_SIZE)];
 906:D:/Work/DeviceTester/amazon-freertos/lib/ota/portable/renesas/rza2m-gr-mango\aws_ota_pal.c **** 	static uint32_t ulOffset;
 907:D:/Work/DeviceTester/amazon-freertos/lib/ota/portable/renesas/rza2m-gr-mango\aws_ota_pal.c **** 	static uint32_t length;
 908:D:/Work/DeviceTester/amazon-freertos/lib/ota/portable/renesas/rza2m-gr-mango\aws_ota_pal.c **** 
 909:D:/Work/DeviceTester/amazon-freertos/lib/ota/portable/renesas/rza2m-gr-mango\aws_ota_pal.c **** 	while(1)
 910:D:/Work/DeviceTester/amazon-freertos/lib/ota/portable/renesas/rza2m-gr-mango\aws_ota_pal.c **** 	{
 911:D:/Work/DeviceTester/amazon-freertos/lib/ota/portable/renesas/rza2m-gr-mango\aws_ota_pal.c **** 		xQueueReceive(xQueue, &packet_block_for_queue2, portMAX_DELAY);
 912:D:/Work/DeviceTester/amazon-freertos/lib/ota/portable/renesas/rza2m-gr-mango\aws_ota_pal.c **** 		xSemaphoreTake(xSemaphoreFlashig, portMAX_DELAY);
  35              		.loc 1 912 0
  36 0004 90709FE5 		ldr	r7, .L8
 913:D:/Work/DeviceTester/amazon-freertos/lib/ota/portable/renesas/rza2m-gr-mango\aws_ota_pal.c **** 		memcpy(block, packet_block_for_queue2.p_packet, packet_block_for_queue2.length);
  37              		.loc 1 913 0
  38 0008 90809FE5 		ldr	r8, .L8+4
  39 000c 0790A0E1 		mov	r9, r7
  40              	.LVL1:
  41              	.L3:
 911:D:/Work/DeviceTester/amazon-freertos/lib/ota/portable/renesas/rza2m-gr-mango\aws_ota_pal.c **** 		xSemaphoreTake(xSemaphoreFlashig, portMAX_DELAY);
  42              		.loc 1 911 0
  43 0010 8C309FE5 		ldr	r3, .L8+8
  44 0014 0020E0E3 		mvn	r2, #0
  45 0018 88509FE5 		ldr	r5, .L8+12
  46 001c 000093E5 		ldr	r0, [r3]
  47 0020 0510A0E1 		mov	r1, r5
  48 0024 FEFFFFEB 		bl	xQueueReceive
  49              	.LVL2:
 912:D:/Work/DeviceTester/amazon-freertos/lib/ota/portable/renesas/rza2m-gr-mango\aws_ota_pal.c **** 		memcpy(block, packet_block_for_queue2.p_packet, packet_block_for_queue2.length);
  50              		.loc 1 912 0
  51 0028 0010E0E3 		mvn	r1, #0
  52 002c 000097E5 		ldr	r0, [r7]
  53 0030 FEFFFFEB 		bl	xQueueSemaphoreTake
  54              	.LVL3:
  55              		.loc 1 913 0
  56 0034 500095E9 		ldmib	r5, {r4, r6}
  57 0038 0800A0E1 		mov	r0, r8
  58 003c 0420A0E1 		mov	r2, r4
  59 0040 0610A0E1 		mov	r1, r6
  60 0044 FEFFFFEB 		bl	memcpy
  61              	.LVL4:
 914:D:/Work/DeviceTester/amazon-freertos/lib/ota/portable/renesas/rza2m-gr-mango\aws_ota_pal.c **** 		ulOffset = packet_block_for_queue2.ulOffset;
 915:D:/Work/DeviceTester/amazon-freertos/lib/ota/portable/renesas/rza2m-gr-mango\aws_ota_pal.c **** 		length = packet_block_for_queue2.length;
 916:D:/Work/DeviceTester/amazon-freertos/lib/ota/portable/renesas/rza2m-gr-mango\aws_ota_pal.c **** 		memcpy(&hyper[ulOffset + (uint32_t)BOOT_LOADER_USER_FIRMWARE_HEADER_LENGTH], block, length);
  62              		.loc 1 916 0
  63 0048 000095E5 		ldr	r0, [r5]
  64 004c 0420A0E1 		mov	r2, r4
  65 0050 54309FE5 		ldr	r3, .L8+16
  66 0054 0810A0E1 		mov	r1, r8
  67 0058 030080E0 		add	r0, r0, r3
  68 005c FEFFFFEB 		bl	memcpy
  69              	.LVL5:
 917:D:/Work/DeviceTester/amazon-freertos/lib/ota/portable/renesas/rza2m-gr-mango\aws_ota_pal.c **** 
 918:D:/Work/DeviceTester/amazon-freertos/lib/ota/portable/renesas/rza2m-gr-mango\aws_ota_pal.c **** 		if(packet_block_for_queue2.length != 1024)
  70              		.loc 1 918 0
  71 0060 010B54E3 		cmp	r4, #1024
  72 0064 0000000A 		beq	.L2
  73              	.LBB8:
  74              	.LBB9:
  75              		.file 2 "D:\\Work\\DeviceTester\\amazon-freertos\\lib\\third_party\\mcu_vendor\\renesas\\rz_mcu_bo
   1:D:\Work\DeviceTester\amazon-freertos\lib\third_party\mcu_vendor\renesas\rz_mcu_boards\core_package\generate\compiler\inc\r_compiler_abstraction_api.h **** /**************************************************************************************************
   2:D:\Work\DeviceTester\amazon-freertos\lib\third_party\mcu_vendor\renesas\rz_mcu_boards\core_package\generate\compiler\inc\r_compiler_abstraction_api.h ****  * DISCLAIMER
   3:D:\Work\DeviceTester\amazon-freertos\lib\third_party\mcu_vendor\renesas\rz_mcu_boards\core_package\generate\compiler\inc\r_compiler_abstraction_api.h ****  * This software is supplied by Renesas Electronics Corporation and is only intended for use with R
   4:D:\Work\DeviceTester\amazon-freertos\lib\third_party\mcu_vendor\renesas\rz_mcu_boards\core_package\generate\compiler\inc\r_compiler_abstraction_api.h ****  * other uses are authorized. This software is owned by Renesas Electronics Corporation and is prot
   5:D:\Work\DeviceTester\amazon-freertos\lib\third_party\mcu_vendor\renesas\rz_mcu_boards\core_package\generate\compiler\inc\r_compiler_abstraction_api.h ****  * applicable laws, including copyright laws.
   6:D:\Work\DeviceTester\amazon-freertos\lib\third_party\mcu_vendor\renesas\rz_mcu_boards\core_package\generate\compiler\inc\r_compiler_abstraction_api.h ****  * THIS SOFTWARE IS PROVIDED "AS IS" AND RENESAS MAKES NO WARRANTIES REGARDING
   7:D:\Work\DeviceTester\amazon-freertos\lib\third_party\mcu_vendor\renesas\rz_mcu_boards\core_package\generate\compiler\inc\r_compiler_abstraction_api.h ****  * THIS SOFTWARE, WHETHER EXPRESS, IMPLIED OR STATUTORY, INCLUDING BUT NOT LIMITED TO WARRANTIES OF
   8:D:\Work\DeviceTester\amazon-freertos\lib\third_party\mcu_vendor\renesas\rz_mcu_boards\core_package\generate\compiler\inc\r_compiler_abstraction_api.h ****  * FITNESS FOR A PARTICULAR PURPOSE AND NON-INFRINGEMENT. ALL SUCH WARRANTIES ARE EXPRESSLY DISCLAI
   9:D:\Work\DeviceTester\amazon-freertos\lib\third_party\mcu_vendor\renesas\rz_mcu_boards\core_package\generate\compiler\inc\r_compiler_abstraction_api.h ****  * EXTENT PERMITTED NOT PROHIBITED BY LAW, NEITHER RENESAS ELECTRONICS CORPORATION NOR ANY OF ITS A
  10:D:\Work\DeviceTester\amazon-freertos\lib\third_party\mcu_vendor\renesas\rz_mcu_boards\core_package\generate\compiler\inc\r_compiler_abstraction_api.h ****  * SHALL BE LIABLE FOR ANY DIRECT, INDIRECT, SPECIAL, INCIDENTAL OR CONSEQUENTIAL DAMAGES FOR ANY R
  11:D:\Work\DeviceTester\amazon-freertos\lib\third_party\mcu_vendor\renesas\rz_mcu_boards\core_package\generate\compiler\inc\r_compiler_abstraction_api.h ****  * SOFTWARE, EVEN IF RENESAS OR ITS AFFILIATES HAVE BEEN ADVISED OF THE POSSIBILITY OF SUCH DAMAGES
  12:D:\Work\DeviceTester\amazon-freertos\lib\third_party\mcu_vendor\renesas\rz_mcu_boards\core_package\generate\compiler\inc\r_compiler_abstraction_api.h ****  * Renesas reserves the right, without notice, to make changes to this software and to discontinue 
  13:D:\Work\DeviceTester\amazon-freertos\lib\third_party\mcu_vendor\renesas\rz_mcu_boards\core_package\generate\compiler\inc\r_compiler_abstraction_api.h ****  * this software. By using this software, you agree to the additional terms and conditions found by
  14:D:\Work\DeviceTester\amazon-freertos\lib\third_party\mcu_vendor\renesas\rz_mcu_boards\core_package\generate\compiler\inc\r_compiler_abstraction_api.h ****  * following link:
  15:D:\Work\DeviceTester\amazon-freertos\lib\third_party\mcu_vendor\renesas\rz_mcu_boards\core_package\generate\compiler\inc\r_compiler_abstraction_api.h ****  * http://www.renesas.com/disclaimer
  16:D:\Work\DeviceTester\amazon-freertos\lib\third_party\mcu_vendor\renesas\rz_mcu_boards\core_package\generate\compiler\inc\r_compiler_abstraction_api.h ****  *
  17:D:\Work\DeviceTester\amazon-freertos\lib\third_party\mcu_vendor\renesas\rz_mcu_boards\core_package\generate\compiler\inc\r_compiler_abstraction_api.h ****  * Copyright (C) 2020 Renesas Electronics Corporation. All rights reserved.
  18:D:\Work\DeviceTester\amazon-freertos\lib\third_party\mcu_vendor\renesas\rz_mcu_boards\core_package\generate\compiler\inc\r_compiler_abstraction_api.h ****  **************************************************************************************************
  19:D:\Work\DeviceTester\amazon-freertos\lib\third_party\mcu_vendor\renesas\rz_mcu_boards\core_package\generate\compiler\inc\r_compiler_abstraction_api.h **** /**************************************************************************************************
  20:D:\Work\DeviceTester\amazon-freertos\lib\third_party\mcu_vendor\renesas\rz_mcu_boards\core_package\generate\compiler\inc\r_compiler_abstraction_api.h ****  * File Name    : r_compiler_abstraction_api.h
  21:D:\Work\DeviceTester\amazon-freertos\lib\third_party\mcu_vendor\renesas\rz_mcu_boards\core_package\generate\compiler\inc\r_compiler_abstraction_api.h ****  * Description  : Provides a common API for frequently used compiler specific operations
  22:D:\Work\DeviceTester\amazon-freertos\lib\third_party\mcu_vendor\renesas\rz_mcu_boards\core_package\generate\compiler\inc\r_compiler_abstraction_api.h ****  **************************************************************************************************
  23:D:\Work\DeviceTester\amazon-freertos\lib\third_party\mcu_vendor\renesas\rz_mcu_boards\core_package\generate\compiler\inc\r_compiler_abstraction_api.h **** #include  "r_typedefs.h"
  24:D:\Work\DeviceTester\amazon-freertos\lib\third_party\mcu_vendor\renesas\rz_mcu_boards\core_package\generate\compiler\inc\r_compiler_abstraction_api.h **** 
  25:D:\Work\DeviceTester\amazon-freertos\lib\third_party\mcu_vendor\renesas\rz_mcu_boards\core_package\generate\compiler\inc\r_compiler_abstraction_api.h **** #ifndef SRC_PRV_RENESAS_COMPILER_INC_R_COMPILER_ABSTRACTION_API_H_
  26:D:\Work\DeviceTester\amazon-freertos\lib\third_party\mcu_vendor\renesas\rz_mcu_boards\core_package\generate\compiler\inc\r_compiler_abstraction_api.h **** #define SRC_PRV_RENESAS_COMPILER_INC_R_COMPILER_ABSTRACTION_API_H_
  27:D:\Work\DeviceTester\amazon-freertos\lib\third_party\mcu_vendor\renesas\rz_mcu_boards\core_package\generate\compiler\inc\r_compiler_abstraction_api.h **** 
  28:D:\Work\DeviceTester\amazon-freertos\lib\third_party\mcu_vendor\renesas\rz_mcu_boards\core_package\generate\compiler\inc\r_compiler_abstraction_api.h **** /* Macro is used to declare linkage to a function as weak so that it can be overridden by a normall
  29:D:\Work\DeviceTester\amazon-freertos\lib\third_party\mcu_vendor\renesas\rz_mcu_boards\core_package\generate\compiler\inc\r_compiler_abstraction_api.h ****  * Update this when using a different compiler. */
  30:D:\Work\DeviceTester\amazon-freertos\lib\third_party\mcu_vendor\renesas\rz_mcu_boards\core_package\generate\compiler\inc\r_compiler_abstraction_api.h **** #define R_COMPILER_WEAK __attribute__((weak))
  31:D:\Work\DeviceTester\amazon-freertos\lib\third_party\mcu_vendor\renesas\rz_mcu_boards\core_package\generate\compiler\inc\r_compiler_abstraction_api.h **** 
  32:D:\Work\DeviceTester\amazon-freertos\lib\third_party\mcu_vendor\renesas\rz_mcu_boards\core_package\generate\compiler\inc\r_compiler_abstraction_api.h **** #define R_COMPILER_INLINE static inline
  33:D:\Work\DeviceTester\amazon-freertos\lib\third_party\mcu_vendor\renesas\rz_mcu_boards\core_package\generate\compiler\inc\r_compiler_abstraction_api.h **** 
  34:D:\Work\DeviceTester\amazon-freertos\lib\third_party\mcu_vendor\renesas\rz_mcu_boards\core_package\generate\compiler\inc\r_compiler_abstraction_api.h **** extern void __enable_irq (void);
  35:D:\Work\DeviceTester\amazon-freertos\lib\third_party\mcu_vendor\renesas\rz_mcu_boards\core_package\generate\compiler\inc\r_compiler_abstraction_api.h **** extern uint32_t __disable_irq (void);
  36:D:\Work\DeviceTester\amazon-freertos\lib\third_party\mcu_vendor\renesas\rz_mcu_boards\core_package\generate\compiler\inc\r_compiler_abstraction_api.h **** extern void __enable_fiq (void);
  37:D:\Work\DeviceTester\amazon-freertos\lib\third_party\mcu_vendor\renesas\rz_mcu_boards\core_package\generate\compiler\inc\r_compiler_abstraction_api.h **** extern void __disable_fiq (void);
  38:D:\Work\DeviceTester\amazon-freertos\lib\third_party\mcu_vendor\renesas\rz_mcu_boards\core_package\generate\compiler\inc\r_compiler_abstraction_api.h **** 
  39:D:\Work\DeviceTester\amazon-freertos\lib\third_party\mcu_vendor\renesas\rz_mcu_boards\core_package\generate\compiler\inc\r_compiler_abstraction_api.h **** /**************************************************************************************************
  40:D:\Work\DeviceTester\amazon-freertos\lib\third_party\mcu_vendor\renesas\rz_mcu_boards\core_package\generate\compiler\inc\r_compiler_abstraction_api.h ****  * Function Name: R_COMPILER_Nop
  41:D:\Work\DeviceTester\amazon-freertos\lib\third_party\mcu_vendor\renesas\rz_mcu_boards\core_package\generate\compiler\inc\r_compiler_abstraction_api.h ****  * Description  : Abstracting a compiler No Operation opcode into a C function. Update this when us
  42:D:\Work\DeviceTester\amazon-freertos\lib\third_party\mcu_vendor\renesas\rz_mcu_boards\core_package\generate\compiler\inc\r_compiler_abstraction_api.h ****  *                compiler.
  43:D:\Work\DeviceTester\amazon-freertos\lib\third_party\mcu_vendor\renesas\rz_mcu_boards\core_package\generate\compiler\inc\r_compiler_abstraction_api.h ****  * Return Value : None.
  44:D:\Work\DeviceTester\amazon-freertos\lib\third_party\mcu_vendor\renesas\rz_mcu_boards\core_package\generate\compiler\inc\r_compiler_abstraction_api.h ****  **************************************************************************************************
  45:D:\Work\DeviceTester\amazon-freertos\lib\third_party\mcu_vendor\renesas\rz_mcu_boards\core_package\generate\compiler\inc\r_compiler_abstraction_api.h **** R_COMPILER_INLINE void R_COMPILER_Nop (void)
  46:D:\Work\DeviceTester\amazon-freertos\lib\third_party\mcu_vendor\renesas\rz_mcu_boards\core_package\generate\compiler\inc\r_compiler_abstraction_api.h ****     {
  47:D:\Work\DeviceTester\amazon-freertos\lib\third_party\mcu_vendor\renesas\rz_mcu_boards\core_package\generate\compiler\inc\r_compiler_abstraction_api.h ****         __asm volatile ("nop");
  76              		.loc 2 47 0
  77              		.syntax divided
  78              	@ 47 "D:\Work\DeviceTester\amazon-freertos\lib\third_party\mcu_vendor\renesas\rz_mcu_boards\core_pa
  79 0068 00F020E3 		nop
  80              	@ 0 "" 2
  81              		.arm
  82              		.syntax unified
  83              	.L2:
  84              	.LBE9:
  85              	.LBE8:
 919:D:/Work/DeviceTester/amazon-freertos/lib/ota/portable/renesas/rza2m-gr-mango\aws_ota_pal.c **** 		{
 920:D:/Work/DeviceTester/amazon-freertos/lib/ota/portable/renesas/rza2m-gr-mango\aws_ota_pal.c **** 			R_COMPILER_Nop();
 921:D:/Work/DeviceTester/amazon-freertos/lib/ota/portable/renesas/rza2m-gr-mango\aws_ota_pal.c **** 		}
 922:D:/Work/DeviceTester/amazon-freertos/lib/ota/portable/renesas/rza2m-gr-mango\aws_ota_pal.c **** 		load_firmware_control_block.total_image_length += length;
  86              		.loc 1 922 0
  87 006c 3C309FE5 		ldr	r3, .L8+20
 923:D:/Work/DeviceTester/amazon-freertos/lib/ota/portable/renesas/rza2m-gr-mango\aws_ota_pal.c **** 		vPortFree(packet_block_for_queue2.p_packet);
  88              		.loc 1 923 0
  89 0070 0600A0E1 		mov	r0, r6
 922:D:/Work/DeviceTester/amazon-freertos/lib/ota/portable/renesas/rza2m-gr-mango\aws_ota_pal.c **** 		vPortFree(packet_block_for_queue2.p_packet);
  90              		.loc 1 922 0
  91 0074 082093E5 		ldr	r2, [r3, #8]
  92 0078 024084E0 		add	r4, r4, r2
  93 007c 084083E5 		str	r4, [r3, #8]
  94              		.loc 1 923 0
  95 0080 FEFFFFEB 		bl	vPortFree
  96              	.LVL6:
 924:D:/Work/DeviceTester/amazon-freertos/lib/ota/portable/renesas/rza2m-gr-mango\aws_ota_pal.c **** 		xSemaphoreGive(xSemaphoreFlashig);
  97              		.loc 1 924 0
  98 0084 0030A0E3 		mov	r3, #0
  99 0088 000099E5 		ldr	r0, [r9]
 100 008c 0320A0E1 		mov	r2, r3
 101 0090 0310A0E1 		mov	r1, r3
 102 0094 FEFFFFEB 		bl	xQueueGenericSend
 103              	.LVL7:
 911:D:/Work/DeviceTester/amazon-freertos/lib/ota/portable/renesas/rza2m-gr-mango\aws_ota_pal.c **** 		xSemaphoreTake(xSemaphoreFlashig, portMAX_DELAY);
 104              		.loc 1 911 0
 105 0098 DCFFFFEA 		b	.L3
 106              	.L9:
 107              		.align	2
 108              	.L8:
 109 009c 00000000 		.word	.LANCHOR2
 110 00a0 00000000 		.word	.LANCHOR3
 111 00a4 00000000 		.word	.LANCHOR1
 112 00a8 00000000 		.word	.LANCHOR0
 113 00ac 00020000 		.word	.LANCHOR4+512
 114 00b0 00000000 		.word	.LANCHOR5
 115              		.cfi_endproc
 116              	.LFE22:
 118              		.section	.text.ota_context_update_user_firmware_header.isra.1,"ax",%progbits
 119              		.align	2
 120              		.syntax unified
 121              		.arm
 122              		.fpu neon
 124              	ota_context_update_user_firmware_header.isra.1:
 125              	.LFB25:
 830:D:/Work/DeviceTester/amazon-freertos/lib/ota/portable/renesas/rza2m-gr-mango\aws_ota_pal.c **** {
 126              		.loc 1 830 0
 127              		.cfi_startproc
 128              		@ args = 0, pretend = 0, frame = 512
 129              		@ frame_needed = 0, uses_anonymous_args = 0
 130              	.LVL8:
 131 0000 F0402DE9 		push	{r4, r5, r6, r7, lr}
 132              		.cfi_def_cfa_offset 20
 133              		.cfi_offset 4, -20
 134              		.cfi_offset 5, -16
 135              		.cfi_offset 6, -12
 136              		.cfi_offset 7, -8
 137              		.cfi_offset 14, -4
 138 0004 81DF4DE2 		sub	sp, sp, #516
 139              		.cfi_def_cfa_offset 536
 830:D:/Work/DeviceTester/amazon-freertos/lib/ota/portable/renesas/rza2m-gr-mango\aws_ota_pal.c **** {
 140              		.loc 1 830 0
 141 0008 0040A0E1 		mov	r4, r0
 839:D:/Work/DeviceTester/amazon-freertos/lib/ota/portable/renesas/rza2m-gr-mango\aws_ota_pal.c **** 	p_block_header = (FIRMWARE_UPDATE_CONTROL_BLOCK *)block;
 142              		.loc 1 839 0
 143 000c 022CA0E3 		mov	r2, #512
 144 0010 0D00A0E1 		mov	r0, sp
 145 0014 BC109FE5 		ldr	r1, .L18
 146 0018 FEFFFFEB 		bl	memcpy
 147              	.LVL9:
 843:D:/Work/DeviceTester/amazon-freertos/lib/ota/portable/renesas/rza2m-gr-mango\aws_ota_pal.c **** 
 148              		.loc 1 843 0
 149 001c 0130E0E3 		mvn	r3, #1
 846:D:/Work/DeviceTester/amazon-freertos/lib/ota/portable/renesas/rza2m-gr-mango\aws_ota_pal.c **** 
 150              		.loc 1 846 0
 151 0020 1120A0E3 		mov	r2, #17
 152 0024 B0109FE5 		ldr	r1, .L18+4
 153 0028 08008DE2 		add	r0, sp, #8
 843:D:/Work/DeviceTester/amazon-freertos/lib/ota/portable/renesas/rza2m-gr-mango\aws_ota_pal.c **** 
 154              		.loc 1 843 0
 155 002c 0730CDE5 		strb	r3, [sp, #7]
 846:D:/Work/DeviceTester/amazon-freertos/lib/ota/portable/renesas/rza2m-gr-mango\aws_ota_pal.c **** 
 156              		.loc 1 846 0
 157 0030 FEFFFFEB 		bl	memcpy
 158              	.LVL10:
 159 0034 0F20A0E3 		mov	r2, #15
 160 0038 0010A0E3 		mov	r1, #0
 161 003c 19008DE2 		add	r0, sp, #25
 162 0040 FEFFFFEB 		bl	memset
 163              	.LVL11:
 849:D:/Work/DeviceTester/amazon-freertos/lib/ota/portable/renesas/rza2m-gr-mango\aws_ota_pal.c **** 	destination_pointer = p_block_header->signature;
 164              		.loc 1 849 0
 165 0044 003094E5 		ldr	r3, [r4]
 166              	.LVL12:
 852:D:/Work/DeviceTester/amazon-freertos/lib/ota/portable/renesas/rza2m-gr-mango\aws_ota_pal.c **** 	if (OTA_SIGUNATURE_SEQUENCE_TOP_VALUE == *source_pointer)
 167              		.loc 1 852 0
 168 0048 0020A0E3 		mov	r2, #0
 169 004c 2C208DE5 		str	r2, [sp, #44]
 853:D:/Work/DeviceTester/amazon-freertos/lib/ota/portable/renesas/rza2m-gr-mango\aws_ota_pal.c **** 	{
 170              		.loc 1 853 0
 171 0050 0220D3E5 		ldrb	r2, [r3, #2]	@ zero_extendqisi2
 851:D:/Work/DeviceTester/amazon-freertos/lib/ota/portable/renesas/rza2m-gr-mango\aws_ota_pal.c **** 	memset(destination_pointer, 0, sizeof(destination_pointer));
 172              		.loc 1 851 0
 173 0054 0360D3E5 		ldrb	r6, [r3, #3]	@ zero_extendqisi2
 174              	.LVL13:
 853:D:/Work/DeviceTester/amazon-freertos/lib/ota/portable/renesas/rza2m-gr-mango\aws_ota_pal.c **** 	{
 175              		.loc 1 853 0
 176 0058 300052E3 		cmp	r2, #48
 177 005c 1A00001A 		bne	.L11
 178 0060 026086E2 		add	r6, r6, #2
 179              	.LVL14:
 855:D:/Work/DeviceTester/amazon-freertos/lib/ota/portable/renesas/rza2m-gr-mango\aws_ota_pal.c **** 		while(1)
 180              		.loc 1 855 0
 181 0064 041083E2 		add	r1, r3, #4
 182              	.LVL15:
 183 0068 7660EFE6 		uxtb	r6, r6
 184              	.LVL16:
 850:D:/Work/DeviceTester/amazon-freertos/lib/ota/portable/renesas/rza2m-gr-mango\aws_ota_pal.c **** 	data_length = *(source_pointer + 1) + OTA_SIGUNATURE_SEQUENCE_INFO_LENGTH;
 185              		.loc 1 850 0
 186 006c 2C708DE2 		add	r7, sp, #44
 187              	.LVL17:
 872:D:/Work/DeviceTester/amazon-freertos/lib/ota/portable/renesas/rza2m-gr-mango\aws_ota_pal.c **** 				{
 188              		.loc 1 872 0
 189 0070 025083E2 		add	r5, r3, #2
 190              	.LVL18:
 191              	.L15:
 858:D:/Work/DeviceTester/amazon-freertos/lib/ota/portable/renesas/rza2m-gr-mango\aws_ota_pal.c **** 			{
 192              		.loc 1 858 0
 193 0074 0030D1E5 		ldrb	r3, [r1]	@ zero_extendqisi2
 194 0078 020053E3 		cmp	r3, #2
 195 007c 1200001A 		bne	.L11
 196              	.LVL19:
 861:D:/Work/DeviceTester/amazon-freertos/lib/ota/portable/renesas/rza2m-gr-mango\aws_ota_pal.c **** 				{
 197              		.loc 1 861 0
 198 0080 0130D1E5 		ldrb	r3, [r1, #1]	@ zero_extendqisi2
 869:D:/Work/DeviceTester/amazon-freertos/lib/ota/portable/renesas/rza2m-gr-mango\aws_ota_pal.c **** 				source_pointer += OTA_SIGUNATURE_DATA_HALF_LENGTH;
 199              		.loc 1 869 0
 200 0084 0700A0E1 		mov	r0, r7
 201 0088 2020A0E3 		mov	r2, #32
 871:D:/Work/DeviceTester/amazon-freertos/lib/ota/portable/renesas/rza2m-gr-mango\aws_ota_pal.c **** 				if ((source_pointer - C->pxSignature->ucData) == data_length)
 202              		.loc 1 871 0
 203 008c 207087E2 		add	r7, r7, #32
 204              	.LVL20:
 861:D:/Work/DeviceTester/amazon-freertos/lib/ota/portable/renesas/rza2m-gr-mango\aws_ota_pal.c **** 				{
 205              		.loc 1 861 0
 206 0090 210053E3 		cmp	r3, #33
 863:D:/Work/DeviceTester/amazon-freertos/lib/ota/portable/renesas/rza2m-gr-mango\aws_ota_pal.c **** 				}
 207              		.loc 1 863 0
 208 0094 03408102 		addeq	r4, r1, #3
 209              	.LVL21:
 867:D:/Work/DeviceTester/amazon-freertos/lib/ota/portable/renesas/rza2m-gr-mango\aws_ota_pal.c **** 				}
 210              		.loc 1 867 0
 211 0098 02408112 		addne	r4, r1, #2
 212              	.LVL22:
 869:D:/Work/DeviceTester/amazon-freertos/lib/ota/portable/renesas/rza2m-gr-mango\aws_ota_pal.c **** 				source_pointer += OTA_SIGUNATURE_DATA_HALF_LENGTH;
 213              		.loc 1 869 0
 214 009c 0410A0E1 		mov	r1, r4
 215 00a0 FEFFFFEB 		bl	memcpy
 216              	.LVL23:
 870:D:/Work/DeviceTester/amazon-freertos/lib/ota/portable/renesas/rza2m-gr-mango\aws_ota_pal.c **** 				destination_pointer += OTA_SIGUNATURE_DATA_HALF_LENGTH;
 217              		.loc 1 870 0
 218 00a4 201084E2 		add	r1, r4, #32
 219              	.LVL24:
 872:D:/Work/DeviceTester/amazon-freertos/lib/ota/portable/renesas/rza2m-gr-mango\aws_ota_pal.c **** 				{
 220              		.loc 1 872 0
 221 00a8 053041E0 		sub	r3, r1, r5
 222 00ac 060053E1 		cmp	r3, r6
 223 00b0 EFFFFF1A 		bne	.L15
 224              	.LVL25:
 889:D:/Work/DeviceTester/amazon-freertos/lib/ota/portable/renesas/rza2m-gr-mango\aws_ota_pal.c **** 	}
 225              		.loc 1 889 0
 226 00b4 022CA0E3 		mov	r2, #512
 227 00b8 0D10A0E1 		mov	r1, sp
 228              	.LVL26:
 229 00bc 1C009FE5 		ldr	r0, .L18+8
 230 00c0 FEFFFFEB 		bl	memcpy
 231              	.LVL27:
 874:D:/Work/DeviceTester/amazon-freertos/lib/ota/portable/renesas/rza2m-gr-mango\aws_ota_pal.c **** 					break;
 232              		.loc 1 874 0
 233 00c4 0000A0E3 		mov	r0, #0
 234 00c8 000000EA 		b	.L10
 235              	.LVL28:
 236              	.L11:
 850:D:/Work/DeviceTester/amazon-freertos/lib/ota/portable/renesas/rza2m-gr-mango\aws_ota_pal.c **** 	data_length = *(source_pointer + 1) + OTA_SIGUNATURE_SEQUENCE_INFO_LENGTH;
 237              		.loc 1 850 0
 238 00cc 0000E0E3 		mvn	r0, #0
 239              	.LVL29:
 240              	.L10:
 893:D:/Work/DeviceTester/amazon-freertos/lib/ota/portable/renesas/rza2m-gr-mango\aws_ota_pal.c **** 
 241              		.loc 1 893 0
 242 00d0 81DF8DE2 		add	sp, sp, #516
 243              		.cfi_def_cfa_offset 20
 244              	.LVL30:
 245              		@ sp needed
 246 00d4 F080BDE8 		pop	{r4, r5, r6, r7, pc}
 247              	.L19:
 248              		.align	2
 249              	.L18:
 250 00d8 00002050 		.word	1344274432
 251 00dc 00000000 		.word	.LANCHOR6
 252 00e0 00000000 		.word	.LANCHOR4
 253              		.cfi_endproc
 254              	.LFE25:
 256              		.section	.text.prvPAL_ReadAndAssumeCertificate,"ax",%progbits
 257              		.align	2
 258              		.syntax unified
 259              		.arm
 260              		.fpu neon
 262              	prvPAL_ReadAndAssumeCertificate:
 263              	.LFB9:
 499:D:/Work/DeviceTester/amazon-freertos/lib/ota/portable/renesas/rza2m-gr-mango\aws_ota_pal.c ****     DEFINE_OTA_METHOD_NAME( "prvPAL_ReadAndAssumeCertificate" );
 264              		.loc 1 499 0
 265              		.cfi_startproc
 266              		@ args = 0, pretend = 0, frame = 48
 267              		@ frame_needed = 0, uses_anonymous_args = 0
 268              	.LVL31:
 269 0000 F0432DE9 		push	{r4, r5, r6, r7, r8, r9, lr}
 270              		.cfi_def_cfa_offset 28
 271              		.cfi_offset 4, -28
 272              		.cfi_offset 5, -24
 273              		.cfi_offset 6, -20
 274              		.cfi_offset 7, -16
 275              		.cfi_offset 8, -12
 276              		.cfi_offset 9, -8
 277              		.cfi_offset 14, -4
 278              	.LBB16:
 279              	.LBB17:
 749:D:/Work/DeviceTester/amazon-freertos/lib/ota/portable/renesas/rza2m-gr-mango\aws_ota_pal.c ****     CK_SESSION_HANDLE xSession;
 280              		.loc 1 749 0
 281 0004 0130A0E3 		mov	r3, #1
 282              	.LBE17:
 283              	.LBE16:
 499:D:/Work/DeviceTester/amazon-freertos/lib/ota/portable/renesas/rza2m-gr-mango\aws_ota_pal.c ****     DEFINE_OTA_METHOD_NAME( "prvPAL_ReadAndAssumeCertificate" );
 284              		.loc 1 499 0
 285 0008 3CD04DE2 		sub	sp, sp, #60
 286              		.cfi_def_cfa_offset 88
 499:D:/Work/DeviceTester/amazon-freertos/lib/ota/portable/renesas/rza2m-gr-mango\aws_ota_pal.c ****     DEFINE_OTA_METHOD_NAME( "prvPAL_ReadAndAssumeCertificate" );
 287              		.loc 1 499 0
 288 000c 0080A0E1 		mov	r8, r0
 289              	.LVL32:
 290              	.LBB26:
 291              	.LBB22:
 755:D:/Work/DeviceTester/amazon-freertos/lib/ota/portable/renesas/rza2m-gr-mango\aws_ota_pal.c **** 
 292              		.loc 1 755 0
 293 0010 0C008DE2 		add	r0, sp, #12
 294              	.LVL33:
 295              	.LBE22:
 296              	.LBE26:
 499:D:/Work/DeviceTester/amazon-freertos/lib/ota/portable/renesas/rza2m-gr-mango\aws_ota_pal.c ****     DEFINE_OTA_METHOD_NAME( "prvPAL_ReadAndAssumeCertificate" );
 297              		.loc 1 499 0
 298 0014 0170A0E1 		mov	r7, r1
 299              	.LBB27:
 300              	.LBB23:
 749:D:/Work/DeviceTester/amazon-freertos/lib/ota/portable/renesas/rza2m-gr-mango\aws_ota_pal.c ****     CK_SESSION_HANDLE xSession;
 301              		.loc 1 749 0
 302 0018 14308DE5 		str	r3, [sp, #20]
 751:D:/Work/DeviceTester/amazon-freertos/lib/ota/portable/renesas/rza2m-gr-mango\aws_ota_pal.c ****     uint8_t * pucCert = NULL;
 303              		.loc 1 751 0
 304 001c 0030A0E3 		mov	r3, #0
 305 0020 20308DE5 		str	r3, [sp, #32]
 306 0024 24308DE5 		str	r3, [sp, #36]
 307 0028 28308DE5 		str	r3, [sp, #40]
 308              	.LVL34:
 755:D:/Work/DeviceTester/amazon-freertos/lib/ota/portable/renesas/rza2m-gr-mango\aws_ota_pal.c **** 
 309              		.loc 1 755 0
 310 002c FEFFFFEB 		bl	C_GetFunctionList
 311              	.LVL35:
 757:D:/Work/DeviceTester/amazon-freertos/lib/ota/portable/renesas/rza2m-gr-mango\aws_ota_pal.c ****     {
 312              		.loc 1 757 0
 313 0030 005050E2 		subs	r5, r0, #0
 314 0034 0300001A 		bne	.L21
 759:D:/Work/DeviceTester/amazon-freertos/lib/ota/portable/renesas/rza2m-gr-mango\aws_ota_pal.c ****     }
 315              		.loc 1 759 0
 316 0038 0C309DE5 		ldr	r3, [sp, #12]
 317 003c 043093E5 		ldr	r3, [r3, #4]
 318 0040 33FF2FE1 		blx	r3
 319              	.LVL36:
 320 0044 0050A0E1 		mov	r5, r0
 321              	.L21:
 762:D:/Work/DeviceTester/amazon-freertos/lib/ota/portable/renesas/rza2m-gr-mango\aws_ota_pal.c ****     {
 322              		.loc 1 762 0
 323 0048 912100E3 		movw	r2, #401
 324 004c 020055E1 		cmp	r5, r2
 325 0050 00005513 		cmpne	r5, #0
 326 0054 6500001A 		bne	.L39
 764:D:/Work/DeviceTester/amazon-freertos/lib/ota/portable/renesas/rza2m-gr-mango\aws_ota_pal.c ****     }
 327              		.loc 1 764 0
 328 0058 0C309DE5 		ldr	r3, [sp, #12]
 329 005c 14208DE2 		add	r2, sp, #20
 330 0060 10108DE2 		add	r1, sp, #16
 331 0064 0100A0E3 		mov	r0, #1
 332              	.LVL37:
 333 0068 143093E5 		ldr	r3, [r3, #20]
 334 006c 33FF2FE1 		blx	r3
 335              	.LVL38:
 767:D:/Work/DeviceTester/amazon-freertos/lib/ota/portable/renesas/rza2m-gr-mango\aws_ota_pal.c ****     {
 336              		.loc 1 767 0
 337 0070 005050E2 		subs	r5, r0, #0
 338 0074 5D00001A 		bne	.L39
 769:D:/Work/DeviceTester/amazon-freertos/lib/ota/portable/renesas/rza2m-gr-mango\aws_ota_pal.c ****     }
 339              		.loc 1 769 0
 340 0078 18308DE2 		add	r3, sp, #24
 341 007c 0520A0E1 		mov	r2, r5
 342 0080 00308DE5 		str	r3, [sp]
 343 0084 0410A0E3 		mov	r1, #4
 344 0088 0C309DE5 		ldr	r3, [sp, #12]
 345 008c 10009DE5 		ldr	r0, [sp, #16]
 346              	.LVL39:
 347 0090 344093E5 		ldr	r4, [r3, #52]
 348 0094 0530A0E1 		mov	r3, r5
 349 0098 34FF2FE1 		blx	r4
 350              	.LVL40:
 772:D:/Work/DeviceTester/amazon-freertos/lib/ota/portable/renesas/rza2m-gr-mango\aws_ota_pal.c ****     {
 351              		.loc 1 772 0
 352 009c 005050E2 		subs	r5, r0, #0
 353 00a0 5200001A 		bne	.L39
 354              	.LVL41:
 775:D:/Work/DeviceTester/amazon-freertos/lib/ota/portable/renesas/rza2m-gr-mango\aws_ota_pal.c ****     }
 355              		.loc 1 775 0
 356 00a4 0C609DE5 		ldr	r6, [sp, #12]
 357              	.LBB18:
 358              	.LBB19:
 715:D:/Work/DeviceTester/amazon-freertos/lib/ota/portable/renesas/rza2m-gr-mango\aws_ota_pal.c ****         xTemplate.ulValueLen = strlen( pcLabelName ) + 1;
 359              		.loc 1 715 0
 360 00a8 0330A0E3 		mov	r3, #3
 361              	.LBE19:
 362              	.LBE18:
 775:D:/Work/DeviceTester/amazon-freertos/lib/ota/portable/renesas/rza2m-gr-mango\aws_ota_pal.c ****     }
 363              		.loc 1 775 0
 364 00ac 18409DE5 		ldr	r4, [sp, #24]
 365              	.LVL42:
 366              	.LBB21:
 367              	.LBB20:
 716:D:/Work/DeviceTester/amazon-freertos/lib/ota/portable/renesas/rza2m-gr-mango\aws_ota_pal.c ****         xTemplate.pValue = ( char * ) pcLabelName;
 368              		.loc 1 716 0
 369 00b0 0800A0E1 		mov	r0, r8
 370              	.LVL43:
 709:D:/Work/DeviceTester/amazon-freertos/lib/ota/portable/renesas/rza2m-gr-mango\aws_ota_pal.c ****     CK_BBOOL xFindInit = CK_FALSE;
 371              		.loc 1 709 0
 372 00b4 1C508DE5 		str	r5, [sp, #28]
 373              	.LVL44:
 715:D:/Work/DeviceTester/amazon-freertos/lib/ota/portable/renesas/rza2m-gr-mango\aws_ota_pal.c ****         xTemplate.ulValueLen = strlen( pcLabelName ) + 1;
 374              		.loc 1 715 0
 375 00b8 2C308DE5 		str	r3, [sp, #44]
 716:D:/Work/DeviceTester/amazon-freertos/lib/ota/portable/renesas/rza2m-gr-mango\aws_ota_pal.c ****         xTemplate.pValue = ( char * ) pcLabelName;
 376              		.loc 1 716 0
 377 00bc FEFFFFEB 		bl	strlen
 378              	.LVL45:
 379 00c0 010080E2 		add	r0, r0, #1
 717:D:/Work/DeviceTester/amazon-freertos/lib/ota/portable/renesas/rza2m-gr-mango\aws_ota_pal.c ****         xResult = pxFunctionList->C_FindObjectsInit( xSession, &xTemplate, 1 );
 380              		.loc 1 717 0
 381 00c4 30808DE5 		str	r8, [sp, #48]
 716:D:/Work/DeviceTester/amazon-freertos/lib/ota/portable/renesas/rza2m-gr-mango\aws_ota_pal.c ****         xTemplate.pValue = ( char * ) pcLabelName;
 382              		.loc 1 716 0
 383 00c8 34008DE5 		str	r0, [sp, #52]
 718:D:/Work/DeviceTester/amazon-freertos/lib/ota/portable/renesas/rza2m-gr-mango\aws_ota_pal.c ****     }
 384              		.loc 1 718 0
 385 00cc 0120A0E3 		mov	r2, #1
 386 00d0 6C3096E5 		ldr	r3, [r6, #108]
 387 00d4 2C108DE2 		add	r1, sp, #44
 388 00d8 0400A0E1 		mov	r0, r4
 389 00dc 33FF2FE1 		blx	r3
 390              	.LVL46:
 721:D:/Work/DeviceTester/amazon-freertos/lib/ota/portable/renesas/rza2m-gr-mango\aws_ota_pal.c ****     {
 391              		.loc 1 721 0
 392 00e0 005050E2 		subs	r5, r0, #0
 393 00e4 0900001A 		bne	.L23
 394              	.LVL47:
 724:D:/Work/DeviceTester/amazon-freertos/lib/ota/portable/renesas/rza2m-gr-mango\aws_ota_pal.c ****                                                  ( CK_OBJECT_HANDLE_PTR ) pxCertHandle,
 395              		.loc 1 724 0
 396 00e8 705096E5 		ldr	r5, [r6, #112]
 397 00ec 1C308DE2 		add	r3, sp, #28
 398 00f0 0120A0E3 		mov	r2, #1
 399 00f4 08108DE2 		add	r1, sp, #8
 400              	.LVL48:
 401 00f8 0400A0E1 		mov	r0, r4
 402              	.LVL49:
 403 00fc 35FF2FE1 		blx	r5
 404              	.LVL50:
 732:D:/Work/DeviceTester/amazon-freertos/lib/ota/portable/renesas/rza2m-gr-mango\aws_ota_pal.c ****     }
 405              		.loc 1 732 0
 406 0100 743096E5 		ldr	r3, [r6, #116]
 407 0104 0400A0E1 		mov	r0, r4
 408 0108 33FF2FE1 		blx	r3
 409              	.LVL51:
 410 010c 0050A0E1 		mov	r5, r0
 411              	.LVL52:
 412              	.L23:
 413              	.LBE20:
 414              	.LBE21:
 774:D:/Work/DeviceTester/amazon-freertos/lib/ota/portable/renesas/rza2m-gr-mango\aws_ota_pal.c ****         xResult = prvGetCertificateHandle( xFunctionList, xSession, pcLabelName, &xHandle );
 415              		.loc 1 774 0
 416 0110 0160A0E3 		mov	r6, #1
 417              	.LVL53:
 418              	.L22:
 778:D:/Work/DeviceTester/amazon-freertos/lib/ota/portable/renesas/rza2m-gr-mango\aws_ota_pal.c ****     {
 419              		.loc 1 778 0
 420 0114 08109DE5 		ldr	r1, [sp, #8]
 421 0118 154F6FE1 		clz	r4, r5
 422 011c A442A0E1 		lsr	r4, r4, #5
 423 0120 0090A0E3 		mov	r9, #0
 424 0124 000051E3 		cmp	r1, #0
 425 0128 0040A003 		moveq	r4, #0
 426 012c 000054E3 		cmp	r4, #0
 427 0130 3600000A 		beq	.L24
 781:D:/Work/DeviceTester/amazon-freertos/lib/ota/portable/renesas/rza2m-gr-mango\aws_ota_pal.c ****         xTemplate.pValue = NULL;
 428              		.loc 1 781 0
 429 0134 1130A0E3 		mov	r3, #17
 782:D:/Work/DeviceTester/amazon-freertos/lib/ota/portable/renesas/rza2m-gr-mango\aws_ota_pal.c ****         xResult = xFunctionList->C_GetAttributeValue( xSession, xHandle, &xTemplate, xCount );
 430              		.loc 1 782 0
 431 0138 24908DE5 		str	r9, [sp, #36]
 781:D:/Work/DeviceTester/amazon-freertos/lib/ota/portable/renesas/rza2m-gr-mango\aws_ota_pal.c ****         xTemplate.pValue = NULL;
 432              		.loc 1 781 0
 433 013c 20308DE5 		str	r3, [sp, #32]
 783:D:/Work/DeviceTester/amazon-freertos/lib/ota/portable/renesas/rza2m-gr-mango\aws_ota_pal.c **** 
 434              		.loc 1 783 0
 435 0140 20208DE2 		add	r2, sp, #32
 436 0144 0C309DE5 		ldr	r3, [sp, #12]
 437 0148 18009DE5 		ldr	r0, [sp, #24]
 438              	.LVL54:
 439 014c 644093E5 		ldr	r4, [r3, #100]
 440 0150 14309DE5 		ldr	r3, [sp, #20]
 441 0154 34FF2FE1 		blx	r4
 442              	.LVL55:
 785:D:/Work/DeviceTester/amazon-freertos/lib/ota/portable/renesas/rza2m-gr-mango\aws_ota_pal.c ****         {
 443              		.loc 1 785 0
 444 0158 005050E2 		subs	r5, r0, #0
 752:D:/Work/DeviceTester/amazon-freertos/lib/ota/portable/renesas/rza2m-gr-mango\aws_ota_pal.c ****     CK_BBOOL xSessionOpen = CK_FALSE;
 445              		.loc 1 752 0
 446 015c 0940A011 		movne	r4, r9
 785:D:/Work/DeviceTester/amazon-freertos/lib/ota/portable/renesas/rza2m-gr-mango\aws_ota_pal.c ****         {
 447              		.loc 1 785 0
 448 0160 0200001A 		bne	.L25
 787:D:/Work/DeviceTester/amazon-freertos/lib/ota/portable/renesas/rza2m-gr-mango\aws_ota_pal.c ****         }
 449              		.loc 1 787 0
 450 0164 28009DE5 		ldr	r0, [sp, #40]
 451              	.LVL56:
 452 0168 FEFFFFEB 		bl	pvPortMalloc
 453              	.LVL57:
 454 016c 0040A0E1 		mov	r4, r0
 455              	.LVL58:
 456              	.L25:
 790:D:/Work/DeviceTester/amazon-freertos/lib/ota/portable/renesas/rza2m-gr-mango\aws_ota_pal.c ****         {
 457              		.loc 1 790 0
 458 0170 000055E3 		cmp	r5, #0
 459 0174 00005403 		cmpeq	r4, #0
 460 0178 3C00000A 		beq	.L41
 795:D:/Work/DeviceTester/amazon-freertos/lib/ota/portable/renesas/rza2m-gr-mango\aws_ota_pal.c ****         {
 461              		.loc 1 795 0
 462 017c 000055E3 		cmp	r5, #0
 463 0180 1E00001A 		bne	.L26
 798:D:/Work/DeviceTester/amazon-freertos/lib/ota/portable/renesas/rza2m-gr-mango\aws_ota_pal.c **** 
 464              		.loc 1 798 0
 465 0184 0C309DE5 		ldr	r3, [sp, #12]
 466 0188 20208DE2 		add	r2, sp, #32
 797:D:/Work/DeviceTester/amazon-freertos/lib/ota/portable/renesas/rza2m-gr-mango\aws_ota_pal.c ****             xResult = xFunctionList->C_GetAttributeValue( xSession, xHandle, &xTemplate, xCount );
 467              		.loc 1 797 0
 468 018c 24408DE5 		str	r4, [sp, #36]
 798:D:/Work/DeviceTester/amazon-freertos/lib/ota/portable/renesas/rza2m-gr-mango\aws_ota_pal.c **** 
 469              		.loc 1 798 0
 470 0190 08109DE5 		ldr	r1, [sp, #8]
 471 0194 645093E5 		ldr	r5, [r3, #100]
 472              	.LVL59:
 473 0198 18009DE5 		ldr	r0, [sp, #24]
 474 019c 14309DE5 		ldr	r3, [sp, #20]
 475 01a0 35FF2FE1 		blx	r5
 476              	.LVL60:
 800:D:/Work/DeviceTester/amazon-freertos/lib/ota/portable/renesas/rza2m-gr-mango\aws_ota_pal.c ****             {
 477              		.loc 1 800 0
 478 01a4 005050E2 		subs	r5, r0, #0
 479 01a8 1200001A 		bne	.L27
 480              	.LVL61:
 803:D:/Work/DeviceTester/amazon-freertos/lib/ota/portable/renesas/rza2m-gr-mango\aws_ota_pal.c ****             }
 481              		.loc 1 803 0
 482 01ac 28309DE5 		ldr	r3, [sp, #40]
 817:D:/Work/DeviceTester/amazon-freertos/lib/ota/portable/renesas/rza2m-gr-mango\aws_ota_pal.c ****     {
 483              		.loc 1 817 0
 484 01b0 010056E3 		cmp	r6, #1
 803:D:/Work/DeviceTester/amazon-freertos/lib/ota/portable/renesas/rza2m-gr-mango\aws_ota_pal.c ****             }
 485              		.loc 1 803 0
 486 01b4 003087E5 		str	r3, [r7]
 487              	.LVL62:
 817:D:/Work/DeviceTester/amazon-freertos/lib/ota/portable/renesas/rza2m-gr-mango\aws_ota_pal.c ****     {
 488              		.loc 1 817 0
 489 01b8 0500001A 		bne	.L34
 490              	.LVL63:
 491              	.L28:
 819:D:/Work/DeviceTester/amazon-freertos/lib/ota/portable/renesas/rza2m-gr-mango\aws_ota_pal.c ****     }
 492              		.loc 1 819 0
 493 01bc 0C309DE5 		ldr	r3, [sp, #12]
 494 01c0 18009DE5 		ldr	r0, [sp, #24]
 495 01c4 383093E5 		ldr	r3, [r3, #56]
 496 01c8 33FF2FE1 		blx	r3
 497              	.LVL64:
 498              	.LBE23:
 499              	.LBE27:
 509:D:/Work/DeviceTester/amazon-freertos/lib/ota/portable/renesas/rza2m-gr-mango\aws_ota_pal.c ****     {
 500              		.loc 1 509 0
 501 01cc 000055E3 		cmp	r5, #0
 502 01d0 1100001A 		bne	.L35
 503              	.L34:
 509:D:/Work/DeviceTester/amazon-freertos/lib/ota/portable/renesas/rza2m-gr-mango\aws_ota_pal.c ****     {
 504              		.loc 1 509 0 is_stmt 0 discriminator 1
 505 01d4 000054E3 		cmp	r4, #0
 506 01d8 0F00000A 		beq	.L35
 511:D:/Work/DeviceTester/amazon-freertos/lib/ota/portable/renesas/rza2m-gr-mango\aws_ota_pal.c ****     }
 507              		.loc 1 511 0 is_stmt 1
 508 01dc 94109FE5 		ldr	r1, .L51
 509 01e0 0820A0E1 		mov	r2, r8
 510 01e4 90009FE5 		ldr	r0, .L51+4
 511              	.L50:
 512              	.LBB28:
 513              	.LBB29:
 532:D:/Work/DeviceTester/amazon-freertos/lib/ota/portable/renesas/rza2m-gr-mango\aws_ota_pal.c ****         }
 514              		.loc 1 532 0
 515 01e8 FEFFFFEB 		bl	vLoggingPrintf
 516              	.LVL65:
 517              	.LBE29:
 518              	.LBE28:
 536:D:/Work/DeviceTester/amazon-freertos/lib/ota/portable/renesas/rza2m-gr-mango\aws_ota_pal.c **** }
 519              		.loc 1 536 0
 520 01ec 190000EA 		b	.L20
 521              	.LVL66:
 522              	.L39:
 523              	.LBB31:
 524              	.LBB24:
 753:D:/Work/DeviceTester/amazon-freertos/lib/ota/portable/renesas/rza2m-gr-mango\aws_ota_pal.c **** 
 525              		.loc 1 753 0
 526 01f0 0060A0E3 		mov	r6, #0
 527 01f4 C6FFFFEA 		b	.L22
 528              	.LVL67:
 529              	.L27:
 807:D:/Work/DeviceTester/amazon-freertos/lib/ota/portable/renesas/rza2m-gr-mango\aws_ota_pal.c ****             }
 530              		.loc 1 807 0
 531 01f8 0400A0E1 		mov	r0, r4
 532              	.LVL68:
 533 01fc FEFFFFEB 		bl	vPortFree
 534              	.LVL69:
 535              	.L26:
 817:D:/Work/DeviceTester/amazon-freertos/lib/ota/portable/renesas/rza2m-gr-mango\aws_ota_pal.c ****     {
 536              		.loc 1 817 0
 537 0200 010056E3 		cmp	r6, #1
 538 0204 0400001A 		bne	.L35
 539 0208 0040A0E3 		mov	r4, #0
 540              	.LVL70:
 541 020c EAFFFFEA 		b	.L28
 542              	.LVL71:
 543              	.L24:
 544 0210 010056E3 		cmp	r6, #1
 814:D:/Work/DeviceTester/amazon-freertos/lib/ota/portable/renesas/rza2m-gr-mango\aws_ota_pal.c ****     }
 545              		.loc 1 814 0
 546 0214 004087E5 		str	r4, [r7]
 817:D:/Work/DeviceTester/amazon-freertos/lib/ota/portable/renesas/rza2m-gr-mango\aws_ota_pal.c ****     {
 547              		.loc 1 817 0
 548 0218 E7FFFF0A 		beq	.L28
 549              	.LVL72:
 550              	.L35:
 551              	.LBE24:
 552              	.LBE31:
 515:D:/Work/DeviceTester/amazon-freertos/lib/ota/portable/renesas/rza2m-gr-mango\aws_ota_pal.c ****                     ( const char * ) pucCertName );
 553              		.loc 1 515 0
 554 021c 0820A0E1 		mov	r2, r8
 555 0220 50109FE5 		ldr	r1, .L51
 556 0224 54009FE5 		ldr	r0, .L51+8
 557 0228 FEFFFFEB 		bl	vLoggingPrintf
 558              	.LVL73:
 520:D:/Work/DeviceTester/amazon-freertos/lib/ota/portable/renesas/rza2m-gr-mango\aws_ota_pal.c ****         pucCertData = ( uint8_t * ) signingcredentialSIGNING_CERTIFICATE_PEM; /*lint !e9005 we don'
 559              		.loc 1 520 0
 560 022c 850300E3 		movw	r0, #901
 561 0230 FEFFFFEB 		bl	pvPortMalloc
 562              	.LVL74:
 523:D:/Work/DeviceTester/amazon-freertos/lib/ota/portable/renesas/rza2m-gr-mango\aws_ota_pal.c ****         {
 563              		.loc 1 523 0
 564 0234 004050E2 		subs	r4, r0, #0
 525:D:/Work/DeviceTester/amazon-freertos/lib/ota/portable/renesas/rza2m-gr-mango\aws_ota_pal.c ****             /* The crypto code requires the terminating zero to be part of the length so add 1 to t
 565              		.loc 1 525 0
 566 0238 E12FA0E3 		mov	r2, #900
 523:D:/Work/DeviceTester/amazon-freertos/lib/ota/portable/renesas/rza2m-gr-mango\aws_ota_pal.c ****         {
 567              		.loc 1 523 0
 568 023c 0800000A 		beq	.L33
 525:D:/Work/DeviceTester/amazon-freertos/lib/ota/portable/renesas/rza2m-gr-mango\aws_ota_pal.c ****             /* The crypto code requires the terminating zero to be part of the length so add 1 to t
 569              		.loc 1 525 0
 570 0240 3C109FE5 		ldr	r1, .L51+12
 571 0244 FEFFFFEB 		bl	memcpy
 572              	.LVL75:
 527:D:/Work/DeviceTester/amazon-freertos/lib/ota/portable/renesas/rza2m-gr-mango\aws_ota_pal.c ****             *ulSignerCertSize = ulCertSize + 1U;
 573              		.loc 1 527 0
 574 0248 0030A0E3 		mov	r3, #0
 575 024c 8433C4E5 		strb	r3, [r4, #900]
 528:D:/Work/DeviceTester/amazon-freertos/lib/ota/portable/renesas/rza2m-gr-mango\aws_ota_pal.c ****         }
 576              		.loc 1 528 0
 577 0250 853300E3 		movw	r3, #901
 578 0254 003087E5 		str	r3, [r7]
 579              	.LVL76:
 580              	.L20:
 537:D:/Work/DeviceTester/amazon-freertos/lib/ota/portable/renesas/rza2m-gr-mango\aws_ota_pal.c **** /*-----------------------------------------------------------*/
 581              		.loc 1 537 0
 582 0258 0400A0E1 		mov	r0, r4
 583 025c 3CD08DE2 		add	sp, sp, #60
 584              		.cfi_remember_state
 585              		.cfi_def_cfa_offset 28
 586              		@ sp needed
 587 0260 F083BDE8 		pop	{r4, r5, r6, r7, r8, r9, pc}
 588              	.LVL77:
 589              	.L33:
 590              		.cfi_restore_state
 591              	.LBB32:
 592              	.LBB30:
 532:D:/Work/DeviceTester/amazon-freertos/lib/ota/portable/renesas/rza2m-gr-mango\aws_ota_pal.c ****         }
 593              		.loc 1 532 0
 594 0264 0C109FE5 		ldr	r1, .L51
 595 0268 18009FE5 		ldr	r0, .L51+16
 596              	.LVL78:
 597 026c DDFFFFEA 		b	.L50
 598              	.LVL79:
 599              	.L41:
 600              	.LBE30:
 601              	.LBE32:
 602              	.LBB33:
 603              	.LBB25:
 792:D:/Work/DeviceTester/amazon-freertos/lib/ota/portable/renesas/rza2m-gr-mango\aws_ota_pal.c ****         }
 604              		.loc 1 792 0
 605 0270 0250A0E3 		mov	r5, #2
 606 0274 E1FFFFEA 		b	.L26
 607              	.L52:
 608              		.align	2
 609              	.L51:
 610 0278 00000000 		.word	.LANCHOR7
 611 027c 00000000 		.word	.LC1
 612 0280 24000000 		.word	.LC2
 613 0284 A5000000 		.word	.LC3
 614 0288 71000000 		.word	.LC4
 615              	.LBE25:
 616              	.LBE33:
 617              		.cfi_endproc
 618              	.LFE9:
 620              		.section	.text.prvPAL_CheckFileSignature,"ax",%progbits
 621              		.align	2
 622              		.syntax unified
 623              		.arm
 624              		.fpu neon
 626              	prvPAL_CheckFileSignature:
 627              	.LFB8:
 439:D:/Work/DeviceTester/amazon-freertos/lib/ota/portable/renesas/rza2m-gr-mango\aws_ota_pal.c ****     DEFINE_OTA_METHOD_NAME( "prvPAL_CheckFileSignature" );
 628              		.loc 1 439 0
 629              		.cfi_startproc
 630              		@ args = 0, pretend = 0, frame = 8
 631              		@ frame_needed = 0, uses_anonymous_args = 0
 632              	.LVL80:
 633 0000 7F402DE9 		push	{r0, r1, r2, r3, r4, r5, r6, lr}
 634              		.cfi_def_cfa_offset 32
 635              		.cfi_offset 4, -16
 636              		.cfi_offset 5, -12
 637              		.cfi_offset 6, -8
 638              		.cfi_offset 14, -4
 449:D:/Work/DeviceTester/amazon-freertos/lib/ota/portable/renesas/rza2m-gr-mango\aws_ota_pal.c ****                                            cryptoHASH_ALGORITHM_SHA256 ) == pdFALSE )
 639              		.loc 1 449 0
 640 0004 0220A0E3 		mov	r2, #2
 439:D:/Work/DeviceTester/amazon-freertos/lib/ota/portable/renesas/rza2m-gr-mango\aws_ota_pal.c ****     DEFINE_OTA_METHOD_NAME( "prvPAL_CheckFileSignature" );
 641              		.loc 1 439 0
 642 0008 0040A0E1 		mov	r4, r0
 449:D:/Work/DeviceTester/amazon-freertos/lib/ota/portable/renesas/rza2m-gr-mango\aws_ota_pal.c ****                                            cryptoHASH_ALGORITHM_SHA256 ) == pdFALSE )
 643              		.loc 1 449 0
 644 000c 0210A0E1 		mov	r1, r2
 645 0010 0C008DE2 		add	r0, sp, #12
 646              	.LVL81:
 647 0014 FEFFFFEB 		bl	CRYPTO_SignatureVerificationStart
 648              	.LVL82:
 649 0018 000050E3 		cmp	r0, #0
 452:D:/Work/DeviceTester/amazon-freertos/lib/ota/portable/renesas/rza2m-gr-mango\aws_ota_pal.c ****     }
 650              		.loc 1 452 0
 651 001c 0144A003 		moveq	r4, #16777216
 652              	.LVL83:
 449:D:/Work/DeviceTester/amazon-freertos/lib/ota/portable/renesas/rza2m-gr-mango\aws_ota_pal.c ****                                            cryptoHASH_ALGORITHM_SHA256 ) == pdFALSE )
 653              		.loc 1 449 0
 654 0020 2000000A 		beq	.L53
 456:D:/Work/DeviceTester/amazon-freertos/lib/ota/portable/renesas/rza2m-gr-mango\aws_ota_pal.c ****                     cOTA_JSON_FileSignatureKey, ( const char * ) C->pucCertFilepath );
 655              		.loc 1 456 0
 656 0024 303094E5 		ldr	r3, [r4, #48]
 657 0028 A0209FE5 		ldr	r2, .L60
 658 002c A0109FE5 		ldr	r1, .L60+4
 659 0030 A0009FE5 		ldr	r0, .L60+8
 660 0034 FEFFFFEB 		bl	vLoggingPrintf
 661              	.LVL84:
 458:D:/Work/DeviceTester/amazon-freertos/lib/ota/portable/renesas/rza2m-gr-mango\aws_ota_pal.c **** 
 662              		.loc 1 458 0
 663 0038 300094E5 		ldr	r0, [r4, #48]
 664 003c 08108DE2 		add	r1, sp, #8
 665 0040 FEFFFFEB 		bl	prvPAL_ReadAndAssumeCertificate
 666              	.LVL85:
 460:D:/Work/DeviceTester/amazon-freertos/lib/ota/portable/renesas/rza2m-gr-mango\aws_ota_pal.c ****         {
 667              		.loc 1 460 0
 668 0044 005050E2 		subs	r5, r0, #0
 462:D:/Work/DeviceTester/amazon-freertos/lib/ota/portable/renesas/rza2m-gr-mango\aws_ota_pal.c ****         }
 669              		.loc 1 462 0
 670 0048 0244A003 		moveq	r4, #33554432
 460:D:/Work/DeviceTester/amazon-freertos/lib/ota/portable/renesas/rza2m-gr-mango\aws_ota_pal.c ****         {
 671              		.loc 1 460 0
 672 004c 1500000A 		beq	.L53
 468:D:/Work/DeviceTester/amazon-freertos/lib/ota/portable/renesas/rza2m-gr-mango\aws_ota_pal.c **** 
 673              		.loc 1 468 0
 674 0050 84609FE5 		ldr	r6, .L60+12
 466:D:/Work/DeviceTester/amazon-freertos/lib/ota/portable/renesas/rza2m-gr-mango\aws_ota_pal.c ****                                                 (const uint8_t*)hyper + BOOT_LOADER_USER_FIRMWARE_H
 675              		.loc 1 466 0
 676 0054 84109FE5 		ldr	r1, .L60+16
 677 0058 0C009DE5 		ldr	r0, [sp, #12]
 678              	.LVL86:
 468:D:/Work/DeviceTester/amazon-freertos/lib/ota/portable/renesas/rza2m-gr-mango\aws_ota_pal.c **** 
 679              		.loc 1 468 0
 680 005c 082096E5 		ldr	r2, [r6, #8]
 466:D:/Work/DeviceTester/amazon-freertos/lib/ota/portable/renesas/rza2m-gr-mango\aws_ota_pal.c ****                                                 (const uint8_t*)hyper + BOOT_LOADER_USER_FIRMWARE_H
 681              		.loc 1 466 0
 682 0060 FEFFFFEB 		bl	CRYPTO_SignatureVerificationUpdate
 683              	.LVL87:
 471:D:/Work/DeviceTester/amazon-freertos/lib/ota/portable/renesas/rza2m-gr-mango\aws_ota_pal.c ****             {
 684              		.loc 1 471 0
 685 0064 283094E5 		ldr	r3, [r4, #40]
 470:D:/Work/DeviceTester/amazon-freertos/lib/ota/portable/renesas/rza2m-gr-mango\aws_ota_pal.c ****                                                    C->pxSignature->ucData, C->pxSignature->usSize )
 686              		.loc 1 470 0
 687 0068 0510A0E1 		mov	r1, r5
 688 006c 0C009DE5 		ldr	r0, [sp, #12]
 689 0070 B020D3E1 		ldrh	r2, [r3]
 690 0074 023083E2 		add	r3, r3, #2
 691 0078 00208DE5 		str	r2, [sp]
 692 007c 08209DE5 		ldr	r2, [sp, #8]
 693 0080 FEFFFFEB 		bl	CRYPTO_SignatureVerificationFinal
 694              	.LVL88:
 695 0084 000050E3 		cmp	r0, #0
 473:D:/Work/DeviceTester/amazon-freertos/lib/ota/portable/renesas/rza2m-gr-mango\aws_ota_pal.c ****                     cOTA_JSON_FileSignatureKey );
 696              		.loc 1 473 0
 697 0088 40209FE5 		ldr	r2, .L60
 698 008c 40109FE5 		ldr	r1, .L60+4
 470:D:/Work/DeviceTester/amazon-freertos/lib/ota/portable/renesas/rza2m-gr-mango\aws_ota_pal.c ****                                                    C->pxSignature->ucData, C->pxSignature->usSize )
 699              		.loc 1 470 0
 700 0090 0700001A 		bne	.L55
 475:D:/Work/DeviceTester/amazon-freertos/lib/ota/portable/renesas/rza2m-gr-mango\aws_ota_pal.c ****             }
 701              		.loc 1 475 0
 702 0094 0144A0E3 		mov	r4, #16777216
 473:D:/Work/DeviceTester/amazon-freertos/lib/ota/portable/renesas/rza2m-gr-mango\aws_ota_pal.c ****                     cOTA_JSON_FileSignatureKey );
 703              		.loc 1 473 0
 704 0098 44009FE5 		ldr	r0, .L60+20
 705 009c FEFFFFEB 		bl	vLoggingPrintf
 706              	.LVL89:
 707              	.L56:
 490:D:/Work/DeviceTester/amazon-freertos/lib/ota/portable/renesas/rza2m-gr-mango\aws_ota_pal.c ****     }
 708              		.loc 1 490 0
 709 00a0 0500A0E1 		mov	r0, r5
 710 00a4 FEFFFFEB 		bl	vPortFree
 711              	.LVL90:
 712              	.L53:
 494:D:/Work/DeviceTester/amazon-freertos/lib/ota/portable/renesas/rza2m-gr-mango\aws_ota_pal.c **** /*-----------------------------------------------------------*/
 713              		.loc 1 494 0
 714 00a8 0400A0E1 		mov	r0, r4
 715 00ac 10D08DE2 		add	sp, sp, #16
 716              		.cfi_remember_state
 717              		.cfi_def_cfa_offset 16
 718              		@ sp needed
 719 00b0 7080BDE8 		pop	{r4, r5, r6, pc}
 720              	.LVL91:
 721              	.L55:
 722              		.cfi_restore_state
 479:D:/Work/DeviceTester/amazon-freertos/lib/ota/portable/renesas/rza2m-gr-mango\aws_ota_pal.c ****                     cOTA_JSON_FileSignatureKey );
 723              		.loc 1 479 0
 724 00b4 2C009FE5 		ldr	r0, .L60+24
 481:D:/Work/DeviceTester/amazon-freertos/lib/ota/portable/renesas/rza2m-gr-mango\aws_ota_pal.c ****             	image_size = load_firmware_control_block.total_image_length;
 725              		.loc 1 481 0
 726 00b8 0040A0E3 		mov	r4, #0
 479:D:/Work/DeviceTester/amazon-freertos/lib/ota/portable/renesas/rza2m-gr-mango\aws_ota_pal.c ****                     cOTA_JSON_FileSignatureKey );
 727              		.loc 1 479 0
 728 00bc FEFFFFEB 		bl	vLoggingPrintf
 729              	.LVL92:
 482:D:/Work/DeviceTester/amazon-freertos/lib/ota/portable/renesas/rza2m-gr-mango\aws_ota_pal.c ****             }
 730              		.loc 1 482 0
 731 00c0 082096E5 		ldr	r2, [r6, #8]
 732 00c4 20309FE5 		ldr	r3, .L60+28
 733 00c8 002083E5 		str	r2, [r3]
 734 00cc F3FFFFEA 		b	.L56
 735              	.L61:
 736              		.align	2
 737              	.L60:
 738 00d0 00000000 		.word	.LANCHOR8
 739 00d4 00000000 		.word	.LANCHOR9
 740 00d8 00000000 		.word	.LC5
 741 00dc 00000000 		.word	.LANCHOR5
 742 00e0 00020000 		.word	.LANCHOR4+512
 743 00e4 33000000 		.word	.LC6
 744 00e8 87000000 		.word	.LC7
 745 00ec 00000000 		.word	.LANCHOR10
 746              		.cfi_endproc
 747              	.LFE8:
 749              		.section	.text.prvPAL_CreateFileForRx,"ax",%progbits
 750              		.align	2
 751              		.global	prvPAL_CreateFileForRx
 752              		.syntax unified
 753              		.arm
 754              		.fpu neon
 756              	prvPAL_CreateFileForRx:
 757              	.LFB4:
 242:D:/Work/DeviceTester/amazon-freertos/lib/ota/portable/renesas/rza2m-gr-mango\aws_ota_pal.c ****     DEFINE_OTA_METHOD_NAME( "prvPAL_CreateFileForRx" );
 758              		.loc 1 242 0
 759              		.cfi_startproc
 760              		@ args = 0, pretend = 0, frame = 0
 761              		@ frame_needed = 0, uses_anonymous_args = 0
 762              	.LVL93:
 763 0000 13402DE9 		push	{r0, r1, r4, lr}
 764              		.cfi_def_cfa_offset 16
 765              		.cfi_offset 4, -8
 766              		.cfi_offset 14, -4
 242:D:/Work/DeviceTester/amazon-freertos/lib/ota/portable/renesas/rza2m-gr-mango\aws_ota_pal.c ****     DEFINE_OTA_METHOD_NAME( "prvPAL_CreateFileForRx" );
 767              		.loc 1 242 0
 768 0004 0040A0E1 		mov	r4, r0
 244:D:/Work/DeviceTester/amazon-freertos/lib/ota/portable/renesas/rza2m-gr-mango\aws_ota_pal.c ****     OTA_LOG_L1("Compiled in [%s] [%s].\r\n", __DATE__, __TIME__);
 769              		.loc 1 244 0
 770 0008 E0109FE5 		ldr	r1, .L72
 771 000c E0009FE5 		ldr	r0, .L72+4
 772              	.LVL94:
 773 0010 FEFFFFEB 		bl	vLoggingPrintf
 774              	.LVL95:
 245:D:/Work/DeviceTester/amazon-freertos/lib/ota/portable/renesas/rza2m-gr-mango\aws_ota_pal.c ****     OTA_Err_t eResult = kOTA_Err_Uninitialized;
 775              		.loc 1 245 0
 776 0014 DC209FE5 		ldr	r2, .L72+8
 777 0018 DC109FE5 		ldr	r1, .L72+12
 778 001c DC009FE5 		ldr	r0, .L72+16
 779 0020 FEFFFFEB 		bl	vLoggingPrintf
 780              	.LVL96:
 248:D:/Work/DeviceTester/amazon-freertos/lib/ota/portable/renesas/rza2m-gr-mango\aws_ota_pal.c ****     {
 781              		.loc 1 248 0
 782 0024 000054E3 		cmp	r4, #0
 783 0028 2B00000A 		beq	.L63
 250:D:/Work/DeviceTester/amazon-freertos/lib/ota/portable/renesas/rza2m-gr-mango\aws_ota_pal.c ****         {
 784              		.loc 1 250 0
 785 002c 003094E5 		ldr	r3, [r4]
 786 0030 000053E3 		cmp	r3, #0
 787 0034 2800000A 		beq	.L63
 253:D:/Work/DeviceTester/amazon-freertos/lib/ota/portable/renesas/rza2m-gr-mango\aws_ota_pal.c **** 			xTaskCreate(ota_flashing_task, "OTA_FLASHING_TASK", configMINIMAL_STACK_SIZE, NULL, configMAX_PR
 788              		.loc 1 253 0
 789 0038 0020A0E3 		mov	r2, #0
 790 003c 0C10A0E3 		mov	r1, #12
 791 0040 8000A0E3 		mov	r0, #128
 792 0044 FEFFFFEB 		bl	xQueueGenericCreate
 793              	.LVL97:
 794 0048 B4309FE5 		ldr	r3, .L72+20
 254:D:/Work/DeviceTester/amazon-freertos/lib/ota/portable/renesas/rza2m-gr-mango\aws_ota_pal.c **** 			xSemaphoreFlashig = xSemaphoreCreateBinary();
 795              		.loc 1 254 0
 796 004c 022CA0E3 		mov	r2, #512
 797 0050 B0109FE5 		ldr	r1, .L72+24
 253:D:/Work/DeviceTester/amazon-freertos/lib/ota/portable/renesas/rza2m-gr-mango\aws_ota_pal.c **** 			xTaskCreate(ota_flashing_task, "OTA_FLASHING_TASK", configMINIMAL_STACK_SIZE, NULL, configMAX_PR
 798              		.loc 1 253 0
 799 0054 000083E5 		str	r0, [r3]
 254:D:/Work/DeviceTester/amazon-freertos/lib/ota/portable/renesas/rza2m-gr-mango\aws_ota_pal.c **** 			xSemaphoreFlashig = xSemaphoreCreateBinary();
 800              		.loc 1 254 0
 801 0058 AC309FE5 		ldr	r3, .L72+28
 802 005c AC009FE5 		ldr	r0, .L72+32
 803 0060 04308DE5 		str	r3, [sp, #4]
 804 0064 1430A0E3 		mov	r3, #20
 805 0068 00308DE5 		str	r3, [sp]
 806 006c 0030A0E3 		mov	r3, #0
 807 0070 FEFFFFEB 		bl	xTaskCreate
 808              	.LVL98:
 255:D:/Work/DeviceTester/amazon-freertos/lib/ota/portable/renesas/rza2m-gr-mango\aws_ota_pal.c **** 			xSemaphoreGive(xSemaphoreFlashig);
 809              		.loc 1 255 0
 810 0074 0320A0E3 		mov	r2, #3
 811 0078 0010A0E3 		mov	r1, #0
 812 007c 0100A0E3 		mov	r0, #1
 813 0080 FEFFFFEB 		bl	xQueueGenericCreate
 814              	.LVL99:
 815 0084 88309FE5 		ldr	r3, .L72+36
 816 0088 000083E5 		str	r0, [r3]
 256:D:/Work/DeviceTester/amazon-freertos/lib/ota/portable/renesas/rza2m-gr-mango\aws_ota_pal.c **** 			xSemaphoreWriteBlock = xSemaphoreCreateMutex();
 817              		.loc 1 256 0
 818 008c 0030A0E3 		mov	r3, #0
 819 0090 0320A0E1 		mov	r2, r3
 820 0094 0310A0E1 		mov	r1, r3
 821 0098 FEFFFFEB 		bl	xQueueGenericSend
 822              	.LVL100:
 257:D:/Work/DeviceTester/amazon-freertos/lib/ota/portable/renesas/rza2m-gr-mango\aws_ota_pal.c **** 			xSemaphoreGive(xSemaphoreWriteBlock);
 823              		.loc 1 257 0
 824 009c 0100A0E3 		mov	r0, #1
 825 00a0 FEFFFFEB 		bl	xQueueCreateMutex
 826              	.LVL101:
 827 00a4 6C309FE5 		ldr	r3, .L72+40
 828 00a8 000083E5 		str	r0, [r3]
 258:D:/Work/DeviceTester/amazon-freertos/lib/ota/portable/renesas/rza2m-gr-mango\aws_ota_pal.c **** 			fragmented_flash_block_list = NULL;
 829              		.loc 1 258 0
 830 00ac 0030A0E3 		mov	r3, #0
 831 00b0 0320A0E1 		mov	r2, r3
 832 00b4 0310A0E1 		mov	r1, r3
 833 00b8 FEFFFFEB 		bl	xQueueGenericSend
 834              	.LVL102:
 261:D:/Work/DeviceTester/amazon-freertos/lib/ota/portable/renesas/rza2m-gr-mango\aws_ota_pal.c **** 			load_firmware_control_block.total_image_length = 0;
 835              		.loc 1 261 0
 836 00bc 58309FE5 		ldr	r3, .L72+44
 262:D:/Work/DeviceTester/amazon-freertos/lib/ota/portable/renesas/rza2m-gr-mango\aws_ota_pal.c **** 			load_firmware_control_block.eSavedAgentState = eOTA_ImageState_Unknown;
 837              		.loc 1 262 0
 838 00c0 0000A0E3 		mov	r0, #0
 261:D:/Work/DeviceTester/amazon-freertos/lib/ota/portable/renesas/rza2m-gr-mango\aws_ota_pal.c **** 			load_firmware_control_block.total_image_length = 0;
 839              		.loc 1 261 0
 840 00c4 104083E5 		str	r4, [r3, #16]
 262:D:/Work/DeviceTester/amazon-freertos/lib/ota/portable/renesas/rza2m-gr-mango\aws_ota_pal.c **** 			load_firmware_control_block.eSavedAgentState = eOTA_ImageState_Unknown;
 841              		.loc 1 262 0
 842 00c8 080083E5 		str	r0, [r3, #8]
 263:D:/Work/DeviceTester/amazon-freertos/lib/ota/portable/renesas/rza2m-gr-mango\aws_ota_pal.c **** 			C->pucFile = (uint8_t *)&load_firmware_control_block;
 843              		.loc 1 263 0
 844 00cc 0C00C3E5 		strb	r0, [r3, #12]
 264:D:/Work/DeviceTester/amazon-freertos/lib/ota/portable/renesas/rza2m-gr-mango\aws_ota_pal.c **** 			eResult = kOTA_Err_None;
 845              		.loc 1 264 0
 846 00d0 043084E5 		str	r3, [r4, #4]
 847              	.LVL103:
 848              	.L62:
 280:D:/Work/DeviceTester/amazon-freertos/lib/ota/portable/renesas/rza2m-gr-mango\aws_ota_pal.c **** /*-----------------------------------------------------------*/
 849              		.loc 1 280 0
 850 00d4 08D08DE2 		add	sp, sp, #8
 851              		.cfi_remember_state
 852              		.cfi_def_cfa_offset 8
 853              		@ sp needed
 854 00d8 1080BDE8 		pop	{r4, pc}
 855              	.LVL104:
 856              	.L63:
 857              		.cfi_restore_state
 270:D:/Work/DeviceTester/amazon-freertos/lib/ota/portable/renesas/rza2m-gr-mango\aws_ota_pal.c ****         }
 858              		.loc 1 270 0
 859 00dc 3C009FE5 		ldr	r0, .L72+48
 860 00e0 08109FE5 		ldr	r1, .L72
 861 00e4 FEFFFFEB 		bl	vLoggingPrintf
 862              	.LVL105:
 269:D:/Work/DeviceTester/amazon-freertos/lib/ota/portable/renesas/rza2m-gr-mango\aws_ota_pal.c ****             OTA_LOG_L1( "[%s] ERROR - Invalid context provided.\r\n", OTA_METHOD_NAME );
 863              		.loc 1 269 0
 864 00e8 1204A0E3 		mov	r0, #301989888
 279:D:/Work/DeviceTester/amazon-freertos/lib/ota/portable/renesas/rza2m-gr-mango\aws_ota_pal.c **** }
 865              		.loc 1 279 0
 866 00ec F8FFFFEA 		b	.L62
 867              	.L73:
 868              		.align	2
 869              	.L72:
 870 00f0 00000000 		.word	.LANCHOR11
 871 00f4 00000000 		.word	.LC8
 872 00f8 12000000 		.word	.LC9
 873 00fc 1B000000 		.word	.LC10
 874 0100 27000000 		.word	.LC11
 875 0104 00000000 		.word	.LANCHOR1
 876 0108 40000000 		.word	.LC12
 877 010c 00000000 		.word	.LANCHOR12
 878 0110 00000000 		.word	ota_flashing_task
 879 0114 00000000 		.word	.LANCHOR2
 880 0118 00000000 		.word	.LANCHOR13
 881 011c 00000000 		.word	.LANCHOR5
 882 0120 52000000 		.word	.LC13
 883              		.cfi_endproc
 884              	.LFE4:
 886              		.section	.text.prvPAL_Abort,"ax",%progbits
 887              		.align	2
 888              		.global	prvPAL_Abort
 889              		.syntax unified
 890              		.arm
 891              		.fpu neon
 893              	prvPAL_Abort:
 894              	.LFB5:
 284:D:/Work/DeviceTester/amazon-freertos/lib/ota/portable/renesas/rza2m-gr-mango\aws_ota_pal.c ****     DEFINE_OTA_METHOD_NAME( "prvPAL_Abort" );
 895              		.loc 1 284 0
 896              		.cfi_startproc
 897              		@ args = 0, pretend = 0, frame = 0
 898              		@ frame_needed = 0, uses_anonymous_args = 0
 899              	.LVL106:
 900 0000 70402DE9 		push	{r4, r5, r6, lr}
 901              		.cfi_def_cfa_offset 16
 902              		.cfi_offset 4, -16
 903              		.cfi_offset 5, -12
 904              		.cfi_offset 6, -8
 905              		.cfi_offset 14, -4
 284:D:/Work/DeviceTester/amazon-freertos/lib/ota/portable/renesas/rza2m-gr-mango\aws_ota_pal.c ****     DEFINE_OTA_METHOD_NAME( "prvPAL_Abort" );
 906              		.loc 1 284 0
 907 0004 0040A0E1 		mov	r4, r0
 298:D:/Work/DeviceTester/amazon-freertos/lib/ota/portable/renesas/rza2m-gr-mango\aws_ota_pal.c **** 		{
 908              		.loc 1 298 0
 909 0008 88509FE5 		ldr	r5, .L96
 286:D:/Work/DeviceTester/amazon-freertos/lib/ota/portable/renesas/rza2m-gr-mango\aws_ota_pal.c **** 
 910              		.loc 1 286 0
 911 000c 88009FE5 		ldr	r0, .L96+4
 912              	.LVL107:
 913 0010 88109FE5 		ldr	r1, .L96+8
 914 0014 FEFFFFEB 		bl	vLoggingPrintf
 915              	.LVL108:
 298:D:/Work/DeviceTester/amazon-freertos/lib/ota/portable/renesas/rza2m-gr-mango\aws_ota_pal.c **** 		{
 916              		.loc 1 298 0
 917 0018 000095E5 		ldr	r0, [r5]
 918 001c 000050E3 		cmp	r0, #0
 919 0020 0200000A 		beq	.L75
 300:D:/Work/DeviceTester/amazon-freertos/lib/ota/portable/renesas/rza2m-gr-mango\aws_ota_pal.c **** 			xTask = NULL;
 920              		.loc 1 300 0
 921 0024 FEFFFFEB 		bl	vTaskDelete
 922              	.LVL109:
 301:D:/Work/DeviceTester/amazon-freertos/lib/ota/portable/renesas/rza2m-gr-mango\aws_ota_pal.c **** 		}
 923              		.loc 1 301 0
 924 0028 0030A0E3 		mov	r3, #0
 925 002c 003085E5 		str	r3, [r5]
 926              	.L75:
 303:D:/Work/DeviceTester/amazon-freertos/lib/ota/portable/renesas/rza2m-gr-mango\aws_ota_pal.c **** 		{
 927              		.loc 1 303 0
 928 0030 6C509FE5 		ldr	r5, .L96+12
 929 0034 000095E5 		ldr	r0, [r5]
 930 0038 000050E3 		cmp	r0, #0
 931 003c 0200000A 		beq	.L76
 305:D:/Work/DeviceTester/amazon-freertos/lib/ota/portable/renesas/rza2m-gr-mango\aws_ota_pal.c **** 			xQueue = NULL;
 932              		.loc 1 305 0
 933 0040 FEFFFFEB 		bl	vQueueDelete
 934              	.LVL110:
 306:D:/Work/DeviceTester/amazon-freertos/lib/ota/portable/renesas/rza2m-gr-mango\aws_ota_pal.c **** 		}
 935              		.loc 1 306 0
 936 0044 0030A0E3 		mov	r3, #0
 937 0048 003085E5 		str	r3, [r5]
 938              	.L76:
 308:D:/Work/DeviceTester/amazon-freertos/lib/ota/portable/renesas/rza2m-gr-mango\aws_ota_pal.c **** 		{
 939              		.loc 1 308 0
 940 004c 54509FE5 		ldr	r5, .L96+16
 941 0050 000095E5 		ldr	r0, [r5]
 942 0054 000050E3 		cmp	r0, #0
 943 0058 0200000A 		beq	.L77
 310:D:/Work/DeviceTester/amazon-freertos/lib/ota/portable/renesas/rza2m-gr-mango\aws_ota_pal.c **** 			xSemaphoreFlashig = NULL;
 944              		.loc 1 310 0
 945 005c FEFFFFEB 		bl	vQueueDelete
 946              	.LVL111:
 311:D:/Work/DeviceTester/amazon-freertos/lib/ota/portable/renesas/rza2m-gr-mango\aws_ota_pal.c **** 		}
 947              		.loc 1 311 0
 948 0060 0030A0E3 		mov	r3, #0
 949 0064 003085E5 		str	r3, [r5]
 950              	.L77:
 313:D:/Work/DeviceTester/amazon-freertos/lib/ota/portable/renesas/rza2m-gr-mango\aws_ota_pal.c **** 		{
 951              		.loc 1 313 0
 952 0068 3C509FE5 		ldr	r5, .L96+20
 953 006c 000095E5 		ldr	r0, [r5]
 954 0070 000050E3 		cmp	r0, #0
 955 0074 0200000A 		beq	.L78
 315:D:/Work/DeviceTester/amazon-freertos/lib/ota/portable/renesas/rza2m-gr-mango\aws_ota_pal.c **** 			xSemaphoreWriteBlock = NULL;
 956              		.loc 1 315 0
 957 0078 FEFFFFEB 		bl	vQueueDelete
 958              	.LVL112:
 316:D:/Work/DeviceTester/amazon-freertos/lib/ota/portable/renesas/rza2m-gr-mango\aws_ota_pal.c **** 		}
 959              		.loc 1 316 0
 960 007c 0030A0E3 		mov	r3, #0
 961 0080 003085E5 		str	r3, [r5]
 962              	.L78:
 963              	.LVL113:
 964              	.LBB36:
 965              	.LBB37:
 897:D:/Work/DeviceTester/amazon-freertos/lib/ota/portable/renesas/rza2m-gr-mango\aws_ota_pal.c ****     {
 966              		.loc 1 897 0
 967 0084 000054E3 		cmp	r4, #0
 968              	.LBE37:
 969              	.LBE36:
 322:D:/Work/DeviceTester/amazon-freertos/lib/ota/portable/renesas/rza2m-gr-mango\aws_ota_pal.c **** /*-----------------------------------------------------------*/
 970              		.loc 1 322 0
 971 0088 0000A0E3 		mov	r0, #0
 972              	.LBB39:
 973              	.LBB38:
 899:D:/Work/DeviceTester/amazon-freertos/lib/ota/portable/renesas/rza2m-gr-mango\aws_ota_pal.c ****     }
 974              		.loc 1 899 0
 975 008c 0030A013 		movne	r3, #0
 976 0090 04308415 		strne	r3, [r4, #4]
 977              	.LVL114:
 978              	.LBE38:
 979              	.LBE39:
 322:D:/Work/DeviceTester/amazon-freertos/lib/ota/portable/renesas/rza2m-gr-mango\aws_ota_pal.c **** /*-----------------------------------------------------------*/
 980              		.loc 1 322 0
 981 0094 7080BDE8 		pop	{r4, r5, r6, pc}
 982              	.L97:
 983              		.align	2
 984              	.L96:
 985 0098 00000000 		.word	.LANCHOR12
 986 009c 00000000 		.word	.LC8
 987 00a0 00000000 		.word	.LANCHOR14
 988 00a4 00000000 		.word	.LANCHOR1
 989 00a8 00000000 		.word	.LANCHOR2
 990 00ac 00000000 		.word	.LANCHOR13
 991              		.cfi_endproc
 992              	.LFE5:
 994              		.section	.text.prvPAL_WriteBlock,"ax",%progbits
 995              		.align	2
 996              		.global	prvPAL_WriteBlock
 997              		.syntax unified
 998              		.arm
 999              		.fpu neon
 1001              	prvPAL_WriteBlock:
 1002              	.LFB6:
 330:D:/Work/DeviceTester/amazon-freertos/lib/ota/portable/renesas/rza2m-gr-mango\aws_ota_pal.c ****     int16_t sNumBytesWritten = R_OTA_ERR_QUEUE_SEND_FAIL;
 1003              		.loc 1 330 0
 1004              		.cfi_startproc
 1005              		@ args = 0, pretend = 0, frame = 0
 1006              		@ frame_needed = 0, uses_anonymous_args = 0
 1007              	.LVL115:
 1008 0000 F0412DE9 		push	{r4, r5, r6, r7, r8, lr}
 1009              		.cfi_def_cfa_offset 24
 1010              		.cfi_offset 4, -24
 1011              		.cfi_offset 5, -20
 1012              		.cfi_offset 6, -16
 1013              		.cfi_offset 7, -12
 1014              		.cfi_offset 8, -8
 1015              		.cfi_offset 14, -4
 330:D:/Work/DeviceTester/amazon-freertos/lib/ota/portable/renesas/rza2m-gr-mango\aws_ota_pal.c ****     int16_t sNumBytesWritten = R_OTA_ERR_QUEUE_SEND_FAIL;
 1016              		.loc 1 330 0
 1017 0004 0170A0E1 		mov	r7, r1
 338:D:/Work/DeviceTester/amazon-freertos/lib/ota/portable/renesas/rza2m-gr-mango\aws_ota_pal.c **** 
 1018              		.loc 1 338 0
 1019 0008 94609FE5 		ldr	r6, .L102
 330:D:/Work/DeviceTester/amazon-freertos/lib/ota/portable/renesas/rza2m-gr-mango\aws_ota_pal.c ****     int16_t sNumBytesWritten = R_OTA_ERR_QUEUE_SEND_FAIL;
 1020              		.loc 1 330 0
 1021 000c 0340A0E1 		mov	r4, r3
 1022 0010 0250A0E1 		mov	r5, r2
 336:D:/Work/DeviceTester/amazon-freertos/lib/ota/portable/renesas/rza2m-gr-mango\aws_ota_pal.c **** 
 1023              		.loc 1 336 0
 1024 0014 8C109FE5 		ldr	r1, .L102+4
 1025              	.LVL116:
 1026 0018 8C009FE5 		ldr	r0, .L102+8
 1027              	.LVL117:
 1028 001c FEFFFFEB 		bl	vLoggingPrintf
 1029              	.LVL118:
 338:D:/Work/DeviceTester/amazon-freertos/lib/ota/portable/renesas/rza2m-gr-mango\aws_ota_pal.c **** 
 1030              		.loc 1 338 0
 1031 0020 0010E0E3 		mvn	r1, #0
 1032 0024 000096E5 		ldr	r0, [r6]
 1033 0028 FEFFFFEB 		bl	xQueueSemaphoreTake
 1034              	.LVL119:
 340:D:/Work/DeviceTester/amazon-freertos/lib/ota/portable/renesas/rza2m-gr-mango\aws_ota_pal.c **** 	memcpy(packet_buffer, pacData, ulBlockSize);
 1035              		.loc 1 340 0
 1036 002c 0400A0E1 		mov	r0, r4
 1037 0030 FEFFFFEB 		bl	pvPortMalloc
 1038              	.LVL120:
 341:D:/Work/DeviceTester/amazon-freertos/lib/ota/portable/renesas/rza2m-gr-mango\aws_ota_pal.c **** 	packet_block_for_queue1.p_packet = packet_buffer;
 1039              		.loc 1 341 0
 1040 0034 0510A0E1 		mov	r1, r5
 342:D:/Work/DeviceTester/amazon-freertos/lib/ota/portable/renesas/rza2m-gr-mango\aws_ota_pal.c **** 	packet_block_for_queue1.ulOffset = ulOffset;
 1041              		.loc 1 342 0
 1042 0038 70509FE5 		ldr	r5, .L102+12
 1043              	.LVL121:
 341:D:/Work/DeviceTester/amazon-freertos/lib/ota/portable/renesas/rza2m-gr-mango\aws_ota_pal.c **** 	packet_block_for_queue1.p_packet = packet_buffer;
 1044              		.loc 1 341 0
 1045 003c 0420A0E1 		mov	r2, r4
 1046 0040 FEFFFFEB 		bl	memcpy
 1047              	.LVL122:
 342:D:/Work/DeviceTester/amazon-freertos/lib/ota/portable/renesas/rza2m-gr-mango\aws_ota_pal.c **** 	packet_block_for_queue1.ulOffset = ulOffset;
 1048              		.loc 1 342 0
 1049 0044 080085E5 		str	r0, [r5, #8]
 345:D:/Work/DeviceTester/amazon-freertos/lib/ota/portable/renesas/rza2m-gr-mango\aws_ota_pal.c **** 	{
 1050              		.loc 1 345 0
 1051 0048 0030A0E3 		mov	r3, #0
 1052 004c 60009FE5 		ldr	r0, .L102+16
 1053 0050 0320A0E1 		mov	r2, r3
 1054 0054 0510A0E1 		mov	r1, r5
 344:D:/Work/DeviceTester/amazon-freertos/lib/ota/portable/renesas/rza2m-gr-mango\aws_ota_pal.c **** 	if(xQueueSend(xQueue, &packet_block_for_queue1, NULL) == pdPASS)
 1055              		.loc 1 344 0
 1056 0058 044085E5 		str	r4, [r5, #4]
 343:D:/Work/DeviceTester/amazon-freertos/lib/ota/portable/renesas/rza2m-gr-mango\aws_ota_pal.c **** 	packet_block_for_queue1.length = ulBlockSize;
 1057              		.loc 1 343 0
 1058 005c 007085E5 		str	r7, [r5]
 345:D:/Work/DeviceTester/amazon-freertos/lib/ota/portable/renesas/rza2m-gr-mango\aws_ota_pal.c **** 	{
 1059              		.loc 1 345 0
 1060 0060 000090E5 		ldr	r0, [r0]
 1061 0064 FEFFFFEB 		bl	xQueueGenericSend
 1062              	.LVL123:
 1063 0068 010050E3 		cmp	r0, #1
 347:D:/Work/DeviceTester/amazon-freertos/lib/ota/portable/renesas/rza2m-gr-mango\aws_ota_pal.c **** 	}
 1064              		.loc 1 347 0
 1065 006c 7440BF06 		sxtheq	r4, r4
 1066              	.LVL124:
 345:D:/Work/DeviceTester/amazon-freertos/lib/ota/portable/renesas/rza2m-gr-mango\aws_ota_pal.c **** 	{
 1067              		.loc 1 345 0
 1068 0070 0400000A 		beq	.L100
 351:D:/Work/DeviceTester/amazon-freertos/lib/ota/portable/renesas/rza2m-gr-mango\aws_ota_pal.c **** 		OTA_LOG_L1("OTA flashing queue send error.\r\n");
 1069              		.loc 1 351 0
 1070 0074 080095E5 		ldr	r0, [r5, #8]
 353:D:/Work/DeviceTester/amazon-freertos/lib/ota/portable/renesas/rza2m-gr-mango\aws_ota_pal.c **** 	}
 1071              		.loc 1 353 0
 1072 0078 0140E0E3 		mvn	r4, #1
 351:D:/Work/DeviceTester/amazon-freertos/lib/ota/portable/renesas/rza2m-gr-mango\aws_ota_pal.c **** 		OTA_LOG_L1("OTA flashing queue send error.\r\n");
 1073              		.loc 1 351 0
 1074 007c FEFFFFEB 		bl	vPortFree
 1075              	.LVL125:
 352:D:/Work/DeviceTester/amazon-freertos/lib/ota/portable/renesas/rza2m-gr-mango\aws_ota_pal.c **** 		sNumBytesWritten = R_OTA_ERR_QUEUE_SEND_FAIL;
 1076              		.loc 1 352 0
 1077 0080 30009FE5 		ldr	r0, .L102+20
 1078 0084 FEFFFFEB 		bl	vLoggingPrintf
 1079              	.LVL126:
 1080              	.L100:
 356:D:/Work/DeviceTester/amazon-freertos/lib/ota/portable/renesas/rza2m-gr-mango\aws_ota_pal.c **** 
 1081              		.loc 1 356 0
 1082 0088 0030A0E3 		mov	r3, #0
 1083 008c 000096E5 		ldr	r0, [r6]
 1084 0090 0320A0E1 		mov	r2, r3
 1085 0094 0310A0E1 		mov	r1, r3
 1086 0098 FEFFFFEB 		bl	xQueueGenericSend
 1087              	.LVL127:
 359:D:/Work/DeviceTester/amazon-freertos/lib/ota/portable/renesas/rza2m-gr-mango\aws_ota_pal.c **** /*-----------------------------------------------------------*/
 1088              		.loc 1 359 0
 1089 009c 0400A0E1 		mov	r0, r4
 1090 00a0 F081BDE8 		pop	{r4, r5, r6, r7, r8, pc}
 1091              	.L103:
 1092              		.align	2
 1093              	.L102:
 1094 00a4 00000000 		.word	.LANCHOR13
 1095 00a8 00000000 		.word	.LANCHOR15
 1096 00ac 00000000 		.word	.LC8
 1097 00b0 00000000 		.word	.LANCHOR16
 1098 00b4 00000000 		.word	.LANCHOR1
 1099 00b8 00000000 		.word	.LC14
 1100              		.cfi_endproc
 1101              	.LFE6:
 1103              		.section	.text.prvPAL_CloseFile,"ax",%progbits
 1104              		.align	2
 1105              		.global	prvPAL_CloseFile
 1106              		.syntax unified
 1107              		.arm
 1108              		.fpu neon
 1110              	prvPAL_CloseFile:
 1111              	.LFB7:
 363:D:/Work/DeviceTester/amazon-freertos/lib/ota/portable/renesas/rza2m-gr-mango\aws_ota_pal.c **** 	OTA_Err_t eResult = kOTA_Err_None;
 1112              		.loc 1 363 0
 1113              		.cfi_startproc
 1114              		@ args = 0, pretend = 0, frame = 0
 1115              		@ frame_needed = 0, uses_anonymous_args = 0
 1116              	.LVL128:
 373:D:/Work/DeviceTester/amazon-freertos/lib/ota/portable/renesas/rza2m-gr-mango\aws_ota_pal.c ****     {
 1117              		.loc 1 373 0
 1118 0000 283090E5 		ldr	r3, [r0, #40]
 363:D:/Work/DeviceTester/amazon-freertos/lib/ota/portable/renesas/rza2m-gr-mango\aws_ota_pal.c **** 	OTA_Err_t eResult = kOTA_Err_None;
 1119              		.loc 1 363 0
 1120 0004 F0412DE9 		push	{r4, r5, r6, r7, r8, lr}
 1121              		.cfi_def_cfa_offset 24
 1122              		.cfi_offset 4, -24
 1123              		.cfi_offset 5, -20
 1124              		.cfi_offset 6, -16
 1125              		.cfi_offset 7, -12
 1126              		.cfi_offset 8, -8
 1127              		.cfi_offset 14, -4
 363:D:/Work/DeviceTester/amazon-freertos/lib/ota/portable/renesas/rza2m-gr-mango\aws_ota_pal.c **** 	OTA_Err_t eResult = kOTA_Err_None;
 1128              		.loc 1 363 0
 1129 0008 0060A0E1 		mov	r6, r0
 373:D:/Work/DeviceTester/amazon-freertos/lib/ota/portable/renesas/rza2m-gr-mango\aws_ota_pal.c ****     {
 1130              		.loc 1 373 0
 1131 000c 000053E3 		cmp	r3, #0
 1132 0010 3700000A 		beq	.L114
 375:D:/Work/DeviceTester/amazon-freertos/lib/ota/portable/renesas/rza2m-gr-mango\aws_ota_pal.c **** 	}
 1133              		.loc 1 375 0
 1134 0014 FEFFFFEB 		bl	prvPAL_CheckFileSignature
 1135              	.LVL129:
 382:D:/Work/DeviceTester/amazon-freertos/lib/ota/portable/renesas/rza2m-gr-mango\aws_ota_pal.c **** 	{
 1136              		.loc 1 382 0
 1137 0018 005050E2 		subs	r5, r0, #0
 1138 001c 3500001A 		bne	.L105
 385:D:/Work/DeviceTester/amazon-freertos/lib/ota/portable/renesas/rza2m-gr-mango\aws_ota_pal.c **** 		{
 1139              		.loc 1 385 0
 1140 0020 280086E2 		add	r0, r6, #40
 1141              	.LVL130:
 1142 0024 FEFFFFEB 		bl	ota_context_update_user_firmware_header.isra.1
 1143              	.LVL131:
 1144 0028 000050E3 		cmp	r0, #0
 387:D:/Work/DeviceTester/amazon-freertos/lib/ota/portable/renesas/rza2m-gr-mango\aws_ota_pal.c **** 		}
 1145              		.loc 1 387 0
 1146 002c D4109FE5 		ldr	r1, .L129
 385:D:/Work/DeviceTester/amazon-freertos/lib/ota/portable/renesas/rza2m-gr-mango\aws_ota_pal.c **** 		{
 1147              		.loc 1 385 0
 1148 0030 1600001A 		bne	.L106
 387:D:/Work/DeviceTester/amazon-freertos/lib/ota/portable/renesas/rza2m-gr-mango\aws_ota_pal.c **** 		}
 1149              		.loc 1 387 0
 1150 0034 D0009FE5 		ldr	r0, .L129+4
 1151 0038 FEFFFFEB 		bl	vLoggingPrintf
 1152              	.LVL132:
 1153              	.L107:
 395:D:/Work/DeviceTester/amazon-freertos/lib/ota/portable/renesas/rza2m-gr-mango\aws_ota_pal.c **** 		{
 1154              		.loc 1 395 0
 1155 003c CC409FE5 		ldr	r4, .L129+8
 1156 0040 000094E5 		ldr	r0, [r4]
 1157 0044 000050E3 		cmp	r0, #0
 1158 0048 0200000A 		beq	.L108
 397:D:/Work/DeviceTester/amazon-freertos/lib/ota/portable/renesas/rza2m-gr-mango\aws_ota_pal.c **** 			xTask = NULL;
 1159              		.loc 1 397 0
 1160 004c FEFFFFEB 		bl	vTaskDelete
 1161              	.LVL133:
 398:D:/Work/DeviceTester/amazon-freertos/lib/ota/portable/renesas/rza2m-gr-mango\aws_ota_pal.c **** 		}
 1162              		.loc 1 398 0
 1163 0050 0030A0E3 		mov	r3, #0
 1164 0054 003084E5 		str	r3, [r4]
 1165              	.L108:
 400:D:/Work/DeviceTester/amazon-freertos/lib/ota/portable/renesas/rza2m-gr-mango\aws_ota_pal.c **** 		{
 1166              		.loc 1 400 0
 1167 0058 B4409FE5 		ldr	r4, .L129+12
 1168 005c 003094E5 		ldr	r3, [r4]
 1169 0060 000053E3 		cmp	r3, #0
 1170 0064 1000000A 		beq	.L109
 404:D:/Work/DeviceTester/amazon-freertos/lib/ota/portable/renesas/rza2m-gr-mango\aws_ota_pal.c **** 				{
 1171              		.loc 1 404 0
 1172 0068 A8809FE5 		ldr	r8, .L129+16
 1173              	.L127:
 1174 006c 0020A0E3 		mov	r2, #0
 1175 0070 A0109FE5 		ldr	r1, .L129+16
 1176 0074 000094E5 		ldr	r0, [r4]
 1177 0078 FEFFFFEB 		bl	xQueueReceive
 1178              	.LVL134:
 1179 007c 007050E2 		subs	r7, r0, #0
 1180 0080 0600000A 		beq	.L110
 410:D:/Work/DeviceTester/amazon-freertos/lib/ota/portable/renesas/rza2m-gr-mango\aws_ota_pal.c **** 				}
 1181              		.loc 1 410 0
 1182 0084 080098E5 		ldr	r0, [r8, #8]
 1183 0088 FEFFFFEB 		bl	vPortFree
 1184              	.LVL135:
 404:D:/Work/DeviceTester/amazon-freertos/lib/ota/portable/renesas/rza2m-gr-mango\aws_ota_pal.c **** 				{
 1185              		.loc 1 404 0
 1186 008c F6FFFFEA 		b	.L127
 1187              	.L106:
 391:D:/Work/DeviceTester/amazon-freertos/lib/ota/portable/renesas/rza2m-gr-mango\aws_ota_pal.c **** 			eResult = kOTA_Err_FileClose;
 1188              		.loc 1 391 0
 1189 0090 84009FE5 		ldr	r0, .L129+20
 392:D:/Work/DeviceTester/amazon-freertos/lib/ota/portable/renesas/rza2m-gr-mango\aws_ota_pal.c **** 		}
 1190              		.loc 1 392 0
 1191 0094 1154A0E3 		mov	r5, #285212672
 1192              	.LVL136:
 391:D:/Work/DeviceTester/amazon-freertos/lib/ota/portable/renesas/rza2m-gr-mango\aws_ota_pal.c **** 			eResult = kOTA_Err_FileClose;
 1193              		.loc 1 391 0
 1194 0098 FEFFFFEB 		bl	vLoggingPrintf
 1195              	.LVL137:
 1196 009c E6FFFFEA 		b	.L107
 1197              	.LVL138:
 1198              	.L110:
 414:D:/Work/DeviceTester/amazon-freertos/lib/ota/portable/renesas/rza2m-gr-mango\aws_ota_pal.c **** 			xQueue = NULL;
 1199              		.loc 1 414 0
 1200 00a0 000094E5 		ldr	r0, [r4]
 1201 00a4 FEFFFFEB 		bl	vQueueDelete
 1202              	.LVL139:
 415:D:/Work/DeviceTester/amazon-freertos/lib/ota/portable/renesas/rza2m-gr-mango\aws_ota_pal.c **** 		}
 1203              		.loc 1 415 0
 1204 00a8 007084E5 		str	r7, [r4]
 1205              	.L109:
 417:D:/Work/DeviceTester/amazon-freertos/lib/ota/portable/renesas/rza2m-gr-mango\aws_ota_pal.c **** 		{
 1206              		.loc 1 417 0
 1207 00ac 6C409FE5 		ldr	r4, .L129+24
 1208 00b0 000094E5 		ldr	r0, [r4]
 1209 00b4 000050E3 		cmp	r0, #0
 1210 00b8 0200000A 		beq	.L112
 419:D:/Work/DeviceTester/amazon-freertos/lib/ota/portable/renesas/rza2m-gr-mango\aws_ota_pal.c **** 			xSemaphoreFlashig = NULL;
 1211              		.loc 1 419 0
 1212 00bc FEFFFFEB 		bl	vQueueDelete
 1213              	.LVL140:
 420:D:/Work/DeviceTester/amazon-freertos/lib/ota/portable/renesas/rza2m-gr-mango\aws_ota_pal.c **** 		}
 1214              		.loc 1 420 0
 1215 00c0 0030A0E3 		mov	r3, #0
 1216 00c4 003084E5 		str	r3, [r4]
 1217              	.L112:
 422:D:/Work/DeviceTester/amazon-freertos/lib/ota/portable/renesas/rza2m-gr-mango\aws_ota_pal.c **** 		{
 1218              		.loc 1 422 0
 1219 00c8 54409FE5 		ldr	r4, .L129+28
 1220 00cc 000094E5 		ldr	r0, [r4]
 1221 00d0 000050E3 		cmp	r0, #0
 1222 00d4 0200000A 		beq	.L113
 424:D:/Work/DeviceTester/amazon-freertos/lib/ota/portable/renesas/rza2m-gr-mango\aws_ota_pal.c **** 			xSemaphoreWriteBlock = NULL;
 1223              		.loc 1 424 0
 1224 00d8 FEFFFFEB 		bl	vQueueDelete
 1225              	.LVL141:
 425:D:/Work/DeviceTester/amazon-freertos/lib/ota/portable/renesas/rza2m-gr-mango\aws_ota_pal.c **** 		}
 1226              		.loc 1 425 0
 1227 00dc 0030A0E3 		mov	r3, #0
 1228 00e0 003084E5 		str	r3, [r4]
 1229              	.L113:
 1230              	.LVL142:
 1231              	.LBB42:
 1232              	.LBB43:
 899:D:/Work/DeviceTester/amazon-freertos/lib/ota/portable/renesas/rza2m-gr-mango\aws_ota_pal.c ****     }
 1233              		.loc 1 899 0
 1234 00e4 0030A0E3 		mov	r3, #0
 1235              	.LBE43:
 1236              	.LBE42:
 435:D:/Work/DeviceTester/amazon-freertos/lib/ota/portable/renesas/rza2m-gr-mango\aws_ota_pal.c **** /*-----------------------------------------------------------*/
 1237              		.loc 1 435 0
 1238 00e8 0500A0E1 		mov	r0, r5
 1239              	.LBB45:
 1240              	.LBB44:
 899:D:/Work/DeviceTester/amazon-freertos/lib/ota/portable/renesas/rza2m-gr-mango\aws_ota_pal.c ****     }
 1241              		.loc 1 899 0
 1242 00ec 043086E5 		str	r3, [r6, #4]
 1243              	.LVL143:
 1244              	.LBE44:
 1245              	.LBE45:
 435:D:/Work/DeviceTester/amazon-freertos/lib/ota/portable/renesas/rza2m-gr-mango\aws_ota_pal.c **** /*-----------------------------------------------------------*/
 1246              		.loc 1 435 0
 1247 00f0 F081BDE8 		pop	{r4, r5, r6, r7, r8, pc}
 1248              	.LVL144:
 1249              	.L114:
 379:D:/Work/DeviceTester/amazon-freertos/lib/ota/portable/renesas/rza2m-gr-mango\aws_ota_pal.c ****     }
 1250              		.loc 1 379 0
 1251 00f4 0154A0E3 		mov	r5, #16777216
 1252              	.LVL145:
 1253              	.L105:
 430:D:/Work/DeviceTester/amazon-freertos/lib/ota/portable/renesas/rza2m-gr-mango\aws_ota_pal.c **** 	}
 1254              		.loc 1 430 0
 1255 00f8 28309FE5 		ldr	r3, .L129+32
 1256 00fc 0320A0E3 		mov	r2, #3
 1257 0100 0C20C3E5 		strb	r2, [r3, #12]
 1258 0104 F6FFFFEA 		b	.L113
 1259              	.L130:
 1260              		.align	2
 1261              	.L129:
 1262 0108 00000000 		.word	.LANCHOR17
 1263 010c 00000000 		.word	.LC15
 1264 0110 00000000 		.word	.LANCHOR12
 1265 0114 00000000 		.word	.LANCHOR1
 1266 0118 00000000 		.word	.LANCHOR0
 1267 011c 25000000 		.word	.LC16
 1268 0120 00000000 		.word	.LANCHOR2
 1269 0124 00000000 		.word	.LANCHOR13
 1270 0128 00000000 		.word	.LANCHOR5
 1271              		.cfi_endproc
 1272              	.LFE7:
 1274              		.section	.text.WIFI_Off,"ax",%progbits
 1275              		.align	2
 1276              		.weak	WIFI_Off
 1277              		.syntax unified
 1278              		.arm
 1279              		.fpu neon
 1281              	WIFI_Off:
 1282              	.LFB10:
 540:D:/Work/DeviceTester/amazon-freertos/lib/ota/portable/renesas/rza2m-gr-mango\aws_ota_pal.c **** }
 1283              		.loc 1 540 0
 1284              		.cfi_startproc
 1285              		@ args = 0, pretend = 0, frame = 0
 1286              		@ frame_needed = 0, uses_anonymous_args = 0
 1287              		@ link register save eliminated.
 1288 0000 1EFF2FE1 		bx	lr
 1289              		.cfi_endproc
 1290              	.LFE10:
 1292              		.section	.text.prvPAL_ResetDevice,"ax",%progbits
 1293              		.align	2
 1294              		.global	prvPAL_ResetDevice
 1295              		.syntax unified
 1296              		.arm
 1297              		.fpu neon
 1299              	prvPAL_ResetDevice:
 1300              	.LFB11:
 544:D:/Work/DeviceTester/amazon-freertos/lib/ota/portable/renesas/rza2m-gr-mango\aws_ota_pal.c ****     DEFINE_OTA_METHOD_NAME("prvPAL_ResetDevice");
 1301              		.loc 1 544 0
 1302              		.cfi_startproc
 1303              		@ args = 0, pretend = 0, frame = 8
 1304              		@ frame_needed = 0, uses_anonymous_args = 0
 1305              	.LVL146:
 544:D:/Work/DeviceTester/amazon-freertos/lib/ota/portable/renesas/rza2m-gr-mango\aws_ota_pal.c ****     DEFINE_OTA_METHOD_NAME("prvPAL_ResetDevice");
 1306              		.loc 1 544 0
 1307 0000 F7402DE9 		push	{r0, r1, r2, r4, r5, r6, r7, lr}
 1308              		.cfi_def_cfa_offset 32
 1309              		.cfi_offset 4, -20
 1310              		.cfi_offset 5, -16
 1311              		.cfi_offset 6, -12
 1312              		.cfi_offset 7, -8
 1313              		.cfi_offset 14, -4
 555:D:/Work/DeviceTester/amazon-freertos/lib/ota/portable/renesas/rza2m-gr-mango\aws_ota_pal.c **** 	{
 1314              		.loc 1 555 0
 1315 0004 B4509FE5 		ldr	r5, .L138
 554:D:/Work/DeviceTester/amazon-freertos/lib/ota/portable/renesas/rza2m-gr-mango\aws_ota_pal.c **** 	while (i<BOOT_LOADER_UPDATE_TEMPORARY_AREA_LOW_ADDRESS + image_size + BOOT_LOADER_USER_FIRMWARE_HE
 1316              		.loc 1 554 0
 1317 0008 B4409FE5 		ldr	r4, .L138+4
 555:D:/Work/DeviceTester/amazon-freertos/lib/ota/portable/renesas/rza2m-gr-mango\aws_ota_pal.c **** 	{
 1318              		.loc 1 555 0
 1319 000c B4709FE5 		ldr	r7, .L138+8
 1320 0010 0560A0E1 		mov	r6, r5
 551:D:/Work/DeviceTester/amazon-freertos/lib/ota/portable/renesas/rza2m-gr-mango\aws_ota_pal.c **** 
 1321              		.loc 1 551 0
 1322 0014 B0109FE5 		ldr	r1, .L138+12
 1323 0018 B0009FE5 		ldr	r0, .L138+16
 1324 001c FEFFFFEB 		bl	vLoggingPrintf
 1325              	.LVL147:
 1326              	.L133:
 555:D:/Work/DeviceTester/amazon-freertos/lib/ota/portable/renesas/rza2m-gr-mango\aws_ota_pal.c **** 	{
 1327              		.loc 1 555 0
 1328 0020 003095E5 		ldr	r3, [r5]
 1329 0024 072083E0 		add	r2, r3, r7
 1330 0028 020054E1 		cmp	r4, r2
 1331 002c 1B00003A 		bcc	.L134
 561:D:/Work/DeviceTester/amazon-freertos/lib/ota/portable/renesas/rza2m-gr-mango\aws_ota_pal.c **** 
 1332              		.loc 1 561 0
 1333 0030 023C83E2 		add	r3, r3, #512
 1334 0034 98209FE5 		ldr	r2, .L138+20
 1335 0038 84109FE5 		ldr	r1, .L138+4
 1336 003c 0000A0E3 		mov	r0, #0
 1337 0040 FEFFFFEB 		bl	flash_program_page
 1338              	.LVL148:
 563:D:/Work/DeviceTester/amazon-freertos/lib/ota/portable/renesas/rza2m-gr-mango\aws_ota_pal.c **** 	{
 1339              		.loc 1 563 0
 1340 0044 010070E3 		cmn	r0, #1
 1341 0048 0100001A 		bne	.L135
 565:D:/Work/DeviceTester/amazon-freertos/lib/ota/portable/renesas/rza2m-gr-mango\aws_ota_pal.c **** 	}
 1342              		.loc 1 565 0
 1343 004c 84009FE5 		ldr	r0, .L138+24
 1344              	.LVL149:
 1345 0050 FEFFFFEB 		bl	puts
 1346              	.LVL150:
 1347              	.L135:
 568:D:/Work/DeviceTester/amazon-freertos/lib/ota/portable/renesas/rza2m-gr-mango\aws_ota_pal.c **** 	software_reset();
 1348              		.loc 1 568 0
 1349 0054 002096E5 		ldr	r2, [r6]
 1350 0058 0010A0E3 		mov	r1, #0
 1351 005c 70009FE5 		ldr	r0, .L138+20
 1352 0060 022C82E2 		add	r2, r2, #512
 1353 0064 FEFFFFEB 		bl	memset
 1354              	.LVL151:
 1355              	.LBB48:
 1356              	.LBB49:
 925:D:/Work/DeviceTester/amazon-freertos/lib/ota/portable/renesas/rza2m-gr-mango\aws_ota_pal.c **** 	}
 926:D:/Work/DeviceTester/amazon-freertos/lib/ota/portable/renesas/rza2m-gr-mango\aws_ota_pal.c **** 
 927:D:/Work/DeviceTester/amazon-freertos/lib/ota/portable/renesas/rza2m-gr-mango\aws_ota_pal.c **** }
 928:D:/Work/DeviceTester/amazon-freertos/lib/ota/portable/renesas/rza2m-gr-mango\aws_ota_pal.c **** 
 929:D:/Work/DeviceTester/amazon-freertos/lib/ota/portable/renesas/rza2m-gr-mango\aws_ota_pal.c **** static void software_reset(void)
 930:D:/Work/DeviceTester/amazon-freertos/lib/ota/portable/renesas/rza2m-gr-mango\aws_ota_pal.c **** {
 931:D:/Work/DeviceTester/amazon-freertos/lib/ota/portable/renesas/rza2m-gr-mango\aws_ota_pal.c **** 	volatile uint16_t data;
 932:D:/Work/DeviceTester/amazon-freertos/lib/ota/portable/renesas/rza2m-gr-mango\aws_ota_pal.c **** 	WDT.WTCNT.WORD = 0x5A00;
 1357              		.loc 1 932 0
 1358 0068 6C309FE5 		ldr	r3, .L138+28
 1359 006c 5A1CA0E3 		mov	r1, #23040
 1360 0070 BD1F43E1 		strh	r1, [r3, #-253]	@ movhi
 933:D:/Work/DeviceTester/amazon-freertos/lib/ota/portable/renesas/rza2m-gr-mango\aws_ota_pal.c **** 	data = WDT.WRCSR.WORD;
 1361              		.loc 1 933 0
 1362 0074 BB2F53E1 		ldrh	r2, [r3, #-251]
 1363 0078 7220FFE6 		uxth	r2, r2
 1364 007c B620CDE1 		strh	r2, [sp, #6]	@ movhi
 934:D:/Work/DeviceTester/amazon-freertos/lib/ota/portable/renesas/rza2m-gr-mango\aws_ota_pal.c **** 	WDT.WTCNT.WORD = 0x5A00;
 935:D:/Work/DeviceTester/amazon-freertos/lib/ota/portable/renesas/rza2m-gr-mango\aws_ota_pal.c **** 	WDT.WRCSR.WORD = 0xA500;
 1365              		.loc 1 935 0
 1366 0080 A52CA0E3 		mov	r2, #42240
 934:D:/Work/DeviceTester/amazon-freertos/lib/ota/portable/renesas/rza2m-gr-mango\aws_ota_pal.c **** 	WDT.WTCNT.WORD = 0x5A00;
 1367              		.loc 1 934 0
 1368 0084 BD1F43E1 		strh	r1, [r3, #-253]	@ movhi
 1369              		.loc 1 935 0
 1370 0088 BB2F43E1 		strh	r2, [r3, #-251]	@ movhi
 936:D:/Work/DeviceTester/amazon-freertos/lib/ota/portable/renesas/rza2m-gr-mango\aws_ota_pal.c **** 	WDT.WTCSR.WORD = 0xA578;
 1371              		.loc 1 936 0
 1372 008c 4C209FE5 		ldr	r2, .L138+32
 1373 0090 BF2F43E1 		strh	r2, [r3, #-255]	@ movhi
 937:D:/Work/DeviceTester/amazon-freertos/lib/ota/portable/renesas/rza2m-gr-mango\aws_ota_pal.c **** 	WDT.WRCSR.WORD = 0x5A40;
 1374              		.loc 1 937 0
 1375 0094 402A05E3 		movw	r2, #23104
 1376 0098 BB2F43E1 		strh	r2, [r3, #-251]	@ movhi
 1377              	.L136:
 1378 009c FEFFFFEA 		b	.L136
 1379              	.L134:
 1380              	.LBE49:
 1381              	.LBE48:
 557:D:/Work/DeviceTester/amazon-freertos/lib/ota/portable/renesas/rza2m-gr-mango\aws_ota_pal.c **** 		i += flash_get_sector_size(NULL,i);
 1382              		.loc 1 557 0
 1383 00a0 0410A0E1 		mov	r1, r4
 1384 00a4 0000A0E3 		mov	r0, #0
 1385 00a8 FEFFFFEB 		bl	flash_erase_sector
 1386              	.LVL152:
 558:D:/Work/DeviceTester/amazon-freertos/lib/ota/portable/renesas/rza2m-gr-mango\aws_ota_pal.c **** 	}
 1387              		.loc 1 558 0
 1388 00ac 0410A0E1 		mov	r1, r4
 1389 00b0 0000A0E3 		mov	r0, #0
 1390 00b4 FEFFFFEB 		bl	flash_get_sector_size
 1391              	.LVL153:
 1392 00b8 004084E0 		add	r4, r4, r0
 1393              	.LVL154:
 1394 00bc D7FFFFEA 		b	.L133
 1395              	.L139:
 1396              		.align	2
 1397              	.L138:
 1398 00c0 00000000 		.word	.LANCHOR10
 1399 00c4 0000A050 		.word	1352663040
 1400 00c8 0002A050 		.word	1352663552
 1401 00cc 00000000 		.word	.LANCHOR18
 1402 00d0 00000000 		.word	.LC17
 1403 00d4 00000000 		.word	.LANCHOR4
 1404 00d8 1D000000 		.word	.LC18
 1405 00dc FF70FEFC 		.word	-50433793
 1406 00e0 78A5FFFF 		.word	-23176
 1407              		.cfi_endproc
 1408              	.LFE11:
 1410              		.section	.text.prvPAL_ActivateNewImage,"ax",%progbits
 1411              		.align	2
 1412              		.global	prvPAL_ActivateNewImage
 1413              		.syntax unified
 1414              		.arm
 1415              		.fpu neon
 1417              	prvPAL_ActivateNewImage:
 1418              	.LFB12:
 581:D:/Work/DeviceTester/amazon-freertos/lib/ota/portable/renesas/rza2m-gr-mango\aws_ota_pal.c ****     DEFINE_OTA_METHOD_NAME("prvPAL_ActivateNewImage");
 1419              		.loc 1 581 0
 1420              		.cfi_startproc
 1421              		@ Volatile: function does not return.
 1422              		@ args = 0, pretend = 0, frame = 0
 1423              		@ frame_needed = 0, uses_anonymous_args = 0
 1424 0000 10402DE9 		push	{r4, lr}
 1425              		.cfi_def_cfa_offset 8
 1426              		.cfi_offset 4, -8
 1427              		.cfi_offset 14, -4
 584:D:/Work/DeviceTester/amazon-freertos/lib/ota/portable/renesas/rza2m-gr-mango\aws_ota_pal.c ****  
 1428              		.loc 1 584 0
 1429 0004 14109FE5 		ldr	r1, .L142
 1430 0008 14009FE5 		ldr	r0, .L142+4
 1431 000c FEFFFFEB 		bl	vLoggingPrintf
 1432              	.LVL155:
 586:D:/Work/DeviceTester/amazon-freertos/lib/ota/portable/renesas/rza2m-gr-mango\aws_ota_pal.c ****     /* reset for self testing */
 1433              		.loc 1 586 0
 1434 0010 FEFFFFEB 		bl	WIFI_Off
 1435              	.LVL156:
 588:D:/Work/DeviceTester/amazon-freertos/lib/ota/portable/renesas/rza2m-gr-mango\aws_ota_pal.c **** 	prvPAL_ResetDevice();	/* no return from this function */
 1436              		.loc 1 588 0
 1437 0014 880301E3 		movw	r0, #5000
 1438 0018 FEFFFFEB 		bl	vTaskDelay
 1439              	.LVL157:
 589:D:/Work/DeviceTester/amazon-freertos/lib/ota/portable/renesas/rza2m-gr-mango\aws_ota_pal.c **** 
 1440              		.loc 1 589 0
 1441 001c FEFFFFEB 		bl	prvPAL_ResetDevice
 1442              	.LVL158:
 1443              	.L143:
 1444              		.align	2
 1445              	.L142:
 1446 0020 00000000 		.word	.LANCHOR19
 1447 0024 00000000 		.word	.LC19
 1448              		.cfi_endproc
 1449              	.LFE12:
 1451              		.section	.text.prvPAL_SetPlatformImageState,"ax",%progbits
 1452              		.align	2
 1453              		.global	prvPAL_SetPlatformImageState
 1454              		.syntax unified
 1455              		.arm
 1456              		.fpu neon
 1458              	prvPAL_SetPlatformImageState:
 1459              	.LFB13:
 596:D:/Work/DeviceTester/amazon-freertos/lib/ota/portable/renesas/rza2m-gr-mango\aws_ota_pal.c ****     DEFINE_OTA_METHOD_NAME( "prvPAL_SetPlatformImageState" );
 1460              		.loc 1 596 0
 1461              		.cfi_startproc
 1462              		@ args = 0, pretend = 0, frame = 0
 1463              		@ frame_needed = 0, uses_anonymous_args = 0
 1464              	.LVL159:
 1465 0000 70402DE9 		push	{r4, r5, r6, lr}
 1466              		.cfi_def_cfa_offset 16
 1467              		.cfi_offset 4, -16
 1468              		.cfi_offset 5, -12
 1469              		.cfi_offset 6, -8
 1470              		.cfi_offset 14, -4
 596:D:/Work/DeviceTester/amazon-freertos/lib/ota/portable/renesas/rza2m-gr-mango\aws_ota_pal.c ****     DEFINE_OTA_METHOD_NAME( "prvPAL_SetPlatformImageState" );
 1471              		.loc 1 596 0
 1472 0004 0050A0E1 		mov	r5, r0
 598:D:/Work/DeviceTester/amazon-freertos/lib/ota/portable/renesas/rza2m-gr-mango\aws_ota_pal.c **** 
 1473              		.loc 1 598 0
 1474 0008 B0109FE5 		ldr	r1, .L161
 1475 000c B0009FE5 		ldr	r0, .L161+4
 1476              	.LVL160:
 1477 0010 FEFFFFEB 		bl	vLoggingPrintf
 1478              	.LVL161:
 603:D:/Work/DeviceTester/amazon-freertos/lib/ota/portable/renesas/rza2m-gr-mango\aws_ota_pal.c **** 	{
 1479              		.loc 1 603 0
 1480 0014 AC309FE5 		ldr	r3, .L161+8
 1481 0018 0C20D3E5 		ldrb	r2, [r3, #12]	@ zero_extendqisi2
 1482 001c 0340A0E1 		mov	r4, r3
 1483 0020 013045E2 		sub	r3, r5, #1
 1484 0024 010052E3 		cmp	r2, #1
 1485 0028 0600001A 		bne	.L145
 605:D:/Work/DeviceTester/amazon-freertos/lib/ota/portable/renesas/rza2m-gr-mango\aws_ota_pal.c **** 		{
 1486              		.loc 1 605 0
 1487 002c 030053E3 		cmp	r3, #3
 1488 0030 03F19F97 		ldrls	pc, [pc, r3, asl #2]
 1489 0034 1B0000EA 		b	.L152
 1490              	.L148:
 1491 0038 9C000000 		.word	.L153
 1492 003c 88000000 		.word	.L158
 1493 0040 7C000000 		.word	.L156
 1494 0044 90000000 		.word	.L157
 1495              	.L145:
 633:D:/Work/DeviceTester/amazon-freertos/lib/ota/portable/renesas/rza2m-gr-mango\aws_ota_pal.c **** 		{
 1496              		.loc 1 633 0
 1497 0048 030053E3 		cmp	r3, #3
 1498 004c 03F19F97 		ldrls	pc, [pc, r3, asl #2]
 1499 0050 140000EA 		b	.L152
 1500              	.L154:
 1501 0054 9C000000 		.word	.L153
 1502 0058 64000000 		.word	.L155
 1503 005c 7C000000 		.word	.L156
 1504 0060 90000000 		.word	.L157
 1505              	.L155:
 636:D:/Work/DeviceTester/amazon-freertos/lib/ota/portable/renesas/rza2m-gr-mango\aws_ota_pal.c **** 				eResult = kOTA_Err_CommitFailed;
 1506              		.loc 1 636 0
 1507 0064 60009FE5 		ldr	r0, .L161+12
 1508 0068 50109FE5 		ldr	r1, .L161
 1509 006c FEFFFFEB 		bl	vLoggingPrintf
 1510              	.LVL162:
 637:D:/Work/DeviceTester/amazon-freertos/lib/ota/portable/renesas/rza2m-gr-mango\aws_ota_pal.c **** 				break;
 1511              		.loc 1 637 0
 1512 0070 0504A0E3 		mov	r0, #83886080
 1513              	.LVL163:
 1514              	.L149:
 661:D:/Work/DeviceTester/amazon-freertos/lib/ota/portable/renesas/rza2m-gr-mango\aws_ota_pal.c **** 
 1515              		.loc 1 661 0
 1516 0074 0C50C4E5 		strb	r5, [r4, #12]
 664:D:/Work/DeviceTester/amazon-freertos/lib/ota/portable/renesas/rza2m-gr-mango\aws_ota_pal.c **** /*-----------------------------------------------------------*/
 1517              		.loc 1 664 0
 1518 0078 7080BDE8 		pop	{r4, r5, r6, pc}
 1519              	.LVL164:
 1520              	.L156:
 640:D:/Work/DeviceTester/amazon-freertos/lib/ota/portable/renesas/rza2m-gr-mango\aws_ota_pal.c **** #if defined(__IDT_MODE__)
 1521              		.loc 1 640 0
 1522 007c 3C109FE5 		ldr	r1, .L161
 1523 0080 48009FE5 		ldr	r0, .L161+16
 1524              	.L160:
 651:D:/Work/DeviceTester/amazon-freertos/lib/ota/portable/renesas/rza2m-gr-mango\aws_ota_pal.c **** 				eResult = kOTA_Err_None;
 1525              		.loc 1 651 0
 1526 0084 FEFFFFEB 		bl	vLoggingPrintf
 1527              	.LVL165:
 1528              	.L158:
 608:D:/Work/DeviceTester/amazon-freertos/lib/ota/portable/renesas/rza2m-gr-mango\aws_ota_pal.c **** 				break;
 1529              		.loc 1 608 0
 1530 0088 0000A0E3 		mov	r0, #0
 1531 008c F8FFFFEA 		b	.L149
 1532              	.LVL166:
 1533              	.L157:
 647:D:/Work/DeviceTester/amazon-freertos/lib/ota/portable/renesas/rza2m-gr-mango\aws_ota_pal.c **** 				eResult = kOTA_Err_None;
 1534              		.loc 1 647 0
 1535 0090 28109FE5 		ldr	r1, .L161
 1536 0094 38009FE5 		ldr	r0, .L161+20
 1537 0098 F9FFFFEA 		b	.L160
 1538              	.L153:
 651:D:/Work/DeviceTester/amazon-freertos/lib/ota/portable/renesas/rza2m-gr-mango\aws_ota_pal.c **** 				eResult = kOTA_Err_None;
 1539              		.loc 1 651 0
 1540 009c 1C109FE5 		ldr	r1, .L161
 1541 00a0 30009FE5 		ldr	r0, .L161+24
 1542 00a4 F6FFFFEA 		b	.L160
 1543              	.L152:
 655:D:/Work/DeviceTester/amazon-freertos/lib/ota/portable/renesas/rza2m-gr-mango\aws_ota_pal.c **** 		        eResult = kOTA_Err_BadImageState;
 1544              		.loc 1 655 0
 1545 00a8 2C009FE5 		ldr	r0, .L161+28
 1546 00ac 0520A0E1 		mov	r2, r5
 1547 00b0 08109FE5 		ldr	r1, .L161
 1548 00b4 FEFFFFEB 		bl	vLoggingPrintf
 1549              	.LVL167:
 656:D:/Work/DeviceTester/amazon-freertos/lib/ota/portable/renesas/rza2m-gr-mango\aws_ota_pal.c **** 				break;
 1550              		.loc 1 656 0
 1551 00b8 0904A0E3 		mov	r0, #150994944
 657:D:/Work/DeviceTester/amazon-freertos/lib/ota/portable/renesas/rza2m-gr-mango\aws_ota_pal.c **** 		}
 1552              		.loc 1 657 0
 1553 00bc ECFFFFEA 		b	.L149
 1554              	.L162:
 1555              		.align	2
 1556              	.L161:
 1557 00c0 00000000 		.word	.LANCHOR20
 1558 00c4 00000000 		.word	.LC8
 1559 00c8 00000000 		.word	.LANCHOR5
 1560 00cc 5F000000 		.word	.LC24
 1561 00d0 00000000 		.word	.LC20
 1562 00d4 17000000 		.word	.LC21
 1563 00d8 2D000000 		.word	.LC22
 1564 00dc 3D000000 		.word	.LC23
 1565              		.cfi_endproc
 1566              	.LFE13:
 1568              		.section	.text.prvPAL_GetPlatformImageState,"ax",%progbits
 1569              		.align	2
 1570              		.global	prvPAL_GetPlatformImageState
 1571              		.syntax unified
 1572              		.arm
 1573              		.fpu neon
 1575              	prvPAL_GetPlatformImageState:
 1576              	.LFB14:
 668:D:/Work/DeviceTester/amazon-freertos/lib/ota/portable/renesas/rza2m-gr-mango\aws_ota_pal.c ****     DEFINE_OTA_METHOD_NAME( "prvPAL_GetPlatformImageState" );
 1577              		.loc 1 668 0
 1578              		.cfi_startproc
 1579              		@ args = 0, pretend = 0, frame = 0
 1580              		@ frame_needed = 0, uses_anonymous_args = 0
 1581 0000 10402DE9 		push	{r4, lr}
 1582              		.cfi_def_cfa_offset 8
 1583              		.cfi_offset 4, -8
 1584              		.cfi_offset 14, -4
 670:D:/Work/DeviceTester/amazon-freertos/lib/ota/portable/renesas/rza2m-gr-mango\aws_ota_pal.c **** 
 1585              		.loc 1 670 0
 1586 0004 34109FE5 		ldr	r1, .L167
 1587 0008 34009FE5 		ldr	r0, .L167+4
 1588 000c FEFFFFEB 		bl	vLoggingPrintf
 1589              	.LVL168:
 674:D:/Work/DeviceTester/amazon-freertos/lib/ota/portable/renesas/rza2m-gr-mango\aws_ota_pal.c **** 	{
 1590              		.loc 1 674 0
 1591 0010 30309FE5 		ldr	r3, .L167+8
 692:D:/Work/DeviceTester/amazon-freertos/lib/ota/portable/renesas/rza2m-gr-mango\aws_ota_pal.c ****     return ePalState; /*lint !e64 !e480 !e481 I/O calls and return type are used per design. */
 1592              		.loc 1 692 0
 1593 0014 30009FE5 		ldr	r0, .L167+12
 674:D:/Work/DeviceTester/amazon-freertos/lib/ota/portable/renesas/rza2m-gr-mango\aws_ota_pal.c **** 	{
 1594              		.loc 1 674 0
 1595 0018 0C30D3E5 		ldrb	r3, [r3, #12]	@ zero_extendqisi2
 1596 001c 7330EFE6 		uxtb	r3, r3
 1597 0020 020053E3 		cmp	r3, #2
 1598 0024 24209F95 		ldrls	r2, .L167+16
 1599 0028 0340A083 		movhi	r4, #3
 1600 002c 0340D297 		ldrbls	r4, [r2, r3]	@ zero_extendqisi2
 1601              	.LVL169:
 692:D:/Work/DeviceTester/amazon-freertos/lib/ota/portable/renesas/rza2m-gr-mango\aws_ota_pal.c ****     return ePalState; /*lint !e64 !e480 !e481 I/O calls and return type are used per design. */
 1602              		.loc 1 692 0
 1603 0030 0410A0E1 		mov	r1, r4
 1604 0034 FEFFFFEB 		bl	vLoggingPrintf
 1605              	.LVL170:
 694:D:/Work/DeviceTester/amazon-freertos/lib/ota/portable/renesas/rza2m-gr-mango\aws_ota_pal.c **** /*-----------------------------------------------------------*/
 1606              		.loc 1 694 0
 1607 0038 0400A0E1 		mov	r0, r4
 1608 003c 1080BDE8 		pop	{r4, pc}
 1609              	.L168:
 1610              		.align	2
 1611              	.L167:
 1612 0040 00000000 		.word	.LANCHOR21
 1613 0044 00000000 		.word	.LC8
 1614 0048 00000000 		.word	.LANCHOR5
 1615 004c 00000000 		.word	.LC25
 1616 0050 00000000 		.word	.LANCHOR22
 1617              		.cfi_endproc
 1618              	.LFE14:
 1620              		.section	.text.test_prvPAL_CheckFileSignature,"ax",%progbits
 1621              		.align	2
 1622              		.global	test_prvPAL_CheckFileSignature
 1623              		.syntax unified
 1624              		.arm
 1625              		.fpu neon
 1627              	test_prvPAL_CheckFileSignature:
 1628              	.LFB15:
 1629              		.file 3 "D:\\Work\\DeviceTester\\amazon-freertos\\tests\\common\\include/aws_ota_pal_test_access_d
   1:D:\Work\DeviceTester\amazon-freertos\tests\common\include\aws_ota_pal_test_access_define.h **** /*
   2:D:\Work\DeviceTester\amazon-freertos\tests\common\include\aws_ota_pal_test_access_define.h ****  * Amazon FreeRTOS
   3:D:\Work\DeviceTester\amazon-freertos\tests\common\include\aws_ota_pal_test_access_define.h ****  * Copyright (C) 2017 Amazon.com, Inc. or its affiliates.  All Rights Reserved.
   4:D:\Work\DeviceTester\amazon-freertos\tests\common\include\aws_ota_pal_test_access_define.h ****  *
   5:D:\Work\DeviceTester\amazon-freertos\tests\common\include\aws_ota_pal_test_access_define.h ****  * Permission is hereby granted, free of charge, to any person obtaining a copy of
   6:D:\Work\DeviceTester\amazon-freertos\tests\common\include\aws_ota_pal_test_access_define.h ****  * this software and associated documentation files (the "Software"), to deal in
   7:D:\Work\DeviceTester\amazon-freertos\tests\common\include\aws_ota_pal_test_access_define.h ****  * the Software without restriction, including without limitation the rights to
   8:D:\Work\DeviceTester\amazon-freertos\tests\common\include\aws_ota_pal_test_access_define.h ****  * use, copy, modify, merge, publish, distribute, sublicense, and/or sell copies of
   9:D:\Work\DeviceTester\amazon-freertos\tests\common\include\aws_ota_pal_test_access_define.h ****  * the Software, and to permit persons to whom the Software is furnished to do so,
  10:D:\Work\DeviceTester\amazon-freertos\tests\common\include\aws_ota_pal_test_access_define.h ****  * subject to the following conditions:
  11:D:\Work\DeviceTester\amazon-freertos\tests\common\include\aws_ota_pal_test_access_define.h ****  *
  12:D:\Work\DeviceTester\amazon-freertos\tests\common\include\aws_ota_pal_test_access_define.h ****  * The above copyright notice and this permission notice shall be included in all
  13:D:\Work\DeviceTester\amazon-freertos\tests\common\include\aws_ota_pal_test_access_define.h ****  * copies or substantial portions of the Software.
  14:D:\Work\DeviceTester\amazon-freertos\tests\common\include\aws_ota_pal_test_access_define.h ****  *
  15:D:\Work\DeviceTester\amazon-freertos\tests\common\include\aws_ota_pal_test_access_define.h ****  * THE SOFTWARE IS PROVIDED "AS IS", WITHOUT WARRANTY OF ANY KIND, EXPRESS OR
  16:D:\Work\DeviceTester\amazon-freertos\tests\common\include\aws_ota_pal_test_access_define.h ****  * IMPLIED, INCLUDING BUT NOT LIMITED TO THE WARRANTIES OF MERCHANTABILITY, FITNESS
  17:D:\Work\DeviceTester\amazon-freertos\tests\common\include\aws_ota_pal_test_access_define.h ****  * FOR A PARTICULAR PURPOSE AND NONINFRINGEMENT. IN NO EVENT SHALL THE AUTHORS OR
  18:D:\Work\DeviceTester\amazon-freertos\tests\common\include\aws_ota_pal_test_access_define.h ****  * COPYRIGHT HOLDERS BE LIABLE FOR ANY CLAIM, DAMAGES OR OTHER LIABILITY, WHETHER
  19:D:\Work\DeviceTester\amazon-freertos\tests\common\include\aws_ota_pal_test_access_define.h ****  * IN AN ACTION OF CONTRACT, TORT OR OTHERWISE, ARISING FROM, OUT OF OR IN
  20:D:\Work\DeviceTester\amazon-freertos\tests\common\include\aws_ota_pal_test_access_define.h ****  * CONNECTION WITH THE SOFTWARE OR THE USE OR OTHER DEALINGS IN THE SOFTWARE.
  21:D:\Work\DeviceTester\amazon-freertos\tests\common\include\aws_ota_pal_test_access_define.h ****  *
  22:D:\Work\DeviceTester\amazon-freertos\tests\common\include\aws_ota_pal_test_access_define.h ****  * http://aws.amazon.com/freertos
  23:D:\Work\DeviceTester\amazon-freertos\tests\common\include\aws_ota_pal_test_access_define.h ****  * http://www.FreeRTOS.org
  24:D:\Work\DeviceTester\amazon-freertos\tests\common\include\aws_ota_pal_test_access_define.h ****  */
  25:D:\Work\DeviceTester\amazon-freertos\tests\common\include\aws_ota_pal_test_access_define.h **** 
  26:D:\Work\DeviceTester\amazon-freertos\tests\common\include\aws_ota_pal_test_access_define.h **** /**
  27:D:\Work\DeviceTester\amazon-freertos\tests\common\include\aws_ota_pal_test_access_define.h ****  * @file aws_ota_pal_test_access_define.h
  28:D:\Work\DeviceTester\amazon-freertos\tests\common\include\aws_ota_pal_test_access_define.h ****  * @brief Function wrappers that access private methods in aws_ota_pal.c.
  29:D:\Work\DeviceTester\amazon-freertos\tests\common\include\aws_ota_pal_test_access_define.h ****  *
  30:D:\Work\DeviceTester\amazon-freertos\tests\common\include\aws_ota_pal_test_access_define.h ****  * Needed for testing private functions.
  31:D:\Work\DeviceTester\amazon-freertos\tests\common\include\aws_ota_pal_test_access_define.h ****  */
  32:D:\Work\DeviceTester\amazon-freertos\tests\common\include\aws_ota_pal_test_access_define.h **** 
  33:D:\Work\DeviceTester\amazon-freertos\tests\common\include\aws_ota_pal_test_access_define.h **** #ifndef _AWS_OTA_PAL_TEST_ACCESS_DEFINE_H_
  34:D:\Work\DeviceTester\amazon-freertos\tests\common\include\aws_ota_pal_test_access_define.h **** #define _AWS_OTA_PAL_TEST_ACCESS_DEFINE_H_
  35:D:\Work\DeviceTester\amazon-freertos\tests\common\include\aws_ota_pal_test_access_define.h **** 
  36:D:\Work\DeviceTester\amazon-freertos\tests\common\include\aws_ota_pal_test_access_define.h **** #include "aws_ota_pal_test_access_declare.h"
  37:D:\Work\DeviceTester\amazon-freertos\tests\common\include\aws_ota_pal_test_access_define.h **** #include "aws_test_ota_config.h"
  38:D:\Work\DeviceTester\amazon-freertos\tests\common\include\aws_ota_pal_test_access_define.h **** 
  39:D:\Work\DeviceTester\amazon-freertos\tests\common\include\aws_ota_pal_test_access_define.h **** /*-----------------------------------------------------------*/
  40:D:\Work\DeviceTester\amazon-freertos\tests\common\include\aws_ota_pal_test_access_define.h **** 
  41:D:\Work\DeviceTester\amazon-freertos\tests\common\include\aws_ota_pal_test_access_define.h **** #if otatestpalCHECK_FILE_SIGNATURE_SUPPORTED
  42:D:\Work\DeviceTester\amazon-freertos\tests\common\include\aws_ota_pal_test_access_define.h ****     OTA_Err_t test_prvPAL_CheckFileSignature( OTA_FileContext_t * const C )
  43:D:\Work\DeviceTester\amazon-freertos\tests\common\include\aws_ota_pal_test_access_define.h ****     {
 1630              		.loc 3 43 0
 1631              		.cfi_startproc
 1632              		@ args = 0, pretend = 0, frame = 0
 1633              		@ frame_needed = 0, uses_anonymous_args = 0
 1634              		@ link register save eliminated.
 1635              	.LVL171:
  44:D:\Work\DeviceTester\amazon-freertos\tests\common\include\aws_ota_pal_test_access_define.h ****         return prvPAL_CheckFileSignature( C );
 1636              		.loc 3 44 0
 1637 0000 FEFFFFEA 		b	prvPAL_CheckFileSignature
 1638              	.LVL172:
 1639              		.cfi_endproc
 1640              	.LFE15:
 1642              		.section	.text.test_prvPAL_ReadAndAssumeCertificate,"ax",%progbits
 1643              		.align	2
 1644              		.global	test_prvPAL_ReadAndAssumeCertificate
 1645              		.syntax unified
 1646              		.arm
 1647              		.fpu neon
 1649              	test_prvPAL_ReadAndAssumeCertificate:
 1650              	.LFB16:
  45:D:\Work\DeviceTester\amazon-freertos\tests\common\include\aws_ota_pal_test_access_define.h ****     }
  46:D:\Work\DeviceTester\amazon-freertos\tests\common\include\aws_ota_pal_test_access_define.h **** #endif
  47:D:\Work\DeviceTester\amazon-freertos\tests\common\include\aws_ota_pal_test_access_define.h **** 
  48:D:\Work\DeviceTester\amazon-freertos\tests\common\include\aws_ota_pal_test_access_define.h **** /*-----------------------------------------------------------*/
  49:D:\Work\DeviceTester\amazon-freertos\tests\common\include\aws_ota_pal_test_access_define.h **** 
  50:D:\Work\DeviceTester\amazon-freertos\tests\common\include\aws_ota_pal_test_access_define.h **** #if otatestpalREAD_AND_ASSUME_CERTIFICATE_SUPPORTED
  51:D:\Work\DeviceTester\amazon-freertos\tests\common\include\aws_ota_pal_test_access_define.h ****     u8 * test_prvPAL_ReadAndAssumeCertificate( const u8 * const pucCertName,
  52:D:\Work\DeviceTester\amazon-freertos\tests\common\include\aws_ota_pal_test_access_define.h ****                                                u32 * const ulSignerCertSize )
  53:D:\Work\DeviceTester\amazon-freertos\tests\common\include\aws_ota_pal_test_access_define.h **** 
  54:D:\Work\DeviceTester\amazon-freertos\tests\common\include\aws_ota_pal_test_access_define.h ****     {
 1651              		.loc 3 54 0
 1652              		.cfi_startproc
 1653              		@ args = 0, pretend = 0, frame = 0
 1654              		@ frame_needed = 0, uses_anonymous_args = 0
 1655              		@ link register save eliminated.
 1656              	.LVL173:
  55:D:\Work\DeviceTester\amazon-freertos\tests\common\include\aws_ota_pal_test_access_define.h ****         return prvPAL_ReadAndAssumeCertificate( pucCertName, ulSignerCertSize );
 1657              		.loc 3 55 0
 1658 0000 FEFFFFEA 		b	prvPAL_ReadAndAssumeCertificate
 1659              	.LVL174:
 1660              		.cfi_endproc
 1661              	.LFE16:
 1663              		.global	cOTA_JSON_FileSignatureKey
 1664              		.section	.rodata
 1665              		.set	.LANCHOR6,. + 0
 1666              	.LC0:
 1667 0000 7369672D 		.ascii	"sig-sha256-ecdsa\000"
 1667      73686132 
 1667      35362D65 
 1667      63647361 
 1667      00
 1668 0011 00000000 		.space	15
 1668      00000000 
 1668      00000000 
 1668      000000
 1669              		.section	.bss.block.72626,"aw",%nobits
 1670              		.set	.LANCHOR3,. + 0
 1673              	block.72626:
 1674 0000 00000000 		.space	1024
 1674      00000000 
 1674      00000000 
 1674      00000000 
 1674      00000000 
 1675              		.section	.bss.gs_header_flashing_task,"aw",%nobits
 1676              		.align	2
 1679              	gs_header_flashing_task:
 1680 0000 00000000 		.space	4
 1681              		.section	.bss.image_size,"aw",%nobits
 1682              		.align	2
 1683              		.set	.LANCHOR10,. + 0
 1686              	image_size:
 1687 0000 00000000 		.space	4
 1688              		.section	.bss.load_firmware_control_block,"aw",%nobits
 1689              		.align	2
 1690              		.set	.LANCHOR5,. + 0
 1693              	load_firmware_control_block:
 1694 0000 00000000 		.space	20
 1694      00000000 
 1694      00000000 
 1694      00000000 
 1694      00000000 
 1695              		.section	.bss.packet_block_for_queue1,"aw",%nobits
 1696              		.align	2
 1697              		.set	.LANCHOR16,. + 0
 1700              	packet_block_for_queue1:
 1701 0000 00000000 		.space	12
 1701      00000000 
 1701      00000000 
 1702              		.section	.bss.packet_block_for_queue2,"aw",%nobits
 1703              		.align	2
 1704              		.set	.LANCHOR0,. + 0
 1707              	packet_block_for_queue2:
 1708 0000 00000000 		.space	12
 1708      00000000 
 1708      00000000 
 1709              		.section	.bss.xQueue,"aw",%nobits
 1710              		.align	2
 1711              		.set	.LANCHOR1,. + 0
 1714              	xQueue:
 1715 0000 00000000 		.space	4
 1716              		.section	.bss.xSemaphoreFlashig,"aw",%nobits
 1717              		.align	2
 1718              		.set	.LANCHOR2,. + 0
 1721              	xSemaphoreFlashig:
 1722 0000 00000000 		.space	4
 1723              		.section	.bss.xSemaphoreWriteBlock,"aw",%nobits
 1724              		.align	2
 1725              		.set	.LANCHOR13,. + 0
 1728              	xSemaphoreWriteBlock:
 1729 0000 00000000 		.space	4
 1730              		.section	.bss.xTask,"aw",%nobits
 1731              		.align	2
 1732              		.set	.LANCHOR12,. + 0
 1735              	xTask:
 1736 0000 00000000 		.space	4
 1737              		.section	.rodata.CSWTCH.51,"a",%progbits
 1738              		.set	.LANCHOR22,. + 0
 1741              	CSWTCH.51:
 1742 0000 02       		.byte	2
 1743 0001 01       		.byte	1
 1744 0002 02       		.byte	2
 1745              		.section	.rodata.OTA_METHOD_NAME.72479,"a",%progbits
 1746              		.set	.LANCHOR11,. + 0
 1749              	OTA_METHOD_NAME.72479:
 1750 0000 70727650 		.ascii	"prvPAL_CreateFileForRx\000"
 1750      414C5F43 
 1750      72656174 
 1750      6546696C 
 1750      65466F72 
 1751              		.section	.rodata.OTA_METHOD_NAME.72484,"a",%progbits
 1752              		.set	.LANCHOR14,. + 0
 1755              	OTA_METHOD_NAME.72484:
 1756 0000 70727650 		.ascii	"prvPAL_Abort\000"
 1756      414C5F41 
 1756      626F7274 
 1756      00
 1757              		.section	.rodata.OTA_METHOD_NAME.72495,"a",%progbits
 1758              		.set	.LANCHOR15,. + 0
 1761              	OTA_METHOD_NAME.72495:
 1762 0000 70727650 		.ascii	"prvPAL_WriteBlock\000"
 1762      414C5F57 
 1762      72697465 
 1762      426C6F63 
 1762      6B00
 1763              		.section	.rodata.OTA_METHOD_NAME.72500,"a",%progbits
 1764              		.set	.LANCHOR17,. + 0
 1767              	OTA_METHOD_NAME.72500:
 1768 0000 70727650 		.ascii	"prvPAL_CloseFile\000"
 1768      414C5F43 
 1768      6C6F7365 
 1768      46696C65 
 1768      00
 1769              		.section	.rodata.OTA_METHOD_NAME.72506,"a",%progbits
 1770              		.set	.LANCHOR9,. + 0
 1773              	OTA_METHOD_NAME.72506:
 1774 0000 70727650 		.ascii	"prvPAL_CheckFileSignature\000"
 1774      414C5F43 
 1774      6865636B 
 1774      46696C65 
 1774      5369676E 
 1775              		.section	.rodata.OTA_METHOD_NAME.72516,"a",%progbits
 1776              		.set	.LANCHOR7,. + 0
 1779              	OTA_METHOD_NAME.72516:
 1780 0000 70727650 		.ascii	"prvPAL_ReadAndAssumeCertificate\000"
 1780      414C5F52 
 1780      65616441 
 1780      6E644173 
 1780      73756D65 
 1781              		.section	.rodata.OTA_METHOD_NAME.72527,"a",%progbits
 1782              		.set	.LANCHOR18,. + 0
 1785              	OTA_METHOD_NAME.72527:
 1786 0000 70727650 		.ascii	"prvPAL_ResetDevice\000"
 1786      414C5F52 
 1786      65736574 
 1786      44657669 
 1786      636500
 1787              		.section	.rodata.OTA_METHOD_NAME.72539,"a",%progbits
 1788              		.set	.LANCHOR19,. + 0
 1791              	OTA_METHOD_NAME.72539:
 1792 0000 70727650 		.ascii	"prvPAL_ActivateNewImage\000"
 1792      414C5F41 
 1792      63746976 
 1792      6174654E 
 1792      6577496D 
 1793              		.section	.rodata.OTA_METHOD_NAME.72543,"a",%progbits
 1794              		.set	.LANCHOR20,. + 0
 1797              	OTA_METHOD_NAME.72543:
 1798 0000 70727650 		.ascii	"prvPAL_SetPlatformImageState\000"
 1798      414C5F53 
 1798      6574506C 
 1798      6174666F 
 1798      726D496D 
 1799              		.section	.rodata.OTA_METHOD_NAME.72560,"a",%progbits
 1800              		.set	.LANCHOR21,. + 0
 1803              	OTA_METHOD_NAME.72560:
 1804 0000 70727650 		.ascii	"prvPAL_GetPlatformImageState\000"
 1804      414C5F47 
 1804      6574506C 
 1804      6174666F 
 1804      726D496D 
 1805              		.section	.rodata.cOTA_JSON_FileSignatureKey,"a",%progbits
 1806              		.set	.LANCHOR8,. + 0
 1809              	cOTA_JSON_FileSignatureKey:
 1810 0000 7369672D 		.ascii	"sig-sha256-ecdsa\000"
 1810      73686132 
 1810      35362D65 
 1810      63647361 
 1810      00
 1811 0011 00000000 		.space	15
 1811      00000000 
 1811      00000000 
 1811      000000
 1812              		.section	.rodata.prvPAL_ActivateNewImage.str1.1,"aMS",%progbits,1
 1813              	.LC19:
 1814 0000 5B25735D 		.ascii	"[%s] Changing the Startup Bank\015\012\000"
 1814      20436861 
 1814      6E67696E 
 1814      67207468 
 1814      65205374 
 1815              		.section	.rodata.prvPAL_CheckFileSignature.str1.1,"aMS",%progbits,1
 1816              	.LC5:
 1817 0000 5B25735D 		.ascii	"[%s] Started %s signature verification, file: %s\015"
 1817      20537461 
 1817      72746564 
 1817      20257320 
 1817      7369676E 
 1818 0031 0A00     		.ascii	"\012\000"
 1819              	.LC6:
 1820 0033 5B25735D 		.ascii	"[%s] ERROR: Finished %s signature verification, but"
 1820      20455252 
 1820      4F523A20 
 1820      46696E69 
 1820      73686564 
 1821 0066 20736967 		.ascii	" signature verification failed\015\012\000"
 1821      6E617475 
 1821      72652076 
 1821      65726966 
 1821      69636174 
 1822              	.LC7:
 1823 0087 5B25735D 		.ascii	"[%s] PASS: Finished %s signature verification, sign"
 1823      20504153 
 1823      533A2046 
 1823      696E6973 
 1823      68656420 
 1824 00ba 61747572 		.ascii	"ature verification passed\015\012\000"
 1824      65207665 
 1824      72696669 
 1824      63617469 
 1824      6F6E2070 
 1825              		.section	.rodata.prvPAL_CloseFile.str1.1,"aMS",%progbits,1
 1826              	.LC15:
 1827 0000 5B25735D 		.ascii	"[%s] User firmware header updated.\015\012\000"
 1827      20557365 
 1827      72206669 
 1827      726D7761 
 1827      72652068 
 1828              	.LC16:
 1829 0025 5B25735D 		.ascii	"[%s] ERROR: Failed to update the image header.\015\012"
 1829      20455252 
 1829      4F523A20 
 1829      4661696C 
 1829      65642074 
 1830 0055 00       		.ascii	"\000"
 1831              		.section	.rodata.prvPAL_CreateFileForRx.str1.1,"aMS",%progbits,1
 1832              	.LC8:
 1833 0000 5B25735D 		.ascii	"[%s] is called.\015\012\000"
 1833      20697320 
 1833      63616C6C 
 1833      65642E0D 
 1833      0A00
 1834              	.LC9:
 1835 0012 32323A35 		.ascii	"22:53:27\000"
 1835      333A3237 
 1835      00
 1836              	.LC10:
 1837 001b 4E6F7620 		.ascii	"Nov  4 2020\000"
 1837      20342032 
 1837      30323000 
 1838              	.LC11:
 1839 0027 436F6D70 		.ascii	"Compiled in [%s] [%s].\015\012\000"
 1839      696C6564 
 1839      20696E20 
 1839      5B25735D 
 1839      205B2573 
 1840              	.LC12:
 1841 0040 4F54415F 		.ascii	"OTA_FLASHING_TASK\000"
 1841      464C4153 
 1841      48494E47 
 1841      5F544153 
 1841      4B00
 1842              	.LC13:
 1843 0052 5B25735D 		.ascii	"[%s] ERROR - Invalid context provided.\015\012\000"
 1843      20455252 
 1843      4F52202D 
 1843      20496E76 
 1843      616C6964 
 1844              		.section	.rodata.prvPAL_GetPlatformImageState.str1.1,"aMS",%progbits,1
 1845              	.LC25:
 1846 0000 46756E63 		.ascii	"Function call: prvPAL_GetPlatformImageState: [%d]\015"
 1846      74696F6E 
 1846      2063616C 
 1846      6C3A2070 
 1846      72765041 
 1847 0032 0A00     		.ascii	"\012\000"
 1848              		.section	.rodata.prvPAL_ReadAndAssumeCertificate.str1.1,"aMS",%progbits,1
 1849              	.LC1:
 1850 0000 5B25735D 		.ascii	"[%s] Using cert with label: %s OK\015\012\000"
 1850      20557369 
 1850      6E672063 
 1850      65727420 
 1850      77697468 
 1851              	.LC2:
 1852 0024 5B25735D 		.ascii	"[%s] No such certificate file: %s. Using aws_ota_co"
 1852      204E6F20 
 1852      73756368 
 1852      20636572 
 1852      74696669 
 1853 0057 64657369 		.ascii	"designer_certificate.h.\015\012\000"
 1853      676E6572 
 1853      5F636572 
 1853      74696669 
 1853      63617465 
 1854              	.LC4:
 1855 0071 5B25735D 		.ascii	"[%s] Error: No memory for certificate of size %d!\015"
 1855      20457272 
 1855      6F723A20 
 1855      4E6F206D 
 1855      656D6F72 
 1856 00a3 0A00     		.ascii	"\012\000"
 1857              	.LC3:
 1858 00a5 2D2D2D2D 		.ascii	"-----BEGIN CERTIFICATE-----\012MIICbDCCAhECFBcot3kD"
 1858      2D424547 
 1858      494E2043 
 1858      45525449 
 1858      46494341 
 1859 00d5 386C4B73 		.ascii	"8lKsRx/XZeUEKSj9lCwUMAoGCCqGSM49BAMCMIG3MQsw\012CQY"
 1859      52782F58 
 1859      5A655545 
 1859      4B536A39 
 1859      6C437755 
 1860 0105 44565151 		.ascii	"DVQQGEwJKUDEOMAwGA1UECAwFVG9reW8xEDAOBgNVBAcMB0tvZG"
 1860      4745774A 
 1860      4B554445 
 1860      4F4D4177 
 1860      47413155 
 1861 0138 4670636D 		.ascii	"FpcmExHDAa\012BgNVBAoME1JlbmVzYXMgRWxlY3Ryb25pY3MxJ"
 1861      45784844 
 1861      41610A42 
 1861      674E5642 
 1861      416F4D45 
 1862 0168 6A416B42 		.ascii	"jAkBgNVBAsMHVNvZnR3YXJlIERl\012dmVsb3BtZW50IERpdmlz"
 1862      674E5642 
 1862      41734D48 
 1862      564E765A 
 1862      6E523359 
 1863 0198 61573975 		.ascii	"aW9uMREwDwYDVQQDDAhIYWdpbW90bzEtMCsGCSqGSIb3\012DQE"
 1863      4D524577 
 1863      44775944 
 1863      56515144 
 1863      44416849 
 1864 01c8 4A415259 		.ascii	"JARYecnlvaGVpLmhhZ2ltb3RvLnZ4QHJlbmVzYXMuY29tMB4XDT"
 1864      65636E6C 
 1864      76614756 
 1864      704C6D68 
 1864      685A326C 
 1865 01fb 49774D44 		.ascii	"IwMDQxNTAw\012NDExNVoXDTMwMDQxMzAwNDExNVowgbcxCzAJB"
 1865      51784E54 
 1865      41770A4E 
 1865      4445784E 
 1865      566F5844 
 1866 022b 674E5642 		.ascii	"gNVBAYTAkpQMQ4wDAYDVQQIDAVU\012b2t5bzEQMA4GA1UEBwwH"
 1866      41595441 
 1866      6B70514D 
 1866      51347744 
 1866      41594456 
 1867 025b 5332396B 		.ascii	"S29kYWlyYTEcMBoGA1UECgwTUmVuZXNhcyBFbGVjdHJv\012bml"
 1867      59576C79 
 1867      59544563 
 1867      4D426F47 
 1867      41315545 
 1868 028b 6A637A45 		.ascii	"jczEmMCQGA1UECwwdU29mdHdhcmUgRGV2ZWxvcG1lbnQgRGl2aX"
 1868      6D4D4351 
 1868      47413155 
 1868      45437777 
 1868      64553239 
 1869 02be 4E706232 		.ascii	"Npb24xETAP\012BgNVBAMMCEhhZ2ltb3RvMS0wKwYJKoZIhvcNA"
 1869      34784554 
 1869      41500A42 
 1869      674E5642 
 1869      414D4D43 
 1870 02ee 516B4246 		.ascii	"QkBFh5yeW9oZWkuaGFnaW1vdG8u\012dnhAcmVuZXNhcy5jb20w"
 1870      68357965 
 1870      57396F5A 
 1870      576B7561 
 1870      47466E61 
 1871 031e 57544154 		.ascii	"WTATBgcqhkjOPQIBBggqhkjOPQMBBwNCAAQd6+7JBu59\012rLf"
 1871      42676371 
 1871      686B6A4F 
 1871      50514942 
 1871      42676771 
 1872 034e 676F4250 		.ascii	"goBPOSot30XrIEgpvAFgxiso9ndzY231adDcjyTfgRQM3tDCp3A"
 1872      4F536F74 
 1872      33305872 
 1872      49456770 
 1872      76414667 
 1873 0381 34684D6F 		.ascii	"4hMoJEOVK+\012v0KhYsFH2O3bMAoGCCqGSM49BAMCA0kAMEYCI"
 1873      4A454F56 
 1873      4B2B0A76 
 1873      304B6859 
 1873      73464832 
 1874 03b1 51444848 		.ascii	"QDHHOAbUPSt8FMw01SrkQeyVy6Q\0125XAdhqteHjtciRPyOwIh"
 1874      4F416255 
 1874      50537438 
 1874      464D7730 
 1874      3153726B 
 1875 03e1 41503449 		.ascii	"AP4I9O8359rqWMa0Mu4bExhIe94IbCJ/sX9sf9fTUCNa\012---"
 1875      394F3833 
 1875      35397271 
 1875      574D6130 
 1875      4D753462 
 1876 0411 2D2D454E 		.ascii	"--END CERTIFICATE-----\012\000"
 1876      44204345 
 1876      52544946 
 1876      49434154 
 1876      452D2D2D 
 1877              		.section	.rodata.prvPAL_ResetDevice.str1.1,"aMS",%progbits,1
 1878              	.LC17:
 1879 0000 5B25735D 		.ascii	"[%s] Resetting the device.\015\012\000"
 1879      20526573 
 1879      65747469 
 1879      6E672074 
 1879      68652064 
 1880              	.LC18:
 1881 001d 666C6173 		.ascii	"flash_program_page() returns error.\015\000"
 1881      685F7072 
 1881      6F677261 
 1881      6D5F7061 
 1881      67652829 
 1882              		.section	.rodata.prvPAL_SetPlatformImageState.str1.1,"aMS",%progbits,1
 1883              	.LC20:
 1884 0000 5B25735D 		.ascii	"[%s] Rejected image.\015\012\000"
 1884      2052656A 
 1884      65637465 
 1884      6420696D 
 1884      6167652E 
 1885              	.LC21:
 1886 0017 5B25735D 		.ascii	"[%s] Aborted image.\015\012\000"
 1886      2041626F 
 1886      72746564 
 1886      20696D61 
 1886      67652E0D 
 1887              	.LC22:
 1888 002d 5B25735D 		.ascii	"[%s] Testing.\015\012\000"
 1888      20546573 
 1888      74696E67 
 1888      2E0D0A00 
 1889              	.LC23:
 1890 003d 5B25735D 		.ascii	"[%s] Unknown state received %d.\015\012\000"
 1890      20556E6B 
 1890      6E6F776E 
 1890      20737461 
 1890      74652072 
 1891              	.LC24:
 1892 005f 5B25735D 		.ascii	"[%s] Not in commit pending so can not mark image va"
 1892      204E6F74 
 1892      20696E20 
 1892      636F6D6D 
 1892      69742070 
 1893 0092 6C696420 		.ascii	"lid (%d).\015\012\000"
 1893      28256429 
 1893      2E0D0A00 
 1894              		.section	.rodata.prvPAL_WriteBlock.str1.1,"aMS",%progbits,1
 1895              	.LC14:
 1896 0000 4F544120 		.ascii	"OTA flashing queue send error.\015\012\000"
 1896      666C6173 
 1896      68696E67 
 1896      20717565 
 1896      75652073 
 1897              		.section	HYPER_RAM,"aw",%progbits
 1898              		.set	.LANCHOR4,. + 0
 1901              	hyper:
 1902 0000 00000000 		.space	4194304
 1902      00000000 
 1902      00000000 
 1902      00000000 
 1902      00000000 
 1903              		.text
 1904              	.Letext0:
 1905              		.file 4 "c:\\program files (x86)\\gnu tools arm embedded\\6 2017-q2-update\\arm-none-eabi\\include
 1906              		.file 5 "c:\\program files (x86)\\gnu tools arm embedded\\6 2017-q2-update\\arm-none-eabi\\include
 1907              		.file 6 "c:\\program files (x86)\\gnu tools arm embedded\\6 2017-q2-update\\arm-none-eabi\\include
 1908              		.file 7 "c:\\program files (x86)\\gnu tools arm embedded\\6 2017-q2-update\\lib\\gcc\\arm-none-eab
 1909              		.file 8 "c:\\program files (x86)\\gnu tools arm embedded\\6 2017-q2-update\\arm-none-eabi\\include
 1910              		.file 9 "c:\\program files (x86)\\gnu tools arm embedded\\6 2017-q2-update\\arm-none-eabi\\include
 1911              		.file 10 "c:\\program files (x86)\\gnu tools arm embedded\\6 2017-q2-update\\arm-none-eabi\\includ
 1912              		.file 11 "c:\\program files (x86)\\gnu tools arm embedded\\6 2017-q2-update\\arm-none-eabi\\includ
 1913              		.file 12 "c:\\program files (x86)\\gnu tools arm embedded\\6 2017-q2-update\\arm-none-eabi\\includ
 1914              		.file 13 "D:\\Work\\DeviceTester\\amazon-freertos\\lib\\third_party\\unity\\src/unity_internals.h"
 1915              		.file 14 "D:\\Work\\DeviceTester\\amazon-freertos\\lib\\FreeRTOS\\portable\\GCC\\ARM_CA9_RZA2M/por
 1916              		.file 15 "D:\\Work\\DeviceTester\\amazon-freertos\\lib\\include/task.h"
 1917              		.file 16 "D:\\Work\\DeviceTester\\amazon-freertos\\lib\\include/timers.h"
 1918              		.file 17 "D:\\Work\\DeviceTester\\amazon-freertos\\lib\\include/aws_ota_agent.h"
 1919              		.file 18 "D:\\Work\\DeviceTester\\amazon-freertos\\lib\\include\\private/aws_ota_pal.h"
 1920              		.file 19 "D:\\Work\\DeviceTester\\amazon-freertos\\lib\\third_party\\pkcs11/pkcs11t.h"
 1921              		.file 20 "D:\\Work\\DeviceTester\\amazon-freertos\\lib\\third_party\\pkcs11/pkcs11.h"
 1922              		.file 21 "D:\\Work\\DeviceTester\\amazon-freertos\\lib\\third_party\\pkcs11/pkcs11f.h"
 1923              		.file 22 "D:\\Work\\DeviceTester\\amazon-freertos\\tests\\common\\ota/aws_test_ota_pal_ecdsa_sha25
 1924              		.file 23 "D:\\Work\\DeviceTester\\amazon-freertos\\lib\\include/queue.h"
 1925              		.file 24 "D:\\Work\\DeviceTester\\amazon-freertos\\lib\\include/semphr.h"
 1926              		.file 25 "D:\\Work\\DeviceTester\\amazon-freertos\\lib\\third_party\\mcu_vendor\\renesas\\rz_mcu_b
 1927              		.file 26 "D:\\Work\\DeviceTester\\amazon-freertos\\tests\\common\\include/aws_ota_codesigner_certi
 1928              		.file 27 "D:\\Work\\DeviceTester\\amazon-freertos\\lib\\include\\private/portable.h"
 1929              		.file 28 "D:\\Work\\DeviceTester\\amazon-freertos\\tests\\common\\include/aws_logging_task.h"
 1930              		.file 29 "D:\\Work\\DeviceTester\\amazon-freertos\\lib\\third_party\\mcu_vendor\\renesas\\rz_mcu_b
 1931              		.file 30 "D:\\Work\\DeviceTester\\amazon-freertos\\lib\\include/aws_crypto.h"
 1932              		.file 31 "c:\\program files (x86)\\gnu tools arm embedded\\6 2017-q2-update\\arm-none-eabi\\includ
 1933              		.file 32 "<built-in>"
DEFINED SYMBOLS
                            *ABS*:00000000 aws_ota_pal.c
C:\Users\a5089698\AppData\Local\Temp\ccxYIUHm.s:17     .text.ota_flashing_task:00000000 $a
C:\Users\a5089698\AppData\Local\Temp\ccxYIUHm.s:22     .text.ota_flashing_task:00000000 ota_flashing_task
C:\Users\a5089698\AppData\Local\Temp\ccxYIUHm.s:109    .text.ota_flashing_task:0000009c $d
C:\Users\a5089698\AppData\Local\Temp\ccxYIUHm.s:119    .text.ota_context_update_user_firmware_header.isra.1:00000000 $a
C:\Users\a5089698\AppData\Local\Temp\ccxYIUHm.s:124    .text.ota_context_update_user_firmware_header.isra.1:00000000 ota_context_update_user_firmware_header.isra.1
C:\Users\a5089698\AppData\Local\Temp\ccxYIUHm.s:250    .text.ota_context_update_user_firmware_header.isra.1:000000d8 $d
C:\Users\a5089698\AppData\Local\Temp\ccxYIUHm.s:257    .text.prvPAL_ReadAndAssumeCertificate:00000000 $a
C:\Users\a5089698\AppData\Local\Temp\ccxYIUHm.s:262    .text.prvPAL_ReadAndAssumeCertificate:00000000 prvPAL_ReadAndAssumeCertificate
C:\Users\a5089698\AppData\Local\Temp\ccxYIUHm.s:610    .text.prvPAL_ReadAndAssumeCertificate:00000278 $d
C:\Users\a5089698\AppData\Local\Temp\ccxYIUHm.s:621    .text.prvPAL_CheckFileSignature:00000000 $a
C:\Users\a5089698\AppData\Local\Temp\ccxYIUHm.s:626    .text.prvPAL_CheckFileSignature:00000000 prvPAL_CheckFileSignature
C:\Users\a5089698\AppData\Local\Temp\ccxYIUHm.s:738    .text.prvPAL_CheckFileSignature:000000d0 $d
C:\Users\a5089698\AppData\Local\Temp\ccxYIUHm.s:750    .text.prvPAL_CreateFileForRx:00000000 $a
C:\Users\a5089698\AppData\Local\Temp\ccxYIUHm.s:756    .text.prvPAL_CreateFileForRx:00000000 prvPAL_CreateFileForRx
C:\Users\a5089698\AppData\Local\Temp\ccxYIUHm.s:870    .text.prvPAL_CreateFileForRx:000000f0 $d
C:\Users\a5089698\AppData\Local\Temp\ccxYIUHm.s:887    .text.prvPAL_Abort:00000000 $a
C:\Users\a5089698\AppData\Local\Temp\ccxYIUHm.s:893    .text.prvPAL_Abort:00000000 prvPAL_Abort
C:\Users\a5089698\AppData\Local\Temp\ccxYIUHm.s:985    .text.prvPAL_Abort:00000098 $d
C:\Users\a5089698\AppData\Local\Temp\ccxYIUHm.s:995    .text.prvPAL_WriteBlock:00000000 $a
C:\Users\a5089698\AppData\Local\Temp\ccxYIUHm.s:1001   .text.prvPAL_WriteBlock:00000000 prvPAL_WriteBlock
C:\Users\a5089698\AppData\Local\Temp\ccxYIUHm.s:1094   .text.prvPAL_WriteBlock:000000a4 $d
C:\Users\a5089698\AppData\Local\Temp\ccxYIUHm.s:1104   .text.prvPAL_CloseFile:00000000 $a
C:\Users\a5089698\AppData\Local\Temp\ccxYIUHm.s:1110   .text.prvPAL_CloseFile:00000000 prvPAL_CloseFile
C:\Users\a5089698\AppData\Local\Temp\ccxYIUHm.s:1262   .text.prvPAL_CloseFile:00000108 $d
C:\Users\a5089698\AppData\Local\Temp\ccxYIUHm.s:1275   .text.WIFI_Off:00000000 $a
C:\Users\a5089698\AppData\Local\Temp\ccxYIUHm.s:1281   .text.WIFI_Off:00000000 WIFI_Off
C:\Users\a5089698\AppData\Local\Temp\ccxYIUHm.s:1293   .text.prvPAL_ResetDevice:00000000 $a
C:\Users\a5089698\AppData\Local\Temp\ccxYIUHm.s:1299   .text.prvPAL_ResetDevice:00000000 prvPAL_ResetDevice
C:\Users\a5089698\AppData\Local\Temp\ccxYIUHm.s:1398   .text.prvPAL_ResetDevice:000000c0 $d
C:\Users\a5089698\AppData\Local\Temp\ccxYIUHm.s:1411   .text.prvPAL_ActivateNewImage:00000000 $a
C:\Users\a5089698\AppData\Local\Temp\ccxYIUHm.s:1417   .text.prvPAL_ActivateNewImage:00000000 prvPAL_ActivateNewImage
C:\Users\a5089698\AppData\Local\Temp\ccxYIUHm.s:1446   .text.prvPAL_ActivateNewImage:00000020 $d
C:\Users\a5089698\AppData\Local\Temp\ccxYIUHm.s:1452   .text.prvPAL_SetPlatformImageState:00000000 $a
C:\Users\a5089698\AppData\Local\Temp\ccxYIUHm.s:1458   .text.prvPAL_SetPlatformImageState:00000000 prvPAL_SetPlatformImageState
C:\Users\a5089698\AppData\Local\Temp\ccxYIUHm.s:1491   .text.prvPAL_SetPlatformImageState:00000038 $d
C:\Users\a5089698\AppData\Local\Temp\ccxYIUHm.s:1497   .text.prvPAL_SetPlatformImageState:00000048 $a
C:\Users\a5089698\AppData\Local\Temp\ccxYIUHm.s:1501   .text.prvPAL_SetPlatformImageState:00000054 $d
C:\Users\a5089698\AppData\Local\Temp\ccxYIUHm.s:1507   .text.prvPAL_SetPlatformImageState:00000064 $a
C:\Users\a5089698\AppData\Local\Temp\ccxYIUHm.s:1557   .text.prvPAL_SetPlatformImageState:000000c0 $d
C:\Users\a5089698\AppData\Local\Temp\ccxYIUHm.s:1569   .text.prvPAL_GetPlatformImageState:00000000 $a
C:\Users\a5089698\AppData\Local\Temp\ccxYIUHm.s:1575   .text.prvPAL_GetPlatformImageState:00000000 prvPAL_GetPlatformImageState
C:\Users\a5089698\AppData\Local\Temp\ccxYIUHm.s:1612   .text.prvPAL_GetPlatformImageState:00000040 $d
C:\Users\a5089698\AppData\Local\Temp\ccxYIUHm.s:1621   .text.test_prvPAL_CheckFileSignature:00000000 $a
C:\Users\a5089698\AppData\Local\Temp\ccxYIUHm.s:1627   .text.test_prvPAL_CheckFileSignature:00000000 test_prvPAL_CheckFileSignature
C:\Users\a5089698\AppData\Local\Temp\ccxYIUHm.s:1643   .text.test_prvPAL_ReadAndAssumeCertificate:00000000 $a
C:\Users\a5089698\AppData\Local\Temp\ccxYIUHm.s:1649   .text.test_prvPAL_ReadAndAssumeCertificate:00000000 test_prvPAL_ReadAndAssumeCertificate
C:\Users\a5089698\AppData\Local\Temp\ccxYIUHm.s:1809   .rodata.cOTA_JSON_FileSignatureKey:00000000 cOTA_JSON_FileSignatureKey
C:\Users\a5089698\AppData\Local\Temp\ccxYIUHm.s:1668   .rodata:00000011 $d
C:\Users\a5089698\AppData\Local\Temp\ccxYIUHm.s:1673   .bss.block.72626:00000000 block.72626
C:\Users\a5089698\AppData\Local\Temp\ccxYIUHm.s:1674   .bss.block.72626:00000000 $d
C:\Users\a5089698\AppData\Local\Temp\ccxYIUHm.s:1676   .bss.gs_header_flashing_task:00000000 $d
C:\Users\a5089698\AppData\Local\Temp\ccxYIUHm.s:1679   .bss.gs_header_flashing_task:00000000 gs_header_flashing_task
C:\Users\a5089698\AppData\Local\Temp\ccxYIUHm.s:1682   .bss.image_size:00000000 $d
C:\Users\a5089698\AppData\Local\Temp\ccxYIUHm.s:1686   .bss.image_size:00000000 image_size
C:\Users\a5089698\AppData\Local\Temp\ccxYIUHm.s:1689   .bss.load_firmware_control_block:00000000 $d
C:\Users\a5089698\AppData\Local\Temp\ccxYIUHm.s:1693   .bss.load_firmware_control_block:00000000 load_firmware_control_block
C:\Users\a5089698\AppData\Local\Temp\ccxYIUHm.s:1696   .bss.packet_block_for_queue1:00000000 $d
C:\Users\a5089698\AppData\Local\Temp\ccxYIUHm.s:1700   .bss.packet_block_for_queue1:00000000 packet_block_for_queue1
C:\Users\a5089698\AppData\Local\Temp\ccxYIUHm.s:1703   .bss.packet_block_for_queue2:00000000 $d
C:\Users\a5089698\AppData\Local\Temp\ccxYIUHm.s:1707   .bss.packet_block_for_queue2:00000000 packet_block_for_queue2
C:\Users\a5089698\AppData\Local\Temp\ccxYIUHm.s:1710   .bss.xQueue:00000000 $d
C:\Users\a5089698\AppData\Local\Temp\ccxYIUHm.s:1714   .bss.xQueue:00000000 xQueue
C:\Users\a5089698\AppData\Local\Temp\ccxYIUHm.s:1717   .bss.xSemaphoreFlashig:00000000 $d
C:\Users\a5089698\AppData\Local\Temp\ccxYIUHm.s:1721   .bss.xSemaphoreFlashig:00000000 xSemaphoreFlashig
C:\Users\a5089698\AppData\Local\Temp\ccxYIUHm.s:1724   .bss.xSemaphoreWriteBlock:00000000 $d
C:\Users\a5089698\AppData\Local\Temp\ccxYIUHm.s:1728   .bss.xSemaphoreWriteBlock:00000000 xSemaphoreWriteBlock
C:\Users\a5089698\AppData\Local\Temp\ccxYIUHm.s:1731   .bss.xTask:00000000 $d
C:\Users\a5089698\AppData\Local\Temp\ccxYIUHm.s:1735   .bss.xTask:00000000 xTask
C:\Users\a5089698\AppData\Local\Temp\ccxYIUHm.s:1741   .rodata.CSWTCH.51:00000000 CSWTCH.51
C:\Users\a5089698\AppData\Local\Temp\ccxYIUHm.s:1749   .rodata.OTA_METHOD_NAME.72479:00000000 OTA_METHOD_NAME.72479
C:\Users\a5089698\AppData\Local\Temp\ccxYIUHm.s:1755   .rodata.OTA_METHOD_NAME.72484:00000000 OTA_METHOD_NAME.72484
C:\Users\a5089698\AppData\Local\Temp\ccxYIUHm.s:1761   .rodata.OTA_METHOD_NAME.72495:00000000 OTA_METHOD_NAME.72495
C:\Users\a5089698\AppData\Local\Temp\ccxYIUHm.s:1767   .rodata.OTA_METHOD_NAME.72500:00000000 OTA_METHOD_NAME.72500
C:\Users\a5089698\AppData\Local\Temp\ccxYIUHm.s:1773   .rodata.OTA_METHOD_NAME.72506:00000000 OTA_METHOD_NAME.72506
C:\Users\a5089698\AppData\Local\Temp\ccxYIUHm.s:1779   .rodata.OTA_METHOD_NAME.72516:00000000 OTA_METHOD_NAME.72516
C:\Users\a5089698\AppData\Local\Temp\ccxYIUHm.s:1785   .rodata.OTA_METHOD_NAME.72527:00000000 OTA_METHOD_NAME.72527
C:\Users\a5089698\AppData\Local\Temp\ccxYIUHm.s:1791   .rodata.OTA_METHOD_NAME.72539:00000000 OTA_METHOD_NAME.72539
C:\Users\a5089698\AppData\Local\Temp\ccxYIUHm.s:1797   .rodata.OTA_METHOD_NAME.72543:00000000 OTA_METHOD_NAME.72543
C:\Users\a5089698\AppData\Local\Temp\ccxYIUHm.s:1803   .rodata.OTA_METHOD_NAME.72560:00000000 OTA_METHOD_NAME.72560
C:\Users\a5089698\AppData\Local\Temp\ccxYIUHm.s:1811   .rodata.cOTA_JSON_FileSignatureKey:00000011 $d
C:\Users\a5089698\AppData\Local\Temp\ccxYIUHm.s:1901   HYPER_RAM:00000000 hyper
C:\Users\a5089698\AppData\Local\Temp\ccxYIUHm.s:1902   HYPER_RAM:00000000 $d
                     .debug_frame:00000010 $d

UNDEFINED SYMBOLS
xQueueReceive
xQueueSemaphoreTake
memcpy
vPortFree
xQueueGenericSend
memset
C_GetFunctionList
strlen
pvPortMalloc
vLoggingPrintf
CRYPTO_SignatureVerificationStart
CRYPTO_SignatureVerificationUpdate
CRYPTO_SignatureVerificationFinal
xQueueGenericCreate
xTaskCreate
xQueueCreateMutex
vTaskDelete
vQueueDelete
flash_program_page
puts
flash_erase_sector
flash_get_sector_size
vTaskDelay
