   1              		.cpu cortex-a9
   2              		.eabi_attribute 28, 1
   3              		.eabi_attribute 20, 1
   4              		.eabi_attribute 21, 1
   5              		.eabi_attribute 23, 3
   6              		.eabi_attribute 24, 1
   7              		.eabi_attribute 25, 1
   8              		.eabi_attribute 26, 1
   9              		.eabi_attribute 30, 4
  10              		.eabi_attribute 34, 0
  11              		.eabi_attribute 18, 4
  12              		.file	"aws_dev_mode_key_provisioning.c"
  13              		.text
  14              	.Ltext0:
  15              		.cfi_sections	.debug_frame
  16              		.section	.text.xInitializePkcsSession,"ax",%progbits
  17              		.align	2
  18              		.global	xInitializePkcsSession
  19              		.syntax unified
  20              		.arm
  21              		.fpu neon
  23              	xInitializePkcsSession:
  24              	.LFB1:
  25              		.file 1 "D:/Work/DeviceTester/amazon-freertos/demos/common/devmode_key_provisioning/aws_dev_mode_k
   1:D:/Work/DeviceTester/amazon-freertos/demos/common/devmode_key_provisioning\aws_dev_mode_key_provisioning.c **** /*
   2:D:/Work/DeviceTester/amazon-freertos/demos/common/devmode_key_provisioning\aws_dev_mode_key_provisioning.c ****  * Amazon FreeRTOS V1.4.7
   3:D:/Work/DeviceTester/amazon-freertos/demos/common/devmode_key_provisioning\aws_dev_mode_key_provisioning.c ****  * Copyright (C) 2017 Amazon.com, Inc. or its affiliates.  All Rights Reserved.
   4:D:/Work/DeviceTester/amazon-freertos/demos/common/devmode_key_provisioning\aws_dev_mode_key_provisioning.c ****  *
   5:D:/Work/DeviceTester/amazon-freertos/demos/common/devmode_key_provisioning\aws_dev_mode_key_provisioning.c ****  * Permission is hereby granted, free of charge, to any person obtaining a copy of
   6:D:/Work/DeviceTester/amazon-freertos/demos/common/devmode_key_provisioning\aws_dev_mode_key_provisioning.c ****  * this software and associated documentation files (the "Software"), to deal in
   7:D:/Work/DeviceTester/amazon-freertos/demos/common/devmode_key_provisioning\aws_dev_mode_key_provisioning.c ****  * the Software without restriction, including without limitation the rights to
   8:D:/Work/DeviceTester/amazon-freertos/demos/common/devmode_key_provisioning\aws_dev_mode_key_provisioning.c ****  * use, copy, modify, merge, publish, distribute, sublicense, and/or sell copies of
   9:D:/Work/DeviceTester/amazon-freertos/demos/common/devmode_key_provisioning\aws_dev_mode_key_provisioning.c ****  * the Software, and to permit persons to whom the Software is furnished to do so,
  10:D:/Work/DeviceTester/amazon-freertos/demos/common/devmode_key_provisioning\aws_dev_mode_key_provisioning.c ****  * subject to the following conditions:
  11:D:/Work/DeviceTester/amazon-freertos/demos/common/devmode_key_provisioning\aws_dev_mode_key_provisioning.c ****  *
  12:D:/Work/DeviceTester/amazon-freertos/demos/common/devmode_key_provisioning\aws_dev_mode_key_provisioning.c ****  * The above copyright notice and this permission notice shall be included in all
  13:D:/Work/DeviceTester/amazon-freertos/demos/common/devmode_key_provisioning\aws_dev_mode_key_provisioning.c ****  * copies or substantial portions of the Software.
  14:D:/Work/DeviceTester/amazon-freertos/demos/common/devmode_key_provisioning\aws_dev_mode_key_provisioning.c ****  *
  15:D:/Work/DeviceTester/amazon-freertos/demos/common/devmode_key_provisioning\aws_dev_mode_key_provisioning.c ****  * THE SOFTWARE IS PROVIDED "AS IS", WITHOUT WARRANTY OF ANY KIND, EXPRESS OR
  16:D:/Work/DeviceTester/amazon-freertos/demos/common/devmode_key_provisioning\aws_dev_mode_key_provisioning.c ****  * IMPLIED, INCLUDING BUT NOT LIMITED TO THE WARRANTIES OF MERCHANTABILITY, FITNESS
  17:D:/Work/DeviceTester/amazon-freertos/demos/common/devmode_key_provisioning\aws_dev_mode_key_provisioning.c ****  * FOR A PARTICULAR PURPOSE AND NONINFRINGEMENT. IN NO EVENT SHALL THE AUTHORS OR
  18:D:/Work/DeviceTester/amazon-freertos/demos/common/devmode_key_provisioning\aws_dev_mode_key_provisioning.c ****  * COPYRIGHT HOLDERS BE LIABLE FOR ANY CLAIM, DAMAGES OR OTHER LIABILITY, WHETHER
  19:D:/Work/DeviceTester/amazon-freertos/demos/common/devmode_key_provisioning\aws_dev_mode_key_provisioning.c ****  * IN AN ACTION OF CONTRACT, TORT OR OTHERWISE, ARISING FROM, OUT OF OR IN
  20:D:/Work/DeviceTester/amazon-freertos/demos/common/devmode_key_provisioning\aws_dev_mode_key_provisioning.c ****  * CONNECTION WITH THE SOFTWARE OR THE USE OR OTHER DEALINGS IN THE SOFTWARE.
  21:D:/Work/DeviceTester/amazon-freertos/demos/common/devmode_key_provisioning\aws_dev_mode_key_provisioning.c ****  *
  22:D:/Work/DeviceTester/amazon-freertos/demos/common/devmode_key_provisioning\aws_dev_mode_key_provisioning.c ****  * http://aws.amazon.com/freertos
  23:D:/Work/DeviceTester/amazon-freertos/demos/common/devmode_key_provisioning\aws_dev_mode_key_provisioning.c ****  * http://www.FreeRTOS.org
  24:D:/Work/DeviceTester/amazon-freertos/demos/common/devmode_key_provisioning\aws_dev_mode_key_provisioning.c ****  */
  25:D:/Work/DeviceTester/amazon-freertos/demos/common/devmode_key_provisioning\aws_dev_mode_key_provisioning.c **** 
  26:D:/Work/DeviceTester/amazon-freertos/demos/common/devmode_key_provisioning\aws_dev_mode_key_provisioning.c **** 
  27:D:/Work/DeviceTester/amazon-freertos/demos/common/devmode_key_provisioning\aws_dev_mode_key_provisioning.c **** /**
  28:D:/Work/DeviceTester/amazon-freertos/demos/common/devmode_key_provisioning\aws_dev_mode_key_provisioning.c ****  * @file aws_dev_mode_key_provisioning.c
  29:D:/Work/DeviceTester/amazon-freertos/demos/common/devmode_key_provisioning\aws_dev_mode_key_provisioning.c ****  * @brief Simple key provisioning example using pkcs#11
  30:D:/Work/DeviceTester/amazon-freertos/demos/common/devmode_key_provisioning\aws_dev_mode_key_provisioning.c ****  *
  31:D:/Work/DeviceTester/amazon-freertos/demos/common/devmode_key_provisioning\aws_dev_mode_key_provisioning.c ****  * A simple example to demonstrate key and certificate provisioning in
  32:D:/Work/DeviceTester/amazon-freertos/demos/common/devmode_key_provisioning\aws_dev_mode_key_provisioning.c ****  * flash using PKCS#11 interface. This should be replaced
  33:D:/Work/DeviceTester/amazon-freertos/demos/common/devmode_key_provisioning\aws_dev_mode_key_provisioning.c ****  * by production ready key provisioning mechanism.
  34:D:/Work/DeviceTester/amazon-freertos/demos/common/devmode_key_provisioning\aws_dev_mode_key_provisioning.c ****  */
  35:D:/Work/DeviceTester/amazon-freertos/demos/common/devmode_key_provisioning\aws_dev_mode_key_provisioning.c **** 
  36:D:/Work/DeviceTester/amazon-freertos/demos/common/devmode_key_provisioning\aws_dev_mode_key_provisioning.c **** /* Standard includes. */
  37:D:/Work/DeviceTester/amazon-freertos/demos/common/devmode_key_provisioning\aws_dev_mode_key_provisioning.c **** #include <stdio.h>
  38:D:/Work/DeviceTester/amazon-freertos/demos/common/devmode_key_provisioning\aws_dev_mode_key_provisioning.c **** #include <string.h>
  39:D:/Work/DeviceTester/amazon-freertos/demos/common/devmode_key_provisioning\aws_dev_mode_key_provisioning.c **** 
  40:D:/Work/DeviceTester/amazon-freertos/demos/common/devmode_key_provisioning\aws_dev_mode_key_provisioning.c **** /* FreeRTOS includes. */
  41:D:/Work/DeviceTester/amazon-freertos/demos/common/devmode_key_provisioning\aws_dev_mode_key_provisioning.c **** #include "FreeRTOS.h"
  42:D:/Work/DeviceTester/amazon-freertos/demos/common/devmode_key_provisioning\aws_dev_mode_key_provisioning.c **** #include "task.h"
  43:D:/Work/DeviceTester/amazon-freertos/demos/common/devmode_key_provisioning\aws_dev_mode_key_provisioning.c **** #include "semphr.h"
  44:D:/Work/DeviceTester/amazon-freertos/demos/common/devmode_key_provisioning\aws_dev_mode_key_provisioning.c **** 
  45:D:/Work/DeviceTester/amazon-freertos/demos/common/devmode_key_provisioning\aws_dev_mode_key_provisioning.c **** /* PKCS#11 includes. */
  46:D:/Work/DeviceTester/amazon-freertos/demos/common/devmode_key_provisioning\aws_dev_mode_key_provisioning.c **** #include "aws_pkcs11.h"
  47:D:/Work/DeviceTester/amazon-freertos/demos/common/devmode_key_provisioning\aws_dev_mode_key_provisioning.c **** #include "aws_pkcs11_config.h"
  48:D:/Work/DeviceTester/amazon-freertos/demos/common/devmode_key_provisioning\aws_dev_mode_key_provisioning.c **** 
  49:D:/Work/DeviceTester/amazon-freertos/demos/common/devmode_key_provisioning\aws_dev_mode_key_provisioning.c **** /* Client credential includes. */
  50:D:/Work/DeviceTester/amazon-freertos/demos/common/devmode_key_provisioning\aws_dev_mode_key_provisioning.c **** #include "aws_clientcredential.h"
  51:D:/Work/DeviceTester/amazon-freertos/demos/common/devmode_key_provisioning\aws_dev_mode_key_provisioning.c **** #include "aws_default_root_certificates.h"
  52:D:/Work/DeviceTester/amazon-freertos/demos/common/devmode_key_provisioning\aws_dev_mode_key_provisioning.c **** 
  53:D:/Work/DeviceTester/amazon-freertos/demos/common/devmode_key_provisioning\aws_dev_mode_key_provisioning.c **** /* Key provisioning includes. */
  54:D:/Work/DeviceTester/amazon-freertos/demos/common/devmode_key_provisioning\aws_dev_mode_key_provisioning.c **** #include "aws_dev_mode_key_provisioning.h"
  55:D:/Work/DeviceTester/amazon-freertos/demos/common/devmode_key_provisioning\aws_dev_mode_key_provisioning.c **** 
  56:D:/Work/DeviceTester/amazon-freertos/demos/common/devmode_key_provisioning\aws_dev_mode_key_provisioning.c **** /* mbedTLS includes. */
  57:D:/Work/DeviceTester/amazon-freertos/demos/common/devmode_key_provisioning\aws_dev_mode_key_provisioning.c **** #include "mbedtls/base64.h"
  58:D:/Work/DeviceTester/amazon-freertos/demos/common/devmode_key_provisioning\aws_dev_mode_key_provisioning.c **** /*-----------------------------------------------------------*/
  59:D:/Work/DeviceTester/amazon-freertos/demos/common/devmode_key_provisioning\aws_dev_mode_key_provisioning.c **** 
  60:D:/Work/DeviceTester/amazon-freertos/demos/common/devmode_key_provisioning\aws_dev_mode_key_provisioning.c **** /* For convenience and to enable rapid evaluation the keys are stored in const
  61:D:/Work/DeviceTester/amazon-freertos/demos/common/devmode_key_provisioning\aws_dev_mode_key_provisioning.c ****  * strings, see aws_clientcredential_keys.h.  THIS IS NOT GOOD PRACTICE FOR
  62:D:/Work/DeviceTester/amazon-freertos/demos/common/devmode_key_provisioning\aws_dev_mode_key_provisioning.c ****  * PRODUCTION SYSTEMS WHICH MUST STORE KEYS SECURELY.  The variables declared
  63:D:/Work/DeviceTester/amazon-freertos/demos/common/devmode_key_provisioning\aws_dev_mode_key_provisioning.c ****  * here are externed in aws_clientcredential_keys.h for access by other
  64:D:/Work/DeviceTester/amazon-freertos/demos/common/devmode_key_provisioning\aws_dev_mode_key_provisioning.c ****  * modules. */
  65:D:/Work/DeviceTester/amazon-freertos/demos/common/devmode_key_provisioning\aws_dev_mode_key_provisioning.c **** const char clientcredentialCLIENT_CERTIFICATE_PEM[] = keyCLIENT_CERTIFICATE_PEM;
  66:D:/Work/DeviceTester/amazon-freertos/demos/common/devmode_key_provisioning\aws_dev_mode_key_provisioning.c **** const char * clientcredentialJITR_DEVICE_CERTIFICATE_AUTHORITY_PEM = keyJITR_DEVICE_CERTIFICATE_AUT
  67:D:/Work/DeviceTester/amazon-freertos/demos/common/devmode_key_provisioning\aws_dev_mode_key_provisioning.c **** const char clientcredentialCLIENT_PRIVATE_KEY_PEM[] = keyCLIENT_PRIVATE_KEY_PEM;
  68:D:/Work/DeviceTester/amazon-freertos/demos/common/devmode_key_provisioning\aws_dev_mode_key_provisioning.c **** 
  69:D:/Work/DeviceTester/amazon-freertos/demos/common/devmode_key_provisioning\aws_dev_mode_key_provisioning.c **** /*
  70:D:/Work/DeviceTester/amazon-freertos/demos/common/devmode_key_provisioning\aws_dev_mode_key_provisioning.c ****  * Length of device certificate included from aws_clientcredential_keys.h .
  71:D:/Work/DeviceTester/amazon-freertos/demos/common/devmode_key_provisioning\aws_dev_mode_key_provisioning.c ****  */
  72:D:/Work/DeviceTester/amazon-freertos/demos/common/devmode_key_provisioning\aws_dev_mode_key_provisioning.c **** const uint32_t clientcredentialCLIENT_CERTIFICATE_LENGTH = sizeof( clientcredentialCLIENT_CERTIFICA
  73:D:/Work/DeviceTester/amazon-freertos/demos/common/devmode_key_provisioning\aws_dev_mode_key_provisioning.c **** 
  74:D:/Work/DeviceTester/amazon-freertos/demos/common/devmode_key_provisioning\aws_dev_mode_key_provisioning.c **** /*
  75:D:/Work/DeviceTester/amazon-freertos/demos/common/devmode_key_provisioning\aws_dev_mode_key_provisioning.c ****  * Length of device private key included from aws_clientcredential_keys.h .
  76:D:/Work/DeviceTester/amazon-freertos/demos/common/devmode_key_provisioning\aws_dev_mode_key_provisioning.c ****  */
  77:D:/Work/DeviceTester/amazon-freertos/demos/common/devmode_key_provisioning\aws_dev_mode_key_provisioning.c **** const uint32_t clientcredentialCLIENT_PRIVATE_KEY_LENGTH = sizeof( clientcredentialCLIENT_PRIVATE_K
  78:D:/Work/DeviceTester/amazon-freertos/demos/common/devmode_key_provisioning\aws_dev_mode_key_provisioning.c **** 
  79:D:/Work/DeviceTester/amazon-freertos/demos/common/devmode_key_provisioning\aws_dev_mode_key_provisioning.c **** 
  80:D:/Work/DeviceTester/amazon-freertos/demos/common/devmode_key_provisioning\aws_dev_mode_key_provisioning.c **** /* Key provisioning helper defines. */
  81:D:/Work/DeviceTester/amazon-freertos/demos/common/devmode_key_provisioning\aws_dev_mode_key_provisioning.c **** #define provisioningPRIVATE_KEY_TEMPLATE_COUNT         4
  82:D:/Work/DeviceTester/amazon-freertos/demos/common/devmode_key_provisioning\aws_dev_mode_key_provisioning.c **** #define provisioningCERTIFICATE_TEMPLATE_COUNT         3
  83:D:/Work/DeviceTester/amazon-freertos/demos/common/devmode_key_provisioning\aws_dev_mode_key_provisioning.c **** #define provisioningROOT_CERTIFICATE_TEMPLATE_COUNT    3
  84:D:/Work/DeviceTester/amazon-freertos/demos/common/devmode_key_provisioning\aws_dev_mode_key_provisioning.c **** 
  85:D:/Work/DeviceTester/amazon-freertos/demos/common/devmode_key_provisioning\aws_dev_mode_key_provisioning.c **** 
  86:D:/Work/DeviceTester/amazon-freertos/demos/common/devmode_key_provisioning\aws_dev_mode_key_provisioning.c **** /*-----------------------------------------------------------*/
  87:D:/Work/DeviceTester/amazon-freertos/demos/common/devmode_key_provisioning\aws_dev_mode_key_provisioning.c **** 
  88:D:/Work/DeviceTester/amazon-freertos/demos/common/devmode_key_provisioning\aws_dev_mode_key_provisioning.c **** CK_RV xInitializePkcsSession( CK_FUNCTION_LIST_PTR * ppxFunctionList,
  89:D:/Work/DeviceTester/amazon-freertos/demos/common/devmode_key_provisioning\aws_dev_mode_key_provisioning.c ****                               CK_SLOT_ID * pxSlotId,
  90:D:/Work/DeviceTester/amazon-freertos/demos/common/devmode_key_provisioning\aws_dev_mode_key_provisioning.c ****                               CK_SESSION_HANDLE * pxSession )
  91:D:/Work/DeviceTester/amazon-freertos/demos/common/devmode_key_provisioning\aws_dev_mode_key_provisioning.c **** {
  26              		.loc 1 91 0
  27              		.cfi_startproc
  28              		@ args = 0, pretend = 0, frame = 8
  29              		@ frame_needed = 0, uses_anonymous_args = 0
  30              	.LVL0:
  31 0000 7F402DE9 		push	{r0, r1, r2, r3, r4, r5, r6, lr}
  32              		.cfi_def_cfa_offset 32
  33              		.cfi_offset 4, -16
  34              		.cfi_offset 5, -12
  35              		.cfi_offset 6, -8
  36              		.cfi_offset 14, -4
  92:D:/Work/DeviceTester/amazon-freertos/demos/common/devmode_key_provisioning\aws_dev_mode_key_provisioning.c ****     CK_RV xResult = 0;
  93:D:/Work/DeviceTester/amazon-freertos/demos/common/devmode_key_provisioning\aws_dev_mode_key_provisioning.c ****     CK_C_GetFunctionList xCkGetFunctionList = NULL;
  94:D:/Work/DeviceTester/amazon-freertos/demos/common/devmode_key_provisioning\aws_dev_mode_key_provisioning.c ****     CK_ULONG xCount = 1;
  37              		.loc 1 94 0
  38 0004 0130A0E3 		mov	r3, #1
  39 0008 0C308DE5 		str	r3, [sp, #12]
  40              	.LVL1:
  91:D:/Work/DeviceTester/amazon-freertos/demos/common/devmode_key_provisioning\aws_dev_mode_key_provisioning.c ****     CK_RV xResult = 0;
  41              		.loc 1 91 0
  42 000c 0040A0E1 		mov	r4, r0
  43 0010 0150A0E1 		mov	r5, r1
  44 0014 0260A0E1 		mov	r6, r2
  95:D:/Work/DeviceTester/amazon-freertos/demos/common/devmode_key_provisioning\aws_dev_mode_key_provisioning.c **** 
  96:D:/Work/DeviceTester/amazon-freertos/demos/common/devmode_key_provisioning\aws_dev_mode_key_provisioning.c ****     ( void ) ( pxSession );
  97:D:/Work/DeviceTester/amazon-freertos/demos/common/devmode_key_provisioning\aws_dev_mode_key_provisioning.c **** 
  98:D:/Work/DeviceTester/amazon-freertos/demos/common/devmode_key_provisioning\aws_dev_mode_key_provisioning.c ****     /* Ensure that the PKCS#11 module is initialized. */
  99:D:/Work/DeviceTester/amazon-freertos/demos/common/devmode_key_provisioning\aws_dev_mode_key_provisioning.c ****     if( 0 == xResult )
 100:D:/Work/DeviceTester/amazon-freertos/demos/common/devmode_key_provisioning\aws_dev_mode_key_provisioning.c ****     {
 101:D:/Work/DeviceTester/amazon-freertos/demos/common/devmode_key_provisioning\aws_dev_mode_key_provisioning.c ****         xCkGetFunctionList = C_GetFunctionList;
 102:D:/Work/DeviceTester/amazon-freertos/demos/common/devmode_key_provisioning\aws_dev_mode_key_provisioning.c ****         xResult = xCkGetFunctionList( ppxFunctionList );
  45              		.loc 1 102 0
  46 0018 FEFFFFEB 		bl	C_GetFunctionList
  47              	.LVL2:
 103:D:/Work/DeviceTester/amazon-freertos/demos/common/devmode_key_provisioning\aws_dev_mode_key_provisioning.c ****     }
 104:D:/Work/DeviceTester/amazon-freertos/demos/common/devmode_key_provisioning\aws_dev_mode_key_provisioning.c **** 
 105:D:/Work/DeviceTester/amazon-freertos/demos/common/devmode_key_provisioning\aws_dev_mode_key_provisioning.c ****     if( 0 == xResult )
  48              		.loc 1 105 0
  49 001c 003050E2 		subs	r3, r0, #0
  50 0020 0300001A 		bne	.L2
 106:D:/Work/DeviceTester/amazon-freertos/demos/common/devmode_key_provisioning\aws_dev_mode_key_provisioning.c ****     {
 107:D:/Work/DeviceTester/amazon-freertos/demos/common/devmode_key_provisioning\aws_dev_mode_key_provisioning.c ****         xResult = ( *ppxFunctionList )->C_Initialize( NULL );
  51              		.loc 1 107 0
  52 0024 003094E5 		ldr	r3, [r4]
  53 0028 043093E5 		ldr	r3, [r3, #4]
  54 002c 33FF2FE1 		blx	r3
  55              	.LVL3:
  56 0030 0030A0E1 		mov	r3, r0
  57              	.LVL4:
  58              	.L2:
 108:D:/Work/DeviceTester/amazon-freertos/demos/common/devmode_key_provisioning\aws_dev_mode_key_provisioning.c ****     }
 109:D:/Work/DeviceTester/amazon-freertos/demos/common/devmode_key_provisioning\aws_dev_mode_key_provisioning.c **** 
 110:D:/Work/DeviceTester/amazon-freertos/demos/common/devmode_key_provisioning\aws_dev_mode_key_provisioning.c ****     /* Get the default private key storage ID. */
 111:D:/Work/DeviceTester/amazon-freertos/demos/common/devmode_key_provisioning\aws_dev_mode_key_provisioning.c ****     if( ( 0 == xResult ) || ( CKR_CRYPTOKI_ALREADY_INITIALIZED == xResult ) )
  59              		.loc 1 111 0
  60 0034 912100E3 		movw	r2, #401
  61 0038 020053E1 		cmp	r3, r2
  62 003c 00005313 		cmpne	r3, #0
  63 0040 0F00001A 		bne	.L1
 112:D:/Work/DeviceTester/amazon-freertos/demos/common/devmode_key_provisioning\aws_dev_mode_key_provisioning.c ****     {
 113:D:/Work/DeviceTester/amazon-freertos/demos/common/devmode_key_provisioning\aws_dev_mode_key_provisioning.c ****         xResult = ( *ppxFunctionList )->C_GetSlotList( CK_TRUE,
  64              		.loc 1 113 0
  65 0044 003094E5 		ldr	r3, [r4]
  66 0048 0C208DE2 		add	r2, sp, #12
  67 004c 0510A0E1 		mov	r1, r5
  68 0050 0100A0E3 		mov	r0, #1
  69              	.LVL5:
  70 0054 143093E5 		ldr	r3, [r3, #20]
  71 0058 33FF2FE1 		blx	r3
  72              	.LVL6:
 114:D:/Work/DeviceTester/amazon-freertos/demos/common/devmode_key_provisioning\aws_dev_mode_key_provisioning.c ****                                                        pxSlotId,
 115:D:/Work/DeviceTester/amazon-freertos/demos/common/devmode_key_provisioning\aws_dev_mode_key_provisioning.c ****                                                        &xCount );
 116:D:/Work/DeviceTester/amazon-freertos/demos/common/devmode_key_provisioning\aws_dev_mode_key_provisioning.c ****     }
 117:D:/Work/DeviceTester/amazon-freertos/demos/common/devmode_key_provisioning\aws_dev_mode_key_provisioning.c **** 
 118:D:/Work/DeviceTester/amazon-freertos/demos/common/devmode_key_provisioning\aws_dev_mode_key_provisioning.c ****     if( xResult == CKR_OK )
  73              		.loc 1 118 0
  74 005c 003050E2 		subs	r3, r0, #0
  75 0060 0700001A 		bne	.L1
  76              	.LVL7:
  77              	.LBB4:
  78              	.LBB5:
 119:D:/Work/DeviceTester/amazon-freertos/demos/common/devmode_key_provisioning\aws_dev_mode_key_provisioning.c ****     {
 120:D:/Work/DeviceTester/amazon-freertos/demos/common/devmode_key_provisioning\aws_dev_mode_key_provisioning.c ****         xResult = ( *ppxFunctionList )->C_OpenSession( *pxSlotId,
  79              		.loc 1 120 0
  80 0064 002094E5 		ldr	r2, [r4]
  81 0068 0410A0E3 		mov	r1, #4
  82 006c 00608DE5 		str	r6, [sp]
  83 0070 000095E5 		ldr	r0, [r5]
  84              	.LVL8:
  85 0074 344092E5 		ldr	r4, [r2, #52]
  86              	.LVL9:
  87 0078 0320A0E1 		mov	r2, r3
  88 007c 34FF2FE1 		blx	r4
  89              	.LVL10:
  90 0080 0030A0E1 		mov	r3, r0
  91              	.LVL11:
  92              	.L1:
  93              	.LBE5:
  94              	.LBE4:
 121:D:/Work/DeviceTester/amazon-freertos/demos/common/devmode_key_provisioning\aws_dev_mode_key_provisioning.c ****                                                        CKF_SERIAL_SESSION,
 122:D:/Work/DeviceTester/amazon-freertos/demos/common/devmode_key_provisioning\aws_dev_mode_key_provisioning.c ****                                                        NULL,
 123:D:/Work/DeviceTester/amazon-freertos/demos/common/devmode_key_provisioning\aws_dev_mode_key_provisioning.c ****                                                        NULL,
 124:D:/Work/DeviceTester/amazon-freertos/demos/common/devmode_key_provisioning\aws_dev_mode_key_provisioning.c ****                                                        pxSession );
 125:D:/Work/DeviceTester/amazon-freertos/demos/common/devmode_key_provisioning\aws_dev_mode_key_provisioning.c ****     }
 126:D:/Work/DeviceTester/amazon-freertos/demos/common/devmode_key_provisioning\aws_dev_mode_key_provisioning.c **** 
 127:D:/Work/DeviceTester/amazon-freertos/demos/common/devmode_key_provisioning\aws_dev_mode_key_provisioning.c ****     return xResult;
 128:D:/Work/DeviceTester/amazon-freertos/demos/common/devmode_key_provisioning\aws_dev_mode_key_provisioning.c **** }
  95              		.loc 1 128 0
  96 0084 0300A0E1 		mov	r0, r3
  97              	.LVL12:
  98 0088 10D08DE2 		add	sp, sp, #16
  99              		.cfi_def_cfa_offset 16
 100              		@ sp needed
 101 008c 7080BDE8 		pop	{r4, r5, r6, pc}
 102              		.cfi_endproc
 103              	.LFE1:
 105              		.section	.text.convert_pem_to_der,"ax",%progbits
 106              		.align	2
 107              		.global	convert_pem_to_der
 108              		.syntax unified
 109              		.arm
 110              		.fpu neon
 112              	convert_pem_to_der:
 113              	.LFB2:
 129:D:/Work/DeviceTester/amazon-freertos/demos/common/devmode_key_provisioning\aws_dev_mode_key_provisioning.c **** 
 130:D:/Work/DeviceTester/amazon-freertos/demos/common/devmode_key_provisioning\aws_dev_mode_key_provisioning.c **** /* @brief Converts PEM documents into DER formatted byte arrays.
 131:D:/Work/DeviceTester/amazon-freertos/demos/common/devmode_key_provisioning\aws_dev_mode_key_provisioning.c ****  * This is a helper function from mbedTLS util pem2der.c
 132:D:/Work/DeviceTester/amazon-freertos/demos/common/devmode_key_provisioning\aws_dev_mode_key_provisioning.c ****  * (https://github.com/ARMmbed/mbedtls/blob/development/programs/util/pem2der.c#L75)
 133:D:/Work/DeviceTester/amazon-freertos/demos/common/devmode_key_provisioning\aws_dev_mode_key_provisioning.c ****  *
 134:D:/Work/DeviceTester/amazon-freertos/demos/common/devmode_key_provisioning\aws_dev_mode_key_provisioning.c ****  * \param pucInput[in]       Pointer to PEM object
 135:D:/Work/DeviceTester/amazon-freertos/demos/common/devmode_key_provisioning\aws_dev_mode_key_provisioning.c ****  * \param xLen[in]           Length of PEM object
 136:D:/Work/DeviceTester/amazon-freertos/demos/common/devmode_key_provisioning\aws_dev_mode_key_provisioning.c ****  * \param pucOutput[out]     Pointer to buffer where DER oboject will be placed
 137:D:/Work/DeviceTester/amazon-freertos/demos/common/devmode_key_provisioning\aws_dev_mode_key_provisioning.c ****  * \param pxOlen[in/out]     Pointer to length of DER buffer.  This value is updated
 138:D:/Work/DeviceTester/amazon-freertos/demos/common/devmode_key_provisioning\aws_dev_mode_key_provisioning.c ****  *                          to contain the actual length of the converted DER object.
 139:D:/Work/DeviceTester/amazon-freertos/demos/common/devmode_key_provisioning\aws_dev_mode_key_provisioning.c ****  *
 140:D:/Work/DeviceTester/amazon-freertos/demos/common/devmode_key_provisioning\aws_dev_mode_key_provisioning.c ****  * \return 0 if successful.  Negative if conversion failed.  If buffer is not
 141:D:/Work/DeviceTester/amazon-freertos/demos/common/devmode_key_provisioning\aws_dev_mode_key_provisioning.c ****  * large enough to hold converted object, pxOlen is still updated but -1 is returned.
 142:D:/Work/DeviceTester/amazon-freertos/demos/common/devmode_key_provisioning\aws_dev_mode_key_provisioning.c ****  *
 143:D:/Work/DeviceTester/amazon-freertos/demos/common/devmode_key_provisioning\aws_dev_mode_key_provisioning.c ****  */
 144:D:/Work/DeviceTester/amazon-freertos/demos/common/devmode_key_provisioning\aws_dev_mode_key_provisioning.c **** int convert_pem_to_der( const unsigned char * pucInput,
 145:D:/Work/DeviceTester/amazon-freertos/demos/common/devmode_key_provisioning\aws_dev_mode_key_provisioning.c ****                         size_t xLen,
 146:D:/Work/DeviceTester/amazon-freertos/demos/common/devmode_key_provisioning\aws_dev_mode_key_provisioning.c ****                         unsigned char * pucOutput,
 147:D:/Work/DeviceTester/amazon-freertos/demos/common/devmode_key_provisioning\aws_dev_mode_key_provisioning.c ****                         size_t * pxOlen )
 148:D:/Work/DeviceTester/amazon-freertos/demos/common/devmode_key_provisioning\aws_dev_mode_key_provisioning.c **** {
 114              		.loc 1 148 0
 115              		.cfi_startproc
 116              		@ args = 0, pretend = 0, frame = 8
 117              		@ frame_needed = 0, uses_anonymous_args = 0
 118              	.LVL13:
 119 0000 FF412DE9 		push	{r0, r1, r2, r3, r4, r5, r6, r7, r8, lr}
 120              		.cfi_def_cfa_offset 40
 121              		.cfi_offset 4, -24
 122              		.cfi_offset 5, -20
 123              		.cfi_offset 6, -16
 124              		.cfi_offset 7, -12
 125              		.cfi_offset 8, -8
 126              		.cfi_offset 14, -4
 149:D:/Work/DeviceTester/amazon-freertos/demos/common/devmode_key_provisioning\aws_dev_mode_key_provisioning.c ****     int lRet;
 150:D:/Work/DeviceTester/amazon-freertos/demos/common/devmode_key_provisioning\aws_dev_mode_key_provisioning.c ****     const unsigned char * pucS1;
 151:D:/Work/DeviceTester/amazon-freertos/demos/common/devmode_key_provisioning\aws_dev_mode_key_provisioning.c ****     const unsigned char * pucS2;
 152:D:/Work/DeviceTester/amazon-freertos/demos/common/devmode_key_provisioning\aws_dev_mode_key_provisioning.c ****     const unsigned char * pucEnd = pucInput + xLen;
 127              		.loc 1 152 0
 128 0004 015080E0 		add	r5, r0, r1
 129              	.LVL14:
 148:D:/Work/DeviceTester/amazon-freertos/demos/common/devmode_key_provisioning\aws_dev_mode_key_provisioning.c ****     int lRet;
 130              		.loc 1 148 0
 131 0008 0360A0E1 		mov	r6, r3
 153:D:/Work/DeviceTester/amazon-freertos/demos/common/devmode_key_provisioning\aws_dev_mode_key_provisioning.c ****     size_t xOtherLen = 0;
 154:D:/Work/DeviceTester/amazon-freertos/demos/common/devmode_key_provisioning\aws_dev_mode_key_provisioning.c **** 
 155:D:/Work/DeviceTester/amazon-freertos/demos/common/devmode_key_provisioning\aws_dev_mode_key_provisioning.c ****     pucS1 = ( unsigned char * ) strstr( ( const char * ) pucInput, "-----BEGIN" );
 132              		.loc 1 155 0
 133 000c 04119FE5 		ldr	r1, .L29
 134              	.LVL15:
 153:D:/Work/DeviceTester/amazon-freertos/demos/common/devmode_key_provisioning\aws_dev_mode_key_provisioning.c ****     size_t xOtherLen = 0;
 135              		.loc 1 153 0
 136 0010 0030A0E3 		mov	r3, #0
 137              	.LVL16:
 148:D:/Work/DeviceTester/amazon-freertos/demos/common/devmode_key_provisioning\aws_dev_mode_key_provisioning.c ****     int lRet;
 138              		.loc 1 148 0
 139 0014 0080A0E1 		mov	r8, r0
 140 0018 0270A0E1 		mov	r7, r2
 153:D:/Work/DeviceTester/amazon-freertos/demos/common/devmode_key_provisioning\aws_dev_mode_key_provisioning.c ****     size_t xOtherLen = 0;
 141              		.loc 1 153 0
 142 001c 0C308DE5 		str	r3, [sp, #12]
 143              		.loc 1 155 0
 144 0020 FEFFFFEB 		bl	strstr
 145              	.LVL17:
 156:D:/Work/DeviceTester/amazon-freertos/demos/common/devmode_key_provisioning\aws_dev_mode_key_provisioning.c **** 
 157:D:/Work/DeviceTester/amazon-freertos/demos/common/devmode_key_provisioning\aws_dev_mode_key_provisioning.c ****     if( pucS1 == NULL )
 146              		.loc 1 157 0
 147 0024 004050E2 		subs	r4, r0, #0
 148 0028 0200001A 		bne	.L9
 149              	.LVL18:
 150              	.L11:
 158:D:/Work/DeviceTester/amazon-freertos/demos/common/devmode_key_provisioning\aws_dev_mode_key_provisioning.c ****     {
 159:D:/Work/DeviceTester/amazon-freertos/demos/common/devmode_key_provisioning\aws_dev_mode_key_provisioning.c ****         return( -1 );
 151              		.loc 1 159 0
 152 002c 0000E0E3 		mvn	r0, #0
 153              	.L8:
 160:D:/Work/DeviceTester/amazon-freertos/demos/common/devmode_key_provisioning\aws_dev_mode_key_provisioning.c ****     }
 161:D:/Work/DeviceTester/amazon-freertos/demos/common/devmode_key_provisioning\aws_dev_mode_key_provisioning.c **** 
 162:D:/Work/DeviceTester/amazon-freertos/demos/common/devmode_key_provisioning\aws_dev_mode_key_provisioning.c ****     pucS2 = ( unsigned char * ) strstr( ( const char * ) pucInput, "-----END" );
 163:D:/Work/DeviceTester/amazon-freertos/demos/common/devmode_key_provisioning\aws_dev_mode_key_provisioning.c **** 
 164:D:/Work/DeviceTester/amazon-freertos/demos/common/devmode_key_provisioning\aws_dev_mode_key_provisioning.c ****     if( pucS2 == NULL )
 165:D:/Work/DeviceTester/amazon-freertos/demos/common/devmode_key_provisioning\aws_dev_mode_key_provisioning.c ****     {
 166:D:/Work/DeviceTester/amazon-freertos/demos/common/devmode_key_provisioning\aws_dev_mode_key_provisioning.c ****         return( -1 );
 167:D:/Work/DeviceTester/amazon-freertos/demos/common/devmode_key_provisioning\aws_dev_mode_key_provisioning.c ****     }
 168:D:/Work/DeviceTester/amazon-freertos/demos/common/devmode_key_provisioning\aws_dev_mode_key_provisioning.c **** 
 169:D:/Work/DeviceTester/amazon-freertos/demos/common/devmode_key_provisioning\aws_dev_mode_key_provisioning.c ****     pucS1 += 10;
 170:D:/Work/DeviceTester/amazon-freertos/demos/common/devmode_key_provisioning\aws_dev_mode_key_provisioning.c **** 
 171:D:/Work/DeviceTester/amazon-freertos/demos/common/devmode_key_provisioning\aws_dev_mode_key_provisioning.c ****     while( pucS1 < pucEnd && *pucS1 != '-' )
 172:D:/Work/DeviceTester/amazon-freertos/demos/common/devmode_key_provisioning\aws_dev_mode_key_provisioning.c ****     {
 173:D:/Work/DeviceTester/amazon-freertos/demos/common/devmode_key_provisioning\aws_dev_mode_key_provisioning.c ****         pucS1++;
 174:D:/Work/DeviceTester/amazon-freertos/demos/common/devmode_key_provisioning\aws_dev_mode_key_provisioning.c ****     }
 175:D:/Work/DeviceTester/amazon-freertos/demos/common/devmode_key_provisioning\aws_dev_mode_key_provisioning.c **** 
 176:D:/Work/DeviceTester/amazon-freertos/demos/common/devmode_key_provisioning\aws_dev_mode_key_provisioning.c ****     while( pucS1 < pucEnd && *pucS1 == '-' )
 177:D:/Work/DeviceTester/amazon-freertos/demos/common/devmode_key_provisioning\aws_dev_mode_key_provisioning.c ****     {
 178:D:/Work/DeviceTester/amazon-freertos/demos/common/devmode_key_provisioning\aws_dev_mode_key_provisioning.c ****         pucS1++;
 179:D:/Work/DeviceTester/amazon-freertos/demos/common/devmode_key_provisioning\aws_dev_mode_key_provisioning.c ****     }
 180:D:/Work/DeviceTester/amazon-freertos/demos/common/devmode_key_provisioning\aws_dev_mode_key_provisioning.c **** 
 181:D:/Work/DeviceTester/amazon-freertos/demos/common/devmode_key_provisioning\aws_dev_mode_key_provisioning.c ****     if( *pucS1 == '\r' )
 182:D:/Work/DeviceTester/amazon-freertos/demos/common/devmode_key_provisioning\aws_dev_mode_key_provisioning.c ****     {
 183:D:/Work/DeviceTester/amazon-freertos/demos/common/devmode_key_provisioning\aws_dev_mode_key_provisioning.c ****         pucS1++;
 184:D:/Work/DeviceTester/amazon-freertos/demos/common/devmode_key_provisioning\aws_dev_mode_key_provisioning.c ****     }
 185:D:/Work/DeviceTester/amazon-freertos/demos/common/devmode_key_provisioning\aws_dev_mode_key_provisioning.c **** 
 186:D:/Work/DeviceTester/amazon-freertos/demos/common/devmode_key_provisioning\aws_dev_mode_key_provisioning.c ****     if( *pucS1 == '\n' )
 187:D:/Work/DeviceTester/amazon-freertos/demos/common/devmode_key_provisioning\aws_dev_mode_key_provisioning.c ****     {
 188:D:/Work/DeviceTester/amazon-freertos/demos/common/devmode_key_provisioning\aws_dev_mode_key_provisioning.c ****         pucS1++;
 189:D:/Work/DeviceTester/amazon-freertos/demos/common/devmode_key_provisioning\aws_dev_mode_key_provisioning.c ****     }
 190:D:/Work/DeviceTester/amazon-freertos/demos/common/devmode_key_provisioning\aws_dev_mode_key_provisioning.c **** 
 191:D:/Work/DeviceTester/amazon-freertos/demos/common/devmode_key_provisioning\aws_dev_mode_key_provisioning.c ****     if( ( pucS2 <= pucS1 ) || ( pucS2 > pucEnd ) )
 192:D:/Work/DeviceTester/amazon-freertos/demos/common/devmode_key_provisioning\aws_dev_mode_key_provisioning.c ****     {
 193:D:/Work/DeviceTester/amazon-freertos/demos/common/devmode_key_provisioning\aws_dev_mode_key_provisioning.c ****         return( -1 );
 194:D:/Work/DeviceTester/amazon-freertos/demos/common/devmode_key_provisioning\aws_dev_mode_key_provisioning.c ****     }
 195:D:/Work/DeviceTester/amazon-freertos/demos/common/devmode_key_provisioning\aws_dev_mode_key_provisioning.c **** 
 196:D:/Work/DeviceTester/amazon-freertos/demos/common/devmode_key_provisioning\aws_dev_mode_key_provisioning.c ****     lRet = mbedtls_base64_decode( NULL, 0, &xOtherLen, ( const unsigned char * ) pucS1, pucS2 - puc
 197:D:/Work/DeviceTester/amazon-freertos/demos/common/devmode_key_provisioning\aws_dev_mode_key_provisioning.c **** 
 198:D:/Work/DeviceTester/amazon-freertos/demos/common/devmode_key_provisioning\aws_dev_mode_key_provisioning.c ****     if( lRet == MBEDTLS_ERR_BASE64_INVALID_CHARACTER )
 199:D:/Work/DeviceTester/amazon-freertos/demos/common/devmode_key_provisioning\aws_dev_mode_key_provisioning.c ****     {
 200:D:/Work/DeviceTester/amazon-freertos/demos/common/devmode_key_provisioning\aws_dev_mode_key_provisioning.c ****         return( lRet );
 201:D:/Work/DeviceTester/amazon-freertos/demos/common/devmode_key_provisioning\aws_dev_mode_key_provisioning.c ****     }
 202:D:/Work/DeviceTester/amazon-freertos/demos/common/devmode_key_provisioning\aws_dev_mode_key_provisioning.c **** 
 203:D:/Work/DeviceTester/amazon-freertos/demos/common/devmode_key_provisioning\aws_dev_mode_key_provisioning.c ****     if( xOtherLen > *pxOlen )
 204:D:/Work/DeviceTester/amazon-freertos/demos/common/devmode_key_provisioning\aws_dev_mode_key_provisioning.c ****     {
 205:D:/Work/DeviceTester/amazon-freertos/demos/common/devmode_key_provisioning\aws_dev_mode_key_provisioning.c ****         return( -1 );
 206:D:/Work/DeviceTester/amazon-freertos/demos/common/devmode_key_provisioning\aws_dev_mode_key_provisioning.c ****     }
 207:D:/Work/DeviceTester/amazon-freertos/demos/common/devmode_key_provisioning\aws_dev_mode_key_provisioning.c **** 
 208:D:/Work/DeviceTester/amazon-freertos/demos/common/devmode_key_provisioning\aws_dev_mode_key_provisioning.c ****     if( ( lRet = mbedtls_base64_decode( pucOutput, xOtherLen, &xOtherLen, ( const unsigned char * )
 209:D:/Work/DeviceTester/amazon-freertos/demos/common/devmode_key_provisioning\aws_dev_mode_key_provisioning.c ****                                         pucS2 - pucS1 ) ) != 0 )
 210:D:/Work/DeviceTester/amazon-freertos/demos/common/devmode_key_provisioning\aws_dev_mode_key_provisioning.c ****     {
 211:D:/Work/DeviceTester/amazon-freertos/demos/common/devmode_key_provisioning\aws_dev_mode_key_provisioning.c ****         return( lRet );
 212:D:/Work/DeviceTester/amazon-freertos/demos/common/devmode_key_provisioning\aws_dev_mode_key_provisioning.c ****     }
 213:D:/Work/DeviceTester/amazon-freertos/demos/common/devmode_key_provisioning\aws_dev_mode_key_provisioning.c **** 
 214:D:/Work/DeviceTester/amazon-freertos/demos/common/devmode_key_provisioning\aws_dev_mode_key_provisioning.c ****     *pxOlen = xOtherLen;
 215:D:/Work/DeviceTester/amazon-freertos/demos/common/devmode_key_provisioning\aws_dev_mode_key_provisioning.c **** 
 216:D:/Work/DeviceTester/amazon-freertos/demos/common/devmode_key_provisioning\aws_dev_mode_key_provisioning.c ****     return( 0 );
 217:D:/Work/DeviceTester/amazon-freertos/demos/common/devmode_key_provisioning\aws_dev_mode_key_provisioning.c **** }
 154              		.loc 1 217 0
 155 0030 10D08DE2 		add	sp, sp, #16
 156              		.cfi_remember_state
 157              		.cfi_def_cfa_offset 24
 158              		@ sp needed
 159 0034 F081BDE8 		pop	{r4, r5, r6, r7, r8, pc}
 160              	.LVL19:
 161              	.L9:
 162              		.cfi_restore_state
 162:D:/Work/DeviceTester/amazon-freertos/demos/common/devmode_key_provisioning\aws_dev_mode_key_provisioning.c **** 
 163              		.loc 1 162 0
 164 0038 DC109FE5 		ldr	r1, .L29+4
 165 003c 0800A0E1 		mov	r0, r8
 166              	.LVL20:
 167 0040 FEFFFFEB 		bl	strstr
 168              	.LVL21:
 164:D:/Work/DeviceTester/amazon-freertos/demos/common/devmode_key_provisioning\aws_dev_mode_key_provisioning.c ****     {
 169              		.loc 1 164 0
 170 0044 000050E3 		cmp	r0, #0
 169:D:/Work/DeviceTester/amazon-freertos/demos/common/devmode_key_provisioning\aws_dev_mode_key_provisioning.c **** 
 171              		.loc 1 169 0
 172 0048 0A308412 		addne	r3, r4, #10
 164:D:/Work/DeviceTester/amazon-freertos/demos/common/devmode_key_provisioning\aws_dev_mode_key_provisioning.c ****     {
 173              		.loc 1 164 0
 174 004c F6FFFF0A 		beq	.L11
 175              	.L13:
 171:D:/Work/DeviceTester/amazon-freertos/demos/common/devmode_key_provisioning\aws_dev_mode_key_provisioning.c ****     {
 176              		.loc 1 171 0
 177 0050 050053E1 		cmp	r3, r5
 178 0054 0340A0E1 		mov	r4, r3
 179              	.LVL22:
 180 0058 0A00002A 		bcs	.L12
 171:D:/Work/DeviceTester/amazon-freertos/demos/common/devmode_key_provisioning\aws_dev_mode_key_provisioning.c ****     {
 181              		.loc 1 171 0 is_stmt 0 discriminator 1
 182 005c 0020D3E5 		ldrb	r2, [r3]	@ zero_extendqisi2
 183 0060 011083E2 		add	r1, r3, #1
 184 0064 2D0052E3 		cmp	r2, #45
 185 0068 2800001A 		bne	.L17
 186              	.LVL23:
 187              	.L14:
 176:D:/Work/DeviceTester/amazon-freertos/demos/common/devmode_key_provisioning\aws_dev_mode_key_provisioning.c ****     {
 188              		.loc 1 176 0 is_stmt 1
 189 006c 050053E1 		cmp	r3, r5
 190 0070 0340A0E1 		mov	r4, r3
 191              	.LVL24:
 192 0074 0300002A 		bcs	.L12
 176:D:/Work/DeviceTester/amazon-freertos/demos/common/devmode_key_provisioning\aws_dev_mode_key_provisioning.c ****     {
 193              		.loc 1 176 0 is_stmt 0 discriminator 1
 194 0078 0020D4E5 		ldrb	r2, [r4]	@ zero_extendqisi2
 195 007c 013083E2 		add	r3, r3, #1
 196              	.LVL25:
 197 0080 2D0052E3 		cmp	r2, #45
 198 0084 F8FFFF0A 		beq	.L14
 199              	.L12:
 181:D:/Work/DeviceTester/amazon-freertos/demos/common/devmode_key_provisioning\aws_dev_mode_key_provisioning.c ****     {
 200              		.loc 1 181 0 is_stmt 1
 201 0088 0030D4E5 		ldrb	r3, [r4]	@ zero_extendqisi2
 202 008c 0D0053E3 		cmp	r3, #13
 183:D:/Work/DeviceTester/amazon-freertos/demos/common/devmode_key_provisioning\aws_dev_mode_key_provisioning.c ****     }
 203              		.loc 1 183 0
 204 0090 01408402 		addeq	r4, r4, #1
 205              	.LVL26:
 186:D:/Work/DeviceTester/amazon-freertos/demos/common/devmode_key_provisioning\aws_dev_mode_key_provisioning.c ****     {
 206              		.loc 1 186 0
 207 0094 0030D4E5 		ldrb	r3, [r4]	@ zero_extendqisi2
 208 0098 0A0053E3 		cmp	r3, #10
 188:D:/Work/DeviceTester/amazon-freertos/demos/common/devmode_key_provisioning\aws_dev_mode_key_provisioning.c ****     }
 209              		.loc 1 188 0
 210 009c 01408402 		addeq	r4, r4, #1
 211              	.LVL27:
 191:D:/Work/DeviceTester/amazon-freertos/demos/common/devmode_key_provisioning\aws_dev_mode_key_provisioning.c ****     {
 212              		.loc 1 191 0
 213 00a0 000055E1 		cmp	r5, r0
 214 00a4 0010A023 		movcs	r1, #0
 215 00a8 0110A033 		movcc	r1, #1
 216 00ac 000054E1 		cmp	r4, r0
 217 00b0 01108123 		orrcs	r1, r1, #1
 218 00b4 000051E3 		cmp	r1, #0
 219 00b8 DBFFFF1A 		bne	.L11
 196:D:/Work/DeviceTester/amazon-freertos/demos/common/devmode_key_provisioning\aws_dev_mode_key_provisioning.c **** 
 220              		.loc 1 196 0
 221 00bc 045040E0 		sub	r5, r0, r4
 222              	.LVL28:
 223 00c0 0430A0E1 		mov	r3, r4
 224 00c4 00508DE5 		str	r5, [sp]
 225 00c8 0C208DE2 		add	r2, sp, #12
 226 00cc 0100A0E1 		mov	r0, r1
 227              	.LVL29:
 228 00d0 FEFFFFEB 		bl	mbedtls_base64_decode
 229              	.LVL30:
 198:D:/Work/DeviceTester/amazon-freertos/demos/common/devmode_key_provisioning\aws_dev_mode_key_provisioning.c ****     {
 230              		.loc 1 198 0
 231 00d4 2C0070E3 		cmn	r0, #44
 232 00d8 D4FFFF0A 		beq	.L8
 203:D:/Work/DeviceTester/amazon-freertos/demos/common/devmode_key_provisioning\aws_dev_mode_key_provisioning.c ****     {
 233              		.loc 1 203 0
 234 00dc 0C109DE5 		ldr	r1, [sp, #12]
 235 00e0 003096E5 		ldr	r3, [r6]
 236 00e4 010053E1 		cmp	r3, r1
 237 00e8 CFFFFF3A 		bcc	.L11
 208:D:/Work/DeviceTester/amazon-freertos/demos/common/devmode_key_provisioning\aws_dev_mode_key_provisioning.c ****                                         pucS2 - pucS1 ) ) != 0 )
 238              		.loc 1 208 0
 239 00ec 0430A0E1 		mov	r3, r4
 240 00f0 00508DE5 		str	r5, [sp]
 241 00f4 0C208DE2 		add	r2, sp, #12
 242 00f8 0700A0E1 		mov	r0, r7
 243              	.LVL31:
 244 00fc FEFFFFEB 		bl	mbedtls_base64_decode
 245              	.LVL32:
 246 0100 000050E3 		cmp	r0, #0
 214:D:/Work/DeviceTester/amazon-freertos/demos/common/devmode_key_provisioning\aws_dev_mode_key_provisioning.c **** 
 247              		.loc 1 214 0
 248 0104 0C309D05 		ldreq	r3, [sp, #12]
 249 0108 00308605 		streq	r3, [r6]
 216:D:/Work/DeviceTester/amazon-freertos/demos/common/devmode_key_provisioning\aws_dev_mode_key_provisioning.c **** }
 250              		.loc 1 216 0
 251 010c C7FFFFEA 		b	.L8
 252              	.LVL33:
 253              	.L17:
 254 0110 0130A0E1 		mov	r3, r1
 255              	.LVL34:
 256 0114 CDFFFFEA 		b	.L13
 257              	.L30:
 258              		.align	2
 259              	.L29:
 260 0118 00000000 		.word	.LC0
 261 011c 0B000000 		.word	.LC1
 262              		.cfi_endproc
 263              	.LFE2:
 265              		.section	.text.xProvisionCertificate,"ax",%progbits
 266              		.align	2
 267              		.global	xProvisionCertificate
 268              		.syntax unified
 269              		.arm
 270              		.fpu neon
 272              	xProvisionCertificate:
 273              	.LFB3:
 218:D:/Work/DeviceTester/amazon-freertos/demos/common/devmode_key_provisioning\aws_dev_mode_key_provisioning.c **** 
 219:D:/Work/DeviceTester/amazon-freertos/demos/common/devmode_key_provisioning\aws_dev_mode_key_provisioning.c **** CK_RV xProvisionCertificate( CK_SESSION_HANDLE xSession,
 220:D:/Work/DeviceTester/amazon-freertos/demos/common/devmode_key_provisioning\aws_dev_mode_key_provisioning.c ****                              uint8_t * pucCertificate,
 221:D:/Work/DeviceTester/amazon-freertos/demos/common/devmode_key_provisioning\aws_dev_mode_key_provisioning.c ****                              size_t xCertificateLength,
 222:D:/Work/DeviceTester/amazon-freertos/demos/common/devmode_key_provisioning\aws_dev_mode_key_provisioning.c ****                              uint8_t * pucLabel,
 223:D:/Work/DeviceTester/amazon-freertos/demos/common/devmode_key_provisioning\aws_dev_mode_key_provisioning.c ****                              CK_OBJECT_HANDLE_PTR pxObjectHandle )
 224:D:/Work/DeviceTester/amazon-freertos/demos/common/devmode_key_provisioning\aws_dev_mode_key_provisioning.c **** {
 274              		.loc 1 224 0
 275              		.cfi_startproc
 276              		@ args = 4, pretend = 0, frame = 48
 277              		@ frame_needed = 0, uses_anonymous_args = 0
 278              	.LVL35:
 279 0000 70402DE9 		push	{r4, r5, r6, lr}
 280              		.cfi_def_cfa_offset 16
 281              		.cfi_offset 4, -16
 282              		.cfi_offset 5, -12
 283              		.cfi_offset 6, -8
 284              		.cfi_offset 14, -4
 285 0004 0060A0E1 		mov	r6, r0
 286 0008 30D04DE2 		sub	sp, sp, #48
 287              		.cfi_def_cfa_offset 64
 225:D:/Work/DeviceTester/amazon-freertos/demos/common/devmode_key_provisioning\aws_dev_mode_key_provisioning.c ****     PKCS11_CertificateTemplate_t xCertificateTemplate;
 226:D:/Work/DeviceTester/amazon-freertos/demos/common/devmode_key_provisioning\aws_dev_mode_key_provisioning.c ****     CK_OBJECT_CLASS xCertificateClass = CKO_CERTIFICATE;
 288              		.loc 1 226 0
 289 000c 0100A0E3 		mov	r0, #1
 290              	.LVL36:
 227:D:/Work/DeviceTester/amazon-freertos/demos/common/devmode_key_provisioning\aws_dev_mode_key_provisioning.c ****     CK_FUNCTION_LIST_PTR pxFunctionList;
 228:D:/Work/DeviceTester/amazon-freertos/demos/common/devmode_key_provisioning\aws_dev_mode_key_provisioning.c ****     CK_RV xResult;
 229:D:/Work/DeviceTester/amazon-freertos/demos/common/devmode_key_provisioning\aws_dev_mode_key_provisioning.c ****     uint8_t * pucDerObject = NULL;
 230:D:/Work/DeviceTester/amazon-freertos/demos/common/devmode_key_provisioning\aws_dev_mode_key_provisioning.c ****     int32_t lConversionReturn = 0;
 231:D:/Work/DeviceTester/amazon-freertos/demos/common/devmode_key_provisioning\aws_dev_mode_key_provisioning.c ****     size_t xDerLen = 0;
 232:D:/Work/DeviceTester/amazon-freertos/demos/common/devmode_key_provisioning\aws_dev_mode_key_provisioning.c **** 
 233:D:/Work/DeviceTester/amazon-freertos/demos/common/devmode_key_provisioning\aws_dev_mode_key_provisioning.c **** 
 234:D:/Work/DeviceTester/amazon-freertos/demos/common/devmode_key_provisioning\aws_dev_mode_key_provisioning.c ****     /* Initialize the client certificate template. */
 235:D:/Work/DeviceTester/amazon-freertos/demos/common/devmode_key_provisioning\aws_dev_mode_key_provisioning.c ****     xCertificateTemplate.xObjectClass.type = CKA_CLASS;
 236:D:/Work/DeviceTester/amazon-freertos/demos/common/devmode_key_provisioning\aws_dev_mode_key_provisioning.c ****     xCertificateTemplate.xObjectClass.pValue = &xCertificateClass;
 237:D:/Work/DeviceTester/amazon-freertos/demos/common/devmode_key_provisioning\aws_dev_mode_key_provisioning.c ****     xCertificateTemplate.xObjectClass.ulValueLen = sizeof( xCertificateClass );
 238:D:/Work/DeviceTester/amazon-freertos/demos/common/devmode_key_provisioning\aws_dev_mode_key_provisioning.c ****     xCertificateTemplate.xValue.type = CKA_VALUE;
 291              		.loc 1 238 0
 292 0010 11C0A0E3 		mov	ip, #17
 226:D:/Work/DeviceTester/amazon-freertos/demos/common/devmode_key_provisioning\aws_dev_mode_key_provisioning.c ****     CK_FUNCTION_LIST_PTR pxFunctionList;
 293              		.loc 1 226 0
 294 0014 00008DE5 		str	r0, [sp]
 295              	.LVL37:
 231:D:/Work/DeviceTester/amazon-freertos/demos/common/devmode_key_provisioning\aws_dev_mode_key_provisioning.c **** 
 296              		.loc 1 231 0
 297 0018 0000A0E3 		mov	r0, #0
 298 001c 08008DE5 		str	r0, [sp, #8]
 235:D:/Work/DeviceTester/amazon-freertos/demos/common/devmode_key_provisioning\aws_dev_mode_key_provisioning.c ****     xCertificateTemplate.xObjectClass.pValue = &xCertificateClass;
 299              		.loc 1 235 0
 300 0020 0C008DE5 		str	r0, [sp, #12]
 237:D:/Work/DeviceTester/amazon-freertos/demos/common/devmode_key_provisioning\aws_dev_mode_key_provisioning.c ****     xCertificateTemplate.xValue.type = CKA_VALUE;
 301              		.loc 1 237 0
 302 0024 0400A0E3 		mov	r0, #4
 303 0028 14008DE5 		str	r0, [sp, #20]
 239:D:/Work/DeviceTester/amazon-freertos/demos/common/devmode_key_provisioning\aws_dev_mode_key_provisioning.c ****     xCertificateTemplate.xValue.pValue = ( CK_VOID_PTR ) pucCertificate;
 240:D:/Work/DeviceTester/amazon-freertos/demos/common/devmode_key_provisioning\aws_dev_mode_key_provisioning.c ****     xCertificateTemplate.xValue.ulValueLen = ( CK_ULONG ) xCertificateLength;
 304              		.loc 1 240 0
 305 002c 2C208DE5 		str	r2, [sp, #44]
 241:D:/Work/DeviceTester/amazon-freertos/demos/common/devmode_key_provisioning\aws_dev_mode_key_provisioning.c ****     xCertificateTemplate.xLabel.type = CKA_LABEL;
 306              		.loc 1 241 0
 307 0030 0320A0E3 		mov	r2, #3
 308              	.LVL38:
 242:D:/Work/DeviceTester/amazon-freertos/demos/common/devmode_key_provisioning\aws_dev_mode_key_provisioning.c ****     xCertificateTemplate.xLabel.pValue = ( CK_VOID_PTR ) pucLabel;
 243:D:/Work/DeviceTester/amazon-freertos/demos/common/devmode_key_provisioning\aws_dev_mode_key_provisioning.c ****     xCertificateTemplate.xLabel.ulValueLen = sizeof( pucLabel );
 309              		.loc 1 243 0
 310 0034 20008DE5 		str	r0, [sp, #32]
 244:D:/Work/DeviceTester/amazon-freertos/demos/common/devmode_key_provisioning\aws_dev_mode_key_provisioning.c **** 
 245:D:/Work/DeviceTester/amazon-freertos/demos/common/devmode_key_provisioning\aws_dev_mode_key_provisioning.c ****     xResult = C_GetFunctionList( &pxFunctionList );
 311              		.loc 1 245 0
 312 0038 00008DE0 		add	r0, sp, r0
 236:D:/Work/DeviceTester/amazon-freertos/demos/common/devmode_key_provisioning\aws_dev_mode_key_provisioning.c ****     xCertificateTemplate.xObjectClass.ulValueLen = sizeof( xCertificateClass );
 313              		.loc 1 236 0
 314 003c 10D08DE5 		str	sp, [sp, #16]
 238:D:/Work/DeviceTester/amazon-freertos/demos/common/devmode_key_provisioning\aws_dev_mode_key_provisioning.c ****     xCertificateTemplate.xValue.pValue = ( CK_VOID_PTR ) pucCertificate;
 315              		.loc 1 238 0
 316 0040 24C08DE5 		str	ip, [sp, #36]
 239:D:/Work/DeviceTester/amazon-freertos/demos/common/devmode_key_provisioning\aws_dev_mode_key_provisioning.c ****     xCertificateTemplate.xValue.ulValueLen = ( CK_ULONG ) xCertificateLength;
 317              		.loc 1 239 0
 318 0044 28108DE5 		str	r1, [sp, #40]
 241:D:/Work/DeviceTester/amazon-freertos/demos/common/devmode_key_provisioning\aws_dev_mode_key_provisioning.c ****     xCertificateTemplate.xLabel.pValue = ( CK_VOID_PTR ) pucLabel;
 319              		.loc 1 241 0
 320 0048 18208DE5 		str	r2, [sp, #24]
 242:D:/Work/DeviceTester/amazon-freertos/demos/common/devmode_key_provisioning\aws_dev_mode_key_provisioning.c ****     xCertificateTemplate.xLabel.ulValueLen = sizeof( pucLabel );
 321              		.loc 1 242 0
 322 004c 1C308DE5 		str	r3, [sp, #28]
 323              		.loc 1 245 0
 324 0050 FEFFFFEB 		bl	C_GetFunctionList
 325              	.LVL39:
 246:D:/Work/DeviceTester/amazon-freertos/demos/common/devmode_key_provisioning\aws_dev_mode_key_provisioning.c **** 
 247:D:/Work/DeviceTester/amazon-freertos/demos/common/devmode_key_provisioning\aws_dev_mode_key_provisioning.c ****     if( xResult == CKR_OK )
 326              		.loc 1 247 0
 327 0054 004050E2 		subs	r4, r0, #0
 328 0058 2600001A 		bne	.L31
 248:D:/Work/DeviceTester/amazon-freertos/demos/common/devmode_key_provisioning\aws_dev_mode_key_provisioning.c ****     {
 249:D:/Work/DeviceTester/amazon-freertos/demos/common/devmode_key_provisioning\aws_dev_mode_key_provisioning.c ****         /* Convert the certificate to DER format if it was in PEM. */
 250:D:/Work/DeviceTester/amazon-freertos/demos/common/devmode_key_provisioning\aws_dev_mode_key_provisioning.c ****         /* The DER key should be about 3/4 the size of the PEM key, so mallocing the PEM key size i
 251:D:/Work/DeviceTester/amazon-freertos/demos/common/devmode_key_provisioning\aws_dev_mode_key_provisioning.c ****         pucDerObject = pvPortMalloc( xCertificateTemplate.xValue.ulValueLen );
 329              		.loc 1 251 0
 330 005c 2C009DE5 		ldr	r0, [sp, #44]
 331              	.LVL40:
 332 0060 FEFFFFEB 		bl	pvPortMalloc
 333              	.LVL41:
 252:D:/Work/DeviceTester/amazon-freertos/demos/common/devmode_key_provisioning\aws_dev_mode_key_provisioning.c ****         lConversionReturn = 0;
 253:D:/Work/DeviceTester/amazon-freertos/demos/common/devmode_key_provisioning\aws_dev_mode_key_provisioning.c ****         xDerLen = xCertificateTemplate.xValue.ulValueLen;
 334              		.loc 1 253 0
 335 0064 2C109DE5 		ldr	r1, [sp, #44]
 254:D:/Work/DeviceTester/amazon-freertos/demos/common/devmode_key_provisioning\aws_dev_mode_key_provisioning.c **** 
 255:D:/Work/DeviceTester/amazon-freertos/demos/common/devmode_key_provisioning\aws_dev_mode_key_provisioning.c ****         if( pucDerObject != NULL )
 336              		.loc 1 255 0
 337 0068 005050E2 		subs	r5, r0, #0
 253:D:/Work/DeviceTester/amazon-freertos/demos/common/devmode_key_provisioning\aws_dev_mode_key_provisioning.c **** 
 338              		.loc 1 253 0
 339 006c 08108DE5 		str	r1, [sp, #8]
 340              		.loc 1 255 0
 341 0070 0800000A 		beq	.L38
 256:D:/Work/DeviceTester/amazon-freertos/demos/common/devmode_key_provisioning\aws_dev_mode_key_provisioning.c ****         {
 257:D:/Work/DeviceTester/amazon-freertos/demos/common/devmode_key_provisioning\aws_dev_mode_key_provisioning.c ****             lConversionReturn = convert_pem_to_der( xCertificateTemplate.xValue.pValue,
 342              		.loc 1 257 0
 343 0074 08308DE2 		add	r3, sp, #8
 344 0078 0520A0E1 		mov	r2, r5
 345 007c 28009DE5 		ldr	r0, [sp, #40]
 346              	.LVL42:
 347 0080 FEFFFFEB 		bl	convert_pem_to_der
 348              	.LVL43:
 258:D:/Work/DeviceTester/amazon-freertos/demos/common/devmode_key_provisioning\aws_dev_mode_key_provisioning.c ****                                                     xCertificateTemplate.xValue.ulValueLen,
 259:D:/Work/DeviceTester/amazon-freertos/demos/common/devmode_key_provisioning\aws_dev_mode_key_provisioning.c ****                                                     pucDerObject,
 260:D:/Work/DeviceTester/amazon-freertos/demos/common/devmode_key_provisioning\aws_dev_mode_key_provisioning.c ****                                                     &xDerLen );
 261:D:/Work/DeviceTester/amazon-freertos/demos/common/devmode_key_provisioning\aws_dev_mode_key_provisioning.c ****         }
 262:D:/Work/DeviceTester/amazon-freertos/demos/common/devmode_key_provisioning\aws_dev_mode_key_provisioning.c ****         else
 263:D:/Work/DeviceTester/amazon-freertos/demos/common/devmode_key_provisioning\aws_dev_mode_key_provisioning.c ****         {
 264:D:/Work/DeviceTester/amazon-freertos/demos/common/devmode_key_provisioning\aws_dev_mode_key_provisioning.c ****             xResult = CKR_DEVICE_MEMORY;
 265:D:/Work/DeviceTester/amazon-freertos/demos/common/devmode_key_provisioning\aws_dev_mode_key_provisioning.c ****         }
 266:D:/Work/DeviceTester/amazon-freertos/demos/common/devmode_key_provisioning\aws_dev_mode_key_provisioning.c **** 
 267:D:/Work/DeviceTester/amazon-freertos/demos/common/devmode_key_provisioning\aws_dev_mode_key_provisioning.c ****         if( lConversionReturn == 0 )
 349              		.loc 1 267 0
 350 0084 001050E2 		subs	r1, r0, #0
 351 0088 0300000A 		beq	.L33
 268:D:/Work/DeviceTester/amazon-freertos/demos/common/devmode_key_provisioning\aws_dev_mode_key_provisioning.c ****         {
 269:D:/Work/DeviceTester/amazon-freertos/demos/common/devmode_key_provisioning\aws_dev_mode_key_provisioning.c ****             /* Set the template pointers to refer to the DER converted objects. */
 270:D:/Work/DeviceTester/amazon-freertos/demos/common/devmode_key_provisioning\aws_dev_mode_key_provisioning.c ****             xCertificateTemplate.xValue.pValue = pucDerObject;
 271:D:/Work/DeviceTester/amazon-freertos/demos/common/devmode_key_provisioning\aws_dev_mode_key_provisioning.c ****             xCertificateTemplate.xValue.ulValueLen = xDerLen;
 272:D:/Work/DeviceTester/amazon-freertos/demos/common/devmode_key_provisioning\aws_dev_mode_key_provisioning.c ****         }
 273:D:/Work/DeviceTester/amazon-freertos/demos/common/devmode_key_provisioning\aws_dev_mode_key_provisioning.c ****         else
 274:D:/Work/DeviceTester/amazon-freertos/demos/common/devmode_key_provisioning\aws_dev_mode_key_provisioning.c ****         {
 275:D:/Work/DeviceTester/amazon-freertos/demos/common/devmode_key_provisioning\aws_dev_mode_key_provisioning.c ****             configPRINTF( ( "ERROR: Failed to provision certificate %d \r\n", lConversionReturn ) )
 352              		.loc 1 275 0
 353 008c 70009FE5 		ldr	r0, .L49
 354              	.LVL44:
 355 0090 FEFFFFEB 		bl	vLoggingPrintf
 356              	.LVL45:
 357 0094 050000EA 		b	.L35
 358              	.LVL46:
 359              	.L38:
 264:D:/Work/DeviceTester/amazon-freertos/demos/common/devmode_key_provisioning\aws_dev_mode_key_provisioning.c ****         }
 360              		.loc 1 264 0
 361 0098 3140A0E3 		mov	r4, #49
 362              	.LVL47:
 363              	.L33:
 271:D:/Work/DeviceTester/amazon-freertos/demos/common/devmode_key_provisioning\aws_dev_mode_key_provisioning.c ****         }
 364              		.loc 1 271 0
 365 009c 08309DE5 		ldr	r3, [sp, #8]
 276:D:/Work/DeviceTester/amazon-freertos/demos/common/devmode_key_provisioning\aws_dev_mode_key_provisioning.c ****         }
 277:D:/Work/DeviceTester/amazon-freertos/demos/common/devmode_key_provisioning\aws_dev_mode_key_provisioning.c **** 
 278:D:/Work/DeviceTester/amazon-freertos/demos/common/devmode_key_provisioning\aws_dev_mode_key_provisioning.c ****         /* Create an object using the encoded client certificate. */
 279:D:/Work/DeviceTester/amazon-freertos/demos/common/devmode_key_provisioning\aws_dev_mode_key_provisioning.c ****         if( CKR_OK == xResult )
 366              		.loc 1 279 0
 367 00a0 000054E3 		cmp	r4, #0
 270:D:/Work/DeviceTester/amazon-freertos/demos/common/devmode_key_provisioning\aws_dev_mode_key_provisioning.c ****             xCertificateTemplate.xValue.ulValueLen = xDerLen;
 368              		.loc 1 270 0
 369 00a4 28508DE5 		str	r5, [sp, #40]
 271:D:/Work/DeviceTester/amazon-freertos/demos/common/devmode_key_provisioning\aws_dev_mode_key_provisioning.c ****         }
 370              		.loc 1 271 0
 371 00a8 2C308DE5 		str	r3, [sp, #44]
 372              		.loc 1 279 0
 373 00ac 0A00001A 		bne	.L36
 374              	.LVL48:
 375              	.L35:
 280:D:/Work/DeviceTester/amazon-freertos/demos/common/devmode_key_provisioning\aws_dev_mode_key_provisioning.c ****         {
 281:D:/Work/DeviceTester/amazon-freertos/demos/common/devmode_key_provisioning\aws_dev_mode_key_provisioning.c ****             configPRINTF( ( "Write certificate...\r\n" ) );
 376              		.loc 1 281 0
 377 00b0 50009FE5 		ldr	r0, .L49+4
 378 00b4 FEFFFFEB 		bl	vLoggingPrintf
 379              	.LVL49:
 282:D:/Work/DeviceTester/amazon-freertos/demos/common/devmode_key_provisioning\aws_dev_mode_key_provisioning.c **** 
 283:D:/Work/DeviceTester/amazon-freertos/demos/common/devmode_key_provisioning\aws_dev_mode_key_provisioning.c ****             xResult = pxFunctionList->C_CreateObject( xSession,
 380              		.loc 1 283 0
 381 00b8 04309DE5 		ldr	r3, [sp, #4]
 382 00bc 0320A0E3 		mov	r2, #3
 383 00c0 0C108DE2 		add	r1, sp, #12
 384 00c4 0600A0E1 		mov	r0, r6
 385 00c8 544093E5 		ldr	r4, [r3, #84]
 386 00cc 40309DE5 		ldr	r3, [sp, #64]
 387 00d0 34FF2FE1 		blx	r4
 388              	.LVL50:
 284:D:/Work/DeviceTester/amazon-freertos/demos/common/devmode_key_provisioning\aws_dev_mode_key_provisioning.c ****                                                       ( CK_ATTRIBUTE_PTR ) &xCertificateTemplate,
 285:D:/Work/DeviceTester/amazon-freertos/demos/common/devmode_key_provisioning\aws_dev_mode_key_provisioning.c ****                                                       sizeof( xCertificateTemplate ) / sizeof( CK_A
 286:D:/Work/DeviceTester/amazon-freertos/demos/common/devmode_key_provisioning\aws_dev_mode_key_provisioning.c ****                                                       pxObjectHandle );
 287:D:/Work/DeviceTester/amazon-freertos/demos/common/devmode_key_provisioning\aws_dev_mode_key_provisioning.c ****         }
 288:D:/Work/DeviceTester/amazon-freertos/demos/common/devmode_key_provisioning\aws_dev_mode_key_provisioning.c **** 
 289:D:/Work/DeviceTester/amazon-freertos/demos/common/devmode_key_provisioning\aws_dev_mode_key_provisioning.c ****         if( xResult != CKR_OK )
 389              		.loc 1 289 0
 390 00d4 004050E2 		subs	r4, r0, #0
 391 00d8 0200000A 		beq	.L37
 392              	.LVL51:
 393              	.L36:
 290:D:/Work/DeviceTester/amazon-freertos/demos/common/devmode_key_provisioning\aws_dev_mode_key_provisioning.c ****         {
 291:D:/Work/DeviceTester/amazon-freertos/demos/common/devmode_key_provisioning\aws_dev_mode_key_provisioning.c ****             configPRINTF( ( "ERROR: Failed to provision certificate %d \r\n", xResult ) );
 394              		.loc 1 291 0
 395 00dc 0410A0E1 		mov	r1, r4
 396 00e0 1C009FE5 		ldr	r0, .L49
 397 00e4 FEFFFFEB 		bl	vLoggingPrintf
 398              	.LVL52:
 399              	.L37:
 292:D:/Work/DeviceTester/amazon-freertos/demos/common/devmode_key_provisioning\aws_dev_mode_key_provisioning.c ****         }
 293:D:/Work/DeviceTester/amazon-freertos/demos/common/devmode_key_provisioning\aws_dev_mode_key_provisioning.c **** 
 294:D:/Work/DeviceTester/amazon-freertos/demos/common/devmode_key_provisioning\aws_dev_mode_key_provisioning.c ****         if( pucDerObject != NULL )
 400              		.loc 1 294 0
 401 00e8 000055E3 		cmp	r5, #0
 402 00ec 0100000A 		beq	.L31
 295:D:/Work/DeviceTester/amazon-freertos/demos/common/devmode_key_provisioning\aws_dev_mode_key_provisioning.c ****         {
 296:D:/Work/DeviceTester/amazon-freertos/demos/common/devmode_key_provisioning\aws_dev_mode_key_provisioning.c ****             vPortFree( pucDerObject );
 403              		.loc 1 296 0
 404 00f0 0500A0E1 		mov	r0, r5
 405 00f4 FEFFFFEB 		bl	vPortFree
 406              	.LVL53:
 407              	.L31:
 297:D:/Work/DeviceTester/amazon-freertos/demos/common/devmode_key_provisioning\aws_dev_mode_key_provisioning.c ****         }
 298:D:/Work/DeviceTester/amazon-freertos/demos/common/devmode_key_provisioning\aws_dev_mode_key_provisioning.c ****     }
 299:D:/Work/DeviceTester/amazon-freertos/demos/common/devmode_key_provisioning\aws_dev_mode_key_provisioning.c **** 
 300:D:/Work/DeviceTester/amazon-freertos/demos/common/devmode_key_provisioning\aws_dev_mode_key_provisioning.c ****     return xResult;
 301:D:/Work/DeviceTester/amazon-freertos/demos/common/devmode_key_provisioning\aws_dev_mode_key_provisioning.c **** }
 408              		.loc 1 301 0
 409 00f8 0400A0E1 		mov	r0, r4
 410 00fc 30D08DE2 		add	sp, sp, #48
 411              		.cfi_def_cfa_offset 16
 412              		@ sp needed
 413 0100 7080BDE8 		pop	{r4, r5, r6, pc}
 414              	.LVL54:
 415              	.L50:
 416              		.align	2
 417              	.L49:
 418 0104 00000000 		.word	.LC2
 419 0108 2D000000 		.word	.LC3
 420              		.cfi_endproc
 421              	.LFE3:
 423              		.section	.text.xProvisionDevice,"ax",%progbits
 424              		.align	2
 425              		.global	xProvisionDevice
 426              		.syntax unified
 427              		.arm
 428              		.fpu neon
 430              	xProvisionDevice:
 431              	.LFB4:
 302:D:/Work/DeviceTester/amazon-freertos/demos/common/devmode_key_provisioning\aws_dev_mode_key_provisioning.c **** 
 303:D:/Work/DeviceTester/amazon-freertos/demos/common/devmode_key_provisioning\aws_dev_mode_key_provisioning.c **** /*-----------------------------------------------------------*/
 304:D:/Work/DeviceTester/amazon-freertos/demos/common/devmode_key_provisioning\aws_dev_mode_key_provisioning.c **** 
 305:D:/Work/DeviceTester/amazon-freertos/demos/common/devmode_key_provisioning\aws_dev_mode_key_provisioning.c **** CK_RV xProvisionDevice( CK_SESSION_HANDLE xSession,
 306:D:/Work/DeviceTester/amazon-freertos/demos/common/devmode_key_provisioning\aws_dev_mode_key_provisioning.c ****                         ProvisioningParams_t * pxParams )
 307:D:/Work/DeviceTester/amazon-freertos/demos/common/devmode_key_provisioning\aws_dev_mode_key_provisioning.c **** {
 432              		.loc 1 307 0
 433              		.cfi_startproc
 434              		@ args = 0, pretend = 0, frame = 72
 435              		@ frame_needed = 0, uses_anonymous_args = 0
 436              	.LVL55:
 308:D:/Work/DeviceTester/amazon-freertos/demos/common/devmode_key_provisioning\aws_dev_mode_key_provisioning.c ****     CK_RV xResult;
 309:D:/Work/DeviceTester/amazon-freertos/demos/common/devmode_key_provisioning\aws_dev_mode_key_provisioning.c ****     CK_OBJECT_CLASS xPrivateKeyClass = CKO_PRIVATE_KEY;
 310:D:/Work/DeviceTester/amazon-freertos/demos/common/devmode_key_provisioning\aws_dev_mode_key_provisioning.c ****     CK_KEY_TYPE xPrivateKeyType = ( CK_KEY_TYPE ) pxParams->ulClientPrivateKeyType;
 437              		.loc 1 310 0
 438 0000 003091E5 		ldr	r3, [r1]
 307:D:/Work/DeviceTester/amazon-freertos/demos/common/devmode_key_provisioning\aws_dev_mode_key_provisioning.c ****     CK_RV xResult;
 439              		.loc 1 307 0
 440 0004 F0402DE9 		push	{r4, r5, r6, r7, lr}
 441              		.cfi_def_cfa_offset 20
 442              		.cfi_offset 4, -20
 443              		.cfi_offset 5, -16
 444              		.cfi_offset 6, -12
 445              		.cfi_offset 7, -8
 446              		.cfi_offset 14, -4
 447 0008 54D04DE2 		sub	sp, sp, #84
 448              		.cfi_def_cfa_offset 104
 309:D:/Work/DeviceTester/amazon-freertos/demos/common/devmode_key_provisioning\aws_dev_mode_key_provisioning.c ****     CK_KEY_TYPE xPrivateKeyType = ( CK_KEY_TYPE ) pxParams->ulClientPrivateKeyType;
 449              		.loc 1 309 0
 450 000c 0370A0E3 		mov	r7, #3
 311:D:/Work/DeviceTester/amazon-freertos/demos/common/devmode_key_provisioning\aws_dev_mode_key_provisioning.c ****     CK_FUNCTION_LIST_PTR pxFunctionList;
 312:D:/Work/DeviceTester/amazon-freertos/demos/common/devmode_key_provisioning\aws_dev_mode_key_provisioning.c ****     CK_OBJECT_HANDLE xObject = 0;
 451              		.loc 1 312 0
 452 0010 0050A0E3 		mov	r5, #0
 307:D:/Work/DeviceTester/amazon-freertos/demos/common/devmode_key_provisioning\aws_dev_mode_key_provisioning.c ****     CK_RV xResult;
 453              		.loc 1 307 0
 454 0014 0060A0E1 		mov	r6, r0
 313:D:/Work/DeviceTester/amazon-freertos/demos/common/devmode_key_provisioning\aws_dev_mode_key_provisioning.c ****     uint8_t * pucDerObject = NULL;
 314:D:/Work/DeviceTester/amazon-freertos/demos/common/devmode_key_provisioning\aws_dev_mode_key_provisioning.c ****     int32_t lConversionReturn = 0;
 315:D:/Work/DeviceTester/amazon-freertos/demos/common/devmode_key_provisioning\aws_dev_mode_key_provisioning.c ****     size_t xDerLen = 0;
 316:D:/Work/DeviceTester/amazon-freertos/demos/common/devmode_key_provisioning\aws_dev_mode_key_provisioning.c **** 
 317:D:/Work/DeviceTester/amazon-freertos/demos/common/devmode_key_provisioning\aws_dev_mode_key_provisioning.c ****     PKCS11_KeyTemplate_t xPrivateKeyTemplate;
 318:D:/Work/DeviceTester/amazon-freertos/demos/common/devmode_key_provisioning\aws_dev_mode_key_provisioning.c **** 
 319:D:/Work/DeviceTester/amazon-freertos/demos/common/devmode_key_provisioning\aws_dev_mode_key_provisioning.c ****     xResult = C_GetFunctionList( &pxFunctionList );
 455              		.loc 1 319 0
 456 0018 14008DE2 		add	r0, sp, #20
 457              	.LVL56:
 307:D:/Work/DeviceTester/amazon-freertos/demos/common/devmode_key_provisioning\aws_dev_mode_key_provisioning.c ****     CK_RV xResult;
 458              		.loc 1 307 0
 459 001c 0140A0E1 		mov	r4, r1
 309:D:/Work/DeviceTester/amazon-freertos/demos/common/devmode_key_provisioning\aws_dev_mode_key_provisioning.c ****     CK_KEY_TYPE xPrivateKeyType = ( CK_KEY_TYPE ) pxParams->ulClientPrivateKeyType;
 460              		.loc 1 309 0
 461 0020 0C708DE5 		str	r7, [sp, #12]
 310:D:/Work/DeviceTester/amazon-freertos/demos/common/devmode_key_provisioning\aws_dev_mode_key_provisioning.c ****     CK_FUNCTION_LIST_PTR pxFunctionList;
 462              		.loc 1 310 0
 463 0024 10308DE5 		str	r3, [sp, #16]
 312:D:/Work/DeviceTester/amazon-freertos/demos/common/devmode_key_provisioning\aws_dev_mode_key_provisioning.c ****     uint8_t * pucDerObject = NULL;
 464              		.loc 1 312 0
 465 0028 18508DE5 		str	r5, [sp, #24]
 466              	.LVL57:
 315:D:/Work/DeviceTester/amazon-freertos/demos/common/devmode_key_provisioning\aws_dev_mode_key_provisioning.c **** 
 467              		.loc 1 315 0
 468 002c 1C508DE5 		str	r5, [sp, #28]
 469              		.loc 1 319 0
 470 0030 FEFFFFEB 		bl	C_GetFunctionList
 471              	.LVL58:
 320:D:/Work/DeviceTester/amazon-freertos/demos/common/devmode_key_provisioning\aws_dev_mode_key_provisioning.c **** 
 321:D:/Work/DeviceTester/amazon-freertos/demos/common/devmode_key_provisioning\aws_dev_mode_key_provisioning.c ****     /* Initialize the device private key template. */
 322:D:/Work/DeviceTester/amazon-freertos/demos/common/devmode_key_provisioning\aws_dev_mode_key_provisioning.c ****     xPrivateKeyTemplate.xObjectClass.type = CKA_CLASS;
 323:D:/Work/DeviceTester/amazon-freertos/demos/common/devmode_key_provisioning\aws_dev_mode_key_provisioning.c ****     xPrivateKeyTemplate.xObjectClass.pValue = &xPrivateKeyClass;
 472              		.loc 1 323 0
 473 0034 0C308DE2 		add	r3, sp, #12
 324:D:/Work/DeviceTester/amazon-freertos/demos/common/devmode_key_provisioning\aws_dev_mode_key_provisioning.c ****     xPrivateKeyTemplate.xObjectClass.ulValueLen = sizeof( xPrivateKeyClass );
 325:D:/Work/DeviceTester/amazon-freertos/demos/common/devmode_key_provisioning\aws_dev_mode_key_provisioning.c ****     xPrivateKeyTemplate.xKeyType.type = CKA_KEY_TYPE;
 474              		.loc 1 325 0
 475 0038 012CA0E3 		mov	r2, #256
 323:D:/Work/DeviceTester/amazon-freertos/demos/common/devmode_key_provisioning\aws_dev_mode_key_provisioning.c ****     xPrivateKeyTemplate.xObjectClass.ulValueLen = sizeof( xPrivateKeyClass );
 476              		.loc 1 323 0
 477 003c 24308DE5 		str	r3, [sp, #36]
 324:D:/Work/DeviceTester/amazon-freertos/demos/common/devmode_key_provisioning\aws_dev_mode_key_provisioning.c ****     xPrivateKeyTemplate.xObjectClass.ulValueLen = sizeof( xPrivateKeyClass );
 478              		.loc 1 324 0
 479 0040 0430A0E3 		mov	r3, #4
 480 0044 28308DE5 		str	r3, [sp, #40]
 326:D:/Work/DeviceTester/amazon-freertos/demos/common/devmode_key_provisioning\aws_dev_mode_key_provisioning.c ****     xPrivateKeyTemplate.xKeyType.pValue = &xPrivateKeyType;
 327:D:/Work/DeviceTester/amazon-freertos/demos/common/devmode_key_provisioning\aws_dev_mode_key_provisioning.c ****     xPrivateKeyTemplate.xKeyType.ulValueLen = sizeof( xPrivateKeyType );
 328:D:/Work/DeviceTester/amazon-freertos/demos/common/devmode_key_provisioning\aws_dev_mode_key_provisioning.c ****     xPrivateKeyTemplate.xValue.type = CKA_VALUE;
 329:D:/Work/DeviceTester/amazon-freertos/demos/common/devmode_key_provisioning\aws_dev_mode_key_provisioning.c ****     xPrivateKeyTemplate.xValue.pValue = ( CK_VOID_PTR ) pxParams->pcClientPrivateKey;
 330:D:/Work/DeviceTester/amazon-freertos/demos/common/devmode_key_provisioning\aws_dev_mode_key_provisioning.c ****     xPrivateKeyTemplate.xValue.ulValueLen = ( CK_ULONG ) pxParams->ulClientPrivateKeyLength;
 331:D:/Work/DeviceTester/amazon-freertos/demos/common/devmode_key_provisioning\aws_dev_mode_key_provisioning.c ****     xPrivateKeyTemplate.xLabel.type = CKA_LABEL;
 332:D:/Work/DeviceTester/amazon-freertos/demos/common/devmode_key_provisioning\aws_dev_mode_key_provisioning.c ****     xPrivateKeyTemplate.xLabel.pValue = ( CK_VOID_PTR ) pkcs11configLABEL_DEVICE_PRIVATE_KEY_FOR_TL
 333:D:/Work/DeviceTester/amazon-freertos/demos/common/devmode_key_provisioning\aws_dev_mode_key_provisioning.c ****     xPrivateKeyTemplate.xLabel.ulValueLen = ( CK_ULONG ) sizeof( pkcs11configLABEL_DEVICE_PRIVATE_K
 334:D:/Work/DeviceTester/amazon-freertos/demos/common/devmode_key_provisioning\aws_dev_mode_key_provisioning.c **** 
 335:D:/Work/DeviceTester/amazon-freertos/demos/common/devmode_key_provisioning\aws_dev_mode_key_provisioning.c **** 
 336:D:/Work/DeviceTester/amazon-freertos/demos/common/devmode_key_provisioning\aws_dev_mode_key_provisioning.c ****     xResult = xProvisionCertificate( xSession,
 481              		.loc 1 336 0
 482 0048 0600A0E1 		mov	r0, r6
 327:D:/Work/DeviceTester/amazon-freertos/demos/common/devmode_key_provisioning\aws_dev_mode_key_provisioning.c ****     xPrivateKeyTemplate.xValue.type = CKA_VALUE;
 483              		.loc 1 327 0
 484 004c 34308DE5 		str	r3, [sp, #52]
 328:D:/Work/DeviceTester/amazon-freertos/demos/common/devmode_key_provisioning\aws_dev_mode_key_provisioning.c ****     xPrivateKeyTemplate.xValue.pValue = ( CK_VOID_PTR ) pxParams->pcClientPrivateKey;
 485              		.loc 1 328 0
 486 0050 1130A0E3 		mov	r3, #17
 487 0054 44308DE5 		str	r3, [sp, #68]
 329:D:/Work/DeviceTester/amazon-freertos/demos/common/devmode_key_provisioning\aws_dev_mode_key_provisioning.c ****     xPrivateKeyTemplate.xValue.ulValueLen = ( CK_ULONG ) pxParams->ulClientPrivateKeyLength;
 488              		.loc 1 329 0
 489 0058 043094E5 		ldr	r3, [r4, #4]
 325:D:/Work/DeviceTester/amazon-freertos/demos/common/devmode_key_provisioning\aws_dev_mode_key_provisioning.c ****     xPrivateKeyTemplate.xKeyType.pValue = &xPrivateKeyType;
 490              		.loc 1 325 0
 491 005c 2C208DE5 		str	r2, [sp, #44]
 326:D:/Work/DeviceTester/amazon-freertos/demos/common/devmode_key_provisioning\aws_dev_mode_key_provisioning.c ****     xPrivateKeyTemplate.xKeyType.ulValueLen = sizeof( xPrivateKeyType );
 492              		.loc 1 326 0
 493 0060 10208DE2 		add	r2, sp, #16
 331:D:/Work/DeviceTester/amazon-freertos/demos/common/devmode_key_provisioning\aws_dev_mode_key_provisioning.c ****     xPrivateKeyTemplate.xLabel.pValue = ( CK_VOID_PTR ) pkcs11configLABEL_DEVICE_PRIVATE_KEY_FOR_TL
 494              		.loc 1 331 0
 495 0064 38708DE5 		str	r7, [sp, #56]
 496              		.loc 1 336 0
 497 0068 18708DE2 		add	r7, sp, #24
 329:D:/Work/DeviceTester/amazon-freertos/demos/common/devmode_key_provisioning\aws_dev_mode_key_provisioning.c ****     xPrivateKeyTemplate.xValue.ulValueLen = ( CK_ULONG ) pxParams->ulClientPrivateKeyLength;
 498              		.loc 1 329 0
 499 006c 48308DE5 		str	r3, [sp, #72]
 330:D:/Work/DeviceTester/amazon-freertos/demos/common/devmode_key_provisioning\aws_dev_mode_key_provisioning.c ****     xPrivateKeyTemplate.xLabel.type = CKA_LABEL;
 500              		.loc 1 330 0
 501 0070 083094E5 		ldr	r3, [r4, #8]
 326:D:/Work/DeviceTester/amazon-freertos/demos/common/devmode_key_provisioning\aws_dev_mode_key_provisioning.c ****     xPrivateKeyTemplate.xKeyType.ulValueLen = sizeof( xPrivateKeyType );
 502              		.loc 1 326 0
 503 0074 30208DE5 		str	r2, [sp, #48]
 504              		.loc 1 336 0
 505 0078 00708DE5 		str	r7, [sp]
 330:D:/Work/DeviceTester/amazon-freertos/demos/common/devmode_key_provisioning\aws_dev_mode_key_provisioning.c ****     xPrivateKeyTemplate.xLabel.type = CKA_LABEL;
 506              		.loc 1 330 0
 507 007c 4C308DE5 		str	r3, [sp, #76]
 332:D:/Work/DeviceTester/amazon-freertos/demos/common/devmode_key_provisioning\aws_dev_mode_key_provisioning.c ****     xPrivateKeyTemplate.xLabel.ulValueLen = ( CK_ULONG ) sizeof( pkcs11configLABEL_DEVICE_PRIVATE_K
 508              		.loc 1 332 0
 509 0080 D8309FE5 		ldr	r3, .L72
 510              		.loc 1 336 0
 511 0084 102094E5 		ldr	r2, [r4, #16]
 512 0088 0C1094E5 		ldr	r1, [r4, #12]
 332:D:/Work/DeviceTester/amazon-freertos/demos/common/devmode_key_provisioning\aws_dev_mode_key_provisioning.c ****     xPrivateKeyTemplate.xLabel.ulValueLen = ( CK_ULONG ) sizeof( pkcs11configLABEL_DEVICE_PRIVATE_K
 513              		.loc 1 332 0
 514 008c 3C308DE5 		str	r3, [sp, #60]
 333:D:/Work/DeviceTester/amazon-freertos/demos/common/devmode_key_provisioning\aws_dev_mode_key_provisioning.c **** 
 515              		.loc 1 333 0
 516 0090 1430A0E3 		mov	r3, #20
 517 0094 40308DE5 		str	r3, [sp, #64]
 518              		.loc 1 336 0
 519 0098 C4309FE5 		ldr	r3, .L72+4
 322:D:/Work/DeviceTester/amazon-freertos/demos/common/devmode_key_provisioning\aws_dev_mode_key_provisioning.c ****     xPrivateKeyTemplate.xObjectClass.pValue = &xPrivateKeyClass;
 520              		.loc 1 322 0
 521 009c 20508DE5 		str	r5, [sp, #32]
 522              		.loc 1 336 0
 523 00a0 FEFFFFEB 		bl	xProvisionCertificate
 524              	.LVL59:
 337:D:/Work/DeviceTester/amazon-freertos/demos/common/devmode_key_provisioning\aws_dev_mode_key_provisioning.c ****                                      pxParams->pcClientCertificate,
 338:D:/Work/DeviceTester/amazon-freertos/demos/common/devmode_key_provisioning\aws_dev_mode_key_provisioning.c ****                                      pxParams->ulClientCertificateLength,
 339:D:/Work/DeviceTester/amazon-freertos/demos/common/devmode_key_provisioning\aws_dev_mode_key_provisioning.c ****                                      ( uint8_t * ) pkcs11configLABEL_DEVICE_CERTIFICATE_FOR_TLS,
 340:D:/Work/DeviceTester/amazon-freertos/demos/common/devmode_key_provisioning\aws_dev_mode_key_provisioning.c ****                                      &xObject );
 341:D:/Work/DeviceTester/amazon-freertos/demos/common/devmode_key_provisioning\aws_dev_mode_key_provisioning.c **** 
 342:D:/Work/DeviceTester/amazon-freertos/demos/common/devmode_key_provisioning\aws_dev_mode_key_provisioning.c ****     /* Create an object using the encoded private key. */
 343:D:/Work/DeviceTester/amazon-freertos/demos/common/devmode_key_provisioning\aws_dev_mode_key_provisioning.c ****     if( CKR_OK == xResult )
 525              		.loc 1 343 0
 526 00a4 004050E2 		subs	r4, r0, #0
 527              	.LVL60:
 528 00a8 1D00001A 		bne	.L52
 344:D:/Work/DeviceTester/amazon-freertos/demos/common/devmode_key_provisioning\aws_dev_mode_key_provisioning.c ****     {
 345:D:/Work/DeviceTester/amazon-freertos/demos/common/devmode_key_provisioning\aws_dev_mode_key_provisioning.c ****         /* Convert the private to DER format if it was in PEM. */
 346:D:/Work/DeviceTester/amazon-freertos/demos/common/devmode_key_provisioning\aws_dev_mode_key_provisioning.c ****         /* The DER key should be about 3/4 the size of the PEM key, so mallocing the PEM key size i
 347:D:/Work/DeviceTester/amazon-freertos/demos/common/devmode_key_provisioning\aws_dev_mode_key_provisioning.c ****         pucDerObject = pvPortMalloc( xPrivateKeyTemplate.xValue.ulValueLen );
 529              		.loc 1 347 0
 530 00ac 4C009DE5 		ldr	r0, [sp, #76]
 531              	.LVL61:
 532 00b0 FEFFFFEB 		bl	pvPortMalloc
 533              	.LVL62:
 348:D:/Work/DeviceTester/amazon-freertos/demos/common/devmode_key_provisioning\aws_dev_mode_key_provisioning.c ****         lConversionReturn = 0;
 349:D:/Work/DeviceTester/amazon-freertos/demos/common/devmode_key_provisioning\aws_dev_mode_key_provisioning.c ****         xDerLen = xPrivateKeyTemplate.xValue.ulValueLen;
 534              		.loc 1 349 0
 535 00b4 4C109DE5 		ldr	r1, [sp, #76]
 350:D:/Work/DeviceTester/amazon-freertos/demos/common/devmode_key_provisioning\aws_dev_mode_key_provisioning.c **** 
 351:D:/Work/DeviceTester/amazon-freertos/demos/common/devmode_key_provisioning\aws_dev_mode_key_provisioning.c ****         if( pucDerObject != NULL )
 536              		.loc 1 351 0
 537 00b8 005050E2 		subs	r5, r0, #0
 349:D:/Work/DeviceTester/amazon-freertos/demos/common/devmode_key_provisioning\aws_dev_mode_key_provisioning.c **** 
 538              		.loc 1 349 0
 539 00bc 1C108DE5 		str	r1, [sp, #28]
 540              		.loc 1 351 0
 541 00c0 1D00000A 		beq	.L58
 352:D:/Work/DeviceTester/amazon-freertos/demos/common/devmode_key_provisioning\aws_dev_mode_key_provisioning.c ****         {
 353:D:/Work/DeviceTester/amazon-freertos/demos/common/devmode_key_provisioning\aws_dev_mode_key_provisioning.c ****             lConversionReturn = convert_pem_to_der( xPrivateKeyTemplate.xValue.pValue,
 542              		.loc 1 353 0
 543 00c4 1C308DE2 		add	r3, sp, #28
 544 00c8 0520A0E1 		mov	r2, r5
 545 00cc 48009DE5 		ldr	r0, [sp, #72]
 546              	.LVL63:
 547 00d0 FEFFFFEB 		bl	convert_pem_to_der
 548              	.LVL64:
 354:D:/Work/DeviceTester/amazon-freertos/demos/common/devmode_key_provisioning\aws_dev_mode_key_provisioning.c ****                                                     xPrivateKeyTemplate.xValue.ulValueLen,
 355:D:/Work/DeviceTester/amazon-freertos/demos/common/devmode_key_provisioning\aws_dev_mode_key_provisioning.c ****                                                     pucDerObject,
 356:D:/Work/DeviceTester/amazon-freertos/demos/common/devmode_key_provisioning\aws_dev_mode_key_provisioning.c ****                                                     &xDerLen );
 357:D:/Work/DeviceTester/amazon-freertos/demos/common/devmode_key_provisioning\aws_dev_mode_key_provisioning.c **** 
 358:D:/Work/DeviceTester/amazon-freertos/demos/common/devmode_key_provisioning\aws_dev_mode_key_provisioning.c ****             if( lConversionReturn != 0 )
 549              		.loc 1 358 0
 550 00d4 001050E2 		subs	r1, r0, #0
 551 00d8 1800000A 		beq	.L53
 359:D:/Work/DeviceTester/amazon-freertos/demos/common/devmode_key_provisioning\aws_dev_mode_key_provisioning.c ****             {
 360:D:/Work/DeviceTester/amazon-freertos/demos/common/devmode_key_provisioning\aws_dev_mode_key_provisioning.c ****                 configPRINTF( ( "ERROR: Failed to parse private key %d \r\n", lConversionReturn ) )
 552              		.loc 1 360 0
 553 00dc 84009FE5 		ldr	r0, .L72+8
 554              	.LVL65:
 555 00e0 FEFFFFEB 		bl	vLoggingPrintf
 556              	.LVL66:
 557              	.L56:
 361:D:/Work/DeviceTester/amazon-freertos/demos/common/devmode_key_provisioning\aws_dev_mode_key_provisioning.c ****             }
 362:D:/Work/DeviceTester/amazon-freertos/demos/common/devmode_key_provisioning\aws_dev_mode_key_provisioning.c ****         }
 363:D:/Work/DeviceTester/amazon-freertos/demos/common/devmode_key_provisioning\aws_dev_mode_key_provisioning.c ****         else
 364:D:/Work/DeviceTester/amazon-freertos/demos/common/devmode_key_provisioning\aws_dev_mode_key_provisioning.c ****         {
 365:D:/Work/DeviceTester/amazon-freertos/demos/common/devmode_key_provisioning\aws_dev_mode_key_provisioning.c ****             xResult = CKR_DEVICE_MEMORY;
 366:D:/Work/DeviceTester/amazon-freertos/demos/common/devmode_key_provisioning\aws_dev_mode_key_provisioning.c ****         }
 367:D:/Work/DeviceTester/amazon-freertos/demos/common/devmode_key_provisioning\aws_dev_mode_key_provisioning.c **** 
 368:D:/Work/DeviceTester/amazon-freertos/demos/common/devmode_key_provisioning\aws_dev_mode_key_provisioning.c ****         if( lConversionReturn == 0 )
 369:D:/Work/DeviceTester/amazon-freertos/demos/common/devmode_key_provisioning\aws_dev_mode_key_provisioning.c ****         {
 370:D:/Work/DeviceTester/amazon-freertos/demos/common/devmode_key_provisioning\aws_dev_mode_key_provisioning.c ****             /* Set the template pointers to refer to the DER converted objects. */
 371:D:/Work/DeviceTester/amazon-freertos/demos/common/devmode_key_provisioning\aws_dev_mode_key_provisioning.c ****             xPrivateKeyTemplate.xValue.pValue = pucDerObject;
 372:D:/Work/DeviceTester/amazon-freertos/demos/common/devmode_key_provisioning\aws_dev_mode_key_provisioning.c ****             xPrivateKeyTemplate.xValue.ulValueLen = xDerLen;
 373:D:/Work/DeviceTester/amazon-freertos/demos/common/devmode_key_provisioning\aws_dev_mode_key_provisioning.c ****         }
 374:D:/Work/DeviceTester/amazon-freertos/demos/common/devmode_key_provisioning\aws_dev_mode_key_provisioning.c **** 
 375:D:/Work/DeviceTester/amazon-freertos/demos/common/devmode_key_provisioning\aws_dev_mode_key_provisioning.c ****         if( xResult == CKR_OK )
 376:D:/Work/DeviceTester/amazon-freertos/demos/common/devmode_key_provisioning\aws_dev_mode_key_provisioning.c ****         {
 377:D:/Work/DeviceTester/amazon-freertos/demos/common/devmode_key_provisioning\aws_dev_mode_key_provisioning.c ****             configPRINTF( ( "Write device private key...\r\n" ) );
 558              		.loc 1 377 0
 559 00e4 80009FE5 		ldr	r0, .L72+12
 560 00e8 FEFFFFEB 		bl	vLoggingPrintf
 561              	.LVL67:
 378:D:/Work/DeviceTester/amazon-freertos/demos/common/devmode_key_provisioning\aws_dev_mode_key_provisioning.c **** 
 379:D:/Work/DeviceTester/amazon-freertos/demos/common/devmode_key_provisioning\aws_dev_mode_key_provisioning.c ****             xResult = pxFunctionList->C_CreateObject( xSession,
 562              		.loc 1 379 0
 563 00ec 14309DE5 		ldr	r3, [sp, #20]
 564 00f0 0420A0E3 		mov	r2, #4
 565 00f4 20108DE2 		add	r1, sp, #32
 566 00f8 0600A0E1 		mov	r0, r6
 567 00fc 544093E5 		ldr	r4, [r3, #84]
 568 0100 0730A0E1 		mov	r3, r7
 569 0104 34FF2FE1 		blx	r4
 570              	.LVL68:
 380:D:/Work/DeviceTester/amazon-freertos/demos/common/devmode_key_provisioning\aws_dev_mode_key_provisioning.c ****                                                       ( CK_ATTRIBUTE_PTR ) &xPrivateKeyTemplate,
 381:D:/Work/DeviceTester/amazon-freertos/demos/common/devmode_key_provisioning\aws_dev_mode_key_provisioning.c ****                                                       sizeof( xPrivateKeyTemplate ) / sizeof( CK_AT
 382:D:/Work/DeviceTester/amazon-freertos/demos/common/devmode_key_provisioning\aws_dev_mode_key_provisioning.c ****                                                       &xObject );
 383:D:/Work/DeviceTester/amazon-freertos/demos/common/devmode_key_provisioning\aws_dev_mode_key_provisioning.c ****         }
 384:D:/Work/DeviceTester/amazon-freertos/demos/common/devmode_key_provisioning\aws_dev_mode_key_provisioning.c **** 
 385:D:/Work/DeviceTester/amazon-freertos/demos/common/devmode_key_provisioning\aws_dev_mode_key_provisioning.c ****         if( pucDerObject != NULL )
 571              		.loc 1 385 0
 572 0108 000055E3 		cmp	r5, #0
 379:D:/Work/DeviceTester/amazon-freertos/demos/common/devmode_key_provisioning\aws_dev_mode_key_provisioning.c ****                                                       ( CK_ATTRIBUTE_PTR ) &xPrivateKeyTemplate,
 573              		.loc 1 379 0
 574 010c 0040A0E1 		mov	r4, r0
 575              	.LVL69:
 576              		.loc 1 385 0
 577 0110 0100000A 		beq	.L54
 578              	.LVL70:
 579              	.L57:
 386:D:/Work/DeviceTester/amazon-freertos/demos/common/devmode_key_provisioning\aws_dev_mode_key_provisioning.c ****         {
 387:D:/Work/DeviceTester/amazon-freertos/demos/common/devmode_key_provisioning\aws_dev_mode_key_provisioning.c ****             vPortFree( pucDerObject );
 580              		.loc 1 387 0
 581 0114 0500A0E1 		mov	r0, r5
 582 0118 FEFFFFEB 		bl	vPortFree
 583              	.LVL71:
 584              	.L54:
 388:D:/Work/DeviceTester/amazon-freertos/demos/common/devmode_key_provisioning\aws_dev_mode_key_provisioning.c ****         }
 389:D:/Work/DeviceTester/amazon-freertos/demos/common/devmode_key_provisioning\aws_dev_mode_key_provisioning.c ****     }
 390:D:/Work/DeviceTester/amazon-freertos/demos/common/devmode_key_provisioning\aws_dev_mode_key_provisioning.c **** 
 391:D:/Work/DeviceTester/amazon-freertos/demos/common/devmode_key_provisioning\aws_dev_mode_key_provisioning.c ****     if( xResult != CKR_OK )
 585              		.loc 1 391 0
 586 011c 000054E3 		cmp	r4, #0
 587 0120 0200000A 		beq	.L51
 588              	.LVL72:
 589              	.L52:
 392:D:/Work/DeviceTester/amazon-freertos/demos/common/devmode_key_provisioning\aws_dev_mode_key_provisioning.c ****     {
 393:D:/Work/DeviceTester/amazon-freertos/demos/common/devmode_key_provisioning\aws_dev_mode_key_provisioning.c ****         configPRINTF( ( "ERROR: Failed to provision private key %d \r\n", xResult ) );
 590              		.loc 1 393 0
 591 0124 0410A0E1 		mov	r1, r4
 592 0128 40009FE5 		ldr	r0, .L72+16
 593 012c FEFFFFEB 		bl	vLoggingPrintf
 594              	.LVL73:
 595              	.L51:
 394:D:/Work/DeviceTester/amazon-freertos/demos/common/devmode_key_provisioning\aws_dev_mode_key_provisioning.c ****     }
 395:D:/Work/DeviceTester/amazon-freertos/demos/common/devmode_key_provisioning\aws_dev_mode_key_provisioning.c **** 
 396:D:/Work/DeviceTester/amazon-freertos/demos/common/devmode_key_provisioning\aws_dev_mode_key_provisioning.c ****     return xResult;
 397:D:/Work/DeviceTester/amazon-freertos/demos/common/devmode_key_provisioning\aws_dev_mode_key_provisioning.c **** }
 596              		.loc 1 397 0
 597 0130 0400A0E1 		mov	r0, r4
 598 0134 54D08DE2 		add	sp, sp, #84
 599              		.cfi_remember_state
 600              		.cfi_def_cfa_offset 20
 601              		@ sp needed
 602 0138 F080BDE8 		pop	{r4, r5, r6, r7, pc}
 603              	.LVL74:
 604              	.L58:
 605              		.cfi_restore_state
 365:D:/Work/DeviceTester/amazon-freertos/demos/common/devmode_key_provisioning\aws_dev_mode_key_provisioning.c ****         }
 606              		.loc 1 365 0
 607 013c 3140A0E3 		mov	r4, #49
 608              	.LVL75:
 609              	.L53:
 372:D:/Work/DeviceTester/amazon-freertos/demos/common/devmode_key_provisioning\aws_dev_mode_key_provisioning.c ****         }
 610              		.loc 1 372 0
 611 0140 1C309DE5 		ldr	r3, [sp, #28]
 375:D:/Work/DeviceTester/amazon-freertos/demos/common/devmode_key_provisioning\aws_dev_mode_key_provisioning.c ****         {
 612              		.loc 1 375 0
 613 0144 000054E3 		cmp	r4, #0
 371:D:/Work/DeviceTester/amazon-freertos/demos/common/devmode_key_provisioning\aws_dev_mode_key_provisioning.c ****             xPrivateKeyTemplate.xValue.ulValueLen = xDerLen;
 614              		.loc 1 371 0
 615 0148 48508DE5 		str	r5, [sp, #72]
 372:D:/Work/DeviceTester/amazon-freertos/demos/common/devmode_key_provisioning\aws_dev_mode_key_provisioning.c ****         }
 616              		.loc 1 372 0
 617 014c 4C308DE5 		str	r3, [sp, #76]
 375:D:/Work/DeviceTester/amazon-freertos/demos/common/devmode_key_provisioning\aws_dev_mode_key_provisioning.c ****         {
 618              		.loc 1 375 0
 619 0150 E3FFFF0A 		beq	.L56
 385:D:/Work/DeviceTester/amazon-freertos/demos/common/devmode_key_provisioning\aws_dev_mode_key_provisioning.c ****         {
 620              		.loc 1 385 0
 621 0154 000055E3 		cmp	r5, #0
 622 0158 EDFFFF1A 		bne	.L57
 623 015c F0FFFFEA 		b	.L52
 624              	.L73:
 625              		.align	2
 626              	.L72:
 627 0160 00000000 		.word	.LC4
 628 0164 14000000 		.word	.LC5
 629 0168 20000000 		.word	.LC6
 630 016c 49000000 		.word	.LC7
 631 0170 67000000 		.word	.LC8
 632              		.cfi_endproc
 633              	.LFE4:
 635              		.section	.text.vAlternateKeyProvisioning,"ax",%progbits
 636              		.align	2
 637              		.global	vAlternateKeyProvisioning
 638              		.syntax unified
 639              		.arm
 640              		.fpu neon
 642              	vAlternateKeyProvisioning:
 643              	.LFB5:
 398:D:/Work/DeviceTester/amazon-freertos/demos/common/devmode_key_provisioning\aws_dev_mode_key_provisioning.c **** 
 399:D:/Work/DeviceTester/amazon-freertos/demos/common/devmode_key_provisioning\aws_dev_mode_key_provisioning.c **** /*-----------------------------------------------------------*/
 400:D:/Work/DeviceTester/amazon-freertos/demos/common/devmode_key_provisioning\aws_dev_mode_key_provisioning.c **** 
 401:D:/Work/DeviceTester/amazon-freertos/demos/common/devmode_key_provisioning\aws_dev_mode_key_provisioning.c **** void vAlternateKeyProvisioning( ProvisioningParams_t * xParams )
 402:D:/Work/DeviceTester/amazon-freertos/demos/common/devmode_key_provisioning\aws_dev_mode_key_provisioning.c **** {
 644              		.loc 1 402 0
 645              		.cfi_startproc
 646              		@ args = 0, pretend = 0, frame = 16
 647              		@ frame_needed = 0, uses_anonymous_args = 0
 648              	.LVL76:
 649 0000 1F402DE9 		push	{r0, r1, r2, r3, r4, lr}
 650              		.cfi_def_cfa_offset 24
 651              		.cfi_offset 4, -8
 652              		.cfi_offset 14, -4
 403:D:/Work/DeviceTester/amazon-freertos/demos/common/devmode_key_provisioning\aws_dev_mode_key_provisioning.c ****     CK_RV xResult = CKR_OK;
 404:D:/Work/DeviceTester/amazon-freertos/demos/common/devmode_key_provisioning\aws_dev_mode_key_provisioning.c ****     CK_FUNCTION_LIST_PTR pxFunctionList = NULL;
 653              		.loc 1 404 0
 654 0004 0030A0E3 		mov	r3, #0
 405:D:/Work/DeviceTester/amazon-freertos/demos/common/devmode_key_provisioning\aws_dev_mode_key_provisioning.c ****     CK_SLOT_ID xSlotId = 0;
 406:D:/Work/DeviceTester/amazon-freertos/demos/common/devmode_key_provisioning\aws_dev_mode_key_provisioning.c ****     CK_SESSION_HANDLE xSession = 0;
 655              		.loc 1 406 0
 656 0008 10208DE2 		add	r2, sp, #16
 402:D:/Work/DeviceTester/amazon-freertos/demos/common/devmode_key_provisioning\aws_dev_mode_key_provisioning.c ****     CK_RV xResult = CKR_OK;
 657              		.loc 1 402 0
 658 000c 0040A0E1 		mov	r4, r0
 407:D:/Work/DeviceTester/amazon-freertos/demos/common/devmode_key_provisioning\aws_dev_mode_key_provisioning.c **** 
 408:D:/Work/DeviceTester/amazon-freertos/demos/common/devmode_key_provisioning\aws_dev_mode_key_provisioning.c ****     /* Initialize the PKCS Module */
 409:D:/Work/DeviceTester/amazon-freertos/demos/common/devmode_key_provisioning\aws_dev_mode_key_provisioning.c ****     xResult = xInitializePkcsSession( &pxFunctionList,
 659              		.loc 1 409 0
 660 0010 08108DE2 		add	r1, sp, #8
 661 0014 04008DE2 		add	r0, sp, #4
 662              	.LVL77:
 406:D:/Work/DeviceTester/amazon-freertos/demos/common/devmode_key_provisioning\aws_dev_mode_key_provisioning.c **** 
 663              		.loc 1 406 0
 664 0018 043022E5 		str	r3, [r2, #-4]!
 404:D:/Work/DeviceTester/amazon-freertos/demos/common/devmode_key_provisioning\aws_dev_mode_key_provisioning.c ****     CK_SLOT_ID xSlotId = 0;
 665              		.loc 1 404 0
 666 001c 04308DE5 		str	r3, [sp, #4]
 405:D:/Work/DeviceTester/amazon-freertos/demos/common/devmode_key_provisioning\aws_dev_mode_key_provisioning.c ****     CK_SESSION_HANDLE xSession = 0;
 667              		.loc 1 405 0
 668 0020 08308DE5 		str	r3, [sp, #8]
 669              		.loc 1 409 0
 670 0024 FEFFFFEB 		bl	xInitializePkcsSession
 671              	.LVL78:
 410:D:/Work/DeviceTester/amazon-freertos/demos/common/devmode_key_provisioning\aws_dev_mode_key_provisioning.c ****                                       &xSlotId,
 411:D:/Work/DeviceTester/amazon-freertos/demos/common/devmode_key_provisioning\aws_dev_mode_key_provisioning.c ****                                       &xSession );
 412:D:/Work/DeviceTester/amazon-freertos/demos/common/devmode_key_provisioning\aws_dev_mode_key_provisioning.c **** 
 413:D:/Work/DeviceTester/amazon-freertos/demos/common/devmode_key_provisioning\aws_dev_mode_key_provisioning.c ****     if( xResult == CKR_OK )
 672              		.loc 1 413 0
 673 0028 000050E3 		cmp	r0, #0
 674 002c 0200001A 		bne	.L75
 414:D:/Work/DeviceTester/amazon-freertos/demos/common/devmode_key_provisioning\aws_dev_mode_key_provisioning.c ****     {
 415:D:/Work/DeviceTester/amazon-freertos/demos/common/devmode_key_provisioning\aws_dev_mode_key_provisioning.c ****         xResult = xProvisionDevice( xSession, xParams );
 675              		.loc 1 415 0
 676 0030 0410A0E1 		mov	r1, r4
 677 0034 0C009DE5 		ldr	r0, [sp, #12]
 678              	.LVL79:
 679 0038 FEFFFFEB 		bl	xProvisionDevice
 680              	.LVL80:
 681              	.L75:
 416:D:/Work/DeviceTester/amazon-freertos/demos/common/devmode_key_provisioning\aws_dev_mode_key_provisioning.c ****     }
 417:D:/Work/DeviceTester/amazon-freertos/demos/common/devmode_key_provisioning\aws_dev_mode_key_provisioning.c **** 
 418:D:/Work/DeviceTester/amazon-freertos/demos/common/devmode_key_provisioning\aws_dev_mode_key_provisioning.c ****     pxFunctionList->C_CloseSession( xSession );
 682              		.loc 1 418 0
 683 003c 04309DE5 		ldr	r3, [sp, #4]
 684 0040 0C009DE5 		ldr	r0, [sp, #12]
 685 0044 383093E5 		ldr	r3, [r3, #56]
 686 0048 33FF2FE1 		blx	r3
 687              	.LVL81:
 419:D:/Work/DeviceTester/amazon-freertos/demos/common/devmode_key_provisioning\aws_dev_mode_key_provisioning.c **** }
 688              		.loc 1 419 0
 689 004c 10D08DE2 		add	sp, sp, #16
 690              		.cfi_def_cfa_offset 8
 691              		@ sp needed
 692 0050 1080BDE8 		pop	{r4, pc}
 693              		.cfi_endproc
 694              	.LFE5:
 696              		.section	.text.vDevModeKeyProvisioning,"ax",%progbits
 697              		.align	2
 698              		.global	vDevModeKeyProvisioning
 699              		.syntax unified
 700              		.arm
 701              		.fpu neon
 703              	vDevModeKeyProvisioning:
 704              	.LFB6:
 420:D:/Work/DeviceTester/amazon-freertos/demos/common/devmode_key_provisioning\aws_dev_mode_key_provisioning.c **** /*-----------------------------------------------------------*/
 421:D:/Work/DeviceTester/amazon-freertos/demos/common/devmode_key_provisioning\aws_dev_mode_key_provisioning.c **** 
 422:D:/Work/DeviceTester/amazon-freertos/demos/common/devmode_key_provisioning\aws_dev_mode_key_provisioning.c **** void vDevModeKeyProvisioning( void )
 423:D:/Work/DeviceTester/amazon-freertos/demos/common/devmode_key_provisioning\aws_dev_mode_key_provisioning.c **** {
 705              		.loc 1 423 0
 706              		.cfi_startproc
 707              		@ args = 0, pretend = 0, frame = 24
 708              		@ frame_needed = 0, uses_anonymous_args = 0
 709 0000 7F402DE9 		push	{r0, r1, r2, r3, r4, r5, r6, lr}
 710              		.cfi_def_cfa_offset 32
 711              		.cfi_offset 14, -4
 424:D:/Work/DeviceTester/amazon-freertos/demos/common/devmode_key_provisioning\aws_dev_mode_key_provisioning.c ****     ProvisioningParams_t xParams;
 425:D:/Work/DeviceTester/amazon-freertos/demos/common/devmode_key_provisioning\aws_dev_mode_key_provisioning.c **** 
 426:D:/Work/DeviceTester/amazon-freertos/demos/common/devmode_key_provisioning\aws_dev_mode_key_provisioning.c ****     xParams.ulClientPrivateKeyType = CKK_RSA;
 712              		.loc 1 426 0
 713 0004 0030A0E3 		mov	r3, #0
 714 0008 04308DE5 		str	r3, [sp, #4]
 427:D:/Work/DeviceTester/amazon-freertos/demos/common/devmode_key_provisioning\aws_dev_mode_key_provisioning.c ****     xParams.pcClientPrivateKey = ( uint8_t * ) clientcredentialCLIENT_PRIVATE_KEY_PEM;
 428:D:/Work/DeviceTester/amazon-freertos/demos/common/devmode_key_provisioning\aws_dev_mode_key_provisioning.c ****     xParams.ulClientPrivateKeyLength = clientcredentialCLIENT_PRIVATE_KEY_LENGTH;
 429:D:/Work/DeviceTester/amazon-freertos/demos/common/devmode_key_provisioning\aws_dev_mode_key_provisioning.c ****     xParams.pcClientCertificate = ( uint8_t * ) clientcredentialCLIENT_CERTIFICATE_PEM;
 430:D:/Work/DeviceTester/amazon-freertos/demos/common/devmode_key_provisioning\aws_dev_mode_key_provisioning.c ****     xParams.ulClientCertificateLength = clientcredentialCLIENT_CERTIFICATE_LENGTH;
 431:D:/Work/DeviceTester/amazon-freertos/demos/common/devmode_key_provisioning\aws_dev_mode_key_provisioning.c **** 
 432:D:/Work/DeviceTester/amazon-freertos/demos/common/devmode_key_provisioning\aws_dev_mode_key_provisioning.c ****     vAlternateKeyProvisioning( &xParams );
 715              		.loc 1 432 0
 716 000c 04008DE2 		add	r0, sp, #4
 427:D:/Work/DeviceTester/amazon-freertos/demos/common/devmode_key_provisioning\aws_dev_mode_key_provisioning.c ****     xParams.pcClientPrivateKey = ( uint8_t * ) clientcredentialCLIENT_PRIVATE_KEY_PEM;
 717              		.loc 1 427 0
 718 0010 24309FE5 		ldr	r3, .L79
 719 0014 08308DE5 		str	r3, [sp, #8]
 428:D:/Work/DeviceTester/amazon-freertos/demos/common/devmode_key_provisioning\aws_dev_mode_key_provisioning.c ****     xParams.pcClientCertificate = ( uint8_t * ) clientcredentialCLIENT_CERTIFICATE_PEM;
 720              		.loc 1 428 0
 721 0018 F43903E3 		movw	r3, #14836
 722 001c 0C308DE5 		str	r3, [sp, #12]
 429:D:/Work/DeviceTester/amazon-freertos/demos/common/devmode_key_provisioning\aws_dev_mode_key_provisioning.c ****     xParams.ulClientCertificateLength = clientcredentialCLIENT_CERTIFICATE_LENGTH;
 723              		.loc 1 429 0
 724 0020 18309FE5 		ldr	r3, .L79+4
 725 0024 10308DE5 		str	r3, [sp, #16]
 430:D:/Work/DeviceTester/amazon-freertos/demos/common/devmode_key_provisioning\aws_dev_mode_key_provisioning.c **** 
 726              		.loc 1 430 0
 727 0028 1D3A02E3 		movw	r3, #10781
 728 002c 14308DE5 		str	r3, [sp, #20]
 729              		.loc 1 432 0
 730 0030 FEFFFFEB 		bl	vAlternateKeyProvisioning
 731              	.LVL82:
 433:D:/Work/DeviceTester/amazon-freertos/demos/common/devmode_key_provisioning\aws_dev_mode_key_provisioning.c **** }
 732              		.loc 1 433 0
 733 0034 1CD08DE2 		add	sp, sp, #28
 734              		.cfi_def_cfa_offset 4
 735              		@ sp needed
 736 0038 04F09DE4 		ldr	pc, [sp], #4
 737              	.L80:
 738              		.align	2
 739              	.L79:
 740 003c 00000000 		.word	.LANCHOR0
 741 0040 00000000 		.word	.LANCHOR1
 742              		.cfi_endproc
 743              	.LFE6:
 745              		.global	clientcredentialCLIENT_PRIVATE_KEY_LENGTH
 746              		.global	clientcredentialCLIENT_CERTIFICATE_LENGTH
 747              		.global	clientcredentialCLIENT_PRIVATE_KEY_PEM
 748              		.global	clientcredentialJITR_DEVICE_CERTIFICATE_AUTHORITY_PEM
 749              		.global	clientcredentialCLIENT_CERTIFICATE_PEM
 750              		.section	.bss.clientcredentialJITR_DEVICE_CERTIFICATE_AUTHORITY_PEM,"aw",%nobits
 751              		.align	2
 754              	clientcredentialJITR_DEVICE_CERTIFICATE_AUTHORITY_PEM:
 755 0000 00000000 		.space	4
 756              		.section	.rodata.clientcredentialCLIENT_CERTIFICATE_LENGTH,"a",%progbits
 757              		.align	2
 760              	clientcredentialCLIENT_CERTIFICATE_LENGTH:
 761 0000 1D2A0000 		.word	10781
 762              		.section	.rodata.clientcredentialCLIENT_CERTIFICATE_PEM,"a",%progbits
 763              		.set	.LANCHOR1,. + 0
 766              	clientcredentialCLIENT_CERTIFICATE_PEM:
 767 0000 2D2D2D2D 		.ascii	"-----BEGIN CERTIFICATE-----\012MIIDWjCCAkKgAwIBAgIV"
 767      2D424547 
 767      494E2043 
 767      45525449 
 767      46494341 
 768 0030 41495669 		.ascii	"AIViMjJMo1VF3VsPp7kbseQUAimRMA0GCSqGSIb3DQEB\012CwU"
 768      4D6A4A4D 
 768      6F315646 
 768      33567350 
 768      70376B62 
 769 0060 414D4530 		.ascii	"AME0xSzBJBgNVBAsMQkFtYXpvbiBXZWIgU2VydmljZXMgTz1BbW"
 769      78537A42 
 769      4A42674E 
 769      56424173 
 769      4D516B46 
 770 0093 46366232 		.ascii	"F6b24uY29t\012IEluYy4gTD1TZWF0dGxlIFNUPVdhc2hpbmd0b"
 770      34755932 
 770      39740A49 
 770      456C7559 
 770      79346754 
 771 00c3 32346751 		.ascii	"24gQz1VUzAeFw0yMDExMDQxMzQy\012NDhaFw00OTEyMzEyMzU5"
 771      7A315655 
 771      7A416546 
 771      7730794D 
 771      4445784D 
 772 00f3 4E546C61 		.ascii	"NTlaMB4xHDAaBgNVBAMME0FXUyBJb1QgQ2VydGlmaWNh\012dGU"
 772      4D423478 
 772      48444161 
 772      42674E56 
 772      42414D4D 
 773 0123 77676745 		.ascii	"wggEiMA0GCSqGSIb3DQEBAQUAA4IBDwAwggEKAoIBAQCl3UMB4u"
 773      694D4130 
 773      47435371 
 773      47534962 
 773      33445145 
 774 0156 4B707671 		.ascii	"KpvqrSi7ec\012aEhwXZmFCWU6MHJjr2iU0fWhEP/v/ZZ7hTB6p"
 774      72536937 
 774      65630A61 
 774      45687758 
 774      5A6D4643 
 775 0186 4C625148 		.ascii	"LbQHSG9Ts80IenBKjj44krJK9MU\012jldC9eg9GnqJxsss+opE"
 775      53473954 
 775      73383049 
 775      656E424B 
 775      6A6A3434 
 776 01b6 462B5441 		.ascii	"F+TA4YdA39QHph6iBBDHInw+4BUpBk7iaXYAjkwbcwUJ\012FI7"
 776      34596441 
 776      33395148 
 776      70683669 
 776      42424448 
 777 01e6 354E6456 		.ascii	"5NdV5hFQ5R2Gm9lcPiLpDHXXoRxAvX6AYuY7ivHOFv+xfBW8Z7d"
 777      35684651 
 777      35523247 
 777      6D396C63 
 777      50694C70 
 778 0219 76735156 		.ascii	"vsQVPcKevv\012EWo/L4OI1aKDvqrq+jU8Pwvt+xIBcYYS5rM/C"
 778      50634B65 
 778      76760A45 
 778      576F2F4C 
 778      344F4931 
 779 0249 61756579 		.ascii	"aueytAITvxNDGtbzWqNYy16dxzg\0123rIEf0MMuCz7Bi3Do+Iw"
 779      74414954 
 779      76784E44 
 779      4774627A 
 779      57714E59 
 780 0279 2B457671 		.ascii	"+EvqOI+kfPR7Xaywtrx7UUx8vhO4HidwVyRbgylzeyH+\012g+Y"
 780      4F492B6B 
 780      66505237 
 780      58617977 
 780      74727837 
 781 02a9 6A41674D 		.ascii	"jAgMBAAGjYDBeMB8GA1UdIwQYMBaAFPcm2kuB5A1/JpOl8ofGA8"
 781      42414147 
 781      6A594442 
 781      654D4238 
 781      47413155 
 782 02dc 39337857 		.ascii	"93xWBrMB0G\012A1UdDgQWBBRw7zAZkfo+41NJ2CfuCNsyVXT/3"
 782      42724D42 
 782      30470A41 
 782      31556444 
 782      67515742 
 783 030c 6A414D42 		.ascii	"jAMBgNVHRMBAf8EAjAAMA4GA1Ud\012DwEB/wQEAwIHgDANBgkq"
 783      674E5648 
 783      524D4241 
 783      66384541 
 783      6A41414D 
 784 033c 686B6947 		.ascii	"hkiG9w0BAQsFAAOCAQEAvxF6QR8gOlU2NbTRSZNygFN2\012ckr"
 784      39773042 
 784      41517346 
 784      41414F43 
 784      41514541 
 785 036c 67766958 		.ascii	"gviX/+xh+TWeXtIbKiGEVL8ppFe0l9jnlcUTOrYHv8+aWlZgrgu"
 785      2F2B7868 
 785      2B545765 
 785      58744962 
 785      4B694745 
 786 039f 3056366F 		.ascii	"0V6ovyD7L3\012WPDnf/Fo1wTh8EU6cMyjKeV377PV7vUGrUHWt"
 786      76794437 
 786      4C330A57 
 786      50446E66 
 786      2F466F31 
 787 03cf 456B3266 		.ascii	"Ek2fJNHsDZd0aVSfLMrGQdZNSXZ\012IUh1NsjDstmcfECbafTF"
 787      4A4E4873 
 787      445A6430 
 787      61565366 
 787      4C4D7247 
 788 03ff 4633514E 		.ascii	"F3QNeTu3y+NkszN34Gn0DFmF+Bp5uNc0y8V30o55Q8mt\012e2E"
 788      65547533 
 788      792B4E6B 
 788      737A4E33 
 788      34476E30 
 789 042f 58616263 		.ascii	"Xabcm2jlNnd/xXg+u1g7vvnrp/PST3da3mJ2gApsiUHubS2YCXQ"
 789      6D326A6C 
 789      4E6E642F 
 789      7858672B 
 789      75316737 
 790 0462 45684B31 		.ascii	"EhK15+s2Wi\012dCI8lA6uIRrEDNFUTECUyY3VkedXCMM/IKqxY"
 790      352B7332 
 790      57690A64 
 790      4349386C 
 790      41367549 
 791 0492 56566B43 		.ascii	"VVkCGL0FGrvCTDQH/0iJNRjJA==\012-----END CERTIFICATE"
 791      474C3046 
 791      47727643 
 791      54445148 
 791      2F30694A 
 792 04c2 2D2D2D2D 		.ascii	"-----\012MIIDWjCCAkKgAwIBAgIVAI+EeMPIz1TlENlFi2+wQ8"
 792      2D0A4D49 
 792      4944576A 
 792      4343416B 
 792      4B674177 
 793 04f2 427A6A77 		.ascii	"BzjwNdMA0GCSqGSIb3DQEB\012CwUAME0xSzBJBgNVBAsMQkFtY"
 793      4E644D41 
 793      30474353 
 793      71475349 
 793      62334451 
 794 0522 58707662 		.ascii	"XpvbiBXZWIgU2VydmljZXMgTz1BbWF6b24uY29t\012IEluYy4g"
 794      6942585A 
 794      57496755 
 794      32567964 
 794      6D6C6A5A 
 795 0552 54443154 		.ascii	"TD1TZWF0dGxlIFNUPVdhc2hpbmd0b24gQz1VUzAeFw0yMDExMDQ"
 795      5A574630 
 795      6447786C 
 795      49464E55 
 795      50566468 
 796 0585 784D7A45 		.ascii	"xMzEy\012NTBaFw00OTEyMzEyMzU5NTlaMB4xHDAaBgNVBAMME0"
 796      790A4E54 
 796      42614677 
 796      30304F54 
 796      45794D7A 
 797 05b5 46585579 		.ascii	"FXUyBJb1QgQ2VydGlmaWNh\012dGUwggEiMA0GCSqGSIb3DQEBA"
 797      424A6231 
 797      51675132 
 797      56796447 
 797      6C6D6157 
 798 05e5 51554141 		.ascii	"QUAA4IBDwAwggEKAoIBAQC/LiMFZ7LUkCIrTGl4\012b2AEPL4b"
 798      34494244 
 798      77417767 
 798      67454B41 
 798      6F494241 
 799 0615 63314452 		.ascii	"c1DRVcr3I4z4xFpQXTCWvH2QZiQFH/fUCfQHMjpEuo7RSvrxrHI"
 799      56637233 
 799      49347A34 
 799      78467051 
 799      58544357 
 800 0648 715A6E34 		.ascii	"qZn46\012NsxU68R/6VKZdL2RNlKhJvQOfiWdUGTIGliPDvg0yf"
 800      360A4E73 
 800      78553638 
 800      522F3656 
 800      4B5A644C 
 801 0678 66426133 		.ascii	"fBa3GHXp3EanEPRG56+EQ2\012m8NWFI5cgsQk1z7VgUhEIY2VV"
 801      47485870 
 801      3345616E 
 801      45505247 
 801      35362B45 
 802 06a8 6C636D34 		.ascii	"lcm4gIjhpkgq9/V3Mfd/UYN3HwF7b5FRPELhBvu\012oLWKK/QG"
 802      67496A68 
 802      706B6771 
 802      392F5633 
 802      4D66642F 
 803 06d8 6C2B5970 		.ascii	"l+Ypr7Z9ugHzFAqNXdoVUmonIGkSyr0e2E6naGGwjcAPBjt3ijy"
 803      72375A39 
 803      7567487A 
 803      4641714E 
 803      58646F56 
 804 070b 39654175 		.ascii	"9eAuB\01216xByky8V88xQj9orx9R+XkO2OOUy5BdbaoCWTSRmp"
 804      420A3136 
 804      7842796B 
 804      79385638 
 804      3878516A 
 805 073b 714E3230 		.ascii	"qN20IjSCgv/hKjPdxHZ8+3\012s4zJAgMBAAGjYDBeMB8GA1UdI"
 805      496A5343 
 805      67762F68 
 805      4B6A5064 
 805      78485A38 
 806 076b 7751594D 		.ascii	"wQYMBaAFMXKReO2HmJrxI/trLHog1OXQ9C6MB0G\012A1UdDgQW"
 806      42614146 
 806      4D584B52 
 806      654F3248 
 806      6D4A7278 
 807 079b 4242532F 		.ascii	"BBS/G+tlbqhjXwug6Tbodc2M9tffhDAMBgNVHRMBAf8EAjAAMA4"
 807      472B746C 
 807      6271686A 
 807      58777567 
 807      3654626F 
 808 07ce 4741     		.ascii	"GA"
 809 07d0 3155640A 		.ascii	"1Ud\012DwEB/wQEAwIHgDANBgkqhkiG9w0BAQsFAAOCAQEAvqBz"
 809      44774542 
 809      2F775145 
 809      41774948 
 809      6744414E 
 810 0800 70663930 		.ascii	"pf90egBlbP9F8xBCTD6t\0125QaAB37YAOZkihMO+TUCxlo9nTy"
 810      6567426C 
 810      62503946 
 810      38784243 
 810      54443674 
 811 0830 41632F7A 		.ascii	"Ac/z7cu9rubtu1zeZlg0E11SsoOBk5wCa7U1b\012cCNjxp0Xde"
 811      37637539 
 811      72756274 
 811      75317A65 
 811      5A6C6730 
 812 0860 56506539 		.ascii	"VPe9B9vseDrtuaF+ba15Olo4bFXXJiNLURIPVV0A7OYQ1MlWH5B"
 812      42397673 
 812      65447274 
 812      7561462B 
 812      62613135 
 813 0893 5741440A 		.ascii	"WAD\012oPQBiywjwyr6REHnVI9F3QCZbiIWk6VgfCQlMjy6Z1eX"
 813      6F505142 
 813      6979776A 
 813      77797236 
 813      5245486E 
 814 08c3 6447595A 		.ascii	"dGYZinqpSVjFn0/xM1M1\012RQ87S8o1Sg7MbJFyjgyvRE3hnys"
 814      696E7170 
 814      53566A46 
 814      6E302F78 
 814      4D314D31 
 815 08f3 78417032 		.ascii	"xAp271M2iWxUVhzSOBkCZu9rxyQEVL6SfAxwj\012c/r4OO8RGv"
 815      37314D32 
 815      69577855 
 815      56687A53 
 815      4F426B43 
 816 0923 73337257 		.ascii	"s3rWfUwsOZCLNEzzxlxFbeVAaampCDs04hVHY6I2skQcc9qtJn6"
 816      66557773 
 816      4F5A434C 
 816      4E457A7A 
 816      786C7846 
 817 0956 513D3D0A 		.ascii	"Q==\012-----END CERTIFICATE-----\012MIIDWjCCAkKgAwI"
 817      2D2D2D2D 
 817      2D454E44 
 817      20434552 
 817      54494649 
 818 0983 42416749 		.ascii	"BAgIVAJer0rxV2/nmXhaZm03VAS7eVseXMA0GCSqGSIb3DQEB\012"
 818      56414A65 
 818      72307278 
 818      56322F6E 
 818      6D586861 
 819 09b5 43775541 		.ascii	"CwUAME0xSzBJBgNVBAsMQkFtYXpvbiBXZWIgU2VydmljZXMgTz1"
 819      4D453078 
 819      537A424A 
 819      42674E56 
 819      4241734D 
 820 09e8 42625746 		.ascii	"BbWF6b24uY29t\012IEluYy4gTD1TZWF0dGxlIFNUPVdhc2hpbm"
 820      36623234 
 820      75593239 
 820      740A4945 
 820      6C755979 
 821 0a18 64306232 		.ascii	"d0b24gQz1VUzAeFw0yMDExMDQxMjU3\012MzhaFw00OTEyMzEyM"
 821      3467517A 
 821      3156557A 
 821      41654677 
 821      30794D44 
 822 0a48 7A55354E 		.ascii	"zU5NTlaMB4xHDAaBgNVBAMME0FXUyBJb1QgQ2VydGlmaWNh\012"
 822      546C614D 
 822      42347848 
 822      44416142 
 822      674E5642 
 823 0a78 64475577 		.ascii	"dGUwggEiMA0GCSqGSIb3DQEBAQUAA4IBDwAwggEKAoIBAQDHYK+"
 823      67674569 
 823      4D413047 
 823      43537147 
 823      53496233 
 824 0aab 714D7966 		.ascii	"qMyfdwHV2Z+uh\012Vizphzr0UJ8gfgl5W0BeUEsIX8nR2E5E0e"
 824      64774856 
 824      325A2B75 
 824      680A5669 
 824      7A70687A 
 825 0adb 72476462 		.ascii	"rGdbMv1OLfdD3Ejo3AbdNGkmBsd83D\012tfFnXNLjevltoKLD7"
 825      4D76314F 
 825      4C666444 
 825      33456A6F 
 825      33416264 
 826 0b0b 54692B46 		.ascii	"Ti+FfcIw5O/4yNkqEstsmk/nBf70jOXckXNboBfgcbkUqYi\012"
 826      66634977 
 826      354F2F34 
 826      794E6B71 
 826      45737473 
 827 0b3b 68383734 		.ascii	"h874IHl6NwreKUxJnA+ZJPrEWLZSZP2d2rQJ1pl+acr4MY7EkvV"
 827      49486C36 
 827      4E777265 
 827      4B55784A 
 827      6E412B5A 
 828 0b6e 377A346F 		.ascii	"7z4ottkkzG5Fo\012RuL+mvidQ0lp1EpqjgORHNA6FRcKDNyFly"
 828      74746B6B 
 828      7A473546 
 828      6F0A5275 
 828      4C2B6D76 
 829 0b9e 59525148 		.ascii	"YRQHWMbSOlRL/+7iNSMDVFmg/qadwk\012CQWEEp6m6Xkrd8U+D"
 829      574D6253 
 829      4F6C524C 
 829      2F2B3769 
 829      4E534D44 
 830 0bce 4C4D3758 		.ascii	"LM7XqykA9o/xjTdCmbQolT7gegoON0A9Bm92HIp64p537CX\012"
 830      71796B41 
 830      396F2F78 
 830      6A546443 
 830      6D62516F 
 831 0bfe 32493870 		.ascii	"2I8pAgMBAAGjYDBeMB8GA1UdIwQYMBaAFIy/I+v/JoV+zDOTNEf"
 831      41674D42 
 831      4141476A 
 831      59444265 
 831      4D423847 
 832 0c31 5A4E4271 		.ascii	"ZNBqjDTx2MB0G\012A1UdDgQWBBT2dPRB0pU1PgTX2hMpU0i2UB"
 832      6A445478 
 832      324D4230 
 832      470A4131 
 832      55644467 
 833 0c61 78473844 		.ascii	"xG8DAMBgNVHRMBAf8EAjAAMA4GA1Ud\012DwEB/wQEAwIHgDANB"
 833      414D4267 
 833      4E564852 
 833      4D424166 
 833      3845416A 
 834 0c91 676B7168 		.ascii	"gkqhkiG9w0BAQsFAAOCAQEApvUU4zw4hI1WRKB92dsh3ZNl\012"
 834      6B694739 
 834      77304241 
 834      51734641 
 834      414F4341 
 835 0cc1 79436A47 		.ascii	"yCjGktZTELCTGzyKlcOVczkujJBJc6K2Xenz9/jmfqI1W1FiyKF"
 835      6B745A54 
 835      454C4354 
 835      477A794B 
 835      6C634F56 
 836 0cf4 5A4F4177 		.ascii	"ZOAwc3xKBHW3v\0124i0wdXo6zU2fkyoDlIgvDXOtpY9Vcw2rdG"
 836      6333784B 
 836      42485733 
 836      760A3469 
 836      30776458 
 837 0d24 51684750 		.ascii	"QhGP+x9F5nq+RAoqTbLRjPNciow/qZ\012lGbAnrK2WHPEdyDqh"
 837      2B783946 
 837      356E712B 
 837      52416F71 
 837      54624C52 
 838 0d54 2F4A4B76 		.ascii	"/JKvJ9NHMxdZ4spgJsTS9Wg2ZhzHvYlBsW4IYugFFmZ7GLJ\012"
 838      4A394E48 
 838      4D78645A 
 838      34737067 
 838      4A735453 
 839 0d84 57463058 		.ascii	"WF0XCK3OZfMjon3kUw31NtspCo5CpiGpeL6Shf8m+UlVLtRItbg"
 839      434B334F 
 839      5A664D6A 
 839      6F6E336B 
 839      55773331 
 840 0db7 6635782F 		.ascii	"f5x/Is/E+nP7o\012O5KR2/0+oZ/DE1A6g1E+UkdUUdclwfUa5r"
 840      49732F45 
 840      2B6E5037 
 840      6F0A4F35 
 840      4B52322F 
 841 0de7 43714953 		.ascii	"CqISCstqF/0P7AOM+jk0OB/Z2dTQ==\012-----END CERTIFIC"
 841      43737471 
 841      462F3050 
 841      37414F4D 
 841      2B6A6B30 
 842 0e17 4154452D 		.ascii	"ATE-----\012MIIDWjCCAkKgAwIBAgIVAL+a+GzMMS5Xj37P+Ue"
 842      2D2D2D2D 
 842      0A4D4949 
 842      44576A43 
 842      43416B4B 
 843 0e47 3058776B 		.ascii	"0Xwkhhd3VMA0GCSqGSIb3DQEB\012CwUAME0xSzBJBgNVBAsMQk"
 843      68686433 
 843      564D4130 
 843      47435371 
 843      47534962 
 844 0e77 46745958 		.ascii	"FtYXpvbiBXZWIgU2VydmljZXMgTz1BbWF6b24uY29t\012IEluY"
 844      70766269 
 844      42585A57 
 844      49675532 
 844      5679646D 
 845 0ea7 79346754 		.ascii	"y4gTD1TZWF0dGxlIFNUPVdhc2hpbmd0b24gQz1VUzAeFw0yMDEx"
 845      4431545A 
 845      57463064 
 845      47786C49 
 845      464E5550 
 846 0eda 4D445178 		.ascii	"MDQxMjQz\012MTRaFw00OTEyMzEyMzU5NTlaMB4xHDAaBgNVBAM"
 846      4D6A517A 
 846      0A4D5452 
 846      61467730 
 846      304F5445 
 847 0f0a 4D453046 		.ascii	"ME0FXUyBJb1QgQ2VydGlmaWNh\012dGUwggEiMA0GCSqGSIb3DQ"
 847      58557942 
 847      4A623151 
 847      67513256 
 847      7964476C 
 848 0f3a 45424151 		.ascii	"EBAQUAA4IBDwAwggEKAoIBAQDIcMBp/rrsh1RQ9CFh\012dw5mi"
 848      55414134 
 848      49424477 
 848      41776767 
 848      454B416F 
 849 0f6a 4D715356 		.ascii	"MqSVJRa2UICKo+Tu5VHXUHrBwJFIi7O+0SW/cpaZArzxnhs6uN+"
 849      4A526132 
 849      5549434B 
 849      6F2B5475 
 849      35564858 
 850 0f9d 55506A   		.ascii	"UPj"
 851 0fa0 4D644233 		.ascii	"MdB3p\012jwbAxEaIgZXg3iIUbN5bnqq76HHorMcOHNDUSsHjgi"
 851      700A6A77 
 851      62417845 
 851      6149675A 
 851      58673369 
 852 0fd0 35416858 		.ascii	"5AhXLbeCMlJz8x2WXL+ML2\012hdEw5rLt8s4ZMFYdGp5BjDhpO"
 852      4C626543 
 852      4D6C4A7A 
 852      38783257 
 852      584C2B4D 
 853 1000 4F4A334C 		.ascii	"OJ3L4m7ZaCBmCGEzYJp5DJ05XrzLFp6ou/Ns3hx\01212kq2mcJ"
 853      346D375A 
 853      6143426D 
 853      4347457A 
 853      594A7035 
 854 1030 3539667A 		.ascii	"59fzKMQipINMSdGlzJuxk8c8vgzK4okv25rdqM0f+6tGA40/77g"
 854      4B4D5169 
 854      70494E4D 
 854      5364476C 
 854      7A4A7578 
 855 1063 4B6F507A 		.ascii	"KoPzP\012wjwH6Gcu2aY/Pg9UjTM6+bxu8MCMqKvjReiRk5oVdo"
 855      500A776A 
 855      77483647 
 855      63753261 
 855      592F5067 
 856 1093 75444851 		.ascii	"uDHQxDLJ1op578nycN4Nbs\012qUP9AgMBAAGjYDBeMB8GA1UdI"
 856      78444C4A 
 856      316F7035 
 856      37386E79 
 856      634E344E 
 857 10c3 7751594D 		.ascii	"wQYMBaAFHm2Wf13MmHy2bZW770nQr1hjZ6JMB0G\012A1UdDgQW"
 857      42614146 
 857      486D3257 
 857      6631334D 
 857      6D487932 
 858 10f3 42425177 		.ascii	"BBQw2oIQdquOEJPcB9LCEpLLjOEgQDAMBgNVHRMBAf8EAjAAMA4"
 858      326F4951 
 858      6471754F 
 858      454A5063 
 858      42394C43 
 859 1126 47413155 		.ascii	"GA1Ud\012DwEB/wQEAwIHgDANBgkqhkiG9w0BAQsFAAOCAQEAEC"
 859      640A4477 
 859      45422F77 
 859      51454177 
 859      49486744 
 860 1156 33617863 		.ascii	"3axcL0SoNg0hjGVYKyGzoI\012EPbruTpnqkCHvFn5Yw4Bs9i0M"
 860      4C30536F 
 860      4E673068 
 860      6A475659 
 860      4B79477A 
 861 1186 4D455658 		.ascii	"MEVXmXbl4Dy8I5VCWGiV6AimIMYFnhxrR4zM7bi\012LhD0D5dR"
 861      6D58626C 
 861      34447938 
 861      49355643 
 861      57476956 
 862 11b6 692B2B2F 		.ascii	"i++/m8t6rBSggtxCX8kpbbJNR+tD9dgnmKOH0++fTSs/ZROObCv"
 862      6D387436 
 862      72425367 
 862      67747843 
 862      58386B70 
 863 11e9 354F776E 		.ascii	"5OwnO\012w68BPAXgiozgEz661k3I5Cx/dopmiHm1XoVWTQOZ3M"
 863      4F0A7736 
 863      38425041 
 863      5867696F 
 863      7A67457A 
 864 1219 656B4237 		.ascii	"ekB7IIbq8SYEoSn9gF5ia/\012KL9JLCQQElFzaejndMDBQA1Bp"
 864      49496271 
 864      38535945 
 864      6F536E39 
 864      67463569 
 865 1249 7A46327A 		.ascii	"zF2zYWd+C1dO8lZbujdfDLZTa1Qrt7MI7iCPrZ4\0125Ll2LSxM"
 865      5957642B 
 865      4331644F 
 865      386C5A62 
 865      756A6466 
 866 1279 4D766345 		.ascii	"MvcE6yl7OXq9bJ/iDG9Wc4Apf06KgXjZ63n0xc/sb4tbWfdxzt9"
 866      36796C37 
 866      4F587139 
 866      624A2F69 
 866      44473957 
 867 12ac 466E773D 		.ascii	"Fnw==\012-----END CERTIFICATE-----\012MIIDWTCCAkGgA"
 867      3D0A2D2D 
 867      2D2D2D45 
 867      4E442043 
 867      45525449 
 868 12d9 77494241 		.ascii	"wIBAgIUbOf3OQkQ17F3WF1+HextvBn2euQwDQYJKoZIhvcNAQEL"
 868      67495562 
 868      4F66334F 
 868      516B5131 
 868      37463357 
 869 130c 0A425141 		.ascii	"\012BQAwTTFLMEkGA1UECwxCQW1hem9uIFdlYiBTZXJ2aWNlcyB"
 869      77545446 
 869      4C4D456B 
 869      47413155 
 869      45437778 
 870 133c 50505546 		.ascii	"PPUFtYXpvbi5jb20g\012SW5jLiBMPVNlYXR0bGUgU1Q9V2FzaG"
 870      74595870 
 870      76626935 
 870      6A623230 
 870      670A5357 
 871 136c 6C755A33 		.ascii	"luZ3RvbiBDPVVTMB4XDTIwMTEwNDEyMjcy\012MloXDTQ5MTIzM"
 871      52766269 
 871      42445056 
 871      56544D42 
 871      34584454 
 872 139c 54497A4E 		.ascii	"TIzNTk1OVowHjEcMBoGA1UEAwwTQVdTIElvVCBDZXJ0aWZpY2F0"
 872      546B314F 
 872      566F7748 
 872      6A45634D 
 872      426F4741 
 873 13cf 0A5A5443 		.ascii	"\012ZTCCASIwDQYJKoZIhvcNAQEBBQADggEPADCCAQoCggEBAKg"
 873      43415349 
 873      77445159 
 873      4A4B6F5A 
 873      49687663 
 874 13ff 714D7744 		.ascii	"qMwDfBqCs//ZSNo6m\012pDvhUMd+JEgN1DE0TuI1AeapF5H8eR"
 874      66427143 
 874      732F2F5A 
 874      534E6F36 
 874      6D0A7044 
 875 142f 62493851 		.ascii	"bI8Q4Xuvp9e3vqiFYkt7pX9xxxiJ0rYfcs\012rclJBCQE5A5hS"
 875      34587576 
 875      70396533 
 875      76716946 
 875      596B7437 
 876 145f 39496B6B 		.ascii	"9IkkJwGiaoHhr9MP9xuPiuAPqBx0bhJvVA9oMFTL0UfikUHkTXB"
 876      4A774769 
 876      616F4868 
 876      72394D50 
 876      39787550 
 877 1492 0A7A3054 		.ascii	"\012z0TftFdif0kXZXiRs6uhIEFJrZ+hHERJKJo/L6cp27510MK"
 877      66744664 
 877      6966306B 
 877      585A5869 
 877      52733675 
 878 14c2 76663971 		.ascii	"vf9qtmUizWEsGBXqv\012dsIYVGP/GjR2hX40dh3LXW3ADojfNx"
 878      746D5569 
 878      7A574573 
 878      47425871 
 878      760A6473 
 879 14f2 324B472B 		.ascii	"2KG+0Cz7faWoC8bDbPDQiE4ZzdG5k/5T9Y\012w8ALoHFybIbo8"
 879      30437A37 
 879      6661576F 
 879      43386244 
 879      62504451 
 880 1522 4F7A2F66 		.ascii	"Oz/fwtoSZ+63Mn5IKjsFb3iEq2J8MoxFGbULPJJPB2ogLUq8KrJ"
 880      77746F53 
 880      5A2B3633 
 880      4D6E3549 
 880      4B6A7346 
 881 1555 0A563455 		.ascii	"\012V4UCAwEAAaNgMF4wHwYDVR0jBBgwFoAUCWTrZF32wZLCiJb"
 881      43417745 
 881      4141614E 
 881      674D4634 
 881      77487759 
 882 1585 4C374533 		.ascii	"L7E3vosN2q/swHQYD\012VR0OBBYEFPpzK3hUgGqJu2k9jb4rHF"
 882      766F734E 
 882      32712F73 
 882      77485159 
 882      440A5652 
 883 15b5 38534D79 		.ascii	"8SMyz/MAwGA1UdEwEB/wQCMAAwDgYDVR0P\012AQH/BAQDAgeAM"
 883      7A2F4D41 
 883      77474131 
 883      55644577 
 883      45422F77 
 884 15e5 41304743 		.ascii	"A0GCSqGSIb3DQEBCwUAA4IBAQAn93Ka+YH32/F4+21SevwT+xp1"
 884      53714753 
 884      49623344 
 884      51454243 
 884      77554141 
 885 1618 0A5A3039 		.ascii	"\012Z09Mn+pWpMQHZteYHoAq1/SvGGkJC9AixpHevBQeWs5+8C1"
 885      4D6E2B70 
 885      57704D51 
 885      485A7465 
 885      59486F41 
 886 1648 6B74336C 		.ascii	"kt3lBKtzJrIM8YpVF\012MrNucIJSfR487j0I/e/Q0RlhirlEgL"
 886      424B747A 
 886      4A72494D 
 886      38597056 
 886      460A4D72 
 887 1678 5A7A676F 		.ascii	"ZzgohmvYmI9OXNgqbiLxyBX3VuyFoMXs3x\01268ByIOP7u/V4n"
 887      686D7659 
 887      6D49394F 
 887      584E6771 
 887      62694C78 
 888 16a8 35553078 		.ascii	"5U0xT8qwA/EsJNqyFL6qqukofOg3fHUH9BJznCt/cXr3SNogqkK"
 888      54387177 
 888      412F4573 
 888      4A4E7179 
 888      464C3671 
 889 16db 0A2F6743 		.ascii	"\012/gC5HTDBzFBDoNMrTPTK2Hazqm7sG3f4ZLNOPU9DIc31dmf"
 889      35485444 
 889      427A4642 
 889      446F4E4D 
 889      72545054 
 890 170b 434E6B4D 		.ascii	"CNkM+iKnwUAtkbXyj\012lhDnYoPFzS/Q6TZks+v5Cf1jkDpeZy"
 890      2B694B6E 
 890      77554174 
 890      6B625879 
 890      6A0A6C68 
 891 173b 73376548 		.ascii	"s7eHF6Lbnj9aF7C9/IGb5Wq6miKIPs\012-----END CERTIFIC"
 891      46364C62 
 891      6E6A3961 
 891      46374339 
 891      2F494762 
 892 176b 4154452D 		.ascii	"ATE--"
 892      2D
 893 1770 2D2D2D0A 		.ascii	"---\012MIIDWTCCAkGgAwIBAgIUa7E4zEmnPIZsElMbctN72b8h"
 893      4D494944 
 893      57544343 
 893      416B4767 
 893      41774942 
 894 17a0 59313477 		.ascii	"Y14wDQYJKoZIhvcNAQEL\012BQAwTTFLMEkGA1UECwxCQW1hem9"
 894      4451594A 
 894      4B6F5A49 
 894      6876634E 
 894      4151454C 
 895 17d0 75494664 		.ascii	"uIFdlYiBTZXJ2aWNlcyBPPUFtYXpvbi5jb20g\012SW5jLiBMPV"
 895      6C596942 
 895      545A584A 
 895      3261574E 
 895      6C637942 
 896 1800 4E6C5958 		.ascii	"NlYXR0bGUgU1Q9V2FzaGluZ3RvbiBDPVVTMB4XDTIwMTEwNDEyM"
 896      52306247 
 896      55675531 
 896      51395632 
 896      467A6147 
 897 1833 5449310A 		.ascii	"TI1\012M1oXDTQ5MTIzMTIzNTk1OVowHjEcMBoGA1UEAwwTQVdT"
 897      4D316F58 
 897      44545135 
 897      4D54497A 
 897      4D54497A 
 898 1863 49456C76 		.ascii	"IElvVCBDZXJ0aWZpY2F0\012ZTCCASIwDQYJKoZIhvcNAQEBBQA"
 898      56434244 
 898      5A584A30 
 898      61575A70 
 898      59324630 
 899 1893 44676745 		.ascii	"DggEPADCCAQoCggEBAK4PhPSjmMgHvIENNITm\012G1mV+Cngb3"
 899      50414443 
 899      4341516F 
 899      43676745 
 899      42414B34 
 900 18c3 6F334D68 		.ascii	"o3MhYmq3Xduus++rzg5CmoJY5C8zD2IcUK/7fqB9DbKKxDR0zCf"
 900      596D7133 
 900      58647575 
 900      732B2B72 
 900      7A673543 
 901 18f6 735A560A 		.ascii	"sZV\0127tcObsD4au+mxYtDX0TIfAZsH2SrqapvGrNz+KXTxGm6"
 901      3774634F 
 901      62734434 
 901      61752B6D 
 901      78597444 
 902 1926 6366776F 		.ascii	"cfwob/kQa0oCz0Jibypx\012Uhvh8SROUVJlBPGkAGEnmQwC92T"
 902      622F6B51 
 902      61306F43 
 902      7A304A69 
 902      62797078 
 903 1956 4A675643 		.ascii	"JgVCvUATQWA4ZCubI0wadq7HGXB1jfCr8+nKQ\012nSn7+BURQ1"
 903      76554154 
 903      51574134 
 903      5A437562 
 903      49307761 
 904 1986 58345976 		.ascii	"X4YvaaBCChVhYKu5/ukyVAQEp6l3CGGwn0ZzoAbnEEWBYXMbxqo"
 904      61614243 
 904      43685668 
 904      594B7535 
 904      2F756B79 
 905 19b9 5241650A 		.ascii	"RAe\012EcEUVjY0tO7lfb8rKA7gGOpoVxVkDzzYIFZ8NdKA8qHY"
 905      45634555 
 905      566A5930 
 905      744F376C 
 905      66623872 
 906 19e9 5243694F 		.ascii	"RCiOYl5Y4APH3ZWivdtH\012h+UCAwEAAaNgMF4wHwYDVR0jBBg"
 906      596C3559 
 906      34415048 
 906      335A5769 
 906      76647448 
 907 1a19 77466F41 		.ascii	"wFoAUXAkrcMAhUv8fh6bxQpWDGxu32LowHQYD\012VR0OBBYEFI"
 907      5558416B 
 907      72634D41 
 907      68557638 
 907      66683662 
 908 1a49 4F427575 		.ascii	"OBuuajMHLixgLGkxl7tMVNf3ehMAwGA1UdEwEB/wQCMAAwDgYDV"
 908      616A4D48 
 908      4C697867 
 908      4C476B78 
 908      6C37744D 
 909 1a7c 5230500A 		.ascii	"R0P\012AQH/BAQDAgeAMA0GCSqGSIb3DQEBCwUAA4IBAQCopXus"
 909      4151482F 
 909      42415144 
 909      41676541 
 909      4D413047 
 910 1aac 4551334F 		.ascii	"EQ3OpsjdMT/72bs42nGw\012Pc5U3lyIyQvX4GX6pglFHHKFbYk"
 910      70736A64 
 910      4D542F37 
 910      32627334 
 910      326E4777 
 911 1adc 64756978 		.ascii	"duixPBO1PijuUJhJ0sEYCsNYefrvzsgMGqRu9\012D1P3/SnEHx"
 911      50424F31 
 911      50696A75 
 911      554A684A 
 911      30734559 
 912 1b0c 584C5034 		.ascii	"XLP4ZJxR35P1sa16yGZfvHTaBwtuRfpt6mF4ne8sF/BHYPf+VOR"
 912      5A4A7852 
 912      33355031 
 912      73613136 
 912      79475A66 
 913 1b3f 7751440A 		.ascii	"wQD\012wWiiu0XK/CguwpcKzElKkDHGW58lkj1ySMp/kl7ahItj"
 913      77576969 
 913      7530584B 
 913      2F436775 
 913      7770634B 
 914 1b6f 7864374A 		.ascii	"xd7Jy7XEzGXjsq4AodQm\0120P/XLktn4IkSI6tZC0JCZLmFF+2"
 914      79375845 
 914      7A47586A 
 914      73713441 
 914      6F64516D 
 915 1b9f 5379322B 		.ascii	"Sy2+ZzeNziyrdl7efhu6N7G+/ijQlmF+Pw+CW\0125RZLZ9LxwB"
 915      5A7A654E 
 915      7A697972 
 915      646C3765 
 915      66687536 
 916 1bcf 4C354E61 		.ascii	"L5NaxUj7XNhld1f2xqjPToauQko4NiVT8Lv1FFsqGaPo7H6HA5\012"
 916      78556A37 
 916      584E686C 
 916      64316632 
 916      78716A50 
 917 1c02 2D2D2D2D 		.ascii	"-----END CERTIFICATE-----\012MIIDWTCCAkGgAwIBAgIUQH"
 917      2D454E44 
 917      20434552 
 917      54494649 
 917      43415445 
 918 1c32 37387561 		.ascii	"78uaL4Z/+sbNksUS6130liQwswDQYJKoZIhvcNAQEL\012BQAwT"
 918      4C345A2F 
 918      2B73624E 
 918      6B735553 
 918      36313330 
 919 1c62 54464C4D 		.ascii	"TFLMEkGA1UECwxCQW1hem9uIFdlYiBTZXJ2aWNlcyBPPUFtYXpv"
 919      456B4741 
 919      31554543 
 919      77784351 
 919      57316865 
 920 1c95 6269356A 		.ascii	"bi5jb20g\012SW5jLiBMPVNlYXR0bGUgU1Q9V2FzaGluZ3RvbiB"
 920      62323067 
 920      0A535735 
 920      6A4C6942 
 920      4D50564E 
 921 1cc5 44505656 		.ascii	"DPVVTMB4XDTIwMTEwNDExNTgw\012MloXDTQ5MTIzMTIzNTk1OV"
 921      544D4234 
 921      58445449 
 921      774D5445 
 921      774E4445 
 922 1cf5 6F77486A 		.ascii	"owHjEcMBoGA1UEAwwTQVdTIElvVCBDZXJ0aWZpY2F0\012ZTCCA"
 922      45634D42 
 922      6F474131 
 922      55454177 
 922      77545156 
 923 1d25 53497744 		.ascii	"SIwDQYJKoZIhvcNAQEBBQADggEPADCCAQoCggEBALr4UD6Fwr0+"
 923      51594A4B 
 923      6F5A4968 
 923      76634E41 
 923      51454242 
 924 1d58 586E3573 		.ascii	"Xn5sbfkT\012jWbN4hg2yAObJ0xX3DulES7obGvayo21DjbHmvB"
 924      62666B54 
 924      0A6A5762 
 924      4E346867 
 924      3279414F 
 925 1d88 38492F49 		.ascii	"8I/IlAU9CQV7cE+PyrUofACVn\0129NdZBra/cVeu5rkJnz5aQI"
 925      6C415539 
 925      43515637 
 925      63452B50 
 925      7972556F 
 926 1db8 69744A4D 		.ascii	"itJMnhw1pj0R8adrM2zNcsGfsh6dRaT7vN7ih1V1SY\012TRMlL"
 926      6E687731 
 926      706A3052 
 926      38616472 
 926      4D327A4E 
 927 1de8 2B593774 		.ascii	"+Y7t/zcYDKfcMq4lL4XTCPFnVKmBXbOfMZ99XHDrPhmJrF+Hu63"
 927      2F7A6359 
 927      444B6663 
 927      4D71346C 
 927      4C345854 
 928 1e1b 384D5A2F 		.ascii	"8MZ/yZYC\0123L2luJYDkm4y9e8Sqk9KPBseKTF+o+RagYuS72m"
 928      795A5943 
 928      0A334C32 
 928      6C754A59 
 928      446B6D34 
 929 1e4b 61644751 		.ascii	"adGQCCavTnJ6VG2VUg0Ts+OEl\012CZWdSuIlF9dFgpNqpEsgrl"
 929      43436176 
 929      546E4A36 
 929      56473256 
 929      55673054 
 930 1e7b 6F6E5A32 		.ascii	"onZ2ls1UlA5CQ933seTYFr4USmzz5yndv/qw/OZTsi\012cgsCA"
 930      6C733155 
 930      6C413543 
 930      51393333 
 930      73655459 
 931 1eab 77454141 		.ascii	"wEAAaNgMF4wHwYDVR0jBBgwFoAUP60IS7XhJvLf7th0zGlx0Y3j"
 931      614E674D 
 931      46347748 
 931      77594456 
 931      52306A42 
 932 1ede 2F487377 		.ascii	"/HswHQYD\012VR0OBBYEFBBlaTthzns7IN5OHx2hmXXMuOd/MAw"
 932      48515944 
 932      0A565230 
 932      4F424259 
 932      45464242 
 933 1f0e 47413155 		.ascii	"GA1UdEwEB/wQCMAAwDgYDVR0P\012AQH/BAQDAgeAMA0GCSqGSI"
 933      64457745 
 933      422F7751 
 933      434D4141 
 933      77446759 
 934 1f3e 6233     		.ascii	"b3"
 935 1f40 44514542 		.ascii	"DQEBCwUAA4IBAQCCdBZOl0lNAwCJX30oyRFidT+s\012Ui0/gsK"
 935      43775541 
 935      41344942 
 935      41514343 
 935      64425A4F 
 936 1f70 6D2B764A 		.ascii	"m+vJYAlyqpSuIBHgDmRSL9Q4xZmeW5za+QYa2JpE7UwZmBLhWTe"
 936      59416C79 
 936      71705375 
 936      49424867 
 936      446D5253 
 937 1fa3 6A4A3466 		.ascii	"jJ4ffX\012Z9Qiez6hi83Kvlcd/NIcDd58Uha1UuGCmmDbxdayC"
 937      66580A5A 
 937      39516965 
 937      7A366869 
 937      38334B76 
 938 1fd3 7857395A 		.ascii	"xW9Z6sqMBl0/1zcMXYDlW4e\012p38XFZDqVi7jANdCCmhOMaS5"
 938      3673714D 
 938      426C302F 
 938      317A634D 
 938      5859446C 
 939 2003 42536A4F 		.ascii	"BSjOcZMoAjoQbIJvtJkl3aKotp/eW4zAVWiwgU0S\012ffjAbyc"
 939      635A4D6F 
 939      416A6F51 
 939      62494A76 
 939      744A6B6C 
 940 2033 31427831 		.ascii	"1Bx12axNf2iHhQeI5EObdTr22C5xtGmbF2FEE9zhm+4mIjYMd7Y"
 940      3261784E 
 940      66326948 
 940      68516549 
 940      35454F62 
 941 2066 572B4566 		.ascii	"W+Ef1a\012vaHpzW3oXg4/H7tgpUq+TmFw9RgMm2EgE9ILCv64y"
 941      31610A76 
 941      6148707A 
 941      57336F58 
 941      67342F48 
 942 2096 53304E36 		.ascii	"S0N6sT0Ff046EJrPQSs\012-----END CERTIFICATE-----\012"
 942      73543046 
 942      66303436 
 942      454A7250 
 942      5153730A 
 943 20c4 4D494944 		.ascii	"MIIDWjCCAkKgAwIBAgIVAI4z/AixNlpJ1Qy/6S4tcZJfdNnQMA0"
 943      576A4343 
 943      416B4B67 
 943      41774942 
 943      41674956 
 944 20f7 47435371 		.ascii	"GCSqGSIb3DQEB\012CwUAME0xSzBJBgNVBAsMQkFtYXpvbiBXZW"
 944      47534962 
 944      33445145 
 944      420A4377 
 944      55414D45 
 945 2127 49675532 		.ascii	"IgU2VydmljZXMgTz1BbWF6b24uY29t\012IEluYy4gTD1TZWF0d"
 945      5679646D 
 945      6C6A5A58 
 945      4D67547A 
 945      31426257 
 946 2157 47786C49 		.ascii	"GxlIFNUPVdhc2hpbmd0b24gQz1VUzAeFw0yMDExMDQxMTI3\012"
 946      464E5550 
 946      56646863 
 946      32687062 
 946      6D643062 
 947 2187 4D7A6461 		.ascii	"MzdaFw00OTEyMzEyMzU5NTlaMB4xHDAaBgNVBAMME0FXUyBJb1Q"
 947      46773030 
 947      4F544579 
 947      4D7A4579 
 947      4D7A5535 
 948 21ba 67513256 		.ascii	"gQ2VydGlmaWNh\012dGUwggEiMA0GCSqGSIb3DQEBAQUAA4IBDw"
 948      7964476C 
 948      6D61574E 
 948      680A6447 
 948      55776767 
 949 21ea 41776767 		.ascii	"AwggEKAoIBAQDHgnVEO6nAXmydtX/5\012nmJCYY/yXf9HU/VkR"
 949      454B416F 
 949      49424151 
 949      4448676E 
 949      56454F36 
 950 221a 6F336358 		.ascii	"o3cX62dOffD1e/BUPz/bu0fZ2wTw2Q8m6HASHl+gBzRRuPY\012"
 950      3632644F 
 950      66664431 
 950      652F4255 
 950      507A2F62 
 951 224a 5478716B 		.ascii	"TxqkiJbTh5g944lWqNkTd4jq2ep+oz7IxkJwmfN69L+kARkjbwN"
 951      694A6254 
 951      68356739 
 951      34346C57 
 951      714E6B54 
 952 227d 6F576953 		.ascii	"oWiSynVOail3p\0120RiVNMAOJjXJCizYwXdT6Us/c7H2HYN2lA"
 952      796E564F 
 952      61696C33 
 952      700A3052 
 952      69564E4D 
 953 22ad 61704E47 		.ascii	"apNG6XByI6zuMxeoTX9AhxpTcutOJm\012sRz9UiEe4/5puA7ba"
 953      36584279 
 953      49367A75 
 953      4D78656F 
 953      54583941 
 954 22dd 67665646 		.ascii	"gfVFF6F1RWWcy9WgQ+QsHIb2KrVsDeAWQDfrObPBJmQGOc/\012"
 954      46364631 
 954      52575763 
 954      79395767 
 954      512B5173 
 955 230d 2F594753 		.ascii	"/YGSNDcqIw7A7G+CbdRLtLnbaUrAhBUWQBWy3JyE5UNwUSnoD+f"
 955      4E446371 
 955      49773741 
 955      37472B43 
 955      6264524C 
 956 2340 73487854 		.ascii	"sHxTocROPvWVA\012NReZAgMBAAGjYDBeMB8GA1UdIwQYMBaAFI"
 956      6F63524F 
 956      50765756 
 956      410A4E52 
 956      655A4167 
 957 2370 586F7431 		.ascii	"Xot10xqQT8E/iMyOd/a6hTf7HkMB0G\012A1UdDgQWBBQ+Ns4JK"
 957      30787151 
 957      5438452F 
 957      694D794F 
 957      642F6136 
 958 23a0 5A4B5849 		.ascii	"ZKXIFOD5/2CE/0zefSJtzAMBgNVHRMBAf8EAjAAMA4GA1Ud\012"
 958      464F4435 
 958      2F324345 
 958      2F307A65 
 958      66534A74 
 959 23d0 44774542 		.ascii	"DwEB/wQEAwIHgDANBgkqhkiG9w0BAQsFAAOCAQEACm3sRwE5pRw"
 959      2F775145 
 959      41774948 
 959      6744414E 
 959      42676B71 
 960 2403 2B4A426B 		.ascii	"+JBkj6RsWdwIf\012iklXPuEJzFL45Z4wYP0L/11XOgANYhIV1F"
 960      6A365273 
 960      57647749 
 960      660A696B 
 960      6C585075 
 961 2433 636C516D 		.ascii	"clQmeQuMPpxwDLJLTxAJNMKbcfqXdf\012FMdBJuKfuyrLW9YjU"
 961      6551754D 
 961      50707877 
 961      444C4A4C 
 961      5478414A 
 962 2463 55454B43 		.ascii	"UEKCKNxd+FqmzFS9UBZgb2p5SYJ/XdJlst2H4uAGp7Vlr5p\012"
 962      4B4E7864 
 962      2B46716D 
 962      7A465339 
 962      55425A67 
 963 2493 37427147 		.ascii	"7BqGzlD50FrxZjItMjcWZbKbNoGsYKrD0aGG33r5agNfUjT2vHj"
 963      7A6C4435 
 963      30467278 
 963      5A6A4974 
 963      4D6A6357 
 964 24c6 56337636 		.ascii	"V3v6aHBU3DVjp\012btWHtf8DAnvBusFdqzkjdxwlOYYvWG6mFI"
 964      61484255 
 964      3344566A 
 964      700A6274 
 964      57487466 
 965 24f6 367A6656 		.ascii	"6zfVy2GrjuTFW0vD3wYlfUf7zeXOXg\012XhN4liHt0JSEsphBQ"
 965      79324772 
 965      6A755446 
 965      57307644 
 965      3377596C 
 966 2526 42636330 		.ascii	"Bcc0YQSw5ueyagH+93FID0t8v1ROyq5ZyEkvp1+bhs2xw==\012"
 966      59515377 
 966      35756579 
 966      6167482B 
 966      39334649 
 967 2556 2D2D2D2D 		.ascii	"-----END CERTIFICATE-----\012MIIDWjCCAkKgAwIBAgIVAN"
 967      2D454E44 
 967      20434552 
 967      54494649 
 967      43415445 
 968 2586 39734552 		.ascii	"9sER24znBF5YNLmZa49GKDwOFJMA0GCSqGSIb3DQEB\012CwUAM"
 968      32347A6E 
 968      42463559 
 968      4E4C6D5A 
 968      61343947 
 969 25b6 45307853 		.ascii	"E0xSzBJBgNVBAsMQkFtYXpvbiBXZWIgU2VydmljZXMgTz1BbWF6"
 969      7A424A42 
 969      674E5642 
 969      41734D51 
 969      6B467459 
 970 25e9 62323475 		.ascii	"b24uY29t\012IEluYy4gTD1TZWF0dGxlIFNUPVdhc2hpbmd0b24"
 970      59323974 
 970      0A49456C 
 970      75597934 
 970      67544431 
 971 2619 67517A31 		.ascii	"gQz1VUzAeFw0yMDExMDQxMDM2\012MzlaFw00OTEyMzEyMzU5NT"
 971      56557A41 
 971      65467730 
 971      794D4445 
 971      784D4451 
 972 2649 6C614D42 		.ascii	"laMB4xHDAaBgNVBAMME0FXUyBJb1QgQ2VydGlmaWNh\012dGUwg"
 972      34784844 
 972      41614267 
 972      4E564241 
 972      4D4D4530 
 973 2679 6745694D 		.ascii	"gEiMA0GCSqGSIb3DQEBAQUAA4IBDwAwggEKAoIBAQDIlipWnRaK"
 973      41304743 
 973      53714753 
 973      49623344 
 973      51454241 
 974 26ac 484B3459 		.ascii	"HK4YmDRn\012pGH5FrHBc643rBpbibqKn3bQc76q2N98c4rqkWS"
 974      6D44526E 
 974      0A704748 
 974      35467248 
 974      42633634 
 975 26dc 70573576 		.ascii	"pW5vetldoGkEmK22H2yxU7pjC\012job6FuSgcU/vwbCMeqFsDU"
 975      65746C64 
 975      6F476B45 
 975      6D4B3232 
 975      48327978 
 976 270c 4B7A3554 		.ascii	"Kz5T"
 977 2710 6F41345A 		.ascii	"oA4ZQyUPcqGzC/1tfm0/4uqUX4Dg0HpA4gYN88\0126FAqbSXGV"
 977      51795550 
 977      6371477A 
 977      432F3174 
 977      666D302F 
 978 2740 6F692B72 		.ascii	"oi+rXqj+MiJwuWBl7Q8+9+G2VkEp4HiND3tY/j9o4YYDNgzAde2"
 978      58716A2B 
 978      4D694A77 
 978      7557426C 
 978      3751382B 
 979 2773 37454A50 		.ascii	"7EJP\012gnyrb4CqtGgO2TBTOnGYudutNVnDT/NPuIuT+SC5I0P"
 979      0A676E79 
 979      72623443 
 979      71744767 
 979      4F325442 
 980 27a3 304C596E 		.ascii	"0LYn4Als8L+PSy3V9J0SQ\01200bsDKZ/nRna+CqIdnSS3g0QFN"
 980      34416C73 
 980      384C2B50 
 980      53793356 
 980      394A3053 
 981 27d3 494D4D51 		.ascii	"IMMQQE0IDWKifq8m+1Tm+8Eu5a4/6AAtRH+QzX\012Sn5BAgMBA"
 981      51453049 
 981      44574B69 
 981      6671386D 
 981      2B31546D 
 982 2803 41476A59 		.ascii	"AGjYDBeMB8GA1UdIwQYMBaAFMXKReO2HmJrxI/trLHog1OXQ9C6"
 982      4442654D 
 982      42384741 
 982      31556449 
 982      7751594D 
 983 2836 4D423047 		.ascii	"MB0G\012A1UdDgQWBBTcbA9jqryRTR9DfDO2F5pyW6g2XTAMBgN"
 983      0A413155 
 983      64446751 
 983      57424254 
 983      63624139 
 984 2866 5648524D 		.ascii	"VHRMBAf8EAjAAMA4GA1Ud\012DwEB/wQEAwIHgDANBgkqhkiG9w"
 984      42416638 
 984      45416A41 
 984      414D4134 
 984      47413155 
 985 2896 30424151 		.ascii	"0BAQsFAAOCAQEADtXtHUDO5+eIWGOy68k4uB55\012nJAXnSBt0"
 985      73464141 
 985      4F434151 
 985      45414474 
 985      58744855 
 986 28c6 57336567 		.ascii	"W3egGdEEmWoqeIG5O0ldxAWnjVOiD0RFqd/UDGhnsHSq9ijyn3r"
 986      47644545 
 986      6D576F71 
 986      65494735 
 986      4F306C64 
 987 28f9 52423947 		.ascii	"RB9G\012amgkf4/XqvgfP1XQLBfjF8Z1R9jO3EPOhOiFVopEvlZ"
 987      0A616D67 
 987      6B66342F 
 987      58717667 
 987      66503158 
 988 2929 4B426569 		.ascii	"KBei3EkfOfiqiluWU6r0d\012fXvoyYIqrxNsBkqNaBnM8zFM2e"
 988      33456B66 
 988      4F666971 
 988      696C7557 
 988      55367230 
 989 2959 414D4861 		.ascii	"AMHavbT9BhFe+TNoTiDOPymvopTdglWEzS5CgA\012oh/rMEq+j"
 989      76625439 
 989      42684665 
 989      2B544E6F 
 989      5469444F 
 990 2989 5A577057 		.ascii	"ZWpWl5YP35q+uQw5a9UWxiIMMgUgcu8SvOJErWFep7h6VO2gv0d"
 990      6C355950 
 990      3335712B 
 990      75517735 
 990      61395557 
 991 29bc 502B324A 		.ascii	"P+2J\012331V6aqS6Lr6qX3fwaty4xYtjqVLR8A0fH46kb4aFaK"
 991      0A333331 
 991      56366171 
 991      53364C72 
 991      36715833 
 992 29ec 76742F2B 		.ascii	"vt/+P/DvqxhOCXBlzOw==\012-----END CERTIFICATE-----\012"
 992      502F4476 
 992      7178684F 
 992      4358426C 
 992      7A4F773D 
 993 2a1c 00       		.ascii	"\000"
 994              		.section	.rodata.clientcredentialCLIENT_PRIVATE_KEY_LENGTH,"a",%progbits
 995              		.align	2
 998              	clientcredentialCLIENT_PRIVATE_KEY_LENGTH:
 999 0000 F4390000 		.word	14836
 1000              		.section	.rodata.clientcredentialCLIENT_PRIVATE_KEY_PEM,"a",%progbits
 1001              		.set	.LANCHOR0,. + 0
 1004              	clientcredentialCLIENT_PRIVATE_KEY_PEM:
 1005 0000 2D2D2D2D 		.ascii	"-----BEGIN RSA PRIVATE KEY-----\012MIIEowIBAAKCAQEA"
 1005      2D424547 
 1005      494E2052 
 1005      53412050 
 1005      52495641 
 1006 0030 70643144 		.ascii	"pd1DAeLiqb6q0ou3nGhIcF2ZhQllOjByY69olNH1oRD/7/2W\012"
 1006      41654C69 
 1006      71623671 
 1006      306F7533 
 1006      6E476849 
 1007 0061 65345577 		.ascii	"e4UweqS20B0hvU7PNCHpwSo4+OJKySvTFI5XQvXoPRp6icbLLPq"
 1007      65715332 
 1007      30423068 
 1007      76553750 
 1007      4E434870 
 1008 0094 4B524266 		.ascii	"KRBfkwOGHQN/U\012B6YeogQQxyJ8PuAVKQZO4ml2AI5MG3MFCR"
 1008      6B774F47 
 1008      48514E2F 
 1008      550A4236 
 1008      59656F67 
 1009 00c4 534F2B54 		.ascii	"SO+TXVeYRUOUdhpvZXD4i6Qx116EcQ\012L1+gGLmO4rxzhb/sX"
 1009      58566559 
 1009      52554F55 
 1009      64687076 
 1009      5A584434 
 1010 00f4 77567647 		.ascii	"wVvGe3b7EFT3Cnr7xFqPy+DiNWig76q6vo1PD8L7fsSAXGG\012"
 1010      65336237 
 1010      45465433 
 1010      436E7237 
 1010      78467150 
 1011 0124 4575617A 		.ascii	"EuazPwmrnsrQCE78TQxrW81qjWMtencc4N6yBH9DDLgs+wYtw6P"
 1011      50776D72 
 1011      6E737251 
 1011      43453738 
 1011      54517872 
 1012 0157 694D5068 		.ascii	"iMPhL6jiPpHz0\012e12ssLa8e1FMfL4TuB4ncFckW4Mpc3sh/o"
 1012      4C366A69 
 1012      5070487A 
 1012      300A6531 
 1012      3273734C 
 1013 0187 506D4977 		.ascii	"PmIwIDAQABAoIBADG4mGOyXfxAmfiv\012xYTvhfeZN3I4FM5Sw"
 1013      49444151 
 1013      4142416F 
 1013      49424144 
 1013      47346D47 
 1014 01b7 35653664 		.ascii	"5e6d4FVR2rXK8IHpNq2XIgHZH4SnZCgVWDtYaN0QsvpGj4g\012"
 1014      34465652 
 1014      3272584B 
 1014      38494870 
 1014      4E713258 
 1015 01e7 45784377 		.ascii	"ExCwctwx10Kp813l5/Y9zMEI4Jwpf2AlOOxqEfjDezwWzGQUzIM"
 1015      63747778 
 1015      31304B70 
 1015      3831336C 
 1015      352F5939 
 1016 021a 567A7750 		.ascii	"VzwP0VVlpTstT\012uYi1Tv7J8oqQ7qaVDWL9qa+QbzW63ZhRvy"
 1016      3056566C 
 1016      70547374 
 1016      540A7559 
 1016      69315476 
 1017 024a 537A5845 		.ascii	"SzXEVcEZP8bbnVy/k+9+RK4J3by4Ww\0126biU4uYDr6rF/88hk"
 1017      5663455A 
 1017      50386262 
 1017      6E56792F 
 1017      6B2B392B 
 1018 027a 31354459 		.ascii	"15DYrHc8vAvOWMyHstaIowJzRkxZY8TLlGRuGyVvUpwV4dX\012"
 1018      72486338 
 1018      7641764F 
 1018      574D7948 
 1018      73746149 
 1019 02aa 56555669 		.ascii	"VUViJQ9WczAKtcyfr6cO0t6xX3dIhKGE/RSfnvLiRR4nFBd04wu"
 1019      4A513957 
 1019      637A414B 
 1019      74637966 
 1019      7236634F 
 1020 02dd 63354C41 		.ascii	"c5LA6A11GsbOR\012kf1QQKECgYEAzo51ihav2qBGQjZ9bRTJK+"
 1020      36413131 
 1020      4773624F 
 1020      520A6B66 
 1020      3151514B 
 1021 030d 44456C78 		.ascii	"DElxn514LQVOKndDq5mCxUxMSivWzb\01234vjPVJzFefDoyW/y"
 1021      6E353134 
 1021      4C51564F 
 1021      4B6E6444 
 1021      71356D43 
 1022 033d 2B55552F 		.ascii	"+UU/46H//7uOdGP1dnrGsSa/LNmFdLatxEN4y7h3GQKZDcD\012"
 1022      3436482F 
 1022      2F37754F 
 1022      64475031 
 1022      646E7247 
 1023 036d 3251625A 		.ascii	"2QbZvkhqFJo/2lOuqYTEBhkGlT8d5QpL8OVpAuGKz1KSYv1EtQt"
 1023      766B6871 
 1023      464A6F2F 
 1023      326C4F75 
 1023      71595445 
 1024 03a0 6175726B 		.ascii	"aurkCgYEAzZE7\012uwVlCn9aKgljnnQLmntz1LMdUAGORVjItd"
 1024      43675945 
 1024      417A5A45 
 1024      370A7577 
 1024      566C436E 
 1025 03d0 3442307A 		.ascii	"4B0zwTaBSg1wBnLeKcd8eb5MHHCUq4\012w5FjIAzPoYaaEY5G4"
 1025      77546142 
 1025      53673177 
 1025      426E4C65 
 1025      4B636438 
 1026 0400 71446B71 		.ascii	"qDkq5e3UTU1OpS7OGCsAO5TzA6Ubb4FjxrkBSLnUUl01tsk\012"
 1026      35653355 
 1026      5455314F 
 1026      7053374F 
 1026      47437341 
 1027 0430 34767661 		.ascii	"4vva/fGBZjhDUwi6gG2/OX8ZoqDt3qSpzf2VCbsCgYBP/3CaaKr"
 1027      2F664742 
 1027      5A6A6844 
 1027      55776936 
 1027      6747322F 
 1028 0463 322B3366 		.ascii	"2+3f6kOwG4TQA\012oG7DLrZKt0lEdvvv0garXw/9nUKCJrUJYT"
 1028      366B4F77 
 1028      47345451 
 1028      410A6F47 
 1028      37444C72 
 1029 0493 35444D37 		.ascii	"5DM7mK1FY6y5X6u+BkEamuhedx0S3p\0123xplJZv5Hun8rcszd"
 1029      6D4B3146 
 1029      59367935 
 1029      5836752B 
 1029      426B4561 
 1030 04c3 35467657 		.ascii	"5FvWWr0VnKH2Z7N4Q9X2OfszsjIH/zXfqoEypB4IRfM6y36\012"
 1030      57723056 
 1030      6E4B4832 
 1030      5A374E34 
 1030      51395832 
 1031 04f3 51483970 		.ascii	"QH9pNDz0isBTQk/n5lvfUQKBgEOCpd4myGcpKeBSUxAPxlvGnWT"
 1031      4E447A30 
 1031      69734254 
 1031      516B2F6E 
 1031      356C7666 
 1032 0526 474B694E 		.ascii	"GKiNDT4kAvnHT\0125j+MJEdzNttFO517Ja3EtTLsXMR1cLZxgd"
 1032      4454346B 
 1032      41766E48 
 1032      540A356A 
 1032      2B4D4A45 
 1033 0556 39647462 		.ascii	"9dtbazcNfBJRB6jH66Ba86zS9e9xlt\012zi9EFesXArIDzOmRi"
 1033      617A634E 
 1033      66424A52 
 1033      42366A48 
 1033      36364261 
 1034 0586 4438546C 		.ascii	"D8TlmpAuIlzUOrmkaYCcV+zrJCRdkaFRF7Kmg2p0lTjOQz4\012"
 1034      6D704175 
 1034      496C7A55 
 1034      4F726D6B 
 1034      61594363 
 1035 05b6 63634450 		.ascii	"ccDPAoGBAJfUoPBD1XnJrxaw2fXEaLQh+oJtpmwbn78gbZgCImP"
 1035      416F4742 
 1035      414A6655 
 1035      6F504244 
 1035      31586E4A 
 1036 05e9 31573069 		.ascii	"1W0ithOnbRBXu\0122TeRVOhZFqxr9tL9prhKgcYtVVHyoxe9DV"
 1036      74684F6E 
 1036      62524258 
 1036      750A3254 
 1036      6552564F 
 1037 0619 2B575361 		.ascii	"+WSaL6rRSSpLuUFjdoi7zPyXvKqSkO\012RjSAgbfrVwQKVPwFh"
 1037      4C367252 
 1037      5353704C 
 1037      7555466A 
 1037      646F6937 
 1038 0649 44453761 		.ascii	"DE7awZyqKhWTa0lBza/uYzIbm6hcwTQNKT5\012-----END RSA"
 1038      775A7971 
 1038      4B685754 
 1038      61306C42 
 1038      7A612F75 
 1039 0679 20505249 		.ascii	" PRIVATE KEY-----\012MIIEpAIBAAKCAQEAvy4jBWey1JAiK0"
 1039      56415445 
 1039      204B4559 
 1039      2D2D2D2D 
 1039      2D0A4D49 
 1040 06a9 78706547 		.ascii	"xpeG9gBDy+G3NQ0VXK9yOM+MRaUF0wlrx9\012kGYkBR/31An0B"
 1040      39674244 
 1040      792B4733 
 1040      4E513056 
 1040      584B3979 
 1041 06d9 7A493652 		.ascii	"zI6RLqO0Ur68axyKmZ+OjbMVOvEf+lSmXS9kTZSoSb0Dn4lnVBk"
 1041      4C714F30 
 1041      55723638 
 1041      6178794B 
 1041      6D5A2B4F 
 1042 070c 0A794270 		.ascii	"\012yBpYjw74NMn3wWtxh16dxGpxD0RuevhENpvDVhSOXILEJNc"
 1042      596A7737 
 1042      344E4D6E 
 1042      33775774 
 1042      78683136 
 1043 073c 2B315946 		.ascii	"+1YFIRCGNlVZXJuIC\012I4aZIKvf1dzH3f1GDdx8Be2+RUTxC4"
 1043      49524347 
 1043      4E6C565A 
 1043      584A7549 
 1043      430A4934 
 1044 076c 51623771 		.ascii	"Qb7qC1iiv0BpfmKa+2fboB8xQKjV3aFVJq\012JyBpEsq9HthOp"
 1044      43316969 
 1044      76304270 
 1044      666D4B61 
 1044      2B326662 
 1045 079c 32686873 		.ascii	"2hhsI3ADwY7d4o8vXgLgdesQcpMvFfPMUI/aK8fUfl5DtjjlMuQ"
 1045      49334144 
 1045      77593764 
 1045      346F3876 
 1045      58674C67 
 1046 07cf 0A       		.ascii	"\012"
 1047 07d0 58573271 		.ascii	"XW2qAlk0kZqajdtCI0goL/4Soz3cR2fPt7OMyQIDAQABAoIBAEw"
 1047      416C6B30 
 1047      6B5A7161 
 1047      6A647443 
 1047      4930676F 
 1048 0803 3652695A 		.ascii	"6RiZ6kXhlu+oN\012vqQRrHQkEBz73saI8bOWzjfGesg+UAhaQa"
 1048      366B5868 
 1048      6C752B6F 
 1048      4E0A7671 
 1048      51527248 
 1049 0833 71597631 		.ascii	"qYv1X3yCYYjd9srIUI6bcTsXk5LBAx\01267SkctaNZz0lOBUN0"
 1049      58337943 
 1049      59596A64 
 1049      39737249 
 1049      55493662 
 1050 0863 69516252 		.ascii	"iQbR9kPohJBRBg0nOqYbqUj792Ehi/t+kdid3+AfXH79B09\012"
 1050      396B506F 
 1050      684A4252 
 1050      4267306E 
 1050      4F715962 
 1051 0893 376C7A6A 		.ascii	"7lzjwIALFDRYw4J4/Im+0aSwyDY5lXxnjMvX6jATKzSCvObXJHj"
 1051      7749414C 
 1051      46445259 
 1051      77344A34 
 1051      2F496D2B 
 1052 08c6 576C6454 		.ascii	"WldTltaTkvh0e\012IiyLw0VP1M6l7lrv9xhFQXQSdpnA62H/Ou"
 1052      6C746154 
 1052      6B766830 
 1052      650A4969 
 1052      794C7730 
 1053 08f6 524E632F 		.ascii	"RNc/1+HJi+5Me7RMguZIQdSj5vEVo1\012ARKERGtqA5KXgkmUZ"
 1053      312B484A 
 1053      692B354D 
 1053      6537524D 
 1053      67755A49 
 1054 0926 32615162 		.ascii	"2aQbehOqiBDvlZUovtffj+NMQkQw4hfce7HZfIIWJLXOfyp\012"
 1054      65684F71 
 1054      69424476 
 1054      6C5A556F 
 1054      76746666 
 1055 0956 75325068 		.ascii	"u2PhGH0CgYEA3kANqtZm/Ec+FChh+93TLBo/VT5q3pRBjM+QQIH"
 1055      47483043 
 1055      67594541 
 1055      336B414E 
 1055      71745A6D 
 1056 0989 6A535979 		.ascii	"jSYywqQdNkFya\012QOb5GP7acy0queetuNbkgo2ZDhRdC7jH9X"
 1056      77715164 
 1056      4E6B4679 
 1056      610A514F 
 1056      62354750 
 1057 09b9 39667849 		.ascii	"9fxIoVEqAxlPnKd9ezKqVWJYMG6/k9\012F1QBilCPh40DnK3yI"
 1057      6F564571 
 1057      41786C50 
 1057      6E4B6439 
 1057      657A4B71 
 1058 09e9 45484758 		.ascii	"EHGXUCN72k05a1ybdLmxCU2mgFuLI0RGPEETc8CgYEA3DY9\012"
 1058      55434E37 
 1058      326B3035 
 1058      61317962 
 1058      644C6D78 
 1059 0a19 37637531 		.ascii	"7cu17zOGyNR2MDdW7a4a5YSnEVDsKcw1Om/srG7H0IXXk1OFpuJ"
 1059      377A4F47 
 1059      794E5232 
 1059      4D446457 
 1059      37613461 
 1060 0a4c 51457235 		.ascii	"QEr5w/tFoBuxI\012bXIgpJahoX5N3iV6eYBlECL3WPw/bkEm4M"
 1060      772F7446 
 1060      6F427578 
 1060      490A6258 
 1060      4967704A 
 1061 0a7c 4B686D69 		.ascii	"Khmie9gwENXAWv7zhyo9Ijgo8l8pmB\012Ak4zR7YSn84VJsXUv"
 1061      65396777 
 1061      454E5841 
 1061      5776377A 
 1061      68796F39 
 1062 0aac 4F2F4834 		.ascii	"O/H4zXGQqFc0hsdPFRt+ecCgYAbxweuRXPDrifNHyr37saY\012"
 1062      7A584751 
 1062      71466330 
 1062      68736450 
 1062      4652742B 
 1063 0adc 36594C6D 		.ascii	"6YLm5ZE31nHG5p5R4aoFpEbkKVyBYYGKARQ7Eoc9A/UmHRWyV3F"
 1063      355A4533 
 1063      316E4847 
 1063      35703552 
 1063      34616F46 
 1064 0b0f 682B3836 		.ascii	"h+86YWuUyNNsR\012DOVsTBHMLSdlRj8O8W+cMePtdk3kKld/Ve"
 1064      59577555 
 1064      794E4E73 
 1064      520A444F 
 1064      56735442 
 1065 0b3f 6D485877 		.ascii	"mHXwBBYdeEupzbeT0QpKPYu154IlB9\01293EOLNSBNRKPEOaFJ"
 1065      42425964 
 1065      65457570 
 1065      7A626554 
 1065      3051704B 
 1066 0b6f 6F4A794D 		.ascii	"oJyMwKBgQDIYx+lpYswWW4ckKHgLGuRK67UDwtMiZvuSSJi\012"
 1066      774B4267 
 1066      51444959 
 1066      782B6C70 
 1066      59737757 
 1067 0b9f 772F6A56 		.ascii	"w/jVzJVNno3WRdnITAbbl6sRZpNIQXmDBqjHvT7lyx6muOojaIA"
 1067      7A4A564E 
 1067      6E6F3357 
 1067      52646E49 
 1067      54416262 
 1068 0bd2 4F32424C 		.ascii	"O2BLHSfuao/Tx\0128IrH0cP1U17Jz28SvAYuJwojQ4ofoiowY+"
 1068      48536675 
 1068      616F2F54 
 1068      780A3849 
 1068      72483063 
 1069 0c02 4C734C62 		.ascii	"LsLbXy78B1oO5+45+8lXGNrnLdysim\0123pmZHwKBgQCzZgiT5"
 1069      58793738 
 1069      42316F4F 
 1069      352B3435 
 1069      2B386C58 
 1070 0c32 4E4B5669 		.ascii	"NKViAQStcGSZxbsDXBSdon9P8wubfD+r9M4dUCzs0tR61n/\012"
 1070      41515374 
 1070      6347535A 
 1070      78627344 
 1070      58425364 
 1071 0c62 6D6D554C 		.ascii	"mmULvaWN+JsNep5+L8IB5GhSaI1dPtLSI6qv1DTve2aj6rYqKDC"
 1071      7661574E 
 1071      2B4A734E 
 1071      6570352B 
 1071      4C384942 
 1072 0c95 4B497947 		.ascii	"KIyG0q+5piy0z\012Toq1scLs1wGhaLghETRn3ixzUy+ZKSY0N9"
 1072      30712B35 
 1072      70697930 
 1072      7A0A546F 
 1072      71317363 
 1073 0cc5 79344268 		.ascii	"y4Bhhd0tvQtooeh1Aqeg==\012-----END RSA PRIVATE KEY-"
 1073      68643074 
 1073      7651746F 
 1073      6F656831 
 1073      41716567 
 1074 0cf5 2D2D2D2D 		.ascii	"----\012MIIEowIBAAKCAQEAx2CvqjMn3cB1dmfroVYs6Yc69FC"
 1074      0A4D4949 
 1074      456F7749 
 1074      4241414B 
 1074      43415145 
 1075 0d25 66494834 		.ascii	"fIH4JeVtAXlBLCF/J0dhO\012RNHqxnWzL9Ti33Q9xI6NwG3TRp"
 1075      4A655674 
 1075      41586C42 
 1075      4C43462F 
 1075      4A306468 
 1076 0d55 4A676248 		.ascii	"JgbHfNw7XxZ1zS43r5baCiw+04vhX3CMOTv+Mj\012ZKhLLbJpP"
 1076      664E7737 
 1076      58785A31 
 1076      7A533433 
 1076      72356261 
 1077 0d85 3577582B 		.ascii	"5wX+9Izl3JFzW6AX4HG5FKmIofO+CB5ejcK3ilMSZwPmST6xFi2"
 1077      39497A6C 
 1077      334A467A 
 1077      57364158 
 1077      34484735 
 1078 0db8 556D5439 		.ascii	"UmT9\012ndq0CdaZfmnK+DGOxJL1e8+KLbZJMxuRaEbi/pr4nUN"
 1078      0A6E6471 
 1078      30436461 
 1078      5A666D6E 
 1078      4B2B4447 
 1079 0de8 4A616452 		.ascii	"JadRKao4DkRzQOhUXCgzc\012hZcmEUB1jG0jpUS//u4jUjA1RZ"
 1079      4B616F34 
 1079      446B527A 
 1079      514F6855 
 1079      5843677A 
 1080 0e18 6F50366D 		.ascii	"oP6mncJAkFhBKepul5K3fFPgyzO16spAPaP8Y0\0123Qpm0KJU+"
 1080      6E634A41 
 1080      6B466842 
 1080      4B657075 
 1080      6C354B33 
 1081 0e48 34486F4B 		.ascii	"4HoKDjdAPQZvdhyKeuKed+wl9iPKQIDAQABAoIBAFJRvlXkpzos"
 1081      446A6441 
 1081      50515A76 
 1081      6468794B 
 1081      65754B65 
 1082 0e7b 77354C75 		.ascii	"w5Lu\01212AWx5ZoKlRDkWAGCf1cSthmCITdn+OPjsllbq0gXaq"
 1082      0A313241 
 1082      5778355A 
 1082      6F4B6C52 
 1082      446B5741 
 1083 0eab 4C474630 		.ascii	"LGF0wjmxAe5CPB+OkfkFq\012ub9ruM93iO85kBDOeUWyBXKeeQ"
 1083      776A6D78 
 1083      41653543 
 1083      50422B4F 
 1083      6B666B46 
 1084 0edb 2F615348 		.ascii	"/aSH+61ZsyzU+B0WjdFx33LSwDl4R5cnF8kNUm\012tsedETxrl"
 1084      2B36315A 
 1084      73797A55 
 1084      2B423057 
 1084      6A644678 
 1085 0f0b 42783836 		.ascii	"Bx863TM0l22HM6bcRpt15P7xKkWXKXrxfTGePtv1XpZqfWay6/b"
 1085      33544D30 
 1085      6C323248 
 1085      4D366263 
 1085      52707431 
 1086 0f3e 7636354F 		.ascii	"v65O\012i9u+k1kSuiS8Ral+M563JKQHBkRzIiwzQZCfXaSfsJl"
 1086      0A693975 
 1086      2B6B316B 
 1086      53756953 
 1086      3852616C 
 1087 0f6e 55313863 		.ascii	"U18cFXJDXhFmZ/b4LHd0/\012K7XArVTlfeDKOTRmyAcv6J7m/p"
 1087      46584A44 
 1087      5868466D 
 1087      5A2F6234 
 1087      4C486430 
 1088 0f9e 712B     		.ascii	"q+"
 1089 0fa0 78647052 		.ascii	"xdpRtHr/sMlSAJ7f9fE40gTBEfYZZd/8VY8W\0123xaxvPECgYE"
 1089      7448722F 
 1089      734D6C53 
 1089      414A3766 
 1089      39664534 
 1090 0fd0 4137626B 		.ascii	"A7bkgBiFVK0ea2fj5rBhVQPPBq5qJVj++J0nE/y5BNEH0Wp0Icl"
 1090      67426946 
 1090      564B3065 
 1090      6132666A 
 1090      35724268 
 1091 1003 554E0A48 		.ascii	"UN\012HOx4DpaAW0CctjjJ5eMzEXCfWI9EAVeo3NDrYg4mjaLZf"
 1091      4F783444 
 1091      70614157 
 1091      30436374 
 1091      6A6A4A35 
 1092 1033 32474E35 		.ascii	"2GN5G6bvNtDY/mb1PUW\012gEGS/tZbBIDmpH9dguC5mQf7wKR7"
 1092      47366276 
 1092      4E744459 
 1092      2F6D6231 
 1092      5055570A 
 1093 1063 74735366 		.ascii	"tsSfEGJN7v/QWNGCL2qb+HJl3FUCgYEA1rTY\012KU7y3aXbP8H"
 1093      45474A4E 
 1093      37762F51 
 1093      574E4743 
 1093      4C327162 
 1094 1093 656D7A43 		.ascii	"emzC5TL6wdOe6k9ZI5O+goPuWEpIYbbyoJYXfsvT49zXIP4t5nw"
 1094      35544C36 
 1094      77644F65 
 1094      366B395A 
 1094      49354F2B 
 1095 10c6 4A320A6B 		.ascii	"J2\012kwg34I4mNK22zv4ZV3XpgJJXcqLPcBcOC0ipannzp8uWH"
 1095      77673334 
 1095      49346D4E 
 1095      4B32327A 
 1095      76345A56 
 1096 10f6 4833416E 		.ascii	"H3AnvMIvCd8HdAq6buu\012yGasI/i98r200BLOxw0kGjtKEchU"
 1096      764D4976 
 1096      43643848 
 1096      64417136 
 1096      6275750A 
 1097 1126 74323553 		.ascii	"t25SmXgPu4UCgYEAhnMvo4fyrZnAAQwJ2cWh\012Yiz7Gl0606c"
 1097      6D586750 
 1097      75345543 
 1097      67594541 
 1097      686E4D76 
 1098 1156 566D7737 		.ascii	"Vmw7j9hdpFW9ADofGITPtSLCNbmK8kd/HQmB4ACcx2OlDlkjhA4"
 1098      6A396864 
 1098      70465739 
 1098      41446F66 
 1098      47495450 
 1099 1189 6C610A6E 		.ascii	"la\012nhkjJ8AtGepC7QJ1x/6u4m94e/DOq/E6Gqv7wVnm/HMS/"
 1099      686B6A4A 
 1099      38417447 
 1099      65704337 
 1099      514A3178 
 1100 11b9 334A7870 		.ascii	"3JxpvYGwoB7aIce2U33\012UMLopQXWBoXoBX1cXXYGGkkCgYBP"
 1100      76594777 
 1100      6F423761 
 1100      49636532 
 1100      5533330A 
 1101 11e9 78456736 		.ascii	"xEg6sJYSOrhF66TkSynMlVvBUwZCPm4+f7hR\012lqaep6BjxJ9"
 1101      734A5953 
 1101      4F726846 
 1101      3636546B 
 1101      53796E4D 
 1102 1219 44735954 		.ascii	"DsYT2W4TTcyu+T/cTWDrtTTRVPPp8v70XEdggYjIqDjRm5o3iuu"
 1102      32573454 
 1102      54637975 
 1102      2B542F63 
 1102      54574472 
 1103 124c 34410A79 		.ascii	"4A\012yzIF2ODpCf3u/9k8NFaecJzwBpKq24uH8H0rsBIByPEQD"
 1103      7A494632 
 1103      4F447043 
 1103      6633752F 
 1103      396B384E 
 1104 127c 4B79397A 		.ascii	"Ky9zugGxtgx2xd+PoJ5\012ed1+cQKBgH7oHkldxkvkxJwxaSWi"
 1104      75674778 
 1104      74677832 
 1104      78642B50 
 1104      6F4A350A 
 1105 12ac 61646A71 		.ascii	"adjqDnKIqyGFPLuyvyUHQmrvQx0D8pQPq7I/\012eSnERw0je4+"
 1105      446E4B49 
 1105      71794746 
 1105      504C7579 
 1105      76795548 
 1106 12dc 684E4E6F 		.ascii	"hNNo8Onez6/s5zU6x7AgSb789iwd4XpWU3o0iXCpV3TD078zsTG"
 1106      384F6E65 
 1106      7A362F73 
 1106      357A5536 
 1106      78374167 
 1107 130f 366A0A73 		.ascii	"6j\012sib1/zNMRYnWIOSL8xc1MB1uOrurJTdWRMrqyojafG2eZ"
 1107      6962312F 
 1107      7A4E4D52 
 1107      596E5749 
 1107      4F534C38 
 1108 133f 786F3932 		.ascii	"xo92PQT\012-----END RSA PRIVATE KEY-----\012MIIEowI"
 1108      5051540A 
 1108      2D2D2D2D 
 1108      2D454E44 
 1108      20525341 
 1109 136c 4241414B 		.ascii	"BAAKCAQEAyHDAaf667IdUUPQhYXcOZojKklSUWtlCAiqPk7uVR1"
 1109      43415145 
 1109      41794844 
 1109      41616636 
 1109      36374964 
 1110 139f 31423677 		.ascii	"1B6wcC\012RSIuzvtElv3KWmQK88Z4bOrjflD4zHQd6Y8GwMRGi"
 1110      63430A52 
 1110      5349757A 
 1110      7674456C 
 1110      76334B57 
 1111 13cf 49475634 		.ascii	"IGV4N4iFGzeW56qu+hx6KzH\012DhzQ1ErB44IuQIVy23gjJSc/"
 1111      4E346946 
 1111      477A6557 
 1111      35367175 
 1111      2B687836 
 1112 13ff 4D646C6C 		.ascii	"Mdlly/jC9oXRMOay7fLOGTBWHRqeQYw4aTjidy+J\012u2WggZg"
 1112      792F6A43 
 1112      396F5852 
 1112      4D4F6179 
 1112      37664C4F 
 1113 142f 68684D32 		.ascii	"hhM2CaeQydOV68yxaeqLvzbN4cddpKtpnCefX8yjEIqSDTEnRpc"
 1113      43616551 
 1113      79644F56 
 1113      36387978 
 1113      6165714C 
 1114 1462 7962735A 		.ascii	"ybsZPH\012PL4MyuKJL9ua3ajNH/urRgONP++4CqD8z8I8B+hnL"
 1114      50480A50 
 1114      4C344D79 
 1114      754B4A4C 
 1114      39756133 
 1115 1492 746D6D50 		.ascii	"tmmPz4PVI0zOvm8bvDAjKir\01240XokZOaFXaLgx0MQyydaKee"
 1115      7A345056 
 1115      49307A4F 
 1115      766D3862 
 1115      7644416A 
 1116 14c2 2F4A386E 		.ascii	"/J8nDeDW7KlD/QIDAQABAoIBABckpaLXbZ/H1F1w\012grYtN/V"
 1116      44654457 
 1116      374B6C44 
 1116      2F514944 
 1116      41514142 
 1117 14f2 777A2B72 		.ascii	"wz+rrZyHCOhPj9CX7n7XYt7a6XXG8C6mMa5P/g7DCIl2ZSehRiq"
 1117      725A7948 
 1117      434F6850 
 1117      6A394358 
 1117      376E3758 
 1118 1525 6A594570 		.ascii	"jYEpIQ\012yi9ge0ggoYA7biHDpC21kEsF2/LMWPKjmGwxuY75f"
 1118      49510A79 
 1118      69396765 
 1118      3067676F 
 1118      59413762 
 1119 1555 722B5646 		.ascii	"r+VFWAPyH48tdohWPOZhV5y\012v5gVRV0fFgPRaCiSYy8DFsi8"
 1119      57415079 
 1119      48343874 
 1119      646F6857 
 1119      504F5A68 
 1120 1585 74767133 		.ascii	"tvq3CULOpYNE5Pnrr3IWL7L8a+kOqrrM0dDMrUgZ\012qVqAERD"
 1120      43554C4F 
 1120      70594E45 
 1120      35506E72 
 1120      72334957 
 1121 15b5 77785967 		.ascii	"wxYg4sQcMFURlDMo5eVNNgCaqd960QB129uRyOtM5yYGzUnYjru"
 1121      34735163 
 1121      4D465552 
 1121      6C444D6F 
 1121      3565564E 
 1122 15e8 3242382F 		.ascii	"2B8/YP\012qv6R8PXMWGEvyY5m/s7XXdPjxducgK7YPVnCV4Ji/"
 1122      59500A71 
 1122      76365238 
 1122      50584D57 
 1122      47457679 
 1123 1618 746D6A63 		.ascii	"tmjc7Az8rC6O5+mR/6UGxlc\012UveOucECgYEA8/AE60KbtV0E"
 1123      37417A38 
 1123      7243364F 
 1123      352B6D52 
 1123      2F365547 
 1124 1648 346D3044 		.ascii	"4m0DqMoxVKCl4W7NkupD51H6nCXCgS9ngqkM+odX\012WUkHdzr"
 1124      714D6F78 
 1124      564B436C 
 1124      3457374E 
 1124      6B757044 
 1125 1678 76385979 		.ascii	"v8Yy97zf0bat7aZ8ZLvzG2lyfCTxuQI7PQ/S6/mGSF6oqpqeTzy"
 1125      39377A66 
 1125      30626174 
 1125      37615A38 
 1125      5A4C767A 
 1126 16ab 4B707530 		.ascii	"Kpu03b\012EKLzEg8dVw7Jx1o2oEowU6D7HUnLPS7hfrDKs/c6X"
 1126      33620A45 
 1126      4B4C7A45 
 1126      67386456 
 1126      77374A78 
 1127 16db 6E306C61 		.ascii	"n0lah4FblH/4DECgYEA0lob\012SF/gEdFuBRSNmqiGR9bvdgMv"
 1127      68344662 
 1127      6C482F34 
 1127      44454367 
 1127      59454130 
 1128 170b 4F647536 		.ascii	"Odu68xNjjpTn5EKz3ZzDJBHBgZGCNnuSY3i80ihF\012gplGMh3"
 1128      38784E6A 
 1128      6A70546E 
 1128      35454B7A 
 1128      335A7A44 
 1129 173b 37456D34 		.ascii	"7Em4LZ8iR+nEkMlZf7Rj4hhnualT1NcdEp0mVwhGKmqB6RZlIw/"
 1129      4C5A3869 
 1129      522B6E45 
 1129      6B4D6C5A 
 1129      6637526A 
 1130 176e 7A37     		.ascii	"z7"
 1131 1770 4A76567A 		.ascii	"JvVz\012W60fauWeBxwKqjEyJs3K4MCg7JFVwK0pYNO2GY0CgYA"
 1131      0A573630 
 1131      66617557 
 1131      65427877 
 1131      4B716A45 
 1132 17a0 32336A54 		.ascii	"23jTtCdVmLN8NYwHgtGH2\012LBBDrZ2VvxW48SqSdrfSQOxiak"
 1132      74436456 
 1132      6D4C4E38 
 1132      4E597748 
 1132      67744748 
 1133 17d0 33654342 		.ascii	"3eCBUwowmH2vzfcw3Bwe87v8eJkVyjwf2kXhLz\012i+EsqjKak"
 1133      55776F77 
 1133      6D483276 
 1133      7A666377 
 1133      33427765 
 1134 1800 58434343 		.ascii	"XCCCUZIBmGDjMvlWmGdHLz6d/x+gmHSFCR0r6j70tQd62awRsnt"
 1134      555A4942 
 1134      6D47446A 
 1134      4D766C57 
 1134      6D476448 
 1135 1833 49423965 		.ascii	"IB9e\012VLuzUReS60lAHjKQhucr8QKBgAhNrEQIHNU3OiuTKx/"
 1135      0A564C75 
 1135      7A555265 
 1135      5336306C 
 1135      41486A4B 
 1136 1863 4F785459 		.ascii	"OxTYywtMavxN+m/uaaVSo\012hhrZkzYNSRq0ZLoTn1s9N4Mbsg"
 1136      7977744D 
 1136      6176784E 
 1136      2B6D2F75 
 1136      61615653 
 1137 1893 42747649 		.ascii	"BtvIiyOjYiPtX0aBjZrwF+09n01OaMFMteXK3v\0122pob2pbr7"
 1137      69794F6A 
 1137      59695074 
 1137      58306142 
 1137      6A5A7277 
 1138 18c3 62427964 		.ascii	"bBydtExwoHa0ieCZfuctsgIpnPWyo0nSzh6pqsndnm2wON1vTfU"
 1138      74457877 
 1138      6F486130 
 1138      6965435A 
 1138      66756374 
 1139 18f6 33677848 		.ascii	"3gxH\012bynFAoGBANIZ39HS9Eo0k7eVmGjnE8bK6n7LQKH/304"
 1139      0A62796E 
 1139      46416F47 
 1139      42414E49 
 1139      5A333948 
 1140 1926 64623135 		.ascii	"db15MKuhmHqzcWzMdcWLF\012xK6lswG/M1bV7jofZG9JW5bDoJ"
 1140      4D4B7568 
 1140      6D48717A 
 1140      63577A4D 
 1140      6463574C 
 1141 1956 53674946 		.ascii	"SgIFKCyv7TeaAUg2p2QDsg4EziEAiSs7k2yB2v\012V6/QiIi8b"
 1141      4B437976 
 1141      37546561 
 1141      41556732 
 1141      70325144 
 1142 1986 516D7033 		.ascii	"Qmp3fV4BSU9fTo0xhBWf/Wy3HvBVue35+FOw68uuxe/\012----"
 1142      66563442 
 1142      53553966 
 1142      546F3078 
 1142      68425766 
 1143 19b6 2D454E44 		.ascii	"-END RSA PRIVATE KEY-----\012MIIEpQIBAAKCAQEAqCozAN"
 1143      20525341 
 1143      20505249 
 1143      56415445 
 1143      204B4559 
 1144 19e6 38476F4B 		.ascii	"8GoKz/9lI2jqakO+FQx34kSA3UMTRO4jUB5qkXkfx5\012FsjxD"
 1144      7A2F396C 
 1144      49326A71 
 1144      616B4F2B 
 1144      46517833 
 1145 1a16 6865362B 		.ascii	"he6+n17e+qIViS3ulf3HHGInSth9yytyUkEJATkDmFL0iSQnAaJ"
 1145      6E313765 
 1145      2B714956 
 1145      69533375 
 1145      6C663348 
 1146 1a49 71676547 		.ascii	"qgeGv0w/\0123G4+K4A+oHHRuEm9UD2gwVMvRR+KRQeRNcHPRN+"
 1146      7630772F 
 1146      0A334734 
 1146      2B4B3441 
 1146      2B6F4848 
 1147 1a79 3056324A 		.ascii	"0V2J/SRdleJGzq6EgQUmtn6Ec\012REkomj8vpynbvnXQwq9/2q"
 1147      2F535264 
 1147      6C654A47 
 1147      7A713645 
 1147      6751556D 
 1148 1aa9 325A534C 		.ascii	"2ZSLNYSwYFeq92whhUY/8aNHaFfjR2HctdbcAOiN83\012HYob7"
 1148      4E595377 
 1148      59466571 
 1148      39327768 
 1148      6855592F 
 1149 1ad9 514C5074 		.ascii	"QLPt9pagLxsNs8NCIThnN0bmT/lP1jDwAugcXJshujw7P9/C2hJ"
 1149      39706167 
 1149      4C78734E 
 1149      73384E43 
 1149      4954686E 
 1150 1b0c 6E377263 		.ascii	"n7rcyfkg\012qOwVveISrYnwyjEUZtQs8kk8HaiAtSrwqslXhQI"
 1150      79666B67 
 1150      0A714F77 
 1150      56766549 
 1150      5372596E 
 1151 1b3c 44415141 		.ascii	"DAQABAoIBAAQvYKuR4VlYVNpt\012e1wbe5Td66O7WO3OIkzDL3"
 1151      42416F49 
 1151      42414151 
 1151      76594B75 
 1151      5234566C 
 1152 1b6c 396A7346 		.ascii	"9jsFNsO+DvNphBkfY20vlu7AbOdGwoZ8YkcErt7Gd0\0127/A11"
 1152      4E734F2B 
 1152      44764E70 
 1152      68426B66 
 1152      59323076 
 1153 1b9c 58466639 		.ascii	"XFf9tFqqb5N35QwQsUPSJfJrinOnPxAZh2xCF331y9N7n8zuW92"
 1153      74467171 
 1153      62354E33 
 1153      35517751 
 1153      73555053 
 1154 1bcf 5159506E 		.ascii	"QYPn4AoN\012wShkVWMyaguOsPpBsc3JWn5X+TSGtY2n0Tl+4q1"
 1154      34416F4E 
 1154      0A775368 
 1154      6B56574D 
 1154      79616775 
 1155 1bff 2F2F2F79 		.ascii	"///ymF9vPP9l1GVNjh01tpGIG\012io4YFwptgvfj+faEQRdauf"
 1155      6D463976 
 1155      5050396C 
 1155      3147564E 
 1155      6A683031 
 1156 1c2f 4F326977 		.ascii	"O2iwoHkiJHd63GFu6ehXGIR7JbUZiS4b3XewVyt2kS\01265zgd"
 1156      6F486B69 
 1156      4A486436 
 1156      33474675 
 1156      36656858 
 1157 1c5f 764B686E 		.ascii	"vKhnb0+/Vr6NP3+bIhKsTHb7dg9+TufIIGe4QQqIDcl/d8VKsxI"
 1157      62302B2F 
 1157      5672364E 
 1157      50332B62 
 1157      49684B73 
 1158 1c92 3869425A 		.ascii	"8iBZmdh9\0129IxvTPUCgYEA1T0y325YnnDM6vPHZv8EmdbBKsb"
 1158      6D646839 
 1158      0A394978 
 1158      76545055 
 1158      43675945 
 1159 1cc2 2F48702B 		.ascii	"/Hp+c9wXHT3J+cO7Zi3CjNoTO\012Qh6U7/EFSgnw+52xInlNY7"
 1159      63397758 
 1159      4854334A 
 1159      2B634F37 
 1159      5A693343 
 1160 1cf2 50726964 		.ascii	"PriddAddy9CKJomB31qs6509l3xqgZw/98Q7+1bOeG\0122l7Z+"
 1160      64416464 
 1160      7939434B 
 1160      4A6F6D42 
 1160      33317173 
 1161 1d22 4963384A 		.ascii	"Ic8Jq4jWZfs6MPafhvLal5qTWY2W/L8Naj4/SSxoshBCnHg8NsC"
 1161      71346A57 
 1161      5A667336 
 1161      4D506166 
 1161      68764C61 
 1162 1d55 67594541 		.ascii	"gYEAyeMU\012KXsLCd2vkBicS1NwAyvSRU3vqmH+ZRb0OK3WwA3"
 1162      79654D55 
 1162      0A4B5873 
 1162      4C436432 
 1162      766B4269 
 1163 1d85 63643230 		.ascii	"cd20Cwn2NpEdSuR4ZTYggqriz\012qMXc3Sdwus2nCq6C7ZA+ii"
 1163      43776E32 
 1163      4E704564 
 1163      53755234 
 1163      5A545967 
 1164 1db5 5972514C 		.ascii	"YrQLRwDi2Z3aRC81ZeBNGku4HxjafSkYxMjPYfzKAa\012va/1y"
 1164      52774469 
 1164      325A3361 
 1164      52433831 
 1164      5A65424E 
 1165 1de5 6C375A67 		.ascii	"l7ZgB7qNmsCkLrwoJL3qBasH604Nybhlx8CgYEAttRtDPMwmlB+"
 1165      4237714E 
 1165      6D73436B 
 1165      4C72776F 
 1165      4A4C3371 
 1166 1e18 3869676F 		.ascii	"8igoXN/k\012kv51yvaqARi7XXUf6bdyP+QatBrUZcdCjaBo9L1"
 1166      584E2F6B 
 1166      0A6B7635 
 1166      31797661 
 1166      71415269 
 1167 1e48 4457724C 		.ascii	"DWrLhYutW2AcHWqgGGL5tL2Ee\0121wthAKQXYecznzeDIdo5lT"
 1167      68597574 
 1167      57324163 
 1167      48577167 
 1167      47474C35 
 1168 1e78 6F31306D 		.ascii	"o10mTJ6mEs14ih/Rv+b++4sXW4k+5xJNUx+LaREGHF\01209qnc"
 1168      544A366D 
 1168      45733134 
 1168      69682F52 
 1168      762B622B 
 1169 1ea8 6C363564 		.ascii	"l65dVqDz91BHvJ6+icCgYEAlquprXeN+nP/hcxIQRNpYoR+7ohG"
 1169      5671447A 
 1169      39314248 
 1169      764A362B 
 1169      69634367 
 1170 1edb 324F4D2F 		.ascii	"2OM/qBRk\012ejSLNFRj+KFb0OlBH5y3ST8EZU+2CZPFSa05s7e"
 1170      7142526B 
 1170      0A656A53 
 1170      4C4E4652 
 1170      6A2B4B46 
 1171 1f0b 75733075 		.ascii	"us0uuYhNx1Xi0pAfueeDwTDSO\012Q9NGwDLyAiiwB9zn+O+KAG"
 1171      7559684E 
 1171      78315869 
 1171      30704166 
 1171      75656544 
 1172 1f3b 517A3858 		.ascii	"Qz8XP"
 1172      50
 1173 1f40 79735A57 		.ascii	"ysZW/v1emWb1GGA96ftiIVpmd4kktGb6qAQ4X\012CVo0PMMCgY"
 1173      2F763165 
 1173      6D576231 
 1173      47474139 
 1173      36667469 
 1174 1f70 45417147 		.ascii	"EAqGFCGxamNrPDCXAOeGUZTa5jtHQ4Lx7F45I8FVMJWK7mDkZEZ"
 1174      46434778 
 1174      616D4E72 
 1174      50444358 
 1174      414F6547 
 1175 1fa3 7257310A 		.ascii	"rW1\0123eyBtbTdbidcR4GWCCg5qEfs2XNC1YSsqzrUZGPNBHIV"
 1175      33657942 
 1175      74625464 
 1175      62696463 
 1175      52344757 
 1176 1fd3 614E6955 		.ascii	"aNiUUNEs3obmaB0nco42\0123VlNv6fWKxaS7NgTyc7wxyHMIe2"
 1176      554E4573 
 1176      336F626D 
 1176      6142306E 
 1176      636F3432 
 1177 2003 426C664B 		.ascii	"BlfKjXTn2iyJvkSTWWpWOLzhRqBg=\012-----END RSA PRIVA"
 1177      6A58546E 
 1177      3269794A 
 1177      766B5354 
 1177      57577057 
 1178 2033 5445204B 		.ascii	"TE KEY-----\012MIIEpAIBAAKCAQEArg+E9KOYyAe8gQ00hOYb"
 1178      45592D2D 
 1178      2D2D2D0A 
 1178      4D494945 
 1178      70414942 
 1179 2063 575A5834 		.ascii	"WZX4KeBvejcyFiardd266z76vODk\012KagljkLzMPYhxQr/t+o"
 1179      4B654276 
 1179      656A6379 
 1179      46696172 
 1179      64643236 
 1180 2093 48304E73 		.ascii	"H0NsorENHTMJ+xlXu1w5uwPhq76bFi0NfRMh8BmwfZKup\012qm"
 1180      6F72454E 
 1180      48544D4A 
 1180      2B786C58 
 1180      75317735 
 1181 20c3 38617333 		.ascii	"8as3P4pdPEabpx/Chv+RBrSgLPQmJvKnFSG+HxJE5RUmUE8aQAY"
 1181      50347064 
 1181      50456162 
 1181      70782F43 
 1181      68762B52 
 1182 20f6 53655A44 		.ascii	"SeZDAL3ZMmB\012UK9QBNBYDhkK5sjTBp2rscZcHWN8Kvz6cpCd"
 1182      414C335A 
 1182      4D6D420A 
 1182      554B3951 
 1182      424E4259 
 1183 2126 4B667634 		.ascii	"Kfv4FRFDVfhi9poEIKFWFgq7n+6T\012JUBASnqXcIYbCfRnOgB"
 1183      46524644 
 1183      56666869 
 1183      39706F45 
 1183      494B4657 
 1184 2156 75635152 		.ascii	"ucQRYFhcxvGqhEB4RwRRWNjS07uV9vysoDuAY6mhXFWQP\012PN"
 1184      59466863 
 1184      78764771 
 1184      68454234 
 1184      52775252 
 1185 2186 6767566E 		.ascii	"ggVnw10oDyodhEKI5iXljgA8fdlaK920eH5QIDAQABAoIBAExDD"
 1185      7731306F 
 1185      44796F64 
 1185      68454B49 
 1185      3569586C 
 1186 21b9 48504C51 		.ascii	"HPLQeNSUGsS\012iBI6Z31G0eY3KWCY0l8WLkWEEqODgoRC3HTL"
 1186      654E5355 
 1186      4773530A 
 1186      69424936 
 1186      5A333147 
 1187 21e9 38546831 		.ascii	"8Th1aOvoyz7z5LqF1UrS2u0uxQyC\012otzvRaf/8NKnhOLfZOn"
 1187      614F766F 
 1187      797A377A 
 1187      354C7146 
 1187      31557253 
 1188 2219 78614D70 		.ascii	"xaMpQNNbzhIWtGLdN2psJksXFFOdmAw8CAJ1VbkyNEpX5\012Xs"
 1188      514E4E62 
 1188      7A684957 
 1188      74474C64 
 1188      4E327073 
 1189 2249 39767578 		.ascii	"9vuxPwWKEZl1PMYvAkdO4cVVgHM51rHET5R/ds1QNcCWy3qQTk+"
 1189      5077574B 
 1189      455A6C31 
 1189      504D5976 
 1189      416B644F 
 1190 227c 35316A35 		.ascii	"51j5+tqmUPV\012fOQeewVWSrtZyMvkY6RLsiyIqYN1kWXnaQ9N"
 1190      2B74716D 
 1190      5550560A 
 1190      664F5165 
 1190      65775657 
 1191 22ac 326E4530 		.ascii	"2nE0zFNX4ToBUm3AjsocHMuoo56/\0123prhiq8vLFh7pUeug0j"
 1191      7A464E58 
 1191      34546F42 
 1191      556D3341 
 1191      6A736F63 
 1192 22dc 5A754D4F 		.ascii	"ZuMO5MH7BBWSAawKI8pnTWOzqWE7KhSw+Kw7tLFTqMEZC\012ON"
 1192      354D4837 
 1192      42425753 
 1192      4161774B 
 1192      4938706E 
 1193 230c 4B547967 		.ascii	"KTygECgYEA2kCqFvEipiNOvAyqc0T2CxCSz1lPerxrErzWXFAI9"
 1193      45436759 
 1193      4541326B 
 1193      43714676 
 1193      45697069 
 1194 233f 50333756 		.ascii	"P37V5c4sdnH\012Yk1XbOS1mUM0152fTMaESaUHEzoRTYui9LsJ"
 1194      35633473 
 1194      646E480A 
 1194      596B3158 
 1194      624F5331 
 1195 236f 72325645 		.ascii	"r2VEQukfP7MIXMTA+9qyWHAieJrL\012Vw9gBpoYz8XcsVoLCVR"
 1195      51756B66 
 1195      50374D49 
 1195      584D5441 
 1195      2B397179 
 1196 239f 44724848 		.ascii	"DrHHY5bJCs9nMFhIkmqnmiv4scohKb3s/6kECgYEAzCo2\0125t"
 1196      5935624A 
 1196      4373396E 
 1196      4D466849 
 1196      6B6D716E 
 1197 23cf 6E53482F 		.ascii	"nSH/guI3LGQq2r27sTQS06eZu4DbiyFeQ74ftP4py5he76GuJuq"
 1197      67754933 
 1197      4C475171 
 1197      32723237 
 1197      73545153 
 1198 2402 6A524948 		.ascii	"jRIHqS7kH5D\012hAFqlb45rUIrXpXiyLeargwHD1jR76cakvC6"
 1198      7153376B 
 1198      4835440A 
 1198      68414671 
 1198      6C623435 
 1199 2432 4B74684D 		.ascii	"KthMK5o+HrMJT11sSnjzilVfA9kl\012I5/UZwextrkrIyarYC+"
 1199      4B356F2B 
 1199      48724D4A 
 1199      54313173 
 1199      536E6A7A 
 1200 2462 5973794C 		.ascii	"YsyLM/dzynn2aydR6jKUCgYEAzOscCDBd5PmPqlaGD3Z3\012QU"
 1200      4D2F647A 
 1200      796E6E32 
 1200      61796452 
 1200      366A4B55 
 1201 2492 704E5857 		.ascii	"pNXWuwiT+xlMVCyyfGUSjKvaHZdHtSjkSpyi8vJniIe82dzTsy5"
 1201      75776954 
 1201      2B786C4D 
 1201      56437979 
 1201      66475553 
 1202 24c5 2B615072 		.ascii	"+aPrwi9SD7M\012QNYAMPN21RAG7AsP1fJSc+YRv6GBbBWCx/pC"
 1202      77693953 
 1202      44374D0A 
 1202      514E5941 
 1202      4D504E32 
 1203 24f5 6F644137 		.ascii	"odA7bZGMNeSiKh847wdxq7DkmfLr\012gOmF/sV5FZWya9L1eJi"
 1203      625A474D 
 1203      4E655369 
 1203      4B683834 
 1203      37776478 
 1204 2525 54475545 		.ascii	"TGUECgYEAoKQ+mpmc+cafFwlB8kkQRk4GMmxR7EmYIkPG\0126+"
 1204      43675945 
 1204      416F4B51 
 1204      2B6D706D 
 1204      632B6361 
 1205 2555 36764A33 		.ascii	"6vJ3pEOvwyBa4pYGn1xTpp3KKlamXO3dj3cmdAnpDH6x5oWKIOt"
 1205      70454F76 
 1205      77794261 
 1205      34705947 
 1205      6E317854 
 1206 2588 512B4670 		.ascii	"Q+Fpo+ub7C9\012+gwrj3atSEmOwz0AAFBz2o0coyXVIwQCcutZ"
 1206      6F2B7562 
 1206      3743390A 
 1206      2B677772 
 1206      6A336174 
 1207 25b8 68732F4A 		.ascii	"hs/JBwrfZEMS6RXKQnkJbl4hEI+n\0128VKcMnkCgYAJt/HMQ+E"
 1207      42777266 
 1207      5A454D53 
 1207      3652584B 
 1207      516E6B4A 
 1208 25e8 2B7A3873 		.ascii	"+z8sgLzRoMR66OOJqkfs7Nay+nn+VUjCk6ZjQ4TkLqaWk\012bn"
 1208      674C7A52 
 1208      6F4D5236 
 1208      364F4F4A 
 1208      716B6673 
 1209 2618 35376E51 		.ascii	"57nQOfAUjErXTxNe0VMV6mQYgGCUKPzf9OTgfKp6ryWUzRFXV61"
 1209      4F664155 
 1209      6A457258 
 1209      54784E65 
 1209      30564D56 
 1210 264b 374E6B73 		.ascii	"7NksKyMn60H\012nahpwYKFENDxNdTmk9EcpLoNKTilT18M6Ik3"
 1210      4B794D6E 
 1210      3630480A 
 1210      6E616870 
 1210      77594B46 
 1211 267b 50395754 		.ascii	"P9WTD/BcdKpblWr2tA==\012-----END RSA PRIVATE KEY---"
 1211      442F4263 
 1211      644B7062 
 1211      6C577232 
 1211      74413D3D 
 1212 26ab 2D2D0A4D 		.ascii	"--\012MIIEowIBAAKCAQEAuvhQPoXCvT5efmxt+RONZs3iGDbIA"
 1212      4949456F 
 1212      77494241 
 1212      414B4341 
 1212      51454175 
 1213 26db 35736E54 		.ascii	"5snTFfcO6URLuhsa9rK\012jbUONsea8Hwj8iUBT0JBXtwT4/Kt"
 1213      4666634F 
 1213      3655524C 
 1213      75687361 
 1213      39724B0A 
 1214 270b 53683841 		.ascii	"Sh8AJ"
 1214      4A
 1215 2710 57663031 		.ascii	"Wf011kGtr9xV67muQmfPlpAiK0kyeHD\012WmPRHxp2szbM1ywZ"
 1215      316B4774 
 1215      72397856 
 1215      36376D75 
 1215      516D6650 
 1216 2740 2B794870 		.ascii	"+yHp1FpPu83uKHVXVJhNEyUv5ju3/NxgMp9wyriUvhdMI8Wd\012"
 1216      31467050 
 1216      75383375 
 1216      4B485658 
 1216      564A684E 
 1217 2771 55715946 		.ascii	"UqYFds58xn31ccOs+GYmsX4e7rfwxn/JlgLcvaW4lgOSbjL17xK"
 1217      64733538 
 1217      786E3331 
 1217      63634F73 
 1217      2B47596D 
 1218 27a4 7154306F 		.ascii	"qT0o8Gx4pMX6j\0125FqBi5LvaZp0ZAIJq9OcnpUbZVSDROz44S"
 1218      38477834 
 1218      704D5836 
 1218      6A0A3546 
 1218      71426935 
 1219 27d4 554A6C5A 		.ascii	"UJlZ1K4iUX10WCk2qkSyCuWidnaWzV\012SUDkJD3fex5NgWvhR"
 1219      314B3469 
 1219      55583130 
 1219      57436B32 
 1219      716B5379 
 1220 2804 4B625050 		.ascii	"KbPPnKd2/+rD85lOyJyCwIDAQABAoIBAQCSvz7MM9RLEF6+\012"
 1220      6E4B6432 
 1220      2F2B7244 
 1220      38356C4F 
 1220      794A7943 
 1221 2834 50344235 		.ascii	"P4B5VF1RaRqiAq0uF2LaysLylXZNKOOgK5N7cbX8TOJRCj50WZM"
 1221      56463152 
 1221      61527169 
 1221      41713075 
 1221      46324C61 
 1222 2867 546B4638 		.ascii	"TkF8agwWhjeFx\012Ia/NrDBBrYBVgyEEvyQb629vUwr/u1X6lh"
 1222      61677757 
 1222      686A6546 
 1222      780A4961 
 1222      2F4E7244 
 1223 2897 58734A68 		.ascii	"XsJhgGn5C2zLYt1FF4CIAsyc13DAR3\012ANJQdVFZS4Cy5gBcm"
 1223      67476E35 
 1223      43327A4C 
 1223      59743146 
 1223      46344349 
 1224 28c7 4F4E7747 		.ascii	"ONwGDBBDGrCXtNFO/DfaakQqFJUMl7bzoP2t/AIme4bz6Gu\012"
 1224      44424244 
 1224      47724358 
 1224      744E464F 
 1224      2F446661 
 1225 28f7 7A42415A 		.ascii	"zBAZsk6qpPVAL0hBBX58MohzNyrkfYZJEGKnH5YVGN/4ponf97z"
 1225      736B3671 
 1225      70505641 
 1225      4C306842 
 1225      42583538 
 1226 292a 30324F44 		.ascii	"02ODC6lXlGs3j\012aKDc7uo+5yM4Ge0r/fmdptMnJqJFoQ5fK5"
 1226      43366C58 
 1226      6C477333 
 1226      6A0A614B 
 1226      44633775 
 1227 295a 74305852 		.ascii	"t0XR5hpzvUmARO+4PLZeZ5T8Z4yGh3\012doA+LQTxAoGBAN9Hf"
 1227      3568707A 
 1227      76556D41 
 1227      524F2B34 
 1227      504C5A65 
 1228 298a 49565A45 		.ascii	"IVZENiL9fPwbp6bGtceUBmvNdOi0xNLrVwLID79BFFgTMGJ\012"
 1228      4E694C39 
 1228      66507762 
 1228      70366247 
 1228      74636555 
 1229 29ba 39777166 		.ascii	"9wqfVnD4CyzS2RfwGWjCrptmZXTwE33W9wd7js+VpAHztsWX375"
 1229      566E4434 
 1229      43797A53 
 1229      32526677 
 1229      47576A43 
 1230 29ed 616F5364 		.ascii	"aoSd8c34cYWJ1\012RFuif3X6D0jbJTxh8nfDnO+7ps8P/Mf/gP"
 1230      38633334 
 1230      6359574A 
 1230      310A5246 
 1230      75696633 
 1231 2a1d 66764544 		.ascii	"fvEDTOcdF/crB+GNR5a6/tAoGBANZe\012p0kHtuBclIkh2BnID"
 1231      544F6364 
 1231      462F6372 
 1231      422B474E 
 1231      52356136 
 1232 2a4d 5044776C 		.ascii	"PDwl44YnmZ7PDi7wupfmrf3QigMNuDlR8vjmlF/8GeflPPC\012"
 1232      3434596E 
 1232      6D5A3750 
 1232      44693777 
 1232      7570666D 
 1233 2a7d 646B3255 		.ascii	"dk2UB1kOwdBEriiEIuchozlVIdQtt+JqBUtMtweQpqOT66L1eSf"
 1233      42316B4F 
 1233      77644245 
 1233      72696945 
 1233      49756368 
 1234 2ab0 2F663671 		.ascii	"/f6qrMzZQaxw6\012FTZfyJc3x2bq0XL/n8lrCkQpmWFObpLpYw"
 1234      724D7A5A 
 1234      51617877 
 1234      360A4654 
 1234      5A66794A 
 1235 2ae0 6655626A 		.ascii	"fUbjrXAoGAM5umYHwRtLvFAblVGDvp\012nEdZZFZnLp+4AgG/9"
 1235      7258416F 
 1235      47414D35 
 1235      756D5948 
 1235      7752744C 
 1236 2b10 454A7546 		.ascii	"EJuFaEN2nFTzHhDLaVeqYXrr1Sc8TeB6AD3stucH8dN+gwx\012"
 1236      61454E32 
 1236      6E46547A 
 1236      4868444C 
 1236      61566571 
 1237 2b40 31507A75 		.ascii	"1PzuKXUBD6JxYIKWKL1x+lp9p2yP5d4NCtEofPBrj/93P9mz3ZL"
 1237      4B585542 
 1237      44364A78 
 1237      59494B57 
 1237      4B4C3178 
 1238 2b73 4E4E3277 		.ascii	"NN2w8Rif/2Ypp\012GOWc7Ve6Xx4COGEtBA98oJECgYAZ4vA8h2"
 1238      38526966 
 1238      2F325970 
 1238      700A474F 
 1238      57633756 
 1239 2ba3 7630422F 		.ascii	"v0B/n/3VBlPJ0jc0o55IssQPFywGm3\012N7hNQtSAVYlC+y0CW"
 1239      6E2F3356 
 1239      426C504A 
 1239      306A6330 
 1239      6F353549 
 1240 2bd3 4166496B 		.ascii	"AfIk7SKLuEj1nXGxHtmq7uH1ONbDSnR02QMhlVBdAvikX72\012"
 1240      37534B4C 
 1240      75456A31 
 1240      6E584778 
 1240      48746D71 
 1241 2c03 4B74746E 		.ascii	"KttnVHZrBm/MC+yHgfj+uRHEG03z6KerG0Hz0M6JhQ2p32iCQCT"
 1241      56485A72 
 1241      426D2F4D 
 1241      432B7948 
 1241      67666A2B 
 1242 2c36 4C4F6D4C 		.ascii	"LOmLFN11u7DQD\012PAnbnQKBgACB+vAB08Z1pBJipV2mxjnakB"
 1242      464E3131 
 1242      75374451 
 1242      440A5041 
 1242      6E626E51 
 1243 2c66 67394736 		.ascii	"g9G6YoCqgZWxFo/bPbGHqOHJfrLvdL\012hoQXQhU2RVDqPD+9k"
 1243      596F4371 
 1243      675A5778 
 1243      466F2F62 
 1243      50624748 
 1244 2c96 39497966 		.ascii	"9Iyfdi8J0kn6h7hVAbQkvPxbowGGHpMKBOwBnj1ykZAEHyt\012"
 1244      6469384A 
 1244      306B6E36 
 1244      68376856 
 1244      4162516B 
 1245 2cc6 43454A37 		.ascii	"CEJ7inxM073wKOCbrRUUmgxEsyKtq4OFpSkRFfdAjTzLi7pp518"
 1245      696E784D 
 1245      30373377 
 1245      4B4F4362 
 1245      72525555 
 1246 2cf9 6B0A2D2D 		.ascii	"k\012-----END RSA PRIVATE KEY-----\012MIIEpAIBAAKCA"
 1246      2D2D2D45 
 1246      4E442052 
 1246      53412050 
 1246      52495641 
 1247 2d26 51454178 		.ascii	"QEAx4J1RDupwF5snbV/+Z5iQmGP8l3/R1P1ZEaN3F+tnTn3w9Xv"
 1247      344A3152 
 1247      44757077 
 1247      4635736E 
 1247      62562F2B 
 1248 2d59 0A775644 		.ascii	"\012wVD8/27tH2dsE8NkPJuhwEh5foAc0Ubj2E8apIiW04eYPeO"
 1248      382F3237 
 1248      74483264 
 1248      7345384E 
 1248      6B504A75 
 1249 2d89 4A56716A 		.ascii	"JVqjZE3eI6tnqfqM+\012yMZCcJnzevS/pAEZI28DaFoksp1Tmo"
 1249      5A453365 
 1249      4936746E 
 1249      7166714D 
 1249      2B0A794D 
 1250 2db9 70643664 		.ascii	"pd6dEYlTTADiY1yQos2MF3U+lLP3Ox9h2D\012dpQGqTRulwciO"
 1250      45596C54 
 1250      54414469 
 1250      59317951 
 1250      6F73324D 
 1251 2de9 73376A4D 		.ascii	"s7jMXqE1/QIcaU3LrTiZrEc/VIhHuP+abgO22oH1RRehdUVlnMv"
 1251      58714531 
 1251      2F514963 
 1251      6155334C 
 1251      7254695A 
 1252 2e1c 0A566F45 		.ascii	"\012VoEPkLByG9iq1bA3gFkA36zmzwSZkBjnP/2BkjQ3KiMOwOx"
 1252      506B4C42 
 1252      79473969 
 1252      71316241 
 1252      3367466B 
 1253 2e4c 76676D33 		.ascii	"vgm3US7S522lKwIQV\012FkAVstychOVDcFEp6A/n7B8U6HETj7"
 1253      55533753 
 1253      3532326C 
 1253      4B774951 
 1253      560A466B 
 1254 2e7c 316C5144 		.ascii	"1lQDUXmQIDAQABAoIBAGS+5gSMtE2l4OdK\012rdMZPbkTlyLmg"
 1254      55586D51 
 1254      49444151 
 1254      4142416F 
 1254      49424147 
 1255 2eac 48412B58 		.ascii	"HA+X15BmoU782m/yfOkZquSAA/krez7xsG8GzPXyzhT4LYWb3bm"
 1255      3135426D 
 1255      6F553738 
 1255      326D2F79 
 1255      664F6B5A 
 1256 2edf 0A       		.ascii	"\012"
 1257 2ee0 65307652 		.ascii	"e0vRtjx7lN5ATIqECegu319LL2KYpCdKu/ua0hYWR7NBQDzLKSy"
 1257      746A7837 
 1257      6C4E3541 
 1257      54497145 
 1257      43656775 
 1258 2f13 52644945 		.ascii	"RdIEPdBSWCY+y\012a3YU1nsR5iG+/c4FS1wxZdaDqjHhj2sd46"
 1258      50644253 
 1258      5743592B 
 1258      790A6133 
 1258      5955316E 
 1259 2f43 73486449 		.ascii	"sHdIpWLw8j/EdjZ3hBLEAvyfS0Y+Pm\012FlMbw94DWfPasxe0o"
 1259      70574C77 
 1259      386A2F45 
 1259      646A5A33 
 1259      68424C45 
 1260 2f73 4C53336D 		.ascii	"LS3mrW/wV7/6Cqq985xmJZNBRv/wxYwohjy2iL5Z+222IE/\012"
 1260      72572F77 
 1260      56372F36 
 1260      43717139 
 1260      3835786D 
 1261 2fa3 72657453 		.ascii	"retS7BwZNZGjQxVt4ylcQLvFGSUMvJM8bEyjS43Pn0LsQJmI1WN"
 1261      3742775A 
 1261      4E5A476A 
 1261      51785674 
 1261      34796C63 
 1262 2fd6 3335486F 		.ascii	"35HoWXnkPjEjb\012/qKfLwECgYEA9Uu+wbkpXYT3GX7ulnt27k"
 1262      57586E6B 
 1262      506A456A 
 1262      620A2F71 
 1262      4B664C77 
 1263 3006 727A5A79 		.ascii	"rzZyFpNtqJPcPZHPoMz/uajz9oInY/\012ttqiERHaHpme6Bovg"
 1263      46704E74 
 1263      714A5063 
 1263      505A4850 
 1263      6F4D7A2F 
 1264 3036 65685348 		.ascii	"ehSHfaaI1aBzMlCPGbwoPP2EmsjjQ9v5XMWZs6DMfZ4IHfu\012"
 1264      66616149 
 1264      3161427A 
 1264      4D6C4350 
 1264      4762776F 
 1265 3066 536D324C 		.ascii	"Sm2LB2o7/YJTIlQDUAVEFt3TCshjM6lXVP7kproqKkQI+m3QpH+"
 1265      42326F37 
 1265      2F594A54 
 1265      496C5144 
 1265      55415645 
 1266 3099 5542556B 		.ascii	"UBUkCgYEA0Dc5\012Z03oaboqC20SCXxbMu08vh9H+4dPhPLpTo"
 1266      43675945 
 1266      41304463 
 1266      350A5A30 
 1266      336F6162 
 1267 30c9 45663943 		.ascii	"Ef9CCGqn5d5lwmTCRM4WL2fj/2Ucql\012xqMpNiO8hKIe0p2ks"
 1267      4347716E 
 1267      3564356C 
 1267      776D5443 
 1267      524D3457 
 1268 30f9 796C316D 		.ascii	"yl1mBUGh5k3p328Ft0/ygdGQcewRzkYsEvUCkkJTlEG6/qB\012"
 1268      42554768 
 1268      356B3370 
 1268      33323846 
 1268      74302F79 
 1269 3129 48523661 		.ascii	"HR6aH7cThjy0iDC5opDJyYq9G6i1GlIVieMhj9ECgYEAmaQE6mA"
 1269      48376354 
 1269      686A7930 
 1269      69444335 
 1269      6F70444A 
 1270 315c 6F326176 		.ascii	"o2avD/hM0K8tP\012dfg6NtmFhlchaS93mR/B0K++YoULm7JHPC"
 1270      442F684D 
 1270      304B3874 
 1270      500A6466 
 1270      67364E74 
 1271 318c 66374A51 		.ascii	"f7JQfygAImtyhXo125uYzRhNrVWEij\012FSRBCf9knKrAzMTji"
 1271      66796741 
 1271      496D7479 
 1271      68586F31 
 1271      32357559 
 1272 31bc 4773716C 		.ascii	"Gsql+A36p5/JY8ZEUNFtrJCuwnbOoA2xvNVb6EnY/SZti0W\012"
 1272      2B413336 
 1272      70352F4A 
 1272      59385A45 
 1272      554E4674 
 1273 31ec 52325755 		.ascii	"R2WUIB4w9OJCYWFRMwe51gkCgYEAkEvVQlxhlvPnM2fxOhWudkq"
 1273      49423477 
 1273      394F4A43 
 1273      59574652 
 1273      4D776535 
 1274 321f 6D372F4E 		.ascii	"m7/NpxUzutOpK\012+ZbO+DaaXQmaNYzjFZ2KkiAtRy04nVJdNJ"
 1274      7078557A 
 1274      75744F70 
 1274      4B0A2B5A 
 1274      624F2B44 
 1275 324f 33616236 		.ascii	"3ab6SwfxKDXd7WRzuSPUVE8zAhu7eN\012ZCMMlAwainfDGHjfP"
 1275      53776678 
 1275      4B445864 
 1275      3757527A 
 1275      75535055 
 1276 327f 54347677 		.ascii	"T4vwrj+9AF/VIaUeAO/N/9+Tmc/jaqG27yPu1ak28g9SfJc\012"
 1276      726A2B39 
 1276      41462F56 
 1276      49615565 
 1276      414F2F4E 
 1277 32af 3775517A 		.ascii	"7uQzXCECgYAnSDEfLWaWcPPux4zqXs8QOH4I2rZk68du+l4NeNV"
 1277      58434543 
 1277      6759416E 
 1277      53444566 
 1277      4C576157 
 1278 32e2 65434C4B 		.ascii	"eCLKsH6i1Kpwj\012Qypt5jz8LrJr6SRqg97rwHDGUTtPvlRgDH"
 1278      73483669 
 1278      314B7077 
 1278      6A0A5179 
 1278      7074356A 
 1279 3312 52535347 		.ascii	"RSSGRyrpIB5gOHNqdCz+hlUP4GUcRx\012yznUPZxXKe2y84xAn"
 1279      52797270 
 1279      49423567 
 1279      4F484E71 
 1279      64437A2B 
 1280 3342 4443424E 		.ascii	"DCBNTpV1R5dSDc5s1SqXjQWqYt1aR/rHOFprA==\012-----END"
 1280      54705631 
 1280      52356453 
 1280      44633573 
 1280      31537158 
 1281 3372 20525341 		.ascii	" RSA PRIVATE KEY-----\012MIIEowIBAAKCAQEAyJYqVp0Wih"
 1281      20505249 
 1281      56415445 
 1281      204B4559 
 1281      2D2D2D2D 
 1282 33a2 7975474A 		.ascii	"yuGJg0Z6Rh+RaxwXOuN6waW4m6ip920HO+qtjf\012fHOK6pFkq"
 1282      67305A36 
 1282      52682B52 
 1282      61787758 
 1282      4F754E36 
 1283 33d2 56756233 		.ascii	"Vub3rZXaBpBJitth9ssVO6Ywo6G+hbkoHFP78GwjHqhbA1Cs+U6"
 1283      725A5861 
 1283      4270424A 
 1283      69747468 
 1283      39737356 
 1284 3405 414F4755 		.ascii	"AOGU\012MlD3Khswv9bX5tP+LqlF+A4NB6QOIGDfPOhQKm0lxla"
 1284      0A4D6C44 
 1284      334B6873 
 1284      77763962 
 1284      58357450 
 1285 3435 49767131 		.ascii	"Ivq16o/jIicLlgZe0PPvf\012htlZBKeB4jQ97WP4/aOGGAzYMw"
 1285      366F2F6A 
 1285      4969634C 
 1285      6C675A65 
 1285      30505076 
 1286 3465 48587475 		.ascii	"HXtuxCT4J8q2+AqrRoDtkwUzpxmLnbrTVZw0/z\012T7iLk/kgu"
 1286      78435434 
 1286      4A387132 
 1286      2B417172 
 1286      526F4474 
 1287 3495 534E4439 		.ascii	"SND9C2J+AJbPC/j0st1fSdEkNNG7Aymf50Z2vgqiHZ0kt4NEBTS"
 1287      43324A2B 
 1287      414A6250 
 1287      432F6A30 
 1287      73743166 
 1288 34c8 44444545 		.ascii	"DDEE\012BNCA1ion6vJvtU5vvBLuWuP+gALUR/kM10p+QQIDAQA"
 1288      0A424E43 
 1288      4131696F 
 1288      6E36764A 
 1288      76745535 
 1289 34f8 42416F49 		.ascii	"BAoIBAFgS13RAdW0fOrJB\0124oC/hOVCObqfeJepUclvqCDF8/"
 1289      42414667 
 1289      53313352 
 1289      41645730 
 1289      664F724A 
 1290 3528 3244564F 		.ascii	"2DVOzfXQHgGdb1ECXsu3wGxEpJfOGtn+JPMh/4\012w8ppmoqlE"
 1290      7A665851 
 1290      48674764 
 1290      62314543 
 1290      58737533 
 1291 3558 71344145 		.ascii	"q4AEwFLIqIMFmTDTc5/kABjDBcrxdsPJVCWnSYVXz5NxRMt2DrK"
 1291      77464C49 
 1291      71494D46 
 1291      6D544454 
 1291      63352F6B 
 1292 358b 70676C42 		.ascii	"pglB\012f8PWnZyDYFq+FDzlHzxwOF2E3hEQK7EHytrM5XqAUL/"
 1292      0A663850 
 1292      576E5A79 
 1292      44594671 
 1292      2B46447A 
 1293 35bb 5A77364C 		.ascii	"Zw6L5FEKU3ANH5Rlskc+Y\012f4wAhMuFx3kMVxeUh1S4FA3HHf"
 1293      3546454B 
 1293      5533414E 
 1293      4835526C 
 1293      736B632B 
 1294 35eb 44596154 		.ascii	"DYaTkS+hbpEc17JA0ZPnClZPF2cr9nSo14chyO\012DEGxdvHR3"
 1294      6B532B68 
 1294      62704563 
 1294      31374A41 
 1294      305A506E 
 1295 361b 676D2B75 		.ascii	"gm+uLHJnuHGeBzgVJwxpPX3pYLWKGfl8DK8KyLvNsuwQvjMLo4U"
 1295      4C484A6E 
 1295      75484765 
 1295      427A6756 
 1295      4A777870 
 1296 364e 72756666 		.ascii	"ruff\01212qYNiECgYEA9t2U9s9Und6jeSgocDbM64F4Bk9/vkw"
 1296      0A313271 
 1296      594E6945 
 1296      43675945 
 1296      41397432 
 1297 367e 364E7153 		.ascii	"6NqSlNjhFqKV23ImDejCQ\012w2AIFa9WxnsCJxCoT/DOrCLxZQ"
 1297      6C4E6A68 
 1297      46714B56 
 1297      3233496D 
 1297      44656A43 
 1298 36ae 4E34     		.ascii	"N4"
 1299 36b0 37313559 		.ascii	"715YhO9QDE0C0dN67uglQnQnvMjzRQB+3MHC\012LB4pm7iNKuk"
 1299      684F3951 
 1299      44453043 
 1299      30644E36 
 1299      3775676C 
 1300 36e0 46764843 		.ascii	"FvHCT7pY7WZ2kDvPXtwQved1AeBVH2+0xBEFE4R0Le0MCgYEA0A"
 1300      54377059 
 1300      37575A32 
 1300      6B447650 
 1300      58747751 
 1301 3713 49310A65 		.ascii	"I1\012e3J8QmCuCAN4vAVVcLw2nT8oUgsP1qArubThJ1PzfX6an"
 1301      334A3851 
 1301      6D437543 
 1301      414E3476 
 1301      41565663 
 1302 3743 62494E79 		.ascii	"bINynTyFdPvwO4/NRq9\012Y18rjoidZBjCNlIvpBwqwyy4Z5Ku"
 1302      6E547946 
 1302      64507677 
 1302      4F342F4E 
 1302      5271390A 
 1303 3773 69366C75 		.ascii	"i6luraKP2T/YQtxzjOBBBO7Fm0K4ETol63p6\012dsVgvjDH7ea"
 1303      72614B50 
 1303      32542F59 
 1303      5174787A 
 1303      6A4F4242 
 1304 37a3 79517942 		.ascii	"yQyBW4o6xTvn2mTHJFd//i+2ibisCgYAZujICHs1kvoUu5T6Bo1"
 1304      57346F36 
 1304      7854766E 
 1304      326D5448 
 1304      4A46642F 
 1305 37d6 52720A33 		.ascii	"Rr\0123sxRbAuWG3+dnj8RjX/E+amPhk1LeLA9jE6LZACZIsywo"
 1305      73785262 
 1305      41755747 
 1305      332B646E 
 1305      6A38526A 
 1306 3806 59334939 		.ascii	"Y3I9wGy8tlRe7Eo0R5M\012jFw9S/FVSMLxDwSDDnPtusuPj2Op"
 1306      77477938 
 1306      746C5265 
 1306      37456F30 
 1306      52354D0A 
 1307 3836 5168416F 		.ascii	"QhAoZORVNECSDkLoxprELKf2yPUGEeeTTT5d\012Zu+HFECu7ON"
 1307      5A4F5256 
 1307      4E454353 
 1307      446B4C6F 
 1307      78707245 
 1308 3866 45334542 		.ascii	"E3EB/bXV63QKBgQC5F84ZfEVgF4Gk9dngjWp697Ater7ZSqicVk"
 1308      2F625856 
 1308      3633514B 
 1308      42675143 
 1308      35463834 
 1309 3899 69790A5A 		.ascii	"iy\012ZmcXxNdda2QQQRmOd0PX8pBcgGRUT+gI3e33Vk+fe3yOM"
 1309      6D635878 
 1309      4E646461 
 1309      32515151 
 1309      526D4F64 
 1310 38c9 39486132 		.ascii	"9Ha2YmfxVKOL3MMKgen\012kIkqS2qYDGzyBbc1uXazcsox4ilO"
 1310      596D6678 
 1310      564B4F4C 
 1310      334D4D4B 
 1310      67656E0A 
 1311 38f9 41643270 		.ascii	"Ad2phHdSpjux0V/85XELBuh2G2244hlKUtml\0123R51owKBgAp"
 1311      68486453 
 1311      706A7578 
 1311      30562F38 
 1311      3558454C 
 1312 3929 4752645A 		.ascii	"GRdZB0CIhjVGmiVmYmnpGBIc6ngn1lOdw3GAFk8bjWwY0GHKiql"
 1312      42304349 
 1312      686A5647 
 1312      6D69566D 
 1312      596D6E70 
 1313 395c 54310A64 		.ascii	"T1\012d2Pgjv9tlUbDW+VN2UBPJwGfUmwNw0cgSzZ7jcwdUI7jB"
 1313      3250676A 
 1313      7639746C 
 1313      55624457 
 1313      2B564E32 
 1314 398c 62696864 		.ascii	"bihdpFAYnkh/FU63V3J\012XjLO+3JwUmTwLJACUYtcaJr9RkgR"
 1314      70464159 
 1314      6E6B682F 
 1314      46553633 
 1314      56334A0A 
 1315 39bc 66614D67 		.ascii	"faMgLeyhAV6XBHUkYN1Ff/Ub\012-----END RSA PRIVATE KE"
 1315      4C657968 
 1315      41563658 
 1315      4248556B 
 1315      594E3146 
 1316 39ec 592D2D2D 		.ascii	"Y-----\012\000"
 1316      2D2D0A00 
 1317              		.section	.rodata.convert_pem_to_der.str1.1,"aMS",%progbits,1
 1318              	.LC0:
 1319 0000 2D2D2D2D 		.ascii	"-----BEGIN\000"
 1319      2D424547 
 1319      494E00
 1320              	.LC1:
 1321 000b 2D2D2D2D 		.ascii	"-----END\000"
 1321      2D454E44 
 1321      00
 1322              		.section	.rodata.xProvisionCertificate.str1.1,"aMS",%progbits,1
 1323              	.LC2:
 1324 0000 4552524F 		.ascii	"ERROR: Failed to provision certificate %d \015\012\000"
 1324      523A2046 
 1324      61696C65 
 1324      6420746F 
 1324      2070726F 
 1325              	.LC3:
 1326 002d 57726974 		.ascii	"Write certificate...\015\012\000"
 1326      65206365 
 1326      72746966 
 1326      69636174 
 1326      652E2E2E 
 1327              		.section	.rodata.xProvisionDevice.str1.1,"aMS",%progbits,1
 1328              	.LC4:
 1329 0000 44657669 		.ascii	"Device Priv TLS Key\000"
 1329      63652050 
 1329      72697620 
 1329      544C5320 
 1329      4B657900 
 1330              	.LC5:
 1331 0014 44657669 		.ascii	"Device Cert\000"
 1331      63652043 
 1331      65727400 
 1332              	.LC6:
 1333 0020 4552524F 		.ascii	"ERROR: Failed to parse private key %d \015\012\000"
 1333      523A2046 
 1333      61696C65 
 1333      6420746F 
 1333      20706172 
 1334              	.LC7:
 1335 0049 57726974 		.ascii	"Write device private key...\015\012\000"
 1335      65206465 
 1335      76696365 
 1335      20707269 
 1335      76617465 
 1336              	.LC8:
 1337 0067 4552524F 		.ascii	"ERROR: Failed to provision private key %d \015\012\000"
 1337      523A2046 
 1337      61696C65 
 1337      6420746F 
 1337      2070726F 
 1338              		.text
 1339              	.Letext0:
 1340              		.file 2 "c:\\program files (x86)\\gnu tools arm embedded\\6 2017-q2-update\\arm-none-eabi\\include
 1341              		.file 3 "c:\\program files (x86)\\gnu tools arm embedded\\6 2017-q2-update\\lib\\gcc\\arm-none-eab
 1342              		.file 4 "c:\\program files (x86)\\gnu tools arm embedded\\6 2017-q2-update\\arm-none-eabi\\include
 1343              		.file 5 "c:\\program files (x86)\\gnu tools arm embedded\\6 2017-q2-update\\arm-none-eabi\\include
 1344              		.file 6 "c:\\program files (x86)\\gnu tools arm embedded\\6 2017-q2-update\\arm-none-eabi\\include
 1345              		.file 7 "c:\\program files (x86)\\gnu tools arm embedded\\6 2017-q2-update\\arm-none-eabi\\include
 1346              		.file 8 "c:\\program files (x86)\\gnu tools arm embedded\\6 2017-q2-update\\arm-none-eabi\\include
 1347              		.file 9 "c:\\program files (x86)\\gnu tools arm embedded\\6 2017-q2-update\\arm-none-eabi\\include
 1348              		.file 10 "D:\\Work\\DeviceTester\\amazon-freertos\\lib\\third_party\\unity\\src/unity_internals.h"
 1349              		.file 11 "D:\\Work\\DeviceTester\\amazon-freertos\\lib\\third_party\\pkcs11/pkcs11t.h"
 1350              		.file 12 "D:\\Work\\DeviceTester\\amazon-freertos\\lib\\third_party\\pkcs11/pkcs11.h"
 1351              		.file 13 "D:\\Work\\DeviceTester\\amazon-freertos\\lib\\third_party\\pkcs11/pkcs11f.h"
 1352              		.file 14 "D:\\Work\\DeviceTester\\amazon-freertos\\lib\\include/aws_pkcs11.h"
 1353              		.file 15 "D:\\Work\\DeviceTester\\amazon-freertos\\tests\\common\\include/aws_clientcredential_key
 1354              		.file 16 "D:\\Work\\DeviceTester\\amazon-freertos\\tests\\common\\include/aws_clientcredential.h"
 1355              		.file 17 "D:\\Work\\DeviceTester\\amazon-freertos\\lib\\include\\private/aws_default_root_certific
 1356              		.file 18 "D:\\Work\\DeviceTester\\amazon-freertos\\tests\\common\\include/aws_dev_mode_key_provisi
 1357              		.file 19 "D:\\Work\\DeviceTester\\amazon-freertos\\lib\\include\\private/portable.h"
 1358              		.file 20 "D:\\Work\\DeviceTester\\amazon-freertos\\tests\\renesas\\rza2m-gr-mango\\common\\config_
 1359              		.file 21 "c:\\program files (x86)\\gnu tools arm embedded\\6 2017-q2-update\\arm-none-eabi\\includ
 1360              		.file 22 "D:\\Work\\DeviceTester\\amazon-freertos\\lib\\third_party\\mbedtls\\include/mbedtls/base