   1              		.cpu cortex-a9
   2              		.eabi_attribute 28, 1
   3              		.eabi_attribute 20, 1
   4              		.eabi_attribute 21, 1
   5              		.eabi_attribute 23, 3
   6              		.eabi_attribute 24, 1
   7              		.eabi_attribute 25, 1
   8              		.eabi_attribute 26, 1
   9              		.eabi_attribute 30, 4
  10              		.eabi_attribute 34, 0
  11              		.eabi_attribute 18, 4
  12              		.file	"unity_fixture.c"
  13              		.text
  14              	.Ltext0:
  15              		.cfi_sections	.debug_frame
  16              		.section	.text.release_memory,"ax",%progbits
  17              		.align	2
  18              		.syntax unified
  19              		.arm
  20              		.fpu neon
  22              	release_memory:
  23              	.LFB12:
  24              		.file 1 "D:/Work/DeviceTester/amazon-freertos/lib/third_party/unity/extras/fixture/src/unity_fixtu
   1:D:/Work/DeviceTester/amazon-freertos/lib/third_party/unity/extras/fixture/src\unity_fixture.c **** /* Copyright (c) 2010 James Grenning and Contributed to Unity Project
   2:D:/Work/DeviceTester/amazon-freertos/lib/third_party/unity/extras/fixture/src\unity_fixture.c ****  * ==========================================
   3:D:/Work/DeviceTester/amazon-freertos/lib/third_party/unity/extras/fixture/src\unity_fixture.c ****  *  Unity Project - A Test Framework for C
   4:D:/Work/DeviceTester/amazon-freertos/lib/third_party/unity/extras/fixture/src\unity_fixture.c ****  *  Copyright (c) 2007 Mike Karlesky, Mark VanderVoord, Greg Williams
   5:D:/Work/DeviceTester/amazon-freertos/lib/third_party/unity/extras/fixture/src\unity_fixture.c ****  *  [Released under MIT License. Please refer to license.txt for details]
   6:D:/Work/DeviceTester/amazon-freertos/lib/third_party/unity/extras/fixture/src\unity_fixture.c ****  * ========================================== */
   7:D:/Work/DeviceTester/amazon-freertos/lib/third_party/unity/extras/fixture/src\unity_fixture.c **** 
   8:D:/Work/DeviceTester/amazon-freertos/lib/third_party/unity/extras/fixture/src\unity_fixture.c **** #include "unity_fixture.h"
   9:D:/Work/DeviceTester/amazon-freertos/lib/third_party/unity/extras/fixture/src\unity_fixture.c **** #include "unity_internals.h"
  10:D:/Work/DeviceTester/amazon-freertos/lib/third_party/unity/extras/fixture/src\unity_fixture.c **** #include <string.h>
  11:D:/Work/DeviceTester/amazon-freertos/lib/third_party/unity/extras/fixture/src\unity_fixture.c **** 
  12:D:/Work/DeviceTester/amazon-freertos/lib/third_party/unity/extras/fixture/src\unity_fixture.c **** struct UNITY_FIXTURE_T UnityFixture;
  13:D:/Work/DeviceTester/amazon-freertos/lib/third_party/unity/extras/fixture/src\unity_fixture.c **** 
  14:D:/Work/DeviceTester/amazon-freertos/lib/third_party/unity/extras/fixture/src\unity_fixture.c **** /* If you decide to use the function pointer approach.
  15:D:/Work/DeviceTester/amazon-freertos/lib/third_party/unity/extras/fixture/src\unity_fixture.c ****  * Build with -D UNITY_OUTPUT_CHAR=outputChar and include <stdio.h>
  16:D:/Work/DeviceTester/amazon-freertos/lib/third_party/unity/extras/fixture/src\unity_fixture.c ****  * int (*outputChar)(int) = putchar; */
  17:D:/Work/DeviceTester/amazon-freertos/lib/third_party/unity/extras/fixture/src\unity_fixture.c **** 
  18:D:/Work/DeviceTester/amazon-freertos/lib/third_party/unity/extras/fixture/src\unity_fixture.c **** #if !defined(UNITY_WEAK_ATTRIBUTE) && !defined(UNITY_WEAK_PRAGMA)
  19:D:/Work/DeviceTester/amazon-freertos/lib/third_party/unity/extras/fixture/src\unity_fixture.c **** void setUp(void)    { /*does nothing*/ }
  20:D:/Work/DeviceTester/amazon-freertos/lib/third_party/unity/extras/fixture/src\unity_fixture.c **** void tearDown(void) { /*does nothing*/ }
  21:D:/Work/DeviceTester/amazon-freertos/lib/third_party/unity/extras/fixture/src\unity_fixture.c **** #endif
  22:D:/Work/DeviceTester/amazon-freertos/lib/third_party/unity/extras/fixture/src\unity_fixture.c **** 
  23:D:/Work/DeviceTester/amazon-freertos/lib/third_party/unity/extras/fixture/src\unity_fixture.c **** static void announceTestRun(unsigned int runNumber)
  24:D:/Work/DeviceTester/amazon-freertos/lib/third_party/unity/extras/fixture/src\unity_fixture.c **** {
  25:D:/Work/DeviceTester/amazon-freertos/lib/third_party/unity/extras/fixture/src\unity_fixture.c ****     UnityPrint("Unity test run ");
  26:D:/Work/DeviceTester/amazon-freertos/lib/third_party/unity/extras/fixture/src\unity_fixture.c ****     UnityPrintNumberUnsigned(runNumber+1);
  27:D:/Work/DeviceTester/amazon-freertos/lib/third_party/unity/extras/fixture/src\unity_fixture.c ****     UnityPrint(" of ");
  28:D:/Work/DeviceTester/amazon-freertos/lib/third_party/unity/extras/fixture/src\unity_fixture.c ****     UnityPrintNumberUnsigned(UnityFixture.RepeatCount);
  29:D:/Work/DeviceTester/amazon-freertos/lib/third_party/unity/extras/fixture/src\unity_fixture.c ****     UNITY_PRINT_EOL();
  30:D:/Work/DeviceTester/amazon-freertos/lib/third_party/unity/extras/fixture/src\unity_fixture.c **** }
  31:D:/Work/DeviceTester/amazon-freertos/lib/third_party/unity/extras/fixture/src\unity_fixture.c **** 
  32:D:/Work/DeviceTester/amazon-freertos/lib/third_party/unity/extras/fixture/src\unity_fixture.c **** int UnityMain(int argc, const char* argv[], void (*runAllTests)(void))
  33:D:/Work/DeviceTester/amazon-freertos/lib/third_party/unity/extras/fixture/src\unity_fixture.c **** {
  34:D:/Work/DeviceTester/amazon-freertos/lib/third_party/unity/extras/fixture/src\unity_fixture.c ****     int result = UnityGetCommandLineOptions(argc, argv);
  35:D:/Work/DeviceTester/amazon-freertos/lib/third_party/unity/extras/fixture/src\unity_fixture.c ****     unsigned int r;
  36:D:/Work/DeviceTester/amazon-freertos/lib/third_party/unity/extras/fixture/src\unity_fixture.c ****     if (result != 0)
  37:D:/Work/DeviceTester/amazon-freertos/lib/third_party/unity/extras/fixture/src\unity_fixture.c ****         return result;
  38:D:/Work/DeviceTester/amazon-freertos/lib/third_party/unity/extras/fixture/src\unity_fixture.c **** 
  39:D:/Work/DeviceTester/amazon-freertos/lib/third_party/unity/extras/fixture/src\unity_fixture.c ****     for (r = 0; r < UnityFixture.RepeatCount; r++)
  40:D:/Work/DeviceTester/amazon-freertos/lib/third_party/unity/extras/fixture/src\unity_fixture.c ****     {
  41:D:/Work/DeviceTester/amazon-freertos/lib/third_party/unity/extras/fixture/src\unity_fixture.c ****         UnityBegin(argv[0]);
  42:D:/Work/DeviceTester/amazon-freertos/lib/third_party/unity/extras/fixture/src\unity_fixture.c ****         announceTestRun(r);
  43:D:/Work/DeviceTester/amazon-freertos/lib/third_party/unity/extras/fixture/src\unity_fixture.c ****         runAllTests();
  44:D:/Work/DeviceTester/amazon-freertos/lib/third_party/unity/extras/fixture/src\unity_fixture.c ****         if (!UnityFixture.Verbose) UNITY_PRINT_EOL();
  45:D:/Work/DeviceTester/amazon-freertos/lib/third_party/unity/extras/fixture/src\unity_fixture.c ****         UnityEnd();
  46:D:/Work/DeviceTester/amazon-freertos/lib/third_party/unity/extras/fixture/src\unity_fixture.c ****     }
  47:D:/Work/DeviceTester/amazon-freertos/lib/third_party/unity/extras/fixture/src\unity_fixture.c **** 
  48:D:/Work/DeviceTester/amazon-freertos/lib/third_party/unity/extras/fixture/src\unity_fixture.c ****     return (int)Unity.TestFailures;
  49:D:/Work/DeviceTester/amazon-freertos/lib/third_party/unity/extras/fixture/src\unity_fixture.c **** }
  50:D:/Work/DeviceTester/amazon-freertos/lib/third_party/unity/extras/fixture/src\unity_fixture.c **** 
  51:D:/Work/DeviceTester/amazon-freertos/lib/third_party/unity/extras/fixture/src\unity_fixture.c **** static int selected(const char* filter, const char* name)
  52:D:/Work/DeviceTester/amazon-freertos/lib/third_party/unity/extras/fixture/src\unity_fixture.c **** {
  53:D:/Work/DeviceTester/amazon-freertos/lib/third_party/unity/extras/fixture/src\unity_fixture.c ****     if (filter == 0)
  54:D:/Work/DeviceTester/amazon-freertos/lib/third_party/unity/extras/fixture/src\unity_fixture.c ****         return 1;
  55:D:/Work/DeviceTester/amazon-freertos/lib/third_party/unity/extras/fixture/src\unity_fixture.c ****     return strstr(name, filter) ? 1 : 0;
  56:D:/Work/DeviceTester/amazon-freertos/lib/third_party/unity/extras/fixture/src\unity_fixture.c **** }
  57:D:/Work/DeviceTester/amazon-freertos/lib/third_party/unity/extras/fixture/src\unity_fixture.c **** 
  58:D:/Work/DeviceTester/amazon-freertos/lib/third_party/unity/extras/fixture/src\unity_fixture.c **** static int testSelected(const char* test)
  59:D:/Work/DeviceTester/amazon-freertos/lib/third_party/unity/extras/fixture/src\unity_fixture.c **** {
  60:D:/Work/DeviceTester/amazon-freertos/lib/third_party/unity/extras/fixture/src\unity_fixture.c ****     return selected(UnityFixture.NameFilter, test);
  61:D:/Work/DeviceTester/amazon-freertos/lib/third_party/unity/extras/fixture/src\unity_fixture.c **** }
  62:D:/Work/DeviceTester/amazon-freertos/lib/third_party/unity/extras/fixture/src\unity_fixture.c **** 
  63:D:/Work/DeviceTester/amazon-freertos/lib/third_party/unity/extras/fixture/src\unity_fixture.c **** static int groupSelected(const char* group)
  64:D:/Work/DeviceTester/amazon-freertos/lib/third_party/unity/extras/fixture/src\unity_fixture.c **** {
  65:D:/Work/DeviceTester/amazon-freertos/lib/third_party/unity/extras/fixture/src\unity_fixture.c ****     return selected(UnityFixture.GroupFilter, group);
  66:D:/Work/DeviceTester/amazon-freertos/lib/third_party/unity/extras/fixture/src\unity_fixture.c **** }
  67:D:/Work/DeviceTester/amazon-freertos/lib/third_party/unity/extras/fixture/src\unity_fixture.c **** 
  68:D:/Work/DeviceTester/amazon-freertos/lib/third_party/unity/extras/fixture/src\unity_fixture.c **** void UnityTestRunner(unityfunction* setup,
  69:D:/Work/DeviceTester/amazon-freertos/lib/third_party/unity/extras/fixture/src\unity_fixture.c ****                      unityfunction* testBody,
  70:D:/Work/DeviceTester/amazon-freertos/lib/third_party/unity/extras/fixture/src\unity_fixture.c ****                      unityfunction* teardown,
  71:D:/Work/DeviceTester/amazon-freertos/lib/third_party/unity/extras/fixture/src\unity_fixture.c ****                      const char* printableName,
  72:D:/Work/DeviceTester/amazon-freertos/lib/third_party/unity/extras/fixture/src\unity_fixture.c ****                      const char* group,
  73:D:/Work/DeviceTester/amazon-freertos/lib/third_party/unity/extras/fixture/src\unity_fixture.c ****                      const char* name,
  74:D:/Work/DeviceTester/amazon-freertos/lib/third_party/unity/extras/fixture/src\unity_fixture.c ****                      const char* file,
  75:D:/Work/DeviceTester/amazon-freertos/lib/third_party/unity/extras/fixture/src\unity_fixture.c ****                      unsigned int line)
  76:D:/Work/DeviceTester/amazon-freertos/lib/third_party/unity/extras/fixture/src\unity_fixture.c **** {
  77:D:/Work/DeviceTester/amazon-freertos/lib/third_party/unity/extras/fixture/src\unity_fixture.c ****     if (testSelected(name) && groupSelected(group))
  78:D:/Work/DeviceTester/amazon-freertos/lib/third_party/unity/extras/fixture/src\unity_fixture.c ****     {
  79:D:/Work/DeviceTester/amazon-freertos/lib/third_party/unity/extras/fixture/src\unity_fixture.c ****         Unity.TestFile = file;
  80:D:/Work/DeviceTester/amazon-freertos/lib/third_party/unity/extras/fixture/src\unity_fixture.c ****         Unity.CurrentTestName = printableName;
  81:D:/Work/DeviceTester/amazon-freertos/lib/third_party/unity/extras/fixture/src\unity_fixture.c ****         Unity.CurrentTestLineNumber = line;
  82:D:/Work/DeviceTester/amazon-freertos/lib/third_party/unity/extras/fixture/src\unity_fixture.c ****         if (!UnityFixture.Verbose)
  83:D:/Work/DeviceTester/amazon-freertos/lib/third_party/unity/extras/fixture/src\unity_fixture.c ****             UNITY_OUTPUT_CHAR('.');
  84:D:/Work/DeviceTester/amazon-freertos/lib/third_party/unity/extras/fixture/src\unity_fixture.c ****         else
  85:D:/Work/DeviceTester/amazon-freertos/lib/third_party/unity/extras/fixture/src\unity_fixture.c ****         {
  86:D:/Work/DeviceTester/amazon-freertos/lib/third_party/unity/extras/fixture/src\unity_fixture.c ****             UnityPrint(printableName);
  87:D:/Work/DeviceTester/amazon-freertos/lib/third_party/unity/extras/fixture/src\unity_fixture.c ****         #ifndef UNITY_REPEAT_TEST_NAME
  88:D:/Work/DeviceTester/amazon-freertos/lib/third_party/unity/extras/fixture/src\unity_fixture.c ****             Unity.CurrentTestName = NULL;
  89:D:/Work/DeviceTester/amazon-freertos/lib/third_party/unity/extras/fixture/src\unity_fixture.c ****         #endif
  90:D:/Work/DeviceTester/amazon-freertos/lib/third_party/unity/extras/fixture/src\unity_fixture.c ****         }
  91:D:/Work/DeviceTester/amazon-freertos/lib/third_party/unity/extras/fixture/src\unity_fixture.c **** 
  92:D:/Work/DeviceTester/amazon-freertos/lib/third_party/unity/extras/fixture/src\unity_fixture.c ****         Unity.NumberOfTests++;
  93:D:/Work/DeviceTester/amazon-freertos/lib/third_party/unity/extras/fixture/src\unity_fixture.c ****         UnityMalloc_StartTest();
  94:D:/Work/DeviceTester/amazon-freertos/lib/third_party/unity/extras/fixture/src\unity_fixture.c ****         UnityPointer_Init();
  95:D:/Work/DeviceTester/amazon-freertos/lib/third_party/unity/extras/fixture/src\unity_fixture.c **** 
  96:D:/Work/DeviceTester/amazon-freertos/lib/third_party/unity/extras/fixture/src\unity_fixture.c ****         if (TEST_PROTECT())
  97:D:/Work/DeviceTester/amazon-freertos/lib/third_party/unity/extras/fixture/src\unity_fixture.c ****         {
  98:D:/Work/DeviceTester/amazon-freertos/lib/third_party/unity/extras/fixture/src\unity_fixture.c ****             setup();
  99:D:/Work/DeviceTester/amazon-freertos/lib/third_party/unity/extras/fixture/src\unity_fixture.c ****             testBody();
 100:D:/Work/DeviceTester/amazon-freertos/lib/third_party/unity/extras/fixture/src\unity_fixture.c ****         }
 101:D:/Work/DeviceTester/amazon-freertos/lib/third_party/unity/extras/fixture/src\unity_fixture.c ****         if (TEST_PROTECT())
 102:D:/Work/DeviceTester/amazon-freertos/lib/third_party/unity/extras/fixture/src\unity_fixture.c ****         {
 103:D:/Work/DeviceTester/amazon-freertos/lib/third_party/unity/extras/fixture/src\unity_fixture.c ****             teardown();
 104:D:/Work/DeviceTester/amazon-freertos/lib/third_party/unity/extras/fixture/src\unity_fixture.c ****         }
 105:D:/Work/DeviceTester/amazon-freertos/lib/third_party/unity/extras/fixture/src\unity_fixture.c ****         if (TEST_PROTECT())
 106:D:/Work/DeviceTester/amazon-freertos/lib/third_party/unity/extras/fixture/src\unity_fixture.c ****         {
 107:D:/Work/DeviceTester/amazon-freertos/lib/third_party/unity/extras/fixture/src\unity_fixture.c ****             UnityPointer_UndoAllSets();
 108:D:/Work/DeviceTester/amazon-freertos/lib/third_party/unity/extras/fixture/src\unity_fixture.c ****             if (!Unity.CurrentTestFailed)
 109:D:/Work/DeviceTester/amazon-freertos/lib/third_party/unity/extras/fixture/src\unity_fixture.c ****                 UnityMalloc_EndTest();
 110:D:/Work/DeviceTester/amazon-freertos/lib/third_party/unity/extras/fixture/src\unity_fixture.c ****         }
 111:D:/Work/DeviceTester/amazon-freertos/lib/third_party/unity/extras/fixture/src\unity_fixture.c ****         UnityConcludeFixtureTest();
 112:D:/Work/DeviceTester/amazon-freertos/lib/third_party/unity/extras/fixture/src\unity_fixture.c ****     }
 113:D:/Work/DeviceTester/amazon-freertos/lib/third_party/unity/extras/fixture/src\unity_fixture.c **** }
 114:D:/Work/DeviceTester/amazon-freertos/lib/third_party/unity/extras/fixture/src\unity_fixture.c **** 
 115:D:/Work/DeviceTester/amazon-freertos/lib/third_party/unity/extras/fixture/src\unity_fixture.c **** void UnityIgnoreTest(const char* printableName, const char* group, const char* name)
 116:D:/Work/DeviceTester/amazon-freertos/lib/third_party/unity/extras/fixture/src\unity_fixture.c **** {
 117:D:/Work/DeviceTester/amazon-freertos/lib/third_party/unity/extras/fixture/src\unity_fixture.c ****     if (testSelected(name) && groupSelected(group))
 118:D:/Work/DeviceTester/amazon-freertos/lib/third_party/unity/extras/fixture/src\unity_fixture.c ****     {
 119:D:/Work/DeviceTester/amazon-freertos/lib/third_party/unity/extras/fixture/src\unity_fixture.c ****         Unity.NumberOfTests++;
 120:D:/Work/DeviceTester/amazon-freertos/lib/third_party/unity/extras/fixture/src\unity_fixture.c ****         Unity.TestIgnores++;
 121:D:/Work/DeviceTester/amazon-freertos/lib/third_party/unity/extras/fixture/src\unity_fixture.c ****         if (!UnityFixture.Verbose)
 122:D:/Work/DeviceTester/amazon-freertos/lib/third_party/unity/extras/fixture/src\unity_fixture.c ****             UNITY_OUTPUT_CHAR('!');
 123:D:/Work/DeviceTester/amazon-freertos/lib/third_party/unity/extras/fixture/src\unity_fixture.c ****         else
 124:D:/Work/DeviceTester/amazon-freertos/lib/third_party/unity/extras/fixture/src\unity_fixture.c ****         {
 125:D:/Work/DeviceTester/amazon-freertos/lib/third_party/unity/extras/fixture/src\unity_fixture.c ****             UnityPrint(printableName);
 126:D:/Work/DeviceTester/amazon-freertos/lib/third_party/unity/extras/fixture/src\unity_fixture.c ****             UNITY_PRINT_EOL();
 127:D:/Work/DeviceTester/amazon-freertos/lib/third_party/unity/extras/fixture/src\unity_fixture.c ****         }
 128:D:/Work/DeviceTester/amazon-freertos/lib/third_party/unity/extras/fixture/src\unity_fixture.c ****     }
 129:D:/Work/DeviceTester/amazon-freertos/lib/third_party/unity/extras/fixture/src\unity_fixture.c **** }
 130:D:/Work/DeviceTester/amazon-freertos/lib/third_party/unity/extras/fixture/src\unity_fixture.c **** 
 131:D:/Work/DeviceTester/amazon-freertos/lib/third_party/unity/extras/fixture/src\unity_fixture.c **** 
 132:D:/Work/DeviceTester/amazon-freertos/lib/third_party/unity/extras/fixture/src\unity_fixture.c **** /*------------------------------------------------- */
 133:D:/Work/DeviceTester/amazon-freertos/lib/third_party/unity/extras/fixture/src\unity_fixture.c **** /* Malloc and free stuff */
 134:D:/Work/DeviceTester/amazon-freertos/lib/third_party/unity/extras/fixture/src\unity_fixture.c **** #define MALLOC_DONT_FAIL -1
 135:D:/Work/DeviceTester/amazon-freertos/lib/third_party/unity/extras/fixture/src\unity_fixture.c **** static int malloc_count;
 136:D:/Work/DeviceTester/amazon-freertos/lib/third_party/unity/extras/fixture/src\unity_fixture.c **** static int malloc_fail_countdown = MALLOC_DONT_FAIL;
 137:D:/Work/DeviceTester/amazon-freertos/lib/third_party/unity/extras/fixture/src\unity_fixture.c **** 
 138:D:/Work/DeviceTester/amazon-freertos/lib/third_party/unity/extras/fixture/src\unity_fixture.c **** void UnityMalloc_StartTest(void)
 139:D:/Work/DeviceTester/amazon-freertos/lib/third_party/unity/extras/fixture/src\unity_fixture.c **** {
 140:D:/Work/DeviceTester/amazon-freertos/lib/third_party/unity/extras/fixture/src\unity_fixture.c ****     malloc_count = 0;
 141:D:/Work/DeviceTester/amazon-freertos/lib/third_party/unity/extras/fixture/src\unity_fixture.c ****     malloc_fail_countdown = MALLOC_DONT_FAIL;
 142:D:/Work/DeviceTester/amazon-freertos/lib/third_party/unity/extras/fixture/src\unity_fixture.c **** }
 143:D:/Work/DeviceTester/amazon-freertos/lib/third_party/unity/extras/fixture/src\unity_fixture.c **** 
 144:D:/Work/DeviceTester/amazon-freertos/lib/third_party/unity/extras/fixture/src\unity_fixture.c **** void UnityMalloc_EndTest(void)
 145:D:/Work/DeviceTester/amazon-freertos/lib/third_party/unity/extras/fixture/src\unity_fixture.c **** {
 146:D:/Work/DeviceTester/amazon-freertos/lib/third_party/unity/extras/fixture/src\unity_fixture.c ****     malloc_fail_countdown = MALLOC_DONT_FAIL;
 147:D:/Work/DeviceTester/amazon-freertos/lib/third_party/unity/extras/fixture/src\unity_fixture.c ****     if (malloc_count != 0)
 148:D:/Work/DeviceTester/amazon-freertos/lib/third_party/unity/extras/fixture/src\unity_fixture.c ****     {
 149:D:/Work/DeviceTester/amazon-freertos/lib/third_party/unity/extras/fixture/src\unity_fixture.c ****         UNITY_TEST_FAIL(Unity.CurrentTestLineNumber, "This test leaks!");
 150:D:/Work/DeviceTester/amazon-freertos/lib/third_party/unity/extras/fixture/src\unity_fixture.c ****     }
 151:D:/Work/DeviceTester/amazon-freertos/lib/third_party/unity/extras/fixture/src\unity_fixture.c **** }
 152:D:/Work/DeviceTester/amazon-freertos/lib/third_party/unity/extras/fixture/src\unity_fixture.c **** 
 153:D:/Work/DeviceTester/amazon-freertos/lib/third_party/unity/extras/fixture/src\unity_fixture.c **** void UnityMalloc_MakeMallocFailAfterCount(int countdown)
 154:D:/Work/DeviceTester/amazon-freertos/lib/third_party/unity/extras/fixture/src\unity_fixture.c **** {
 155:D:/Work/DeviceTester/amazon-freertos/lib/third_party/unity/extras/fixture/src\unity_fixture.c ****     malloc_fail_countdown = countdown;
 156:D:/Work/DeviceTester/amazon-freertos/lib/third_party/unity/extras/fixture/src\unity_fixture.c **** }
 157:D:/Work/DeviceTester/amazon-freertos/lib/third_party/unity/extras/fixture/src\unity_fixture.c **** 
 158:D:/Work/DeviceTester/amazon-freertos/lib/third_party/unity/extras/fixture/src\unity_fixture.c **** /* These definitions are always included from unity_fixture_malloc_overrides.h */
 159:D:/Work/DeviceTester/amazon-freertos/lib/third_party/unity/extras/fixture/src\unity_fixture.c **** /* We undef to use them or avoid conflict with <stdlib.h> per the C standard */
 160:D:/Work/DeviceTester/amazon-freertos/lib/third_party/unity/extras/fixture/src\unity_fixture.c **** #undef malloc
 161:D:/Work/DeviceTester/amazon-freertos/lib/third_party/unity/extras/fixture/src\unity_fixture.c **** #undef free
 162:D:/Work/DeviceTester/amazon-freertos/lib/third_party/unity/extras/fixture/src\unity_fixture.c **** #undef calloc
 163:D:/Work/DeviceTester/amazon-freertos/lib/third_party/unity/extras/fixture/src\unity_fixture.c **** #undef realloc
 164:D:/Work/DeviceTester/amazon-freertos/lib/third_party/unity/extras/fixture/src\unity_fixture.c **** 
 165:D:/Work/DeviceTester/amazon-freertos/lib/third_party/unity/extras/fixture/src\unity_fixture.c **** #ifdef UNITY_EXCLUDE_STDLIB_MALLOC
 166:D:/Work/DeviceTester/amazon-freertos/lib/third_party/unity/extras/fixture/src\unity_fixture.c **** static unsigned char unity_heap[UNITY_INTERNAL_HEAP_SIZE_BYTES];
 167:D:/Work/DeviceTester/amazon-freertos/lib/third_party/unity/extras/fixture/src\unity_fixture.c **** static size_t heap_index;
 168:D:/Work/DeviceTester/amazon-freertos/lib/third_party/unity/extras/fixture/src\unity_fixture.c **** #else
 169:D:/Work/DeviceTester/amazon-freertos/lib/third_party/unity/extras/fixture/src\unity_fixture.c **** #include <stdlib.h>
 170:D:/Work/DeviceTester/amazon-freertos/lib/third_party/unity/extras/fixture/src\unity_fixture.c **** #endif
 171:D:/Work/DeviceTester/amazon-freertos/lib/third_party/unity/extras/fixture/src\unity_fixture.c **** 
 172:D:/Work/DeviceTester/amazon-freertos/lib/third_party/unity/extras/fixture/src\unity_fixture.c **** typedef struct GuardBytes
 173:D:/Work/DeviceTester/amazon-freertos/lib/third_party/unity/extras/fixture/src\unity_fixture.c **** {
 174:D:/Work/DeviceTester/amazon-freertos/lib/third_party/unity/extras/fixture/src\unity_fixture.c ****     size_t size;
 175:D:/Work/DeviceTester/amazon-freertos/lib/third_party/unity/extras/fixture/src\unity_fixture.c ****     size_t guard_space;
 176:D:/Work/DeviceTester/amazon-freertos/lib/third_party/unity/extras/fixture/src\unity_fixture.c **** } Guard;
 177:D:/Work/DeviceTester/amazon-freertos/lib/third_party/unity/extras/fixture/src\unity_fixture.c **** 
 178:D:/Work/DeviceTester/amazon-freertos/lib/third_party/unity/extras/fixture/src\unity_fixture.c **** 
 179:D:/Work/DeviceTester/amazon-freertos/lib/third_party/unity/extras/fixture/src\unity_fixture.c **** static const char end[] = "END";
 180:D:/Work/DeviceTester/amazon-freertos/lib/third_party/unity/extras/fixture/src\unity_fixture.c **** 
 181:D:/Work/DeviceTester/amazon-freertos/lib/third_party/unity/extras/fixture/src\unity_fixture.c **** void* unity_malloc(size_t size)
 182:D:/Work/DeviceTester/amazon-freertos/lib/third_party/unity/extras/fixture/src\unity_fixture.c **** {
 183:D:/Work/DeviceTester/amazon-freertos/lib/third_party/unity/extras/fixture/src\unity_fixture.c ****     char* mem;
 184:D:/Work/DeviceTester/amazon-freertos/lib/third_party/unity/extras/fixture/src\unity_fixture.c ****     Guard* guard;
 185:D:/Work/DeviceTester/amazon-freertos/lib/third_party/unity/extras/fixture/src\unity_fixture.c ****     size_t total_size = size + sizeof(Guard) + sizeof(end);
 186:D:/Work/DeviceTester/amazon-freertos/lib/third_party/unity/extras/fixture/src\unity_fixture.c **** 
 187:D:/Work/DeviceTester/amazon-freertos/lib/third_party/unity/extras/fixture/src\unity_fixture.c ****     if (malloc_fail_countdown != MALLOC_DONT_FAIL)
 188:D:/Work/DeviceTester/amazon-freertos/lib/third_party/unity/extras/fixture/src\unity_fixture.c ****     {
 189:D:/Work/DeviceTester/amazon-freertos/lib/third_party/unity/extras/fixture/src\unity_fixture.c ****         if (malloc_fail_countdown == 0)
 190:D:/Work/DeviceTester/amazon-freertos/lib/third_party/unity/extras/fixture/src\unity_fixture.c ****             return NULL;
 191:D:/Work/DeviceTester/amazon-freertos/lib/third_party/unity/extras/fixture/src\unity_fixture.c ****         malloc_fail_countdown--;
 192:D:/Work/DeviceTester/amazon-freertos/lib/third_party/unity/extras/fixture/src\unity_fixture.c ****     }
 193:D:/Work/DeviceTester/amazon-freertos/lib/third_party/unity/extras/fixture/src\unity_fixture.c **** 
 194:D:/Work/DeviceTester/amazon-freertos/lib/third_party/unity/extras/fixture/src\unity_fixture.c ****     if (size == 0) return NULL;
 195:D:/Work/DeviceTester/amazon-freertos/lib/third_party/unity/extras/fixture/src\unity_fixture.c **** #ifdef UNITY_EXCLUDE_STDLIB_MALLOC
 196:D:/Work/DeviceTester/amazon-freertos/lib/third_party/unity/extras/fixture/src\unity_fixture.c ****     if (heap_index + total_size > UNITY_INTERNAL_HEAP_SIZE_BYTES)
 197:D:/Work/DeviceTester/amazon-freertos/lib/third_party/unity/extras/fixture/src\unity_fixture.c ****     {
 198:D:/Work/DeviceTester/amazon-freertos/lib/third_party/unity/extras/fixture/src\unity_fixture.c ****         guard = NULL;
 199:D:/Work/DeviceTester/amazon-freertos/lib/third_party/unity/extras/fixture/src\unity_fixture.c ****     }
 200:D:/Work/DeviceTester/amazon-freertos/lib/third_party/unity/extras/fixture/src\unity_fixture.c ****     else
 201:D:/Work/DeviceTester/amazon-freertos/lib/third_party/unity/extras/fixture/src\unity_fixture.c ****     {
 202:D:/Work/DeviceTester/amazon-freertos/lib/third_party/unity/extras/fixture/src\unity_fixture.c ****         guard = (Guard*)&unity_heap[heap_index];
 203:D:/Work/DeviceTester/amazon-freertos/lib/third_party/unity/extras/fixture/src\unity_fixture.c ****         heap_index += total_size;
 204:D:/Work/DeviceTester/amazon-freertos/lib/third_party/unity/extras/fixture/src\unity_fixture.c ****     }
 205:D:/Work/DeviceTester/amazon-freertos/lib/third_party/unity/extras/fixture/src\unity_fixture.c **** #else
 206:D:/Work/DeviceTester/amazon-freertos/lib/third_party/unity/extras/fixture/src\unity_fixture.c ****     guard = (Guard*)UNITY_FIXTURE_MALLOC(total_size);
 207:D:/Work/DeviceTester/amazon-freertos/lib/third_party/unity/extras/fixture/src\unity_fixture.c **** #endif
 208:D:/Work/DeviceTester/amazon-freertos/lib/third_party/unity/extras/fixture/src\unity_fixture.c ****     if (guard == NULL) return NULL;
 209:D:/Work/DeviceTester/amazon-freertos/lib/third_party/unity/extras/fixture/src\unity_fixture.c ****     malloc_count++;
 210:D:/Work/DeviceTester/amazon-freertos/lib/third_party/unity/extras/fixture/src\unity_fixture.c ****     guard->size = size;
 211:D:/Work/DeviceTester/amazon-freertos/lib/third_party/unity/extras/fixture/src\unity_fixture.c ****     guard->guard_space = 0;
 212:D:/Work/DeviceTester/amazon-freertos/lib/third_party/unity/extras/fixture/src\unity_fixture.c ****     mem = (char*)&(guard[1]);
 213:D:/Work/DeviceTester/amazon-freertos/lib/third_party/unity/extras/fixture/src\unity_fixture.c ****     memcpy(&mem[size], end, sizeof(end));
 214:D:/Work/DeviceTester/amazon-freertos/lib/third_party/unity/extras/fixture/src\unity_fixture.c **** 
 215:D:/Work/DeviceTester/amazon-freertos/lib/third_party/unity/extras/fixture/src\unity_fixture.c ****     return (void*)mem;
 216:D:/Work/DeviceTester/amazon-freertos/lib/third_party/unity/extras/fixture/src\unity_fixture.c **** }
 217:D:/Work/DeviceTester/amazon-freertos/lib/third_party/unity/extras/fixture/src\unity_fixture.c **** 
 218:D:/Work/DeviceTester/amazon-freertos/lib/third_party/unity/extras/fixture/src\unity_fixture.c **** static int isOverrun(void* mem)
 219:D:/Work/DeviceTester/amazon-freertos/lib/third_party/unity/extras/fixture/src\unity_fixture.c **** {
 220:D:/Work/DeviceTester/amazon-freertos/lib/third_party/unity/extras/fixture/src\unity_fixture.c ****     Guard* guard = (Guard*)mem;
 221:D:/Work/DeviceTester/amazon-freertos/lib/third_party/unity/extras/fixture/src\unity_fixture.c ****     char* memAsChar = (char*)mem;
 222:D:/Work/DeviceTester/amazon-freertos/lib/third_party/unity/extras/fixture/src\unity_fixture.c ****     guard--;
 223:D:/Work/DeviceTester/amazon-freertos/lib/third_party/unity/extras/fixture/src\unity_fixture.c **** 
 224:D:/Work/DeviceTester/amazon-freertos/lib/third_party/unity/extras/fixture/src\unity_fixture.c ****     return guard->guard_space != 0 || strcmp(&memAsChar[guard->size], end) != 0;
 225:D:/Work/DeviceTester/amazon-freertos/lib/third_party/unity/extras/fixture/src\unity_fixture.c **** }
 226:D:/Work/DeviceTester/amazon-freertos/lib/third_party/unity/extras/fixture/src\unity_fixture.c **** 
 227:D:/Work/DeviceTester/amazon-freertos/lib/third_party/unity/extras/fixture/src\unity_fixture.c **** static void release_memory(void* mem)
 228:D:/Work/DeviceTester/amazon-freertos/lib/third_party/unity/extras/fixture/src\unity_fixture.c **** {
  25              		.loc 1 228 0
  26              		.cfi_startproc
  27              		@ args = 0, pretend = 0, frame = 0
  28              		@ frame_needed = 0, uses_anonymous_args = 0
  29              		@ link register save eliminated.
  30              	.LVL0:
 229:D:/Work/DeviceTester/amazon-freertos/lib/third_party/unity/extras/fixture/src\unity_fixture.c ****     Guard* guard = (Guard*)mem;
 230:D:/Work/DeviceTester/amazon-freertos/lib/third_party/unity/extras/fixture/src\unity_fixture.c ****     guard--;
 231:D:/Work/DeviceTester/amazon-freertos/lib/third_party/unity/extras/fixture/src\unity_fixture.c **** 
 232:D:/Work/DeviceTester/amazon-freertos/lib/third_party/unity/extras/fixture/src\unity_fixture.c ****     malloc_count--;
  31              		.loc 1 232 0
  32 0000 10209FE5 		ldr	r2, .L2
 233:D:/Work/DeviceTester/amazon-freertos/lib/third_party/unity/extras/fixture/src\unity_fixture.c **** #ifdef UNITY_EXCLUDE_STDLIB_MALLOC
 234:D:/Work/DeviceTester/amazon-freertos/lib/third_party/unity/extras/fixture/src\unity_fixture.c ****     if (mem == unity_heap + heap_index - guard->size - sizeof(end))
 235:D:/Work/DeviceTester/amazon-freertos/lib/third_party/unity/extras/fixture/src\unity_fixture.c ****     {
 236:D:/Work/DeviceTester/amazon-freertos/lib/third_party/unity/extras/fixture/src\unity_fixture.c ****         heap_index -= (guard->size + sizeof(Guard) + sizeof(end));
 237:D:/Work/DeviceTester/amazon-freertos/lib/third_party/unity/extras/fixture/src\unity_fixture.c ****     }
 238:D:/Work/DeviceTester/amazon-freertos/lib/third_party/unity/extras/fixture/src\unity_fixture.c **** #else
 239:D:/Work/DeviceTester/amazon-freertos/lib/third_party/unity/extras/fixture/src\unity_fixture.c ****     UNITY_FIXTURE_FREE(guard);
  33              		.loc 1 239 0
  34 0004 080040E2 		sub	r0, r0, #8
  35              	.LVL1:
 232:D:/Work/DeviceTester/amazon-freertos/lib/third_party/unity/extras/fixture/src\unity_fixture.c **** #ifdef UNITY_EXCLUDE_STDLIB_MALLOC
  36              		.loc 1 232 0
  37 0008 003092E5 		ldr	r3, [r2]
  38 000c 013043E2 		sub	r3, r3, #1
  39 0010 003082E5 		str	r3, [r2]
  40              		.loc 1 239 0
  41 0014 FEFFFFEA 		b	free
  42              	.LVL2:
  43              	.L3:
  44              		.align	2
  45              	.L2:
  46 0018 00000000 		.word	.LANCHOR0
  47              		.cfi_endproc
  48              	.LFE12:
  50              		.section	.text.UnityIgnoreTest,"ax",%progbits
  51              		.align	2
  52              		.global	UnityIgnoreTest
  53              		.syntax unified
  54              		.arm
  55              		.fpu neon
  57              	UnityIgnoreTest:
  58              	.LFB6:
 116:D:/Work/DeviceTester/amazon-freertos/lib/third_party/unity/extras/fixture/src\unity_fixture.c ****     if (testSelected(name) && groupSelected(group))
  59              		.loc 1 116 0
  60              		.cfi_startproc
  61              		@ args = 0, pretend = 0, frame = 0
  62              		@ frame_needed = 0, uses_anonymous_args = 0
  63              	.LVL3:
  64 0000 70402DE9 		push	{r4, r5, r6, lr}
  65              		.cfi_def_cfa_offset 16
  66              		.cfi_offset 4, -16
  67              		.cfi_offset 5, -12
  68              		.cfi_offset 6, -8
  69              		.cfi_offset 14, -4
 116:D:/Work/DeviceTester/amazon-freertos/lib/third_party/unity/extras/fixture/src\unity_fixture.c ****     if (testSelected(name) && groupSelected(group))
  70              		.loc 1 116 0
  71 0004 0160A0E1 		mov	r6, r1
  72              	.LBB12:
  73              	.LBB13:
  60:D:/Work/DeviceTester/amazon-freertos/lib/third_party/unity/extras/fixture/src\unity_fixture.c **** }
  74              		.loc 1 60 0
  75 0008 78409FE5 		ldr	r4, .L23
  76              	.LBE13:
  77              	.LBE12:
 116:D:/Work/DeviceTester/amazon-freertos/lib/third_party/unity/extras/fixture/src\unity_fixture.c ****     if (testSelected(name) && groupSelected(group))
  78              		.loc 1 116 0
  79 000c 0050A0E1 		mov	r5, r0
  80              	.LBB17:
  81              	.LBB16:
  60:D:/Work/DeviceTester/amazon-freertos/lib/third_party/unity/extras/fixture/src\unity_fixture.c **** }
  82              		.loc 1 60 0
  83 0010 081094E5 		ldr	r1, [r4, #8]
  84              	.LVL4:
  85              	.LBB14:
  86              	.LBB15:
  53:D:/Work/DeviceTester/amazon-freertos/lib/third_party/unity/extras/fixture/src\unity_fixture.c ****         return 1;
  87              		.loc 1 53 0
  88 0014 000051E3 		cmp	r1, #0
  89 0018 0300000A 		beq	.L5
  55:D:/Work/DeviceTester/amazon-freertos/lib/third_party/unity/extras/fixture/src\unity_fixture.c **** }
  90              		.loc 1 55 0
  91 001c 0200A0E1 		mov	r0, r2
  92              	.LVL5:
  93 0020 FEFFFFEB 		bl	strstr
  94              	.LVL6:
  95              	.LBE15:
  96              	.LBE14:
  97              	.LBE16:
  98              	.LBE17:
 117:D:/Work/DeviceTester/amazon-freertos/lib/third_party/unity/extras/fixture/src\unity_fixture.c ****     {
  99              		.loc 1 117 0
 100 0024 000050E3 		cmp	r0, #0
 101 0028 7080BD08 		popeq	{r4, r5, r6, pc}
 102              	.L5:
 103              	.LVL7:
 104              	.LBB18:
 105              	.LBB19:
  65:D:/Work/DeviceTester/amazon-freertos/lib/third_party/unity/extras/fixture/src\unity_fixture.c **** }
 106              		.loc 1 65 0
 107 002c 0C1094E5 		ldr	r1, [r4, #12]
 108              	.LVL8:
 109              	.LBB20:
 110              	.LBB21:
  53:D:/Work/DeviceTester/amazon-freertos/lib/third_party/unity/extras/fixture/src\unity_fixture.c ****         return 1;
 111              		.loc 1 53 0
 112 0030 000051E3 		cmp	r1, #0
 113 0034 0300000A 		beq	.L7
  55:D:/Work/DeviceTester/amazon-freertos/lib/third_party/unity/extras/fixture/src\unity_fixture.c **** }
 114              		.loc 1 55 0
 115 0038 0600A0E1 		mov	r0, r6
 116 003c FEFFFFEB 		bl	strstr
 117              	.LVL9:
 118              	.LBE21:
 119              	.LBE20:
 120              	.LBE19:
 121              	.LBE18:
 117:D:/Work/DeviceTester/amazon-freertos/lib/third_party/unity/extras/fixture/src\unity_fixture.c ****     {
 122              		.loc 1 117 0
 123 0040 000050E3 		cmp	r0, #0
 124 0044 7080BD08 		popeq	{r4, r5, r6, pc}
 125              	.L7:
 119:D:/Work/DeviceTester/amazon-freertos/lib/third_party/unity/extras/fixture/src\unity_fixture.c ****         Unity.TestIgnores++;
 126              		.loc 1 119 0
 127 0048 3C309FE5 		ldr	r3, .L23+4
 128 004c 142093E5 		ldr	r2, [r3, #20]
 129 0050 012082E2 		add	r2, r2, #1
 130 0054 142083E5 		str	r2, [r3, #20]
 120:D:/Work/DeviceTester/amazon-freertos/lib/third_party/unity/extras/fixture/src\unity_fixture.c ****         if (!UnityFixture.Verbose)
 131              		.loc 1 120 0
 132 0058 1C2093E5 		ldr	r2, [r3, #28]
 133 005c 012082E2 		add	r2, r2, #1
 134 0060 1C2083E5 		str	r2, [r3, #28]
 121:D:/Work/DeviceTester/amazon-freertos/lib/third_party/unity/extras/fixture/src\unity_fixture.c ****             UNITY_OUTPUT_CHAR('!');
 135              		.loc 1 121 0
 136 0064 003094E5 		ldr	r3, [r4]
 137 0068 000053E3 		cmp	r3, #0
 122:D:/Work/DeviceTester/amazon-freertos/lib/third_party/unity/extras/fixture/src\unity_fixture.c ****         else
 138              		.loc 1 122 0
 139 006c 2100A003 		moveq	r0, #33
 121:D:/Work/DeviceTester/amazon-freertos/lib/third_party/unity/extras/fixture/src\unity_fixture.c ****             UNITY_OUTPUT_CHAR('!');
 140              		.loc 1 121 0
 141 0070 0200000A 		beq	.L22
 125:D:/Work/DeviceTester/amazon-freertos/lib/third_party/unity/extras/fixture/src\unity_fixture.c ****             UNITY_PRINT_EOL();
 142              		.loc 1 125 0
 143 0074 0500A0E1 		mov	r0, r5
 144 0078 FEFFFFEB 		bl	UnityPrint
 145              	.LVL10:
 126:D:/Work/DeviceTester/amazon-freertos/lib/third_party/unity/extras/fixture/src\unity_fixture.c ****         }
 146              		.loc 1 126 0
 147 007c 0A00A0E3 		mov	r0, #10
 148              	.L22:
 129:D:/Work/DeviceTester/amazon-freertos/lib/third_party/unity/extras/fixture/src\unity_fixture.c **** 
 149              		.loc 1 129 0
 150 0080 7040BDE8 		pop	{r4, r5, r6, lr}
 151              		.cfi_restore 14
 152              		.cfi_restore 6
 153              		.cfi_restore 5
 154              		.cfi_restore 4
 155              		.cfi_def_cfa_offset 0
 156              	.LVL11:
 126:D:/Work/DeviceTester/amazon-freertos/lib/third_party/unity/extras/fixture/src\unity_fixture.c ****         }
 157              		.loc 1 126 0
 158 0084 FEFFFFEA 		b	TEST_CacheResult
 159              	.LVL12:
 160              	.L24:
 161              		.align	2
 162              	.L23:
 163 0088 00000000 		.word	UnityFixture
 164 008c 00000000 		.word	Unity
 165              		.cfi_endproc
 166              	.LFE6:
 168              		.section	.text.UnityMalloc_StartTest,"ax",%progbits
 169              		.align	2
 170              		.global	UnityMalloc_StartTest
 171              		.syntax unified
 172              		.arm
 173              		.fpu neon
 175              	UnityMalloc_StartTest:
 176              	.LFB7:
 139:D:/Work/DeviceTester/amazon-freertos/lib/third_party/unity/extras/fixture/src\unity_fixture.c ****     malloc_count = 0;
 177              		.loc 1 139 0
 178              		.cfi_startproc
 179              		@ args = 0, pretend = 0, frame = 0
 180              		@ frame_needed = 0, uses_anonymous_args = 0
 181              		@ link register save eliminated.
 140:D:/Work/DeviceTester/amazon-freertos/lib/third_party/unity/extras/fixture/src\unity_fixture.c ****     malloc_fail_countdown = MALLOC_DONT_FAIL;
 182              		.loc 1 140 0
 183 0000 14309FE5 		ldr	r3, .L26
 184 0004 0020A0E3 		mov	r2, #0
 185 0008 002083E5 		str	r2, [r3]
 141:D:/Work/DeviceTester/amazon-freertos/lib/third_party/unity/extras/fixture/src\unity_fixture.c **** }
 186              		.loc 1 141 0
 187 000c 0020E0E3 		mvn	r2, #0
 188 0010 08309FE5 		ldr	r3, .L26+4
 189 0014 002083E5 		str	r2, [r3]
 190 0018 1EFF2FE1 		bx	lr
 191              	.L27:
 192              		.align	2
 193              	.L26:
 194 001c 00000000 		.word	.LANCHOR0
 195 0020 00000000 		.word	.LANCHOR1
 196              		.cfi_endproc
 197              	.LFE7:
 199              		.section	.text.UnityMalloc_EndTest,"ax",%progbits
 200              		.align	2
 201              		.global	UnityMalloc_EndTest
 202              		.syntax unified
 203              		.arm
 204              		.fpu neon
 206              	UnityMalloc_EndTest:
 207              	.LFB8:
 145:D:/Work/DeviceTester/amazon-freertos/lib/third_party/unity/extras/fixture/src\unity_fixture.c ****     malloc_fail_countdown = MALLOC_DONT_FAIL;
 208              		.loc 1 145 0
 209              		.cfi_startproc
 210              		@ args = 0, pretend = 0, frame = 0
 211              		@ frame_needed = 0, uses_anonymous_args = 0
 212              		@ link register save eliminated.
 146:D:/Work/DeviceTester/amazon-freertos/lib/third_party/unity/extras/fixture/src\unity_fixture.c ****     if (malloc_count != 0)
 213              		.loc 1 146 0
 214 0000 24309FE5 		ldr	r3, .L30
 215 0004 0020E0E3 		mvn	r2, #0
 216 0008 002083E5 		str	r2, [r3]
 147:D:/Work/DeviceTester/amazon-freertos/lib/third_party/unity/extras/fixture/src\unity_fixture.c ****     {
 217              		.loc 1 147 0
 218 000c 1C309FE5 		ldr	r3, .L30+4
 219 0010 003093E5 		ldr	r3, [r3]
 220 0014 000053E3 		cmp	r3, #0
 221 0018 1EFF2F01 		bxeq	lr
 222              	.LBB24:
 223              	.LBB25:
 149:D:/Work/DeviceTester/amazon-freertos/lib/third_party/unity/extras/fixture/src\unity_fixture.c ****     }
 224              		.loc 1 149 0
 225 001c 10309FE5 		ldr	r3, .L30+8
 226 0020 10009FE5 		ldr	r0, .L30+12
 227 0024 101093E5 		ldr	r1, [r3, #16]
 228 0028 FEFFFFEA 		b	UnityFail
 229              	.LVL13:
 230              	.L31:
 231              		.align	2
 232              	.L30:
 233 002c 00000000 		.word	.LANCHOR1
 234 0030 00000000 		.word	.LANCHOR0
 235 0034 00000000 		.word	Unity
 236 0038 00000000 		.word	.LC0
 237              	.LBE25:
 238              	.LBE24:
 239              		.cfi_endproc
 240              	.LFE8:
 242              		.section	.text.UnityMalloc_MakeMallocFailAfterCount,"ax",%progbits
 243              		.align	2
 244              		.global	UnityMalloc_MakeMallocFailAfterCount
 245              		.syntax unified
 246              		.arm
 247              		.fpu neon
 249              	UnityMalloc_MakeMallocFailAfterCount:
 250              	.LFB9:
 154:D:/Work/DeviceTester/amazon-freertos/lib/third_party/unity/extras/fixture/src\unity_fixture.c ****     malloc_fail_countdown = countdown;
 251              		.loc 1 154 0
 252              		.cfi_startproc
 253              		@ args = 0, pretend = 0, frame = 0
 254              		@ frame_needed = 0, uses_anonymous_args = 0
 255              		@ link register save eliminated.
 256              	.LVL14:
 155:D:/Work/DeviceTester/amazon-freertos/lib/third_party/unity/extras/fixture/src\unity_fixture.c **** }
 257              		.loc 1 155 0
 258 0000 04309FE5 		ldr	r3, .L33
 259 0004 000083E5 		str	r0, [r3]
 260 0008 1EFF2FE1 		bx	lr
 261              	.L34:
 262              		.align	2
 263              	.L33:
 264 000c 00000000 		.word	.LANCHOR1
 265              		.cfi_endproc
 266              	.LFE9:
 268              		.section	.text.unity_malloc,"ax",%progbits
 269              		.align	2
 270              		.global	unity_malloc
 271              		.syntax unified
 272              		.arm
 273              		.fpu neon
 275              	unity_malloc:
 276              	.LFB10:
 182:D:/Work/DeviceTester/amazon-freertos/lib/third_party/unity/extras/fixture/src\unity_fixture.c ****     char* mem;
 277              		.loc 1 182 0
 278              		.cfi_startproc
 279              		@ args = 0, pretend = 0, frame = 0
 280              		@ frame_needed = 0, uses_anonymous_args = 0
 281              	.LVL15:
 187:D:/Work/DeviceTester/amazon-freertos/lib/third_party/unity/extras/fixture/src\unity_fixture.c ****     {
 282              		.loc 1 187 0
 283 0000 80209FE5 		ldr	r2, .L53
 284 0004 003092E5 		ldr	r3, [r2]
 285 0008 010073E3 		cmn	r3, #1
 286 000c 0700000A 		beq	.L36
 189:D:/Work/DeviceTester/amazon-freertos/lib/third_party/unity/extras/fixture/src\unity_fixture.c ****             return NULL;
 287              		.loc 1 189 0
 288 0010 000053E3 		cmp	r3, #0
 191:D:/Work/DeviceTester/amazon-freertos/lib/third_party/unity/extras/fixture/src\unity_fixture.c ****     }
 289              		.loc 1 191 0
 290 0014 01304312 		subne	r3, r3, #1
 291 0018 00308215 		strne	r3, [r2]
 189:D:/Work/DeviceTester/amazon-freertos/lib/third_party/unity/extras/fixture/src\unity_fixture.c ****             return NULL;
 292              		.loc 1 189 0
 293 001c 0300001A 		bne	.L36
 294              	.L50:
 190:D:/Work/DeviceTester/amazon-freertos/lib/third_party/unity/extras/fixture/src\unity_fixture.c ****         malloc_fail_countdown--;
 295              		.loc 1 190 0
 296 0020 0000A0E3 		mov	r0, #0
 297              	.LVL16:
 216:D:/Work/DeviceTester/amazon-freertos/lib/third_party/unity/extras/fixture/src\unity_fixture.c **** 
 298              		.loc 1 216 0
 299 0024 1EFF2FE1 		bx	lr
 300              	.LVL17:
 301              	.L39:
 302              		.cfi_def_cfa_offset 16
 303              		.cfi_offset 4, -16
 304              		.cfi_offset 5, -12
 305              		.cfi_offset 6, -8
 306              		.cfi_offset 14, -4
 190:D:/Work/DeviceTester/amazon-freertos/lib/third_party/unity/extras/fixture/src\unity_fixture.c ****         malloc_fail_countdown--;
 307              		.loc 1 190 0
 308 0028 0000A0E3 		mov	r0, #0
 309              	.LVL18:
 310 002c 7080BDE8 		pop	{r4, r5, r6, pc}
 311              	.LVL19:
 312              	.L36:
 313              		.cfi_def_cfa_offset 0
 314              		.cfi_restore 4
 315              		.cfi_restore 5
 316              		.cfi_restore 6
 317              		.cfi_restore 14
 194:D:/Work/DeviceTester/amazon-freertos/lib/third_party/unity/extras/fixture/src\unity_fixture.c **** #ifdef UNITY_EXCLUDE_STDLIB_MALLOC
 318              		.loc 1 194 0
 319 0030 000050E3 		cmp	r0, #0
 320 0034 F9FFFF0A 		beq	.L50
 182:D:/Work/DeviceTester/amazon-freertos/lib/third_party/unity/extras/fixture/src\unity_fixture.c ****     char* mem;
 321              		.loc 1 182 0
 322 0038 70402DE9 		push	{r4, r5, r6, lr}
 323              		.cfi_def_cfa_offset 16
 324              		.cfi_offset 4, -16
 325              		.cfi_offset 5, -12
 326              		.cfi_offset 6, -8
 327              		.cfi_offset 14, -4
 328 003c 0050A0E1 		mov	r5, r0
 206:D:/Work/DeviceTester/amazon-freertos/lib/third_party/unity/extras/fixture/src\unity_fixture.c **** #endif
 329              		.loc 1 206 0
 330 0040 0C0080E2 		add	r0, r0, #12
 331              	.LVL20:
 332 0044 FEFFFFEB 		bl	malloc
 333              	.LVL21:
 208:D:/Work/DeviceTester/amazon-freertos/lib/third_party/unity/extras/fixture/src\unity_fixture.c ****     malloc_count++;
 334              		.loc 1 208 0
 335 0048 000050E3 		cmp	r0, #0
 336 004c F5FFFF0A 		beq	.L39
 209:D:/Work/DeviceTester/amazon-freertos/lib/third_party/unity/extras/fixture/src\unity_fixture.c ****     guard->size = size;
 337              		.loc 1 209 0
 338 0050 34209FE5 		ldr	r2, .L53+4
 212:D:/Work/DeviceTester/amazon-freertos/lib/third_party/unity/extras/fixture/src\unity_fixture.c ****     memcpy(&mem[size], end, sizeof(end));
 339              		.loc 1 212 0
 340 0054 084080E2 		add	r4, r0, #8
 341              	.LVL22:
 210:D:/Work/DeviceTester/amazon-freertos/lib/third_party/unity/extras/fixture/src\unity_fixture.c ****     guard->guard_space = 0;
 342              		.loc 1 210 0
 343 0058 005080E5 		str	r5, [r0]
 213:D:/Work/DeviceTester/amazon-freertos/lib/third_party/unity/extras/fixture/src\unity_fixture.c **** 
 344              		.loc 1 213 0
 345 005c 2C109FE5 		ldr	r1, .L53+8
 209:D:/Work/DeviceTester/amazon-freertos/lib/third_party/unity/extras/fixture/src\unity_fixture.c ****     guard->size = size;
 346              		.loc 1 209 0
 347 0060 003092E5 		ldr	r3, [r2]
 348 0064 013083E2 		add	r3, r3, #1
 349 0068 003082E5 		str	r3, [r2]
 211:D:/Work/DeviceTester/amazon-freertos/lib/third_party/unity/extras/fixture/src\unity_fixture.c ****     mem = (char*)&(guard[1]);
 350              		.loc 1 211 0
 351 006c 0030A0E3 		mov	r3, #0
 352 0070 043080E5 		str	r3, [r0, #4]
 213:D:/Work/DeviceTester/amazon-freertos/lib/third_party/unity/extras/fixture/src\unity_fixture.c **** 
 353              		.loc 1 213 0
 354 0074 0420A0E3 		mov	r2, #4
 355 0078 050084E0 		add	r0, r4, r5
 356              	.LVL23:
 357 007c FEFFFFEB 		bl	memcpy
 358              	.LVL24:
 215:D:/Work/DeviceTester/amazon-freertos/lib/third_party/unity/extras/fixture/src\unity_fixture.c **** }
 359              		.loc 1 215 0
 360 0080 0400A0E1 		mov	r0, r4
 216:D:/Work/DeviceTester/amazon-freertos/lib/third_party/unity/extras/fixture/src\unity_fixture.c **** 
 361              		.loc 1 216 0
 362 0084 7080BDE8 		pop	{r4, r5, r6, pc}
 363              	.L54:
 364              		.align	2
 365              	.L53:
 366 0088 00000000 		.word	.LANCHOR1
 367 008c 00000000 		.word	.LANCHOR0
 368 0090 00000000 		.word	.LC1
 369              		.cfi_endproc
 370              	.LFE10:
 372              		.section	.text.unity_free,"ax",%progbits
 373              		.align	2
 374              		.global	unity_free
 375              		.syntax unified
 376              		.arm
 377              		.fpu neon
 379              	unity_free:
 380              	.LFB13:
 240:D:/Work/DeviceTester/amazon-freertos/lib/third_party/unity/extras/fixture/src\unity_fixture.c **** #endif
 241:D:/Work/DeviceTester/amazon-freertos/lib/third_party/unity/extras/fixture/src\unity_fixture.c **** }
 242:D:/Work/DeviceTester/amazon-freertos/lib/third_party/unity/extras/fixture/src\unity_fixture.c **** 
 243:D:/Work/DeviceTester/amazon-freertos/lib/third_party/unity/extras/fixture/src\unity_fixture.c **** void unity_free(void* mem)
 244:D:/Work/DeviceTester/amazon-freertos/lib/third_party/unity/extras/fixture/src\unity_fixture.c **** {
 381              		.loc 1 244 0
 382              		.cfi_startproc
 383              		@ args = 0, pretend = 0, frame = 0
 384              		@ frame_needed = 0, uses_anonymous_args = 0
 385              	.LVL25:
 386 0000 70402DE9 		push	{r4, r5, r6, lr}
 387              		.cfi_def_cfa_offset 16
 388              		.cfi_offset 4, -16
 389              		.cfi_offset 5, -12
 390              		.cfi_offset 6, -8
 391              		.cfi_offset 14, -4
 245:D:/Work/DeviceTester/amazon-freertos/lib/third_party/unity/extras/fixture/src\unity_fixture.c ****     int overrun;
 246:D:/Work/DeviceTester/amazon-freertos/lib/third_party/unity/extras/fixture/src\unity_fixture.c **** 
 247:D:/Work/DeviceTester/amazon-freertos/lib/third_party/unity/extras/fixture/src\unity_fixture.c ****     if (mem == NULL)
 392              		.loc 1 247 0
 393 0004 004050E2 		subs	r4, r0, #0
 394 0008 7080BD08 		popeq	{r4, r5, r6, pc}
 395              	.LVL26:
 396              	.LBB30:
 397              	.LBB31:
 224:D:/Work/DeviceTester/amazon-freertos/lib/third_party/unity/extras/fixture/src\unity_fixture.c **** }
 398              		.loc 1 224 0
 399 000c 043014E5 		ldr	r3, [r4, #-4]
 400 0010 000053E3 		cmp	r3, #0
 401 0014 0150A013 		movne	r5, #1
 402 0018 0500001A 		bne	.L58
 403              	.LVL27:
 404              	.LBB32:
 405              	.LBB33:
 406 001c 080014E5 		ldr	r0, [r4, #-8]
 407              	.LVL28:
 408 0020 30109FE5 		ldr	r1, .L65
 409 0024 000084E0 		add	r0, r4, r0
 410 0028 FEFFFFEB 		bl	strcmp
 411              	.LVL29:
 412 002c 005090E2 		adds	r5, r0, #0
 413 0030 0150A013 		movne	r5, #1
 414              	.LVL30:
 415              	.L58:
 416              	.LBE33:
 417              	.LBE32:
 418              	.LBE31:
 419              	.LBE30:
 248:D:/Work/DeviceTester/amazon-freertos/lib/third_party/unity/extras/fixture/src\unity_fixture.c ****     {
 249:D:/Work/DeviceTester/amazon-freertos/lib/third_party/unity/extras/fixture/src\unity_fixture.c ****         return;
 250:D:/Work/DeviceTester/amazon-freertos/lib/third_party/unity/extras/fixture/src\unity_fixture.c ****     }
 251:D:/Work/DeviceTester/amazon-freertos/lib/third_party/unity/extras/fixture/src\unity_fixture.c **** 
 252:D:/Work/DeviceTester/amazon-freertos/lib/third_party/unity/extras/fixture/src\unity_fixture.c ****     overrun = isOverrun(mem);
 253:D:/Work/DeviceTester/amazon-freertos/lib/third_party/unity/extras/fixture/src\unity_fixture.c ****     release_memory(mem);
 420              		.loc 1 253 0
 421 0034 0400A0E1 		mov	r0, r4
 422 0038 FEFFFFEB 		bl	release_memory
 423              	.LVL31:
 254:D:/Work/DeviceTester/amazon-freertos/lib/third_party/unity/extras/fixture/src\unity_fixture.c ****     if (overrun)
 424              		.loc 1 254 0
 425 003c 000055E3 		cmp	r5, #0
 426 0040 7080BD08 		popeq	{r4, r5, r6, pc}
 255:D:/Work/DeviceTester/amazon-freertos/lib/third_party/unity/extras/fixture/src\unity_fixture.c ****     {
 256:D:/Work/DeviceTester/amazon-freertos/lib/third_party/unity/extras/fixture/src\unity_fixture.c ****         UNITY_TEST_FAIL(Unity.CurrentTestLineNumber, "Buffer overrun detected during free()");
 427              		.loc 1 256 0
 428 0044 10309FE5 		ldr	r3, .L65+4
 429 0048 10009FE5 		ldr	r0, .L65+8
 257:D:/Work/DeviceTester/amazon-freertos/lib/third_party/unity/extras/fixture/src\unity_fixture.c ****     }
 258:D:/Work/DeviceTester/amazon-freertos/lib/third_party/unity/extras/fixture/src\unity_fixture.c **** }
 430              		.loc 1 258 0
 431 004c 7040BDE8 		pop	{r4, r5, r6, lr}
 432              		.cfi_restore 14
 433              		.cfi_restore 6
 434              		.cfi_restore 5
 435              		.cfi_restore 4
 436              		.cfi_def_cfa_offset 0
 437              	.LVL32:
 256:D:/Work/DeviceTester/amazon-freertos/lib/third_party/unity/extras/fixture/src\unity_fixture.c ****     }
 438              		.loc 1 256 0
 439 0050 101093E5 		ldr	r1, [r3, #16]
 440 0054 FEFFFFEA 		b	UnityFail
 441              	.LVL33:
 442              	.L66:
 443              		.align	2
 444              	.L65:
 445 0058 00000000 		.word	.LANCHOR2
 446 005c 00000000 		.word	Unity
 447 0060 00000000 		.word	.LC2
 448              		.cfi_endproc
 449              	.LFE13:
 451              		.section	.text.unity_calloc,"ax",%progbits
 452              		.align	2
 453              		.global	unity_calloc
 454              		.syntax unified
 455              		.arm
 456              		.fpu neon
 458              	unity_calloc:
 459              	.LFB14:
 259:D:/Work/DeviceTester/amazon-freertos/lib/third_party/unity/extras/fixture/src\unity_fixture.c **** 
 260:D:/Work/DeviceTester/amazon-freertos/lib/third_party/unity/extras/fixture/src\unity_fixture.c **** void* unity_calloc(size_t num, size_t size)
 261:D:/Work/DeviceTester/amazon-freertos/lib/third_party/unity/extras/fixture/src\unity_fixture.c **** {
 460              		.loc 1 261 0
 461              		.cfi_startproc
 462              		@ args = 0, pretend = 0, frame = 0
 463              		@ frame_needed = 0, uses_anonymous_args = 0
 464              	.LVL34:
 465 0000 70402DE9 		push	{r4, r5, r6, lr}
 466              		.cfi_def_cfa_offset 16
 467              		.cfi_offset 4, -16
 468              		.cfi_offset 5, -12
 469              		.cfi_offset 6, -8
 470              		.cfi_offset 14, -4
 262:D:/Work/DeviceTester/amazon-freertos/lib/third_party/unity/extras/fixture/src\unity_fixture.c ****     void* mem = unity_malloc(num * size);
 471              		.loc 1 262 0
 472 0004 910004E0 		mul	r4, r1, r0
 473 0008 0400A0E1 		mov	r0, r4
 474              	.LVL35:
 475 000c FEFFFFEB 		bl	unity_malloc
 476              	.LVL36:
 263:D:/Work/DeviceTester/amazon-freertos/lib/third_party/unity/extras/fixture/src\unity_fixture.c ****     if (mem == NULL) return NULL;
 477              		.loc 1 263 0
 478 0010 005050E2 		subs	r5, r0, #0
 479 0014 0200000A 		beq	.L67
 264:D:/Work/DeviceTester/amazon-freertos/lib/third_party/unity/extras/fixture/src\unity_fixture.c ****     memset(mem, 0, num * size);
 480              		.loc 1 264 0
 481 0018 0420A0E1 		mov	r2, r4
 482 001c 0010A0E3 		mov	r1, #0
 483 0020 FEFFFFEB 		bl	memset
 484              	.LVL37:
 485              	.L67:
 265:D:/Work/DeviceTester/amazon-freertos/lib/third_party/unity/extras/fixture/src\unity_fixture.c ****     return mem;
 266:D:/Work/DeviceTester/amazon-freertos/lib/third_party/unity/extras/fixture/src\unity_fixture.c **** }
 486              		.loc 1 266 0
 487 0024 0500A0E1 		mov	r0, r5
 488 0028 7080BDE8 		pop	{r4, r5, r6, pc}
 489              		.cfi_endproc
 490              	.LFE14:
 492              		.section	.text.unity_realloc,"ax",%progbits
 493              		.align	2
 494              		.global	unity_realloc
 495              		.syntax unified
 496              		.arm
 497              		.fpu neon
 499              	unity_realloc:
 500              	.LFB15:
 267:D:/Work/DeviceTester/amazon-freertos/lib/third_party/unity/extras/fixture/src\unity_fixture.c **** 
 268:D:/Work/DeviceTester/amazon-freertos/lib/third_party/unity/extras/fixture/src\unity_fixture.c **** void* unity_realloc(void* oldMem, size_t size)
 269:D:/Work/DeviceTester/amazon-freertos/lib/third_party/unity/extras/fixture/src\unity_fixture.c **** {
 501              		.loc 1 269 0
 502              		.cfi_startproc
 503              		@ args = 0, pretend = 0, frame = 0
 504              		@ frame_needed = 0, uses_anonymous_args = 0
 505              	.LVL38:
 506 0000 70402DE9 		push	{r4, r5, r6, lr}
 507              		.cfi_def_cfa_offset 16
 508              		.cfi_offset 4, -16
 509              		.cfi_offset 5, -12
 510              		.cfi_offset 6, -8
 511              		.cfi_offset 14, -4
 270:D:/Work/DeviceTester/amazon-freertos/lib/third_party/unity/extras/fixture/src\unity_fixture.c ****     Guard* guard = (Guard*)oldMem;
 271:D:/Work/DeviceTester/amazon-freertos/lib/third_party/unity/extras/fixture/src\unity_fixture.c ****     void* newMem;
 272:D:/Work/DeviceTester/amazon-freertos/lib/third_party/unity/extras/fixture/src\unity_fixture.c **** 
 273:D:/Work/DeviceTester/amazon-freertos/lib/third_party/unity/extras/fixture/src\unity_fixture.c ****     if (oldMem == NULL) return unity_malloc(size);
 512              		.loc 1 273 0
 513 0004 004050E2 		subs	r4, r0, #0
 514 0008 0200001A 		bne	.L74
 515              		.loc 1 273 0 is_stmt 0 discriminator 1
 516 000c 0100A0E1 		mov	r0, r1
 517              	.LVL39:
 274:D:/Work/DeviceTester/amazon-freertos/lib/third_party/unity/extras/fixture/src\unity_fixture.c **** 
 275:D:/Work/DeviceTester/amazon-freertos/lib/third_party/unity/extras/fixture/src\unity_fixture.c ****     guard--;
 276:D:/Work/DeviceTester/amazon-freertos/lib/third_party/unity/extras/fixture/src\unity_fixture.c ****     if (isOverrun(oldMem))
 277:D:/Work/DeviceTester/amazon-freertos/lib/third_party/unity/extras/fixture/src\unity_fixture.c ****     {
 278:D:/Work/DeviceTester/amazon-freertos/lib/third_party/unity/extras/fixture/src\unity_fixture.c ****         release_memory(oldMem);
 279:D:/Work/DeviceTester/amazon-freertos/lib/third_party/unity/extras/fixture/src\unity_fixture.c ****         UNITY_TEST_FAIL(Unity.CurrentTestLineNumber, "Buffer overrun detected during realloc()");
 280:D:/Work/DeviceTester/amazon-freertos/lib/third_party/unity/extras/fixture/src\unity_fixture.c ****     }
 281:D:/Work/DeviceTester/amazon-freertos/lib/third_party/unity/extras/fixture/src\unity_fixture.c **** 
 282:D:/Work/DeviceTester/amazon-freertos/lib/third_party/unity/extras/fixture/src\unity_fixture.c ****     if (size == 0)
 283:D:/Work/DeviceTester/amazon-freertos/lib/third_party/unity/extras/fixture/src\unity_fixture.c ****     {
 284:D:/Work/DeviceTester/amazon-freertos/lib/third_party/unity/extras/fixture/src\unity_fixture.c ****         release_memory(oldMem);
 285:D:/Work/DeviceTester/amazon-freertos/lib/third_party/unity/extras/fixture/src\unity_fixture.c ****         return NULL;
 286:D:/Work/DeviceTester/amazon-freertos/lib/third_party/unity/extras/fixture/src\unity_fixture.c ****     }
 287:D:/Work/DeviceTester/amazon-freertos/lib/third_party/unity/extras/fixture/src\unity_fixture.c **** 
 288:D:/Work/DeviceTester/amazon-freertos/lib/third_party/unity/extras/fixture/src\unity_fixture.c ****     if (guard->size >= size) return oldMem;
 289:D:/Work/DeviceTester/amazon-freertos/lib/third_party/unity/extras/fixture/src\unity_fixture.c **** 
 290:D:/Work/DeviceTester/amazon-freertos/lib/third_party/unity/extras/fixture/src\unity_fixture.c **** #ifdef UNITY_EXCLUDE_STDLIB_MALLOC /* Optimization if memory is expandable */
 291:D:/Work/DeviceTester/amazon-freertos/lib/third_party/unity/extras/fixture/src\unity_fixture.c ****     if (oldMem == unity_heap + heap_index - guard->size - sizeof(end) &&
 292:D:/Work/DeviceTester/amazon-freertos/lib/third_party/unity/extras/fixture/src\unity_fixture.c ****         heap_index + size - guard->size <= UNITY_INTERNAL_HEAP_SIZE_BYTES)
 293:D:/Work/DeviceTester/amazon-freertos/lib/third_party/unity/extras/fixture/src\unity_fixture.c ****     {
 294:D:/Work/DeviceTester/amazon-freertos/lib/third_party/unity/extras/fixture/src\unity_fixture.c ****         release_memory(oldMem);    /* Not thread-safe, like unity_heap generally */
 295:D:/Work/DeviceTester/amazon-freertos/lib/third_party/unity/extras/fixture/src\unity_fixture.c ****         return unity_malloc(size); /* No memcpy since data is in place */
 296:D:/Work/DeviceTester/amazon-freertos/lib/third_party/unity/extras/fixture/src\unity_fixture.c ****     }
 297:D:/Work/DeviceTester/amazon-freertos/lib/third_party/unity/extras/fixture/src\unity_fixture.c **** #endif
 298:D:/Work/DeviceTester/amazon-freertos/lib/third_party/unity/extras/fixture/src\unity_fixture.c ****     newMem = unity_malloc(size);
 299:D:/Work/DeviceTester/amazon-freertos/lib/third_party/unity/extras/fixture/src\unity_fixture.c ****     if (newMem == NULL) return NULL; /* Do not release old memory */
 300:D:/Work/DeviceTester/amazon-freertos/lib/third_party/unity/extras/fixture/src\unity_fixture.c ****     memcpy(newMem, oldMem, guard->size);
 301:D:/Work/DeviceTester/amazon-freertos/lib/third_party/unity/extras/fixture/src\unity_fixture.c ****     release_memory(oldMem);
 302:D:/Work/DeviceTester/amazon-freertos/lib/third_party/unity/extras/fixture/src\unity_fixture.c ****     return newMem;
 303:D:/Work/DeviceTester/amazon-freertos/lib/third_party/unity/extras/fixture/src\unity_fixture.c **** }
 518              		.loc 1 303 0 is_stmt 1 discriminator 1
 519 0010 7040BDE8 		pop	{r4, r5, r6, lr}
 520              		.cfi_remember_state
 521              		.cfi_restore 14
 522              		.cfi_restore 6
 523              		.cfi_restore 5
 524              		.cfi_restore 4
 525              		.cfi_def_cfa_offset 0
 526              	.LVL40:
 273:D:/Work/DeviceTester/amazon-freertos/lib/third_party/unity/extras/fixture/src\unity_fixture.c **** 
 527              		.loc 1 273 0 discriminator 1
 528 0014 FEFFFFEA 		b	unity_malloc
 529              	.LVL41:
 530              	.L74:
 531              		.cfi_restore_state
 532              	.LBB38:
 533              	.LBB39:
 224:D:/Work/DeviceTester/amazon-freertos/lib/third_party/unity/extras/fixture/src\unity_fixture.c **** }
 534              		.loc 1 224 0
 535 0018 043014E5 		ldr	r3, [r4, #-4]
 536 001c 0150A0E1 		mov	r5, r1
 537              	.LVL42:
 538 0020 000053E3 		cmp	r3, #0
 539 0024 1700001A 		bne	.L75
 540              	.LVL43:
 541              	.LBB40:
 542              	.LBB41:
 543 0028 080014E5 		ldr	r0, [r4, #-8]
 544              	.LVL44:
 545 002c 70109FE5 		ldr	r1, .L85
 546              	.LVL45:
 547 0030 000084E0 		add	r0, r4, r0
 548 0034 FEFFFFEB 		bl	strcmp
 549              	.LVL46:
 550 0038 000050E3 		cmp	r0, #0
 551 003c 1100001A 		bne	.L75
 552              	.LVL47:
 553              	.L78:
 554              	.LBE41:
 555              	.LBE40:
 556              	.LBE39:
 557              	.LBE38:
 282:D:/Work/DeviceTester/amazon-freertos/lib/third_party/unity/extras/fixture/src\unity_fixture.c ****     {
 558              		.loc 1 282 0
 559 0040 000055E3 		cmp	r5, #0
 560 0044 0300001A 		bne	.L76
 561              	.LVL48:
 562              	.L84:
 301:D:/Work/DeviceTester/amazon-freertos/lib/third_party/unity/extras/fixture/src\unity_fixture.c ****     return newMem;
 563              		.loc 1 301 0
 564 0048 0400A0E1 		mov	r0, r4
 565 004c FEFFFFEB 		bl	release_memory
 566              	.LVL49:
 567              	.L73:
 568              		.loc 1 303 0
 569 0050 0500A0E1 		mov	r0, r5
 570 0054 7080BDE8 		pop	{r4, r5, r6, pc}
 571              	.LVL50:
 572              	.L76:
 288:D:/Work/DeviceTester/amazon-freertos/lib/third_party/unity/extras/fixture/src\unity_fixture.c **** 
 573              		.loc 1 288 0
 574 0058 083014E5 		ldr	r3, [r4, #-8]
 575 005c 030055E1 		cmp	r5, r3
 576 0060 0450A091 		movls	r5, r4
 577              	.LVL51:
 578 0064 F9FFFF9A 		bls	.L73
 298:D:/Work/DeviceTester/amazon-freertos/lib/third_party/unity/extras/fixture/src\unity_fixture.c ****     if (newMem == NULL) return NULL; /* Do not release old memory */
 579              		.loc 1 298 0
 580 0068 0500A0E1 		mov	r0, r5
 581 006c FEFFFFEB 		bl	unity_malloc
 582              	.LVL52:
 299:D:/Work/DeviceTester/amazon-freertos/lib/third_party/unity/extras/fixture/src\unity_fixture.c ****     memcpy(newMem, oldMem, guard->size);
 583              		.loc 1 299 0
 584 0070 005050E2 		subs	r5, r0, #0
 585 0074 F5FFFF0A 		beq	.L73
 300:D:/Work/DeviceTester/amazon-freertos/lib/third_party/unity/extras/fixture/src\unity_fixture.c ****     release_memory(oldMem);
 586              		.loc 1 300 0
 587 0078 082014E5 		ldr	r2, [r4, #-8]
 588 007c 0410A0E1 		mov	r1, r4
 589 0080 FEFFFFEB 		bl	memcpy
 590              	.LVL53:
 591 0084 EFFFFFEA 		b	.L84
 592              	.LVL54:
 593              	.L75:
 278:D:/Work/DeviceTester/amazon-freertos/lib/third_party/unity/extras/fixture/src\unity_fixture.c ****         UNITY_TEST_FAIL(Unity.CurrentTestLineNumber, "Buffer overrun detected during realloc()");
 594              		.loc 1 278 0
 595 0088 0400A0E1 		mov	r0, r4
 596 008c FEFFFFEB 		bl	release_memory
 597              	.LVL55:
 279:D:/Work/DeviceTester/amazon-freertos/lib/third_party/unity/extras/fixture/src\unity_fixture.c ****     }
 598              		.loc 1 279 0
 599 0090 10309FE5 		ldr	r3, .L85+4
 600 0094 10009FE5 		ldr	r0, .L85+8
 601 0098 101093E5 		ldr	r1, [r3, #16]
 602 009c FEFFFFEB 		bl	UnityFail
 603              	.LVL56:
 604 00a0 E6FFFFEA 		b	.L78
 605              	.L86:
 606              		.align	2
 607              	.L85:
 608 00a4 00000000 		.word	.LANCHOR2
 609 00a8 00000000 		.word	Unity
 610 00ac 00000000 		.word	.LC3
 611              		.cfi_endproc
 612              	.LFE15:
 614              		.section	.text.UnityPointer_Init,"ax",%progbits
 615              		.align	2
 616              		.global	UnityPointer_Init
 617              		.syntax unified
 618              		.arm
 619              		.fpu neon
 621              	UnityPointer_Init:
 622              	.LFB16:
 304:D:/Work/DeviceTester/amazon-freertos/lib/third_party/unity/extras/fixture/src\unity_fixture.c **** 
 305:D:/Work/DeviceTester/amazon-freertos/lib/third_party/unity/extras/fixture/src\unity_fixture.c **** 
 306:D:/Work/DeviceTester/amazon-freertos/lib/third_party/unity/extras/fixture/src\unity_fixture.c **** /*-------------------------------------------------------- */
 307:D:/Work/DeviceTester/amazon-freertos/lib/third_party/unity/extras/fixture/src\unity_fixture.c **** /*Automatic pointer restoration functions */
 308:D:/Work/DeviceTester/amazon-freertos/lib/third_party/unity/extras/fixture/src\unity_fixture.c **** struct PointerPair
 309:D:/Work/DeviceTester/amazon-freertos/lib/third_party/unity/extras/fixture/src\unity_fixture.c **** {
 310:D:/Work/DeviceTester/amazon-freertos/lib/third_party/unity/extras/fixture/src\unity_fixture.c ****     void** pointer;
 311:D:/Work/DeviceTester/amazon-freertos/lib/third_party/unity/extras/fixture/src\unity_fixture.c ****     void* old_value;
 312:D:/Work/DeviceTester/amazon-freertos/lib/third_party/unity/extras/fixture/src\unity_fixture.c **** };
 313:D:/Work/DeviceTester/amazon-freertos/lib/third_party/unity/extras/fixture/src\unity_fixture.c **** 
 314:D:/Work/DeviceTester/amazon-freertos/lib/third_party/unity/extras/fixture/src\unity_fixture.c **** static struct PointerPair pointer_store[UNITY_MAX_POINTERS];
 315:D:/Work/DeviceTester/amazon-freertos/lib/third_party/unity/extras/fixture/src\unity_fixture.c **** static int pointer_index = 0;
 316:D:/Work/DeviceTester/amazon-freertos/lib/third_party/unity/extras/fixture/src\unity_fixture.c **** 
 317:D:/Work/DeviceTester/amazon-freertos/lib/third_party/unity/extras/fixture/src\unity_fixture.c **** void UnityPointer_Init(void)
 318:D:/Work/DeviceTester/amazon-freertos/lib/third_party/unity/extras/fixture/src\unity_fixture.c **** {
 623              		.loc 1 318 0
 624              		.cfi_startproc
 625              		@ args = 0, pretend = 0, frame = 0
 626              		@ frame_needed = 0, uses_anonymous_args = 0
 627              		@ link register save eliminated.
 319:D:/Work/DeviceTester/amazon-freertos/lib/third_party/unity/extras/fixture/src\unity_fixture.c ****     pointer_index = 0;
 628              		.loc 1 319 0
 629 0000 08309FE5 		ldr	r3, .L88
 630 0004 0020A0E3 		mov	r2, #0
 631 0008 002083E5 		str	r2, [r3]
 632 000c 1EFF2FE1 		bx	lr
 633              	.L89:
 634              		.align	2
 635              	.L88:
 636 0010 00000000 		.word	.LANCHOR3
 637              		.cfi_endproc
 638              	.LFE16:
 640              		.section	.text.UnityPointer_Set,"ax",%progbits
 641              		.align	2
 642              		.global	UnityPointer_Set
 643              		.syntax unified
 644              		.arm
 645              		.fpu neon
 647              	UnityPointer_Set:
 648              	.LFB17:
 320:D:/Work/DeviceTester/amazon-freertos/lib/third_party/unity/extras/fixture/src\unity_fixture.c **** }
 321:D:/Work/DeviceTester/amazon-freertos/lib/third_party/unity/extras/fixture/src\unity_fixture.c **** 
 322:D:/Work/DeviceTester/amazon-freertos/lib/third_party/unity/extras/fixture/src\unity_fixture.c **** void UnityPointer_Set(void** pointer, void* newValue, UNITY_LINE_TYPE line)
 323:D:/Work/DeviceTester/amazon-freertos/lib/third_party/unity/extras/fixture/src\unity_fixture.c **** {
 649              		.loc 1 323 0
 650              		.cfi_startproc
 651              		@ args = 0, pretend = 0, frame = 0
 652              		@ frame_needed = 0, uses_anonymous_args = 0
 653              	.LVL57:
 324:D:/Work/DeviceTester/amazon-freertos/lib/third_party/unity/extras/fixture/src\unity_fixture.c ****     if (pointer_index >= UNITY_MAX_POINTERS)
 654              		.loc 1 324 0
 655 0000 3CC09FE5 		ldr	ip, .L94
 656 0004 00309CE5 		ldr	r3, [ip]
 657 0008 040053E3 		cmp	r3, #4
 658 000c 020000DA 		ble	.L91
 325:D:/Work/DeviceTester/amazon-freertos/lib/third_party/unity/extras/fixture/src\unity_fixture.c ****     {
 326:D:/Work/DeviceTester/amazon-freertos/lib/third_party/unity/extras/fixture/src\unity_fixture.c ****         UNITY_TEST_FAIL(line, "Too many pointers set");
 659              		.loc 1 326 0
 660 0010 0210A0E1 		mov	r1, r2
 661              	.LVL58:
 662 0014 2C009FE5 		ldr	r0, .L94+4
 663              	.LVL59:
 664 0018 FEFFFFEA 		b	UnityFail
 665              	.LVL60:
 666              	.L91:
 327:D:/Work/DeviceTester/amazon-freertos/lib/third_party/unity/extras/fixture/src\unity_fixture.c ****     }
 328:D:/Work/DeviceTester/amazon-freertos/lib/third_party/unity/extras/fixture/src\unity_fixture.c ****     else
 329:D:/Work/DeviceTester/amazon-freertos/lib/third_party/unity/extras/fixture/src\unity_fixture.c ****     {
 330:D:/Work/DeviceTester/amazon-freertos/lib/third_party/unity/extras/fixture/src\unity_fixture.c ****         pointer_store[pointer_index].pointer = pointer;
 667              		.loc 1 330 0
 668 001c 28209FE5 		ldr	r2, .L94+8
 669              	.LVL61:
 323:D:/Work/DeviceTester/amazon-freertos/lib/third_party/unity/extras/fixture/src\unity_fixture.c ****     if (pointer_index >= UNITY_MAX_POINTERS)
 670              		.loc 1 323 0
 671 0020 04E02DE5 		str	lr, [sp, #-4]!
 672              		.cfi_def_cfa_offset 4
 673              		.cfi_offset 14, -4
 331:D:/Work/DeviceTester/amazon-freertos/lib/third_party/unity/extras/fixture/src\unity_fixture.c ****         pointer_store[pointer_index].old_value = *pointer;
 674              		.loc 1 331 0
 675 0024 00E090E5 		ldr	lr, [r0]
 330:D:/Work/DeviceTester/amazon-freertos/lib/third_party/unity/extras/fixture/src\unity_fixture.c ****         pointer_store[pointer_index].old_value = *pointer;
 676              		.loc 1 330 0
 677 0028 830182E7 		str	r0, [r2, r3, lsl #3]
 678              		.loc 1 331 0
 679 002c 832182E0 		add	r2, r2, r3, lsl #3
 332:D:/Work/DeviceTester/amazon-freertos/lib/third_party/unity/extras/fixture/src\unity_fixture.c ****         *pointer = newValue;
 333:D:/Work/DeviceTester/amazon-freertos/lib/third_party/unity/extras/fixture/src\unity_fixture.c ****         pointer_index++;
 680              		.loc 1 333 0
 681 0030 013083E2 		add	r3, r3, #1
 332:D:/Work/DeviceTester/amazon-freertos/lib/third_party/unity/extras/fixture/src\unity_fixture.c ****         *pointer = newValue;
 682              		.loc 1 332 0
 683 0034 001080E5 		str	r1, [r0]
 331:D:/Work/DeviceTester/amazon-freertos/lib/third_party/unity/extras/fixture/src\unity_fixture.c ****         *pointer = newValue;
 684              		.loc 1 331 0
 685 0038 04E082E5 		str	lr, [r2, #4]
 686              		.loc 1 333 0
 687 003c 00308CE5 		str	r3, [ip]
 688 0040 04F09DE4 		ldr	pc, [sp], #4
 689              	.L95:
 690              		.align	2
 691              	.L94:
 692 0044 00000000 		.word	.LANCHOR3
 693 0048 00000000 		.word	.LC4
 694 004c 00000000 		.word	.LANCHOR4
 695              		.cfi_endproc
 696              	.LFE17:
 698              		.section	.text.UnityPointer_UndoAllSets,"ax",%progbits
 699              		.align	2
 700              		.global	UnityPointer_UndoAllSets
 701              		.syntax unified
 702              		.arm
 703              		.fpu neon
 705              	UnityPointer_UndoAllSets:
 706              	.LFB18:
 334:D:/Work/DeviceTester/amazon-freertos/lib/third_party/unity/extras/fixture/src\unity_fixture.c ****     }
 335:D:/Work/DeviceTester/amazon-freertos/lib/third_party/unity/extras/fixture/src\unity_fixture.c **** }
 336:D:/Work/DeviceTester/amazon-freertos/lib/third_party/unity/extras/fixture/src\unity_fixture.c **** 
 337:D:/Work/DeviceTester/amazon-freertos/lib/third_party/unity/extras/fixture/src\unity_fixture.c **** void UnityPointer_UndoAllSets(void)
 338:D:/Work/DeviceTester/amazon-freertos/lib/third_party/unity/extras/fixture/src\unity_fixture.c **** {
 707              		.loc 1 338 0
 708              		.cfi_startproc
 709              		@ args = 0, pretend = 0, frame = 0
 710              		@ frame_needed = 0, uses_anonymous_args = 0
 711 0000 48109FE5 		ldr	r1, .L104
 339:D:/Work/DeviceTester/amazon-freertos/lib/third_party/unity/extras/fixture/src\unity_fixture.c ****     while (pointer_index > 0)
 712              		.loc 1 339 0
 713 0004 0000A0E3 		mov	r0, #0
 340:D:/Work/DeviceTester/amazon-freertos/lib/third_party/unity/extras/fixture/src\unity_fixture.c ****     {
 341:D:/Work/DeviceTester/amazon-freertos/lib/third_party/unity/extras/fixture/src\unity_fixture.c ****         pointer_index--;
 342:D:/Work/DeviceTester/amazon-freertos/lib/third_party/unity/extras/fixture/src\unity_fixture.c ****         *(pointer_store[pointer_index].pointer) =
 714              		.loc 1 342 0
 715 0008 44C09FE5 		ldr	ip, .L104+4
 338:D:/Work/DeviceTester/amazon-freertos/lib/third_party/unity/extras/fixture/src\unity_fixture.c ****     while (pointer_index > 0)
 716              		.loc 1 338 0
 717 000c 04E02DE5 		str	lr, [sp, #-4]!
 718              		.cfi_def_cfa_offset 4
 719              		.cfi_offset 14, -4
 720 0010 003091E5 		ldr	r3, [r1]
 339:D:/Work/DeviceTester/amazon-freertos/lib/third_party/unity/extras/fixture/src\unity_fixture.c ****     while (pointer_index > 0)
 721              		.loc 1 339 0
 722 0014 0320A0E1 		mov	r2, r3
 723              	.L97:
 724 0018 000052E3 		cmp	r2, #0
 725 001c 040000CA 		bgt	.L98
 726 0020 000053E3 		cmp	r3, #0
 727 0024 033043A0 		subge	r3, r3, r3
 728 0028 000050E3 		cmp	r0, #0
 729 002c 00308115 		strne	r3, [r1]
 730 0030 04F09DE4 		ldr	pc, [sp], #4
 731              	.L98:
 341:D:/Work/DeviceTester/amazon-freertos/lib/third_party/unity/extras/fixture/src\unity_fixture.c ****         *(pointer_store[pointer_index].pointer) =
 732              		.loc 1 341 0
 733 0034 012042E2 		sub	r2, r2, #1
 343:D:/Work/DeviceTester/amazon-freertos/lib/third_party/unity/extras/fixture/src\unity_fixture.c ****             pointer_store[pointer_index].old_value;
 734              		.loc 1 343 0
 735 0038 82E18CE0 		add	lr, ip, r2, lsl #3
 342:D:/Work/DeviceTester/amazon-freertos/lib/third_party/unity/extras/fixture/src\unity_fixture.c ****             pointer_store[pointer_index].old_value;
 736              		.loc 1 342 0
 737 003c 82019CE7 		ldr	r0, [ip, r2, lsl #3]
 738              		.loc 1 343 0
 739 0040 04E09EE5 		ldr	lr, [lr, #4]
 342:D:/Work/DeviceTester/amazon-freertos/lib/third_party/unity/extras/fixture/src\unity_fixture.c ****             pointer_store[pointer_index].old_value;
 740              		.loc 1 342 0
 741 0044 00E080E5 		str	lr, [r0]
 742 0048 0100A0E3 		mov	r0, #1
 743 004c F1FFFFEA 		b	.L97
 744              	.L105:
 745              		.align	2
 746              	.L104:
 747 0050 00000000 		.word	.LANCHOR3
 748 0054 00000000 		.word	.LANCHOR4
 749              		.cfi_endproc
 750              	.LFE18:
 752              		.section	.text.UnityGetCommandLineOptions,"ax",%progbits
 753              		.align	2
 754              		.global	UnityGetCommandLineOptions
 755              		.syntax unified
 756              		.arm
 757              		.fpu neon
 759              	UnityGetCommandLineOptions:
 760              	.LFB19:
 344:D:/Work/DeviceTester/amazon-freertos/lib/third_party/unity/extras/fixture/src\unity_fixture.c ****     }
 345:D:/Work/DeviceTester/amazon-freertos/lib/third_party/unity/extras/fixture/src\unity_fixture.c **** }
 346:D:/Work/DeviceTester/amazon-freertos/lib/third_party/unity/extras/fixture/src\unity_fixture.c **** 
 347:D:/Work/DeviceTester/amazon-freertos/lib/third_party/unity/extras/fixture/src\unity_fixture.c **** int UnityGetCommandLineOptions(int argc, const char* argv[])
 348:D:/Work/DeviceTester/amazon-freertos/lib/third_party/unity/extras/fixture/src\unity_fixture.c **** {
 761              		.loc 1 348 0
 762              		.cfi_startproc
 763              		@ args = 0, pretend = 0, frame = 0
 764              		@ frame_needed = 0, uses_anonymous_args = 0
 765              	.LVL62:
 766 0000 F84F2DE9 		push	{r3, r4, r5, r6, r7, r8, r9, r10, fp, lr}
 767              		.cfi_def_cfa_offset 40
 768              		.cfi_offset 3, -40
 769              		.cfi_offset 4, -36
 770              		.cfi_offset 5, -32
 771              		.cfi_offset 6, -28
 772              		.cfi_offset 7, -24
 773              		.cfi_offset 8, -20
 774              		.cfi_offset 9, -16
 775              		.cfi_offset 10, -12
 776              		.cfi_offset 11, -8
 777              		.cfi_offset 14, -4
 349:D:/Work/DeviceTester/amazon-freertos/lib/third_party/unity/extras/fixture/src\unity_fixture.c ****     int i;
 350:D:/Work/DeviceTester/amazon-freertos/lib/third_party/unity/extras/fixture/src\unity_fixture.c ****     UnityFixture.Verbose = 0;
 351:D:/Work/DeviceTester/amazon-freertos/lib/third_party/unity/extras/fixture/src\unity_fixture.c ****     UnityFixture.GroupFilter = 0;
 352:D:/Work/DeviceTester/amazon-freertos/lib/third_party/unity/extras/fixture/src\unity_fixture.c ****     UnityFixture.NameFilter = 0;
 353:D:/Work/DeviceTester/amazon-freertos/lib/third_party/unity/extras/fixture/src\unity_fixture.c ****     UnityFixture.RepeatCount = 1;
 778              		.loc 1 353 0
 779 0004 0120A0E3 		mov	r2, #1
 350:D:/Work/DeviceTester/amazon-freertos/lib/third_party/unity/extras/fixture/src\unity_fixture.c ****     UnityFixture.GroupFilter = 0;
 780              		.loc 1 350 0
 781 0008 4C419FE5 		ldr	r4, .L125
 354:D:/Work/DeviceTester/amazon-freertos/lib/third_party/unity/extras/fixture/src\unity_fixture.c **** 
 355:D:/Work/DeviceTester/amazon-freertos/lib/third_party/unity/extras/fixture/src\unity_fixture.c ****     if (argc == 1)
 782              		.loc 1 355 0
 783 000c 020050E1 		cmp	r0, r2
 350:D:/Work/DeviceTester/amazon-freertos/lib/third_party/unity/extras/fixture/src\unity_fixture.c ****     UnityFixture.GroupFilter = 0;
 784              		.loc 1 350 0
 785 0010 0030A0E3 		mov	r3, #0
 786 0014 003084E5 		str	r3, [r4]
 351:D:/Work/DeviceTester/amazon-freertos/lib/third_party/unity/extras/fixture/src\unity_fixture.c ****     UnityFixture.NameFilter = 0;
 787              		.loc 1 351 0
 788 0018 0C3084E5 		str	r3, [r4, #12]
 352:D:/Work/DeviceTester/amazon-freertos/lib/third_party/unity/extras/fixture/src\unity_fixture.c ****     UnityFixture.RepeatCount = 1;
 789              		.loc 1 352 0
 790 001c 083084E5 		str	r3, [r4, #8]
 353:D:/Work/DeviceTester/amazon-freertos/lib/third_party/unity/extras/fixture/src\unity_fixture.c **** 
 791              		.loc 1 353 0
 792 0020 042084E5 		str	r2, [r4, #4]
 793              		.loc 1 355 0
 794 0024 0500000A 		beq	.L107
 795 0028 0170A0E1 		mov	r7, r1
 796 002c 0060A0E1 		mov	r6, r0
 797 0030 0290A0E1 		mov	r9, r2
 356:D:/Work/DeviceTester/amazon-freertos/lib/third_party/unity/extras/fixture/src\unity_fixture.c ****         return 0;
 357:D:/Work/DeviceTester/amazon-freertos/lib/third_party/unity/extras/fixture/src\unity_fixture.c **** 
 358:D:/Work/DeviceTester/amazon-freertos/lib/third_party/unity/extras/fixture/src\unity_fixture.c ****     for (i = 1; i < argc; )
 359:D:/Work/DeviceTester/amazon-freertos/lib/third_party/unity/extras/fixture/src\unity_fixture.c ****     {
 360:D:/Work/DeviceTester/amazon-freertos/lib/third_party/unity/extras/fixture/src\unity_fixture.c ****         if (strcmp(argv[i], "-v") == 0)
 361:D:/Work/DeviceTester/amazon-freertos/lib/third_party/unity/extras/fixture/src\unity_fixture.c ****         {
 362:D:/Work/DeviceTester/amazon-freertos/lib/third_party/unity/extras/fixture/src\unity_fixture.c ****             UnityFixture.Verbose = 1;
 798              		.loc 1 362 0 discriminator 1
 799 0034 02B0A0E1 		mov	fp, r2
 800              	.LVL63:
 801              	.L108:
 358:D:/Work/DeviceTester/amazon-freertos/lib/third_party/unity/extras/fixture/src\unity_fixture.c ****     {
 802              		.loc 1 358 0 discriminator 1
 803 0038 060059E1 		cmp	r9, r6
 804 003c 010000BA 		blt	.L117
 805              	.LVL64:
 806              	.L107:
 356:D:/Work/DeviceTester/amazon-freertos/lib/third_party/unity/extras/fixture/src\unity_fixture.c ****         return 0;
 807              		.loc 1 356 0
 808 0040 0000A0E3 		mov	r0, #0
 809 0044 F88FBDE8 		pop	{r3, r4, r5, r6, r7, r8, r9, r10, fp, pc}
 810              	.LVL65:
 811              	.L117:
 360:D:/Work/DeviceTester/amazon-freertos/lib/third_party/unity/extras/fixture/src\unity_fixture.c ****         {
 812              		.loc 1 360 0
 813 0048 098197E7 		ldr	r8, [r7, r9, lsl #2]
 814 004c 0951A0E1 		lsl	r5, r9, #2
 815 0050 08119FE5 		ldr	r1, .L125+4
 816 0054 01A089E2 		add	r10, r9, #1
 817 0058 0800A0E1 		mov	r0, r8
 818 005c FEFFFFEB 		bl	strcmp
 819              	.LVL66:
 820 0060 000050E3 		cmp	r0, #0
 821              		.loc 1 362 0
 822 0064 00B08405 		streq	fp, [r4]
 360:D:/Work/DeviceTester/amazon-freertos/lib/third_party/unity/extras/fixture/src\unity_fixture.c ****         {
 823              		.loc 1 360 0
 824 0068 3700000A 		beq	.L114
 363:D:/Work/DeviceTester/amazon-freertos/lib/third_party/unity/extras/fixture/src\unity_fixture.c ****             i++;
 364:D:/Work/DeviceTester/amazon-freertos/lib/third_party/unity/extras/fixture/src\unity_fixture.c ****         }
 365:D:/Work/DeviceTester/amazon-freertos/lib/third_party/unity/extras/fixture/src\unity_fixture.c ****         else if (strcmp(argv[i], "-g") == 0)
 825              		.loc 1 365 0
 826 006c F0109FE5 		ldr	r1, .L125+8
 827 0070 0800A0E1 		mov	r0, r8
 828 0074 FEFFFFEB 		bl	strcmp
 829              	.LVL67:
 830 0078 000050E3 		cmp	r0, #0
 831 007c 0600001A 		bne	.L112
 832              	.LVL68:
 366:D:/Work/DeviceTester/amazon-freertos/lib/third_party/unity/extras/fixture/src\unity_fixture.c ****         {
 367:D:/Work/DeviceTester/amazon-freertos/lib/third_party/unity/extras/fixture/src\unity_fixture.c ****             i++;
 368:D:/Work/DeviceTester/amazon-freertos/lib/third_party/unity/extras/fixture/src\unity_fixture.c ****             if (i >= argc)
 833              		.loc 1 368 0
 834 0080 0A0056E1 		cmp	r6, r10
 835 0084 320000DA 		ble	.L119
 369:D:/Work/DeviceTester/amazon-freertos/lib/third_party/unity/extras/fixture/src\unity_fixture.c ****                 return 1;
 370:D:/Work/DeviceTester/amazon-freertos/lib/third_party/unity/extras/fixture/src\unity_fixture.c ****             UnityFixture.GroupFilter = argv[i];
 836              		.loc 1 370 0
 837 0088 055087E0 		add	r5, r7, r5
 838 008c 043095E5 		ldr	r3, [r5, #4]
 839 0090 0C3084E5 		str	r3, [r4, #12]
 840              	.LVL69:
 841              	.L124:
 842              	.LBB42:
 371:D:/Work/DeviceTester/amazon-freertos/lib/third_party/unity/extras/fixture/src\unity_fixture.c ****             i++;
 372:D:/Work/DeviceTester/amazon-freertos/lib/third_party/unity/extras/fixture/src\unity_fixture.c ****         }
 373:D:/Work/DeviceTester/amazon-freertos/lib/third_party/unity/extras/fixture/src\unity_fixture.c ****         else if (strcmp(argv[i], "-n") == 0)
 374:D:/Work/DeviceTester/amazon-freertos/lib/third_party/unity/extras/fixture/src\unity_fixture.c ****         {
 375:D:/Work/DeviceTester/amazon-freertos/lib/third_party/unity/extras/fixture/src\unity_fixture.c ****             i++;
 376:D:/Work/DeviceTester/amazon-freertos/lib/third_party/unity/extras/fixture/src\unity_fixture.c ****             if (i >= argc)
 377:D:/Work/DeviceTester/amazon-freertos/lib/third_party/unity/extras/fixture/src\unity_fixture.c ****                 return 1;
 378:D:/Work/DeviceTester/amazon-freertos/lib/third_party/unity/extras/fixture/src\unity_fixture.c ****             UnityFixture.NameFilter = argv[i];
 379:D:/Work/DeviceTester/amazon-freertos/lib/third_party/unity/extras/fixture/src\unity_fixture.c ****             i++;
 380:D:/Work/DeviceTester/amazon-freertos/lib/third_party/unity/extras/fixture/src\unity_fixture.c ****         }
 381:D:/Work/DeviceTester/amazon-freertos/lib/third_party/unity/extras/fixture/src\unity_fixture.c ****         else if (strcmp(argv[i], "-r") == 0)
 382:D:/Work/DeviceTester/amazon-freertos/lib/third_party/unity/extras/fixture/src\unity_fixture.c ****         {
 383:D:/Work/DeviceTester/amazon-freertos/lib/third_party/unity/extras/fixture/src\unity_fixture.c ****             UnityFixture.RepeatCount = 2;
 384:D:/Work/DeviceTester/amazon-freertos/lib/third_party/unity/extras/fixture/src\unity_fixture.c ****             i++;
 385:D:/Work/DeviceTester/amazon-freertos/lib/third_party/unity/extras/fixture/src\unity_fixture.c ****             if (i < argc)
 386:D:/Work/DeviceTester/amazon-freertos/lib/third_party/unity/extras/fixture/src\unity_fixture.c ****             {
 387:D:/Work/DeviceTester/amazon-freertos/lib/third_party/unity/extras/fixture/src\unity_fixture.c ****                 if (*(argv[i]) >= '0' && *(argv[i]) <= '9')
 388:D:/Work/DeviceTester/amazon-freertos/lib/third_party/unity/extras/fixture/src\unity_fixture.c ****                 {
 389:D:/Work/DeviceTester/amazon-freertos/lib/third_party/unity/extras/fixture/src\unity_fixture.c ****                     unsigned int digit = 0;
 390:D:/Work/DeviceTester/amazon-freertos/lib/third_party/unity/extras/fixture/src\unity_fixture.c ****                     UnityFixture.RepeatCount = 0;
 391:D:/Work/DeviceTester/amazon-freertos/lib/third_party/unity/extras/fixture/src\unity_fixture.c ****                     while (argv[i][digit] >= '0' && argv[i][digit] <= '9')
 392:D:/Work/DeviceTester/amazon-freertos/lib/third_party/unity/extras/fixture/src\unity_fixture.c ****                     {
 393:D:/Work/DeviceTester/amazon-freertos/lib/third_party/unity/extras/fixture/src\unity_fixture.c ****                         UnityFixture.RepeatCount *= 10;
 394:D:/Work/DeviceTester/amazon-freertos/lib/third_party/unity/extras/fixture/src\unity_fixture.c ****                         UnityFixture.RepeatCount += (unsigned int)argv[i][digit++] - '0';
 395:D:/Work/DeviceTester/amazon-freertos/lib/third_party/unity/extras/fixture/src\unity_fixture.c ****                     }
 396:D:/Work/DeviceTester/amazon-freertos/lib/third_party/unity/extras/fixture/src\unity_fixture.c ****                     i++;
 843              		.loc 1 396 0
 844 0094 023089E2 		add	r3, r9, #2
 845              	.LVL70:
 846 0098 1C0000EA 		b	.L111
 847              	.LVL71:
 848              	.L112:
 849              	.LBE42:
 373:D:/Work/DeviceTester/amazon-freertos/lib/third_party/unity/extras/fixture/src\unity_fixture.c ****         {
 850              		.loc 1 373 0
 851 009c C4109FE5 		ldr	r1, .L125+12
 852 00a0 0800A0E1 		mov	r0, r8
 853 00a4 FEFFFFEB 		bl	strcmp
 854              	.LVL72:
 855 00a8 000050E3 		cmp	r0, #0
 856 00ac 0500001A 		bne	.L113
 857              	.LVL73:
 376:D:/Work/DeviceTester/amazon-freertos/lib/third_party/unity/extras/fixture/src\unity_fixture.c ****                 return 1;
 858              		.loc 1 376 0
 859 00b0 0A0056E1 		cmp	r6, r10
 860 00b4 260000DA 		ble	.L119
 378:D:/Work/DeviceTester/amazon-freertos/lib/third_party/unity/extras/fixture/src\unity_fixture.c ****             i++;
 861              		.loc 1 378 0
 862 00b8 055087E0 		add	r5, r7, r5
 863 00bc 043095E5 		ldr	r3, [r5, #4]
 864 00c0 083084E5 		str	r3, [r4, #8]
 865 00c4 F2FFFFEA 		b	.L124
 866              	.LVL74:
 867              	.L113:
 381:D:/Work/DeviceTester/amazon-freertos/lib/third_party/unity/extras/fixture/src\unity_fixture.c ****         {
 868              		.loc 1 381 0
 869 00c8 9C109FE5 		ldr	r1, .L125+16
 870 00cc 0800A0E1 		mov	r0, r8
 871 00d0 FEFFFFEB 		bl	strcmp
 872              	.LVL75:
 873 00d4 000050E3 		cmp	r0, #0
 874 00d8 1B00001A 		bne	.L114
 385:D:/Work/DeviceTester/amazon-freertos/lib/third_party/unity/extras/fixture/src\unity_fixture.c ****             {
 875              		.loc 1 385 0
 876 00dc 0A0056E1 		cmp	r6, r10
 383:D:/Work/DeviceTester/amazon-freertos/lib/third_party/unity/extras/fixture/src\unity_fixture.c ****             i++;
 877              		.loc 1 383 0
 878 00e0 0230A0E3 		mov	r3, #2
 879 00e4 043084E5 		str	r3, [r4, #4]
 384:D:/Work/DeviceTester/amazon-freertos/lib/third_party/unity/extras/fixture/src\unity_fixture.c ****             if (i < argc)
 880              		.loc 1 384 0
 881 00e8 0A30A0E1 		mov	r3, r10
 882              	.LVL76:
 385:D:/Work/DeviceTester/amazon-freertos/lib/third_party/unity/extras/fixture/src\unity_fixture.c ****             {
 883              		.loc 1 385 0
 884 00ec 070000DA 		ble	.L111
 885              	.LVL77:
 387:D:/Work/DeviceTester/amazon-freertos/lib/third_party/unity/extras/fixture/src\unity_fixture.c ****                 {
 886              		.loc 1 387 0
 887 00f0 055087E0 		add	r5, r7, r5
 888 00f4 041095E5 		ldr	r1, [r5, #4]
 889 00f8 00C0D1E5 		ldrb	ip, [r1]	@ zero_extendqisi2
 890 00fc 30C04CE2 		sub	ip, ip, #48
 891 0100 09005CE3 		cmp	ip, #9
 892              	.LBB43:
 390:D:/Work/DeviceTester/amazon-freertos/lib/third_party/unity/extras/fixture/src\unity_fixture.c ****                     while (argv[i][digit] >= '0' && argv[i][digit] <= '9')
 893              		.loc 1 390 0
 894 0104 04008495 		strls	r0, [r4, #4]
 895 0108 01104192 		subls	r1, r1, #1
 896              	.LBE43:
 387:D:/Work/DeviceTester/amazon-freertos/lib/third_party/unity/extras/fixture/src\unity_fixture.c ****                 {
 897              		.loc 1 387 0
 898 010c 0900009A 		bls	.L115
 899              	.LVL78:
 900              	.L111:
 901 0110 0390A0E1 		mov	r9, r3
 902 0114 C7FFFFEA 		b	.L108
 903              	.LVL79:
 904              	.L116:
 905              	.LBB44:
 393:D:/Work/DeviceTester/amazon-freertos/lib/third_party/unity/extras/fixture/src\unity_fixture.c ****                         UnityFixture.RepeatCount += (unsigned int)argv[i][digit++] - '0';
 906              		.loc 1 393 0
 907 0118 043094E5 		ldr	r3, [r4, #4]
 908 011c 0A20A0E3 		mov	r2, #10
 909 0120 920303E0 		mul	r3, r2, r3
 910 0124 043084E5 		str	r3, [r4, #4]
 911              	.LVL80:
 394:D:/Work/DeviceTester/amazon-freertos/lib/third_party/unity/extras/fixture/src\unity_fixture.c ****                     }
 912              		.loc 1 394 0
 913 0128 303043E2 		sub	r3, r3, #48
 914 012c 0100F1E5 		ldrb	r0, [r1, #1]!	@ zero_extendqisi2
 915              	.LVL81:
 916 0130 003083E0 		add	r3, r3, r0
 917 0134 043084E5 		str	r3, [r4, #4]
 918              	.LVL82:
 919              	.L115:
 391:D:/Work/DeviceTester/amazon-freertos/lib/third_party/unity/extras/fixture/src\unity_fixture.c ****                     {
 920              		.loc 1 391 0
 921 0138 0130D1E5 		ldrb	r3, [r1, #1]	@ zero_extendqisi2
 922 013c 303043E2 		sub	r3, r3, #48
 923 0140 090053E3 		cmp	r3, #9
 924 0144 F3FFFF9A 		bls	.L116
 925 0148 D1FFFFEA 		b	.L124
 926              	.LVL83:
 927              	.L114:
 928              	.LBE44:
 397:D:/Work/DeviceTester/amazon-freertos/lib/third_party/unity/extras/fixture/src\unity_fixture.c ****                 }
 398:D:/Work/DeviceTester/amazon-freertos/lib/third_party/unity/extras/fixture/src\unity_fixture.c ****             }
 399:D:/Work/DeviceTester/amazon-freertos/lib/third_party/unity/extras/fixture/src\unity_fixture.c ****         }
 400:D:/Work/DeviceTester/amazon-freertos/lib/third_party/unity/extras/fixture/src\unity_fixture.c ****         else
 401:D:/Work/DeviceTester/amazon-freertos/lib/third_party/unity/extras/fixture/src\unity_fixture.c ****         {
 402:D:/Work/DeviceTester/amazon-freertos/lib/third_party/unity/extras/fixture/src\unity_fixture.c ****             /* ignore unknown parameter */
 403:D:/Work/DeviceTester/amazon-freertos/lib/third_party/unity/extras/fixture/src\unity_fixture.c ****             i++;
 929              		.loc 1 403 0
 930 014c 0A30A0E1 		mov	r3, r10
 931              	.LVL84:
 932 0150 EEFFFFEA 		b	.L111
 933              	.LVL85:
 934              	.L119:
 369:D:/Work/DeviceTester/amazon-freertos/lib/third_party/unity/extras/fixture/src\unity_fixture.c ****             UnityFixture.GroupFilter = argv[i];
 935              		.loc 1 369 0
 936 0154 0100A0E3 		mov	r0, #1
 404:D:/Work/DeviceTester/amazon-freertos/lib/third_party/unity/extras/fixture/src\unity_fixture.c ****         }
 405:D:/Work/DeviceTester/amazon-freertos/lib/third_party/unity/extras/fixture/src\unity_fixture.c ****     }
 406:D:/Work/DeviceTester/amazon-freertos/lib/third_party/unity/extras/fixture/src\unity_fixture.c ****     return 0;
 407:D:/Work/DeviceTester/amazon-freertos/lib/third_party/unity/extras/fixture/src\unity_fixture.c **** }
 937              		.loc 1 407 0
 938 0158 F88FBDE8 		pop	{r3, r4, r5, r6, r7, r8, r9, r10, fp, pc}
 939              	.L126:
 940              		.align	2
 941              	.L125:
 942 015c 00000000 		.word	UnityFixture
 943 0160 00000000 		.word	.LC5
 944 0164 03000000 		.word	.LC6
 945 0168 06000000 		.word	.LC7
 946 016c 09000000 		.word	.LC8
 947              		.cfi_endproc
 948              	.LFE19:
 950              		.section	.text.UnityMain,"ax",%progbits
 951              		.align	2
 952              		.global	UnityMain
 953              		.syntax unified
 954              		.arm
 955              		.fpu neon
 957              	UnityMain:
 958              	.LFB1:
  33:D:/Work/DeviceTester/amazon-freertos/lib/third_party/unity/extras/fixture/src\unity_fixture.c ****     int result = UnityGetCommandLineOptions(argc, argv);
 959              		.loc 1 33 0
 960              		.cfi_startproc
 961              		@ args = 0, pretend = 0, frame = 0
 962              		@ frame_needed = 0, uses_anonymous_args = 0
 963              	.LVL86:
 964 0000 F0472DE9 		push	{r4, r5, r6, r7, r8, r9, r10, lr}
 965              		.cfi_def_cfa_offset 32
 966              		.cfi_offset 4, -32
 967              		.cfi_offset 5, -28
 968              		.cfi_offset 6, -24
 969              		.cfi_offset 7, -20
 970              		.cfi_offset 8, -16
 971              		.cfi_offset 9, -12
 972              		.cfi_offset 10, -8
 973              		.cfi_offset 14, -4
  33:D:/Work/DeviceTester/amazon-freertos/lib/third_party/unity/extras/fixture/src\unity_fixture.c ****     int result = UnityGetCommandLineOptions(argc, argv);
 974              		.loc 1 33 0
 975 0004 0160A0E1 		mov	r6, r1
 976 0008 0270A0E1 		mov	r7, r2
  34:D:/Work/DeviceTester/amazon-freertos/lib/third_party/unity/extras/fixture/src\unity_fixture.c ****     unsigned int r;
 977              		.loc 1 34 0
 978 000c FEFFFFEB 		bl	UnityGetCommandLineOptions
 979              	.LVL87:
  36:D:/Work/DeviceTester/amazon-freertos/lib/third_party/unity/extras/fixture/src\unity_fixture.c ****         return result;
 980              		.loc 1 36 0
 981 0010 000050E3 		cmp	r0, #0
 982 0014 F087BD18 		popne	{r4, r5, r6, r7, r8, r9, r10, pc}
  39:D:/Work/DeviceTester/amazon-freertos/lib/third_party/unity/extras/fixture/src\unity_fixture.c ****     {
 983              		.loc 1 39 0 discriminator 1
 984 0018 74509FE5 		ldr	r5, .L133
 985 001c 0040A0E1 		mov	r4, r0
 986              	.LBB47:
 987              	.LBB48:
  25:D:/Work/DeviceTester/amazon-freertos/lib/third_party/unity/extras/fixture/src\unity_fixture.c ****     UnityPrintNumberUnsigned(runNumber+1);
 988              		.loc 1 25 0 discriminator 1
 989 0020 70809FE5 		ldr	r8, .L133+4
  27:D:/Work/DeviceTester/amazon-freertos/lib/third_party/unity/extras/fixture/src\unity_fixture.c ****     UnityPrintNumberUnsigned(UnityFixture.RepeatCount);
 990              		.loc 1 27 0 discriminator 1
 991 0024 70909FE5 		ldr	r9, .L133+8
 992              	.LVL88:
 993              	.L129:
 994              	.LBE48:
 995              	.LBE47:
  39:D:/Work/DeviceTester/amazon-freertos/lib/third_party/unity/extras/fixture/src\unity_fixture.c ****     {
 996              		.loc 1 39 0 discriminator 1
 997 0028 043095E5 		ldr	r3, [r5, #4]
 998 002c 030054E1 		cmp	r4, r3
 999 0030 0200003A 		bcc	.L131
  48:D:/Work/DeviceTester/amazon-freertos/lib/third_party/unity/extras/fixture/src\unity_fixture.c **** }
 1000              		.loc 1 48 0
 1001 0034 64309FE5 		ldr	r3, .L133+12
 1002 0038 180093E5 		ldr	r0, [r3, #24]
  49:D:/Work/DeviceTester/amazon-freertos/lib/third_party/unity/extras/fixture/src\unity_fixture.c **** 
 1003              		.loc 1 49 0
 1004 003c F087BDE8 		pop	{r4, r5, r6, r7, r8, r9, r10, pc}
 1005              	.L131:
  41:D:/Work/DeviceTester/amazon-freertos/lib/third_party/unity/extras/fixture/src\unity_fixture.c ****         announceTestRun(r);
 1006              		.loc 1 41 0
 1007 0040 000096E5 		ldr	r0, [r6]
 1008              	.LBB51:
 1009              	.LBB49:
  26:D:/Work/DeviceTester/amazon-freertos/lib/third_party/unity/extras/fixture/src\unity_fixture.c ****     UnityPrint(" of ");
 1010              		.loc 1 26 0
 1011 0044 014084E2 		add	r4, r4, #1
 1012              	.LVL89:
 1013              	.LBE49:
 1014              	.LBE51:
  41:D:/Work/DeviceTester/amazon-freertos/lib/third_party/unity/extras/fixture/src\unity_fixture.c ****         announceTestRun(r);
 1015              		.loc 1 41 0
 1016 0048 FEFFFFEB 		bl	UnityBegin
 1017              	.LVL90:
 1018              	.LBB52:
 1019              	.LBB50:
  25:D:/Work/DeviceTester/amazon-freertos/lib/third_party/unity/extras/fixture/src\unity_fixture.c ****     UnityPrintNumberUnsigned(runNumber+1);
 1020              		.loc 1 25 0
 1021 004c 0800A0E1 		mov	r0, r8
 1022 0050 FEFFFFEB 		bl	UnityPrint
 1023              	.LVL91:
  26:D:/Work/DeviceTester/amazon-freertos/lib/third_party/unity/extras/fixture/src\unity_fixture.c ****     UnityPrint(" of ");
 1024              		.loc 1 26 0
 1025 0054 0400A0E1 		mov	r0, r4
 1026 0058 FEFFFFEB 		bl	UnityPrintNumberUnsigned
 1027              	.LVL92:
  27:D:/Work/DeviceTester/amazon-freertos/lib/third_party/unity/extras/fixture/src\unity_fixture.c ****     UnityPrintNumberUnsigned(UnityFixture.RepeatCount);
 1028              		.loc 1 27 0
 1029 005c 0900A0E1 		mov	r0, r9
 1030 0060 FEFFFFEB 		bl	UnityPrint
 1031              	.LVL93:
  28:D:/Work/DeviceTester/amazon-freertos/lib/third_party/unity/extras/fixture/src\unity_fixture.c ****     UNITY_PRINT_EOL();
 1032              		.loc 1 28 0
 1033 0064 040095E5 		ldr	r0, [r5, #4]
 1034 0068 FEFFFFEB 		bl	UnityPrintNumberUnsigned
 1035              	.LVL94:
  29:D:/Work/DeviceTester/amazon-freertos/lib/third_party/unity/extras/fixture/src\unity_fixture.c **** }
 1036              		.loc 1 29 0
 1037 006c 0A00A0E3 		mov	r0, #10
 1038 0070 FEFFFFEB 		bl	TEST_CacheResult
 1039              	.LVL95:
 1040              	.LBE50:
 1041              	.LBE52:
  43:D:/Work/DeviceTester/amazon-freertos/lib/third_party/unity/extras/fixture/src\unity_fixture.c ****         if (!UnityFixture.Verbose) UNITY_PRINT_EOL();
 1042              		.loc 1 43 0
 1043 0074 37FF2FE1 		blx	r7
 1044              	.LVL96:
  44:D:/Work/DeviceTester/amazon-freertos/lib/third_party/unity/extras/fixture/src\unity_fixture.c ****         UnityEnd();
 1045              		.loc 1 44 0
 1046 0078 003095E5 		ldr	r3, [r5]
 1047 007c 000053E3 		cmp	r3, #0
 1048 0080 0100001A 		bne	.L130
  44:D:/Work/DeviceTester/amazon-freertos/lib/third_party/unity/extras/fixture/src\unity_fixture.c ****         UnityEnd();
 1049              		.loc 1 44 0 is_stmt 0 discriminator 1
 1050 0084 0A00A0E3 		mov	r0, #10
 1051 0088 FEFFFFEB 		bl	TEST_CacheResult
 1052              	.LVL97:
 1053              	.L130:
  45:D:/Work/DeviceTester/amazon-freertos/lib/third_party/unity/extras/fixture/src\unity_fixture.c ****     }
 1054              		.loc 1 45 0 is_stmt 1 discriminator 2
 1055 008c FEFFFFEB 		bl	UnityEnd
 1056              	.LVL98:
 1057 0090 E4FFFFEA 		b	.L129
 1058              	.L134:
 1059              		.align	2
 1060              	.L133:
 1061 0094 00000000 		.word	UnityFixture
 1062 0098 00000000 		.word	.LC9
 1063 009c 10000000 		.word	.LC10
 1064 00a0 00000000 		.word	Unity
 1065              		.cfi_endproc
 1066              	.LFE1:
 1068              		.section	.text.UnityConcludeFixtureTest,"ax",%progbits
 1069              		.align	2
 1070              		.global	UnityConcludeFixtureTest
 1071              		.syntax unified
 1072              		.arm
 1073              		.fpu neon
 1075              	UnityConcludeFixtureTest:
 1076              	.LFB20:
 408:D:/Work/DeviceTester/amazon-freertos/lib/third_party/unity/extras/fixture/src\unity_fixture.c **** 
 409:D:/Work/DeviceTester/amazon-freertos/lib/third_party/unity/extras/fixture/src\unity_fixture.c **** void UnityConcludeFixtureTest(void)
 410:D:/Work/DeviceTester/amazon-freertos/lib/third_party/unity/extras/fixture/src\unity_fixture.c **** {
 1077              		.loc 1 410 0
 1078              		.cfi_startproc
 1079              		@ args = 0, pretend = 0, frame = 0
 1080              		@ frame_needed = 0, uses_anonymous_args = 0
 1081 0000 10402DE9 		push	{r4, lr}
 1082              		.cfi_def_cfa_offset 8
 1083              		.cfi_offset 4, -8
 1084              		.cfi_offset 14, -4
 411:D:/Work/DeviceTester/amazon-freertos/lib/third_party/unity/extras/fixture/src\unity_fixture.c ****     if (Unity.CurrentTestIgnored)
 1085              		.loc 1 411 0
 1086 0004 60409FE5 		ldr	r4, .L144
 1087 0008 243094E5 		ldr	r3, [r4, #36]
 1088 000c 000053E3 		cmp	r3, #0
 412:D:/Work/DeviceTester/amazon-freertos/lib/third_party/unity/extras/fixture/src\unity_fixture.c ****     {
 413:D:/Work/DeviceTester/amazon-freertos/lib/third_party/unity/extras/fixture/src\unity_fixture.c ****         Unity.TestIgnores++;
 1089              		.loc 1 413 0
 1090 0010 1C309415 		ldrne	r3, [r4, #28]
 1091 0014 01308312 		addne	r3, r3, #1
 1092 0018 1C308415 		strne	r3, [r4, #28]
 411:D:/Work/DeviceTester/amazon-freertos/lib/third_party/unity/extras/fixture/src\unity_fixture.c ****     if (Unity.CurrentTestIgnored)
 1093              		.loc 1 411 0
 1094 001c 0800001A 		bne	.L143
 414:D:/Work/DeviceTester/amazon-freertos/lib/third_party/unity/extras/fixture/src\unity_fixture.c ****         UNITY_PRINT_EOL();
 415:D:/Work/DeviceTester/amazon-freertos/lib/third_party/unity/extras/fixture/src\unity_fixture.c ****     }
 416:D:/Work/DeviceTester/amazon-freertos/lib/third_party/unity/extras/fixture/src\unity_fixture.c ****     else if (!Unity.CurrentTestFailed)
 1095              		.loc 1 416 0
 1096 0020 203094E5 		ldr	r3, [r4, #32]
 1097 0024 000053E3 		cmp	r3, #0
 1098 0028 0B00001A 		bne	.L138
 417:D:/Work/DeviceTester/amazon-freertos/lib/third_party/unity/extras/fixture/src\unity_fixture.c ****     {
 418:D:/Work/DeviceTester/amazon-freertos/lib/third_party/unity/extras/fixture/src\unity_fixture.c ****         if (UnityFixture.Verbose)
 1099              		.loc 1 418 0
 1100 002c 3C309FE5 		ldr	r3, .L144+4
 1101 0030 003093E5 		ldr	r3, [r3]
 1102 0034 000053E3 		cmp	r3, #0
 1103 0038 0300000A 		beq	.L137
 419:D:/Work/DeviceTester/amazon-freertos/lib/third_party/unity/extras/fixture/src\unity_fixture.c ****         {
 420:D:/Work/DeviceTester/amazon-freertos/lib/third_party/unity/extras/fixture/src\unity_fixture.c ****             UnityPrint(" PASS");
 1104              		.loc 1 420 0
 1105 003c 30009FE5 		ldr	r0, .L144+8
 1106 0040 FEFFFFEB 		bl	UnityPrint
 1107              	.LVL99:
 1108              	.L143:
 421:D:/Work/DeviceTester/amazon-freertos/lib/third_party/unity/extras/fixture/src\unity_fixture.c ****             UNITY_PRINT_EOL();
 422:D:/Work/DeviceTester/amazon-freertos/lib/third_party/unity/extras/fixture/src\unity_fixture.c ****         }
 423:D:/Work/DeviceTester/amazon-freertos/lib/third_party/unity/extras/fixture/src\unity_fixture.c ****     }
 424:D:/Work/DeviceTester/amazon-freertos/lib/third_party/unity/extras/fixture/src\unity_fixture.c ****     else /* Unity.CurrentTestFailed */
 425:D:/Work/DeviceTester/amazon-freertos/lib/third_party/unity/extras/fixture/src\unity_fixture.c ****     {
 426:D:/Work/DeviceTester/amazon-freertos/lib/third_party/unity/extras/fixture/src\unity_fixture.c ****         Unity.TestFailures++;
 427:D:/Work/DeviceTester/amazon-freertos/lib/third_party/unity/extras/fixture/src\unity_fixture.c ****         UNITY_PRINT_EOL();
 1109              		.loc 1 427 0
 1110 0044 0A00A0E3 		mov	r0, #10
 1111 0048 FEFFFFEB 		bl	TEST_CacheResult
 1112              	.LVL100:
 1113              	.L137:
 428:D:/Work/DeviceTester/amazon-freertos/lib/third_party/unity/extras/fixture/src\unity_fixture.c ****     }
 429:D:/Work/DeviceTester/amazon-freertos/lib/third_party/unity/extras/fixture/src\unity_fixture.c **** 
 430:D:/Work/DeviceTester/amazon-freertos/lib/third_party/unity/extras/fixture/src\unity_fixture.c ****     Unity.CurrentTestFailed = 0;
 1114              		.loc 1 430 0
 1115 004c 0030A0E3 		mov	r3, #0
 1116 0050 203084E5 		str	r3, [r4, #32]
 431:D:/Work/DeviceTester/amazon-freertos/lib/third_party/unity/extras/fixture/src\unity_fixture.c ****     Unity.CurrentTestIgnored = 0;
 1117              		.loc 1 431 0
 1118 0054 243084E5 		str	r3, [r4, #36]
 1119 0058 1080BDE8 		pop	{r4, pc}
 1120              	.L138:
 426:D:/Work/DeviceTester/amazon-freertos/lib/third_party/unity/extras/fixture/src\unity_fixture.c ****         UNITY_PRINT_EOL();
 1121              		.loc 1 426 0
 1122 005c 183094E5 		ldr	r3, [r4, #24]
 1123 0060 013083E2 		add	r3, r3, #1
 1124 0064 183084E5 		str	r3, [r4, #24]
 1125 0068 F5FFFFEA 		b	.L143
 1126              	.L145:
 1127              		.align	2
 1128              	.L144:
 1129 006c 00000000 		.word	Unity
 1130 0070 00000000 		.word	UnityFixture
 1131 0074 00000000 		.word	.LC11
 1132              		.cfi_endproc
 1133              	.LFE20:
 1135              		.section	.text.UnityTestRunner,"ax",%progbits
 1136              		.align	2
 1137              		.global	UnityTestRunner
 1138              		.syntax unified
 1139              		.arm
 1140              		.fpu neon
 1142              	UnityTestRunner:
 1143              	.LFB5:
  76:D:/Work/DeviceTester/amazon-freertos/lib/third_party/unity/extras/fixture/src\unity_fixture.c ****     if (testSelected(name) && groupSelected(group))
 1144              		.loc 1 76 0
 1145              		.cfi_startproc
 1146              		@ args = 16, pretend = 0, frame = 16
 1147              		@ frame_needed = 0, uses_anonymous_args = 0
 1148              	.LVL101:
 1149 0000 30402DE9 		push	{r4, r5, lr}
 1150              		.cfi_def_cfa_offset 12
 1151              		.cfi_offset 4, -12
 1152              		.cfi_offset 5, -8
 1153              		.cfi_offset 14, -4
 1154 0004 0350A0E1 		mov	r5, r3
 1155              	.LBB63:
 1156              	.LBB64:
  60:D:/Work/DeviceTester/amazon-freertos/lib/third_party/unity/extras/fixture/src\unity_fixture.c **** }
 1157              		.loc 1 60 0
 1158 0008 10319FE5 		ldr	r3, .L161
 1159              	.LVL102:
 1160              	.LBE64:
 1161              	.LBE63:
  76:D:/Work/DeviceTester/amazon-freertos/lib/third_party/unity/extras/fixture/src\unity_fixture.c ****     if (testSelected(name) && groupSelected(group))
 1162              		.loc 1 76 0
 1163 000c 14D04DE2 		sub	sp, sp, #20
 1164              		.cfi_def_cfa_offset 32
 1165              	.LVL103:
  76:D:/Work/DeviceTester/amazon-freertos/lib/third_party/unity/extras/fixture/src\unity_fixture.c ****     if (testSelected(name) && groupSelected(group))
 1166              		.loc 1 76 0
 1167 0010 07008DE9 		stmib	sp, {r0, r1, r2}
 1168              	.LBB68:
 1169              	.LBB67:
  60:D:/Work/DeviceTester/amazon-freertos/lib/third_party/unity/extras/fixture/src\unity_fixture.c **** }
 1170              		.loc 1 60 0
 1171 0014 081093E5 		ldr	r1, [r3, #8]
 1172              	.LVL104:
 1173              	.LBB65:
 1174              	.LBB66:
  53:D:/Work/DeviceTester/amazon-freertos/lib/third_party/unity/extras/fixture/src\unity_fixture.c ****         return 1;
 1175              		.loc 1 53 0
 1176 0018 000051E3 		cmp	r1, #0
 1177 001c 0300000A 		beq	.L147
  55:D:/Work/DeviceTester/amazon-freertos/lib/third_party/unity/extras/fixture/src\unity_fixture.c **** }
 1178              		.loc 1 55 0
 1179 0020 24009DE5 		ldr	r0, [sp, #36]
 1180              	.LVL105:
 1181 0024 FEFFFFEB 		bl	strstr
 1182              	.LVL106:
 1183              	.LBE66:
 1184              	.LBE65:
 1185              	.LBE67:
 1186              	.LBE68:
  77:D:/Work/DeviceTester/amazon-freertos/lib/third_party/unity/extras/fixture/src\unity_fixture.c ****     {
 1187              		.loc 1 77 0
 1188 0028 000050E3 		cmp	r0, #0
 1189 002c 2D00000A 		beq	.L146
 1190              	.L147:
 1191              	.LVL107:
 1192              	.LBB69:
 1193              	.LBB70:
  65:D:/Work/DeviceTester/amazon-freertos/lib/third_party/unity/extras/fixture/src\unity_fixture.c **** }
 1194              		.loc 1 65 0
 1195 0030 E8309FE5 		ldr	r3, .L161
 1196 0034 0C1093E5 		ldr	r1, [r3, #12]
 1197              	.LVL108:
 1198              	.LBB71:
 1199              	.LBB72:
  53:D:/Work/DeviceTester/amazon-freertos/lib/third_party/unity/extras/fixture/src\unity_fixture.c ****         return 1;
 1200              		.loc 1 53 0
 1201 0038 000051E3 		cmp	r1, #0
 1202 003c 0300000A 		beq	.L148
  55:D:/Work/DeviceTester/amazon-freertos/lib/third_party/unity/extras/fixture/src\unity_fixture.c **** }
 1203              		.loc 1 55 0
 1204 0040 20009DE5 		ldr	r0, [sp, #32]
 1205 0044 FEFFFFEB 		bl	strstr
 1206              	.LVL109:
 1207              	.LBE72:
 1208              	.LBE71:
 1209              	.LBE70:
 1210              	.LBE69:
  77:D:/Work/DeviceTester/amazon-freertos/lib/third_party/unity/extras/fixture/src\unity_fixture.c ****     {
 1211              		.loc 1 77 0
 1212 0048 000050E3 		cmp	r0, #0
 1213 004c 2500000A 		beq	.L146
 1214              	.L148:
  79:D:/Work/DeviceTester/amazon-freertos/lib/third_party/unity/extras/fixture/src\unity_fixture.c ****         Unity.CurrentTestName = printableName;
 1215              		.loc 1 79 0
 1216 0050 CC409FE5 		ldr	r4, .L161+4
 1217 0054 28309DE5 		ldr	r3, [sp, #40]
  80:D:/Work/DeviceTester/amazon-freertos/lib/third_party/unity/extras/fixture/src\unity_fixture.c ****         Unity.CurrentTestLineNumber = line;
 1218              		.loc 1 80 0
 1219 0058 280084E8 		stm	r4, {r3, r5}
  81:D:/Work/DeviceTester/amazon-freertos/lib/third_party/unity/extras/fixture/src\unity_fixture.c ****         if (!UnityFixture.Verbose)
 1220              		.loc 1 81 0
 1221 005c 2C309DE5 		ldr	r3, [sp, #44]
 1222 0060 103084E5 		str	r3, [r4, #16]
  82:D:/Work/DeviceTester/amazon-freertos/lib/third_party/unity/extras/fixture/src\unity_fixture.c ****             UNITY_OUTPUT_CHAR('.');
 1223              		.loc 1 82 0
 1224 0064 B4309FE5 		ldr	r3, .L161
 1225 0068 003093E5 		ldr	r3, [r3]
 1226 006c 000053E3 		cmp	r3, #0
 1227 0070 1E00001A 		bne	.L150
  83:D:/Work/DeviceTester/amazon-freertos/lib/third_party/unity/extras/fixture/src\unity_fixture.c ****         else
 1228              		.loc 1 83 0
 1229 0074 2E00A0E3 		mov	r0, #46
 1230 0078 FEFFFFEB 		bl	TEST_CacheResult
 1231              	.LVL110:
 1232              	.L151:
  92:D:/Work/DeviceTester/amazon-freertos/lib/third_party/unity/extras/fixture/src\unity_fixture.c ****         UnityMalloc_StartTest();
 1233              		.loc 1 92 0
 1234 007c A0009FE5 		ldr	r0, .L161+4
 1235 0080 143090E5 		ldr	r3, [r0, #20]
 1236 0084 013083E2 		add	r3, r3, #1
 1237 0088 143080E5 		str	r3, [r0, #20]
  93:D:/Work/DeviceTester/amazon-freertos/lib/third_party/unity/extras/fixture/src\unity_fixture.c ****         UnityPointer_Init();
 1238              		.loc 1 93 0
 1239 008c FEFFFFEB 		bl	UnityMalloc_StartTest
 1240              	.LVL111:
 1241              	.LBB73:
 1242              	.LBB74:
 319:D:/Work/DeviceTester/amazon-freertos/lib/third_party/unity/extras/fixture/src\unity_fixture.c **** }
 1243              		.loc 1 319 0
 1244 0090 90309FE5 		ldr	r3, .L161+8
 1245 0094 0020A0E3 		mov	r2, #0
 1246              	.LBE74:
 1247              	.LBE73:
  96:D:/Work/DeviceTester/amazon-freertos/lib/third_party/unity/extras/fixture/src\unity_fixture.c ****         {
 1248              		.loc 1 96 0
 1249 0098 280080E2 		add	r0, r0, #40
 1250              	.LBB76:
 1251              	.LBB75:
 319:D:/Work/DeviceTester/amazon-freertos/lib/third_party/unity/extras/fixture/src\unity_fixture.c **** }
 1252              		.loc 1 319 0
 1253 009c 002083E5 		str	r2, [r3]
 1254              	.LBE75:
 1255              	.LBE76:
  96:D:/Work/DeviceTester/amazon-freertos/lib/third_party/unity/extras/fixture/src\unity_fixture.c ****         {
 1256              		.loc 1 96 0
 1257 00a0 FEFFFFEB 		bl	setjmp
 1258              	.LVL112:
 1259 00a4 000050E3 		cmp	r0, #0
 1260 00a8 0300001A 		bne	.L153
  98:D:/Work/DeviceTester/amazon-freertos/lib/third_party/unity/extras/fixture/src\unity_fixture.c ****             testBody();
 1261              		.loc 1 98 0
 1262 00ac 04309DE5 		ldr	r3, [sp, #4]
 1263 00b0 33FF2FE1 		blx	r3
 1264              	.LVL113:
  99:D:/Work/DeviceTester/amazon-freertos/lib/third_party/unity/extras/fixture/src\unity_fixture.c ****         }
 1265              		.loc 1 99 0
 1266 00b4 08309DE5 		ldr	r3, [sp, #8]
 1267 00b8 33FF2FE1 		blx	r3
 1268              	.LVL114:
 1269              	.L153:
 101:D:/Work/DeviceTester/amazon-freertos/lib/third_party/unity/extras/fixture/src\unity_fixture.c ****         {
 1270              		.loc 1 101 0
 1271 00bc 68009FE5 		ldr	r0, .L161+12
 1272 00c0 FEFFFFEB 		bl	setjmp
 1273              	.LVL115:
 1274 00c4 000050E3 		cmp	r0, #0
 1275 00c8 0100001A 		bne	.L156
 103:D:/Work/DeviceTester/amazon-freertos/lib/third_party/unity/extras/fixture/src\unity_fixture.c ****         }
 1276              		.loc 1 103 0
 1277 00cc 0C309DE5 		ldr	r3, [sp, #12]
 1278 00d0 33FF2FE1 		blx	r3
 1279              	.LVL116:
 1280              	.L156:
 105:D:/Work/DeviceTester/amazon-freertos/lib/third_party/unity/extras/fixture/src\unity_fixture.c ****         {
 1281              		.loc 1 105 0
 1282 00d4 50009FE5 		ldr	r0, .L161+12
 1283 00d8 FEFFFFEB 		bl	setjmp
 1284              	.LVL117:
 1285 00dc 000050E3 		cmp	r0, #0
 1286 00e0 0700000A 		beq	.L158
 1287              	.L159:
 111:D:/Work/DeviceTester/amazon-freertos/lib/third_party/unity/extras/fixture/src\unity_fixture.c ****     }
 1288              		.loc 1 111 0
 1289 00e4 FEFFFFEB 		bl	UnityConcludeFixtureTest
 1290              	.LVL118:
 1291              	.L146:
 113:D:/Work/DeviceTester/amazon-freertos/lib/third_party/unity/extras/fixture/src\unity_fixture.c **** 
 1292              		.loc 1 113 0
 1293 00e8 14D08DE2 		add	sp, sp, #20
 1294              		.cfi_remember_state
 1295              		.cfi_def_cfa_offset 12
 1296              		@ sp needed
 1297 00ec 3080BDE8 		pop	{r4, r5, pc}
 1298              	.LVL119:
 1299              	.L150:
 1300              		.cfi_restore_state
  86:D:/Work/DeviceTester/amazon-freertos/lib/third_party/unity/extras/fixture/src\unity_fixture.c ****         #ifndef UNITY_REPEAT_TEST_NAME
 1301              		.loc 1 86 0
 1302 00f0 0500A0E1 		mov	r0, r5
 1303 00f4 FEFFFFEB 		bl	UnityPrint
 1304              	.LVL120:
  88:D:/Work/DeviceTester/amazon-freertos/lib/third_party/unity/extras/fixture/src\unity_fixture.c ****         #endif
 1305              		.loc 1 88 0
 1306 00f8 0030A0E3 		mov	r3, #0
 1307 00fc 043084E5 		str	r3, [r4, #4]
 1308 0100 DDFFFFEA 		b	.L151
 1309              	.L158:
 107:D:/Work/DeviceTester/amazon-freertos/lib/third_party/unity/extras/fixture/src\unity_fixture.c ****             if (!Unity.CurrentTestFailed)
 1310              		.loc 1 107 0
 1311 0104 FEFFFFEB 		bl	UnityPointer_UndoAllSets
 1312              	.LVL121:
 108:D:/Work/DeviceTester/amazon-freertos/lib/third_party/unity/extras/fixture/src\unity_fixture.c ****                 UnityMalloc_EndTest();
 1313              		.loc 1 108 0
 1314 0108 14309FE5 		ldr	r3, .L161+4
 1315 010c 203093E5 		ldr	r3, [r3, #32]
 1316 0110 000053E3 		cmp	r3, #0
 1317 0114 F2FFFF1A 		bne	.L159
 109:D:/Work/DeviceTester/amazon-freertos/lib/third_party/unity/extras/fixture/src\unity_fixture.c ****         }
 1318              		.loc 1 109 0
 1319 0118 FEFFFFEB 		bl	UnityMalloc_EndTest
 1320              	.LVL122:
 1321 011c F0FFFFEA 		b	.L159
 1322              	.L162:
 1323              		.align	2
 1324              	.L161:
 1325 0120 00000000 		.word	UnityFixture
 1326 0124 00000000 		.word	Unity
 1327 0128 00000000 		.word	.LANCHOR3
 1328 012c 28000000 		.word	Unity+40
 1329              		.cfi_endproc
 1330              	.LFE5:
 1332              		.comm	UnityFixture,16,4
 1333              		.section	.bss.malloc_count,"aw",%nobits
 1334              		.align	2
 1335              		.set	.LANCHOR0,. + 0
 1338              	malloc_count:
 1339 0000 00000000 		.space	4
 1340              		.section	.bss.pointer_index,"aw",%nobits
 1341              		.align	2
 1342              		.set	.LANCHOR3,. + 0
 1345              	pointer_index:
 1346 0000 00000000 		.space	4
 1347              		.section	.bss.pointer_store,"aw",%nobits
 1348              		.align	2
 1349              		.set	.LANCHOR4,. + 0
 1352              	pointer_store:
 1353 0000 00000000 		.space	40
 1353      00000000 
 1353      00000000 
 1353      00000000 
 1353      00000000 
 1354              		.section	.data.malloc_fail_countdown,"aw",%progbits
 1355              		.align	2
 1356              		.set	.LANCHOR1,. + 0
 1359              	malloc_fail_countdown:
 1360 0000 FFFFFFFF 		.word	-1
 1361              		.section	.rodata.UnityConcludeFixtureTest.str1.1,"aMS",%progbits,1
 1362              	.LC11:
 1363 0000 20504153 		.ascii	" PASS\000"
 1363      5300
 1364              		.section	.rodata.UnityGetCommandLineOptions.str1.1,"aMS",%progbits,1
 1365              	.LC5:
 1366 0000 2D7600   		.ascii	"-v\000"
 1367              	.LC6:
 1368 0003 2D6700   		.ascii	"-g\000"
 1369              	.LC7:
 1370 0006 2D6E00   		.ascii	"-n\000"
 1371              	.LC8:
 1372 0009 2D7200   		.ascii	"-r\000"
 1373              		.section	.rodata.UnityMain.str1.1,"aMS",%progbits,1
 1374              	.LC9:
 1375 0000 556E6974 		.ascii	"Unity test run \000"
 1375      79207465 
 1375      73742072 
 1375      756E2000 
 1376              	.LC10:
 1377 0010 206F6620 		.ascii	" of \000"
 1377      00
 1378              		.section	.rodata.UnityMalloc_EndTest.str1.1,"aMS",%progbits,1
 1379              	.LC0:
 1380 0000 54686973 		.ascii	"This test leaks!\000"
 1380      20746573 
 1380      74206C65 
 1380      616B7321 
 1380      00
 1381              		.section	.rodata.UnityPointer_Set.str1.1,"aMS",%progbits,1
 1382              	.LC4:
 1383 0000 546F6F20 		.ascii	"Too many pointers set\000"
 1383      6D616E79 
 1383      20706F69 
 1383      6E746572 
 1383      73207365 
 1384              		.section	.rodata.end,"a",%progbits
 1385              		.set	.LANCHOR2,. + 0
 1388              	end:
 1389 0000 454E4400 		.ascii	"END\000"
 1390              		.section	.rodata.unity_free.str1.1,"aMS",%progbits,1
 1391              	.LC2:
 1392 0000 42756666 		.ascii	"Buffer overrun detected during free()\000"
 1392      6572206F 
 1392      76657272 
 1392      756E2064 
 1392      65746563 
 1393              		.section	.rodata.unity_malloc.str1.1,"aMS",%progbits,1
 1394              	.LC1:
 1395 0000 454E4400 		.ascii	"END\000"
 1396              		.section	.rodata.unity_realloc.str1.1,"aMS",%progbits,1
 1397              	.LC3:
 1398 0000 42756666 		.ascii	"Buffer overrun detected during realloc()\000"
 1398      6572206F 
 1398      76657272 
 1398      756E2064 
 1398      65746563 
 1399              		.text
 1400              	.Letext0:
 1401              		.file 2 "c:\\program files (x86)\\gnu tools arm embedded\\6 2017-q2-update\\arm-none-eabi\\include
 1402              		.file 3 "c:\\program files (x86)\\gnu tools arm embedded\\6 2017-q2-update\\lib\\gcc\\arm-none-eab
 1403              		.file 4 "c:\\program files (x86)\\gnu tools arm embedded\\6 2017-q2-update\\arm-none-eabi\\include
 1404              		.file 5 "c:\\program files (x86)\\gnu tools arm embedded\\6 2017-q2-update\\arm-none-eabi\\include
 1405              		.file 6 "c:\\program files (x86)\\gnu tools arm embedded\\6 2017-q2-update\\arm-none-eabi\\include
 1406              		.file 7 "c:\\program files (x86)\\gnu tools arm embedded\\6 2017-q2-update\\arm-none-eabi\\include
 1407              		.file 8 "D:\\Work\\DeviceTester\\amazon-freertos\\lib\\third_party\\unity\\src/unity_internals.h"
 1408              		.file 9 "c:\\program files (x86)\\gnu tools arm embedded\\6 2017-q2-update\\arm-none-eabi\\include
 1409              		.file 10 "D:/Work/DeviceTester/amazon-freertos/lib/third_party/unity/extras/fixture/src/unity_fixt
 1410              		.file 11 "D:\\Work\\DeviceTester\\amazon-freertos\\tests\\common\\include/aws_test_framework.h"
 1411              		.file 12 "c:\\program files (x86)\\gnu tools arm embedded\\6 2017-q2-update\\arm-none-eabi\\includ
 1412              		.file 13 "c:\\program files (x86)\\gnu tools arm embedded\\6 2017-q2-update\\arm-none-eabi\\includ