   1              		.cpu cortex-a9
   2              		.eabi_attribute 28, 1
   3              		.eabi_attribute 20, 1
   4              		.eabi_attribute 21, 1
   5              		.eabi_attribute 23, 3
   6              		.eabi_attribute 24, 1
   7              		.eabi_attribute 25, 1
   8              		.eabi_attribute 26, 1
   9              		.eabi_attribute 30, 4
  10              		.eabi_attribute 34, 0
  11              		.eabi_attribute 18, 4
  12              		.file	"r_os_abstraction_stdio.c"
  13              		.text
  14              	.Ltext0:
  15              		.cfi_sections	.debug_frame
  16              		.section	.text.stdio_hld_open,"ax",%progbits
  17              		.align	2
  18              		.syntax unified
  19              		.arm
  20              		.fpu neon
  22              	stdio_hld_open:
  23              	.LFB4:
  24              		.file 1 "D:/Work/DeviceTester/amazon-freertos/lib/third_party/mcu_vendor/renesas/rz_mcu_boards/cor
   1:D:/Work/DeviceTester/amazon-freertos/lib/third_party/mcu_vendor/renesas/rz_mcu_boards/core_package/generate/os_abstraction/src\r_os_abstraction_stdio.c **** /**************************************************************************************************
   2:D:/Work/DeviceTester/amazon-freertos/lib/third_party/mcu_vendor/renesas/rz_mcu_boards/core_package/generate/os_abstraction/src\r_os_abstraction_stdio.c ****  * DISCLAIMER
   3:D:/Work/DeviceTester/amazon-freertos/lib/third_party/mcu_vendor/renesas/rz_mcu_boards/core_package/generate/os_abstraction/src\r_os_abstraction_stdio.c ****  * This software is supplied by Renesas Electronics Corporation and is only intended for use with R
   4:D:/Work/DeviceTester/amazon-freertos/lib/third_party/mcu_vendor/renesas/rz_mcu_boards/core_package/generate/os_abstraction/src\r_os_abstraction_stdio.c ****  * other uses are authorized. This software is owned by Renesas Electronics Corporation and is prot
   5:D:/Work/DeviceTester/amazon-freertos/lib/third_party/mcu_vendor/renesas/rz_mcu_boards/core_package/generate/os_abstraction/src\r_os_abstraction_stdio.c ****  * applicable laws, including copyright laws.
   6:D:/Work/DeviceTester/amazon-freertos/lib/third_party/mcu_vendor/renesas/rz_mcu_boards/core_package/generate/os_abstraction/src\r_os_abstraction_stdio.c ****  * THIS SOFTWARE IS PROVIDED "AS IS" AND RENESAS MAKES NO WARRANTIES REGARDING
   7:D:/Work/DeviceTester/amazon-freertos/lib/third_party/mcu_vendor/renesas/rz_mcu_boards/core_package/generate/os_abstraction/src\r_os_abstraction_stdio.c ****  * THIS SOFTWARE, WHETHER EXPRESS, IMPLIED OR STATUTORY, INCLUDING BUT NOT LIMITED TO WARRANTIES OF
   8:D:/Work/DeviceTester/amazon-freertos/lib/third_party/mcu_vendor/renesas/rz_mcu_boards/core_package/generate/os_abstraction/src\r_os_abstraction_stdio.c ****  * FITNESS FOR A PARTICULAR PURPOSE AND NON-INFRINGEMENT. ALL SUCH WARRANTIES ARE EXPRESSLY DISCLAI
   9:D:/Work/DeviceTester/amazon-freertos/lib/third_party/mcu_vendor/renesas/rz_mcu_boards/core_package/generate/os_abstraction/src\r_os_abstraction_stdio.c ****  * EXTENT PERMITTED NOT PROHIBITED BY LAW, NEITHER RENESAS ELECTRONICS CORPORATION NOR ANY OF ITS A
  10:D:/Work/DeviceTester/amazon-freertos/lib/third_party/mcu_vendor/renesas/rz_mcu_boards/core_package/generate/os_abstraction/src\r_os_abstraction_stdio.c ****  * SHALL BE LIABLE FOR ANY DIRECT, INDIRECT, SPECIAL, INCIDENTAL OR CONSEQUENTIAL DAMAGES FOR ANY R
  11:D:/Work/DeviceTester/amazon-freertos/lib/third_party/mcu_vendor/renesas/rz_mcu_boards/core_package/generate/os_abstraction/src\r_os_abstraction_stdio.c ****  * THIS SOFTWARE, EVEN IF RENESAS OR ITS AFFILIATES HAVE BEEN ADVISED OF THE POSSIBILITY OF SUCH DA
  12:D:/Work/DeviceTester/amazon-freertos/lib/third_party/mcu_vendor/renesas/rz_mcu_boards/core_package/generate/os_abstraction/src\r_os_abstraction_stdio.c ****  * Renesas reserves the right, without notice, to make changes to this software and to discontinue 
  13:D:/Work/DeviceTester/amazon-freertos/lib/third_party/mcu_vendor/renesas/rz_mcu_boards/core_package/generate/os_abstraction/src\r_os_abstraction_stdio.c ****  * this software. By using this software, you agree to the additional terms and conditions found by
  14:D:/Work/DeviceTester/amazon-freertos/lib/third_party/mcu_vendor/renesas/rz_mcu_boards/core_package/generate/os_abstraction/src\r_os_abstraction_stdio.c ****  * following link:
  15:D:/Work/DeviceTester/amazon-freertos/lib/third_party/mcu_vendor/renesas/rz_mcu_boards/core_package/generate/os_abstraction/src\r_os_abstraction_stdio.c ****  * http://www.renesas.com/disclaimer
  16:D:/Work/DeviceTester/amazon-freertos/lib/third_party/mcu_vendor/renesas/rz_mcu_boards/core_package/generate/os_abstraction/src\r_os_abstraction_stdio.c ****  *
  17:D:/Work/DeviceTester/amazon-freertos/lib/third_party/mcu_vendor/renesas/rz_mcu_boards/core_package/generate/os_abstraction/src\r_os_abstraction_stdio.c ****  * Copyright (C) 2019 Renesas Electronics Corporation. All rights reserved.
  18:D:/Work/DeviceTester/amazon-freertos/lib/third_party/mcu_vendor/renesas/rz_mcu_boards/core_package/generate/os_abstraction/src\r_os_abstraction_stdio.c ****  **************************************************************************************************
  19:D:/Work/DeviceTester/amazon-freertos/lib/third_party/mcu_vendor/renesas/rz_mcu_boards/core_package/generate/os_abstraction/src\r_os_abstraction_stdio.c **** 
  20:D:/Work/DeviceTester/amazon-freertos/lib/third_party/mcu_vendor/renesas/rz_mcu_boards/core_package/generate/os_abstraction/src\r_os_abstraction_stdio.c **** /**************************************************************************************************
  21:D:/Work/DeviceTester/amazon-freertos/lib/third_party/mcu_vendor/renesas/rz_mcu_boards/core_package/generate/os_abstraction/src\r_os_abstraction_stdio.c ****  * File Name    : r_os_abstraction_stdio.c
  22:D:/Work/DeviceTester/amazon-freertos/lib/third_party/mcu_vendor/renesas/rz_mcu_boards/core_package/generate/os_abstraction/src\r_os_abstraction_stdio.c ****  * Version      : see OS_LESS_RZ_HLD_VERSION_MAJOR.OS_LESS_RZ_HLD_VERSION_MINOR
  23:D:/Work/DeviceTester/amazon-freertos/lib/third_party/mcu_vendor/renesas/rz_mcu_boards/core_package/generate/os_abstraction/src\r_os_abstraction_stdio.c ****  * Description  : OS-Less OS Abstraction Layer
  24:D:/Work/DeviceTester/amazon-freertos/lib/third_party/mcu_vendor/renesas/rz_mcu_boards/core_package/generate/os_abstraction/src\r_os_abstraction_stdio.c ****  **************************************************************************************************
  25:D:/Work/DeviceTester/amazon-freertos/lib/third_party/mcu_vendor/renesas/rz_mcu_boards/core_package/generate/os_abstraction/src\r_os_abstraction_stdio.c **** 
  26:D:/Work/DeviceTester/amazon-freertos/lib/third_party/mcu_vendor/renesas/rz_mcu_boards/core_package/generate/os_abstraction/src\r_os_abstraction_stdio.c **** /**************************************************************************************************
  27:D:/Work/DeviceTester/amazon-freertos/lib/third_party/mcu_vendor/renesas/rz_mcu_boards/core_package/generate/os_abstraction/src\r_os_abstraction_stdio.c ****  * History      : DD.MM.YYYY  Description
  28:D:/Work/DeviceTester/amazon-freertos/lib/third_party/mcu_vendor/renesas/rz_mcu_boards/core_package/generate/os_abstraction/src\r_os_abstraction_stdio.c ****  *              : 21.05.2020  First issued
  29:D:/Work/DeviceTester/amazon-freertos/lib/third_party/mcu_vendor/renesas/rz_mcu_boards/core_package/generate/os_abstraction/src\r_os_abstraction_stdio.c ****  **************************************************************************************************
  30:D:/Work/DeviceTester/amazon-freertos/lib/third_party/mcu_vendor/renesas/rz_mcu_boards/core_package/generate/os_abstraction/src\r_os_abstraction_stdio.c **** 
  31:D:/Work/DeviceTester/amazon-freertos/lib/third_party/mcu_vendor/renesas/rz_mcu_boards/core_package/generate/os_abstraction/src\r_os_abstraction_stdio.c **** #include <stdio.h>
  32:D:/Work/DeviceTester/amazon-freertos/lib/third_party/mcu_vendor/renesas/rz_mcu_boards/core_package/generate/os_abstraction/src\r_os_abstraction_stdio.c **** #include <string.h>
  33:D:/Work/DeviceTester/amazon-freertos/lib/third_party/mcu_vendor/renesas/rz_mcu_boards/core_package/generate/os_abstraction/src\r_os_abstraction_stdio.c **** #include <fcntl.h>
  34:D:/Work/DeviceTester/amazon-freertos/lib/third_party/mcu_vendor/renesas/rz_mcu_boards/core_package/generate/os_abstraction/src\r_os_abstraction_stdio.c **** #include <unistd.h>
  35:D:/Work/DeviceTester/amazon-freertos/lib/third_party/mcu_vendor/renesas/rz_mcu_boards/core_package/generate/os_abstraction/src\r_os_abstraction_stdio.c **** 
  36:D:/Work/DeviceTester/amazon-freertos/lib/third_party/mcu_vendor/renesas/rz_mcu_boards/core_package/generate/os_abstraction/src\r_os_abstraction_stdio.c **** #include "r_typedefs.h"
  37:D:/Work/DeviceTester/amazon-freertos/lib/third_party/mcu_vendor/renesas/rz_mcu_boards/core_package/generate/os_abstraction/src\r_os_abstraction_stdio.c **** #include "driver.h"
  38:D:/Work/DeviceTester/amazon-freertos/lib/third_party/mcu_vendor/renesas/rz_mcu_boards/core_package/generate/os_abstraction/src\r_os_abstraction_stdio.c **** #include "r_devlink_wrapper.h"
  39:D:/Work/DeviceTester/amazon-freertos/lib/third_party/mcu_vendor/renesas/rz_mcu_boards/core_package/generate/os_abstraction/src\r_os_abstraction_stdio.c **** 
  40:D:/Work/DeviceTester/amazon-freertos/lib/third_party/mcu_vendor/renesas/rz_mcu_boards/core_package/generate/os_abstraction/src\r_os_abstraction_stdio.c **** /* compiler specific API header */
  41:D:/Work/DeviceTester/amazon-freertos/lib/third_party/mcu_vendor/renesas/rz_mcu_boards/core_package/generate/os_abstraction/src\r_os_abstraction_stdio.c **** #include "r_compiler_abstraction_api.h"
  42:D:/Work/DeviceTester/amazon-freertos/lib/third_party/mcu_vendor/renesas/rz_mcu_boards/core_package/generate/os_abstraction/src\r_os_abstraction_stdio.c **** 
  43:D:/Work/DeviceTester/amazon-freertos/lib/third_party/mcu_vendor/renesas/rz_mcu_boards/core_package/generate/os_abstraction/src\r_os_abstraction_stdio.c **** /* OS abstraction specific API header */
  44:D:/Work/DeviceTester/amazon-freertos/lib/third_party/mcu_vendor/renesas/rz_mcu_boards/core_package/generate/os_abstraction/src\r_os_abstraction_stdio.c **** #include "r_os_abstraction_api.h"
  45:D:/Work/DeviceTester/amazon-freertos/lib/third_party/mcu_vendor/renesas/rz_mcu_boards/core_package/generate/os_abstraction/src\r_os_abstraction_stdio.c **** 
  46:D:/Work/DeviceTester/amazon-freertos/lib/third_party/mcu_vendor/renesas/rz_mcu_boards/core_package/generate/os_abstraction/src\r_os_abstraction_stdio.c **** 
  47:D:/Work/DeviceTester/amazon-freertos/lib/third_party/mcu_vendor/renesas/rz_mcu_boards/core_package/generate/os_abstraction/src\r_os_abstraction_stdio.c **** /**************************************************************************************************
  48:D:/Work/DeviceTester/amazon-freertos/lib/third_party/mcu_vendor/renesas/rz_mcu_boards/core_package/generate/os_abstraction/src\r_os_abstraction_stdio.c ****  * Function Macros
  49:D:/Work/DeviceTester/amazon-freertos/lib/third_party/mcu_vendor/renesas/rz_mcu_boards/core_package/generate/os_abstraction/src\r_os_abstraction_stdio.c ****  **************************************************************************************************
  50:D:/Work/DeviceTester/amazon-freertos/lib/third_party/mcu_vendor/renesas/rz_mcu_boards/core_package/generate/os_abstraction/src\r_os_abstraction_stdio.c **** 
  51:D:/Work/DeviceTester/amazon-freertos/lib/third_party/mcu_vendor/renesas/rz_mcu_boards/core_package/generate/os_abstraction/src\r_os_abstraction_stdio.c **** /**************************************************************************************************
  52:D:/Work/DeviceTester/amazon-freertos/lib/third_party/mcu_vendor/renesas/rz_mcu_boards/core_package/generate/os_abstraction/src\r_os_abstraction_stdio.c ****  * Typedefs
  53:D:/Work/DeviceTester/amazon-freertos/lib/third_party/mcu_vendor/renesas/rz_mcu_boards/core_package/generate/os_abstraction/src\r_os_abstraction_stdio.c ****  **************************************************************************************************
  54:D:/Work/DeviceTester/amazon-freertos/lib/third_party/mcu_vendor/renesas/rz_mcu_boards/core_package/generate/os_abstraction/src\r_os_abstraction_stdio.c **** 
  55:D:/Work/DeviceTester/amazon-freertos/lib/third_party/mcu_vendor/renesas/rz_mcu_boards/core_package/generate/os_abstraction/src\r_os_abstraction_stdio.c **** 
  56:D:/Work/DeviceTester/amazon-freertos/lib/third_party/mcu_vendor/renesas/rz_mcu_boards/core_package/generate/os_abstraction/src\r_os_abstraction_stdio.c **** 
  57:D:/Work/DeviceTester/amazon-freertos/lib/third_party/mcu_vendor/renesas/rz_mcu_boards/core_package/generate/os_abstraction/src\r_os_abstraction_stdio.c **** /**************************************************************************************************
  58:D:/Work/DeviceTester/amazon-freertos/lib/third_party/mcu_vendor/renesas/rz_mcu_boards/core_package/generate/os_abstraction/src\r_os_abstraction_stdio.c ****  Function Prototypes
  59:D:/Work/DeviceTester/amazon-freertos/lib/third_party/mcu_vendor/renesas/rz_mcu_boards/core_package/generate/os_abstraction/src\r_os_abstraction_stdio.c ****  **************************************************************************************************
  60:D:/Work/DeviceTester/amazon-freertos/lib/third_party/mcu_vendor/renesas/rz_mcu_boards/core_package/generate/os_abstraction/src\r_os_abstraction_stdio.c **** /* STDIO */
  61:D:/Work/DeviceTester/amazon-freertos/lib/third_party/mcu_vendor/renesas/rz_mcu_boards/core_package/generate/os_abstraction/src\r_os_abstraction_stdio.c **** static int_t stdio_hld_open (st_stream_ptr_t p_stream);
  62:D:/Work/DeviceTester/amazon-freertos/lib/third_party/mcu_vendor/renesas/rz_mcu_boards/core_package/generate/os_abstraction/src\r_os_abstraction_stdio.c **** static void  stdio_hld_close (st_stream_ptr_t p_stream);
  63:D:/Work/DeviceTester/amazon-freertos/lib/third_party/mcu_vendor/renesas/rz_mcu_boards/core_package/generate/os_abstraction/src\r_os_abstraction_stdio.c **** static int_t stdio_hld_read (st_stream_ptr_t p_stream, uint8_t *p_buffer, uint32_t ui_count);
  64:D:/Work/DeviceTester/amazon-freertos/lib/third_party/mcu_vendor/renesas/rz_mcu_boards/core_package/generate/os_abstraction/src\r_os_abstraction_stdio.c **** static int_t stdio_hld_write (st_stream_ptr_t p_stream, const uint8_t *p_buffer, uint32_t count);
  65:D:/Work/DeviceTester/amazon-freertos/lib/third_party/mcu_vendor/renesas/rz_mcu_boards/core_package/generate/os_abstraction/src\r_os_abstraction_stdio.c **** static int_t stdio_hld_control (st_stream_ptr_t p_stream, uint32_t ctlCode, void *pCtlStruct);
  66:D:/Work/DeviceTester/amazon-freertos/lib/third_party/mcu_vendor/renesas/rz_mcu_boards/core_package/generate/os_abstraction/src\r_os_abstraction_stdio.c **** static int_t stdio_hld_get_version (st_stream_ptr_t stream_ptr, st_ver_info_t *pVerInfo);
  67:D:/Work/DeviceTester/amazon-freertos/lib/third_party/mcu_vendor/renesas/rz_mcu_boards/core_package/generate/os_abstraction/src\r_os_abstraction_stdio.c **** 
  68:D:/Work/DeviceTester/amazon-freertos/lib/third_party/mcu_vendor/renesas/rz_mcu_boards/core_package/generate/os_abstraction/src\r_os_abstraction_stdio.c **** /**************************************************************************************************
  69:D:/Work/DeviceTester/amazon-freertos/lib/third_party/mcu_vendor/renesas/rz_mcu_boards/core_package/generate/os_abstraction/src\r_os_abstraction_stdio.c ****  Constant Data
  70:D:/Work/DeviceTester/amazon-freertos/lib/third_party/mcu_vendor/renesas/rz_mcu_boards/core_package/generate/os_abstraction/src\r_os_abstraction_stdio.c ****  **************************************************************************************************
  71:D:/Work/DeviceTester/amazon-freertos/lib/third_party/mcu_vendor/renesas/rz_mcu_boards/core_package/generate/os_abstraction/src\r_os_abstraction_stdio.c **** 
  72:D:/Work/DeviceTester/amazon-freertos/lib/third_party/mcu_vendor/renesas/rz_mcu_boards/core_package/generate/os_abstraction/src\r_os_abstraction_stdio.c **** /* Define the driver function table for this implementation */
  73:D:/Work/DeviceTester/amazon-freertos/lib/third_party/mcu_vendor/renesas/rz_mcu_boards/core_package/generate/os_abstraction/src\r_os_abstraction_stdio.c **** /* This is an empty driver. This driver is used to reserve a file handle. */
  74:D:/Work/DeviceTester/amazon-freertos/lib/third_party/mcu_vendor/renesas/rz_mcu_boards/core_package/generate/os_abstraction/src\r_os_abstraction_stdio.c **** const st_r_driver_t g_stdio_driver =
  75:D:/Work/DeviceTester/amazon-freertos/lib/third_party/mcu_vendor/renesas/rz_mcu_boards/core_package/generate/os_abstraction/src\r_os_abstraction_stdio.c **** {"STDIO Device Driver", stdio_hld_open, stdio_hld_close, stdio_hld_read, stdio_hld_write, stdio_hld
  76:D:/Work/DeviceTester/amazon-freertos/lib/third_party/mcu_vendor/renesas/rz_mcu_boards/core_package/generate/os_abstraction/src\r_os_abstraction_stdio.c **** 
  77:D:/Work/DeviceTester/amazon-freertos/lib/third_party/mcu_vendor/renesas/rz_mcu_boards/core_package/generate/os_abstraction/src\r_os_abstraction_stdio.c **** 
  78:D:/Work/DeviceTester/amazon-freertos/lib/third_party/mcu_vendor/renesas/rz_mcu_boards/core_package/generate/os_abstraction/src\r_os_abstraction_stdio.c **** /**************************************************************************************************
  79:D:/Work/DeviceTester/amazon-freertos/lib/third_party/mcu_vendor/renesas/rz_mcu_boards/core_package/generate/os_abstraction/src\r_os_abstraction_stdio.c ****  Global Data
  80:D:/Work/DeviceTester/amazon-freertos/lib/third_party/mcu_vendor/renesas/rz_mcu_boards/core_package/generate/os_abstraction/src\r_os_abstraction_stdio.c ****  **************************************************************************************************
  81:D:/Work/DeviceTester/amazon-freertos/lib/third_party/mcu_vendor/renesas/rz_mcu_boards/core_package/generate/os_abstraction/src\r_os_abstraction_stdio.c **** 
  82:D:/Work/DeviceTester/amazon-freertos/lib/third_party/mcu_vendor/renesas/rz_mcu_boards/core_package/generate/os_abstraction/src\r_os_abstraction_stdio.c **** /**************************************************************************************************
  83:D:/Work/DeviceTester/amazon-freertos/lib/third_party/mcu_vendor/renesas/rz_mcu_boards/core_package/generate/os_abstraction/src\r_os_abstraction_stdio.c ****  Private Functions
  84:D:/Work/DeviceTester/amazon-freertos/lib/third_party/mcu_vendor/renesas/rz_mcu_boards/core_package/generate/os_abstraction/src\r_os_abstraction_stdio.c ****  **************************************************************************************************
  85:D:/Work/DeviceTester/amazon-freertos/lib/third_party/mcu_vendor/renesas/rz_mcu_boards/core_package/generate/os_abstraction/src\r_os_abstraction_stdio.c **** 
  86:D:/Work/DeviceTester/amazon-freertos/lib/third_party/mcu_vendor/renesas/rz_mcu_boards/core_package/generate/os_abstraction/src\r_os_abstraction_stdio.c **** /**
  87:D:/Work/DeviceTester/amazon-freertos/lib/third_party/mcu_vendor/renesas/rz_mcu_boards/core_package/generate/os_abstraction/src\r_os_abstraction_stdio.c ****  * @brief  Opens the STDIO device driver
  88:D:/Work/DeviceTester/amazon-freertos/lib/third_party/mcu_vendor/renesas/rz_mcu_boards/core_package/generate/os_abstraction/src\r_os_abstraction_stdio.c ****  * 
  89:D:/Work/DeviceTester/amazon-freertos/lib/third_party/mcu_vendor/renesas/rz_mcu_boards/core_package/generate/os_abstraction/src\r_os_abstraction_stdio.c ****  * This function allows for a channel to be ready for
  90:D:/Work/DeviceTester/amazon-freertos/lib/third_party/mcu_vendor/renesas/rz_mcu_boards/core_package/generate/os_abstraction/src\r_os_abstraction_stdio.c ****  * operational use. If a channel is unavailable or a
  91:D:/Work/DeviceTester/amazon-freertos/lib/third_party/mcu_vendor/renesas/rz_mcu_boards/core_package/generate/os_abstraction/src\r_os_abstraction_stdio.c ****  * channel is already opened this function will return
  92:D:/Work/DeviceTester/amazon-freertos/lib/third_party/mcu_vendor/renesas/rz_mcu_boards/core_package/generate/os_abstraction/src\r_os_abstraction_stdio.c ****  * a fail (-1)
  93:D:/Work/DeviceTester/amazon-freertos/lib/third_party/mcu_vendor/renesas/rz_mcu_boards/core_package/generate/os_abstraction/src\r_os_abstraction_stdio.c ****  *
  94:D:/Work/DeviceTester/amazon-freertos/lib/third_party/mcu_vendor/renesas/rz_mcu_boards/core_package/generate/os_abstraction/src\r_os_abstraction_stdio.c ****  * @param[in] p_stream Pointer to the file stream
  95:D:/Work/DeviceTester/amazon-freertos/lib/third_party/mcu_vendor/renesas/rz_mcu_boards/core_package/generate/os_abstraction/src\r_os_abstraction_stdio.c ****  * 
  96:D:/Work/DeviceTester/amazon-freertos/lib/third_party/mcu_vendor/renesas/rz_mcu_boards/core_package/generate/os_abstraction/src\r_os_abstraction_stdio.c ****  * @retval 0  DRV_SUCCESS
  97:D:/Work/DeviceTester/amazon-freertos/lib/third_party/mcu_vendor/renesas/rz_mcu_boards/core_package/generate/os_abstraction/src\r_os_abstraction_stdio.c ****  * @retval -1 DRV_ERROR 
  98:D:/Work/DeviceTester/amazon-freertos/lib/third_party/mcu_vendor/renesas/rz_mcu_boards/core_package/generate/os_abstraction/src\r_os_abstraction_stdio.c ****  **/
  99:D:/Work/DeviceTester/amazon-freertos/lib/third_party/mcu_vendor/renesas/rz_mcu_boards/core_package/generate/os_abstraction/src\r_os_abstraction_stdio.c **** static int_t stdio_hld_open (st_stream_ptr_t p_stream)
 100:D:/Work/DeviceTester/amazon-freertos/lib/third_party/mcu_vendor/renesas/rz_mcu_boards/core_package/generate/os_abstraction/src\r_os_abstraction_stdio.c **** {
  25              		.loc 1 100 0
  26              		.cfi_startproc
  27              		@ args = 0, pretend = 0, frame = 0
  28              		@ frame_needed = 0, uses_anonymous_args = 0
  29              		@ link register save eliminated.
  30              	.LVL0:
 101:D:/Work/DeviceTester/amazon-freertos/lib/third_party/mcu_vendor/renesas/rz_mcu_boards/core_package/generate/os_abstraction/src\r_os_abstraction_stdio.c ****     int_t ret = DRV_SUCCESS;
 102:D:/Work/DeviceTester/amazon-freertos/lib/third_party/mcu_vendor/renesas/rz_mcu_boards/core_package/generate/os_abstraction/src\r_os_abstraction_stdio.c **** 
 103:D:/Work/DeviceTester/amazon-freertos/lib/third_party/mcu_vendor/renesas/rz_mcu_boards/core_package/generate/os_abstraction/src\r_os_abstraction_stdio.c ****     return (ret);
 104:D:/Work/DeviceTester/amazon-freertos/lib/third_party/mcu_vendor/renesas/rz_mcu_boards/core_package/generate/os_abstraction/src\r_os_abstraction_stdio.c **** }
  31              		.loc 1 104 0
  32 0000 0000A0E3 		mov	r0, #0
  33              	.LVL1:
  34 0004 1EFF2FE1 		bx	lr
  35              		.cfi_endproc
  36              	.LFE4:
  38              		.section	.text.stdio_hld_close,"ax",%progbits
  39              		.align	2
  40              		.syntax unified
  41              		.arm
  42              		.fpu neon
  44              	stdio_hld_close:
  45              	.LFB5:
 105:D:/Work/DeviceTester/amazon-freertos/lib/third_party/mcu_vendor/renesas/rz_mcu_boards/core_package/generate/os_abstraction/src\r_os_abstraction_stdio.c **** /**************************************************************************************************
 106:D:/Work/DeviceTester/amazon-freertos/lib/third_party/mcu_vendor/renesas/rz_mcu_boards/core_package/generate/os_abstraction/src\r_os_abstraction_stdio.c ****  * End of Function stdio_hld_open
 107:D:/Work/DeviceTester/amazon-freertos/lib/third_party/mcu_vendor/renesas/rz_mcu_boards/core_package/generate/os_abstraction/src\r_os_abstraction_stdio.c ****  **************************************************************************************************
 108:D:/Work/DeviceTester/amazon-freertos/lib/third_party/mcu_vendor/renesas/rz_mcu_boards/core_package/generate/os_abstraction/src\r_os_abstraction_stdio.c **** 
 109:D:/Work/DeviceTester/amazon-freertos/lib/third_party/mcu_vendor/renesas/rz_mcu_boards/core_package/generate/os_abstraction/src\r_os_abstraction_stdio.c **** /**
 110:D:/Work/DeviceTester/amazon-freertos/lib/third_party/mcu_vendor/renesas/rz_mcu_boards/core_package/generate/os_abstraction/src\r_os_abstraction_stdio.c ****  * @brief Closes the STDIO driver
 111:D:/Work/DeviceTester/amazon-freertos/lib/third_party/mcu_vendor/renesas/rz_mcu_boards/core_package/generate/os_abstraction/src\r_os_abstraction_stdio.c ****  *
 112:D:/Work/DeviceTester/amazon-freertos/lib/third_party/mcu_vendor/renesas/rz_mcu_boards/core_package/generate/os_abstraction/src\r_os_abstraction_stdio.c ****  * The STDIO driver's file stream can be closed once
 113:D:/Work/DeviceTester/amazon-freertos/lib/third_party/mcu_vendor/renesas/rz_mcu_boards/core_package/generate/os_abstraction/src\r_os_abstraction_stdio.c ****  * the desired operation has been done, freeing any
 114:D:/Work/DeviceTester/amazon-freertos/lib/third_party/mcu_vendor/renesas/rz_mcu_boards/core_package/generate/os_abstraction/src\r_os_abstraction_stdio.c ****  * memory or resources it uses
 115:D:/Work/DeviceTester/amazon-freertos/lib/third_party/mcu_vendor/renesas/rz_mcu_boards/core_package/generate/os_abstraction/src\r_os_abstraction_stdio.c ****  * 
 116:D:/Work/DeviceTester/amazon-freertos/lib/third_party/mcu_vendor/renesas/rz_mcu_boards/core_package/generate/os_abstraction/src\r_os_abstraction_stdio.c ****  * @param[in] p_stream Pointer to the file stream
 117:D:/Work/DeviceTester/amazon-freertos/lib/third_party/mcu_vendor/renesas/rz_mcu_boards/core_package/generate/os_abstraction/src\r_os_abstraction_stdio.c ****  *
 118:D:/Work/DeviceTester/amazon-freertos/lib/third_party/mcu_vendor/renesas/rz_mcu_boards/core_package/generate/os_abstraction/src\r_os_abstraction_stdio.c ****  * @return None
 119:D:/Work/DeviceTester/amazon-freertos/lib/third_party/mcu_vendor/renesas/rz_mcu_boards/core_package/generate/os_abstraction/src\r_os_abstraction_stdio.c ****  */
 120:D:/Work/DeviceTester/amazon-freertos/lib/third_party/mcu_vendor/renesas/rz_mcu_boards/core_package/generate/os_abstraction/src\r_os_abstraction_stdio.c **** static void stdio_hld_close (st_stream_ptr_t p_stream)
 121:D:/Work/DeviceTester/amazon-freertos/lib/third_party/mcu_vendor/renesas/rz_mcu_boards/core_package/generate/os_abstraction/src\r_os_abstraction_stdio.c **** {
  46              		.loc 1 121 0
  47              		.cfi_startproc
  48              		@ args = 0, pretend = 0, frame = 0
  49              		@ frame_needed = 0, uses_anonymous_args = 0
  50              		@ link register save eliminated.
  51              	.LVL2:
  52 0000 1EFF2FE1 		bx	lr
  53              		.cfi_endproc
  54              	.LFE5:
  56              		.section	.text.stdio_hld_write,"ax",%progbits
  57              		.align	2
  58              		.syntax unified
  59              		.arm
  60              		.fpu neon
  62              	stdio_hld_write:
  63              	.LFB7:
 122:D:/Work/DeviceTester/amazon-freertos/lib/third_party/mcu_vendor/renesas/rz_mcu_boards/core_package/generate/os_abstraction/src\r_os_abstraction_stdio.c ****     return;
 123:D:/Work/DeviceTester/amazon-freertos/lib/third_party/mcu_vendor/renesas/rz_mcu_boards/core_package/generate/os_abstraction/src\r_os_abstraction_stdio.c **** }
 124:D:/Work/DeviceTester/amazon-freertos/lib/third_party/mcu_vendor/renesas/rz_mcu_boards/core_package/generate/os_abstraction/src\r_os_abstraction_stdio.c **** /**************************************************************************************************
 125:D:/Work/DeviceTester/amazon-freertos/lib/third_party/mcu_vendor/renesas/rz_mcu_boards/core_package/generate/os_abstraction/src\r_os_abstraction_stdio.c ****  * End of Function stdio_hld_close
 126:D:/Work/DeviceTester/amazon-freertos/lib/third_party/mcu_vendor/renesas/rz_mcu_boards/core_package/generate/os_abstraction/src\r_os_abstraction_stdio.c ****  **************************************************************************************************
 127:D:/Work/DeviceTester/amazon-freertos/lib/third_party/mcu_vendor/renesas/rz_mcu_boards/core_package/generate/os_abstraction/src\r_os_abstraction_stdio.c **** 
 128:D:/Work/DeviceTester/amazon-freertos/lib/third_party/mcu_vendor/renesas/rz_mcu_boards/core_package/generate/os_abstraction/src\r_os_abstraction_stdio.c **** /**
 129:D:/Work/DeviceTester/amazon-freertos/lib/third_party/mcu_vendor/renesas/rz_mcu_boards/core_package/generate/os_abstraction/src\r_os_abstraction_stdio.c ****  * @brief Translates the read operation to the private read function.
 130:D:/Work/DeviceTester/amazon-freertos/lib/third_party/mcu_vendor/renesas/rz_mcu_boards/core_package/generate/os_abstraction/src\r_os_abstraction_stdio.c ****  *
 131:D:/Work/DeviceTester/amazon-freertos/lib/third_party/mcu_vendor/renesas/rz_mcu_boards/core_package/generate/os_abstraction/src\r_os_abstraction_stdio.c ****  * The private read function requires to get the channel instead of the
 132:D:/Work/DeviceTester/amazon-freertos/lib/third_party/mcu_vendor/renesas/rz_mcu_boards/core_package/generate/os_abstraction/src\r_os_abstraction_stdio.c ****  * file stream and therefore some translation is required.
 133:D:/Work/DeviceTester/amazon-freertos/lib/third_party/mcu_vendor/renesas/rz_mcu_boards/core_package/generate/os_abstraction/src\r_os_abstraction_stdio.c ****  *
 134:D:/Work/DeviceTester/amazon-freertos/lib/third_party/mcu_vendor/renesas/rz_mcu_boards/core_package/generate/os_abstraction/src\r_os_abstraction_stdio.c ****  * @param[in]  p_stream The file stream that contains the desired STDIO channel
 135:D:/Work/DeviceTester/amazon-freertos/lib/third_party/mcu_vendor/renesas/rz_mcu_boards/core_package/generate/os_abstraction/src\r_os_abstraction_stdio.c ****  * @param[out] p_buffer The buffer to be populated with the data read
 136:D:/Work/DeviceTester/amazon-freertos/lib/third_party/mcu_vendor/renesas/rz_mcu_boards/core_package/generate/os_abstraction/src\r_os_abstraction_stdio.c ****  * @param[in]  count    The size of p_buffer
 137:D:/Work/DeviceTester/amazon-freertos/lib/third_party/mcu_vendor/renesas/rz_mcu_boards/core_package/generate/os_abstraction/src\r_os_abstraction_stdio.c ****  *
 138:D:/Work/DeviceTester/amazon-freertos/lib/third_party/mcu_vendor/renesas/rz_mcu_boards/core_package/generate/os_abstraction/src\r_os_abstraction_stdio.c ****  * @retval  N Where N is the number of bytes read
 139:D:/Work/DeviceTester/amazon-freertos/lib/third_party/mcu_vendor/renesas/rz_mcu_boards/core_package/generate/os_abstraction/src\r_os_abstraction_stdio.c ****  * @retval -1 DRV_ERROR 
 140:D:/Work/DeviceTester/amazon-freertos/lib/third_party/mcu_vendor/renesas/rz_mcu_boards/core_package/generate/os_abstraction/src\r_os_abstraction_stdio.c ****  */
 141:D:/Work/DeviceTester/amazon-freertos/lib/third_party/mcu_vendor/renesas/rz_mcu_boards/core_package/generate/os_abstraction/src\r_os_abstraction_stdio.c **** static int_t stdio_hld_read (st_stream_ptr_t p_stream, uint8_t *p_buffer, uint32_t count)
 142:D:/Work/DeviceTester/amazon-freertos/lib/third_party/mcu_vendor/renesas/rz_mcu_boards/core_package/generate/os_abstraction/src\r_os_abstraction_stdio.c **** {
 143:D:/Work/DeviceTester/amazon-freertos/lib/third_party/mcu_vendor/renesas/rz_mcu_boards/core_package/generate/os_abstraction/src\r_os_abstraction_stdio.c ****     /* read from channel */
 144:D:/Work/DeviceTester/amazon-freertos/lib/third_party/mcu_vendor/renesas/rz_mcu_boards/core_package/generate/os_abstraction/src\r_os_abstraction_stdio.c ****     return (0);
 145:D:/Work/DeviceTester/amazon-freertos/lib/third_party/mcu_vendor/renesas/rz_mcu_boards/core_package/generate/os_abstraction/src\r_os_abstraction_stdio.c **** }
 146:D:/Work/DeviceTester/amazon-freertos/lib/third_party/mcu_vendor/renesas/rz_mcu_boards/core_package/generate/os_abstraction/src\r_os_abstraction_stdio.c **** /**************************************************************************************************
 147:D:/Work/DeviceTester/amazon-freertos/lib/third_party/mcu_vendor/renesas/rz_mcu_boards/core_package/generate/os_abstraction/src\r_os_abstraction_stdio.c ****  * End of Function stdio_hld_read
 148:D:/Work/DeviceTester/amazon-freertos/lib/third_party/mcu_vendor/renesas/rz_mcu_boards/core_package/generate/os_abstraction/src\r_os_abstraction_stdio.c ****  **************************************************************************************************
 149:D:/Work/DeviceTester/amazon-freertos/lib/third_party/mcu_vendor/renesas/rz_mcu_boards/core_package/generate/os_abstraction/src\r_os_abstraction_stdio.c **** 
 150:D:/Work/DeviceTester/amazon-freertos/lib/third_party/mcu_vendor/renesas/rz_mcu_boards/core_package/generate/os_abstraction/src\r_os_abstraction_stdio.c **** /**
 151:D:/Work/DeviceTester/amazon-freertos/lib/third_party/mcu_vendor/renesas/rz_mcu_boards/core_package/generate/os_abstraction/src\r_os_abstraction_stdio.c ****  * @brief Translates the write operation to the private write function
 152:D:/Work/DeviceTester/amazon-freertos/lib/third_party/mcu_vendor/renesas/rz_mcu_boards/core_package/generate/os_abstraction/src\r_os_abstraction_stdio.c ****  *
 153:D:/Work/DeviceTester/amazon-freertos/lib/third_party/mcu_vendor/renesas/rz_mcu_boards/core_package/generate/os_abstraction/src\r_os_abstraction_stdio.c ****  * The private write function requires to get the channel instead of the
 154:D:/Work/DeviceTester/amazon-freertos/lib/third_party/mcu_vendor/renesas/rz_mcu_boards/core_package/generate/os_abstraction/src\r_os_abstraction_stdio.c ****  * file stream and therefore some translation is required
 155:D:/Work/DeviceTester/amazon-freertos/lib/third_party/mcu_vendor/renesas/rz_mcu_boards/core_package/generate/os_abstraction/src\r_os_abstraction_stdio.c ****  *
 156:D:/Work/DeviceTester/amazon-freertos/lib/third_party/mcu_vendor/renesas/rz_mcu_boards/core_package/generate/os_abstraction/src\r_os_abstraction_stdio.c ****  * @param[in] p_stream The file stream that contains the desired STDIO channel
 157:D:/Work/DeviceTester/amazon-freertos/lib/third_party/mcu_vendor/renesas/rz_mcu_boards/core_package/generate/os_abstraction/src\r_os_abstraction_stdio.c ****  * @param[in] p_buffer The intended buffer of data intended to be written
 158:D:/Work/DeviceTester/amazon-freertos/lib/third_party/mcu_vendor/renesas/rz_mcu_boards/core_package/generate/os_abstraction/src\r_os_abstraction_stdio.c ****  * @param[in] count    The amount of data in the p_buffer
 159:D:/Work/DeviceTester/amazon-freertos/lib/third_party/mcu_vendor/renesas/rz_mcu_boards/core_package/generate/os_abstraction/src\r_os_abstraction_stdio.c ****  *
 160:D:/Work/DeviceTester/amazon-freertos/lib/third_party/mcu_vendor/renesas/rz_mcu_boards/core_package/generate/os_abstraction/src\r_os_abstraction_stdio.c ****  * @retval >0 The number of bytes written
 161:D:/Work/DeviceTester/amazon-freertos/lib/third_party/mcu_vendor/renesas/rz_mcu_boards/core_package/generate/os_abstraction/src\r_os_abstraction_stdio.c ****  * @retval -1 DRV_ERROR 
 162:D:/Work/DeviceTester/amazon-freertos/lib/third_party/mcu_vendor/renesas/rz_mcu_boards/core_package/generate/os_abstraction/src\r_os_abstraction_stdio.c ****  */
 163:D:/Work/DeviceTester/amazon-freertos/lib/third_party/mcu_vendor/renesas/rz_mcu_boards/core_package/generate/os_abstraction/src\r_os_abstraction_stdio.c **** static int_t stdio_hld_write (st_stream_ptr_t p_stream, const uint8_t *p_buffer, uint32_t count)
 164:D:/Work/DeviceTester/amazon-freertos/lib/third_party/mcu_vendor/renesas/rz_mcu_boards/core_package/generate/os_abstraction/src\r_os_abstraction_stdio.c **** {
  64              		.loc 1 164 0
  65              		.cfi_startproc
  66              		@ args = 0, pretend = 0, frame = 0
  67              		@ frame_needed = 0, uses_anonymous_args = 0
  68              		@ link register save eliminated.
  69              	.LVL3:
 165:D:/Work/DeviceTester/amazon-freertos/lib/third_party/mcu_vendor/renesas/rz_mcu_boards/core_package/generate/os_abstraction/src\r_os_abstraction_stdio.c ****     /* write to channel */
 166:D:/Work/DeviceTester/amazon-freertos/lib/third_party/mcu_vendor/renesas/rz_mcu_boards/core_package/generate/os_abstraction/src\r_os_abstraction_stdio.c ****     return (0);
 167:D:/Work/DeviceTester/amazon-freertos/lib/third_party/mcu_vendor/renesas/rz_mcu_boards/core_package/generate/os_abstraction/src\r_os_abstraction_stdio.c **** }
  70              		.loc 1 167 0
  71 0000 0000A0E3 		mov	r0, #0
  72              	.LVL4:
  73 0004 1EFF2FE1 		bx	lr
  74              		.cfi_endproc
  75              	.LFE7:
  77              		.section	.text.stdio_hld_control,"ax",%progbits
  78              		.align	2
  79              		.syntax unified
  80              		.arm
  81              		.fpu neon
  83              	stdio_hld_control:
  84              	.LFB8:
 168:D:/Work/DeviceTester/amazon-freertos/lib/third_party/mcu_vendor/renesas/rz_mcu_boards/core_package/generate/os_abstraction/src\r_os_abstraction_stdio.c **** /**************************************************************************************************
 169:D:/Work/DeviceTester/amazon-freertos/lib/third_party/mcu_vendor/renesas/rz_mcu_boards/core_package/generate/os_abstraction/src\r_os_abstraction_stdio.c ****  * End of Function stdio_hld_write
 170:D:/Work/DeviceTester/amazon-freertos/lib/third_party/mcu_vendor/renesas/rz_mcu_boards/core_package/generate/os_abstraction/src\r_os_abstraction_stdio.c ****  **************************************************************************************************
 171:D:/Work/DeviceTester/amazon-freertos/lib/third_party/mcu_vendor/renesas/rz_mcu_boards/core_package/generate/os_abstraction/src\r_os_abstraction_stdio.c **** 
 172:D:/Work/DeviceTester/amazon-freertos/lib/third_party/mcu_vendor/renesas/rz_mcu_boards/core_package/generate/os_abstraction/src\r_os_abstraction_stdio.c **** /**
 173:D:/Work/DeviceTester/amazon-freertos/lib/third_party/mcu_vendor/renesas/rz_mcu_boards/core_package/generate/os_abstraction/src\r_os_abstraction_stdio.c ****  * @brief stdio_hld_control handles custom controls for the STDIO device driver
 174:D:/Work/DeviceTester/amazon-freertos/lib/third_party/mcu_vendor/renesas/rz_mcu_boards/core_package/generate/os_abstraction/src\r_os_abstraction_stdio.c ****  * 
 175:D:/Work/DeviceTester/amazon-freertos/lib/third_party/mcu_vendor/renesas/rz_mcu_boards/core_package/generate/os_abstraction/src\r_os_abstraction_stdio.c ****  * Depending on the ctl_code given the control function will perform specific
 176:D:/Work/DeviceTester/amazon-freertos/lib/third_party/mcu_vendor/renesas/rz_mcu_boards/core_package/generate/os_abstraction/src\r_os_abstraction_stdio.c ****  * tasks. For the STDIO this includes getting and setting the configuration.
 177:D:/Work/DeviceTester/amazon-freertos/lib/third_party/mcu_vendor/renesas/rz_mcu_boards/core_package/generate/os_abstraction/src\r_os_abstraction_stdio.c ****  * If a invalid ctl_code is given the return value will be -1 and the trace will
 178:D:/Work/DeviceTester/amazon-freertos/lib/third_party/mcu_vendor/renesas/rz_mcu_boards/core_package/generate/os_abstraction/src\r_os_abstraction_stdio.c ****  * print a message accordingly.
 179:D:/Work/DeviceTester/amazon-freertos/lib/third_party/mcu_vendor/renesas/rz_mcu_boards/core_package/generate/os_abstraction/src\r_os_abstraction_stdio.c ****  *
 180:D:/Work/DeviceTester/amazon-freertos/lib/third_party/mcu_vendor/renesas/rz_mcu_boards/core_package/generate/os_abstraction/src\r_os_abstraction_stdio.c ****  * @param[in] p_stream          Pointer to the file stream
 181:D:/Work/DeviceTester/amazon-freertos/lib/third_party/mcu_vendor/renesas/rz_mcu_boards/core_package/generate/os_abstraction/src\r_os_abstraction_stdio.c ****  * @param[in] ctl_code          The custom control code
 182:D:/Work/DeviceTester/amazon-freertos/lib/third_party/mcu_vendor/renesas/rz_mcu_boards/core_package/generate/os_abstraction/src\r_os_abstraction_stdio.c ****  * @param[in,out] p_ctl_struct  Pointer to the custom control structure
 183:D:/Work/DeviceTester/amazon-freertos/lib/third_party/mcu_vendor/renesas/rz_mcu_boards/core_package/generate/os_abstraction/src\r_os_abstraction_stdio.c ****  *
 184:D:/Work/DeviceTester/amazon-freertos/lib/third_party/mcu_vendor/renesas/rz_mcu_boards/core_package/generate/os_abstraction/src\r_os_abstraction_stdio.c ****  * @retval 0  DRV_SUCCESS
 185:D:/Work/DeviceTester/amazon-freertos/lib/third_party/mcu_vendor/renesas/rz_mcu_boards/core_package/generate/os_abstraction/src\r_os_abstraction_stdio.c ****  * @retval -1 DRV_ERROR 
 186:D:/Work/DeviceTester/amazon-freertos/lib/third_party/mcu_vendor/renesas/rz_mcu_boards/core_package/generate/os_abstraction/src\r_os_abstraction_stdio.c ****  */
 187:D:/Work/DeviceTester/amazon-freertos/lib/third_party/mcu_vendor/renesas/rz_mcu_boards/core_package/generate/os_abstraction/src\r_os_abstraction_stdio.c **** static int_t stdio_hld_control (st_stream_ptr_t p_stream, uint32_t ctl_code, void *p_ctl_struct)
 188:D:/Work/DeviceTester/amazon-freertos/lib/third_party/mcu_vendor/renesas/rz_mcu_boards/core_package/generate/os_abstraction/src\r_os_abstraction_stdio.c **** {
  85              		.loc 1 188 0
  86              		.cfi_startproc
  87              		@ args = 0, pretend = 0, frame = 0
  88              		@ frame_needed = 0, uses_anonymous_args = 0
  89              		@ link register save eliminated.
  90              	.LVL5:
 189:D:/Work/DeviceTester/amazon-freertos/lib/third_party/mcu_vendor/renesas/rz_mcu_boards/core_package/generate/os_abstraction/src\r_os_abstraction_stdio.c ****     int_t ret = DRV_SUCCESS;
 190:D:/Work/DeviceTester/amazon-freertos/lib/third_party/mcu_vendor/renesas/rz_mcu_boards/core_package/generate/os_abstraction/src\r_os_abstraction_stdio.c **** 
 191:D:/Work/DeviceTester/amazon-freertos/lib/third_party/mcu_vendor/renesas/rz_mcu_boards/core_package/generate/os_abstraction/src\r_os_abstraction_stdio.c **** 
 192:D:/Work/DeviceTester/amazon-freertos/lib/third_party/mcu_vendor/renesas/rz_mcu_boards/core_package/generate/os_abstraction/src\r_os_abstraction_stdio.c ****     return (ret);
 193:D:/Work/DeviceTester/amazon-freertos/lib/third_party/mcu_vendor/renesas/rz_mcu_boards/core_package/generate/os_abstraction/src\r_os_abstraction_stdio.c **** }
  91              		.loc 1 193 0
  92 0000 0000A0E3 		mov	r0, #0
  93              	.LVL6:
  94 0004 1EFF2FE1 		bx	lr
  95              		.cfi_endproc
  96              	.LFE8:
  98              		.section	.text.stdio_hld_get_version,"ax",%progbits
  99              		.align	2
 100              		.syntax unified
 101              		.arm
 102              		.fpu neon
 104              	stdio_hld_get_version:
 105              	.LFB9:
 194:D:/Work/DeviceTester/amazon-freertos/lib/third_party/mcu_vendor/renesas/rz_mcu_boards/core_package/generate/os_abstraction/src\r_os_abstraction_stdio.c **** /**************************************************************************************************
 195:D:/Work/DeviceTester/amazon-freertos/lib/third_party/mcu_vendor/renesas/rz_mcu_boards/core_package/generate/os_abstraction/src\r_os_abstraction_stdio.c ****  * End of Function stdio_hld_control()
 196:D:/Work/DeviceTester/amazon-freertos/lib/third_party/mcu_vendor/renesas/rz_mcu_boards/core_package/generate/os_abstraction/src\r_os_abstraction_stdio.c ****  **************************************************************************************************
 197:D:/Work/DeviceTester/amazon-freertos/lib/third_party/mcu_vendor/renesas/rz_mcu_boards/core_package/generate/os_abstraction/src\r_os_abstraction_stdio.c **** 
 198:D:/Work/DeviceTester/amazon-freertos/lib/third_party/mcu_vendor/renesas/rz_mcu_boards/core_package/generate/os_abstraction/src\r_os_abstraction_stdio.c **** /**
 199:D:/Work/DeviceTester/amazon-freertos/lib/third_party/mcu_vendor/renesas/rz_mcu_boards/core_package/generate/os_abstraction/src\r_os_abstraction_stdio.c ****  * @brief Provides build information even if driver fails to open\n
 200:D:/Work/DeviceTester/amazon-freertos/lib/third_party/mcu_vendor/renesas/rz_mcu_boards/core_package/generate/os_abstraction/src\r_os_abstraction_stdio.c ****  *        version information is updated by developer
 201:D:/Work/DeviceTester/amazon-freertos/lib/third_party/mcu_vendor/renesas/rz_mcu_boards/core_package/generate/os_abstraction/src\r_os_abstraction_stdio.c ****  * 
 202:D:/Work/DeviceTester/amazon-freertos/lib/third_party/mcu_vendor/renesas/rz_mcu_boards/core_package/generate/os_abstraction/src\r_os_abstraction_stdio.c ****  * Acquires the version information for both the high layer and
 203:D:/Work/DeviceTester/amazon-freertos/lib/third_party/mcu_vendor/renesas/rz_mcu_boards/core_package/generate/os_abstraction/src\r_os_abstraction_stdio.c ****  * low layer driver. This allows for control of releases and debugging
 204:D:/Work/DeviceTester/amazon-freertos/lib/third_party/mcu_vendor/renesas/rz_mcu_boards/core_package/generate/os_abstraction/src\r_os_abstraction_stdio.c ****  * code.
 205:D:/Work/DeviceTester/amazon-freertos/lib/third_party/mcu_vendor/renesas/rz_mcu_boards/core_package/generate/os_abstraction/src\r_os_abstraction_stdio.c ****  *
 206:D:/Work/DeviceTester/amazon-freertos/lib/third_party/mcu_vendor/renesas/rz_mcu_boards/core_package/generate/os_abstraction/src\r_os_abstraction_stdio.c ****  * @param stream_ptr  Pointer to the file stream
 207:D:/Work/DeviceTester/amazon-freertos/lib/third_party/mcu_vendor/renesas/rz_mcu_boards/core_package/generate/os_abstraction/src\r_os_abstraction_stdio.c ****  * @param p_ver_info  Structure holding the version information
 208:D:/Work/DeviceTester/amazon-freertos/lib/third_party/mcu_vendor/renesas/rz_mcu_boards/core_package/generate/os_abstraction/src\r_os_abstraction_stdio.c ****  *
 209:D:/Work/DeviceTester/amazon-freertos/lib/third_party/mcu_vendor/renesas/rz_mcu_boards/core_package/generate/os_abstraction/src\r_os_abstraction_stdio.c ****  * @retval 0  DRV_SUCCESS (Never Fails)
 210:D:/Work/DeviceTester/amazon-freertos/lib/third_party/mcu_vendor/renesas/rz_mcu_boards/core_package/generate/os_abstraction/src\r_os_abstraction_stdio.c ****  */
 211:D:/Work/DeviceTester/amazon-freertos/lib/third_party/mcu_vendor/renesas/rz_mcu_boards/core_package/generate/os_abstraction/src\r_os_abstraction_stdio.c **** static int_t stdio_hld_get_version (st_stream_ptr_t stream_ptr, st_ver_info_t *p_ver_info)
 212:D:/Work/DeviceTester/amazon-freertos/lib/third_party/mcu_vendor/renesas/rz_mcu_boards/core_package/generate/os_abstraction/src\r_os_abstraction_stdio.c **** {
 106              		.loc 1 212 0
 107              		.cfi_startproc
 108              		@ args = 0, pretend = 0, frame = 0
 109              		@ frame_needed = 0, uses_anonymous_args = 0
 110              		@ link register save eliminated.
 111              	.LVL7:
 213:D:/Work/DeviceTester/amazon-freertos/lib/third_party/mcu_vendor/renesas/rz_mcu_boards/core_package/generate/os_abstraction/src\r_os_abstraction_stdio.c ****     return (DRV_SUCCESS);
 214:D:/Work/DeviceTester/amazon-freertos/lib/third_party/mcu_vendor/renesas/rz_mcu_boards/core_package/generate/os_abstraction/src\r_os_abstraction_stdio.c **** }
 112              		.loc 1 214 0
 113 0000 0000A0E3 		mov	r0, #0
 114              	.LVL8:
 115 0004 1EFF2FE1 		bx	lr
 116              		.cfi_endproc
 117              	.LFE9:
 119              		.section	.text.stdio_hld_read,"ax",%progbits
 120              		.align	2
 121              		.syntax unified
 122              		.arm
 123              		.fpu neon
 125              	stdio_hld_read:
 126              	.LFB11:
 127              		.cfi_startproc
 128              		@ args = 0, pretend = 0, frame = 0
 129              		@ frame_needed = 0, uses_anonymous_args = 0
 130              		@ link register save eliminated.
 131 0000 0000A0E3 		mov	r0, #0
 132 0004 1EFF2FE1 		bx	lr
 133              		.cfi_endproc
 134              	.LFE11:
 136              		.global	g_stdio_driver
 137              		.section	.rodata.g_stdio_driver,"a",%progbits
 138              		.align	2
 141              	g_stdio_driver:
 142 0000 00000000 		.word	.LC0
 143 0004 00000000 		.word	stdio_hld_open
 144 0008 00000000 		.word	stdio_hld_close
 145 000c 00000000 		.word	stdio_hld_read
 146 0010 00000000 		.word	stdio_hld_write
 147 0014 00000000 		.word	stdio_hld_control
 148 0018 00000000 		.word	stdio_hld_get_version
 149              		.section	.rodata.str1.1,"aMS",%progbits,1
 150              	.LC0:
 151 0000 53544449 		.ascii	"STDIO Device Driver\000"
 151      4F204465 
 151      76696365 
 151      20447269 
 151      76657200 
 152              		.text
 153              	.Letext0:
 154              		.file 2 "c:\\program files (x86)\\gnu tools arm embedded\\6 2017-q2-update\\arm-none-eabi\\include
 155              		.file 3 "c:\\program files (x86)\\gnu tools arm embedded\\6 2017-q2-update\\arm-none-eabi\\include
 156              		.file 4 "c:\\program files (x86)\\gnu tools arm embedded\\6 2017-q2-update\\arm-none-eabi\\include
 157              		.file 5 "c:\\program files (x86)\\gnu tools arm embedded\\6 2017-q2-update\\lib\\gcc\\arm-none-eab
 158              		.file 6 "c:\\program files (x86)\\gnu tools arm embedded\\6 2017-q2-update\\arm-none-eabi\\include
 159              		.file 7 "c:\\program files (x86)\\gnu tools arm embedded\\6 2017-q2-update\\arm-none-eabi\\include
 160              		.file 8 "c:\\program files (x86)\\gnu tools arm embedded\\6 2017-q2-update\\arm-none-eabi\\include
 161              		.file 9 "c:\\program files (x86)\\gnu tools arm embedded\\6 2017-q2-update\\arm-none-eabi\\include
 162              		.file 10 "c:\\program files (x86)\\gnu tools arm embedded\\6 2017-q2-update\\arm-none-eabi\\includ
 163              		.file 11 "D:\\Work\\DeviceTester\\amazon-freertos\\lib\\third_party\\mcu_vendor\\renesas\\rz_mcu_b
 164              		.file 12 "D:\\Work\\DeviceTester\\amazon-freertos\\lib\\third_party\\mcu_vendor\\renesas\\rz_mcu_b
 165              		.file 13 "c:\\program files (x86)\\gnu tools arm embedded\\6 2017-q2-update\\arm-none-eabi\\includ
 166              		.file 14 "D:\\Work\\DeviceTester\\amazon-freertos\\lib\\third_party\\mcu_vendor\\renesas\\rz_mcu_b