   1              		.cpu cortex-a9
   2              		.eabi_attribute 28, 1
   3              		.eabi_attribute 20, 1
   4              		.eabi_attribute 21, 1
   5              		.eabi_attribute 23, 3
   6              		.eabi_attribute 24, 1
   7              		.eabi_attribute 25, 1
   8              		.eabi_attribute 26, 1
   9              		.eabi_attribute 30, 4
  10              		.eabi_attribute 34, 0
  11              		.eabi_attribute 18, 4
  12              		.file	"r_os_abstraction_api.c"
  13              		.text
  14              	.Ltext0:
  15              		.cfi_sections	.debug_frame
  16              		.section	.text.main_task,"ax",%progbits
  17              		.align	2
  18              		.syntax unified
  19              		.arm
  20              		.fpu neon
  22              	main_task:
  23              	.LFB5:
  24              		.file 1 "D:/Work/DeviceTester/amazon-freertos/lib/third_party/mcu_vendor/renesas/rz_mcu_boards/cor
   1:D:/Work/DeviceTester/amazon-freertos/lib/third_party/mcu_vendor/renesas/rz_mcu_boards/core_package/generate/os_abstraction/src\r_os_abstraction_api.c **** /**************************************************************************************************
   2:D:/Work/DeviceTester/amazon-freertos/lib/third_party/mcu_vendor/renesas/rz_mcu_boards/core_package/generate/os_abstraction/src\r_os_abstraction_api.c ****  * DISCLAIMER
   3:D:/Work/DeviceTester/amazon-freertos/lib/third_party/mcu_vendor/renesas/rz_mcu_boards/core_package/generate/os_abstraction/src\r_os_abstraction_api.c ****  * This software is supplied by Renesas Electronics Corporation and is only intended for use with R
   4:D:/Work/DeviceTester/amazon-freertos/lib/third_party/mcu_vendor/renesas/rz_mcu_boards/core_package/generate/os_abstraction/src\r_os_abstraction_api.c ****  * other uses are authorized. This software is owned by Renesas Electronics Corporation and is prot
   5:D:/Work/DeviceTester/amazon-freertos/lib/third_party/mcu_vendor/renesas/rz_mcu_boards/core_package/generate/os_abstraction/src\r_os_abstraction_api.c ****  * applicable laws, including copyright laws.
   6:D:/Work/DeviceTester/amazon-freertos/lib/third_party/mcu_vendor/renesas/rz_mcu_boards/core_package/generate/os_abstraction/src\r_os_abstraction_api.c ****  * THIS SOFTWARE IS PROVIDED "AS IS" AND RENESAS MAKES NO WARRANTIES REGARDING
   7:D:/Work/DeviceTester/amazon-freertos/lib/third_party/mcu_vendor/renesas/rz_mcu_boards/core_package/generate/os_abstraction/src\r_os_abstraction_api.c ****  * THIS SOFTWARE, WHETHER EXPRESS, IMPLIED OR STATUTORY, INCLUDING BUT NOT LIMITED TO WARRANTIES OF
   8:D:/Work/DeviceTester/amazon-freertos/lib/third_party/mcu_vendor/renesas/rz_mcu_boards/core_package/generate/os_abstraction/src\r_os_abstraction_api.c ****  * FITNESS FOR A PARTICULAR PURPOSE AND NON-INFRINGEMENT. ALL SUCH WARRANTIES ARE EXPRESSLY DISCLAI
   9:D:/Work/DeviceTester/amazon-freertos/lib/third_party/mcu_vendor/renesas/rz_mcu_boards/core_package/generate/os_abstraction/src\r_os_abstraction_api.c ****  * EXTENT PERMITTED NOT PROHIBITED BY LAW, NEITHER RENESAS ELECTRONICS CORPORATION NOR ANY OF ITS A
  10:D:/Work/DeviceTester/amazon-freertos/lib/third_party/mcu_vendor/renesas/rz_mcu_boards/core_package/generate/os_abstraction/src\r_os_abstraction_api.c ****  * SHALL BE LIABLE FOR ANY DIRECT, INDIRECT, SPECIAL, INCIDENTAL OR CONSEQUENTIAL DAMAGES FOR ANY R
  11:D:/Work/DeviceTester/amazon-freertos/lib/third_party/mcu_vendor/renesas/rz_mcu_boards/core_package/generate/os_abstraction/src\r_os_abstraction_api.c ****  * THIS SOFTWARE, EVEN IF RENESAS OR ITS AFFILIATES HAVE BEEN ADVISED OF THE POSSIBILITY OF SUCH DA
  12:D:/Work/DeviceTester/amazon-freertos/lib/third_party/mcu_vendor/renesas/rz_mcu_boards/core_package/generate/os_abstraction/src\r_os_abstraction_api.c ****  * Renesas reserves the right, without notice, to make changes to this software and to discontinue 
  13:D:/Work/DeviceTester/amazon-freertos/lib/third_party/mcu_vendor/renesas/rz_mcu_boards/core_package/generate/os_abstraction/src\r_os_abstraction_api.c ****  * this software. By using this software, you agree to the additional terms and conditions found by
  14:D:/Work/DeviceTester/amazon-freertos/lib/third_party/mcu_vendor/renesas/rz_mcu_boards/core_package/generate/os_abstraction/src\r_os_abstraction_api.c ****  * following link:
  15:D:/Work/DeviceTester/amazon-freertos/lib/third_party/mcu_vendor/renesas/rz_mcu_boards/core_package/generate/os_abstraction/src\r_os_abstraction_api.c ****  * http://www.renesas.com/disclaimer
  16:D:/Work/DeviceTester/amazon-freertos/lib/third_party/mcu_vendor/renesas/rz_mcu_boards/core_package/generate/os_abstraction/src\r_os_abstraction_api.c ****  *
  17:D:/Work/DeviceTester/amazon-freertos/lib/third_party/mcu_vendor/renesas/rz_mcu_boards/core_package/generate/os_abstraction/src\r_os_abstraction_api.c ****  * Copyright (C) 2019 Renesas Electronics Corporation. All rights reserved.
  18:D:/Work/DeviceTester/amazon-freertos/lib/third_party/mcu_vendor/renesas/rz_mcu_boards/core_package/generate/os_abstraction/src\r_os_abstraction_api.c ****  **************************************************************************************************
  19:D:/Work/DeviceTester/amazon-freertos/lib/third_party/mcu_vendor/renesas/rz_mcu_boards/core_package/generate/os_abstraction/src\r_os_abstraction_api.c **** 
  20:D:/Work/DeviceTester/amazon-freertos/lib/third_party/mcu_vendor/renesas/rz_mcu_boards/core_package/generate/os_abstraction/src\r_os_abstraction_api.c **** /**************************************************************************************************
  21:D:/Work/DeviceTester/amazon-freertos/lib/third_party/mcu_vendor/renesas/rz_mcu_boards/core_package/generate/os_abstraction/src\r_os_abstraction_api.c ****  * File Name    : r_os_abstraction.c
  22:D:/Work/DeviceTester/amazon-freertos/lib/third_party/mcu_vendor/renesas/rz_mcu_boards/core_package/generate/os_abstraction/src\r_os_abstraction_api.c ****  * Version      : see OS_LESS_RZ_HLD_VERSION_MAJOR.OS_LESS_RZ_HLD_VERSION_MINOR
  23:D:/Work/DeviceTester/amazon-freertos/lib/third_party/mcu_vendor/renesas/rz_mcu_boards/core_package/generate/os_abstraction/src\r_os_abstraction_api.c ****  * Description  : To make efficient code re-use the identical high layer driver shall be used in bo
  24:D:/Work/DeviceTester/amazon-freertos/lib/third_party/mcu_vendor/renesas/rz_mcu_boards/core_package/generate/os_abstraction/src\r_os_abstraction_api.c ****  *                OS Less applications.
  25:D:/Work/DeviceTester/amazon-freertos/lib/third_party/mcu_vendor/renesas/rz_mcu_boards/core_package/generate/os_abstraction/src\r_os_abstraction_api.c ****  *                This file aims to abstract the Operating system (OS) awareness when creating an O
  26:D:/Work/DeviceTester/amazon-freertos/lib/third_party/mcu_vendor/renesas/rz_mcu_boards/core_package/generate/os_abstraction/src\r_os_abstraction_api.c ****  **************************************************************************************************
  27:D:/Work/DeviceTester/amazon-freertos/lib/third_party/mcu_vendor/renesas/rz_mcu_boards/core_package/generate/os_abstraction/src\r_os_abstraction_api.c **** /**************************************************************************************************
  28:D:/Work/DeviceTester/amazon-freertos/lib/third_party/mcu_vendor/renesas/rz_mcu_boards/core_package/generate/os_abstraction/src\r_os_abstraction_api.c ****  * History      : DD.MM.YYYY Version Description
  29:D:/Work/DeviceTester/amazon-freertos/lib/third_party/mcu_vendor/renesas/rz_mcu_boards/core_package/generate/os_abstraction/src\r_os_abstraction_api.c ****  *              : 03.09.2019 3.03    Added R_COMPILER_WEAK to vApplicationStackOverflowHook () allo
  30:D:/Work/DeviceTester/amazon-freertos/lib/third_party/mcu_vendor/renesas/rz_mcu_boards/core_package/generate/os_abstraction/src\r_os_abstraction_api.c ****  **************************************************************************************************
  31:D:/Work/DeviceTester/amazon-freertos/lib/third_party/mcu_vendor/renesas/rz_mcu_boards/core_package/generate/os_abstraction/src\r_os_abstraction_api.c **** 
  32:D:/Work/DeviceTester/amazon-freertos/lib/third_party/mcu_vendor/renesas/rz_mcu_boards/core_package/generate/os_abstraction/src\r_os_abstraction_api.c **** #include <stdio.h>
  33:D:/Work/DeviceTester/amazon-freertos/lib/third_party/mcu_vendor/renesas/rz_mcu_boards/core_package/generate/os_abstraction/src\r_os_abstraction_api.c **** #include <fcntl.h>
  34:D:/Work/DeviceTester/amazon-freertos/lib/third_party/mcu_vendor/renesas/rz_mcu_boards/core_package/generate/os_abstraction/src\r_os_abstraction_api.c **** #include "r_devlink_wrapper.h"
  35:D:/Work/DeviceTester/amazon-freertos/lib/third_party/mcu_vendor/renesas/rz_mcu_boards/core_package/generate/os_abstraction/src\r_os_abstraction_api.c **** 
  36:D:/Work/DeviceTester/amazon-freertos/lib/third_party/mcu_vendor/renesas/rz_mcu_boards/core_package/generate/os_abstraction/src\r_os_abstraction_api.c **** #include "r_typedefs.h"
  37:D:/Work/DeviceTester/amazon-freertos/lib/third_party/mcu_vendor/renesas/rz_mcu_boards/core_package/generate/os_abstraction/src\r_os_abstraction_api.c **** #include "driver.h"
  38:D:/Work/DeviceTester/amazon-freertos/lib/third_party/mcu_vendor/renesas/rz_mcu_boards/core_package/generate/os_abstraction/src\r_os_abstraction_api.c **** 
  39:D:/Work/DeviceTester/amazon-freertos/lib/third_party/mcu_vendor/renesas/rz_mcu_boards/core_package/generate/os_abstraction/src\r_os_abstraction_api.c **** #include "FreeRTOS.h"
  40:D:/Work/DeviceTester/amazon-freertos/lib/third_party/mcu_vendor/renesas/rz_mcu_boards/core_package/generate/os_abstraction/src\r_os_abstraction_api.c **** #include "FreeRTOSconfig.h"
  41:D:/Work/DeviceTester/amazon-freertos/lib/third_party/mcu_vendor/renesas/rz_mcu_boards/core_package/generate/os_abstraction/src\r_os_abstraction_api.c **** #include "semphr.h"
  42:D:/Work/DeviceTester/amazon-freertos/lib/third_party/mcu_vendor/renesas/rz_mcu_boards/core_package/generate/os_abstraction/src\r_os_abstraction_api.c **** #include "queue.h"
  43:D:/Work/DeviceTester/amazon-freertos/lib/third_party/mcu_vendor/renesas/rz_mcu_boards/core_package/generate/os_abstraction/src\r_os_abstraction_api.c **** #include "task.h"
  44:D:/Work/DeviceTester/amazon-freertos/lib/third_party/mcu_vendor/renesas/rz_mcu_boards/core_package/generate/os_abstraction/src\r_os_abstraction_api.c **** #include "string.h"
  45:D:/Work/DeviceTester/amazon-freertos/lib/third_party/mcu_vendor/renesas/rz_mcu_boards/core_package/generate/os_abstraction/src\r_os_abstraction_api.c **** #include "r_ostm_drv_api.h"
  46:D:/Work/DeviceTester/amazon-freertos/lib/third_party/mcu_vendor/renesas/rz_mcu_boards/core_package/generate/os_abstraction/src\r_os_abstraction_api.c **** 
  47:D:/Work/DeviceTester/amazon-freertos/lib/third_party/mcu_vendor/renesas/rz_mcu_boards/core_package/generate/os_abstraction/src\r_os_abstraction_api.c **** /* compiler specific API header */
  48:D:/Work/DeviceTester/amazon-freertos/lib/third_party/mcu_vendor/renesas/rz_mcu_boards/core_package/generate/os_abstraction/src\r_os_abstraction_api.c **** #include "r_compiler_abstraction_api.h"
  49:D:/Work/DeviceTester/amazon-freertos/lib/third_party/mcu_vendor/renesas/rz_mcu_boards/core_package/generate/os_abstraction/src\r_os_abstraction_api.c **** 
  50:D:/Work/DeviceTester/amazon-freertos/lib/third_party/mcu_vendor/renesas/rz_mcu_boards/core_package/generate/os_abstraction/src\r_os_abstraction_api.c **** /* OS abstraction specific API header */
  51:D:/Work/DeviceTester/amazon-freertos/lib/third_party/mcu_vendor/renesas/rz_mcu_boards/core_package/generate/os_abstraction/src\r_os_abstraction_api.c **** #include "r_os_abstraction_api.h"
  52:D:/Work/DeviceTester/amazon-freertos/lib/third_party/mcu_vendor/renesas/rz_mcu_boards/core_package/generate/os_abstraction/src\r_os_abstraction_api.c **** 
  53:D:/Work/DeviceTester/amazon-freertos/lib/third_party/mcu_vendor/renesas/rz_mcu_boards/core_package/generate/os_abstraction/src\r_os_abstraction_api.c **** #include "r_task_priority.h"
  54:D:/Work/DeviceTester/amazon-freertos/lib/third_party/mcu_vendor/renesas/rz_mcu_boards/core_package/generate/os_abstraction/src\r_os_abstraction_api.c **** #include "application_cfg.h"
  55:D:/Work/DeviceTester/amazon-freertos/lib/third_party/mcu_vendor/renesas/rz_mcu_boards/core_package/generate/os_abstraction/src\r_os_abstraction_api.c **** 
  56:D:/Work/DeviceTester/amazon-freertos/lib/third_party/mcu_vendor/renesas/rz_mcu_boards/core_package/generate/os_abstraction/src\r_os_abstraction_api.c **** /**************************************************************************************************
  57:D:/Work/DeviceTester/amazon-freertos/lib/third_party/mcu_vendor/renesas/rz_mcu_boards/core_package/generate/os_abstraction/src\r_os_abstraction_api.c ****  Macro definitions
  58:D:/Work/DeviceTester/amazon-freertos/lib/third_party/mcu_vendor/renesas/rz_mcu_boards/core_package/generate/os_abstraction/src\r_os_abstraction_api.c ****  **************************************************************************************************
  59:D:/Work/DeviceTester/amazon-freertos/lib/third_party/mcu_vendor/renesas/rz_mcu_boards/core_package/generate/os_abstraction/src\r_os_abstraction_api.c **** 
  60:D:/Work/DeviceTester/amazon-freertos/lib/third_party/mcu_vendor/renesas/rz_mcu_boards/core_package/generate/os_abstraction/src\r_os_abstraction_api.c **** /* A minimum of 8 characters or "Unknown" will not fit! */
  61:D:/Work/DeviceTester/amazon-freertos/lib/third_party/mcu_vendor/renesas/rz_mcu_boards/core_package/generate/os_abstraction/src\r_os_abstraction_api.c **** #define R_OS_PRV_TINY_STACK_SIZE        (configMINIMAL_STACK_SIZE)
  62:D:/Work/DeviceTester/amazon-freertos/lib/third_party/mcu_vendor/renesas/rz_mcu_boards/core_package/generate/os_abstraction/src\r_os_abstraction_api.c **** #define R_OS_PRV_SMALL_STACK_SIZE       (configSMALL_STACK_SIZE)
  63:D:/Work/DeviceTester/amazon-freertos/lib/third_party/mcu_vendor/renesas/rz_mcu_boards/core_package/generate/os_abstraction/src\r_os_abstraction_api.c **** #define R_OS_PRV_DEFAULT_STACK_SIZE     (configDEFAULT_STACK_SIZE)
  64:D:/Work/DeviceTester/amazon-freertos/lib/third_party/mcu_vendor/renesas/rz_mcu_boards/core_package/generate/os_abstraction/src\r_os_abstraction_api.c **** #define R_OS_PRV_LARGE_STACK_SIZE       (configDEFAULT_STACK_SIZE*2)
  65:D:/Work/DeviceTester/amazon-freertos/lib/third_party/mcu_vendor/renesas/rz_mcu_boards/core_package/generate/os_abstraction/src\r_os_abstraction_api.c **** #define R_OS_PRV_HUGE_STACK_SIZE        (configDEFAULT_STACK_SIZE*4)
  66:D:/Work/DeviceTester/amazon-freertos/lib/third_party/mcu_vendor/renesas/rz_mcu_boards/core_package/generate/os_abstraction/src\r_os_abstraction_api.c **** 
  67:D:/Work/DeviceTester/amazon-freertos/lib/third_party/mcu_vendor/renesas/rz_mcu_boards/core_package/generate/os_abstraction/src\r_os_abstraction_api.c **** /* needs to link to configMEMORY_TYPE_FOR_ALLOCATOR */
  68:D:/Work/DeviceTester/amazon-freertos/lib/third_party/mcu_vendor/renesas/rz_mcu_boards/core_package/generate/os_abstraction/src\r_os_abstraction_api.c **** #define R_OS_PRV_DEFAULT_HEAP_PRV_      (configTOTAL_HEAP_SIZE)
  69:D:/Work/DeviceTester/amazon-freertos/lib/third_party/mcu_vendor/renesas/rz_mcu_boards/core_package/generate/os_abstraction/src\r_os_abstraction_api.c **** 
  70:D:/Work/DeviceTester/amazon-freertos/lib/third_party/mcu_vendor/renesas/rz_mcu_boards/core_package/generate/os_abstraction/src\r_os_abstraction_api.c **** #define FREERTOS_HEAP_START_PRV_        ((void *)&__freertos_heap_start)
  71:D:/Work/DeviceTester/amazon-freertos/lib/third_party/mcu_vendor/renesas/rz_mcu_boards/core_package/generate/os_abstraction/src\r_os_abstraction_api.c **** #define FREERTOS_HEAP_END_PRV_          ((void *)&__freertos_heap_end)
  72:D:/Work/DeviceTester/amazon-freertos/lib/third_party/mcu_vendor/renesas/rz_mcu_boards/core_package/generate/os_abstraction/src\r_os_abstraction_api.c **** 
  73:D:/Work/DeviceTester/amazon-freertos/lib/third_party/mcu_vendor/renesas/rz_mcu_boards/core_package/generate/os_abstraction/src\r_os_abstraction_api.c **** #ifdef LOG_TASK_INFO
  74:D:/Work/DeviceTester/amazon-freertos/lib/third_party/mcu_vendor/renesas/rz_mcu_boards/core_package/generate/os_abstraction/src\r_os_abstraction_api.c ****     #define LOG_DATA_DUMP_SIZE_PRV_     (4096)
  75:D:/Work/DeviceTester/amazon-freertos/lib/third_party/mcu_vendor/renesas/rz_mcu_boards/core_package/generate/os_abstraction/src\r_os_abstraction_api.c **** #endif /* LOG_TASK_INFO */
  76:D:/Work/DeviceTester/amazon-freertos/lib/third_party/mcu_vendor/renesas/rz_mcu_boards/core_package/generate/os_abstraction/src\r_os_abstraction_api.c **** 
  77:D:/Work/DeviceTester/amazon-freertos/lib/third_party/mcu_vendor/renesas/rz_mcu_boards/core_package/generate/os_abstraction/src\r_os_abstraction_api.c **** #ifdef OS_DEBUG_RECORD_MEM_ALLOCS
  78:D:/Work/DeviceTester/amazon-freertos/lib/third_party/mcu_vendor/renesas/rz_mcu_boards/core_package/generate/os_abstraction/src\r_os_abstraction_api.c ****     #define R_PRV_MAX_LEN_TASK_NAME     (24)
  79:D:/Work/DeviceTester/amazon-freertos/lib/third_party/mcu_vendor/renesas/rz_mcu_boards/core_package/generate/os_abstraction/src\r_os_abstraction_api.c **** #endif /* OS_DEBUG_RECORD_MEM_ALLOCS */
  80:D:/Work/DeviceTester/amazon-freertos/lib/third_party/mcu_vendor/renesas/rz_mcu_boards/core_package/generate/os_abstraction/src\r_os_abstraction_api.c **** 
  81:D:/Work/DeviceTester/amazon-freertos/lib/third_party/mcu_vendor/renesas/rz_mcu_boards/core_package/generate/os_abstraction/src\r_os_abstraction_api.c **** extern uint8_t __freertos_heap_start;
  82:D:/Work/DeviceTester/amazon-freertos/lib/third_party/mcu_vendor/renesas/rz_mcu_boards/core_package/generate/os_abstraction/src\r_os_abstraction_api.c **** extern uint8_t __freertos_heap_end;
  83:D:/Work/DeviceTester/amazon-freertos/lib/third_party/mcu_vendor/renesas/rz_mcu_boards/core_package/generate/os_abstraction/src\r_os_abstraction_api.c **** 
  84:D:/Work/DeviceTester/amazon-freertos/lib/third_party/mcu_vendor/renesas/rz_mcu_boards/core_package/generate/os_abstraction/src\r_os_abstraction_api.c **** /* Note ucHeap is used in freeRTOS for fixed location fixed sized memory pool */
  85:D:/Work/DeviceTester/amazon-freertos/lib/third_party/mcu_vendor/renesas/rz_mcu_boards/core_package/generate/os_abstraction/src\r_os_abstraction_api.c **** uint8_t ucHeap[configTOTAL_HEAP_SIZE] __attribute__ ((section(".freertos_heap")));
  86:D:/Work/DeviceTester/amazon-freertos/lib/third_party/mcu_vendor/renesas/rz_mcu_boards/core_package/generate/os_abstraction/src\r_os_abstraction_api.c **** 
  87:D:/Work/DeviceTester/amazon-freertos/lib/third_party/mcu_vendor/renesas/rz_mcu_boards/core_package/generate/os_abstraction/src\r_os_abstraction_api.c **** extern uint32_t ulPortInterruptNesting;
  88:D:/Work/DeviceTester/amazon-freertos/lib/third_party/mcu_vendor/renesas/rz_mcu_boards/core_package/generate/os_abstraction/src\r_os_abstraction_api.c **** UBaseType_t uxSavedInterruptStatus;
  89:D:/Work/DeviceTester/amazon-freertos/lib/third_party/mcu_vendor/renesas/rz_mcu_boards/core_package/generate/os_abstraction/src\r_os_abstraction_api.c **** 
  90:D:/Work/DeviceTester/amazon-freertos/lib/third_party/mcu_vendor/renesas/rz_mcu_boards/core_package/generate/os_abstraction/src\r_os_abstraction_api.c **** /* Allocate two blocks of RAM for use by the heap. */
  91:D:/Work/DeviceTester/amazon-freertos/lib/third_party/mcu_vendor/renesas/rz_mcu_boards/core_package/generate/os_abstraction/src\r_os_abstraction_api.c **** R_COMPILER_WEAK HeapRegion_t xHeapRegions[] =
  92:D:/Work/DeviceTester/amazon-freertos/lib/third_party/mcu_vendor/renesas/rz_mcu_boards/core_package/generate/os_abstraction/src\r_os_abstraction_api.c **** {
  93:D:/Work/DeviceTester/amazon-freertos/lib/third_party/mcu_vendor/renesas/rz_mcu_boards/core_package/generate/os_abstraction/src\r_os_abstraction_api.c ****     /* Initialise default region in the function . */
  94:D:/Work/DeviceTester/amazon-freertos/lib/third_party/mcu_vendor/renesas/rz_mcu_boards/core_package/generate/os_abstraction/src\r_os_abstraction_api.c ****     { NULL, 0 },
  95:D:/Work/DeviceTester/amazon-freertos/lib/third_party/mcu_vendor/renesas/rz_mcu_boards/core_package/generate/os_abstraction/src\r_os_abstraction_api.c **** 
  96:D:/Work/DeviceTester/amazon-freertos/lib/third_party/mcu_vendor/renesas/rz_mcu_boards/core_package/generate/os_abstraction/src\r_os_abstraction_api.c ****     /* Terminates the array. */
  97:D:/Work/DeviceTester/amazon-freertos/lib/third_party/mcu_vendor/renesas/rz_mcu_boards/core_package/generate/os_abstraction/src\r_os_abstraction_api.c ****     { NULL, 0 }
  98:D:/Work/DeviceTester/amazon-freertos/lib/third_party/mcu_vendor/renesas/rz_mcu_boards/core_package/generate/os_abstraction/src\r_os_abstraction_api.c **** };
  99:D:/Work/DeviceTester/amazon-freertos/lib/third_party/mcu_vendor/renesas/rz_mcu_boards/core_package/generate/os_abstraction/src\r_os_abstraction_api.c **** 
 100:D:/Work/DeviceTester/amazon-freertos/lib/third_party/mcu_vendor/renesas/rz_mcu_boards/core_package/generate/os_abstraction/src\r_os_abstraction_api.c **** /**************************************************************************************************
 101:D:/Work/DeviceTester/amazon-freertos/lib/third_party/mcu_vendor/renesas/rz_mcu_boards/core_package/generate/os_abstraction/src\r_os_abstraction_api.c ****  Private global variables
 102:D:/Work/DeviceTester/amazon-freertos/lib/third_party/mcu_vendor/renesas/rz_mcu_boards/core_package/generate/os_abstraction/src\r_os_abstraction_api.c ****  **************************************************************************************************
 103:D:/Work/DeviceTester/amazon-freertos/lib/third_party/mcu_vendor/renesas/rz_mcu_boards/core_package/generate/os_abstraction/src\r_os_abstraction_api.c **** 
 104:D:/Work/DeviceTester/amazon-freertos/lib/third_party/mcu_vendor/renesas/rz_mcu_boards/core_package/generate/os_abstraction/src\r_os_abstraction_api.c **** #ifdef OS_DEBUG_RECORD_MEM_ALLOCS
 105:D:/Work/DeviceTester/amazon-freertos/lib/third_party/mcu_vendor/renesas/rz_mcu_boards/core_package/generate/os_abstraction/src\r_os_abstraction_api.c **** static volatile char gs_debug_task_malloc_str[24];
 106:D:/Work/DeviceTester/amazon-freertos/lib/third_party/mcu_vendor/renesas/rz_mcu_boards/core_package/generate/os_abstraction/src\r_os_abstraction_api.c **** static volatile char gs_debug_task_free_str[24];
 107:D:/Work/DeviceTester/amazon-freertos/lib/third_party/mcu_vendor/renesas/rz_mcu_boards/core_package/generate/os_abstraction/src\r_os_abstraction_api.c **** #endif /* OS_DEBUG_RECORD_MEM_ALLOCS */
 108:D:/Work/DeviceTester/amazon-freertos/lib/third_party/mcu_vendor/renesas/rz_mcu_boards/core_package/generate/os_abstraction/src\r_os_abstraction_api.c **** 
 109:D:/Work/DeviceTester/amazon-freertos/lib/third_party/mcu_vendor/renesas/rz_mcu_boards/core_package/generate/os_abstraction/src\r_os_abstraction_api.c **** static const st_os_abstraction_info_t s_os_version =
 110:D:/Work/DeviceTester/amazon-freertos/lib/third_party/mcu_vendor/renesas/rz_mcu_boards/core_package/generate/os_abstraction/src\r_os_abstraction_api.c **** {
 111:D:/Work/DeviceTester/amazon-freertos/lib/third_party/mcu_vendor/renesas/rz_mcu_boards/core_package/generate/os_abstraction/src\r_os_abstraction_api.c ****     /*Version Number*/
 112:D:/Work/DeviceTester/amazon-freertos/lib/third_party/mcu_vendor/renesas/rz_mcu_boards/core_package/generate/os_abstraction/src\r_os_abstraction_api.c ****     { ((R_OS_ABSTRACTION_VERSION_MAJOR << 16) + R_OS_ABSTRACTION_VERSION_MINOR) },
 113:D:/Work/DeviceTester/amazon-freertos/lib/third_party/mcu_vendor/renesas/rz_mcu_boards/core_package/generate/os_abstraction/src\r_os_abstraction_api.c **** 
 114:D:/Work/DeviceTester/amazon-freertos/lib/third_party/mcu_vendor/renesas/rz_mcu_boards/core_package/generate/os_abstraction/src\r_os_abstraction_api.c ****     /*Build Number*/
 115:D:/Work/DeviceTester/amazon-freertos/lib/third_party/mcu_vendor/renesas/rz_mcu_boards/core_package/generate/os_abstraction/src\r_os_abstraction_api.c ****     tskKERNEL_VERSION_BUILD,
 116:D:/Work/DeviceTester/amazon-freertos/lib/third_party/mcu_vendor/renesas/rz_mcu_boards/core_package/generate/os_abstraction/src\r_os_abstraction_api.c **** 
 117:D:/Work/DeviceTester/amazon-freertos/lib/third_party/mcu_vendor/renesas/rz_mcu_boards/core_package/generate/os_abstraction/src\r_os_abstraction_api.c ****     /*Name of OS Abstraction Layer*/
 118:D:/Work/DeviceTester/amazon-freertos/lib/third_party/mcu_vendor/renesas/rz_mcu_boards/core_package/generate/os_abstraction/src\r_os_abstraction_api.c ****     ("FreeRTOS OS Abstraction")
 119:D:/Work/DeviceTester/amazon-freertos/lib/third_party/mcu_vendor/renesas/rz_mcu_boards/core_package/generate/os_abstraction/src\r_os_abstraction_api.c **** };
 120:D:/Work/DeviceTester/amazon-freertos/lib/third_party/mcu_vendor/renesas/rz_mcu_boards/core_package/generate/os_abstraction/src\r_os_abstraction_api.c **** 
 121:D:/Work/DeviceTester/amazon-freertos/lib/third_party/mcu_vendor/renesas/rz_mcu_boards/core_package/generate/os_abstraction/src\r_os_abstraction_api.c **** static const char s_startup_task_name_str[] = "Main";
 122:D:/Work/DeviceTester/amazon-freertos/lib/third_party/mcu_vendor/renesas/rz_mcu_boards/core_package/generate/os_abstraction/src\r_os_abstraction_api.c **** 
 123:D:/Work/DeviceTester/amazon-freertos/lib/third_party/mcu_vendor/renesas/rz_mcu_boards/core_package/generate/os_abstraction/src\r_os_abstraction_api.c **** /*xSemaphoreHandle is defined as a void pointer*/
 124:D:/Work/DeviceTester/amazon-freertos/lib/third_party/mcu_vendor/renesas/rz_mcu_boards/core_package/generate/os_abstraction/src\r_os_abstraction_api.c **** static p_mutex_t s_pstream_mutex = NULL;
 125:D:/Work/DeviceTester/amazon-freertos/lib/third_party/mcu_vendor/renesas/rz_mcu_boards/core_package/generate/os_abstraction/src\r_os_abstraction_api.c **** 
 126:D:/Work/DeviceTester/amazon-freertos/lib/third_party/mcu_vendor/renesas/rz_mcu_boards/core_package/generate/os_abstraction/src\r_os_abstraction_api.c **** /*Initialising as Null*/
 127:D:/Work/DeviceTester/amazon-freertos/lib/third_party/mcu_vendor/renesas/rz_mcu_boards/core_package/generate/os_abstraction/src\r_os_abstraction_api.c **** static void *sp_task_handle = NULL;
 128:D:/Work/DeviceTester/amazon-freertos/lib/third_party/mcu_vendor/renesas/rz_mcu_boards/core_package/generate/os_abstraction/src\r_os_abstraction_api.c **** static char s_file[200];
 129:D:/Work/DeviceTester/amazon-freertos/lib/third_party/mcu_vendor/renesas/rz_mcu_boards/core_package/generate/os_abstraction/src\r_os_abstraction_api.c **** static uint32_t s_line;
 130:D:/Work/DeviceTester/amazon-freertos/lib/third_party/mcu_vendor/renesas/rz_mcu_boards/core_package/generate/os_abstraction/src\r_os_abstraction_api.c **** 
 131:D:/Work/DeviceTester/amazon-freertos/lib/third_party/mcu_vendor/renesas/rz_mcu_boards/core_package/generate/os_abstraction/src\r_os_abstraction_api.c **** static size_t s_event_count = 0UL;
 132:D:/Work/DeviceTester/amazon-freertos/lib/third_party/mcu_vendor/renesas/rz_mcu_boards/core_package/generate/os_abstraction/src\r_os_abstraction_api.c **** static size_t s_event_max = 0UL;
 133:D:/Work/DeviceTester/amazon-freertos/lib/third_party/mcu_vendor/renesas/rz_mcu_boards/core_package/generate/os_abstraction/src\r_os_abstraction_api.c **** 
 134:D:/Work/DeviceTester/amazon-freertos/lib/third_party/mcu_vendor/renesas/rz_mcu_boards/core_package/generate/os_abstraction/src\r_os_abstraction_api.c **** static bool_t s_os_running = false;
 135:D:/Work/DeviceTester/amazon-freertos/lib/third_party/mcu_vendor/renesas/rz_mcu_boards/core_package/generate/os_abstraction/src\r_os_abstraction_api.c **** 
 136:D:/Work/DeviceTester/amazon-freertos/lib/third_party/mcu_vendor/renesas/rz_mcu_boards/core_package/generate/os_abstraction/src\r_os_abstraction_api.c **** /* LOG_TASK_INFO provides logging of information into a circular buffer. This is currently
 137:D:/Work/DeviceTester/amazon-freertos/lib/third_party/mcu_vendor/renesas/rz_mcu_boards/core_package/generate/os_abstraction/src\r_os_abstraction_api.c ****  * configured to do so in mallocs and frees.
 138:D:/Work/DeviceTester/amazon-freertos/lib/third_party/mcu_vendor/renesas/rz_mcu_boards/core_package/generate/os_abstraction/src\r_os_abstraction_api.c ****  * To use: Add text to log using the log_data function. The log_write_data_to_console will
 139:D:/Work/DeviceTester/amazon-freertos/lib/third_party/mcu_vendor/renesas/rz_mcu_boards/core_package/generate/os_abstraction/src\r_os_abstraction_api.c ****  * output the contents of the buffer to the console (currently set to do this in the
 140:D:/Work/DeviceTester/amazon-freertos/lib/third_party/mcu_vendor/renesas/rz_mcu_boards/core_package/generate/os_abstraction/src\r_os_abstraction_api.c ****  * OS_assert function).
 141:D:/Work/DeviceTester/amazon-freertos/lib/third_party/mcu_vendor/renesas/rz_mcu_boards/core_package/generate/os_abstraction/src\r_os_abstraction_api.c ****  */
 142:D:/Work/DeviceTester/amazon-freertos/lib/third_party/mcu_vendor/renesas/rz_mcu_boards/core_package/generate/os_abstraction/src\r_os_abstraction_api.c **** #ifdef LOG_TASK_INFO
 143:D:/Work/DeviceTester/amazon-freertos/lib/third_party/mcu_vendor/renesas/rz_mcu_boards/core_package/generate/os_abstraction/src\r_os_abstraction_api.c **** static volatile char s_log_data[LOG_DATA_DUMP_SIZE_PRV_ + 1];
 144:D:/Work/DeviceTester/amazon-freertos/lib/third_party/mcu_vendor/renesas/rz_mcu_boards/core_package/generate/os_abstraction/src\r_os_abstraction_api.c **** static volatile char *sp_log_head = s_log_data;
 145:D:/Work/DeviceTester/amazon-freertos/lib/third_party/mcu_vendor/renesas/rz_mcu_boards/core_package/generate/os_abstraction/src\r_os_abstraction_api.c **** static volatile char *sp_log_tail = s_log_data;
 146:D:/Work/DeviceTester/amazon-freertos/lib/third_party/mcu_vendor/renesas/rz_mcu_boards/core_package/generate/os_abstraction/src\r_os_abstraction_api.c **** static volatile uint8_t s_log_readback_running = 0u;
 147:D:/Work/DeviceTester/amazon-freertos/lib/third_party/mcu_vendor/renesas/rz_mcu_boards/core_package/generate/os_abstraction/src\r_os_abstraction_api.c **** #endif /* LOG_TASK_INFO */
 148:D:/Work/DeviceTester/amazon-freertos/lib/third_party/mcu_vendor/renesas/rz_mcu_boards/core_package/generate/os_abstraction/src\r_os_abstraction_api.c **** 
 149:D:/Work/DeviceTester/amazon-freertos/lib/third_party/mcu_vendor/renesas/rz_mcu_boards/core_package/generate/os_abstraction/src\r_os_abstraction_api.c **** extern void vPortDefineHeapRegions (const HeapRegion_t * const pxHeapRegions);
 150:D:/Work/DeviceTester/amazon-freertos/lib/third_party/mcu_vendor/renesas/rz_mcu_boards/core_package/generate/os_abstraction/src\r_os_abstraction_api.c **** R_COMPILER_WEAK void vApplicationStackOverflowHook (xTaskHandle xTask, char *pcTaskName);
 151:D:/Work/DeviceTester/amazon-freertos/lib/third_party/mcu_vendor/renesas/rz_mcu_boards/core_package/generate/os_abstraction/src\r_os_abstraction_api.c **** void vApplicationIdleHook( void );
 152:D:/Work/DeviceTester/amazon-freertos/lib/third_party/mcu_vendor/renesas/rz_mcu_boards/core_package/generate/os_abstraction/src\r_os_abstraction_api.c **** void os_abstraction_isr (void);
 153:D:/Work/DeviceTester/amazon-freertos/lib/third_party/mcu_vendor/renesas/rz_mcu_boards/core_package/generate/os_abstraction/src\r_os_abstraction_api.c **** 
 154:D:/Work/DeviceTester/amazon-freertos/lib/third_party/mcu_vendor/renesas/rz_mcu_boards/core_package/generate/os_abstraction/src\r_os_abstraction_api.c **** R_COMPILER_WEAK void pvPortsetDesiredBlockForMalloc( size_t xWantedBlock );
 155:D:/Work/DeviceTester/amazon-freertos/lib/third_party/mcu_vendor/renesas/rz_mcu_boards/core_package/generate/os_abstraction/src\r_os_abstraction_api.c **** 
 156:D:/Work/DeviceTester/amazon-freertos/lib/third_party/mcu_vendor/renesas/rz_mcu_boards/core_package/generate/os_abstraction/src\r_os_abstraction_api.c **** 
 157:D:/Work/DeviceTester/amazon-freertos/lib/third_party/mcu_vendor/renesas/rz_mcu_boards/core_package/generate/os_abstraction/src\r_os_abstraction_api.c **** R_COMPILER_WEAK void pvPortsetDesiredBlockForMalloc( size_t xWantedBlock )
 158:D:/Work/DeviceTester/amazon-freertos/lib/third_party/mcu_vendor/renesas/rz_mcu_boards/core_package/generate/os_abstraction/src\r_os_abstraction_api.c **** {
 159:D:/Work/DeviceTester/amazon-freertos/lib/third_party/mcu_vendor/renesas/rz_mcu_boards/core_package/generate/os_abstraction/src\r_os_abstraction_api.c **** 	UNUSED_PARAM(xWantedBlock);
 160:D:/Work/DeviceTester/amazon-freertos/lib/third_party/mcu_vendor/renesas/rz_mcu_boards/core_package/generate/os_abstraction/src\r_os_abstraction_api.c **** 	R_COMPILER_Nop();
 161:D:/Work/DeviceTester/amazon-freertos/lib/third_party/mcu_vendor/renesas/rz_mcu_boards/core_package/generate/os_abstraction/src\r_os_abstraction_api.c **** }
 162:D:/Work/DeviceTester/amazon-freertos/lib/third_party/mcu_vendor/renesas/rz_mcu_boards/core_package/generate/os_abstraction/src\r_os_abstraction_api.c **** 
 163:D:/Work/DeviceTester/amazon-freertos/lib/third_party/mcu_vendor/renesas/rz_mcu_boards/core_package/generate/os_abstraction/src\r_os_abstraction_api.c **** 
 164:D:/Work/DeviceTester/amazon-freertos/lib/third_party/mcu_vendor/renesas/rz_mcu_boards/core_package/generate/os_abstraction/src\r_os_abstraction_api.c **** #ifdef LOG_TASK_INFO
 165:D:/Work/DeviceTester/amazon-freertos/lib/third_party/mcu_vendor/renesas/rz_mcu_boards/core_package/generate/os_abstraction/src\r_os_abstraction_api.c **** /**************************************************************************************************
 166:D:/Work/DeviceTester/amazon-freertos/lib/third_party/mcu_vendor/renesas/rz_mcu_boards/core_package/generate/os_abstraction/src\r_os_abstraction_api.c ****  * Function Name: log_data
 167:D:/Work/DeviceTester/amazon-freertos/lib/third_party/mcu_vendor/renesas/rz_mcu_boards/core_package/generate/os_abstraction/src\r_os_abstraction_api.c ****  * Description  : Logs text to a circular buffer for debug purposes
 168:D:/Work/DeviceTester/amazon-freertos/lib/third_party/mcu_vendor/renesas/rz_mcu_boards/core_package/generate/os_abstraction/src\r_os_abstraction_api.c ****  * Arguments    : char *p_data_to_log
 169:D:/Work/DeviceTester/amazon-freertos/lib/third_party/mcu_vendor/renesas/rz_mcu_boards/core_package/generate/os_abstraction/src\r_os_abstraction_api.c ****  *                uint32_t len_data
 170:D:/Work/DeviceTester/amazon-freertos/lib/third_party/mcu_vendor/renesas/rz_mcu_boards/core_package/generate/os_abstraction/src\r_os_abstraction_api.c ****  * Return Value : void
 171:D:/Work/DeviceTester/amazon-freertos/lib/third_party/mcu_vendor/renesas/rz_mcu_boards/core_package/generate/os_abstraction/src\r_os_abstraction_api.c ****  **************************************************************************************************
 172:D:/Work/DeviceTester/amazon-freertos/lib/third_party/mcu_vendor/renesas/rz_mcu_boards/core_package/generate/os_abstraction/src\r_os_abstraction_api.c **** static void log_data (char *p_data_to_log, uint32_t len_data)
 173:D:/Work/DeviceTester/amazon-freertos/lib/third_party/mcu_vendor/renesas/rz_mcu_boards/core_package/generate/os_abstraction/src\r_os_abstraction_api.c **** {
 174:D:/Work/DeviceTester/amazon-freertos/lib/third_party/mcu_vendor/renesas/rz_mcu_boards/core_package/generate/os_abstraction/src\r_os_abstraction_api.c ****     uint32_t len = 0;
 175:D:/Work/DeviceTester/amazon-freertos/lib/third_party/mcu_vendor/renesas/rz_mcu_boards/core_package/generate/os_abstraction/src\r_os_abstraction_api.c **** 
 176:D:/Work/DeviceTester/amazon-freertos/lib/third_party/mcu_vendor/renesas/rz_mcu_boards/core_package/generate/os_abstraction/src\r_os_abstraction_api.c ****     /* determine length of data to log */
 177:D:/Work/DeviceTester/amazon-freertos/lib/third_party/mcu_vendor/renesas/rz_mcu_boards/core_package/generate/os_abstraction/src\r_os_abstraction_api.c ****     if (0 == len_data)
 178:D:/Work/DeviceTester/amazon-freertos/lib/third_party/mcu_vendor/renesas/rz_mcu_boards/core_package/generate/os_abstraction/src\r_os_abstraction_api.c ****     {
 179:D:/Work/DeviceTester/amazon-freertos/lib/third_party/mcu_vendor/renesas/rz_mcu_boards/core_package/generate/os_abstraction/src\r_os_abstraction_api.c ****         /* using strlen */
 180:D:/Work/DeviceTester/amazon-freertos/lib/third_party/mcu_vendor/renesas/rz_mcu_boards/core_package/generate/os_abstraction/src\r_os_abstraction_api.c ****         len = strlen(p_data_to_log);
 181:D:/Work/DeviceTester/amazon-freertos/lib/third_party/mcu_vendor/renesas/rz_mcu_boards/core_package/generate/os_abstraction/src\r_os_abstraction_api.c ****     }
 182:D:/Work/DeviceTester/amazon-freertos/lib/third_party/mcu_vendor/renesas/rz_mcu_boards/core_package/generate/os_abstraction/src\r_os_abstraction_api.c ****     else
 183:D:/Work/DeviceTester/amazon-freertos/lib/third_party/mcu_vendor/renesas/rz_mcu_boards/core_package/generate/os_abstraction/src\r_os_abstraction_api.c ****     {
 184:D:/Work/DeviceTester/amazon-freertos/lib/third_party/mcu_vendor/renesas/rz_mcu_boards/core_package/generate/os_abstraction/src\r_os_abstraction_api.c ****         len = len_data;
 185:D:/Work/DeviceTester/amazon-freertos/lib/third_party/mcu_vendor/renesas/rz_mcu_boards/core_package/generate/os_abstraction/src\r_os_abstraction_api.c ****     }
 186:D:/Work/DeviceTester/amazon-freertos/lib/third_party/mcu_vendor/renesas/rz_mcu_boards/core_package/generate/os_abstraction/src\r_os_abstraction_api.c **** 
 187:D:/Work/DeviceTester/amazon-freertos/lib/third_party/mcu_vendor/renesas/rz_mcu_boards/core_package/generate/os_abstraction/src\r_os_abstraction_api.c ****     /* will head fit in buffer without overlap */
 188:D:/Work/DeviceTester/amazon-freertos/lib/third_party/mcu_vendor/renesas/rz_mcu_boards/core_package/generate/os_abstraction/src\r_os_abstraction_api.c ****     if ((sp_log_head + len) < (s_log_data + LOG_DATA_DUMP_SIZE_PRV_))
 189:D:/Work/DeviceTester/amazon-freertos/lib/third_party/mcu_vendor/renesas/rz_mcu_boards/core_package/generate/os_abstraction/src\r_os_abstraction_api.c ****     {
 190:D:/Work/DeviceTester/amazon-freertos/lib/third_party/mcu_vendor/renesas/rz_mcu_boards/core_package/generate/os_abstraction/src\r_os_abstraction_api.c ****         /* push tail up if overlapped */
 191:D:/Work/DeviceTester/amazon-freertos/lib/third_party/mcu_vendor/renesas/rz_mcu_boards/core_package/generate/os_abstraction/src\r_os_abstraction_api.c ****         if ((sp_log_tail > sp_log_head) && (sp_log_tail < (sp_log_head + len)))
 192:D:/Work/DeviceTester/amazon-freertos/lib/third_party/mcu_vendor/renesas/rz_mcu_boards/core_package/generate/os_abstraction/src\r_os_abstraction_api.c ****         {
 193:D:/Work/DeviceTester/amazon-freertos/lib/third_party/mcu_vendor/renesas/rz_mcu_boards/core_package/generate/os_abstraction/src\r_os_abstraction_api.c ****             sp_log_tail = (sp_log_head + len);
 194:D:/Work/DeviceTester/amazon-freertos/lib/third_party/mcu_vendor/renesas/rz_mcu_boards/core_package/generate/os_abstraction/src\r_os_abstraction_api.c ****         }
 195:D:/Work/DeviceTester/amazon-freertos/lib/third_party/mcu_vendor/renesas/rz_mcu_boards/core_package/generate/os_abstraction/src\r_os_abstraction_api.c ****         strncpy(sp_log_head, p_data_to_log, len);
 196:D:/Work/DeviceTester/amazon-freertos/lib/third_party/mcu_vendor/renesas/rz_mcu_boards/core_package/generate/os_abstraction/src\r_os_abstraction_api.c ****         sp_log_head += len;
 197:D:/Work/DeviceTester/amazon-freertos/lib/third_party/mcu_vendor/renesas/rz_mcu_boards/core_package/generate/os_abstraction/src\r_os_abstraction_api.c ****     }
 198:D:/Work/DeviceTester/amazon-freertos/lib/third_party/mcu_vendor/renesas/rz_mcu_boards/core_package/generate/os_abstraction/src\r_os_abstraction_api.c ****     else
 199:D:/Work/DeviceTester/amazon-freertos/lib/third_party/mcu_vendor/renesas/rz_mcu_boards/core_package/generate/os_abstraction/src\r_os_abstraction_api.c ****     {
 200:D:/Work/DeviceTester/amazon-freertos/lib/third_party/mcu_vendor/renesas/rz_mcu_boards/core_package/generate/os_abstraction/src\r_os_abstraction_api.c ****         /* overlap */
 201:D:/Work/DeviceTester/amazon-freertos/lib/third_party/mcu_vendor/renesas/rz_mcu_boards/core_package/generate/os_abstraction/src\r_os_abstraction_api.c **** 
 202:D:/Work/DeviceTester/amazon-freertos/lib/third_party/mcu_vendor/renesas/rz_mcu_boards/core_package/generate/os_abstraction/src\r_os_abstraction_api.c ****         /* add to top of buffer */
 203:D:/Work/DeviceTester/amazon-freertos/lib/third_party/mcu_vendor/renesas/rz_mcu_boards/core_package/generate/os_abstraction/src\r_os_abstraction_api.c **** 
 204:D:/Work/DeviceTester/amazon-freertos/lib/third_party/mcu_vendor/renesas/rz_mcu_boards/core_package/generate/os_abstraction/src\r_os_abstraction_api.c ****         /* calc number of bytes to top */
 205:D:/Work/DeviceTester/amazon-freertos/lib/third_party/mcu_vendor/renesas/rz_mcu_boards/core_package/generate/os_abstraction/src\r_os_abstraction_api.c ****         uint32_t num_chars_to_top = ((s_log_data + LOG_DATA_DUMP_SIZE_PRV_) - sp_log_head);
 206:D:/Work/DeviceTester/amazon-freertos/lib/third_party/mcu_vendor/renesas/rz_mcu_boards/core_package/generate/os_abstraction/src\r_os_abstraction_api.c **** 
 207:D:/Work/DeviceTester/amazon-freertos/lib/third_party/mcu_vendor/renesas/rz_mcu_boards/core_package/generate/os_abstraction/src\r_os_abstraction_api.c ****         /* fill buffer to the top */
 208:D:/Work/DeviceTester/amazon-freertos/lib/third_party/mcu_vendor/renesas/rz_mcu_boards/core_package/generate/os_abstraction/src\r_os_abstraction_api.c ****         strncpy(sp_log_head, p_data_to_log, num_chars_to_top);
 209:D:/Work/DeviceTester/amazon-freertos/lib/third_party/mcu_vendor/renesas/rz_mcu_boards/core_package/generate/os_abstraction/src\r_os_abstraction_api.c **** 
 210:D:/Work/DeviceTester/amazon-freertos/lib/third_party/mcu_vendor/renesas/rz_mcu_boards/core_package/generate/os_abstraction/src\r_os_abstraction_api.c ****         /* add remaining to start of buffer */
 211:D:/Work/DeviceTester/amazon-freertos/lib/third_party/mcu_vendor/renesas/rz_mcu_boards/core_package/generate/os_abstraction/src\r_os_abstraction_api.c ****         strncpy(s_log_data, (char *) (p_data_to_log + num_chars_to_top), (len - num_chars_to_top));
 212:D:/Work/DeviceTester/amazon-freertos/lib/third_party/mcu_vendor/renesas/rz_mcu_boards/core_package/generate/os_abstraction/src\r_os_abstraction_api.c **** 
 213:D:/Work/DeviceTester/amazon-freertos/lib/third_party/mcu_vendor/renesas/rz_mcu_boards/core_package/generate/os_abstraction/src\r_os_abstraction_api.c ****         /* update head */
 214:D:/Work/DeviceTester/amazon-freertos/lib/third_party/mcu_vendor/renesas/rz_mcu_boards/core_package/generate/os_abstraction/src\r_os_abstraction_api.c ****         sp_log_head = (char *) (s_log_data + (len - num_chars_to_top));
 215:D:/Work/DeviceTester/amazon-freertos/lib/third_party/mcu_vendor/renesas/rz_mcu_boards/core_package/generate/os_abstraction/src\r_os_abstraction_api.c **** 
 216:D:/Work/DeviceTester/amazon-freertos/lib/third_party/mcu_vendor/renesas/rz_mcu_boards/core_package/generate/os_abstraction/src\r_os_abstraction_api.c ****         /* update tail if overlapped */
 217:D:/Work/DeviceTester/amazon-freertos/lib/third_party/mcu_vendor/renesas/rz_mcu_boards/core_package/generate/os_abstraction/src\r_os_abstraction_api.c ****         if (sp_log_tail < sp_log_head)
 218:D:/Work/DeviceTester/amazon-freertos/lib/third_party/mcu_vendor/renesas/rz_mcu_boards/core_package/generate/os_abstraction/src\r_os_abstraction_api.c ****         {
 219:D:/Work/DeviceTester/amazon-freertos/lib/third_party/mcu_vendor/renesas/rz_mcu_boards/core_package/generate/os_abstraction/src\r_os_abstraction_api.c ****             sp_log_tail = sp_log_head;
 220:D:/Work/DeviceTester/amazon-freertos/lib/third_party/mcu_vendor/renesas/rz_mcu_boards/core_package/generate/os_abstraction/src\r_os_abstraction_api.c ****         }
 221:D:/Work/DeviceTester/amazon-freertos/lib/third_party/mcu_vendor/renesas/rz_mcu_boards/core_package/generate/os_abstraction/src\r_os_abstraction_api.c ****     }
 222:D:/Work/DeviceTester/amazon-freertos/lib/third_party/mcu_vendor/renesas/rz_mcu_boards/core_package/generate/os_abstraction/src\r_os_abstraction_api.c **** }
 223:D:/Work/DeviceTester/amazon-freertos/lib/third_party/mcu_vendor/renesas/rz_mcu_boards/core_package/generate/os_abstraction/src\r_os_abstraction_api.c **** /**************************************************************************************************
 224:D:/Work/DeviceTester/amazon-freertos/lib/third_party/mcu_vendor/renesas/rz_mcu_boards/core_package/generate/os_abstraction/src\r_os_abstraction_api.c ****  End of function log_data
 225:D:/Work/DeviceTester/amazon-freertos/lib/third_party/mcu_vendor/renesas/rz_mcu_boards/core_package/generate/os_abstraction/src\r_os_abstraction_api.c ****  **************************************************************************************************
 226:D:/Work/DeviceTester/amazon-freertos/lib/third_party/mcu_vendor/renesas/rz_mcu_boards/core_package/generate/os_abstraction/src\r_os_abstraction_api.c **** 
 227:D:/Work/DeviceTester/amazon-freertos/lib/third_party/mcu_vendor/renesas/rz_mcu_boards/core_package/generate/os_abstraction/src\r_os_abstraction_api.c **** /**************************************************************************************************
 228:D:/Work/DeviceTester/amazon-freertos/lib/third_party/mcu_vendor/renesas/rz_mcu_boards/core_package/generate/os_abstraction/src\r_os_abstraction_api.c ****  * Function Name: log_write_data_to_console
 229:D:/Work/DeviceTester/amazon-freertos/lib/third_party/mcu_vendor/renesas/rz_mcu_boards/core_package/generate/os_abstraction/src\r_os_abstraction_api.c ****  * Description  : Outputs contents of circular debug buffer to console
 230:D:/Work/DeviceTester/amazon-freertos/lib/third_party/mcu_vendor/renesas/rz_mcu_boards/core_package/generate/os_abstraction/src\r_os_abstraction_api.c ****  * Arguments    : void
 231:D:/Work/DeviceTester/amazon-freertos/lib/third_party/mcu_vendor/renesas/rz_mcu_boards/core_package/generate/os_abstraction/src\r_os_abstraction_api.c ****  * Return Value : void
 232:D:/Work/DeviceTester/amazon-freertos/lib/third_party/mcu_vendor/renesas/rz_mcu_boards/core_package/generate/os_abstraction/src\r_os_abstraction_api.c ****  **************************************************************************************************
 233:D:/Work/DeviceTester/amazon-freertos/lib/third_party/mcu_vendor/renesas/rz_mcu_boards/core_package/generate/os_abstraction/src\r_os_abstraction_api.c **** static void log_write_data_to_console (void)
 234:D:/Work/DeviceTester/amazon-freertos/lib/third_party/mcu_vendor/renesas/rz_mcu_boards/core_package/generate/os_abstraction/src\r_os_abstraction_api.c **** {
 235:D:/Work/DeviceTester/amazon-freertos/lib/third_party/mcu_vendor/renesas/rz_mcu_boards/core_package/generate/os_abstraction/src\r_os_abstraction_api.c ****     /* check if console reporting is already underway */
 236:D:/Work/DeviceTester/amazon-freertos/lib/third_party/mcu_vendor/renesas/rz_mcu_boards/core_package/generate/os_abstraction/src\r_os_abstraction_api.c ****     /* sometimes assert runs in more than 1 task... */
 237:D:/Work/DeviceTester/amazon-freertos/lib/third_party/mcu_vendor/renesas/rz_mcu_boards/core_package/generate/os_abstraction/src\r_os_abstraction_api.c ****     if (s_log_readback_running)
 238:D:/Work/DeviceTester/amazon-freertos/lib/third_party/mcu_vendor/renesas/rz_mcu_boards/core_package/generate/os_abstraction/src\r_os_abstraction_api.c ****     {
 239:D:/Work/DeviceTester/amazon-freertos/lib/third_party/mcu_vendor/renesas/rz_mcu_boards/core_package/generate/os_abstraction/src\r_os_abstraction_api.c ****         return;
 240:D:/Work/DeviceTester/amazon-freertos/lib/third_party/mcu_vendor/renesas/rz_mcu_boards/core_package/generate/os_abstraction/src\r_os_abstraction_api.c ****     }
 241:D:/Work/DeviceTester/amazon-freertos/lib/third_party/mcu_vendor/renesas/rz_mcu_boards/core_package/generate/os_abstraction/src\r_os_abstraction_api.c **** 
 242:D:/Work/DeviceTester/amazon-freertos/lib/third_party/mcu_vendor/renesas/rz_mcu_boards/core_package/generate/os_abstraction/src\r_os_abstraction_api.c ****     /* prevent multiple access in assert */
 243:D:/Work/DeviceTester/amazon-freertos/lib/third_party/mcu_vendor/renesas/rz_mcu_boards/core_package/generate/os_abstraction/src\r_os_abstraction_api.c ****     s_log_readback_running = 1u;
 244:D:/Work/DeviceTester/amazon-freertos/lib/third_party/mcu_vendor/renesas/rz_mcu_boards/core_package/generate/os_abstraction/src\r_os_abstraction_api.c **** 
 245:D:/Work/DeviceTester/amazon-freertos/lib/third_party/mcu_vendor/renesas/rz_mcu_boards/core_package/generate/os_abstraction/src\r_os_abstraction_api.c ****     if (sp_log_tail < sp_log_head)
 246:D:/Work/DeviceTester/amazon-freertos/lib/third_party/mcu_vendor/renesas/rz_mcu_boards/core_package/generate/os_abstraction/src\r_os_abstraction_api.c ****     {
 247:D:/Work/DeviceTester/amazon-freertos/lib/third_party/mcu_vendor/renesas/rz_mcu_boards/core_package/generate/os_abstraction/src\r_os_abstraction_api.c ****         /* not overlapped. can just printf */
 248:D:/Work/DeviceTester/amazon-freertos/lib/third_party/mcu_vendor/renesas/rz_mcu_boards/core_package/generate/os_abstraction/src\r_os_abstraction_api.c ****         *(sp_log_head + 1) = 0;
 249:D:/Work/DeviceTester/amazon-freertos/lib/third_party/mcu_vendor/renesas/rz_mcu_boards/core_package/generate/os_abstraction/src\r_os_abstraction_api.c **** 
 250:D:/Work/DeviceTester/amazon-freertos/lib/third_party/mcu_vendor/renesas/rz_mcu_boards/core_package/generate/os_abstraction/src\r_os_abstraction_api.c ****         /* cast to remove volatile qualifier */
 251:D:/Work/DeviceTester/amazon-freertos/lib/third_party/mcu_vendor/renesas/rz_mcu_boards/core_package/generate/os_abstraction/src\r_os_abstraction_api.c ****         printf((char *) sp_log_tail);
 252:D:/Work/DeviceTester/amazon-freertos/lib/third_party/mcu_vendor/renesas/rz_mcu_boards/core_package/generate/os_abstraction/src\r_os_abstraction_api.c ****     }
 253:D:/Work/DeviceTester/amazon-freertos/lib/third_party/mcu_vendor/renesas/rz_mcu_boards/core_package/generate/os_abstraction/src\r_os_abstraction_api.c ****     else
 254:D:/Work/DeviceTester/amazon-freertos/lib/third_party/mcu_vendor/renesas/rz_mcu_boards/core_package/generate/os_abstraction/src\r_os_abstraction_api.c ****     {
 255:D:/Work/DeviceTester/amazon-freertos/lib/third_party/mcu_vendor/renesas/rz_mcu_boards/core_package/generate/os_abstraction/src\r_os_abstraction_api.c ****         /* overlapped. print up to top of buffer */
 256:D:/Work/DeviceTester/amazon-freertos/lib/third_party/mcu_vendor/renesas/rz_mcu_boards/core_package/generate/os_abstraction/src\r_os_abstraction_api.c ****         /* not overlapped. can just printf */
 257:D:/Work/DeviceTester/amazon-freertos/lib/third_party/mcu_vendor/renesas/rz_mcu_boards/core_package/generate/os_abstraction/src\r_os_abstraction_api.c ****         s_log_data[LOG_DATA_DUMP_SIZE_PRV_] = 0;
 258:D:/Work/DeviceTester/amazon-freertos/lib/third_party/mcu_vendor/renesas/rz_mcu_boards/core_package/generate/os_abstraction/src\r_os_abstraction_api.c **** 
 259:D:/Work/DeviceTester/amazon-freertos/lib/third_party/mcu_vendor/renesas/rz_mcu_boards/core_package/generate/os_abstraction/src\r_os_abstraction_api.c ****         /* cast to remove volatile qualifier */
 260:D:/Work/DeviceTester/amazon-freertos/lib/third_party/mcu_vendor/renesas/rz_mcu_boards/core_package/generate/os_abstraction/src\r_os_abstraction_api.c ****         printf((char *) sp_log_tail);
 261:D:/Work/DeviceTester/amazon-freertos/lib/third_party/mcu_vendor/renesas/rz_mcu_boards/core_package/generate/os_abstraction/src\r_os_abstraction_api.c **** 
 262:D:/Work/DeviceTester/amazon-freertos/lib/third_party/mcu_vendor/renesas/rz_mcu_boards/core_package/generate/os_abstraction/src\r_os_abstraction_api.c ****         /* not overlapped. can just printf */
 263:D:/Work/DeviceTester/amazon-freertos/lib/third_party/mcu_vendor/renesas/rz_mcu_boards/core_package/generate/os_abstraction/src\r_os_abstraction_api.c ****         *(sp_log_head + 1) = 0;
 264:D:/Work/DeviceTester/amazon-freertos/lib/third_party/mcu_vendor/renesas/rz_mcu_boards/core_package/generate/os_abstraction/src\r_os_abstraction_api.c **** 
 265:D:/Work/DeviceTester/amazon-freertos/lib/third_party/mcu_vendor/renesas/rz_mcu_boards/core_package/generate/os_abstraction/src\r_os_abstraction_api.c ****         /* cast to remove volatile qualifier */
 266:D:/Work/DeviceTester/amazon-freertos/lib/third_party/mcu_vendor/renesas/rz_mcu_boards/core_package/generate/os_abstraction/src\r_os_abstraction_api.c ****         printf((char *) s_log_data);
 267:D:/Work/DeviceTester/amazon-freertos/lib/third_party/mcu_vendor/renesas/rz_mcu_boards/core_package/generate/os_abstraction/src\r_os_abstraction_api.c ****     }
 268:D:/Work/DeviceTester/amazon-freertos/lib/third_party/mcu_vendor/renesas/rz_mcu_boards/core_package/generate/os_abstraction/src\r_os_abstraction_api.c **** 
 269:D:/Work/DeviceTester/amazon-freertos/lib/third_party/mcu_vendor/renesas/rz_mcu_boards/core_package/generate/os_abstraction/src\r_os_abstraction_api.c ****     /* empty buffer */
 270:D:/Work/DeviceTester/amazon-freertos/lib/third_party/mcu_vendor/renesas/rz_mcu_boards/core_package/generate/os_abstraction/src\r_os_abstraction_api.c ****     sp_log_head = s_log_data;
 271:D:/Work/DeviceTester/amazon-freertos/lib/third_party/mcu_vendor/renesas/rz_mcu_boards/core_package/generate/os_abstraction/src\r_os_abstraction_api.c ****     sp_log_tail = s_log_data;
 272:D:/Work/DeviceTester/amazon-freertos/lib/third_party/mcu_vendor/renesas/rz_mcu_boards/core_package/generate/os_abstraction/src\r_os_abstraction_api.c **** 
 273:D:/Work/DeviceTester/amazon-freertos/lib/third_party/mcu_vendor/renesas/rz_mcu_boards/core_package/generate/os_abstraction/src\r_os_abstraction_api.c ****     /* reset multiple access */
 274:D:/Work/DeviceTester/amazon-freertos/lib/third_party/mcu_vendor/renesas/rz_mcu_boards/core_package/generate/os_abstraction/src\r_os_abstraction_api.c ****     s_log_readback_running = 0u;
 275:D:/Work/DeviceTester/amazon-freertos/lib/third_party/mcu_vendor/renesas/rz_mcu_boards/core_package/generate/os_abstraction/src\r_os_abstraction_api.c **** }
 276:D:/Work/DeviceTester/amazon-freertos/lib/third_party/mcu_vendor/renesas/rz_mcu_boards/core_package/generate/os_abstraction/src\r_os_abstraction_api.c **** /**************************************************************************************************
 277:D:/Work/DeviceTester/amazon-freertos/lib/third_party/mcu_vendor/renesas/rz_mcu_boards/core_package/generate/os_abstraction/src\r_os_abstraction_api.c ****  End of function log_write_data_to_console
 278:D:/Work/DeviceTester/amazon-freertos/lib/third_party/mcu_vendor/renesas/rz_mcu_boards/core_package/generate/os_abstraction/src\r_os_abstraction_api.c ****  **************************************************************************************************
 279:D:/Work/DeviceTester/amazon-freertos/lib/third_party/mcu_vendor/renesas/rz_mcu_boards/core_package/generate/os_abstraction/src\r_os_abstraction_api.c **** 
 280:D:/Work/DeviceTester/amazon-freertos/lib/third_party/mcu_vendor/renesas/rz_mcu_boards/core_package/generate/os_abstraction/src\r_os_abstraction_api.c **** #endif /* LOG_TASK_INFO */
 281:D:/Work/DeviceTester/amazon-freertos/lib/third_party/mcu_vendor/renesas/rz_mcu_boards/core_package/generate/os_abstraction/src\r_os_abstraction_api.c **** 
 282:D:/Work/DeviceTester/amazon-freertos/lib/third_party/mcu_vendor/renesas/rz_mcu_boards/core_package/generate/os_abstraction/src\r_os_abstraction_api.c **** /**************************************************************************************************
 283:D:/Work/DeviceTester/amazon-freertos/lib/third_party/mcu_vendor/renesas/rz_mcu_boards/core_package/generate/os_abstraction/src\r_os_abstraction_api.c ****  * Function Name: main_task
 284:D:/Work/DeviceTester/amazon-freertos/lib/third_party/mcu_vendor/renesas/rz_mcu_boards/core_package/generate/os_abstraction/src\r_os_abstraction_api.c ****  * Description  : The main task, performs any ramining initialisation and call
 285:D:/Work/DeviceTester/amazon-freertos/lib/third_party/mcu_vendor/renesas/rz_mcu_boards/core_package/generate/os_abstraction/src\r_os_abstraction_api.c ****  *                the user level function main().
 286:D:/Work/DeviceTester/amazon-freertos/lib/third_party/mcu_vendor/renesas/rz_mcu_boards/core_package/generate/os_abstraction/src\r_os_abstraction_api.c ****  * Arguments    : none
 287:D:/Work/DeviceTester/amazon-freertos/lib/third_party/mcu_vendor/renesas/rz_mcu_boards/core_package/generate/os_abstraction/src\r_os_abstraction_api.c ****  * Return Value : none
 288:D:/Work/DeviceTester/amazon-freertos/lib/third_party/mcu_vendor/renesas/rz_mcu_boards/core_package/generate/os_abstraction/src\r_os_abstraction_api.c ****  **************************************************************************************************
 289:D:/Work/DeviceTester/amazon-freertos/lib/third_party/mcu_vendor/renesas/rz_mcu_boards/core_package/generate/os_abstraction/src\r_os_abstraction_api.c **** static void main_task (void)
 290:D:/Work/DeviceTester/amazon-freertos/lib/third_party/mcu_vendor/renesas/rz_mcu_boards/core_package/generate/os_abstraction/src\r_os_abstraction_api.c **** {
  25              		.loc 1 290 0
  26              		.cfi_startproc
  27              		@ Volatile: function does not return.
  28              		@ args = 0, pretend = 0, frame = 0
  29              		@ frame_needed = 0, uses_anonymous_args = 0
 291:D:/Work/DeviceTester/amazon-freertos/lib/third_party/mcu_vendor/renesas/rz_mcu_boards/core_package/generate/os_abstraction/src\r_os_abstraction_api.c **** 	s_os_running = true;
  30              		.loc 1 291 0
  31 0000 10309FE5 		ldr	r3, .L4
  32 0004 0120A0E3 		mov	r2, #1
 290:D:/Work/DeviceTester/amazon-freertos/lib/third_party/mcu_vendor/renesas/rz_mcu_boards/core_package/generate/os_abstraction/src\r_os_abstraction_api.c **** 	s_os_running = true;
  33              		.loc 1 290 0
  34 0008 10402DE9 		push	{r4, lr}
  35              		.cfi_def_cfa_offset 8
  36              		.cfi_offset 4, -8
  37              		.cfi_offset 14, -4
  38              		.loc 1 291 0
  39 000c 002083E5 		str	r2, [r3]
 292:D:/Work/DeviceTester/amazon-freertos/lib/third_party/mcu_vendor/renesas/rz_mcu_boards/core_package/generate/os_abstraction/src\r_os_abstraction_api.c **** 
 293:D:/Work/DeviceTester/amazon-freertos/lib/third_party/mcu_vendor/renesas/rz_mcu_boards/core_package/generate/os_abstraction/src\r_os_abstraction_api.c ****     /* Call application main function which shouldn't return */
 294:D:/Work/DeviceTester/amazon-freertos/lib/third_party/mcu_vendor/renesas/rz_mcu_boards/core_package/generate/os_abstraction/src\r_os_abstraction_api.c ****     extern int_t os_main_task_t (void);
 295:D:/Work/DeviceTester/amazon-freertos/lib/third_party/mcu_vendor/renesas/rz_mcu_boards/core_package/generate/os_abstraction/src\r_os_abstraction_api.c ****     os_main_task_t();
  40              		.loc 1 295 0
  41 0010 FEFFFFEB 		bl	os_main_task_t
  42              	.LVL0:
  43              	.L2:
  44 0014 FEFFFFEA 		b	.L2
  45              	.L5:
  46              		.align	2
  47              	.L4:
  48 0018 00000000 		.word	.LANCHOR0
  49              		.cfi_endproc
  50              	.LFE5:
  52              		.section	.text.pvPortsetDesiredBlockForMalloc,"ax",%progbits
  53              		.align	2
  54              		.weak	pvPortsetDesiredBlockForMalloc
  55              		.syntax unified
  56              		.arm
  57              		.fpu neon
  59              	pvPortsetDesiredBlockForMalloc:
  60              	.LFB4:
 158:D:/Work/DeviceTester/amazon-freertos/lib/third_party/mcu_vendor/renesas/rz_mcu_boards/core_package/generate/os_abstraction/src\r_os_abstraction_api.c **** 	UNUSED_PARAM(xWantedBlock);
  61              		.loc 1 158 0
  62              		.cfi_startproc
  63              		@ args = 0, pretend = 0, frame = 0
  64              		@ frame_needed = 0, uses_anonymous_args = 0
  65              		@ link register save eliminated.
  66              	.LVL1:
  67              	.LBB12:
  68              	.LBB13:
  69              		.file 2 "D:\\Work\\DeviceTester\\amazon-freertos\\lib\\third_party\\mcu_vendor\\renesas\\rz_mcu_bo
   1:D:\Work\DeviceTester\amazon-freertos\lib\third_party\mcu_vendor\renesas\rz_mcu_boards\core_package\generate\compiler\inc\r_compiler_abstraction_api.h **** /**************************************************************************************************
   2:D:\Work\DeviceTester\amazon-freertos\lib\third_party\mcu_vendor\renesas\rz_mcu_boards\core_package\generate\compiler\inc\r_compiler_abstraction_api.h ****  * DISCLAIMER
   3:D:\Work\DeviceTester\amazon-freertos\lib\third_party\mcu_vendor\renesas\rz_mcu_boards\core_package\generate\compiler\inc\r_compiler_abstraction_api.h ****  * This software is supplied by Renesas Electronics Corporation and is only intended for use with R
   4:D:\Work\DeviceTester\amazon-freertos\lib\third_party\mcu_vendor\renesas\rz_mcu_boards\core_package\generate\compiler\inc\r_compiler_abstraction_api.h ****  * other uses are authorized. This software is owned by Renesas Electronics Corporation and is prot
   5:D:\Work\DeviceTester\amazon-freertos\lib\third_party\mcu_vendor\renesas\rz_mcu_boards\core_package\generate\compiler\inc\r_compiler_abstraction_api.h ****  * applicable laws, including copyright laws.
   6:D:\Work\DeviceTester\amazon-freertos\lib\third_party\mcu_vendor\renesas\rz_mcu_boards\core_package\generate\compiler\inc\r_compiler_abstraction_api.h ****  * THIS SOFTWARE IS PROVIDED "AS IS" AND RENESAS MAKES NO WARRANTIES REGARDING
   7:D:\Work\DeviceTester\amazon-freertos\lib\third_party\mcu_vendor\renesas\rz_mcu_boards\core_package\generate\compiler\inc\r_compiler_abstraction_api.h ****  * THIS SOFTWARE, WHETHER EXPRESS, IMPLIED OR STATUTORY, INCLUDING BUT NOT LIMITED TO WARRANTIES OF
   8:D:\Work\DeviceTester\amazon-freertos\lib\third_party\mcu_vendor\renesas\rz_mcu_boards\core_package\generate\compiler\inc\r_compiler_abstraction_api.h ****  * FITNESS FOR A PARTICULAR PURPOSE AND NON-INFRINGEMENT. ALL SUCH WARRANTIES ARE EXPRESSLY DISCLAI
   9:D:\Work\DeviceTester\amazon-freertos\lib\third_party\mcu_vendor\renesas\rz_mcu_boards\core_package\generate\compiler\inc\r_compiler_abstraction_api.h ****  * EXTENT PERMITTED NOT PROHIBITED BY LAW, NEITHER RENESAS ELECTRONICS CORPORATION NOR ANY OF ITS A
  10:D:\Work\DeviceTester\amazon-freertos\lib\third_party\mcu_vendor\renesas\rz_mcu_boards\core_package\generate\compiler\inc\r_compiler_abstraction_api.h ****  * SHALL BE LIABLE FOR ANY DIRECT, INDIRECT, SPECIAL, INCIDENTAL OR CONSEQUENTIAL DAMAGES FOR ANY R
  11:D:\Work\DeviceTester\amazon-freertos\lib\third_party\mcu_vendor\renesas\rz_mcu_boards\core_package\generate\compiler\inc\r_compiler_abstraction_api.h ****  * SOFTWARE, EVEN IF RENESAS OR ITS AFFILIATES HAVE BEEN ADVISED OF THE POSSIBILITY OF SUCH DAMAGES
  12:D:\Work\DeviceTester\amazon-freertos\lib\third_party\mcu_vendor\renesas\rz_mcu_boards\core_package\generate\compiler\inc\r_compiler_abstraction_api.h ****  * Renesas reserves the right, without notice, to make changes to this software and to discontinue 
  13:D:\Work\DeviceTester\amazon-freertos\lib\third_party\mcu_vendor\renesas\rz_mcu_boards\core_package\generate\compiler\inc\r_compiler_abstraction_api.h ****  * this software. By using this software, you agree to the additional terms and conditions found by
  14:D:\Work\DeviceTester\amazon-freertos\lib\third_party\mcu_vendor\renesas\rz_mcu_boards\core_package\generate\compiler\inc\r_compiler_abstraction_api.h ****  * following link:
  15:D:\Work\DeviceTester\amazon-freertos\lib\third_party\mcu_vendor\renesas\rz_mcu_boards\core_package\generate\compiler\inc\r_compiler_abstraction_api.h ****  * http://www.renesas.com/disclaimer
  16:D:\Work\DeviceTester\amazon-freertos\lib\third_party\mcu_vendor\renesas\rz_mcu_boards\core_package\generate\compiler\inc\r_compiler_abstraction_api.h ****  *
  17:D:\Work\DeviceTester\amazon-freertos\lib\third_party\mcu_vendor\renesas\rz_mcu_boards\core_package\generate\compiler\inc\r_compiler_abstraction_api.h ****  * Copyright (C) 2020 Renesas Electronics Corporation. All rights reserved.
  18:D:\Work\DeviceTester\amazon-freertos\lib\third_party\mcu_vendor\renesas\rz_mcu_boards\core_package\generate\compiler\inc\r_compiler_abstraction_api.h ****  **************************************************************************************************
  19:D:\Work\DeviceTester\amazon-freertos\lib\third_party\mcu_vendor\renesas\rz_mcu_boards\core_package\generate\compiler\inc\r_compiler_abstraction_api.h **** /**************************************************************************************************
  20:D:\Work\DeviceTester\amazon-freertos\lib\third_party\mcu_vendor\renesas\rz_mcu_boards\core_package\generate\compiler\inc\r_compiler_abstraction_api.h ****  * File Name    : r_compiler_abstraction_api.h
  21:D:\Work\DeviceTester\amazon-freertos\lib\third_party\mcu_vendor\renesas\rz_mcu_boards\core_package\generate\compiler\inc\r_compiler_abstraction_api.h ****  * Description  : Provides a common API for frequently used compiler specific operations
  22:D:\Work\DeviceTester\amazon-freertos\lib\third_party\mcu_vendor\renesas\rz_mcu_boards\core_package\generate\compiler\inc\r_compiler_abstraction_api.h ****  **************************************************************************************************
  23:D:\Work\DeviceTester\amazon-freertos\lib\third_party\mcu_vendor\renesas\rz_mcu_boards\core_package\generate\compiler\inc\r_compiler_abstraction_api.h **** #include  "r_typedefs.h"
  24:D:\Work\DeviceTester\amazon-freertos\lib\third_party\mcu_vendor\renesas\rz_mcu_boards\core_package\generate\compiler\inc\r_compiler_abstraction_api.h **** 
  25:D:\Work\DeviceTester\amazon-freertos\lib\third_party\mcu_vendor\renesas\rz_mcu_boards\core_package\generate\compiler\inc\r_compiler_abstraction_api.h **** #ifndef SRC_PRV_RENESAS_COMPILER_INC_R_COMPILER_ABSTRACTION_API_H_
  26:D:\Work\DeviceTester\amazon-freertos\lib\third_party\mcu_vendor\renesas\rz_mcu_boards\core_package\generate\compiler\inc\r_compiler_abstraction_api.h **** #define SRC_PRV_RENESAS_COMPILER_INC_R_COMPILER_ABSTRACTION_API_H_
  27:D:\Work\DeviceTester\amazon-freertos\lib\third_party\mcu_vendor\renesas\rz_mcu_boards\core_package\generate\compiler\inc\r_compiler_abstraction_api.h **** 
  28:D:\Work\DeviceTester\amazon-freertos\lib\third_party\mcu_vendor\renesas\rz_mcu_boards\core_package\generate\compiler\inc\r_compiler_abstraction_api.h **** /* Macro is used to declare linkage to a function as weak so that it can be overridden by a normall
  29:D:\Work\DeviceTester\amazon-freertos\lib\third_party\mcu_vendor\renesas\rz_mcu_boards\core_package\generate\compiler\inc\r_compiler_abstraction_api.h ****  * Update this when using a different compiler. */
  30:D:\Work\DeviceTester\amazon-freertos\lib\third_party\mcu_vendor\renesas\rz_mcu_boards\core_package\generate\compiler\inc\r_compiler_abstraction_api.h **** #define R_COMPILER_WEAK __attribute__((weak))
  31:D:\Work\DeviceTester\amazon-freertos\lib\third_party\mcu_vendor\renesas\rz_mcu_boards\core_package\generate\compiler\inc\r_compiler_abstraction_api.h **** 
  32:D:\Work\DeviceTester\amazon-freertos\lib\third_party\mcu_vendor\renesas\rz_mcu_boards\core_package\generate\compiler\inc\r_compiler_abstraction_api.h **** #define R_COMPILER_INLINE static inline
  33:D:\Work\DeviceTester\amazon-freertos\lib\third_party\mcu_vendor\renesas\rz_mcu_boards\core_package\generate\compiler\inc\r_compiler_abstraction_api.h **** 
  34:D:\Work\DeviceTester\amazon-freertos\lib\third_party\mcu_vendor\renesas\rz_mcu_boards\core_package\generate\compiler\inc\r_compiler_abstraction_api.h **** extern void __enable_irq (void);
  35:D:\Work\DeviceTester\amazon-freertos\lib\third_party\mcu_vendor\renesas\rz_mcu_boards\core_package\generate\compiler\inc\r_compiler_abstraction_api.h **** extern uint32_t __disable_irq (void);
  36:D:\Work\DeviceTester\amazon-freertos\lib\third_party\mcu_vendor\renesas\rz_mcu_boards\core_package\generate\compiler\inc\r_compiler_abstraction_api.h **** extern void __enable_fiq (void);
  37:D:\Work\DeviceTester\amazon-freertos\lib\third_party\mcu_vendor\renesas\rz_mcu_boards\core_package\generate\compiler\inc\r_compiler_abstraction_api.h **** extern void __disable_fiq (void);
  38:D:\Work\DeviceTester\amazon-freertos\lib\third_party\mcu_vendor\renesas\rz_mcu_boards\core_package\generate\compiler\inc\r_compiler_abstraction_api.h **** 
  39:D:\Work\DeviceTester\amazon-freertos\lib\third_party\mcu_vendor\renesas\rz_mcu_boards\core_package\generate\compiler\inc\r_compiler_abstraction_api.h **** /**************************************************************************************************
  40:D:\Work\DeviceTester\amazon-freertos\lib\third_party\mcu_vendor\renesas\rz_mcu_boards\core_package\generate\compiler\inc\r_compiler_abstraction_api.h ****  * Function Name: R_COMPILER_Nop
  41:D:\Work\DeviceTester\amazon-freertos\lib\third_party\mcu_vendor\renesas\rz_mcu_boards\core_package\generate\compiler\inc\r_compiler_abstraction_api.h ****  * Description  : Abstracting a compiler No Operation opcode into a C function. Update this when us
  42:D:\Work\DeviceTester\amazon-freertos\lib\third_party\mcu_vendor\renesas\rz_mcu_boards\core_package\generate\compiler\inc\r_compiler_abstraction_api.h ****  *                compiler.
  43:D:\Work\DeviceTester\amazon-freertos\lib\third_party\mcu_vendor\renesas\rz_mcu_boards\core_package\generate\compiler\inc\r_compiler_abstraction_api.h ****  * Return Value : None.
  44:D:\Work\DeviceTester\amazon-freertos\lib\third_party\mcu_vendor\renesas\rz_mcu_boards\core_package\generate\compiler\inc\r_compiler_abstraction_api.h ****  **************************************************************************************************
  45:D:\Work\DeviceTester\amazon-freertos\lib\third_party\mcu_vendor\renesas\rz_mcu_boards\core_package\generate\compiler\inc\r_compiler_abstraction_api.h **** R_COMPILER_INLINE void R_COMPILER_Nop (void)
  46:D:\Work\DeviceTester\amazon-freertos\lib\third_party\mcu_vendor\renesas\rz_mcu_boards\core_package\generate\compiler\inc\r_compiler_abstraction_api.h ****     {
  47:D:\Work\DeviceTester\amazon-freertos\lib\third_party\mcu_vendor\renesas\rz_mcu_boards\core_package\generate\compiler\inc\r_compiler_abstraction_api.h ****         __asm volatile ("nop");
  70              		.loc 2 47 0
  71              		.syntax divided
  72              	@ 47 "D:\Work\DeviceTester\amazon-freertos\lib\third_party\mcu_vendor\renesas\rz_mcu_boards\core_pa
  73 0000 00F020E3 		nop
  74              	@ 0 "" 2
  75              		.arm
  76              		.syntax unified
  77 0004 1EFF2FE1 		bx	lr
  78              	.LBE13:
  79              	.LBE12:
  80              		.cfi_endproc
  81              	.LFE4:
  83              		.section	.text.R_OS_AbstractionLayerShutdown,"ax",%progbits
  84              		.align	2
  85              		.global	R_OS_AbstractionLayerShutdown
  86              		.syntax unified
  87              		.arm
  88              		.fpu neon
  90              	R_OS_AbstractionLayerShutdown:
  91              	.LFB7:
 296:D:/Work/DeviceTester/amazon-freertos/lib/third_party/mcu_vendor/renesas/rz_mcu_boards/core_package/generate/os_abstraction/src\r_os_abstraction_api.c **** 
 297:D:/Work/DeviceTester/amazon-freertos/lib/third_party/mcu_vendor/renesas/rz_mcu_boards/core_package/generate/os_abstraction/src\r_os_abstraction_api.c ****     /* Guard here to protect the system if main returns */
 298:D:/Work/DeviceTester/amazon-freertos/lib/third_party/mcu_vendor/renesas/rz_mcu_boards/core_package/generate/os_abstraction/src\r_os_abstraction_api.c ****     while (1)
 299:D:/Work/DeviceTester/amazon-freertos/lib/third_party/mcu_vendor/renesas/rz_mcu_boards/core_package/generate/os_abstraction/src\r_os_abstraction_api.c ****     {
 300:D:/Work/DeviceTester/amazon-freertos/lib/third_party/mcu_vendor/renesas/rz_mcu_boards/core_package/generate/os_abstraction/src\r_os_abstraction_api.c ****         /* Stops program from running off */
 301:D:/Work/DeviceTester/amazon-freertos/lib/third_party/mcu_vendor/renesas/rz_mcu_boards/core_package/generate/os_abstraction/src\r_os_abstraction_api.c ****         ;
 302:D:/Work/DeviceTester/amazon-freertos/lib/third_party/mcu_vendor/renesas/rz_mcu_boards/core_package/generate/os_abstraction/src\r_os_abstraction_api.c ****     }
 303:D:/Work/DeviceTester/amazon-freertos/lib/third_party/mcu_vendor/renesas/rz_mcu_boards/core_package/generate/os_abstraction/src\r_os_abstraction_api.c **** }
 304:D:/Work/DeviceTester/amazon-freertos/lib/third_party/mcu_vendor/renesas/rz_mcu_boards/core_package/generate/os_abstraction/src\r_os_abstraction_api.c **** /**************************************************************************************************
 305:D:/Work/DeviceTester/amazon-freertos/lib/third_party/mcu_vendor/renesas/rz_mcu_boards/core_package/generate/os_abstraction/src\r_os_abstraction_api.c ****  End of function  main_task
 306:D:/Work/DeviceTester/amazon-freertos/lib/third_party/mcu_vendor/renesas/rz_mcu_boards/core_package/generate/os_abstraction/src\r_os_abstraction_api.c ****  **************************************************************************************************
 307:D:/Work/DeviceTester/amazon-freertos/lib/third_party/mcu_vendor/renesas/rz_mcu_boards/core_package/generate/os_abstraction/src\r_os_abstraction_api.c **** 
 308:D:/Work/DeviceTester/amazon-freertos/lib/third_party/mcu_vendor/renesas/rz_mcu_boards/core_package/generate/os_abstraction/src\r_os_abstraction_api.c **** /**************************************************************************************************
 309:D:/Work/DeviceTester/amazon-freertos/lib/third_party/mcu_vendor/renesas/rz_mcu_boards/core_package/generate/os_abstraction/src\r_os_abstraction_api.c ****  * Function Name: R_OS_AbstractionLayerInit
 310:D:/Work/DeviceTester/amazon-freertos/lib/third_party/mcu_vendor/renesas/rz_mcu_boards/core_package/generate/os_abstraction/src\r_os_abstraction_api.c ****  * Description  : Function to configure critical resources for the connected
 311:D:/Work/DeviceTester/amazon-freertos/lib/third_party/mcu_vendor/renesas/rz_mcu_boards/core_package/generate/os_abstraction/src\r_os_abstraction_api.c ****  *                OS or scheduler.
 312:D:/Work/DeviceTester/amazon-freertos/lib/third_party/mcu_vendor/renesas/rz_mcu_boards/core_package/generate/os_abstraction/src\r_os_abstraction_api.c ****  * Arguments    : void
 313:D:/Work/DeviceTester/amazon-freertos/lib/third_party/mcu_vendor/renesas/rz_mcu_boards/core_package/generate/os_abstraction/src\r_os_abstraction_api.c ****  * Return Value : true if there were no errors when initialising the Layer.
 314:D:/Work/DeviceTester/amazon-freertos/lib/third_party/mcu_vendor/renesas/rz_mcu_boards/core_package/generate/os_abstraction/src\r_os_abstraction_api.c ****  *                false if there errors when initialising the Layer.
 315:D:/Work/DeviceTester/amazon-freertos/lib/third_party/mcu_vendor/renesas/rz_mcu_boards/core_package/generate/os_abstraction/src\r_os_abstraction_api.c ****  *****************************************************************************/
 316:D:/Work/DeviceTester/amazon-freertos/lib/third_party/mcu_vendor/renesas/rz_mcu_boards/core_package/generate/os_abstraction/src\r_os_abstraction_api.c **** bool_t R_OS_AbstractionLayerInit (void)
 317:D:/Work/DeviceTester/amazon-freertos/lib/third_party/mcu_vendor/renesas/rz_mcu_boards/core_package/generate/os_abstraction/src\r_os_abstraction_api.c **** {
 318:D:/Work/DeviceTester/amazon-freertos/lib/third_party/mcu_vendor/renesas/rz_mcu_boards/core_package/generate/os_abstraction/src\r_os_abstraction_api.c ****     bool_t ready = true;
 319:D:/Work/DeviceTester/amazon-freertos/lib/third_party/mcu_vendor/renesas/rz_mcu_boards/core_package/generate/os_abstraction/src\r_os_abstraction_api.c **** 
 320:D:/Work/DeviceTester/amazon-freertos/lib/third_party/mcu_vendor/renesas/rz_mcu_boards/core_package/generate/os_abstraction/src\r_os_abstraction_api.c ****     R_OS_KernelInit();
 321:D:/Work/DeviceTester/amazon-freertos/lib/third_party/mcu_vendor/renesas/rz_mcu_boards/core_package/generate/os_abstraction/src\r_os_abstraction_api.c **** 
 322:D:/Work/DeviceTester/amazon-freertos/lib/third_party/mcu_vendor/renesas/rz_mcu_boards/core_package/generate/os_abstraction/src\r_os_abstraction_api.c ****     return (ready);
 323:D:/Work/DeviceTester/amazon-freertos/lib/third_party/mcu_vendor/renesas/rz_mcu_boards/core_package/generate/os_abstraction/src\r_os_abstraction_api.c **** }
 324:D:/Work/DeviceTester/amazon-freertos/lib/third_party/mcu_vendor/renesas/rz_mcu_boards/core_package/generate/os_abstraction/src\r_os_abstraction_api.c **** /**************************************************************************************************
 325:D:/Work/DeviceTester/amazon-freertos/lib/third_party/mcu_vendor/renesas/rz_mcu_boards/core_package/generate/os_abstraction/src\r_os_abstraction_api.c ****  End of function R_OS_AbstractionLayerInit
 326:D:/Work/DeviceTester/amazon-freertos/lib/third_party/mcu_vendor/renesas/rz_mcu_boards/core_package/generate/os_abstraction/src\r_os_abstraction_api.c ****  **************************************************************************************************
 327:D:/Work/DeviceTester/amazon-freertos/lib/third_party/mcu_vendor/renesas/rz_mcu_boards/core_package/generate/os_abstraction/src\r_os_abstraction_api.c **** 
 328:D:/Work/DeviceTester/amazon-freertos/lib/third_party/mcu_vendor/renesas/rz_mcu_boards/core_package/generate/os_abstraction/src\r_os_abstraction_api.c **** /**************************************************************************************************
 329:D:/Work/DeviceTester/amazon-freertos/lib/third_party/mcu_vendor/renesas/rz_mcu_boards/core_package/generate/os_abstraction/src\r_os_abstraction_api.c ****  * Function Name: R_OS_AbstractionLayerShutdown
 330:D:/Work/DeviceTester/amazon-freertos/lib/third_party/mcu_vendor/renesas/rz_mcu_boards/core_package/generate/os_abstraction/src\r_os_abstraction_api.c ****  * Description  : Function to release critical resources for the connected
 331:D:/Work/DeviceTester/amazon-freertos/lib/third_party/mcu_vendor/renesas/rz_mcu_boards/core_package/generate/os_abstraction/src\r_os_abstraction_api.c ****  *                OS or scheduler.
 332:D:/Work/DeviceTester/amazon-freertos/lib/third_party/mcu_vendor/renesas/rz_mcu_boards/core_package/generate/os_abstraction/src\r_os_abstraction_api.c ****  * Arguments    : void
 333:D:/Work/DeviceTester/amazon-freertos/lib/third_party/mcu_vendor/renesas/rz_mcu_boards/core_package/generate/os_abstraction/src\r_os_abstraction_api.c ****  * Return Value : true if there were no errors when closing the Layer.
 334:D:/Work/DeviceTester/amazon-freertos/lib/third_party/mcu_vendor/renesas/rz_mcu_boards/core_package/generate/os_abstraction/src\r_os_abstraction_api.c ****  *                false if there errors when closing the Layer.
 335:D:/Work/DeviceTester/amazon-freertos/lib/third_party/mcu_vendor/renesas/rz_mcu_boards/core_package/generate/os_abstraction/src\r_os_abstraction_api.c ****  *****************************************************************************/
 336:D:/Work/DeviceTester/amazon-freertos/lib/third_party/mcu_vendor/renesas/rz_mcu_boards/core_package/generate/os_abstraction/src\r_os_abstraction_api.c **** bool_t R_OS_AbstractionLayerShutdown (void)
 337:D:/Work/DeviceTester/amazon-freertos/lib/third_party/mcu_vendor/renesas/rz_mcu_boards/core_package/generate/os_abstraction/src\r_os_abstraction_api.c **** {
  92              		.loc 1 337 0
  93              		.cfi_startproc
  94              		@ args = 0, pretend = 0, frame = 0
  95              		@ frame_needed = 0, uses_anonymous_args = 0
  96              	.LVL2:
  97 0000 10402DE9 		push	{r4, lr}
  98              		.cfi_def_cfa_offset 8
  99              		.cfi_offset 4, -8
 100              		.cfi_offset 14, -4
 101              	.LBB14:
 102              	.LBB15:
 338:D:/Work/DeviceTester/amazon-freertos/lib/third_party/mcu_vendor/renesas/rz_mcu_boards/core_package/generate/os_abstraction/src\r_os_abstraction_api.c ****     bool_t ready = true;
 339:D:/Work/DeviceTester/amazon-freertos/lib/third_party/mcu_vendor/renesas/rz_mcu_boards/core_package/generate/os_abstraction/src\r_os_abstraction_api.c **** 
 340:D:/Work/DeviceTester/amazon-freertos/lib/third_party/mcu_vendor/renesas/rz_mcu_boards/core_package/generate/os_abstraction/src\r_os_abstraction_api.c ****     R_OS_KernelStop();
 341:D:/Work/DeviceTester/amazon-freertos/lib/third_party/mcu_vendor/renesas/rz_mcu_boards/core_package/generate/os_abstraction/src\r_os_abstraction_api.c **** 
 342:D:/Work/DeviceTester/amazon-freertos/lib/third_party/mcu_vendor/renesas/rz_mcu_boards/core_package/generate/os_abstraction/src\r_os_abstraction_api.c ****     return (ready);
 343:D:/Work/DeviceTester/amazon-freertos/lib/third_party/mcu_vendor/renesas/rz_mcu_boards/core_package/generate/os_abstraction/src\r_os_abstraction_api.c **** }
 344:D:/Work/DeviceTester/amazon-freertos/lib/third_party/mcu_vendor/renesas/rz_mcu_boards/core_package/generate/os_abstraction/src\r_os_abstraction_api.c **** /**************************************************************************************************
 345:D:/Work/DeviceTester/amazon-freertos/lib/third_party/mcu_vendor/renesas/rz_mcu_boards/core_package/generate/os_abstraction/src\r_os_abstraction_api.c ****  End of function R_OS_AbstractionLayerShutdown
 346:D:/Work/DeviceTester/amazon-freertos/lib/third_party/mcu_vendor/renesas/rz_mcu_boards/core_package/generate/os_abstraction/src\r_os_abstraction_api.c ****  **************************************************************************************************
 347:D:/Work/DeviceTester/amazon-freertos/lib/third_party/mcu_vendor/renesas/rz_mcu_boards/core_package/generate/os_abstraction/src\r_os_abstraction_api.c **** 
 348:D:/Work/DeviceTester/amazon-freertos/lib/third_party/mcu_vendor/renesas/rz_mcu_boards/core_package/generate/os_abstraction/src\r_os_abstraction_api.c **** /**************************************************************************************************
 349:D:/Work/DeviceTester/amazon-freertos/lib/third_party/mcu_vendor/renesas/rz_mcu_boards/core_package/generate/os_abstraction/src\r_os_abstraction_api.c ****  *                                  Kernel API
 350:D:/Work/DeviceTester/amazon-freertos/lib/third_party/mcu_vendor/renesas/rz_mcu_boards/core_package/generate/os_abstraction/src\r_os_abstraction_api.c ****  **************************************************************************************************
 351:D:/Work/DeviceTester/amazon-freertos/lib/third_party/mcu_vendor/renesas/rz_mcu_boards/core_package/generate/os_abstraction/src\r_os_abstraction_api.c **** 
 352:D:/Work/DeviceTester/amazon-freertos/lib/third_party/mcu_vendor/renesas/rz_mcu_boards/core_package/generate/os_abstraction/src\r_os_abstraction_api.c **** /**************************************************************************************************
 353:D:/Work/DeviceTester/amazon-freertos/lib/third_party/mcu_vendor/renesas/rz_mcu_boards/core_package/generate/os_abstraction/src\r_os_abstraction_api.c ****  * Function Name: R_OS_KernelInit
 354:D:/Work/DeviceTester/amazon-freertos/lib/third_party/mcu_vendor/renesas/rz_mcu_boards/core_package/generate/os_abstraction/src\r_os_abstraction_api.c ****  * Description  : Initialise the kernel
 355:D:/Work/DeviceTester/amazon-freertos/lib/third_party/mcu_vendor/renesas/rz_mcu_boards/core_package/generate/os_abstraction/src\r_os_abstraction_api.c ****  * Arguments    : None
 356:D:/Work/DeviceTester/amazon-freertos/lib/third_party/mcu_vendor/renesas/rz_mcu_boards/core_package/generate/os_abstraction/src\r_os_abstraction_api.c ****  * Return Value : None
 357:D:/Work/DeviceTester/amazon-freertos/lib/third_party/mcu_vendor/renesas/rz_mcu_boards/core_package/generate/os_abstraction/src\r_os_abstraction_api.c ****  **************************************************************************************************
 358:D:/Work/DeviceTester/amazon-freertos/lib/third_party/mcu_vendor/renesas/rz_mcu_boards/core_package/generate/os_abstraction/src\r_os_abstraction_api.c **** void R_OS_KernelInit (void)
 359:D:/Work/DeviceTester/amazon-freertos/lib/third_party/mcu_vendor/renesas/rz_mcu_boards/core_package/generate/os_abstraction/src\r_os_abstraction_api.c **** {
 360:D:/Work/DeviceTester/amazon-freertos/lib/third_party/mcu_vendor/renesas/rz_mcu_boards/core_package/generate/os_abstraction/src\r_os_abstraction_api.c ****     /* set default heap */
 361:D:/Work/DeviceTester/amazon-freertos/lib/third_party/mcu_vendor/renesas/rz_mcu_boards/core_package/generate/os_abstraction/src\r_os_abstraction_api.c ****     uint32_t default_heap = R_OS_PRV_DEFAULT_HEAP_PRV_;
 362:D:/Work/DeviceTester/amazon-freertos/lib/third_party/mcu_vendor/renesas/rz_mcu_boards/core_package/generate/os_abstraction/src\r_os_abstraction_api.c ****     uint8_t test_task_created = 0;
 363:D:/Work/DeviceTester/amazon-freertos/lib/third_party/mcu_vendor/renesas/rz_mcu_boards/core_package/generate/os_abstraction/src\r_os_abstraction_api.c **** 
 364:D:/Work/DeviceTester/amazon-freertos/lib/third_party/mcu_vendor/renesas/rz_mcu_boards/core_package/generate/os_abstraction/src\r_os_abstraction_api.c ****     R_OS_InitMemManager();
 365:D:/Work/DeviceTester/amazon-freertos/lib/third_party/mcu_vendor/renesas/rz_mcu_boards/core_package/generate/os_abstraction/src\r_os_abstraction_api.c **** 
 366:D:/Work/DeviceTester/amazon-freertos/lib/third_party/mcu_vendor/renesas/rz_mcu_boards/core_package/generate/os_abstraction/src\r_os_abstraction_api.c ****     R_DEVLINK_Init();
 367:D:/Work/DeviceTester/amazon-freertos/lib/third_party/mcu_vendor/renesas/rz_mcu_boards/core_package/generate/os_abstraction/src\r_os_abstraction_api.c **** 
 368:D:/Work/DeviceTester/amazon-freertos/lib/third_party/mcu_vendor/renesas/rz_mcu_boards/core_package/generate/os_abstraction/src\r_os_abstraction_api.c **** #if R_USE_ANSI_STDIO_MODE_CFG
 369:D:/Work/DeviceTester/amazon-freertos/lib/third_party/mcu_vendor/renesas/rz_mcu_boards/core_package/generate/os_abstraction/src\r_os_abstraction_api.c ****     extern void initialise_monitor_handles _PARAMS ((void));
 370:D:/Work/DeviceTester/amazon-freertos/lib/third_party/mcu_vendor/renesas/rz_mcu_boards/core_package/generate/os_abstraction/src\r_os_abstraction_api.c **** 
 371:D:/Work/DeviceTester/amazon-freertos/lib/third_party/mcu_vendor/renesas/rz_mcu_boards/core_package/generate/os_abstraction/src\r_os_abstraction_api.c ****     initialise_monitor_handles();
 372:D:/Work/DeviceTester/amazon-freertos/lib/third_party/mcu_vendor/renesas/rz_mcu_boards/core_package/generate/os_abstraction/src\r_os_abstraction_api.c **** #endif
 373:D:/Work/DeviceTester/amazon-freertos/lib/third_party/mcu_vendor/renesas/rz_mcu_boards/core_package/generate/os_abstraction/src\r_os_abstraction_api.c **** 
 374:D:/Work/DeviceTester/amazon-freertos/lib/third_party/mcu_vendor/renesas/rz_mcu_boards/core_package/generate/os_abstraction/src\r_os_abstraction_api.c ****     /* Create the main task */
 375:D:/Work/DeviceTester/amazon-freertos/lib/third_party/mcu_vendor/renesas/rz_mcu_boards/core_package/generate/os_abstraction/src\r_os_abstraction_api.c ****     BaseType_t t = xTaskCreate((pdTASK_CODE) main_task,
 376:D:/Work/DeviceTester/amazon-freertos/lib/third_party/mcu_vendor/renesas/rz_mcu_boards/core_package/generate/os_abstraction/src\r_os_abstraction_api.c **** 
 377:D:/Work/DeviceTester/amazon-freertos/lib/third_party/mcu_vendor/renesas/rz_mcu_boards/core_package/generate/os_abstraction/src\r_os_abstraction_api.c ****     /* ASCII human readable name for task */
 378:D:/Work/DeviceTester/amazon-freertos/lib/third_party/mcu_vendor/renesas/rz_mcu_boards/core_package/generate/os_abstraction/src\r_os_abstraction_api.c ****     s_startup_task_name_str,
 379:D:/Work/DeviceTester/amazon-freertos/lib/third_party/mcu_vendor/renesas/rz_mcu_boards/core_package/generate/os_abstraction/src\r_os_abstraction_api.c **** 
 380:D:/Work/DeviceTester/amazon-freertos/lib/third_party/mcu_vendor/renesas/rz_mcu_boards/core_package/generate/os_abstraction/src\r_os_abstraction_api.c ****     /* stack size, should be just big enough as to not waste resources */
 381:D:/Work/DeviceTester/amazon-freertos/lib/third_party/mcu_vendor/renesas/rz_mcu_boards/core_package/generate/os_abstraction/src\r_os_abstraction_api.c **** #ifdef LOG_TASK_INFO
 382:D:/Work/DeviceTester/amazon-freertos/lib/third_party/mcu_vendor/renesas/rz_mcu_boards/core_package/generate/os_abstraction/src\r_os_abstraction_api.c ****             R_OS_PRV_HUGE_STACK_SIZE,
 383:D:/Work/DeviceTester/amazon-freertos/lib/third_party/mcu_vendor/renesas/rz_mcu_boards/core_package/generate/os_abstraction/src\r_os_abstraction_api.c **** #else
 384:D:/Work/DeviceTester/amazon-freertos/lib/third_party/mcu_vendor/renesas/rz_mcu_boards/core_package/generate/os_abstraction/src\r_os_abstraction_api.c **** 
 385:D:/Work/DeviceTester/amazon-freertos/lib/third_party/mcu_vendor/renesas/rz_mcu_boards/core_package/generate/os_abstraction/src\r_os_abstraction_api.c ****             /*Standard Task stack size*/
 386:D:/Work/DeviceTester/amazon-freertos/lib/third_party/mcu_vendor/renesas/rz_mcu_boards/core_package/generate/os_abstraction/src\r_os_abstraction_api.c ****             R_OS_PRV_HUGE_STACK_SIZE,
 387:D:/Work/DeviceTester/amazon-freertos/lib/third_party/mcu_vendor/renesas/rz_mcu_boards/core_package/generate/os_abstraction/src\r_os_abstraction_api.c **** #endif /* LOG_TASK_INFO */
 388:D:/Work/DeviceTester/amazon-freertos/lib/third_party/mcu_vendor/renesas/rz_mcu_boards/core_package/generate/os_abstraction/src\r_os_abstraction_api.c **** 
 389:D:/Work/DeviceTester/amazon-freertos/lib/third_party/mcu_vendor/renesas/rz_mcu_boards/core_package/generate/os_abstraction/src\r_os_abstraction_api.c ****             /* Memory type for heap, useful if your system support fast RAM to boost performance */
 390:D:/Work/DeviceTester/amazon-freertos/lib/third_party/mcu_vendor/renesas/rz_mcu_boards/core_package/generate/os_abstraction/src\r_os_abstraction_api.c ****             &default_heap,
 391:D:/Work/DeviceTester/amazon-freertos/lib/third_party/mcu_vendor/renesas/rz_mcu_boards/core_package/generate/os_abstraction/src\r_os_abstraction_api.c **** 
 392:D:/Work/DeviceTester/amazon-freertos/lib/third_party/mcu_vendor/renesas/rz_mcu_boards/core_package/generate/os_abstraction/src\r_os_abstraction_api.c ****             /* Initial task priority */
 393:D:/Work/DeviceTester/amazon-freertos/lib/third_party/mcu_vendor/renesas/rz_mcu_boards/core_package/generate/os_abstraction/src\r_os_abstraction_api.c ****             R_OS_TASK_MAIN_TASK_PRI,
 394:D:/Work/DeviceTester/amazon-freertos/lib/third_party/mcu_vendor/renesas/rz_mcu_boards/core_package/generate/os_abstraction/src\r_os_abstraction_api.c **** 
 395:D:/Work/DeviceTester/amazon-freertos/lib/third_party/mcu_vendor/renesas/rz_mcu_boards/core_package/generate/os_abstraction/src\r_os_abstraction_api.c ****             /* Handle to created task not required */
 396:D:/Work/DeviceTester/amazon-freertos/lib/third_party/mcu_vendor/renesas/rz_mcu_boards/core_package/generate/os_abstraction/src\r_os_abstraction_api.c ****             NULL);
 397:D:/Work/DeviceTester/amazon-freertos/lib/third_party/mcu_vendor/renesas/rz_mcu_boards/core_package/generate/os_abstraction/src\r_os_abstraction_api.c **** 
 398:D:/Work/DeviceTester/amazon-freertos/lib/third_party/mcu_vendor/renesas/rz_mcu_boards/core_package/generate/os_abstraction/src\r_os_abstraction_api.c ****     /* Confirm that the task was successfully created */
 399:D:/Work/DeviceTester/amazon-freertos/lib/third_party/mcu_vendor/renesas/rz_mcu_boards/core_package/generate/os_abstraction/src\r_os_abstraction_api.c ****     configASSERT(pdPASS == t);
 400:D:/Work/DeviceTester/amazon-freertos/lib/third_party/mcu_vendor/renesas/rz_mcu_boards/core_package/generate/os_abstraction/src\r_os_abstraction_api.c **** 
 401:D:/Work/DeviceTester/amazon-freertos/lib/third_party/mcu_vendor/renesas/rz_mcu_boards/core_package/generate/os_abstraction/src\r_os_abstraction_api.c ****     R_OS_KernelStart();
 402:D:/Work/DeviceTester/amazon-freertos/lib/third_party/mcu_vendor/renesas/rz_mcu_boards/core_package/generate/os_abstraction/src\r_os_abstraction_api.c **** 
 403:D:/Work/DeviceTester/amazon-freertos/lib/third_party/mcu_vendor/renesas/rz_mcu_boards/core_package/generate/os_abstraction/src\r_os_abstraction_api.c ****     while (1)
 404:D:/Work/DeviceTester/amazon-freertos/lib/third_party/mcu_vendor/renesas/rz_mcu_boards/core_package/generate/os_abstraction/src\r_os_abstraction_api.c ****     {
 405:D:/Work/DeviceTester/amazon-freertos/lib/third_party/mcu_vendor/renesas/rz_mcu_boards/core_package/generate/os_abstraction/src\r_os_abstraction_api.c ****         /* This point should never be reached */
 406:D:/Work/DeviceTester/amazon-freertos/lib/third_party/mcu_vendor/renesas/rz_mcu_boards/core_package/generate/os_abstraction/src\r_os_abstraction_api.c ****         R_COMPILER_Nop();
 407:D:/Work/DeviceTester/amazon-freertos/lib/third_party/mcu_vendor/renesas/rz_mcu_boards/core_package/generate/os_abstraction/src\r_os_abstraction_api.c ****     }
 408:D:/Work/DeviceTester/amazon-freertos/lib/third_party/mcu_vendor/renesas/rz_mcu_boards/core_package/generate/os_abstraction/src\r_os_abstraction_api.c **** }
 409:D:/Work/DeviceTester/amazon-freertos/lib/third_party/mcu_vendor/renesas/rz_mcu_boards/core_package/generate/os_abstraction/src\r_os_abstraction_api.c **** /**************************************************************************************************
 410:D:/Work/DeviceTester/amazon-freertos/lib/third_party/mcu_vendor/renesas/rz_mcu_boards/core_package/generate/os_abstraction/src\r_os_abstraction_api.c ****  End of function R_OS_KernelInit
 411:D:/Work/DeviceTester/amazon-freertos/lib/third_party/mcu_vendor/renesas/rz_mcu_boards/core_package/generate/os_abstraction/src\r_os_abstraction_api.c ****  **************************************************************************************************
 412:D:/Work/DeviceTester/amazon-freertos/lib/third_party/mcu_vendor/renesas/rz_mcu_boards/core_package/generate/os_abstraction/src\r_os_abstraction_api.c **** 
 413:D:/Work/DeviceTester/amazon-freertos/lib/third_party/mcu_vendor/renesas/rz_mcu_boards/core_package/generate/os_abstraction/src\r_os_abstraction_api.c **** 
 414:D:/Work/DeviceTester/amazon-freertos/lib/third_party/mcu_vendor/renesas/rz_mcu_boards/core_package/generate/os_abstraction/src\r_os_abstraction_api.c **** /**************************************************************************************************
 415:D:/Work/DeviceTester/amazon-freertos/lib/third_party/mcu_vendor/renesas/rz_mcu_boards/core_package/generate/os_abstraction/src\r_os_abstraction_api.c ****  * Function Name: R_OS_Running
 416:D:/Work/DeviceTester/amazon-freertos/lib/third_party/mcu_vendor/renesas/rz_mcu_boards/core_package/generate/os_abstraction/src\r_os_abstraction_api.c ****  *          Used to determine if the OS has started
 417:D:/Work/DeviceTester/amazon-freertos/lib/third_party/mcu_vendor/renesas/rz_mcu_boards/core_package/generate/os_abstraction/src\r_os_abstraction_api.c ****  * @retval OS running true or false
 418:D:/Work/DeviceTester/amazon-freertos/lib/third_party/mcu_vendor/renesas/rz_mcu_boards/core_package/generate/os_abstraction/src\r_os_abstraction_api.c ****  **************************************************************************************************
 419:D:/Work/DeviceTester/amazon-freertos/lib/third_party/mcu_vendor/renesas/rz_mcu_boards/core_package/generate/os_abstraction/src\r_os_abstraction_api.c **** bool_t R_OS_Running(void)
 420:D:/Work/DeviceTester/amazon-freertos/lib/third_party/mcu_vendor/renesas/rz_mcu_boards/core_package/generate/os_abstraction/src\r_os_abstraction_api.c **** {
 421:D:/Work/DeviceTester/amazon-freertos/lib/third_party/mcu_vendor/renesas/rz_mcu_boards/core_package/generate/os_abstraction/src\r_os_abstraction_api.c ****     return (s_os_running);
 422:D:/Work/DeviceTester/amazon-freertos/lib/third_party/mcu_vendor/renesas/rz_mcu_boards/core_package/generate/os_abstraction/src\r_os_abstraction_api.c **** }
 423:D:/Work/DeviceTester/amazon-freertos/lib/third_party/mcu_vendor/renesas/rz_mcu_boards/core_package/generate/os_abstraction/src\r_os_abstraction_api.c **** /**************************************************************************************************
 424:D:/Work/DeviceTester/amazon-freertos/lib/third_party/mcu_vendor/renesas/rz_mcu_boards/core_package/generate/os_abstraction/src\r_os_abstraction_api.c ****  End of function R_OS_IsOSRunning
 425:D:/Work/DeviceTester/amazon-freertos/lib/third_party/mcu_vendor/renesas/rz_mcu_boards/core_package/generate/os_abstraction/src\r_os_abstraction_api.c ****  **************************************************************************************************
 426:D:/Work/DeviceTester/amazon-freertos/lib/third_party/mcu_vendor/renesas/rz_mcu_boards/core_package/generate/os_abstraction/src\r_os_abstraction_api.c **** 
 427:D:/Work/DeviceTester/amazon-freertos/lib/third_party/mcu_vendor/renesas/rz_mcu_boards/core_package/generate/os_abstraction/src\r_os_abstraction_api.c **** /**************************************************************************************************
 428:D:/Work/DeviceTester/amazon-freertos/lib/third_party/mcu_vendor/renesas/rz_mcu_boards/core_package/generate/os_abstraction/src\r_os_abstraction_api.c ****  * Function Name: R_OS_KernelStart
 429:D:/Work/DeviceTester/amazon-freertos/lib/third_party/mcu_vendor/renesas/rz_mcu_boards/core_package/generate/os_abstraction/src\r_os_abstraction_api.c ****  * Description  : Start the kernel
 430:D:/Work/DeviceTester/amazon-freertos/lib/third_party/mcu_vendor/renesas/rz_mcu_boards/core_package/generate/os_abstraction/src\r_os_abstraction_api.c ****  * Arguments    : None
 431:D:/Work/DeviceTester/amazon-freertos/lib/third_party/mcu_vendor/renesas/rz_mcu_boards/core_package/generate/os_abstraction/src\r_os_abstraction_api.c ****  * Return Value : None
 432:D:/Work/DeviceTester/amazon-freertos/lib/third_party/mcu_vendor/renesas/rz_mcu_boards/core_package/generate/os_abstraction/src\r_os_abstraction_api.c ****  **************************************************************************************************
 433:D:/Work/DeviceTester/amazon-freertos/lib/third_party/mcu_vendor/renesas/rz_mcu_boards/core_package/generate/os_abstraction/src\r_os_abstraction_api.c **** void R_OS_KernelStart (void)
 434:D:/Work/DeviceTester/amazon-freertos/lib/third_party/mcu_vendor/renesas/rz_mcu_boards/core_package/generate/os_abstraction/src\r_os_abstraction_api.c **** {
 435:D:/Work/DeviceTester/amazon-freertos/lib/third_party/mcu_vendor/renesas/rz_mcu_boards/core_package/generate/os_abstraction/src\r_os_abstraction_api.c ****     /* Start the FreeRTOS scheduler */
 436:D:/Work/DeviceTester/amazon-freertos/lib/third_party/mcu_vendor/renesas/rz_mcu_boards/core_package/generate/os_abstraction/src\r_os_abstraction_api.c ****     vTaskStartScheduler();
 437:D:/Work/DeviceTester/amazon-freertos/lib/third_party/mcu_vendor/renesas/rz_mcu_boards/core_package/generate/os_abstraction/src\r_os_abstraction_api.c **** }
 438:D:/Work/DeviceTester/amazon-freertos/lib/third_party/mcu_vendor/renesas/rz_mcu_boards/core_package/generate/os_abstraction/src\r_os_abstraction_api.c **** /**************************************************************************************************
 439:D:/Work/DeviceTester/amazon-freertos/lib/third_party/mcu_vendor/renesas/rz_mcu_boards/core_package/generate/os_abstraction/src\r_os_abstraction_api.c ****  End of function R_OS_KernelStart
 440:D:/Work/DeviceTester/amazon-freertos/lib/third_party/mcu_vendor/renesas/rz_mcu_boards/core_package/generate/os_abstraction/src\r_os_abstraction_api.c ****  **************************************************************************************************
 441:D:/Work/DeviceTester/amazon-freertos/lib/third_party/mcu_vendor/renesas/rz_mcu_boards/core_package/generate/os_abstraction/src\r_os_abstraction_api.c **** 
 442:D:/Work/DeviceTester/amazon-freertos/lib/third_party/mcu_vendor/renesas/rz_mcu_boards/core_package/generate/os_abstraction/src\r_os_abstraction_api.c **** /**************************************************************************************************
 443:D:/Work/DeviceTester/amazon-freertos/lib/third_party/mcu_vendor/renesas/rz_mcu_boards/core_package/generate/os_abstraction/src\r_os_abstraction_api.c ****  * Function Name: R_OS_KernelStop
 444:D:/Work/DeviceTester/amazon-freertos/lib/third_party/mcu_vendor/renesas/rz_mcu_boards/core_package/generate/os_abstraction/src\r_os_abstraction_api.c ****  * Description  : Stop the kernel
 445:D:/Work/DeviceTester/amazon-freertos/lib/third_party/mcu_vendor/renesas/rz_mcu_boards/core_package/generate/os_abstraction/src\r_os_abstraction_api.c ****  * Arguments    : None
 446:D:/Work/DeviceTester/amazon-freertos/lib/third_party/mcu_vendor/renesas/rz_mcu_boards/core_package/generate/os_abstraction/src\r_os_abstraction_api.c ****  * Return Value : None
 447:D:/Work/DeviceTester/amazon-freertos/lib/third_party/mcu_vendor/renesas/rz_mcu_boards/core_package/generate/os_abstraction/src\r_os_abstraction_api.c ****  **************************************************************************************************
 448:D:/Work/DeviceTester/amazon-freertos/lib/third_party/mcu_vendor/renesas/rz_mcu_boards/core_package/generate/os_abstraction/src\r_os_abstraction_api.c **** void R_OS_KernelStop (void)
 449:D:/Work/DeviceTester/amazon-freertos/lib/third_party/mcu_vendor/renesas/rz_mcu_boards/core_package/generate/os_abstraction/src\r_os_abstraction_api.c **** {
 450:D:/Work/DeviceTester/amazon-freertos/lib/third_party/mcu_vendor/renesas/rz_mcu_boards/core_package/generate/os_abstraction/src\r_os_abstraction_api.c ****     /*Tell FreeRTOS to end scheduler*/
 451:D:/Work/DeviceTester/amazon-freertos/lib/third_party/mcu_vendor/renesas/rz_mcu_boards/core_package/generate/os_abstraction/src\r_os_abstraction_api.c ****     vTaskEndScheduler();
 103              		.loc 1 451 0
 104 0004 FEFFFFEB 		bl	vTaskEndScheduler
 105              	.LVL3:
 106              	.LBE15:
 107              	.LBE14:
 343:D:/Work/DeviceTester/amazon-freertos/lib/third_party/mcu_vendor/renesas/rz_mcu_boards/core_package/generate/os_abstraction/src\r_os_abstraction_api.c **** /**************************************************************************************************
 108              		.loc 1 343 0
 109 0008 0100A0E3 		mov	r0, #1
 110 000c 1080BDE8 		pop	{r4, pc}
 111              		.cfi_endproc
 112              	.LFE7:
 114              		.section	.text.R_OS_Running,"ax",%progbits
 115              		.align	2
 116              		.global	R_OS_Running
 117              		.syntax unified
 118              		.arm
 119              		.fpu neon
 121              	R_OS_Running:
 122              	.LFB9:
 420:D:/Work/DeviceTester/amazon-freertos/lib/third_party/mcu_vendor/renesas/rz_mcu_boards/core_package/generate/os_abstraction/src\r_os_abstraction_api.c ****     return (s_os_running);
 123              		.loc 1 420 0
 124              		.cfi_startproc
 125              		@ args = 0, pretend = 0, frame = 0
 126              		@ frame_needed = 0, uses_anonymous_args = 0
 127              		@ link register save eliminated.
 422:D:/Work/DeviceTester/amazon-freertos/lib/third_party/mcu_vendor/renesas/rz_mcu_boards/core_package/generate/os_abstraction/src\r_os_abstraction_api.c **** /**************************************************************************************************
 128              		.loc 1 422 0
 129 0000 04309FE5 		ldr	r3, .L10
 130 0004 000093E5 		ldr	r0, [r3]
 131 0008 1EFF2FE1 		bx	lr
 132              	.L11:
 133              		.align	2
 134              	.L10:
 135 000c 00000000 		.word	.LANCHOR0
 136              		.cfi_endproc
 137              	.LFE9:
 139              		.section	.text.R_OS_KernelStart,"ax",%progbits
 140              		.align	2
 141              		.global	R_OS_KernelStart
 142              		.syntax unified
 143              		.arm
 144              		.fpu neon
 146              	R_OS_KernelStart:
 147              	.LFB10:
 434:D:/Work/DeviceTester/amazon-freertos/lib/third_party/mcu_vendor/renesas/rz_mcu_boards/core_package/generate/os_abstraction/src\r_os_abstraction_api.c ****     /* Start the FreeRTOS scheduler */
 148              		.loc 1 434 0
 149              		.cfi_startproc
 150              		@ args = 0, pretend = 0, frame = 0
 151              		@ frame_needed = 0, uses_anonymous_args = 0
 152              		@ link register save eliminated.
 436:D:/Work/DeviceTester/amazon-freertos/lib/third_party/mcu_vendor/renesas/rz_mcu_boards/core_package/generate/os_abstraction/src\r_os_abstraction_api.c **** }
 153              		.loc 1 436 0
 154 0000 FEFFFFEA 		b	vTaskStartScheduler
 155              	.LVL4:
 156              		.cfi_endproc
 157              	.LFE10:
 159              		.section	.text.R_OS_KernelStop,"ax",%progbits
 160              		.align	2
 161              		.global	R_OS_KernelStop
 162              		.syntax unified
 163              		.arm
 164              		.fpu neon
 166              	R_OS_KernelStop:
 167              	.LFB11:
 449:D:/Work/DeviceTester/amazon-freertos/lib/third_party/mcu_vendor/renesas/rz_mcu_boards/core_package/generate/os_abstraction/src\r_os_abstraction_api.c ****     /*Tell FreeRTOS to end scheduler*/
 168              		.loc 1 449 0
 169              		.cfi_startproc
 170              		@ args = 0, pretend = 0, frame = 0
 171              		@ frame_needed = 0, uses_anonymous_args = 0
 172              		@ link register save eliminated.
 173              		.loc 1 451 0
 174 0000 FEFFFFEA 		b	vTaskEndScheduler
 175              	.LVL5:
 176              		.cfi_endproc
 177              	.LFE11:
 179              		.section	.text.R_OS_InitMemManager,"ax",%progbits
 180              		.align	2
 181              		.global	R_OS_InitMemManager
 182              		.syntax unified
 183              		.arm
 184              		.fpu neon
 186              	R_OS_InitMemManager:
 187              	.LFB12:
 452:D:/Work/DeviceTester/amazon-freertos/lib/third_party/mcu_vendor/renesas/rz_mcu_boards/core_package/generate/os_abstraction/src\r_os_abstraction_api.c **** }
 453:D:/Work/DeviceTester/amazon-freertos/lib/third_party/mcu_vendor/renesas/rz_mcu_boards/core_package/generate/os_abstraction/src\r_os_abstraction_api.c **** /**************************************************************************************************
 454:D:/Work/DeviceTester/amazon-freertos/lib/third_party/mcu_vendor/renesas/rz_mcu_boards/core_package/generate/os_abstraction/src\r_os_abstraction_api.c ****  End of function R_OS_KernelStop
 455:D:/Work/DeviceTester/amazon-freertos/lib/third_party/mcu_vendor/renesas/rz_mcu_boards/core_package/generate/os_abstraction/src\r_os_abstraction_api.c ****  **************************************************************************************************
 456:D:/Work/DeviceTester/amazon-freertos/lib/third_party/mcu_vendor/renesas/rz_mcu_boards/core_package/generate/os_abstraction/src\r_os_abstraction_api.c **** 
 457:D:/Work/DeviceTester/amazon-freertos/lib/third_party/mcu_vendor/renesas/rz_mcu_boards/core_package/generate/os_abstraction/src\r_os_abstraction_api.c **** /**************************************************************************************************
 458:D:/Work/DeviceTester/amazon-freertos/lib/third_party/mcu_vendor/renesas/rz_mcu_boards/core_package/generate/os_abstraction/src\r_os_abstraction_api.c ****  * Function Name: R_OS_InitMemManager
 459:D:/Work/DeviceTester/amazon-freertos/lib/third_party/mcu_vendor/renesas/rz_mcu_boards/core_package/generate/os_abstraction/src\r_os_abstraction_api.c ****  * Description  : Initialise the Memory manager needs to be called before RAM usage
 460:D:/Work/DeviceTester/amazon-freertos/lib/third_party/mcu_vendor/renesas/rz_mcu_boards/core_package/generate/os_abstraction/src\r_os_abstraction_api.c ****  * Arguments    : None
 461:D:/Work/DeviceTester/amazon-freertos/lib/third_party/mcu_vendor/renesas/rz_mcu_boards/core_package/generate/os_abstraction/src\r_os_abstraction_api.c ****  * Return Value : None
 462:D:/Work/DeviceTester/amazon-freertos/lib/third_party/mcu_vendor/renesas/rz_mcu_boards/core_package/generate/os_abstraction/src\r_os_abstraction_api.c ****  **************************************************************************************************
 463:D:/Work/DeviceTester/amazon-freertos/lib/third_party/mcu_vendor/renesas/rz_mcu_boards/core_package/generate/os_abstraction/src\r_os_abstraction_api.c **** void R_OS_InitMemManager (void)
 464:D:/Work/DeviceTester/amazon-freertos/lib/third_party/mcu_vendor/renesas/rz_mcu_boards/core_package/generate/os_abstraction/src\r_os_abstraction_api.c **** {
 188              		.loc 1 464 0
 189              		.cfi_startproc
 190              		@ args = 0, pretend = 0, frame = 0
 191              		@ frame_needed = 0, uses_anonymous_args = 0
 192              		@ link register save eliminated.
 465:D:/Work/DeviceTester/amazon-freertos/lib/third_party/mcu_vendor/renesas/rz_mcu_boards/core_package/generate/os_abstraction/src\r_os_abstraction_api.c ****     /* Heap_5 method of memory management */
 466:D:/Work/DeviceTester/amazon-freertos/lib/third_party/mcu_vendor/renesas/rz_mcu_boards/core_package/generate/os_abstraction/src\r_os_abstraction_api.c ****     /* Initialise the xHeapRegions array from the linker settings */
 467:D:/Work/DeviceTester/amazon-freertos/lib/third_party/mcu_vendor/renesas/rz_mcu_boards/core_package/generate/os_abstraction/src\r_os_abstraction_api.c **** 	/* Only used when customer application doesn't override the default (implemented here ) */
 468:D:/Work/DeviceTester/amazon-freertos/lib/third_party/mcu_vendor/renesas/rz_mcu_boards/core_package/generate/os_abstraction/src\r_os_abstraction_api.c **** 
 469:D:/Work/DeviceTester/amazon-freertos/lib/third_party/mcu_vendor/renesas/rz_mcu_boards/core_package/generate/os_abstraction/src\r_os_abstraction_api.c **** 	/* Ensure the heap correctly allocated in linker file. */
 470:D:/Work/DeviceTester/amazon-freertos/lib/third_party/mcu_vendor/renesas/rz_mcu_boards/core_package/generate/os_abstraction/src\r_os_abstraction_api.c ****     ucHeap[0] = 1;
 193              		.loc 1 470 0
 194 0000 30309FE5 		ldr	r3, .L16
 195 0004 0120A0E3 		mov	r2, #1
 196 0008 0020C3E5 		strb	r2, [r3]
 471:D:/Work/DeviceTester/amazon-freertos/lib/third_party/mcu_vendor/renesas/rz_mcu_boards/core_package/generate/os_abstraction/src\r_os_abstraction_api.c **** 
 472:D:/Work/DeviceTester/amazon-freertos/lib/third_party/mcu_vendor/renesas/rz_mcu_boards/core_package/generate/os_abstraction/src\r_os_abstraction_api.c **** 
 473:D:/Work/DeviceTester/amazon-freertos/lib/third_party/mcu_vendor/renesas/rz_mcu_boards/core_package/generate/os_abstraction/src\r_os_abstraction_api.c **** 	if(xHeapRegions[0].xSizeInBytes == 0)
 197              		.loc 1 473 0
 198 000c 28309FE5 		ldr	r3, .L16+4
 199 0010 042093E5 		ldr	r2, [r3, #4]
 200 0014 000052E3 		cmp	r2, #0
 474:D:/Work/DeviceTester/amazon-freertos/lib/third_party/mcu_vendor/renesas/rz_mcu_boards/core_package/generate/os_abstraction/src\r_os_abstraction_api.c **** 	{
 475:D:/Work/DeviceTester/amazon-freertos/lib/third_party/mcu_vendor/renesas/rz_mcu_boards/core_package/generate/os_abstraction/src\r_os_abstraction_api.c **** 		xHeapRegions[0].pucStartAddress = (FREERTOS_HEAP_START_PRV_);
 201              		.loc 1 475 0
 202 0018 20009F05 		ldreq	r0, .L16+8
 476:D:/Work/DeviceTester/amazon-freertos/lib/third_party/mcu_vendor/renesas/rz_mcu_boards/core_package/generate/os_abstraction/src\r_os_abstraction_api.c **** 		xHeapRegions[0].xSizeInBytes = ((uint32_t)FREERTOS_HEAP_END_PRV_ - (uint32_t)FREERTOS_HEAP_START_
 203              		.loc 1 476 0
 204 001c 20109F05 		ldreq	r1, .L16+12
 477:D:/Work/DeviceTester/amazon-freertos/lib/third_party/mcu_vendor/renesas/rz_mcu_boards/core_package/generate/os_abstraction/src\r_os_abstraction_api.c **** 		xHeapRegions[1].pucStartAddress = (0);
 478:D:/Work/DeviceTester/amazon-freertos/lib/third_party/mcu_vendor/renesas/rz_mcu_boards/core_package/generate/os_abstraction/src\r_os_abstraction_api.c **** 		xHeapRegions[1].xSizeInBytes = (0);
 205              		.loc 1 478 0
 206 0020 0C208305 		streq	r2, [r3, #12]
 475:D:/Work/DeviceTester/amazon-freertos/lib/third_party/mcu_vendor/renesas/rz_mcu_boards/core_package/generate/os_abstraction/src\r_os_abstraction_api.c **** 		xHeapRegions[0].xSizeInBytes = ((uint32_t)FREERTOS_HEAP_END_PRV_ - (uint32_t)FREERTOS_HEAP_START_
 207              		.loc 1 475 0
 208 0024 00008305 		streq	r0, [r3]
 476:D:/Work/DeviceTester/amazon-freertos/lib/third_party/mcu_vendor/renesas/rz_mcu_boards/core_package/generate/os_abstraction/src\r_os_abstraction_api.c **** 		xHeapRegions[0].xSizeInBytes = ((uint32_t)FREERTOS_HEAP_END_PRV_ - (uint32_t)FREERTOS_HEAP_START_
 209              		.loc 1 476 0
 210 0028 00104100 		subeq	r1, r1, r0
 479:D:/Work/DeviceTester/amazon-freertos/lib/third_party/mcu_vendor/renesas/rz_mcu_boards/core_package/generate/os_abstraction/src\r_os_abstraction_api.c **** 	}
 480:D:/Work/DeviceTester/amazon-freertos/lib/third_party/mcu_vendor/renesas/rz_mcu_boards/core_package/generate/os_abstraction/src\r_os_abstraction_api.c **** 
 481:D:/Work/DeviceTester/amazon-freertos/lib/third_party/mcu_vendor/renesas/rz_mcu_boards/core_package/generate/os_abstraction/src\r_os_abstraction_api.c ****     /* Pass the array into vPortDefineHeapRegions(). */
 482:D:/Work/DeviceTester/amazon-freertos/lib/third_party/mcu_vendor/renesas/rz_mcu_boards/core_package/generate/os_abstraction/src\r_os_abstraction_api.c ****     vPortDefineHeapRegions(xHeapRegions);
 211              		.loc 1 482 0
 212 002c 08009FE5 		ldr	r0, .L16+4
 477:D:/Work/DeviceTester/amazon-freertos/lib/third_party/mcu_vendor/renesas/rz_mcu_boards/core_package/generate/os_abstraction/src\r_os_abstraction_api.c **** 		xHeapRegions[1].xSizeInBytes = (0);
 213              		.loc 1 477 0
 214 0030 06008309 		stmibeq	r3, {r1, r2}
 215              		.loc 1 482 0
 216 0034 FEFFFFEA 		b	vPortDefineHeapRegions
 217              	.LVL6:
 218              	.L17:
 219              		.align	2
 220              	.L16:
 221 0038 00000000 		.word	.LANCHOR1
 222 003c 00000000 		.word	xHeapRegions
 223 0040 00000000 		.word	__freertos_heap_start
 224 0044 00000000 		.word	__freertos_heap_end
 225              		.cfi_endproc
 226              	.LFE12:
 228              		.section	.text.R_OS_KernelInit,"ax",%progbits
 229              		.align	2
 230              		.global	R_OS_KernelInit
 231              		.syntax unified
 232              		.arm
 233              		.fpu neon
 235              	R_OS_KernelInit:
 236              	.LFB8:
 359:D:/Work/DeviceTester/amazon-freertos/lib/third_party/mcu_vendor/renesas/rz_mcu_boards/core_package/generate/os_abstraction/src\r_os_abstraction_api.c ****     /* set default heap */
 237              		.loc 1 359 0
 238              		.cfi_startproc
 239              		@ args = 0, pretend = 0, frame = 8
 240              		@ frame_needed = 0, uses_anonymous_args = 0
 241 0000 1F402DE9 		push	{r0, r1, r2, r3, r4, lr}
 242              		.cfi_def_cfa_offset 24
 243              		.cfi_offset 4, -8
 244              		.cfi_offset 14, -4
 361:D:/Work/DeviceTester/amazon-freertos/lib/third_party/mcu_vendor/renesas/rz_mcu_boards/core_package/generate/os_abstraction/src\r_os_abstraction_api.c ****     uint8_t test_task_created = 0;
 245              		.loc 1 361 0
 246 0004 0135A0E3 		mov	r3, #4194304
 247 0008 10408DE2 		add	r4, sp, #16
 248 000c 043024E5 		str	r3, [r4, #-4]!
 249              	.LVL7:
 364:D:/Work/DeviceTester/amazon-freertos/lib/third_party/mcu_vendor/renesas/rz_mcu_boards/core_package/generate/os_abstraction/src\r_os_abstraction_api.c **** 
 250              		.loc 1 364 0
 251 0010 FEFFFFEB 		bl	R_OS_InitMemManager
 252              	.LVL8:
 366:D:/Work/DeviceTester/amazon-freertos/lib/third_party/mcu_vendor/renesas/rz_mcu_boards/core_package/generate/os_abstraction/src\r_os_abstraction_api.c **** 
 253              		.loc 1 366 0
 254 0014 FEFFFFEB 		bl	R_DEVLINK_Init
 255              	.LVL9:
 371:D:/Work/DeviceTester/amazon-freertos/lib/third_party/mcu_vendor/renesas/rz_mcu_boards/core_package/generate/os_abstraction/src\r_os_abstraction_api.c **** #endif
 256              		.loc 1 371 0
 257 0018 FEFFFFEB 		bl	initialise_monitor_handles
 258              	.LVL10:
 375:D:/Work/DeviceTester/amazon-freertos/lib/third_party/mcu_vendor/renesas/rz_mcu_boards/core_package/generate/os_abstraction/src\r_os_abstraction_api.c **** 
 259              		.loc 1 375 0
 260 001c 0620A0E3 		mov	r2, #6
 261 0020 0030A0E3 		mov	r3, #0
 262 0024 0C008DE8 		stm	sp, {r2, r3}
 263 0028 0430A0E1 		mov	r3, r4
 264 002c 0129A0E3 		mov	r2, #16384
 265 0030 24109FE5 		ldr	r1, .L22
 266 0034 24009FE5 		ldr	r0, .L22+4
 267 0038 FEFFFFEB 		bl	xTaskCreate
 268              	.LVL11:
 399:D:/Work/DeviceTester/amazon-freertos/lib/third_party/mcu_vendor/renesas/rz_mcu_boards/core_package/generate/os_abstraction/src\r_os_abstraction_api.c **** 
 269              		.loc 1 399 0
 270 003c 010050E3 		cmp	r0, #1
 271 0040 0200000A 		beq	.L19
 399:D:/Work/DeviceTester/amazon-freertos/lib/third_party/mcu_vendor/renesas/rz_mcu_boards/core_package/generate/os_abstraction/src\r_os_abstraction_api.c **** 
 272              		.loc 1 399 0 is_stmt 0 discriminator 1
 273 0044 0110A0E3 		mov	r1, #1
 274 0048 14009FE5 		ldr	r0, .L22+8
 275              	.LVL12:
 276 004c FEFFFFEB 		bl	longjmp
 277              	.LVL13:
 278              	.L19:
 279              	.LBB16:
 280              	.LBB17:
 436:D:/Work/DeviceTester/amazon-freertos/lib/third_party/mcu_vendor/renesas/rz_mcu_boards/core_package/generate/os_abstraction/src\r_os_abstraction_api.c **** }
 281              		.loc 1 436 0 is_stmt 1
 282 0050 FEFFFFEB 		bl	vTaskStartScheduler
 283              	.LVL14:
 284              	.L20:
 285              	.LBE17:
 286              	.LBE16:
 287              	.LBB18:
 288              	.LBB19:
 289              		.loc 2 47 0 discriminator 1
 290              		.syntax divided
 291              	@ 47 "D:\Work\DeviceTester\amazon-freertos\lib\third_party\mcu_vendor\renesas\rz_mcu_boards\core_pa
 292 0054 00F020E3 		nop
 293              	@ 0 "" 2
 294              		.arm
 295              		.syntax unified
 296 0058 FDFFFFEA 		b	.L20
 297              	.L23:
 298              		.align	2
 299              	.L22:
 300 005c 00000000 		.word	.LANCHOR2
 301 0060 00000000 		.word	main_task
 302 0064 28000000 		.word	Unity+40
 303              	.LBE19:
 304              	.LBE18:
 305              		.cfi_endproc
 306              	.LFE8:
 308              		.section	.text.R_OS_AbstractionLayerInit,"ax",%progbits
 309              		.align	2
 310              		.global	R_OS_AbstractionLayerInit
 311              		.syntax unified
 312              		.arm
 313              		.fpu neon
 315              	R_OS_AbstractionLayerInit:
 316              	.LFB6:
 317:D:/Work/DeviceTester/amazon-freertos/lib/third_party/mcu_vendor/renesas/rz_mcu_boards/core_package/generate/os_abstraction/src\r_os_abstraction_api.c ****     bool_t ready = true;
 317              		.loc 1 317 0
 318              		.cfi_startproc
 319              		@ args = 0, pretend = 0, frame = 0
 320              		@ frame_needed = 0, uses_anonymous_args = 0
 321              	.LVL15:
 322 0000 10402DE9 		push	{r4, lr}
 323              		.cfi_def_cfa_offset 8
 324              		.cfi_offset 4, -8
 325              		.cfi_offset 14, -4
 320:D:/Work/DeviceTester/amazon-freertos/lib/third_party/mcu_vendor/renesas/rz_mcu_boards/core_package/generate/os_abstraction/src\r_os_abstraction_api.c **** 
 326              		.loc 1 320 0
 327 0004 FEFFFFEB 		bl	R_OS_KernelInit
 328              	.LVL16:
 329              		.cfi_endproc
 330              	.LFE6:
 332              		.section	.text.R_OS_TaskCreate,"ax",%progbits
 333              		.align	2
 334              		.global	R_OS_TaskCreate
 335              		.syntax unified
 336              		.arm
 337              		.fpu neon
 339              	R_OS_TaskCreate:
 340              	.LFB13:
 483:D:/Work/DeviceTester/amazon-freertos/lib/third_party/mcu_vendor/renesas/rz_mcu_boards/core_package/generate/os_abstraction/src\r_os_abstraction_api.c **** }
 484:D:/Work/DeviceTester/amazon-freertos/lib/third_party/mcu_vendor/renesas/rz_mcu_boards/core_package/generate/os_abstraction/src\r_os_abstraction_api.c **** /**************************************************************************************************
 485:D:/Work/DeviceTester/amazon-freertos/lib/third_party/mcu_vendor/renesas/rz_mcu_boards/core_package/generate/os_abstraction/src\r_os_abstraction_api.c ****  End of function R_OS_InitMemManager
 486:D:/Work/DeviceTester/amazon-freertos/lib/third_party/mcu_vendor/renesas/rz_mcu_boards/core_package/generate/os_abstraction/src\r_os_abstraction_api.c ****  **************************************************************************************************
 487:D:/Work/DeviceTester/amazon-freertos/lib/third_party/mcu_vendor/renesas/rz_mcu_boards/core_package/generate/os_abstraction/src\r_os_abstraction_api.c **** 
 488:D:/Work/DeviceTester/amazon-freertos/lib/third_party/mcu_vendor/renesas/rz_mcu_boards/core_package/generate/os_abstraction/src\r_os_abstraction_api.c **** /**************************************************************************************************
 489:D:/Work/DeviceTester/amazon-freertos/lib/third_party/mcu_vendor/renesas/rz_mcu_boards/core_package/generate/os_abstraction/src\r_os_abstraction_api.c ****  *                                  Task API
 490:D:/Work/DeviceTester/amazon-freertos/lib/third_party/mcu_vendor/renesas/rz_mcu_boards/core_package/generate/os_abstraction/src\r_os_abstraction_api.c ****  **************************************************************************************************
 491:D:/Work/DeviceTester/amazon-freertos/lib/third_party/mcu_vendor/renesas/rz_mcu_boards/core_package/generate/os_abstraction/src\r_os_abstraction_api.c **** /**************************************************************************************************
 492:D:/Work/DeviceTester/amazon-freertos/lib/third_party/mcu_vendor/renesas/rz_mcu_boards/core_package/generate/os_abstraction/src\r_os_abstraction_api.c ****  * Function Name: R_OS_TaskCreate
 493:D:/Work/DeviceTester/amazon-freertos/lib/third_party/mcu_vendor/renesas/rz_mcu_boards/core_package/generate/os_abstraction/src\r_os_abstraction_api.c ****  * Description  : Create a task
 494:D:/Work/DeviceTester/amazon-freertos/lib/third_party/mcu_vendor/renesas/rz_mcu_boards/core_package/generate/os_abstraction/src\r_os_abstraction_api.c ****  * Arguments    :  p_name - task name string
 495:D:/Work/DeviceTester/amazon-freertos/lib/third_party/mcu_vendor/renesas/rz_mcu_boards/core_package/generate/os_abstraction/src\r_os_abstraction_api.c ****  *                 task_code - task main function
 496:D:/Work/DeviceTester/amazon-freertos/lib/third_party/mcu_vendor/renesas/rz_mcu_boards/core_package/generate/os_abstraction/src\r_os_abstraction_api.c ****  *                 p_params - task associated parameters (task defined)
 497:D:/Work/DeviceTester/amazon-freertos/lib/third_party/mcu_vendor/renesas/rz_mcu_boards/core_package/generate/os_abstraction/src\r_os_abstraction_api.c ****  *                 stack_size - initial stack size (maximum)
 498:D:/Work/DeviceTester/amazon-freertos/lib/third_party/mcu_vendor/renesas/rz_mcu_boards/core_package/generate/os_abstraction/src\r_os_abstraction_api.c ****  *                 priority - initial priority
 499:D:/Work/DeviceTester/amazon-freertos/lib/third_party/mcu_vendor/renesas/rz_mcu_boards/core_package/generate/os_abstraction/src\r_os_abstraction_api.c ****  * Return Value : os_task_t - pointer to newly created task, NULL if failed
 500:D:/Work/DeviceTester/amazon-freertos/lib/third_party/mcu_vendor/renesas/rz_mcu_boards/core_package/generate/os_abstraction/src\r_os_abstraction_api.c ****  **************************************************************************************************
 501:D:/Work/DeviceTester/amazon-freertos/lib/third_party/mcu_vendor/renesas/rz_mcu_boards/core_package/generate/os_abstraction/src\r_os_abstraction_api.c **** os_task_t *R_OS_TaskCreate (const char_t *p_name, os_task_code_t task_code, void *p_params, size_t 
 502:D:/Work/DeviceTester/amazon-freertos/lib/third_party/mcu_vendor/renesas/rz_mcu_boards/core_package/generate/os_abstraction/src\r_os_abstraction_api.c ****         int_t priority)
 503:D:/Work/DeviceTester/amazon-freertos/lib/third_party/mcu_vendor/renesas/rz_mcu_boards/core_package/generate/os_abstraction/src\r_os_abstraction_api.c **** {
 341              		.loc 1 503 0
 342              		.cfi_startproc
 343              		@ args = 4, pretend = 0, frame = 8
 344              		@ frame_needed = 0, uses_anonymous_args = 0
 345              	.LVL17:
 346 0000 1F402DE9 		push	{r0, r1, r2, r3, r4, lr}
 347              		.cfi_def_cfa_offset 24
 348              		.cfi_offset 4, -8
 349              		.cfi_offset 14, -4
 350              		.loc 1 503 0
 351 0004 00C0A0E1 		mov	ip, r0
 352 0008 0100A0E1 		mov	r0, r1
 353              	.LVL18:
 504:D:/Work/DeviceTester/amazon-freertos/lib/third_party/mcu_vendor/renesas/rz_mcu_boards/core_package/generate/os_abstraction/src\r_os_abstraction_api.c ****     portBASE_TYPE status;
 505:D:/Work/DeviceTester/amazon-freertos/lib/third_party/mcu_vendor/renesas/rz_mcu_boards/core_package/generate/os_abstraction/src\r_os_abstraction_api.c ****     configSTACK_DEPTH_TYPE  actual_stack = 0;
 506:D:/Work/DeviceTester/amazon-freertos/lib/third_party/mcu_vendor/renesas/rz_mcu_boards/core_package/generate/os_abstraction/src\r_os_abstraction_api.c **** 
 507:D:/Work/DeviceTester/amazon-freertos/lib/third_party/mcu_vendor/renesas/rz_mcu_boards/core_package/generate/os_abstraction/src\r_os_abstraction_api.c ****     switch (stack_size)
 354              		.loc 1 507 0
 355 000c 040053E3 		cmp	r3, #4
 356 0010 03F19F97 		ldrls	pc, [pc, r3, asl #2]
 357 0014 1A0000EA 		b	.L27
 358              	.L29:
 359 0018 8C000000 		.word	.L35
 360 001c 2C000000 		.word	.L30
 361 0020 6C000000 		.word	.L31
 362 0024 74000000 		.word	.L32
 363 0028 7C000000 		.word	.L33
 364              	.L30:
 508:D:/Work/DeviceTester/amazon-freertos/lib/third_party/mcu_vendor/renesas/rz_mcu_boards/core_package/generate/os_abstraction/src\r_os_abstraction_api.c ****     {
 509:D:/Work/DeviceTester/amazon-freertos/lib/third_party/mcu_vendor/renesas/rz_mcu_boards/core_package/generate/os_abstraction/src\r_os_abstraction_api.c ****         case R_OS_ABSTRACTION_TINY_STACK_SIZE:
 510:D:/Work/DeviceTester/amazon-freertos/lib/third_party/mcu_vendor/renesas/rz_mcu_boards/core_package/generate/os_abstraction/src\r_os_abstraction_api.c ****         {
 511:D:/Work/DeviceTester/amazon-freertos/lib/third_party/mcu_vendor/renesas/rz_mcu_boards/core_package/generate/os_abstraction/src\r_os_abstraction_api.c ****             /* Stack size is defined in FreeRTOS as unsigned short, convert to 32 bit */
 512:D:/Work/DeviceTester/amazon-freertos/lib/third_party/mcu_vendor/renesas/rz_mcu_boards/core_package/generate/os_abstraction/src\r_os_abstraction_api.c ****             actual_stack = (uint32_t) R_OS_PRV_TINY_STACK_SIZE;
 513:D:/Work/DeviceTester/amazon-freertos/lib/third_party/mcu_vendor/renesas/rz_mcu_boards/core_package/generate/os_abstraction/src\r_os_abstraction_api.c ****             break;
 514:D:/Work/DeviceTester/amazon-freertos/lib/third_party/mcu_vendor/renesas/rz_mcu_boards/core_package/generate/os_abstraction/src\r_os_abstraction_api.c ****         }
 515:D:/Work/DeviceTester/amazon-freertos/lib/third_party/mcu_vendor/renesas/rz_mcu_boards/core_package/generate/os_abstraction/src\r_os_abstraction_api.c ****         case R_OS_ABSTRACTION_SMALL_STACK_SIZE:
 516:D:/Work/DeviceTester/amazon-freertos/lib/third_party/mcu_vendor/renesas/rz_mcu_boards/core_package/generate/os_abstraction/src\r_os_abstraction_api.c ****         {
 517:D:/Work/DeviceTester/amazon-freertos/lib/third_party/mcu_vendor/renesas/rz_mcu_boards/core_package/generate/os_abstraction/src\r_os_abstraction_api.c ****             /* Stack size is defined in FreeRTOS as unsigned short, convert to 32 bit */
 518:D:/Work/DeviceTester/amazon-freertos/lib/third_party/mcu_vendor/renesas/rz_mcu_boards/core_package/generate/os_abstraction/src\r_os_abstraction_api.c ****             actual_stack = (uint32_t) R_OS_PRV_SMALL_STACK_SIZE;
 365              		.loc 1 518 0
 366 002c 021BA0E3 		mov	r1, #2048
 367              	.LVL19:
 368              	.L28:
 519:D:/Work/DeviceTester/amazon-freertos/lib/third_party/mcu_vendor/renesas/rz_mcu_boards/core_package/generate/os_abstraction/src\r_os_abstraction_api.c ****             break;
 520:D:/Work/DeviceTester/amazon-freertos/lib/third_party/mcu_vendor/renesas/rz_mcu_boards/core_package/generate/os_abstraction/src\r_os_abstraction_api.c ****         }
 521:D:/Work/DeviceTester/amazon-freertos/lib/third_party/mcu_vendor/renesas/rz_mcu_boards/core_package/generate/os_abstraction/src\r_os_abstraction_api.c ****         case R_OS_ABSTRACTION_DEFAULT_STACK_SIZE:
 522:D:/Work/DeviceTester/amazon-freertos/lib/third_party/mcu_vendor/renesas/rz_mcu_boards/core_package/generate/os_abstraction/src\r_os_abstraction_api.c ****         {
 523:D:/Work/DeviceTester/amazon-freertos/lib/third_party/mcu_vendor/renesas/rz_mcu_boards/core_package/generate/os_abstraction/src\r_os_abstraction_api.c ****             /* Stack size is defined in FreeRTOS as unsigned short, convert to 32 bit */
 524:D:/Work/DeviceTester/amazon-freertos/lib/third_party/mcu_vendor/renesas/rz_mcu_boards/core_package/generate/os_abstraction/src\r_os_abstraction_api.c ****             actual_stack = (uint32_t) R_OS_PRV_DEFAULT_STACK_SIZE;
 525:D:/Work/DeviceTester/amazon-freertos/lib/third_party/mcu_vendor/renesas/rz_mcu_boards/core_package/generate/os_abstraction/src\r_os_abstraction_api.c ****             break;
 526:D:/Work/DeviceTester/amazon-freertos/lib/third_party/mcu_vendor/renesas/rz_mcu_boards/core_package/generate/os_abstraction/src\r_os_abstraction_api.c ****         }
 527:D:/Work/DeviceTester/amazon-freertos/lib/third_party/mcu_vendor/renesas/rz_mcu_boards/core_package/generate/os_abstraction/src\r_os_abstraction_api.c ****         case R_OS_ABSTRACTION_LARGE_STACK_SIZE:
 528:D:/Work/DeviceTester/amazon-freertos/lib/third_party/mcu_vendor/renesas/rz_mcu_boards/core_package/generate/os_abstraction/src\r_os_abstraction_api.c ****         {
 529:D:/Work/DeviceTester/amazon-freertos/lib/third_party/mcu_vendor/renesas/rz_mcu_boards/core_package/generate/os_abstraction/src\r_os_abstraction_api.c ****             /* Stack size is defined in FreeRTOS as unsigned short, convert to 32 bit */
 530:D:/Work/DeviceTester/amazon-freertos/lib/third_party/mcu_vendor/renesas/rz_mcu_boards/core_package/generate/os_abstraction/src\r_os_abstraction_api.c ****             actual_stack = (uint32_t) R_OS_PRV_LARGE_STACK_SIZE;
 531:D:/Work/DeviceTester/amazon-freertos/lib/third_party/mcu_vendor/renesas/rz_mcu_boards/core_package/generate/os_abstraction/src\r_os_abstraction_api.c ****             break;
 532:D:/Work/DeviceTester/amazon-freertos/lib/third_party/mcu_vendor/renesas/rz_mcu_boards/core_package/generate/os_abstraction/src\r_os_abstraction_api.c ****         }
 533:D:/Work/DeviceTester/amazon-freertos/lib/third_party/mcu_vendor/renesas/rz_mcu_boards/core_package/generate/os_abstraction/src\r_os_abstraction_api.c ****         case R_OS_ABSTRACTION_HUGE_STACK_SIZE:
 534:D:/Work/DeviceTester/amazon-freertos/lib/third_party/mcu_vendor/renesas/rz_mcu_boards/core_package/generate/os_abstraction/src\r_os_abstraction_api.c ****         {
 535:D:/Work/DeviceTester/amazon-freertos/lib/third_party/mcu_vendor/renesas/rz_mcu_boards/core_package/generate/os_abstraction/src\r_os_abstraction_api.c ****             /* Stack size is defined in FreeRTOS as unsigned short, convert to 32 bit */
 536:D:/Work/DeviceTester/amazon-freertos/lib/third_party/mcu_vendor/renesas/rz_mcu_boards/core_package/generate/os_abstraction/src\r_os_abstraction_api.c ****             actual_stack = (uint32_t) R_OS_PRV_HUGE_STACK_SIZE;
 537:D:/Work/DeviceTester/amazon-freertos/lib/third_party/mcu_vendor/renesas/rz_mcu_boards/core_package/generate/os_abstraction/src\r_os_abstraction_api.c ****             break;
 538:D:/Work/DeviceTester/amazon-freertos/lib/third_party/mcu_vendor/renesas/rz_mcu_boards/core_package/generate/os_abstraction/src\r_os_abstraction_api.c ****         }
 539:D:/Work/DeviceTester/amazon-freertos/lib/third_party/mcu_vendor/renesas/rz_mcu_boards/core_package/generate/os_abstraction/src\r_os_abstraction_api.c ****         default:
 540:D:/Work/DeviceTester/amazon-freertos/lib/third_party/mcu_vendor/renesas/rz_mcu_boards/core_package/generate/os_abstraction/src\r_os_abstraction_api.c ****         {
 541:D:/Work/DeviceTester/amazon-freertos/lib/third_party/mcu_vendor/renesas/rz_mcu_boards/core_package/generate/os_abstraction/src\r_os_abstraction_api.c ****             actual_stack = (configSTACK_DEPTH_TYPE)stack_size;
 542:D:/Work/DeviceTester/amazon-freertos/lib/third_party/mcu_vendor/renesas/rz_mcu_boards/core_package/generate/os_abstraction/src\r_os_abstraction_api.c ****             break;
 543:D:/Work/DeviceTester/amazon-freertos/lib/third_party/mcu_vendor/renesas/rz_mcu_boards/core_package/generate/os_abstraction/src\r_os_abstraction_api.c ****         }
 544:D:/Work/DeviceTester/amazon-freertos/lib/third_party/mcu_vendor/renesas/rz_mcu_boards/core_package/generate/os_abstraction/src\r_os_abstraction_api.c ****     }
 545:D:/Work/DeviceTester/amazon-freertos/lib/third_party/mcu_vendor/renesas/rz_mcu_boards/core_package/generate/os_abstraction/src\r_os_abstraction_api.c **** 
 546:D:/Work/DeviceTester/amazon-freertos/lib/third_party/mcu_vendor/renesas/rz_mcu_boards/core_package/generate/os_abstraction/src\r_os_abstraction_api.c ****     /* Initialised variable (task) is checked against NULL to determine if the new task can be init
 547:D:/Work/DeviceTester/amazon-freertos/lib/third_party/mcu_vendor/renesas/rz_mcu_boards/core_package/generate/os_abstraction/src\r_os_abstraction_api.c ****      * see prvInitialiseNewTask in file freertos\tasks.c */
 548:D:/Work/DeviceTester/amazon-freertos/lib/third_party/mcu_vendor/renesas/rz_mcu_boards/core_package/generate/os_abstraction/src\r_os_abstraction_api.c ****     xTaskHandle task = (TaskHandle_t *) (NULL);
 369              		.loc 1 548 0
 370 0030 10308DE2 		add	r3, sp, #16
 371              	.LVL20:
 372 0034 0040A0E3 		mov	r4, #0
 373 0038 044023E5 		str	r4, [r3, #-4]!
 549:D:/Work/DeviceTester/amazon-freertos/lib/third_party/mcu_vendor/renesas/rz_mcu_boards/core_package/generate/os_abstraction/src\r_os_abstraction_api.c ****     os_task_t *p_new_task;
 550:D:/Work/DeviceTester/amazon-freertos/lib/third_party/mcu_vendor/renesas/rz_mcu_boards/core_package/generate/os_abstraction/src\r_os_abstraction_api.c **** 
 551:D:/Work/DeviceTester/amazon-freertos/lib/third_party/mcu_vendor/renesas/rz_mcu_boards/core_package/generate/os_abstraction/src\r_os_abstraction_api.c ****     /* Create a new task */
 552:D:/Work/DeviceTester/amazon-freertos/lib/third_party/mcu_vendor/renesas/rz_mcu_boards/core_package/generate/os_abstraction/src\r_os_abstraction_api.c ****     status = xTaskCreate((pdTASK_CODE) task_code, p_name, (actual_stack / sizeof(StackType_t)), p_p
 374              		.loc 1 552 0
 375 003c 04308DE5 		str	r3, [sp, #4]
 376 0040 18309DE5 		ldr	r3, [sp, #24]
 377 0044 00308DE5 		str	r3, [sp]
 378 0048 0230A0E1 		mov	r3, r2
 379 004c 2121A0E1 		lsr	r2, r1, #2
 380              	.LVL21:
 381 0050 0C10A0E1 		mov	r1, ip
 382              	.LVL22:
 383 0054 FEFFFFEB 		bl	xTaskCreate
 384              	.LVL23:
 553:D:/Work/DeviceTester/amazon-freertos/lib/third_party/mcu_vendor/renesas/rz_mcu_boards/core_package/generate/os_abstraction/src\r_os_abstraction_api.c **** 	                     (UBaseType_t) priority, &task);
 554:D:/Work/DeviceTester/amazon-freertos/lib/third_party/mcu_vendor/renesas/rz_mcu_boards/core_package/generate/os_abstraction/src\r_os_abstraction_api.c **** 
 555:D:/Work/DeviceTester/amazon-freertos/lib/third_party/mcu_vendor/renesas/rz_mcu_boards/core_package/generate/os_abstraction/src\r_os_abstraction_api.c ****     /* Check whether the task was successfully created */
 556:D:/Work/DeviceTester/amazon-freertos/lib/third_party/mcu_vendor/renesas/rz_mcu_boards/core_package/generate/os_abstraction/src\r_os_abstraction_api.c ****     if (pdPASS == status)
 385              		.loc 1 556 0
 386 0058 010050E3 		cmp	r0, #1
 557:D:/Work/DeviceTester/amazon-freertos/lib/third_party/mcu_vendor/renesas/rz_mcu_boards/core_package/generate/os_abstraction/src\r_os_abstraction_api.c ****     {
 558:D:/Work/DeviceTester/amazon-freertos/lib/third_party/mcu_vendor/renesas/rz_mcu_boards/core_package/generate/os_abstraction/src\r_os_abstraction_api.c ****         p_new_task = task;
 387              		.loc 1 558 0
 388 005c 0C009D05 		ldreq	r0, [sp, #12]
 389              	.LVL24:
 559:D:/Work/DeviceTester/amazon-freertos/lib/third_party/mcu_vendor/renesas/rz_mcu_boards/core_package/generate/os_abstraction/src\r_os_abstraction_api.c ****         return task;
 560:D:/Work/DeviceTester/amazon-freertos/lib/third_party/mcu_vendor/renesas/rz_mcu_boards/core_package/generate/os_abstraction/src\r_os_abstraction_api.c ****     }
 561:D:/Work/DeviceTester/amazon-freertos/lib/third_party/mcu_vendor/renesas/rz_mcu_boards/core_package/generate/os_abstraction/src\r_os_abstraction_api.c ****     else
 562:D:/Work/DeviceTester/amazon-freertos/lib/third_party/mcu_vendor/renesas/rz_mcu_boards/core_package/generate/os_abstraction/src\r_os_abstraction_api.c ****     {
 563:D:/Work/DeviceTester/amazon-freertos/lib/third_party/mcu_vendor/renesas/rz_mcu_boards/core_package/generate/os_abstraction/src\r_os_abstraction_api.c ****         /* cast to NULL required to fulfil FreeRTOS requirements */
 564:D:/Work/DeviceTester/amazon-freertos/lib/third_party/mcu_vendor/renesas/rz_mcu_boards/core_package/generate/os_abstraction/src\r_os_abstraction_api.c ****         p_new_task = (os_task_t *) (NULL);
 565:D:/Work/DeviceTester/amazon-freertos/lib/third_party/mcu_vendor/renesas/rz_mcu_boards/core_package/generate/os_abstraction/src\r_os_abstraction_api.c ****     }
 566:D:/Work/DeviceTester/amazon-freertos/lib/third_party/mcu_vendor/renesas/rz_mcu_boards/core_package/generate/os_abstraction/src\r_os_abstraction_api.c ****     return p_new_task;
 390              		.loc 1 566 0
 391 0060 0400A011 		movne	r0, r4
 392              	.LVL25:
 567:D:/Work/DeviceTester/amazon-freertos/lib/third_party/mcu_vendor/renesas/rz_mcu_boards/core_package/generate/os_abstraction/src\r_os_abstraction_api.c **** }
 393              		.loc 1 567 0
 394 0064 10D08DE2 		add	sp, sp, #16
 395              		.cfi_remember_state
 396              		.cfi_def_cfa_offset 8
 397              		@ sp needed
 398 0068 1080BDE8 		pop	{r4, pc}
 399              	.LVL26:
 400              	.L31:
 401              		.cfi_restore_state
 524:D:/Work/DeviceTester/amazon-freertos/lib/third_party/mcu_vendor/renesas/rz_mcu_boards/core_package/generate/os_abstraction/src\r_os_abstraction_api.c ****             break;
 402              		.loc 1 524 0
 403 006c 011AA0E3 		mov	r1, #4096
 525:D:/Work/DeviceTester/amazon-freertos/lib/third_party/mcu_vendor/renesas/rz_mcu_boards/core_package/generate/os_abstraction/src\r_os_abstraction_api.c ****         }
 404              		.loc 1 525 0
 405 0070 EEFFFFEA 		b	.L28
 406              	.LVL27:
 407              	.L32:
 530:D:/Work/DeviceTester/amazon-freertos/lib/third_party/mcu_vendor/renesas/rz_mcu_boards/core_package/generate/os_abstraction/src\r_os_abstraction_api.c ****             break;
 408              		.loc 1 530 0
 409 0074 021AA0E3 		mov	r1, #8192
 531:D:/Work/DeviceTester/amazon-freertos/lib/third_party/mcu_vendor/renesas/rz_mcu_boards/core_package/generate/os_abstraction/src\r_os_abstraction_api.c ****         }
 410              		.loc 1 531 0
 411 0078 ECFFFFEA 		b	.L28
 412              	.LVL28:
 413              	.L33:
 536:D:/Work/DeviceTester/amazon-freertos/lib/third_party/mcu_vendor/renesas/rz_mcu_boards/core_package/generate/os_abstraction/src\r_os_abstraction_api.c ****             break;
 414              		.loc 1 536 0
 415 007c 0119A0E3 		mov	r1, #16384
 537:D:/Work/DeviceTester/amazon-freertos/lib/third_party/mcu_vendor/renesas/rz_mcu_boards/core_package/generate/os_abstraction/src\r_os_abstraction_api.c ****         }
 416              		.loc 1 537 0
 417 0080 EAFFFFEA 		b	.L28
 418              	.LVL29:
 419              	.L27:
 541:D:/Work/DeviceTester/amazon-freertos/lib/third_party/mcu_vendor/renesas/rz_mcu_boards/core_package/generate/os_abstraction/src\r_os_abstraction_api.c ****             break;
 420              		.loc 1 541 0
 421 0084 7310FFE6 		uxth	r1, r3
 422              	.LVL30:
 542:D:/Work/DeviceTester/amazon-freertos/lib/third_party/mcu_vendor/renesas/rz_mcu_boards/core_package/generate/os_abstraction/src\r_os_abstraction_api.c ****         }
 423              		.loc 1 542 0
 424 0088 E8FFFFEA 		b	.L28
 425              	.LVL31:
 426              	.L35:
 512:D:/Work/DeviceTester/amazon-freertos/lib/third_party/mcu_vendor/renesas/rz_mcu_boards/core_package/generate/os_abstraction/src\r_os_abstraction_api.c ****             break;
 427              		.loc 1 512 0
 428 008c 021CA0E3 		mov	r1, #512
 429 0090 E6FFFFEA 		b	.L28
 430              		.cfi_endproc
 431              	.LFE13:
 433              		.section	.text.R_OS_TaskDelete,"ax",%progbits
 434              		.align	2
 435              		.global	R_OS_TaskDelete
 436              		.syntax unified
 437              		.arm
 438              		.fpu neon
 440              	R_OS_TaskDelete:
 441              	.LFB14:
 568:D:/Work/DeviceTester/amazon-freertos/lib/third_party/mcu_vendor/renesas/rz_mcu_boards/core_package/generate/os_abstraction/src\r_os_abstraction_api.c **** /**************************************************************************************************
 569:D:/Work/DeviceTester/amazon-freertos/lib/third_party/mcu_vendor/renesas/rz_mcu_boards/core_package/generate/os_abstraction/src\r_os_abstraction_api.c ****  End of function R_OS_TaskCreate
 570:D:/Work/DeviceTester/amazon-freertos/lib/third_party/mcu_vendor/renesas/rz_mcu_boards/core_package/generate/os_abstraction/src\r_os_abstraction_api.c ****  **************************************************************************************************
 571:D:/Work/DeviceTester/amazon-freertos/lib/third_party/mcu_vendor/renesas/rz_mcu_boards/core_package/generate/os_abstraction/src\r_os_abstraction_api.c **** 
 572:D:/Work/DeviceTester/amazon-freertos/lib/third_party/mcu_vendor/renesas/rz_mcu_boards/core_package/generate/os_abstraction/src\r_os_abstraction_api.c **** /**************************************************************************************************
 573:D:/Work/DeviceTester/amazon-freertos/lib/third_party/mcu_vendor/renesas/rz_mcu_boards/core_package/generate/os_abstraction/src\r_os_abstraction_api.c ****  * Function Name: R_OS_TaskDelete
 574:D:/Work/DeviceTester/amazon-freertos/lib/third_party/mcu_vendor/renesas/rz_mcu_boards/core_package/generate/os_abstraction/src\r_os_abstraction_api.c ****  * Description  : Delete task
 575:D:/Work/DeviceTester/amazon-freertos/lib/third_party/mcu_vendor/renesas/rz_mcu_boards/core_package/generate/os_abstraction/src\r_os_abstraction_api.c ****  * Arguments    : pp_task - pointer to task handle, NULL deletes the current task
 576:D:/Work/DeviceTester/amazon-freertos/lib/third_party/mcu_vendor/renesas/rz_mcu_boards/core_package/generate/os_abstraction/src\r_os_abstraction_api.c ****  * Return Value : none
 577:D:/Work/DeviceTester/amazon-freertos/lib/third_party/mcu_vendor/renesas/rz_mcu_boards/core_package/generate/os_abstraction/src\r_os_abstraction_api.c ****  **************************************************************************************************
 578:D:/Work/DeviceTester/amazon-freertos/lib/third_party/mcu_vendor/renesas/rz_mcu_boards/core_package/generate/os_abstraction/src\r_os_abstraction_api.c **** void R_OS_TaskDelete (os_task_t **pp_task)
 579:D:/Work/DeviceTester/amazon-freertos/lib/third_party/mcu_vendor/renesas/rz_mcu_boards/core_package/generate/os_abstraction/src\r_os_abstraction_api.c **** {
 442              		.loc 1 579 0
 443              		.cfi_startproc
 444              		@ args = 0, pretend = 0, frame = 0
 445              		@ frame_needed = 0, uses_anonymous_args = 0
 446              	.LVL32:
 447 0000 10402DE9 		push	{r4, lr}
 448              		.cfi_def_cfa_offset 8
 449              		.cfi_offset 4, -8
 450              		.cfi_offset 14, -4
 580:D:/Work/DeviceTester/amazon-freertos/lib/third_party/mcu_vendor/renesas/rz_mcu_boards/core_package/generate/os_abstraction/src\r_os_abstraction_api.c ****     /* Delete the specified task */
 581:D:/Work/DeviceTester/amazon-freertos/lib/third_party/mcu_vendor/renesas/rz_mcu_boards/core_package/generate/os_abstraction/src\r_os_abstraction_api.c ****     if (NULL == pp_task)
 451              		.loc 1 581 0
 452 0004 004050E2 		subs	r4, r0, #0
 453 0008 0100001A 		bne	.L39
 582:D:/Work/DeviceTester/amazon-freertos/lib/third_party/mcu_vendor/renesas/rz_mcu_boards/core_package/generate/os_abstraction/src\r_os_abstraction_api.c ****     {
 583:D:/Work/DeviceTester/amazon-freertos/lib/third_party/mcu_vendor/renesas/rz_mcu_boards/core_package/generate/os_abstraction/src\r_os_abstraction_api.c ****         /* pass NULL down to freeRTOS */
 584:D:/Work/DeviceTester/amazon-freertos/lib/third_party/mcu_vendor/renesas/rz_mcu_boards/core_package/generate/os_abstraction/src\r_os_abstraction_api.c ****         vTaskDelete((xTaskHandle) NULL);
 585:D:/Work/DeviceTester/amazon-freertos/lib/third_party/mcu_vendor/renesas/rz_mcu_boards/core_package/generate/os_abstraction/src\r_os_abstraction_api.c ****     }
 586:D:/Work/DeviceTester/amazon-freertos/lib/third_party/mcu_vendor/renesas/rz_mcu_boards/core_package/generate/os_abstraction/src\r_os_abstraction_api.c ****     else
 587:D:/Work/DeviceTester/amazon-freertos/lib/third_party/mcu_vendor/renesas/rz_mcu_boards/core_package/generate/os_abstraction/src\r_os_abstraction_api.c ****     {
 588:D:/Work/DeviceTester/amazon-freertos/lib/third_party/mcu_vendor/renesas/rz_mcu_boards/core_package/generate/os_abstraction/src\r_os_abstraction_api.c ****         /* delete task */
 589:D:/Work/DeviceTester/amazon-freertos/lib/third_party/mcu_vendor/renesas/rz_mcu_boards/core_package/generate/os_abstraction/src\r_os_abstraction_api.c ****         vTaskDelete((xTaskHandle) *pp_task);
 590:D:/Work/DeviceTester/amazon-freertos/lib/third_party/mcu_vendor/renesas/rz_mcu_boards/core_package/generate/os_abstraction/src\r_os_abstraction_api.c **** 
 591:D:/Work/DeviceTester/amazon-freertos/lib/third_party/mcu_vendor/renesas/rz_mcu_boards/core_package/generate/os_abstraction/src\r_os_abstraction_api.c ****         /* NULL the pointer */
 592:D:/Work/DeviceTester/amazon-freertos/lib/third_party/mcu_vendor/renesas/rz_mcu_boards/core_package/generate/os_abstraction/src\r_os_abstraction_api.c ****         *pp_task = NULL;
 593:D:/Work/DeviceTester/amazon-freertos/lib/third_party/mcu_vendor/renesas/rz_mcu_boards/core_package/generate/os_abstraction/src\r_os_abstraction_api.c ****     }
 594:D:/Work/DeviceTester/amazon-freertos/lib/third_party/mcu_vendor/renesas/rz_mcu_boards/core_package/generate/os_abstraction/src\r_os_abstraction_api.c **** }
 454              		.loc 1 594 0
 455 000c 1040BDE8 		pop	{r4, lr}
 456              		.cfi_remember_state
 457              		.cfi_restore 14
 458              		.cfi_restore 4
 459              		.cfi_def_cfa_offset 0
 584:D:/Work/DeviceTester/amazon-freertos/lib/third_party/mcu_vendor/renesas/rz_mcu_boards/core_package/generate/os_abstraction/src\r_os_abstraction_api.c ****     }
 460              		.loc 1 584 0
 461 0010 FEFFFFEA 		b	vTaskDelete
 462              	.LVL33:
 463              	.L39:
 464              		.cfi_restore_state
 589:D:/Work/DeviceTester/amazon-freertos/lib/third_party/mcu_vendor/renesas/rz_mcu_boards/core_package/generate/os_abstraction/src\r_os_abstraction_api.c **** 
 465              		.loc 1 589 0
 466 0014 000094E5 		ldr	r0, [r4]
 467              	.LVL34:
 468 0018 FEFFFFEB 		bl	vTaskDelete
 469              	.LVL35:
 592:D:/Work/DeviceTester/amazon-freertos/lib/third_party/mcu_vendor/renesas/rz_mcu_boards/core_package/generate/os_abstraction/src\r_os_abstraction_api.c ****     }
 470              		.loc 1 592 0
 471 001c 0030A0E3 		mov	r3, #0
 472 0020 003084E5 		str	r3, [r4]
 473 0024 1080BDE8 		pop	{r4, pc}
 474              		.cfi_endproc
 475              	.LFE14:
 477              		.section	.text.R_OS_TaskSleep,"ax",%progbits
 478              		.align	2
 479              		.global	R_OS_TaskSleep
 480              		.syntax unified
 481              		.arm
 482              		.fpu neon
 484              	R_OS_TaskSleep:
 485              	.LFB15:
 595:D:/Work/DeviceTester/amazon-freertos/lib/third_party/mcu_vendor/renesas/rz_mcu_boards/core_package/generate/os_abstraction/src\r_os_abstraction_api.c **** /**************************************************************************************************
 596:D:/Work/DeviceTester/amazon-freertos/lib/third_party/mcu_vendor/renesas/rz_mcu_boards/core_package/generate/os_abstraction/src\r_os_abstraction_api.c ****  End of function R_OS_TaskDelete
 597:D:/Work/DeviceTester/amazon-freertos/lib/third_party/mcu_vendor/renesas/rz_mcu_boards/core_package/generate/os_abstraction/src\r_os_abstraction_api.c ****  **************************************************************************************************
 598:D:/Work/DeviceTester/amazon-freertos/lib/third_party/mcu_vendor/renesas/rz_mcu_boards/core_package/generate/os_abstraction/src\r_os_abstraction_api.c **** 
 599:D:/Work/DeviceTester/amazon-freertos/lib/third_party/mcu_vendor/renesas/rz_mcu_boards/core_package/generate/os_abstraction/src\r_os_abstraction_api.c **** /**************************************************************************************************
 600:D:/Work/DeviceTester/amazon-freertos/lib/third_party/mcu_vendor/renesas/rz_mcu_boards/core_package/generate/os_abstraction/src\r_os_abstraction_api.c ****  * Function Name: R_OS_TaskSleep
 601:D:/Work/DeviceTester/amazon-freertos/lib/third_party/mcu_vendor/renesas/rz_mcu_boards/core_package/generate/os_abstraction/src\r_os_abstraction_api.c ****  * Description  : Suspend the task for the specified period of time
 602:D:/Work/DeviceTester/amazon-freertos/lib/third_party/mcu_vendor/renesas/rz_mcu_boards/core_package/generate/os_abstraction/src\r_os_abstraction_api.c ****  * Arguments    : sleep_ms - sleep period in milliseconds
 603:D:/Work/DeviceTester/amazon-freertos/lib/third_party/mcu_vendor/renesas/rz_mcu_boards/core_package/generate/os_abstraction/src\r_os_abstraction_api.c ****  * Return Value : none
 604:D:/Work/DeviceTester/amazon-freertos/lib/third_party/mcu_vendor/renesas/rz_mcu_boards/core_package/generate/os_abstraction/src\r_os_abstraction_api.c ****  **************************************************************************************************
 605:D:/Work/DeviceTester/amazon-freertos/lib/third_party/mcu_vendor/renesas/rz_mcu_boards/core_package/generate/os_abstraction/src\r_os_abstraction_api.c **** void R_OS_TaskSleep (uint32_t sleep_ms)
 606:D:/Work/DeviceTester/amazon-freertos/lib/third_party/mcu_vendor/renesas/rz_mcu_boards/core_package/generate/os_abstraction/src\r_os_abstraction_api.c **** {
 486              		.loc 1 606 0
 487              		.cfi_startproc
 488              		@ args = 0, pretend = 0, frame = 0
 489              		@ frame_needed = 0, uses_anonymous_args = 0
 490              		@ link register save eliminated.
 491              	.LVL36:
 607:D:/Work/DeviceTester/amazon-freertos/lib/third_party/mcu_vendor/renesas/rz_mcu_boards/core_package/generate/os_abstraction/src\r_os_abstraction_api.c ****     /* Delay the task for the specified duration */
 608:D:/Work/DeviceTester/amazon-freertos/lib/third_party/mcu_vendor/renesas/rz_mcu_boards/core_package/generate/os_abstraction/src\r_os_abstraction_api.c ****     if (R_OS_ABSTRACTION_EV_WAIT_INFINITE == sleep_ms)
 609:D:/Work/DeviceTester/amazon-freertos/lib/third_party/mcu_vendor/renesas/rz_mcu_boards/core_package/generate/os_abstraction/src\r_os_abstraction_api.c ****     {
 610:D:/Work/DeviceTester/amazon-freertos/lib/third_party/mcu_vendor/renesas/rz_mcu_boards/core_package/generate/os_abstraction/src\r_os_abstraction_api.c ****         /* wait for ever*/
 611:D:/Work/DeviceTester/amazon-freertos/lib/third_party/mcu_vendor/renesas/rz_mcu_boards/core_package/generate/os_abstraction/src\r_os_abstraction_api.c ****         vTaskDelay(R_OS_MS_TO_SYSTICKS(portMAX_DELAY));
 612:D:/Work/DeviceTester/amazon-freertos/lib/third_party/mcu_vendor/renesas/rz_mcu_boards/core_package/generate/os_abstraction/src\r_os_abstraction_api.c ****     }
 613:D:/Work/DeviceTester/amazon-freertos/lib/third_party/mcu_vendor/renesas/rz_mcu_boards/core_package/generate/os_abstraction/src\r_os_abstraction_api.c ****     else
 614:D:/Work/DeviceTester/amazon-freertos/lib/third_party/mcu_vendor/renesas/rz_mcu_boards/core_package/generate/os_abstraction/src\r_os_abstraction_api.c ****     {
 615:D:/Work/DeviceTester/amazon-freertos/lib/third_party/mcu_vendor/renesas/rz_mcu_boards/core_package/generate/os_abstraction/src\r_os_abstraction_api.c ****         vTaskDelay(R_OS_MS_TO_SYSTICKS(sleep_ms));
 492              		.loc 1 615 0
 493 0000 FEFFFFEA 		b	vTaskDelay
 494              	.LVL37:
 495              		.cfi_endproc
 496              	.LFE15:
 498              		.section	.text.R_OS_TaskYield,"ax",%progbits
 499              		.align	2
 500              		.global	R_OS_TaskYield
 501              		.syntax unified
 502              		.arm
 503              		.fpu neon
 505              	R_OS_TaskYield:
 506              	.LFB16:
 616:D:/Work/DeviceTester/amazon-freertos/lib/third_party/mcu_vendor/renesas/rz_mcu_boards/core_package/generate/os_abstraction/src\r_os_abstraction_api.c ****     }
 617:D:/Work/DeviceTester/amazon-freertos/lib/third_party/mcu_vendor/renesas/rz_mcu_boards/core_package/generate/os_abstraction/src\r_os_abstraction_api.c **** }
 618:D:/Work/DeviceTester/amazon-freertos/lib/third_party/mcu_vendor/renesas/rz_mcu_boards/core_package/generate/os_abstraction/src\r_os_abstraction_api.c **** /**************************************************************************************************
 619:D:/Work/DeviceTester/amazon-freertos/lib/third_party/mcu_vendor/renesas/rz_mcu_boards/core_package/generate/os_abstraction/src\r_os_abstraction_api.c ****  End of function R_OS_TaskSleep
 620:D:/Work/DeviceTester/amazon-freertos/lib/third_party/mcu_vendor/renesas/rz_mcu_boards/core_package/generate/os_abstraction/src\r_os_abstraction_api.c ****  **************************************************************************************************
 621:D:/Work/DeviceTester/amazon-freertos/lib/third_party/mcu_vendor/renesas/rz_mcu_boards/core_package/generate/os_abstraction/src\r_os_abstraction_api.c **** 
 622:D:/Work/DeviceTester/amazon-freertos/lib/third_party/mcu_vendor/renesas/rz_mcu_boards/core_package/generate/os_abstraction/src\r_os_abstraction_api.c **** /**************************************************************************************************
 623:D:/Work/DeviceTester/amazon-freertos/lib/third_party/mcu_vendor/renesas/rz_mcu_boards/core_package/generate/os_abstraction/src\r_os_abstraction_api.c ****  * Function Name: R_OS_TaskYield
 624:D:/Work/DeviceTester/amazon-freertos/lib/third_party/mcu_vendor/renesas/rz_mcu_boards/core_package/generate/os_abstraction/src\r_os_abstraction_api.c ****  * Description  : Force a context switch
 625:D:/Work/DeviceTester/amazon-freertos/lib/third_party/mcu_vendor/renesas/rz_mcu_boards/core_package/generate/os_abstraction/src\r_os_abstraction_api.c ****  * Arguments    : none
 626:D:/Work/DeviceTester/amazon-freertos/lib/third_party/mcu_vendor/renesas/rz_mcu_boards/core_package/generate/os_abstraction/src\r_os_abstraction_api.c ****  * Return Value : none
 627:D:/Work/DeviceTester/amazon-freertos/lib/third_party/mcu_vendor/renesas/rz_mcu_boards/core_package/generate/os_abstraction/src\r_os_abstraction_api.c ****  **************************************************************************************************
 628:D:/Work/DeviceTester/amazon-freertos/lib/third_party/mcu_vendor/renesas/rz_mcu_boards/core_package/generate/os_abstraction/src\r_os_abstraction_api.c **** void R_OS_TaskYield (void)
 629:D:/Work/DeviceTester/amazon-freertos/lib/third_party/mcu_vendor/renesas/rz_mcu_boards/core_package/generate/os_abstraction/src\r_os_abstraction_api.c **** {
 507              		.loc 1 629 0
 508              		.cfi_startproc
 509              		@ args = 0, pretend = 0, frame = 0
 510              		@ frame_needed = 0, uses_anonymous_args = 0
 511              		@ link register save eliminated.
 630:D:/Work/DeviceTester/amazon-freertos/lib/third_party/mcu_vendor/renesas/rz_mcu_boards/core_package/generate/os_abstraction/src\r_os_abstraction_api.c ****     /* Force a context switch */
 631:D:/Work/DeviceTester/amazon-freertos/lib/third_party/mcu_vendor/renesas/rz_mcu_boards/core_package/generate/os_abstraction/src\r_os_abstraction_api.c ****     taskYIELD()
 512              		.loc 1 631 0
 513              		.syntax divided
 514              	@ 631 "D:/Work/DeviceTester/amazon-freertos/lib/third_party/mcu_vendor/renesas/rz_mcu_boards/core_p
 515 0000 000000EF 		SWI 0
 516              	@ 0 "" 2
 517              		.arm
 518              		.syntax unified
 519 0004 1EFF2FE1 		bx	lr
 520              		.cfi_endproc
 521              	.LFE16:
 523              		.section	.text.R_OS_TaskSuspend,"ax",%progbits
 524              		.align	2
 525              		.global	R_OS_TaskSuspend
 526              		.syntax unified
 527              		.arm
 528              		.fpu neon
 530              	R_OS_TaskSuspend:
 531              	.LFB17:
 632:D:/Work/DeviceTester/amazon-freertos/lib/third_party/mcu_vendor/renesas/rz_mcu_boards/core_package/generate/os_abstraction/src\r_os_abstraction_api.c ****     ;
 633:D:/Work/DeviceTester/amazon-freertos/lib/third_party/mcu_vendor/renesas/rz_mcu_boards/core_package/generate/os_abstraction/src\r_os_abstraction_api.c **** }
 634:D:/Work/DeviceTester/amazon-freertos/lib/third_party/mcu_vendor/renesas/rz_mcu_boards/core_package/generate/os_abstraction/src\r_os_abstraction_api.c **** /**************************************************************************************************
 635:D:/Work/DeviceTester/amazon-freertos/lib/third_party/mcu_vendor/renesas/rz_mcu_boards/core_package/generate/os_abstraction/src\r_os_abstraction_api.c ****  End of function R_OS_TaskYield
 636:D:/Work/DeviceTester/amazon-freertos/lib/third_party/mcu_vendor/renesas/rz_mcu_boards/core_package/generate/os_abstraction/src\r_os_abstraction_api.c ****  **************************************************************************************************
 637:D:/Work/DeviceTester/amazon-freertos/lib/third_party/mcu_vendor/renesas/rz_mcu_boards/core_package/generate/os_abstraction/src\r_os_abstraction_api.c **** 
 638:D:/Work/DeviceTester/amazon-freertos/lib/third_party/mcu_vendor/renesas/rz_mcu_boards/core_package/generate/os_abstraction/src\r_os_abstraction_api.c **** /**************************************************************************************************
 639:D:/Work/DeviceTester/amazon-freertos/lib/third_party/mcu_vendor/renesas/rz_mcu_boards/core_package/generate/os_abstraction/src\r_os_abstraction_api.c ****  * Function Name: R_OS_TaskSuspend
 640:D:/Work/DeviceTester/amazon-freertos/lib/third_party/mcu_vendor/renesas/rz_mcu_boards/core_package/generate/os_abstraction/src\r_os_abstraction_api.c ****  * Description  : Suspend the specified task
 641:D:/Work/DeviceTester/amazon-freertos/lib/third_party/mcu_vendor/renesas/rz_mcu_boards/core_package/generate/os_abstraction/src\r_os_abstraction_api.c ****  * Arguments    : p_task - pointer to task, NULL deletes the current task
 642:D:/Work/DeviceTester/amazon-freertos/lib/third_party/mcu_vendor/renesas/rz_mcu_boards/core_package/generate/os_abstraction/src\r_os_abstraction_api.c ****  * Return Value : none
 643:D:/Work/DeviceTester/amazon-freertos/lib/third_party/mcu_vendor/renesas/rz_mcu_boards/core_package/generate/os_abstraction/src\r_os_abstraction_api.c ****  **************************************************************************************************
 644:D:/Work/DeviceTester/amazon-freertos/lib/third_party/mcu_vendor/renesas/rz_mcu_boards/core_package/generate/os_abstraction/src\r_os_abstraction_api.c **** bool_t R_OS_TaskSuspend (os_task_t *p_task)
 645:D:/Work/DeviceTester/amazon-freertos/lib/third_party/mcu_vendor/renesas/rz_mcu_boards/core_package/generate/os_abstraction/src\r_os_abstraction_api.c **** {
 532              		.loc 1 645 0
 533              		.cfi_startproc
 534              		@ args = 0, pretend = 0, frame = 0
 535              		@ frame_needed = 0, uses_anonymous_args = 0
 536              	.LVL38:
 537 0000 10402DE9 		push	{r4, lr}
 538              		.cfi_def_cfa_offset 8
 539              		.cfi_offset 4, -8
 540              		.cfi_offset 14, -4
 541              		.loc 1 645 0
 542 0004 0040A0E1 		mov	r4, r0
 646:D:/Work/DeviceTester/amazon-freertos/lib/third_party/mcu_vendor/renesas/rz_mcu_boards/core_package/generate/os_abstraction/src\r_os_abstraction_api.c ****     bool_t ret;
 647:D:/Work/DeviceTester/amazon-freertos/lib/third_party/mcu_vendor/renesas/rz_mcu_boards/core_package/generate/os_abstraction/src\r_os_abstraction_api.c **** 
 648:D:/Work/DeviceTester/amazon-freertos/lib/third_party/mcu_vendor/renesas/rz_mcu_boards/core_package/generate/os_abstraction/src\r_os_abstraction_api.c ****     switch (eTaskGetState(p_task))
 543              		.loc 1 648 0
 544 0008 FEFFFFEB 		bl	eTaskGetState
 545              	.LVL39:
 546 000c 020050E3 		cmp	r0, #2
 547 0010 0300008A 		bhi	.L47
 649:D:/Work/DeviceTester/amazon-freertos/lib/third_party/mcu_vendor/renesas/rz_mcu_boards/core_package/generate/os_abstraction/src\r_os_abstraction_api.c ****     {
 650:D:/Work/DeviceTester/amazon-freertos/lib/third_party/mcu_vendor/renesas/rz_mcu_boards/core_package/generate/os_abstraction/src\r_os_abstraction_api.c ****         case eReady:
 651:D:/Work/DeviceTester/amazon-freertos/lib/third_party/mcu_vendor/renesas/rz_mcu_boards/core_package/generate/os_abstraction/src\r_os_abstraction_api.c ****         case eRunning:
 652:D:/Work/DeviceTester/amazon-freertos/lib/third_party/mcu_vendor/renesas/rz_mcu_boards/core_package/generate/os_abstraction/src\r_os_abstraction_api.c ****         case eBlocked:
 653:D:/Work/DeviceTester/amazon-freertos/lib/third_party/mcu_vendor/renesas/rz_mcu_boards/core_package/generate/os_abstraction/src\r_os_abstraction_api.c ****         {
 654:D:/Work/DeviceTester/amazon-freertos/lib/third_party/mcu_vendor/renesas/rz_mcu_boards/core_package/generate/os_abstraction/src\r_os_abstraction_api.c ****             vTaskSuspend(p_task);
 548              		.loc 1 654 0
 549 0014 0400A0E1 		mov	r0, r4
 550 0018 FEFFFFEB 		bl	vTaskSuspend
 551              	.LVL40:
 655:D:/Work/DeviceTester/amazon-freertos/lib/third_party/mcu_vendor/renesas/rz_mcu_boards/core_package/generate/os_abstraction/src\r_os_abstraction_api.c ****             ret = true;
 552              		.loc 1 655 0
 553 001c 0100A0E3 		mov	r0, #1
 656:D:/Work/DeviceTester/amazon-freertos/lib/third_party/mcu_vendor/renesas/rz_mcu_boards/core_package/generate/os_abstraction/src\r_os_abstraction_api.c ****             break;
 554              		.loc 1 656 0
 555 0020 1080BDE8 		pop	{r4, pc}
 556              	.LVL41:
 557              	.L47:
 657:D:/Work/DeviceTester/amazon-freertos/lib/third_party/mcu_vendor/renesas/rz_mcu_boards/core_package/generate/os_abstraction/src\r_os_abstraction_api.c ****         }
 658:D:/Work/DeviceTester/amazon-freertos/lib/third_party/mcu_vendor/renesas/rz_mcu_boards/core_package/generate/os_abstraction/src\r_os_abstraction_api.c **** 
 659:D:/Work/DeviceTester/amazon-freertos/lib/third_party/mcu_vendor/renesas/rz_mcu_boards/core_package/generate/os_abstraction/src\r_os_abstraction_api.c ****         default:
 660:D:/Work/DeviceTester/amazon-freertos/lib/third_party/mcu_vendor/renesas/rz_mcu_boards/core_package/generate/os_abstraction/src\r_os_abstraction_api.c ****         case eDeleted:
 661:D:/Work/DeviceTester/amazon-freertos/lib/third_party/mcu_vendor/renesas/rz_mcu_boards/core_package/generate/os_abstraction/src\r_os_abstraction_api.c ****         case eSuspended:
 662:D:/Work/DeviceTester/amazon-freertos/lib/third_party/mcu_vendor/renesas/rz_mcu_boards/core_package/generate/os_abstraction/src\r_os_abstraction_api.c ****         {
 663:D:/Work/DeviceTester/amazon-freertos/lib/third_party/mcu_vendor/renesas/rz_mcu_boards/core_package/generate/os_abstraction/src\r_os_abstraction_api.c ****             ret = false;
 558              		.loc 1 663 0
 559 0024 0000A0E3 		mov	r0, #0
 560              	.LVL42:
 664:D:/Work/DeviceTester/amazon-freertos/lib/third_party/mcu_vendor/renesas/rz_mcu_boards/core_package/generate/os_abstraction/src\r_os_abstraction_api.c ****         }
 665:D:/Work/DeviceTester/amazon-freertos/lib/third_party/mcu_vendor/renesas/rz_mcu_boards/core_package/generate/os_abstraction/src\r_os_abstraction_api.c ****     }
 666:D:/Work/DeviceTester/amazon-freertos/lib/third_party/mcu_vendor/renesas/rz_mcu_boards/core_package/generate/os_abstraction/src\r_os_abstraction_api.c ****     return (ret);
 667:D:/Work/DeviceTester/amazon-freertos/lib/third_party/mcu_vendor/renesas/rz_mcu_boards/core_package/generate/os_abstraction/src\r_os_abstraction_api.c **** }
 561              		.loc 1 667 0
 562 0028 1080BDE8 		pop	{r4, pc}
 563              		.cfi_endproc
 564              	.LFE17:
 566              		.section	.text.R_OS_TaskResume,"ax",%progbits
 567              		.align	2
 568              		.global	R_OS_TaskResume
 569              		.syntax unified
 570              		.arm
 571              		.fpu neon
 573              	R_OS_TaskResume:
 574              	.LFB18:
 668:D:/Work/DeviceTester/amazon-freertos/lib/third_party/mcu_vendor/renesas/rz_mcu_boards/core_package/generate/os_abstraction/src\r_os_abstraction_api.c **** /**************************************************************************************************
 669:D:/Work/DeviceTester/amazon-freertos/lib/third_party/mcu_vendor/renesas/rz_mcu_boards/core_package/generate/os_abstraction/src\r_os_abstraction_api.c ****  End of function R_OS_TaskSuspend
 670:D:/Work/DeviceTester/amazon-freertos/lib/third_party/mcu_vendor/renesas/rz_mcu_boards/core_package/generate/os_abstraction/src\r_os_abstraction_api.c ****  **************************************************************************************************
 671:D:/Work/DeviceTester/amazon-freertos/lib/third_party/mcu_vendor/renesas/rz_mcu_boards/core_package/generate/os_abstraction/src\r_os_abstraction_api.c **** 
 672:D:/Work/DeviceTester/amazon-freertos/lib/third_party/mcu_vendor/renesas/rz_mcu_boards/core_package/generate/os_abstraction/src\r_os_abstraction_api.c **** /**************************************************************************************************
 673:D:/Work/DeviceTester/amazon-freertos/lib/third_party/mcu_vendor/renesas/rz_mcu_boards/core_package/generate/os_abstraction/src\r_os_abstraction_api.c ****  * Function Name: R_OS_TaskResume
 674:D:/Work/DeviceTester/amazon-freertos/lib/third_party/mcu_vendor/renesas/rz_mcu_boards/core_package/generate/os_abstraction/src\r_os_abstraction_api.c ****  * Description  : Resume the task
 675:D:/Work/DeviceTester/amazon-freertos/lib/third_party/mcu_vendor/renesas/rz_mcu_boards/core_package/generate/os_abstraction/src\r_os_abstraction_api.c ****  * Arguments    : p_task - pointer to task, NULL deletes the current task
 676:D:/Work/DeviceTester/amazon-freertos/lib/third_party/mcu_vendor/renesas/rz_mcu_boards/core_package/generate/os_abstraction/src\r_os_abstraction_api.c ****  * Return Value : none
 677:D:/Work/DeviceTester/amazon-freertos/lib/third_party/mcu_vendor/renesas/rz_mcu_boards/core_package/generate/os_abstraction/src\r_os_abstraction_api.c ****  **************************************************************************************************
 678:D:/Work/DeviceTester/amazon-freertos/lib/third_party/mcu_vendor/renesas/rz_mcu_boards/core_package/generate/os_abstraction/src\r_os_abstraction_api.c **** bool_t R_OS_TaskResume (os_task_t *p_task)
 679:D:/Work/DeviceTester/amazon-freertos/lib/third_party/mcu_vendor/renesas/rz_mcu_boards/core_package/generate/os_abstraction/src\r_os_abstraction_api.c **** {
 575              		.loc 1 679 0
 576              		.cfi_startproc
 577              		@ args = 0, pretend = 0, frame = 0
 578              		@ frame_needed = 0, uses_anonymous_args = 0
 579              	.LVL43:
 580 0000 10402DE9 		push	{r4, lr}
 581              		.cfi_def_cfa_offset 8
 582              		.cfi_offset 4, -8
 583              		.cfi_offset 14, -4
 584              		.loc 1 679 0
 585 0004 0040A0E1 		mov	r4, r0
 680:D:/Work/DeviceTester/amazon-freertos/lib/third_party/mcu_vendor/renesas/rz_mcu_boards/core_package/generate/os_abstraction/src\r_os_abstraction_api.c ****     bool_t ret;
 681:D:/Work/DeviceTester/amazon-freertos/lib/third_party/mcu_vendor/renesas/rz_mcu_boards/core_package/generate/os_abstraction/src\r_os_abstraction_api.c **** 
 682:D:/Work/DeviceTester/amazon-freertos/lib/third_party/mcu_vendor/renesas/rz_mcu_boards/core_package/generate/os_abstraction/src\r_os_abstraction_api.c ****     switch (eTaskGetState(p_task))
 586              		.loc 1 682 0
 587 0008 FEFFFFEB 		bl	eTaskGetState
 588              	.LVL44:
 589 000c 030050E3 		cmp	r0, #3
 590 0010 0300001A 		bne	.L53
 683:D:/Work/DeviceTester/amazon-freertos/lib/third_party/mcu_vendor/renesas/rz_mcu_boards/core_package/generate/os_abstraction/src\r_os_abstraction_api.c ****     {
 684:D:/Work/DeviceTester/amazon-freertos/lib/third_party/mcu_vendor/renesas/rz_mcu_boards/core_package/generate/os_abstraction/src\r_os_abstraction_api.c ****         default:
 685:D:/Work/DeviceTester/amazon-freertos/lib/third_party/mcu_vendor/renesas/rz_mcu_boards/core_package/generate/os_abstraction/src\r_os_abstraction_api.c ****         case eReady:
 686:D:/Work/DeviceTester/amazon-freertos/lib/third_party/mcu_vendor/renesas/rz_mcu_boards/core_package/generate/os_abstraction/src\r_os_abstraction_api.c ****         case eRunning:
 687:D:/Work/DeviceTester/amazon-freertos/lib/third_party/mcu_vendor/renesas/rz_mcu_boards/core_package/generate/os_abstraction/src\r_os_abstraction_api.c ****         case eBlocked:
 688:D:/Work/DeviceTester/amazon-freertos/lib/third_party/mcu_vendor/renesas/rz_mcu_boards/core_package/generate/os_abstraction/src\r_os_abstraction_api.c ****         case eDeleted:
 689:D:/Work/DeviceTester/amazon-freertos/lib/third_party/mcu_vendor/renesas/rz_mcu_boards/core_package/generate/os_abstraction/src\r_os_abstraction_api.c ****         {
 690:D:/Work/DeviceTester/amazon-freertos/lib/third_party/mcu_vendor/renesas/rz_mcu_boards/core_package/generate/os_abstraction/src\r_os_abstraction_api.c ****             ret = false;
 691:D:/Work/DeviceTester/amazon-freertos/lib/third_party/mcu_vendor/renesas/rz_mcu_boards/core_package/generate/os_abstraction/src\r_os_abstraction_api.c ****             break;
 692:D:/Work/DeviceTester/amazon-freertos/lib/third_party/mcu_vendor/renesas/rz_mcu_boards/core_package/generate/os_abstraction/src\r_os_abstraction_api.c ****         }
 693:D:/Work/DeviceTester/amazon-freertos/lib/third_party/mcu_vendor/renesas/rz_mcu_boards/core_package/generate/os_abstraction/src\r_os_abstraction_api.c **** 
 694:D:/Work/DeviceTester/amazon-freertos/lib/third_party/mcu_vendor/renesas/rz_mcu_boards/core_package/generate/os_abstraction/src\r_os_abstraction_api.c ****         case eSuspended:
 695:D:/Work/DeviceTester/amazon-freertos/lib/third_party/mcu_vendor/renesas/rz_mcu_boards/core_package/generate/os_abstraction/src\r_os_abstraction_api.c ****         {
 696:D:/Work/DeviceTester/amazon-freertos/lib/third_party/mcu_vendor/renesas/rz_mcu_boards/core_package/generate/os_abstraction/src\r_os_abstraction_api.c ****             vTaskResume(p_task);
 591              		.loc 1 696 0
 592 0014 0400A0E1 		mov	r0, r4
 593 0018 FEFFFFEB 		bl	vTaskResume
 594              	.LVL45:
 697:D:/Work/DeviceTester/amazon-freertos/lib/third_party/mcu_vendor/renesas/rz_mcu_boards/core_package/generate/os_abstraction/src\r_os_abstraction_api.c ****             ret = true;
 595              		.loc 1 697 0
 596 001c 0100A0E3 		mov	r0, #1
 597 0020 1080BDE8 		pop	{r4, pc}
 598              	.LVL46:
 599              	.L53:
 690:D:/Work/DeviceTester/amazon-freertos/lib/third_party/mcu_vendor/renesas/rz_mcu_boards/core_package/generate/os_abstraction/src\r_os_abstraction_api.c ****             break;
 600              		.loc 1 690 0
 601 0024 0000A0E3 		mov	r0, #0
 602              	.LVL47:
 698:D:/Work/DeviceTester/amazon-freertos/lib/third_party/mcu_vendor/renesas/rz_mcu_boards/core_package/generate/os_abstraction/src\r_os_abstraction_api.c ****         }
 699:D:/Work/DeviceTester/amazon-freertos/lib/third_party/mcu_vendor/renesas/rz_mcu_boards/core_package/generate/os_abstraction/src\r_os_abstraction_api.c ****     }
 700:D:/Work/DeviceTester/amazon-freertos/lib/third_party/mcu_vendor/renesas/rz_mcu_boards/core_package/generate/os_abstraction/src\r_os_abstraction_api.c ****     return (ret);
 701:D:/Work/DeviceTester/amazon-freertos/lib/third_party/mcu_vendor/renesas/rz_mcu_boards/core_package/generate/os_abstraction/src\r_os_abstraction_api.c **** }
 603              		.loc 1 701 0
 604 0028 1080BDE8 		pop	{r4, pc}
 605              		.cfi_endproc
 606              	.LFE18:
 608              		.section	.text.R_OS_TasksSuspendAll,"ax",%progbits
 609              		.align	2
 610              		.global	R_OS_TasksSuspendAll
 611              		.syntax unified
 612              		.arm
 613              		.fpu neon
 615              	R_OS_TasksSuspendAll:
 616              	.LFB19:
 702:D:/Work/DeviceTester/amazon-freertos/lib/third_party/mcu_vendor/renesas/rz_mcu_boards/core_package/generate/os_abstraction/src\r_os_abstraction_api.c **** /**************************************************************************************************
 703:D:/Work/DeviceTester/amazon-freertos/lib/third_party/mcu_vendor/renesas/rz_mcu_boards/core_package/generate/os_abstraction/src\r_os_abstraction_api.c ****  End of function R_OS_TaskResume
 704:D:/Work/DeviceTester/amazon-freertos/lib/third_party/mcu_vendor/renesas/rz_mcu_boards/core_package/generate/os_abstraction/src\r_os_abstraction_api.c ****  **************************************************************************************************
 705:D:/Work/DeviceTester/amazon-freertos/lib/third_party/mcu_vendor/renesas/rz_mcu_boards/core_package/generate/os_abstraction/src\r_os_abstraction_api.c **** 
 706:D:/Work/DeviceTester/amazon-freertos/lib/third_party/mcu_vendor/renesas/rz_mcu_boards/core_package/generate/os_abstraction/src\r_os_abstraction_api.c **** /**************************************************************************************************
 707:D:/Work/DeviceTester/amazon-freertos/lib/third_party/mcu_vendor/renesas/rz_mcu_boards/core_package/generate/os_abstraction/src\r_os_abstraction_api.c ****  * Function Name: R_OS_TasksSuspendAll
 708:D:/Work/DeviceTester/amazon-freertos/lib/third_party/mcu_vendor/renesas/rz_mcu_boards/core_package/generate/os_abstraction/src\r_os_abstraction_api.c ****  * Description  : Suspend all tasks, only attempted if the operating system is running
 709:D:/Work/DeviceTester/amazon-freertos/lib/third_party/mcu_vendor/renesas/rz_mcu_boards/core_package/generate/os_abstraction/src\r_os_abstraction_api.c ****  * Arguments    : none
 710:D:/Work/DeviceTester/amazon-freertos/lib/third_party/mcu_vendor/renesas/rz_mcu_boards/core_package/generate/os_abstraction/src\r_os_abstraction_api.c ****  * Return Value : none
 711:D:/Work/DeviceTester/amazon-freertos/lib/third_party/mcu_vendor/renesas/rz_mcu_boards/core_package/generate/os_abstraction/src\r_os_abstraction_api.c ****  **************************************************************************************************
 712:D:/Work/DeviceTester/amazon-freertos/lib/third_party/mcu_vendor/renesas/rz_mcu_boards/core_package/generate/os_abstraction/src\r_os_abstraction_api.c **** void R_OS_TasksSuspendAll (void)
 713:D:/Work/DeviceTester/amazon-freertos/lib/third_party/mcu_vendor/renesas/rz_mcu_boards/core_package/generate/os_abstraction/src\r_os_abstraction_api.c **** {
 617              		.loc 1 713 0
 618              		.cfi_startproc
 619              		@ args = 0, pretend = 0, frame = 0
 620              		@ frame_needed = 0, uses_anonymous_args = 0
 621 0000 10402DE9 		push	{r4, lr}
 622              		.cfi_def_cfa_offset 8
 623              		.cfi_offset 4, -8
 624              		.cfi_offset 14, -4
 714:D:/Work/DeviceTester/amazon-freertos/lib/third_party/mcu_vendor/renesas/rz_mcu_boards/core_package/generate/os_abstraction/src\r_os_abstraction_api.c ****     /* Make sure the operating system is running */
 715:D:/Work/DeviceTester/amazon-freertos/lib/third_party/mcu_vendor/renesas/rz_mcu_boards/core_package/generate/os_abstraction/src\r_os_abstraction_api.c ****     if (xTaskGetSchedulerState() == taskSCHEDULER_RUNNING)
 625              		.loc 1 715 0
 626 0004 FEFFFFEB 		bl	xTaskGetSchedulerState
 627              	.LVL48:
 628 0008 020050E3 		cmp	r0, #2
 629 000c 1080BD18 		popne	{r4, pc}
 716:D:/Work/DeviceTester/amazon-freertos/lib/third_party/mcu_vendor/renesas/rz_mcu_boards/core_package/generate/os_abstraction/src\r_os_abstraction_api.c ****     {
 717:D:/Work/DeviceTester/amazon-freertos/lib/third_party/mcu_vendor/renesas/rz_mcu_boards/core_package/generate/os_abstraction/src\r_os_abstraction_api.c ****         /* Suspend all tasks */
 718:D:/Work/DeviceTester/amazon-freertos/lib/third_party/mcu_vendor/renesas/rz_mcu_boards/core_package/generate/os_abstraction/src\r_os_abstraction_api.c ****         vTaskSuspendAll();
 719:D:/Work/DeviceTester/amazon-freertos/lib/third_party/mcu_vendor/renesas/rz_mcu_boards/core_package/generate/os_abstraction/src\r_os_abstraction_api.c ****     }
 720:D:/Work/DeviceTester/amazon-freertos/lib/third_party/mcu_vendor/renesas/rz_mcu_boards/core_package/generate/os_abstraction/src\r_os_abstraction_api.c **** }
 630              		.loc 1 720 0
 631 0010 1040BDE8 		pop	{r4, lr}
 632              		.cfi_restore 14
 633              		.cfi_restore 4
 634              		.cfi_def_cfa_offset 0
 718:D:/Work/DeviceTester/amazon-freertos/lib/third_party/mcu_vendor/renesas/rz_mcu_boards/core_package/generate/os_abstraction/src\r_os_abstraction_api.c ****     }
 635              		.loc 1 718 0
 636 0014 FEFFFFEA 		b	vTaskSuspendAll
 637              	.LVL49:
 638              		.cfi_endproc
 639              	.LFE19:
 641              		.section	.text.R_OS_TasksResumeAll,"ax",%progbits
 642              		.align	2
 643              		.global	R_OS_TasksResumeAll
 644              		.syntax unified
 645              		.arm
 646              		.fpu neon
 648              	R_OS_TasksResumeAll:
 649              	.LFB20:
 721:D:/Work/DeviceTester/amazon-freertos/lib/third_party/mcu_vendor/renesas/rz_mcu_boards/core_package/generate/os_abstraction/src\r_os_abstraction_api.c **** /**************************************************************************************************
 722:D:/Work/DeviceTester/amazon-freertos/lib/third_party/mcu_vendor/renesas/rz_mcu_boards/core_package/generate/os_abstraction/src\r_os_abstraction_api.c ****  End of function R_OS_TasksSuspendAll
 723:D:/Work/DeviceTester/amazon-freertos/lib/third_party/mcu_vendor/renesas/rz_mcu_boards/core_package/generate/os_abstraction/src\r_os_abstraction_api.c ****  **************************************************************************************************
 724:D:/Work/DeviceTester/amazon-freertos/lib/third_party/mcu_vendor/renesas/rz_mcu_boards/core_package/generate/os_abstraction/src\r_os_abstraction_api.c **** 
 725:D:/Work/DeviceTester/amazon-freertos/lib/third_party/mcu_vendor/renesas/rz_mcu_boards/core_package/generate/os_abstraction/src\r_os_abstraction_api.c **** /**************************************************************************************************
 726:D:/Work/DeviceTester/amazon-freertos/lib/third_party/mcu_vendor/renesas/rz_mcu_boards/core_package/generate/os_abstraction/src\r_os_abstraction_api.c ****  * Function Name: R_OS_TasksResumeAll
 727:D:/Work/DeviceTester/amazon-freertos/lib/third_party/mcu_vendor/renesas/rz_mcu_boards/core_package/generate/os_abstraction/src\r_os_abstraction_api.c ****  * Description  : Resume all tasks, only attempted if the operating system is running
 728:D:/Work/DeviceTester/amazon-freertos/lib/third_party/mcu_vendor/renesas/rz_mcu_boards/core_package/generate/os_abstraction/src\r_os_abstraction_api.c ****  * Arguments    : none
 729:D:/Work/DeviceTester/amazon-freertos/lib/third_party/mcu_vendor/renesas/rz_mcu_boards/core_package/generate/os_abstraction/src\r_os_abstraction_api.c ****  * Return Value : none
 730:D:/Work/DeviceTester/amazon-freertos/lib/third_party/mcu_vendor/renesas/rz_mcu_boards/core_package/generate/os_abstraction/src\r_os_abstraction_api.c ****  **************************************************************************************************
 731:D:/Work/DeviceTester/amazon-freertos/lib/third_party/mcu_vendor/renesas/rz_mcu_boards/core_package/generate/os_abstraction/src\r_os_abstraction_api.c **** void R_OS_TasksResumeAll (void)
 732:D:/Work/DeviceTester/amazon-freertos/lib/third_party/mcu_vendor/renesas/rz_mcu_boards/core_package/generate/os_abstraction/src\r_os_abstraction_api.c **** {
 650              		.loc 1 732 0
 651              		.cfi_startproc
 652              		@ args = 0, pretend = 0, frame = 0
 653              		@ frame_needed = 0, uses_anonymous_args = 0
 654 0000 10402DE9 		push	{r4, lr}
 655              		.cfi_def_cfa_offset 8
 656              		.cfi_offset 4, -8
 657              		.cfi_offset 14, -4
 733:D:/Work/DeviceTester/amazon-freertos/lib/third_party/mcu_vendor/renesas/rz_mcu_boards/core_package/generate/os_abstraction/src\r_os_abstraction_api.c ****     /* Make sure the operating system is running */
 734:D:/Work/DeviceTester/amazon-freertos/lib/third_party/mcu_vendor/renesas/rz_mcu_boards/core_package/generate/os_abstraction/src\r_os_abstraction_api.c ****     if (xTaskGetSchedulerState() == taskSCHEDULER_SUSPENDED)
 658              		.loc 1 734 0
 659 0004 FEFFFFEB 		bl	xTaskGetSchedulerState
 660              	.LVL50:
 661 0008 000050E3 		cmp	r0, #0
 662 000c 1080BD18 		popne	{r4, pc}
 735:D:/Work/DeviceTester/amazon-freertos/lib/third_party/mcu_vendor/renesas/rz_mcu_boards/core_package/generate/os_abstraction/src\r_os_abstraction_api.c ****     {
 736:D:/Work/DeviceTester/amazon-freertos/lib/third_party/mcu_vendor/renesas/rz_mcu_boards/core_package/generate/os_abstraction/src\r_os_abstraction_api.c ****         /* Resume all tasks */
 737:D:/Work/DeviceTester/amazon-freertos/lib/third_party/mcu_vendor/renesas/rz_mcu_boards/core_package/generate/os_abstraction/src\r_os_abstraction_api.c ****         xTaskResumeAll();
 738:D:/Work/DeviceTester/amazon-freertos/lib/third_party/mcu_vendor/renesas/rz_mcu_boards/core_package/generate/os_abstraction/src\r_os_abstraction_api.c ****     }
 739:D:/Work/DeviceTester/amazon-freertos/lib/third_party/mcu_vendor/renesas/rz_mcu_boards/core_package/generate/os_abstraction/src\r_os_abstraction_api.c **** }
 663              		.loc 1 739 0
 664 0010 1040BDE8 		pop	{r4, lr}
 665              		.cfi_restore 14
 666              		.cfi_restore 4
 667              		.cfi_def_cfa_offset 0
 737:D:/Work/DeviceTester/amazon-freertos/lib/third_party/mcu_vendor/renesas/rz_mcu_boards/core_package/generate/os_abstraction/src\r_os_abstraction_api.c ****     }
 668              		.loc 1 737 0
 669 0014 FEFFFFEA 		b	xTaskResumeAll
 670              	.LVL51:
 671              		.cfi_endproc
 672              	.LFE20:
 674              		.section	.text.R_OS_TasksGetNumber,"ax",%progbits
 675              		.align	2
 676              		.global	R_OS_TasksGetNumber
 677              		.syntax unified
 678              		.arm
 679              		.fpu neon
 681              	R_OS_TasksGetNumber:
 682              	.LFB21:
 740:D:/Work/DeviceTester/amazon-freertos/lib/third_party/mcu_vendor/renesas/rz_mcu_boards/core_package/generate/os_abstraction/src\r_os_abstraction_api.c **** /**************************************************************************************************
 741:D:/Work/DeviceTester/amazon-freertos/lib/third_party/mcu_vendor/renesas/rz_mcu_boards/core_package/generate/os_abstraction/src\r_os_abstraction_api.c ****  End of function R_OS_TasksResumeAll
 742:D:/Work/DeviceTester/amazon-freertos/lib/third_party/mcu_vendor/renesas/rz_mcu_boards/core_package/generate/os_abstraction/src\r_os_abstraction_api.c ****  **************************************************************************************************
 743:D:/Work/DeviceTester/amazon-freertos/lib/third_party/mcu_vendor/renesas/rz_mcu_boards/core_package/generate/os_abstraction/src\r_os_abstraction_api.c **** 
 744:D:/Work/DeviceTester/amazon-freertos/lib/third_party/mcu_vendor/renesas/rz_mcu_boards/core_package/generate/os_abstraction/src\r_os_abstraction_api.c **** /**************************************************************************************************
 745:D:/Work/DeviceTester/amazon-freertos/lib/third_party/mcu_vendor/renesas/rz_mcu_boards/core_package/generate/os_abstraction/src\r_os_abstraction_api.c ****  * Function Name: R_OS_TasksGetNumber
 746:D:/Work/DeviceTester/amazon-freertos/lib/third_party/mcu_vendor/renesas/rz_mcu_boards/core_package/generate/os_abstraction/src\r_os_abstraction_api.c ****  * Description  : Obtain total number of active tasks defined in the system, only attempted if the 
 747:D:/Work/DeviceTester/amazon-freertos/lib/third_party/mcu_vendor/renesas/rz_mcu_boards/core_package/generate/os_abstraction/src\r_os_abstraction_api.c ****  *                running
 748:D:/Work/DeviceTester/amazon-freertos/lib/third_party/mcu_vendor/renesas/rz_mcu_boards/core_package/generate/os_abstraction/src\r_os_abstraction_api.c ****  * Arguments    : none
 749:D:/Work/DeviceTester/amazon-freertos/lib/third_party/mcu_vendor/renesas/rz_mcu_boards/core_package/generate/os_abstraction/src\r_os_abstraction_api.c ****  * Return Value : none
 750:D:/Work/DeviceTester/amazon-freertos/lib/third_party/mcu_vendor/renesas/rz_mcu_boards/core_package/generate/os_abstraction/src\r_os_abstraction_api.c ****  **************************************************************************************************
 751:D:/Work/DeviceTester/amazon-freertos/lib/third_party/mcu_vendor/renesas/rz_mcu_boards/core_package/generate/os_abstraction/src\r_os_abstraction_api.c **** uint32_t R_OS_TasksGetNumber (void)
 752:D:/Work/DeviceTester/amazon-freertos/lib/third_party/mcu_vendor/renesas/rz_mcu_boards/core_package/generate/os_abstraction/src\r_os_abstraction_api.c **** {
 683              		.loc 1 752 0
 684              		.cfi_startproc
 685              		@ args = 0, pretend = 0, frame = 0
 686              		@ frame_needed = 0, uses_anonymous_args = 0
 687              	.LVL52:
 688 0000 10402DE9 		push	{r4, lr}
 689              		.cfi_def_cfa_offset 8
 690              		.cfi_offset 4, -8
 691              		.cfi_offset 14, -4
 753:D:/Work/DeviceTester/amazon-freertos/lib/third_party/mcu_vendor/renesas/rz_mcu_boards/core_package/generate/os_abstraction/src\r_os_abstraction_api.c ****     uint32_t num_tasks = 0;
 754:D:/Work/DeviceTester/amazon-freertos/lib/third_party/mcu_vendor/renesas/rz_mcu_boards/core_package/generate/os_abstraction/src\r_os_abstraction_api.c **** 
 755:D:/Work/DeviceTester/amazon-freertos/lib/third_party/mcu_vendor/renesas/rz_mcu_boards/core_package/generate/os_abstraction/src\r_os_abstraction_api.c ****     /* Make sure the operating system is running */
 756:D:/Work/DeviceTester/amazon-freertos/lib/third_party/mcu_vendor/renesas/rz_mcu_boards/core_package/generate/os_abstraction/src\r_os_abstraction_api.c ****     if (xTaskGetSchedulerState() != taskSCHEDULER_NOT_STARTED)
 692              		.loc 1 756 0
 693 0004 FEFFFFEB 		bl	xTaskGetSchedulerState
 694              	.LVL53:
 695 0008 010050E3 		cmp	r0, #1
 696 000c 0100000A 		beq	.L62
 757:D:/Work/DeviceTester/amazon-freertos/lib/third_party/mcu_vendor/renesas/rz_mcu_boards/core_package/generate/os_abstraction/src\r_os_abstraction_api.c ****     {
 758:D:/Work/DeviceTester/amazon-freertos/lib/third_party/mcu_vendor/renesas/rz_mcu_boards/core_package/generate/os_abstraction/src\r_os_abstraction_api.c ****         /* use FreeRTOS call to obtain information */
 759:D:/Work/DeviceTester/amazon-freertos/lib/third_party/mcu_vendor/renesas/rz_mcu_boards/core_package/generate/os_abstraction/src\r_os_abstraction_api.c ****         num_tasks = uxTaskGetNumberOfTasks();
 760:D:/Work/DeviceTester/amazon-freertos/lib/third_party/mcu_vendor/renesas/rz_mcu_boards/core_package/generate/os_abstraction/src\r_os_abstraction_api.c ****     }
 761:D:/Work/DeviceTester/amazon-freertos/lib/third_party/mcu_vendor/renesas/rz_mcu_boards/core_package/generate/os_abstraction/src\r_os_abstraction_api.c ****     return (num_tasks);
 762:D:/Work/DeviceTester/amazon-freertos/lib/third_party/mcu_vendor/renesas/rz_mcu_boards/core_package/generate/os_abstraction/src\r_os_abstraction_api.c **** }
 697              		.loc 1 762 0
 698 0010 1040BDE8 		pop	{r4, lr}
 699              		.cfi_remember_state
 700              		.cfi_restore 14
 701              		.cfi_restore 4
 702              		.cfi_def_cfa_offset 0
 759:D:/Work/DeviceTester/amazon-freertos/lib/third_party/mcu_vendor/renesas/rz_mcu_boards/core_package/generate/os_abstraction/src\r_os_abstraction_api.c ****     }
 703              		.loc 1 759 0
 704 0014 FEFFFFEA 		b	uxTaskGetNumberOfTasks
 705              	.LVL54:
 706              	.L62:
 707              		.cfi_restore_state
 708              		.loc 1 762 0
 709 0018 0000A0E3 		mov	r0, #0
 710 001c 1080BDE8 		pop	{r4, pc}
 711              		.cfi_endproc
 712              	.LFE21:
 714              		.section	.text.R_OS_TaskUsesFloatingPoint,"ax",%progbits
 715              		.align	2
 716              		.global	R_OS_TaskUsesFloatingPoint
 717              		.syntax unified
 718              		.arm
 719              		.fpu neon
 721              	R_OS_TaskUsesFloatingPoint:
 722              	.LFB22:
 763:D:/Work/DeviceTester/amazon-freertos/lib/third_party/mcu_vendor/renesas/rz_mcu_boards/core_package/generate/os_abstraction/src\r_os_abstraction_api.c **** /**************************************************************************************************
 764:D:/Work/DeviceTester/amazon-freertos/lib/third_party/mcu_vendor/renesas/rz_mcu_boards/core_package/generate/os_abstraction/src\r_os_abstraction_api.c ****  End of function R_OS_TasksGetNumber
 765:D:/Work/DeviceTester/amazon-freertos/lib/third_party/mcu_vendor/renesas/rz_mcu_boards/core_package/generate/os_abstraction/src\r_os_abstraction_api.c ****  **************************************************************************************************
 766:D:/Work/DeviceTester/amazon-freertos/lib/third_party/mcu_vendor/renesas/rz_mcu_boards/core_package/generate/os_abstraction/src\r_os_abstraction_api.c **** 
 767:D:/Work/DeviceTester/amazon-freertos/lib/third_party/mcu_vendor/renesas/rz_mcu_boards/core_package/generate/os_abstraction/src\r_os_abstraction_api.c **** /**************************************************************************************************
 768:D:/Work/DeviceTester/amazon-freertos/lib/third_party/mcu_vendor/renesas/rz_mcu_boards/core_package/generate/os_abstraction/src\r_os_abstraction_api.c ****  * Function Name: R_OS_TaskUsesFloatingPoint
 769:D:/Work/DeviceTester/amazon-freertos/lib/third_party/mcu_vendor/renesas/rz_mcu_boards/core_package/generate/os_abstraction/src\r_os_abstraction_api.c ****  * Description  : Enables tasks to use floating point variables.
 770:D:/Work/DeviceTester/amazon-freertos/lib/third_party/mcu_vendor/renesas/rz_mcu_boards/core_package/generate/os_abstraction/src\r_os_abstraction_api.c ****  * Arguments    : None
 771:D:/Work/DeviceTester/amazon-freertos/lib/third_party/mcu_vendor/renesas/rz_mcu_boards/core_package/generate/os_abstraction/src\r_os_abstraction_api.c ****  * Return Value : None
 772:D:/Work/DeviceTester/amazon-freertos/lib/third_party/mcu_vendor/renesas/rz_mcu_boards/core_package/generate/os_abstraction/src\r_os_abstraction_api.c ****  **************************************************************************************************
 773:D:/Work/DeviceTester/amazon-freertos/lib/third_party/mcu_vendor/renesas/rz_mcu_boards/core_package/generate/os_abstraction/src\r_os_abstraction_api.c **** void R_OS_TaskUsesFloatingPoint (void)
 774:D:/Work/DeviceTester/amazon-freertos/lib/third_party/mcu_vendor/renesas/rz_mcu_boards/core_package/generate/os_abstraction/src\r_os_abstraction_api.c **** {
 723              		.loc 1 774 0
 724              		.cfi_startproc
 725              		@ args = 0, pretend = 0, frame = 0
 726              		@ frame_needed = 0, uses_anonymous_args = 0
 727              		@ link register save eliminated.
 775:D:/Work/DeviceTester/amazon-freertos/lib/third_party/mcu_vendor/renesas/rz_mcu_boards/core_package/generate/os_abstraction/src\r_os_abstraction_api.c ****     portTASK_USES_FLOATING_POINT();
 728              		.loc 1 775 0
 729 0000 FEFFFFEA 		b	vPortTaskUsesFPU
 730              	.LVL55:
 731              		.cfi_endproc
 732              	.LFE22:
 734              		.section	.text.R_OS_TaskGetPriority,"ax",%progbits
 735              		.align	2
 736              		.global	R_OS_TaskGetPriority
 737              		.syntax unified
 738              		.arm
 739              		.fpu neon
 741              	R_OS_TaskGetPriority:
 742              	.LFB23:
 776:D:/Work/DeviceTester/amazon-freertos/lib/third_party/mcu_vendor/renesas/rz_mcu_boards/core_package/generate/os_abstraction/src\r_os_abstraction_api.c **** }
 777:D:/Work/DeviceTester/amazon-freertos/lib/third_party/mcu_vendor/renesas/rz_mcu_boards/core_package/generate/os_abstraction/src\r_os_abstraction_api.c **** /**************************************************************************************************
 778:D:/Work/DeviceTester/amazon-freertos/lib/third_party/mcu_vendor/renesas/rz_mcu_boards/core_package/generate/os_abstraction/src\r_os_abstraction_api.c ****  End of function R_OS_TaskUsesFloatingPoint
 779:D:/Work/DeviceTester/amazon-freertos/lib/third_party/mcu_vendor/renesas/rz_mcu_boards/core_package/generate/os_abstraction/src\r_os_abstraction_api.c ****  **************************************************************************************************
 780:D:/Work/DeviceTester/amazon-freertos/lib/third_party/mcu_vendor/renesas/rz_mcu_boards/core_package/generate/os_abstraction/src\r_os_abstraction_api.c **** 
 781:D:/Work/DeviceTester/amazon-freertos/lib/third_party/mcu_vendor/renesas/rz_mcu_boards/core_package/generate/os_abstraction/src\r_os_abstraction_api.c **** /**************************************************************************************************
 782:D:/Work/DeviceTester/amazon-freertos/lib/third_party/mcu_vendor/renesas/rz_mcu_boards/core_package/generate/os_abstraction/src\r_os_abstraction_api.c ****  Function Name: R_OS_TaskGetPriority
 783:D:/Work/DeviceTester/amazon-freertos/lib/third_party/mcu_vendor/renesas/rz_mcu_boards/core_package/generate/os_abstraction/src\r_os_abstraction_api.c ****  Description:   Function to get the task priority
 784:D:/Work/DeviceTester/amazon-freertos/lib/third_party/mcu_vendor/renesas/rz_mcu_boards/core_package/generate/os_abstraction/src\r_os_abstraction_api.c ****  Arguments:     IN task_id - The ID of the task to get the priority of
 785:D:/Work/DeviceTester/amazon-freertos/lib/third_party/mcu_vendor/renesas/rz_mcu_boards/core_package/generate/os_abstraction/src\r_os_abstraction_api.c ****  Return value:  The priority of the task or -1U if not found
 786:D:/Work/DeviceTester/amazon-freertos/lib/third_party/mcu_vendor/renesas/rz_mcu_boards/core_package/generate/os_abstraction/src\r_os_abstraction_api.c ****  **************************************************************************************************
 787:D:/Work/DeviceTester/amazon-freertos/lib/third_party/mcu_vendor/renesas/rz_mcu_boards/core_package/generate/os_abstraction/src\r_os_abstraction_api.c **** int32_t R_OS_TaskGetPriority (uint32_t task_id)
 788:D:/Work/DeviceTester/amazon-freertos/lib/third_party/mcu_vendor/renesas/rz_mcu_boards/core_package/generate/os_abstraction/src\r_os_abstraction_api.c **** {
 743              		.loc 1 788 0
 744              		.cfi_startproc
 745              		@ args = 0, pretend = 0, frame = 0
 746              		@ frame_needed = 0, uses_anonymous_args = 0
 747              		@ link register save eliminated.
 748              	.LVL56:
 789:D:/Work/DeviceTester/amazon-freertos/lib/third_party/mcu_vendor/renesas/rz_mcu_boards/core_package/generate/os_abstraction/src\r_os_abstraction_api.c ****     /*Cast to task handle for FreeRTOS*/
 790:D:/Work/DeviceTester/amazon-freertos/lib/third_party/mcu_vendor/renesas/rz_mcu_boards/core_package/generate/os_abstraction/src\r_os_abstraction_api.c ****     if ((xTaskHandle) task_id != (xTaskHandle) NULL)
 749              		.loc 1 790 0
 750 0000 000050E3 		cmp	r0, #0
 751 0004 0000000A 		beq	.L66
 791:D:/Work/DeviceTester/amazon-freertos/lib/third_party/mcu_vendor/renesas/rz_mcu_boards/core_package/generate/os_abstraction/src\r_os_abstraction_api.c ****     {
 792:D:/Work/DeviceTester/amazon-freertos/lib/third_party/mcu_vendor/renesas/rz_mcu_boards/core_package/generate/os_abstraction/src\r_os_abstraction_api.c ****         /*Cast to int32_t for OS Abstraction*/
 793:D:/Work/DeviceTester/amazon-freertos/lib/third_party/mcu_vendor/renesas/rz_mcu_boards/core_package/generate/os_abstraction/src\r_os_abstraction_api.c ****         return ((int32_t) uxTaskPriorityGet((xTaskHandle) task_id));
 752              		.loc 1 793 0
 753 0008 FEFFFFEA 		b	uxTaskPriorityGet
 754              	.LVL57:
 755              	.L66:
 794:D:/Work/DeviceTester/amazon-freertos/lib/third_party/mcu_vendor/renesas/rz_mcu_boards/core_package/generate/os_abstraction/src\r_os_abstraction_api.c ****     }
 795:D:/Work/DeviceTester/amazon-freertos/lib/third_party/mcu_vendor/renesas/rz_mcu_boards/core_package/generate/os_abstraction/src\r_os_abstraction_api.c ****     else
 796:D:/Work/DeviceTester/amazon-freertos/lib/third_party/mcu_vendor/renesas/rz_mcu_boards/core_package/generate/os_abstraction/src\r_os_abstraction_api.c ****     {
 797:D:/Work/DeviceTester/amazon-freertos/lib/third_party/mcu_vendor/renesas/rz_mcu_boards/core_package/generate/os_abstraction/src\r_os_abstraction_api.c ****         return ( -1);
 798:D:/Work/DeviceTester/amazon-freertos/lib/third_party/mcu_vendor/renesas/rz_mcu_boards/core_package/generate/os_abstraction/src\r_os_abstraction_api.c ****     }
 799:D:/Work/DeviceTester/amazon-freertos/lib/third_party/mcu_vendor/renesas/rz_mcu_boards/core_package/generate/os_abstraction/src\r_os_abstraction_api.c **** }
 756              		.loc 1 799 0
 757 000c 0000E0E3 		mvn	r0, #0
 758              	.LVL58:
 759 0010 1EFF2FE1 		bx	lr
 760              		.cfi_endproc
 761              	.LFE23:
 763              		.section	.text.R_OS_TaskSetPriority,"ax",%progbits
 764              		.align	2
 765              		.global	R_OS_TaskSetPriority
 766              		.syntax unified
 767              		.arm
 768              		.fpu neon
 770              	R_OS_TaskSetPriority:
 771              	.LFB24:
 800:D:/Work/DeviceTester/amazon-freertos/lib/third_party/mcu_vendor/renesas/rz_mcu_boards/core_package/generate/os_abstraction/src\r_os_abstraction_api.c **** /**************************************************************************************************
 801:D:/Work/DeviceTester/amazon-freertos/lib/third_party/mcu_vendor/renesas/rz_mcu_boards/core_package/generate/os_abstraction/src\r_os_abstraction_api.c ****  End of function  R_OS_TaskGetPriority
 802:D:/Work/DeviceTester/amazon-freertos/lib/third_party/mcu_vendor/renesas/rz_mcu_boards/core_package/generate/os_abstraction/src\r_os_abstraction_api.c ****  **************************************************************************************************
 803:D:/Work/DeviceTester/amazon-freertos/lib/third_party/mcu_vendor/renesas/rz_mcu_boards/core_package/generate/os_abstraction/src\r_os_abstraction_api.c **** 
 804:D:/Work/DeviceTester/amazon-freertos/lib/third_party/mcu_vendor/renesas/rz_mcu_boards/core_package/generate/os_abstraction/src\r_os_abstraction_api.c **** /**************************************************************************************************
 805:D:/Work/DeviceTester/amazon-freertos/lib/third_party/mcu_vendor/renesas/rz_mcu_boards/core_package/generate/os_abstraction/src\r_os_abstraction_api.c ****  Function Name: R_OS_TaskSetPriority
 806:D:/Work/DeviceTester/amazon-freertos/lib/third_party/mcu_vendor/renesas/rz_mcu_boards/core_package/generate/os_abstraction/src\r_os_abstraction_api.c ****  Description:   Function to set the priority of a task
 807:D:/Work/DeviceTester/amazon-freertos/lib/third_party/mcu_vendor/renesas/rz_mcu_boards/core_package/generate/os_abstraction/src\r_os_abstraction_api.c ****  Arguments:     IN  task_id - The ID of the task to get the priority for
 808:D:/Work/DeviceTester/amazon-freertos/lib/third_party/mcu_vendor/renesas/rz_mcu_boards/core_package/generate/os_abstraction/src\r_os_abstraction_api.c ****  IN  uiPriority - The priority of the task
 809:D:/Work/DeviceTester/amazon-freertos/lib/third_party/mcu_vendor/renesas/rz_mcu_boards/core_package/generate/os_abstraction/src\r_os_abstraction_api.c ****  Return value:  true if the priority was set
 810:D:/Work/DeviceTester/amazon-freertos/lib/third_party/mcu_vendor/renesas/rz_mcu_boards/core_package/generate/os_abstraction/src\r_os_abstraction_api.c ****  **************************************************************************************************
 811:D:/Work/DeviceTester/amazon-freertos/lib/third_party/mcu_vendor/renesas/rz_mcu_boards/core_package/generate/os_abstraction/src\r_os_abstraction_api.c **** bool_t R_OS_TaskSetPriority (uint32_t task_id, uint32_t priority)
 812:D:/Work/DeviceTester/amazon-freertos/lib/third_party/mcu_vendor/renesas/rz_mcu_boards/core_package/generate/os_abstraction/src\r_os_abstraction_api.c **** {
 772              		.loc 1 812 0
 773              		.cfi_startproc
 774              		@ args = 0, pretend = 0, frame = 0
 775              		@ frame_needed = 0, uses_anonymous_args = 0
 776              	.LVL59:
 813:D:/Work/DeviceTester/amazon-freertos/lib/third_party/mcu_vendor/renesas/rz_mcu_boards/core_package/generate/os_abstraction/src\r_os_abstraction_api.c ****     bool_t ret_val = false;
 814:D:/Work/DeviceTester/amazon-freertos/lib/third_party/mcu_vendor/renesas/rz_mcu_boards/core_package/generate/os_abstraction/src\r_os_abstraction_api.c **** 
 815:D:/Work/DeviceTester/amazon-freertos/lib/third_party/mcu_vendor/renesas/rz_mcu_boards/core_package/generate/os_abstraction/src\r_os_abstraction_api.c ****     /*Cast to task handle for FreeRTOS*/
 816:D:/Work/DeviceTester/amazon-freertos/lib/third_party/mcu_vendor/renesas/rz_mcu_boards/core_package/generate/os_abstraction/src\r_os_abstraction_api.c ****     if ((xTaskHandle) task_id != (xTaskHandle) NULL)
 777              		.loc 1 816 0
 778 0000 003050E2 		subs	r3, r0, #0
 779 0004 0300000A 		beq	.L69
 812:D:/Work/DeviceTester/amazon-freertos/lib/third_party/mcu_vendor/renesas/rz_mcu_boards/core_package/generate/os_abstraction/src\r_os_abstraction_api.c ****     bool_t ret_val = false;
 780              		.loc 1 812 0
 781 0008 10402DE9 		push	{r4, lr}
 782              		.cfi_def_cfa_offset 8
 783              		.cfi_offset 4, -8
 784              		.cfi_offset 14, -4
 817:D:/Work/DeviceTester/amazon-freertos/lib/third_party/mcu_vendor/renesas/rz_mcu_boards/core_package/generate/os_abstraction/src\r_os_abstraction_api.c ****     {
 818:D:/Work/DeviceTester/amazon-freertos/lib/third_party/mcu_vendor/renesas/rz_mcu_boards/core_package/generate/os_abstraction/src\r_os_abstraction_api.c ****         /*Cast to task handle for FreeRTOS*/
 819:D:/Work/DeviceTester/amazon-freertos/lib/third_party/mcu_vendor/renesas/rz_mcu_boards/core_package/generate/os_abstraction/src\r_os_abstraction_api.c ****         vTaskPrioritySet((xTaskHandle) task_id, priority);
 785              		.loc 1 819 0
 786 000c FEFFFFEB 		bl	vTaskPrioritySet
 787              	.LVL60:
 820:D:/Work/DeviceTester/amazon-freertos/lib/third_party/mcu_vendor/renesas/rz_mcu_boards/core_package/generate/os_abstraction/src\r_os_abstraction_api.c ****         ret_val = true;
 788              		.loc 1 820 0
 789 0010 0100A0E3 		mov	r0, #1
 790 0014 1080BDE8 		pop	{r4, pc}
 791              	.LVL61:
 792              	.L69:
 793              		.cfi_def_cfa_offset 0
 794              		.cfi_restore 4
 795              		.cfi_restore 14
 821:D:/Work/DeviceTester/amazon-freertos/lib/third_party/mcu_vendor/renesas/rz_mcu_boards/core_package/generate/os_abstraction/src\r_os_abstraction_api.c ****     }
 822:D:/Work/DeviceTester/amazon-freertos/lib/third_party/mcu_vendor/renesas/rz_mcu_boards/core_package/generate/os_abstraction/src\r_os_abstraction_api.c ****     else
 823:D:/Work/DeviceTester/amazon-freertos/lib/third_party/mcu_vendor/renesas/rz_mcu_boards/core_package/generate/os_abstraction/src\r_os_abstraction_api.c ****     {
 824:D:/Work/DeviceTester/amazon-freertos/lib/third_party/mcu_vendor/renesas/rz_mcu_boards/core_package/generate/os_abstraction/src\r_os_abstraction_api.c ****         ret_val = false;
 796              		.loc 1 824 0
 797 0018 0300A0E1 		mov	r0, r3
 798              	.LVL62:
 825:D:/Work/DeviceTester/amazon-freertos/lib/third_party/mcu_vendor/renesas/rz_mcu_boards/core_package/generate/os_abstraction/src\r_os_abstraction_api.c ****     }
 826:D:/Work/DeviceTester/amazon-freertos/lib/third_party/mcu_vendor/renesas/rz_mcu_boards/core_package/generate/os_abstraction/src\r_os_abstraction_api.c **** 
 827:D:/Work/DeviceTester/amazon-freertos/lib/third_party/mcu_vendor/renesas/rz_mcu_boards/core_package/generate/os_abstraction/src\r_os_abstraction_api.c ****     return (ret_val);
 799              		.loc 1 827 0
 800 001c 1EFF2FE1 		bx	lr
 801              		.cfi_endproc
 802              	.LFE24:
 804              		.section	.text.R_OS_TaskGetCurrentHandle,"ax",%progbits
 805              		.align	2
 806              		.global	R_OS_TaskGetCurrentHandle
 807              		.syntax unified
 808              		.arm
 809              		.fpu neon
 811              	R_OS_TaskGetCurrentHandle:
 812              	.LFB25:
 828:D:/Work/DeviceTester/amazon-freertos/lib/third_party/mcu_vendor/renesas/rz_mcu_boards/core_package/generate/os_abstraction/src\r_os_abstraction_api.c **** }
 829:D:/Work/DeviceTester/amazon-freertos/lib/third_party/mcu_vendor/renesas/rz_mcu_boards/core_package/generate/os_abstraction/src\r_os_abstraction_api.c **** /**************************************************************************************************
 830:D:/Work/DeviceTester/amazon-freertos/lib/third_party/mcu_vendor/renesas/rz_mcu_boards/core_package/generate/os_abstraction/src\r_os_abstraction_api.c ****  End of function  R_OS_TaskSetPriority
 831:D:/Work/DeviceTester/amazon-freertos/lib/third_party/mcu_vendor/renesas/rz_mcu_boards/core_package/generate/os_abstraction/src\r_os_abstraction_api.c ****  **************************************************************************************************
 832:D:/Work/DeviceTester/amazon-freertos/lib/third_party/mcu_vendor/renesas/rz_mcu_boards/core_package/generate/os_abstraction/src\r_os_abstraction_api.c **** 
 833:D:/Work/DeviceTester/amazon-freertos/lib/third_party/mcu_vendor/renesas/rz_mcu_boards/core_package/generate/os_abstraction/src\r_os_abstraction_api.c **** /**************************************************************************************************
 834:D:/Work/DeviceTester/amazon-freertos/lib/third_party/mcu_vendor/renesas/rz_mcu_boards/core_package/generate/os_abstraction/src\r_os_abstraction_api.c ****  * Function Name: R_OS_TaskGetCurrentHandle
 835:D:/Work/DeviceTester/amazon-freertos/lib/third_party/mcu_vendor/renesas/rz_mcu_boards/core_package/generate/os_abstraction/src\r_os_abstraction_api.c ****  * Description  : Get the ID of a task
 836:D:/Work/DeviceTester/amazon-freertos/lib/third_party/mcu_vendor/renesas/rz_mcu_boards/core_package/generate/os_abstraction/src\r_os_abstraction_api.c ****  * Arguments    : task - pointer to task
 837:D:/Work/DeviceTester/amazon-freertos/lib/third_party/mcu_vendor/renesas/rz_mcu_boards/core_package/generate/os_abstraction/src\r_os_abstraction_api.c ****  * Return Value : Task id
 838:D:/Work/DeviceTester/amazon-freertos/lib/third_party/mcu_vendor/renesas/rz_mcu_boards/core_package/generate/os_abstraction/src\r_os_abstraction_api.c ****  **************************************************************************************************
 839:D:/Work/DeviceTester/amazon-freertos/lib/third_party/mcu_vendor/renesas/rz_mcu_boards/core_package/generate/os_abstraction/src\r_os_abstraction_api.c **** os_task_t *R_OS_TaskGetCurrentHandle (void)
 840:D:/Work/DeviceTester/amazon-freertos/lib/third_party/mcu_vendor/renesas/rz_mcu_boards/core_package/generate/os_abstraction/src\r_os_abstraction_api.c **** {
 813              		.loc 1 840 0
 814              		.cfi_startproc
 815              		@ args = 0, pretend = 0, frame = 0
 816              		@ frame_needed = 0, uses_anonymous_args = 0
 817              		@ link register save eliminated.
 841:D:/Work/DeviceTester/amazon-freertos/lib/third_party/mcu_vendor/renesas/rz_mcu_boards/core_package/generate/os_abstraction/src\r_os_abstraction_api.c ****     return xTaskGetCurrentTaskHandle();
 818              		.loc 1 841 0
 819 0000 FEFFFFEA 		b	xTaskGetCurrentTaskHandle
 820              	.LVL63:
 821              		.cfi_endproc
 822              	.LFE25:
 824              		.section	.text.R_OS_TaskGetCurrentName,"ax",%progbits
 825              		.align	2
 826              		.global	R_OS_TaskGetCurrentName
 827              		.syntax unified
 828              		.arm
 829              		.fpu neon
 831              	R_OS_TaskGetCurrentName:
 832              	.LFB26:
 842:D:/Work/DeviceTester/amazon-freertos/lib/third_party/mcu_vendor/renesas/rz_mcu_boards/core_package/generate/os_abstraction/src\r_os_abstraction_api.c **** }
 843:D:/Work/DeviceTester/amazon-freertos/lib/third_party/mcu_vendor/renesas/rz_mcu_boards/core_package/generate/os_abstraction/src\r_os_abstraction_api.c **** /**************************************************************************************************
 844:D:/Work/DeviceTester/amazon-freertos/lib/third_party/mcu_vendor/renesas/rz_mcu_boards/core_package/generate/os_abstraction/src\r_os_abstraction_api.c ****  End of function R_OS_TaskGetCurrentHandle
 845:D:/Work/DeviceTester/amazon-freertos/lib/third_party/mcu_vendor/renesas/rz_mcu_boards/core_package/generate/os_abstraction/src\r_os_abstraction_api.c ****  **************************************************************************************************
 846:D:/Work/DeviceTester/amazon-freertos/lib/third_party/mcu_vendor/renesas/rz_mcu_boards/core_package/generate/os_abstraction/src\r_os_abstraction_api.c **** 
 847:D:/Work/DeviceTester/amazon-freertos/lib/third_party/mcu_vendor/renesas/rz_mcu_boards/core_package/generate/os_abstraction/src\r_os_abstraction_api.c **** /**************************************************************************************************
 848:D:/Work/DeviceTester/amazon-freertos/lib/third_party/mcu_vendor/renesas/rz_mcu_boards/core_package/generate/os_abstraction/src\r_os_abstraction_api.c ****  * Function Name: R_OS_TaskGetCurrentName
 849:D:/Work/DeviceTester/amazon-freertos/lib/third_party/mcu_vendor/renesas/rz_mcu_boards/core_package/generate/os_abstraction/src\r_os_abstraction_api.c ****  * Description  : return a pointer to the current task name
 850:D:/Work/DeviceTester/amazon-freertos/lib/third_party/mcu_vendor/renesas/rz_mcu_boards/core_package/generate/os_abstraction/src\r_os_abstraction_api.c ****  * Arguments    : none
 851:D:/Work/DeviceTester/amazon-freertos/lib/third_party/mcu_vendor/renesas/rz_mcu_boards/core_package/generate/os_abstraction/src\r_os_abstraction_api.c ****  * Return Value : char * pointer to task name
 852:D:/Work/DeviceTester/amazon-freertos/lib/third_party/mcu_vendor/renesas/rz_mcu_boards/core_package/generate/os_abstraction/src\r_os_abstraction_api.c ****  **************************************************************************************************
 853:D:/Work/DeviceTester/amazon-freertos/lib/third_party/mcu_vendor/renesas/rz_mcu_boards/core_package/generate/os_abstraction/src\r_os_abstraction_api.c **** const char *R_OS_TaskGetCurrentName (void)
 854:D:/Work/DeviceTester/amazon-freertos/lib/third_party/mcu_vendor/renesas/rz_mcu_boards/core_package/generate/os_abstraction/src\r_os_abstraction_api.c **** {
 833              		.loc 1 854 0
 834              		.cfi_startproc
 835              		@ args = 0, pretend = 0, frame = 40
 836              		@ frame_needed = 0, uses_anonymous_args = 0
 837 0000 04E02DE5 		str	lr, [sp, #-4]!
 838              		.cfi_def_cfa_offset 4
 839              		.cfi_offset 14, -4
 840 0004 2CD04DE2 		sub	sp, sp, #44
 841              		.cfi_def_cfa_offset 48
 855:D:/Work/DeviceTester/amazon-freertos/lib/third_party/mcu_vendor/renesas/rz_mcu_boards/core_package/generate/os_abstraction/src\r_os_abstraction_api.c ****     TaskHandle_t handle = xTaskGetCurrentTaskHandle();
 842              		.loc 1 855 0
 843 0008 FEFFFFEB 		bl	xTaskGetCurrentTaskHandle
 844              	.LVL64:
 856:D:/Work/DeviceTester/amazon-freertos/lib/third_party/mcu_vendor/renesas/rz_mcu_boards/core_package/generate/os_abstraction/src\r_os_abstraction_api.c ****     TaskStatus_t task_details;
 857:D:/Work/DeviceTester/amazon-freertos/lib/third_party/mcu_vendor/renesas/rz_mcu_boards/core_package/generate/os_abstraction/src\r_os_abstraction_api.c **** 
 858:D:/Work/DeviceTester/amazon-freertos/lib/third_party/mcu_vendor/renesas/rz_mcu_boards/core_package/generate/os_abstraction/src\r_os_abstraction_api.c ****     /*Use the handle to obtain further information about the task.*/
 859:D:/Work/DeviceTester/amazon-freertos/lib/third_party/mcu_vendor/renesas/rz_mcu_boards/core_package/generate/os_abstraction/src\r_os_abstraction_api.c ****     vTaskGetInfo(handle, &task_details, pdTRUE, eInvalid);
 845              		.loc 1 859 0
 846 000c 0530A0E3 		mov	r3, #5
 847 0010 0120A0E3 		mov	r2, #1
 848 0014 04108DE2 		add	r1, sp, #4
 849 0018 FEFFFFEB 		bl	vTaskGetInfo
 850              	.LVL65:
 860:D:/Work/DeviceTester/amazon-freertos/lib/third_party/mcu_vendor/renesas/rz_mcu_boards/core_package/generate/os_abstraction/src\r_os_abstraction_api.c **** 
 861:D:/Work/DeviceTester/amazon-freertos/lib/third_party/mcu_vendor/renesas/rz_mcu_boards/core_package/generate/os_abstraction/src\r_os_abstraction_api.c ****     return (task_details.pcTaskName);
 862:D:/Work/DeviceTester/amazon-freertos/lib/third_party/mcu_vendor/renesas/rz_mcu_boards/core_package/generate/os_abstraction/src\r_os_abstraction_api.c **** }
 851              		.loc 1 862 0
 852 001c 08009DE5 		ldr	r0, [sp, #8]
 853 0020 2CD08DE2 		add	sp, sp, #44
 854              		.cfi_def_cfa_offset 4
 855              		@ sp needed
 856 0024 04F09DE4 		ldr	pc, [sp], #4
 857              		.cfi_endproc
 858              	.LFE26:
 860              		.section	.text.R_OS_SysLock,"ax",%progbits
 861              		.align	2
 862              		.global	R_OS_SysLock
 863              		.syntax unified
 864              		.arm
 865              		.fpu neon
 867              	R_OS_SysLock:
 868              	.LFB28:
 863:D:/Work/DeviceTester/amazon-freertos/lib/third_party/mcu_vendor/renesas/rz_mcu_boards/core_package/generate/os_abstraction/src\r_os_abstraction_api.c **** /**************************************************************************************************
 864:D:/Work/DeviceTester/amazon-freertos/lib/third_party/mcu_vendor/renesas/rz_mcu_boards/core_package/generate/os_abstraction/src\r_os_abstraction_api.c ****  End of function R_OS_TaskGetCurrentName
 865:D:/Work/DeviceTester/amazon-freertos/lib/third_party/mcu_vendor/renesas/rz_mcu_boards/core_package/generate/os_abstraction/src\r_os_abstraction_api.c ****  **************************************************************************************************
 866:D:/Work/DeviceTester/amazon-freertos/lib/third_party/mcu_vendor/renesas/rz_mcu_boards/core_package/generate/os_abstraction/src\r_os_abstraction_api.c **** 
 867:D:/Work/DeviceTester/amazon-freertos/lib/third_party/mcu_vendor/renesas/rz_mcu_boards/core_package/generate/os_abstraction/src\r_os_abstraction_api.c **** /**************************************************************************************************
 868:D:/Work/DeviceTester/amazon-freertos/lib/third_party/mcu_vendor/renesas/rz_mcu_boards/core_package/generate/os_abstraction/src\r_os_abstraction_api.c ****  * Function Name: R_OS_TaskGetState
 869:D:/Work/DeviceTester/amazon-freertos/lib/third_party/mcu_vendor/renesas/rz_mcu_boards/core_package/generate/os_abstraction/src\r_os_abstraction_api.c ****  * Description  : Get the state of a task
 870:D:/Work/DeviceTester/amazon-freertos/lib/third_party/mcu_vendor/renesas/rz_mcu_boards/core_package/generate/os_abstraction/src\r_os_abstraction_api.c ****  * Arguments    : p_task - pointer to task
 871:D:/Work/DeviceTester/amazon-freertos/lib/third_party/mcu_vendor/renesas/rz_mcu_boards/core_package/generate/os_abstraction/src\r_os_abstraction_api.c ****  * Return Value : String describing the status of the task
 872:D:/Work/DeviceTester/amazon-freertos/lib/third_party/mcu_vendor/renesas/rz_mcu_boards/core_package/generate/os_abstraction/src\r_os_abstraction_api.c ****  **************************************************************************************************
 873:D:/Work/DeviceTester/amazon-freertos/lib/third_party/mcu_vendor/renesas/rz_mcu_boards/core_package/generate/os_abstraction/src\r_os_abstraction_api.c **** const char *R_OS_TaskGetState (const char *p_task)
 874:D:/Work/DeviceTester/amazon-freertos/lib/third_party/mcu_vendor/renesas/rz_mcu_boards/core_package/generate/os_abstraction/src\r_os_abstraction_api.c **** {
 875:D:/Work/DeviceTester/amazon-freertos/lib/third_party/mcu_vendor/renesas/rz_mcu_boards/core_package/generate/os_abstraction/src\r_os_abstraction_api.c ****     /* initialise pointer to NULL */
 876:D:/Work/DeviceTester/amazon-freertos/lib/third_party/mcu_vendor/renesas/rz_mcu_boards/core_package/generate/os_abstraction/src\r_os_abstraction_api.c ****     xTaskStatusType *p_task_status_array = NULL;
 877:D:/Work/DeviceTester/amazon-freertos/lib/third_party/mcu_vendor/renesas/rz_mcu_boards/core_package/generate/os_abstraction/src\r_os_abstraction_api.c ****     uint32_t ux_array_size = 0;
 878:D:/Work/DeviceTester/amazon-freertos/lib/third_party/mcu_vendor/renesas/rz_mcu_boards/core_package/generate/os_abstraction/src\r_os_abstraction_api.c ****     uint32_t ux_size = 0;
 879:D:/Work/DeviceTester/amazon-freertos/lib/third_party/mcu_vendor/renesas/rz_mcu_boards/core_package/generate/os_abstraction/src\r_os_abstraction_api.c ****     uint16_t j;
 880:D:/Work/DeviceTester/amazon-freertos/lib/third_party/mcu_vendor/renesas/rz_mcu_boards/core_package/generate/os_abstraction/src\r_os_abstraction_api.c ****     eTaskState ret_state = eInvalid;
 881:D:/Work/DeviceTester/amazon-freertos/lib/third_party/mcu_vendor/renesas/rz_mcu_boards/core_package/generate/os_abstraction/src\r_os_abstraction_api.c ****     e_memory_region_t dummy = R_MEMORY_REGION_DEFAULT;
 882:D:/Work/DeviceTester/amazon-freertos/lib/third_party/mcu_vendor/renesas/rz_mcu_boards/core_package/generate/os_abstraction/src\r_os_abstraction_api.c ****     bool_t exit_loop;
 883:D:/Work/DeviceTester/amazon-freertos/lib/third_party/mcu_vendor/renesas/rz_mcu_boards/core_package/generate/os_abstraction/src\r_os_abstraction_api.c **** 
 884:D:/Work/DeviceTester/amazon-freertos/lib/third_party/mcu_vendor/renesas/rz_mcu_boards/core_package/generate/os_abstraction/src\r_os_abstraction_api.c ****     static const char *sp_status_name[] =
 885:D:/Work/DeviceTester/amazon-freertos/lib/third_party/mcu_vendor/renesas/rz_mcu_boards/core_package/generate/os_abstraction/src\r_os_abstraction_api.c ****     { [eRunning] = "Running", [eReady] = "Ready", [eBlocked] = "Blocked", [eSuspended] = "Suspended
 886:D:/Work/DeviceTester/amazon-freertos/lib/third_party/mcu_vendor/renesas/rz_mcu_boards/core_package/generate/os_abstraction/src\r_os_abstraction_api.c ****             ] = "Deleted", [eInvalid] = "Invalid" };
 887:D:/Work/DeviceTester/amazon-freertos/lib/third_party/mcu_vendor/renesas/rz_mcu_boards/core_package/generate/os_abstraction/src\r_os_abstraction_api.c **** 
 888:D:/Work/DeviceTester/amazon-freertos/lib/third_party/mcu_vendor/renesas/rz_mcu_boards/core_package/generate/os_abstraction/src\r_os_abstraction_api.c ****     if (ux_array_size > 0)
 889:D:/Work/DeviceTester/amazon-freertos/lib/third_party/mcu_vendor/renesas/rz_mcu_boards/core_package/generate/os_abstraction/src\r_os_abstraction_api.c ****     {
 890:D:/Work/DeviceTester/amazon-freertos/lib/third_party/mcu_vendor/renesas/rz_mcu_boards/core_package/generate/os_abstraction/src\r_os_abstraction_api.c ****         /*Cast FreeRTOS specific variable to void**/
 891:D:/Work/DeviceTester/amazon-freertos/lib/third_party/mcu_vendor/renesas/rz_mcu_boards/core_package/generate/os_abstraction/src\r_os_abstraction_api.c ****         R_OS_Free((void *) &p_task_status_array);
 892:D:/Work/DeviceTester/amazon-freertos/lib/third_party/mcu_vendor/renesas/rz_mcu_boards/core_package/generate/os_abstraction/src\r_os_abstraction_api.c ****     }
 893:D:/Work/DeviceTester/amazon-freertos/lib/third_party/mcu_vendor/renesas/rz_mcu_boards/core_package/generate/os_abstraction/src\r_os_abstraction_api.c **** 
 894:D:/Work/DeviceTester/amazon-freertos/lib/third_party/mcu_vendor/renesas/rz_mcu_boards/core_package/generate/os_abstraction/src\r_os_abstraction_api.c ****     ux_array_size = uxTaskGetNumberOfTasks();
 895:D:/Work/DeviceTester/amazon-freertos/lib/third_party/mcu_vendor/renesas/rz_mcu_boards/core_package/generate/os_abstraction/src\r_os_abstraction_api.c **** 
 896:D:/Work/DeviceTester/amazon-freertos/lib/third_party/mcu_vendor/renesas/rz_mcu_boards/core_package/generate/os_abstraction/src\r_os_abstraction_api.c ****     if (ux_array_size > 0)
 897:D:/Work/DeviceTester/amazon-freertos/lib/third_party/mcu_vendor/renesas/rz_mcu_boards/core_package/generate/os_abstraction/src\r_os_abstraction_api.c ****     {
 898:D:/Work/DeviceTester/amazon-freertos/lib/third_party/mcu_vendor/renesas/rz_mcu_boards/core_package/generate/os_abstraction/src\r_os_abstraction_api.c ****         p_task_status_array = R_OS_Malloc(ux_array_size * sizeof(xTaskStatusType), dummy);
 899:D:/Work/DeviceTester/amazon-freertos/lib/third_party/mcu_vendor/renesas/rz_mcu_boards/core_package/generate/os_abstraction/src\r_os_abstraction_api.c ****     }
 900:D:/Work/DeviceTester/amazon-freertos/lib/third_party/mcu_vendor/renesas/rz_mcu_boards/core_package/generate/os_abstraction/src\r_os_abstraction_api.c **** 
 901:D:/Work/DeviceTester/amazon-freertos/lib/third_party/mcu_vendor/renesas/rz_mcu_boards/core_package/generate/os_abstraction/src\r_os_abstraction_api.c ****     /* handle unsuccessful malloc */
 902:D:/Work/DeviceTester/amazon-freertos/lib/third_party/mcu_vendor/renesas/rz_mcu_boards/core_package/generate/os_abstraction/src\r_os_abstraction_api.c ****     if (NULL == p_task_status_array)
 903:D:/Work/DeviceTester/amazon-freertos/lib/third_party/mcu_vendor/renesas/rz_mcu_boards/core_package/generate/os_abstraction/src\r_os_abstraction_api.c ****     {
 904:D:/Work/DeviceTester/amazon-freertos/lib/third_party/mcu_vendor/renesas/rz_mcu_boards/core_package/generate/os_abstraction/src\r_os_abstraction_api.c ****         printf("Cannot get memory for threads list\r\n");
 905:D:/Work/DeviceTester/amazon-freertos/lib/third_party/mcu_vendor/renesas/rz_mcu_boards/core_package/generate/os_abstraction/src\r_os_abstraction_api.c **** 
 906:D:/Work/DeviceTester/amazon-freertos/lib/third_party/mcu_vendor/renesas/rz_mcu_boards/core_package/generate/os_abstraction/src\r_os_abstraction_api.c ****         /* return NULL if unsuccessful */
 907:D:/Work/DeviceTester/amazon-freertos/lib/third_party/mcu_vendor/renesas/rz_mcu_boards/core_package/generate/os_abstraction/src\r_os_abstraction_api.c ****         return (NULL);
 908:D:/Work/DeviceTester/amazon-freertos/lib/third_party/mcu_vendor/renesas/rz_mcu_boards/core_package/generate/os_abstraction/src\r_os_abstraction_api.c ****     }
 909:D:/Work/DeviceTester/amazon-freertos/lib/third_party/mcu_vendor/renesas/rz_mcu_boards/core_package/generate/os_abstraction/src\r_os_abstraction_api.c **** 
 910:D:/Work/DeviceTester/amazon-freertos/lib/third_party/mcu_vendor/renesas/rz_mcu_boards/core_package/generate/os_abstraction/src\r_os_abstraction_api.c ****     /* determine system status */
 911:D:/Work/DeviceTester/amazon-freertos/lib/third_party/mcu_vendor/renesas/rz_mcu_boards/core_package/generate/os_abstraction/src\r_os_abstraction_api.c ****     ux_size = uxTaskGetSystemState(p_task_status_array, ux_array_size, NULL);
 912:D:/Work/DeviceTester/amazon-freertos/lib/third_party/mcu_vendor/renesas/rz_mcu_boards/core_package/generate/os_abstraction/src\r_os_abstraction_api.c **** 
 913:D:/Work/DeviceTester/amazon-freertos/lib/third_party/mcu_vendor/renesas/rz_mcu_boards/core_package/generate/os_abstraction/src\r_os_abstraction_api.c ****     exit_loop = false;
 914:D:/Work/DeviceTester/amazon-freertos/lib/third_party/mcu_vendor/renesas/rz_mcu_boards/core_package/generate/os_abstraction/src\r_os_abstraction_api.c ****     for (j = 0; ((j < ux_array_size) && ( !exit_loop)); j++)
 915:D:/Work/DeviceTester/amazon-freertos/lib/third_party/mcu_vendor/renesas/rz_mcu_boards/core_package/generate/os_abstraction/src\r_os_abstraction_api.c ****     {
 916:D:/Work/DeviceTester/amazon-freertos/lib/third_party/mcu_vendor/renesas/rz_mcu_boards/core_package/generate/os_abstraction/src\r_os_abstraction_api.c ****         xTaskStatusType *p_xt = p_task_status_array + j;
 917:D:/Work/DeviceTester/amazon-freertos/lib/third_party/mcu_vendor/renesas/rz_mcu_boards/core_package/generate/os_abstraction/src\r_os_abstraction_api.c **** 
 918:D:/Work/DeviceTester/amazon-freertos/lib/third_party/mcu_vendor/renesas/rz_mcu_boards/core_package/generate/os_abstraction/src\r_os_abstraction_api.c ****         if ( !(strcmp(p_xt->pcTaskName, p_task)))
 919:D:/Work/DeviceTester/amazon-freertos/lib/third_party/mcu_vendor/renesas/rz_mcu_boards/core_package/generate/os_abstraction/src\r_os_abstraction_api.c ****         {
 920:D:/Work/DeviceTester/amazon-freertos/lib/third_party/mcu_vendor/renesas/rz_mcu_boards/core_package/generate/os_abstraction/src\r_os_abstraction_api.c ****             ret_state = p_xt->eCurrentState;
 921:D:/Work/DeviceTester/amazon-freertos/lib/third_party/mcu_vendor/renesas/rz_mcu_boards/core_package/generate/os_abstraction/src\r_os_abstraction_api.c ****             exit_loop = true;
 922:D:/Work/DeviceTester/amazon-freertos/lib/third_party/mcu_vendor/renesas/rz_mcu_boards/core_package/generate/os_abstraction/src\r_os_abstraction_api.c ****         }
 923:D:/Work/DeviceTester/amazon-freertos/lib/third_party/mcu_vendor/renesas/rz_mcu_boards/core_package/generate/os_abstraction/src\r_os_abstraction_api.c ****     }
 924:D:/Work/DeviceTester/amazon-freertos/lib/third_party/mcu_vendor/renesas/rz_mcu_boards/core_package/generate/os_abstraction/src\r_os_abstraction_api.c **** 
 925:D:/Work/DeviceTester/amazon-freertos/lib/third_party/mcu_vendor/renesas/rz_mcu_boards/core_package/generate/os_abstraction/src\r_os_abstraction_api.c ****     if (ux_array_size > 0)
 926:D:/Work/DeviceTester/amazon-freertos/lib/third_party/mcu_vendor/renesas/rz_mcu_boards/core_package/generate/os_abstraction/src\r_os_abstraction_api.c ****     {
 927:D:/Work/DeviceTester/amazon-freertos/lib/third_party/mcu_vendor/renesas/rz_mcu_boards/core_package/generate/os_abstraction/src\r_os_abstraction_api.c ****         /*Cast FreeRTOS specific variable to void**/
 928:D:/Work/DeviceTester/amazon-freertos/lib/third_party/mcu_vendor/renesas/rz_mcu_boards/core_package/generate/os_abstraction/src\r_os_abstraction_api.c ****         R_OS_Free((void *) &p_task_status_array);
 929:D:/Work/DeviceTester/amazon-freertos/lib/third_party/mcu_vendor/renesas/rz_mcu_boards/core_package/generate/os_abstraction/src\r_os_abstraction_api.c ****     }
 930:D:/Work/DeviceTester/amazon-freertos/lib/third_party/mcu_vendor/renesas/rz_mcu_boards/core_package/generate/os_abstraction/src\r_os_abstraction_api.c **** 
 931:D:/Work/DeviceTester/amazon-freertos/lib/third_party/mcu_vendor/renesas/rz_mcu_boards/core_package/generate/os_abstraction/src\r_os_abstraction_api.c ****     return (sp_status_name[ret_state]);
 932:D:/Work/DeviceTester/amazon-freertos/lib/third_party/mcu_vendor/renesas/rz_mcu_boards/core_package/generate/os_abstraction/src\r_os_abstraction_api.c **** }
 933:D:/Work/DeviceTester/amazon-freertos/lib/third_party/mcu_vendor/renesas/rz_mcu_boards/core_package/generate/os_abstraction/src\r_os_abstraction_api.c **** /**************************************************************************************************
 934:D:/Work/DeviceTester/amazon-freertos/lib/third_party/mcu_vendor/renesas/rz_mcu_boards/core_package/generate/os_abstraction/src\r_os_abstraction_api.c ****  End of function R_OS_TaskGetState
 935:D:/Work/DeviceTester/amazon-freertos/lib/third_party/mcu_vendor/renesas/rz_mcu_boards/core_package/generate/os_abstraction/src\r_os_abstraction_api.c ****  **************************************************************************************************
 936:D:/Work/DeviceTester/amazon-freertos/lib/third_party/mcu_vendor/renesas/rz_mcu_boards/core_package/generate/os_abstraction/src\r_os_abstraction_api.c **** 
 937:D:/Work/DeviceTester/amazon-freertos/lib/third_party/mcu_vendor/renesas/rz_mcu_boards/core_package/generate/os_abstraction/src\r_os_abstraction_api.c **** /**************************************************************************************************
 938:D:/Work/DeviceTester/amazon-freertos/lib/third_party/mcu_vendor/renesas/rz_mcu_boards/core_package/generate/os_abstraction/src\r_os_abstraction_api.c ****  *                                  System API
 939:D:/Work/DeviceTester/amazon-freertos/lib/third_party/mcu_vendor/renesas/rz_mcu_boards/core_package/generate/os_abstraction/src\r_os_abstraction_api.c ****  **************************************************************************************************
 940:D:/Work/DeviceTester/amazon-freertos/lib/third_party/mcu_vendor/renesas/rz_mcu_boards/core_package/generate/os_abstraction/src\r_os_abstraction_api.c **** 
 941:D:/Work/DeviceTester/amazon-freertos/lib/third_party/mcu_vendor/renesas/rz_mcu_boards/core_package/generate/os_abstraction/src\r_os_abstraction_api.c **** /**************************************************************************************************
 942:D:/Work/DeviceTester/amazon-freertos/lib/third_party/mcu_vendor/renesas/rz_mcu_boards/core_package/generate/os_abstraction/src\r_os_abstraction_api.c ****  * Function Name: R_OS_SysLock
 943:D:/Work/DeviceTester/amazon-freertos/lib/third_party/mcu_vendor/renesas/rz_mcu_boards/core_package/generate/os_abstraction/src\r_os_abstraction_api.c ****  * Description  : Function to lock a critical section.
 944:D:/Work/DeviceTester/amazon-freertos/lib/third_party/mcu_vendor/renesas/rz_mcu_boards/core_package/generate/os_abstraction/src\r_os_abstraction_api.c ****  * Arguments    : None.
 945:D:/Work/DeviceTester/amazon-freertos/lib/third_party/mcu_vendor/renesas/rz_mcu_boards/core_package/generate/os_abstraction/src\r_os_abstraction_api.c ****  * Return Value : 1 - Critical section entered outside ISR
 946:D:/Work/DeviceTester/amazon-freertos/lib/third_party/mcu_vendor/renesas/rz_mcu_boards/core_package/generate/os_abstraction/src\r_os_abstraction_api.c ****  *                0 - Critical section entered inside ISR
 947:D:/Work/DeviceTester/amazon-freertos/lib/third_party/mcu_vendor/renesas/rz_mcu_boards/core_package/generate/os_abstraction/src\r_os_abstraction_api.c ****  **************************************************************************************************
 948:D:/Work/DeviceTester/amazon-freertos/lib/third_party/mcu_vendor/renesas/rz_mcu_boards/core_package/generate/os_abstraction/src\r_os_abstraction_api.c **** int_t R_OS_SysLock (void)
 949:D:/Work/DeviceTester/amazon-freertos/lib/third_party/mcu_vendor/renesas/rz_mcu_boards/core_package/generate/os_abstraction/src\r_os_abstraction_api.c **** {
 869              		.loc 1 949 0
 870              		.cfi_startproc
 871              		@ args = 0, pretend = 0, frame = 0
 872              		@ frame_needed = 0, uses_anonymous_args = 0
 873              	.LVL66:
 950:D:/Work/DeviceTester/amazon-freertos/lib/third_party/mcu_vendor/renesas/rz_mcu_boards/core_package/generate/os_abstraction/src\r_os_abstraction_api.c ****     int_t return_value = 0;
 951:D:/Work/DeviceTester/amazon-freertos/lib/third_party/mcu_vendor/renesas/rz_mcu_boards/core_package/generate/os_abstraction/src\r_os_abstraction_api.c **** 
 952:D:/Work/DeviceTester/amazon-freertos/lib/third_party/mcu_vendor/renesas/rz_mcu_boards/core_package/generate/os_abstraction/src\r_os_abstraction_api.c ****     /* Disable Interrupts if not done already*/
 953:D:/Work/DeviceTester/amazon-freertos/lib/third_party/mcu_vendor/renesas/rz_mcu_boards/core_package/generate/os_abstraction/src\r_os_abstraction_api.c ****     if (0 == ulPortInterruptNesting)
 874              		.loc 1 953 0
 875 0000 2C309FE5 		ldr	r3, .L81
 949:D:/Work/DeviceTester/amazon-freertos/lib/third_party/mcu_vendor/renesas/rz_mcu_boards/core_package/generate/os_abstraction/src\r_os_abstraction_api.c ****     int_t return_value = 0;
 876              		.loc 1 949 0
 877 0004 10402DE9 		push	{r4, lr}
 878              		.cfi_def_cfa_offset 8
 879              		.cfi_offset 4, -8
 880              		.cfi_offset 14, -4
 881              		.loc 1 953 0
 882 0008 003093E5 		ldr	r3, [r3]
 883 000c 000053E3 		cmp	r3, #0
 884 0010 0200001A 		bne	.L78
 954:D:/Work/DeviceTester/amazon-freertos/lib/third_party/mcu_vendor/renesas/rz_mcu_boards/core_package/generate/os_abstraction/src\r_os_abstraction_api.c ****     {
 955:D:/Work/DeviceTester/amazon-freertos/lib/third_party/mcu_vendor/renesas/rz_mcu_boards/core_package/generate/os_abstraction/src\r_os_abstraction_api.c ****         taskENTER_CRITICAL()
 885              		.loc 1 955 0
 886 0014 FEFFFFEB 		bl	vPortEnterCritical
 887              	.LVL67:
 956:D:/Work/DeviceTester/amazon-freertos/lib/third_party/mcu_vendor/renesas/rz_mcu_boards/core_package/generate/os_abstraction/src\r_os_abstraction_api.c ****         ;
 957:D:/Work/DeviceTester/amazon-freertos/lib/third_party/mcu_vendor/renesas/rz_mcu_boards/core_package/generate/os_abstraction/src\r_os_abstraction_api.c ****         return_value = 1;
 888              		.loc 1 957 0
 889 0018 0100A0E3 		mov	r0, #1
 890 001c 1080BDE8 		pop	{r4, pc}
 891              	.LVL68:
 892              	.L78:
 958:D:/Work/DeviceTester/amazon-freertos/lib/third_party/mcu_vendor/renesas/rz_mcu_boards/core_package/generate/os_abstraction/src\r_os_abstraction_api.c ****     }
 959:D:/Work/DeviceTester/amazon-freertos/lib/third_party/mcu_vendor/renesas/rz_mcu_boards/core_package/generate/os_abstraction/src\r_os_abstraction_api.c ****     else
 960:D:/Work/DeviceTester/amazon-freertos/lib/third_party/mcu_vendor/renesas/rz_mcu_boards/core_package/generate/os_abstraction/src\r_os_abstraction_api.c ****     {
 961:D:/Work/DeviceTester/amazon-freertos/lib/third_party/mcu_vendor/renesas/rz_mcu_boards/core_package/generate/os_abstraction/src\r_os_abstraction_api.c ****         uxSavedInterruptStatus = taskENTER_CRITICAL_FROM_ISR();
 893              		.loc 1 961 0
 894 0020 FEFFFFEB 		bl	ulPortSetInterruptMask
 895              	.LVL69:
 896 0024 0C309FE5 		ldr	r3, .L81+4
 897 0028 000083E5 		str	r0, [r3]
 950:D:/Work/DeviceTester/amazon-freertos/lib/third_party/mcu_vendor/renesas/rz_mcu_boards/core_package/generate/os_abstraction/src\r_os_abstraction_api.c **** 
 898              		.loc 1 950 0
 899 002c 0000A0E3 		mov	r0, #0
 962:D:/Work/DeviceTester/amazon-freertos/lib/third_party/mcu_vendor/renesas/rz_mcu_boards/core_package/generate/os_abstraction/src\r_os_abstraction_api.c ****     }
 963:D:/Work/DeviceTester/amazon-freertos/lib/third_party/mcu_vendor/renesas/rz_mcu_boards/core_package/generate/os_abstraction/src\r_os_abstraction_api.c **** 
 964:D:/Work/DeviceTester/amazon-freertos/lib/third_party/mcu_vendor/renesas/rz_mcu_boards/core_package/generate/os_abstraction/src\r_os_abstraction_api.c ****     return (return_value);
 965:D:/Work/DeviceTester/amazon-freertos/lib/third_party/mcu_vendor/renesas/rz_mcu_boards/core_package/generate/os_abstraction/src\r_os_abstraction_api.c **** }
 900              		.loc 1 965 0
 901 0030 1080BDE8 		pop	{r4, pc}
 902              	.L82:
 903              		.align	2
 904              	.L81:
 905 0034 00000000 		.word	ulPortInterruptNesting
 906 0038 00000000 		.word	uxSavedInterruptStatus
 907              		.cfi_endproc
 908              	.LFE28:
 910              		.section	.text.R_OS_SysUnlock,"ax",%progbits
 911              		.align	2
 912              		.global	R_OS_SysUnlock
 913              		.syntax unified
 914              		.arm
 915              		.fpu neon
 917              	R_OS_SysUnlock:
 918              	.LFB29:
 966:D:/Work/DeviceTester/amazon-freertos/lib/third_party/mcu_vendor/renesas/rz_mcu_boards/core_package/generate/os_abstraction/src\r_os_abstraction_api.c **** /**************************************************************************************************
 967:D:/Work/DeviceTester/amazon-freertos/lib/third_party/mcu_vendor/renesas/rz_mcu_boards/core_package/generate/os_abstraction/src\r_os_abstraction_api.c ****  End of function R_OS_SysLock
 968:D:/Work/DeviceTester/amazon-freertos/lib/third_party/mcu_vendor/renesas/rz_mcu_boards/core_package/generate/os_abstraction/src\r_os_abstraction_api.c ****  **************************************************************************************************
 969:D:/Work/DeviceTester/amazon-freertos/lib/third_party/mcu_vendor/renesas/rz_mcu_boards/core_package/generate/os_abstraction/src\r_os_abstraction_api.c **** 
 970:D:/Work/DeviceTester/amazon-freertos/lib/third_party/mcu_vendor/renesas/rz_mcu_boards/core_package/generate/os_abstraction/src\r_os_abstraction_api.c **** /**************************************************************************************************
 971:D:/Work/DeviceTester/amazon-freertos/lib/third_party/mcu_vendor/renesas/rz_mcu_boards/core_package/generate/os_abstraction/src\r_os_abstraction_api.c ****  * Function Name: R_OS_SysUnlock
 972:D:/Work/DeviceTester/amazon-freertos/lib/third_party/mcu_vendor/renesas/rz_mcu_boards/core_package/generate/os_abstraction/src\r_os_abstraction_api.c ****  * Description  : Function to unlock system, or OS object.
 973:D:/Work/DeviceTester/amazon-freertos/lib/third_party/mcu_vendor/renesas/rz_mcu_boards/core_package/generate/os_abstraction/src\r_os_abstraction_api.c ****  * Arguments    : None.
 974:D:/Work/DeviceTester/amazon-freertos/lib/third_party/mcu_vendor/renesas/rz_mcu_boards/core_package/generate/os_abstraction/src\r_os_abstraction_api.c ****  * Return Value : None
 975:D:/Work/DeviceTester/amazon-freertos/lib/third_party/mcu_vendor/renesas/rz_mcu_boards/core_package/generate/os_abstraction/src\r_os_abstraction_api.c ****  **************************************************************************************************
 976:D:/Work/DeviceTester/amazon-freertos/lib/third_party/mcu_vendor/renesas/rz_mcu_boards/core_package/generate/os_abstraction/src\r_os_abstraction_api.c **** void R_OS_SysUnlock (void)
 977:D:/Work/DeviceTester/amazon-freertos/lib/third_party/mcu_vendor/renesas/rz_mcu_boards/core_package/generate/os_abstraction/src\r_os_abstraction_api.c **** {
 919              		.loc 1 977 0
 920              		.cfi_startproc
 921              		@ args = 0, pretend = 0, frame = 0
 922              		@ frame_needed = 0, uses_anonymous_args = 0
 923              		@ link register save eliminated.
 978:D:/Work/DeviceTester/amazon-freertos/lib/third_party/mcu_vendor/renesas/rz_mcu_boards/core_package/generate/os_abstraction/src\r_os_abstraction_api.c ****     if (0 == ulPortInterruptNesting)
 924              		.loc 1 978 0
 925 0000 18309FE5 		ldr	r3, .L85
 926 0004 003093E5 		ldr	r3, [r3]
 927 0008 000053E3 		cmp	r3, #0
 928 000c 0000001A 		bne	.L84
 979:D:/Work/DeviceTester/amazon-freertos/lib/third_party/mcu_vendor/renesas/rz_mcu_boards/core_package/generate/os_abstraction/src\r_os_abstraction_api.c ****     {
 980:D:/Work/DeviceTester/amazon-freertos/lib/third_party/mcu_vendor/renesas/rz_mcu_boards/core_package/generate/os_abstraction/src\r_os_abstraction_api.c ****         taskEXIT_CRITICAL()
 929              		.loc 1 980 0
 930 0010 FEFFFFEA 		b	vPortExitCritical
 931              	.LVL70:
 932              	.L84:
 981:D:/Work/DeviceTester/amazon-freertos/lib/third_party/mcu_vendor/renesas/rz_mcu_boards/core_package/generate/os_abstraction/src\r_os_abstraction_api.c ****         ;
 982:D:/Work/DeviceTester/amazon-freertos/lib/third_party/mcu_vendor/renesas/rz_mcu_boards/core_package/generate/os_abstraction/src\r_os_abstraction_api.c ****     }
 983:D:/Work/DeviceTester/amazon-freertos/lib/third_party/mcu_vendor/renesas/rz_mcu_boards/core_package/generate/os_abstraction/src\r_os_abstraction_api.c ****     else
 984:D:/Work/DeviceTester/amazon-freertos/lib/third_party/mcu_vendor/renesas/rz_mcu_boards/core_package/generate/os_abstraction/src\r_os_abstraction_api.c ****     {
 985:D:/Work/DeviceTester/amazon-freertos/lib/third_party/mcu_vendor/renesas/rz_mcu_boards/core_package/generate/os_abstraction/src\r_os_abstraction_api.c ****         taskEXIT_CRITICAL_FROM_ISR(uxSavedInterruptStatus);
 933              		.loc 1 985 0
 934 0014 08309FE5 		ldr	r3, .L85+4
 935 0018 000093E5 		ldr	r0, [r3]
 936 001c FEFFFFEA 		b	vPortClearInterruptMask
 937              	.LVL71:
 938              	.L86:
 939              		.align	2
 940              	.L85:
 941 0020 00000000 		.word	ulPortInterruptNesting
 942 0024 00000000 		.word	uxSavedInterruptStatus
 943              		.cfi_endproc
 944              	.LFE29:
 946              		.section	.text.R_OS_SysWaitAccess,"ax",%progbits
 947              		.align	2
 948              		.global	R_OS_SysWaitAccess
 949              		.syntax unified
 950              		.arm
 951              		.fpu neon
 953              	R_OS_SysWaitAccess:
 954              	.LFB30:
 986:D:/Work/DeviceTester/amazon-freertos/lib/third_party/mcu_vendor/renesas/rz_mcu_boards/core_package/generate/os_abstraction/src\r_os_abstraction_api.c ****     }
 987:D:/Work/DeviceTester/amazon-freertos/lib/third_party/mcu_vendor/renesas/rz_mcu_boards/core_package/generate/os_abstraction/src\r_os_abstraction_api.c **** }
 988:D:/Work/DeviceTester/amazon-freertos/lib/third_party/mcu_vendor/renesas/rz_mcu_boards/core_package/generate/os_abstraction/src\r_os_abstraction_api.c **** /**************************************************************************************************
 989:D:/Work/DeviceTester/amazon-freertos/lib/third_party/mcu_vendor/renesas/rz_mcu_boards/core_package/generate/os_abstraction/src\r_os_abstraction_api.c ****  End of function R_OS_SysUnlock
 990:D:/Work/DeviceTester/amazon-freertos/lib/third_party/mcu_vendor/renesas/rz_mcu_boards/core_package/generate/os_abstraction/src\r_os_abstraction_api.c ****  **************************************************************************************************
 991:D:/Work/DeviceTester/amazon-freertos/lib/third_party/mcu_vendor/renesas/rz_mcu_boards/core_package/generate/os_abstraction/src\r_os_abstraction_api.c **** 
 992:D:/Work/DeviceTester/amazon-freertos/lib/third_party/mcu_vendor/renesas/rz_mcu_boards/core_package/generate/os_abstraction/src\r_os_abstraction_api.c **** /**************************************************************************************************
 993:D:/Work/DeviceTester/amazon-freertos/lib/third_party/mcu_vendor/renesas/rz_mcu_boards/core_package/generate/os_abstraction/src\r_os_abstraction_api.c ****  * Function Name: R_OS_SysWaitAccess
 994:D:/Work/DeviceTester/amazon-freertos/lib/third_party/mcu_vendor/renesas/rz_mcu_boards/core_package/generate/os_abstraction/src\r_os_abstraction_api.c ****  * Description  : The OS Abstraction layer contains a system mutex. This function allows a user to 
 995:D:/Work/DeviceTester/amazon-freertos/lib/third_party/mcu_vendor/renesas/rz_mcu_boards/core_package/generate/os_abstraction/src\r_os_abstraction_api.c ****  *                mutex for system critical usage.
 996:D:/Work/DeviceTester/amazon-freertos/lib/third_party/mcu_vendor/renesas/rz_mcu_boards/core_package/generate/os_abstraction/src\r_os_abstraction_api.c ****  *
 997:D:/Work/DeviceTester/amazon-freertos/lib/third_party/mcu_vendor/renesas/rz_mcu_boards/core_package/generate/os_abstraction/src\r_os_abstraction_api.c ****  *               sp_task_handle - keeps record of which task owns the mutex, to allow for re-entran
 998:D:/Work/DeviceTester/amazon-freertos/lib/third_party/mcu_vendor/renesas/rz_mcu_boards/core_package/generate/os_abstraction/src\r_os_abstraction_api.c ****  *               s_pstream_mutex - system mutex
 999:D:/Work/DeviceTester/amazon-freertos/lib/third_party/mcu_vendor/renesas/rz_mcu_boards/core_package/generate/os_abstraction/src\r_os_abstraction_api.c ****  *
1000:D:/Work/DeviceTester/amazon-freertos/lib/third_party/mcu_vendor/renesas/rz_mcu_boards/core_package/generate/os_abstraction/src\r_os_abstraction_api.c ****  * Arguments    : none
1001:D:/Work/DeviceTester/amazon-freertos/lib/third_party/mcu_vendor/renesas/rz_mcu_boards/core_package/generate/os_abstraction/src\r_os_abstraction_api.c ****  * Return Value : none
1002:D:/Work/DeviceTester/amazon-freertos/lib/third_party/mcu_vendor/renesas/rz_mcu_boards/core_package/generate/os_abstraction/src\r_os_abstraction_api.c ****  **************************************************************************************************
1003:D:/Work/DeviceTester/amazon-freertos/lib/third_party/mcu_vendor/renesas/rz_mcu_boards/core_package/generate/os_abstraction/src\r_os_abstraction_api.c **** void R_OS_SysWaitAccess (void)
1004:D:/Work/DeviceTester/amazon-freertos/lib/third_party/mcu_vendor/renesas/rz_mcu_boards/core_package/generate/os_abstraction/src\r_os_abstraction_api.c **** {
 955              		.loc 1 1004 0
 956              		.cfi_startproc
 957              		@ args = 0, pretend = 0, frame = 0
 958              		@ frame_needed = 0, uses_anonymous_args = 0
 959 0000 70402DE9 		push	{r4, r5, r6, lr}
 960              		.cfi_def_cfa_offset 16
 961              		.cfi_offset 4, -16
 962              		.cfi_offset 5, -12
 963              		.cfi_offset 6, -8
 964              		.cfi_offset 14, -4
1005:D:/Work/DeviceTester/amazon-freertos/lib/third_party/mcu_vendor/renesas/rz_mcu_boards/core_package/generate/os_abstraction/src\r_os_abstraction_api.c ****     void *p_task_handle = xTaskGetCurrentTaskHandle();
 965              		.loc 1 1005 0
