   1              		.cpu cortex-a9
   2              		.eabi_attribute 28, 1
   3              		.eabi_attribute 20, 1
   4              		.eabi_attribute 21, 1
   5              		.eabi_attribute 23, 3
   6              		.eabi_attribute 24, 1
   7              		.eabi_attribute 25, 1
   8              		.eabi_attribute 26, 1
   9              		.eabi_attribute 30, 4
  10              		.eabi_attribute 34, 0
  11              		.eabi_attribute 18, 4
  12              		.file	"r_os_abstraction_api.c"
  13              		.text
  14              	.Ltext0:
  15              		.cfi_sections	.debug_frame
  16              		.section	.text.main_task,"ax",%progbits
  17              		.align	2
  18              		.syntax unified
  19              		.arm
  20              		.fpu neon
  22              	main_task:
  23              	.LFB5:
  24              		.file 1 "D:/Work/DeviceTester/amazon-freertos/lib/third_party/mcu_vendor/renesas/rz_mcu_boards/cor
   1:D:/Work/DeviceTester/amazon-freertos/lib/third_party/mcu_vendor/renesas/rz_mcu_boards/core_package/generate/os_abstraction/src\r_os_abstraction_api.c **** /**************************************************************************************************
   2:D:/Work/DeviceTester/amazon-freertos/lib/third_party/mcu_vendor/renesas/rz_mcu_boards/core_package/generate/os_abstraction/src\r_os_abstraction_api.c ****  * DISCLAIMER
   3:D:/Work/DeviceTester/amazon-freertos/lib/third_party/mcu_vendor/renesas/rz_mcu_boards/core_package/generate/os_abstraction/src\r_os_abstraction_api.c ****  * This software is supplied by Renesas Electronics Corporation and is only intended for use with R
   4:D:/Work/DeviceTester/amazon-freertos/lib/third_party/mcu_vendor/renesas/rz_mcu_boards/core_package/generate/os_abstraction/src\r_os_abstraction_api.c ****  * other uses are authorized. This software is owned by Renesas Electronics Corporation and is prot
   5:D:/Work/DeviceTester/amazon-freertos/lib/third_party/mcu_vendor/renesas/rz_mcu_boards/core_package/generate/os_abstraction/src\r_os_abstraction_api.c ****  * applicable laws, including copyright laws.
   6:D:/Work/DeviceTester/amazon-freertos/lib/third_party/mcu_vendor/renesas/rz_mcu_boards/core_package/generate/os_abstraction/src\r_os_abstraction_api.c ****  * THIS SOFTWARE IS PROVIDED "AS IS" AND RENESAS MAKES NO WARRANTIES REGARDING
   7:D:/Work/DeviceTester/amazon-freertos/lib/third_party/mcu_vendor/renesas/rz_mcu_boards/core_package/generate/os_abstraction/src\r_os_abstraction_api.c ****  * THIS SOFTWARE, WHETHER EXPRESS, IMPLIED OR STATUTORY, INCLUDING BUT NOT LIMITED TO WARRANTIES OF
   8:D:/Work/DeviceTester/amazon-freertos/lib/third_party/mcu_vendor/renesas/rz_mcu_boards/core_package/generate/os_abstraction/src\r_os_abstraction_api.c ****  * FITNESS FOR A PARTICULAR PURPOSE AND NON-INFRINGEMENT. ALL SUCH WARRANTIES ARE EXPRESSLY DISCLAI
   9:D:/Work/DeviceTester/amazon-freertos/lib/third_party/mcu_vendor/renesas/rz_mcu_boards/core_package/generate/os_abstraction/src\r_os_abstraction_api.c ****  * EXTENT PERMITTED NOT PROHIBITED BY LAW, NEITHER RENESAS ELECTRONICS CORPORATION NOR ANY OF ITS A
  10:D:/Work/DeviceTester/amazon-freertos/lib/third_party/mcu_vendor/renesas/rz_mcu_boards/core_package/generate/os_abstraction/src\r_os_abstraction_api.c ****  * SHALL BE LIABLE FOR ANY DIRECT, INDIRECT, SPECIAL, INCIDENTAL OR CONSEQUENTIAL DAMAGES FOR ANY R
  11:D:/Work/DeviceTester/amazon-freertos/lib/third_party/mcu_vendor/renesas/rz_mcu_boards/core_package/generate/os_abstraction/src\r_os_abstraction_api.c ****  * THIS SOFTWARE, EVEN IF RENESAS OR ITS AFFILIATES HAVE BEEN ADVISED OF THE POSSIBILITY OF SUCH DA
  12:D:/Work/DeviceTester/amazon-freertos/lib/third_party/mcu_vendor/renesas/rz_mcu_boards/core_package/generate/os_abstraction/src\r_os_abstraction_api.c ****  * Renesas reserves the right, without notice, to make changes to this software and to discontinue 
  13:D:/Work/DeviceTester/amazon-freertos/lib/third_party/mcu_vendor/renesas/rz_mcu_boards/core_package/generate/os_abstraction/src\r_os_abstraction_api.c ****  * this software. By using this software, you agree to the additional terms and conditions found by
  14:D:/Work/DeviceTester/amazon-freertos/lib/third_party/mcu_vendor/renesas/rz_mcu_boards/core_package/generate/os_abstraction/src\r_os_abstraction_api.c ****  * following link:
  15:D:/Work/DeviceTester/amazon-freertos/lib/third_party/mcu_vendor/renesas/rz_mcu_boards/core_package/generate/os_abstraction/src\r_os_abstraction_api.c ****  * http://www.renesas.com/disclaimer
  16:D:/Work/DeviceTester/amazon-freertos/lib/third_party/mcu_vendor/renesas/rz_mcu_boards/core_package/generate/os_abstraction/src\r_os_abstraction_api.c ****  *
  17:D:/Work/DeviceTester/amazon-freertos/lib/third_party/mcu_vendor/renesas/rz_mcu_boards/core_package/generate/os_abstraction/src\r_os_abstraction_api.c ****  * Copyright (C) 2019 Renesas Electronics Corporation. All rights reserved.
  18:D:/Work/DeviceTester/amazon-freertos/lib/third_party/mcu_vendor/renesas/rz_mcu_boards/core_package/generate/os_abstraction/src\r_os_abstraction_api.c ****  **************************************************************************************************
  19:D:/Work/DeviceTester/amazon-freertos/lib/third_party/mcu_vendor/renesas/rz_mcu_boards/core_package/generate/os_abstraction/src\r_os_abstraction_api.c **** 
  20:D:/Work/DeviceTester/amazon-freertos/lib/third_party/mcu_vendor/renesas/rz_mcu_boards/core_package/generate/os_abstraction/src\r_os_abstraction_api.c **** /**************************************************************************************************
  21:D:/Work/DeviceTester/amazon-freertos/lib/third_party/mcu_vendor/renesas/rz_mcu_boards/core_package/generate/os_abstraction/src\r_os_abstraction_api.c ****  * File Name    : r_os_abstraction.c
  22:D:/Work/DeviceTester/amazon-freertos/lib/third_party/mcu_vendor/renesas/rz_mcu_boards/core_package/generate/os_abstraction/src\r_os_abstraction_api.c ****  * Version      : see OS_LESS_RZ_HLD_VERSION_MAJOR.OS_LESS_RZ_HLD_VERSION_MINOR
  23:D:/Work/DeviceTester/amazon-freertos/lib/third_party/mcu_vendor/renesas/rz_mcu_boards/core_package/generate/os_abstraction/src\r_os_abstraction_api.c ****  * Description  : To make efficient code re-use the identical high layer driver shall be used in bo
  24:D:/Work/DeviceTester/amazon-freertos/lib/third_party/mcu_vendor/renesas/rz_mcu_boards/core_package/generate/os_abstraction/src\r_os_abstraction_api.c ****  *                OS Less applications.
  25:D:/Work/DeviceTester/amazon-freertos/lib/third_party/mcu_vendor/renesas/rz_mcu_boards/core_package/generate/os_abstraction/src\r_os_abstraction_api.c ****  *                This file aims to abstract the Operating system (OS) awareness when creating an O
  26:D:/Work/DeviceTester/amazon-freertos/lib/third_party/mcu_vendor/renesas/rz_mcu_boards/core_package/generate/os_abstraction/src\r_os_abstraction_api.c ****  **************************************************************************************************
  27:D:/Work/DeviceTester/amazon-freertos/lib/third_party/mcu_vendor/renesas/rz_mcu_boards/core_package/generate/os_abstraction/src\r_os_abstraction_api.c **** /**************************************************************************************************
  28:D:/Work/DeviceTester/amazon-freertos/lib/third_party/mcu_vendor/renesas/rz_mcu_boards/core_package/generate/os_abstraction/src\r_os_abstraction_api.c ****  * History      : DD.MM.YYYY Version Description
  29:D:/Work/DeviceTester/amazon-freertos/lib/third_party/mcu_vendor/renesas/rz_mcu_boards/core_package/generate/os_abstraction/src\r_os_abstraction_api.c ****  *              : 03.09.2019 3.03    Added R_COMPILER_WEAK to vApplicationStackOverflowHook () allo
  30:D:/Work/DeviceTester/amazon-freertos/lib/third_party/mcu_vendor/renesas/rz_mcu_boards/core_package/generate/os_abstraction/src\r_os_abstraction_api.c ****  **************************************************************************************************
  31:D:/Work/DeviceTester/amazon-freertos/lib/third_party/mcu_vendor/renesas/rz_mcu_boards/core_package/generate/os_abstraction/src\r_os_abstraction_api.c **** 
  32:D:/Work/DeviceTester/amazon-freertos/lib/third_party/mcu_vendor/renesas/rz_mcu_boards/core_package/generate/os_abstraction/src\r_os_abstraction_api.c **** #include <stdio.h>
  33:D:/Work/DeviceTester/amazon-freertos/lib/third_party/mcu_vendor/renesas/rz_mcu_boards/core_package/generate/os_abstraction/src\r_os_abstraction_api.c **** #include <fcntl.h>
  34:D:/Work/DeviceTester/amazon-freertos/lib/third_party/mcu_vendor/renesas/rz_mcu_boards/core_package/generate/os_abstraction/src\r_os_abstraction_api.c **** #include "r_devlink_wrapper.h"
  35:D:/Work/DeviceTester/amazon-freertos/lib/third_party/mcu_vendor/renesas/rz_mcu_boards/core_package/generate/os_abstraction/src\r_os_abstraction_api.c **** 
  36:D:/Work/DeviceTester/amazon-freertos/lib/third_party/mcu_vendor/renesas/rz_mcu_boards/core_package/generate/os_abstraction/src\r_os_abstraction_api.c **** #include "r_typedefs.h"
  37:D:/Work/DeviceTester/amazon-freertos/lib/third_party/mcu_vendor/renesas/rz_mcu_boards/core_package/generate/os_abstraction/src\r_os_abstraction_api.c **** #include "driver.h"
  38:D:/Work/DeviceTester/amazon-freertos/lib/third_party/mcu_vendor/renesas/rz_mcu_boards/core_package/generate/os_abstraction/src\r_os_abstraction_api.c **** 
  39:D:/Work/DeviceTester/amazon-freertos/lib/third_party/mcu_vendor/renesas/rz_mcu_boards/core_package/generate/os_abstraction/src\r_os_abstraction_api.c **** #include "FreeRTOS.h"
  40:D:/Work/DeviceTester/amazon-freertos/lib/third_party/mcu_vendor/renesas/rz_mcu_boards/core_package/generate/os_abstraction/src\r_os_abstraction_api.c **** #include "FreeRTOSconfig.h"
  41:D:/Work/DeviceTester/amazon-freertos/lib/third_party/mcu_vendor/renesas/rz_mcu_boards/core_package/generate/os_abstraction/src\r_os_abstraction_api.c **** #include "semphr.h"
  42:D:/Work/DeviceTester/amazon-freertos/lib/third_party/mcu_vendor/renesas/rz_mcu_boards/core_package/generate/os_abstraction/src\r_os_abstraction_api.c **** #include "queue.h"
  43:D:/Work/DeviceTester/amazon-freertos/lib/third_party/mcu_vendor/renesas/rz_mcu_boards/core_package/generate/os_abstraction/src\r_os_abstraction_api.c **** #include "task.h"
  44:D:/Work/DeviceTester/amazon-freertos/lib/third_party/mcu_vendor/renesas/rz_mcu_boards/core_package/generate/os_abstraction/src\r_os_abstraction_api.c **** #include "string.h"
  45:D:/Work/DeviceTester/amazon-freertos/lib/third_party/mcu_vendor/renesas/rz_mcu_boards/core_package/generate/os_abstraction/src\r_os_abstraction_api.c **** #include "r_ostm_drv_api.h"
  46:D:/Work/DeviceTester/amazon-freertos/lib/third_party/mcu_vendor/renesas/rz_mcu_boards/core_package/generate/os_abstraction/src\r_os_abstraction_api.c **** 
  47:D:/Work/DeviceTester/amazon-freertos/lib/third_party/mcu_vendor/renesas/rz_mcu_boards/core_package/generate/os_abstraction/src\r_os_abstraction_api.c **** /* compiler specific API header */
  48:D:/Work/DeviceTester/amazon-freertos/lib/third_party/mcu_vendor/renesas/rz_mcu_boards/core_package/generate/os_abstraction/src\r_os_abstraction_api.c **** #include "r_compiler_abstraction_api.h"
  49:D:/Work/DeviceTester/amazon-freertos/lib/third_party/mcu_vendor/renesas/rz_mcu_boards/core_package/generate/os_abstraction/src\r_os_abstraction_api.c **** 
  50:D:/Work/DeviceTester/amazon-freertos/lib/third_party/mcu_vendor/renesas/rz_mcu_boards/core_package/generate/os_abstraction/src\r_os_abstraction_api.c **** /* OS abstraction specific API header */
  51:D:/Work/DeviceTester/amazon-freertos/lib/third_party/mcu_vendor/renesas/rz_mcu_boards/core_package/generate/os_abstraction/src\r_os_abstraction_api.c **** #include "r_os_abstraction_api.h"
  52:D:/Work/DeviceTester/amazon-freertos/lib/third_party/mcu_vendor/renesas/rz_mcu_boards/core_package/generate/os_abstraction/src\r_os_abstraction_api.c **** 
  53:D:/Work/DeviceTester/amazon-freertos/lib/third_party/mcu_vendor/renesas/rz_mcu_boards/core_package/generate/os_abstraction/src\r_os_abstraction_api.c **** #include "r_task_priority.h"
  54:D:/Work/DeviceTester/amazon-freertos/lib/third_party/mcu_vendor/renesas/rz_mcu_boards/core_package/generate/os_abstraction/src\r_os_abstraction_api.c **** #include "application_cfg.h"
  55:D:/Work/DeviceTester/amazon-freertos/lib/third_party/mcu_vendor/renesas/rz_mcu_boards/core_package/generate/os_abstraction/src\r_os_abstraction_api.c **** 
  56:D:/Work/DeviceTester/amazon-freertos/lib/third_party/mcu_vendor/renesas/rz_mcu_boards/core_package/generate/os_abstraction/src\r_os_abstraction_api.c **** /**************************************************************************************************
  57:D:/Work/DeviceTester/amazon-freertos/lib/third_party/mcu_vendor/renesas/rz_mcu_boards/core_package/generate/os_abstraction/src\r_os_abstraction_api.c ****  Macro definitions
  58:D:/Work/DeviceTester/amazon-freertos/lib/third_party/mcu_vendor/renesas/rz_mcu_boards/core_package/generate/os_abstraction/src\r_os_abstraction_api.c ****  **************************************************************************************************
  59:D:/Work/DeviceTester/amazon-freertos/lib/third_party/mcu_vendor/renesas/rz_mcu_boards/core_package/generate/os_abstraction/src\r_os_abstraction_api.c **** 
  60:D:/Work/DeviceTester/amazon-freertos/lib/third_party/mcu_vendor/renesas/rz_mcu_boards/core_package/generate/os_abstraction/src\r_os_abstraction_api.c **** /* A minimum of 8 characters or "Unknown" will not fit! */
  61:D:/Work/DeviceTester/amazon-freertos/lib/third_party/mcu_vendor/renesas/rz_mcu_boards/core_package/generate/os_abstraction/src\r_os_abstraction_api.c **** #define R_OS_PRV_TINY_STACK_SIZE        (configMINIMAL_STACK_SIZE)
  62:D:/Work/DeviceTester/amazon-freertos/lib/third_party/mcu_vendor/renesas/rz_mcu_boards/core_package/generate/os_abstraction/src\r_os_abstraction_api.c **** #define R_OS_PRV_SMALL_STACK_SIZE       (configSMALL_STACK_SIZE)
  63:D:/Work/DeviceTester/amazon-freertos/lib/third_party/mcu_vendor/renesas/rz_mcu_boards/core_package/generate/os_abstraction/src\r_os_abstraction_api.c **** #define R_OS_PRV_DEFAULT_STACK_SIZE     (configDEFAULT_STACK_SIZE)
  64:D:/Work/DeviceTester/amazon-freertos/lib/third_party/mcu_vendor/renesas/rz_mcu_boards/core_package/generate/os_abstraction/src\r_os_abstraction_api.c **** #define R_OS_PRV_LARGE_STACK_SIZE       (configDEFAULT_STACK_SIZE*2)
  65:D:/Work/DeviceTester/amazon-freertos/lib/third_party/mcu_vendor/renesas/rz_mcu_boards/core_package/generate/os_abstraction/src\r_os_abstraction_api.c **** #define R_OS_PRV_HUGE_STACK_SIZE        (configDEFAULT_STACK_SIZE*4)
  66:D:/Work/DeviceTester/amazon-freertos/lib/third_party/mcu_vendor/renesas/rz_mcu_boards/core_package/generate/os_abstraction/src\r_os_abstraction_api.c **** 
  67:D:/Work/DeviceTester/amazon-freertos/lib/third_party/mcu_vendor/renesas/rz_mcu_boards/core_package/generate/os_abstraction/src\r_os_abstraction_api.c **** /* needs to link to configMEMORY_TYPE_FOR_ALLOCATOR */
  68:D:/Work/DeviceTester/amazon-freertos/lib/third_party/mcu_vendor/renesas/rz_mcu_boards/core_package/generate/os_abstraction/src\r_os_abstraction_api.c **** #define R_OS_PRV_DEFAULT_HEAP_PRV_      (configTOTAL_HEAP_SIZE)
  69:D:/Work/DeviceTester/amazon-freertos/lib/third_party/mcu_vendor/renesas/rz_mcu_boards/core_package/generate/os_abstraction/src\r_os_abstraction_api.c **** 
  70:D:/Work/DeviceTester/amazon-freertos/lib/third_party/mcu_vendor/renesas/rz_mcu_boards/core_package/generate/os_abstraction/src\r_os_abstraction_api.c **** #define FREERTOS_HEAP_START_PRV_        ((void *)&__freertos_heap_start)
  71:D:/Work/DeviceTester/amazon-freertos/lib/third_party/mcu_vendor/renesas/rz_mcu_boards/core_package/generate/os_abstraction/src\r_os_abstraction_api.c **** #define FREERTOS_HEAP_END_PRV_          ((void *)&__freertos_heap_end)
  72:D:/Work/DeviceTester/amazon-freertos/lib/third_party/mcu_vendor/renesas/rz_mcu_boards/core_package/generate/os_abstraction/src\r_os_abstraction_api.c **** 
  73:D:/Work/DeviceTester/amazon-freertos/lib/third_party/mcu_vendor/renesas/rz_mcu_boards/core_package/generate/os_abstraction/src\r_os_abstraction_api.c **** #ifdef LOG_TASK_INFO
  74:D:/Work/DeviceTester/amazon-freertos/lib/third_party/mcu_vendor/renesas/rz_mcu_boards/core_package/generate/os_abstraction/src\r_os_abstraction_api.c ****     #define LOG_DATA_DUMP_SIZE_PRV_     (4096)
  75:D:/Work/DeviceTester/amazon-freertos/lib/third_party/mcu_vendor/renesas/rz_mcu_boards/core_package/generate/os_abstraction/src\r_os_abstraction_api.c **** #endif /* LOG_TASK_INFO */
  76:D:/Work/DeviceTester/amazon-freertos/lib/third_party/mcu_vendor/renesas/rz_mcu_boards/core_package/generate/os_abstraction/src\r_os_abstraction_api.c **** 
  77:D:/Work/DeviceTester/amazon-freertos/lib/third_party/mcu_vendor/renesas/rz_mcu_boards/core_package/generate/os_abstraction/src\r_os_abstraction_api.c **** #ifdef OS_DEBUG_RECORD_MEM_ALLOCS
  78:D:/Work/DeviceTester/amazon-freertos/lib/third_party/mcu_vendor/renesas/rz_mcu_boards/core_package/generate/os_abstraction/src\r_os_abstraction_api.c ****     #define R_PRV_MAX_LEN_TASK_NAME     (24)
  79:D:/Work/DeviceTester/amazon-freertos/lib/third_party/mcu_vendor/renesas/rz_mcu_boards/core_package/generate/os_abstraction/src\r_os_abstraction_api.c **** #endif /* OS_DEBUG_RECORD_MEM_ALLOCS */
  80:D:/Work/DeviceTester/amazon-freertos/lib/third_party/mcu_vendor/renesas/rz_mcu_boards/core_package/generate/os_abstraction/src\r_os_abstraction_api.c **** 
  81:D:/Work/DeviceTester/amazon-freertos/lib/third_party/mcu_vendor/renesas/rz_mcu_boards/core_package/generate/os_abstraction/src\r_os_abstraction_api.c **** extern uint8_t __freertos_heap_start;
  82:D:/Work/DeviceTester/amazon-freertos/lib/third_party/mcu_vendor/renesas/rz_mcu_boards/core_package/generate/os_abstraction/src\r_os_abstraction_api.c **** extern uint8_t __freertos_heap_end;
  83:D:/Work/DeviceTester/amazon-freertos/lib/third_party/mcu_vendor/renesas/rz_mcu_boards/core_package/generate/os_abstraction/src\r_os_abstraction_api.c **** 
  84:D:/Work/DeviceTester/amazon-freertos/lib/third_party/mcu_vendor/renesas/rz_mcu_boards/core_package/generate/os_abstraction/src\r_os_abstraction_api.c **** /* Note ucHeap is used in freeRTOS for fixed location fixed sized memory pool */
  85:D:/Work/DeviceTester/amazon-freertos/lib/third_party/mcu_vendor/renesas/rz_mcu_boards/core_package/generate/os_abstraction/src\r_os_abstraction_api.c **** uint8_t ucHeap[configTOTAL_HEAP_SIZE] __attribute__ ((section(".freertos_heap")));
  86:D:/Work/DeviceTester/amazon-freertos/lib/third_party/mcu_vendor/renesas/rz_mcu_boards/core_package/generate/os_abstraction/src\r_os_abstraction_api.c **** 
  87:D:/Work/DeviceTester/amazon-freertos/lib/third_party/mcu_vendor/renesas/rz_mcu_boards/core_package/generate/os_abstraction/src\r_os_abstraction_api.c **** extern uint32_t ulPortInterruptNesting;
  88:D:/Work/DeviceTester/amazon-freertos/lib/third_party/mcu_vendor/renesas/rz_mcu_boards/core_package/generate/os_abstraction/src\r_os_abstraction_api.c **** UBaseType_t uxSavedInterruptStatus;
  89:D:/Work/DeviceTester/amazon-freertos/lib/third_party/mcu_vendor/renesas/rz_mcu_boards/core_package/generate/os_abstraction/src\r_os_abstraction_api.c **** 
  90:D:/Work/DeviceTester/amazon-freertos/lib/third_party/mcu_vendor/renesas/rz_mcu_boards/core_package/generate/os_abstraction/src\r_os_abstraction_api.c **** /* Allocate two blocks of RAM for use by the heap. */
  91:D:/Work/DeviceTester/amazon-freertos/lib/third_party/mcu_vendor/renesas/rz_mcu_boards/core_package/generate/os_abstraction/src\r_os_abstraction_api.c **** R_COMPILER_WEAK HeapRegion_t xHeapRegions[] =
  92:D:/Work/DeviceTester/amazon-freertos/lib/third_party/mcu_vendor/renesas/rz_mcu_boards/core_package/generate/os_abstraction/src\r_os_abstraction_api.c **** {
  93:D:/Work/DeviceTester/amazon-freertos/lib/third_party/mcu_vendor/renesas/rz_mcu_boards/core_package/generate/os_abstraction/src\r_os_abstraction_api.c ****     /* Initialise default region in the function . */
  94:D:/Work/DeviceTester/amazon-freertos/lib/third_party/mcu_vendor/renesas/rz_mcu_boards/core_package/generate/os_abstraction/src\r_os_abstraction_api.c ****     { NULL, 0 },
  95:D:/Work/DeviceTester/amazon-freertos/lib/third_party/mcu_vendor/renesas/rz_mcu_boards/core_package/generate/os_abstraction/src\r_os_abstraction_api.c **** 
  96:D:/Work/DeviceTester/amazon-freertos/lib/third_party/mcu_vendor/renesas/rz_mcu_boards/core_package/generate/os_abstraction/src\r_os_abstraction_api.c ****     /* Terminates the array. */
  97:D:/Work/DeviceTester/amazon-freertos/lib/third_party/mcu_vendor/renesas/rz_mcu_boards/core_package/generate/os_abstraction/src\r_os_abstraction_api.c ****     { NULL, 0 }
  98:D:/Work/DeviceTester/amazon-freertos/lib/third_party/mcu_vendor/renesas/rz_mcu_boards/core_package/generate/os_abstraction/src\r_os_abstraction_api.c **** };
  99:D:/Work/DeviceTester/amazon-freertos/lib/third_party/mcu_vendor/renesas/rz_mcu_boards/core_package/generate/os_abstraction/src\r_os_abstraction_api.c **** 
 100:D:/Work/DeviceTester/amazon-freertos/lib/third_party/mcu_vendor/renesas/rz_mcu_boards/core_package/generate/os_abstraction/src\r_os_abstraction_api.c **** /**************************************************************************************************
 101:D:/Work/DeviceTester/amazon-freertos/lib/third_party/mcu_vendor/renesas/rz_mcu_boards/core_package/generate/os_abstraction/src\r_os_abstraction_api.c ****  Private global variables
 102:D:/Work/DeviceTester/amazon-freertos/lib/third_party/mcu_vendor/renesas/rz_mcu_boards/core_package/generate/os_abstraction/src\r_os_abstraction_api.c ****  **************************************************************************************************
 103:D:/Work/DeviceTester/amazon-freertos/lib/third_party/mcu_vendor/renesas/rz_mcu_boards/core_package/generate/os_abstraction/src\r_os_abstraction_api.c **** 
 104:D:/Work/DeviceTester/amazon-freertos/lib/third_party/mcu_vendor/renesas/rz_mcu_boards/core_package/generate/os_abstraction/src\r_os_abstraction_api.c **** #ifdef OS_DEBUG_RECORD_MEM_ALLOCS
 105:D:/Work/DeviceTester/amazon-freertos/lib/third_party/mcu_vendor/renesas/rz_mcu_boards/core_package/generate/os_abstraction/src\r_os_abstraction_api.c **** static volatile char gs_debug_task_malloc_str[24];
 106:D:/Work/DeviceTester/amazon-freertos/lib/third_party/mcu_vendor/renesas/rz_mcu_boards/core_package/generate/os_abstraction/src\r_os_abstraction_api.c **** static volatile char gs_debug_task_free_str[24];
 107:D:/Work/DeviceTester/amazon-freertos/lib/third_party/mcu_vendor/renesas/rz_mcu_boards/core_package/generate/os_abstraction/src\r_os_abstraction_api.c **** #endif /* OS_DEBUG_RECORD_MEM_ALLOCS */
 108:D:/Work/DeviceTester/amazon-freertos/lib/third_party/mcu_vendor/renesas/rz_mcu_boards/core_package/generate/os_abstraction/src\r_os_abstraction_api.c **** 
 109:D:/Work/DeviceTester/amazon-freertos/lib/third_party/mcu_vendor/renesas/rz_mcu_boards/core_package/generate/os_abstraction/src\r_os_abstraction_api.c **** static const st_os_abstraction_info_t s_os_version =
 110:D:/Work/DeviceTester/amazon-freertos/lib/third_party/mcu_vendor/renesas/rz_mcu_boards/core_package/generate/os_abstraction/src\r_os_abstraction_api.c **** {
 111:D:/Work/DeviceTester/amazon-freertos/lib/third_party/mcu_vendor/renesas/rz_mcu_boards/core_package/generate/os_abstraction/src\r_os_abstraction_api.c ****     /*Version Number*/
 112:D:/Work/DeviceTester/amazon-freertos/lib/third_party/mcu_vendor/renesas/rz_mcu_boards/core_package/generate/os_abstraction/src\r_os_abstraction_api.c ****     { ((R_OS_ABSTRACTION_VERSION_MAJOR << 16) + R_OS_ABSTRACTION_VERSION_MINOR) },
 113:D:/Work/DeviceTester/amazon-freertos/lib/third_party/mcu_vendor/renesas/rz_mcu_boards/core_package/generate/os_abstraction/src\r_os_abstraction_api.c **** 
 114:D:/Work/DeviceTester/amazon-freertos/lib/third_party/mcu_vendor/renesas/rz_mcu_boards/core_package/generate/os_abstraction/src\r_os_abstraction_api.c ****     /*Build Number*/
 115:D:/Work/DeviceTester/amazon-freertos/lib/third_party/mcu_vendor/renesas/rz_mcu_boards/core_package/generate/os_abstraction/src\r_os_abstraction_api.c ****     tskKERNEL_VERSION_BUILD,
 116:D:/Work/DeviceTester/amazon-freertos/lib/third_party/mcu_vendor/renesas/rz_mcu_boards/core_package/generate/os_abstraction/src\r_os_abstraction_api.c **** 
 117:D:/Work/DeviceTester/amazon-freertos/lib/third_party/mcu_vendor/renesas/rz_mcu_boards/core_package/generate/os_abstraction/src\r_os_abstraction_api.c ****     /*Name of OS Abstraction Layer*/
 118:D:/Work/DeviceTester/amazon-freertos/lib/third_party/mcu_vendor/renesas/rz_mcu_boards/core_package/generate/os_abstraction/src\r_os_abstraction_api.c ****     ("FreeRTOS OS Abstraction")
 119:D:/Work/DeviceTester/amazon-freertos/lib/third_party/mcu_vendor/renesas/rz_mcu_boards/core_package/generate/os_abstraction/src\r_os_abstraction_api.c **** };
 120:D:/Work/DeviceTester/amazon-freertos/lib/third_party/mcu_vendor/renesas/rz_mcu_boards/core_package/generate/os_abstraction/src\r_os_abstraction_api.c **** 
 121:D:/Work/DeviceTester/amazon-freertos/lib/third_party/mcu_vendor/renesas/rz_mcu_boards/core_package/generate/os_abstraction/src\r_os_abstraction_api.c **** static const char s_startup_task_name_str[] = "Main";
 122:D:/Work/DeviceTester/amazon-freertos/lib/third_party/mcu_vendor/renesas/rz_mcu_boards/core_package/generate/os_abstraction/src\r_os_abstraction_api.c **** 
 123:D:/Work/DeviceTester/amazon-freertos/lib/third_party/mcu_vendor/renesas/rz_mcu_boards/core_package/generate/os_abstraction/src\r_os_abstraction_api.c **** /*xSemaphoreHandle is defined as a void pointer*/
 124:D:/Work/DeviceTester/amazon-freertos/lib/third_party/mcu_vendor/renesas/rz_mcu_boards/core_package/generate/os_abstraction/src\r_os_abstraction_api.c **** static p_mutex_t s_pstream_mutex = NULL;
 125:D:/Work/DeviceTester/amazon-freertos/lib/third_party/mcu_vendor/renesas/rz_mcu_boards/core_package/generate/os_abstraction/src\r_os_abstraction_api.c **** 
 126:D:/Work/DeviceTester/amazon-freertos/lib/third_party/mcu_vendor/renesas/rz_mcu_boards/core_package/generate/os_abstraction/src\r_os_abstraction_api.c **** /*Initialising as Null*/
 127:D:/Work/DeviceTester/amazon-freertos/lib/third_party/mcu_vendor/renesas/rz_mcu_boards/core_package/generate/os_abstraction/src\r_os_abstraction_api.c **** static void *sp_task_handle = NULL;
 128:D:/Work/DeviceTester/amazon-freertos/lib/third_party/mcu_vendor/renesas/rz_mcu_boards/core_package/generate/os_abstraction/src\r_os_abstraction_api.c **** static char s_file[200];
 129:D:/Work/DeviceTester/amazon-freertos/lib/third_party/mcu_vendor/renesas/rz_mcu_boards/core_package/generate/os_abstraction/src\r_os_abstraction_api.c **** static uint32_t s_line;
 130:D:/Work/DeviceTester/amazon-freertos/lib/third_party/mcu_vendor/renesas/rz_mcu_boards/core_package/generate/os_abstraction/src\r_os_abstraction_api.c **** 
 131:D:/Work/DeviceTester/amazon-freertos/lib/third_party/mcu_vendor/renesas/rz_mcu_boards/core_package/generate/os_abstraction/src\r_os_abstraction_api.c **** static size_t s_event_count = 0UL;
 132:D:/Work/DeviceTester/amazon-freertos/lib/third_party/mcu_vendor/renesas/rz_mcu_boards/core_package/generate/os_abstraction/src\r_os_abstraction_api.c **** static size_t s_event_max = 0UL;
 133:D:/Work/DeviceTester/amazon-freertos/lib/third_party/mcu_vendor/renesas/rz_mcu_boards/core_package/generate/os_abstraction/src\r_os_abstraction_api.c **** 
 134:D:/Work/DeviceTester/amazon-freertos/lib/third_party/mcu_vendor/renesas/rz_mcu_boards/core_package/generate/os_abstraction/src\r_os_abstraction_api.c **** static bool_t s_os_running = false;
 135:D:/Work/DeviceTester/amazon-freertos/lib/third_party/mcu_vendor/renesas/rz_mcu_boards/core_package/generate/os_abstraction/src\r_os_abstraction_api.c **** 
 136:D:/Work/DeviceTester/amazon-freertos/lib/third_party/mcu_vendor/renesas/rz_mcu_boards/core_package/generate/os_abstraction/src\r_os_abstraction_api.c **** /* LOG_TASK_INFO provides logging of information into a circular buffer. This is currently
 137:D:/Work/DeviceTester/amazon-freertos/lib/third_party/mcu_vendor/renesas/rz_mcu_boards/core_package/generate/os_abstraction/src\r_os_abstraction_api.c ****  * configured to do so in mallocs and frees.
 138:D:/Work/DeviceTester/amazon-freertos/lib/third_party/mcu_vendor/renesas/rz_mcu_boards/core_package/generate/os_abstraction/src\r_os_abstraction_api.c ****  * To use: Add text to log using the log_data function. The log_write_data_to_console will
 139:D:/Work/DeviceTester/amazon-freertos/lib/third_party/mcu_vendor/renesas/rz_mcu_boards/core_package/generate/os_abstraction/src\r_os_abstraction_api.c ****  * output the contents of the buffer to the console (currently set to do this in the
 140:D:/Work/DeviceTester/amazon-freertos/lib/third_party/mcu_vendor/renesas/rz_mcu_boards/core_package/generate/os_abstraction/src\r_os_abstraction_api.c ****  * OS_assert function).
 141:D:/Work/DeviceTester/amazon-freertos/lib/third_party/mcu_vendor/renesas/rz_mcu_boards/core_package/generate/os_abstraction/src\r_os_abstraction_api.c ****  */
 142:D:/Work/DeviceTester/amazon-freertos/lib/third_party/mcu_vendor/renesas/rz_mcu_boards/core_package/generate/os_abstraction/src\r_os_abstraction_api.c **** #ifdef LOG_TASK_INFO
 143:D:/Work/DeviceTester/amazon-freertos/lib/third_party/mcu_vendor/renesas/rz_mcu_boards/core_package/generate/os_abstraction/src\r_os_abstraction_api.c **** static volatile char s_log_data[LOG_DATA_DUMP_SIZE_PRV_ + 1];
 144:D:/Work/DeviceTester/amazon-freertos/lib/third_party/mcu_vendor/renesas/rz_mcu_boards/core_package/generate/os_abstraction/src\r_os_abstraction_api.c **** static volatile char *sp_log_head = s_log_data;
 145:D:/Work/DeviceTester/amazon-freertos/lib/third_party/mcu_vendor/renesas/rz_mcu_boards/core_package/generate/os_abstraction/src\r_os_abstraction_api.c **** static volatile char *sp_log_tail = s_log_data;
 146:D:/Work/DeviceTester/amazon-freertos/lib/third_party/mcu_vendor/renesas/rz_mcu_boards/core_package/generate/os_abstraction/src\r_os_abstraction_api.c **** static volatile uint8_t s_log_readback_running = 0u;
 147:D:/Work/DeviceTester/amazon-freertos/lib/third_party/mcu_vendor/renesas/rz_mcu_boards/core_package/generate/os_abstraction/src\r_os_abstraction_api.c **** #endif /* LOG_TASK_INFO */
 148:D:/Work/DeviceTester/amazon-freertos/lib/third_party/mcu_vendor/renesas/rz_mcu_boards/core_package/generate/os_abstraction/src\r_os_abstraction_api.c **** 
 149:D:/Work/DeviceTester/amazon-freertos/lib/third_party/mcu_vendor/renesas/rz_mcu_boards/core_package/generate/os_abstraction/src\r_os_abstraction_api.c **** extern void vPortDefineHeapRegions (const HeapRegion_t * const pxHeapRegions);
 150:D:/Work/DeviceTester/amazon-freertos/lib/third_party/mcu_vendor/renesas/rz_mcu_boards/core_package/generate/os_abstraction/src\r_os_abstraction_api.c **** R_COMPILER_WEAK void vApplicationStackOverflowHook (xTaskHandle xTask, char *pcTaskName);
 151:D:/Work/DeviceTester/amazon-freertos/lib/third_party/mcu_vendor/renesas/rz_mcu_boards/core_package/generate/os_abstraction/src\r_os_abstraction_api.c **** void vApplicationIdleHook( void );
 152:D:/Work/DeviceTester/amazon-freertos/lib/third_party/mcu_vendor/renesas/rz_mcu_boards/core_package/generate/os_abstraction/src\r_os_abstraction_api.c **** void os_abstraction_isr (void);
 153:D:/Work/DeviceTester/amazon-freertos/lib/third_party/mcu_vendor/renesas/rz_mcu_boards/core_package/generate/os_abstraction/src\r_os_abstraction_api.c **** 
 154:D:/Work/DeviceTester/amazon-freertos/lib/third_party/mcu_vendor/renesas/rz_mcu_boards/core_package/generate/os_abstraction/src\r_os_abstraction_api.c **** R_COMPILER_WEAK void pvPortsetDesiredBlockForMalloc( size_t xWantedBlock );
 155:D:/Work/DeviceTester/amazon-freertos/lib/third_party/mcu_vendor/renesas/rz_mcu_boards/core_package/generate/os_abstraction/src\r_os_abstraction_api.c **** 
 156:D:/Work/DeviceTester/amazon-freertos/lib/third_party/mcu_vendor/renesas/rz_mcu_boards/core_package/generate/os_abstraction/src\r_os_abstraction_api.c **** 
 157:D:/Work/DeviceTester/amazon-freertos/lib/third_party/mcu_vendor/renesas/rz_mcu_boards/core_package/generate/os_abstraction/src\r_os_abstraction_api.c **** R_COMPILER_WEAK void pvPortsetDesiredBlockForMalloc( size_t xWantedBlock )
 158:D:/Work/DeviceTester/amazon-freertos/lib/third_party/mcu_vendor/renesas/rz_mcu_boards/core_package/generate/os_abstraction/src\r_os_abstraction_api.c **** {
 159:D:/Work/DeviceTester/amazon-freertos/lib/third_party/mcu_vendor/renesas/rz_mcu_boards/core_package/generate/os_abstraction/src\r_os_abstraction_api.c **** 	UNUSED_PARAM(xWantedBlock);
 160:D:/Work/DeviceTester/amazon-freertos/lib/third_party/mcu_vendor/renesas/rz_mcu_boards/core_package/generate/os_abstraction/src\r_os_abstraction_api.c **** 	R_COMPILER_Nop();
 161:D:/Work/DeviceTester/amazon-freertos/lib/third_party/mcu_vendor/renesas/rz_mcu_boards/core_package/generate/os_abstraction/src\r_os_abstraction_api.c **** }
 162:D:/Work/DeviceTester/amazon-freertos/lib/third_party/mcu_vendor/renesas/rz_mcu_boards/core_package/generate/os_abstraction/src\r_os_abstraction_api.c **** 
 163:D:/Work/DeviceTester/amazon-freertos/lib/third_party/mcu_vendor/renesas/rz_mcu_boards/core_package/generate/os_abstraction/src\r_os_abstraction_api.c **** 
 164:D:/Work/DeviceTester/amazon-freertos/lib/third_party/mcu_vendor/renesas/rz_mcu_boards/core_package/generate/os_abstraction/src\r_os_abstraction_api.c **** #ifdef LOG_TASK_INFO
 165:D:/Work/DeviceTester/amazon-freertos/lib/third_party/mcu_vendor/renesas/rz_mcu_boards/core_package/generate/os_abstraction/src\r_os_abstraction_api.c **** /**************************************************************************************************
 166:D:/Work/DeviceTester/amazon-freertos/lib/third_party/mcu_vendor/renesas/rz_mcu_boards/core_package/generate/os_abstraction/src\r_os_abstraction_api.c ****  * Function Name: log_data
 167:D:/Work/DeviceTester/amazon-freertos/lib/third_party/mcu_vendor/renesas/rz_mcu_boards/core_package/generate/os_abstraction/src\r_os_abstraction_api.c ****  * Description  : Logs text to a circular buffer for debug purposes
 168:D:/Work/DeviceTester/amazon-freertos/lib/third_party/mcu_vendor/renesas/rz_mcu_boards/core_package/generate/os_abstraction/src\r_os_abstraction_api.c ****  * Arguments    : char *p_data_to_log
 169:D:/Work/DeviceTester/amazon-freertos/lib/third_party/mcu_vendor/renesas/rz_mcu_boards/core_package/generate/os_abstraction/src\r_os_abstraction_api.c ****  *                uint32_t len_data
 170:D:/Work/DeviceTester/amazon-freertos/lib/third_party/mcu_vendor/renesas/rz_mcu_boards/core_package/generate/os_abstraction/src\r_os_abstraction_api.c ****  * Return Value : void
 171:D:/Work/DeviceTester/amazon-freertos/lib/third_party/mcu_vendor/renesas/rz_mcu_boards/core_package/generate/os_abstraction/src\r_os_abstraction_api.c ****  **************************************************************************************************
 172:D:/Work/DeviceTester/amazon-freertos/lib/third_party/mcu_vendor/renesas/rz_mcu_boards/core_package/generate/os_abstraction/src\r_os_abstraction_api.c **** static void log_data (char *p_data_to_log, uint32_t len_data)
 173:D:/Work/DeviceTester/amazon-freertos/lib/third_party/mcu_vendor/renesas/rz_mcu_boards/core_package/generate/os_abstraction/src\r_os_abstraction_api.c **** {
 174:D:/Work/DeviceTester/amazon-freertos/lib/third_party/mcu_vendor/renesas/rz_mcu_boards/core_package/generate/os_abstraction/src\r_os_abstraction_api.c ****     uint32_t len = 0;
 175:D:/Work/DeviceTester/amazon-freertos/lib/third_party/mcu_vendor/renesas/rz_mcu_boards/core_package/generate/os_abstraction/src\r_os_abstraction_api.c **** 
 176:D:/Work/DeviceTester/amazon-freertos/lib/third_party/mcu_vendor/renesas/rz_mcu_boards/core_package/generate/os_abstraction/src\r_os_abstraction_api.c ****     /* determine length of data to log */
 177:D:/Work/DeviceTester/amazon-freertos/lib/third_party/mcu_vendor/renesas/rz_mcu_boards/core_package/generate/os_abstraction/src\r_os_abstraction_api.c ****     if (0 == len_data)
 178:D:/Work/DeviceTester/amazon-freertos/lib/third_party/mcu_vendor/renesas/rz_mcu_boards/core_package/generate/os_abstraction/src\r_os_abstraction_api.c ****     {
 179:D:/Work/DeviceTester/amazon-freertos/lib/third_party/mcu_vendor/renesas/rz_mcu_boards/core_package/generate/os_abstraction/src\r_os_abstraction_api.c ****         /* using strlen */
 180:D:/Work/DeviceTester/amazon-freertos/lib/third_party/mcu_vendor/renesas/rz_mcu_boards/core_package/generate/os_abstraction/src\r_os_abstraction_api.c ****         len = strlen(p_data_to_log);
 181:D:/Work/DeviceTester/amazon-freertos/lib/third_party/mcu_vendor/renesas/rz_mcu_boards/core_package/generate/os_abstraction/src\r_os_abstraction_api.c ****     }
 182:D:/Work/DeviceTester/amazon-freertos/lib/third_party/mcu_vendor/renesas/rz_mcu_boards/core_package/generate/os_abstraction/src\r_os_abstraction_api.c ****     else
 183:D:/Work/DeviceTester/amazon-freertos/lib/third_party/mcu_vendor/renesas/rz_mcu_boards/core_package/generate/os_abstraction/src\r_os_abstraction_api.c ****     {
 184:D:/Work/DeviceTester/amazon-freertos/lib/third_party/mcu_vendor/renesas/rz_mcu_boards/core_package/generate/os_abstraction/src\r_os_abstraction_api.c ****         len = len_data;
 185:D:/Work/DeviceTester/amazon-freertos/lib/third_party/mcu_vendor/renesas/rz_mcu_boards/core_package/generate/os_abstraction/src\r_os_abstraction_api.c ****     }
 186:D:/Work/DeviceTester/amazon-freertos/lib/third_party/mcu_vendor/renesas/rz_mcu_boards/core_package/generate/os_abstraction/src\r_os_abstraction_api.c **** 
 187:D:/Work/DeviceTester/amazon-freertos/lib/third_party/mcu_vendor/renesas/rz_mcu_boards/core_package/generate/os_abstraction/src\r_os_abstraction_api.c ****     /* will head fit in buffer without overlap */
 188:D:/Work/DeviceTester/amazon-freertos/lib/third_party/mcu_vendor/renesas/rz_mcu_boards/core_package/generate/os_abstraction/src\r_os_abstraction_api.c ****     if ((sp_log_head + len) < (s_log_data + LOG_DATA_DUMP_SIZE_PRV_))
 189:D:/Work/DeviceTester/amazon-freertos/lib/third_party/mcu_vendor/renesas/rz_mcu_boards/core_package/generate/os_abstraction/src\r_os_abstraction_api.c ****     {
 190:D:/Work/DeviceTester/amazon-freertos/lib/third_party/mcu_vendor/renesas/rz_mcu_boards/core_package/generate/os_abstraction/src\r_os_abstraction_api.c ****         /* push tail up if overlapped */
 191:D:/Work/DeviceTester/amazon-freertos/lib/third_party/mcu_vendor/renesas/rz_mcu_boards/core_package/generate/os_abstraction/src\r_os_abstraction_api.c ****         if ((sp_log_tail > sp_log_head) && (sp_log_tail < (sp_log_head + len)))
 192:D:/Work/DeviceTester/amazon-freertos/lib/third_party/mcu_vendor/renesas/rz_mcu_boards/core_package/generate/os_abstraction/src\r_os_abstraction_api.c ****         {
 193:D:/Work/DeviceTester/amazon-freertos/lib/third_party/mcu_vendor/renesas/rz_mcu_boards/core_package/generate/os_abstraction/src\r_os_abstraction_api.c ****             sp_log_tail = (sp_log_head + len);
 194:D:/Work/DeviceTester/amazon-freertos/lib/third_party/mcu_vendor/renesas/rz_mcu_boards/core_package/generate/os_abstraction/src\r_os_abstraction_api.c ****         }
 195:D:/Work/DeviceTester/amazon-freertos/lib/third_party/mcu_vendor/renesas/rz_mcu_boards/core_package/generate/os_abstraction/src\r_os_abstraction_api.c ****         strncpy(sp_log_head, p_data_to_log, len);
 196:D:/Work/DeviceTester/amazon-freertos/lib/third_party/mcu_vendor/renesas/rz_mcu_boards/core_package/generate/os_abstraction/src\r_os_abstraction_api.c ****         sp_log_head += len;
 197:D:/Work/DeviceTester/amazon-freertos/lib/third_party/mcu_vendor/renesas/rz_mcu_boards/core_package/generate/os_abstraction/src\r_os_abstraction_api.c ****     }
 198:D:/Work/DeviceTester/amazon-freertos/lib/third_party/mcu_vendor/renesas/rz_mcu_boards/core_package/generate/os_abstraction/src\r_os_abstraction_api.c ****     else
 199:D:/Work/DeviceTester/amazon-freertos/lib/third_party/mcu_vendor/renesas/rz_mcu_boards/core_package/generate/os_abstraction/src\r_os_abstraction_api.c ****     {
 200:D:/Work/DeviceTester/amazon-freertos/lib/third_party/mcu_vendor/renesas/rz_mcu_boards/core_package/generate/os_abstraction/src\r_os_abstraction_api.c ****         /* overlap */
 201:D:/Work/DeviceTester/amazon-freertos/lib/third_party/mcu_vendor/renesas/rz_mcu_boards/core_package/generate/os_abstraction/src\r_os_abstraction_api.c **** 
 202:D:/Work/DeviceTester/amazon-freertos/lib/third_party/mcu_vendor/renesas/rz_mcu_boards/core_package/generate/os_abstraction/src\r_os_abstraction_api.c ****         /* add to top of buffer */
 203:D:/Work/DeviceTester/amazon-freertos/lib/third_party/mcu_vendor/renesas/rz_mcu_boards/core_package/generate/os_abstraction/src\r_os_abstraction_api.c **** 
 204:D:/Work/DeviceTester/amazon-freertos/lib/third_party/mcu_vendor/renesas/rz_mcu_boards/core_package/generate/os_abstraction/src\r_os_abstraction_api.c ****         /* calc number of bytes to top */
 205:D:/Work/DeviceTester/amazon-freertos/lib/third_party/mcu_vendor/renesas/rz_mcu_boards/core_package/generate/os_abstraction/src\r_os_abstraction_api.c ****         uint32_t num_chars_to_top = ((s_log_data + LOG_DATA_DUMP_SIZE_PRV_) - sp_log_head);
 206:D:/Work/DeviceTester/amazon-freertos/lib/third_party/mcu_vendor/renesas/rz_mcu_boards/core_package/generate/os_abstraction/src\r_os_abstraction_api.c **** 
 207:D:/Work/DeviceTester/amazon-freertos/lib/third_party/mcu_vendor/renesas/rz_mcu_boards/core_package/generate/os_abstraction/src\r_os_abstraction_api.c ****         /* fill buffer to the top */
 208:D:/Work/DeviceTester/amazon-freertos/lib/third_party/mcu_vendor/renesas/rz_mcu_boards/core_package/generate/os_abstraction/src\r_os_abstraction_api.c ****         strncpy(sp_log_head, p_data_to_log, num_chars_to_top);
 209:D:/Work/DeviceTester/amazon-freertos/lib/third_party/mcu_vendor/renesas/rz_mcu_boards/core_package/generate/os_abstraction/src\r_os_abstraction_api.c **** 
 210:D:/Work/DeviceTester/amazon-freertos/lib/third_party/mcu_vendor/renesas/rz_mcu_boards/core_package/generate/os_abstraction/src\r_os_abstraction_api.c ****         /* add remaining to start of buffer */
 211:D:/Work/DeviceTester/amazon-freertos/lib/third_party/mcu_vendor/renesas/rz_mcu_boards/core_package/generate/os_abstraction/src\r_os_abstraction_api.c ****         strncpy(s_log_data, (char *) (p_data_to_log + num_chars_to_top), (len - num_chars_to_top));
 212:D:/Work/DeviceTester/amazon-freertos/lib/third_party/mcu_vendor/renesas/rz_mcu_boards/core_package/generate/os_abstraction/src\r_os_abstraction_api.c **** 
 213:D:/Work/DeviceTester/amazon-freertos/lib/third_party/mcu_vendor/renesas/rz_mcu_boards/core_package/generate/os_abstraction/src\r_os_abstraction_api.c ****         /* update head */
 214:D:/Work/DeviceTester/amazon-freertos/lib/third_party/mcu_vendor/renesas/rz_mcu_boards/core_package/generate/os_abstraction/src\r_os_abstraction_api.c ****         sp_log_head = (char *) (s_log_data + (len - num_chars_to_top));
 215:D:/Work/DeviceTester/amazon-freertos/lib/third_party/mcu_vendor/renesas/rz_mcu_boards/core_package/generate/os_abstraction/src\r_os_abstraction_api.c **** 
 216:D:/Work/DeviceTester/amazon-freertos/lib/third_party/mcu_vendor/renesas/rz_mcu_boards/core_package/generate/os_abstraction/src\r_os_abstraction_api.c ****         /* update tail if overlapped */
 217:D:/Work/DeviceTester/amazon-freertos/lib/third_party/mcu_vendor/renesas/rz_mcu_boards/core_package/generate/os_abstraction/src\r_os_abstraction_api.c ****         if (sp_log_tail < sp_log_head)
 218:D:/Work/DeviceTester/amazon-freertos/lib/third_party/mcu_vendor/renesas/rz_mcu_boards/core_package/generate/os_abstraction/src\r_os_abstraction_api.c ****         {
 219:D:/Work/DeviceTester/amazon-freertos/lib/third_party/mcu_vendor/renesas/rz_mcu_boards/core_package/generate/os_abstraction/src\r_os_abstraction_api.c ****             sp_log_tail = sp_log_head;
 220:D:/Work/DeviceTester/amazon-freertos/lib/third_party/mcu_vendor/renesas/rz_mcu_boards/core_package/generate/os_abstraction/src\r_os_abstraction_api.c ****         }
 221:D:/Work/DeviceTester/amazon-freertos/lib/third_party/mcu_vendor/renesas/rz_mcu_boards/core_package/generate/os_abstraction/src\r_os_abstraction_api.c ****     }
 222:D:/Work/DeviceTester/amazon-freertos/lib/third_party/mcu_vendor/renesas/rz_mcu_boards/core_package/generate/os_abstraction/src\r_os_abstraction_api.c **** }
 223:D:/Work/DeviceTester/amazon-freertos/lib/third_party/mcu_vendor/renesas/rz_mcu_boards/core_package/generate/os_abstraction/src\r_os_abstraction_api.c **** /**************************************************************************************************
 224:D:/Work/DeviceTester/amazon-freertos/lib/third_party/mcu_vendor/renesas/rz_mcu_boards/core_package/generate/os_abstraction/src\r_os_abstraction_api.c ****  End of function log_data
 225:D:/Work/DeviceTester/amazon-freertos/lib/third_party/mcu_vendor/renesas/rz_mcu_boards/core_package/generate/os_abstraction/src\r_os_abstraction_api.c ****  **************************************************************************************************
 226:D:/Work/DeviceTester/amazon-freertos/lib/third_party/mcu_vendor/renesas/rz_mcu_boards/core_package/generate/os_abstraction/src\r_os_abstraction_api.c **** 
 227:D:/Work/DeviceTester/amazon-freertos/lib/third_party/mcu_vendor/renesas/rz_mcu_boards/core_package/generate/os_abstraction/src\r_os_abstraction_api.c **** /**************************************************************************************************
 228:D:/Work/DeviceTester/amazon-freertos/lib/third_party/mcu_vendor/renesas/rz_mcu_boards/core_package/generate/os_abstraction/src\r_os_abstraction_api.c ****  * Function Name: log_write_data_to_console
 229:D:/Work/DeviceTester/amazon-freertos/lib/third_party/mcu_vendor/renesas/rz_mcu_boards/core_package/generate/os_abstraction/src\r_os_abstraction_api.c ****  * Description  : Outputs contents of circular debug buffer to console
 230:D:/Work/DeviceTester/amazon-freertos/lib/third_party/mcu_vendor/renesas/rz_mcu_boards/core_package/generate/os_abstraction/src\r_os_abstraction_api.c ****  * Arguments    : void
 231:D:/Work/DeviceTester/amazon-freertos/lib/third_party/mcu_vendor/renesas/rz_mcu_boards/core_package/generate/os_abstraction/src\r_os_abstraction_api.c ****  * Return Value : void
 232:D:/Work/DeviceTester/amazon-freertos/lib/third_party/mcu_vendor/renesas/rz_mcu_boards/core_package/generate/os_abstraction/src\r_os_abstraction_api.c ****  **************************************************************************************************
 233:D:/Work/DeviceTester/amazon-freertos/lib/third_party/mcu_vendor/renesas/rz_mcu_boards/core_package/generate/os_abstraction/src\r_os_abstraction_api.c **** static void log_write_data_to_console (void)
 234:D:/Work/DeviceTester/amazon-freertos/lib/third_party/mcu_vendor/renesas/rz_mcu_boards/core_package/generate/os_abstraction/src\r_os_abstraction_api.c **** {
 235:D:/Work/DeviceTester/amazon-freertos/lib/third_party/mcu_vendor/renesas/rz_mcu_boards/core_package/generate/os_abstraction/src\r_os_abstraction_api.c ****     /* check if console reporting is already underway */
 236:D:/Work/DeviceTester/amazon-freertos/lib/third_party/mcu_vendor/renesas/rz_mcu_boards/core_package/generate/os_abstraction/src\r_os_abstraction_api.c ****     /* sometimes assert runs in more than 1 task... */
 237:D:/Work/DeviceTester/amazon-freertos/lib/third_party/mcu_vendor/renesas/rz_mcu_boards/core_package/generate/os_abstraction/src\r_os_abstraction_api.c ****     if (s_log_readback_running)
 238:D:/Work/DeviceTester/amazon-freertos/lib/third_party/mcu_vendor/renesas/rz_mcu_boards/core_package/generate/os_abstraction/src\r_os_abstraction_api.c ****     {
 239:D:/Work/DeviceTester/amazon-freertos/lib/third_party/mcu_vendor/renesas/rz_mcu_boards/core_package/generate/os_abstraction/src\r_os_abstraction_api.c ****         return;
 240:D:/Work/DeviceTester/amazon-freertos/lib/third_party/mcu_vendor/renesas/rz_mcu_boards/core_package/generate/os_abstraction/src\r_os_abstraction_api.c ****     }
 241:D:/Work/DeviceTester/amazon-freertos/lib/third_party/mcu_vendor/renesas/rz_mcu_boards/core_package/generate/os_abstraction/src\r_os_abstraction_api.c **** 
 242:D:/Work/DeviceTester/amazon-freertos/lib/third_party/mcu_vendor/renesas/rz_mcu_boards/core_package/generate/os_abstraction/src\r_os_abstraction_api.c ****     /* prevent multiple access in assert */
 243:D:/Work/DeviceTester/amazon-freertos/lib/third_party/mcu_vendor/renesas/rz_mcu_boards/core_package/generate/os_abstraction/src\r_os_abstraction_api.c ****     s_log_readback_running = 1u;
 244:D:/Work/DeviceTester/amazon-freertos/lib/third_party/mcu_vendor/renesas/rz_mcu_boards/core_package/generate/os_abstraction/src\r_os_abstraction_api.c **** 
 245:D:/Work/DeviceTester/amazon-freertos/lib/third_party/mcu_vendor/renesas/rz_mcu_boards/core_package/generate/os_abstraction/src\r_os_abstraction_api.c ****     if (sp_log_tail < sp_log_head)
 246:D:/Work/DeviceTester/amazon-freertos/lib/third_party/mcu_vendor/renesas/rz_mcu_boards/core_package/generate/os_abstraction/src\r_os_abstraction_api.c ****     {
 247:D:/Work/DeviceTester/amazon-freertos/lib/third_party/mcu_vendor/renesas/rz_mcu_boards/core_package/generate/os_abstraction/src\r_os_abstraction_api.c ****         /* not overlapped. can just printf */
 248:D:/Work/DeviceTester/amazon-freertos/lib/third_party/mcu_vendor/renesas/rz_mcu_boards/core_package/generate/os_abstraction/src\r_os_abstraction_api.c ****         *(sp_log_head + 1) = 0;
 249:D:/Work/DeviceTester/amazon-freertos/lib/third_party/mcu_vendor/renesas/rz_mcu_boards/core_package/generate/os_abstraction/src\r_os_abstraction_api.c **** 
 250:D:/Work/DeviceTester/amazon-freertos/lib/third_party/mcu_vendor/renesas/rz_mcu_boards/core_package/generate/os_abstraction/src\r_os_abstraction_api.c ****         /* cast to remove volatile qualifier */
 251:D:/Work/DeviceTester/amazon-freertos/lib/third_party/mcu_vendor/renesas/rz_mcu_boards/core_package/generate/os_abstraction/src\r_os_abstraction_api.c ****         printf((char *) sp_log_tail);
 252:D:/Work/DeviceTester/amazon-freertos/lib/third_party/mcu_vendor/renesas/rz_mcu_boards/core_package/generate/os_abstraction/src\r_os_abstraction_api.c ****     }
 253:D:/Work/DeviceTester/amazon-freertos/lib/third_party/mcu_vendor/renesas/rz_mcu_boards/core_package/generate/os_abstraction/src\r_os_abstraction_api.c ****     else
 254:D:/Work/DeviceTester/amazon-freertos/lib/third_party/mcu_vendor/renesas/rz_mcu_boards/core_package/generate/os_abstraction/src\r_os_abstraction_api.c ****     {
 255:D:/Work/DeviceTester/amazon-freertos/lib/third_party/mcu_vendor/renesas/rz_mcu_boards/core_package/generate/os_abstraction/src\r_os_abstraction_api.c ****         /* overlapped. print up to top of buffer */
 256:D:/Work/DeviceTester/amazon-freertos/lib/third_party/mcu_vendor/renesas/rz_mcu_boards/core_package/generate/os_abstraction/src\r_os_abstraction_api.c ****         /* not overlapped. can just printf */
 257:D:/Work/DeviceTester/amazon-freertos/lib/third_party/mcu_vendor/renesas/rz_mcu_boards/core_package/generate/os_abstraction/src\r_os_abstraction_api.c ****         s_log_data[LOG_DATA_DUMP_SIZE_PRV_] = 0;
 258:D:/Work/DeviceTester/amazon-freertos/lib/third_party/mcu_vendor/renesas/rz_mcu_boards/core_package/generate/os_abstraction/src\r_os_abstraction_api.c **** 
 259:D:/Work/DeviceTester/amazon-freertos/lib/third_party/mcu_vendor/renesas/rz_mcu_boards/core_package/generate/os_abstraction/src\r_os_abstraction_api.c ****         /* cast to remove volatile qualifier */
 260:D:/Work/DeviceTester/amazon-freertos/lib/third_party/mcu_vendor/renesas/rz_mcu_boards/core_package/generate/os_abstraction/src\r_os_abstraction_api.c ****         printf((char *) sp_log_tail);
 261:D:/Work/DeviceTester/amazon-freertos/lib/third_party/mcu_vendor/renesas/rz_mcu_boards/core_package/generate/os_abstraction/src\r_os_abstraction_api.c **** 
 262:D:/Work/DeviceTester/amazon-freertos/lib/third_party/mcu_vendor/renesas/rz_mcu_boards/core_package/generate/os_abstraction/src\r_os_abstraction_api.c ****         /* not overlapped. can just printf */
 263:D:/Work/DeviceTester/amazon-freertos/lib/third_party/mcu_vendor/renesas/rz_mcu_boards/core_package/generate/os_abstraction/src\r_os_abstraction_api.c ****         *(sp_log_head + 1) = 0;
 264:D:/Work/DeviceTester/amazon-freertos/lib/third_party/mcu_vendor/renesas/rz_mcu_boards/core_package/generate/os_abstraction/src\r_os_abstraction_api.c **** 
 265:D:/Work/DeviceTester/amazon-freertos/lib/third_party/mcu_vendor/renesas/rz_mcu_boards/core_package/generate/os_abstraction/src\r_os_abstraction_api.c ****         /* cast to remove volatile qualifier */
 266:D:/Work/DeviceTester/amazon-freertos/lib/third_party/mcu_vendor/renesas/rz_mcu_boards/core_package/generate/os_abstraction/src\r_os_abstraction_api.c ****         printf((char *) s_log_data);
 267:D:/Work/DeviceTester/amazon-freertos/lib/third_party/mcu_vendor/renesas/rz_mcu_boards/core_package/generate/os_abstraction/src\r_os_abstraction_api.c ****     }
 268:D:/Work/DeviceTester/amazon-freertos/lib/third_party/mcu_vendor/renesas/rz_mcu_boards/core_package/generate/os_abstraction/src\r_os_abstraction_api.c **** 
 269:D:/Work/DeviceTester/amazon-freertos/lib/third_party/mcu_vendor/renesas/rz_mcu_boards/core_package/generate/os_abstraction/src\r_os_abstraction_api.c ****     /* empty buffer */
 270:D:/Work/DeviceTester/amazon-freertos/lib/third_party/mcu_vendor/renesas/rz_mcu_boards/core_package/generate/os_abstraction/src\r_os_abstraction_api.c ****     sp_log_head = s_log_data;
 271:D:/Work/DeviceTester/amazon-freertos/lib/third_party/mcu_vendor/renesas/rz_mcu_boards/core_package/generate/os_abstraction/src\r_os_abstraction_api.c ****     sp_log_tail = s_log_data;
 272:D:/Work/DeviceTester/amazon-freertos/lib/third_party/mcu_vendor/renesas/rz_mcu_boards/core_package/generate/os_abstraction/src\r_os_abstraction_api.c **** 
 273:D:/Work/DeviceTester/amazon-freertos/lib/third_party/mcu_vendor/renesas/rz_mcu_boards/core_package/generate/os_abstraction/src\r_os_abstraction_api.c ****     /* reset multiple access */
 274:D:/Work/DeviceTester/amazon-freertos/lib/third_party/mcu_vendor/renesas/rz_mcu_boards/core_package/generate/os_abstraction/src\r_os_abstraction_api.c ****     s_log_readback_running = 0u;
 275:D:/Work/DeviceTester/amazon-freertos/lib/third_party/mcu_vendor/renesas/rz_mcu_boards/core_package/generate/os_abstraction/src\r_os_abstraction_api.c **** }
 276:D:/Work/DeviceTester/amazon-freertos/lib/third_party/mcu_vendor/renesas/rz_mcu_boards/core_package/generate/os_abstraction/src\r_os_abstraction_api.c **** /**************************************************************************************************
 277:D:/Work/DeviceTester/amazon-freertos/lib/third_party/mcu_vendor/renesas/rz_mcu_boards/core_package/generate/os_abstraction/src\r_os_abstraction_api.c ****  End of function log_write_data_to_console
 278:D:/Work/DeviceTester/amazon-freertos/lib/third_party/mcu_vendor/renesas/rz_mcu_boards/core_package/generate/os_abstraction/src\r_os_abstraction_api.c ****  **************************************************************************************************
 279:D:/Work/DeviceTester/amazon-freertos/lib/third_party/mcu_vendor/renesas/rz_mcu_boards/core_package/generate/os_abstraction/src\r_os_abstraction_api.c **** 
 280:D:/Work/DeviceTester/amazon-freertos/lib/third_party/mcu_vendor/renesas/rz_mcu_boards/core_package/generate/os_abstraction/src\r_os_abstraction_api.c **** #endif /* LOG_TASK_INFO */
 281:D:/Work/DeviceTester/amazon-freertos/lib/third_party/mcu_vendor/renesas/rz_mcu_boards/core_package/generate/os_abstraction/src\r_os_abstraction_api.c **** 
 282:D:/Work/DeviceTester/amazon-freertos/lib/third_party/mcu_vendor/renesas/rz_mcu_boards/core_package/generate/os_abstraction/src\r_os_abstraction_api.c **** /**************************************************************************************************
 283:D:/Work/DeviceTester/amazon-freertos/lib/third_party/mcu_vendor/renesas/rz_mcu_boards/core_package/generate/os_abstraction/src\r_os_abstraction_api.c ****  * Function Name: main_task
 284:D:/Work/DeviceTester/amazon-freertos/lib/third_party/mcu_vendor/renesas/rz_mcu_boards/core_package/generate/os_abstraction/src\r_os_abstraction_api.c ****  * Description  : The main task, performs any ramining initialisation and call
 285:D:/Work/DeviceTester/amazon-freertos/lib/third_party/mcu_vendor/renesas/rz_mcu_boards/core_package/generate/os_abstraction/src\r_os_abstraction_api.c ****  *                the user level function main().
 286:D:/Work/DeviceTester/amazon-freertos/lib/third_party/mcu_vendor/renesas/rz_mcu_boards/core_package/generate/os_abstraction/src\r_os_abstraction_api.c ****  * Arguments    : none
 287:D:/Work/DeviceTester/amazon-freertos/lib/third_party/mcu_vendor/renesas/rz_mcu_boards/core_package/generate/os_abstraction/src\r_os_abstraction_api.c ****  * Return Value : none
 288:D:/Work/DeviceTester/amazon-freertos/lib/third_party/mcu_vendor/renesas/rz_mcu_boards/core_package/generate/os_abstraction/src\r_os_abstraction_api.c ****  **************************************************************************************************
 289:D:/Work/DeviceTester/amazon-freertos/lib/third_party/mcu_vendor/renesas/rz_mcu_boards/core_package/generate/os_abstraction/src\r_os_abstraction_api.c **** static void main_task (void)
 290:D:/Work/DeviceTester/amazon-freertos/lib/third_party/mcu_vendor/renesas/rz_mcu_boards/core_package/generate/os_abstraction/src\r_os_abstraction_api.c **** {
  25              		.loc 1 290 0
  26              		.cfi_startproc
  27              		@ Volatile: function does not return.
  28              		@ args = 0, pretend = 0, frame = 0
  29              		@ frame_needed = 0, uses_anonymous_args = 0
 291:D:/Work/DeviceTester/amazon-freertos/lib/third_party/mcu_vendor/renesas/rz_mcu_boards/core_package/generate/os_abstraction/src\r_os_abstraction_api.c **** 	s_os_running = true;
  30              		.loc 1 291 0
  31 0000 10309FE5 		ldr	r3, .L4
  32 0004 0120A0E3 		mov	r2, #1
 290:D:/Work/DeviceTester/amazon-freertos/lib/third_party/mcu_vendor/renesas/rz_mcu_boards/core_package/generate/os_abstraction/src\r_os_abstraction_api.c **** 	s_os_running = true;
  33              		.loc 1 290 0
  34 0008 10402DE9 		push	{r4, lr}
  35              		.cfi_def_cfa_offset 8
  36              		.cfi_offset 4, -8
  37              		.cfi_offset 14, -4
  38              		.loc 1 291 0
  39 000c 002083E5 		str	r2, [r3]
 292:D:/Work/DeviceTester/amazon-freertos/lib/third_party/mcu_vendor/renesas/rz_mcu_boards/core_package/generate/os_abstraction/src\r_os_abstraction_api.c **** 
 293:D:/Work/DeviceTester/amazon-freertos/lib/third_party/mcu_vendor/renesas/rz_mcu_boards/core_package/generate/os_abstraction/src\r_os_abstraction_api.c ****     /* Call application main function which shouldn't return */
 294:D:/Work/DeviceTester/amazon-freertos/lib/third_party/mcu_vendor/renesas/rz_mcu_boards/core_package/generate/os_abstraction/src\r_os_abstraction_api.c ****     extern int_t os_main_task_t (void);
 295:D:/Work/DeviceTester/amazon-freertos/lib/third_party/mcu_vendor/renesas/rz_mcu_boards/core_package/generate/os_abstraction/src\r_os_abstraction_api.c ****     os_main_task_t();
  40              		.loc 1 295 0
  41 0010 FEFFFFEB 		bl	os_main_task_t
  42              	.LVL0:
  43              	.L2:
  44 0014 FEFFFFEA 		b	.L2
  45              	.L5:
  46              		.align	2
  47              	.L4:
  48 0018 00000000 		.word	.LANCHOR0
  49              		.cfi_endproc
  50              	.LFE5:
  52              		.section	.text.pvPortsetDesiredBlockForMalloc,"ax",%progbits
  53              		.align	2
  54              		.weak	pvPortsetDesiredBlockForMalloc
  55              		.syntax unified
  56              		.arm
  57              		.fpu neon
  59              	pvPortsetDesiredBlockForMalloc:
  60              	.LFB4:
 158:D:/Work/DeviceTester/amazon-freertos/lib/third_party/mcu_vendor/renesas/rz_mcu_boards/core_package/generate/os_abstraction/src\r_os_abstraction_api.c **** 	UNUSED_PARAM(xWantedBlock);
  61              		.loc 1 158 0
  62              		.cfi_startproc
  63              		@ args = 0, pretend = 0, frame = 0
  64              		@ frame_needed = 0, uses_anonymous_args = 0
  65              		@ link register save eliminated.
  66              	.LVL1:
  67              	.LBB12:
  68              	.LBB13:
  69              		.file 2 "D:\\Work\\DeviceTester\\amazon-freertos\\lib\\third_party\\mcu_vendor\\renesas\\rz_mcu_bo
   1:D:\Work\DeviceTester\amazon-freertos\lib\third_party\mcu_vendor\renesas\rz_mcu_boards\core_package\generate\compiler\inc\r_compiler_abstraction_api.h **** /**************************************************************************************************
   2:D:\Work\DeviceTester\amazon-freertos\lib\third_party\mcu_vendor\renesas\rz_mcu_boards\core_package\generate\compiler\inc\r_compiler_abstraction_api.h ****  * DISCLAIMER
   3:D:\Work\DeviceTester\amazon-freertos\lib\third_party\mcu_vendor\renesas\rz_mcu_boards\core_package\generate\compiler\inc\r_compiler_abstraction_api.h ****  * This software is supplied by Renesas Electronics Corporation and is only intended for use with R
   4:D:\Work\DeviceTester\amazon-freertos\lib\third_party\mcu_vendor\renesas\rz_mcu_boards\core_package\generate\compiler\inc\r_compiler_abstraction_api.h ****  * other uses are authorized. This software is owned by Renesas Electronics Corporation and is prot
   5:D:\Work\DeviceTester\amazon-freertos\lib\third_party\mcu_vendor\renesas\rz_mcu_boards\core_package\generate\compiler\inc\r_compiler_abstraction_api.h ****  * applicable laws, including copyright laws.
   6:D:\Work\DeviceTester\amazon-freertos\lib\third_party\mcu_vendor\renesas\rz_mcu_boards\core_package\generate\compiler\inc\r_compiler_abstraction_api.h ****  * THIS SOFTWARE IS PROVIDED "AS IS" AND RENESAS MAKES NO WARRANTIES REGARDING
   7:D:\Work\DeviceTester\amazon-freertos\lib\third_party\mcu_vendor\renesas\rz_mcu_boards\core_package\generate\compiler\inc\r_compiler_abstraction_api.h ****  * THIS SOFTWARE, WHETHER EXPRESS, IMPLIED OR STATUTORY, INCLUDING BUT NOT LIMITED TO WARRANTIES OF
   8:D:\Work\DeviceTester\amazon-freertos\lib\third_party\mcu_vendor\renesas\rz_mcu_boards\core_package\generate\compiler\inc\r_compiler_abstraction_api.h ****  * FITNESS FOR A PARTICULAR PURPOSE AND NON-INFRINGEMENT. ALL SUCH WARRANTIES ARE EXPRESSLY DISCLAI
   9:D:\Work\DeviceTester\amazon-freertos\lib\third_party\mcu_vendor\renesas\rz_mcu_boards\core_package\generate\compiler\inc\r_compiler_abstraction_api.h ****  * EXTENT PERMITTED NOT PROHIBITED BY LAW, NEITHER RENESAS ELECTRONICS CORPORATION NOR ANY OF ITS A
  10:D:\Work\DeviceTester\amazon-freertos\lib\third_party\mcu_vendor\renesas\rz_mcu_boards\core_package\generate\compiler\inc\r_compiler_abstraction_api.h ****  * SHALL BE LIABLE FOR ANY DIRECT, INDIRECT, SPECIAL, INCIDENTAL OR CONSEQUENTIAL DAMAGES FOR ANY R
  11:D:\Work\DeviceTester\amazon-freertos\lib\third_party\mcu_vendor\renesas\rz_mcu_boards\core_package\generate\compiler\inc\r_compiler_abstraction_api.h ****  * SOFTWARE, EVEN IF RENESAS OR ITS AFFILIATES HAVE BEEN ADVISED OF THE POSSIBILITY OF SUCH DAMAGES
  12:D:\Work\DeviceTester\amazon-freertos\lib\third_party\mcu_vendor\renesas\rz_mcu_boards\core_package\generate\compiler\inc\r_compiler_abstraction_api.h ****  * Renesas reserves the right, without notice, to make changes to this software and to discontinue 
  13:D:\Work\DeviceTester\amazon-freertos\lib\third_party\mcu_vendor\renesas\rz_mcu_boards\core_package\generate\compiler\inc\r_compiler_abstraction_api.h ****  * this software. By using this software, you agree to the additional terms and conditions found by
  14:D:\Work\DeviceTester\amazon-freertos\lib\third_party\mcu_vendor\renesas\rz_mcu_boards\core_package\generate\compiler\inc\r_compiler_abstraction_api.h ****  * following link:
  15:D:\Work\DeviceTester\amazon-freertos\lib\third_party\mcu_vendor\renesas\rz_mcu_boards\core_package\generate\compiler\inc\r_compiler_abstraction_api.h ****  * http://www.renesas.com/disclaimer
  16:D:\Work\DeviceTester\amazon-freertos\lib\third_party\mcu_vendor\renesas\rz_mcu_boards\core_package\generate\compiler\inc\r_compiler_abstraction_api.h ****  *
  17:D:\Work\DeviceTester\amazon-freertos\lib\third_party\mcu_vendor\renesas\rz_mcu_boards\core_package\generate\compiler\inc\r_compiler_abstraction_api.h ****  * Copyright (C) 2020 Renesas Electronics Corporation. All rights reserved.
  18:D:\Work\DeviceTester\amazon-freertos\lib\third_party\mcu_vendor\renesas\rz_mcu_boards\core_package\generate\compiler\inc\r_compiler_abstraction_api.h ****  **************************************************************************************************
  19:D:\Work\DeviceTester\amazon-freertos\lib\third_party\mcu_vendor\renesas\rz_mcu_boards\core_package\generate\compiler\inc\r_compiler_abstraction_api.h **** /**************************************************************************************************
  20:D:\Work\DeviceTester\amazon-freertos\lib\third_party\mcu_vendor\renesas\rz_mcu_boards\core_package\generate\compiler\inc\r_compiler_abstraction_api.h ****  * File Name    : r_compiler_abstraction_api.h
  21:D:\Work\DeviceTester\amazon-freertos\lib\third_party\mcu_vendor\renesas\rz_mcu_boards\core_package\generate\compiler\inc\r_compiler_abstraction_api.h ****  * Description  : Provides a common API for frequently used compiler specific operations
  22:D:\Work\DeviceTester\amazon-freertos\lib\third_party\mcu_vendor\renesas\rz_mcu_boards\core_package\generate\compiler\inc\r_compiler_abstraction_api.h ****  **************************************************************************************************
  23:D:\Work\DeviceTester\amazon-freertos\lib\third_party\mcu_vendor\renesas\rz_mcu_boards\core_package\generate\compiler\inc\r_compiler_abstraction_api.h **** #include  "r_typedefs.h"
  24:D:\Work\DeviceTester\amazon-freertos\lib\third_party\mcu_vendor\renesas\rz_mcu_boards\core_package\generate\compiler\inc\r_compiler_abstraction_api.h **** 
  25:D:\Work\DeviceTester\amazon-freertos\lib\third_party\mcu_vendor\renesas\rz_mcu_boards\core_package\generate\compiler\inc\r_compiler_abstraction_api.h **** #ifndef SRC_PRV_RENESAS_COMPILER_INC_R_COMPILER_ABSTRACTION_API_H_
  26:D:\Work\DeviceTester\amazon-freertos\lib\third_party\mcu_vendor\renesas\rz_mcu_boards\core_package\generate\compiler\inc\r_compiler_abstraction_api.h **** #define SRC_PRV_RENESAS_COMPILER_INC_R_COMPILER_ABSTRACTION_API_H_
  27:D:\Work\DeviceTester\amazon-freertos\lib\third_party\mcu_vendor\renesas\rz_mcu_boards\core_package\generate\compiler\inc\r_compiler_abstraction_api.h **** 
  28:D:\Work\DeviceTester\amazon-freertos\lib\third_party\mcu_vendor\renesas\rz_mcu_boards\core_package\generate\compiler\inc\r_compiler_abstraction_api.h **** /* Macro is used to declare linkage to a function as weak so that it can be overridden by a normall
  29:D:\Work\DeviceTester\amazon-freertos\lib\third_party\mcu_vendor\renesas\rz_mcu_boards\core_package\generate\compiler\inc\r_compiler_abstraction_api.h ****  * Update this when using a different compiler. */
  30:D:\Work\DeviceTester\amazon-freertos\lib\third_party\mcu_vendor\renesas\rz_mcu_boards\core_package\generate\compiler\inc\r_compiler_abstraction_api.h **** #define R_COMPILER_WEAK __attribute__((weak))
  31:D:\Work\DeviceTester\amazon-freertos\lib\third_party\mcu_vendor\renesas\rz_mcu_boards\core_package\generate\compiler\inc\r_compiler_abstraction_api.h **** 
  32:D:\Work\DeviceTester\amazon-freertos\lib\third_party\mcu_vendor\renesas\rz_mcu_boards\core_package\generate\compiler\inc\r_compiler_abstraction_api.h **** #define R_COMPILER_INLINE static inline
  33:D:\Work\DeviceTester\amazon-freertos\lib\third_party\mcu_vendor\renesas\rz_mcu_boards\core_package\generate\compiler\inc\r_compiler_abstraction_api.h **** 
  34:D:\Work\DeviceTester\amazon-freertos\lib\third_party\mcu_vendor\renesas\rz_mcu_boards\core_package\generate\compiler\inc\r_compiler_abstraction_api.h **** extern void __enable_irq (void);
  35:D:\Work\DeviceTester\amazon-freertos\lib\third_party\mcu_vendor\renesas\rz_mcu_boards\core_package\generate\compiler\inc\r_compiler_abstraction_api.h **** extern uint32_t __disable_irq (void);
  36:D:\Work\DeviceTester\amazon-freertos\lib\third_party\mcu_vendor\renesas\rz_mcu_boards\core_package\generate\compiler\inc\r_compiler_abstraction_api.h **** extern void __enable_fiq (void);
  37:D:\Work\DeviceTester\amazon-freertos\lib\third_party\mcu_vendor\renesas\rz_mcu_boards\core_package\generate\compiler\inc\r_compiler_abstraction_api.h **** extern void __disable_fiq (void);
  38:D:\Work\DeviceTester\amazon-freertos\lib\third_party\mcu_vendor\renesas\rz_mcu_boards\core_package\generate\compiler\inc\r_compiler_abstraction_api.h **** 
  39:D:\Work\DeviceTester\amazon-freertos\lib\third_party\mcu_vendor\renesas\rz_mcu_boards\core_package\generate\compiler\inc\r_compiler_abstraction_api.h **** /**************************************************************************************************
  40:D:\Work\DeviceTester\amazon-freertos\lib\third_party\mcu_vendor\renesas\rz_mcu_boards\core_package\generate\compiler\inc\r_compiler_abstraction_api.h ****  * Function Name: R_COMPILER_Nop
  41:D:\Work\DeviceTester\amazon-freertos\lib\third_party\mcu_vendor\renesas\rz_mcu_boards\core_package\generate\compiler\inc\r_compiler_abstraction_api.h ****  * Description  : Abstracting a compiler No Operation opcode into a C function. Update this when us
  42:D:\Work\DeviceTester\amazon-freertos\lib\third_party\mcu_vendor\renesas\rz_mcu_boards\core_package\generate\compiler\inc\r_compiler_abstraction_api.h ****  *                compiler.
  43:D:\Work\DeviceTester\amazon-freertos\lib\third_party\mcu_vendor\renesas\rz_mcu_boards\core_package\generate\compiler\inc\r_compiler_abstraction_api.h ****  * Return Value : None.
  44:D:\Work\DeviceTester\amazon-freertos\lib\third_party\mcu_vendor\renesas\rz_mcu_boards\core_package\generate\compiler\inc\r_compiler_abstraction_api.h ****  **************************************************************************************************
  45:D:\Work\DeviceTester\amazon-freertos\lib\third_party\mcu_vendor\renesas\rz_mcu_boards\core_package\generate\compiler\inc\r_compiler_abstraction_api.h **** R_COMPILER_INLINE void R_COMPILER_Nop (void)
  46:D:\Work\DeviceTester\amazon-freertos\lib\third_party\mcu_vendor\renesas\rz_mcu_boards\core_package\generate\compiler\inc\r_compiler_abstraction_api.h ****     {
  47:D:\Work\DeviceTester\amazon-freertos\lib\third_party\mcu_vendor\renesas\rz_mcu_boards\core_package\generate\compiler\inc\r_compiler_abstraction_api.h ****         __asm volatile ("nop");
  70              		.loc 2 47 0
  71              		.syntax divided
  72              	@ 47 "D:\Work\DeviceTester\amazon-freertos\lib\third_party\mcu_vendor\renesas\rz_mcu_boards\core_pa
  73 0000 00F020E3 		nop
  74              	@ 0 "" 2
  75              		.arm
  76              		.syntax unified
  77 0004 1EFF2FE1 		bx	lr
  78              	.LBE13:
  79              	.LBE12:
  80              		.cfi_endproc
  81              	.LFE4:
  83              		.section	.text.R_OS_AbstractionLayerShutdown,"ax",%progbits
  84              		.align	2
  85              		.global	R_OS_AbstractionLayerShutdown
  86              		.syntax unified
  87              		.arm
  88              		.fpu neon
  90              	R_OS_AbstractionLayerShutdown:
  91              	.LFB7:
 296:D:/Work/DeviceTester/amazon-freertos/lib/third_party/mcu_vendor/renesas/rz_mcu_boards/core_package/generate/os_abstraction/src\r_os_abstraction_api.c **** 
 297:D:/Work/DeviceTester/amazon-freertos/lib/third_party/mcu_vendor/renesas/rz_mcu_boards/core_package/generate/os_abstraction/src\r_os_abstraction_api.c ****     /* Guard here to protect the system if main returns */
 298:D:/Work/DeviceTester/amazon-freertos/lib/third_party/mcu_vendor/renesas/rz_mcu_boards/core_package/generate/os_abstraction/src\r_os_abstraction_api.c ****     while (1)
 299:D:/Work/DeviceTester/amazon-freertos/lib/third_party/mcu_vendor/renesas/rz_mcu_boards/core_package/generate/os_abstraction/src\r_os_abstraction_api.c ****     {
 300:D:/Work/DeviceTester/amazon-freertos/lib/third_party/mcu_vendor/renesas/rz_mcu_boards/core_package/generate/os_abstraction/src\r_os_abstraction_api.c ****         /* Stops program from running off */
 301:D:/Work/DeviceTester/amazon-freertos/lib/third_party/mcu_vendor/renesas/rz_mcu_boards/core_package/generate/os_abstraction/src\r_os_abstraction_api.c ****         ;
 302:D:/Work/DeviceTester/amazon-freertos/lib/third_party/mcu_vendor/renesas/rz_mcu_boards/core_package/generate/os_abstraction/src\r_os_abstraction_api.c ****     }
 303:D:/Work/DeviceTester/amazon-freertos/lib/third_party/mcu_vendor/renesas/rz_mcu_boards/core_package/generate/os_abstraction/src\r_os_abstraction_api.c **** }
 304:D:/Work/DeviceTester/amazon-freertos/lib/third_party/mcu_vendor/renesas/rz_mcu_boards/core_package/generate/os_abstraction/src\r_os_abstraction_api.c **** /**************************************************************************************************
 305:D:/Work/DeviceTester/amazon-freertos/lib/third_party/mcu_vendor/renesas/rz_mcu_boards/core_package/generate/os_abstraction/src\r_os_abstraction_api.c ****  End of function  main_task
 306:D:/Work/DeviceTester/amazon-freertos/lib/third_party/mcu_vendor/renesas/rz_mcu_boards/core_package/generate/os_abstraction/src\r_os_abstraction_api.c ****  **************************************************************************************************
 307:D:/Work/DeviceTester/amazon-freertos/lib/third_party/mcu_vendor/renesas/rz_mcu_boards/core_package/generate/os_abstraction/src\r_os_abstraction_api.c **** 
 308:D:/Work/DeviceTester/amazon-freertos/lib/third_party/mcu_vendor/renesas/rz_mcu_boards/core_package/generate/os_abstraction/src\r_os_abstraction_api.c **** /**************************************************************************************************
 309:D:/Work/DeviceTester/amazon-freertos/lib/third_party/mcu_vendor/renesas/rz_mcu_boards/core_package/generate/os_abstraction/src\r_os_abstraction_api.c ****  * Function Name: R_OS_AbstractionLayerInit
 310:D:/Work/DeviceTester/amazon-freertos/lib/third_party/mcu_vendor/renesas/rz_mcu_boards/core_package/generate/os_abstraction/src\r_os_abstraction_api.c ****  * Description  : Function to configure critical resources for the connected
 311:D:/Work/DeviceTester/amazon-freertos/lib/third_party/mcu_vendor/renesas/rz_mcu_boards/core_package/generate/os_abstraction/src\r_os_abstraction_api.c ****  *                OS or scheduler.
 312:D:/Work/DeviceTester/amazon-freertos/lib/third_party/mcu_vendor/renesas/rz_mcu_boards/core_package/generate/os_abstraction/src\r_os_abstraction_api.c ****  * Arguments    : void
 313:D:/Work/DeviceTester/amazon-freertos/lib/third_party/mcu_vendor/renesas/rz_mcu_boards/core_package/generate/os_abstraction/src\r_os_abstraction_api.c ****  * Return Value : true if there were no errors when initialising the Layer.
 314:D:/Work/DeviceTester/amazon-freertos/lib/third_party/mcu_vendor/renesas/rz_mcu_boards/core_package/generate/os_abstraction/src\r_os_abstraction_api.c ****  *                false if there errors when initialising the Layer.
 315:D:/Work/DeviceTester/amazon-freertos/lib/third_party/mcu_vendor/renesas/rz_mcu_boards/core_package/generate/os_abstraction/src\r_os_abstraction_api.c ****  *****************************************************************************/
 316:D:/Work/DeviceTester/amazon-freertos/lib/third_party/mcu_vendor/renesas/rz_mcu_boards/core_package/generate/os_abstraction/src\r_os_abstraction_api.c **** bool_t R_OS_AbstractionLayerInit (void)
 317:D:/Work/DeviceTester/amazon-freertos/lib/third_party/mcu_vendor/renesas/rz_mcu_boards/core_package/generate/os_abstraction/src\r_os_abstraction_api.c **** {
 318:D:/Work/DeviceTester/amazon-freertos/lib/third_party/mcu_vendor/renesas/rz_mcu_boards/core_package/generate/os_abstraction/src\r_os_abstraction_api.c ****     bool_t ready = true;
 319:D:/Work/DeviceTester/amazon-freertos/lib/third_party/mcu_vendor/renesas/rz_mcu_boards/core_package/generate/os_abstraction/src\r_os_abstraction_api.c **** 
 320:D:/Work/DeviceTester/amazon-freertos/lib/third_party/mcu_vendor/renesas/rz_mcu_boards/core_package/generate/os_abstraction/src\r_os_abstraction_api.c ****     R_OS_KernelInit();
 321:D:/Work/DeviceTester/amazon-freertos/lib/third_party/mcu_vendor/renesas/rz_mcu_boards/core_package/generate/os_abstraction/src\r_os_abstraction_api.c **** 
 322:D:/Work/DeviceTester/amazon-freertos/lib/third_party/mcu_vendor/renesas/rz_mcu_boards/core_package/generate/os_abstraction/src\r_os_abstraction_api.c ****     return (ready);
 323:D:/Work/DeviceTester/amazon-freertos/lib/third_party/mcu_vendor/renesas/rz_mcu_boards/core_package/generate/os_abstraction/src\r_os_abstraction_api.c **** }
 324:D:/Work/DeviceTester/amazon-freertos/lib/third_party/mcu_vendor/renesas/rz_mcu_boards/core_package/generate/os_abstraction/src\r_os_abstraction_api.c **** /**************************************************************************************************
 325:D:/Work/DeviceTester/amazon-freertos/lib/third_party/mcu_vendor/renesas/rz_mcu_boards/core_package/generate/os_abstraction/src\r_os_abstraction_api.c ****  End of function R_OS_AbstractionLayerInit
 326:D:/Work/DeviceTester/amazon-freertos/lib/third_party/mcu_vendor/renesas/rz_mcu_boards/core_package/generate/os_abstraction/src\r_os_abstraction_api.c ****  **************************************************************************************************
 327:D:/Work/DeviceTester/amazon-freertos/lib/third_party/mcu_vendor/renesas/rz_mcu_boards/core_package/generate/os_abstraction/src\r_os_abstraction_api.c **** 
 328:D:/Work/DeviceTester/amazon-freertos/lib/third_party/mcu_vendor/renesas/rz_mcu_boards/core_package/generate/os_abstraction/src\r_os_abstraction_api.c **** /**************************************************************************************************
 329:D:/Work/DeviceTester/amazon-freertos/lib/third_party/mcu_vendor/renesas/rz_mcu_boards/core_package/generate/os_abstraction/src\r_os_abstraction_api.c ****  * Function Name: R_OS_AbstractionLayerShutdown
 330:D:/Work/DeviceTester/amazon-freertos/lib/third_party/mcu_vendor/renesas/rz_mcu_boards/core_package/generate/os_abstraction/src\r_os_abstraction_api.c ****  * Description  : Function to release critical resources for the connected
 331:D:/Work/DeviceTester/amazon-freertos/lib/third_party/mcu_vendor/renesas/rz_mcu_boards/core_package/generate/os_abstraction/src\r_os_abstraction_api.c ****  *                OS or scheduler.
 332:D:/Work/DeviceTester/amazon-freertos/lib/third_party/mcu_vendor/renesas/rz_mcu_boards/core_package/generate/os_abstraction/src\r_os_abstraction_api.c ****  * Arguments    : void
 333:D:/Work/DeviceTester/amazon-freertos/lib/third_party/mcu_vendor/renesas/rz_mcu_boards/core_package/generate/os_abstraction/src\r_os_abstraction_api.c ****  * Return Value : true if there were no errors when closing the Layer.
 334:D:/Work/DeviceTester/amazon-freertos/lib/third_party/mcu_vendor/renesas/rz_mcu_boards/core_package/generate/os_abstraction/src\r_os_abstraction_api.c ****  *                false if there errors when closing the Layer.
 335:D:/Work/DeviceTester/amazon-freertos/lib/third_party/mcu_vendor/renesas/rz_mcu_boards/core_package/generate/os_abstraction/src\r_os_abstraction_api.c ****  *****************************************************************************/
 336:D:/Work/DeviceTester/amazon-freertos/lib/third_party/mcu_vendor/renesas/rz_mcu_boards/core_package/generate/os_abstraction/src\r_os_abstraction_api.c **** bool_t R_OS_AbstractionLayerShutdown (void)
 337:D:/Work/DeviceTester/amazon-freertos/lib/third_party/mcu_vendor/renesas/rz_mcu_boards/core_package/generate/os_abstraction/src\r_os_abstraction_api.c **** {
  92              		.loc 1 337 0
  93              		.cfi_startproc
  94              		@ args = 0, pretend = 0, frame = 0
  95              		@ frame_needed = 0, uses_anonymous_args = 0
  96              	.LVL2:
  97 0000 10402DE9 		push	{r4, lr}
  98              		.cfi_def_cfa_offset 8
  99              		.cfi_offset 4, -8
 100              		.cfi_offset 14, -4
 101              	.LBB14:
 102              	.LBB15:
 338:D:/Work/DeviceTester/amazon-freertos/lib/third_party/mcu_vendor/renesas/rz_mcu_boards/core_package/generate/os_abstraction/src\r_os_abstraction_api.c ****     bool_t ready = true;
 339:D:/Work/DeviceTester/amazon-freertos/lib/third_party/mcu_vendor/renesas/rz_mcu_boards/core_package/generate/os_abstraction/src\r_os_abstraction_api.c **** 
 340:D:/Work/DeviceTester/amazon-freertos/lib/third_party/mcu_vendor/renesas/rz_mcu_boards/core_package/generate/os_abstraction/src\r_os_abstraction_api.c ****     R_OS_KernelStop();
 341:D:/Work/DeviceTester/amazon-freertos/lib/third_party/mcu_vendor/renesas/rz_mcu_boards/core_package/generate/os_abstraction/src\r_os_abstraction_api.c **** 
 342:D:/Work/DeviceTester/amazon-freertos/lib/third_party/mcu_vendor/renesas/rz_mcu_boards/core_package/generate/os_abstraction/src\r_os_abstraction_api.c ****     return (ready);
 343:D:/Work/DeviceTester/amazon-freertos/lib/third_party/mcu_vendor/renesas/rz_mcu_boards/core_package/generate/os_abstraction/src\r_os_abstraction_api.c **** }
 344:D:/Work/DeviceTester/amazon-freertos/lib/third_party/mcu_vendor/renesas/rz_mcu_boards/core_package/generate/os_abstraction/src\r_os_abstraction_api.c **** /**************************************************************************************************
 345:D:/Work/DeviceTester/amazon-freertos/lib/third_party/mcu_vendor/renesas/rz_mcu_boards/core_package/generate/os_abstraction/src\r_os_abstraction_api.c ****  End of function R_OS_AbstractionLayerShutdown
 346:D:/Work/DeviceTester/amazon-freertos/lib/third_party/mcu_vendor/renesas/rz_mcu_boards/core_package/generate/os_abstraction/src\r_os_abstraction_api.c ****  **************************************************************************************************
 347:D:/Work/DeviceTester/amazon-freertos/lib/third_party/mcu_vendor/renesas/rz_mcu_boards/core_package/generate/os_abstraction/src\r_os_abstraction_api.c **** 
 348:D:/Work/DeviceTester/amazon-freertos/lib/third_party/mcu_vendor/renesas/rz_mcu_boards/core_package/generate/os_abstraction/src\r_os_abstraction_api.c **** /**************************************************************************************************
 349:D:/Work/DeviceTester/amazon-freertos/lib/third_party/mcu_vendor/renesas/rz_mcu_boards/core_package/generate/os_abstraction/src\r_os_abstraction_api.c ****  *                                  Kernel API
 350:D:/Work/DeviceTester/amazon-freertos/lib/third_party/mcu_vendor/renesas/rz_mcu_boards/core_package/generate/os_abstraction/src\r_os_abstraction_api.c ****  **************************************************************************************************
 351:D:/Work/DeviceTester/amazon-freertos/lib/third_party/mcu_vendor/renesas/rz_mcu_boards/core_package/generate/os_abstraction/src\r_os_abstraction_api.c **** 
 352:D:/Work/DeviceTester/amazon-freertos/lib/third_party/mcu_vendor/renesas/rz_mcu_boards/core_package/generate/os_abstraction/src\r_os_abstraction_api.c **** /**************************************************************************************************
 353:D:/Work/DeviceTester/amazon-freertos/lib/third_party/mcu_vendor/renesas/rz_mcu_boards/core_package/generate/os_abstraction/src\r_os_abstraction_api.c ****  * Function Name: R_OS_KernelInit
 354:D:/Work/DeviceTester/amazon-freertos/lib/third_party/mcu_vendor/renesas/rz_mcu_boards/core_package/generate/os_abstraction/src\r_os_abstraction_api.c ****  * Description  : Initialise the kernel
 355:D:/Work/DeviceTester/amazon-freertos/lib/third_party/mcu_vendor/renesas/rz_mcu_boards/core_package/generate/os_abstraction/src\r_os_abstraction_api.c ****  * Arguments    : None
 356:D:/Work/DeviceTester/amazon-freertos/lib/third_party/mcu_vendor/renesas/rz_mcu_boards/core_package/generate/os_abstraction/src\r_os_abstraction_api.c ****  * Return Value : None
 357:D:/Work/DeviceTester/amazon-freertos/lib/third_party/mcu_vendor/renesas/rz_mcu_boards/core_package/generate/os_abstraction/src\r_os_abstraction_api.c ****  **************************************************************************************************
 358:D:/Work/DeviceTester/amazon-freertos/lib/third_party/mcu_vendor/renesas/rz_mcu_boards/core_package/generate/os_abstraction/src\r_os_abstraction_api.c **** void R_OS_KernelInit (void)
 359:D:/Work/DeviceTester/amazon-freertos/lib/third_party/mcu_vendor/renesas/rz_mcu_boards/core_package/generate/os_abstraction/src\r_os_abstraction_api.c **** {
 360:D:/Work/DeviceTester/amazon-freertos/lib/third_party/mcu_vendor/renesas/rz_mcu_boards/core_package/generate/os_abstraction/src\r_os_abstraction_api.c ****     /* set default heap */
 361:D:/Work/DeviceTester/amazon-freertos/lib/third_party/mcu_vendor/renesas/rz_mcu_boards/core_package/generate/os_abstraction/src\r_os_abstraction_api.c ****     uint32_t default_heap = R_OS_PRV_DEFAULT_HEAP_PRV_;
 362:D:/Work/DeviceTester/amazon-freertos/lib/third_party/mcu_vendor/renesas/rz_mcu_boards/core_package/generate/os_abstraction/src\r_os_abstraction_api.c ****     uint8_t test_task_created = 0;
 363:D:/Work/DeviceTester/amazon-freertos/lib/third_party/mcu_vendor/renesas/rz_mcu_boards/core_package/generate/os_abstraction/src\r_os_abstraction_api.c **** 
 364:D:/Work/DeviceTester/amazon-freertos/lib/third_party/mcu_vendor/renesas/rz_mcu_boards/core_package/generate/os_abstraction/src\r_os_abstraction_api.c ****     R_OS_InitMemManager();
 365:D:/Work/DeviceTester/amazon-freertos/lib/third_party/mcu_vendor/renesas/rz_mcu_boards/core_package/generate/os_abstraction/src\r_os_abstraction_api.c **** 
 366:D:/Work/DeviceTester/amazon-freertos/lib/third_party/mcu_vendor/renesas/rz_mcu_boards/core_package/generate/os_abstraction/src\r_os_abstraction_api.c ****     R_DEVLINK_Init();
 367:D:/Work/DeviceTester/amazon-freertos/lib/third_party/mcu_vendor/renesas/rz_mcu_boards/core_package/generate/os_abstraction/src\r_os_abstraction_api.c **** 
 368:D:/Work/DeviceTester/amazon-freertos/lib/third_party/mcu_vendor/renesas/rz_mcu_boards/core_package/generate/os_abstraction/src\r_os_abstraction_api.c **** #if R_USE_ANSI_STDIO_MODE_CFG
 369:D:/Work/DeviceTester/amazon-freertos/lib/third_party/mcu_vendor/renesas/rz_mcu_boards/core_package/generate/os_abstraction/src\r_os_abstraction_api.c ****     extern void initialise_monitor_handles _PARAMS ((void));
 370:D:/Work/DeviceTester/amazon-freertos/lib/third_party/mcu_vendor/renesas/rz_mcu_boards/core_package/generate/os_abstraction/src\r_os_abstraction_api.c **** 
 371:D:/Work/DeviceTester/amazon-freertos/lib/third_party/mcu_vendor/renesas/rz_mcu_boards/core_package/generate/os_abstraction/src\r_os_abstraction_api.c ****     initialise_monitor_handles();
 372:D:/Work/DeviceTester/amazon-freertos/lib/third_party/mcu_vendor/renesas/rz_mcu_boards/core_package/generate/os_abstraction/src\r_os_abstraction_api.c **** #endif
 373:D:/Work/DeviceTester/amazon-freertos/lib/third_party/mcu_vendor/renesas/rz_mcu_boards/core_package/generate/os_abstraction/src\r_os_abstraction_api.c **** 
 374:D:/Work/DeviceTester/amazon-freertos/lib/third_party/mcu_vendor/renesas/rz_mcu_boards/core_package/generate/os_abstraction/src\r_os_abstraction_api.c ****     /* Create the main task */
 375:D:/Work/DeviceTester/amazon-freertos/lib/third_party/mcu_vendor/renesas/rz_mcu_boards/core_package/generate/os_abstraction/src\r_os_abstraction_api.c ****     BaseType_t t = xTaskCreate((pdTASK_CODE) main_task,
 376:D:/Work/DeviceTester/amazon-freertos/lib/third_party/mcu_vendor/renesas/rz_mcu_boards/core_package/generate/os_abstraction/src\r_os_abstraction_api.c **** 
 377:D:/Work/DeviceTester/amazon-freertos/lib/third_party/mcu_vendor/renesas/rz_mcu_boards/core_package/generate/os_abstraction/src\r_os_abstraction_api.c ****     /* ASCII human readable name for task */
 378:D:/Work/DeviceTester/amazon-freertos/lib/third_party/mcu_vendor/renesas/rz_mcu_boards/core_package/generate/os_abstraction/src\r_os_abstraction_api.c ****     s_startup_task_name_str,
 379:D:/Work/DeviceTester/amazon-freertos/lib/third_party/mcu_vendor/renesas/rz_mcu_boards/core_package/generate/os_abstraction/src\r_os_abstraction_api.c **** 
 380:D:/Work/DeviceTester/amazon-freertos/lib/third_party/mcu_vendor/renesas/rz_mcu_boards/core_package/generate/os_abstraction/src\r_os_abstraction_api.c ****     /* stack size, should be just big enough as to not waste resources */
 381:D:/Work/DeviceTester/amazon-freertos/lib/third_party/mcu_vendor/renesas/rz_mcu_boards/core_package/generate/os_abstraction/src\r_os_abstraction_api.c **** #ifdef LOG_TASK_INFO
 382:D:/Work/DeviceTester/amazon-freertos/lib/third_party/mcu_vendor/renesas/rz_mcu_boards/core_package/generate/os_abstraction/src\r_os_abstraction_api.c ****             R_OS_PRV_HUGE_STACK_SIZE,
 383:D:/Work/DeviceTester/amazon-freertos/lib/third_party/mcu_vendor/renesas/rz_mcu_boards/core_package/generate/os_abstraction/src\r_os_abstraction_api.c **** #else
 384:D:/Work/DeviceTester/amazon-freertos/lib/third_party/mcu_vendor/renesas/rz_mcu_boards/core_package/generate/os_abstraction/src\r_os_abstraction_api.c **** 
 385:D:/Work/DeviceTester/amazon-freertos/lib/third_party/mcu_vendor/renesas/rz_mcu_boards/core_package/generate/os_abstraction/src\r_os_abstraction_api.c ****             /*Standard Task stack size*/
 386:D:/Work/DeviceTester/amazon-freertos/lib/third_party/mcu_vendor/renesas/rz_mcu_boards/core_package/generate/os_abstraction/src\r_os_abstraction_api.c ****             R_OS_PRV_HUGE_STACK_SIZE,
 387:D:/Work/DeviceTester/amazon-freertos/lib/third_party/mcu_vendor/renesas/rz_mcu_boards/core_package/generate/os_abstraction/src\r_os_abstraction_api.c **** #endif /* LOG_TASK_INFO */
 388:D:/Work/DeviceTester/amazon-freertos/lib/third_party/mcu_vendor/renesas/rz_mcu_boards/core_package/generate/os_abstraction/src\r_os_abstraction_api.c **** 
 389:D:/Work/DeviceTester/amazon-freertos/lib/third_party/mcu_vendor/renesas/rz_mcu_boards/core_package/generate/os_abstraction/src\r_os_abstraction_api.c ****             /* Memory type for heap, useful if your system support fast RAM to boost performance */
 390:D:/Work/DeviceTester/amazon-freertos/lib/third_party/mcu_vendor/renesas/rz_mcu_boards/core_package/generate/os_abstraction/src\r_os_abstraction_api.c ****             &default_heap,
 391:D:/Work/DeviceTester/amazon-freertos/lib/third_party/mcu_vendor/renesas/rz_mcu_boards/core_package/generate/os_abstraction/src\r_os_abstraction_api.c **** 
 392:D:/Work/DeviceTester/amazon-freertos/lib/third_party/mcu_vendor/renesas/rz_mcu_boards/core_package/generate/os_abstraction/src\r_os_abstraction_api.c ****             /* Initial task priority */
 393:D:/Work/DeviceTester/amazon-freertos/lib/third_party/mcu_vendor/renesas/rz_mcu_boards/core_package/generate/os_abstraction/src\r_os_abstraction_api.c ****             R_OS_TASK_MAIN_TASK_PRI,
 394:D:/Work/DeviceTester/amazon-freertos/lib/third_party/mcu_vendor/renesas/rz_mcu_boards/core_package/generate/os_abstraction/src\r_os_abstraction_api.c **** 
 395:D:/Work/DeviceTester/amazon-freertos/lib/third_party/mcu_vendor/renesas/rz_mcu_boards/core_package/generate/os_abstraction/src\r_os_abstraction_api.c ****             /* Handle to created task not required */
 396:D:/Work/DeviceTester/amazon-freertos/lib/third_party/mcu_vendor/renesas/rz_mcu_boards/core_package/generate/os_abstraction/src\r_os_abstraction_api.c ****             NULL);
 397:D:/Work/DeviceTester/amazon-freertos/lib/third_party/mcu_vendor/renesas/rz_mcu_boards/core_package/generate/os_abstraction/src\r_os_abstraction_api.c **** 
 398:D:/Work/DeviceTester/amazon-freertos/lib/third_party/mcu_vendor/renesas/rz_mcu_boards/core_package/generate/os_abstraction/src\r_os_abstraction_api.c ****     /* Confirm that the task was successfully created */
 399:D:/Work/DeviceTester/amazon-freertos/lib/third_party/mcu_vendor/renesas/rz_mcu_boards/core_package/generate/os_abstraction/src\r_os_abstraction_api.c ****     configASSERT(pdPASS == t);
 400:D:/Work/DeviceTester/amazon-freertos/lib/third_party/mcu_vendor/renesas/rz_mcu_boards/core_package/generate/os_abstraction/src\r_os_abstraction_api.c **** 
 401:D:/Work/DeviceTester/amazon-freertos/lib/third_party/mcu_vendor/renesas/rz_mcu_boards/core_package/generate/os_abstraction/src\r_os_abstraction_api.c ****     R_OS_KernelStart();
 402:D:/Work/DeviceTester/amazon-freertos/lib/third_party/mcu_vendor/renesas/rz_mcu_boards/core_package/generate/os_abstraction/src\r_os_abstraction_api.c **** 
 403:D:/Work/DeviceTester/amazon-freertos/lib/third_party/mcu_vendor/renesas/rz_mcu_boards/core_package/generate/os_abstraction/src\r_os_abstraction_api.c ****     while (1)
 404:D:/Work/DeviceTester/amazon-freertos/lib/third_party/mcu_vendor/renesas/rz_mcu_boards/core_package/generate/os_abstraction/src\r_os_abstraction_api.c ****     {
 405:D:/Work/DeviceTester/amazon-freertos/lib/third_party/mcu_vendor/renesas/rz_mcu_boards/core_package/generate/os_abstraction/src\r_os_abstraction_api.c ****         /* This point should never be reached */
 406:D:/Work/DeviceTester/amazon-freertos/lib/third_party/mcu_vendor/renesas/rz_mcu_boards/core_package/generate/os_abstraction/src\r_os_abstraction_api.c ****         R_COMPILER_Nop();
 407:D:/Work/DeviceTester/amazon-freertos/lib/third_party/mcu_vendor/renesas/rz_mcu_boards/core_package/generate/os_abstraction/src\r_os_abstraction_api.c ****     }
 408:D:/Work/DeviceTester/amazon-freertos/lib/third_party/mcu_vendor/renesas/rz_mcu_boards/core_package/generate/os_abstraction/src\r_os_abstraction_api.c **** }
 409:D:/Work/DeviceTester/amazon-freertos/lib/third_party/mcu_vendor/renesas/rz_mcu_boards/core_package/generate/os_abstraction/src\r_os_abstraction_api.c **** /**************************************************************************************************
 410:D:/Work/DeviceTester/amazon-freertos/lib/third_party/mcu_vendor/renesas/rz_mcu_boards/core_package/generate/os_abstraction/src\r_os_abstraction_api.c ****  End of function R_OS_KernelInit
 411:D:/Work/DeviceTester/amazon-freertos/lib/third_party/mcu_vendor/renesas/rz_mcu_boards/core_package/generate/os_abstraction/src\r_os_abstraction_api.c ****  **************************************************************************************************
 412:D:/Work/DeviceTester/amazon-freertos/lib/third_party/mcu_vendor/renesas/rz_mcu_boards/core_package/generate/os_abstraction/src\r_os_abstraction_api.c **** 
 413:D:/Work/DeviceTester/amazon-freertos/lib/third_party/mcu_vendor/renesas/rz_mcu_boards/core_package/generate/os_abstraction/src\r_os_abstraction_api.c **** 
 414:D:/Work/DeviceTester/amazon-freertos/lib/third_party/mcu_vendor/renesas/rz_mcu_boards/core_package/generate/os_abstraction/src\r_os_abstraction_api.c **** /**************************************************************************************************
 415:D:/Work/DeviceTester/amazon-freertos/lib/third_party/mcu_vendor/renesas/rz_mcu_boards/core_package/generate/os_abstraction/src\r_os_abstraction_api.c ****  * Function Name: R_OS_Running
 416:D:/Work/DeviceTester/amazon-freertos/lib/third_party/mcu_vendor/renesas/rz_mcu_boards/core_package/generate/os_abstraction/src\r_os_abstraction_api.c ****  *          Used to determine if the OS has started
 417:D:/Work/DeviceTester/amazon-freertos/lib/third_party/mcu_vendor/renesas/rz_mcu_boards/core_package/generate/os_abstraction/src\r_os_abstraction_api.c ****  * @retval OS running true or false
 418:D:/Work/DeviceTester/amazon-freertos/lib/third_party/mcu_vendor/renesas/rz_mcu_boards/core_package/generate/os_abstraction/src\r_os_abstraction_api.c ****  **************************************************************************************************
 419:D:/Work/DeviceTester/amazon-freertos/lib/third_party/mcu_vendor/renesas/rz_mcu_boards/core_package/generate/os_abstraction/src\r_os_abstraction_api.c **** bool_t R_OS_Running(void)
 420:D:/Work/DeviceTester/amazon-freertos/lib/third_party/mcu_vendor/renesas/rz_mcu_boards/core_package/generate/os_abstraction/src\r_os_abstraction_api.c **** {
 421:D:/Work/DeviceTester/amazon-freertos/lib/third_party/mcu_vendor/renesas/rz_mcu_boards/core_package/generate/os_abstraction/src\r_os_abstraction_api.c ****     return (s_os_running);
 422:D:/Work/DeviceTester/amazon-freertos/lib/third_party/mcu_vendor/renesas/rz_mcu_boards/core_package/generate/os_abstraction/src\r_os_abstraction_api.c **** }
 423:D:/Work/DeviceTester/amazon-freertos/lib/third_party/mcu_vendor/renesas/rz_mcu_boards/core_package/generate/os_abstraction/src\r_os_abstraction_api.c **** /**************************************************************************************************
 424:D:/Work/DeviceTester/amazon-freertos/lib/third_party/mcu_vendor/renesas/rz_mcu_boards/core_package/generate/os_abstraction/src\r_os_abstraction_api.c ****  End of function R_OS_IsOSRunning
 425:D:/Work/DeviceTester/amazon-freertos/lib/third_party/mcu_vendor/renesas/rz_mcu_boards/core_package/generate/os_abstraction/src\r_os_abstraction_api.c ****  **************************************************************************************************
 426:D:/Work/DeviceTester/amazon-freertos/lib/third_party/mcu_vendor/renesas/rz_mcu_boards/core_package/generate/os_abstraction/src\r_os_abstraction_api.c **** 
 427:D:/Work/DeviceTester/amazon-freertos/lib/third_party/mcu_vendor/renesas/rz_mcu_boards/core_package/generate/os_abstraction/src\r_os_abstraction_api.c **** /**************************************************************************************************
 428:D:/Work/DeviceTester/amazon-freertos/lib/third_party/mcu_vendor/renesas/rz_mcu_boards/core_package/generate/os_abstraction/src\r_os_abstraction_api.c ****  * Function Name: R_OS_KernelStart
 429:D:/Work/DeviceTester/amazon-freertos/lib/third_party/mcu_vendor/renesas/rz_mcu_boards/core_package/generate/os_abstraction/src\r_os_abstraction_api.c ****  * Description  : Start the kernel
 430:D:/Work/DeviceTester/amazon-freertos/lib/third_party/mcu_vendor/renesas/rz_mcu_boards/core_package/generate/os_abstraction/src\r_os_abstraction_api.c ****  * Arguments    : None
 431:D:/Work/DeviceTester/amazon-freertos/lib/third_party/mcu_vendor/renesas/rz_mcu_boards/core_package/generate/os_abstraction/src\r_os_abstraction_api.c ****  * Return Value : None
 432:D:/Work/DeviceTester/amazon-freertos/lib/third_party/mcu_vendor/renesas/rz_mcu_boards/core_package/generate/os_abstraction/src\r_os_abstraction_api.c ****  **************************************************************************************************
 433:D:/Work/DeviceTester/amazon-freertos/lib/third_party/mcu_vendor/renesas/rz_mcu_boards/core_package/generate/os_abstraction/src\r_os_abstraction_api.c **** void R_OS_KernelStart (void)
 434:D:/Work/DeviceTester/amazon-freertos/lib/third_party/mcu_vendor/renesas/rz_mcu_boards/core_package/generate/os_abstraction/src\r_os_abstraction_api.c **** {
 435:D:/Work/DeviceTester/amazon-freertos/lib/third_party/mcu_vendor/renesas/rz_mcu_boards/core_package/generate/os_abstraction/src\r_os_abstraction_api.c ****     /* Start the FreeRTOS scheduler */
 436:D:/Work/DeviceTester/amazon-freertos/lib/third_party/mcu_vendor/renesas/rz_mcu_boards/core_package/generate/os_abstraction/src\r_os_abstraction_api.c ****     vTaskStartScheduler();
 437:D:/Work/DeviceTester/amazon-freertos/lib/third_party/mcu_vendor/renesas/rz_mcu_boards/core_package/generate/os_abstraction/src\r_os_abstraction_api.c **** }
 438:D:/Work/DeviceTester/amazon-freertos/lib/third_party/mcu_vendor/renesas/rz_mcu_boards/core_package/generate/os_abstraction/src\r_os_abstraction_api.c **** /**************************************************************************************************
 439:D:/Work/DeviceTester/amazon-freertos/lib/third_party/mcu_vendor/renesas/rz_mcu_boards/core_package/generate/os_abstraction/src\r_os_abstraction_api.c ****  End of function R_OS_KernelStart
 440:D:/Work/DeviceTester/amazon-freertos/lib/third_party/mcu_vendor/renesas/rz_mcu_boards/core_package/generate/os_abstraction/src\r_os_abstraction_api.c ****  **************************************************************************************************
 441:D:/Work/DeviceTester/amazon-freertos/lib/third_party/mcu_vendor/renesas/rz_mcu_boards/core_package/generate/os_abstraction/src\r_os_abstraction_api.c **** 
 442:D:/Work/DeviceTester/amazon-freertos/lib/third_party/mcu_vendor/renesas/rz_mcu_boards/core_package/generate/os_abstraction/src\r_os_abstraction_api.c **** /**************************************************************************************************
 443:D:/Work/DeviceTester/amazon-freertos/lib/third_party/mcu_vendor/renesas/rz_mcu_boards/core_package/generate/os_abstraction/src\r_os_abstraction_api.c ****  * Function Name: R_OS_KernelStop
 444:D:/Work/DeviceTester/amazon-freertos/lib/third_party/mcu_vendor/renesas/rz_mcu_boards/core_package/generate/os_abstraction/src\r_os_abstraction_api.c ****  * Description  : Stop the kernel
 445:D:/Work/DeviceTester/amazon-freertos/lib/third_party/mcu_vendor/renesas/rz_mcu_boards/core_package/generate/os_abstraction/src\r_os_abstraction_api.c ****  * Arguments    : None
 446:D:/Work/DeviceTester/amazon-freertos/lib/third_party/mcu_vendor/renesas/rz_mcu_boards/core_package/generate/os_abstraction/src\r_os_abstraction_api.c ****  * Return Value : None
 447:D:/Work/DeviceTester/amazon-freertos/lib/third_party/mcu_vendor/renesas/rz_mcu_boards/core_package/generate/os_abstraction/src\r_os_abstraction_api.c ****  **************************************************************************************************
 448:D:/Work/DeviceTester/amazon-freertos/lib/third_party/mcu_vendor/renesas/rz_mcu_boards/core_package/generate/os_abstraction/src\r_os_abstraction_api.c **** void R_OS_KernelStop (void)
 449:D:/Work/DeviceTester/amazon-freertos/lib/third_party/mcu_vendor/renesas/rz_mcu_boards/core_package/generate/os_abstraction/src\r_os_abstraction_api.c **** {
 450:D:/Work/DeviceTester/amazon-freertos/lib/third_party/mcu_vendor/renesas/rz_mcu_boards/core_package/generate/os_abstraction/src\r_os_abstraction_api.c ****     /*Tell FreeRTOS to end scheduler*/
 451:D:/Work/DeviceTester/amazon-freertos/lib/third_party/mcu_vendor/renesas/rz_mcu_boards/core_package/generate/os_abstraction/src\r_os_abstraction_api.c ****     vTaskEndScheduler();
 103              		.loc 1 451 0
 104 0004 FEFFFFEB 		bl	vTaskEndScheduler
 105              	.LVL3:
 106              	.LBE15:
 107              	.LBE14:
 343:D:/Work/DeviceTester/amazon-freertos/lib/third_party/mcu_vendor/renesas/rz_mcu_boards/core_package/generate/os_abstraction/src\r_os_abstraction_api.c **** /**************************************************************************************************
 108              		.loc 1 343 0
 109 0008 0100A0E3 		mov	r0, #1
 110 000c 1080BDE8 		pop	{r4, pc}
 111              		.cfi_endproc
 112              	.LFE7:
 114              		.section	.text.R_OS_Running,"ax",%progbits
 115              		.align	2
 116              		.global	R_OS_Running
 117              		.syntax unified
 118              		.arm
 119              		.fpu neon
 121              	R_OS_Running:
 122              	.LFB9:
 420:D:/Work/DeviceTester/amazon-freertos/lib/third_party/mcu_vendor/renesas/rz_mcu_boards/core_package/generate/os_abstraction/src\r_os_abstraction_api.c ****     return (s_os_running);
 123              		.loc 1 420 0
 124              		.cfi_startproc
 125              		@ args = 0, pretend = 0, frame = 0
 126              		@ frame_needed = 0, uses_anonymous_args = 0
 127              		@ link register save eliminated.
 422:D:/Work/DeviceTester/amazon-freertos/lib/third_party/mcu_vendor/renesas/rz_mcu_boards/core_package/generate/os_abstraction/src\r_os_abstraction_api.c **** /**************************************************************************************************
 128              		.loc 1 422 0
 129 0000 04309FE5 		ldr	r3, .L10
 130 0004 000093E5 		ldr	r0, [r3]
 131 0008 1EFF2FE1 		bx	lr
 132              	.L11:
 133              		.align	2
 134              	.L10:
 135 000c 00000000 		.word	.LANCHOR0
 136              		.cfi_endproc
 137              	.LFE9:
 139              		.section	.text.R_OS_KernelStart,"ax",%progbits
 140              		.align	2
 141              		.global	R_OS_KernelStart
 142              		.syntax unified
 143              		.arm
 144              		.fpu neon
 146              	R_OS_KernelStart:
 147              	.LFB10:
 434:D:/Work/DeviceTester/amazon-freertos/lib/third_party/mcu_vendor/renesas/rz_mcu_boards/core_package/generate/os_abstraction/src\r_os_abstraction_api.c ****     /* Start the FreeRTOS scheduler */
 148              		.loc 1 434 0
 149              		.cfi_startproc
 150              		@ args = 0, pretend = 0, frame = 0
 151              		@ frame_needed = 0, uses_anonymous_args = 0
 152              		@ link register save eliminated.
 436:D:/Work/DeviceTester/amazon-freertos/lib/third_party/mcu_vendor/renesas/rz_mcu_boards/core_package/generate/os_abstraction/src\r_os_abstraction_api.c **** }
 153              		.loc 1 436 0
 154 0000 FEFFFFEA 		b	vTaskStartScheduler
 155              	.LVL4:
 156              		.cfi_endproc
 157              	.LFE10:
 159              		.section	.text.R_OS_KernelStop,"ax",%progbits
 160              		.align	2
 161              		.global	R_OS_KernelStop
 162              		.syntax unified
 163              		.arm
 164              		.fpu neon
 166              	R_OS_KernelStop:
 167              	.LFB11:
 449:D:/Work/DeviceTester/amazon-freertos/lib/third_party/mcu_vendor/renesas/rz_mcu_boards/core_package/generate/os_abstraction/src\r_os_abstraction_api.c ****     /*Tell FreeRTOS to end scheduler*/
 168              		.loc 1 449 0
 169              		.cfi_startproc
 170              		@ args = 0, pretend = 0, frame = 0
 171              		@ frame_needed = 0, uses_anonymous_args = 0
 172              		@ link register save eliminated.
 173              		.loc 1 451 0
 174 0000 FEFFFFEA 		b	vTaskEndScheduler
 175              	.LVL5:
 176              		.cfi_endproc
 177              	.LFE11:
 179              		.section	.text.R_OS_InitMemManager,"ax",%progbits
 180              		.align	2
 181              		.global	R_OS_InitMemManager
 182              		.syntax unified
 183              		.arm
 184              		.fpu neon
 186              	R_OS_InitMemManager:
 187              	.LFB12:
 452:D:/Work/DeviceTester/amazon-freertos/lib/third_party/mcu_vendor/renesas/rz_mcu_boards/core_package/generate/os_abstraction/src\r_os_abstraction_api.c **** }
 453:D:/Work/DeviceTester/amazon-freertos/lib/third_party/mcu_vendor/renesas/rz_mcu_boards/core_package/generate/os_abstraction/src\r_os_abstraction_api.c **** /**************************************************************************************************
 454:D:/Work/DeviceTester/amazon-freertos/lib/third_party/mcu_vendor/renesas/rz_mcu_boards/core_package/generate/os_abstraction/src\r_os_abstraction_api.c ****  End of function R_OS_KernelStop
 455:D:/Work/DeviceTester/amazon-freertos/lib/third_party/mcu_vendor/renesas/rz_mcu_boards/core_package/generate/os_abstraction/src\r_os_abstraction_api.c ****  **************************************************************************************************
 456:D:/Work/DeviceTester/amazon-freertos/lib/third_party/mcu_vendor/renesas/rz_mcu_boards/core_package/generate/os_abstraction/src\r_os_abstraction_api.c **** 
 457:D:/Work/DeviceTester/amazon-freertos/lib/third_party/mcu_vendor/renesas/rz_mcu_boards/core_package/generate/os_abstraction/src\r_os_abstraction_api.c **** /**************************************************************************************************
 458:D:/Work/DeviceTester/amazon-freertos/lib/third_party/mcu_vendor/renesas/rz_mcu_boards/core_package/generate/os_abstraction/src\r_os_abstraction_api.c ****  * Function Name: R_OS_InitMemManager
 459:D:/Work/DeviceTester/amazon-freertos/lib/third_party/mcu_vendor/renesas/rz_mcu_boards/core_package/generate/os_abstraction/src\r_os_abstraction_api.c ****  * Description  : Initialise the Memory manager needs to be called before RAM usage
 460:D:/Work/DeviceTester/amazon-freertos/lib/third_party/mcu_vendor/renesas/rz_mcu_boards/core_package/generate/os_abstraction/src\r_os_abstraction_api.c ****  * Arguments    : None
 461:D:/Work/DeviceTester/amazon-freertos/lib/third_party/mcu_vendor/renesas/rz_mcu_boards/core_package/generate/os_abstraction/src\r_os_abstraction_api.c ****  * Return Value : None
 462:D:/Work/DeviceTester/amazon-freertos/lib/third_party/mcu_vendor/renesas/rz_mcu_boards/core_package/generate/os_abstraction/src\r_os_abstraction_api.c ****  **************************************************************************************************
 463:D:/Work/DeviceTester/amazon-freertos/lib/third_party/mcu_vendor/renesas/rz_mcu_boards/core_package/generate/os_abstraction/src\r_os_abstraction_api.c **** void R_OS_InitMemManager (void)
 464:D:/Work/DeviceTester/amazon-freertos/lib/third_party/mcu_vendor/renesas/rz_mcu_boards/core_package/generate/os_abstraction/src\r_os_abstraction_api.c **** {
 188              		.loc 1 464 0
 189              		.cfi_startproc
 190              		@ args = 0, pretend = 0, frame = 0
 191              		@ frame_needed = 0, uses_anonymous_args = 0
 192              		@ link register save eliminated.
 465:D:/Work/DeviceTester/amazon-freertos/lib/third_party/mcu_vendor/renesas/rz_mcu_boards/core_package/generate/os_abstraction/src\r_os_abstraction_api.c ****     /* Heap_5 method of memory management */
 466:D:/Work/DeviceTester/amazon-freertos/lib/third_party/mcu_vendor/renesas/rz_mcu_boards/core_package/generate/os_abstraction/src\r_os_abstraction_api.c ****     /* Initialise the xHeapRegions array from the linker settings */
 467:D:/Work/DeviceTester/amazon-freertos/lib/third_party/mcu_vendor/renesas/rz_mcu_boards/core_package/generate/os_abstraction/src\r_os_abstraction_api.c **** 	/* Only used when customer application doesn't override the default (implemented here ) */
 468:D:/Work/DeviceTester/amazon-freertos/lib/third_party/mcu_vendor/renesas/rz_mcu_boards/core_package/generate/os_abstraction/src\r_os_abstraction_api.c **** 
 469:D:/Work/DeviceTester/amazon-freertos/lib/third_party/mcu_vendor/renesas/rz_mcu_boards/core_package/generate/os_abstraction/src\r_os_abstraction_api.c **** 	/* Ensure the heap correctly allocated in linker file. */
 470:D:/Work/DeviceTester/amazon-freertos/lib/third_party/mcu_vendor/renesas/rz_mcu_boards/core_package/generate/os_abstraction/src\r_os_abstraction_api.c ****     ucHeap[0] = 1;
 193              		.loc 1 470 0
 194 0000 30309FE5 		ldr	r3, .L16
 195 0004 0120A0E3 		mov	r2, #1
 196 0008 0020C3E5 		strb	r2, [r3]
 471:D:/Work/DeviceTester/amazon-freertos/lib/third_party/mcu_vendor/renesas/rz_mcu_boards/core_package/generate/os_abstraction/src\r_os_abstraction_api.c **** 
 472:D:/Work/DeviceTester/amazon-freertos/lib/third_party/mcu_vendor/renesas/rz_mcu_boards/core_package/generate/os_abstraction/src\r_os_abstraction_api.c **** 
 473:D:/Work/DeviceTester/amazon-freertos/lib/third_party/mcu_vendor/renesas/rz_mcu_boards/core_package/generate/os_abstraction/src\r_os_abstraction_api.c **** 	if(xHeapRegions[0].xSizeInBytes == 0)
 197              		.loc 1 473 0
 198 000c 28309FE5 		ldr	r3, .L16+4
 199 0010 042093E5 		ldr	r2, [r3, #4]
 200 0014 000052E3 		cmp	r2, #0
 474:D:/Work/DeviceTester/amazon-freertos/lib/third_party/mcu_vendor/renesas/rz_mcu_boards/core_package/generate/os_abstraction/src\r_os_abstraction_api.c **** 	{
 475:D:/Work/DeviceTester/amazon-freertos/lib/third_party/mcu_vendor/renesas/rz_mcu_boards/core_package/generate/os_abstraction/src\r_os_abstraction_api.c **** 		xHeapRegions[0].pucStartAddress = (FREERTOS_HEAP_START_PRV_);
 201              		.loc 1 475 0
 202 0018 20009F05 		ldreq	r0, .L16+8
 476:D:/Work/DeviceTester/amazon-freertos/lib/third_party/mcu_vendor/renesas/rz_mcu_boards/core_package/generate/os_abstraction/src\r_os_abstraction_api.c **** 		xHeapRegions[0].xSizeInBytes = ((uint32_t)FREERTOS_HEAP_END_PRV_ - (uint32_t)FREERTOS_HEAP_START_
 203              		.loc 1 476 0
 204 001c 20109F05 		ldreq	r1, .L16+12
 477:D:/Work/DeviceTester/amazon-freertos/lib/third_party/mcu_vendor/renesas/rz_mcu_boards/core_package/generate/os_abstraction/src\r_os_abstraction_api.c **** 		xHeapRegions[1].pucStartAddress = (0);
 478:D:/Work/DeviceTester/amazon-freertos/lib/third_party/mcu_vendor/renesas/rz_mcu_boards/core_package/generate/os_abstraction/src\r_os_abstraction_api.c **** 		xHeapRegions[1].xSizeInBytes = (0);
 205              		.loc 1 478 0
 206 0020 0C208305 		streq	r2, [r3, #12]
 475:D:/Work/DeviceTester/amazon-freertos/lib/third_party/mcu_vendor/renesas/rz_mcu_boards/core_package/generate/os_abstraction/src\r_os_abstraction_api.c **** 		xHeapRegions[0].xSizeInBytes = ((uint32_t)FREERTOS_HEAP_END_PRV_ - (uint32_t)FREERTOS_HEAP_START_
 207              		.loc 1 475 0
 208 0024 00008305 		streq	r0, [r3]
 476:D:/Work/DeviceTester/amazon-freertos/lib/third_party/mcu_vendor/renesas/rz_mcu_boards/core_package/generate/os_abstraction/src\r_os_abstraction_api.c **** 		xHeapRegions[0].xSizeInBytes = ((uint32_t)FREERTOS_HEAP_END_PRV_ - (uint32_t)FREERTOS_HEAP_START_
 209              		.loc 1 476 0
 210 0028 00104100 		subeq	r1, r1, r0
 479:D:/Work/DeviceTester/amazon-freertos/lib/third_party/mcu_vendor/renesas/rz_mcu_boards/core_package/generate/os_abstraction/src\r_os_abstraction_api.c **** 	}
 480:D:/Work/DeviceTester/amazon-freertos/lib/third_party/mcu_vendor/renesas/rz_mcu_boards/core_package/generate/os_abstraction/src\r_os_abstraction_api.c **** 
 481:D:/Work/DeviceTester/amazon-freertos/lib/third_party/mcu_vendor/renesas/rz_mcu_boards/core_package/generate/os_abstraction/src\r_os_abstraction_api.c ****     /* Pass the array into vPortDefineHeapRegions(). */
 482:D:/Work/DeviceTester/amazon-freertos/lib/third_party/mcu_vendor/renesas/rz_mcu_boards/core_package/generate/os_abstraction/src\r_os_abstraction_api.c ****     vPortDefineHeapRegions(xHeapRegions);
 211              		.loc 1 482 0
 212 002c 08009FE5 		ldr	r0, .L16+4
 477:D:/Work/DeviceTester/amazon-freertos/lib/third_party/mcu_vendor/renesas/rz_mcu_boards/core_package/generate/os_abstraction/src\r_os_abstraction_api.c **** 		xHeapRegions[1].xSizeInBytes = (0);
 213              		.loc 1 477 0
 214 0030 06008309 		stmibeq	r3, {r1, r2}
 215              		.loc 1 482 0
 216 0034 FEFFFFEA 		b	vPortDefineHeapRegions
 217              	.LVL6:
 218              	.L17:
 219              		.align	2
 220              	.L16:
 221 0038 00000000 		.word	.LANCHOR1
 222 003c 00000000 		.word	xHeapRegions
 223 0040 00000000 		.word	__freertos_heap_start
 224 0044 00000000 		.word	__freertos_heap_end
 225              		.cfi_endproc
 226              	.LFE12:
 228              		.section	.text.R_OS_KernelInit,"ax",%progbits
 229              		.align	2
 230              		.global	R_OS_KernelInit
 231              		.syntax unified
 232              		.arm
 233              		.fpu neon
 235              	R_OS_KernelInit:
 236              	.LFB8:
 359:D:/Work/DeviceTester/amazon-freertos/lib/third_party/mcu_vendor/renesas/rz_mcu_boards/core_package/generate/os_abstraction/src\r_os_abstraction_api.c ****     /* set default heap */
 237              		.loc 1 359 0
 238              		.cfi_startproc
 239              		@ args = 0, pretend = 0, frame = 8
 240              		@ frame_needed = 0, uses_anonymous_args = 0
 241 0000 1F402DE9 		push	{r0, r1, r2, r3, r4, lr}
 242              		.cfi_def_cfa_offset 24
 243              		.cfi_offset 4, -8
 244              		.cfi_offset 14, -4
 361:D:/Work/DeviceTester/amazon-freertos/lib/third_party/mcu_vendor/renesas/rz_mcu_boards/core_package/generate/os_abstraction/src\r_os_abstraction_api.c ****     uint8_t test_task_created = 0;
 245              		.loc 1 361 0
 246 0004 0135A0E3 		mov	r3, #4194304
 247 0008 10408DE2 		add	r4, sp, #16
 248 000c 043024E5 		str	r3, [r4, #-4]!
 249              	.LVL7:
 364:D:/Work/DeviceTester/amazon-freertos/lib/third_party/mcu_vendor/renesas/rz_mcu_boards/core_package/generate/os_abstraction/src\r_os_abstraction_api.c **** 
 250              		.loc 1 364 0
 251 0010 FEFFFFEB 		bl	R_OS_InitMemManager
 252              	.LVL8:
 366:D:/Work/DeviceTester/amazon-freertos/lib/third_party/mcu_vendor/renesas/rz_mcu_boards/core_package/generate/os_abstraction/src\r_os_abstraction_api.c **** 
 253              		.loc 1 366 0
 254 0014 FEFFFFEB 		bl	R_DEVLINK_Init
 255              	.LVL9:
 371:D:/Work/DeviceTester/amazon-freertos/lib/third_party/mcu_vendor/renesas/rz_mcu_boards/core_package/generate/os_abstraction/src\r_os_abstraction_api.c **** #endif
 256              		.loc 1 371 0
 257 0018 FEFFFFEB 		bl	initialise_monitor_handles
 258              	.LVL10:
 375:D:/Work/DeviceTester/amazon-freertos/lib/third_party/mcu_vendor/renesas/rz_mcu_boards/core_package/generate/os_abstraction/src\r_os_abstraction_api.c **** 
 259              		.loc 1 375 0
 260 001c 0620A0E3 		mov	r2, #6
 261 0020 0030A0E3 		mov	r3, #0
 262 0024 0C008DE8 		stm	sp, {r2, r3}
 263 0028 0430A0E1 		mov	r3, r4
 264 002c 0129A0E3 		mov	r2, #16384
 265 0030 24109FE5 		ldr	r1, .L22
 266 0034 24009FE5 		ldr	r0, .L22+4
 267 0038 FEFFFFEB 		bl	xTaskCreate
 268              	.LVL11:
 399:D:/Work/DeviceTester/amazon-freertos/lib/third_party/mcu_vendor/renesas/rz_mcu_boards/core_package/generate/os_abstraction/src\r_os_abstraction_api.c **** 
 269              		.loc 1 399 0
 270 003c 010050E3 		cmp	r0, #1
 271 0040 0200000A 		beq	.L19
 399:D:/Work/DeviceTester/amazon-freertos/lib/third_party/mcu_vendor/renesas/rz_mcu_boards/core_package/generate/os_abstraction/src\r_os_abstraction_api.c **** 
 272              		.loc 1 399 0 is_stmt 0 discriminator 1
 273 0044 0110A0E3 		mov	r1, #1
 274 0048 14009FE5 		ldr	r0, .L22+8
 275              	.LVL12:
 276 004c FEFFFFEB 		bl	longjmp
 277              	.LVL13:
 278              	.L19:
 279              	.LBB16:
 280              	.LBB17:
 436:D:/Work/DeviceTester/amazon-freertos/lib/third_party/mcu_vendor/renesas/rz_mcu_boards/core_package/generate/os_abstraction/src\r_os_abstraction_api.c **** }
 281              		.loc 1 436 0 is_stmt 1
 282 0050 FEFFFFEB 		bl	vTaskStartScheduler
 283              	.LVL14:
 284              	.L20:
 285              	.LBE17:
 286              	.LBE16:
 287              	.LBB18:
 288              	.LBB19:
 289              		.loc 2 47 0 discriminator 1
 290              		.syntax divided
 291              	@ 47 "D:\Work\DeviceTester\amazon-freertos\lib\third_party\mcu_vendor\renesas\rz_mcu_boards\core_pa
 292 0054 00F020E3 		nop
 293              	@ 0 "" 2
 294              		.arm
 295              		.syntax unified
 296 0058 FDFFFFEA 		b	.L20
 297              	.L23:
 298              		.align	2
 299              	.L22:
 300 005c 00000000 		.word	.LANCHOR2
 301 0060 00000000 		.word	main_task
 302 0064 28000000 		.word	Unity+40
 303              	.LBE19:
 304              	.LBE18:
 305              		.cfi_endproc
 306              	.LFE8:
 308              		.section	.text.R_OS_AbstractionLayerInit,"ax",%progbits
 309              		.align	2
 310              		.global	R_OS_AbstractionLayerInit
 311              		.syntax unified
 312              		.arm
 313              		.fpu neon
 315              	R_OS_AbstractionLayerInit:
 316              	.LFB6:
 317:D:/Work/DeviceTester/amazon-freertos/lib/third_party/mcu_vendor/renesas/rz_mcu_boards/core_package/generate/os_abstraction/src\r_os_abstraction_api.c ****     bool_t ready = true;
 317              		.loc 1 317 0
 318              		.cfi_startproc
 319              		@ args = 0, pretend = 0, frame = 0
 320              		@ frame_needed = 0, uses_anonymous_args = 0
 321              	.LVL15:
 322 0000 10402DE9 		push	{r4, lr}
 323              		.cfi_def_cfa_offset 8
 324              		.cfi_offset 4, -8
 325              		.cfi_offset 14, -4
 320:D:/Work/DeviceTester/amazon-freertos/lib/third_party/mcu_vendor/renesas/rz_mcu_boards/core_package/generate/os_abstraction/src\r_os_abstraction_api.c **** 
 326              		.loc 1 320 0
 327 0004 FEFFFFEB 		bl	R_OS_KernelInit
 328              	.LVL16:
 329              		.cfi_endproc
 330              	.LFE6:
 332              		.section	.text.R_OS_TaskCreate,"ax",%progbits
 333              		.align	2
 334              		.global	R_OS_TaskCreate
 335              		.syntax unified
 336              		.arm
 337              		.fpu neon
 339              	R_OS_TaskCreate:
 340              	.LFB13:
 483:D:/Work/DeviceTester/amazon-freertos/lib/third_party/mcu_vendor/renesas/rz_mcu_boards/core_package/generate/os_abstraction/src\r_os_abstraction_api.c **** }
 484:D:/Work/DeviceTester/amazon-freertos/lib/third_party/mcu_vendor/renesas/rz_mcu_boards/core_package/generate/os_abstraction/src\r_os_abstraction_api.c **** /**************************************************************************************************
 485:D:/Work/DeviceTester/amazon-freertos/lib/third_party/mcu_vendor/renesas/rz_mcu_boards/core_package/generate/os_abstraction/src\r_os_abstraction_api.c ****  End of function R_OS_InitMemManager
 486:D:/Work/DeviceTester/amazon-freertos/lib/third_party/mcu_vendor/renesas/rz_mcu_boards/core_package/generate/os_abstraction/src\r_os_abstraction_api.c ****  **************************************************************************************************
 487:D:/Work/DeviceTester/amazon-freertos/lib/third_party/mcu_vendor/renesas/rz_mcu_boards/core_package/generate/os_abstraction/src\r_os_abstraction_api.c **** 
 488:D:/Work/DeviceTester/amazon-freertos/lib/third_party/mcu_vendor/renesas/rz_mcu_boards/core_package/generate/os_abstraction/src\r_os_abstraction_api.c **** /**************************************************************************************************
 489:D:/Work/DeviceTester/amazon-freertos/lib/third_party/mcu_vendor/renesas/rz_mcu_boards/core_package/generate/os_abstraction/src\r_os_abstraction_api.c ****  *                                  Task API
 490:D:/Work/DeviceTester/amazon-freertos/lib/third_party/mcu_vendor/renesas/rz_mcu_boards/core_package/generate/os_abstraction/src\r_os_abstraction_api.c ****  **************************************************************************************************
 491:D:/Work/DeviceTester/amazon-freertos/lib/third_party/mcu_vendor/renesas/rz_mcu_boards/core_package/generate/os_abstraction/src\r_os_abstraction_api.c **** /**************************************************************************************************
 492:D:/Work/DeviceTester/amazon-freertos/lib/third_party/mcu_vendor/renesas/rz_mcu_boards/core_package/generate/os_abstraction/src\r_os_abstraction_api.c ****  * Function Name: R_OS_TaskCreate
 493:D:/Work/DeviceTester/amazon-freertos/lib/third_party/mcu_vendor/renesas/rz_mcu_boards/core_package/generate/os_abstraction/src\r_os_abstraction_api.c ****  * Description  : Create a task
 494:D:/Work/DeviceTester/amazon-freertos/lib/third_party/mcu_vendor/renesas/rz_mcu_boards/core_package/generate/os_abstraction/src\r_os_abstraction_api.c ****  * Arguments    :  p_name - task name string
 495:D:/Work/DeviceTester/amazon-freertos/lib/third_party/mcu_vendor/renesas/rz_mcu_boards/core_package/generate/os_abstraction/src\r_os_abstraction_api.c ****  *                 task_code - task main function
 496:D:/Work/DeviceTester/amazon-freertos/lib/third_party/mcu_vendor/renesas/rz_mcu_boards/core_package/generate/os_abstraction/src\r_os_abstraction_api.c ****  *                 p_params - task associated parameters (task defined)
 497:D:/Work/DeviceTester/amazon-freertos/lib/third_party/mcu_vendor/renesas/rz_mcu_boards/core_package/generate/os_abstraction/src\r_os_abstraction_api.c ****  *                 stack_size - initial stack size (maximum)
 498:D:/Work/DeviceTester/amazon-freertos/lib/third_party/mcu_vendor/renesas/rz_mcu_boards/core_package/generate/os_abstraction/src\r_os_abstraction_api.c ****  *                 priority - initial priority
 499:D:/Work/DeviceTester/amazon-freertos/lib/third_party/mcu_vendor/renesas/rz_mcu_boards/core_package/generate/os_abstraction/src\r_os_abstraction_api.c ****  * Return Value : os_task_t - pointer to newly created task, NULL if failed
 500:D:/Work/DeviceTester/amazon-freertos/lib/third_party/mcu_vendor/renesas/rz_mcu_boards/core_package/generate/os_abstraction/src\r_os_abstraction_api.c ****  **************************************************************************************************
 501:D:/Work/DeviceTester/amazon-freertos/lib/third_party/mcu_vendor/renesas/rz_mcu_boards/core_package/generate/os_abstraction/src\r_os_abstraction_api.c **** os_task_t *R_OS_TaskCreate (const char_t *p_name, os_task_code_t task_code, void *p_params, size_t 
 502:D:/Work/DeviceTester/amazon-freertos/lib/third_party/mcu_vendor/renesas/rz_mcu_boards/core_package/generate/os_abstraction/src\r_os_abstraction_api.c ****         int_t priority)
 503:D:/Work/DeviceTester/amazon-freertos/lib/third_party/mcu_vendor/renesas/rz_mcu_boards/core_package/generate/os_abstraction/src\r_os_abstraction_api.c **** {
 341              		.loc 1 503 0
 342              		.cfi_startproc
 343              		@ args = 4, pretend = 0, frame = 8
 344              		@ frame_needed = 0, uses_anonymous_args = 0
 345              	.LVL17:
 346 0000 1F402DE9 		push	{r0, r1, r2, r3, r4, lr}
 347              		.cfi_def_cfa_offset 24
 348              		.cfi_offset 4, -8
 349              		.cfi_offset 14, -4
 350              		.loc 1 503 0
 351 0004 00C0A0E1 		mov	ip, r0
 352 0008 0100A0E1 		mov	r0, r1
 353              	.LVL18:
 504:D:/Work/DeviceTester/amazon-freertos/lib/third_party/mcu_vendor/renesas/rz_mcu_boards/core_package/generate/os_abstraction/src\r_os_abstraction_api.c ****     portBASE_TYPE status;
 505:D:/Work/DeviceTester/amazon-freertos/lib/third_party/mcu_vendor/renesas/rz_mcu_boards/core_package/generate/os_abstraction/src\r_os_abstraction_api.c ****     configSTACK_DEPTH_TYPE  actual_stack = 0;
 506:D:/Work/DeviceTester/amazon-freertos/lib/third_party/mcu_vendor/renesas/rz_mcu_boards/core_package/generate/os_abstraction/src\r_os_abstraction_api.c **** 
 507:D:/Work/DeviceTester/amazon-freertos/lib/third_party/mcu_vendor/renesas/rz_mcu_boards/core_package/generate/os_abstraction/src\r_os_abstraction_api.c ****     switch (stack_size)
 354              		.loc 1 507 0
 355 000c 040053E3 		cmp	r3, #4
 356 0010 03F19F97 		ldrls	pc, [pc, r3, asl #2]
 357 0014 1A0000EA 		b	.L27
 358              	.L29:
 359 0018 8C000000 		.word	.L35
 360 001c 2C000000 		.word	.L30
 361 0020 6C000000 		.word	.L31
 362 0024 74000000 		.word	.L32
 363 0028 7C000000 		.word	.L33
 364              	.L30:
 508:D:/Work/DeviceTester/amazon-freertos/lib/third_party/mcu_vendor/renesas/rz_mcu_boards/core_package/generate/os_abstraction/src\r_os_abstraction_api.c ****     {
 509:D:/Work/DeviceTester/amazon-freertos/lib/third_party/mcu_vendor/renesas/rz_mcu_boards/core_package/generate/os_abstraction/src\r_os_abstraction_api.c ****         case R_OS_ABSTRACTION_TINY_STACK_SIZE:
 510:D:/Work/DeviceTester/amazon-freertos/lib/third_party/mcu_vendor/renesas/rz_mcu_boards/core_package/generate/os_abstraction/src\r_os_abstraction_api.c ****         {
 511:D:/Work/DeviceTester/amazon-freertos/lib/third_party/mcu_vendor/renesas/rz_mcu_boards/core_package/generate/os_abstraction/src\r_os_abstraction_api.c ****             /* Stack size is defined in FreeRTOS as unsigned short, convert to 32 bit */
 512:D:/Work/DeviceTester/amazon-freertos/lib/third_party/mcu_vendor/renesas/rz_mcu_boards/core_package/generate/os_abstraction/src\r_os_abstraction_api.c ****             actual_stack = (uint32_t) R_OS_PRV_TINY_STACK_SIZE;
 513:D:/Work/DeviceTester/amazon-freertos/lib/third_party/mcu_vendor/renesas/rz_mcu_boards/core_package/generate/os_abstraction/src\r_os_abstraction_api.c ****             break;
 514:D:/Work/DeviceTester/amazon-freertos/lib/third_party/mcu_vendor/renesas/rz_mcu_boards/core_package/generate/os_abstraction/src\r_os_abstraction_api.c ****         }
 515:D:/Work/DeviceTester/amazon-freertos/lib/third_party/mcu_vendor/renesas/rz_mcu_boards/core_package/generate/os_abstraction/src\r_os_abstraction_api.c ****         case R_OS_ABSTRACTION_SMALL_STACK_SIZE:
 516:D:/Work/DeviceTester/amazon-freertos/lib/third_party/mcu_vendor/renesas/rz_mcu_boards/core_package/generate/os_abstraction/src\r_os_abstraction_api.c ****         {
 517:D:/Work/DeviceTester/amazon-freertos/lib/third_party/mcu_vendor/renesas/rz_mcu_boards/core_package/generate/os_abstraction/src\r_os_abstraction_api.c ****             /* Stack size is defined in FreeRTOS as unsigned short, convert to 32 bit */
 518:D:/Work/DeviceTester/amazon-freertos/lib/third_party/mcu_vendor/renesas/rz_mcu_boards/core_package/generate/os_abstraction/src\r_os_abstraction_api.c ****             actual_stack = (uint32_t) R_OS_PRV_SMALL_STACK_SIZE;
 365              		.loc 1 518 0
 366 002c 021BA0E3 		mov	r1, #2048
 367              	.LVL19:
 368              	.L28:
 519:D:/Work/DeviceTester/amazon-freertos/lib/third_party/mcu_vendor/renesas/rz_mcu_boards/core_package/generate/os_abstraction/src\r_os_abstraction_api.c ****             break;
 520:D:/Work/DeviceTester/amazon-freertos/lib/third_party/mcu_vendor/renesas/rz_mcu_boards/core_package/generate/os_abstraction/src\r_os_abstraction_api.c ****         }
 521:D:/Work/DeviceTester/amazon-freertos/lib/third_party/mcu_vendor/renesas/rz_mcu_boards/core_package/generate/os_abstraction/src\r_os_abstraction_api.c ****         case R_OS_ABSTRACTION_DEFAULT_STACK_SIZE:
 522:D:/Work/DeviceTester/amazon-freertos/lib/third_party/mcu_vendor/renesas/rz_mcu_boards/core_package/generate/os_abstraction/src\r_os_abstraction_api.c ****         {
 523:D:/Work/DeviceTester/amazon-freertos/lib/third_party/mcu_vendor/renesas/rz_mcu_boards/core_package/generate/os_abstraction/src\r_os_abstraction_api.c ****             /* Stack size is defined in FreeRTOS as unsigned short, convert to 32 bit */
 524:D:/Work/DeviceTester/amazon-freertos/lib/third_party/mcu_vendor/renesas/rz_mcu_boards/core_package/generate/os_abstraction/src\r_os_abstraction_api.c ****             actual_stack = (uint32_t) R_OS_PRV_DEFAULT_STACK_SIZE;
 525:D:/Work/DeviceTester/amazon-freertos/lib/third_party/mcu_vendor/renesas/rz_mcu_boards/core_package/generate/os_abstraction/src\r_os_abstraction_api.c ****             break;
 526:D:/Work/DeviceTester/amazon-freertos/lib/third_party/mcu_vendor/renesas/rz_mcu_boards/core_package/generate/os_abstraction/src\r_os_abstraction_api.c ****         }
 527:D:/Work/DeviceTester/amazon-freertos/lib/third_party/mcu_vendor/renesas/rz_mcu_boards/core_package/generate/os_abstraction/src\r_os_abstraction_api.c ****         case R_OS_ABSTRACTION_LARGE_STACK_SIZE:
 528:D:/Work/DeviceTester/amazon-freertos/lib/third_party/mcu_vendor/renesas/rz_mcu_boards/core_package/generate/os_abstraction/src\r_os_abstraction_api.c ****         {
 529:D:/Work/DeviceTester/amazon-freertos/lib/third_party/mcu_vendor/renesas/rz_mcu_boards/core_package/generate/os_abstraction/src\r_os_abstraction_api.c ****             /* Stack size is defined in FreeRTOS as unsigned short, convert to 32 bit */
 530:D:/Work/DeviceTester/amazon-freertos/lib/third_party/mcu_vendor/renesas/rz_mcu_boards/core_package/generate/os_abstraction/src\r_os_abstraction_api.c ****             actual_stack = (uint32_t) R_OS_PRV_LARGE_STACK_SIZE;
 531:D:/Work/DeviceTester/amazon-freertos/lib/third_party/mcu_vendor/renesas/rz_mcu_boards/core_package/generate/os_abstraction/src\r_os_abstraction_api.c ****             break;
 532:D:/Work/DeviceTester/amazon-freertos/lib/third_party/mcu_vendor/renesas/rz_mcu_boards/core_package/generate/os_abstraction/src\r_os_abstraction_api.c ****         }
 533:D:/Work/DeviceTester/amazon-freertos/lib/third_party/mcu_vendor/renesas/rz_mcu_boards/core_package/generate/os_abstraction/src\r_os_abstraction_api.c ****         case R_OS_ABSTRACTION_HUGE_STACK_SIZE:
 534:D:/Work/DeviceTester/amazon-freertos/lib/third_party/mcu_vendor/renesas/rz_mcu_boards/core_package/generate/os_abstraction/src\r_os_abstraction_api.c ****         {
 535:D:/Work/DeviceTester/amazon-freertos/lib/third_party/mcu_vendor/renesas/rz_mcu_boards/core_package/generate/os_abstraction/src\r_os_abstraction_api.c ****             /* Stack size is defined in FreeRTOS as unsigned short, convert to 32 bit */
 536:D:/Work/DeviceTester/amazon-freertos/lib/third_party/mcu_vendor/renesas/rz_mcu_boards/core_package/generate/os_abstraction/src\r_os_abstraction_api.c ****             actual_stack = (uint32_t) R_OS_PRV_HUGE_STACK_SIZE;
 537:D:/Work/DeviceTester/amazon-freertos/lib/third_party/mcu_vendor/renesas/rz_mcu_boards/core_package/generate/os_abstraction/src\r_os_abstraction_api.c ****             break;
 538:D:/Work/DeviceTester/amazon-freertos/lib/third_party/mcu_vendor/renesas/rz_mcu_boards/core_package/generate/os_abstraction/src\r_os_abstraction_api.c ****         }
 539:D:/Work/DeviceTester/amazon-freertos/lib/third_party/mcu_vendor/renesas/rz_mcu_boards/core_package/generate/os_abstraction/src\r_os_abstraction_api.c ****         default:
 540:D:/Work/DeviceTester/amazon-freertos/lib/third_party/mcu_vendor/renesas/rz_mcu_boards/core_package/generate/os_abstraction/src\r_os_abstraction_api.c ****         {
 541:D:/Work/DeviceTester/amazon-freertos/lib/third_party/mcu_vendor/renesas/rz_mcu_boards/core_package/generate/os_abstraction/src\r_os_abstraction_api.c ****             actual_stack = (configSTACK_DEPTH_TYPE)stack_size;
 542:D:/Work/DeviceTester/amazon-freertos/lib/third_party/mcu_vendor/renesas/rz_mcu_boards/core_package/generate/os_abstraction/src\r_os_abstraction_api.c ****             break;
 543:D:/Work/DeviceTester/amazon-freertos/lib/third_party/mcu_vendor/renesas/rz_mcu_boards/core_package/generate/os_abstraction/src\r_os_abstraction_api.c ****         }
 544:D:/Work/DeviceTester/amazon-freertos/lib/third_party/mcu_vendor/renesas/rz_mcu_boards/core_package/generate/os_abstraction/src\r_os_abstraction_api.c ****     }
 545:D:/Work/DeviceTester/amazon-freertos/lib/third_party/mcu_vendor/renesas/rz_mcu_boards/core_package/generate/os_abstraction/src\r_os_abstraction_api.c **** 
 546:D:/Work/DeviceTester/amazon-freertos/lib/third_party/mcu_vendor/renesas/rz_mcu_boards/core_package/generate/os_abstraction/src\r_os_abstraction_api.c ****     /* Initialised variable (task) is checked against NULL to determine if the new task can be init
 547:D:/Work/DeviceTester/amazon-freertos/lib/third_party/mcu_vendor/renesas/rz_mcu_boards/core_package/generate/os_abstraction/src\r_os_abstraction_api.c ****      * see prvInitialiseNewTask in file freertos\tasks.c */
 548:D:/Work/DeviceTester/amazon-freertos/lib/third_party/mcu_vendor/renesas/rz_mcu_boards/core_package/generate/os_abstraction/src\r_os_abstraction_api.c ****     xTaskHandle task = (TaskHandle_t *) (NULL);
 369              		.loc 1 548 0
 370 0030 10308DE2 		add	r3, sp, #16
 371              	.LVL20:
 372 0034 0040A0E3 		mov	r4, #0
 373 0038 044023E5 		str	r4, [r3, #-4]!
 549:D:/Work/DeviceTester/amazon-freertos/lib/third_party/mcu_vendor/renesas/rz_mcu_boards/core_package/generate/os_abstraction/src\r_os_abstraction_api.c ****     os_task_t *p_new_task;
 550:D:/Work/DeviceTester/amazon-freertos/lib/third_party/mcu_vendor/renesas/rz_mcu_boards/core_package/generate/os_abstraction/src\r_os_abstraction_api.c **** 
 551:D:/Work/DeviceTester/amazon-freertos/lib/third_party/mcu_vendor/renesas/rz_mcu_boards/core_package/generate/os_abstraction/src\r_os_abstraction_api.c ****     /* Create a new task */
 552:D:/Work/DeviceTester/amazon-freertos/lib/third_party/mcu_vendor/renesas/rz_mcu_boards/core_package/generate/os_abstraction/src\r_os_abstraction_api.c ****     status = xTaskCreate((pdTASK_CODE) task_code, p_name, (actual_stack / sizeof(StackType_t)), p_p
 374              		.loc 1 552 0
 375 003c 04308DE5 		str	r3, [sp, #4]
 376 0040 18309DE5 		ldr	r3, [sp, #24]
 377 0044 00308DE5 		str	r3, [sp]
 378 0048 0230A0E1 		mov	r3, r2
 379 004c 2121A0E1 		lsr	r2, r1, #2
 380              	.LVL21:
 381 0050 0C10A0E1 		mov	r1, ip
 382              	.LVL22:
 383 0054 FEFFFFEB 		bl	xTaskCreate
 384              	.LVL23:
 553:D:/Work/DeviceTester/amazon-freertos/lib/third_party/mcu_vendor/renesas/rz_mcu_boards/core_package/generate/os_abstraction/src\r_os_abstraction_api.c **** 	                     (UBaseType_t) priority, &task);
 554:D:/Work/DeviceTester/amazon-freertos/lib/third_party/mcu_vendor/renesas/rz_mcu_boards/core_package/generate/os_abstraction/src\r_os_abstraction_api.c **** 
 555:D:/Work/DeviceTester/amazon-freertos/lib/third_party/mcu_vendor/renesas/rz_mcu_boards/core_package/generate/os_abstraction/src\r_os_abstraction_api.c ****     /* Check whether the task was successfully created */
 556:D:/Work/DeviceTester/amazon-freertos/lib/third_party/mcu_vendor/renesas/rz_mcu_boards/core_package/generate/os_abstraction/src\r_os_abstraction_api.c ****     if (pdPASS == status)
 385              		.loc 1 556 0
 386 0058 010050E3 		cmp	r0, #1
 557:D:/Work/DeviceTester/amazon-freertos/lib/third_party/mcu_vendor/renesas/rz_mcu_boards/core_package/generate/os_abstraction/src\r_os_abstraction_api.c ****     {
 558:D:/Work/DeviceTester/amazon-freertos/lib/third_party/mcu_vendor/renesas/rz_mcu_boards/core_package/generate/os_abstraction/src\r_os_abstraction_api.c ****         p_new_task = task;
 387              		.loc 1 558 0
 388 005c 0C009D05 		ldreq	r0, [sp, #12]
 389              	.LVL24:
 559:D:/Work/DeviceTester/amazon-freertos/lib/third_party/mcu_vendor/renesas/rz_mcu_boards/core_package/generate/os_abstraction/src\r_os_abstraction_api.c ****         return task;
 560:D:/Work/DeviceTester/amazon-freertos/lib/third_party/mcu_vendor/renesas/rz_mcu_boards/core_package/generate/os_abstraction/src\r_os_abstraction_api.c ****     }
 561:D:/Work/DeviceTester/amazon-freertos/lib/third_party/mcu_vendor/renesas/rz_mcu_boards/core_package/generate/os_abstraction/src\r_os_abstraction_api.c ****     else
 562:D:/Work/DeviceTester/amazon-freertos/lib/third_party/mcu_vendor/renesas/rz_mcu_boards/core_package/generate/os_abstraction/src\r_os_abstraction_api.c ****     {
 563:D:/Work/DeviceTester/amazon-freertos/lib/third_party/mcu_vendor/renesas/rz_mcu_boards/core_package/generate/os_abstraction/src\r_os_abstraction_api.c ****         /* cast to NULL required to fulfil FreeRTOS requirements */
 564:D:/Work/DeviceTester/amazon-freertos/lib/third_party/mcu_vendor/renesas/rz_mcu_boards/core_package/generate/os_abstraction/src\r_os_abstraction_api.c ****         p_new_task = (os_task_t *) (NULL);
 565:D:/Work/DeviceTester/amazon-freertos/lib/third_party/mcu_vendor/renesas/rz_mcu_boards/core_package/generate/os_abstraction/src\r_os_abstraction_api.c ****     }
 566:D:/Work/DeviceTester/amazon-freertos/lib/third_party/mcu_vendor/renesas/rz_mcu_boards/core_package/generate/os_abstraction/src\r_os_abstraction_api.c ****     return p_new_task;
 390              		.loc 1 566 0
 391 0060 0400A011 		movne	r0, r4
 392              	.LVL25:
 567:D:/Work/DeviceTester/amazon-freertos/lib/third_party/mcu_vendor/renesas/rz_mcu_boards/core_package/generate/os_abstraction/src\r_os_abstraction_api.c **** }
 393              		.loc 1 567 0
 394 0064 10D08DE2 		add	sp, sp, #16
 395              		.cfi_remember_state
 396              		.cfi_def_cfa_offset 8
 397              		@ sp needed
 398 0068 1080BDE8 		pop	{r4, pc}
 399              	.LVL26:
 400              	.L31:
 401              		.cfi_restore_state
 524:D:/Work/DeviceTester/amazon-freertos/lib/third_party/mcu_vendor/renesas/rz_mcu_boards/core_package/generate/os_abstraction/src\r_os_abstraction_api.c ****             break;
 402              		.loc 1 524 0
 403 006c 011AA0E3 		mov	r1, #4096
 525:D:/Work/DeviceTester/amazon-freertos/lib/third_party/mcu_vendor/renesas/rz_mcu_boards/core_package/generate/os_abstraction/src\r_os_abstraction_api.c ****         }
 404              		.loc 1 525 0
 405 0070 EEFFFFEA 		b	.L28
 406              	.LVL27:
 407              	.L32:
 530:D:/Work/DeviceTester/amazon-freertos/lib/third_party/mcu_vendor/renesas/rz_mcu_boards/core_package/generate/os_abstraction/src\r_os_abstraction_api.c ****             break;
 408              		.loc 1 530 0
 409 0074 021AA0E3 		mov	r1, #8192
 531:D:/Work/DeviceTester/amazon-freertos/lib/third_party/mcu_vendor/renesas/rz_mcu_boards/core_package/generate/os_abstraction/src\r_os_abstraction_api.c ****         }
 410              		.loc 1 531 0
 411 0078 ECFFFFEA 		b	.L28
 412              	.LVL28:
 413              	.L33:
 536:D:/Work/DeviceTester/amazon-freertos/lib/third_party/mcu_vendor/renesas/rz_mcu_boards/core_package/generate/os_abstraction/src\r_os_abstraction_api.c ****             break;
 414              		.loc 1 536 0
 415 007c 0119A0E3 		mov	r1, #16384
 537:D:/Work/DeviceTester/amazon-freertos/lib/third_party/mcu_vendor/renesas/rz_mcu_boards/core_package/generate/os_abstraction/src\r_os_abstraction_api.c ****         }
 416              		.loc 1 537 0
 417 0080 EAFFFFEA 		b	.L28
 418              	.LVL29:
 419              	.L27:
 541:D:/Work/DeviceTester/amazon-freertos/lib/third_party/mcu_vendor/renesas/rz_mcu_boards/core_package/generate/os_abstraction/src\r_os_abstraction_api.c ****             break;
 420              		.loc 1 541 0
 421 0084 7310FFE6 		uxth	r1, r3
 422              	.LVL30:
 542:D:/Work/DeviceTester/amazon-freertos/lib/third_party/mcu_vendor/renesas/rz_mcu_boards/core_package/generate/os_abstraction/src\r_os_abstraction_api.c ****         }
 423              		.loc 1 542 0
 424 0088 E8FFFFEA 		b	.L28
 425              	.LVL31:
 426              	.L35:
 512:D:/Work/DeviceTester/amazon-freertos/lib/third_party/mcu_vendor/renesas/rz_mcu_boards/core_package/generate/os_abstraction/src\r_os_abstraction_api.c ****             break;
 427              		.loc 1 512 0
 428 008c 021CA0E3 		mov	r1, #512
 429 0090 E6FFFFEA 		b	.L28
 430              		.cfi_endproc
 431              	.LFE13:
 433              		.section	.text.R_OS_TaskDelete,"ax",%progbits
 434              		.align	2
 435              		.global	R_OS_TaskDelete
 436              		.syntax unified
 437              		.arm
 438              		.fpu neon
 440              	R_OS_TaskDelete:
 441              	.LFB14:
 568:D:/Work/DeviceTester/amazon-freertos/lib/third_party/mcu_vendor/renesas/rz_mcu_boards/core_package/generate/os_abstraction/src\r_os_abstraction_api.c **** /**************************************************************************************************
 569:D:/Work/DeviceTester/amazon-freertos/lib/third_party/mcu_vendor/renesas/rz_mcu_boards/core_package/generate/os_abstraction/src\r_os_abstraction_api.c ****  End of function R_OS_TaskCreate
 570:D:/Work/DeviceTester/amazon-freertos/lib/third_party/mcu_vendor/renesas/rz_mcu_boards/core_package/generate/os_abstraction/src\r_os_abstraction_api.c ****  **************************************************************************************************
 571:D:/Work/DeviceTester/amazon-freertos/lib/third_party/mcu_vendor/renesas/rz_mcu_boards/core_package/generate/os_abstraction/src\r_os_abstraction_api.c **** 
 572:D:/Work/DeviceTester/amazon-freertos/lib/third_party/mcu_vendor/renesas/rz_mcu_boards/core_package/generate/os_abstraction/src\r_os_abstraction_api.c **** /**************************************************************************************************
 573:D:/Work/DeviceTester/amazon-freertos/lib/third_party/mcu_vendor/renesas/rz_mcu_boards/core_package/generate/os_abstraction/src\r_os_abstraction_api.c ****  * Function Name: R_OS_TaskDelete
 574:D:/Work/DeviceTester/amazon-freertos/lib/third_party/mcu_vendor/renesas/rz_mcu_boards/core_package/generate/os_abstraction/src\r_os_abstraction_api.c ****  * Description  : Delete task
 575:D:/Work/DeviceTester/amazon-freertos/lib/third_party/mcu_vendor/renesas/rz_mcu_boards/core_package/generate/os_abstraction/src\r_os_abstraction_api.c ****  * Arguments    : pp_task - pointer to task handle, NULL deletes the current task
 576:D:/Work/DeviceTester/amazon-freertos/lib/third_party/mcu_vendor/renesas/rz_mcu_boards/core_package/generate/os_abstraction/src\r_os_abstraction_api.c ****  * Return Value : none
 577:D:/Work/DeviceTester/amazon-freertos/lib/third_party/mcu_vendor/renesas/rz_mcu_boards/core_package/generate/os_abstraction/src\r_os_abstraction_api.c ****  **************************************************************************************************
 578:D:/Work/DeviceTester/amazon-freertos/lib/third_party/mcu_vendor/renesas/rz_mcu_boards/core_package/generate/os_abstraction/src\r_os_abstraction_api.c **** void R_OS_TaskDelete (os_task_t **pp_task)
 579:D:/Work/DeviceTester/amazon-freertos/lib/third_party/mcu_vendor/renesas/rz_mcu_boards/core_package/generate/os_abstraction/src\r_os_abstraction_api.c **** {
 442              		.loc 1 579 0
 443              		.cfi_startproc
 444              		@ args = 0, pretend = 0, frame = 0
 445              		@ frame_needed = 0, uses_anonymous_args = 0
 446              	.LVL32:
 447 0000 10402DE9 		push	{r4, lr}
 448              		.cfi_def_cfa_offset 8
 449              		.cfi_offset 4, -8
 450              		.cfi_offset 14, -4
 580:D:/Work/DeviceTester/amazon-freertos/lib/third_party/mcu_vendor/renesas/rz_mcu_boards/core_package/generate/os_abstraction/src\r_os_abstraction_api.c ****     /* Delete the specified task */
 581:D:/Work/DeviceTester/amazon-freertos/lib/third_party/mcu_vendor/renesas/rz_mcu_boards/core_package/generate/os_abstraction/src\r_os_abstraction_api.c ****     if (NULL == pp_task)
 451              		.loc 1 581 0
 452 0004 004050E2 		subs	r4, r0, #0
 453 0008 0100001A 		bne	.L39
 582:D:/Work/DeviceTester/amazon-freertos/lib/third_party/mcu_vendor/renesas/rz_mcu_boards/core_package/generate/os_abstraction/src\r_os_abstraction_api.c ****     {
 583:D:/Work/DeviceTester/amazon-freertos/lib/third_party/mcu_vendor/renesas/rz_mcu_boards/core_package/generate/os_abstraction/src\r_os_abstraction_api.c ****         /* pass NULL down to freeRTOS */
 584:D:/Work/DeviceTester/amazon-freertos/lib/third_party/mcu_vendor/renesas/rz_mcu_boards/core_package/generate/os_abstraction/src\r_os_abstraction_api.c ****         vTaskDelete((xTaskHandle) NULL);
 585:D:/Work/DeviceTester/amazon-freertos/lib/third_party/mcu_vendor/renesas/rz_mcu_boards/core_package/generate/os_abstraction/src\r_os_abstraction_api.c ****     }
 586:D:/Work/DeviceTester/amazon-freertos/lib/third_party/mcu_vendor/renesas/rz_mcu_boards/core_package/generate/os_abstraction/src\r_os_abstraction_api.c ****     else
 587:D:/Work/DeviceTester/amazon-freertos/lib/third_party/mcu_vendor/renesas/rz_mcu_boards/core_package/generate/os_abstraction/src\r_os_abstraction_api.c ****     {
 588:D:/Work/DeviceTester/amazon-freertos/lib/third_party/mcu_vendor/renesas/rz_mcu_boards/core_package/generate/os_abstraction/src\r_os_abstraction_api.c ****         /* delete task */
 589:D:/Work/DeviceTester/amazon-freertos/lib/third_party/mcu_vendor/renesas/rz_mcu_boards/core_package/generate/os_abstraction/src\r_os_abstraction_api.c ****         vTaskDelete((xTaskHandle) *pp_task);
 590:D:/Work/DeviceTester/amazon-freertos/lib/third_party/mcu_vendor/renesas/rz_mcu_boards/core_package/generate/os_abstraction/src\r_os_abstraction_api.c **** 
 591:D:/Work/DeviceTester/amazon-freertos/lib/third_party/mcu_vendor/renesas/rz_mcu_boards/core_package/generate/os_abstraction/src\r_os_abstraction_api.c ****         /* NULL the pointer */
 592:D:/Work/DeviceTester/amazon-freertos/lib/third_party/mcu_vendor/renesas/rz_mcu_boards/core_package/generate/os_abstraction/src\r_os_abstraction_api.c ****         *pp_task = NULL;
 593:D:/Work/DeviceTester/amazon-freertos/lib/third_party/mcu_vendor/renesas/rz_mcu_boards/core_package/generate/os_abstraction/src\r_os_abstraction_api.c ****     }
 594:D:/Work/DeviceTester/amazon-freertos/lib/third_party/mcu_vendor/renesas/rz_mcu_boards/core_package/generate/os_abstraction/src\r_os_abstraction_api.c **** }
 454              		.loc 1 594 0
 455 000c 1040BDE8 		pop	{r4, lr}
 456              		.cfi_remember_state
 457              		.cfi_restore 14
 458              		.cfi_restore 4
 459              		.cfi_def_cfa_offset 0
 584:D:/Work/DeviceTester/amazon-freertos/lib/third_party/mcu_vendor/renesas/rz_mcu_boards/core_package/generate/os_abstraction/src\r_os_abstraction_api.c ****     }
 460              		.loc 1 584 0
 461 0010 FEFFFFEA 		b	vTaskDelete
 462              	.LVL33:
 463              	.L39:
 464              		.cfi_restore_state
 589:D:/Work/DeviceTester/amazon-freertos/lib/third_party/mcu_vendor/renesas/rz_mcu_boards/core_package/generate/os_abstraction/src\r_os_abstraction_api.c **** 
 465              		.loc 1 589 0
 466 0014 000094E5 		ldr	r0, [r4]
 467              	.LVL34:
 468 0018 FEFFFFEB 		bl	vTaskDelete
 469              	.LVL35:
 592:D:/Work/DeviceTester/amazon-freertos/lib/third_party/mcu_vendor/renesas/rz_mcu_boards/core_package/generate/os_abstraction/src\r_os_abstraction_api.c ****     }
 470              		.loc 1 592 0
 471 001c 0030A0E3 		mov	r3, #0
 472 0020 003084E5 		str	r3, [r4]
 473 0024 1080BDE8 		pop	{r4, pc}
 474              		.cfi_endproc
 475              	.LFE14:
 477              		.section	.text.R_OS_TaskSleep,"ax",%progbits
 478              		.align	2
 479              		.global	R_OS_TaskSleep
 480              		.syntax unified
 481              		.arm
 482              		.fpu neon
 484              	R_OS_TaskSleep:
 485              	.LFB15:
 595:D:/Work/DeviceTester/amazon-freertos/lib/third_party/mcu_vendor/renesas/rz_mcu_boards/core_package/generate/os_abstraction/src\r_os_abstraction_api.c **** /**************************************************************************************************
 596:D:/Work/DeviceTester/amazon-freertos/lib/third_party/mcu_vendor/renesas/rz_mcu_boards/core_package/generate/os_abstraction/src\r_os_abstraction_api.c ****  End of function R_OS_TaskDelete
 597:D:/Work/DeviceTester/amazon-freertos/lib/third_party/mcu_vendor/renesas/rz_mcu_boards/core_package/generate/os_abstraction/src\r_os_abstraction_api.c ****  **************************************************************************************************
 598:D:/Work/DeviceTester/amazon-freertos/lib/third_party/mcu_vendor/renesas/rz_mcu_boards/core_package/generate/os_abstraction/src\r_os_abstraction_api.c **** 
 599:D:/Work/DeviceTester/amazon-freertos/lib/third_party/mcu_vendor/renesas/rz_mcu_boards/core_package/generate/os_abstraction/src\r_os_abstraction_api.c **** /**************************************************************************************************
 600:D:/Work/DeviceTester/amazon-freertos/lib/third_party/mcu_vendor/renesas/rz_mcu_boards/core_package/generate/os_abstraction/src\r_os_abstraction_api.c ****  * Function Name: R_OS_TaskSleep
 601:D:/Work/DeviceTester/amazon-freertos/lib/third_party/mcu_vendor/renesas/rz_mcu_boards/core_package/generate/os_abstraction/src\r_os_abstraction_api.c ****  * Description  : Suspend the task for the specified period of time
 602:D:/Work/DeviceTester/amazon-freertos/lib/third_party/mcu_vendor/renesas/rz_mcu_boards/core_package/generate/os_abstraction/src\r_os_abstraction_api.c ****  * Arguments    : sleep_ms - sleep period in milliseconds
 603:D:/Work/DeviceTester/amazon-freertos/lib/third_party/mcu_vendor/renesas/rz_mcu_boards/core_package/generate/os_abstraction/src\r_os_abstraction_api.c ****  * Return Value : none
 604:D:/Work/DeviceTester/amazon-freertos/lib/third_party/mcu_vendor/renesas/rz_mcu_boards/core_package/generate/os_abstraction/src\r_os_abstraction_api.c ****  **************************************************************************************************
 605:D:/Work/DeviceTester/amazon-freertos/lib/third_party/mcu_vendor/renesas/rz_mcu_boards/core_package/generate/os_abstraction/src\r_os_abstraction_api.c **** void R_OS_TaskSleep (uint32_t sleep_ms)
 606:D:/Work/DeviceTester/amazon-freertos/lib/third_party/mcu_vendor/renesas/rz_mcu_boards/core_package/generate/os_abstraction/src\r_os_abstraction_api.c **** {
 486              		.loc 1 606 0
 487              		.cfi_startproc
 488              		@ args = 0, pretend = 0, frame = 0
 489              		@ frame_needed = 0, uses_anonymous_args = 0
 490              		@ link register save eliminated.
 491              	.LVL36:
 607:D:/Work/DeviceTester/amazon-freertos/lib/third_party/mcu_vendor/renesas/rz_mcu_boards/core_package/generate/os_abstraction/src\r_os_abstraction_api.c ****     /* Delay the task for the specified duration */
 608:D:/Work/DeviceTester/amazon-freertos/lib/third_party/mcu_vendor/renesas/rz_mcu_boards/core_package/generate/os_abstraction/src\r_os_abstraction_api.c ****     if (R_OS_ABSTRACTION_EV_WAIT_INFINITE == sleep_ms)
 609:D:/Work/DeviceTester/amazon-freertos/lib/third_party/mcu_vendor/renesas/rz_mcu_boards/core_package/generate/os_abstraction/src\r_os_abstraction_api.c ****     {
 610:D:/Work/DeviceTester/amazon-freertos/lib/third_party/mcu_vendor/renesas/rz_mcu_boards/core_package/generate/os_abstraction/src\r_os_abstraction_api.c ****         /* wait for ever*/
 611:D:/Work/DeviceTester/amazon-freertos/lib/third_party/mcu_vendor/renesas/rz_mcu_boards/core_package/generate/os_abstraction/src\r_os_abstraction_api.c ****         vTaskDelay(R_OS_MS_TO_SYSTICKS(portMAX_DELAY));
 612:D:/Work/DeviceTester/amazon-freertos/lib/third_party/mcu_vendor/renesas/rz_mcu_boards/core_package/generate/os_abstraction/src\r_os_abstraction_api.c ****     }
 613:D:/Work/DeviceTester/amazon-freertos/lib/third_party/mcu_vendor/renesas/rz_mcu_boards/core_package/generate/os_abstraction/src\r_os_abstraction_api.c ****     else
 614:D:/Work/DeviceTester/amazon-freertos/lib/third_party/mcu_vendor/renesas/rz_mcu_boards/core_package/generate/os_abstraction/src\r_os_abstraction_api.c ****     {
 615:D:/Work/DeviceTester/amazon-freertos/lib/third_party/mcu_vendor/renesas/rz_mcu_boards/core_package/generate/os_abstraction/src\r_os_abstraction_api.c ****         vTaskDelay(R_OS_MS_TO_SYSTICKS(sleep_ms));
 492              		.loc 1 615 0
 493 0000 FEFFFFEA 		b	vTaskDelay
 494              	.LVL37:
 495              		.cfi_endproc
 496              	.LFE15:
 498              		.section	.text.R_OS_TaskYield,"ax",%progbits
 499              		.align	2
 500              		.global	R_OS_TaskYield
 501              		.syntax unified
 502              		.arm
 503              		.fpu neon
 505              	R_OS_TaskYield:
 506              	.LFB16:
 616:D:/Work/DeviceTester/amazon-freertos/lib/third_party/mcu_vendor/renesas/rz_mcu_boards/core_package/generate/os_abstraction/src\r_os_abstraction_api.c ****     }
 617:D:/Work/DeviceTester/amazon-freertos/lib/third_party/mcu_vendor/renesas/rz_mcu_boards/core_package/generate/os_abstraction/src\r_os_abstraction_api.c **** }
 618:D:/Work/DeviceTester/amazon-freertos/lib/third_party/mcu_vendor/renesas/rz_mcu_boards/core_package/generate/os_abstraction/src\r_os_abstraction_api.c **** /**************************************************************************************************
 619:D:/Work/DeviceTester/amazon-freertos/lib/third_party/mcu_vendor/renesas/rz_mcu_boards/core_package/generate/os_abstraction/src\r_os_abstraction_api.c ****  End of function R_OS_TaskSleep
 620:D:/Work/DeviceTester/amazon-freertos/lib/third_party/mcu_vendor/renesas/rz_mcu_boards/core_package/generate/os_abstraction/src\r_os_abstraction_api.c ****  **************************************************************************************************
 621:D:/Work/DeviceTester/amazon-freertos/lib/third_party/mcu_vendor/renesas/rz_mcu_boards/core_package/generate/os_abstraction/src\r_os_abstraction_api.c **** 
 622:D:/Work/DeviceTester/amazon-freertos/lib/third_party/mcu_vendor/renesas/rz_mcu_boards/core_package/generate/os_abstraction/src\r_os_abstraction_api.c **** /**************************************************************************************************
 623:D:/Work/DeviceTester/amazon-freertos/lib/third_party/mcu_vendor/renesas/rz_mcu_boards/core_package/generate/os_abstraction/src\r_os_abstraction_api.c ****  * Function Name: R_OS_TaskYield
 624:D:/Work/DeviceTester/amazon-freertos/lib/third_party/mcu_vendor/renesas/rz_mcu_boards/core_package/generate/os_abstraction/src\r_os_abstraction_api.c ****  * Description  : Force a context switch
 625:D:/Work/DeviceTester/amazon-freertos/lib/third_party/mcu_vendor/renesas/rz_mcu_boards/core_package/generate/os_abstraction/src\r_os_abstraction_api.c ****  * Arguments    : none
 626:D:/Work/DeviceTester/amazon-freertos/lib/third_party/mcu_vendor/renesas/rz_mcu_boards/core_package/generate/os_abstraction/src\r_os_abstraction_api.c ****  * Return Value : none
 627:D:/Work/DeviceTester/amazon-freertos/lib/third_party/mcu_vendor/renesas/rz_mcu_boards/core_package/generate/os_abstraction/src\r_os_abstraction_api.c ****  **************************************************************************************************
 628:D:/Work/DeviceTester/amazon-freertos/lib/third_party/mcu_vendor/renesas/rz_mcu_boards/core_package/generate/os_abstraction/src\r_os_abstraction_api.c **** void R_OS_TaskYield (void)
 629:D:/Work/DeviceTester/amazon-freertos/lib/third_party/mcu_vendor/renesas/rz_mcu_boards/core_package/generate/os_abstraction/src\r_os_abstraction_api.c **** {
 507              		.loc 1 629 0
 508              		.cfi_startproc
 509              		@ args = 0, pretend = 0, frame = 0
 510              		@ frame_needed = 0, uses_anonymous_args = 0
 511              		@ link register save eliminated.
 630:D:/Work/DeviceTester/amazon-freertos/lib/third_party/mcu_vendor/renesas/rz_mcu_boards/core_package/generate/os_abstraction/src\r_os_abstraction_api.c ****     /* Force a context switch */
 631:D:/Work/DeviceTester/amazon-freertos/lib/third_party/mcu_vendor/renesas/rz_mcu_boards/core_package/generate/os_abstraction/src\r_os_abstraction_api.c ****     taskYIELD()
 512              		.loc 1 631 0
 513              		.syntax divided
 514              	@ 631 "D:/Work/DeviceTester/amazon-freertos/lib/third_party/mcu_vendor/renesas/rz_mcu_boards/core_p
 515 0000 000000EF 		SWI 0
 516              	@ 0 "" 2
 517              		.arm
 518              		.syntax unified
 519 0004 1EFF2FE1 		bx	lr
 520              		.cfi_endproc
 521              	.LFE16:
 523              		.section	.text.R_OS_TaskSuspend,"ax",%progbits
 524              		.align	2
 525              		.global	R_OS_TaskSuspend
 526              		.syntax unified
 527              		.arm
 528              		.fpu neon
 530              	R_OS_TaskSuspend:
 531              	.LFB17:
 632:D:/Work/DeviceTester/amazon-freertos/lib/third_party/mcu_vendor/renesas/rz_mcu_boards/core_package/generate/os_abstraction/src\r_os_abstraction_api.c ****     ;
 633:D:/Work/DeviceTester/amazon-freertos/lib/third_party/mcu_vendor/renesas/rz_mcu_boards/core_package/generate/os_abstraction/src\r_os_abstraction_api.c **** }
 634:D:/Work/DeviceTester/amazon-freertos/lib/third_party/mcu_vendor/renesas/rz_mcu_boards/core_package/generate/os_abstraction/src\r_os_abstraction_api.c **** /**************************************************************************************************
 635:D:/Work/DeviceTester/amazon-freertos/lib/third_party/mcu_vendor/renesas/rz_mcu_boards/core_package/generate/os_abstraction/src\r_os_abstraction_api.c ****  End of function R_OS_TaskYield
 636:D:/Work/DeviceTester/amazon-freertos/lib/third_party/mcu_vendor/renesas/rz_mcu_boards/core_package/generate/os_abstraction/src\r_os_abstraction_api.c ****  **************************************************************************************************
 637:D:/Work/DeviceTester/amazon-freertos/lib/third_party/mcu_vendor/renesas/rz_mcu_boards/core_package/generate/os_abstraction/src\r_os_abstraction_api.c **** 
 638:D:/Work/DeviceTester/amazon-freertos/lib/third_party/mcu_vendor/renesas/rz_mcu_boards/core_package/generate/os_abstraction/src\r_os_abstraction_api.c **** /**************************************************************************************************
 639:D:/Work/DeviceTester/amazon-freertos/lib/third_party/mcu_vendor/renesas/rz_mcu_boards/core_package/generate/os_abstraction/src\r_os_abstraction_api.c ****  * Function Name: R_OS_TaskSuspend
 640:D:/Work/DeviceTester/amazon-freertos/lib/third_party/mcu_vendor/renesas/rz_mcu_boards/core_package/generate/os_abstraction/src\r_os_abstraction_api.c ****  * Description  : Suspend the specified task
 641:D:/Work/DeviceTester/amazon-freertos/lib/third_party/mcu_vendor/renesas/rz_mcu_boards/core_package/generate/os_abstraction/src\r_os_abstraction_api.c ****  * Arguments    : p_task - pointer to task, NULL deletes the current task
 642:D:/Work/DeviceTester/amazon-freertos/lib/third_party/mcu_vendor/renesas/rz_mcu_boards/core_package/generate/os_abstraction/src\r_os_abstraction_api.c ****  * Return Value : none
 643:D:/Work/DeviceTester/amazon-freertos/lib/third_party/mcu_vendor/renesas/rz_mcu_boards/core_package/generate/os_abstraction/src\r_os_abstraction_api.c ****  **************************************************************************************************
 644:D:/Work/DeviceTester/amazon-freertos/lib/third_party/mcu_vendor/renesas/rz_mcu_boards/core_package/generate/os_abstraction/src\r_os_abstraction_api.c **** bool_t R_OS_TaskSuspend (os_task_t *p_task)
 645:D:/Work/DeviceTester/amazon-freertos/lib/third_party/mcu_vendor/renesas/rz_mcu_boards/core_package/generate/os_abstraction/src\r_os_abstraction_api.c **** {
 532              		.loc 1 645 0
 533              		.cfi_startproc
 534              		@ args = 0, pretend = 0, frame = 0
 535              		@ frame_needed = 0, uses_anonymous_args = 0
 536              	.LVL38:
 537 0000 10402DE9 		push	{r4, lr}
 538              		.cfi_def_cfa_offset 8
 539              		.cfi_offset 4, -8
 540              		.cfi_offset 14, -4
 541              		.loc 1 645 0
 542 0004 0040A0E1 		mov	r4, r0
 646:D:/Work/DeviceTester/amazon-freertos/lib/third_party/mcu_vendor/renesas/rz_mcu_boards/core_package/generate/os_abstraction/src\r_os_abstraction_api.c ****     bool_t ret;
 647:D:/Work/DeviceTester/amazon-freertos/lib/third_party/mcu_vendor/renesas/rz_mcu_boards/core_package/generate/os_abstraction/src\r_os_abstraction_api.c **** 
 648:D:/Work/DeviceTester/amazon-freertos/lib/third_party/mcu_vendor/renesas/rz_mcu_boards/core_package/generate/os_abstraction/src\r_os_abstraction_api.c ****     switch (eTaskGetState(p_task))
 543              		.loc 1 648 0
 544 0008 FEFFFFEB 		bl	eTaskGetState
 545              	.LVL39:
 546 000c 020050E3 		cmp	r0, #2
 547 0010 0300008A 		bhi	.L47
 649:D:/Work/DeviceTester/amazon-freertos/lib/third_party/mcu_vendor/renesas/rz_mcu_boards/core_package/generate/os_abstraction/src\r_os_abstraction_api.c ****     {
 650:D:/Work/DeviceTester/amazon-freertos/lib/third_party/mcu_vendor/renesas/rz_mcu_boards/core_package/generate/os_abstraction/src\r_os_abstraction_api.c ****         case eReady:
 651:D:/Work/DeviceTester/amazon-freertos/lib/third_party/mcu_vendor/renesas/rz_mcu_boards/core_package/generate/os_abstraction/src\r_os_abstraction_api.c ****         case eRunning:
 652:D:/Work/DeviceTester/amazon-freertos/lib/third_party/mcu_vendor/renesas/rz_mcu_boards/core_package/generate/os_abstraction/src\r_os_abstraction_api.c ****         case eBlocked:
 653:D:/Work/DeviceTester/amazon-freertos/lib/third_party/mcu_vendor/renesas/rz_mcu_boards/core_package/generate/os_abstraction/src\r_os_abstraction_api.c ****         {
 654:D:/Work/DeviceTester/amazon-freertos/lib/third_party/mcu_vendor/renesas/rz_mcu_boards/core_package/generate/os_abstraction/src\r_os_abstraction_api.c ****             vTaskSuspend(p_task);
 548              		.loc 1 654 0
 549 0014 0400A0E1 		mov	r0, r4
 550 0018 FEFFFFEB 		bl	vTaskSuspend
 551              	.LVL40:
 655:D:/Work/DeviceTester/amazon-freertos/lib/third_party/mcu_vendor/renesas/rz_mcu_boards/core_package/generate/os_abstraction/src\r_os_abstraction_api.c ****             ret = true;
 552              		.loc 1 655 0
 553 001c 0100A0E3 		mov	r0, #1
 656:D:/Work/DeviceTester/amazon-freertos/lib/third_party/mcu_vendor/renesas/rz_mcu_boards/core_package/generate/os_abstraction/src\r_os_abstraction_api.c ****             break;
 554              		.loc 1 656 0
 555 0020 1080BDE8 		pop	{r4, pc}
 556              	.LVL41:
 557              	.L47:
 657:D:/Work/DeviceTester/amazon-freertos/lib/third_party/mcu_vendor/renesas/rz_mcu_boards/core_package/generate/os_abstraction/src\r_os_abstraction_api.c ****         }
 658:D:/Work/DeviceTester/amazon-freertos/lib/third_party/mcu_vendor/renesas/rz_mcu_boards/core_package/generate/os_abstraction/src\r_os_abstraction_api.c **** 
 659:D:/Work/DeviceTester/amazon-freertos/lib/third_party/mcu_vendor/renesas/rz_mcu_boards/core_package/generate/os_abstraction/src\r_os_abstraction_api.c ****         default:
 660:D:/Work/DeviceTester/amazon-freertos/lib/third_party/mcu_vendor/renesas/rz_mcu_boards/core_package/generate/os_abstraction/src\r_os_abstraction_api.c ****         case eDeleted:
 661:D:/Work/DeviceTester/amazon-freertos/lib/third_party/mcu_vendor/renesas/rz_mcu_boards/core_package/generate/os_abstraction/src\r_os_abstraction_api.c ****         case eSuspended:
 662:D:/Work/DeviceTester/amazon-freertos/lib/third_party/mcu_vendor/renesas/rz_mcu_boards/core_package/generate/os_abstraction/src\r_os_abstraction_api.c ****         {
 663:D:/Work/DeviceTester/amazon-freertos/lib/third_party/mcu_vendor/renesas/rz_mcu_boards/core_package/generate/os_abstraction/src\r_os_abstraction_api.c ****             ret = false;
 558              		.loc 1 663 0
 559 0024 0000A0E3 		mov	r0, #0
 560              	.LVL42:
 664:D:/Work/DeviceTester/amazon-freertos/lib/third_party/mcu_vendor/renesas/rz_mcu_boards/core_package/generate/os_abstraction/src\r_os_abstraction_api.c ****         }
 665:D:/Work/DeviceTester/amazon-freertos/lib/third_party/mcu_vendor/renesas/rz_mcu_boards/core_package/generate/os_abstraction/src\r_os_abstraction_api.c ****     }
 666:D:/Work/DeviceTester/amazon-freertos/lib/third_party/mcu_vendor/renesas/rz_mcu_boards/core_package/generate/os_abstraction/src\r_os_abstraction_api.c ****     return (ret);
 667:D:/Work/DeviceTester/amazon-freertos/lib/third_party/mcu_vendor/renesas/rz_mcu_boards/core_package/generate/os_abstraction/src\r_os_abstraction_api.c **** }
 561              		.loc 1 667 0
 562 0028 1080BDE8 		pop	{r4, pc}
 563              		.cfi_endproc
 564              	.LFE17:
 566              		.section	.text.R_OS_TaskResume,"ax",%progbits
 567              		.align	2
 568              		.global	R_OS_TaskResume
 569              		.syntax unified
 570              		.arm
 571              		.fpu neon
 573              	R_OS_TaskResume:
 574              	.LFB18:
 668:D:/Work/DeviceTester/amazon-freertos/lib/third_party/mcu_vendor/renesas/rz_mcu_boards/core_package/generate/os_abstraction/src\r_os_abstraction_api.c **** /**************************************************************************************************
 669:D:/Work/DeviceTester/amazon-freertos/lib/third_party/mcu_vendor/renesas/rz_mcu_boards/core_package/generate/os_abstraction/src\r_os_abstraction_api.c ****  End of function R_OS_TaskSuspend
 670:D:/Work/DeviceTester/amazon-freertos/lib/third_party/mcu_vendor/renesas/rz_mcu_boards/core_package/generate/os_abstraction/src\r_os_abstraction_api.c ****  **************************************************************************************************
 671:D:/Work/DeviceTester/amazon-freertos/lib/third_party/mcu_vendor/renesas/rz_mcu_boards/core_package/generate/os_abstraction/src\r_os_abstraction_api.c **** 
 672:D:/Work/DeviceTester/amazon-freertos/lib/third_party/mcu_vendor/renesas/rz_mcu_boards/core_package/generate/os_abstraction/src\r_os_abstraction_api.c **** /**************************************************************************************************
 673:D:/Work/DeviceTester/amazon-freertos/lib/third_party/mcu_vendor/renesas/rz_mcu_boards/core_package/generate/os_abstraction/src\r_os_abstraction_api.c ****  * Function Name: R_OS_TaskResume
 674:D:/Work/DeviceTester/amazon-freertos/lib/third_party/mcu_vendor/renesas/rz_mcu_boards/core_package/generate/os_abstraction/src\r_os_abstraction_api.c ****  * Description  : Resume the task
 675:D:/Work/DeviceTester/amazon-freertos/lib/third_party/mcu_vendor/renesas/rz_mcu_boards/core_package/generate/os_abstraction/src\r_os_abstraction_api.c ****  * Arguments    : p_task - pointer to task, NULL deletes the current task
 676:D:/Work/DeviceTester/amazon-freertos/lib/third_party/mcu_vendor/renesas/rz_mcu_boards/core_package/generate/os_abstraction/src\r_os_abstraction_api.c ****  * Return Value : none
 677:D:/Work/DeviceTester/amazon-freertos/lib/third_party/mcu_vendor/renesas/rz_mcu_boards/core_package/generate/os_abstraction/src\r_os_abstraction_api.c ****  **************************************************************************************************
 678:D:/Work/DeviceTester/amazon-freertos/lib/third_party/mcu_vendor/renesas/rz_mcu_boards/core_package/generate/os_abstraction/src\r_os_abstraction_api.c **** bool_t R_OS_TaskResume (os_task_t *p_task)
 679:D:/Work/DeviceTester/amazon-freertos/lib/third_party/mcu_vendor/renesas/rz_mcu_boards/core_package/generate/os_abstraction/src\r_os_abstraction_api.c **** {
 575              		.loc 1 679 0
 576              		.cfi_startproc
 577              		@ args = 0, pretend = 0, frame = 0
 578              		@ frame_needed = 0, uses_anonymous_args = 0
 579              	.LVL43:
 580 0000 10402DE9 		push	{r4, lr}
 581              		.cfi_def_cfa_offset 8
 582              		.cfi_offset 4, -8
 583              		.cfi_offset 14, -4
 584              		.loc 1 679 0
 585 0004 0040A0E1 		mov	r4, r0
 680:D:/Work/DeviceTester/amazon-freertos/lib/third_party/mcu_vendor/renesas/rz_mcu_boards/core_package/generate/os_abstraction/src\r_os_abstraction_api.c ****     bool_t ret;
 681:D:/Work/DeviceTester/amazon-freertos/lib/third_party/mcu_vendor/renesas/rz_mcu_boards/core_package/generate/os_abstraction/src\r_os_abstraction_api.c **** 
 682:D:/Work/DeviceTester/amazon-freertos/lib/third_party/mcu_vendor/renesas/rz_mcu_boards/core_package/generate/os_abstraction/src\r_os_abstraction_api.c ****     switch (eTaskGetState(p_task))
 586              		.loc 1 682 0
 587 0008 FEFFFFEB 		bl	eTaskGetState
 588              	.LVL44:
 589 000c 030050E3 		cmp	r0, #3
 590 0010 0300001A 		bne	.L53
 683:D:/Work/DeviceTester/amazon-freertos/lib/third_party/mcu_vendor/renesas/rz_mcu_boards/core_package/generate/os_abstraction/src\r_os_abstraction_api.c ****     {
 684:D:/Work/DeviceTester/amazon-freertos/lib/third_party/mcu_vendor/renesas/rz_mcu_boards/core_package/generate/os_abstraction/src\r_os_abstraction_api.c ****         default:
 685:D:/Work/DeviceTester/amazon-freertos/lib/third_party/mcu_vendor/renesas/rz_mcu_boards/core_package/generate/os_abstraction/src\r_os_abstraction_api.c ****         case eReady:
 686:D:/Work/DeviceTester/amazon-freertos/lib/third_party/mcu_vendor/renesas/rz_mcu_boards/core_package/generate/os_abstraction/src\r_os_abstraction_api.c ****         case eRunning:
 687:D:/Work/DeviceTester/amazon-freertos/lib/third_party/mcu_vendor/renesas/rz_mcu_boards/core_package/generate/os_abstraction/src\r_os_abstraction_api.c ****         case eBlocked:
 688:D:/Work/DeviceTester/amazon-freertos/lib/third_party/mcu_vendor/renesas/rz_mcu_boards/core_package/generate/os_abstraction/src\r_os_abstraction_api.c ****         case eDeleted:
 689:D:/Work/DeviceTester/amazon-freertos/lib/third_party/mcu_vendor/renesas/rz_mcu_boards/core_package/generate/os_abstraction/src\r_os_abstraction_api.c ****         {
 690:D:/Work/DeviceTester/amazon-freertos/lib/third_party/mcu_vendor/renesas/rz_mcu_boards/core_package/generate/os_abstraction/src\r_os_abstraction_api.c ****             ret = false;
 691:D:/Work/DeviceTester/amazon-freertos/lib/third_party/mcu_vendor/renesas/rz_mcu_boards/core_package/generate/os_abstraction/src\r_os_abstraction_api.c ****             break;
 692:D:/Work/DeviceTester/amazon-freertos/lib/third_party/mcu_vendor/renesas/rz_mcu_boards/core_package/generate/os_abstraction/src\r_os_abstraction_api.c ****         }
 693:D:/Work/DeviceTester/amazon-freertos/lib/third_party/mcu_vendor/renesas/rz_mcu_boards/core_package/generate/os_abstraction/src\r_os_abstraction_api.c **** 
 694:D:/Work/DeviceTester/amazon-freertos/lib/third_party/mcu_vendor/renesas/rz_mcu_boards/core_package/generate/os_abstraction/src\r_os_abstraction_api.c ****         case eSuspended:
 695:D:/Work/DeviceTester/amazon-freertos/lib/third_party/mcu_vendor/renesas/rz_mcu_boards/core_package/generate/os_abstraction/src\r_os_abstraction_api.c ****         {
 696:D:/Work/DeviceTester/amazon-freertos/lib/third_party/mcu_vendor/renesas/rz_mcu_boards/core_package/generate/os_abstraction/src\r_os_abstraction_api.c ****             vTaskResume(p_task);
 591              		.loc 1 696 0
 592 0014 0400A0E1 		mov	r0, r4
 593 0018 FEFFFFEB 		bl	vTaskResume
 594              	.LVL45:
 697:D:/Work/DeviceTester/amazon-freertos/lib/third_party/mcu_vendor/renesas/rz_mcu_boards/core_package/generate/os_abstraction/src\r_os_abstraction_api.c ****             ret = true;
 595              		.loc 1 697 0
 596 001c 0100A0E3 		mov	r0, #1
 597 0020 1080BDE8 		pop	{r4, pc}
 598              	.LVL46:
 599              	.L53:
 690:D:/Work/DeviceTester/amazon-freertos/lib/third_party/mcu_vendor/renesas/rz_mcu_boards/core_package/generate/os_abstraction/src\r_os_abstraction_api.c ****             break;
 600              		.loc 1 690 0
 601 0024 0000A0E3 		mov	r0, #0
 602              	.LVL47:
 698:D:/Work/DeviceTester/amazon-freertos/lib/third_party/mcu_vendor/renesas/rz_mcu_boards/core_package/generate/os_abstraction/src\r_os_abstraction_api.c ****         }
 699:D:/Work/DeviceTester/amazon-freertos/lib/third_party/mcu_vendor/renesas/rz_mcu_boards/core_package/generate/os_abstraction/src\r_os_abstraction_api.c ****     }
 700:D:/Work/DeviceTester/amazon-freertos/lib/third_party/mcu_vendor/renesas/rz_mcu_boards/core_package/generate/os_abstraction/src\r_os_abstraction_api.c ****     return (ret);
 701:D:/Work/DeviceTester/amazon-freertos/lib/third_party/mcu_vendor/renesas/rz_mcu_boards/core_package/generate/os_abstraction/src\r_os_abstraction_api.c **** }
 603              		.loc 1 701 0
 604 0028 1080BDE8 		pop	{r4, pc}
 605              		.cfi_endproc
 606              	.LFE18:
 608              		.section	.text.R_OS_TasksSuspendAll,"ax",%progbits
 609              		.align	2
 610              		.global	R_OS_TasksSuspendAll
 611              		.syntax unified
 612              		.arm
 613              		.fpu neon
 615              	R_OS_TasksSuspendAll:
 616              	.LFB19:
 702:D:/Work/DeviceTester/amazon-freertos/lib/third_party/mcu_vendor/renesas/rz_mcu_boards/core_package/generate/os_abstraction/src\r_os_abstraction_api.c **** /**************************************************************************************************
 703:D:/Work/DeviceTester/amazon-freertos/lib/third_party/mcu_vendor/renesas/rz_mcu_boards/core_package/generate/os_abstraction/src\r_os_abstraction_api.c ****  End of function R_OS_TaskResume
 704:D:/Work/DeviceTester/amazon-freertos/lib/third_party/mcu_vendor/renesas/rz_mcu_boards/core_package/generate/os_abstraction/src\r_os_abstraction_api.c ****  **************************************************************************************************
 705:D:/Work/DeviceTester/amazon-freertos/lib/third_party/mcu_vendor/renesas/rz_mcu_boards/core_package/generate/os_abstraction/src\r_os_abstraction_api.c **** 
 706:D:/Work/DeviceTester/amazon-freertos/lib/third_party/mcu_vendor/renesas/rz_mcu_boards/core_package/generate/os_abstraction/src\r_os_abstraction_api.c **** /**************************************************************************************************
 707:D:/Work/DeviceTester/amazon-freertos/lib/third_party/mcu_vendor/renesas/rz_mcu_boards/core_package/generate/os_abstraction/src\r_os_abstraction_api.c ****  * Function Name: R_OS_TasksSuspendAll
 708:D:/Work/DeviceTester/amazon-freertos/lib/third_party/mcu_vendor/renesas/rz_mcu_boards/core_package/generate/os_abstraction/src\r_os_abstraction_api.c ****  * Description  : Suspend all tasks, only attempted if the operating system is running
 709:D:/Work/DeviceTester/amazon-freertos/lib/third_party/mcu_vendor/renesas/rz_mcu_boards/core_package/generate/os_abstraction/src\r_os_abstraction_api.c ****  * Arguments    : none
 710:D:/Work/DeviceTester/amazon-freertos/lib/third_party/mcu_vendor/renesas/rz_mcu_boards/core_package/generate/os_abstraction/src\r_os_abstraction_api.c ****  * Return Value : none
 711:D:/Work/DeviceTester/amazon-freertos/lib/third_party/mcu_vendor/renesas/rz_mcu_boards/core_package/generate/os_abstraction/src\r_os_abstraction_api.c ****  **************************************************************************************************
 712:D:/Work/DeviceTester/amazon-freertos/lib/third_party/mcu_vendor/renesas/rz_mcu_boards/core_package/generate/os_abstraction/src\r_os_abstraction_api.c **** void R_OS_TasksSuspendAll (void)
 713:D:/Work/DeviceTester/amazon-freertos/lib/third_party/mcu_vendor/renesas/rz_mcu_boards/core_package/generate/os_abstraction/src\r_os_abstraction_api.c **** {
 617              		.loc 1 713 0
 618              		.cfi_startproc
 619              		@ args = 0, pretend = 0, frame = 0
 620              		@ frame_needed = 0, uses_anonymous_args = 0
 621 0000 10402DE9 		push	{r4, lr}
 622              		.cfi_def_cfa_offset 8
 623              		.cfi_offset 4, -8
 624              		.cfi_offset 14, -4
 714:D:/Work/DeviceTester/amazon-freertos/lib/third_party/mcu_vendor/renesas/rz_mcu_boards/core_package/generate/os_abstraction/src\r_os_abstraction_api.c ****     /* Make sure the operating system is running */
 715:D:/Work/DeviceTester/amazon-freertos/lib/third_party/mcu_vendor/renesas/rz_mcu_boards/core_package/generate/os_abstraction/src\r_os_abstraction_api.c ****     if (xTaskGetSchedulerState() == taskSCHEDULER_RUNNING)
 625              		.loc 1 715 0
 626 0004 FEFFFFEB 		bl	xTaskGetSchedulerState
 627              	.LVL48:
 628 0008 020050E3 		cmp	r0, #2
 629 000c 1080BD18 		popne	{r4, pc}
 716:D:/Work/DeviceTester/amazon-freertos/lib/third_party/mcu_vendor/renesas/rz_mcu_boards/core_package/generate/os_abstraction/src\r_os_abstraction_api.c ****     {
 717:D:/Work/DeviceTester/amazon-freertos/lib/third_party/mcu_vendor/renesas/rz_mcu_boards/core_package/generate/os_abstraction/src\r_os_abstraction_api.c ****         /* Suspend all tasks */
 718:D:/Work/DeviceTester/amazon-freertos/lib/third_party/mcu_vendor/renesas/rz_mcu_boards/core_package/generate/os_abstraction/src\r_os_abstraction_api.c ****         vTaskSuspendAll();
 719:D:/Work/DeviceTester/amazon-freertos/lib/third_party/mcu_vendor/renesas/rz_mcu_boards/core_package/generate/os_abstraction/src\r_os_abstraction_api.c ****     }
 720:D:/Work/DeviceTester/amazon-freertos/lib/third_party/mcu_vendor/renesas/rz_mcu_boards/core_package/generate/os_abstraction/src\r_os_abstraction_api.c **** }
 630              		.loc 1 720 0
 631 0010 1040BDE8 		pop	{r4, lr}
 632              		.cfi_restore 14
 633              		.cfi_restore 4
 634              		.cfi_def_cfa_offset 0
 718:D:/Work/DeviceTester/amazon-freertos/lib/third_party/mcu_vendor/renesas/rz_mcu_boards/core_package/generate/os_abstraction/src\r_os_abstraction_api.c ****     }
 635              		.loc 1 718 0
 636 0014 FEFFFFEA 		b	vTaskSuspendAll
 637              	.LVL49:
 638              		.cfi_endproc
 639              	.LFE19:
 641              		.section	.text.R_OS_TasksResumeAll,"ax",%progbits
 642              		.align	2
 643              		.global	R_OS_TasksResumeAll
 644              		.syntax unified
 645              		.arm
 646              		.fpu neon
 648              	R_OS_TasksResumeAll:
 649              	.LFB20:
 721:D:/Work/DeviceTester/amazon-freertos/lib/third_party/mcu_vendor/renesas/rz_mcu_boards/core_package/generate/os_abstraction/src\r_os_abstraction_api.c **** /**************************************************************************************************
 722:D:/Work/DeviceTester/amazon-freertos/lib/third_party/mcu_vendor/renesas/rz_mcu_boards/core_package/generate/os_abstraction/src\r_os_abstraction_api.c ****  End of function R_OS_TasksSuspendAll
 723:D:/Work/DeviceTester/amazon-freertos/lib/third_party/mcu_vendor/renesas/rz_mcu_boards/core_package/generate/os_abstraction/src\r_os_abstraction_api.c ****  **************************************************************************************************
 724:D:/Work/DeviceTester/amazon-freertos/lib/third_party/mcu_vendor/renesas/rz_mcu_boards/core_package/generate/os_abstraction/src\r_os_abstraction_api.c **** 
 725:D:/Work/DeviceTester/amazon-freertos/lib/third_party/mcu_vendor/renesas/rz_mcu_boards/core_package/generate/os_abstraction/src\r_os_abstraction_api.c **** /**************************************************************************************************
 726:D:/Work/DeviceTester/amazon-freertos/lib/third_party/mcu_vendor/renesas/rz_mcu_boards/core_package/generate/os_abstraction/src\r_os_abstraction_api.c ****  * Function Name: R_OS_TasksResumeAll
 727:D:/Work/DeviceTester/amazon-freertos/lib/third_party/mcu_vendor/renesas/rz_mcu_boards/core_package/generate/os_abstraction/src\r_os_abstraction_api.c ****  * Description  : Resume all tasks, only attempted if the operating system is running
 728:D:/Work/DeviceTester/amazon-freertos/lib/third_party/mcu_vendor/renesas/rz_mcu_boards/core_package/generate/os_abstraction/src\r_os_abstraction_api.c ****  * Arguments    : none
 729:D:/Work/DeviceTester/amazon-freertos/lib/third_party/mcu_vendor/renesas/rz_mcu_boards/core_package/generate/os_abstraction/src\r_os_abstraction_api.c ****  * Return Value : none
 730:D:/Work/DeviceTester/amazon-freertos/lib/third_party/mcu_vendor/renesas/rz_mcu_boards/core_package/generate/os_abstraction/src\r_os_abstraction_api.c ****  **************************************************************************************************
 731:D:/Work/DeviceTester/amazon-freertos/lib/third_party/mcu_vendor/renesas/rz_mcu_boards/core_package/generate/os_abstraction/src\r_os_abstraction_api.c **** void R_OS_TasksResumeAll (void)
 732:D:/Work/DeviceTester/amazon-freertos/lib/third_party/mcu_vendor/renesas/rz_mcu_boards/core_package/generate/os_abstraction/src\r_os_abstraction_api.c **** {
 650              		.loc 1 732 0
 651              		.cfi_startproc
 652              		@ args = 0, pretend = 0, frame = 0
 653              		@ frame_needed = 0, uses_anonymous_args = 0
 654 0000 10402DE9 		push	{r4, lr}
 655              		.cfi_def_cfa_offset 8
 656              		.cfi_offset 4, -8
 657              		.cfi_offset 14, -4
 733:D:/Work/DeviceTester/amazon-freertos/lib/third_party/mcu_vendor/renesas/rz_mcu_boards/core_package/generate/os_abstraction/src\r_os_abstraction_api.c ****     /* Make sure the operating system is running */
 734:D:/Work/DeviceTester/amazon-freertos/lib/third_party/mcu_vendor/renesas/rz_mcu_boards/core_package/generate/os_abstraction/src\r_os_abstraction_api.c ****     if (xTaskGetSchedulerState() == taskSCHEDULER_SUSPENDED)
 658              		.loc 1 734 0
 659 0004 FEFFFFEB 		bl	xTaskGetSchedulerState
 660              	.LVL50:
 661 0008 000050E3 		cmp	r0, #0
 662 000c 1080BD18 		popne	{r4, pc}
 735:D:/Work/DeviceTester/amazon-freertos/lib/third_party/mcu_vendor/renesas/rz_mcu_boards/core_package/generate/os_abstraction/src\r_os_abstraction_api.c ****     {
 736:D:/Work/DeviceTester/amazon-freertos/lib/third_party/mcu_vendor/renesas/rz_mcu_boards/core_package/generate/os_abstraction/src\r_os_abstraction_api.c ****         /* Resume all tasks */
 737:D:/Work/DeviceTester/amazon-freertos/lib/third_party/mcu_vendor/renesas/rz_mcu_boards/core_package/generate/os_abstraction/src\r_os_abstraction_api.c ****         xTaskResumeAll();
 738:D:/Work/DeviceTester/amazon-freertos/lib/third_party/mcu_vendor/renesas/rz_mcu_boards/core_package/generate/os_abstraction/src\r_os_abstraction_api.c ****     }
 739:D:/Work/DeviceTester/amazon-freertos/lib/third_party/mcu_vendor/renesas/rz_mcu_boards/core_package/generate/os_abstraction/src\r_os_abstraction_api.c **** }
 663              		.loc 1 739 0
 664 0010 1040BDE8 		pop	{r4, lr}
 665              		.cfi_restore 14
 666              		.cfi_restore 4
 667              		.cfi_def_cfa_offset 0
 737:D:/Work/DeviceTester/amazon-freertos/lib/third_party/mcu_vendor/renesas/rz_mcu_boards/core_package/generate/os_abstraction/src\r_os_abstraction_api.c ****     }
 668              		.loc 1 737 0
 669 0014 FEFFFFEA 		b	xTaskResumeAll
 670              	.LVL51:
 671              		.cfi_endproc
 672              	.LFE20:
 674              		.section	.text.R_OS_TasksGetNumber,"ax",%progbits
 675              		.align	2
 676              		.global	R_OS_TasksGetNumber
 677              		.syntax unified
 678              		.arm
 679              		.fpu neon
 681              	R_OS_TasksGetNumber:
 682              	.LFB21:
 740:D:/Work/DeviceTester/amazon-freertos/lib/third_party/mcu_vendor/renesas/rz_mcu_boards/core_package/generate/os_abstraction/src\r_os_abstraction_api.c **** /**************************************************************************************************
 741:D:/Work/DeviceTester/amazon-freertos/lib/third_party/mcu_vendor/renesas/rz_mcu_boards/core_package/generate/os_abstraction/src\r_os_abstraction_api.c ****  End of function R_OS_TasksResumeAll
 742:D:/Work/DeviceTester/amazon-freertos/lib/third_party/mcu_vendor/renesas/rz_mcu_boards/core_package/generate/os_abstraction/src\r_os_abstraction_api.c ****  **************************************************************************************************
 743:D:/Work/DeviceTester/amazon-freertos/lib/third_party/mcu_vendor/renesas/rz_mcu_boards/core_package/generate/os_abstraction/src\r_os_abstraction_api.c **** 
 744:D:/Work/DeviceTester/amazon-freertos/lib/third_party/mcu_vendor/renesas/rz_mcu_boards/core_package/generate/os_abstraction/src\r_os_abstraction_api.c **** /**************************************************************************************************
 745:D:/Work/DeviceTester/amazon-freertos/lib/third_party/mcu_vendor/renesas/rz_mcu_boards/core_package/generate/os_abstraction/src\r_os_abstraction_api.c ****  * Function Name: R_OS_TasksGetNumber
 746:D:/Work/DeviceTester/amazon-freertos/lib/third_party/mcu_vendor/renesas/rz_mcu_boards/core_package/generate/os_abstraction/src\r_os_abstraction_api.c ****  * Description  : Obtain total number of active tasks defined in the system, only attempted if the 
 747:D:/Work/DeviceTester/amazon-freertos/lib/third_party/mcu_vendor/renesas/rz_mcu_boards/core_package/generate/os_abstraction/src\r_os_abstraction_api.c ****  *                running
 748:D:/Work/DeviceTester/amazon-freertos/lib/third_party/mcu_vendor/renesas/rz_mcu_boards/core_package/generate/os_abstraction/src\r_os_abstraction_api.c ****  * Arguments    : none
 749:D:/Work/DeviceTester/amazon-freertos/lib/third_party/mcu_vendor/renesas/rz_mcu_boards/core_package/generate/os_abstraction/src\r_os_abstraction_api.c ****  * Return Value : none
 750:D:/Work/DeviceTester/amazon-freertos/lib/third_party/mcu_vendor/renesas/rz_mcu_boards/core_package/generate/os_abstraction/src\r_os_abstraction_api.c ****  **************************************************************************************************
 751:D:/Work/DeviceTester/amazon-freertos/lib/third_party/mcu_vendor/renesas/rz_mcu_boards/core_package/generate/os_abstraction/src\r_os_abstraction_api.c **** uint32_t R_OS_TasksGetNumber (void)
 752:D:/Work/DeviceTester/amazon-freertos/lib/third_party/mcu_vendor/renesas/rz_mcu_boards/core_package/generate/os_abstraction/src\r_os_abstraction_api.c **** {
 683              		.loc 1 752 0
 684              		.cfi_startproc
 685              		@ args = 0, pretend = 0, frame = 0
 686              		@ frame_needed = 0, uses_anonymous_args = 0
 687              	.LVL52:
 688 0000 10402DE9 		push	{r4, lr}
 689              		.cfi_def_cfa_offset 8
 690              		.cfi_offset 4, -8
 691              		.cfi_offset 14, -4
 753:D:/Work/DeviceTester/amazon-freertos/lib/third_party/mcu_vendor/renesas/rz_mcu_boards/core_package/generate/os_abstraction/src\r_os_abstraction_api.c ****     uint32_t num_tasks = 0;
 754:D:/Work/DeviceTester/amazon-freertos/lib/third_party/mcu_vendor/renesas/rz_mcu_boards/core_package/generate/os_abstraction/src\r_os_abstraction_api.c **** 
 755:D:/Work/DeviceTester/amazon-freertos/lib/third_party/mcu_vendor/renesas/rz_mcu_boards/core_package/generate/os_abstraction/src\r_os_abstraction_api.c ****     /* Make sure the operating system is running */
 756:D:/Work/DeviceTester/amazon-freertos/lib/third_party/mcu_vendor/renesas/rz_mcu_boards/core_package/generate/os_abstraction/src\r_os_abstraction_api.c ****     if (xTaskGetSchedulerState() != taskSCHEDULER_NOT_STARTED)
 692              		.loc 1 756 0
 693 0004 FEFFFFEB 		bl	xTaskGetSchedulerState
 694              	.LVL53:
 695 0008 010050E3 		cmp	r0, #1
 696 000c 0100000A 		beq	.L62
 757:D:/Work/DeviceTester/amazon-freertos/lib/third_party/mcu_vendor/renesas/rz_mcu_boards/core_package/generate/os_abstraction/src\r_os_abstraction_api.c ****     {
 758:D:/Work/DeviceTester/amazon-freertos/lib/third_party/mcu_vendor/renesas/rz_mcu_boards/core_package/generate/os_abstraction/src\r_os_abstraction_api.c ****         /* use FreeRTOS call to obtain information */
 759:D:/Work/DeviceTester/amazon-freertos/lib/third_party/mcu_vendor/renesas/rz_mcu_boards/core_package/generate/os_abstraction/src\r_os_abstraction_api.c ****         num_tasks = uxTaskGetNumberOfTasks();
 760:D:/Work/DeviceTester/amazon-freertos/lib/third_party/mcu_vendor/renesas/rz_mcu_boards/core_package/generate/os_abstraction/src\r_os_abstraction_api.c ****     }
 761:D:/Work/DeviceTester/amazon-freertos/lib/third_party/mcu_vendor/renesas/rz_mcu_boards/core_package/generate/os_abstraction/src\r_os_abstraction_api.c ****     return (num_tasks);
 762:D:/Work/DeviceTester/amazon-freertos/lib/third_party/mcu_vendor/renesas/rz_mcu_boards/core_package/generate/os_abstraction/src\r_os_abstraction_api.c **** }
 697              		.loc 1 762 0
 698 0010 1040BDE8 		pop	{r4, lr}
 699              		.cfi_remember_state
 700              		.cfi_restore 14
 701              		.cfi_restore 4
 702              		.cfi_def_cfa_offset 0
 759:D:/Work/DeviceTester/amazon-freertos/lib/third_party/mcu_vendor/renesas/rz_mcu_boards/core_package/generate/os_abstraction/src\r_os_abstraction_api.c ****     }
 703              		.loc 1 759 0
 704 0014 FEFFFFEA 		b	uxTaskGetNumberOfTasks
 705              	.LVL54:
 706              	.L62:
 707              		.cfi_restore_state
 708              		.loc 1 762 0
 709 0018 0000A0E3 		mov	r0, #0
 710 001c 1080BDE8 		pop	{r4, pc}
 711              		.cfi_endproc
 712              	.LFE21:
 714              		.section	.text.R_OS_TaskUsesFloatingPoint,"ax",%progbits
 715              		.align	2
 716              		.global	R_OS_TaskUsesFloatingPoint
 717              		.syntax unified
 718              		.arm
 719              		.fpu neon
 721              	R_OS_TaskUsesFloatingPoint:
 722              	.LFB22:
 763:D:/Work/DeviceTester/amazon-freertos/lib/third_party/mcu_vendor/renesas/rz_mcu_boards/core_package/generate/os_abstraction/src\r_os_abstraction_api.c **** /**************************************************************************************************
 764:D:/Work/DeviceTester/amazon-freertos/lib/third_party/mcu_vendor/renesas/rz_mcu_boards/core_package/generate/os_abstraction/src\r_os_abstraction_api.c ****  End of function R_OS_TasksGetNumber
 765:D:/Work/DeviceTester/amazon-freertos/lib/third_party/mcu_vendor/renesas/rz_mcu_boards/core_package/generate/os_abstraction/src\r_os_abstraction_api.c ****  **************************************************************************************************
 766:D:/Work/DeviceTester/amazon-freertos/lib/third_party/mcu_vendor/renesas/rz_mcu_boards/core_package/generate/os_abstraction/src\r_os_abstraction_api.c **** 
 767:D:/Work/DeviceTester/amazon-freertos/lib/third_party/mcu_vendor/renesas/rz_mcu_boards/core_package/generate/os_abstraction/src\r_os_abstraction_api.c **** /**************************************************************************************************
 768:D:/Work/DeviceTester/amazon-freertos/lib/third_party/mcu_vendor/renesas/rz_mcu_boards/core_package/generate/os_abstraction/src\r_os_abstraction_api.c ****  * Function Name: R_OS_TaskUsesFloatingPoint
 769:D:/Work/DeviceTester/amazon-freertos/lib/third_party/mcu_vendor/renesas/rz_mcu_boards/core_package/generate/os_abstraction/src\r_os_abstraction_api.c ****  * Description  : Enables tasks to use floating point variables.
 770:D:/Work/DeviceTester/amazon-freertos/lib/third_party/mcu_vendor/renesas/rz_mcu_boards/core_package/generate/os_abstraction/src\r_os_abstraction_api.c ****  * Arguments    : None
 771:D:/Work/DeviceTester/amazon-freertos/lib/third_party/mcu_vendor/renesas/rz_mcu_boards/core_package/generate/os_abstraction/src\r_os_abstraction_api.c ****  * Return Value : None
 772:D:/Work/DeviceTester/amazon-freertos/lib/third_party/mcu_vendor/renesas/rz_mcu_boards/core_package/generate/os_abstraction/src\r_os_abstraction_api.c ****  **************************************************************************************************
 773:D:/Work/DeviceTester/amazon-freertos/lib/third_party/mcu_vendor/renesas/rz_mcu_boards/core_package/generate/os_abstraction/src\r_os_abstraction_api.c **** void R_OS_TaskUsesFloatingPoint (void)
 774:D:/Work/DeviceTester/amazon-freertos/lib/third_party/mcu_vendor/renesas/rz_mcu_boards/core_package/generate/os_abstraction/src\r_os_abstraction_api.c **** {
 723              		.loc 1 774 0
 724              		.cfi_startproc
 725              		@ args = 0, pretend = 0, frame = 0
 726              		@ frame_needed = 0, uses_anonymous_args = 0
 727              		@ link register save eliminated.
 775:D:/Work/DeviceTester/amazon-freertos/lib/third_party/mcu_vendor/renesas/rz_mcu_boards/core_package/generate/os_abstraction/src\r_os_abstraction_api.c ****     portTASK_USES_FLOATING_POINT();
 728              		.loc 1 775 0
 729 0000 FEFFFFEA 		b	vPortTaskUsesFPU
 730              	.LVL55:
 731              		.cfi_endproc
 732              	.LFE22:
 734              		.section	.text.R_OS_TaskGetPriority,"ax",%progbits
 735              		.align	2
 736              		.global	R_OS_TaskGetPriority
 737              		.syntax unified
 738              		.arm
 739              		.fpu neon
 741              	R_OS_TaskGetPriority:
 742              	.LFB23:
 776:D:/Work/DeviceTester/amazon-freertos/lib/third_party/mcu_vendor/renesas/rz_mcu_boards/core_package/generate/os_abstraction/src\r_os_abstraction_api.c **** }
 777:D:/Work/DeviceTester/amazon-freertos/lib/third_party/mcu_vendor/renesas/rz_mcu_boards/core_package/generate/os_abstraction/src\r_os_abstraction_api.c **** /**************************************************************************************************
 778:D:/Work/DeviceTester/amazon-freertos/lib/third_party/mcu_vendor/renesas/rz_mcu_boards/core_package/generate/os_abstraction/src\r_os_abstraction_api.c ****  End of function R_OS_TaskUsesFloatingPoint
 779:D:/Work/DeviceTester/amazon-freertos/lib/third_party/mcu_vendor/renesas/rz_mcu_boards/core_package/generate/os_abstraction/src\r_os_abstraction_api.c ****  **************************************************************************************************
 780:D:/Work/DeviceTester/amazon-freertos/lib/third_party/mcu_vendor/renesas/rz_mcu_boards/core_package/generate/os_abstraction/src\r_os_abstraction_api.c **** 
 781:D:/Work/DeviceTester/amazon-freertos/lib/third_party/mcu_vendor/renesas/rz_mcu_boards/core_package/generate/os_abstraction/src\r_os_abstraction_api.c **** /**************************************************************************************************
 782:D:/Work/DeviceTester/amazon-freertos/lib/third_party/mcu_vendor/renesas/rz_mcu_boards/core_package/generate/os_abstraction/src\r_os_abstraction_api.c ****  Function Name: R_OS_TaskGetPriority
 783:D:/Work/DeviceTester/amazon-freertos/lib/third_party/mcu_vendor/renesas/rz_mcu_boards/core_package/generate/os_abstraction/src\r_os_abstraction_api.c ****  Description:   Function to get the task priority
 784:D:/Work/DeviceTester/amazon-freertos/lib/third_party/mcu_vendor/renesas/rz_mcu_boards/core_package/generate/os_abstraction/src\r_os_abstraction_api.c ****  Arguments:     IN task_id - The ID of the task to get the priority of
 785:D:/Work/DeviceTester/amazon-freertos/lib/third_party/mcu_vendor/renesas/rz_mcu_boards/core_package/generate/os_abstraction/src\r_os_abstraction_api.c ****  Return value:  The priority of the task or -1U if not found
 786:D:/Work/DeviceTester/amazon-freertos/lib/third_party/mcu_vendor/renesas/rz_mcu_boards/core_package/generate/os_abstraction/src\r_os_abstraction_api.c ****  **************************************************************************************************
 787:D:/Work/DeviceTester/amazon-freertos/lib/third_party/mcu_vendor/renesas/rz_mcu_boards/core_package/generate/os_abstraction/src\r_os_abstraction_api.c **** int32_t R_OS_TaskGetPriority (uint32_t task_id)
 788:D:/Work/DeviceTester/amazon-freertos/lib/third_party/mcu_vendor/renesas/rz_mcu_boards/core_package/generate/os_abstraction/src\r_os_abstraction_api.c **** {
 743              		.loc 1 788 0
 744              		.cfi_startproc
 745              		@ args = 0, pretend = 0, frame = 0
 746              		@ frame_needed = 0, uses_anonymous_args = 0
 747              		@ link register save eliminated.
 748              	.LVL56:
 789:D:/Work/DeviceTester/amazon-freertos/lib/third_party/mcu_vendor/renesas/rz_mcu_boards/core_package/generate/os_abstraction/src\r_os_abstraction_api.c ****     /*Cast to task handle for FreeRTOS*/
 790:D:/Work/DeviceTester/amazon-freertos/lib/third_party/mcu_vendor/renesas/rz_mcu_boards/core_package/generate/os_abstraction/src\r_os_abstraction_api.c ****     if ((xTaskHandle) task_id != (xTaskHandle) NULL)
 749              		.loc 1 790 0
 750 0000 000050E3 		cmp	r0, #0
 751 0004 0000000A 		beq	.L66
 791:D:/Work/DeviceTester/amazon-freertos/lib/third_party/mcu_vendor/renesas/rz_mcu_boards/core_package/generate/os_abstraction/src\r_os_abstraction_api.c ****     {
 792:D:/Work/DeviceTester/amazon-freertos/lib/third_party/mcu_vendor/renesas/rz_mcu_boards/core_package/generate/os_abstraction/src\r_os_abstraction_api.c ****         /*Cast to int32_t for OS Abstraction*/
 793:D:/Work/DeviceTester/amazon-freertos/lib/third_party/mcu_vendor/renesas/rz_mcu_boards/core_package/generate/os_abstraction/src\r_os_abstraction_api.c ****         return ((int32_t) uxTaskPriorityGet((xTaskHandle) task_id));
 752              		.loc 1 793 0
 753 0008 FEFFFFEA 		b	uxTaskPriorityGet
 754              	.LVL57:
 755              	.L66:
 794:D:/Work/DeviceTester/amazon-freertos/lib/third_party/mcu_vendor/renesas/rz_mcu_boards/core_package/generate/os_abstraction/src\r_os_abstraction_api.c ****     }
 795:D:/Work/DeviceTester/amazon-freertos/lib/third_party/mcu_vendor/renesas/rz_mcu_boards/core_package/generate/os_abstraction/src\r_os_abstraction_api.c ****     else
 796:D:/Work/DeviceTester/amazon-freertos/lib/third_party/mcu_vendor/renesas/rz_mcu_boards/core_package/generate/os_abstraction/src\r_os_abstraction_api.c ****     {
 797:D:/Work/DeviceTester/amazon-freertos/lib/third_party/mcu_vendor/renesas/rz_mcu_boards/core_package/generate/os_abstraction/src\r_os_abstraction_api.c ****         return ( -1);
 798:D:/Work/DeviceTester/amazon-freertos/lib/third_party/mcu_vendor/renesas/rz_mcu_boards/core_package/generate/os_abstraction/src\r_os_abstraction_api.c ****     }
 799:D:/Work/DeviceTester/amazon-freertos/lib/third_party/mcu_vendor/renesas/rz_mcu_boards/core_package/generate/os_abstraction/src\r_os_abstraction_api.c **** }
 756              		.loc 1 799 0
 757 000c 0000E0E3 		mvn	r0, #0
 758              	.LVL58:
 759 0010 1EFF2FE1 		bx	lr
 760              		.cfi_endproc
 761              	.LFE23:
 763              		.section	.text.R_OS_TaskSetPriority,"ax",%progbits
 764              		.align	2
 765              		.global	R_OS_TaskSetPriority
 766              		.syntax unified
 767              		.arm
 768              		.fpu neon
 770              	R_OS_TaskSetPriority:
 771              	.LFB24:
 800:D:/Work/DeviceTester/amazon-freertos/lib/third_party/mcu_vendor/renesas/rz_mcu_boards/core_package/generate/os_abstraction/src\r_os_abstraction_api.c **** /**************************************************************************************************
 801:D:/Work/DeviceTester/amazon-freertos/lib/third_party/mcu_vendor/renesas/rz_mcu_boards/core_package/generate/os_abstraction/src\r_os_abstraction_api.c ****  End of function  R_OS_TaskGetPriority
 802:D:/Work/DeviceTester/amazon-freertos/lib/third_party/mcu_vendor/renesas/rz_mcu_boards/core_package/generate/os_abstraction/src\r_os_abstraction_api.c ****  **************************************************************************************************
 803:D:/Work/DeviceTester/amazon-freertos/lib/third_party/mcu_vendor/renesas/rz_mcu_boards/core_package/generate/os_abstraction/src\r_os_abstraction_api.c **** 
 804:D:/Work/DeviceTester/amazon-freertos/lib/third_party/mcu_vendor/renesas/rz_mcu_boards/core_package/generate/os_abstraction/src\r_os_abstraction_api.c **** /**************************************************************************************************
 805:D:/Work/DeviceTester/amazon-freertos/lib/third_party/mcu_vendor/renesas/rz_mcu_boards/core_package/generate/os_abstraction/src\r_os_abstraction_api.c ****  Function Name: R_OS_TaskSetPriority
 806:D:/Work/DeviceTester/amazon-freertos/lib/third_party/mcu_vendor/renesas/rz_mcu_boards/core_package/generate/os_abstraction/src\r_os_abstraction_api.c ****  Description:   Function to set the priority of a task
 807:D:/Work/DeviceTester/amazon-freertos/lib/third_party/mcu_vendor/renesas/rz_mcu_boards/core_package/generate/os_abstraction/src\r_os_abstraction_api.c ****  Arguments:     IN  task_id - The ID of the task to get the priority for
 808:D:/Work/DeviceTester/amazon-freertos/lib/third_party/mcu_vendor/renesas/rz_mcu_boards/core_package/generate/os_abstraction/src\r_os_abstraction_api.c ****  IN  uiPriority - The priority of the task
 809:D:/Work/DeviceTester/amazon-freertos/lib/third_party/mcu_vendor/renesas/rz_mcu_boards/core_package/generate/os_abstraction/src\r_os_abstraction_api.c ****  Return value:  true if the priority was set
 810:D:/Work/DeviceTester/amazon-freertos/lib/third_party/mcu_vendor/renesas/rz_mcu_boards/core_package/generate/os_abstraction/src\r_os_abstraction_api.c ****  **************************************************************************************************
 811:D:/Work/DeviceTester/amazon-freertos/lib/third_party/mcu_vendor/renesas/rz_mcu_boards/core_package/generate/os_abstraction/src\r_os_abstraction_api.c **** bool_t R_OS_TaskSetPriority (uint32_t task_id, uint32_t priority)
 812:D:/Work/DeviceTester/amazon-freertos/lib/third_party/mcu_vendor/renesas/rz_mcu_boards/core_package/generate/os_abstraction/src\r_os_abstraction_api.c **** {
 772              		.loc 1 812 0
 773              		.cfi_startproc
 774              		@ args = 0, pretend = 0, frame = 0
 775              		@ frame_needed = 0, uses_anonymous_args = 0
 776              	.LVL59:
 813:D:/Work/DeviceTester/amazon-freertos/lib/third_party/mcu_vendor/renesas/rz_mcu_boards/core_package/generate/os_abstraction/src\r_os_abstraction_api.c ****     bool_t ret_val = false;
 814:D:/Work/DeviceTester/amazon-freertos/lib/third_party/mcu_vendor/renesas/rz_mcu_boards/core_package/generate/os_abstraction/src\r_os_abstraction_api.c **** 
 815:D:/Work/DeviceTester/amazon-freertos/lib/third_party/mcu_vendor/renesas/rz_mcu_boards/core_package/generate/os_abstraction/src\r_os_abstraction_api.c ****     /*Cast to task handle for FreeRTOS*/
 816:D:/Work/DeviceTester/amazon-freertos/lib/third_party/mcu_vendor/renesas/rz_mcu_boards/core_package/generate/os_abstraction/src\r_os_abstraction_api.c ****     if ((xTaskHandle) task_id != (xTaskHandle) NULL)
 777              		.loc 1 816 0
 778 0000 003050E2 		subs	r3, r0, #0
 779 0004 0300000A 		beq	.L69
 812:D:/Work/DeviceTester/amazon-freertos/lib/third_party/mcu_vendor/renesas/rz_mcu_boards/core_package/generate/os_abstraction/src\r_os_abstraction_api.c ****     bool_t ret_val = false;
 780              		.loc 1 812 0
 781 0008 10402DE9 		push	{r4, lr}
 782              		.cfi_def_cfa_offset 8
 783              		.cfi_offset 4, -8
 784              		.cfi_offset 14, -4
 817:D:/Work/DeviceTester/amazon-freertos/lib/third_party/mcu_vendor/renesas/rz_mcu_boards/core_package/generate/os_abstraction/src\r_os_abstraction_api.c ****     {
 818:D:/Work/DeviceTester/amazon-freertos/lib/third_party/mcu_vendor/renesas/rz_mcu_boards/core_package/generate/os_abstraction/src\r_os_abstraction_api.c ****         /*Cast to task handle for FreeRTOS*/
 819:D:/Work/DeviceTester/amazon-freertos/lib/third_party/mcu_vendor/renesas/rz_mcu_boards/core_package/generate/os_abstraction/src\r_os_abstraction_api.c ****         vTaskPrioritySet((xTaskHandle) task_id, priority);
 785              		.loc 1 819 0
 786 000c FEFFFFEB 		bl	vTaskPrioritySet
 787              	.LVL60:
 820:D:/Work/DeviceTester/amazon-freertos/lib/third_party/mcu_vendor/renesas/rz_mcu_boards/core_package/generate/os_abstraction/src\r_os_abstraction_api.c ****         ret_val = true;
 788              		.loc 1 820 0
 789 0010 0100A0E3 		mov	r0, #1
 790 0014 1080BDE8 		pop	{r4, pc}
 791              	.LVL61:
 792              	.L69:
 793              		.cfi_def_cfa_offset 0
 794              		.cfi_restore 4
 795              		.cfi_restore 14
 821:D:/Work/DeviceTester/amazon-freertos/lib/third_party/mcu_vendor/renesas/rz_mcu_boards/core_package/generate/os_abstraction/src\r_os_abstraction_api.c ****     }
 822:D:/Work/DeviceTester/amazon-freertos/lib/third_party/mcu_vendor/renesas/rz_mcu_boards/core_package/generate/os_abstraction/src\r_os_abstraction_api.c ****     else
 823:D:/Work/DeviceTester/amazon-freertos/lib/third_party/mcu_vendor/renesas/rz_mcu_boards/core_package/generate/os_abstraction/src\r_os_abstraction_api.c ****     {
 824:D:/Work/DeviceTester/amazon-freertos/lib/third_party/mcu_vendor/renesas/rz_mcu_boards/core_package/generate/os_abstraction/src\r_os_abstraction_api.c ****         ret_val = false;
 796              		.loc 1 824 0
 797 0018 0300A0E1 		mov	r0, r3
 798              	.LVL62:
 825:D:/Work/DeviceTester/amazon-freertos/lib/third_party/mcu_vendor/renesas/rz_mcu_boards/core_package/generate/os_abstraction/src\r_os_abstraction_api.c ****     }
 826:D:/Work/DeviceTester/amazon-freertos/lib/third_party/mcu_vendor/renesas/rz_mcu_boards/core_package/generate/os_abstraction/src\r_os_abstraction_api.c **** 
 827:D:/Work/DeviceTester/amazon-freertos/lib/third_party/mcu_vendor/renesas/rz_mcu_boards/core_package/generate/os_abstraction/src\r_os_abstraction_api.c ****     return (ret_val);
 799              		.loc 1 827 0
 800 001c 1EFF2FE1 		bx	lr
 801              		.cfi_endproc
 802              	.LFE24:
 804              		.section	.text.R_OS_TaskGetCurrentHandle,"ax",%progbits
 805              		.align	2
 806              		.global	R_OS_TaskGetCurrentHandle
 807              		.syntax unified
 808              		.arm
 809              		.fpu neon
 811              	R_OS_TaskGetCurrentHandle:
 812              	.LFB25:
 828:D:/Work/DeviceTester/amazon-freertos/lib/third_party/mcu_vendor/renesas/rz_mcu_boards/core_package/generate/os_abstraction/src\r_os_abstraction_api.c **** }
 829:D:/Work/DeviceTester/amazon-freertos/lib/third_party/mcu_vendor/renesas/rz_mcu_boards/core_package/generate/os_abstraction/src\r_os_abstraction_api.c **** /**************************************************************************************************
 830:D:/Work/DeviceTester/amazon-freertos/lib/third_party/mcu_vendor/renesas/rz_mcu_boards/core_package/generate/os_abstraction/src\r_os_abstraction_api.c ****  End of function  R_OS_TaskSetPriority
 831:D:/Work/DeviceTester/amazon-freertos/lib/third_party/mcu_vendor/renesas/rz_mcu_boards/core_package/generate/os_abstraction/src\r_os_abstraction_api.c ****  **************************************************************************************************
 832:D:/Work/DeviceTester/amazon-freertos/lib/third_party/mcu_vendor/renesas/rz_mcu_boards/core_package/generate/os_abstraction/src\r_os_abstraction_api.c **** 
 833:D:/Work/DeviceTester/amazon-freertos/lib/third_party/mcu_vendor/renesas/rz_mcu_boards/core_package/generate/os_abstraction/src\r_os_abstraction_api.c **** /**************************************************************************************************
 834:D:/Work/DeviceTester/amazon-freertos/lib/third_party/mcu_vendor/renesas/rz_mcu_boards/core_package/generate/os_abstraction/src\r_os_abstraction_api.c ****  * Function Name: R_OS_TaskGetCurrentHandle
 835:D:/Work/DeviceTester/amazon-freertos/lib/third_party/mcu_vendor/renesas/rz_mcu_boards/core_package/generate/os_abstraction/src\r_os_abstraction_api.c ****  * Description  : Get the ID of a task
 836:D:/Work/DeviceTester/amazon-freertos/lib/third_party/mcu_vendor/renesas/rz_mcu_boards/core_package/generate/os_abstraction/src\r_os_abstraction_api.c ****  * Arguments    : task - pointer to task
 837:D:/Work/DeviceTester/amazon-freertos/lib/third_party/mcu_vendor/renesas/rz_mcu_boards/core_package/generate/os_abstraction/src\r_os_abstraction_api.c ****  * Return Value : Task id
 838:D:/Work/DeviceTester/amazon-freertos/lib/third_party/mcu_vendor/renesas/rz_mcu_boards/core_package/generate/os_abstraction/src\r_os_abstraction_api.c ****  **************************************************************************************************
 839:D:/Work/DeviceTester/amazon-freertos/lib/third_party/mcu_vendor/renesas/rz_mcu_boards/core_package/generate/os_abstraction/src\r_os_abstraction_api.c **** os_task_t *R_OS_TaskGetCurrentHandle (void)
 840:D:/Work/DeviceTester/amazon-freertos/lib/third_party/mcu_vendor/renesas/rz_mcu_boards/core_package/generate/os_abstraction/src\r_os_abstraction_api.c **** {
 813              		.loc 1 840 0
 814              		.cfi_startproc
 815              		@ args = 0, pretend = 0, frame = 0
 816              		@ frame_needed = 0, uses_anonymous_args = 0
 817              		@ link register save eliminated.
 841:D:/Work/DeviceTester/amazon-freertos/lib/third_party/mcu_vendor/renesas/rz_mcu_boards/core_package/generate/os_abstraction/src\r_os_abstraction_api.c ****     return xTaskGetCurrentTaskHandle();
 818              		.loc 1 841 0
 819 0000 FEFFFFEA 		b	xTaskGetCurrentTaskHandle
 820              	.LVL63:
 821              		.cfi_endproc
 822              	.LFE25:
 824              		.section	.text.R_OS_TaskGetCurrentName,"ax",%progbits
 825              		.align	2
 826              		.global	R_OS_TaskGetCurrentName
 827              		.syntax unified
 828              		.arm
 829              		.fpu neon
 831              	R_OS_TaskGetCurrentName:
 832              	.LFB26:
 842:D:/Work/DeviceTester/amazon-freertos/lib/third_party/mcu_vendor/renesas/rz_mcu_boards/core_package/generate/os_abstraction/src\r_os_abstraction_api.c **** }
 843:D:/Work/DeviceTester/amazon-freertos/lib/third_party/mcu_vendor/renesas/rz_mcu_boards/core_package/generate/os_abstraction/src\r_os_abstraction_api.c **** /**************************************************************************************************
 844:D:/Work/DeviceTester/amazon-freertos/lib/third_party/mcu_vendor/renesas/rz_mcu_boards/core_package/generate/os_abstraction/src\r_os_abstraction_api.c ****  End of function R_OS_TaskGetCurrentHandle
 845:D:/Work/DeviceTester/amazon-freertos/lib/third_party/mcu_vendor/renesas/rz_mcu_boards/core_package/generate/os_abstraction/src\r_os_abstraction_api.c ****  **************************************************************************************************
 846:D:/Work/DeviceTester/amazon-freertos/lib/third_party/mcu_vendor/renesas/rz_mcu_boards/core_package/generate/os_abstraction/src\r_os_abstraction_api.c **** 
 847:D:/Work/DeviceTester/amazon-freertos/lib/third_party/mcu_vendor/renesas/rz_mcu_boards/core_package/generate/os_abstraction/src\r_os_abstraction_api.c **** /**************************************************************************************************
 848:D:/Work/DeviceTester/amazon-freertos/lib/third_party/mcu_vendor/renesas/rz_mcu_boards/core_package/generate/os_abstraction/src\r_os_abstraction_api.c ****  * Function Name: R_OS_TaskGetCurrentName
 849:D:/Work/DeviceTester/amazon-freertos/lib/third_party/mcu_vendor/renesas/rz_mcu_boards/core_package/generate/os_abstraction/src\r_os_abstraction_api.c ****  * Description  : return a pointer to the current task name
 850:D:/Work/DeviceTester/amazon-freertos/lib/third_party/mcu_vendor/renesas/rz_mcu_boards/core_package/generate/os_abstraction/src\r_os_abstraction_api.c ****  * Arguments    : none
 851:D:/Work/DeviceTester/amazon-freertos/lib/third_party/mcu_vendor/renesas/rz_mcu_boards/core_package/generate/os_abstraction/src\r_os_abstraction_api.c ****  * Return Value : char * pointer to task name
 852:D:/Work/DeviceTester/amazon-freertos/lib/third_party/mcu_vendor/renesas/rz_mcu_boards/core_package/generate/os_abstraction/src\r_os_abstraction_api.c ****  **************************************************************************************************
 853:D:/Work/DeviceTester/amazon-freertos/lib/third_party/mcu_vendor/renesas/rz_mcu_boards/core_package/generate/os_abstraction/src\r_os_abstraction_api.c **** const char *R_OS_TaskGetCurrentName (void)
 854:D:/Work/DeviceTester/amazon-freertos/lib/third_party/mcu_vendor/renesas/rz_mcu_boards/core_package/generate/os_abstraction/src\r_os_abstraction_api.c **** {
 833              		.loc 1 854 0
 834              		.cfi_startproc
 835              		@ args = 0, pretend = 0, frame = 40
 836              		@ frame_needed = 0, uses_anonymous_args = 0
 837 0000 04E02DE5 		str	lr, [sp, #-4]!
 838              		.cfi_def_cfa_offset 4
 839              		.cfi_offset 14, -4
 840 0004 2CD04DE2 		sub	sp, sp, #44
 841              		.cfi_def_cfa_offset 48
 855:D:/Work/DeviceTester/amazon-freertos/lib/third_party/mcu_vendor/renesas/rz_mcu_boards/core_package/generate/os_abstraction/src\r_os_abstraction_api.c ****     TaskHandle_t handle = xTaskGetCurrentTaskHandle();
 842              		.loc 1 855 0
 843 0008 FEFFFFEB 		bl	xTaskGetCurrentTaskHandle
 844              	.LVL64:
 856:D:/Work/DeviceTester/amazon-freertos/lib/third_party/mcu_vendor/renesas/rz_mcu_boards/core_package/generate/os_abstraction/src\r_os_abstraction_api.c ****     TaskStatus_t task_details;
 857:D:/Work/DeviceTester/amazon-freertos/lib/third_party/mcu_vendor/renesas/rz_mcu_boards/core_package/generate/os_abstraction/src\r_os_abstraction_api.c **** 
 858:D:/Work/DeviceTester/amazon-freertos/lib/third_party/mcu_vendor/renesas/rz_mcu_boards/core_package/generate/os_abstraction/src\r_os_abstraction_api.c ****     /*Use the handle to obtain further information about the task.*/
 859:D:/Work/DeviceTester/amazon-freertos/lib/third_party/mcu_vendor/renesas/rz_mcu_boards/core_package/generate/os_abstraction/src\r_os_abstraction_api.c ****     vTaskGetInfo(handle, &task_details, pdTRUE, eInvalid);
 845              		.loc 1 859 0
 846 000c 0530A0E3 		mov	r3, #5
 847 0010 0120A0E3 		mov	r2, #1
 848 0014 04108DE2 		add	r1, sp, #4
 849 0018 FEFFFFEB 		bl	vTaskGetInfo
 850              	.LVL65:
 860:D:/Work/DeviceTester/amazon-freertos/lib/third_party/mcu_vendor/renesas/rz_mcu_boards/core_package/generate/os_abstraction/src\r_os_abstraction_api.c **** 
 861:D:/Work/DeviceTester/amazon-freertos/lib/third_party/mcu_vendor/renesas/rz_mcu_boards/core_package/generate/os_abstraction/src\r_os_abstraction_api.c ****     return (task_details.pcTaskName);
 862:D:/Work/DeviceTester/amazon-freertos/lib/third_party/mcu_vendor/renesas/rz_mcu_boards/core_package/generate/os_abstraction/src\r_os_abstraction_api.c **** }
 851              		.loc 1 862 0
 852 001c 08009DE5 		ldr	r0, [sp, #8]
 853 0020 2CD08DE2 		add	sp, sp, #44
 854              		.cfi_def_cfa_offset 4
 855              		@ sp needed
 856 0024 04F09DE4 		ldr	pc, [sp], #4
 857              		.cfi_endproc
 858              	.LFE26:
 860              		.section	.text.R_OS_SysLock,"ax",%progbits
 861              		.align	2
 862              		.global	R_OS_SysLock
 863              		.syntax unified
 864              		.arm
 865              		.fpu neon
 867              	R_OS_SysLock:
 868              	.LFB28:
 863:D:/Work/DeviceTester/amazon-freertos/lib/third_party/mcu_vendor/renesas/rz_mcu_boards/core_package/generate/os_abstraction/src\r_os_abstraction_api.c **** /**************************************************************************************************
 864:D:/Work/DeviceTester/amazon-freertos/lib/third_party/mcu_vendor/renesas/rz_mcu_boards/core_package/generate/os_abstraction/src\r_os_abstraction_api.c ****  End of function R_OS_TaskGetCurrentName
 865:D:/Work/DeviceTester/amazon-freertos/lib/third_party/mcu_vendor/renesas/rz_mcu_boards/core_package/generate/os_abstraction/src\r_os_abstraction_api.c ****  **************************************************************************************************
 866:D:/Work/DeviceTester/amazon-freertos/lib/third_party/mcu_vendor/renesas/rz_mcu_boards/core_package/generate/os_abstraction/src\r_os_abstraction_api.c **** 
 867:D:/Work/DeviceTester/amazon-freertos/lib/third_party/mcu_vendor/renesas/rz_mcu_boards/core_package/generate/os_abstraction/src\r_os_abstraction_api.c **** /**************************************************************************************************
 868:D:/Work/DeviceTester/amazon-freertos/lib/third_party/mcu_vendor/renesas/rz_mcu_boards/core_package/generate/os_abstraction/src\r_os_abstraction_api.c ****  * Function Name: R_OS_TaskGetState
 869:D:/Work/DeviceTester/amazon-freertos/lib/third_party/mcu_vendor/renesas/rz_mcu_boards/core_package/generate/os_abstraction/src\r_os_abstraction_api.c ****  * Description  : Get the state of a task
 870:D:/Work/DeviceTester/amazon-freertos/lib/third_party/mcu_vendor/renesas/rz_mcu_boards/core_package/generate/os_abstraction/src\r_os_abstraction_api.c ****  * Arguments    : p_task - pointer to task
 871:D:/Work/DeviceTester/amazon-freertos/lib/third_party/mcu_vendor/renesas/rz_mcu_boards/core_package/generate/os_abstraction/src\r_os_abstraction_api.c ****  * Return Value : String describing the status of the task
 872:D:/Work/DeviceTester/amazon-freertos/lib/third_party/mcu_vendor/renesas/rz_mcu_boards/core_package/generate/os_abstraction/src\r_os_abstraction_api.c ****  **************************************************************************************************
 873:D:/Work/DeviceTester/amazon-freertos/lib/third_party/mcu_vendor/renesas/rz_mcu_boards/core_package/generate/os_abstraction/src\r_os_abstraction_api.c **** const char *R_OS_TaskGetState (const char *p_task)
 874:D:/Work/DeviceTester/amazon-freertos/lib/third_party/mcu_vendor/renesas/rz_mcu_boards/core_package/generate/os_abstraction/src\r_os_abstraction_api.c **** {
 875:D:/Work/DeviceTester/amazon-freertos/lib/third_party/mcu_vendor/renesas/rz_mcu_boards/core_package/generate/os_abstraction/src\r_os_abstraction_api.c ****     /* initialise pointer to NULL */
 876:D:/Work/DeviceTester/amazon-freertos/lib/third_party/mcu_vendor/renesas/rz_mcu_boards/core_package/generate/os_abstraction/src\r_os_abstraction_api.c ****     xTaskStatusType *p_task_status_array = NULL;
 877:D:/Work/DeviceTester/amazon-freertos/lib/third_party/mcu_vendor/renesas/rz_mcu_boards/core_package/generate/os_abstraction/src\r_os_abstraction_api.c ****     uint32_t ux_array_size = 0;
 878:D:/Work/DeviceTester/amazon-freertos/lib/third_party/mcu_vendor/renesas/rz_mcu_boards/core_package/generate/os_abstraction/src\r_os_abstraction_api.c ****     uint32_t ux_size = 0;
 879:D:/Work/DeviceTester/amazon-freertos/lib/third_party/mcu_vendor/renesas/rz_mcu_boards/core_package/generate/os_abstraction/src\r_os_abstraction_api.c ****     uint16_t j;
 880:D:/Work/DeviceTester/amazon-freertos/lib/third_party/mcu_vendor/renesas/rz_mcu_boards/core_package/generate/os_abstraction/src\r_os_abstraction_api.c ****     eTaskState ret_state = eInvalid;
 881:D:/Work/DeviceTester/amazon-freertos/lib/third_party/mcu_vendor/renesas/rz_mcu_boards/core_package/generate/os_abstraction/src\r_os_abstraction_api.c ****     e_memory_region_t dummy = R_MEMORY_REGION_DEFAULT;
 882:D:/Work/DeviceTester/amazon-freertos/lib/third_party/mcu_vendor/renesas/rz_mcu_boards/core_package/generate/os_abstraction/src\r_os_abstraction_api.c ****     bool_t exit_loop;
 883:D:/Work/DeviceTester/amazon-freertos/lib/third_party/mcu_vendor/renesas/rz_mcu_boards/core_package/generate/os_abstraction/src\r_os_abstraction_api.c **** 
 884:D:/Work/DeviceTester/amazon-freertos/lib/third_party/mcu_vendor/renesas/rz_mcu_boards/core_package/generate/os_abstraction/src\r_os_abstraction_api.c ****     static const char *sp_status_name[] =
 885:D:/Work/DeviceTester/amazon-freertos/lib/third_party/mcu_vendor/renesas/rz_mcu_boards/core_package/generate/os_abstraction/src\r_os_abstraction_api.c ****     { [eRunning] = "Running", [eReady] = "Ready", [eBlocked] = "Blocked", [eSuspended] = "Suspended
 886:D:/Work/DeviceTester/amazon-freertos/lib/third_party/mcu_vendor/renesas/rz_mcu_boards/core_package/generate/os_abstraction/src\r_os_abstraction_api.c ****             ] = "Deleted", [eInvalid] = "Invalid" };
 887:D:/Work/DeviceTester/amazon-freertos/lib/third_party/mcu_vendor/renesas/rz_mcu_boards/core_package/generate/os_abstraction/src\r_os_abstraction_api.c **** 
 888:D:/Work/DeviceTester/amazon-freertos/lib/third_party/mcu_vendor/renesas/rz_mcu_boards/core_package/generate/os_abstraction/src\r_os_abstraction_api.c ****     if (ux_array_size > 0)
 889:D:/Work/DeviceTester/amazon-freertos/lib/third_party/mcu_vendor/renesas/rz_mcu_boards/core_package/generate/os_abstraction/src\r_os_abstraction_api.c ****     {
 890:D:/Work/DeviceTester/amazon-freertos/lib/third_party/mcu_vendor/renesas/rz_mcu_boards/core_package/generate/os_abstraction/src\r_os_abstraction_api.c ****         /*Cast FreeRTOS specific variable to void**/
 891:D:/Work/DeviceTester/amazon-freertos/lib/third_party/mcu_vendor/renesas/rz_mcu_boards/core_package/generate/os_abstraction/src\r_os_abstraction_api.c ****         R_OS_Free((void *) &p_task_status_array);
 892:D:/Work/DeviceTester/amazon-freertos/lib/third_party/mcu_vendor/renesas/rz_mcu_boards/core_package/generate/os_abstraction/src\r_os_abstraction_api.c ****     }
 893:D:/Work/DeviceTester/amazon-freertos/lib/third_party/mcu_vendor/renesas/rz_mcu_boards/core_package/generate/os_abstraction/src\r_os_abstraction_api.c **** 
 894:D:/Work/DeviceTester/amazon-freertos/lib/third_party/mcu_vendor/renesas/rz_mcu_boards/core_package/generate/os_abstraction/src\r_os_abstraction_api.c ****     ux_array_size = uxTaskGetNumberOfTasks();
 895:D:/Work/DeviceTester/amazon-freertos/lib/third_party/mcu_vendor/renesas/rz_mcu_boards/core_package/generate/os_abstraction/src\r_os_abstraction_api.c **** 
 896:D:/Work/DeviceTester/amazon-freertos/lib/third_party/mcu_vendor/renesas/rz_mcu_boards/core_package/generate/os_abstraction/src\r_os_abstraction_api.c ****     if (ux_array_size > 0)
 897:D:/Work/DeviceTester/amazon-freertos/lib/third_party/mcu_vendor/renesas/rz_mcu_boards/core_package/generate/os_abstraction/src\r_os_abstraction_api.c ****     {
 898:D:/Work/DeviceTester/amazon-freertos/lib/third_party/mcu_vendor/renesas/rz_mcu_boards/core_package/generate/os_abstraction/src\r_os_abstraction_api.c ****         p_task_status_array = R_OS_Malloc(ux_array_size * sizeof(xTaskStatusType), dummy);
 899:D:/Work/DeviceTester/amazon-freertos/lib/third_party/mcu_vendor/renesas/rz_mcu_boards/core_package/generate/os_abstraction/src\r_os_abstraction_api.c ****     }
 900:D:/Work/DeviceTester/amazon-freertos/lib/third_party/mcu_vendor/renesas/rz_mcu_boards/core_package/generate/os_abstraction/src\r_os_abstraction_api.c **** 
 901:D:/Work/DeviceTester/amazon-freertos/lib/third_party/mcu_vendor/renesas/rz_mcu_boards/core_package/generate/os_abstraction/src\r_os_abstraction_api.c ****     /* handle unsuccessful malloc */
 902:D:/Work/DeviceTester/amazon-freertos/lib/third_party/mcu_vendor/renesas/rz_mcu_boards/core_package/generate/os_abstraction/src\r_os_abstraction_api.c ****     if (NULL == p_task_status_array)
 903:D:/Work/DeviceTester/amazon-freertos/lib/third_party/mcu_vendor/renesas/rz_mcu_boards/core_package/generate/os_abstraction/src\r_os_abstraction_api.c ****     {
 904:D:/Work/DeviceTester/amazon-freertos/lib/third_party/mcu_vendor/renesas/rz_mcu_boards/core_package/generate/os_abstraction/src\r_os_abstraction_api.c ****         printf("Cannot get memory for threads list\r\n");
 905:D:/Work/DeviceTester/amazon-freertos/lib/third_party/mcu_vendor/renesas/rz_mcu_boards/core_package/generate/os_abstraction/src\r_os_abstraction_api.c **** 
 906:D:/Work/DeviceTester/amazon-freertos/lib/third_party/mcu_vendor/renesas/rz_mcu_boards/core_package/generate/os_abstraction/src\r_os_abstraction_api.c ****         /* return NULL if unsuccessful */
 907:D:/Work/DeviceTester/amazon-freertos/lib/third_party/mcu_vendor/renesas/rz_mcu_boards/core_package/generate/os_abstraction/src\r_os_abstraction_api.c ****         return (NULL);
 908:D:/Work/DeviceTester/amazon-freertos/lib/third_party/mcu_vendor/renesas/rz_mcu_boards/core_package/generate/os_abstraction/src\r_os_abstraction_api.c ****     }
 909:D:/Work/DeviceTester/amazon-freertos/lib/third_party/mcu_vendor/renesas/rz_mcu_boards/core_package/generate/os_abstraction/src\r_os_abstraction_api.c **** 
 910:D:/Work/DeviceTester/amazon-freertos/lib/third_party/mcu_vendor/renesas/rz_mcu_boards/core_package/generate/os_abstraction/src\r_os_abstraction_api.c ****     /* determine system status */
 911:D:/Work/DeviceTester/amazon-freertos/lib/third_party/mcu_vendor/renesas/rz_mcu_boards/core_package/generate/os_abstraction/src\r_os_abstraction_api.c ****     ux_size = uxTaskGetSystemState(p_task_status_array, ux_array_size, NULL);
 912:D:/Work/DeviceTester/amazon-freertos/lib/third_party/mcu_vendor/renesas/rz_mcu_boards/core_package/generate/os_abstraction/src\r_os_abstraction_api.c **** 
 913:D:/Work/DeviceTester/amazon-freertos/lib/third_party/mcu_vendor/renesas/rz_mcu_boards/core_package/generate/os_abstraction/src\r_os_abstraction_api.c ****     exit_loop = false;
 914:D:/Work/DeviceTester/amazon-freertos/lib/third_party/mcu_vendor/renesas/rz_mcu_boards/core_package/generate/os_abstraction/src\r_os_abstraction_api.c ****     for (j = 0; ((j < ux_array_size) && ( !exit_loop)); j++)
 915:D:/Work/DeviceTester/amazon-freertos/lib/third_party/mcu_vendor/renesas/rz_mcu_boards/core_package/generate/os_abstraction/src\r_os_abstraction_api.c ****     {
 916:D:/Work/DeviceTester/amazon-freertos/lib/third_party/mcu_vendor/renesas/rz_mcu_boards/core_package/generate/os_abstraction/src\r_os_abstraction_api.c ****         xTaskStatusType *p_xt = p_task_status_array + j;
 917:D:/Work/DeviceTester/amazon-freertos/lib/third_party/mcu_vendor/renesas/rz_mcu_boards/core_package/generate/os_abstraction/src\r_os_abstraction_api.c **** 
 918:D:/Work/DeviceTester/amazon-freertos/lib/third_party/mcu_vendor/renesas/rz_mcu_boards/core_package/generate/os_abstraction/src\r_os_abstraction_api.c ****         if ( !(strcmp(p_xt->pcTaskName, p_task)))
 919:D:/Work/DeviceTester/amazon-freertos/lib/third_party/mcu_vendor/renesas/rz_mcu_boards/core_package/generate/os_abstraction/src\r_os_abstraction_api.c ****         {
 920:D:/Work/DeviceTester/amazon-freertos/lib/third_party/mcu_vendor/renesas/rz_mcu_boards/core_package/generate/os_abstraction/src\r_os_abstraction_api.c ****             ret_state = p_xt->eCurrentState;
 921:D:/Work/DeviceTester/amazon-freertos/lib/third_party/mcu_vendor/renesas/rz_mcu_boards/core_package/generate/os_abstraction/src\r_os_abstraction_api.c ****             exit_loop = true;
 922:D:/Work/DeviceTester/amazon-freertos/lib/third_party/mcu_vendor/renesas/rz_mcu_boards/core_package/generate/os_abstraction/src\r_os_abstraction_api.c ****         }
 923:D:/Work/DeviceTester/amazon-freertos/lib/third_party/mcu_vendor/renesas/rz_mcu_boards/core_package/generate/os_abstraction/src\r_os_abstraction_api.c ****     }
 924:D:/Work/DeviceTester/amazon-freertos/lib/third_party/mcu_vendor/renesas/rz_mcu_boards/core_package/generate/os_abstraction/src\r_os_abstraction_api.c **** 
 925:D:/Work/DeviceTester/amazon-freertos/lib/third_party/mcu_vendor/renesas/rz_mcu_boards/core_package/generate/os_abstraction/src\r_os_abstraction_api.c ****     if (ux_array_size > 0)
 926:D:/Work/DeviceTester/amazon-freertos/lib/third_party/mcu_vendor/renesas/rz_mcu_boards/core_package/generate/os_abstraction/src\r_os_abstraction_api.c ****     {
 927:D:/Work/DeviceTester/amazon-freertos/lib/third_party/mcu_vendor/renesas/rz_mcu_boards/core_package/generate/os_abstraction/src\r_os_abstraction_api.c ****         /*Cast FreeRTOS specific variable to void**/
 928:D:/Work/DeviceTester/amazon-freertos/lib/third_party/mcu_vendor/renesas/rz_mcu_boards/core_package/generate/os_abstraction/src\r_os_abstraction_api.c ****         R_OS_Free((void *) &p_task_status_array);
 929:D:/Work/DeviceTester/amazon-freertos/lib/third_party/mcu_vendor/renesas/rz_mcu_boards/core_package/generate/os_abstraction/src\r_os_abstraction_api.c ****     }
 930:D:/Work/DeviceTester/amazon-freertos/lib/third_party/mcu_vendor/renesas/rz_mcu_boards/core_package/generate/os_abstraction/src\r_os_abstraction_api.c **** 
 931:D:/Work/DeviceTester/amazon-freertos/lib/third_party/mcu_vendor/renesas/rz_mcu_boards/core_package/generate/os_abstraction/src\r_os_abstraction_api.c ****     return (sp_status_name[ret_state]);
 932:D:/Work/DeviceTester/amazon-freertos/lib/third_party/mcu_vendor/renesas/rz_mcu_boards/core_package/generate/os_abstraction/src\r_os_abstraction_api.c **** }
 933:D:/Work/DeviceTester/amazon-freertos/lib/third_party/mcu_vendor/renesas/rz_mcu_boards/core_package/generate/os_abstraction/src\r_os_abstraction_api.c **** /**************************************************************************************************
 934:D:/Work/DeviceTester/amazon-freertos/lib/third_party/mcu_vendor/renesas/rz_mcu_boards/core_package/generate/os_abstraction/src\r_os_abstraction_api.c ****  End of function R_OS_TaskGetState
 935:D:/Work/DeviceTester/amazon-freertos/lib/third_party/mcu_vendor/renesas/rz_mcu_boards/core_package/generate/os_abstraction/src\r_os_abstraction_api.c ****  **************************************************************************************************
 936:D:/Work/DeviceTester/amazon-freertos/lib/third_party/mcu_vendor/renesas/rz_mcu_boards/core_package/generate/os_abstraction/src\r_os_abstraction_api.c **** 
 937:D:/Work/DeviceTester/amazon-freertos/lib/third_party/mcu_vendor/renesas/rz_mcu_boards/core_package/generate/os_abstraction/src\r_os_abstraction_api.c **** /**************************************************************************************************
 938:D:/Work/DeviceTester/amazon-freertos/lib/third_party/mcu_vendor/renesas/rz_mcu_boards/core_package/generate/os_abstraction/src\r_os_abstraction_api.c ****  *                                  System API
 939:D:/Work/DeviceTester/amazon-freertos/lib/third_party/mcu_vendor/renesas/rz_mcu_boards/core_package/generate/os_abstraction/src\r_os_abstraction_api.c ****  **************************************************************************************************
 940:D:/Work/DeviceTester/amazon-freertos/lib/third_party/mcu_vendor/renesas/rz_mcu_boards/core_package/generate/os_abstraction/src\r_os_abstraction_api.c **** 
 941:D:/Work/DeviceTester/amazon-freertos/lib/third_party/mcu_vendor/renesas/rz_mcu_boards/core_package/generate/os_abstraction/src\r_os_abstraction_api.c **** /**************************************************************************************************
 942:D:/Work/DeviceTester/amazon-freertos/lib/third_party/mcu_vendor/renesas/rz_mcu_boards/core_package/generate/os_abstraction/src\r_os_abstraction_api.c ****  * Function Name: R_OS_SysLock
 943:D:/Work/DeviceTester/amazon-freertos/lib/third_party/mcu_vendor/renesas/rz_mcu_boards/core_package/generate/os_abstraction/src\r_os_abstraction_api.c ****  * Description  : Function to lock a critical section.
 944:D:/Work/DeviceTester/amazon-freertos/lib/third_party/mcu_vendor/renesas/rz_mcu_boards/core_package/generate/os_abstraction/src\r_os_abstraction_api.c ****  * Arguments    : None.
 945:D:/Work/DeviceTester/amazon-freertos/lib/third_party/mcu_vendor/renesas/rz_mcu_boards/core_package/generate/os_abstraction/src\r_os_abstraction_api.c ****  * Return Value : 1 - Critical section entered outside ISR
 946:D:/Work/DeviceTester/amazon-freertos/lib/third_party/mcu_vendor/renesas/rz_mcu_boards/core_package/generate/os_abstraction/src\r_os_abstraction_api.c ****  *                0 - Critical section entered inside ISR
 947:D:/Work/DeviceTester/amazon-freertos/lib/third_party/mcu_vendor/renesas/rz_mcu_boards/core_package/generate/os_abstraction/src\r_os_abstraction_api.c ****  **************************************************************************************************
 948:D:/Work/DeviceTester/amazon-freertos/lib/third_party/mcu_vendor/renesas/rz_mcu_boards/core_package/generate/os_abstraction/src\r_os_abstraction_api.c **** int_t R_OS_SysLock (void)
 949:D:/Work/DeviceTester/amazon-freertos/lib/third_party/mcu_vendor/renesas/rz_mcu_boards/core_package/generate/os_abstraction/src\r_os_abstraction_api.c **** {
 869              		.loc 1 949 0
 870              		.cfi_startproc
 871              		@ args = 0, pretend = 0, frame = 0
 872              		@ frame_needed = 0, uses_anonymous_args = 0
 873              	.LVL66:
 950:D:/Work/DeviceTester/amazon-freertos/lib/third_party/mcu_vendor/renesas/rz_mcu_boards/core_package/generate/os_abstraction/src\r_os_abstraction_api.c ****     int_t return_value = 0;
 951:D:/Work/DeviceTester/amazon-freertos/lib/third_party/mcu_vendor/renesas/rz_mcu_boards/core_package/generate/os_abstraction/src\r_os_abstraction_api.c **** 
 952:D:/Work/DeviceTester/amazon-freertos/lib/third_party/mcu_vendor/renesas/rz_mcu_boards/core_package/generate/os_abstraction/src\r_os_abstraction_api.c ****     /* Disable Interrupts if not done already*/
 953:D:/Work/DeviceTester/amazon-freertos/lib/third_party/mcu_vendor/renesas/rz_mcu_boards/core_package/generate/os_abstraction/src\r_os_abstraction_api.c ****     if (0 == ulPortInterruptNesting)
 874              		.loc 1 953 0
 875 0000 2C309FE5 		ldr	r3, .L81
 949:D:/Work/DeviceTester/amazon-freertos/lib/third_party/mcu_vendor/renesas/rz_mcu_boards/core_package/generate/os_abstraction/src\r_os_abstraction_api.c ****     int_t return_value = 0;
 876              		.loc 1 949 0
 877 0004 10402DE9 		push	{r4, lr}
 878              		.cfi_def_cfa_offset 8
 879              		.cfi_offset 4, -8
 880              		.cfi_offset 14, -4
 881              		.loc 1 953 0
 882 0008 003093E5 		ldr	r3, [r3]
 883 000c 000053E3 		cmp	r3, #0
 884 0010 0200001A 		bne	.L78
 954:D:/Work/DeviceTester/amazon-freertos/lib/third_party/mcu_vendor/renesas/rz_mcu_boards/core_package/generate/os_abstraction/src\r_os_abstraction_api.c ****     {
 955:D:/Work/DeviceTester/amazon-freertos/lib/third_party/mcu_vendor/renesas/rz_mcu_boards/core_package/generate/os_abstraction/src\r_os_abstraction_api.c ****         taskENTER_CRITICAL()
 885              		.loc 1 955 0
 886 0014 FEFFFFEB 		bl	vPortEnterCritical
 887              	.LVL67:
 956:D:/Work/DeviceTester/amazon-freertos/lib/third_party/mcu_vendor/renesas/rz_mcu_boards/core_package/generate/os_abstraction/src\r_os_abstraction_api.c ****         ;
 957:D:/Work/DeviceTester/amazon-freertos/lib/third_party/mcu_vendor/renesas/rz_mcu_boards/core_package/generate/os_abstraction/src\r_os_abstraction_api.c ****         return_value = 1;
 888              		.loc 1 957 0
 889 0018 0100A0E3 		mov	r0, #1
 890 001c 1080BDE8 		pop	{r4, pc}
 891              	.LVL68:
 892              	.L78:
 958:D:/Work/DeviceTester/amazon-freertos/lib/third_party/mcu_vendor/renesas/rz_mcu_boards/core_package/generate/os_abstraction/src\r_os_abstraction_api.c ****     }
 959:D:/Work/DeviceTester/amazon-freertos/lib/third_party/mcu_vendor/renesas/rz_mcu_boards/core_package/generate/os_abstraction/src\r_os_abstraction_api.c ****     else
 960:D:/Work/DeviceTester/amazon-freertos/lib/third_party/mcu_vendor/renesas/rz_mcu_boards/core_package/generate/os_abstraction/src\r_os_abstraction_api.c ****     {
 961:D:/Work/DeviceTester/amazon-freertos/lib/third_party/mcu_vendor/renesas/rz_mcu_boards/core_package/generate/os_abstraction/src\r_os_abstraction_api.c ****         uxSavedInterruptStatus = taskENTER_CRITICAL_FROM_ISR();
 893              		.loc 1 961 0
 894 0020 FEFFFFEB 		bl	ulPortSetInterruptMask
 895              	.LVL69:
 896 0024 0C309FE5 		ldr	r3, .L81+4
 897 0028 000083E5 		str	r0, [r3]
 950:D:/Work/DeviceTester/amazon-freertos/lib/third_party/mcu_vendor/renesas/rz_mcu_boards/core_package/generate/os_abstraction/src\r_os_abstraction_api.c **** 
 898              		.loc 1 950 0
 899 002c 0000A0E3 		mov	r0, #0
 962:D:/Work/DeviceTester/amazon-freertos/lib/third_party/mcu_vendor/renesas/rz_mcu_boards/core_package/generate/os_abstraction/src\r_os_abstraction_api.c ****     }
 963:D:/Work/DeviceTester/amazon-freertos/lib/third_party/mcu_vendor/renesas/rz_mcu_boards/core_package/generate/os_abstraction/src\r_os_abstraction_api.c **** 
 964:D:/Work/DeviceTester/amazon-freertos/lib/third_party/mcu_vendor/renesas/rz_mcu_boards/core_package/generate/os_abstraction/src\r_os_abstraction_api.c ****     return (return_value);
 965:D:/Work/DeviceTester/amazon-freertos/lib/third_party/mcu_vendor/renesas/rz_mcu_boards/core_package/generate/os_abstraction/src\r_os_abstraction_api.c **** }
 900              		.loc 1 965 0
 901 0030 1080BDE8 		pop	{r4, pc}
 902              	.L82:
 903              		.align	2
 904              	.L81:
 905 0034 00000000 		.word	ulPortInterruptNesting
 906 0038 00000000 		.word	uxSavedInterruptStatus
 907              		.cfi_endproc
 908              	.LFE28:
 910              		.section	.text.R_OS_SysUnlock,"ax",%progbits
 911              		.align	2
 912              		.global	R_OS_SysUnlock
 913              		.syntax unified
 914              		.arm
 915              		.fpu neon
 917              	R_OS_SysUnlock:
 918              	.LFB29:
 966:D:/Work/DeviceTester/amazon-freertos/lib/third_party/mcu_vendor/renesas/rz_mcu_boards/core_package/generate/os_abstraction/src\r_os_abstraction_api.c **** /**************************************************************************************************
 967:D:/Work/DeviceTester/amazon-freertos/lib/third_party/mcu_vendor/renesas/rz_mcu_boards/core_package/generate/os_abstraction/src\r_os_abstraction_api.c ****  End of function R_OS_SysLock
 968:D:/Work/DeviceTester/amazon-freertos/lib/third_party/mcu_vendor/renesas/rz_mcu_boards/core_package/generate/os_abstraction/src\r_os_abstraction_api.c ****  **************************************************************************************************
 969:D:/Work/DeviceTester/amazon-freertos/lib/third_party/mcu_vendor/renesas/rz_mcu_boards/core_package/generate/os_abstraction/src\r_os_abstraction_api.c **** 
 970:D:/Work/DeviceTester/amazon-freertos/lib/third_party/mcu_vendor/renesas/rz_mcu_boards/core_package/generate/os_abstraction/src\r_os_abstraction_api.c **** /**************************************************************************************************
 971:D:/Work/DeviceTester/amazon-freertos/lib/third_party/mcu_vendor/renesas/rz_mcu_boards/core_package/generate/os_abstraction/src\r_os_abstraction_api.c ****  * Function Name: R_OS_SysUnlock
 972:D:/Work/DeviceTester/amazon-freertos/lib/third_party/mcu_vendor/renesas/rz_mcu_boards/core_package/generate/os_abstraction/src\r_os_abstraction_api.c ****  * Description  : Function to unlock system, or OS object.
 973:D:/Work/DeviceTester/amazon-freertos/lib/third_party/mcu_vendor/renesas/rz_mcu_boards/core_package/generate/os_abstraction/src\r_os_abstraction_api.c ****  * Arguments    : None.
 974:D:/Work/DeviceTester/amazon-freertos/lib/third_party/mcu_vendor/renesas/rz_mcu_boards/core_package/generate/os_abstraction/src\r_os_abstraction_api.c ****  * Return Value : None
 975:D:/Work/DeviceTester/amazon-freertos/lib/third_party/mcu_vendor/renesas/rz_mcu_boards/core_package/generate/os_abstraction/src\r_os_abstraction_api.c ****  **************************************************************************************************
 976:D:/Work/DeviceTester/amazon-freertos/lib/third_party/mcu_vendor/renesas/rz_mcu_boards/core_package/generate/os_abstraction/src\r_os_abstraction_api.c **** void R_OS_SysUnlock (void)
 977:D:/Work/DeviceTester/amazon-freertos/lib/third_party/mcu_vendor/renesas/rz_mcu_boards/core_package/generate/os_abstraction/src\r_os_abstraction_api.c **** {
 919              		.loc 1 977 0
 920              		.cfi_startproc
 921              		@ args = 0, pretend = 0, frame = 0
 922              		@ frame_needed = 0, uses_anonymous_args = 0
 923              		@ link register save eliminated.
 978:D:/Work/DeviceTester/amazon-freertos/lib/third_party/mcu_vendor/renesas/rz_mcu_boards/core_package/generate/os_abstraction/src\r_os_abstraction_api.c ****     if (0 == ulPortInterruptNesting)
 924              		.loc 1 978 0
 925 0000 18309FE5 		ldr	r3, .L85
 926 0004 003093E5 		ldr	r3, [r3]
 927 0008 000053E3 		cmp	r3, #0
 928 000c 0000001A 		bne	.L84
 979:D:/Work/DeviceTester/amazon-freertos/lib/third_party/mcu_vendor/renesas/rz_mcu_boards/core_package/generate/os_abstraction/src\r_os_abstraction_api.c ****     {
 980:D:/Work/DeviceTester/amazon-freertos/lib/third_party/mcu_vendor/renesas/rz_mcu_boards/core_package/generate/os_abstraction/src\r_os_abstraction_api.c ****         taskEXIT_CRITICAL()
 929              		.loc 1 980 0
 930 0010 FEFFFFEA 		b	vPortExitCritical
 931              	.LVL70:
 932              	.L84:
 981:D:/Work/DeviceTester/amazon-freertos/lib/third_party/mcu_vendor/renesas/rz_mcu_boards/core_package/generate/os_abstraction/src\r_os_abstraction_api.c ****         ;
 982:D:/Work/DeviceTester/amazon-freertos/lib/third_party/mcu_vendor/renesas/rz_mcu_boards/core_package/generate/os_abstraction/src\r_os_abstraction_api.c ****     }
 983:D:/Work/DeviceTester/amazon-freertos/lib/third_party/mcu_vendor/renesas/rz_mcu_boards/core_package/generate/os_abstraction/src\r_os_abstraction_api.c ****     else
 984:D:/Work/DeviceTester/amazon-freertos/lib/third_party/mcu_vendor/renesas/rz_mcu_boards/core_package/generate/os_abstraction/src\r_os_abstraction_api.c ****     {
 985:D:/Work/DeviceTester/amazon-freertos/lib/third_party/mcu_vendor/renesas/rz_mcu_boards/core_package/generate/os_abstraction/src\r_os_abstraction_api.c ****         taskEXIT_CRITICAL_FROM_ISR(uxSavedInterruptStatus);
 933              		.loc 1 985 0
 934 0014 08309FE5 		ldr	r3, .L85+4
 935 0018 000093E5 		ldr	r0, [r3]
 936 001c FEFFFFEA 		b	vPortClearInterruptMask
 937              	.LVL71:
 938              	.L86:
 939              		.align	2
 940              	.L85:
 941 0020 00000000 		.word	ulPortInterruptNesting
 942 0024 00000000 		.word	uxSavedInterruptStatus
 943              		.cfi_endproc
 944              	.LFE29:
 946              		.section	.text.R_OS_SysWaitAccess,"ax",%progbits
 947              		.align	2
 948              		.global	R_OS_SysWaitAccess
 949              		.syntax unified
 950              		.arm
 951              		.fpu neon
 953              	R_OS_SysWaitAccess:
 954              	.LFB30:
 986:D:/Work/DeviceTester/amazon-freertos/lib/third_party/mcu_vendor/renesas/rz_mcu_boards/core_package/generate/os_abstraction/src\r_os_abstraction_api.c ****     }
 987:D:/Work/DeviceTester/amazon-freertos/lib/third_party/mcu_vendor/renesas/rz_mcu_boards/core_package/generate/os_abstraction/src\r_os_abstraction_api.c **** }
 988:D:/Work/DeviceTester/amazon-freertos/lib/third_party/mcu_vendor/renesas/rz_mcu_boards/core_package/generate/os_abstraction/src\r_os_abstraction_api.c **** /**************************************************************************************************
 989:D:/Work/DeviceTester/amazon-freertos/lib/third_party/mcu_vendor/renesas/rz_mcu_boards/core_package/generate/os_abstraction/src\r_os_abstraction_api.c ****  End of function R_OS_SysUnlock
 990:D:/Work/DeviceTester/amazon-freertos/lib/third_party/mcu_vendor/renesas/rz_mcu_boards/core_package/generate/os_abstraction/src\r_os_abstraction_api.c ****  **************************************************************************************************
 991:D:/Work/DeviceTester/amazon-freertos/lib/third_party/mcu_vendor/renesas/rz_mcu_boards/core_package/generate/os_abstraction/src\r_os_abstraction_api.c **** 
 992:D:/Work/DeviceTester/amazon-freertos/lib/third_party/mcu_vendor/renesas/rz_mcu_boards/core_package/generate/os_abstraction/src\r_os_abstraction_api.c **** /**************************************************************************************************
 993:D:/Work/DeviceTester/amazon-freertos/lib/third_party/mcu_vendor/renesas/rz_mcu_boards/core_package/generate/os_abstraction/src\r_os_abstraction_api.c ****  * Function Name: R_OS_SysWaitAccess
 994:D:/Work/DeviceTester/amazon-freertos/lib/third_party/mcu_vendor/renesas/rz_mcu_boards/core_package/generate/os_abstraction/src\r_os_abstraction_api.c ****  * Description  : The OS Abstraction layer contains a system mutex. This function allows a user to 
 995:D:/Work/DeviceTester/amazon-freertos/lib/third_party/mcu_vendor/renesas/rz_mcu_boards/core_package/generate/os_abstraction/src\r_os_abstraction_api.c ****  *                mutex for system critical usage.
 996:D:/Work/DeviceTester/amazon-freertos/lib/third_party/mcu_vendor/renesas/rz_mcu_boards/core_package/generate/os_abstraction/src\r_os_abstraction_api.c ****  *
 997:D:/Work/DeviceTester/amazon-freertos/lib/third_party/mcu_vendor/renesas/rz_mcu_boards/core_package/generate/os_abstraction/src\r_os_abstraction_api.c ****  *               sp_task_handle - keeps record of which task owns the mutex, to allow for re-entran
 998:D:/Work/DeviceTester/amazon-freertos/lib/third_party/mcu_vendor/renesas/rz_mcu_boards/core_package/generate/os_abstraction/src\r_os_abstraction_api.c ****  *               s_pstream_mutex - system mutex
 999:D:/Work/DeviceTester/amazon-freertos/lib/third_party/mcu_vendor/renesas/rz_mcu_boards/core_package/generate/os_abstraction/src\r_os_abstraction_api.c ****  *
1000:D:/Work/DeviceTester/amazon-freertos/lib/third_party/mcu_vendor/renesas/rz_mcu_boards/core_package/generate/os_abstraction/src\r_os_abstraction_api.c ****  * Arguments    : none
1001:D:/Work/DeviceTester/amazon-freertos/lib/third_party/mcu_vendor/renesas/rz_mcu_boards/core_package/generate/os_abstraction/src\r_os_abstraction_api.c ****  * Return Value : none
1002:D:/Work/DeviceTester/amazon-freertos/lib/third_party/mcu_vendor/renesas/rz_mcu_boards/core_package/generate/os_abstraction/src\r_os_abstraction_api.c ****  **************************************************************************************************
1003:D:/Work/DeviceTester/amazon-freertos/lib/third_party/mcu_vendor/renesas/rz_mcu_boards/core_package/generate/os_abstraction/src\r_os_abstraction_api.c **** void R_OS_SysWaitAccess (void)
1004:D:/Work/DeviceTester/amazon-freertos/lib/third_party/mcu_vendor/renesas/rz_mcu_boards/core_package/generate/os_abstraction/src\r_os_abstraction_api.c **** {
 955              		.loc 1 1004 0
 956              		.cfi_startproc
 957              		@ args = 0, pretend = 0, frame = 0
 958              		@ frame_needed = 0, uses_anonymous_args = 0
 959 0000 70402DE9 		push	{r4, r5, r6, lr}
 960              		.cfi_def_cfa_offset 16
 961              		.cfi_offset 4, -16
 962              		.cfi_offset 5, -12
 963              		.cfi_offset 6, -8
 964              		.cfi_offset 14, -4
1005:D:/Work/DeviceTester/amazon-freertos/lib/third_party/mcu_vendor/renesas/rz_mcu_boards/core_package/generate/os_abstraction/src\r_os_abstraction_api.c ****     void *p_task_handle = xTaskGetCurrentTaskHandle();
 965              		.loc 1 1005 0
 966 0004 FEFFFFEB 		bl	xTaskGetCurrentTaskHandle
 967              	.LVL72:
1006:D:/Work/DeviceTester/amazon-freertos/lib/third_party/mcu_vendor/renesas/rz_mcu_boards/core_package/generate/os_abstraction/src\r_os_abstraction_api.c **** 
1007:D:/Work/DeviceTester/amazon-freertos/lib/third_party/mcu_vendor/renesas/rz_mcu_boards/core_package/generate/os_abstraction/src\r_os_abstraction_api.c ****     if(false == s_os_running)
 968              		.loc 1 1007 0
 969 0008 50309FE5 		ldr	r3, .L94
 970 000c 003093E5 		ldr	r3, [r3]
 971 0010 000053E3 		cmp	r3, #0
 972 0014 7080BD08 		popeq	{r4, r5, r6, pc}
1008:D:/Work/DeviceTester/amazon-freertos/lib/third_party/mcu_vendor/renesas/rz_mcu_boards/core_package/generate/os_abstraction/src\r_os_abstraction_api.c ****     {
1009:D:/Work/DeviceTester/amazon-freertos/lib/third_party/mcu_vendor/renesas/rz_mcu_boards/core_package/generate/os_abstraction/src\r_os_abstraction_api.c ****     	return;
1010:D:/Work/DeviceTester/amazon-freertos/lib/third_party/mcu_vendor/renesas/rz_mcu_boards/core_package/generate/os_abstraction/src\r_os_abstraction_api.c ****     }
1011:D:/Work/DeviceTester/amazon-freertos/lib/third_party/mcu_vendor/renesas/rz_mcu_boards/core_package/generate/os_abstraction/src\r_os_abstraction_api.c **** 
1012:D:/Work/DeviceTester/amazon-freertos/lib/third_party/mcu_vendor/renesas/rz_mcu_boards/core_package/generate/os_abstraction/src\r_os_abstraction_api.c ****     if (sp_task_handle == p_task_handle)
 973              		.loc 1 1012 0
 974 0018 44309FE5 		ldr	r3, .L94+4
 975 001c 0060A0E1 		mov	r6, r0
 976 0020 002093E5 		ldr	r2, [r3]
 977 0024 0350A0E1 		mov	r5, r3
 978 0028 020050E1 		cmp	r0, r2
 979 002c 7080BD08 		popeq	{r4, r5, r6, pc}
1013:D:/Work/DeviceTester/amazon-freertos/lib/third_party/mcu_vendor/renesas/rz_mcu_boards/core_package/generate/os_abstraction/src\r_os_abstraction_api.c ****     {
1014:D:/Work/DeviceTester/amazon-freertos/lib/third_party/mcu_vendor/renesas/rz_mcu_boards/core_package/generate/os_abstraction/src\r_os_abstraction_api.c ****         ;/* allow re-entrant access */
1015:D:/Work/DeviceTester/amazon-freertos/lib/third_party/mcu_vendor/renesas/rz_mcu_boards/core_package/generate/os_abstraction/src\r_os_abstraction_api.c ****     }
1016:D:/Work/DeviceTester/amazon-freertos/lib/third_party/mcu_vendor/renesas/rz_mcu_boards/core_package/generate/os_abstraction/src\r_os_abstraction_api.c ****     else
1017:D:/Work/DeviceTester/amazon-freertos/lib/third_party/mcu_vendor/renesas/rz_mcu_boards/core_package/generate/os_abstraction/src\r_os_abstraction_api.c ****     {
1018:D:/Work/DeviceTester/amazon-freertos/lib/third_party/mcu_vendor/renesas/rz_mcu_boards/core_package/generate/os_abstraction/src\r_os_abstraction_api.c ****         /* Wait for access to the list */
1019:D:/Work/DeviceTester/amazon-freertos/lib/third_party/mcu_vendor/renesas/rz_mcu_boards/core_package/generate/os_abstraction/src\r_os_abstraction_api.c ****         if (NULL == s_pstream_mutex)
 980              		.loc 1 1019 0
 981 0030 30409FE5 		ldr	r4, .L94+8
 982 0034 003094E5 		ldr	r3, [r4]
 983 0038 000053E3 		cmp	r3, #0
 984 003c 0200001A 		bne	.L89
1020:D:/Work/DeviceTester/amazon-freertos/lib/third_party/mcu_vendor/renesas/rz_mcu_boards/core_package/generate/os_abstraction/src\r_os_abstraction_api.c ****         {
1021:D:/Work/DeviceTester/amazon-freertos/lib/third_party/mcu_vendor/renesas/rz_mcu_boards/core_package/generate/os_abstraction/src\r_os_abstraction_api.c ****             /*Get handle to mutex*/
1022:D:/Work/DeviceTester/amazon-freertos/lib/third_party/mcu_vendor/renesas/rz_mcu_boards/core_package/generate/os_abstraction/src\r_os_abstraction_api.c ****             s_pstream_mutex = xSemaphoreCreateMutex();
 985              		.loc 1 1022 0
 986 0040 0100A0E3 		mov	r0, #1
 987              	.LVL73:
 988 0044 FEFFFFEB 		bl	xQueueCreateMutex
 989              	.LVL74:
 990 0048 000084E5 		str	r0, [r4]
 991              	.L89:
1023:D:/Work/DeviceTester/amazon-freertos/lib/third_party/mcu_vendor/renesas/rz_mcu_boards/core_package/generate/os_abstraction/src\r_os_abstraction_api.c ****         }
1024:D:/Work/DeviceTester/amazon-freertos/lib/third_party/mcu_vendor/renesas/rz_mcu_boards/core_package/generate/os_abstraction/src\r_os_abstraction_api.c **** 
1025:D:/Work/DeviceTester/amazon-freertos/lib/third_party/mcu_vendor/renesas/rz_mcu_boards/core_package/generate/os_abstraction/src\r_os_abstraction_api.c ****         /* Wait mutex */
1026:D:/Work/DeviceTester/amazon-freertos/lib/third_party/mcu_vendor/renesas/rz_mcu_boards/core_package/generate/os_abstraction/src\r_os_abstraction_api.c ****         xSemaphoreTake(s_pstream_mutex, portMAX_DELAY);
 992              		.loc 1 1026 0
 993 004c 0010E0E3 		mvn	r1, #0
 994 0050 000094E5 		ldr	r0, [r4]
 995 0054 FEFFFFEB 		bl	xQueueSemaphoreTake
 996              	.LVL75:
1027:D:/Work/DeviceTester/amazon-freertos/lib/third_party/mcu_vendor/renesas/rz_mcu_boards/core_package/generate/os_abstraction/src\r_os_abstraction_api.c **** 
1028:D:/Work/DeviceTester/amazon-freertos/lib/third_party/mcu_vendor/renesas/rz_mcu_boards/core_package/generate/os_abstraction/src\r_os_abstraction_api.c ****         /* Assign the task ID for future reentrant access */
1029:D:/Work/DeviceTester/amazon-freertos/lib/third_party/mcu_vendor/renesas/rz_mcu_boards/core_package/generate/os_abstraction/src\r_os_abstraction_api.c ****         sp_task_handle = p_task_handle;
 997              		.loc 1 1029 0
 998 0058 006085E5 		str	r6, [r5]
 999 005c 7080BDE8 		pop	{r4, r5, r6, pc}
 1000              	.L95:
 1001              		.align	2
 1002              	.L94:
 1003 0060 00000000 		.word	.LANCHOR0
 1004 0064 00000000 		.word	.LANCHOR3
 1005 0068 00000000 		.word	.LANCHOR4
 1006              		.cfi_endproc
 1007              	.LFE30:
 1009              		.section	.text.R_OS_SysReleaseAccess,"ax",%progbits
 1010              		.align	2
 1011              		.global	R_OS_SysReleaseAccess
 1012              		.syntax unified
 1013              		.arm
 1014              		.fpu neon
 1016              	R_OS_SysReleaseAccess:
 1017              	.LFB31:
1030:D:/Work/DeviceTester/amazon-freertos/lib/third_party/mcu_vendor/renesas/rz_mcu_boards/core_package/generate/os_abstraction/src\r_os_abstraction_api.c ****     }
1031:D:/Work/DeviceTester/amazon-freertos/lib/third_party/mcu_vendor/renesas/rz_mcu_boards/core_package/generate/os_abstraction/src\r_os_abstraction_api.c **** }
1032:D:/Work/DeviceTester/amazon-freertos/lib/third_party/mcu_vendor/renesas/rz_mcu_boards/core_package/generate/os_abstraction/src\r_os_abstraction_api.c **** /**************************************************************************************************
1033:D:/Work/DeviceTester/amazon-freertos/lib/third_party/mcu_vendor/renesas/rz_mcu_boards/core_package/generate/os_abstraction/src\r_os_abstraction_api.c ****  End of function R_OS_SysWaitAccess
1034:D:/Work/DeviceTester/amazon-freertos/lib/third_party/mcu_vendor/renesas/rz_mcu_boards/core_package/generate/os_abstraction/src\r_os_abstraction_api.c ****  **************************************************************************************************
1035:D:/Work/DeviceTester/amazon-freertos/lib/third_party/mcu_vendor/renesas/rz_mcu_boards/core_package/generate/os_abstraction/src\r_os_abstraction_api.c **** 
1036:D:/Work/DeviceTester/amazon-freertos/lib/third_party/mcu_vendor/renesas/rz_mcu_boards/core_package/generate/os_abstraction/src\r_os_abstraction_api.c **** /**************************************************************************************************
1037:D:/Work/DeviceTester/amazon-freertos/lib/third_party/mcu_vendor/renesas/rz_mcu_boards/core_package/generate/os_abstraction/src\r_os_abstraction_api.c ****  * Function Name: R_OS_SysReleaseAccess
1038:D:/Work/DeviceTester/amazon-freertos/lib/third_party/mcu_vendor/renesas/rz_mcu_boards/core_package/generate/os_abstraction/src\r_os_abstraction_api.c ****  * Description  :  The OS Abstraction layer contains a system mutex, this function allows a user to
1039:D:/Work/DeviceTester/amazon-freertos/lib/third_party/mcu_vendor/renesas/rz_mcu_boards/core_package/generate/os_abstraction/src\r_os_abstraction_api.c ****  *                 mutex from system critical usage.
1040:D:/Work/DeviceTester/amazon-freertos/lib/third_party/mcu_vendor/renesas/rz_mcu_boards/core_package/generate/os_abstraction/src\r_os_abstraction_api.c ****  *
1041:D:/Work/DeviceTester/amazon-freertos/lib/third_party/mcu_vendor/renesas/rz_mcu_boards/core_package/generate/os_abstraction/src\r_os_abstraction_api.c ****  *               sp_task_handle - keeps record of which task owns the mutex, to allow for re-entran
1042:D:/Work/DeviceTester/amazon-freertos/lib/third_party/mcu_vendor/renesas/rz_mcu_boards/core_package/generate/os_abstraction/src\r_os_abstraction_api.c ****  *               s_pstream_mutex - system mutex
1043:D:/Work/DeviceTester/amazon-freertos/lib/third_party/mcu_vendor/renesas/rz_mcu_boards/core_package/generate/os_abstraction/src\r_os_abstraction_api.c ****  *
1044:D:/Work/DeviceTester/amazon-freertos/lib/third_party/mcu_vendor/renesas/rz_mcu_boards/core_package/generate/os_abstraction/src\r_os_abstraction_api.c ****  * Arguments    : none
1045:D:/Work/DeviceTester/amazon-freertos/lib/third_party/mcu_vendor/renesas/rz_mcu_boards/core_package/generate/os_abstraction/src\r_os_abstraction_api.c ****  * Return Value : none
1046:D:/Work/DeviceTester/amazon-freertos/lib/third_party/mcu_vendor/renesas/rz_mcu_boards/core_package/generate/os_abstraction/src\r_os_abstraction_api.c ****  **************************************************************************************************
1047:D:/Work/DeviceTester/amazon-freertos/lib/third_party/mcu_vendor/renesas/rz_mcu_boards/core_package/generate/os_abstraction/src\r_os_abstraction_api.c **** void R_OS_SysReleaseAccess (void)
1048:D:/Work/DeviceTester/amazon-freertos/lib/third_party/mcu_vendor/renesas/rz_mcu_boards/core_package/generate/os_abstraction/src\r_os_abstraction_api.c **** {
 1018              		.loc 1 1048 0
 1019              		.cfi_startproc
 1020              		@ args = 0, pretend = 0, frame = 0
 1021              		@ frame_needed = 0, uses_anonymous_args = 0
 1022              		@ link register save eliminated.
1049:D:/Work/DeviceTester/amazon-freertos/lib/third_party/mcu_vendor/renesas/rz_mcu_boards/core_package/generate/os_abstraction/src\r_os_abstraction_api.c ****     if(false == s_os_running)
 1023              		.loc 1 1049 0
 1024 0000 28309FE5 		ldr	r3, .L98
 1025 0004 003093E5 		ldr	r3, [r3]
 1026 0008 000053E3 		cmp	r3, #0
 1027 000c 1EFF2F01 		bxeq	lr
1050:D:/Work/DeviceTester/amazon-freertos/lib/third_party/mcu_vendor/renesas/rz_mcu_boards/core_package/generate/os_abstraction/src\r_os_abstraction_api.c ****     {
1051:D:/Work/DeviceTester/amazon-freertos/lib/third_party/mcu_vendor/renesas/rz_mcu_boards/core_package/generate/os_abstraction/src\r_os_abstraction_api.c ****     	return;
1052:D:/Work/DeviceTester/amazon-freertos/lib/third_party/mcu_vendor/renesas/rz_mcu_boards/core_package/generate/os_abstraction/src\r_os_abstraction_api.c ****     }
1053:D:/Work/DeviceTester/amazon-freertos/lib/third_party/mcu_vendor/renesas/rz_mcu_boards/core_package/generate/os_abstraction/src\r_os_abstraction_api.c **** 
1054:D:/Work/DeviceTester/amazon-freertos/lib/third_party/mcu_vendor/renesas/rz_mcu_boards/core_package/generate/os_abstraction/src\r_os_abstraction_api.c ****     /*Release current task ownership of mutex*/
1055:D:/Work/DeviceTester/amazon-freertos/lib/third_party/mcu_vendor/renesas/rz_mcu_boards/core_package/generate/os_abstraction/src\r_os_abstraction_api.c ****     sp_task_handle = NULL;
 1028              		.loc 1 1055 0
 1029 0010 1C209FE5 		ldr	r2, .L98+4
 1030 0014 0030A0E3 		mov	r3, #0
1056:D:/Work/DeviceTester/amazon-freertos/lib/third_party/mcu_vendor/renesas/rz_mcu_boards/core_package/generate/os_abstraction/src\r_os_abstraction_api.c **** 
1057:D:/Work/DeviceTester/amazon-freertos/lib/third_party/mcu_vendor/renesas/rz_mcu_boards/core_package/generate/os_abstraction/src\r_os_abstraction_api.c ****     /* Release mutex */
1058:D:/Work/DeviceTester/amazon-freertos/lib/third_party/mcu_vendor/renesas/rz_mcu_boards/core_package/generate/os_abstraction/src\r_os_abstraction_api.c ****     xSemaphoreGive(s_pstream_mutex);
 1031              		.loc 1 1058 0
 1032 0018 18009FE5 		ldr	r0, .L98+8
 1033 001c 0310A0E1 		mov	r1, r3
1055:D:/Work/DeviceTester/amazon-freertos/lib/third_party/mcu_vendor/renesas/rz_mcu_boards/core_package/generate/os_abstraction/src\r_os_abstraction_api.c **** 
 1034              		.loc 1 1055 0
 1035 0020 003082E5 		str	r3, [r2]
 1036              		.loc 1 1058 0
 1037 0024 0320A0E1 		mov	r2, r3
 1038 0028 000090E5 		ldr	r0, [r0]
 1039 002c FEFFFFEA 		b	xQueueGenericSend
 1040              	.LVL76:
 1041              	.L99:
 1042              		.align	2
 1043              	.L98:
 1044 0030 00000000 		.word	.LANCHOR0
 1045 0034 00000000 		.word	.LANCHOR3
 1046 0038 00000000 		.word	.LANCHOR4
 1047              		.cfi_endproc
 1048              	.LFE31:
 1050              		.section	.text.R_OS_AssertCalled,"ax",%progbits
 1051              		.align	2
 1052              		.global	R_OS_AssertCalled
 1053              		.syntax unified
 1054              		.arm
 1055              		.fpu neon
 1057              	R_OS_AssertCalled:
 1058              	.LFB32:
1059:D:/Work/DeviceTester/amazon-freertos/lib/third_party/mcu_vendor/renesas/rz_mcu_boards/core_package/generate/os_abstraction/src\r_os_abstraction_api.c **** }
1060:D:/Work/DeviceTester/amazon-freertos/lib/third_party/mcu_vendor/renesas/rz_mcu_boards/core_package/generate/os_abstraction/src\r_os_abstraction_api.c **** /**************************************************************************************************
1061:D:/Work/DeviceTester/amazon-freertos/lib/third_party/mcu_vendor/renesas/rz_mcu_boards/core_package/generate/os_abstraction/src\r_os_abstraction_api.c ****  End of function R_OS_SysReleaseAccess
1062:D:/Work/DeviceTester/amazon-freertos/lib/third_party/mcu_vendor/renesas/rz_mcu_boards/core_package/generate/os_abstraction/src\r_os_abstraction_api.c ****  **************************************************************************************************
1063:D:/Work/DeviceTester/amazon-freertos/lib/third_party/mcu_vendor/renesas/rz_mcu_boards/core_package/generate/os_abstraction/src\r_os_abstraction_api.c **** 
1064:D:/Work/DeviceTester/amazon-freertos/lib/third_party/mcu_vendor/renesas/rz_mcu_boards/core_package/generate/os_abstraction/src\r_os_abstraction_api.c **** /**************************************************************************************************
1065:D:/Work/DeviceTester/amazon-freertos/lib/third_party/mcu_vendor/renesas/rz_mcu_boards/core_package/generate/os_abstraction/src\r_os_abstraction_api.c ****  * Function Name: R_OS_AssertCalled
1066:D:/Work/DeviceTester/amazon-freertos/lib/third_party/mcu_vendor/renesas/rz_mcu_boards/core_package/generate/os_abstraction/src\r_os_abstraction_api.c ****  * Description  : Generic error Handler
1067:D:/Work/DeviceTester/amazon-freertos/lib/third_party/mcu_vendor/renesas/rz_mcu_boards/core_package/generate/os_abstraction/src\r_os_abstraction_api.c ****  * Arguments    : file - Source code file where the error occurred.
1068:D:/Work/DeviceTester/amazon-freertos/lib/third_party/mcu_vendor/renesas/rz_mcu_boards/core_package/generate/os_abstraction/src\r_os_abstraction_api.c ****  *                line - Source code file where the error occurred.
1069:D:/Work/DeviceTester/amazon-freertos/lib/third_party/mcu_vendor/renesas/rz_mcu_boards/core_package/generate/os_abstraction/src\r_os_abstraction_api.c ****  * Return Value : none
1070:D:/Work/DeviceTester/amazon-freertos/lib/third_party/mcu_vendor/renesas/rz_mcu_boards/core_package/generate/os_abstraction/src\r_os_abstraction_api.c ****  **************************************************************************************************
1071:D:/Work/DeviceTester/amazon-freertos/lib/third_party/mcu_vendor/renesas/rz_mcu_boards/core_package/generate/os_abstraction/src\r_os_abstraction_api.c **** void R_OS_AssertCalled (const char *p_file, uint32_t line)
1072:D:/Work/DeviceTester/amazon-freertos/lib/third_party/mcu_vendor/renesas/rz_mcu_boards/core_package/generate/os_abstraction/src\r_os_abstraction_api.c **** 
1073:D:/Work/DeviceTester/amazon-freertos/lib/third_party/mcu_vendor/renesas/rz_mcu_boards/core_package/generate/os_abstraction/src\r_os_abstraction_api.c **** {
 1059              		.loc 1 1073 0
 1060              		.cfi_startproc
 1061              		@ args = 0, pretend = 0, frame = 40
 1062              		@ frame_needed = 0, uses_anonymous_args = 0
 1063              	.LVL77:
 1064 0000 30402DE9 		push	{r4, r5, lr}
 1065              		.cfi_def_cfa_offset 12
 1066              		.cfi_offset 4, -12
 1067              		.cfi_offset 5, -8
 1068              		.cfi_offset 14, -4
 1069 0004 2CD04DE2 		sub	sp, sp, #44
 1070              		.cfi_def_cfa_offset 56
 1071              		.loc 1 1073 0
 1072 0008 0040A0E1 		mov	r4, r0
 1073 000c 0150A0E1 		mov	r5, r1
1074:D:/Work/DeviceTester/amazon-freertos/lib/third_party/mcu_vendor/renesas/rz_mcu_boards/core_package/generate/os_abstraction/src\r_os_abstraction_api.c ****     volatile uint32_t ul = 0;
1075:D:/Work/DeviceTester/amazon-freertos/lib/third_party/mcu_vendor/renesas/rz_mcu_boards/core_package/generate/os_abstraction/src\r_os_abstraction_api.c ****     char local_string_buffer[32];
1076:D:/Work/DeviceTester/amazon-freertos/lib/third_party/mcu_vendor/renesas/rz_mcu_boards/core_package/generate/os_abstraction/src\r_os_abstraction_api.c **** 
1077:D:/Work/DeviceTester/amazon-freertos/lib/third_party/mcu_vendor/renesas/rz_mcu_boards/core_package/generate/os_abstraction/src\r_os_abstraction_api.c ****     memset(local_string_buffer, 0, 32);
 1074              		.loc 1 1077 0
 1075 0010 2020A0E3 		mov	r2, #32
1074:D:/Work/DeviceTester/amazon-freertos/lib/third_party/mcu_vendor/renesas/rz_mcu_boards/core_package/generate/os_abstraction/src\r_os_abstraction_api.c ****     volatile uint32_t ul = 0;
 1076              		.loc 1 1074 0
 1077 0014 0010A0E3 		mov	r1, #0
 1078              	.LVL78:
 1079              		.loc 1 1077 0
 1080 0018 08008DE2 		add	r0, sp, #8
 1081              	.LVL79:
1074:D:/Work/DeviceTester/amazon-freertos/lib/third_party/mcu_vendor/renesas/rz_mcu_boards/core_package/generate/os_abstraction/src\r_os_abstraction_api.c ****     volatile uint32_t ul = 0;
 1082              		.loc 1 1074 0
 1083 001c 04108DE5 		str	r1, [sp, #4]
 1084              		.loc 1 1077 0
 1085 0020 FEFFFFEB 		bl	memset
 1086              	.LVL80:
1078:D:/Work/DeviceTester/amazon-freertos/lib/third_party/mcu_vendor/renesas/rz_mcu_boards/core_package/generate/os_abstraction/src\r_os_abstraction_api.c **** 
1079:D:/Work/DeviceTester/amazon-freertos/lib/third_party/mcu_vendor/renesas/rz_mcu_boards/core_package/generate/os_abstraction/src\r_os_abstraction_api.c ****     /* Variable assigned to a volatile static variable to avoid being optimised away */
1080:D:/Work/DeviceTester/amazon-freertos/lib/third_party/mcu_vendor/renesas/rz_mcu_boards/core_package/generate/os_abstraction/src\r_os_abstraction_api.c ****     strncpy(s_file, p_file, 199);
 1087              		.loc 1 1080 0
 1088 0024 0410A0E1 		mov	r1, r4
1081:D:/Work/DeviceTester/amazon-freertos/lib/third_party/mcu_vendor/renesas/rz_mcu_boards/core_package/generate/os_abstraction/src\r_os_abstraction_api.c **** 
1082:D:/Work/DeviceTester/amazon-freertos/lib/third_party/mcu_vendor/renesas/rz_mcu_boards/core_package/generate/os_abstraction/src\r_os_abstraction_api.c ****     /* Variable assigned to a volatile static variable to avoid being optimised away */
1083:D:/Work/DeviceTester/amazon-freertos/lib/third_party/mcu_vendor/renesas/rz_mcu_boards/core_package/generate/os_abstraction/src\r_os_abstraction_api.c ****     s_line = line;
 1089              		.loc 1 1083 0
 1090 0028 94409FE5 		ldr	r4, .L107
 1091              	.LVL81:
1080:D:/Work/DeviceTester/amazon-freertos/lib/third_party/mcu_vendor/renesas/rz_mcu_boards/core_package/generate/os_abstraction/src\r_os_abstraction_api.c **** 
 1092              		.loc 1 1080 0
 1093 002c C720A0E3 		mov	r2, #199
 1094 0030 90009FE5 		ldr	r0, .L107+4
 1095 0034 FEFFFFEB 		bl	strncpy
 1096              	.LVL82:
1084:D:/Work/DeviceTester/amazon-freertos/lib/third_party/mcu_vendor/renesas/rz_mcu_boards/core_package/generate/os_abstraction/src\r_os_abstraction_api.c **** 
1085:D:/Work/DeviceTester/amazon-freertos/lib/third_party/mcu_vendor/renesas/rz_mcu_boards/core_package/generate/os_abstraction/src\r_os_abstraction_api.c ****     /* print to console */
1086:D:/Work/DeviceTester/amazon-freertos/lib/third_party/mcu_vendor/renesas/rz_mcu_boards/core_package/generate/os_abstraction/src\r_os_abstraction_api.c ****     printf("\r\nR_OS_Assert. File :%s", s_file);
 1097              		.loc 1 1086 0
 1098 0038 88109FE5 		ldr	r1, .L107+4
 1099 003c 88009FE5 		ldr	r0, .L107+8
1083:D:/Work/DeviceTester/amazon-freertos/lib/third_party/mcu_vendor/renesas/rz_mcu_boards/core_package/generate/os_abstraction/src\r_os_abstraction_api.c **** 
 1100              		.loc 1 1083 0
 1101 0040 005084E5 		str	r5, [r4]
 1102              		.loc 1 1086 0
 1103 0044 FEFFFFEB 		bl	printf
 1104              	.LVL83:
1087:D:/Work/DeviceTester/amazon-freertos/lib/third_party/mcu_vendor/renesas/rz_mcu_boards/core_package/generate/os_abstraction/src\r_os_abstraction_api.c ****     printf("\r\n Line %d\r\n:(\r\n", ((uint16_t) s_line));
 1105              		.loc 1 1087 0
 1106 0048 B010D4E1 		ldrh	r1, [r4]
 1107 004c 7C009FE5 		ldr	r0, .L107+12
 1108 0050 FEFFFFEB 		bl	printf
 1109              	.LVL84:
1088:D:/Work/DeviceTester/amazon-freertos/lib/third_party/mcu_vendor/renesas/rz_mcu_boards/core_package/generate/os_abstraction/src\r_os_abstraction_api.c **** 
1089:D:/Work/DeviceTester/amazon-freertos/lib/third_party/mcu_vendor/renesas/rz_mcu_boards/core_package/generate/os_abstraction/src\r_os_abstraction_api.c ****     strncpy(local_string_buffer, R_OS_TaskGetCurrentName(), 31);
 1110              		.loc 1 1089 0
 1111 0054 FEFFFFEB 		bl	R_OS_TaskGetCurrentName
 1112              	.LVL85:
 1113 0058 1F20A0E3 		mov	r2, #31
 1114 005c 0010A0E1 		mov	r1, r0
 1115 0060 08008DE2 		add	r0, sp, #8
 1116 0064 FEFFFFEB 		bl	strncpy
 1117              	.LVL86:
1090:D:/Work/DeviceTester/amazon-freertos/lib/third_party/mcu_vendor/renesas/rz_mcu_boards/core_package/generate/os_abstraction/src\r_os_abstraction_api.c ****     strcat(local_string_buffer, "\0");
1091:D:/Work/DeviceTester/amazon-freertos/lib/third_party/mcu_vendor/renesas/rz_mcu_boards/core_package/generate/os_abstraction/src\r_os_abstraction_api.c ****     printf("Current task: %s\r\n", local_string_buffer);
 1118              		.loc 1 1091 0
 1119 0068 08108DE2 		add	r1, sp, #8
 1120 006c 60009FE5 		ldr	r0, .L107+16
 1121 0070 FEFFFFEB 		bl	printf
 1122              	.LVL87:
1092:D:/Work/DeviceTester/amazon-freertos/lib/third_party/mcu_vendor/renesas/rz_mcu_boards/core_package/generate/os_abstraction/src\r_os_abstraction_api.c **** 
1093:D:/Work/DeviceTester/amazon-freertos/lib/third_party/mcu_vendor/renesas/rz_mcu_boards/core_package/generate/os_abstraction/src\r_os_abstraction_api.c ****     fflush(stdout);
 1123              		.loc 1 1093 0
 1124 0074 5C309FE5 		ldr	r3, .L107+20
 1125 0078 003093E5 		ldr	r3, [r3]
 1126 007c 080093E5 		ldr	r0, [r3, #8]
 1127 0080 FEFFFFEB 		bl	fflush
 1128              	.LVL88:
 1129              	.L101:
1094:D:/Work/DeviceTester/amazon-freertos/lib/third_party/mcu_vendor/renesas/rz_mcu_boards/core_package/generate/os_abstraction/src\r_os_abstraction_api.c **** 
1095:D:/Work/DeviceTester/amazon-freertos/lib/third_party/mcu_vendor/renesas/rz_mcu_boards/core_package/generate/os_abstraction/src\r_os_abstraction_api.c **** #ifdef LOG_TASK_INFO
1096:D:/Work/DeviceTester/amazon-freertos/lib/third_party/mcu_vendor/renesas/rz_mcu_boards/core_package/generate/os_abstraction/src\r_os_abstraction_api.c ****     printf("\r\nLog of Memory transactions:\r\n");
1097:D:/Work/DeviceTester/amazon-freertos/lib/third_party/mcu_vendor/renesas/rz_mcu_boards/core_package/generate/os_abstraction/src\r_os_abstraction_api.c ****     log_write_data_to_console();
1098:D:/Work/DeviceTester/amazon-freertos/lib/third_party/mcu_vendor/renesas/rz_mcu_boards/core_package/generate/os_abstraction/src\r_os_abstraction_api.c **** #endif /* LOG_TASK_INFO */
1099:D:/Work/DeviceTester/amazon-freertos/lib/third_party/mcu_vendor/renesas/rz_mcu_boards/core_package/generate/os_abstraction/src\r_os_abstraction_api.c **** 
1100:D:/Work/DeviceTester/amazon-freertos/lib/third_party/mcu_vendor/renesas/rz_mcu_boards/core_package/generate/os_abstraction/src\r_os_abstraction_api.c ****     /*Software Loop to ensure error detail printed to console*/
1101:D:/Work/DeviceTester/amazon-freertos/lib/third_party/mcu_vendor/renesas/rz_mcu_boards/core_package/generate/os_abstraction/src\r_os_abstraction_api.c ****     while (0xFFFFFF >= ul)
 1130              		.loc 1 1101 0
 1131 0084 04309DE5 		ldr	r3, [sp, #4]
 1132 0088 010453E3 		cmp	r3, #16777216
 1133 008c 0800003A 		bcc	.L102
1102:D:/Work/DeviceTester/amazon-freertos/lib/third_party/mcu_vendor/renesas/rz_mcu_boards/core_package/generate/os_abstraction/src\r_os_abstraction_api.c ****     {
1103:D:/Work/DeviceTester/amazon-freertos/lib/third_party/mcu_vendor/renesas/rz_mcu_boards/core_package/generate/os_abstraction/src\r_os_abstraction_api.c ****         uint32_t ll;
1104:D:/Work/DeviceTester/amazon-freertos/lib/third_party/mcu_vendor/renesas/rz_mcu_boards/core_package/generate/os_abstraction/src\r_os_abstraction_api.c ****         for (ll = 0; ll < 0xFFFF; ll++)
1105:D:/Work/DeviceTester/amazon-freertos/lib/third_party/mcu_vendor/renesas/rz_mcu_boards/core_package/generate/os_abstraction/src\r_os_abstraction_api.c ****         {
1106:D:/Work/DeviceTester/amazon-freertos/lib/third_party/mcu_vendor/renesas/rz_mcu_boards/core_package/generate/os_abstraction/src\r_os_abstraction_api.c ****             ;
1107:D:/Work/DeviceTester/amazon-freertos/lib/third_party/mcu_vendor/renesas/rz_mcu_boards/core_package/generate/os_abstraction/src\r_os_abstraction_api.c ****         }
1108:D:/Work/DeviceTester/amazon-freertos/lib/third_party/mcu_vendor/renesas/rz_mcu_boards/core_package/generate/os_abstraction/src\r_os_abstraction_api.c ****         ul++;
1109:D:/Work/DeviceTester/amazon-freertos/lib/third_party/mcu_vendor/renesas/rz_mcu_boards/core_package/generate/os_abstraction/src\r_os_abstraction_api.c ****     }
1110:D:/Work/DeviceTester/amazon-freertos/lib/third_party/mcu_vendor/renesas/rz_mcu_boards/core_package/generate/os_abstraction/src\r_os_abstraction_api.c **** 
1111:D:/Work/DeviceTester/amazon-freertos/lib/third_party/mcu_vendor/renesas/rz_mcu_boards/core_package/generate/os_abstraction/src\r_os_abstraction_api.c ****     ul = 0;
 1134              		.loc 1 1111 0
 1135 0090 0030A0E3 		mov	r3, #0
 1136 0094 04308DE5 		str	r3, [sp, #4]
1112:D:/Work/DeviceTester/amazon-freertos/lib/third_party/mcu_vendor/renesas/rz_mcu_boards/core_package/generate/os_abstraction/src\r_os_abstraction_api.c **** 
1113:D:/Work/DeviceTester/amazon-freertos/lib/third_party/mcu_vendor/renesas/rz_mcu_boards/core_package/generate/os_abstraction/src\r_os_abstraction_api.c ****     /*FreeRTOS Error Handling Loop*/
1114:D:/Work/DeviceTester/amazon-freertos/lib/third_party/mcu_vendor/renesas/rz_mcu_boards/core_package/generate/os_abstraction/src\r_os_abstraction_api.c ****     taskENTER_CRITICAL()
 1137              		.loc 1 1114 0
 1138 0098 FEFFFFEB 		bl	vPortEnterCritical
 1139              	.LVL89:
 1140              	.L103:
1115:D:/Work/DeviceTester/amazon-freertos/lib/third_party/mcu_vendor/renesas/rz_mcu_boards/core_package/generate/os_abstraction/src\r_os_abstraction_api.c ****     ;
1116:D:/Work/DeviceTester/amazon-freertos/lib/third_party/mcu_vendor/renesas/rz_mcu_boards/core_package/generate/os_abstraction/src\r_os_abstraction_api.c **** 
1117:D:/Work/DeviceTester/amazon-freertos/lib/third_party/mcu_vendor/renesas/rz_mcu_boards/core_package/generate/os_abstraction/src\r_os_abstraction_api.c ****     /* Set ul to a non-zero value using the debugger to step out of this function */
1118:D:/Work/DeviceTester/amazon-freertos/lib/third_party/mcu_vendor/renesas/rz_mcu_boards/core_package/generate/os_abstraction/src\r_os_abstraction_api.c ****     while (0 == ul)
 1141              		.loc 1 1118 0 discriminator 1
 1142 009c 04309DE5 		ldr	r3, [sp, #4]
 1143 00a0 000053E3 		cmp	r3, #0
 1144 00a4 FCFFFF0A 		beq	.L103
1119:D:/Work/DeviceTester/amazon-freertos/lib/third_party/mcu_vendor/renesas/rz_mcu_boards/core_package/generate/os_abstraction/src\r_os_abstraction_api.c ****     {
1120:D:/Work/DeviceTester/amazon-freertos/lib/third_party/mcu_vendor/renesas/rz_mcu_boards/core_package/generate/os_abstraction/src\r_os_abstraction_api.c ****         ;
1121:D:/Work/DeviceTester/amazon-freertos/lib/third_party/mcu_vendor/renesas/rz_mcu_boards/core_package/generate/os_abstraction/src\r_os_abstraction_api.c ****     }
1122:D:/Work/DeviceTester/amazon-freertos/lib/third_party/mcu_vendor/renesas/rz_mcu_boards/core_package/generate/os_abstraction/src\r_os_abstraction_api.c **** 
1123:D:/Work/DeviceTester/amazon-freertos/lib/third_party/mcu_vendor/renesas/rz_mcu_boards/core_package/generate/os_abstraction/src\r_os_abstraction_api.c ****     taskEXIT_CRITICAL()
 1145              		.loc 1 1123 0
 1146 00a8 FEFFFFEB 		bl	vPortExitCritical
 1147              	.LVL90:
1124:D:/Work/DeviceTester/amazon-freertos/lib/third_party/mcu_vendor/renesas/rz_mcu_boards/core_package/generate/os_abstraction/src\r_os_abstraction_api.c ****     ;
1125:D:/Work/DeviceTester/amazon-freertos/lib/third_party/mcu_vendor/renesas/rz_mcu_boards/core_package/generate/os_abstraction/src\r_os_abstraction_api.c **** }
 1148              		.loc 1 1125 0
 1149 00ac 2CD08DE2 		add	sp, sp, #44
 1150              		.cfi_remember_state
 1151              		.cfi_def_cfa_offset 12
 1152              		@ sp needed
 1153 00b0 3080BDE8 		pop	{r4, r5, pc}
 1154              	.LVL91:
 1155              	.L102:
 1156              		.cfi_restore_state
 1157              	.LBB20:
1108:D:/Work/DeviceTester/amazon-freertos/lib/third_party/mcu_vendor/renesas/rz_mcu_boards/core_package/generate/os_abstraction/src\r_os_abstraction_api.c ****     }
 1158              		.loc 1 1108 0
 1159 00b4 04309DE5 		ldr	r3, [sp, #4]
 1160 00b8 013083E2 		add	r3, r3, #1
 1161 00bc 04308DE5 		str	r3, [sp, #4]
 1162 00c0 EFFFFFEA 		b	.L101
 1163              	.L108:
 1164              		.align	2
 1165              	.L107:
 1166 00c4 00000000 		.word	.LANCHOR6
 1167 00c8 00000000 		.word	.LANCHOR5
 1168 00cc 00000000 		.word	.LC0
 1169 00d0 18000000 		.word	.LC1
 1170 00d4 29000000 		.word	.LC2
 1171 00d8 00000000 		.word	_impure_ptr
 1172              	.LBE20:
 1173              		.cfi_endproc
 1174              	.LFE32:
 1176              		.section	.text.R_OS_Malloc,"ax",%progbits
 1177              		.align	2
 1178              		.global	R_OS_Malloc
 1179              		.syntax unified
 1180              		.arm
 1181              		.fpu neon
 1183              	R_OS_Malloc:
 1184              	.LFB33:
1126:D:/Work/DeviceTester/amazon-freertos/lib/third_party/mcu_vendor/renesas/rz_mcu_boards/core_package/generate/os_abstraction/src\r_os_abstraction_api.c **** /**************************************************************************************************
1127:D:/Work/DeviceTester/amazon-freertos/lib/third_party/mcu_vendor/renesas/rz_mcu_boards/core_package/generate/os_abstraction/src\r_os_abstraction_api.c ****  End of function R_OS_AssertCalled
1128:D:/Work/DeviceTester/amazon-freertos/lib/third_party/mcu_vendor/renesas/rz_mcu_boards/core_package/generate/os_abstraction/src\r_os_abstraction_api.c ****  **************************************************************************************************
1129:D:/Work/DeviceTester/amazon-freertos/lib/third_party/mcu_vendor/renesas/rz_mcu_boards/core_package/generate/os_abstraction/src\r_os_abstraction_api.c **** 
1130:D:/Work/DeviceTester/amazon-freertos/lib/third_party/mcu_vendor/renesas/rz_mcu_boards/core_package/generate/os_abstraction/src\r_os_abstraction_api.c **** /**************************************************************************************************
1131:D:/Work/DeviceTester/amazon-freertos/lib/third_party/mcu_vendor/renesas/rz_mcu_boards/core_package/generate/os_abstraction/src\r_os_abstraction_api.c ****  *                                  Memory Management API
1132:D:/Work/DeviceTester/amazon-freertos/lib/third_party/mcu_vendor/renesas/rz_mcu_boards/core_package/generate/os_abstraction/src\r_os_abstraction_api.c ****  **************************************************************************************************
1133:D:/Work/DeviceTester/amazon-freertos/lib/third_party/mcu_vendor/renesas/rz_mcu_boards/core_package/generate/os_abstraction/src\r_os_abstraction_api.c **** 
1134:D:/Work/DeviceTester/amazon-freertos/lib/third_party/mcu_vendor/renesas/rz_mcu_boards/core_package/generate/os_abstraction/src\r_os_abstraction_api.c **** /**************************************************************************************************
1135:D:/Work/DeviceTester/amazon-freertos/lib/third_party/mcu_vendor/renesas/rz_mcu_boards/core_package/generate/os_abstraction/src\r_os_abstraction_api.c ****  * Function Name: R_OS_Malloc
1136:D:/Work/DeviceTester/amazon-freertos/lib/third_party/mcu_vendor/renesas/rz_mcu_boards/core_package/generate/os_abstraction/src\r_os_abstraction_api.c ****  * Description  : Allocate a block of memory
1137:D:/Work/DeviceTester/amazon-freertos/lib/third_party/mcu_vendor/renesas/rz_mcu_boards/core_package/generate/os_abstraction/src\r_os_abstraction_api.c ****  * Arguments    : size - request size
1138:D:/Work/DeviceTester/amazon-freertos/lib/third_party/mcu_vendor/renesas/rz_mcu_boards/core_package/generate/os_abstraction/src\r_os_abstraction_api.c ****  *              : region - region of memory to allocate from
1139:D:/Work/DeviceTester/amazon-freertos/lib/third_party/mcu_vendor/renesas/rz_mcu_boards/core_package/generate/os_abstraction/src\r_os_abstraction_api.c ****  * Return Value : ptr to memory block
1140:D:/Work/DeviceTester/amazon-freertos/lib/third_party/mcu_vendor/renesas/rz_mcu_boards/core_package/generate/os_abstraction/src\r_os_abstraction_api.c ****  **************************************************************************************************
1141:D:/Work/DeviceTester/amazon-freertos/lib/third_party/mcu_vendor/renesas/rz_mcu_boards/core_package/generate/os_abstraction/src\r_os_abstraction_api.c **** void *R_OS_Malloc (size_t size, e_memory_region_t region)
1142:D:/Work/DeviceTester/amazon-freertos/lib/third_party/mcu_vendor/renesas/rz_mcu_boards/core_package/generate/os_abstraction/src\r_os_abstraction_api.c **** {
 1185              		.loc 1 1142 0
 1186              		.cfi_startproc
 1187              		@ args = 0, pretend = 0, frame = 0
 1188              		@ frame_needed = 0, uses_anonymous_args = 0
 1189              	.LVL92:
 1190 0000 70402DE9 		push	{r4, r5, r6, lr}
 1191              		.cfi_def_cfa_offset 16
 1192              		.cfi_offset 4, -16
 1193              		.cfi_offset 5, -12
 1194              		.cfi_offset 6, -8
 1195              		.cfi_offset 14, -4
 1196              		.loc 1 1142 0
 1197 0004 0140A0E1 		mov	r4, r1
 1198 0008 0050A0E1 		mov	r5, r0
1143:D:/Work/DeviceTester/amazon-freertos/lib/third_party/mcu_vendor/renesas/rz_mcu_boards/core_package/generate/os_abstraction/src\r_os_abstraction_api.c ****     void *p_mem_to_alloc;
1144:D:/Work/DeviceTester/amazon-freertos/lib/third_party/mcu_vendor/renesas/rz_mcu_boards/core_package/generate/os_abstraction/src\r_os_abstraction_api.c ****     uint32_t num_regions = (sizeof(xHeapRegions)/sizeof(HeapRegion_t));
1145:D:/Work/DeviceTester/amazon-freertos/lib/third_party/mcu_vendor/renesas/rz_mcu_boards/core_package/generate/os_abstraction/src\r_os_abstraction_api.c **** 
1146:D:/Work/DeviceTester/amazon-freertos/lib/third_party/mcu_vendor/renesas/rz_mcu_boards/core_package/generate/os_abstraction/src\r_os_abstraction_api.c ****     /* The call sequence pvPortsetDesiredBlockForMalloc() to pvPortMalloc() must not be interrupted
1147:D:/Work/DeviceTester/amazon-freertos/lib/third_party/mcu_vendor/renesas/rz_mcu_boards/core_package/generate/os_abstraction/src\r_os_abstraction_api.c ****     /* If interrupted (via task switching) the chosen memory region might be changed by the swapped
1148:D:/Work/DeviceTester/amazon-freertos/lib/third_party/mcu_vendor/renesas/rz_mcu_boards/core_package/generate/os_abstraction/src\r_os_abstraction_api.c ****     vTaskSuspendAll();
 1199              		.loc 1 1148 0
 1200 000c FEFFFFEB 		bl	vTaskSuspendAll
 1201              	.LVL93:
 1202 0010 24309FE5 		ldr	r3, .L114
1149:D:/Work/DeviceTester/amazon-freertos/lib/third_party/mcu_vendor/renesas/rz_mcu_boards/core_package/generate/os_abstraction/src\r_os_abstraction_api.c **** 
1150:D:/Work/DeviceTester/amazon-freertos/lib/third_party/mcu_vendor/renesas/rz_mcu_boards/core_package/generate/os_abstraction/src\r_os_abstraction_api.c ****     /* Use the specified region as long as its referring to a valid section the the xHeapRegions ta
1151:D:/Work/DeviceTester/amazon-freertos/lib/third_party/mcu_vendor/renesas/rz_mcu_boards/core_package/generate/os_abstraction/src\r_os_abstraction_api.c ****     /* If the section is invalid use section 0 which has a default implementation in this file.  */
1152:D:/Work/DeviceTester/amazon-freertos/lib/third_party/mcu_vendor/renesas/rz_mcu_boards/core_package/generate/os_abstraction/src\r_os_abstraction_api.c ****     /* Final entry in xHeapRegions table { NULL, 0 }  can not be specified as this entry indicates 
1153:D:/Work/DeviceTester/amazon-freertos/lib/third_party/mcu_vendor/renesas/rz_mcu_boards/core_package/generate/os_abstraction/src\r_os_abstraction_api.c ****     if((region >= 0 ) && (region < num_regions))
 1203              		.loc 1 1153 0
 1204 0014 010054E3 		cmp	r4, #1
1154:D:/Work/DeviceTester/amazon-freertos/lib/third_party/mcu_vendor/renesas/rz_mcu_boards/core_package/generate/os_abstraction/src\r_os_abstraction_api.c ****     {
1155:D:/Work/DeviceTester/amazon-freertos/lib/third_party/mcu_vendor/renesas/rz_mcu_boards/core_package/generate/os_abstraction/src\r_os_abstraction_api.c ****         pvPortsetDesiredBlockForMalloc((size_t) xHeapRegions[region].pucStartAddress);
 1205              		.loc 1 1155 0
 1206 0018 84019397 		ldrls	r0, [r3, r4, lsl #3]
1156:D:/Work/DeviceTester/amazon-freertos/lib/third_party/mcu_vendor/renesas/rz_mcu_boards/core_package/generate/os_abstraction/src\r_os_abstraction_api.c ****     }
1157:D:/Work/DeviceTester/amazon-freertos/lib/third_party/mcu_vendor/renesas/rz_mcu_boards/core_package/generate/os_abstraction/src\r_os_abstraction_api.c ****     else
1158:D:/Work/DeviceTester/amazon-freertos/lib/third_party/mcu_vendor/renesas/rz_mcu_boards/core_package/generate/os_abstraction/src\r_os_abstraction_api.c ****     {
1159:D:/Work/DeviceTester/amazon-freertos/lib/third_party/mcu_vendor/renesas/rz_mcu_boards/core_package/generate/os_abstraction/src\r_os_abstraction_api.c ****         pvPortsetDesiredBlockForMalloc((size_t) xHeapRegions[0].pucStartAddress);
 1207              		.loc 1 1159 0
 1208 001c 00009385 		ldrhi	r0, [r3]
 1209 0020 FEFFFFEB 		bl	pvPortsetDesiredBlockForMalloc
 1210              	.LVL94:
1160:D:/Work/DeviceTester/amazon-freertos/lib/third_party/mcu_vendor/renesas/rz_mcu_boards/core_package/generate/os_abstraction/src\r_os_abstraction_api.c ****     }
1161:D:/Work/DeviceTester/amazon-freertos/lib/third_party/mcu_vendor/renesas/rz_mcu_boards/core_package/generate/os_abstraction/src\r_os_abstraction_api.c **** 
1162:D:/Work/DeviceTester/amazon-freertos/lib/third_party/mcu_vendor/renesas/rz_mcu_boards/core_package/generate/os_abstraction/src\r_os_abstraction_api.c ****     /* Allocate a memory block */
1163:D:/Work/DeviceTester/amazon-freertos/lib/third_party/mcu_vendor/renesas/rz_mcu_boards/core_package/generate/os_abstraction/src\r_os_abstraction_api.c ****     p_mem_to_alloc = pvPortMalloc(size);
 1211              		.loc 1 1163 0
 1212 0024 0500A0E1 		mov	r0, r5
 1213 0028 FEFFFFEB 		bl	pvPortMalloc
 1214              	.LVL95:
 1215 002c 0040A0E1 		mov	r4, r0
 1216              	.LVL96:
1164:D:/Work/DeviceTester/amazon-freertos/lib/third_party/mcu_vendor/renesas/rz_mcu_boards/core_package/generate/os_abstraction/src\r_os_abstraction_api.c **** 
1165:D:/Work/DeviceTester/amazon-freertos/lib/third_party/mcu_vendor/renesas/rz_mcu_boards/core_package/generate/os_abstraction/src\r_os_abstraction_api.c ****     xTaskResumeAll();
 1217              		.loc 1 1165 0
 1218 0030 FEFFFFEB 		bl	xTaskResumeAll
 1219              	.LVL97:
1166:D:/Work/DeviceTester/amazon-freertos/lib/third_party/mcu_vendor/renesas/rz_mcu_boards/core_package/generate/os_abstraction/src\r_os_abstraction_api.c **** 
1167:D:/Work/DeviceTester/amazon-freertos/lib/third_party/mcu_vendor/renesas/rz_mcu_boards/core_package/generate/os_abstraction/src\r_os_abstraction_api.c ****     /* Return a pointer to the newly allocated memory block */
1168:D:/Work/DeviceTester/amazon-freertos/lib/third_party/mcu_vendor/renesas/rz_mcu_boards/core_package/generate/os_abstraction/src\r_os_abstraction_api.c ****     return (p_mem_to_alloc);
1169:D:/Work/DeviceTester/amazon-freertos/lib/third_party/mcu_vendor/renesas/rz_mcu_boards/core_package/generate/os_abstraction/src\r_os_abstraction_api.c **** }
 1220              		.loc 1 1169 0
 1221 0034 0400A0E1 		mov	r0, r4
 1222 0038 7080BDE8 		pop	{r4, r5, r6, pc}
 1223              	.L115:
 1224              		.align	2
 1225              	.L114:
 1226 003c 00000000 		.word	xHeapRegions
 1227              		.cfi_endproc
 1228              	.LFE33:
 1230              		.section	.text.R_OS_Free,"ax",%progbits
 1231              		.align	2
 1232              		.global	R_OS_Free
 1233              		.syntax unified
 1234              		.arm
 1235              		.fpu neon
 1237              	R_OS_Free:
 1238              	.LFB34:
1170:D:/Work/DeviceTester/amazon-freertos/lib/third_party/mcu_vendor/renesas/rz_mcu_boards/core_package/generate/os_abstraction/src\r_os_abstraction_api.c **** /**************************************************************************************************
1171:D:/Work/DeviceTester/amazon-freertos/lib/third_party/mcu_vendor/renesas/rz_mcu_boards/core_package/generate/os_abstraction/src\r_os_abstraction_api.c ****  End of function R_OS_Malloc
1172:D:/Work/DeviceTester/amazon-freertos/lib/third_party/mcu_vendor/renesas/rz_mcu_boards/core_package/generate/os_abstraction/src\r_os_abstraction_api.c ****  **************************************************************************************************
1173:D:/Work/DeviceTester/amazon-freertos/lib/third_party/mcu_vendor/renesas/rz_mcu_boards/core_package/generate/os_abstraction/src\r_os_abstraction_api.c **** 
1174:D:/Work/DeviceTester/amazon-freertos/lib/third_party/mcu_vendor/renesas/rz_mcu_boards/core_package/generate/os_abstraction/src\r_os_abstraction_api.c **** /**************************************************************************************************
1175:D:/Work/DeviceTester/amazon-freertos/lib/third_party/mcu_vendor/renesas/rz_mcu_boards/core_package/generate/os_abstraction/src\r_os_abstraction_api.c ****  * Function Name: R_OS_Free
1176:D:/Work/DeviceTester/amazon-freertos/lib/third_party/mcu_vendor/renesas/rz_mcu_boards/core_package/generate/os_abstraction/src\r_os_abstraction_api.c ****  * Description  : Free memory block
1177:D:/Work/DeviceTester/amazon-freertos/lib/third_party/mcu_vendor/renesas/rz_mcu_boards/core_package/generate/os_abstraction/src\r_os_abstraction_api.c ****  * Arguments    : p_memory_to_free - ptr to memory block that is to be freed
1178:D:/Work/DeviceTester/amazon-freertos/lib/third_party/mcu_vendor/renesas/rz_mcu_boards/core_package/generate/os_abstraction/src\r_os_abstraction_api.c ****  * Return Value : none
1179:D:/Work/DeviceTester/amazon-freertos/lib/third_party/mcu_vendor/renesas/rz_mcu_boards/core_package/generate/os_abstraction/src\r_os_abstraction_api.c ****  **************************************************************************************************
1180:D:/Work/DeviceTester/amazon-freertos/lib/third_party/mcu_vendor/renesas/rz_mcu_boards/core_package/generate/os_abstraction/src\r_os_abstraction_api.c **** void R_OS_Free (void **pp_memory_to_free)
1181:D:/Work/DeviceTester/amazon-freertos/lib/third_party/mcu_vendor/renesas/rz_mcu_boards/core_package/generate/os_abstraction/src\r_os_abstraction_api.c **** {
 1239              		.loc 1 1181 0
 1240              		.cfi_startproc
 1241              		@ args = 0, pretend = 0, frame = 0
 1242              		@ frame_needed = 0, uses_anonymous_args = 0
 1243              	.LVL98:
 1244 0000 10402DE9 		push	{r4, lr}
 1245              		.cfi_def_cfa_offset 8
 1246              		.cfi_offset 4, -8
 1247              		.cfi_offset 14, -4
1182:D:/Work/DeviceTester/amazon-freertos/lib/third_party/mcu_vendor/renesas/rz_mcu_boards/core_package/generate/os_abstraction/src\r_os_abstraction_api.c ****     /* Make sure the pointer, and the pointer that it points to are valid */
1183:D:/Work/DeviceTester/amazon-freertos/lib/third_party/mcu_vendor/renesas/rz_mcu_boards/core_package/generate/os_abstraction/src\r_os_abstraction_api.c ****     if ((NULL != pp_memory_to_free) && (NULL != (*pp_memory_to_free)))
 1248              		.loc 1 1183 0
 1249 0004 004050E2 		subs	r4, r0, #0
 1250 0008 1080BD08 		popeq	{r4, pc}
 1251              		.loc 1 1183 0 is_stmt 0 discriminator 1
 1252 000c 000094E5 		ldr	r0, [r4]
 1253              	.LVL99:
 1254 0010 000050E3 		cmp	r0, #0
 1255 0014 1080BD08 		popeq	{r4, pc}
1184:D:/Work/DeviceTester/amazon-freertos/lib/third_party/mcu_vendor/renesas/rz_mcu_boards/core_package/generate/os_abstraction/src\r_os_abstraction_api.c ****     {
1185:D:/Work/DeviceTester/amazon-freertos/lib/third_party/mcu_vendor/renesas/rz_mcu_boards/core_package/generate/os_abstraction/src\r_os_abstraction_api.c ****         /* Free memory block */
1186:D:/Work/DeviceTester/amazon-freertos/lib/third_party/mcu_vendor/renesas/rz_mcu_boards/core_package/generate/os_abstraction/src\r_os_abstraction_api.c ****         vPortFree(*pp_memory_to_free);
 1256              		.loc 1 1186 0 is_stmt 1
 1257 0018 FEFFFFEB 		bl	vPortFree
 1258              	.LVL100:
1187:D:/Work/DeviceTester/amazon-freertos/lib/third_party/mcu_vendor/renesas/rz_mcu_boards/core_package/generate/os_abstraction/src\r_os_abstraction_api.c **** 
1188:D:/Work/DeviceTester/amazon-freertos/lib/third_party/mcu_vendor/renesas/rz_mcu_boards/core_package/generate/os_abstraction/src\r_os_abstraction_api.c ****         /* clear pointer */
1189:D:/Work/DeviceTester/amazon-freertos/lib/third_party/mcu_vendor/renesas/rz_mcu_boards/core_package/generate/os_abstraction/src\r_os_abstraction_api.c ****         *pp_memory_to_free = NULL;
 1259              		.loc 1 1189 0
 1260 001c 0030A0E3 		mov	r3, #0
 1261 0020 003084E5 		str	r3, [r4]
 1262 0024 1080BDE8 		pop	{r4, pc}
 1263              		.cfi_endproc
 1264              	.LFE34:
 1266              		.section	.text.R_OS_TaskGetState,"ax",%progbits
 1267              		.align	2
 1268              		.global	R_OS_TaskGetState
 1269              		.syntax unified
 1270              		.arm
 1271              		.fpu neon
 1273              	R_OS_TaskGetState:
 1274              	.LFB27:
 874:D:/Work/DeviceTester/amazon-freertos/lib/third_party/mcu_vendor/renesas/rz_mcu_boards/core_package/generate/os_abstraction/src\r_os_abstraction_api.c ****     /* initialise pointer to NULL */
 1275              		.loc 1 874 0
 1276              		.cfi_startproc
 1277              		@ args = 0, pretend = 0, frame = 8
 1278              		@ frame_needed = 0, uses_anonymous_args = 0
 1279              	.LVL101:
 1280 0000 F74F2DE9 		push	{r0, r1, r2, r4, r5, r6, r7, r8, r9, r10, fp, lr}
 1281              		.cfi_def_cfa_offset 48
 1282              		.cfi_offset 4, -36
 1283              		.cfi_offset 5, -32
 1284              		.cfi_offset 6, -28
 1285              		.cfi_offset 7, -24
 1286              		.cfi_offset 8, -20
 1287              		.cfi_offset 9, -16
 1288              		.cfi_offset 10, -12
 1289              		.cfi_offset 11, -8
 1290              		.cfi_offset 14, -4
 876:D:/Work/DeviceTester/amazon-freertos/lib/third_party/mcu_vendor/renesas/rz_mcu_boards/core_package/generate/os_abstraction/src\r_os_abstraction_api.c ****     uint32_t ux_array_size = 0;
 1291              		.loc 1 876 0
 1292 0004 0040A0E3 		mov	r4, #0
 874:D:/Work/DeviceTester/amazon-freertos/lib/third_party/mcu_vendor/renesas/rz_mcu_boards/core_package/generate/os_abstraction/src\r_os_abstraction_api.c ****     /* initialise pointer to NULL */
 1293              		.loc 1 874 0
 1294 0008 0090A0E1 		mov	r9, r0
 876:D:/Work/DeviceTester/amazon-freertos/lib/third_party/mcu_vendor/renesas/rz_mcu_boards/core_package/generate/os_abstraction/src\r_os_abstraction_api.c ****     uint32_t ux_array_size = 0;
 1295              		.loc 1 876 0
 1296 000c 04408DE5 		str	r4, [sp, #4]
 1297              	.LVL102:
 894:D:/Work/DeviceTester/amazon-freertos/lib/third_party/mcu_vendor/renesas/rz_mcu_boards/core_package/generate/os_abstraction/src\r_os_abstraction_api.c **** 
 1298              		.loc 1 894 0
 1299 0010 FEFFFFEB 		bl	uxTaskGetNumberOfTasks
 1300              	.LVL103:
 896:D:/Work/DeviceTester/amazon-freertos/lib/third_party/mcu_vendor/renesas/rz_mcu_boards/core_package/generate/os_abstraction/src\r_os_abstraction_api.c ****     {
 1301              		.loc 1 896 0
 1302 0014 005050E2 		subs	r5, r0, #0
 1303 0018 0400000A 		beq	.L126
 898:D:/Work/DeviceTester/amazon-freertos/lib/third_party/mcu_vendor/renesas/rz_mcu_boards/core_package/generate/os_abstraction/src\r_os_abstraction_api.c ****     }
 1304              		.loc 1 898 0
 1305 001c 2400A0E3 		mov	r0, #36
 1306              	.LVL104:
 1307 0020 0410A0E1 		mov	r1, r4
 1308 0024 900500E0 		mul	r0, r0, r5
 1309 0028 FEFFFFEB 		bl	R_OS_Malloc
 1310              	.LVL105:
 1311 002c 04008DE5 		str	r0, [sp, #4]
 1312              	.L126:
 902:D:/Work/DeviceTester/amazon-freertos/lib/third_party/mcu_vendor/renesas/rz_mcu_boards/core_package/generate/os_abstraction/src\r_os_abstraction_api.c ****     {
 1313              		.loc 1 902 0
 1314 0030 04409DE5 		ldr	r4, [sp, #4]
 1315 0034 000054E3 		cmp	r4, #0
 1316 0038 0400001A 		bne	.L127
 904:D:/Work/DeviceTester/amazon-freertos/lib/third_party/mcu_vendor/renesas/rz_mcu_boards/core_package/generate/os_abstraction/src\r_os_abstraction_api.c **** 
 1317              		.loc 1 904 0
 1318 003c 88009FE5 		ldr	r0, .L139
 1319 0040 FEFFFFEB 		bl	puts
 1320              	.LVL106:
 907:D:/Work/DeviceTester/amazon-freertos/lib/third_party/mcu_vendor/renesas/rz_mcu_boards/core_package/generate/os_abstraction/src\r_os_abstraction_api.c ****     }
 1321              		.loc 1 907 0
 1322 0044 0400A0E1 		mov	r0, r4
 1323              	.LVL107:
 1324              	.L125:
 932:D:/Work/DeviceTester/amazon-freertos/lib/third_party/mcu_vendor/renesas/rz_mcu_boards/core_package/generate/os_abstraction/src\r_os_abstraction_api.c **** /**************************************************************************************************
 1325              		.loc 1 932 0
 1326 0048 0CD08DE2 		add	sp, sp, #12
 1327              		.cfi_remember_state
 1328              		.cfi_def_cfa_offset 36
 1329              		@ sp needed
 1330 004c F08FBDE8 		pop	{r4, r5, r6, r7, r8, r9, r10, fp, pc}
 1331              	.LVL108:
 1332              	.L127:
 1333              		.cfi_restore_state
 911:D:/Work/DeviceTester/amazon-freertos/lib/third_party/mcu_vendor/renesas/rz_mcu_boards/core_package/generate/os_abstraction/src\r_os_abstraction_api.c **** 
 1334              		.loc 1 911 0
 1335 0050 0020A0E3 		mov	r2, #0
 1336 0054 0510A0E1 		mov	r1, r5
 1337 0058 0400A0E1 		mov	r0, r4
 914:D:/Work/DeviceTester/amazon-freertos/lib/third_party/mcu_vendor/renesas/rz_mcu_boards/core_package/generate/os_abstraction/src\r_os_abstraction_api.c ****     {
 1338              		.loc 1 914 0
 1339 005c 0060A0E3 		mov	r6, #0
 911:D:/Work/DeviceTester/amazon-freertos/lib/third_party/mcu_vendor/renesas/rz_mcu_boards/core_package/generate/os_abstraction/src\r_os_abstraction_api.c **** 
 1340              		.loc 1 911 0
 1341 0060 FEFFFFEB 		bl	uxTaskGetSystemState
 1342              	.LVL109:
 1343              	.LBB21:
 916:D:/Work/DeviceTester/amazon-freertos/lib/third_party/mcu_vendor/renesas/rz_mcu_boards/core_package/generate/os_abstraction/src\r_os_abstraction_api.c **** 
 1344              		.loc 1 916 0
 1345 0064 04A09DE5 		ldr	r10, [sp, #4]
 1346              	.LBE21:
 913:D:/Work/DeviceTester/amazon-freertos/lib/third_party/mcu_vendor/renesas/rz_mcu_boards/core_package/generate/os_abstraction/src\r_os_abstraction_api.c ****     for (j = 0; ((j < ux_array_size) && ( !exit_loop)); j++)
 1347              		.loc 1 913 0
 1348 0068 0680A0E1 		mov	r8, r6
 880:D:/Work/DeviceTester/amazon-freertos/lib/third_party/mcu_vendor/renesas/rz_mcu_boards/core_package/generate/os_abstraction/src\r_os_abstraction_api.c ****     e_memory_region_t dummy = R_MEMORY_REGION_DEFAULT;
 1349              		.loc 1 880 0
 1350 006c 0570A0E3 		mov	r7, #5
 1351              	.LBB22:
 916:D:/Work/DeviceTester/amazon-freertos/lib/third_party/mcu_vendor/renesas/rz_mcu_boards/core_package/generate/os_abstraction/src\r_os_abstraction_api.c **** 
 1352              		.loc 1 916 0
 1353 0070 24B0A0E3 		mov	fp, #36
 1354              	.LVL110:
 1355              	.L129:
 1356 0074 7640FFE6 		uxth	r4, r6
 1357              	.LBE22:
 914:D:/Work/DeviceTester/amazon-freertos/lib/third_party/mcu_vendor/renesas/rz_mcu_boards/core_package/generate/os_abstraction/src\r_os_abstraction_api.c ****     {
 1358              		.loc 1 914 0 discriminator 1
 1359 0078 040055E1 		cmp	r5, r4
 1360 007c 0F00009A 		bls	.L131
 914:D:/Work/DeviceTester/amazon-freertos/lib/third_party/mcu_vendor/renesas/rz_mcu_boards/core_package/generate/os_abstraction/src\r_os_abstraction_api.c ****     {
 1361              		.loc 1 914 0 is_stmt 0 discriminator 3
 1362 0080 000058E3 		cmp	r8, #0
 1363 0084 0400000A 		beq	.L132
 1364              	.L134:
 928:D:/Work/DeviceTester/amazon-freertos/lib/third_party/mcu_vendor/renesas/rz_mcu_boards/core_package/generate/os_abstraction/src\r_os_abstraction_api.c ****     }
 1365              		.loc 1 928 0 is_stmt 1
 1366 0088 04008DE2 		add	r0, sp, #4
 1367 008c FEFFFFEB 		bl	R_OS_Free
 1368              	.LVL111:
 1369              	.L133:
 931:D:/Work/DeviceTester/amazon-freertos/lib/third_party/mcu_vendor/renesas/rz_mcu_boards/core_package/generate/os_abstraction/src\r_os_abstraction_api.c **** }
 1370              		.loc 1 931 0
 1371 0090 38309FE5 		ldr	r3, .L139+4
 1372 0094 070193E7 		ldr	r0, [r3, r7, lsl #2]
 1373 0098 EAFFFFEA 		b	.L125
 1374              	.L132:
 1375              	.LBB23:
 916:D:/Work/DeviceTester/amazon-freertos/lib/third_party/mcu_vendor/renesas/rz_mcu_boards/core_package/generate/os_abstraction/src\r_os_abstraction_api.c **** 
 1376              		.loc 1 916 0
 1377 009c 9BA424E0 		mla	r4, fp, r4, r10
 1378              	.LVL112:
 918:D:/Work/DeviceTester/amazon-freertos/lib/third_party/mcu_vendor/renesas/rz_mcu_boards/core_package/generate/os_abstraction/src\r_os_abstraction_api.c ****         {
 1379              		.loc 1 918 0
 1380 00a0 0910A0E1 		mov	r1, r9
 1381 00a4 016086E2 		add	r6, r6, #1
 1382              	.LVL113:
 1383 00a8 040094E5 		ldr	r0, [r4, #4]
 1384 00ac FEFFFFEB 		bl	strcmp
 1385              	.LVL114:
 1386 00b0 000050E3 		cmp	r0, #0
 920:D:/Work/DeviceTester/amazon-freertos/lib/third_party/mcu_vendor/renesas/rz_mcu_boards/core_package/generate/os_abstraction/src\r_os_abstraction_api.c ****             exit_loop = true;
 1387              		.loc 1 920 0
 1388 00b4 0C70D405 		ldrbeq	r7, [r4, #12]	@ zero_extendqisi2
 1389              	.LVL115:
 921:D:/Work/DeviceTester/amazon-freertos/lib/third_party/mcu_vendor/renesas/rz_mcu_boards/core_package/generate/os_abstraction/src\r_os_abstraction_api.c ****         }
 1390              		.loc 1 921 0
 1391 00b8 0180A003 		moveq	r8, #1
 1392              	.LVL116:
 1393 00bc ECFFFFEA 		b	.L129
 1394              	.LVL117:
 1395              	.L131:
 1396              	.LBE23:
 925:D:/Work/DeviceTester/amazon-freertos/lib/third_party/mcu_vendor/renesas/rz_mcu_boards/core_package/generate/os_abstraction/src\r_os_abstraction_api.c ****     {
 1397              		.loc 1 925 0
 1398 00c0 000055E3 		cmp	r5, #0
 1399 00c4 F1FFFF0A 		beq	.L133
 1400 00c8 EEFFFFEA 		b	.L134
 1401              	.L140:
 1402              		.align	2
 1403              	.L139:
 1404 00cc 00000000 		.word	.LC3
 1405 00d0 00000000 		.word	.LANCHOR7
 1406              		.cfi_endproc
 1407              	.LFE27:
 1409              		.section	.text.R_OS_SemaphoreCreate,"ax",%progbits
 1410              		.align	2
 1411              		.global	R_OS_SemaphoreCreate
 1412              		.syntax unified
 1413              		.arm
 1414              		.fpu neon
 1416              	R_OS_SemaphoreCreate:
 1417              	.LFB35:
1190:D:/Work/DeviceTester/amazon-freertos/lib/third_party/mcu_vendor/renesas/rz_mcu_boards/core_package/generate/os_abstraction/src\r_os_abstraction_api.c ****     }
1191:D:/Work/DeviceTester/amazon-freertos/lib/third_party/mcu_vendor/renesas/rz_mcu_boards/core_package/generate/os_abstraction/src\r_os_abstraction_api.c **** }
1192:D:/Work/DeviceTester/amazon-freertos/lib/third_party/mcu_vendor/renesas/rz_mcu_boards/core_package/generate/os_abstraction/src\r_os_abstraction_api.c **** /**************************************************************************************************
1193:D:/Work/DeviceTester/amazon-freertos/lib/third_party/mcu_vendor/renesas/rz_mcu_boards/core_package/generate/os_abstraction/src\r_os_abstraction_api.c ****  End of function R_OS_Free
1194:D:/Work/DeviceTester/amazon-freertos/lib/third_party/mcu_vendor/renesas/rz_mcu_boards/core_package/generate/os_abstraction/src\r_os_abstraction_api.c ****  **************************************************************************************************
1195:D:/Work/DeviceTester/amazon-freertos/lib/third_party/mcu_vendor/renesas/rz_mcu_boards/core_package/generate/os_abstraction/src\r_os_abstraction_api.c **** 
1196:D:/Work/DeviceTester/amazon-freertos/lib/third_party/mcu_vendor/renesas/rz_mcu_boards/core_package/generate/os_abstraction/src\r_os_abstraction_api.c **** /**************************************************************************************************
1197:D:/Work/DeviceTester/amazon-freertos/lib/third_party/mcu_vendor/renesas/rz_mcu_boards/core_package/generate/os_abstraction/src\r_os_abstraction_api.c ****  *                                  Semaphore API
1198:D:/Work/DeviceTester/amazon-freertos/lib/third_party/mcu_vendor/renesas/rz_mcu_boards/core_package/generate/os_abstraction/src\r_os_abstraction_api.c ****  **************************************************************************************************
1199:D:/Work/DeviceTester/amazon-freertos/lib/third_party/mcu_vendor/renesas/rz_mcu_boards/core_package/generate/os_abstraction/src\r_os_abstraction_api.c **** 
1200:D:/Work/DeviceTester/amazon-freertos/lib/third_party/mcu_vendor/renesas/rz_mcu_boards/core_package/generate/os_abstraction/src\r_os_abstraction_api.c **** /**************************************************************************************************
1201:D:/Work/DeviceTester/amazon-freertos/lib/third_party/mcu_vendor/renesas/rz_mcu_boards/core_package/generate/os_abstraction/src\r_os_abstraction_api.c ****  * Function Name: R_OS_SemaphoreCreate
1202:D:/Work/DeviceTester/amazon-freertos/lib/third_party/mcu_vendor/renesas/rz_mcu_boards/core_package/generate/os_abstraction/src\r_os_abstraction_api.c ****  * Description  : Create a semaphore
1203:D:/Work/DeviceTester/amazon-freertos/lib/third_party/mcu_vendor/renesas/rz_mcu_boards/core_package/generate/os_abstraction/src\r_os_abstraction_api.c ****  * Arguments    : p_semaphore - Pointer to a associated semaphore
1204:D:/Work/DeviceTester/amazon-freertos/lib/third_party/mcu_vendor/renesas/rz_mcu_boards/core_package/generate/os_abstraction/src\r_os_abstraction_api.c ****  *              : count         - The maximum count for the semaphore object. This value must be gr
1205:D:/Work/DeviceTester/amazon-freertos/lib/third_party/mcu_vendor/renesas/rz_mcu_boards/core_package/generate/os_abstraction/src\r_os_abstraction_api.c ****  * Return Value : The function returns TRUE if the semaphore object was successfully created
1206:D:/Work/DeviceTester/amazon-freertos/lib/third_party/mcu_vendor/renesas/rz_mcu_boards/core_package/generate/os_abstraction/src\r_os_abstraction_api.c ****  *                Otherwise, FALSE is returned
1207:D:/Work/DeviceTester/amazon-freertos/lib/third_party/mcu_vendor/renesas/rz_mcu_boards/core_package/generate/os_abstraction/src\r_os_abstraction_api.c ****  **************************************************************************************************
1208:D:/Work/DeviceTester/amazon-freertos/lib/third_party/mcu_vendor/renesas/rz_mcu_boards/core_package/generate/os_abstraction/src\r_os_abstraction_api.c **** bool_t R_OS_SemaphoreCreate (p_semaphore_t p_semaphore, uint32_t count)
1209:D:/Work/DeviceTester/amazon-freertos/lib/third_party/mcu_vendor/renesas/rz_mcu_boards/core_package/generate/os_abstraction/src\r_os_abstraction_api.c **** {
 1418              		.loc 1 1209 0
 1419              		.cfi_startproc
 1420              		@ args = 0, pretend = 0, frame = 0
 1421              		@ frame_needed = 0, uses_anonymous_args = 0
 1422              	.LVL118:
1210:D:/Work/DeviceTester/amazon-freertos/lib/third_party/mcu_vendor/renesas/rz_mcu_boards/core_package/generate/os_abstraction/src\r_os_abstraction_api.c ****     bool_t ret = false;
1211:D:/Work/DeviceTester/amazon-freertos/lib/third_party/mcu_vendor/renesas/rz_mcu_boards/core_package/generate/os_abstraction/src\r_os_abstraction_api.c **** 
1212:D:/Work/DeviceTester/amazon-freertos/lib/third_party/mcu_vendor/renesas/rz_mcu_boards/core_package/generate/os_abstraction/src\r_os_abstraction_api.c ****     if ((count > 0) & (count <= configQUEUE_REGISTRY_SIZE))
 1423              		.loc 1 1212 0
 1424 0000 012041E2 		sub	r2, r1, #1
 1425 0004 070052E3 		cmp	r2, #7
 1426 0008 0700008A 		bhi	.L143
1209:D:/Work/DeviceTester/amazon-freertos/lib/third_party/mcu_vendor/renesas/rz_mcu_boards/core_package/generate/os_abstraction/src\r_os_abstraction_api.c ****     bool_t ret = false;
 1427              		.loc 1 1209 0
 1428 000c 10402DE9 		push	{r4, lr}
 1429              		.cfi_def_cfa_offset 8
 1430              		.cfi_offset 4, -8
 1431              		.cfi_offset 14, -4
 1432 0010 0040A0E1 		mov	r4, r0
1213:D:/Work/DeviceTester/amazon-freertos/lib/third_party/mcu_vendor/renesas/rz_mcu_boards/core_package/generate/os_abstraction/src\r_os_abstraction_api.c ****     {
1214:D:/Work/DeviceTester/amazon-freertos/lib/third_party/mcu_vendor/renesas/rz_mcu_boards/core_package/generate/os_abstraction/src\r_os_abstraction_api.c ****         /* semaphore is uint32_t */
1215:D:/Work/DeviceTester/amazon-freertos/lib/third_party/mcu_vendor/renesas/rz_mcu_boards/core_package/generate/os_abstraction/src\r_os_abstraction_api.c ****         *p_semaphore = (uint32_t) xSemaphoreCreateCounting(count, count);
 1433              		.loc 1 1215 0
 1434 0014 0100A0E1 		mov	r0, r1
 1435              	.LVL119:
 1436 0018 FEFFFFEB 		bl	xQueueCreateCountingSemaphore
 1437              	.LVL120:
 1438 001c 000084E5 		str	r0, [r4]
1216:D:/Work/DeviceTester/amazon-freertos/lib/third_party/mcu_vendor/renesas/rz_mcu_boards/core_package/generate/os_abstraction/src\r_os_abstraction_api.c **** 
1217:D:/Work/DeviceTester/amazon-freertos/lib/third_party/mcu_vendor/renesas/rz_mcu_boards/core_package/generate/os_abstraction/src\r_os_abstraction_api.c ****         if (0 != ( *p_semaphore))
 1439              		.loc 1 1217 0
 1440 0020 000090E2 		adds	r0, r0, #0
 1441 0024 0100A013 		movne	r0, #1
 1442 0028 1080BDE8 		pop	{r4, pc}
 1443              	.LVL121:
 1444              	.L143:
 1445              		.cfi_def_cfa_offset 0
 1446              		.cfi_restore 4
 1447              		.cfi_restore 14
1210:D:/Work/DeviceTester/amazon-freertos/lib/third_party/mcu_vendor/renesas/rz_mcu_boards/core_package/generate/os_abstraction/src\r_os_abstraction_api.c **** 
 1448              		.loc 1 1210 0
 1449 002c 0000A0E3 		mov	r0, #0
 1450              	.LVL122:
1218:D:/Work/DeviceTester/amazon-freertos/lib/third_party/mcu_vendor/renesas/rz_mcu_boards/core_package/generate/os_abstraction/src\r_os_abstraction_api.c ****         {
1219:D:/Work/DeviceTester/amazon-freertos/lib/third_party/mcu_vendor/renesas/rz_mcu_boards/core_package/generate/os_abstraction/src\r_os_abstraction_api.c ****             ret = true;
1220:D:/Work/DeviceTester/amazon-freertos/lib/third_party/mcu_vendor/renesas/rz_mcu_boards/core_package/generate/os_abstraction/src\r_os_abstraction_api.c ****         }
1221:D:/Work/DeviceTester/amazon-freertos/lib/third_party/mcu_vendor/renesas/rz_mcu_boards/core_package/generate/os_abstraction/src\r_os_abstraction_api.c ****     }
1222:D:/Work/DeviceTester/amazon-freertos/lib/third_party/mcu_vendor/renesas/rz_mcu_boards/core_package/generate/os_abstraction/src\r_os_abstraction_api.c **** 
1223:D:/Work/DeviceTester/amazon-freertos/lib/third_party/mcu_vendor/renesas/rz_mcu_boards/core_package/generate/os_abstraction/src\r_os_abstraction_api.c ****     return (ret);
 1451              		.loc 1 1223 0
 1452 0030 1EFF2FE1 		bx	lr
 1453              		.cfi_endproc
 1454              	.LFE35:
 1456              		.section	.text.R_OS_SemaphoreDelete,"ax",%progbits
 1457              		.align	2
 1458              		.global	R_OS_SemaphoreDelete
 1459              		.syntax unified
 1460              		.arm
 1461              		.fpu neon
 1463              	R_OS_SemaphoreDelete:
 1464              	.LFB36:
1224:D:/Work/DeviceTester/amazon-freertos/lib/third_party/mcu_vendor/renesas/rz_mcu_boards/core_package/generate/os_abstraction/src\r_os_abstraction_api.c **** }
1225:D:/Work/DeviceTester/amazon-freertos/lib/third_party/mcu_vendor/renesas/rz_mcu_boards/core_package/generate/os_abstraction/src\r_os_abstraction_api.c **** /**************************************************************************************************
1226:D:/Work/DeviceTester/amazon-freertos/lib/third_party/mcu_vendor/renesas/rz_mcu_boards/core_package/generate/os_abstraction/src\r_os_abstraction_api.c ****  End of function R_OS_SemaphoreCreate
1227:D:/Work/DeviceTester/amazon-freertos/lib/third_party/mcu_vendor/renesas/rz_mcu_boards/core_package/generate/os_abstraction/src\r_os_abstraction_api.c ****  **************************************************************************************************
1228:D:/Work/DeviceTester/amazon-freertos/lib/third_party/mcu_vendor/renesas/rz_mcu_boards/core_package/generate/os_abstraction/src\r_os_abstraction_api.c **** 
1229:D:/Work/DeviceTester/amazon-freertos/lib/third_party/mcu_vendor/renesas/rz_mcu_boards/core_package/generate/os_abstraction/src\r_os_abstraction_api.c **** /**************************************************************************************************
1230:D:/Work/DeviceTester/amazon-freertos/lib/third_party/mcu_vendor/renesas/rz_mcu_boards/core_package/generate/os_abstraction/src\r_os_abstraction_api.c ****  * Function Name: R_OS_SemaphoreDelete
1231:D:/Work/DeviceTester/amazon-freertos/lib/third_party/mcu_vendor/renesas/rz_mcu_boards/core_package/generate/os_abstraction/src\r_os_abstraction_api.c ****  * Description  : Delete a semaphore, freeing any associated resources
1232:D:/Work/DeviceTester/amazon-freertos/lib/third_party/mcu_vendor/renesas/rz_mcu_boards/core_package/generate/os_abstraction/src\r_os_abstraction_api.c ****  * Arguments    : semaphore_ptr - Pointer to a associated semaphore
1233:D:/Work/DeviceTester/amazon-freertos/lib/third_party/mcu_vendor/renesas/rz_mcu_boards/core_package/generate/os_abstraction/src\r_os_abstraction_api.c ****  * Return Value : none
1234:D:/Work/DeviceTester/amazon-freertos/lib/third_party/mcu_vendor/renesas/rz_mcu_boards/core_package/generate/os_abstraction/src\r_os_abstraction_api.c ****  **************************************************************************************************
1235:D:/Work/DeviceTester/amazon-freertos/lib/third_party/mcu_vendor/renesas/rz_mcu_boards/core_package/generate/os_abstraction/src\r_os_abstraction_api.c **** void R_OS_SemaphoreDelete (p_semaphore_t p_semaphore)
1236:D:/Work/DeviceTester/amazon-freertos/lib/third_party/mcu_vendor/renesas/rz_mcu_boards/core_package/generate/os_abstraction/src\r_os_abstraction_api.c **** {
 1465              		.loc 1 1236 0
 1466              		.cfi_startproc
 1467              		@ args = 0, pretend = 0, frame = 8
 1468              		@ frame_needed = 0, uses_anonymous_args = 0
 1469              	.LVL123:
1237:D:/Work/DeviceTester/amazon-freertos/lib/third_party/mcu_vendor/renesas/rz_mcu_boards/core_package/generate/os_abstraction/src\r_os_abstraction_api.c ****     if (0 != ( *p_semaphore))
 1470              		.loc 1 1237 0
 1471 0000 003090E5 		ldr	r3, [r0]
 1472 0004 000053E3 		cmp	r3, #0
 1473 0008 1EFF2F01 		bxeq	lr
1236:D:/Work/DeviceTester/amazon-freertos/lib/third_party/mcu_vendor/renesas/rz_mcu_boards/core_package/generate/os_abstraction/src\r_os_abstraction_api.c ****     if (0 != ( *p_semaphore))
 1474              		.loc 1 1236 0
 1475 000c 07402DE9 		push	{r0, r1, r2, lr}
 1476              		.cfi_def_cfa_offset 16
 1477              		.cfi_offset 14, -4
 1478              	.LBB24:
1238:D:/Work/DeviceTester/amazon-freertos/lib/third_party/mcu_vendor/renesas/rz_mcu_boards/core_package/generate/os_abstraction/src\r_os_abstraction_api.c ****     {
1239:D:/Work/DeviceTester/amazon-freertos/lib/third_party/mcu_vendor/renesas/rz_mcu_boards/core_package/generate/os_abstraction/src\r_os_abstraction_api.c ****         volatile uint32_t temp_semaphore_handle = *p_semaphore;
 1479              		.loc 1 1239 0
 1480 0010 04308DE5 		str	r3, [sp, #4]
1240:D:/Work/DeviceTester/amazon-freertos/lib/third_party/mcu_vendor/renesas/rz_mcu_boards/core_package/generate/os_abstraction/src\r_os_abstraction_api.c **** 
1241:D:/Work/DeviceTester/amazon-freertos/lib/third_party/mcu_vendor/renesas/rz_mcu_boards/core_package/generate/os_abstraction/src\r_os_abstraction_api.c ****         *p_semaphore = 0;
 1481              		.loc 1 1241 0
 1482 0014 0030A0E3 		mov	r3, #0
 1483 0018 003080E5 		str	r3, [r0]
1242:D:/Work/DeviceTester/amazon-freertos/lib/third_party/mcu_vendor/renesas/rz_mcu_boards/core_package/generate/os_abstraction/src\r_os_abstraction_api.c **** 
1243:D:/Work/DeviceTester/amazon-freertos/lib/third_party/mcu_vendor/renesas/rz_mcu_boards/core_package/generate/os_abstraction/src\r_os_abstraction_api.c ****         /* cast semaphore_t used by OS abstraction to SemaphoreHandle_t used by FreeRTOS */
1244:D:/Work/DeviceTester/amazon-freertos/lib/third_party/mcu_vendor/renesas/rz_mcu_boards/core_package/generate/os_abstraction/src\r_os_abstraction_api.c ****         vSemaphoreDelete((SemaphoreHandle_t )temp_semaphore_handle);
 1484              		.loc 1 1244 0
 1485 001c 04009DE5 		ldr	r0, [sp, #4]
 1486              	.LVL124:
 1487 0020 FEFFFFEB 		bl	vQueueDelete
 1488              	.LVL125:
 1489              	.LBE24:
1245:D:/Work/DeviceTester/amazon-freertos/lib/third_party/mcu_vendor/renesas/rz_mcu_boards/core_package/generate/os_abstraction/src\r_os_abstraction_api.c ****     }
1246:D:/Work/DeviceTester/amazon-freertos/lib/third_party/mcu_vendor/renesas/rz_mcu_boards/core_package/generate/os_abstraction/src\r_os_abstraction_api.c **** }
 1490              		.loc 1 1246 0
 1491 0024 0CD08DE2 		add	sp, sp, #12
 1492              		.cfi_def_cfa_offset 4
 1493              		@ sp needed
 1494 0028 04F09DE4 		ldr	pc, [sp], #4
 1495              		.cfi_endproc
 1496              	.LFE36:
 1498              		.section	.text.R_OS_SemaphoreWait,"ax",%progbits
 1499              		.align	2
 1500              		.global	R_OS_SemaphoreWait
 1501              		.syntax unified
 1502              		.arm
 1503              		.fpu neon
 1505              	R_OS_SemaphoreWait:
 1506              	.LFB37:
1247:D:/Work/DeviceTester/amazon-freertos/lib/third_party/mcu_vendor/renesas/rz_mcu_boards/core_package/generate/os_abstraction/src\r_os_abstraction_api.c **** /**************************************************************************************************
1248:D:/Work/DeviceTester/amazon-freertos/lib/third_party/mcu_vendor/renesas/rz_mcu_boards/core_package/generate/os_abstraction/src\r_os_abstraction_api.c ****  End of function R_OS_SemaphoreDelete
1249:D:/Work/DeviceTester/amazon-freertos/lib/third_party/mcu_vendor/renesas/rz_mcu_boards/core_package/generate/os_abstraction/src\r_os_abstraction_api.c ****  **************************************************************************************************
1250:D:/Work/DeviceTester/amazon-freertos/lib/third_party/mcu_vendor/renesas/rz_mcu_boards/core_package/generate/os_abstraction/src\r_os_abstraction_api.c **** 
1251:D:/Work/DeviceTester/amazon-freertos/lib/third_party/mcu_vendor/renesas/rz_mcu_boards/core_package/generate/os_abstraction/src\r_os_abstraction_api.c **** /**************************************************************************************************
1252:D:/Work/DeviceTester/amazon-freertos/lib/third_party/mcu_vendor/renesas/rz_mcu_boards/core_package/generate/os_abstraction/src\r_os_abstraction_api.c ****  * Function Name: R_OS_SemaphoreWait
1253:D:/Work/DeviceTester/amazon-freertos/lib/third_party/mcu_vendor/renesas/rz_mcu_boards/core_package/generate/os_abstraction/src\r_os_abstraction_api.c ****  * Description  : Blocks operation until one of the following occurs:
1254:D:/Work/DeviceTester/amazon-freertos/lib/third_party/mcu_vendor/renesas/rz_mcu_boards/core_package/generate/os_abstraction/src\r_os_abstraction_api.c ****  *              :        A timeout occurs
1255:D:/Work/DeviceTester/amazon-freertos/lib/third_party/mcu_vendor/renesas/rz_mcu_boards/core_package/generate/os_abstraction/src\r_os_abstraction_api.c ****  *              :     The associated semaphore has been set
1256:D:/Work/DeviceTester/amazon-freertos/lib/third_party/mcu_vendor/renesas/rz_mcu_boards/core_package/generate/os_abstraction/src\r_os_abstraction_api.c ****  * Arguments    : p_semaphore - Pointer to a associated semaphore
1257:D:/Work/DeviceTester/amazon-freertos/lib/third_party/mcu_vendor/renesas/rz_mcu_boards/core_package/generate/os_abstraction/src\r_os_abstraction_api.c ****  *              : timeout       - Maximum time to wait for associated event to occur
1258:D:/Work/DeviceTester/amazon-freertos/lib/third_party/mcu_vendor/renesas/rz_mcu_boards/core_package/generate/os_abstraction/src\r_os_abstraction_api.c ****  * Return Value : The function returns TRUE if the semaphore object was successfully set. Otherwise
1259:D:/Work/DeviceTester/amazon-freertos/lib/third_party/mcu_vendor/renesas/rz_mcu_boards/core_package/generate/os_abstraction/src\r_os_abstraction_api.c ****  **************************************************************************************************
1260:D:/Work/DeviceTester/amazon-freertos/lib/third_party/mcu_vendor/renesas/rz_mcu_boards/core_package/generate/os_abstraction/src\r_os_abstraction_api.c **** bool_t R_OS_SemaphoreWait (p_semaphore_t p_semaphore, systime_t timeout)
1261:D:/Work/DeviceTester/amazon-freertos/lib/third_party/mcu_vendor/renesas/rz_mcu_boards/core_package/generate/os_abstraction/src\r_os_abstraction_api.c **** {
 1507              		.loc 1 1261 0
 1508              		.cfi_startproc
 1509              		@ args = 0, pretend = 0, frame = 8
 1510              		@ frame_needed = 0, uses_anonymous_args = 0
 1511              	.LVL126:
 1512 0000 07402DE9 		push	{r0, r1, r2, lr}
 1513              		.cfi_def_cfa_offset 16
 1514              		.cfi_offset 14, -4
1262:D:/Work/DeviceTester/amazon-freertos/lib/third_party/mcu_vendor/renesas/rz_mcu_boards/core_package/generate/os_abstraction/src\r_os_abstraction_api.c ****     bool_t ret = false;
1263:D:/Work/DeviceTester/amazon-freertos/lib/third_party/mcu_vendor/renesas/rz_mcu_boards/core_package/generate/os_abstraction/src\r_os_abstraction_api.c ****     TickType_t ticks_to_wait;
1264:D:/Work/DeviceTester/amazon-freertos/lib/third_party/mcu_vendor/renesas/rz_mcu_boards/core_package/generate/os_abstraction/src\r_os_abstraction_api.c **** 
1265:D:/Work/DeviceTester/amazon-freertos/lib/third_party/mcu_vendor/renesas/rz_mcu_boards/core_package/generate/os_abstraction/src\r_os_abstraction_api.c ****     /* Check that there is a non zero handle to the semaphore. */
1266:D:/Work/DeviceTester/amazon-freertos/lib/third_party/mcu_vendor/renesas/rz_mcu_boards/core_package/generate/os_abstraction/src\r_os_abstraction_api.c ****     if (0 != ( *p_semaphore))
 1515              		.loc 1 1266 0
 1516 0004 000090E5 		ldr	r0, [r0]
 1517              	.LVL127:
 1518 0008 000050E3 		cmp	r0, #0
 1519 000c 0900000A 		beq	.L157
1267:D:/Work/DeviceTester/amazon-freertos/lib/third_party/mcu_vendor/renesas/rz_mcu_boards/core_package/generate/os_abstraction/src\r_os_abstraction_api.c ****     {
1268:D:/Work/DeviceTester/amazon-freertos/lib/third_party/mcu_vendor/renesas/rz_mcu_boards/core_package/generate/os_abstraction/src\r_os_abstraction_api.c ****         /* If timeout has reached infinite delay value*/
1269:D:/Work/DeviceTester/amazon-freertos/lib/third_party/mcu_vendor/renesas/rz_mcu_boards/core_package/generate/os_abstraction/src\r_os_abstraction_api.c ****         if (R_OS_ABSTRACTION_EV_WAIT_INFINITE == timeout)
1270:D:/Work/DeviceTester/amazon-freertos/lib/third_party/mcu_vendor/renesas/rz_mcu_boards/core_package/generate/os_abstraction/src\r_os_abstraction_api.c ****         {
1271:D:/Work/DeviceTester/amazon-freertos/lib/third_party/mcu_vendor/renesas/rz_mcu_boards/core_package/generate/os_abstraction/src\r_os_abstraction_api.c ****             /* Cast to uint32_t from tick type*/
1272:D:/Work/DeviceTester/amazon-freertos/lib/third_party/mcu_vendor/renesas/rz_mcu_boards/core_package/generate/os_abstraction/src\r_os_abstraction_api.c ****             ticks_to_wait = portMAX_DELAY;
1273:D:/Work/DeviceTester/amazon-freertos/lib/third_party/mcu_vendor/renesas/rz_mcu_boards/core_package/generate/os_abstraction/src\r_os_abstraction_api.c ****         }
1274:D:/Work/DeviceTester/amazon-freertos/lib/third_party/mcu_vendor/renesas/rz_mcu_boards/core_package/generate/os_abstraction/src\r_os_abstraction_api.c ****         else
1275:D:/Work/DeviceTester/amazon-freertos/lib/third_party/mcu_vendor/renesas/rz_mcu_boards/core_package/generate/os_abstraction/src\r_os_abstraction_api.c ****         {
1276:D:/Work/DeviceTester/amazon-freertos/lib/third_party/mcu_vendor/renesas/rz_mcu_boards/core_package/generate/os_abstraction/src\r_os_abstraction_api.c ****             ticks_to_wait = R_OS_MS_TO_SYSTICKS(timeout);
1277:D:/Work/DeviceTester/amazon-freertos/lib/third_party/mcu_vendor/renesas/rz_mcu_boards/core_package/generate/os_abstraction/src\r_os_abstraction_api.c ****         }
1278:D:/Work/DeviceTester/amazon-freertos/lib/third_party/mcu_vendor/renesas/rz_mcu_boards/core_package/generate/os_abstraction/src\r_os_abstraction_api.c **** 
1279:D:/Work/DeviceTester/amazon-freertos/lib/third_party/mcu_vendor/renesas/rz_mcu_boards/core_package/generate/os_abstraction/src\r_os_abstraction_api.c ****         /* Check if we are in an ISR */
1280:D:/Work/DeviceTester/amazon-freertos/lib/third_party/mcu_vendor/renesas/rz_mcu_boards/core_package/generate/os_abstraction/src\r_os_abstraction_api.c ****         if (ulPortInterruptNesting)
 1520              		.loc 1 1280 0
 1521 0010 30309FE5 		ldr	r3, .L163
 1522 0014 003093E5 		ldr	r3, [r3]
 1523 0018 000053E3 		cmp	r3, #0
 1524 001c 0700000A 		beq	.L159
 1525              	.LBB25:
1281:D:/Work/DeviceTester/amazon-freertos/lib/third_party/mcu_vendor/renesas/rz_mcu_boards/core_package/generate/os_abstraction/src\r_os_abstraction_api.c ****         {
1282:D:/Work/DeviceTester/amazon-freertos/lib/third_party/mcu_vendor/renesas/rz_mcu_boards/core_package/generate/os_abstraction/src\r_os_abstraction_api.c ****             BaseType_t dummy_variable;
1283:D:/Work/DeviceTester/amazon-freertos/lib/third_party/mcu_vendor/renesas/rz_mcu_boards/core_package/generate/os_abstraction/src\r_os_abstraction_api.c **** 
1284:D:/Work/DeviceTester/amazon-freertos/lib/third_party/mcu_vendor/renesas/rz_mcu_boards/core_package/generate/os_abstraction/src\r_os_abstraction_api.c ****             /* cast semaphore_t used by OS abstraction to SemaphoreHandle_t used by FreeRTOS */
1285:D:/Work/DeviceTester/amazon-freertos/lib/third_party/mcu_vendor/renesas/rz_mcu_boards/core_package/generate/os_abstraction/src\r_os_abstraction_api.c ****             if (xSemaphoreTakeFromISR((SemaphoreHandle_t) (*p_semaphore), &dummy_variable) == pdTRU
 1526              		.loc 1 1285 0
 1527 0020 04208DE2 		add	r2, sp, #4
 1528 0024 0010A0E3 		mov	r1, #0
 1529              	.LVL128:
 1530 0028 FEFFFFEB 		bl	xQueueReceiveFromISR
 1531              	.LVL129:
 1532              	.L162:
 1533              	.LBE25:
1286:D:/Work/DeviceTester/amazon-freertos/lib/third_party/mcu_vendor/renesas/rz_mcu_boards/core_package/generate/os_abstraction/src\r_os_abstraction_api.c ****             {
1287:D:/Work/DeviceTester/amazon-freertos/lib/third_party/mcu_vendor/renesas/rz_mcu_boards/core_package/generate/os_abstraction/src\r_os_abstraction_api.c ****                 ret = true;
1288:D:/Work/DeviceTester/amazon-freertos/lib/third_party/mcu_vendor/renesas/rz_mcu_boards/core_package/generate/os_abstraction/src\r_os_abstraction_api.c ****             }
1289:D:/Work/DeviceTester/amazon-freertos/lib/third_party/mcu_vendor/renesas/rz_mcu_boards/core_package/generate/os_abstraction/src\r_os_abstraction_api.c ****         }
1290:D:/Work/DeviceTester/amazon-freertos/lib/third_party/mcu_vendor/renesas/rz_mcu_boards/core_package/generate/os_abstraction/src\r_os_abstraction_api.c ****         else
1291:D:/Work/DeviceTester/amazon-freertos/lib/third_party/mcu_vendor/renesas/rz_mcu_boards/core_package/generate/os_abstraction/src\r_os_abstraction_api.c ****         {
1292:D:/Work/DeviceTester/amazon-freertos/lib/third_party/mcu_vendor/renesas/rz_mcu_boards/core_package/generate/os_abstraction/src\r_os_abstraction_api.c ****             /* cast semaphore_t used by OS abstraction to SemaphoreHandle_t used by FreeRTOS */
1293:D:/Work/DeviceTester/amazon-freertos/lib/third_party/mcu_vendor/renesas/rz_mcu_boards/core_package/generate/os_abstraction/src\r_os_abstraction_api.c ****             if (xSemaphoreTake((SemaphoreHandle_t) (*p_semaphore), ticks_to_wait) == pdTRUE)
 1534              		.loc 1 1293 0
 1535 002c 010040E2 		sub	r0, r0, #1
 1536 0030 100F6FE1 		clz	r0, r0
 1537 0034 A002A0E1 		lsr	r0, r0, #5
 1538              	.L157:
1294:D:/Work/DeviceTester/amazon-freertos/lib/third_party/mcu_vendor/renesas/rz_mcu_boards/core_package/generate/os_abstraction/src\r_os_abstraction_api.c ****             {
1295:D:/Work/DeviceTester/amazon-freertos/lib/third_party/mcu_vendor/renesas/rz_mcu_boards/core_package/generate/os_abstraction/src\r_os_abstraction_api.c ****                 ret = true;
1296:D:/Work/DeviceTester/amazon-freertos/lib/third_party/mcu_vendor/renesas/rz_mcu_boards/core_package/generate/os_abstraction/src\r_os_abstraction_api.c ****             }
1297:D:/Work/DeviceTester/amazon-freertos/lib/third_party/mcu_vendor/renesas/rz_mcu_boards/core_package/generate/os_abstraction/src\r_os_abstraction_api.c ****         }
1298:D:/Work/DeviceTester/amazon-freertos/lib/third_party/mcu_vendor/renesas/rz_mcu_boards/core_package/generate/os_abstraction/src\r_os_abstraction_api.c ****     }
1299:D:/Work/DeviceTester/amazon-freertos/lib/third_party/mcu_vendor/renesas/rz_mcu_boards/core_package/generate/os_abstraction/src\r_os_abstraction_api.c **** 
1300:D:/Work/DeviceTester/amazon-freertos/lib/third_party/mcu_vendor/renesas/rz_mcu_boards/core_package/generate/os_abstraction/src\r_os_abstraction_api.c ****     return (ret);
1301:D:/Work/DeviceTester/amazon-freertos/lib/third_party/mcu_vendor/renesas/rz_mcu_boards/core_package/generate/os_abstraction/src\r_os_abstraction_api.c **** }
 1539              		.loc 1 1301 0
 1540 0038 0CD08DE2 		add	sp, sp, #12
 1541              		.cfi_remember_state
 1542              		.cfi_def_cfa_offset 4
 1543              		@ sp needed
 1544 003c 04F09DE4 		ldr	pc, [sp], #4
 1545              	.LVL130:
 1546              	.L159:
 1547              		.cfi_restore_state
1293:D:/Work/DeviceTester/amazon-freertos/lib/third_party/mcu_vendor/renesas/rz_mcu_boards/core_package/generate/os_abstraction/src\r_os_abstraction_api.c ****             {
 1548              		.loc 1 1293 0
 1549 0040 FEFFFFEB 		bl	xQueueSemaphoreTake
 1550              	.LVL131:
 1551 0044 F8FFFFEA 		b	.L162
 1552              	.L164:
 1553              		.align	2
 1554              	.L163:
 1555 0048 00000000 		.word	ulPortInterruptNesting
 1556              		.cfi_endproc
 1557              	.LFE37:
 1559              		.section	.text.R_OS_SemaphoreRelease,"ax",%progbits
 1560              		.align	2
 1561              		.global	R_OS_SemaphoreRelease
 1562              		.syntax unified
 1563              		.arm
 1564              		.fpu neon
 1566              	R_OS_SemaphoreRelease:
 1567              	.LFB38:
1302:D:/Work/DeviceTester/amazon-freertos/lib/third_party/mcu_vendor/renesas/rz_mcu_boards/core_package/generate/os_abstraction/src\r_os_abstraction_api.c **** /**************************************************************************************************
1303:D:/Work/DeviceTester/amazon-freertos/lib/third_party/mcu_vendor/renesas/rz_mcu_boards/core_package/generate/os_abstraction/src\r_os_abstraction_api.c ****  End of function R_OS_SemaphoreWait
1304:D:/Work/DeviceTester/amazon-freertos/lib/third_party/mcu_vendor/renesas/rz_mcu_boards/core_package/generate/os_abstraction/src\r_os_abstraction_api.c ****  **************************************************************************************************
1305:D:/Work/DeviceTester/amazon-freertos/lib/third_party/mcu_vendor/renesas/rz_mcu_boards/core_package/generate/os_abstraction/src\r_os_abstraction_api.c **** 
1306:D:/Work/DeviceTester/amazon-freertos/lib/third_party/mcu_vendor/renesas/rz_mcu_boards/core_package/generate/os_abstraction/src\r_os_abstraction_api.c **** /**************************************************************************************************
1307:D:/Work/DeviceTester/amazon-freertos/lib/third_party/mcu_vendor/renesas/rz_mcu_boards/core_package/generate/os_abstraction/src\r_os_abstraction_api.c ****  * Function Name: R_OS_SemaphoreRelease
1308:D:/Work/DeviceTester/amazon-freertos/lib/third_party/mcu_vendor/renesas/rz_mcu_boards/core_package/generate/os_abstraction/src\r_os_abstraction_api.c ****  * Description  : Release a semaphore, freeing freeing it to be used by another task
1309:D:/Work/DeviceTester/amazon-freertos/lib/third_party/mcu_vendor/renesas/rz_mcu_boards/core_package/generate/os_abstraction/src\r_os_abstraction_api.c ****  * Arguments    : semaphore_ptr - Pointer to a associated semaphore
1310:D:/Work/DeviceTester/amazon-freertos/lib/third_party/mcu_vendor/renesas/rz_mcu_boards/core_package/generate/os_abstraction/src\r_os_abstraction_api.c ****  * Return Value : none
1311:D:/Work/DeviceTester/amazon-freertos/lib/third_party/mcu_vendor/renesas/rz_mcu_boards/core_package/generate/os_abstraction/src\r_os_abstraction_api.c ****  **************************************************************************************************
1312:D:/Work/DeviceTester/amazon-freertos/lib/third_party/mcu_vendor/renesas/rz_mcu_boards/core_package/generate/os_abstraction/src\r_os_abstraction_api.c **** void R_OS_SemaphoreRelease (p_semaphore_t p_semaphore)
1313:D:/Work/DeviceTester/amazon-freertos/lib/third_party/mcu_vendor/renesas/rz_mcu_boards/core_package/generate/os_abstraction/src\r_os_abstraction_api.c **** {
 1568              		.loc 1 1313 0
 1569              		.cfi_startproc
 1570              		@ args = 0, pretend = 0, frame = 0
 1571              		@ frame_needed = 0, uses_anonymous_args = 0
 1572              		@ link register save eliminated.
 1573              	.LVL132:
1314:D:/Work/DeviceTester/amazon-freertos/lib/third_party/mcu_vendor/renesas/rz_mcu_boards/core_package/generate/os_abstraction/src\r_os_abstraction_api.c ****     /* Check that there is a non zero handle to the semaphore. */
1315:D:/Work/DeviceTester/amazon-freertos/lib/third_party/mcu_vendor/renesas/rz_mcu_boards/core_package/generate/os_abstraction/src\r_os_abstraction_api.c ****     if (0 != ( *p_semaphore))
 1574              		.loc 1 1315 0
 1575 0000 000090E5 		ldr	r0, [r0]
 1576              	.LVL133:
 1577 0004 000050E3 		cmp	r0, #0
 1578 0008 1EFF2F01 		bxeq	lr
1316:D:/Work/DeviceTester/amazon-freertos/lib/third_party/mcu_vendor/renesas/rz_mcu_boards/core_package/generate/os_abstraction/src\r_os_abstraction_api.c ****     {
1317:D:/Work/DeviceTester/amazon-freertos/lib/third_party/mcu_vendor/renesas/rz_mcu_boards/core_package/generate/os_abstraction/src\r_os_abstraction_api.c ****         /* Check if we are in an ISR */
1318:D:/Work/DeviceTester/amazon-freertos/lib/third_party/mcu_vendor/renesas/rz_mcu_boards/core_package/generate/os_abstraction/src\r_os_abstraction_api.c ****         if (ulPortInterruptNesting)
 1579              		.loc 1 1318 0
 1580 000c 1C309FE5 		ldr	r3, .L168
 1581 0010 003093E5 		ldr	r3, [r3]
 1582 0014 000053E3 		cmp	r3, #0
 1583 0018 0100000A 		beq	.L167
1319:D:/Work/DeviceTester/amazon-freertos/lib/third_party/mcu_vendor/renesas/rz_mcu_boards/core_package/generate/os_abstraction/src\r_os_abstraction_api.c ****         {
1320:D:/Work/DeviceTester/amazon-freertos/lib/third_party/mcu_vendor/renesas/rz_mcu_boards/core_package/generate/os_abstraction/src\r_os_abstraction_api.c ****             /* cast semaphore_t used by OS abstraction to SemaphoreHandle_t used by FreeRTOS */
1321:D:/Work/DeviceTester/amazon-freertos/lib/third_party/mcu_vendor/renesas/rz_mcu_boards/core_package/generate/os_abstraction/src\r_os_abstraction_api.c ****             xSemaphoreGiveFromISR((SemaphoreHandle_t ) ( *p_semaphore), NULL);
 1584              		.loc 1 1321 0
 1585 001c 0010A0E3 		mov	r1, #0
 1586 0020 FEFFFFEA 		b	xQueueGiveFromISR
 1587              	.LVL134:
 1588              	.L167:
1322:D:/Work/DeviceTester/amazon-freertos/lib/third_party/mcu_vendor/renesas/rz_mcu_boards/core_package/generate/os_abstraction/src\r_os_abstraction_api.c ****         }
1323:D:/Work/DeviceTester/amazon-freertos/lib/third_party/mcu_vendor/renesas/rz_mcu_boards/core_package/generate/os_abstraction/src\r_os_abstraction_api.c ****         else
1324:D:/Work/DeviceTester/amazon-freertos/lib/third_party/mcu_vendor/renesas/rz_mcu_boards/core_package/generate/os_abstraction/src\r_os_abstraction_api.c ****         {
1325:D:/Work/DeviceTester/amazon-freertos/lib/third_party/mcu_vendor/renesas/rz_mcu_boards/core_package/generate/os_abstraction/src\r_os_abstraction_api.c ****             /* cast semaphore_t used by OS abstraction to SemaphoreHandle_t used by FreeRTOS */
1326:D:/Work/DeviceTester/amazon-freertos/lib/third_party/mcu_vendor/renesas/rz_mcu_boards/core_package/generate/os_abstraction/src\r_os_abstraction_api.c ****             xSemaphoreGive((SemaphoreHandle_t ) ( *p_semaphore));
 1589              		.loc 1 1326 0
 1590 0024 0320A0E1 		mov	r2, r3
 1591 0028 0310A0E1 		mov	r1, r3
 1592 002c FEFFFFEA 		b	xQueueGenericSend
 1593              	.LVL135:
 1594              	.L169:
 1595              		.align	2
 1596              	.L168:
 1597 0030 00000000 		.word	ulPortInterruptNesting
 1598              		.cfi_endproc
 1599              	.LFE38:
 1601              		.section	.text.R_OS_MutexCreate,"ax",%progbits
 1602              		.align	2
 1603              		.global	R_OS_MutexCreate
 1604              		.syntax unified
 1605              		.arm
 1606              		.fpu neon
 1608              	R_OS_MutexCreate:
 1609              	.LFB39:
1327:D:/Work/DeviceTester/amazon-freertos/lib/third_party/mcu_vendor/renesas/rz_mcu_boards/core_package/generate/os_abstraction/src\r_os_abstraction_api.c ****         }
1328:D:/Work/DeviceTester/amazon-freertos/lib/third_party/mcu_vendor/renesas/rz_mcu_boards/core_package/generate/os_abstraction/src\r_os_abstraction_api.c ****     }
1329:D:/Work/DeviceTester/amazon-freertos/lib/third_party/mcu_vendor/renesas/rz_mcu_boards/core_package/generate/os_abstraction/src\r_os_abstraction_api.c **** }
1330:D:/Work/DeviceTester/amazon-freertos/lib/third_party/mcu_vendor/renesas/rz_mcu_boards/core_package/generate/os_abstraction/src\r_os_abstraction_api.c **** /**************************************************************************************************
1331:D:/Work/DeviceTester/amazon-freertos/lib/third_party/mcu_vendor/renesas/rz_mcu_boards/core_package/generate/os_abstraction/src\r_os_abstraction_api.c ****  End of function R_OS_SemaphoreRelease
1332:D:/Work/DeviceTester/amazon-freertos/lib/third_party/mcu_vendor/renesas/rz_mcu_boards/core_package/generate/os_abstraction/src\r_os_abstraction_api.c ****  **************************************************************************************************
1333:D:/Work/DeviceTester/amazon-freertos/lib/third_party/mcu_vendor/renesas/rz_mcu_boards/core_package/generate/os_abstraction/src\r_os_abstraction_api.c **** 
1334:D:/Work/DeviceTester/amazon-freertos/lib/third_party/mcu_vendor/renesas/rz_mcu_boards/core_package/generate/os_abstraction/src\r_os_abstraction_api.c **** /**************************************************************************************************
1335:D:/Work/DeviceTester/amazon-freertos/lib/third_party/mcu_vendor/renesas/rz_mcu_boards/core_package/generate/os_abstraction/src\r_os_abstraction_api.c ****  *                                  Mutex API
1336:D:/Work/DeviceTester/amazon-freertos/lib/third_party/mcu_vendor/renesas/rz_mcu_boards/core_package/generate/os_abstraction/src\r_os_abstraction_api.c ****  **************************************************************************************************
1337:D:/Work/DeviceTester/amazon-freertos/lib/third_party/mcu_vendor/renesas/rz_mcu_boards/core_package/generate/os_abstraction/src\r_os_abstraction_api.c **** 
1338:D:/Work/DeviceTester/amazon-freertos/lib/third_party/mcu_vendor/renesas/rz_mcu_boards/core_package/generate/os_abstraction/src\r_os_abstraction_api.c **** /**************************************************************************************************
1339:D:/Work/DeviceTester/amazon-freertos/lib/third_party/mcu_vendor/renesas/rz_mcu_boards/core_package/generate/os_abstraction/src\r_os_abstraction_api.c ****  * Function Name: R_OS_MutexCreate
1340:D:/Work/DeviceTester/amazon-freertos/lib/third_party/mcu_vendor/renesas/rz_mcu_boards/core_package/generate/os_abstraction/src\r_os_abstraction_api.c ****  * Description  : Create a mutex
1341:D:/Work/DeviceTester/amazon-freertos/lib/third_party/mcu_vendor/renesas/rz_mcu_boards/core_package/generate/os_abstraction/src\r_os_abstraction_api.c ****  * Arguments    : None
1342:D:/Work/DeviceTester/amazon-freertos/lib/third_party/mcu_vendor/renesas/rz_mcu_boards/core_package/generate/os_abstraction/src\r_os_abstraction_api.c ****  * Return Value : mutex - ptr to object
1343:D:/Work/DeviceTester/amazon-freertos/lib/third_party/mcu_vendor/renesas/rz_mcu_boards/core_package/generate/os_abstraction/src\r_os_abstraction_api.c ****  **************************************************************************************************
1344:D:/Work/DeviceTester/amazon-freertos/lib/third_party/mcu_vendor/renesas/rz_mcu_boards/core_package/generate/os_abstraction/src\r_os_abstraction_api.c **** void *R_OS_MutexCreate (void)
1345:D:/Work/DeviceTester/amazon-freertos/lib/third_party/mcu_vendor/renesas/rz_mcu_boards/core_package/generate/os_abstraction/src\r_os_abstraction_api.c **** {
 1610              		.loc 1 1345 0
 1611              		.cfi_startproc
 1612              		@ args = 0, pretend = 0, frame = 0
 1613              		@ frame_needed = 0, uses_anonymous_args = 0
 1614              		@ link register save eliminated.
1346:D:/Work/DeviceTester/amazon-freertos/lib/third_party/mcu_vendor/renesas/rz_mcu_boards/core_package/generate/os_abstraction/src\r_os_abstraction_api.c ****     /* cast SemaphoreHandle_t used by FreeRTOS to void * used by OS abstraction */
1347:D:/Work/DeviceTester/amazon-freertos/lib/third_party/mcu_vendor/renesas/rz_mcu_boards/core_package/generate/os_abstraction/src\r_os_abstraction_api.c ****     return ((void *) xSemaphoreCreateMutex());
 1615              		.loc 1 1347 0
 1616 0000 0100A0E3 		mov	r0, #1
 1617 0004 FEFFFFEA 		b	xQueueCreateMutex
 1618              	.LVL136:
 1619              		.cfi_endproc
 1620              	.LFE39:
 1622              		.section	.text.R_OS_MutexDelete,"ax",%progbits
 1623              		.align	2
 1624              		.global	R_OS_MutexDelete
 1625              		.syntax unified
 1626              		.arm
 1627              		.fpu neon
 1629              	R_OS_MutexDelete:
 1630              	.LFB40:
1348:D:/Work/DeviceTester/amazon-freertos/lib/third_party/mcu_vendor/renesas/rz_mcu_boards/core_package/generate/os_abstraction/src\r_os_abstraction_api.c **** }
1349:D:/Work/DeviceTester/amazon-freertos/lib/third_party/mcu_vendor/renesas/rz_mcu_boards/core_package/generate/os_abstraction/src\r_os_abstraction_api.c **** /**************************************************************************************************
1350:D:/Work/DeviceTester/amazon-freertos/lib/third_party/mcu_vendor/renesas/rz_mcu_boards/core_package/generate/os_abstraction/src\r_os_abstraction_api.c ****  End of function R_OS_MutexCreate
1351:D:/Work/DeviceTester/amazon-freertos/lib/third_party/mcu_vendor/renesas/rz_mcu_boards/core_package/generate/os_abstraction/src\r_os_abstraction_api.c ****  **************************************************************************************************
1352:D:/Work/DeviceTester/amazon-freertos/lib/third_party/mcu_vendor/renesas/rz_mcu_boards/core_package/generate/os_abstraction/src\r_os_abstraction_api.c **** 
1353:D:/Work/DeviceTester/amazon-freertos/lib/third_party/mcu_vendor/renesas/rz_mcu_boards/core_package/generate/os_abstraction/src\r_os_abstraction_api.c **** /**************************************************************************************************
1354:D:/Work/DeviceTester/amazon-freertos/lib/third_party/mcu_vendor/renesas/rz_mcu_boards/core_package/generate/os_abstraction/src\r_os_abstraction_api.c ****  * Function Name: R_OS_MutexDelete
1355:D:/Work/DeviceTester/amazon-freertos/lib/third_party/mcu_vendor/renesas/rz_mcu_boards/core_package/generate/os_abstraction/src\r_os_abstraction_api.c ****  * Description  : Delete mutex
1356:D:/Work/DeviceTester/amazon-freertos/lib/third_party/mcu_vendor/renesas/rz_mcu_boards/core_package/generate/os_abstraction/src\r_os_abstraction_api.c ****  * Arguments    : pp_mutex - ptr to mutex object
1357:D:/Work/DeviceTester/amazon-freertos/lib/third_party/mcu_vendor/renesas/rz_mcu_boards/core_package/generate/os_abstraction/src\r_os_abstraction_api.c ****  * Return Value : none
1358:D:/Work/DeviceTester/amazon-freertos/lib/third_party/mcu_vendor/renesas/rz_mcu_boards/core_package/generate/os_abstraction/src\r_os_abstraction_api.c ****  **************************************************************************************************
1359:D:/Work/DeviceTester/amazon-freertos/lib/third_party/mcu_vendor/renesas/rz_mcu_boards/core_package/generate/os_abstraction/src\r_os_abstraction_api.c **** void R_OS_MutexDelete (pp_mutex_t pp_mutex)
1360:D:/Work/DeviceTester/amazon-freertos/lib/third_party/mcu_vendor/renesas/rz_mcu_boards/core_package/generate/os_abstraction/src\r_os_abstraction_api.c **** {
 1631              		.loc 1 1360 0
 1632              		.cfi_startproc
 1633              		@ args = 0, pretend = 0, frame = 0
 1634              		@ frame_needed = 0, uses_anonymous_args = 0
 1635              	.LVL137:
 1636 0000 10402DE9 		push	{r4, lr}
 1637              		.cfi_def_cfa_offset 8
 1638              		.cfi_offset 4, -8
 1639              		.cfi_offset 14, -4
 1640              		.loc 1 1360 0
 1641 0004 0040A0E1 		mov	r4, r0
1361:D:/Work/DeviceTester/amazon-freertos/lib/third_party/mcu_vendor/renesas/rz_mcu_boards/core_package/generate/os_abstraction/src\r_os_abstraction_api.c ****     /* cast void * used by OS abstraction to SemaphoreHandle_t used by FreeRTOS */
1362:D:/Work/DeviceTester/amazon-freertos/lib/third_party/mcu_vendor/renesas/rz_mcu_boards/core_package/generate/os_abstraction/src\r_os_abstraction_api.c ****     vSemaphoreDelete((SemaphoreHandle_t ) *pp_mutex);
 1642              		.loc 1 1362 0
 1643 0008 000090E5 		ldr	r0, [r0]
 1644              	.LVL138:
 1645 000c FEFFFFEB 		bl	vQueueDelete
 1646              	.LVL139:
1363:D:/Work/DeviceTester/amazon-freertos/lib/third_party/mcu_vendor/renesas/rz_mcu_boards/core_package/generate/os_abstraction/src\r_os_abstraction_api.c **** 
1364:D:/Work/DeviceTester/amazon-freertos/lib/third_party/mcu_vendor/renesas/rz_mcu_boards/core_package/generate/os_abstraction/src\r_os_abstraction_api.c ****     /* Set NULL as Deleted */
1365:D:/Work/DeviceTester/amazon-freertos/lib/third_party/mcu_vendor/renesas/rz_mcu_boards/core_package/generate/os_abstraction/src\r_os_abstraction_api.c ****     *pp_mutex = NULL;
 1647              		.loc 1 1365 0
 1648 0010 0030A0E3 		mov	r3, #0
 1649 0014 003084E5 		str	r3, [r4]
 1650 0018 1080BDE8 		pop	{r4, pc}
 1651              		.cfi_endproc
 1652              	.LFE40:
 1654              		.section	.text.R_OS_MutexAcquire,"ax",%progbits
 1655              		.align	2
 1656              		.global	R_OS_MutexAcquire
 1657              		.syntax unified
 1658              		.arm
 1659              		.fpu neon
 1661              	R_OS_MutexAcquire:
 1662              	.LFB41:
1366:D:/Work/DeviceTester/amazon-freertos/lib/third_party/mcu_vendor/renesas/rz_mcu_boards/core_package/generate/os_abstraction/src\r_os_abstraction_api.c **** }
1367:D:/Work/DeviceTester/amazon-freertos/lib/third_party/mcu_vendor/renesas/rz_mcu_boards/core_package/generate/os_abstraction/src\r_os_abstraction_api.c **** /**************************************************************************************************
1368:D:/Work/DeviceTester/amazon-freertos/lib/third_party/mcu_vendor/renesas/rz_mcu_boards/core_package/generate/os_abstraction/src\r_os_abstraction_api.c ****  End of function R_OS_MutexDelete
1369:D:/Work/DeviceTester/amazon-freertos/lib/third_party/mcu_vendor/renesas/rz_mcu_boards/core_package/generate/os_abstraction/src\r_os_abstraction_api.c ****  **************************************************************************************************
1370:D:/Work/DeviceTester/amazon-freertos/lib/third_party/mcu_vendor/renesas/rz_mcu_boards/core_package/generate/os_abstraction/src\r_os_abstraction_api.c **** 
1371:D:/Work/DeviceTester/amazon-freertos/lib/third_party/mcu_vendor/renesas/rz_mcu_boards/core_package/generate/os_abstraction/src\r_os_abstraction_api.c **** /**************************************************************************************************
1372:D:/Work/DeviceTester/amazon-freertos/lib/third_party/mcu_vendor/renesas/rz_mcu_boards/core_package/generate/os_abstraction/src\r_os_abstraction_api.c ****  * Function Name: R_OS_MutexAcquire
1373:D:/Work/DeviceTester/amazon-freertos/lib/third_party/mcu_vendor/renesas/rz_mcu_boards/core_package/generate/os_abstraction/src\r_os_abstraction_api.c ****  * Description  : Acquire the mutex, waiting indefinitely if need be
1374:D:/Work/DeviceTester/amazon-freertos/lib/third_party/mcu_vendor/renesas/rz_mcu_boards/core_package/generate/os_abstraction/src\r_os_abstraction_api.c ****  * Arguments    : p_mutex - pointer to object
1375:D:/Work/DeviceTester/amazon-freertos/lib/third_party/mcu_vendor/renesas/rz_mcu_boards/core_package/generate/os_abstraction/src\r_os_abstraction_api.c ****  * Return Value : none
1376:D:/Work/DeviceTester/amazon-freertos/lib/third_party/mcu_vendor/renesas/rz_mcu_boards/core_package/generate/os_abstraction/src\r_os_abstraction_api.c ****  **************************************************************************************************
1377:D:/Work/DeviceTester/amazon-freertos/lib/third_party/mcu_vendor/renesas/rz_mcu_boards/core_package/generate/os_abstraction/src\r_os_abstraction_api.c **** void R_OS_MutexAcquire (p_mutex_t p_mutex)
1378:D:/Work/DeviceTester/amazon-freertos/lib/third_party/mcu_vendor/renesas/rz_mcu_boards/core_package/generate/os_abstraction/src\r_os_abstraction_api.c **** {
 1663              		.loc 1 1378 0
 1664              		.cfi_startproc
 1665              		@ args = 0, pretend = 0, frame = 0
 1666              		@ frame_needed = 0, uses_anonymous_args = 0
 1667              		@ link register save eliminated.
 1668              	.LVL140:
1379:D:/Work/DeviceTester/amazon-freertos/lib/third_party/mcu_vendor/renesas/rz_mcu_boards/core_package/generate/os_abstraction/src\r_os_abstraction_api.c ****     /* Obtain ownership of the mutex object */
1380:D:/Work/DeviceTester/amazon-freertos/lib/third_party/mcu_vendor/renesas/rz_mcu_boards/core_package/generate/os_abstraction/src\r_os_abstraction_api.c ****     /* cast void * used by OS abstraction to SemaphoreHandle_t used by FreeRTOS */
1381:D:/Work/DeviceTester/amazon-freertos/lib/third_party/mcu_vendor/renesas/rz_mcu_boards/core_package/generate/os_abstraction/src\r_os_abstraction_api.c ****     xSemaphoreTake((SemaphoreHandle_t ) p_mutex, portMAX_DELAY);
 1669              		.loc 1 1381 0
 1670 0000 0010E0E3 		mvn	r1, #0
 1671 0004 FEFFFFEA 		b	xQueueSemaphoreTake
 1672              	.LVL141:
 1673              		.cfi_endproc
 1674              	.LFE41:
 1676              		.section	.text.R_OS_MutexRelease,"ax",%progbits
 1677              		.align	2
 1678              		.global	R_OS_MutexRelease
 1679              		.syntax unified
 1680              		.arm
 1681              		.fpu neon
 1683              	R_OS_MutexRelease:
 1684              	.LFB42:
1382:D:/Work/DeviceTester/amazon-freertos/lib/third_party/mcu_vendor/renesas/rz_mcu_boards/core_package/generate/os_abstraction/src\r_os_abstraction_api.c **** }
1383:D:/Work/DeviceTester/amazon-freertos/lib/third_party/mcu_vendor/renesas/rz_mcu_boards/core_package/generate/os_abstraction/src\r_os_abstraction_api.c **** /**************************************************************************************************
1384:D:/Work/DeviceTester/amazon-freertos/lib/third_party/mcu_vendor/renesas/rz_mcu_boards/core_package/generate/os_abstraction/src\r_os_abstraction_api.c ****  End of function R_OS_MutexAcquire
1385:D:/Work/DeviceTester/amazon-freertos/lib/third_party/mcu_vendor/renesas/rz_mcu_boards/core_package/generate/os_abstraction/src\r_os_abstraction_api.c ****  **************************************************************************************************
1386:D:/Work/DeviceTester/amazon-freertos/lib/third_party/mcu_vendor/renesas/rz_mcu_boards/core_package/generate/os_abstraction/src\r_os_abstraction_api.c **** 
1387:D:/Work/DeviceTester/amazon-freertos/lib/third_party/mcu_vendor/renesas/rz_mcu_boards/core_package/generate/os_abstraction/src\r_os_abstraction_api.c **** /**************************************************************************************************
1388:D:/Work/DeviceTester/amazon-freertos/lib/third_party/mcu_vendor/renesas/rz_mcu_boards/core_package/generate/os_abstraction/src\r_os_abstraction_api.c ****  * Function Name: R_OS_MutexRelease
1389:D:/Work/DeviceTester/amazon-freertos/lib/third_party/mcu_vendor/renesas/rz_mcu_boards/core_package/generate/os_abstraction/src\r_os_abstraction_api.c ****  * Description  : This primitive function is specific for os_less applications
1390:D:/Work/DeviceTester/amazon-freertos/lib/third_party/mcu_vendor/renesas/rz_mcu_boards/core_package/generate/os_abstraction/src\r_os_abstraction_api.c ****  * Arguments    : p_mutex - ptr to object
1391:D:/Work/DeviceTester/amazon-freertos/lib/third_party/mcu_vendor/renesas/rz_mcu_boards/core_package/generate/os_abstraction/src\r_os_abstraction_api.c ****  * Return Value : none
1392:D:/Work/DeviceTester/amazon-freertos/lib/third_party/mcu_vendor/renesas/rz_mcu_boards/core_package/generate/os_abstraction/src\r_os_abstraction_api.c ****  **************************************************************************************************
1393:D:/Work/DeviceTester/amazon-freertos/lib/third_party/mcu_vendor/renesas/rz_mcu_boards/core_package/generate/os_abstraction/src\r_os_abstraction_api.c **** void R_OS_MutexRelease (p_mutex_t p_mutex)
1394:D:/Work/DeviceTester/amazon-freertos/lib/third_party/mcu_vendor/renesas/rz_mcu_boards/core_package/generate/os_abstraction/src\r_os_abstraction_api.c **** {
 1685              		.loc 1 1394 0
 1686              		.cfi_startproc
 1687              		@ args = 0, pretend = 0, frame = 0
 1688              		@ frame_needed = 0, uses_anonymous_args = 0
 1689              		@ link register save eliminated.
 1690              	.LVL142:
1395:D:/Work/DeviceTester/amazon-freertos/lib/third_party/mcu_vendor/renesas/rz_mcu_boards/core_package/generate/os_abstraction/src\r_os_abstraction_api.c ****     /* Release ownership of the mutex object */
1396:D:/Work/DeviceTester/amazon-freertos/lib/third_party/mcu_vendor/renesas/rz_mcu_boards/core_package/generate/os_abstraction/src\r_os_abstraction_api.c ****     /* cast void * used by OS abstraction to SemaphoreHandle_t used by FreeRTOS */
1397:D:/Work/DeviceTester/amazon-freertos/lib/third_party/mcu_vendor/renesas/rz_mcu_boards/core_package/generate/os_abstraction/src\r_os_abstraction_api.c ****     xSemaphoreGive((SemaphoreHandle_t ) p_mutex);
 1691              		.loc 1 1397 0
 1692 0000 0030A0E3 		mov	r3, #0
 1693 0004 0320A0E1 		mov	r2, r3
 1694 0008 0310A0E1 		mov	r1, r3
 1695 000c FEFFFFEA 		b	xQueueGenericSend
 1696              	.LVL143:
 1697              		.cfi_endproc
 1698              	.LFE42:
 1700              		.section	.text.R_OS_MutexWait,"ax",%progbits
 1701              		.align	2
 1702              		.global	R_OS_MutexWait
 1703              		.syntax unified
 1704              		.arm
 1705              		.fpu neon
 1707              	R_OS_MutexWait:
 1708              	.LFB43:
1398:D:/Work/DeviceTester/amazon-freertos/lib/third_party/mcu_vendor/renesas/rz_mcu_boards/core_package/generate/os_abstraction/src\r_os_abstraction_api.c **** }
1399:D:/Work/DeviceTester/amazon-freertos/lib/third_party/mcu_vendor/renesas/rz_mcu_boards/core_package/generate/os_abstraction/src\r_os_abstraction_api.c **** /**************************************************************************************************
1400:D:/Work/DeviceTester/amazon-freertos/lib/third_party/mcu_vendor/renesas/rz_mcu_boards/core_package/generate/os_abstraction/src\r_os_abstraction_api.c ****  End of function R_OS_MutexRelease
1401:D:/Work/DeviceTester/amazon-freertos/lib/third_party/mcu_vendor/renesas/rz_mcu_boards/core_package/generate/os_abstraction/src\r_os_abstraction_api.c ****  **************************************************************************************************
1402:D:/Work/DeviceTester/amazon-freertos/lib/third_party/mcu_vendor/renesas/rz_mcu_boards/core_package/generate/os_abstraction/src\r_os_abstraction_api.c **** 
1403:D:/Work/DeviceTester/amazon-freertos/lib/third_party/mcu_vendor/renesas/rz_mcu_boards/core_package/generate/os_abstraction/src\r_os_abstraction_api.c **** /**************************************************************************************************
1404:D:/Work/DeviceTester/amazon-freertos/lib/third_party/mcu_vendor/renesas/rz_mcu_boards/core_package/generate/os_abstraction/src\r_os_abstraction_api.c ****  * Function Name: R_OS_MutexWait
1405:D:/Work/DeviceTester/amazon-freertos/lib/third_party/mcu_vendor/renesas/rz_mcu_boards/core_package/generate/os_abstraction/src\r_os_abstraction_api.c ****  * Description  : Creates a mutex if NULL object handle given.
1406:D:/Work/DeviceTester/amazon-freertos/lib/third_party/mcu_vendor/renesas/rz_mcu_boards/core_package/generate/os_abstraction/src\r_os_abstraction_api.c ****  *                If a valid mutex object given, try acquire mutex for time of length timeout.
1407:D:/Work/DeviceTester/amazon-freertos/lib/third_party/mcu_vendor/renesas/rz_mcu_boards/core_package/generate/os_abstraction/src\r_os_abstraction_api.c ****  *                If mutex acquired, return true, otherwise timeout is reached and returns false.
1408:D:/Work/DeviceTester/amazon-freertos/lib/third_party/mcu_vendor/renesas/rz_mcu_boards/core_package/generate/os_abstraction/src\r_os_abstraction_api.c ****  * Arguments    : pp_mutex - object to lock
1409:D:/Work/DeviceTester/amazon-freertos/lib/third_party/mcu_vendor/renesas/rz_mcu_boards/core_package/generate/os_abstraction/src\r_os_abstraction_api.c ****  *                time_out - wait time, maximum use R_OS_ABSTRACTION_EV_WAIT_INFINITE
1410:D:/Work/DeviceTester/amazon-freertos/lib/third_party/mcu_vendor/renesas/rz_mcu_boards/core_package/generate/os_abstraction/src\r_os_abstraction_api.c ****  * Return Value : true if the mutex was acquired, false if not
1411:D:/Work/DeviceTester/amazon-freertos/lib/third_party/mcu_vendor/renesas/rz_mcu_boards/core_package/generate/os_abstraction/src\r_os_abstraction_api.c ****  **************************************************************************************************
1412:D:/Work/DeviceTester/amazon-freertos/lib/third_party/mcu_vendor/renesas/rz_mcu_boards/core_package/generate/os_abstraction/src\r_os_abstraction_api.c **** bool_t R_OS_MutexWait (pp_mutex_t pp_mutex, uint32_t time_out)
1413:D:/Work/DeviceTester/amazon-freertos/lib/third_party/mcu_vendor/renesas/rz_mcu_boards/core_package/generate/os_abstraction/src\r_os_abstraction_api.c **** {
 1709              		.loc 1 1413 0
 1710              		.cfi_startproc
 1711              		@ args = 0, pretend = 0, frame = 0
 1712              		@ frame_needed = 0, uses_anonymous_args = 0
 1713              	.LVL144:
1414:D:/Work/DeviceTester/amazon-freertos/lib/third_party/mcu_vendor/renesas/rz_mcu_boards/core_package/generate/os_abstraction/src\r_os_abstraction_api.c ****     bool_t ret_val = false;
1415:D:/Work/DeviceTester/amazon-freertos/lib/third_party/mcu_vendor/renesas/rz_mcu_boards/core_package/generate/os_abstraction/src\r_os_abstraction_api.c **** 
1416:D:/Work/DeviceTester/amazon-freertos/lib/third_party/mcu_vendor/renesas/rz_mcu_boards/core_package/generate/os_abstraction/src\r_os_abstraction_api.c ****     /* Check to see if it is pointing to NULL */
1417:D:/Work/DeviceTester/amazon-freertos/lib/third_party/mcu_vendor/renesas/rz_mcu_boards/core_package/generate/os_abstraction/src\r_os_abstraction_api.c ****     if (NULL == ( *pp_mutex))
 1714              		.loc 1 1417 0
 1715 0000 003090E5 		ldr	r3, [r0]
1413:D:/Work/DeviceTester/amazon-freertos/lib/third_party/mcu_vendor/renesas/rz_mcu_boards/core_package/generate/os_abstraction/src\r_os_abstraction_api.c ****     bool_t ret_val = false;
 1716              		.loc 1 1413 0
 1717 0004 70402DE9 		push	{r4, r5, r6, lr}
 1718              		.cfi_def_cfa_offset 16
 1719              		.cfi_offset 4, -16
 1720              		.cfi_offset 5, -12
 1721              		.cfi_offset 6, -8
 1722              		.cfi_offset 14, -4
1413:D:/Work/DeviceTester/amazon-freertos/lib/third_party/mcu_vendor/renesas/rz_mcu_boards/core_package/generate/os_abstraction/src\r_os_abstraction_api.c ****     bool_t ret_val = false;
 1723              		.loc 1 1413 0
 1724 0008 0040A0E1 		mov	r4, r0
 1725 000c 0150A0E1 		mov	r5, r1
 1726              		.loc 1 1417 0
 1727 0010 000053E3 		cmp	r3, #0
 1728 0014 0200001A 		bne	.L176
1418:D:/Work/DeviceTester/amazon-freertos/lib/third_party/mcu_vendor/renesas/rz_mcu_boards/core_package/generate/os_abstraction/src\r_os_abstraction_api.c ****     {
1419:D:/Work/DeviceTester/amazon-freertos/lib/third_party/mcu_vendor/renesas/rz_mcu_boards/core_package/generate/os_abstraction/src\r_os_abstraction_api.c ****         /* Create the mutex */
1420:D:/Work/DeviceTester/amazon-freertos/lib/third_party/mcu_vendor/renesas/rz_mcu_boards/core_package/generate/os_abstraction/src\r_os_abstraction_api.c ****         *pp_mutex = xSemaphoreCreateMutex();
 1729              		.loc 1 1420 0
 1730 0018 0100A0E3 		mov	r0, #1
 1731              	.LVL145:
 1732 001c FEFFFFEB 		bl	xQueueCreateMutex
 1733              	.LVL146:
 1734 0020 000084E5 		str	r0, [r4]
 1735              	.L176:
1421:D:/Work/DeviceTester/amazon-freertos/lib/third_party/mcu_vendor/renesas/rz_mcu_boards/core_package/generate/os_abstraction/src\r_os_abstraction_api.c ****     }
1422:D:/Work/DeviceTester/amazon-freertos/lib/third_party/mcu_vendor/renesas/rz_mcu_boards/core_package/generate/os_abstraction/src\r_os_abstraction_api.c **** 
1423:D:/Work/DeviceTester/amazon-freertos/lib/third_party/mcu_vendor/renesas/rz_mcu_boards/core_package/generate/os_abstraction/src\r_os_abstraction_api.c ****     /* Check that the mutex was created */
1424:D:/Work/DeviceTester/amazon-freertos/lib/third_party/mcu_vendor/renesas/rz_mcu_boards/core_package/generate/os_abstraction/src\r_os_abstraction_api.c ****     if (NULL != ( *pp_mutex))
 1736              		.loc 1 1424 0
 1737 0024 000094E5 		ldr	r0, [r4]
 1738 0028 000050E3 		cmp	r0, #0
 1739 002c 7080BD08 		popeq	{r4, r5, r6, pc}
1425:D:/Work/DeviceTester/amazon-freertos/lib/third_party/mcu_vendor/renesas/rz_mcu_boards/core_package/generate/os_abstraction/src\r_os_abstraction_api.c ****     {
1426:D:/Work/DeviceTester/amazon-freertos/lib/third_party/mcu_vendor/renesas/rz_mcu_boards/core_package/generate/os_abstraction/src\r_os_abstraction_api.c ****         if (R_OS_ABSTRACTION_EV_WAIT_INFINITE == time_out)
1427:D:/Work/DeviceTester/amazon-freertos/lib/third_party/mcu_vendor/renesas/rz_mcu_boards/core_package/generate/os_abstraction/src\r_os_abstraction_api.c ****         {
1428:D:/Work/DeviceTester/amazon-freertos/lib/third_party/mcu_vendor/renesas/rz_mcu_boards/core_package/generate/os_abstraction/src\r_os_abstraction_api.c ****             /*Cast to uint32_t from tick type*/
1429:D:/Work/DeviceTester/amazon-freertos/lib/third_party/mcu_vendor/renesas/rz_mcu_boards/core_package/generate/os_abstraction/src\r_os_abstraction_api.c ****             time_out = portMAX_DELAY;
1430:D:/Work/DeviceTester/amazon-freertos/lib/third_party/mcu_vendor/renesas/rz_mcu_boards/core_package/generate/os_abstraction/src\r_os_abstraction_api.c ****         }
1431:D:/Work/DeviceTester/amazon-freertos/lib/third_party/mcu_vendor/renesas/rz_mcu_boards/core_package/generate/os_abstraction/src\r_os_abstraction_api.c **** 
1432:D:/Work/DeviceTester/amazon-freertos/lib/third_party/mcu_vendor/renesas/rz_mcu_boards/core_package/generate/os_abstraction/src\r_os_abstraction_api.c ****         /* Try Get mutex */
1433:D:/Work/DeviceTester/amazon-freertos/lib/third_party/mcu_vendor/renesas/rz_mcu_boards/core_package/generate/os_abstraction/src\r_os_abstraction_api.c ****         if (xSemaphoreTake(( *pp_mutex), time_out))
 1740              		.loc 1 1433 0
 1741 0030 0510A0E1 		mov	r1, r5
 1742 0034 FEFFFFEB 		bl	xQueueSemaphoreTake
 1743              	.LVL147:
 1744 0038 000090E2 		adds	r0, r0, #0
 1745 003c 0100A013 		movne	r0, #1
1434:D:/Work/DeviceTester/amazon-freertos/lib/third_party/mcu_vendor/renesas/rz_mcu_boards/core_package/generate/os_abstraction/src\r_os_abstraction_api.c ****         {
1435:D:/Work/DeviceTester/amazon-freertos/lib/third_party/mcu_vendor/renesas/rz_mcu_boards/core_package/generate/os_abstraction/src\r_os_abstraction_api.c ****             ret_val = true;
1436:D:/Work/DeviceTester/amazon-freertos/lib/third_party/mcu_vendor/renesas/rz_mcu_boards/core_package/generate/os_abstraction/src\r_os_abstraction_api.c ****         }
1437:D:/Work/DeviceTester/amazon-freertos/lib/third_party/mcu_vendor/renesas/rz_mcu_boards/core_package/generate/os_abstraction/src\r_os_abstraction_api.c ****     }
1438:D:/Work/DeviceTester/amazon-freertos/lib/third_party/mcu_vendor/renesas/rz_mcu_boards/core_package/generate/os_abstraction/src\r_os_abstraction_api.c **** 
1439:D:/Work/DeviceTester/amazon-freertos/lib/third_party/mcu_vendor/renesas/rz_mcu_boards/core_package/generate/os_abstraction/src\r_os_abstraction_api.c ****     return (ret_val);
1440:D:/Work/DeviceTester/amazon-freertos/lib/third_party/mcu_vendor/renesas/rz_mcu_boards/core_package/generate/os_abstraction/src\r_os_abstraction_api.c **** }
 1746              		.loc 1 1440 0
 1747 0040 7080BDE8 		pop	{r4, r5, r6, pc}
 1748              		.cfi_endproc
 1749              	.LFE43:
 1751              		.section	.text.R_OS_EnterCritical,"ax",%progbits
 1752              		.align	2
 1753              		.global	R_OS_EnterCritical
 1754              		.syntax unified
 1755              		.arm
 1756              		.fpu neon
 1758              	R_OS_EnterCritical:
 1759              	.LFB44:
1441:D:/Work/DeviceTester/amazon-freertos/lib/third_party/mcu_vendor/renesas/rz_mcu_boards/core_package/generate/os_abstraction/src\r_os_abstraction_api.c **** /**************************************************************************************************
1442:D:/Work/DeviceTester/amazon-freertos/lib/third_party/mcu_vendor/renesas/rz_mcu_boards/core_package/generate/os_abstraction/src\r_os_abstraction_api.c ****  End of function R_OS_MutexWait
1443:D:/Work/DeviceTester/amazon-freertos/lib/third_party/mcu_vendor/renesas/rz_mcu_boards/core_package/generate/os_abstraction/src\r_os_abstraction_api.c ****  **************************************************************************************************
1444:D:/Work/DeviceTester/amazon-freertos/lib/third_party/mcu_vendor/renesas/rz_mcu_boards/core_package/generate/os_abstraction/src\r_os_abstraction_api.c **** 
1445:D:/Work/DeviceTester/amazon-freertos/lib/third_party/mcu_vendor/renesas/rz_mcu_boards/core_package/generate/os_abstraction/src\r_os_abstraction_api.c **** /**************************************************************************************************
1446:D:/Work/DeviceTester/amazon-freertos/lib/third_party/mcu_vendor/renesas/rz_mcu_boards/core_package/generate/os_abstraction/src\r_os_abstraction_api.c ****  * Function Name: R_OS_EnterCritical
1447:D:/Work/DeviceTester/amazon-freertos/lib/third_party/mcu_vendor/renesas/rz_mcu_boards/core_package/generate/os_abstraction/src\r_os_abstraction_api.c ****  * Description  : Enter critical section
1448:D:/Work/DeviceTester/amazon-freertos/lib/third_party/mcu_vendor/renesas/rz_mcu_boards/core_package/generate/os_abstraction/src\r_os_abstraction_api.c ****  * Arguments    : None
1449:D:/Work/DeviceTester/amazon-freertos/lib/third_party/mcu_vendor/renesas/rz_mcu_boards/core_package/generate/os_abstraction/src\r_os_abstraction_api.c ****  * Return Value : None
1450:D:/Work/DeviceTester/amazon-freertos/lib/third_party/mcu_vendor/renesas/rz_mcu_boards/core_package/generate/os_abstraction/src\r_os_abstraction_api.c ****  **************************************************************************************************
1451:D:/Work/DeviceTester/amazon-freertos/lib/third_party/mcu_vendor/renesas/rz_mcu_boards/core_package/generate/os_abstraction/src\r_os_abstraction_api.c **** void R_OS_EnterCritical (void)
1452:D:/Work/DeviceTester/amazon-freertos/lib/third_party/mcu_vendor/renesas/rz_mcu_boards/core_package/generate/os_abstraction/src\r_os_abstraction_api.c **** {
 1760              		.loc 1 1452 0
 1761              		.cfi_startproc
 1762              		@ args = 0, pretend = 0, frame = 0
 1763              		@ frame_needed = 0, uses_anonymous_args = 0
 1764              		@ link register save eliminated.
1453:D:/Work/DeviceTester/amazon-freertos/lib/third_party/mcu_vendor/renesas/rz_mcu_boards/core_package/generate/os_abstraction/src\r_os_abstraction_api.c ****     taskENTER_CRITICAL()
 1765              		.loc 1 1453 0
 1766 0000 FEFFFFEA 		b	vPortEnterCritical
 1767              	.LVL148:
 1768              		.cfi_endproc
 1769              	.LFE44:
 1771              		.section	.text.R_OS_ExitCritical,"ax",%progbits
 1772              		.align	2
 1773              		.global	R_OS_ExitCritical
 1774              		.syntax unified
 1775              		.arm
 1776              		.fpu neon
 1778              	R_OS_ExitCritical:
 1779              	.LFB45:
1454:D:/Work/DeviceTester/amazon-freertos/lib/third_party/mcu_vendor/renesas/rz_mcu_boards/core_package/generate/os_abstraction/src\r_os_abstraction_api.c ****     ;
1455:D:/Work/DeviceTester/amazon-freertos/lib/third_party/mcu_vendor/renesas/rz_mcu_boards/core_package/generate/os_abstraction/src\r_os_abstraction_api.c **** }
1456:D:/Work/DeviceTester/amazon-freertos/lib/third_party/mcu_vendor/renesas/rz_mcu_boards/core_package/generate/os_abstraction/src\r_os_abstraction_api.c **** /**************************************************************************************************
1457:D:/Work/DeviceTester/amazon-freertos/lib/third_party/mcu_vendor/renesas/rz_mcu_boards/core_package/generate/os_abstraction/src\r_os_abstraction_api.c ****  End of function R_OS_EnterCritical
1458:D:/Work/DeviceTester/amazon-freertos/lib/third_party/mcu_vendor/renesas/rz_mcu_boards/core_package/generate/os_abstraction/src\r_os_abstraction_api.c ****  **************************************************************************************************
1459:D:/Work/DeviceTester/amazon-freertos/lib/third_party/mcu_vendor/renesas/rz_mcu_boards/core_package/generate/os_abstraction/src\r_os_abstraction_api.c **** 
1460:D:/Work/DeviceTester/amazon-freertos/lib/third_party/mcu_vendor/renesas/rz_mcu_boards/core_package/generate/os_abstraction/src\r_os_abstraction_api.c **** /**************************************************************************************************
1461:D:/Work/DeviceTester/amazon-freertos/lib/third_party/mcu_vendor/renesas/rz_mcu_boards/core_package/generate/os_abstraction/src\r_os_abstraction_api.c ****  * Function Name: R_OS_ExitCritical
1462:D:/Work/DeviceTester/amazon-freertos/lib/third_party/mcu_vendor/renesas/rz_mcu_boards/core_package/generate/os_abstraction/src\r_os_abstraction_api.c ****  * Description  : Exit critical section
1463:D:/Work/DeviceTester/amazon-freertos/lib/third_party/mcu_vendor/renesas/rz_mcu_boards/core_package/generate/os_abstraction/src\r_os_abstraction_api.c ****  * Arguments    : None
1464:D:/Work/DeviceTester/amazon-freertos/lib/third_party/mcu_vendor/renesas/rz_mcu_boards/core_package/generate/os_abstraction/src\r_os_abstraction_api.c ****  * Return Value : None
1465:D:/Work/DeviceTester/amazon-freertos/lib/third_party/mcu_vendor/renesas/rz_mcu_boards/core_package/generate/os_abstraction/src\r_os_abstraction_api.c ****  **************************************************************************************************
1466:D:/Work/DeviceTester/amazon-freertos/lib/third_party/mcu_vendor/renesas/rz_mcu_boards/core_package/generate/os_abstraction/src\r_os_abstraction_api.c **** void R_OS_ExitCritical (void)
1467:D:/Work/DeviceTester/amazon-freertos/lib/third_party/mcu_vendor/renesas/rz_mcu_boards/core_package/generate/os_abstraction/src\r_os_abstraction_api.c **** {
 1780              		.loc 1 1467 0
 1781              		.cfi_startproc
 1782              		@ args = 0, pretend = 0, frame = 0
 1783              		@ frame_needed = 0, uses_anonymous_args = 0
 1784              		@ link register save eliminated.
1468:D:/Work/DeviceTester/amazon-freertos/lib/third_party/mcu_vendor/renesas/rz_mcu_boards/core_package/generate/os_abstraction/src\r_os_abstraction_api.c ****     taskEXIT_CRITICAL()
 1785              		.loc 1 1468 0
 1786 0000 FEFFFFEA 		b	vPortExitCritical
 1787              	.LVL149:
 1788              		.cfi_endproc
 1789              	.LFE45:
 1791              		.section	.text.R_OS_MessageQueueCreate,"ax",%progbits
 1792              		.align	2
 1793              		.global	R_OS_MessageQueueCreate
 1794              		.syntax unified
 1795              		.arm
 1796              		.fpu neon
 1798              	R_OS_MessageQueueCreate:
 1799              	.LFB46:
1469:D:/Work/DeviceTester/amazon-freertos/lib/third_party/mcu_vendor/renesas/rz_mcu_boards/core_package/generate/os_abstraction/src\r_os_abstraction_api.c ****     ;
1470:D:/Work/DeviceTester/amazon-freertos/lib/third_party/mcu_vendor/renesas/rz_mcu_boards/core_package/generate/os_abstraction/src\r_os_abstraction_api.c **** }
1471:D:/Work/DeviceTester/amazon-freertos/lib/third_party/mcu_vendor/renesas/rz_mcu_boards/core_package/generate/os_abstraction/src\r_os_abstraction_api.c **** /**************************************************************************************************
1472:D:/Work/DeviceTester/amazon-freertos/lib/third_party/mcu_vendor/renesas/rz_mcu_boards/core_package/generate/os_abstraction/src\r_os_abstraction_api.c ****  End of function R_OS_ExitCritical
1473:D:/Work/DeviceTester/amazon-freertos/lib/third_party/mcu_vendor/renesas/rz_mcu_boards/core_package/generate/os_abstraction/src\r_os_abstraction_api.c ****  **************************************************************************************************
1474:D:/Work/DeviceTester/amazon-freertos/lib/third_party/mcu_vendor/renesas/rz_mcu_boards/core_package/generate/os_abstraction/src\r_os_abstraction_api.c **** 
1475:D:/Work/DeviceTester/amazon-freertos/lib/third_party/mcu_vendor/renesas/rz_mcu_boards/core_package/generate/os_abstraction/src\r_os_abstraction_api.c **** /**************************************************************************************************
1476:D:/Work/DeviceTester/amazon-freertos/lib/third_party/mcu_vendor/renesas/rz_mcu_boards/core_package/generate/os_abstraction/src\r_os_abstraction_api.c ****  *                                  Message Queue API
1477:D:/Work/DeviceTester/amazon-freertos/lib/third_party/mcu_vendor/renesas/rz_mcu_boards/core_package/generate/os_abstraction/src\r_os_abstraction_api.c ****  **************************************************************************************************
1478:D:/Work/DeviceTester/amazon-freertos/lib/third_party/mcu_vendor/renesas/rz_mcu_boards/core_package/generate/os_abstraction/src\r_os_abstraction_api.c **** 
1479:D:/Work/DeviceTester/amazon-freertos/lib/third_party/mcu_vendor/renesas/rz_mcu_boards/core_package/generate/os_abstraction/src\r_os_abstraction_api.c **** /**************************************************************************************************
1480:D:/Work/DeviceTester/amazon-freertos/lib/third_party/mcu_vendor/renesas/rz_mcu_boards/core_package/generate/os_abstraction/src\r_os_abstraction_api.c ****  * Function Name: R_OS_MessageQueueCreate
1481:D:/Work/DeviceTester/amazon-freertos/lib/third_party/mcu_vendor/renesas/rz_mcu_boards/core_package/generate/os_abstraction/src\r_os_abstraction_api.c ****  * Description  : Create an Message Queue.
1482:D:/Work/DeviceTester/amazon-freertos/lib/third_party/mcu_vendor/renesas/rz_mcu_boards/core_package/generate/os_abstraction/src\r_os_abstraction_api.c ****  * Arguments    : queue_sz - Maximum number of elements in queue.
1483:D:/Work/DeviceTester/amazon-freertos/lib/third_party/mcu_vendor/renesas/rz_mcu_boards/core_package/generate/os_abstraction/src\r_os_abstraction_api.c ****  *                pp_queue_handle - pointer to queue handle pointer.
1484:D:/Work/DeviceTester/amazon-freertos/lib/third_party/mcu_vendor/renesas/rz_mcu_boards/core_package/generate/os_abstraction/src\r_os_abstraction_api.c ****  * Return Value : The function returns TRUE if the message queue was successfully created.
1485:D:/Work/DeviceTester/amazon-freertos/lib/third_party/mcu_vendor/renesas/rz_mcu_boards/core_package/generate/os_abstraction/src\r_os_abstraction_api.c ****  *                Otherwise, FALSE is returned.
1486:D:/Work/DeviceTester/amazon-freertos/lib/third_party/mcu_vendor/renesas/rz_mcu_boards/core_package/generate/os_abstraction/src\r_os_abstraction_api.c ****  **************************************************************************************************
1487:D:/Work/DeviceTester/amazon-freertos/lib/third_party/mcu_vendor/renesas/rz_mcu_boards/core_package/generate/os_abstraction/src\r_os_abstraction_api.c **** bool_t R_OS_MessageQueueCreate (p_os_msg_queue_handle_t *pp_queue_handle, uint32_t queue_sz)
1488:D:/Work/DeviceTester/amazon-freertos/lib/third_party/mcu_vendor/renesas/rz_mcu_boards/core_package/generate/os_abstraction/src\r_os_abstraction_api.c **** {
 1800              		.loc 1 1488 0
 1801              		.cfi_startproc
 1802              		@ args = 0, pretend = 0, frame = 0
 1803              		@ frame_needed = 0, uses_anonymous_args = 0
 1804              	.LVL150:
 1805 0000 10402DE9 		push	{r4, lr}
 1806              		.cfi_def_cfa_offset 8
 1807              		.cfi_offset 4, -8
 1808              		.cfi_offset 14, -4
1489:D:/Work/DeviceTester/amazon-freertos/lib/third_party/mcu_vendor/renesas/rz_mcu_boards/core_package/generate/os_abstraction/src\r_os_abstraction_api.c ****     bool_t ret_value = false;
1490:D:/Work/DeviceTester/amazon-freertos/lib/third_party/mcu_vendor/renesas/rz_mcu_boards/core_package/generate/os_abstraction/src\r_os_abstraction_api.c ****     p_os_msg_queue_handle_t *p_queue_temp;
1491:D:/Work/DeviceTester/amazon-freertos/lib/third_party/mcu_vendor/renesas/rz_mcu_boards/core_package/generate/os_abstraction/src\r_os_abstraction_api.c **** 
1492:D:/Work/DeviceTester/amazon-freertos/lib/third_party/mcu_vendor/renesas/rz_mcu_boards/core_package/generate/os_abstraction/src\r_os_abstraction_api.c ****     /* Create queue with size of os_msg_t struct which points to message */
1493:D:/Work/DeviceTester/amazon-freertos/lib/third_party/mcu_vendor/renesas/rz_mcu_boards/core_package/generate/os_abstraction/src\r_os_abstraction_api.c ****     p_queue_temp = (p_os_msg_queue_handle_t *) xQueueCreate(queue_sz, sizeof(p_os_msg_t));
 1809              		.loc 1 1493 0
 1810 0004 0020A0E3 		mov	r2, #0
1488:D:/Work/DeviceTester/amazon-freertos/lib/third_party/mcu_vendor/renesas/rz_mcu_boards/core_package/generate/os_abstraction/src\r_os_abstraction_api.c ****     bool_t ret_value = false;
 1811              		.loc 1 1488 0
 1812 0008 0040A0E1 		mov	r4, r0
 1813 000c 0100A0E1 		mov	r0, r1
 1814              	.LVL151:
 1815              		.loc 1 1493 0
 1816 0010 0410A0E3 		mov	r1, #4
 1817              	.LVL152:
 1818 0014 FEFFFFEB 		bl	xQueueGenericCreate
 1819              	.LVL153:
1494:D:/Work/DeviceTester/amazon-freertos/lib/third_party/mcu_vendor/renesas/rz_mcu_boards/core_package/generate/os_abstraction/src\r_os_abstraction_api.c **** 
1495:D:/Work/DeviceTester/amazon-freertos/lib/third_party/mcu_vendor/renesas/rz_mcu_boards/core_package/generate/os_abstraction/src\r_os_abstraction_api.c ****     /* test for valid response before confirming correct create */
1496:D:/Work/DeviceTester/amazon-freertos/lib/third_party/mcu_vendor/renesas/rz_mcu_boards/core_package/generate/os_abstraction/src\r_os_abstraction_api.c ****     if (NULL != p_queue_temp)
 1820              		.loc 1 1496 0
 1821 0018 000050E3 		cmp	r0, #0
1497:D:/Work/DeviceTester/amazon-freertos/lib/third_party/mcu_vendor/renesas/rz_mcu_boards/core_package/generate/os_abstraction/src\r_os_abstraction_api.c ****     {
1498:D:/Work/DeviceTester/amazon-freertos/lib/third_party/mcu_vendor/renesas/rz_mcu_boards/core_package/generate/os_abstraction/src\r_os_abstraction_api.c ****         *pp_queue_handle = p_queue_temp;
 1822              		.loc 1 1498 0
 1823 001c 00008415 		strne	r0, [r4]
 1824              	.LVL154:
1499:D:/Work/DeviceTester/amazon-freertos/lib/third_party/mcu_vendor/renesas/rz_mcu_boards/core_package/generate/os_abstraction/src\r_os_abstraction_api.c ****         ret_value = true;
 1825              		.loc 1 1499 0
 1826 0020 0100A013 		movne	r0, #1
 1827              	.LVL155:
1500:D:/Work/DeviceTester/amazon-freertos/lib/third_party/mcu_vendor/renesas/rz_mcu_boards/core_package/generate/os_abstraction/src\r_os_abstraction_api.c ****     }
1501:D:/Work/DeviceTester/amazon-freertos/lib/third_party/mcu_vendor/renesas/rz_mcu_boards/core_package/generate/os_abstraction/src\r_os_abstraction_api.c **** 
1502:D:/Work/DeviceTester/amazon-freertos/lib/third_party/mcu_vendor/renesas/rz_mcu_boards/core_package/generate/os_abstraction/src\r_os_abstraction_api.c ****     return (ret_value);
1503:D:/Work/DeviceTester/amazon-freertos/lib/third_party/mcu_vendor/renesas/rz_mcu_boards/core_package/generate/os_abstraction/src\r_os_abstraction_api.c **** }
 1828              		.loc 1 1503 0
 1829 0024 1080BDE8 		pop	{r4, pc}
 1830              		.cfi_endproc
 1831              	.LFE46:
 1833              		.section	.text.R_OS_MessageQueuePut,"ax",%progbits
 1834              		.align	2
 1835              		.global	R_OS_MessageQueuePut
 1836              		.syntax unified
 1837              		.arm
 1838              		.fpu neon
 1840              	R_OS_MessageQueuePut:
 1841              	.LFB47:
1504:D:/Work/DeviceTester/amazon-freertos/lib/third_party/mcu_vendor/renesas/rz_mcu_boards/core_package/generate/os_abstraction/src\r_os_abstraction_api.c **** /**************************************************************************************************
1505:D:/Work/DeviceTester/amazon-freertos/lib/third_party/mcu_vendor/renesas/rz_mcu_boards/core_package/generate/os_abstraction/src\r_os_abstraction_api.c ****  End of function R_OS_MessageQueueCreate
1506:D:/Work/DeviceTester/amazon-freertos/lib/third_party/mcu_vendor/renesas/rz_mcu_boards/core_package/generate/os_abstraction/src\r_os_abstraction_api.c ****  **************************************************************************************************
1507:D:/Work/DeviceTester/amazon-freertos/lib/third_party/mcu_vendor/renesas/rz_mcu_boards/core_package/generate/os_abstraction/src\r_os_abstraction_api.c **** 
1508:D:/Work/DeviceTester/amazon-freertos/lib/third_party/mcu_vendor/renesas/rz_mcu_boards/core_package/generate/os_abstraction/src\r_os_abstraction_api.c **** /**************************************************************************************************
1509:D:/Work/DeviceTester/amazon-freertos/lib/third_party/mcu_vendor/renesas/rz_mcu_boards/core_package/generate/os_abstraction/src\r_os_abstraction_api.c ****  * Function Name: R_OS_MessageQueuePut
1510:D:/Work/DeviceTester/amazon-freertos/lib/third_party/mcu_vendor/renesas/rz_mcu_boards/core_package/generate/os_abstraction/src\r_os_abstraction_api.c ****  * Description  : Put a message onto a queue.
1511:D:/Work/DeviceTester/amazon-freertos/lib/third_party/mcu_vendor/renesas/rz_mcu_boards/core_package/generate/os_abstraction/src\r_os_abstraction_api.c ****  * Arguments    : p_queue_handle - pointer to queue handle.
1512:D:/Work/DeviceTester/amazon-freertos/lib/third_party/mcu_vendor/renesas/rz_mcu_boards/core_package/generate/os_abstraction/src\r_os_abstraction_api.c ****  *                p_message - pointer to message.
1513:D:/Work/DeviceTester/amazon-freertos/lib/third_party/mcu_vendor/renesas/rz_mcu_boards/core_package/generate/os_abstraction/src\r_os_abstraction_api.c ****  * Return Value : The function returns TRUE if the event object was successfully added to the queue
1514:D:/Work/DeviceTester/amazon-freertos/lib/third_party/mcu_vendor/renesas/rz_mcu_boards/core_package/generate/os_abstraction/src\r_os_abstraction_api.c ****  *                FALSE is returned
1515:D:/Work/DeviceTester/amazon-freertos/lib/third_party/mcu_vendor/renesas/rz_mcu_boards/core_package/generate/os_abstraction/src\r_os_abstraction_api.c ****  **************************************************************************************************
1516:D:/Work/DeviceTester/amazon-freertos/lib/third_party/mcu_vendor/renesas/rz_mcu_boards/core_package/generate/os_abstraction/src\r_os_abstraction_api.c **** bool_t R_OS_MessageQueuePut (p_os_msg_queue_handle_t p_queue_handle, p_os_msg_t p_message)
1517:D:/Work/DeviceTester/amazon-freertos/lib/third_party/mcu_vendor/renesas/rz_mcu_boards/core_package/generate/os_abstraction/src\r_os_abstraction_api.c **** {
 1842              		.loc 1 1517 0
 1843              		.cfi_startproc
 1844              		@ args = 0, pretend = 0, frame = 8
 1845              		@ frame_needed = 0, uses_anonymous_args = 0
 1846              	.LVL156:
1518:D:/Work/DeviceTester/amazon-freertos/lib/third_party/mcu_vendor/renesas/rz_mcu_boards/core_package/generate/os_abstraction/src\r_os_abstraction_api.c ****     int32_t freertos_ret_value;
1519:D:/Work/DeviceTester/amazon-freertos/lib/third_party/mcu_vendor/renesas/rz_mcu_boards/core_package/generate/os_abstraction/src\r_os_abstraction_api.c ****     bool_t ret_value = false;
1520:D:/Work/DeviceTester/amazon-freertos/lib/third_party/mcu_vendor/renesas/rz_mcu_boards/core_package/generate/os_abstraction/src\r_os_abstraction_api.c **** 
1521:D:/Work/DeviceTester/amazon-freertos/lib/third_party/mcu_vendor/renesas/rz_mcu_boards/core_package/generate/os_abstraction/src\r_os_abstraction_api.c ****     /* return failed if queue handle pointer is NULL */
1522:D:/Work/DeviceTester/amazon-freertos/lib/third_party/mcu_vendor/renesas/rz_mcu_boards/core_package/generate/os_abstraction/src\r_os_abstraction_api.c ****     if (NULL != p_queue_handle)
 1847              		.loc 1 1522 0
 1848 0000 003050E2 		subs	r3, r0, #0
1517:D:/Work/DeviceTester/amazon-freertos/lib/third_party/mcu_vendor/renesas/rz_mcu_boards/core_package/generate/os_abstraction/src\r_os_abstraction_api.c ****     int32_t freertos_ret_value;
 1849              		.loc 1 1517 0
 1850 0004 07402DE9 		push	{r0, r1, r2, lr}
 1851              		.cfi_def_cfa_offset 16
 1852              		.cfi_offset 14, -4
1519:D:/Work/DeviceTester/amazon-freertos/lib/third_party/mcu_vendor/renesas/rz_mcu_boards/core_package/generate/os_abstraction/src\r_os_abstraction_api.c **** 
 1853              		.loc 1 1519 0
 1854 0008 0300A001 		moveq	r0, r3
 1855              	.LVL157:
1517:D:/Work/DeviceTester/amazon-freertos/lib/third_party/mcu_vendor/renesas/rz_mcu_boards/core_package/generate/os_abstraction/src\r_os_abstraction_api.c ****     int32_t freertos_ret_value;
 1856              		.loc 1 1517 0
 1857 000c 04108DE5 		str	r1, [sp, #4]
 1858              		.loc 1 1522 0
 1859 0010 0A00000A 		beq	.L186
1523:D:/Work/DeviceTester/amazon-freertos/lib/third_party/mcu_vendor/renesas/rz_mcu_boards/core_package/generate/os_abstraction/src\r_os_abstraction_api.c ****     {
1524:D:/Work/DeviceTester/amazon-freertos/lib/third_party/mcu_vendor/renesas/rz_mcu_boards/core_package/generate/os_abstraction/src\r_os_abstraction_api.c ****         /* Check if we are in an ISR */
1525:D:/Work/DeviceTester/amazon-freertos/lib/third_party/mcu_vendor/renesas/rz_mcu_boards/core_package/generate/os_abstraction/src\r_os_abstraction_api.c ****         if (ulPortInterruptNesting)
 1860              		.loc 1 1525 0
 1861 0014 3C309FE5 		ldr	r3, .L192
 1862              	.LVL158:
 1863 0018 003093E5 		ldr	r3, [r3]
 1864 001c 000053E3 		cmp	r3, #0
 1865 0020 0800000A 		beq	.L188
1526:D:/Work/DeviceTester/amazon-freertos/lib/third_party/mcu_vendor/renesas/rz_mcu_boards/core_package/generate/os_abstraction/src\r_os_abstraction_api.c ****         {
1527:D:/Work/DeviceTester/amazon-freertos/lib/third_party/mcu_vendor/renesas/rz_mcu_boards/core_package/generate/os_abstraction/src\r_os_abstraction_api.c ****             /* casts to xQueueHandle and void **/
1528:D:/Work/DeviceTester/amazon-freertos/lib/third_party/mcu_vendor/renesas/rz_mcu_boards/core_package/generate/os_abstraction/src\r_os_abstraction_api.c ****             freertos_ret_value = xQueueSendFromISR((xQueueHandle)p_queue_handle, (void * ) &p_messa
 1866              		.loc 1 1528 0
 1867 0024 0030A0E3 		mov	r3, #0
 1868 0028 04108DE2 		add	r1, sp, #4
 1869              	.LVL159:
 1870 002c 0320A0E1 		mov	r2, r3
 1871 0030 FEFFFFEB 		bl	xQueueGenericSendFromISR
 1872              	.LVL160:
 1873              	.L189:
1529:D:/Work/DeviceTester/amazon-freertos/lib/third_party/mcu_vendor/renesas/rz_mcu_boards/core_package/generate/os_abstraction/src\r_os_abstraction_api.c ****         }
1530:D:/Work/DeviceTester/amazon-freertos/lib/third_party/mcu_vendor/renesas/rz_mcu_boards/core_package/generate/os_abstraction/src\r_os_abstraction_api.c ****         else
1531:D:/Work/DeviceTester/amazon-freertos/lib/third_party/mcu_vendor/renesas/rz_mcu_boards/core_package/generate/os_abstraction/src\r_os_abstraction_api.c ****         {
1532:D:/Work/DeviceTester/amazon-freertos/lib/third_party/mcu_vendor/renesas/rz_mcu_boards/core_package/generate/os_abstraction/src\r_os_abstraction_api.c ****             /* casts to xQueueHandle and void * */
1533:D:/Work/DeviceTester/amazon-freertos/lib/third_party/mcu_vendor/renesas/rz_mcu_boards/core_package/generate/os_abstraction/src\r_os_abstraction_api.c ****             freertos_ret_value = xQueueSend((xQueueHandle)p_queue_handle, (void * ) &p_message, 0UL
1534:D:/Work/DeviceTester/amazon-freertos/lib/third_party/mcu_vendor/renesas/rz_mcu_boards/core_package/generate/os_abstraction/src\r_os_abstraction_api.c ****         }
1535:D:/Work/DeviceTester/amazon-freertos/lib/third_party/mcu_vendor/renesas/rz_mcu_boards/core_package/generate/os_abstraction/src\r_os_abstraction_api.c **** 
1536:D:/Work/DeviceTester/amazon-freertos/lib/third_party/mcu_vendor/renesas/rz_mcu_boards/core_package/generate/os_abstraction/src\r_os_abstraction_api.c ****         /* check for failure of operation */
1537:D:/Work/DeviceTester/amazon-freertos/lib/third_party/mcu_vendor/renesas/rz_mcu_boards/core_package/generate/os_abstraction/src\r_os_abstraction_api.c ****         if (pdPASS != freertos_ret_value)
 1874              		.loc 1 1537 0
 1875 0034 010040E2 		sub	r0, r0, #1
 1876              	.LVL161:
 1877 0038 100F6FE1 		clz	r0, r0
 1878              	.LVL162:
 1879 003c A002A0E1 		lsr	r0, r0, #5
 1880              	.L186:
1538:D:/Work/DeviceTester/amazon-freertos/lib/third_party/mcu_vendor/renesas/rz_mcu_boards/core_package/generate/os_abstraction/src\r_os_abstraction_api.c ****         {
1539:D:/Work/DeviceTester/amazon-freertos/lib/third_party/mcu_vendor/renesas/rz_mcu_boards/core_package/generate/os_abstraction/src\r_os_abstraction_api.c ****             ret_value = false;
1540:D:/Work/DeviceTester/amazon-freertos/lib/third_party/mcu_vendor/renesas/rz_mcu_boards/core_package/generate/os_abstraction/src\r_os_abstraction_api.c ****         }
1541:D:/Work/DeviceTester/amazon-freertos/lib/third_party/mcu_vendor/renesas/rz_mcu_boards/core_package/generate/os_abstraction/src\r_os_abstraction_api.c ****         else
1542:D:/Work/DeviceTester/amazon-freertos/lib/third_party/mcu_vendor/renesas/rz_mcu_boards/core_package/generate/os_abstraction/src\r_os_abstraction_api.c ****         {
1543:D:/Work/DeviceTester/amazon-freertos/lib/third_party/mcu_vendor/renesas/rz_mcu_boards/core_package/generate/os_abstraction/src\r_os_abstraction_api.c ****             ret_value = true;
1544:D:/Work/DeviceTester/amazon-freertos/lib/third_party/mcu_vendor/renesas/rz_mcu_boards/core_package/generate/os_abstraction/src\r_os_abstraction_api.c ****         }
1545:D:/Work/DeviceTester/amazon-freertos/lib/third_party/mcu_vendor/renesas/rz_mcu_boards/core_package/generate/os_abstraction/src\r_os_abstraction_api.c ****     }
1546:D:/Work/DeviceTester/amazon-freertos/lib/third_party/mcu_vendor/renesas/rz_mcu_boards/core_package/generate/os_abstraction/src\r_os_abstraction_api.c **** 
1547:D:/Work/DeviceTester/amazon-freertos/lib/third_party/mcu_vendor/renesas/rz_mcu_boards/core_package/generate/os_abstraction/src\r_os_abstraction_api.c ****     /* return status */
1548:D:/Work/DeviceTester/amazon-freertos/lib/third_party/mcu_vendor/renesas/rz_mcu_boards/core_package/generate/os_abstraction/src\r_os_abstraction_api.c ****     return (ret_value);
1549:D:/Work/DeviceTester/amazon-freertos/lib/third_party/mcu_vendor/renesas/rz_mcu_boards/core_package/generate/os_abstraction/src\r_os_abstraction_api.c **** }
 1881              		.loc 1 1549 0
 1882 0040 0CD08DE2 		add	sp, sp, #12
 1883              		.cfi_remember_state
 1884              		.cfi_def_cfa_offset 4
 1885              		@ sp needed
 1886 0044 04F09DE4 		ldr	pc, [sp], #4
 1887              	.LVL163:
 1888              	.L188:
 1889              		.cfi_restore_state
1533:D:/Work/DeviceTester/amazon-freertos/lib/third_party/mcu_vendor/renesas/rz_mcu_boards/core_package/generate/os_abstraction/src\r_os_abstraction_api.c ****         }
 1890              		.loc 1 1533 0
 1891 0048 0320A0E1 		mov	r2, r3
 1892 004c 04108DE2 		add	r1, sp, #4
 1893              	.LVL164:
 1894 0050 FEFFFFEB 		bl	xQueueGenericSend
 1895              	.LVL165:
 1896 0054 F6FFFFEA 		b	.L189
 1897              	.L193:
 1898              		.align	2
 1899              	.L192:
 1900 0058 00000000 		.word	ulPortInterruptNesting
 1901              		.cfi_endproc
 1902              	.LFE47:
 1904              		.section	.text.R_OS_MessageQueueGet,"ax",%progbits
 1905              		.align	2
 1906              		.global	R_OS_MessageQueueGet
 1907              		.syntax unified
 1908              		.arm
 1909              		.fpu neon
 1911              	R_OS_MessageQueueGet:
 1912              	.LFB48:
1550:D:/Work/DeviceTester/amazon-freertos/lib/third_party/mcu_vendor/renesas/rz_mcu_boards/core_package/generate/os_abstraction/src\r_os_abstraction_api.c **** /**************************************************************************************************
1551:D:/Work/DeviceTester/amazon-freertos/lib/third_party/mcu_vendor/renesas/rz_mcu_boards/core_package/generate/os_abstraction/src\r_os_abstraction_api.c ****  End of function R_OS_MessageQueuePut
1552:D:/Work/DeviceTester/amazon-freertos/lib/third_party/mcu_vendor/renesas/rz_mcu_boards/core_package/generate/os_abstraction/src\r_os_abstraction_api.c ****  **************************************************************************************************
1553:D:/Work/DeviceTester/amazon-freertos/lib/third_party/mcu_vendor/renesas/rz_mcu_boards/core_package/generate/os_abstraction/src\r_os_abstraction_api.c **** 
1554:D:/Work/DeviceTester/amazon-freertos/lib/third_party/mcu_vendor/renesas/rz_mcu_boards/core_package/generate/os_abstraction/src\r_os_abstraction_api.c **** /**************************************************************************************************
1555:D:/Work/DeviceTester/amazon-freertos/lib/third_party/mcu_vendor/renesas/rz_mcu_boards/core_package/generate/os_abstraction/src\r_os_abstraction_api.c ****  * Function Name: R_OS_MessageQueueGet
1556:D:/Work/DeviceTester/amazon-freertos/lib/third_party/mcu_vendor/renesas/rz_mcu_boards/core_package/generate/os_abstraction/src\r_os_abstraction_api.c ****  * Description  : Get a message from a queue.
1557:D:/Work/DeviceTester/amazon-freertos/lib/third_party/mcu_vendor/renesas/rz_mcu_boards/core_package/generate/os_abstraction/src\r_os_abstraction_api.c ****  * Arguments    : p_queue_handle - pointer to queue handle
1558:D:/Work/DeviceTester/amazon-freertos/lib/third_party/mcu_vendor/renesas/rz_mcu_boards/core_package/generate/os_abstraction/src\r_os_abstraction_api.c ****  *                pp_msg pointer - Pointer will point to NULL if no message and times out.
1559:D:/Work/DeviceTester/amazon-freertos/lib/third_party/mcu_vendor/renesas/rz_mcu_boards/core_package/generate/os_abstraction/src\r_os_abstraction_api.c ****  *                timeout - in system ticks.
1560:D:/Work/DeviceTester/amazon-freertos/lib/third_party/mcu_vendor/renesas/rz_mcu_boards/core_package/generate/os_abstraction/src\r_os_abstraction_api.c ****  *                blocking true = block thread/task until message received.False = not blocking
1561:D:/Work/DeviceTester/amazon-freertos/lib/third_party/mcu_vendor/renesas/rz_mcu_boards/core_package/generate/os_abstraction/src\r_os_abstraction_api.c ****  * Return Value : The function returns TRUE if the event object was successfully retrieved from the
1562:D:/Work/DeviceTester/amazon-freertos/lib/third_party/mcu_vendor/renesas/rz_mcu_boards/core_package/generate/os_abstraction/src\r_os_abstraction_api.c ****  *                Otherwise, FALSE is returned
1563:D:/Work/DeviceTester/amazon-freertos/lib/third_party/mcu_vendor/renesas/rz_mcu_boards/core_package/generate/os_abstraction/src\r_os_abstraction_api.c ****  **************************************************************************************************
1564:D:/Work/DeviceTester/amazon-freertos/lib/third_party/mcu_vendor/renesas/rz_mcu_boards/core_package/generate/os_abstraction/src\r_os_abstraction_api.c **** bool_t R_OS_MessageQueueGet (p_os_msg_queue_handle_t p_queue, p_os_msg_t *pp_msg, uint32_t timeout,
1565:D:/Work/DeviceTester/amazon-freertos/lib/third_party/mcu_vendor/renesas/rz_mcu_boards/core_package/generate/os_abstraction/src\r_os_abstraction_api.c **** {
 1913              		.loc 1 1565 0
 1914              		.cfi_startproc
 1915              		@ args = 0, pretend = 0, frame = 0
 1916              		@ frame_needed = 0, uses_anonymous_args = 0
 1917              	.LVL166:
1566:D:/Work/DeviceTester/amazon-freertos/lib/third_party/mcu_vendor/renesas/rz_mcu_boards/core_package/generate/os_abstraction/src\r_os_abstraction_api.c ****     /* set default timeout to be OS max */
1567:D:/Work/DeviceTester/amazon-freertos/lib/third_party/mcu_vendor/renesas/rz_mcu_boards/core_package/generate/os_abstraction/src\r_os_abstraction_api.c ****     uint32_t ticks_to_wait = portMAX_DELAY;
1568:D:/Work/DeviceTester/amazon-freertos/lib/third_party/mcu_vendor/renesas/rz_mcu_boards/core_package/generate/os_abstraction/src\r_os_abstraction_api.c ****     bool_t ret_value = false;
1569:D:/Work/DeviceTester/amazon-freertos/lib/third_party/mcu_vendor/renesas/rz_mcu_boards/core_package/generate/os_abstraction/src\r_os_abstraction_api.c **** 
1570:D:/Work/DeviceTester/amazon-freertos/lib/third_party/mcu_vendor/renesas/rz_mcu_boards/core_package/generate/os_abstraction/src\r_os_abstraction_api.c ****     /* ensure that pointers are not NULL before proceeding */
1571:D:/Work/DeviceTester/amazon-freertos/lib/third_party/mcu_vendor/renesas/rz_mcu_boards/core_package/generate/os_abstraction/src\r_os_abstraction_api.c ****     if ((NULL != p_queue) && (NULL != pp_msg))
 1918              		.loc 1 1571 0
 1919 0000 000050E3 		cmp	r0, #0
 1920 0004 00005113 		cmpne	r1, #0
1565:D:/Work/DeviceTester/amazon-freertos/lib/third_party/mcu_vendor/renesas/rz_mcu_boards/core_package/generate/os_abstraction/src\r_os_abstraction_api.c ****     /* set default timeout to be OS max */
 1921              		.loc 1 1565 0
 1922 0008 F0412DE9 		push	{r4, r5, r6, r7, r8, lr}
 1923              		.cfi_def_cfa_offset 24
 1924              		.cfi_offset 4, -24
 1925              		.cfi_offset 5, -20
 1926              		.cfi_offset 6, -16
 1927              		.cfi_offset 7, -12
 1928              		.cfi_offset 8, -8
 1929              		.cfi_offset 14, -4
1565:D:/Work/DeviceTester/amazon-freertos/lib/third_party/mcu_vendor/renesas/rz_mcu_boards/core_package/generate/os_abstraction/src\r_os_abstraction_api.c ****     /* set default timeout to be OS max */
 1930              		.loc 1 1565 0
 1931 000c 0340A0E1 		mov	r4, r3
 1932              		.loc 1 1571 0
 1933 0010 0030A003 		moveq	r3, #0
 1934              	.LVL167:
 1935 0014 0130A013 		movne	r3, #1
1568:D:/Work/DeviceTester/amazon-freertos/lib/third_party/mcu_vendor/renesas/rz_mcu_boards/core_package/generate/os_abstraction/src\r_os_abstraction_api.c **** 
 1936              		.loc 1 1568 0
 1937 0018 0340A001 		moveq	r4, r3
 1938              	.LVL168:
 1939              		.loc 1 1571 0
 1940 001c 0900000A 		beq	.L195
1572:D:/Work/DeviceTester/amazon-freertos/lib/third_party/mcu_vendor/renesas/rz_mcu_boards/core_package/generate/os_abstraction/src\r_os_abstraction_api.c ****     {
1573:D:/Work/DeviceTester/amazon-freertos/lib/third_party/mcu_vendor/renesas/rz_mcu_boards/core_package/generate/os_abstraction/src\r_os_abstraction_api.c ****         /* handle max timeout */
1574:D:/Work/DeviceTester/amazon-freertos/lib/third_party/mcu_vendor/renesas/rz_mcu_boards/core_package/generate/os_abstraction/src\r_os_abstraction_api.c ****         if (R_OS_ABSTRACTION_EV_WAIT_INFINITE != timeout)
1575:D:/Work/DeviceTester/amazon-freertos/lib/third_party/mcu_vendor/renesas/rz_mcu_boards/core_package/generate/os_abstraction/src\r_os_abstraction_api.c ****         {
1576:D:/Work/DeviceTester/amazon-freertos/lib/third_party/mcu_vendor/renesas/rz_mcu_boards/core_package/generate/os_abstraction/src\r_os_abstraction_api.c ****             ticks_to_wait = R_OS_MS_TO_SYSTICKS(timeout);
1577:D:/Work/DeviceTester/amazon-freertos/lib/third_party/mcu_vendor/renesas/rz_mcu_boards/core_package/generate/os_abstraction/src\r_os_abstraction_api.c ****         }
1578:D:/Work/DeviceTester/amazon-freertos/lib/third_party/mcu_vendor/renesas/rz_mcu_boards/core_package/generate/os_abstraction/src\r_os_abstraction_api.c **** 
1579:D:/Work/DeviceTester/amazon-freertos/lib/third_party/mcu_vendor/renesas/rz_mcu_boards/core_package/generate/os_abstraction/src\r_os_abstraction_api.c ****         if (false == blocking)
 1941              		.loc 1 1579 0
 1942 0020 000054E3 		cmp	r4, #0
 1943 0024 0270A0E1 		mov	r7, r2
 1944 0028 0060A0E1 		mov	r6, r0
 1945 002c 0150A0E1 		mov	r5, r1
 1946              	.LVL169:
 1947 0030 0700001A 		bne	.L201
1580:D:/Work/DeviceTester/amazon-freertos/lib/third_party/mcu_vendor/renesas/rz_mcu_boards/core_package/generate/os_abstraction/src\r_os_abstraction_api.c ****         {
1581:D:/Work/DeviceTester/amazon-freertos/lib/third_party/mcu_vendor/renesas/rz_mcu_boards/core_package/generate/os_abstraction/src\r_os_abstraction_api.c ****             /* Receive check is not task-blocking */
1582:D:/Work/DeviceTester/amazon-freertos/lib/third_party/mcu_vendor/renesas/rz_mcu_boards/core_package/generate/os_abstraction/src\r_os_abstraction_api.c ****             /* Receive with time-out. Cast to xQueueHandle */
1583:D:/Work/DeviceTester/amazon-freertos/lib/third_party/mcu_vendor/renesas/rz_mcu_boards/core_package/generate/os_abstraction/src\r_os_abstraction_api.c ****             if (pdPASS == xQueueReceive((xQueueHandle) p_queue, (void *) (pp_msg), ticks_to_wait / 
 1948              		.loc 1 1583 0
 1949 0034 FEFFFFEB 		bl	xQueueReceive
 1950              	.LVL170:
 1951 0038 010050E3 		cmp	r0, #1
1584:D:/Work/DeviceTester/amazon-freertos/lib/third_party/mcu_vendor/renesas/rz_mcu_boards/core_package/generate/os_abstraction/src\r_os_abstraction_api.c ****             {
1585:D:/Work/DeviceTester/amazon-freertos/lib/third_party/mcu_vendor/renesas/rz_mcu_boards/core_package/generate/os_abstraction/src\r_os_abstraction_api.c ****                 ret_value = true;
1586:D:/Work/DeviceTester/amazon-freertos/lib/third_party/mcu_vendor/renesas/rz_mcu_boards/core_package/generate/os_abstraction/src\r_os_abstraction_api.c ****             }
1587:D:/Work/DeviceTester/amazon-freertos/lib/third_party/mcu_vendor/renesas/rz_mcu_boards/core_package/generate/os_abstraction/src\r_os_abstraction_api.c ****             else
1588:D:/Work/DeviceTester/amazon-freertos/lib/third_party/mcu_vendor/renesas/rz_mcu_boards/core_package/generate/os_abstraction/src\r_os_abstraction_api.c ****             {
1589:D:/Work/DeviceTester/amazon-freertos/lib/third_party/mcu_vendor/renesas/rz_mcu_boards/core_package/generate/os_abstraction/src\r_os_abstraction_api.c ****                 /* timed out - report failure */
1590:D:/Work/DeviceTester/amazon-freertos/lib/third_party/mcu_vendor/renesas/rz_mcu_boards/core_package/generate/os_abstraction/src\r_os_abstraction_api.c ****                 *pp_msg = NULL;
 1952              		.loc 1 1590 0
 1953 003c 00408515 		strne	r4, [r5]
1583:D:/Work/DeviceTester/amazon-freertos/lib/third_party/mcu_vendor/renesas/rz_mcu_boards/core_package/generate/os_abstraction/src\r_os_abstraction_api.c ****             {
 1954              		.loc 1 1583 0
 1955 0040 0000001A 		bne	.L195
 1956              	.L199:
1585:D:/Work/DeviceTester/amazon-freertos/lib/third_party/mcu_vendor/renesas/rz_mcu_boards/core_package/generate/os_abstraction/src\r_os_abstraction_api.c ****             }
 1957              		.loc 1 1585 0
 1958 0044 0140A0E3 		mov	r4, #1
 1959              	.LVL171:
 1960              	.L195:
1591:D:/Work/DeviceTester/amazon-freertos/lib/third_party/mcu_vendor/renesas/rz_mcu_boards/core_package/generate/os_abstraction/src\r_os_abstraction_api.c ****             }
1592:D:/Work/DeviceTester/amazon-freertos/lib/third_party/mcu_vendor/renesas/rz_mcu_boards/core_package/generate/os_abstraction/src\r_os_abstraction_api.c ****         }
1593:D:/Work/DeviceTester/amazon-freertos/lib/third_party/mcu_vendor/renesas/rz_mcu_boards/core_package/generate/os_abstraction/src\r_os_abstraction_api.c ****         else
1594:D:/Work/DeviceTester/amazon-freertos/lib/third_party/mcu_vendor/renesas/rz_mcu_boards/core_package/generate/os_abstraction/src\r_os_abstraction_api.c ****         {
1595:D:/Work/DeviceTester/amazon-freertos/lib/third_party/mcu_vendor/renesas/rz_mcu_boards/core_package/generate/os_abstraction/src\r_os_abstraction_api.c ****             /* Receive check is task-blocking */
1596:D:/Work/DeviceTester/amazon-freertos/lib/third_party/mcu_vendor/renesas/rz_mcu_boards/core_package/generate/os_abstraction/src\r_os_abstraction_api.c ****             /* Receive with time-out. Cast to xQueueHandle */
1597:D:/Work/DeviceTester/amazon-freertos/lib/third_party/mcu_vendor/renesas/rz_mcu_boards/core_package/generate/os_abstraction/src\r_os_abstraction_api.c ****             while (pdPASS !=
1598:D:/Work/DeviceTester/amazon-freertos/lib/third_party/mcu_vendor/renesas/rz_mcu_boards/core_package/generate/os_abstraction/src\r_os_abstraction_api.c ****                     xQueueReceive((xQueueHandle) p_queue, (void *) (pp_msg), ticks_to_wait / portTI
1599:D:/Work/DeviceTester/amazon-freertos/lib/third_party/mcu_vendor/renesas/rz_mcu_boards/core_package/generate/os_abstraction/src\r_os_abstraction_api.c ****             {
1600:D:/Work/DeviceTester/amazon-freertos/lib/third_party/mcu_vendor/renesas/rz_mcu_boards/core_package/generate/os_abstraction/src\r_os_abstraction_api.c ****                 taskYIELD()
1601:D:/Work/DeviceTester/amazon-freertos/lib/third_party/mcu_vendor/renesas/rz_mcu_boards/core_package/generate/os_abstraction/src\r_os_abstraction_api.c ****                 ;
1602:D:/Work/DeviceTester/amazon-freertos/lib/third_party/mcu_vendor/renesas/rz_mcu_boards/core_package/generate/os_abstraction/src\r_os_abstraction_api.c ****             }
1603:D:/Work/DeviceTester/amazon-freertos/lib/third_party/mcu_vendor/renesas/rz_mcu_boards/core_package/generate/os_abstraction/src\r_os_abstraction_api.c **** 
1604:D:/Work/DeviceTester/amazon-freertos/lib/third_party/mcu_vendor/renesas/rz_mcu_boards/core_package/generate/os_abstraction/src\r_os_abstraction_api.c ****             ret_value = true;
1605:D:/Work/DeviceTester/amazon-freertos/lib/third_party/mcu_vendor/renesas/rz_mcu_boards/core_package/generate/os_abstraction/src\r_os_abstraction_api.c ****         }
1606:D:/Work/DeviceTester/amazon-freertos/lib/third_party/mcu_vendor/renesas/rz_mcu_boards/core_package/generate/os_abstraction/src\r_os_abstraction_api.c ****     }
1607:D:/Work/DeviceTester/amazon-freertos/lib/third_party/mcu_vendor/renesas/rz_mcu_boards/core_package/generate/os_abstraction/src\r_os_abstraction_api.c **** 
1608:D:/Work/DeviceTester/amazon-freertos/lib/third_party/mcu_vendor/renesas/rz_mcu_boards/core_package/generate/os_abstraction/src\r_os_abstraction_api.c ****     /* return status */
1609:D:/Work/DeviceTester/amazon-freertos/lib/third_party/mcu_vendor/renesas/rz_mcu_boards/core_package/generate/os_abstraction/src\r_os_abstraction_api.c ****     return (ret_value);
1610:D:/Work/DeviceTester/amazon-freertos/lib/third_party/mcu_vendor/renesas/rz_mcu_boards/core_package/generate/os_abstraction/src\r_os_abstraction_api.c **** }
 1961              		.loc 1 1610 0
 1962 0048 0400A0E1 		mov	r0, r4
 1963 004c F081BDE8 		pop	{r4, r5, r6, r7, r8, pc}
 1964              	.LVL172:
 1965              	.L198:
1600:D:/Work/DeviceTester/amazon-freertos/lib/third_party/mcu_vendor/renesas/rz_mcu_boards/core_package/generate/os_abstraction/src\r_os_abstraction_api.c ****                 ;
 1966              		.loc 1 1600 0
 1967              		.syntax divided
 1968              	@ 1600 "D:/Work/DeviceTester/amazon-freertos/lib/third_party/mcu_vendor/renesas/rz_mcu_boards/core_
 1969 0050 000000EF 		SWI 0
 1970              	@ 0 "" 2
 1971              		.arm
 1972              		.syntax unified
 1973              	.L201:
1598:D:/Work/DeviceTester/amazon-freertos/lib/third_party/mcu_vendor/renesas/rz_mcu_boards/core_package/generate/os_abstraction/src\r_os_abstraction_api.c ****             {
 1974              		.loc 1 1598 0
 1975 0054 0720A0E1 		mov	r2, r7
 1976 0058 0510A0E1 		mov	r1, r5
 1977 005c 0600A0E1 		mov	r0, r6
 1978 0060 FEFFFFEB 		bl	xQueueReceive
 1979              	.LVL173:
1597:D:/Work/DeviceTester/amazon-freertos/lib/third_party/mcu_vendor/renesas/rz_mcu_boards/core_package/generate/os_abstraction/src\r_os_abstraction_api.c ****                     xQueueReceive((xQueueHandle) p_queue, (void *) (pp_msg), ticks_to_wait / portTI
 1980              		.loc 1 1597 0
 1981 0064 010050E3 		cmp	r0, #1
 1982 0068 F8FFFF1A 		bne	.L198
 1983 006c F4FFFFEA 		b	.L199
 1984              		.cfi_endproc
 1985              	.LFE48:
 1987              		.section	.text.R_OS_MessageQueueClear,"ax",%progbits
 1988              		.align	2
 1989              		.global	R_OS_MessageQueueClear
 1990              		.syntax unified
 1991              		.arm
 1992              		.fpu neon
 1994              	R_OS_MessageQueueClear:
 1995              	.LFB49:
1611:D:/Work/DeviceTester/amazon-freertos/lib/third_party/mcu_vendor/renesas/rz_mcu_boards/core_package/generate/os_abstraction/src\r_os_abstraction_api.c **** /**************************************************************************************************
1612:D:/Work/DeviceTester/amazon-freertos/lib/third_party/mcu_vendor/renesas/rz_mcu_boards/core_package/generate/os_abstraction/src\r_os_abstraction_api.c ****  End of function R_OS_MessageQueueGet
1613:D:/Work/DeviceTester/amazon-freertos/lib/third_party/mcu_vendor/renesas/rz_mcu_boards/core_package/generate/os_abstraction/src\r_os_abstraction_api.c ****  **************************************************************************************************
1614:D:/Work/DeviceTester/amazon-freertos/lib/third_party/mcu_vendor/renesas/rz_mcu_boards/core_package/generate/os_abstraction/src\r_os_abstraction_api.c **** 
1615:D:/Work/DeviceTester/amazon-freertos/lib/third_party/mcu_vendor/renesas/rz_mcu_boards/core_package/generate/os_abstraction/src\r_os_abstraction_api.c **** /**************************************************************************************************
1616:D:/Work/DeviceTester/amazon-freertos/lib/third_party/mcu_vendor/renesas/rz_mcu_boards/core_package/generate/os_abstraction/src\r_os_abstraction_api.c ****  * Function Name: R_OS_MessageQueueClear
1617:D:/Work/DeviceTester/amazon-freertos/lib/third_party/mcu_vendor/renesas/rz_mcu_boards/core_package/generate/os_abstraction/src\r_os_abstraction_api.c ****  * Description  : Clear a message queue.
1618:D:/Work/DeviceTester/amazon-freertos/lib/third_party/mcu_vendor/renesas/rz_mcu_boards/core_package/generate/os_abstraction/src\r_os_abstraction_api.c ****  * Arguments    : p_queue_handle - pointer to queue handle.
1619:D:/Work/DeviceTester/amazon-freertos/lib/third_party/mcu_vendor/renesas/rz_mcu_boards/core_package/generate/os_abstraction/src\r_os_abstraction_api.c ****  * Return Value : The function returns TRUE if the event object was successfully cleared. Otherwise
1620:D:/Work/DeviceTester/amazon-freertos/lib/third_party/mcu_vendor/renesas/rz_mcu_boards/core_package/generate/os_abstraction/src\r_os_abstraction_api.c ****  **************************************************************************************************
1621:D:/Work/DeviceTester/amazon-freertos/lib/third_party/mcu_vendor/renesas/rz_mcu_boards/core_package/generate/os_abstraction/src\r_os_abstraction_api.c **** bool_t R_OS_MessageQueueClear (p_os_msg_queue_handle_t p_queue_handle)
1622:D:/Work/DeviceTester/amazon-freertos/lib/third_party/mcu_vendor/renesas/rz_mcu_boards/core_package/generate/os_abstraction/src\r_os_abstraction_api.c **** {
 1996              		.loc 1 1622 0
 1997              		.cfi_startproc
 1998              		@ args = 0, pretend = 0, frame = 0
 1999              		@ frame_needed = 0, uses_anonymous_args = 0
 2000              	.LVL174:
1623:D:/Work/DeviceTester/amazon-freertos/lib/third_party/mcu_vendor/renesas/rz_mcu_boards/core_package/generate/os_abstraction/src\r_os_abstraction_api.c ****     /* ensure that queue handle is valid */
1624:D:/Work/DeviceTester/amazon-freertos/lib/third_party/mcu_vendor/renesas/rz_mcu_boards/core_package/generate/os_abstraction/src\r_os_abstraction_api.c ****     if (NULL != p_queue_handle)
 2001              		.loc 1 1624 0
 2002 0000 003050E2 		subs	r3, r0, #0
 2003 0004 0400000A 		beq	.L205
1622:D:/Work/DeviceTester/amazon-freertos/lib/third_party/mcu_vendor/renesas/rz_mcu_boards/core_package/generate/os_abstraction/src\r_os_abstraction_api.c ****     /* ensure that queue handle is valid */
 2004              		.loc 1 1622 0
 2005 0008 10402DE9 		push	{r4, lr}
 2006              		.cfi_def_cfa_offset 8
 2007              		.cfi_offset 4, -8
 2008              		.cfi_offset 14, -4
1625:D:/Work/DeviceTester/amazon-freertos/lib/third_party/mcu_vendor/renesas/rz_mcu_boards/core_package/generate/os_abstraction/src\r_os_abstraction_api.c ****     {
1626:D:/Work/DeviceTester/amazon-freertos/lib/third_party/mcu_vendor/renesas/rz_mcu_boards/core_package/generate/os_abstraction/src\r_os_abstraction_api.c ****         /* cast to xQueueHandle */
1627:D:/Work/DeviceTester/amazon-freertos/lib/third_party/mcu_vendor/renesas/rz_mcu_boards/core_package/generate/os_abstraction/src\r_os_abstraction_api.c ****         xQueueReset((xQueueHandle) p_queue_handle);
 2009              		.loc 1 1627 0
 2010 000c 0010A0E3 		mov	r1, #0
 2011 0010 FEFFFFEB 		bl	xQueueGenericReset
 2012              	.LVL175:
1628:D:/Work/DeviceTester/amazon-freertos/lib/third_party/mcu_vendor/renesas/rz_mcu_boards/core_package/generate/os_abstraction/src\r_os_abstraction_api.c **** 
1629:D:/Work/DeviceTester/amazon-freertos/lib/third_party/mcu_vendor/renesas/rz_mcu_boards/core_package/generate/os_abstraction/src\r_os_abstraction_api.c ****         /* freeRTOS always returns true */
1630:D:/Work/DeviceTester/amazon-freertos/lib/third_party/mcu_vendor/renesas/rz_mcu_boards/core_package/generate/os_abstraction/src\r_os_abstraction_api.c ****         return (true);
 2013              		.loc 1 1630 0
 2014 0014 0100A0E3 		mov	r0, #1
 2015 0018 1080BDE8 		pop	{r4, pc}
 2016              	.LVL176:
 2017              	.L205:
 2018              		.cfi_def_cfa_offset 0
 2019              		.cfi_restore 4
 2020              		.cfi_restore 14
1631:D:/Work/DeviceTester/amazon-freertos/lib/third_party/mcu_vendor/renesas/rz_mcu_boards/core_package/generate/os_abstraction/src\r_os_abstraction_api.c ****     }
1632:D:/Work/DeviceTester/amazon-freertos/lib/third_party/mcu_vendor/renesas/rz_mcu_boards/core_package/generate/os_abstraction/src\r_os_abstraction_api.c **** 
1633:D:/Work/DeviceTester/amazon-freertos/lib/third_party/mcu_vendor/renesas/rz_mcu_boards/core_package/generate/os_abstraction/src\r_os_abstraction_api.c ****     /* NULL queue pointer as argument */
1634:D:/Work/DeviceTester/amazon-freertos/lib/third_party/mcu_vendor/renesas/rz_mcu_boards/core_package/generate/os_abstraction/src\r_os_abstraction_api.c ****     return (false);
 2021              		.loc 1 1634 0
 2022 001c 0300A0E1 		mov	r0, r3
 2023              	.LVL177:
 2024 0020 1EFF2FE1 		bx	lr
 2025              		.cfi_endproc
 2026              	.LFE49:
 2028              		.section	.text.R_OS_MessageQueueDelete,"ax",%progbits
 2029              		.align	2
 2030              		.global	R_OS_MessageQueueDelete
 2031              		.syntax unified
 2032              		.arm
 2033              		.fpu neon
 2035              	R_OS_MessageQueueDelete:
 2036              	.LFB50:
1635:D:/Work/DeviceTester/amazon-freertos/lib/third_party/mcu_vendor/renesas/rz_mcu_boards/core_package/generate/os_abstraction/src\r_os_abstraction_api.c **** }
1636:D:/Work/DeviceTester/amazon-freertos/lib/third_party/mcu_vendor/renesas/rz_mcu_boards/core_package/generate/os_abstraction/src\r_os_abstraction_api.c **** /**************************************************************************************************
1637:D:/Work/DeviceTester/amazon-freertos/lib/third_party/mcu_vendor/renesas/rz_mcu_boards/core_package/generate/os_abstraction/src\r_os_abstraction_api.c ****  End of function R_OS_MessageQueueClear
1638:D:/Work/DeviceTester/amazon-freertos/lib/third_party/mcu_vendor/renesas/rz_mcu_boards/core_package/generate/os_abstraction/src\r_os_abstraction_api.c ****  **************************************************************************************************
1639:D:/Work/DeviceTester/amazon-freertos/lib/third_party/mcu_vendor/renesas/rz_mcu_boards/core_package/generate/os_abstraction/src\r_os_abstraction_api.c **** 
1640:D:/Work/DeviceTester/amazon-freertos/lib/third_party/mcu_vendor/renesas/rz_mcu_boards/core_package/generate/os_abstraction/src\r_os_abstraction_api.c **** /**************************************************************************************************
1641:D:/Work/DeviceTester/amazon-freertos/lib/third_party/mcu_vendor/renesas/rz_mcu_boards/core_package/generate/os_abstraction/src\r_os_abstraction_api.c ****  * Function Name: R_OS_MessageQueueDelete
1642:D:/Work/DeviceTester/amazon-freertos/lib/third_party/mcu_vendor/renesas/rz_mcu_boards/core_package/generate/os_abstraction/src\r_os_abstraction_api.c ****  * Description  : Delete a message queue. The message queue pointer argument will be set to NULL.
1643:D:/Work/DeviceTester/amazon-freertos/lib/third_party/mcu_vendor/renesas/rz_mcu_boards/core_package/generate/os_abstraction/src\r_os_abstraction_api.c ****  * Arguments    : pp_queue_handle - pointer to queue handle pointer.
1644:D:/Work/DeviceTester/amazon-freertos/lib/third_party/mcu_vendor/renesas/rz_mcu_boards/core_package/generate/os_abstraction/src\r_os_abstraction_api.c ****  * Return Value : The function returns TRUE if the event object was successfully deleted. Otherwise
1645:D:/Work/DeviceTester/amazon-freertos/lib/third_party/mcu_vendor/renesas/rz_mcu_boards/core_package/generate/os_abstraction/src\r_os_abstraction_api.c ****  **************************************************************************************************
1646:D:/Work/DeviceTester/amazon-freertos/lib/third_party/mcu_vendor/renesas/rz_mcu_boards/core_package/generate/os_abstraction/src\r_os_abstraction_api.c **** bool_t R_OS_MessageQueueDelete (p_os_msg_queue_handle_t *pp_queue_handle)
1647:D:/Work/DeviceTester/amazon-freertos/lib/third_party/mcu_vendor/renesas/rz_mcu_boards/core_package/generate/os_abstraction/src\r_os_abstraction_api.c **** {
 2037              		.loc 1 1647 0
 2038              		.cfi_startproc
 2039              		@ args = 0, pretend = 0, frame = 0
 2040              		@ frame_needed = 0, uses_anonymous_args = 0
 2041              	.LVL178:
1648:D:/Work/DeviceTester/amazon-freertos/lib/third_party/mcu_vendor/renesas/rz_mcu_boards/core_package/generate/os_abstraction/src\r_os_abstraction_api.c ****     /* ensure that queue handle is valid */
1649:D:/Work/DeviceTester/amazon-freertos/lib/third_party/mcu_vendor/renesas/rz_mcu_boards/core_package/generate/os_abstraction/src\r_os_abstraction_api.c ****     if (NULL != pp_queue_handle)
 2042              		.loc 1 1649 0
 2043 0000 000050E3 		cmp	r0, #0
 2044 0004 1EFF2F01 		bxeq	lr
1647:D:/Work/DeviceTester/amazon-freertos/lib/third_party/mcu_vendor/renesas/rz_mcu_boards/core_package/generate/os_abstraction/src\r_os_abstraction_api.c ****     /* ensure that queue handle is valid */
 2045              		.loc 1 1647 0
 2046 0008 10402DE9 		push	{r4, lr}
 2047              		.cfi_def_cfa_offset 8
 2048              		.cfi_offset 4, -8
 2049              		.cfi_offset 14, -4
 2050 000c 0040A0E1 		mov	r4, r0
1650:D:/Work/DeviceTester/amazon-freertos/lib/third_party/mcu_vendor/renesas/rz_mcu_boards/core_package/generate/os_abstraction/src\r_os_abstraction_api.c ****     {
1651:D:/Work/DeviceTester/amazon-freertos/lib/third_party/mcu_vendor/renesas/rz_mcu_boards/core_package/generate/os_abstraction/src\r_os_abstraction_api.c ****         /* delete queue structure */
1652:D:/Work/DeviceTester/amazon-freertos/lib/third_party/mcu_vendor/renesas/rz_mcu_boards/core_package/generate/os_abstraction/src\r_os_abstraction_api.c ****         vQueueDelete((xQueueHandle) *pp_queue_handle);
 2051              		.loc 1 1652 0
 2052 0010 000090E5 		ldr	r0, [r0]
 2053              	.LVL179:
 2054 0014 FEFFFFEB 		bl	vQueueDelete
 2055              	.LVL180:
1653:D:/Work/DeviceTester/amazon-freertos/lib/third_party/mcu_vendor/renesas/rz_mcu_boards/core_package/generate/os_abstraction/src\r_os_abstraction_api.c **** 
1654:D:/Work/DeviceTester/amazon-freertos/lib/third_party/mcu_vendor/renesas/rz_mcu_boards/core_package/generate/os_abstraction/src\r_os_abstraction_api.c ****         /* set queue pointer to NULL */
1655:D:/Work/DeviceTester/amazon-freertos/lib/third_party/mcu_vendor/renesas/rz_mcu_boards/core_package/generate/os_abstraction/src\r_os_abstraction_api.c ****         *pp_queue_handle = NULL;
 2056              		.loc 1 1655 0
 2057 0018 0030A0E3 		mov	r3, #0
1656:D:/Work/DeviceTester/amazon-freertos/lib/third_party/mcu_vendor/renesas/rz_mcu_boards/core_package/generate/os_abstraction/src\r_os_abstraction_api.c **** 
1657:D:/Work/DeviceTester/amazon-freertos/lib/third_party/mcu_vendor/renesas/rz_mcu_boards/core_package/generate/os_abstraction/src\r_os_abstraction_api.c ****         /* freeRTOS always returns true */
1658:D:/Work/DeviceTester/amazon-freertos/lib/third_party/mcu_vendor/renesas/rz_mcu_boards/core_package/generate/os_abstraction/src\r_os_abstraction_api.c ****         return (true);
 2058              		.loc 1 1658 0
 2059 001c 0100A0E3 		mov	r0, #1
1655:D:/Work/DeviceTester/amazon-freertos/lib/third_party/mcu_vendor/renesas/rz_mcu_boards/core_package/generate/os_abstraction/src\r_os_abstraction_api.c **** 
 2060              		.loc 1 1655 0
 2061 0020 003084E5 		str	r3, [r4]
1659:D:/Work/DeviceTester/amazon-freertos/lib/third_party/mcu_vendor/renesas/rz_mcu_boards/core_package/generate/os_abstraction/src\r_os_abstraction_api.c ****     }
1660:D:/Work/DeviceTester/amazon-freertos/lib/third_party/mcu_vendor/renesas/rz_mcu_boards/core_package/generate/os_abstraction/src\r_os_abstraction_api.c **** 
1661:D:/Work/DeviceTester/amazon-freertos/lib/third_party/mcu_vendor/renesas/rz_mcu_boards/core_package/generate/os_abstraction/src\r_os_abstraction_api.c ****     /* queue pointer is NULL to start with so nothing deleted */
1662:D:/Work/DeviceTester/amazon-freertos/lib/third_party/mcu_vendor/renesas/rz_mcu_boards/core_package/generate/os_abstraction/src\r_os_abstraction_api.c ****     return (false);
1663:D:/Work/DeviceTester/amazon-freertos/lib/third_party/mcu_vendor/renesas/rz_mcu_boards/core_package/generate/os_abstraction/src\r_os_abstraction_api.c **** }
 2062              		.loc 1 1663 0
 2063 0024 1080BDE8 		pop	{r4, pc}
 2064              		.cfi_endproc
 2065              	.LFE50:
 2067              		.section	.text.R_OS_EventCreate,"ax",%progbits
 2068              		.align	2
 2069              		.global	R_OS_EventCreate
 2070              		.syntax unified
 2071              		.arm
 2072              		.fpu neon
 2074              	R_OS_EventCreate:
 2075              	.LFB51:
1664:D:/Work/DeviceTester/amazon-freertos/lib/third_party/mcu_vendor/renesas/rz_mcu_boards/core_package/generate/os_abstraction/src\r_os_abstraction_api.c **** /**************************************************************************************************
1665:D:/Work/DeviceTester/amazon-freertos/lib/third_party/mcu_vendor/renesas/rz_mcu_boards/core_package/generate/os_abstraction/src\r_os_abstraction_api.c ****  End of function R_OS_MessageQueueDelete
1666:D:/Work/DeviceTester/amazon-freertos/lib/third_party/mcu_vendor/renesas/rz_mcu_boards/core_package/generate/os_abstraction/src\r_os_abstraction_api.c ****  **************************************************************************************************
1667:D:/Work/DeviceTester/amazon-freertos/lib/third_party/mcu_vendor/renesas/rz_mcu_boards/core_package/generate/os_abstraction/src\r_os_abstraction_api.c **** 
1668:D:/Work/DeviceTester/amazon-freertos/lib/third_party/mcu_vendor/renesas/rz_mcu_boards/core_package/generate/os_abstraction/src\r_os_abstraction_api.c **** /**************************************************************************************************
1669:D:/Work/DeviceTester/amazon-freertos/lib/third_party/mcu_vendor/renesas/rz_mcu_boards/core_package/generate/os_abstraction/src\r_os_abstraction_api.c ****  *                                      Event API
1670:D:/Work/DeviceTester/amazon-freertos/lib/third_party/mcu_vendor/renesas/rz_mcu_boards/core_package/generate/os_abstraction/src\r_os_abstraction_api.c ****  **************************************************************************************************
1671:D:/Work/DeviceTester/amazon-freertos/lib/third_party/mcu_vendor/renesas/rz_mcu_boards/core_package/generate/os_abstraction/src\r_os_abstraction_api.c **** /**************************************************************************************************
1672:D:/Work/DeviceTester/amazon-freertos/lib/third_party/mcu_vendor/renesas/rz_mcu_boards/core_package/generate/os_abstraction/src\r_os_abstraction_api.c ****  * Function Name: R_OS_EventCreate
1673:D:/Work/DeviceTester/amazon-freertos/lib/third_party/mcu_vendor/renesas/rz_mcu_boards/core_package/generate/os_abstraction/src\r_os_abstraction_api.c ****  * Description  : Create an event
1674:D:/Work/DeviceTester/amazon-freertos/lib/third_party/mcu_vendor/renesas/rz_mcu_boards/core_package/generate/os_abstraction/src\r_os_abstraction_api.c ****  * Arguments    : pp_event - pointer to a associated event
1675:D:/Work/DeviceTester/amazon-freertos/lib/third_party/mcu_vendor/renesas/rz_mcu_boards/core_package/generate/os_abstraction/src\r_os_abstraction_api.c ****  * Return Value : The function returns TRUE if the event object was successfully created. Otherwise
1676:D:/Work/DeviceTester/amazon-freertos/lib/third_party/mcu_vendor/renesas/rz_mcu_boards/core_package/generate/os_abstraction/src\r_os_abstraction_api.c ****  **************************************************************************************************
1677:D:/Work/DeviceTester/amazon-freertos/lib/third_party/mcu_vendor/renesas/rz_mcu_boards/core_package/generate/os_abstraction/src\r_os_abstraction_api.c **** bool_t R_OS_EventCreate (pp_event_t pp_event)
1678:D:/Work/DeviceTester/amazon-freertos/lib/third_party/mcu_vendor/renesas/rz_mcu_boards/core_package/generate/os_abstraction/src\r_os_abstraction_api.c **** {
 2076              		.loc 1 1678 0
 2077              		.cfi_startproc
 2078              		@ args = 0, pretend = 0, frame = 0
 2079              		@ frame_needed = 0, uses_anonymous_args = 0
 2080              	.LVL181:
1679:D:/Work/DeviceTester/amazon-freertos/lib/third_party/mcu_vendor/renesas/rz_mcu_boards/core_package/generate/os_abstraction/src\r_os_abstraction_api.c ****     /* Allocate a queue */
1680:D:/Work/DeviceTester/amazon-freertos/lib/third_party/mcu_vendor/renesas/rz_mcu_boards/core_package/generate/os_abstraction/src\r_os_abstraction_api.c ****     QueueHandle_t p_temp_event = xQueueCreate(1U, sizeof(e_event_state_t));
 2081              		.loc 1 1680 0
 2082 0000 0110A0E3 		mov	r1, #1
1678:D:/Work/DeviceTester/amazon-freertos/lib/third_party/mcu_vendor/renesas/rz_mcu_boards/core_package/generate/os_abstraction/src\r_os_abstraction_api.c ****     /* Allocate a queue */
 2083              		.loc 1 1678 0
 2084 0004 70402DE9 		push	{r4, r5, r6, lr}
 2085              		.cfi_def_cfa_offset 16
 2086              		.cfi_offset 4, -16
 2087              		.cfi_offset 5, -12
 2088              		.cfi_offset 6, -8
 2089              		.cfi_offset 14, -4
 2090              		.loc 1 1680 0
 2091 0008 0020A0E3 		mov	r2, #0
1678:D:/Work/DeviceTester/amazon-freertos/lib/third_party/mcu_vendor/renesas/rz_mcu_boards/core_package/generate/os_abstraction/src\r_os_abstraction_api.c ****     /* Allocate a queue */
 2092              		.loc 1 1678 0
 2093 000c 0050A0E1 		mov	r5, r0
 2094              		.loc 1 1680 0
 2095 0010 0100A0E1 		mov	r0, r1
 2096              	.LVL182:
 2097 0014 FEFFFFEB 		bl	xQueueGenericCreate
 2098              	.LVL183:
1681:D:/Work/DeviceTester/amazon-freertos/lib/third_party/mcu_vendor/renesas/rz_mcu_boards/core_package/generate/os_abstraction/src\r_os_abstraction_api.c **** 
1682:D:/Work/DeviceTester/amazon-freertos/lib/third_party/mcu_vendor/renesas/rz_mcu_boards/core_package/generate/os_abstraction/src\r_os_abstraction_api.c ****     /*Only return event if created*/
1683:D:/Work/DeviceTester/amazon-freertos/lib/third_party/mcu_vendor/renesas/rz_mcu_boards/core_package/generate/os_abstraction/src\r_os_abstraction_api.c ****     if (NULL != p_temp_event)
 2099              		.loc 1 1683 0
 2100 0018 004050E2 		subs	r4, r0, #0
 2101 001c 0A00000A 		beq	.L219
1684:D:/Work/DeviceTester/amazon-freertos/lib/third_party/mcu_vendor/renesas/rz_mcu_boards/core_package/generate/os_abstraction/src\r_os_abstraction_api.c ****     {
1685:D:/Work/DeviceTester/amazon-freertos/lib/third_party/mcu_vendor/renesas/rz_mcu_boards/core_package/generate/os_abstraction/src\r_os_abstraction_api.c ****         /* Reset the event */
1686:D:/Work/DeviceTester/amazon-freertos/lib/third_party/mcu_vendor/renesas/rz_mcu_boards/core_package/generate/os_abstraction/src\r_os_abstraction_api.c ****         xQueueReset(p_temp_event);
 2102              		.loc 1 1686 0
 2103 0020 0010A0E3 		mov	r1, #0
 2104 0024 FEFFFFEB 		bl	xQueueGenericReset
 2105              	.LVL184:
1687:D:/Work/DeviceTester/amazon-freertos/lib/third_party/mcu_vendor/renesas/rz_mcu_boards/core_package/generate/os_abstraction/src\r_os_abstraction_api.c **** 
1688:D:/Work/DeviceTester/amazon-freertos/lib/third_party/mcu_vendor/renesas/rz_mcu_boards/core_package/generate/os_abstraction/src\r_os_abstraction_api.c ****         /* return the event */
1689:D:/Work/DeviceTester/amazon-freertos/lib/third_party/mcu_vendor/renesas/rz_mcu_boards/core_package/generate/os_abstraction/src\r_os_abstraction_api.c ****         *pp_event = p_temp_event;
1690:D:/Work/DeviceTester/amazon-freertos/lib/third_party/mcu_vendor/renesas/rz_mcu_boards/core_package/generate/os_abstraction/src\r_os_abstraction_api.c **** 
1691:D:/Work/DeviceTester/amazon-freertos/lib/third_party/mcu_vendor/renesas/rz_mcu_boards/core_package/generate/os_abstraction/src\r_os_abstraction_api.c ****         s_event_count++;
 2106              		.loc 1 1691 0
 2107 0028 28209FE5 		ldr	r2, .L222
1689:D:/Work/DeviceTester/amazon-freertos/lib/third_party/mcu_vendor/renesas/rz_mcu_boards/core_package/generate/os_abstraction/src\r_os_abstraction_api.c **** 
 2108              		.loc 1 1689 0
 2109 002c 004085E5 		str	r4, [r5]
 2110              		.loc 1 1691 0
 2111 0030 003092E5 		ldr	r3, [r2]
 2112 0034 013083E2 		add	r3, r3, #1
 2113 0038 003082E5 		str	r3, [r2]
1692:D:/Work/DeviceTester/amazon-freertos/lib/third_party/mcu_vendor/renesas/rz_mcu_boards/core_package/generate/os_abstraction/src\r_os_abstraction_api.c ****         if (s_event_count > s_event_max)
 2114              		.loc 1 1692 0
 2115 003c 18209FE5 		ldr	r2, .L222+4
 2116 0040 001092E5 		ldr	r1, [r2]
 2117 0044 010053E1 		cmp	r3, r1
1693:D:/Work/DeviceTester/amazon-freertos/lib/third_party/mcu_vendor/renesas/rz_mcu_boards/core_package/generate/os_abstraction/src\r_os_abstraction_api.c ****         {
1694:D:/Work/DeviceTester/amazon-freertos/lib/third_party/mcu_vendor/renesas/rz_mcu_boards/core_package/generate/os_abstraction/src\r_os_abstraction_api.c ****             s_event_max = s_event_count;
 2118              		.loc 1 1694 0
 2119 0048 00308285 		strhi	r3, [r2]
 2120              	.L219:
1695:D:/Work/DeviceTester/amazon-freertos/lib/third_party/mcu_vendor/renesas/rz_mcu_boards/core_package/generate/os_abstraction/src\r_os_abstraction_api.c ****         }
1696:D:/Work/DeviceTester/amazon-freertos/lib/third_party/mcu_vendor/renesas/rz_mcu_boards/core_package/generate/os_abstraction/src\r_os_abstraction_api.c ****     }
1697:D:/Work/DeviceTester/amazon-freertos/lib/third_party/mcu_vendor/renesas/rz_mcu_boards/core_package/generate/os_abstraction/src\r_os_abstraction_api.c **** 
1698:D:/Work/DeviceTester/amazon-freertos/lib/third_party/mcu_vendor/renesas/rz_mcu_boards/core_package/generate/os_abstraction/src\r_os_abstraction_api.c ****     /*Return boolean true if event created*/
1699:D:/Work/DeviceTester/amazon-freertos/lib/third_party/mcu_vendor/renesas/rz_mcu_boards/core_package/generate/os_abstraction/src\r_os_abstraction_api.c ****     return (NULL != p_temp_event);
1700:D:/Work/DeviceTester/amazon-freertos/lib/third_party/mcu_vendor/renesas/rz_mcu_boards/core_package/generate/os_abstraction/src\r_os_abstraction_api.c **** }
 2121              		.loc 1 1700 0
 2122 004c 000094E2 		adds	r0, r4, #0
 2123 0050 0100A013 		movne	r0, #1
 2124 0054 7080BDE8 		pop	{r4, r5, r6, pc}
 2125              	.L223:
 2126              		.align	2
 2127              	.L222:
 2128 0058 00000000 		.word	.LANCHOR8
 2129 005c 00000000 		.word	.LANCHOR9
 2130              		.cfi_endproc
 2131              	.LFE51:
 2133              		.section	.text.R_OS_EventDelete,"ax",%progbits
 2134              		.align	2
 2135              		.global	R_OS_EventDelete
 2136              		.syntax unified
 2137              		.arm
 2138              		.fpu neon
 2140              	R_OS_EventDelete:
 2141              	.LFB52:
1701:D:/Work/DeviceTester/amazon-freertos/lib/third_party/mcu_vendor/renesas/rz_mcu_boards/core_package/generate/os_abstraction/src\r_os_abstraction_api.c **** /**************************************************************************************************
1702:D:/Work/DeviceTester/amazon-freertos/lib/third_party/mcu_vendor/renesas/rz_mcu_boards/core_package/generate/os_abstraction/src\r_os_abstraction_api.c ****  End of function R_OS_EventCreate
1703:D:/Work/DeviceTester/amazon-freertos/lib/third_party/mcu_vendor/renesas/rz_mcu_boards/core_package/generate/os_abstraction/src\r_os_abstraction_api.c ****  **************************************************************************************************
1704:D:/Work/DeviceTester/amazon-freertos/lib/third_party/mcu_vendor/renesas/rz_mcu_boards/core_package/generate/os_abstraction/src\r_os_abstraction_api.c **** 
1705:D:/Work/DeviceTester/amazon-freertos/lib/third_party/mcu_vendor/renesas/rz_mcu_boards/core_package/generate/os_abstraction/src\r_os_abstraction_api.c **** /**************************************************************************************************
1706:D:/Work/DeviceTester/amazon-freertos/lib/third_party/mcu_vendor/renesas/rz_mcu_boards/core_package/generate/os_abstraction/src\r_os_abstraction_api.c ****  * Function Name: R_OS_EventDelete
1707:D:/Work/DeviceTester/amazon-freertos/lib/third_party/mcu_vendor/renesas/rz_mcu_boards/core_package/generate/os_abstraction/src\r_os_abstraction_api.c ****  * Description  : Delete an event, freeing any associated resources
1708:D:/Work/DeviceTester/amazon-freertos/lib/third_party/mcu_vendor/renesas/rz_mcu_boards/core_package/generate/os_abstraction/src\r_os_abstraction_api.c ****  * Arguments    : pp_event - pointer to a associated event
1709:D:/Work/DeviceTester/amazon-freertos/lib/third_party/mcu_vendor/renesas/rz_mcu_boards/core_package/generate/os_abstraction/src\r_os_abstraction_api.c ****  * Return Value : None
1710:D:/Work/DeviceTester/amazon-freertos/lib/third_party/mcu_vendor/renesas/rz_mcu_boards/core_package/generate/os_abstraction/src\r_os_abstraction_api.c ****  **************************************************************************************************
1711:D:/Work/DeviceTester/amazon-freertos/lib/third_party/mcu_vendor/renesas/rz_mcu_boards/core_package/generate/os_abstraction/src\r_os_abstraction_api.c **** void R_OS_EventDelete (pp_event_t pp_event)
1712:D:/Work/DeviceTester/amazon-freertos/lib/third_party/mcu_vendor/renesas/rz_mcu_boards/core_package/generate/os_abstraction/src\r_os_abstraction_api.c **** {
 2142              		.loc 1 1712 0
 2143              		.cfi_startproc
 2144              		@ args = 0, pretend = 0, frame = 0
 2145              		@ frame_needed = 0, uses_anonymous_args = 0
 2146              	.LVL185:
 2147 0000 10402DE9 		push	{r4, lr}
 2148              		.cfi_def_cfa_offset 8
 2149              		.cfi_offset 4, -8
 2150              		.cfi_offset 14, -4
1713:D:/Work/DeviceTester/amazon-freertos/lib/third_party/mcu_vendor/renesas/rz_mcu_boards/core_package/generate/os_abstraction/src\r_os_abstraction_api.c ****     /* Make sure the handle is valid */
1714:D:/Work/DeviceTester/amazon-freertos/lib/third_party/mcu_vendor/renesas/rz_mcu_boards/core_package/generate/os_abstraction/src\r_os_abstraction_api.c ****     if (NULL != pp_event)
 2151              		.loc 1 1714 0
 2152 0004 004050E2 		subs	r4, r0, #0
 2153 0008 0600000A 		beq	.L226
1715:D:/Work/DeviceTester/amazon-freertos/lib/third_party/mcu_vendor/renesas/rz_mcu_boards/core_package/generate/os_abstraction/src\r_os_abstraction_api.c ****     {
1716:D:/Work/DeviceTester/amazon-freertos/lib/third_party/mcu_vendor/renesas/rz_mcu_boards/core_package/generate/os_abstraction/src\r_os_abstraction_api.c ****         /* Properly dispose the event object */
1717:D:/Work/DeviceTester/amazon-freertos/lib/third_party/mcu_vendor/renesas/rz_mcu_boards/core_package/generate/os_abstraction/src\r_os_abstraction_api.c ****         vQueueDelete( *pp_event);
 2154              		.loc 1 1717 0
 2155 000c 000094E5 		ldr	r0, [r4]
 2156              	.LVL186:
 2157 0010 FEFFFFEB 		bl	vQueueDelete
 2158              	.LVL187:
1718:D:/Work/DeviceTester/amazon-freertos/lib/third_party/mcu_vendor/renesas/rz_mcu_boards/core_package/generate/os_abstraction/src\r_os_abstraction_api.c **** 
1719:D:/Work/DeviceTester/amazon-freertos/lib/third_party/mcu_vendor/renesas/rz_mcu_boards/core_package/generate/os_abstraction/src\r_os_abstraction_api.c ****         if (0 != s_event_count)
 2159              		.loc 1 1719 0
 2160 0014 18209FE5 		ldr	r2, .L232
 2161 0018 003092E5 		ldr	r3, [r2]
 2162 001c 000053E3 		cmp	r3, #0
1720:D:/Work/DeviceTester/amazon-freertos/lib/third_party/mcu_vendor/renesas/rz_mcu_boards/core_package/generate/os_abstraction/src\r_os_abstraction_api.c ****         {
1721:D:/Work/DeviceTester/amazon-freertos/lib/third_party/mcu_vendor/renesas/rz_mcu_boards/core_package/generate/os_abstraction/src\r_os_abstraction_api.c ****             s_event_count--;
 2163              		.loc 1 1721 0
 2164 0020 01304312 		subne	r3, r3, #1
 2165 0024 00308215 		strne	r3, [r2]
 2166              	.L226:
1722:D:/Work/DeviceTester/amazon-freertos/lib/third_party/mcu_vendor/renesas/rz_mcu_boards/core_package/generate/os_abstraction/src\r_os_abstraction_api.c ****         }
1723:D:/Work/DeviceTester/amazon-freertos/lib/third_party/mcu_vendor/renesas/rz_mcu_boards/core_package/generate/os_abstraction/src\r_os_abstraction_api.c ****     }
1724:D:/Work/DeviceTester/amazon-freertos/lib/third_party/mcu_vendor/renesas/rz_mcu_boards/core_package/generate/os_abstraction/src\r_os_abstraction_api.c **** 
1725:D:/Work/DeviceTester/amazon-freertos/lib/third_party/mcu_vendor/renesas/rz_mcu_boards/core_package/generate/os_abstraction/src\r_os_abstraction_api.c ****     /* The expectation is that the handle to the event should now be NULL
1726:D:/Work/DeviceTester/amazon-freertos/lib/third_party/mcu_vendor/renesas/rz_mcu_boards/core_package/generate/os_abstraction/src\r_os_abstraction_api.c ****      * so that any future attempt to get the event will not be valid */
1727:D:/Work/DeviceTester/amazon-freertos/lib/third_party/mcu_vendor/renesas/rz_mcu_boards/core_package/generate/os_abstraction/src\r_os_abstraction_api.c ****     *pp_event = NULL;
 2167              		.loc 1 1727 0
 2168 0028 0030A0E3 		mov	r3, #0
 2169 002c 003084E5 		str	r3, [r4]
 2170 0030 1080BDE8 		pop	{r4, pc}
 2171              	.L233:
 2172              		.align	2
 2173              	.L232:
 2174 0034 00000000 		.word	.LANCHOR8
 2175              		.cfi_endproc
 2176              	.LFE52:
 2178              		.section	.text.R_OS_EventSet,"ax",%progbits
 2179              		.align	2
 2180              		.global	R_OS_EventSet
 2181              		.syntax unified
 2182              		.arm
 2183              		.fpu neon
 2185              	R_OS_EventSet:
 2186              	.LFB53:
1728:D:/Work/DeviceTester/amazon-freertos/lib/third_party/mcu_vendor/renesas/rz_mcu_boards/core_package/generate/os_abstraction/src\r_os_abstraction_api.c **** }
1729:D:/Work/DeviceTester/amazon-freertos/lib/third_party/mcu_vendor/renesas/rz_mcu_boards/core_package/generate/os_abstraction/src\r_os_abstraction_api.c **** /**************************************************************************************************
1730:D:/Work/DeviceTester/amazon-freertos/lib/third_party/mcu_vendor/renesas/rz_mcu_boards/core_package/generate/os_abstraction/src\r_os_abstraction_api.c ****  End of function R_OS_EventDelete
1731:D:/Work/DeviceTester/amazon-freertos/lib/third_party/mcu_vendor/renesas/rz_mcu_boards/core_package/generate/os_abstraction/src\r_os_abstraction_api.c ****  **************************************************************************************************
1732:D:/Work/DeviceTester/amazon-freertos/lib/third_party/mcu_vendor/renesas/rz_mcu_boards/core_package/generate/os_abstraction/src\r_os_abstraction_api.c **** 
1733:D:/Work/DeviceTester/amazon-freertos/lib/third_party/mcu_vendor/renesas/rz_mcu_boards/core_package/generate/os_abstraction/src\r_os_abstraction_api.c **** /**************************************************************************************************
1734:D:/Work/DeviceTester/amazon-freertos/lib/third_party/mcu_vendor/renesas/rz_mcu_boards/core_package/generate/os_abstraction/src\r_os_abstraction_api.c ****  * Function Name: R_OS_EventSet
1735:D:/Work/DeviceTester/amazon-freertos/lib/third_party/mcu_vendor/renesas/rz_mcu_boards/core_package/generate/os_abstraction/src\r_os_abstraction_api.c ****  * Description  : Sets the state on the associated event
1736:D:/Work/DeviceTester/amazon-freertos/lib/third_party/mcu_vendor/renesas/rz_mcu_boards/core_package/generate/os_abstraction/src\r_os_abstraction_api.c ****  * Arguments    : pp_event - pointer to a associated event
1737:D:/Work/DeviceTester/amazon-freertos/lib/third_party/mcu_vendor/renesas/rz_mcu_boards/core_package/generate/os_abstraction/src\r_os_abstraction_api.c ****  * Return Value : None
1738:D:/Work/DeviceTester/amazon-freertos/lib/third_party/mcu_vendor/renesas/rz_mcu_boards/core_package/generate/os_abstraction/src\r_os_abstraction_api.c ****  **************************************************************************************************
1739:D:/Work/DeviceTester/amazon-freertos/lib/third_party/mcu_vendor/renesas/rz_mcu_boards/core_package/generate/os_abstraction/src\r_os_abstraction_api.c **** void R_OS_EventSet (pp_event_t pp_event)
1740:D:/Work/DeviceTester/amazon-freertos/lib/third_party/mcu_vendor/renesas/rz_mcu_boards/core_package/generate/os_abstraction/src\r_os_abstraction_api.c **** {
 2187              		.loc 1 1740 0
 2188              		.cfi_startproc
 2189              		@ args = 0, pretend = 0, frame = 8
 2190              		@ frame_needed = 0, uses_anonymous_args = 0
 2191              	.LVL188:
 2192 0000 07402DE9 		push	{r0, r1, r2, lr}
 2193              		.cfi_def_cfa_offset 16
 2194              		.cfi_offset 14, -4
1741:D:/Work/DeviceTester/amazon-freertos/lib/third_party/mcu_vendor/renesas/rz_mcu_boards/core_package/generate/os_abstraction/src\r_os_abstraction_api.c ****     e_event_state_t event_state = EV_SET;
 2195              		.loc 1 1741 0
 2196 0004 0130A0E3 		mov	r3, #1
 2197 0008 08108DE2 		add	r1, sp, #8
 2198 000c 013061E5 		strb	r3, [r1, #-1]!
1742:D:/Work/DeviceTester/amazon-freertos/lib/third_party/mcu_vendor/renesas/rz_mcu_boards/core_package/generate/os_abstraction/src\r_os_abstraction_api.c **** 
1743:D:/Work/DeviceTester/amazon-freertos/lib/third_party/mcu_vendor/renesas/rz_mcu_boards/core_package/generate/os_abstraction/src\r_os_abstraction_api.c ****     /* Check if we are in an ISR */
1744:D:/Work/DeviceTester/amazon-freertos/lib/third_party/mcu_vendor/renesas/rz_mcu_boards/core_package/generate/os_abstraction/src\r_os_abstraction_api.c ****     if (ulPortInterruptNesting)
 2199              		.loc 1 1744 0
 2200 0010 2C309FE5 		ldr	r3, .L238
 2201 0014 002093E5 		ldr	r2, [r3]
1745:D:/Work/DeviceTester/amazon-freertos/lib/third_party/mcu_vendor/renesas/rz_mcu_boards/core_package/generate/os_abstraction/src\r_os_abstraction_api.c ****     {
1746:D:/Work/DeviceTester/amazon-freertos/lib/third_party/mcu_vendor/renesas/rz_mcu_boards/core_package/generate/os_abstraction/src\r_os_abstraction_api.c ****         /*Set Event - in ISR*/
1747:D:/Work/DeviceTester/amazon-freertos/lib/third_party/mcu_vendor/renesas/rz_mcu_boards/core_package/generate/os_abstraction/src\r_os_abstraction_api.c ****         xQueueOverwriteFromISR( *pp_event, &event_state, NULL);
 2202              		.loc 1 1747 0
 2203 0018 0230A0E3 		mov	r3, #2
1744:D:/Work/DeviceTester/amazon-freertos/lib/third_party/mcu_vendor/renesas/rz_mcu_boards/core_package/generate/os_abstraction/src\r_os_abstraction_api.c ****     {
 2204              		.loc 1 1744 0
 2205 001c 000052E3 		cmp	r2, #0
 2206 0020 0400000A 		beq	.L235
 2207              		.loc 1 1747 0
 2208 0024 0020A0E3 		mov	r2, #0
 2209 0028 000090E5 		ldr	r0, [r0]
 2210              	.LVL189:
 2211 002c FEFFFFEB 		bl	xQueueGenericSendFromISR
 2212              	.LVL190:
 2213              	.L234:
1748:D:/Work/DeviceTester/amazon-freertos/lib/third_party/mcu_vendor/renesas/rz_mcu_boards/core_package/generate/os_abstraction/src\r_os_abstraction_api.c ****     }
1749:D:/Work/DeviceTester/amazon-freertos/lib/third_party/mcu_vendor/renesas/rz_mcu_boards/core_package/generate/os_abstraction/src\r_os_abstraction_api.c ****     else
1750:D:/Work/DeviceTester/amazon-freertos/lib/third_party/mcu_vendor/renesas/rz_mcu_boards/core_package/generate/os_abstraction/src\r_os_abstraction_api.c ****     {
1751:D:/Work/DeviceTester/amazon-freertos/lib/third_party/mcu_vendor/renesas/rz_mcu_boards/core_package/generate/os_abstraction/src\r_os_abstraction_api.c ****         /*Set Event*/
1752:D:/Work/DeviceTester/amazon-freertos/lib/third_party/mcu_vendor/renesas/rz_mcu_boards/core_package/generate/os_abstraction/src\r_os_abstraction_api.c ****         xQueueOverwrite( *pp_event, &event_state);
1753:D:/Work/DeviceTester/amazon-freertos/lib/third_party/mcu_vendor/renesas/rz_mcu_boards/core_package/generate/os_abstraction/src\r_os_abstraction_api.c ****     }
1754:D:/Work/DeviceTester/amazon-freertos/lib/third_party/mcu_vendor/renesas/rz_mcu_boards/core_package/generate/os_abstraction/src\r_os_abstraction_api.c **** }
 2214              		.loc 1 1754 0
 2215 0030 0CD08DE2 		add	sp, sp, #12
 2216              		.cfi_remember_state
 2217              		.cfi_def_cfa_offset 4
 2218              		@ sp needed
 2219 0034 04F09DE4 		ldr	pc, [sp], #4
 2220              	.LVL191:
 2221              	.L235:
 2222              		.cfi_restore_state
1752:D:/Work/DeviceTester/amazon-freertos/lib/third_party/mcu_vendor/renesas/rz_mcu_boards/core_package/generate/os_abstraction/src\r_os_abstraction_api.c ****     }
 2223              		.loc 1 1752 0
 2224 0038 000090E5 		ldr	r0, [r0]
 2225              	.LVL192:
 2226 003c FEFFFFEB 		bl	xQueueGenericSend
 2227              	.LVL193:
 2228              		.loc 1 1754 0
 2229 0040 FAFFFFEA 		b	.L234
 2230              	.L239:
 2231              		.align	2
 2232              	.L238:
 2233 0044 00000000 		.word	ulPortInterruptNesting
 2234              		.cfi_endproc
 2235              	.LFE53:
 2237              		.section	.text.R_OS_EventReset,"ax",%progbits
 2238              		.align	2
 2239              		.global	R_OS_EventReset
 2240              		.syntax unified
 2241              		.arm
 2242              		.fpu neon
 2244              	R_OS_EventReset:
 2245              	.LFB54:
1755:D:/Work/DeviceTester/amazon-freertos/lib/third_party/mcu_vendor/renesas/rz_mcu_boards/core_package/generate/os_abstraction/src\r_os_abstraction_api.c **** /**************************************************************************************************
1756:D:/Work/DeviceTester/amazon-freertos/lib/third_party/mcu_vendor/renesas/rz_mcu_boards/core_package/generate/os_abstraction/src\r_os_abstraction_api.c ****  End of function R_OS_EventSet
1757:D:/Work/DeviceTester/amazon-freertos/lib/third_party/mcu_vendor/renesas/rz_mcu_boards/core_package/generate/os_abstraction/src\r_os_abstraction_api.c ****  **************************************************************************************************
1758:D:/Work/DeviceTester/amazon-freertos/lib/third_party/mcu_vendor/renesas/rz_mcu_boards/core_package/generate/os_abstraction/src\r_os_abstraction_api.c **** 
1759:D:/Work/DeviceTester/amazon-freertos/lib/third_party/mcu_vendor/renesas/rz_mcu_boards/core_package/generate/os_abstraction/src\r_os_abstraction_api.c **** /**************************************************************************************************
1760:D:/Work/DeviceTester/amazon-freertos/lib/third_party/mcu_vendor/renesas/rz_mcu_boards/core_package/generate/os_abstraction/src\r_os_abstraction_api.c ****  * Function Name: R_OS_EventReset
1761:D:/Work/DeviceTester/amazon-freertos/lib/third_party/mcu_vendor/renesas/rz_mcu_boards/core_package/generate/os_abstraction/src\r_os_abstraction_api.c ****  * Description  : Clears the state on the associated event
1762:D:/Work/DeviceTester/amazon-freertos/lib/third_party/mcu_vendor/renesas/rz_mcu_boards/core_package/generate/os_abstraction/src\r_os_abstraction_api.c ****  * Arguments    : pp_event - pointer to a associated event
1763:D:/Work/DeviceTester/amazon-freertos/lib/third_party/mcu_vendor/renesas/rz_mcu_boards/core_package/generate/os_abstraction/src\r_os_abstraction_api.c ****  * Return Value : None
1764:D:/Work/DeviceTester/amazon-freertos/lib/third_party/mcu_vendor/renesas/rz_mcu_boards/core_package/generate/os_abstraction/src\r_os_abstraction_api.c ****  **************************************************************************************************
1765:D:/Work/DeviceTester/amazon-freertos/lib/third_party/mcu_vendor/renesas/rz_mcu_boards/core_package/generate/os_abstraction/src\r_os_abstraction_api.c **** void R_OS_EventReset (pp_event_t pp_event)
1766:D:/Work/DeviceTester/amazon-freertos/lib/third_party/mcu_vendor/renesas/rz_mcu_boards/core_package/generate/os_abstraction/src\r_os_abstraction_api.c **** {
 2246              		.loc 1 1766 0
 2247              		.cfi_startproc
 2248              		@ args = 0, pretend = 0, frame = 8
 2249              		@ frame_needed = 0, uses_anonymous_args = 0
 2250              	.LVL194:
1767:D:/Work/DeviceTester/amazon-freertos/lib/third_party/mcu_vendor/renesas/rz_mcu_boards/core_package/generate/os_abstraction/src\r_os_abstraction_api.c ****     /* Force the specified event to the non-signalled state */
1768:D:/Work/DeviceTester/amazon-freertos/lib/third_party/mcu_vendor/renesas/rz_mcu_boards/core_package/generate/os_abstraction/src\r_os_abstraction_api.c ****     e_event_state_t event_state = EV_RESET;
1769:D:/Work/DeviceTester/amazon-freertos/lib/third_party/mcu_vendor/renesas/rz_mcu_boards/core_package/generate/os_abstraction/src\r_os_abstraction_api.c **** 
1770:D:/Work/DeviceTester/amazon-freertos/lib/third_party/mcu_vendor/renesas/rz_mcu_boards/core_package/generate/os_abstraction/src\r_os_abstraction_api.c ****     /* Check if we are in an ISR */
1771:D:/Work/DeviceTester/amazon-freertos/lib/third_party/mcu_vendor/renesas/rz_mcu_boards/core_package/generate/os_abstraction/src\r_os_abstraction_api.c ****     if (ulPortInterruptNesting)
 2251              		.loc 1 1771 0
 2252 0000 3C309FE5 		ldr	r3, .L244
1768:D:/Work/DeviceTester/amazon-freertos/lib/third_party/mcu_vendor/renesas/rz_mcu_boards/core_package/generate/os_abstraction/src\r_os_abstraction_api.c **** 
 2253              		.loc 1 1768 0
 2254 0004 00C0A0E3 		mov	ip, #0
1766:D:/Work/DeviceTester/amazon-freertos/lib/third_party/mcu_vendor/renesas/rz_mcu_boards/core_package/generate/os_abstraction/src\r_os_abstraction_api.c ****     /* Force the specified event to the non-signalled state */
 2255              		.loc 1 1766 0
 2256 0008 07402DE9 		push	{r0, r1, r2, lr}
 2257              		.cfi_def_cfa_offset 16
 2258              		.cfi_offset 14, -4
1768:D:/Work/DeviceTester/amazon-freertos/lib/third_party/mcu_vendor/renesas/rz_mcu_boards/core_package/generate/os_abstraction/src\r_os_abstraction_api.c **** 
 2259              		.loc 1 1768 0
 2260 000c 08108DE2 		add	r1, sp, #8
 2261 0010 01C061E5 		strb	ip, [r1, #-1]!
 2262              		.loc 1 1771 0
 2263 0014 002093E5 		ldr	r2, [r3]
1772:D:/Work/DeviceTester/amazon-freertos/lib/third_party/mcu_vendor/renesas/rz_mcu_boards/core_package/generate/os_abstraction/src\r_os_abstraction_api.c ****     {
1773:D:/Work/DeviceTester/amazon-freertos/lib/third_party/mcu_vendor/renesas/rz_mcu_boards/core_package/generate/os_abstraction/src\r_os_abstraction_api.c ****         /*Reset event - in ISR*/
1774:D:/Work/DeviceTester/amazon-freertos/lib/third_party/mcu_vendor/renesas/rz_mcu_boards/core_package/generate/os_abstraction/src\r_os_abstraction_api.c ****         xQueueOverwriteFromISR( *pp_event, &event_state, NULL);
 2264              		.loc 1 1774 0
 2265 0018 0230A0E3 		mov	r3, #2
1771:D:/Work/DeviceTester/amazon-freertos/lib/third_party/mcu_vendor/renesas/rz_mcu_boards/core_package/generate/os_abstraction/src\r_os_abstraction_api.c ****     {
 2266              		.loc 1 1771 0
 2267 001c 0C0052E1 		cmp	r2, ip
 2268 0020 0400000A 		beq	.L241
 2269              		.loc 1 1774 0
 2270 0024 0C20A0E1 		mov	r2, ip
 2271 0028 000090E5 		ldr	r0, [r0]
 2272              	.LVL195:
 2273 002c FEFFFFEB 		bl	xQueueGenericSendFromISR
 2274              	.LVL196:
 2275              	.L240:
1775:D:/Work/DeviceTester/amazon-freertos/lib/third_party/mcu_vendor/renesas/rz_mcu_boards/core_package/generate/os_abstraction/src\r_os_abstraction_api.c ****     }
1776:D:/Work/DeviceTester/amazon-freertos/lib/third_party/mcu_vendor/renesas/rz_mcu_boards/core_package/generate/os_abstraction/src\r_os_abstraction_api.c ****     else
1777:D:/Work/DeviceTester/amazon-freertos/lib/third_party/mcu_vendor/renesas/rz_mcu_boards/core_package/generate/os_abstraction/src\r_os_abstraction_api.c ****     {
1778:D:/Work/DeviceTester/amazon-freertos/lib/third_party/mcu_vendor/renesas/rz_mcu_boards/core_package/generate/os_abstraction/src\r_os_abstraction_api.c ****         /*Reset Event*/
1779:D:/Work/DeviceTester/amazon-freertos/lib/third_party/mcu_vendor/renesas/rz_mcu_boards/core_package/generate/os_abstraction/src\r_os_abstraction_api.c ****         xQueueOverwrite( *pp_event, &event_state);
1780:D:/Work/DeviceTester/amazon-freertos/lib/third_party/mcu_vendor/renesas/rz_mcu_boards/core_package/generate/os_abstraction/src\r_os_abstraction_api.c ****     }
1781:D:/Work/DeviceTester/amazon-freertos/lib/third_party/mcu_vendor/renesas/rz_mcu_boards/core_package/generate/os_abstraction/src\r_os_abstraction_api.c **** }
 2276              		.loc 1 1781 0
 2277 0030 0CD08DE2 		add	sp, sp, #12
 2278              		.cfi_remember_state
 2279              		.cfi_def_cfa_offset 4
 2280              		@ sp needed
 2281 0034 04F09DE4 		ldr	pc, [sp], #4
 2282              	.LVL197:
 2283              	.L241:
 2284              		.cfi_restore_state
1779:D:/Work/DeviceTester/amazon-freertos/lib/third_party/mcu_vendor/renesas/rz_mcu_boards/core_package/generate/os_abstraction/src\r_os_abstraction_api.c ****     }
 2285              		.loc 1 1779 0
 2286 0038 000090E5 		ldr	r0, [r0]
 2287              	.LVL198:
 2288 003c FEFFFFEB 		bl	xQueueGenericSend
 2289              	.LVL199:
 2290              		.loc 1 1781 0
 2291 0040 FAFFFFEA 		b	.L240
 2292              	.L245:
 2293              		.align	2
 2294              	.L244:
 2295 0044 00000000 		.word	ulPortInterruptNesting
 2296              		.cfi_endproc
 2297              	.LFE54:
 2299              		.section	.text.R_OS_EventGet,"ax",%progbits
 2300              		.align	2
 2301              		.global	R_OS_EventGet
 2302              		.syntax unified
 2303              		.arm
 2304              		.fpu neon
 2306              	R_OS_EventGet:
 2307              	.LFB55:
1782:D:/Work/DeviceTester/amazon-freertos/lib/third_party/mcu_vendor/renesas/rz_mcu_boards/core_package/generate/os_abstraction/src\r_os_abstraction_api.c **** /**************************************************************************************************
1783:D:/Work/DeviceTester/amazon-freertos/lib/third_party/mcu_vendor/renesas/rz_mcu_boards/core_package/generate/os_abstraction/src\r_os_abstraction_api.c ****  End of function R_OS_EventReset
1784:D:/Work/DeviceTester/amazon-freertos/lib/third_party/mcu_vendor/renesas/rz_mcu_boards/core_package/generate/os_abstraction/src\r_os_abstraction_api.c ****  **************************************************************************************************
1785:D:/Work/DeviceTester/amazon-freertos/lib/third_party/mcu_vendor/renesas/rz_mcu_boards/core_package/generate/os_abstraction/src\r_os_abstraction_api.c **** 
1786:D:/Work/DeviceTester/amazon-freertos/lib/third_party/mcu_vendor/renesas/rz_mcu_boards/core_package/generate/os_abstraction/src\r_os_abstraction_api.c **** /**************************************************************************************************
1787:D:/Work/DeviceTester/amazon-freertos/lib/third_party/mcu_vendor/renesas/rz_mcu_boards/core_package/generate/os_abstraction/src\r_os_abstraction_api.c ****  Function Name: R_OS_EventGet
1788:D:/Work/DeviceTester/amazon-freertos/lib/third_party/mcu_vendor/renesas/rz_mcu_boards/core_package/generate/os_abstraction/src\r_os_abstraction_api.c ****  Description:   Function to return the current state of an event
1789:D:/Work/DeviceTester/amazon-freertos/lib/third_party/mcu_vendor/renesas/rz_mcu_boards/core_package/generate/os_abstraction/src\r_os_abstraction_api.c ****  Arguments:     IN pp_event - pointer to the event
1790:D:/Work/DeviceTester/amazon-freertos/lib/third_party/mcu_vendor/renesas/rz_mcu_boards/core_package/generate/os_abstraction/src\r_os_abstraction_api.c ****  Return value:  The state of the event
1791:D:/Work/DeviceTester/amazon-freertos/lib/third_party/mcu_vendor/renesas/rz_mcu_boards/core_package/generate/os_abstraction/src\r_os_abstraction_api.c ****  **************************************************************************************************
1792:D:/Work/DeviceTester/amazon-freertos/lib/third_party/mcu_vendor/renesas/rz_mcu_boards/core_package/generate/os_abstraction/src\r_os_abstraction_api.c **** e_event_state_t R_OS_EventGet (pp_event_t pp_event)
1793:D:/Work/DeviceTester/amazon-freertos/lib/third_party/mcu_vendor/renesas/rz_mcu_boards/core_package/generate/os_abstraction/src\r_os_abstraction_api.c **** {
 2308              		.loc 1 1793 0
 2309              		.cfi_startproc
 2310              		@ args = 0, pretend = 0, frame = 8
 2311              		@ frame_needed = 0, uses_anonymous_args = 0
 2312              	.LVL200:
 2313 0000 07402DE9 		push	{r0, r1, r2, lr}
 2314              		.cfi_def_cfa_offset 16
 2315              		.cfi_offset 14, -4
1794:D:/Work/DeviceTester/amazon-freertos/lib/third_party/mcu_vendor/renesas/rz_mcu_boards/core_package/generate/os_abstraction/src\r_os_abstraction_api.c ****     e_event_state_t event_state = EV_RESET;
 2316              		.loc 1 1794 0
 2317 0004 0030A0E3 		mov	r3, #0
 2318 0008 08108DE2 		add	r1, sp, #8
1795:D:/Work/DeviceTester/amazon-freertos/lib/third_party/mcu_vendor/renesas/rz_mcu_boards/core_package/generate/os_abstraction/src\r_os_abstraction_api.c **** 
1796:D:/Work/DeviceTester/amazon-freertos/lib/third_party/mcu_vendor/renesas/rz_mcu_boards/core_package/generate/os_abstraction/src\r_os_abstraction_api.c ****     if (ulPortInterruptNesting)
1797:D:/Work/DeviceTester/amazon-freertos/lib/third_party/mcu_vendor/renesas/rz_mcu_boards/core_package/generate/os_abstraction/src\r_os_abstraction_api.c ****     {
1798:D:/Work/DeviceTester/amazon-freertos/lib/third_party/mcu_vendor/renesas/rz_mcu_boards/core_package/generate/os_abstraction/src\r_os_abstraction_api.c ****         xQueuePeekFromISR( *pp_event, &event_state);
 2319              		.loc 1 1798 0
 2320 000c 000090E5 		ldr	r0, [r0]
 2321              	.LVL201:
1794:D:/Work/DeviceTester/amazon-freertos/lib/third_party/mcu_vendor/renesas/rz_mcu_boards/core_package/generate/os_abstraction/src\r_os_abstraction_api.c ****     e_event_state_t event_state = EV_RESET;
 2322              		.loc 1 1794 0
 2323 0010 013061E5 		strb	r3, [r1, #-1]!
1796:D:/Work/DeviceTester/amazon-freertos/lib/third_party/mcu_vendor/renesas/rz_mcu_boards/core_package/generate/os_abstraction/src\r_os_abstraction_api.c ****     {
 2324              		.loc 1 1796 0
 2325 0014 20309FE5 		ldr	r3, .L250
 2326 0018 002093E5 		ldr	r2, [r3]
 2327 001c 000052E3 		cmp	r2, #0
 2328 0020 0300000A 		beq	.L247
 2329              		.loc 1 1798 0
 2330 0024 FEFFFFEB 		bl	xQueuePeekFromISR
 2331              	.LVL202:
 2332              	.L248:
1799:D:/Work/DeviceTester/amazon-freertos/lib/third_party/mcu_vendor/renesas/rz_mcu_boards/core_package/generate/os_abstraction/src\r_os_abstraction_api.c ****     }
1800:D:/Work/DeviceTester/amazon-freertos/lib/third_party/mcu_vendor/renesas/rz_mcu_boards/core_package/generate/os_abstraction/src\r_os_abstraction_api.c ****     else
1801:D:/Work/DeviceTester/amazon-freertos/lib/third_party/mcu_vendor/renesas/rz_mcu_boards/core_package/generate/os_abstraction/src\r_os_abstraction_api.c ****     {
1802:D:/Work/DeviceTester/amazon-freertos/lib/third_party/mcu_vendor/renesas/rz_mcu_boards/core_package/generate/os_abstraction/src\r_os_abstraction_api.c ****         xQueuePeek( *pp_event, &event_state, 0UL);
1803:D:/Work/DeviceTester/amazon-freertos/lib/third_party/mcu_vendor/renesas/rz_mcu_boards/core_package/generate/os_abstraction/src\r_os_abstraction_api.c ****     }
1804:D:/Work/DeviceTester/amazon-freertos/lib/third_party/mcu_vendor/renesas/rz_mcu_boards/core_package/generate/os_abstraction/src\r_os_abstraction_api.c **** 
1805:D:/Work/DeviceTester/amazon-freertos/lib/third_party/mcu_vendor/renesas/rz_mcu_boards/core_package/generate/os_abstraction/src\r_os_abstraction_api.c ****     return event_state;
1806:D:/Work/DeviceTester/amazon-freertos/lib/third_party/mcu_vendor/renesas/rz_mcu_boards/core_package/generate/os_abstraction/src\r_os_abstraction_api.c **** }
 2333              		.loc 1 1806 0
 2334 0028 0700DDE5 		ldrb	r0, [sp, #7]	@ zero_extendqisi2
 2335 002c 0CD08DE2 		add	sp, sp, #12
 2336              		.cfi_remember_state
 2337              		.cfi_def_cfa_offset 4
 2338              		@ sp needed
 2339 0030 04F09DE4 		ldr	pc, [sp], #4
 2340              	.L247:
 2341              		.cfi_restore_state
1802:D:/Work/DeviceTester/amazon-freertos/lib/third_party/mcu_vendor/renesas/rz_mcu_boards/core_package/generate/os_abstraction/src\r_os_abstraction_api.c ****     }
 2342              		.loc 1 1802 0
 2343 0034 FEFFFFEB 		bl	xQueuePeek
 2344              	.LVL203:
 2345 0038 FAFFFFEA 		b	.L248
 2346              	.L251:
 2347              		.align	2
 2348              	.L250:
 2349 003c 00000000 		.word	ulPortInterruptNesting
 2350              		.cfi_endproc
 2351              	.LFE55:
 2353              		.section	.text.R_OS_EventWait,"ax",%progbits
 2354              		.align	2
 2355              		.global	R_OS_EventWait
 2356              		.syntax unified
 2357              		.arm
 2358              		.fpu neon
 2360              	R_OS_EventWait:
 2361              	.LFB56:
1807:D:/Work/DeviceTester/amazon-freertos/lib/third_party/mcu_vendor/renesas/rz_mcu_boards/core_package/generate/os_abstraction/src\r_os_abstraction_api.c **** /**************************************************************************************************
1808:D:/Work/DeviceTester/amazon-freertos/lib/third_party/mcu_vendor/renesas/rz_mcu_boards/core_package/generate/os_abstraction/src\r_os_abstraction_api.c ****  End of function R_OS_EventGet
1809:D:/Work/DeviceTester/amazon-freertos/lib/third_party/mcu_vendor/renesas/rz_mcu_boards/core_package/generate/os_abstraction/src\r_os_abstraction_api.c ****  **************************************************************************************************
1810:D:/Work/DeviceTester/amazon-freertos/lib/third_party/mcu_vendor/renesas/rz_mcu_boards/core_package/generate/os_abstraction/src\r_os_abstraction_api.c **** 
1811:D:/Work/DeviceTester/amazon-freertos/lib/third_party/mcu_vendor/renesas/rz_mcu_boards/core_package/generate/os_abstraction/src\r_os_abstraction_api.c **** /**************************************************************************************************
1812:D:/Work/DeviceTester/amazon-freertos/lib/third_party/mcu_vendor/renesas/rz_mcu_boards/core_package/generate/os_abstraction/src\r_os_abstraction_api.c ****  * Function Name: R_OS_EventWait
1813:D:/Work/DeviceTester/amazon-freertos/lib/third_party/mcu_vendor/renesas/rz_mcu_boards/core_package/generate/os_abstraction/src\r_os_abstraction_api.c ****  * Description  : Blocks operation until one of the following occurs
1814:D:/Work/DeviceTester/amazon-freertos/lib/third_party/mcu_vendor/renesas/rz_mcu_boards/core_package/generate/os_abstraction/src\r_os_abstraction_api.c ****  *                A timeout occurs
1815:D:/Work/DeviceTester/amazon-freertos/lib/third_party/mcu_vendor/renesas/rz_mcu_boards/core_package/generate/os_abstraction/src\r_os_abstraction_api.c ****  *                The associated event has been set
1816:D:/Work/DeviceTester/amazon-freertos/lib/third_party/mcu_vendor/renesas/rz_mcu_boards/core_package/generate/os_abstraction/src\r_os_abstraction_api.c ****  * Arguments    : pp_event - pointer to a associated event
1817:D:/Work/DeviceTester/amazon-freertos/lib/third_party/mcu_vendor/renesas/rz_mcu_boards/core_package/generate/os_abstraction/src\r_os_abstraction_api.c ****  *                timeout   - maximum time to wait for associated event to occur
1818:D:/Work/DeviceTester/amazon-freertos/lib/third_party/mcu_vendor/renesas/rz_mcu_boards/core_package/generate/os_abstraction/src\r_os_abstraction_api.c ****  * Return Value : The function returns TRUE if the event object was successfully set. Otherwise, FA
1819:D:/Work/DeviceTester/amazon-freertos/lib/third_party/mcu_vendor/renesas/rz_mcu_boards/core_package/generate/os_abstraction/src\r_os_abstraction_api.c ****  **************************************************************************************************
1820:D:/Work/DeviceTester/amazon-freertos/lib/third_party/mcu_vendor/renesas/rz_mcu_boards/core_package/generate/os_abstraction/src\r_os_abstraction_api.c **** bool_t R_OS_EventWait (pp_event_t pp_event, systime_t timeout)
1821:D:/Work/DeviceTester/amazon-freertos/lib/third_party/mcu_vendor/renesas/rz_mcu_boards/core_package/generate/os_abstraction/src\r_os_abstraction_api.c **** {
 2362              		.loc 1 1821 0
 2363              		.cfi_startproc
 2364              		@ args = 0, pretend = 0, frame = 16
 2365              		@ frame_needed = 0, uses_anonymous_args = 0
 2366              	.LVL204:
 2367 0000 F0402DE9 		push	{r4, r5, r6, r7, lr}
 2368              		.cfi_def_cfa_offset 20
 2369              		.cfi_offset 4, -20
 2370              		.cfi_offset 5, -16
 2371              		.cfi_offset 6, -12
 2372              		.cfi_offset 7, -8
 2373              		.cfi_offset 14, -4
1822:D:/Work/DeviceTester/amazon-freertos/lib/third_party/mcu_vendor/renesas/rz_mcu_boards/core_package/generate/os_abstraction/src\r_os_abstraction_api.c ****     volatile bool_t ret_value = false;
1823:D:/Work/DeviceTester/amazon-freertos/lib/third_party/mcu_vendor/renesas/rz_mcu_boards/core_package/generate/os_abstraction/src\r_os_abstraction_api.c ****     volatile bool_t process = true;
 2374              		.loc 1 1823 0
 2375 0004 0130A0E3 		mov	r3, #1
1821:D:/Work/DeviceTester/amazon-freertos/lib/third_party/mcu_vendor/renesas/rz_mcu_boards/core_package/generate/os_abstraction/src\r_os_abstraction_api.c ****     volatile bool_t ret_value = false;
 2376              		.loc 1 1821 0
 2377 0008 14D04DE2 		sub	sp, sp, #20
 2378              		.cfi_def_cfa_offset 40
1822:D:/Work/DeviceTester/amazon-freertos/lib/third_party/mcu_vendor/renesas/rz_mcu_boards/core_package/generate/os_abstraction/src\r_os_abstraction_api.c ****     volatile bool_t ret_value = false;
 2379              		.loc 1 1822 0
 2380 000c 0040A0E3 		mov	r4, #0
1821:D:/Work/DeviceTester/amazon-freertos/lib/third_party/mcu_vendor/renesas/rz_mcu_boards/core_package/generate/os_abstraction/src\r_os_abstraction_api.c ****     volatile bool_t ret_value = false;
 2381              		.loc 1 1821 0
 2382 0010 0070A0E1 		mov	r7, r0
 2383 0014 0160A0E1 		mov	r6, r1
1822:D:/Work/DeviceTester/amazon-freertos/lib/third_party/mcu_vendor/renesas/rz_mcu_boards/core_package/generate/os_abstraction/src\r_os_abstraction_api.c ****     volatile bool_t ret_value = false;
 2384              		.loc 1 1822 0
 2385 0018 08408DE5 		str	r4, [sp, #8]
1824:D:/Work/DeviceTester/amazon-freertos/lib/third_party/mcu_vendor/renesas/rz_mcu_boards/core_package/generate/os_abstraction/src\r_os_abstraction_api.c ****     e_event_state_t event_state = EV_INVALID;
 2386              		.loc 1 1824 0
 2387 001c 10508DE2 		add	r5, sp, #16
1823:D:/Work/DeviceTester/amazon-freertos/lib/third_party/mcu_vendor/renesas/rz_mcu_boards/core_package/generate/os_abstraction/src\r_os_abstraction_api.c ****     e_event_state_t event_state = EV_INVALID;
 2388              		.loc 1 1823 0
 2389 0020 0C308DE5 		str	r3, [sp, #12]
 2390              		.loc 1 1824 0
 2391 0024 0230A0E3 		mov	r3, #2
 2392 0028 093065E5 		strb	r3, [r5, #-9]!
 2393              	.LVL205:
 2394              	.L255:
1825:D:/Work/DeviceTester/amazon-freertos/lib/third_party/mcu_vendor/renesas/rz_mcu_boards/core_package/generate/os_abstraction/src\r_os_abstraction_api.c ****     TickType_t ticks_to_wait;
1826:D:/Work/DeviceTester/amazon-freertos/lib/third_party/mcu_vendor/renesas/rz_mcu_boards/core_package/generate/os_abstraction/src\r_os_abstraction_api.c **** 
1827:D:/Work/DeviceTester/amazon-freertos/lib/third_party/mcu_vendor/renesas/rz_mcu_boards/core_package/generate/os_abstraction/src\r_os_abstraction_api.c ****     /*If timeout has reached maximum value*/
1828:D:/Work/DeviceTester/amazon-freertos/lib/third_party/mcu_vendor/renesas/rz_mcu_boards/core_package/generate/os_abstraction/src\r_os_abstraction_api.c ****     if (R_OS_ABSTRACTION_EV_WAIT_INFINITE == timeout)
1829:D:/Work/DeviceTester/amazon-freertos/lib/third_party/mcu_vendor/renesas/rz_mcu_boards/core_package/generate/os_abstraction/src\r_os_abstraction_api.c ****     {
1830:D:/Work/DeviceTester/amazon-freertos/lib/third_party/mcu_vendor/renesas/rz_mcu_boards/core_package/generate/os_abstraction/src\r_os_abstraction_api.c ****         /*Assign to max value*/
1831:D:/Work/DeviceTester/amazon-freertos/lib/third_party/mcu_vendor/renesas/rz_mcu_boards/core_package/generate/os_abstraction/src\r_os_abstraction_api.c ****         ticks_to_wait = portMAX_DELAY;
1832:D:/Work/DeviceTester/amazon-freertos/lib/third_party/mcu_vendor/renesas/rz_mcu_boards/core_package/generate/os_abstraction/src\r_os_abstraction_api.c ****     }
1833:D:/Work/DeviceTester/amazon-freertos/lib/third_party/mcu_vendor/renesas/rz_mcu_boards/core_package/generate/os_abstraction/src\r_os_abstraction_api.c ****     else
1834:D:/Work/DeviceTester/amazon-freertos/lib/third_party/mcu_vendor/renesas/rz_mcu_boards/core_package/generate/os_abstraction/src\r_os_abstraction_api.c ****     {
1835:D:/Work/DeviceTester/amazon-freertos/lib/third_party/mcu_vendor/renesas/rz_mcu_boards/core_package/generate/os_abstraction/src\r_os_abstraction_api.c ****         ticks_to_wait = R_OS_MS_TO_SYSTICKS(timeout);
1836:D:/Work/DeviceTester/amazon-freertos/lib/third_party/mcu_vendor/renesas/rz_mcu_boards/core_package/generate/os_abstraction/src\r_os_abstraction_api.c ****     }
1837:D:/Work/DeviceTester/amazon-freertos/lib/third_party/mcu_vendor/renesas/rz_mcu_boards/core_package/generate/os_abstraction/src\r_os_abstraction_api.c **** 
1838:D:/Work/DeviceTester/amazon-freertos/lib/third_party/mcu_vendor/renesas/rz_mcu_boards/core_package/generate/os_abstraction/src\r_os_abstraction_api.c ****     while (true == process)
 2395              		.loc 1 1838 0
 2396 002c 0C309DE5 		ldr	r3, [sp, #12]
 2397 0030 010053E3 		cmp	r3, #1
 2398 0034 0200000A 		beq	.L256
1839:D:/Work/DeviceTester/amazon-freertos/lib/third_party/mcu_vendor/renesas/rz_mcu_boards/core_package/generate/os_abstraction/src\r_os_abstraction_api.c ****     {
1840:D:/Work/DeviceTester/amazon-freertos/lib/third_party/mcu_vendor/renesas/rz_mcu_boards/core_package/generate/os_abstraction/src\r_os_abstraction_api.c ****         /*Set event only if item received from queue*/
1841:D:/Work/DeviceTester/amazon-freertos/lib/third_party/mcu_vendor/renesas/rz_mcu_boards/core_package/generate/os_abstraction/src\r_os_abstraction_api.c ****         if (pdTRUE == xQueueReceive( *pp_event, &event_state, ticks_to_wait))
1842:D:/Work/DeviceTester/amazon-freertos/lib/third_party/mcu_vendor/renesas/rz_mcu_boards/core_package/generate/os_abstraction/src\r_os_abstraction_api.c ****         {
1843:D:/Work/DeviceTester/amazon-freertos/lib/third_party/mcu_vendor/renesas/rz_mcu_boards/core_package/generate/os_abstraction/src\r_os_abstraction_api.c ****             if (EV_SET == event_state)
1844:D:/Work/DeviceTester/amazon-freertos/lib/third_party/mcu_vendor/renesas/rz_mcu_boards/core_package/generate/os_abstraction/src\r_os_abstraction_api.c ****             {
1845:D:/Work/DeviceTester/amazon-freertos/lib/third_party/mcu_vendor/renesas/rz_mcu_boards/core_package/generate/os_abstraction/src\r_os_abstraction_api.c ****                 ret_value = true;
1846:D:/Work/DeviceTester/amazon-freertos/lib/third_party/mcu_vendor/renesas/rz_mcu_boards/core_package/generate/os_abstraction/src\r_os_abstraction_api.c ****                 process = false;
1847:D:/Work/DeviceTester/amazon-freertos/lib/third_party/mcu_vendor/renesas/rz_mcu_boards/core_package/generate/os_abstraction/src\r_os_abstraction_api.c ****             }
1848:D:/Work/DeviceTester/amazon-freertos/lib/third_party/mcu_vendor/renesas/rz_mcu_boards/core_package/generate/os_abstraction/src\r_os_abstraction_api.c ****         }
1849:D:/Work/DeviceTester/amazon-freertos/lib/third_party/mcu_vendor/renesas/rz_mcu_boards/core_package/generate/os_abstraction/src\r_os_abstraction_api.c **** 
1850:D:/Work/DeviceTester/amazon-freertos/lib/third_party/mcu_vendor/renesas/rz_mcu_boards/core_package/generate/os_abstraction/src\r_os_abstraction_api.c ****         /**/
1851:D:/Work/DeviceTester/amazon-freertos/lib/third_party/mcu_vendor/renesas/rz_mcu_boards/core_package/generate/os_abstraction/src\r_os_abstraction_api.c ****         if (R_OS_ABSTRACTION_EV_WAIT_INFINITE != timeout)
1852:D:/Work/DeviceTester/amazon-freertos/lib/third_party/mcu_vendor/renesas/rz_mcu_boards/core_package/generate/os_abstraction/src\r_os_abstraction_api.c ****         {
1853:D:/Work/DeviceTester/amazon-freertos/lib/third_party/mcu_vendor/renesas/rz_mcu_boards/core_package/generate/os_abstraction/src\r_os_abstraction_api.c ****             process = false;
1854:D:/Work/DeviceTester/amazon-freertos/lib/third_party/mcu_vendor/renesas/rz_mcu_boards/core_package/generate/os_abstraction/src\r_os_abstraction_api.c ****         }
1855:D:/Work/DeviceTester/amazon-freertos/lib/third_party/mcu_vendor/renesas/rz_mcu_boards/core_package/generate/os_abstraction/src\r_os_abstraction_api.c ****     }
1856:D:/Work/DeviceTester/amazon-freertos/lib/third_party/mcu_vendor/renesas/rz_mcu_boards/core_package/generate/os_abstraction/src\r_os_abstraction_api.c **** 
1857:D:/Work/DeviceTester/amazon-freertos/lib/third_party/mcu_vendor/renesas/rz_mcu_boards/core_package/generate/os_abstraction/src\r_os_abstraction_api.c ****     return (ret_value);
 2399              		.loc 1 1857 0
 2400 0038 08009DE5 		ldr	r0, [sp, #8]
1858:D:/Work/DeviceTester/amazon-freertos/lib/third_party/mcu_vendor/renesas/rz_mcu_boards/core_package/generate/os_abstraction/src\r_os_abstraction_api.c **** }
 2401              		.loc 1 1858 0
 2402 003c 14D08DE2 		add	sp, sp, #20
 2403              		.cfi_remember_state
 2404              		.cfi_def_cfa_offset 20
 2405              		@ sp needed
 2406 0040 F080BDE8 		pop	{r4, r5, r6, r7, pc}
 2407              	.LVL206:
 2408              	.L256:
 2409              		.cfi_restore_state
1841:D:/Work/DeviceTester/amazon-freertos/lib/third_party/mcu_vendor/renesas/rz_mcu_boards/core_package/generate/os_abstraction/src\r_os_abstraction_api.c ****         {
 2410              		.loc 1 1841 0
 2411 0044 0620A0E1 		mov	r2, r6
 2412 0048 0510A0E1 		mov	r1, r5
 2413 004c 000097E5 		ldr	r0, [r7]
 2414 0050 FEFFFFEB 		bl	xQueueReceive
 2415              	.LVL207:
 2416 0054 010050E3 		cmp	r0, #1
 2417 0058 0300001A 		bne	.L254
1843:D:/Work/DeviceTester/amazon-freertos/lib/third_party/mcu_vendor/renesas/rz_mcu_boards/core_package/generate/os_abstraction/src\r_os_abstraction_api.c ****             {
 2418              		.loc 1 1843 0
 2419 005c 0730DDE5 		ldrb	r3, [sp, #7]	@ zero_extendqisi2
 2420 0060 010053E3 		cmp	r3, #1
1845:D:/Work/DeviceTester/amazon-freertos/lib/third_party/mcu_vendor/renesas/rz_mcu_boards/core_package/generate/os_abstraction/src\r_os_abstraction_api.c ****                 process = false;
 2421              		.loc 1 1845 0
 2422 0064 08308D05 		streq	r3, [sp, #8]
1846:D:/Work/DeviceTester/amazon-freertos/lib/third_party/mcu_vendor/renesas/rz_mcu_boards/core_package/generate/os_abstraction/src\r_os_abstraction_api.c ****             }
 2423              		.loc 1 1846 0
 2424 0068 0C408D05 		streq	r4, [sp, #12]
 2425              	.L254:
1851:D:/Work/DeviceTester/amazon-freertos/lib/third_party/mcu_vendor/renesas/rz_mcu_boards/core_package/generate/os_abstraction/src\r_os_abstraction_api.c ****         {
 2426              		.loc 1 1851 0
 2427 006c 010076E3 		cmn	r6, #1
1853:D:/Work/DeviceTester/amazon-freertos/lib/third_party/mcu_vendor/renesas/rz_mcu_boards/core_package/generate/os_abstraction/src\r_os_abstraction_api.c ****         }
 2428              		.loc 1 1853 0
 2429 0070 0C408D15 		strne	r4, [sp, #12]
 2430 0074 ECFFFFEA 		b	.L255
 2431              		.cfi_endproc
 2432              	.LFE56:
 2434              		.section	.text.R_OS_EventSetFromIsr,"ax",%progbits
 2435              		.align	2
 2436              		.global	R_OS_EventSetFromIsr
 2437              		.syntax unified
 2438              		.arm
 2439              		.fpu neon
 2441              	R_OS_EventSetFromIsr:
 2442              	.LFB57:
1859:D:/Work/DeviceTester/amazon-freertos/lib/third_party/mcu_vendor/renesas/rz_mcu_boards/core_package/generate/os_abstraction/src\r_os_abstraction_api.c **** /**************************************************************************************************
1860:D:/Work/DeviceTester/amazon-freertos/lib/third_party/mcu_vendor/renesas/rz_mcu_boards/core_package/generate/os_abstraction/src\r_os_abstraction_api.c ****  End of function R_OS_EventWait
1861:D:/Work/DeviceTester/amazon-freertos/lib/third_party/mcu_vendor/renesas/rz_mcu_boards/core_package/generate/os_abstraction/src\r_os_abstraction_api.c ****  **************************************************************************************************
1862:D:/Work/DeviceTester/amazon-freertos/lib/third_party/mcu_vendor/renesas/rz_mcu_boards/core_package/generate/os_abstraction/src\r_os_abstraction_api.c **** 
1863:D:/Work/DeviceTester/amazon-freertos/lib/third_party/mcu_vendor/renesas/rz_mcu_boards/core_package/generate/os_abstraction/src\r_os_abstraction_api.c **** /**************************************************************************************************
1864:D:/Work/DeviceTester/amazon-freertos/lib/third_party/mcu_vendor/renesas/rz_mcu_boards/core_package/generate/os_abstraction/src\r_os_abstraction_api.c ****  * Function Name: R_OS_EventSetFromIsr
1865:D:/Work/DeviceTester/amazon-freertos/lib/third_party/mcu_vendor/renesas/rz_mcu_boards/core_package/generate/os_abstraction/src\r_os_abstraction_api.c ****  * Description  : Sets the state on the associated event
1866:D:/Work/DeviceTester/amazon-freertos/lib/third_party/mcu_vendor/renesas/rz_mcu_boards/core_package/generate/os_abstraction/src\r_os_abstraction_api.c ****  *                Warning : Function shall only be caller from within an ISR routine
1867:D:/Work/DeviceTester/amazon-freertos/lib/third_party/mcu_vendor/renesas/rz_mcu_boards/core_package/generate/os_abstraction/src\r_os_abstraction_api.c ****  * Arguments    : pp_event  - Pointer to a associated event
1868:D:/Work/DeviceTester/amazon-freertos/lib/third_party/mcu_vendor/renesas/rz_mcu_boards/core_package/generate/os_abstraction/src\r_os_abstraction_api.c ****  * Return Value : The function returns TRUE if the event object was successfully set. Otherwise, FA
1869:D:/Work/DeviceTester/amazon-freertos/lib/third_party/mcu_vendor/renesas/rz_mcu_boards/core_package/generate/os_abstraction/src\r_os_abstraction_api.c ****  **************************************************************************************************
1870:D:/Work/DeviceTester/amazon-freertos/lib/third_party/mcu_vendor/renesas/rz_mcu_boards/core_package/generate/os_abstraction/src\r_os_abstraction_api.c **** bool_t R_OS_EventSetFromIsr (pp_event_t pp_event)
1871:D:/Work/DeviceTester/amazon-freertos/lib/third_party/mcu_vendor/renesas/rz_mcu_boards/core_package/generate/os_abstraction/src\r_os_abstraction_api.c **** {
 2443              		.loc 1 1871 0
 2444              		.cfi_startproc
 2445              		@ args = 0, pretend = 0, frame = 8
 2446              		@ frame_needed = 0, uses_anonymous_args = 0
 2447              	.LVL208:
 2448 0000 07402DE9 		push	{r0, r1, r2, lr}
 2449              		.cfi_def_cfa_offset 16
 2450              		.cfi_offset 14, -4
1872:D:/Work/DeviceTester/amazon-freertos/lib/third_party/mcu_vendor/renesas/rz_mcu_boards/core_package/generate/os_abstraction/src\r_os_abstraction_api.c ****     portBASE_TYPE ret_value;
1873:D:/Work/DeviceTester/amazon-freertos/lib/third_party/mcu_vendor/renesas/rz_mcu_boards/core_package/generate/os_abstraction/src\r_os_abstraction_api.c ****     e_event_state_t event_state = EV_SET;
 2451              		.loc 1 1873 0
 2452 0004 0130A0E3 		mov	r3, #1
 2453 0008 08108DE2 		add	r1, sp, #8
1874:D:/Work/DeviceTester/amazon-freertos/lib/third_party/mcu_vendor/renesas/rz_mcu_boards/core_package/generate/os_abstraction/src\r_os_abstraction_api.c **** 
1875:D:/Work/DeviceTester/amazon-freertos/lib/third_party/mcu_vendor/renesas/rz_mcu_boards/core_package/generate/os_abstraction/src\r_os_abstraction_api.c ****     /*Cast to NULL as set from ISR*/
1876:D:/Work/DeviceTester/amazon-freertos/lib/third_party/mcu_vendor/renesas/rz_mcu_boards/core_package/generate/os_abstraction/src\r_os_abstraction_api.c ****     ret_value = xQueueSendFromISR( *pp_event, &event_state, NULL);
 2454              		.loc 1 1876 0
 2455 000c 000090E5 		ldr	r0, [r0]
 2456              	.LVL209:
1873:D:/Work/DeviceTester/amazon-freertos/lib/third_party/mcu_vendor/renesas/rz_mcu_boards/core_package/generate/os_abstraction/src\r_os_abstraction_api.c **** 
 2457              		.loc 1 1873 0
 2458 0010 013061E5 		strb	r3, [r1, #-1]!
 2459              		.loc 1 1876 0
 2460 0014 0030A0E3 		mov	r3, #0
 2461 0018 0320A0E1 		mov	r2, r3
 2462 001c FEFFFFEB 		bl	xQueueGenericSendFromISR
 2463              	.LVL210:
1877:D:/Work/DeviceTester/amazon-freertos/lib/third_party/mcu_vendor/renesas/rz_mcu_boards/core_package/generate/os_abstraction/src\r_os_abstraction_api.c **** 
1878:D:/Work/DeviceTester/amazon-freertos/lib/third_party/mcu_vendor/renesas/rz_mcu_boards/core_package/generate/os_abstraction/src\r_os_abstraction_api.c ****     /*Return boolean*/
1879:D:/Work/DeviceTester/amazon-freertos/lib/third_party/mcu_vendor/renesas/rz_mcu_boards/core_package/generate/os_abstraction/src\r_os_abstraction_api.c ****     return ((pdTRUE == ret_value));
1880:D:/Work/DeviceTester/amazon-freertos/lib/third_party/mcu_vendor/renesas/rz_mcu_boards/core_package/generate/os_abstraction/src\r_os_abstraction_api.c **** }
 2464              		.loc 1 1880 0
 2465 0020 010040E2 		sub	r0, r0, #1
 2466              	.LVL211:
 2467 0024 100F6FE1 		clz	r0, r0
 2468              	.LVL212:
 2469 0028 A002A0E1 		lsr	r0, r0, #5
 2470 002c 0CD08DE2 		add	sp, sp, #12
 2471              		.cfi_def_cfa_offset 4
 2472              		@ sp needed
 2473 0030 04F09DE4 		ldr	pc, [sp], #4
 2474              		.cfi_endproc
 2475              	.LFE57:
 2477              		.section	.text.R_OS_GetTickCount,"ax",%progbits
 2478              		.align	2
 2479              		.global	R_OS_GetTickCount
 2480              		.syntax unified
 2481              		.arm
 2482              		.fpu neon
 2484              	R_OS_GetTickCount:
 2485              	.LFB58:
1881:D:/Work/DeviceTester/amazon-freertos/lib/third_party/mcu_vendor/renesas/rz_mcu_boards/core_package/generate/os_abstraction/src\r_os_abstraction_api.c **** /**************************************************************************************************
1882:D:/Work/DeviceTester/amazon-freertos/lib/third_party/mcu_vendor/renesas/rz_mcu_boards/core_package/generate/os_abstraction/src\r_os_abstraction_api.c ****  End of function R_OS_EventSetFromIsr
1883:D:/Work/DeviceTester/amazon-freertos/lib/third_party/mcu_vendor/renesas/rz_mcu_boards/core_package/generate/os_abstraction/src\r_os_abstraction_api.c ****  **************************************************************************************************
1884:D:/Work/DeviceTester/amazon-freertos/lib/third_party/mcu_vendor/renesas/rz_mcu_boards/core_package/generate/os_abstraction/src\r_os_abstraction_api.c **** 
1885:D:/Work/DeviceTester/amazon-freertos/lib/third_party/mcu_vendor/renesas/rz_mcu_boards/core_package/generate/os_abstraction/src\r_os_abstraction_api.c **** /**************************************************************************************************
1886:D:/Work/DeviceTester/amazon-freertos/lib/third_party/mcu_vendor/renesas/rz_mcu_boards/core_package/generate/os_abstraction/src\r_os_abstraction_api.c ****  * Function Name: R_OS_GetTickCount
1887:D:/Work/DeviceTester/amazon-freertos/lib/third_party/mcu_vendor/renesas/rz_mcu_boards/core_package/generate/os_abstraction/src\r_os_abstraction_api.c ****  * Description  : Get the number of task ticks.
1888:D:/Work/DeviceTester/amazon-freertos/lib/third_party/mcu_vendor/renesas/rz_mcu_boards/core_package/generate/os_abstraction/src\r_os_abstraction_api.c ****  * Arguments    : None
1889:D:/Work/DeviceTester/amazon-freertos/lib/third_party/mcu_vendor/renesas/rz_mcu_boards/core_package/generate/os_abstraction/src\r_os_abstraction_api.c ****  * Return Value : Number of Ticks counted for a task
1890:D:/Work/DeviceTester/amazon-freertos/lib/third_party/mcu_vendor/renesas/rz_mcu_boards/core_package/generate/os_abstraction/src\r_os_abstraction_api.c ****  **************************************************************************************************
1891:D:/Work/DeviceTester/amazon-freertos/lib/third_party/mcu_vendor/renesas/rz_mcu_boards/core_package/generate/os_abstraction/src\r_os_abstraction_api.c **** uint32_t R_OS_GetTickCount (void)
1892:D:/Work/DeviceTester/amazon-freertos/lib/third_party/mcu_vendor/renesas/rz_mcu_boards/core_package/generate/os_abstraction/src\r_os_abstraction_api.c **** {
 2486              		.loc 1 1892 0
 2487              		.cfi_startproc
 2488              		@ args = 0, pretend = 0, frame = 0
 2489              		@ frame_needed = 0, uses_anonymous_args = 0
 2490              		@ link register save eliminated.
1893:D:/Work/DeviceTester/amazon-freertos/lib/third_party/mcu_vendor/renesas/rz_mcu_boards/core_package/generate/os_abstraction/src\r_os_abstraction_api.c ****     return (xTaskGetTickCount());
 2491              		.loc 1 1893 0
 2492 0000 FEFFFFEA 		b	xTaskGetTickCount
 2493              	.LVL213:
 2494              		.cfi_endproc
 2495              	.LFE58:
 2497              		.section	.text.R_OS_GetVersion,"ax",%progbits
 2498              		.align	2
 2499              		.global	R_OS_GetVersion
 2500              		.syntax unified
 2501              		.arm
 2502              		.fpu neon
 2504              	R_OS_GetVersion:
 2505              	.LFB59:
1894:D:/Work/DeviceTester/amazon-freertos/lib/third_party/mcu_vendor/renesas/rz_mcu_boards/core_package/generate/os_abstraction/src\r_os_abstraction_api.c **** }
1895:D:/Work/DeviceTester/amazon-freertos/lib/third_party/mcu_vendor/renesas/rz_mcu_boards/core_package/generate/os_abstraction/src\r_os_abstraction_api.c **** /**************************************************************************************************
1896:D:/Work/DeviceTester/amazon-freertos/lib/third_party/mcu_vendor/renesas/rz_mcu_boards/core_package/generate/os_abstraction/src\r_os_abstraction_api.c ****  End of function R_OS_GetTickCount
1897:D:/Work/DeviceTester/amazon-freertos/lib/third_party/mcu_vendor/renesas/rz_mcu_boards/core_package/generate/os_abstraction/src\r_os_abstraction_api.c ****  **************************************************************************************************
1898:D:/Work/DeviceTester/amazon-freertos/lib/third_party/mcu_vendor/renesas/rz_mcu_boards/core_package/generate/os_abstraction/src\r_os_abstraction_api.c **** 
1899:D:/Work/DeviceTester/amazon-freertos/lib/third_party/mcu_vendor/renesas/rz_mcu_boards/core_package/generate/os_abstraction/src\r_os_abstraction_api.c **** /**************************************************************************************************
1900:D:/Work/DeviceTester/amazon-freertos/lib/third_party/mcu_vendor/renesas/rz_mcu_boards/core_package/generate/os_abstraction/src\r_os_abstraction_api.c ****  * Function Name: R_OS_GetVersion
1901:D:/Work/DeviceTester/amazon-freertos/lib/third_party/mcu_vendor/renesas/rz_mcu_boards/core_package/generate/os_abstraction/src\r_os_abstraction_api.c ****  * Description  :
1902:D:/Work/DeviceTester/amazon-freertos/lib/third_party/mcu_vendor/renesas/rz_mcu_boards/core_package/generate/os_abstraction/src\r_os_abstraction_api.c ****  * Arguments    : pinfo - detailed driver information structure
1903:D:/Work/DeviceTester/amazon-freertos/lib/third_party/mcu_vendor/renesas/rz_mcu_boards/core_package/generate/os_abstraction/src\r_os_abstraction_api.c ****  * Return Value : 0 can not fail
1904:D:/Work/DeviceTester/amazon-freertos/lib/third_party/mcu_vendor/renesas/rz_mcu_boards/core_package/generate/os_abstraction/src\r_os_abstraction_api.c ****  **************************************************************************************************
1905:D:/Work/DeviceTester/amazon-freertos/lib/third_party/mcu_vendor/renesas/rz_mcu_boards/core_package/generate/os_abstraction/src\r_os_abstraction_api.c **** int32_t R_OS_GetVersion (st_os_abstraction_info_t *p_info)
1906:D:/Work/DeviceTester/amazon-freertos/lib/third_party/mcu_vendor/renesas/rz_mcu_boards/core_package/generate/os_abstraction/src\r_os_abstraction_api.c **** {
 2506              		.loc 1 1906 0
 2507              		.cfi_startproc
 2508              		@ args = 0, pretend = 0, frame = 0
 2509              		@ frame_needed = 0, uses_anonymous_args = 0
 2510              		@ link register save eliminated.
 2511              	.LVL214:
1907:D:/Work/DeviceTester/amazon-freertos/lib/third_party/mcu_vendor/renesas/rz_mcu_boards/core_package/generate/os_abstraction/src\r_os_abstraction_api.c ****     p_info->version.sub.major = s_os_version.version.sub.major;
 2512              		.loc 1 1907 0
 2513 0000 0330A0E3 		mov	r3, #3
 2514 0004 B230C0E1 		strh	r3, [r0, #2]	@ movhi
1908:D:/Work/DeviceTester/amazon-freertos/lib/third_party/mcu_vendor/renesas/rz_mcu_boards/core_package/generate/os_abstraction/src\r_os_abstraction_api.c ****     p_info->version.sub.minor = s_os_version.version.sub.minor;
 2515              		.loc 1 1908 0
 2516 0008 0530A0E3 		mov	r3, #5
 2517 000c B030C0E1 		strh	r3, [r0]	@ movhi
1909:D:/Work/DeviceTester/amazon-freertos/lib/third_party/mcu_vendor/renesas/rz_mcu_boards/core_package/generate/os_abstraction/src\r_os_abstraction_api.c ****     p_info->build = s_os_version.build;
 2518              		.loc 1 1909 0
 2519 0010 0130A0E3 		mov	r3, #1
 2520 0014 043080E5 		str	r3, [r0, #4]
1910:D:/Work/DeviceTester/amazon-freertos/lib/third_party/mcu_vendor/renesas/rz_mcu_boards/core_package/generate/os_abstraction/src\r_os_abstraction_api.c ****     p_info->p_szdriver_name = s_os_version.p_szdriver_name;
 2521              		.loc 1 1910 0
 2522 0018 08309FE5 		ldr	r3, .L264
 2523 001c 083080E5 		str	r3, [r0, #8]
1911:D:/Work/DeviceTester/amazon-freertos/lib/third_party/mcu_vendor/renesas/rz_mcu_boards/core_package/generate/os_abstraction/src\r_os_abstraction_api.c ****     return (0);
1912:D:/Work/DeviceTester/amazon-freertos/lib/third_party/mcu_vendor/renesas/rz_mcu_boards/core_package/generate/os_abstraction/src\r_os_abstraction_api.c **** }
 2524              		.loc 1 1912 0
 2525 0020 0000A0E3 		mov	r0, #0
 2526              	.LVL215:
 2527 0024 1EFF2FE1 		bx	lr
 2528              	.L265:
 2529              		.align	2
 2530              	.L264:
 2531 0028 00000000 		.word	.LC4
 2532              		.cfi_endproc
 2533              	.LFE59:
 2535              		.section	.text.vApplicationStackOverflowHook,"ax",%progbits
 2536              		.align	2
 2537              		.weak	vApplicationStackOverflowHook
 2538              		.syntax unified
 2539              		.arm
 2540              		.fpu neon
 2542              	vApplicationStackOverflowHook:
 2543              	.LFB60:
1913:D:/Work/DeviceTester/amazon-freertos/lib/third_party/mcu_vendor/renesas/rz_mcu_boards/core_package/generate/os_abstraction/src\r_os_abstraction_api.c **** /**************************************************************************************************
1914:D:/Work/DeviceTester/amazon-freertos/lib/third_party/mcu_vendor/renesas/rz_mcu_boards/core_package/generate/os_abstraction/src\r_os_abstraction_api.c ****  End of function R_OS_GetVersion
1915:D:/Work/DeviceTester/amazon-freertos/lib/third_party/mcu_vendor/renesas/rz_mcu_boards/core_package/generate/os_abstraction/src\r_os_abstraction_api.c ****  **************************************************************************************************
1916:D:/Work/DeviceTester/amazon-freertos/lib/third_party/mcu_vendor/renesas/rz_mcu_boards/core_package/generate/os_abstraction/src\r_os_abstraction_api.c **** 
1917:D:/Work/DeviceTester/amazon-freertos/lib/third_party/mcu_vendor/renesas/rz_mcu_boards/core_package/generate/os_abstraction/src\r_os_abstraction_api.c **** /**************************************************************************************************
1918:D:/Work/DeviceTester/amazon-freertos/lib/third_party/mcu_vendor/renesas/rz_mcu_boards/core_package/generate/os_abstraction/src\r_os_abstraction_api.c ****  * Function Name: vApplicationStackOverflowHook
1919:D:/Work/DeviceTester/amazon-freertos/lib/third_party/mcu_vendor/renesas/rz_mcu_boards/core_package/generate/os_abstraction/src\r_os_abstraction_api.c ****  * Description  : Stops any destruction when a task escapes its alloted stack.
1920:D:/Work/DeviceTester/amazon-freertos/lib/third_party/mcu_vendor/renesas/rz_mcu_boards/core_package/generate/os_abstraction/src\r_os_abstraction_api.c ****  *                Possible solution increase stack size in the tasks creation function.
1921:D:/Work/DeviceTester/amazon-freertos/lib/third_party/mcu_vendor/renesas/rz_mcu_boards/core_package/generate/os_abstraction/src\r_os_abstraction_api.c ****  * Arguments    : pxTask - Task Object
1922:D:/Work/DeviceTester/amazon-freertos/lib/third_party/mcu_vendor/renesas/rz_mcu_boards/core_package/generate/os_abstraction/src\r_os_abstraction_api.c ****  *                pcTaskName - Name of the task in ASCII
1923:D:/Work/DeviceTester/amazon-freertos/lib/third_party/mcu_vendor/renesas/rz_mcu_boards/core_package/generate/os_abstraction/src\r_os_abstraction_api.c ****  * Return Value : none
1924:D:/Work/DeviceTester/amazon-freertos/lib/third_party/mcu_vendor/renesas/rz_mcu_boards/core_package/generate/os_abstraction/src\r_os_abstraction_api.c ****  **************************************************************************************************
1925:D:/Work/DeviceTester/amazon-freertos/lib/third_party/mcu_vendor/renesas/rz_mcu_boards/core_package/generate/os_abstraction/src\r_os_abstraction_api.c **** R_COMPILER_WEAK void vApplicationStackOverflowHook (xTaskHandle xTask, char *pcTaskName)
1926:D:/Work/DeviceTester/amazon-freertos/lib/third_party/mcu_vendor/renesas/rz_mcu_boards/core_package/generate/os_abstraction/src\r_os_abstraction_api.c **** {
 2544              		.loc 1 1926 0
 2545              		.cfi_startproc
 2546              		@ args = 0, pretend = 0, frame = 0
 2547              		@ frame_needed = 0, uses_anonymous_args = 0
 2548              	.LVL216:
 2549 0000 10402DE9 		push	{r4, lr}
 2550              		.cfi_def_cfa_offset 8
 2551              		.cfi_offset 4, -8
 2552              		.cfi_offset 14, -4
1927:D:/Work/DeviceTester/amazon-freertos/lib/third_party/mcu_vendor/renesas/rz_mcu_boards/core_package/generate/os_abstraction/src\r_os_abstraction_api.c **** 	UNUSED_PARAM(xTask);
1928:D:/Work/DeviceTester/amazon-freertos/lib/third_party/mcu_vendor/renesas/rz_mcu_boards/core_package/generate/os_abstraction/src\r_os_abstraction_api.c **** 
1929:D:/Work/DeviceTester/amazon-freertos/lib/third_party/mcu_vendor/renesas/rz_mcu_boards/core_package/generate/os_abstraction/src\r_os_abstraction_api.c ****     printf("Stack overflow occured at in %s \n\r", pcTaskName);
 2553              		.loc 1 1929 0
 2554 0004 18009FE5 		ldr	r0, .L269
 2555              	.LVL217:
 2556 0008 FEFFFFEB 		bl	printf
 2557              	.LVL218:
1930:D:/Work/DeviceTester/amazon-freertos/lib/third_party/mcu_vendor/renesas/rz_mcu_boards/core_package/generate/os_abstraction/src\r_os_abstraction_api.c ****     fflush(stdout);
 2558              		.loc 1 1930 0
 2559 000c 14309FE5 		ldr	r3, .L269+4
 2560 0010 003093E5 		ldr	r3, [r3]
 2561 0014 080093E5 		ldr	r0, [r3, #8]
 2562 0018 FEFFFFEB 		bl	fflush
 2563              	.LVL219:
1931:D:/Work/DeviceTester/amazon-freertos/lib/third_party/mcu_vendor/renesas/rz_mcu_boards/core_package/generate/os_abstraction/src\r_os_abstraction_api.c **** 
1932:D:/Work/DeviceTester/amazon-freertos/lib/third_party/mcu_vendor/renesas/rz_mcu_boards/core_package/generate/os_abstraction/src\r_os_abstraction_api.c ****     taskDISABLE_INTERRUPTS();
 2564              		.loc 1 1932 0
 2565 001c FEFFFFEB 		bl	ulPortSetInterruptMask
 2566              	.LVL220:
 2567              	.L267:
 2568 0020 FEFFFFEA 		b	.L267
 2569              	.L270:
 2570              		.align	2
 2571              	.L269:
 2572 0024 00000000 		.word	.LC5
 2573 0028 00000000 		.word	_impure_ptr
 2574              		.cfi_endproc
 2575              	.LFE60:
 2577              		.section	.text.vApplicationIdleHook,"ax",%progbits
 2578              		.align	2
 2579              		.global	vApplicationIdleHook
 2580              		.syntax unified
 2581              		.arm
 2582              		.fpu neon
 2584              	vApplicationIdleHook:
 2585              	.LFB61:
1933:D:/Work/DeviceTester/amazon-freertos/lib/third_party/mcu_vendor/renesas/rz_mcu_boards/core_package/generate/os_abstraction/src\r_os_abstraction_api.c **** 
1934:D:/Work/DeviceTester/amazon-freertos/lib/third_party/mcu_vendor/renesas/rz_mcu_boards/core_package/generate/os_abstraction/src\r_os_abstraction_api.c ****     while (1)
1935:D:/Work/DeviceTester/amazon-freertos/lib/third_party/mcu_vendor/renesas/rz_mcu_boards/core_package/generate/os_abstraction/src\r_os_abstraction_api.c ****     {
1936:D:/Work/DeviceTester/amazon-freertos/lib/third_party/mcu_vendor/renesas/rz_mcu_boards/core_package/generate/os_abstraction/src\r_os_abstraction_api.c ****         /* Do Nothing */
1937:D:/Work/DeviceTester/amazon-freertos/lib/third_party/mcu_vendor/renesas/rz_mcu_boards/core_package/generate/os_abstraction/src\r_os_abstraction_api.c ****         ;
1938:D:/Work/DeviceTester/amazon-freertos/lib/third_party/mcu_vendor/renesas/rz_mcu_boards/core_package/generate/os_abstraction/src\r_os_abstraction_api.c ****     }
1939:D:/Work/DeviceTester/amazon-freertos/lib/third_party/mcu_vendor/renesas/rz_mcu_boards/core_package/generate/os_abstraction/src\r_os_abstraction_api.c **** }
1940:D:/Work/DeviceTester/amazon-freertos/lib/third_party/mcu_vendor/renesas/rz_mcu_boards/core_package/generate/os_abstraction/src\r_os_abstraction_api.c **** /**************************************************************************************************
1941:D:/Work/DeviceTester/amazon-freertos/lib/third_party/mcu_vendor/renesas/rz_mcu_boards/core_package/generate/os_abstraction/src\r_os_abstraction_api.c ****  End of function vApplicationStackOverflowHook
1942:D:/Work/DeviceTester/amazon-freertos/lib/third_party/mcu_vendor/renesas/rz_mcu_boards/core_package/generate/os_abstraction/src\r_os_abstraction_api.c ****  **************************************************************************************************
1943:D:/Work/DeviceTester/amazon-freertos/lib/third_party/mcu_vendor/renesas/rz_mcu_boards/core_package/generate/os_abstraction/src\r_os_abstraction_api.c **** 
1944:D:/Work/DeviceTester/amazon-freertos/lib/third_party/mcu_vendor/renesas/rz_mcu_boards/core_package/generate/os_abstraction/src\r_os_abstraction_api.c **** /**************************************************************************************************
1945:D:/Work/DeviceTester/amazon-freertos/lib/third_party/mcu_vendor/renesas/rz_mcu_boards/core_package/generate/os_abstraction/src\r_os_abstraction_api.c ****  * Function Name: vApplicationIdleHook
1946:D:/Work/DeviceTester/amazon-freertos/lib/third_party/mcu_vendor/renesas/rz_mcu_boards/core_package/generate/os_abstraction/src\r_os_abstraction_api.c ****  * Description  : The FreeRTOS idle application hook
1947:D:/Work/DeviceTester/amazon-freertos/lib/third_party/mcu_vendor/renesas/rz_mcu_boards/core_package/generate/os_abstraction/src\r_os_abstraction_api.c ****  * Arguments    : none
1948:D:/Work/DeviceTester/amazon-freertos/lib/third_party/mcu_vendor/renesas/rz_mcu_boards/core_package/generate/os_abstraction/src\r_os_abstraction_api.c ****  * Return Value : none
1949:D:/Work/DeviceTester/amazon-freertos/lib/third_party/mcu_vendor/renesas/rz_mcu_boards/core_package/generate/os_abstraction/src\r_os_abstraction_api.c ****  **************************************************************************************************
1950:D:/Work/DeviceTester/amazon-freertos/lib/third_party/mcu_vendor/renesas/rz_mcu_boards/core_package/generate/os_abstraction/src\r_os_abstraction_api.c **** void vApplicationIdleHook (void)
1951:D:/Work/DeviceTester/amazon-freertos/lib/third_party/mcu_vendor/renesas/rz_mcu_boards/core_package/generate/os_abstraction/src\r_os_abstraction_api.c **** {
 2586              		.loc 1 1951 0
 2587              		.cfi_startproc
 2588              		@ args = 0, pretend = 0, frame = 8
 2589              		@ frame_needed = 0, uses_anonymous_args = 0
 2590 0000 07402DE9 		push	{r0, r1, r2, lr}
 2591              		.cfi_def_cfa_offset 16
 2592              		.cfi_offset 14, -4
1952:D:/Work/DeviceTester/amazon-freertos/lib/third_party/mcu_vendor/renesas/rz_mcu_boards/core_package/generate/os_abstraction/src\r_os_abstraction_api.c ****     volatile size_t x_free_heap_space;
1953:D:/Work/DeviceTester/amazon-freertos/lib/third_party/mcu_vendor/renesas/rz_mcu_boards/core_package/generate/os_abstraction/src\r_os_abstraction_api.c **** 
1954:D:/Work/DeviceTester/amazon-freertos/lib/third_party/mcu_vendor/renesas/rz_mcu_boards/core_package/generate/os_abstraction/src\r_os_abstraction_api.c ****     /* This is just a trivial example of an idle hook.  It is called on each
1955:D:/Work/DeviceTester/amazon-freertos/lib/third_party/mcu_vendor/renesas/rz_mcu_boards/core_package/generate/os_abstraction/src\r_os_abstraction_api.c ****      cycle of the idle task.  It must *NOT* attempt to block.  In this case the
1956:D:/Work/DeviceTester/amazon-freertos/lib/third_party/mcu_vendor/renesas/rz_mcu_boards/core_package/generate/os_abstraction/src\r_os_abstraction_api.c ****      idle task just queries the amount of FreeRTOS heap that remains.  See the
1957:D:/Work/DeviceTester/amazon-freertos/lib/third_party/mcu_vendor/renesas/rz_mcu_boards/core_package/generate/os_abstraction/src\r_os_abstraction_api.c ****      memory management section on the http://www.FreeRTOS.org web site for memory
1958:D:/Work/DeviceTester/amazon-freertos/lib/third_party/mcu_vendor/renesas/rz_mcu_boards/core_package/generate/os_abstraction/src\r_os_abstraction_api.c ****      management options.  If there is a lot of heap memory free then the
1959:D:/Work/DeviceTester/amazon-freertos/lib/third_party/mcu_vendor/renesas/rz_mcu_boards/core_package/generate/os_abstraction/src\r_os_abstraction_api.c ****      configTOTAL_HEAP_SIZE value in FreeRTOSConfig.h can be reduced to free up
1960:D:/Work/DeviceTester/amazon-freertos/lib/third_party/mcu_vendor/renesas/rz_mcu_boards/core_package/generate/os_abstraction/src\r_os_abstraction_api.c ****      RAM. */
1961:D:/Work/DeviceTester/amazon-freertos/lib/third_party/mcu_vendor/renesas/rz_mcu_boards/core_package/generate/os_abstraction/src\r_os_abstraction_api.c ****     x_free_heap_space = xPortGetFreeHeapSize();
 2593              		.loc 1 1961 0
 2594 0004 FEFFFFEB 		bl	xPortGetFreeHeapSize
 2595              	.LVL221:
 2596 0008 04008DE5 		str	r0, [sp, #4]
1962:D:/Work/DeviceTester/amazon-freertos/lib/third_party/mcu_vendor/renesas/rz_mcu_boards/core_package/generate/os_abstraction/src\r_os_abstraction_api.c **** 
1963:D:/Work/DeviceTester/amazon-freertos/lib/third_party/mcu_vendor/renesas/rz_mcu_boards/core_package/generate/os_abstraction/src\r_os_abstraction_api.c ****     /* Remove compiler warning about xFreeHeapSpace being set but never used. */
1964:D:/Work/DeviceTester/amazon-freertos/lib/third_party/mcu_vendor/renesas/rz_mcu_boards/core_package/generate/os_abstraction/src\r_os_abstraction_api.c ****     (void) x_free_heap_space;
 2597              		.loc 1 1964 0
 2598 000c 04309DE5 		ldr	r3, [sp, #4]
1965:D:/Work/DeviceTester/amazon-freertos/lib/third_party/mcu_vendor/renesas/rz_mcu_boards/core_package/generate/os_abstraction/src\r_os_abstraction_api.c **** }
 2599              		.loc 1 1965 0
 2600 0010 0CD08DE2 		add	sp, sp, #12
 2601              		.cfi_def_cfa_offset 4
 2602              		@ sp needed
 2603 0014 04F09DE4 		ldr	pc, [sp], #4
 2604              		.cfi_endproc
 2605              	.LFE61:
 2607              		.section	.text.os_abstraction_isr,"ax",%progbits
 2608              		.align	2
 2609              		.global	os_abstraction_isr
 2610              		.syntax unified
 2611              		.arm
 2612              		.fpu neon
 2614              	os_abstraction_isr:
 2615              	.LFB62:
1966:D:/Work/DeviceTester/amazon-freertos/lib/third_party/mcu_vendor/renesas/rz_mcu_boards/core_package/generate/os_abstraction/src\r_os_abstraction_api.c **** /**************************************************************************************************
1967:D:/Work/DeviceTester/amazon-freertos/lib/third_party/mcu_vendor/renesas/rz_mcu_boards/core_package/generate/os_abstraction/src\r_os_abstraction_api.c ****  End of function  vApplicationIdleHook
1968:D:/Work/DeviceTester/amazon-freertos/lib/third_party/mcu_vendor/renesas/rz_mcu_boards/core_package/generate/os_abstraction/src\r_os_abstraction_api.c ****  **************************************************************************************************
1969:D:/Work/DeviceTester/amazon-freertos/lib/third_party/mcu_vendor/renesas/rz_mcu_boards/core_package/generate/os_abstraction/src\r_os_abstraction_api.c **** 
1970:D:/Work/DeviceTester/amazon-freertos/lib/third_party/mcu_vendor/renesas/rz_mcu_boards/core_package/generate/os_abstraction/src\r_os_abstraction_api.c **** /**************************************************************************************************
1971:D:/Work/DeviceTester/amazon-freertos/lib/third_party/mcu_vendor/renesas/rz_mcu_boards/core_package/generate/os_abstraction/src\r_os_abstraction_api.c ****  * Function Name: os_abstraction_isr
1972:D:/Work/DeviceTester/amazon-freertos/lib/third_party/mcu_vendor/renesas/rz_mcu_boards/core_package/generate/os_abstraction/src\r_os_abstraction_api.c ****  *          Used to perform timing operations (for function like R_OS_TaskSleep()
1973:D:/Work/DeviceTester/amazon-freertos/lib/third_party/mcu_vendor/renesas/rz_mcu_boards/core_package/generate/os_abstraction/src\r_os_abstraction_api.c ****  * @retval test status pass true or false
1974:D:/Work/DeviceTester/amazon-freertos/lib/third_party/mcu_vendor/renesas/rz_mcu_boards/core_package/generate/os_abstraction/src\r_os_abstraction_api.c ****  **************************************************************************************************
1975:D:/Work/DeviceTester/amazon-freertos/lib/third_party/mcu_vendor/renesas/rz_mcu_boards/core_package/generate/os_abstraction/src\r_os_abstraction_api.c **** void os_abstraction_isr (void)
1976:D:/Work/DeviceTester/amazon-freertos/lib/third_party/mcu_vendor/renesas/rz_mcu_boards/core_package/generate/os_abstraction/src\r_os_abstraction_api.c **** {
 2616              		.loc 1 1976 0
 2617              		.cfi_startproc
 2618              		@ args = 0, pretend = 0, frame = 0
 2619              		@ frame_needed = 0, uses_anonymous_args = 0
 2620              		@ link register save eliminated.
 2621              	.LBB26:
 2622              	.LBB27:
 2623              		.loc 2 47 0
 2624              		.syntax divided
 2625              	@ 47 "D:\Work\DeviceTester\amazon-freertos\lib\third_party\mcu_vendor\renesas\rz_mcu_boards\core_pa
 2626 0000 00F020E3 		nop
 2627              	@ 0 "" 2
 2628              		.arm
 2629              		.syntax unified
 2630 0004 1EFF2FE1 		bx	lr
 2631              	.LBE27:
 2632              	.LBE26:
 2633              		.cfi_endproc
 2634              	.LFE62:
 2636              		.weak	xHeapRegions
 2637              		.comm	uxSavedInterruptStatus,4,4
 2638              		.global	ucHeap
 2639              		.section	.bss.s_event_count,"aw",%nobits
 2640              		.align	2
 2641              		.set	.LANCHOR8,. + 0
 2644              	s_event_count:
 2645 0000 00000000 		.space	4
 2646              		.section	.bss.s_event_max,"aw",%nobits
 2647              		.align	2
 2648              		.set	.LANCHOR9,. + 0
 2651              	s_event_max:
 2652 0000 00000000 		.space	4
 2653              		.section	.bss.s_file,"aw",%nobits
 2654              		.set	.LANCHOR5,. + 0
 2657              	s_file:
 2658 0000 00000000 		.space	200
 2658      00000000 
 2658      00000000 
 2658      00000000 
 2658      00000000 
 2659              		.section	.bss.s_line,"aw",%nobits
 2660              		.align	2
 2661              		.set	.LANCHOR6,. + 0
 2664              	s_line:
 2665 0000 00000000 		.space	4
 2666              		.section	.bss.s_os_running,"aw",%nobits
 2667              		.align	2
 2668              		.set	.LANCHOR0,. + 0
 2671              	s_os_running:
 2672 0000 00000000 		.space	4
 2673              		.section	.bss.s_pstream_mutex,"aw",%nobits
 2674              		.align	2
 2675              		.set	.LANCHOR4,. + 0
 2678              	s_pstream_mutex:
 2679 0000 00000000 		.space	4
 2680              		.section	.bss.sp_task_handle,"aw",%nobits
 2681              		.align	2
 2682              		.set	.LANCHOR3,. + 0
 2685              	sp_task_handle:
 2686 0000 00000000 		.space	4
 2687              		.section	.bss.xHeapRegions,"aw",%nobits
 2688              		.align	2
 2691              	xHeapRegions:
 2692 0000 00000000 		.space	16
 2692      00000000 
 2692      00000000 
 2692      00000000 
 2693              		.section	.freertos_heap,"aw",%progbits
 2694              		.set	.LANCHOR1,. + 0
 2697              	ucHeap:
 2698 0000 00000000 		.space	4194304
 2698      00000000 
 2698      00000000 
 2698      00000000 
 2698      00000000 
 2699              		.section	.rodata.R_OS_AssertCalled.str1.1,"aMS",%progbits,1
 2700              	.LC0:
 2701 0000 0D0A525F 		.ascii	"\015\012R_OS_Assert. File :%s\000"
 2701      4F535F41 
 2701      73736572 
 2701      742E2046 
 2701      696C6520 
 2702              	.LC1:
 2703 0018 0D0A204C 		.ascii	"\015\012 Line %d\015\012:(\015\012\000"
 2703      696E6520 
 2703      25640D0A 
 2703      3A280D0A 
 2703      00
 2704              	.LC2:
 2705 0029 43757272 		.ascii	"Current task: %s\015\012\000"
 2705      656E7420 
 2705      7461736B 
 2705      3A202573 
 2705      0D0A00
 2706              		.section	.rodata.R_OS_GetVersion.str1.1,"aMS",%progbits,1
 2707              	.LC4:
 2708 0000 46726565 		.ascii	"FreeRTOS OS Abstraction\000"
 2708      52544F53 
 2708      204F5320 
 2708      41627374 
 2708      72616374 
 2709              		.section	.rodata.R_OS_TaskGetState.str1.1,"aMS",%progbits,1
 2710              	.LC3:
 2711 0000 43616E6E 		.ascii	"Cannot get memory for threads list\015\000"
 2711      6F742067 
 2711      6574206D 
 2711      656D6F72 
 2711      7920666F 
 2712              		.section	.rodata.s_startup_task_name_str,"a",%progbits
 2713              		.set	.LANCHOR2,. + 0
 2716              	s_startup_task_name_str:
 2717 0000 4D61696E 		.ascii	"Main\000"
 2717      00
 2718              		.section	.rodata.sp_status_name.71715,"a",%progbits
 2719              		.align	2
 2720              		.set	.LANCHOR7,. + 0
 2723              	sp_status_name.71715:
 2724 0000 00000000 		.word	.LC6
 2725 0004 08000000 		.word	.LC7
 2726 0008 0E000000 		.word	.LC8
 2727 000c 16000000 		.word	.LC9
 2728 0010 20000000 		.word	.LC10
 2729 0014 28000000 		.word	.LC11
 2730              		.section	.rodata.str1.1,"aMS",%progbits,1
 2731              	.LC6:
 2732 0000 52756E6E 		.ascii	"Running\000"
 2732      696E6700 
 2733              	.LC7:
 2734 0008 52656164 		.ascii	"Ready\000"
 2734      7900
 2735              	.LC8:
 2736 000e 426C6F63 		.ascii	"Blocked\000"
 2736      6B656400 
 2737              	.LC9:
 2738 0016 53757370 		.ascii	"Suspended\000"
 2738      656E6465 
 2738      6400
 2739              	.LC10:
 2740 0020 44656C65 		.ascii	"Deleted\000"
 2740      74656400 
 2741              	.LC11:
 2742 0028 496E7661 		.ascii	"Invalid\000"
 2742      6C696400 
 2743              		.section	.rodata.vApplicationStackOverflowHook.str1.1,"aMS",%progbits,1
 2744              	.LC5:
 2745 0000 53746163 		.ascii	"Stack overflow occured at in %s \012\015\000"
 2745      6B206F76 
 2745      6572666C 
 2745      6F77206F 
 2745      63637572 
 2746              		.text
 2747              	.Letext0:
 2748              		.file 3 "c:\\program files (x86)\\gnu tools arm embedded\\6 2017-q2-update\\arm-none-eabi\\include
 2749              		.file 4 "c:\\program files (x86)\\gnu tools arm embedded\\6 2017-q2-update\\lib\\gcc\\arm-none-eab
 2750              		.file 5 "c:\\program files (x86)\\gnu tools arm embedded\\6 2017-q2-update\\arm-none-eabi\\include
 2751              		.file 6 "c:\\program files (x86)\\gnu tools arm embedded\\6 2017-q2-update\\arm-none-eabi\\include
 2752              		.file 7 "c:\\program files (x86)\\gnu tools arm embedded\\6 2017-q2-update\\arm-none-eabi\\include
 2753              		.file 8 "c:\\program files (x86)\\gnu tools arm embedded\\6 2017-q2-update\\arm-none-eabi\\include
 2754              		.file 9 "c:\\program files (x86)\\gnu tools arm embedded\\6 2017-q2-update\\arm-none-eabi\\include
 2755              		.file 10 "c:\\program files (x86)\\gnu tools arm embedded\\6 2017-q2-update\\arm-none-eabi\\includ
 2756              		.file 11 "D:\\Work\\DeviceTester\\amazon-freertos\\lib\\third_party\\mcu_vendor\\renesas\\rz_mcu_b
 2757              		.file 12 "c:\\program files (x86)\\gnu tools arm embedded\\6 2017-q2-update\\arm-none-eabi\\includ
 2758              		.file 13 "D:\\Work\\DeviceTester\\amazon-freertos\\lib\\third_party\\mcu_vendor\\renesas\\rz_mcu_b
 2759              		.file 14 "c:\\program files (x86)\\gnu tools arm embedded\\6 2017-q2-update\\arm-none-eabi\\includ
 2760              		.file 15 "D:\\Work\\DeviceTester\\amazon-freertos\\lib\\third_party\\unity\\src/unity_internals.h"
 2761              		.file 16 "D:\\Work\\DeviceTester\\amazon-freertos\\lib\\include\\private/projdefs.h"
 2762              		.file 17 "D:\\Work\\DeviceTester\\amazon-freertos\\lib\\FreeRTOS\\portable\\GCC\\ARM_CA9_RZA2M/por
 2763              		.file 18 "D:\\Work\\DeviceTester\\amazon-freertos\\lib\\include\\private/portable.h"
 2764              		.file 19 "D:\\Work\\DeviceTester\\amazon-freertos\\lib\\include/task.h"
 2765              		.file 20 "D:\\Work\\DeviceTester\\amazon-freertos\\lib\\include/queue.h"
 2766              		.file 21 "D:\\Work\\DeviceTester\\amazon-freertos\\lib\\include/semphr.h"
 2767              		.file 22 "D:\\Work\\DeviceTester\\amazon-freertos\\lib\\third_party\\mcu_vendor\\renesas\\rz_mcu_b
 2768              		.file 23 "D:\\Work\\DeviceTester\\amazon-freertos\\lib\\third_party\\mcu_vendor\\renesas\\rz_mcu_b
 2769              		.file 24 "D:\\Work\\DeviceTester\\amazon-freertos\\lib\\third_party\\mcu_vendor\\renesas\\rz_mcu_b
 2770              		.file 25 "D:\\Work\\DeviceTester\\amazon-freertos\\lib\\third_party\\mcu_vendor\\renesas\\rz_mcu_b
 2771              		.file 26 "c:\\program files (x86)\\gnu tools arm embedded\\6 2017-q2-update\\arm-none-eabi\\includ
 2772              		.file 27 "c:\\program files (x86)\\gnu tools arm embedded\\6 2017-q2-update\\arm-none-eabi\\includ
 2773              		.file 28 "D:\\Work\\DeviceTester\\amazon-freertos\\lib\\third_party\\mcu_vendor\\renesas\\rz_mcu_b
 2774              		.file 29 "c:\\program files (x86)\\gnu tools arm embedded\\6 2017-q2-update\\arm-none-eabi\\includ
 2775              		.file 30 "<built-in>"
DEFINED SYMBOLS
                            *ABS*:00000000 r_os_abstraction_api.c
C:\Users\a5089698\AppData\Local\Temp\ccbuwIV7.s:17     .text.main_task:00000000 $a
C:\Users\a5089698\AppData\Local\Temp\ccbuwIV7.s:22     .text.main_task:00000000 main_task
C:\Users\a5089698\AppData\Local\Temp\ccbuwIV7.s:48     .text.main_task:00000018 $d
C:\Users\a5089698\AppData\Local\Temp\ccbuwIV7.s:53     .text.pvPortsetDesiredBlockForMalloc:00000000 $a
C:\Users\a5089698\AppData\Local\Temp\ccbuwIV7.s:59     .text.pvPortsetDesiredBlockForMalloc:00000000 pvPortsetDesiredBlockForMalloc
C:\Users\a5089698\AppData\Local\Temp\ccbuwIV7.s:84     .text.R_OS_AbstractionLayerShutdown:00000000 $a
C:\Users\a5089698\AppData\Local\Temp\ccbuwIV7.s:90     .text.R_OS_AbstractionLayerShutdown:00000000 R_OS_AbstractionLayerShutdown
C:\Users\a5089698\AppData\Local\Temp\ccbuwIV7.s:115    .text.R_OS_Running:00000000 $a
C:\Users\a5089698\AppData\Local\Temp\ccbuwIV7.s:121    .text.R_OS_Running:00000000 R_OS_Running
C:\Users\a5089698\AppData\Local\Temp\ccbuwIV7.s:135    .text.R_OS_Running:0000000c $d
C:\Users\a5089698\AppData\Local\Temp\ccbuwIV7.s:140    .text.R_OS_KernelStart:00000000 $a
C:\Users\a5089698\AppData\Local\Temp\ccbuwIV7.s:146    .text.R_OS_KernelStart:00000000 R_OS_KernelStart
C:\Users\a5089698\AppData\Local\Temp\ccbuwIV7.s:160    .text.R_OS_KernelStop:00000000 $a
C:\Users\a5089698\AppData\Local\Temp\ccbuwIV7.s:166    .text.R_OS_KernelStop:00000000 R_OS_KernelStop
C:\Users\a5089698\AppData\Local\Temp\ccbuwIV7.s:180    .text.R_OS_InitMemManager:00000000 $a
C:\Users\a5089698\AppData\Local\Temp\ccbuwIV7.s:186    .text.R_OS_InitMemManager:00000000 R_OS_InitMemManager
C:\Users\a5089698\AppData\Local\Temp\ccbuwIV7.s:221    .text.R_OS_InitMemManager:00000038 $d
C:\Users\a5089698\AppData\Local\Temp\ccbuwIV7.s:2691   .bss.xHeapRegions:00000000 xHeapRegions
C:\Users\a5089698\AppData\Local\Temp\ccbuwIV7.s:229    .text.R_OS_KernelInit:00000000 $a
C:\Users\a5089698\AppData\Local\Temp\ccbuwIV7.s:235    .text.R_OS_KernelInit:00000000 R_OS_KernelInit
C:\Users\a5089698\AppData\Local\Temp\ccbuwIV7.s:300    .text.R_OS_KernelInit:0000005c $d
C:\Users\a5089698\AppData\Local\Temp\ccbuwIV7.s:309    .text.R_OS_AbstractionLayerInit:00000000 $a
C:\Users\a5089698\AppData\Local\Temp\ccbuwIV7.s:315    .text.R_OS_AbstractionLayerInit:00000000 R_OS_AbstractionLayerInit
C:\Users\a5089698\AppData\Local\Temp\ccbuwIV7.s:333    .text.R_OS_TaskCreate:00000000 $a
C:\Users\a5089698\AppData\Local\Temp\ccbuwIV7.s:339    .text.R_OS_TaskCreate:00000000 R_OS_TaskCreate
C:\Users\a5089698\AppData\Local\Temp\ccbuwIV7.s:359    .text.R_OS_TaskCreate:00000018 $d
C:\Users\a5089698\AppData\Local\Temp\ccbuwIV7.s:366    .text.R_OS_TaskCreate:0000002c $a
C:\Users\a5089698\AppData\Local\Temp\ccbuwIV7.s:434    .text.R_OS_TaskDelete:00000000 $a
C:\Users\a5089698\AppData\Local\Temp\ccbuwIV7.s:440    .text.R_OS_TaskDelete:00000000 R_OS_TaskDelete
C:\Users\a5089698\AppData\Local\Temp\ccbuwIV7.s:478    .text.R_OS_TaskSleep:00000000 $a
C:\Users\a5089698\AppData\Local\Temp\ccbuwIV7.s:484    .text.R_OS_TaskSleep:00000000 R_OS_TaskSleep
C:\Users\a5089698\AppData\Local\Temp\ccbuwIV7.s:499    .text.R_OS_TaskYield:00000000 $a
C:\Users\a5089698\AppData\Local\Temp\ccbuwIV7.s:505    .text.R_OS_TaskYield:00000000 R_OS_TaskYield
C:\Users\a5089698\AppData\Local\Temp\ccbuwIV7.s:524    .text.R_OS_TaskSuspend:00000000 $a
C:\Users\a5089698\AppData\Local\Temp\ccbuwIV7.s:530    .text.R_OS_TaskSuspend:00000000 R_OS_TaskSuspend
C:\Users\a5089698\AppData\Local\Temp\ccbuwIV7.s:567    .text.R_OS_TaskResume:00000000 $a
C:\Users\a5089698\AppData\Local\Temp\ccbuwIV7.s:573    .text.R_OS_TaskResume:00000000 R_OS_TaskResume
C:\Users\a5089698\AppData\Local\Temp\ccbuwIV7.s:609    .text.R_OS_TasksSuspendAll:00000000 $a
C:\Users\a5089698\AppData\Local\Temp\ccbuwIV7.s:615    .text.R_OS_TasksSuspendAll:00000000 R_OS_TasksSuspendAll
C:\Users\a5089698\AppData\Local\Temp\ccbuwIV7.s:642    .text.R_OS_TasksResumeAll:00000000 $a
C:\Users\a5089698\AppData\Local\Temp\ccbuwIV7.s:648    .text.R_OS_TasksResumeAll:00000000 R_OS_TasksResumeAll
C:\Users\a5089698\AppData\Local\Temp\ccbuwIV7.s:675    .text.R_OS_TasksGetNumber:00000000 $a
C:\Users\a5089698\AppData\Local\Temp\ccbuwIV7.s:681    .text.R_OS_TasksGetNumber:00000000 R_OS_TasksGetNumber
C:\Users\a5089698\AppData\Local\Temp\ccbuwIV7.s:715    .text.R_OS_TaskUsesFloatingPoint:00000000 $a
C:\Users\a5089698\AppData\Local\Temp\ccbuwIV7.s:721    .text.R_OS_TaskUsesFloatingPoint:00000000 R_OS_TaskUsesFloatingPoint
C:\Users\a5089698\AppData\Local\Temp\ccbuwIV7.s:735    .text.R_OS_TaskGetPriority:00000000 $a
C:\Users\a5089698\AppData\Local\Temp\ccbuwIV7.s:741    .text.R_OS_TaskGetPriority:00000000 R_OS_TaskGetPriority
C:\Users\a5089698\AppData\Local\Temp\ccbuwIV7.s:764    .text.R_OS_TaskSetPriority:00000000 $a
C:\Users\a5089698\AppData\Local\Temp\ccbuwIV7.s:770    .text.R_OS_TaskSetPriority:00000000 R_OS_TaskSetPriority
C:\Users\a5089698\AppData\Local\Temp\ccbuwIV7.s:805    .text.R_OS_TaskGetCurrentHandle:00000000 $a
C:\Users\a5089698\AppData\Local\Temp\ccbuwIV7.s:811    .text.R_OS_TaskGetCurrentHandle:00000000 R_OS_TaskGetCurrentHandle
C:\Users\a5089698\AppData\Local\Temp\ccbuwIV7.s:825    .text.R_OS_TaskGetCurrentName:00000000 $a
C:\Users\a5089698\AppData\Local\Temp\ccbuwIV7.s:831    .text.R_OS_TaskGetCurrentName:00000000 R_OS_TaskGetCurrentName
C:\Users\a5089698\AppData\Local\Temp\ccbuwIV7.s:861    .text.R_OS_SysLock:00000000 $a
C:\Users\a5089698\AppData\Local\Temp\ccbuwIV7.s:867    .text.R_OS_SysLock:00000000 R_OS_SysLock
C:\Users\a5089698\AppData\Local\Temp\ccbuwIV7.s:905    .text.R_OS_SysLock:00000034 $d
                            *COM*:00000004 uxSavedInterruptStatus
C:\Users\a5089698\AppData\Local\Temp\ccbuwIV7.s:911    .text.R_OS_SysUnlock:00000000 $a
C:\Users\a5089698\AppData\Local\Temp\ccbuwIV7.s:917    .text.R_OS_SysUnlock:00000000 R_OS_SysUnlock
C:\Users\a5089698\AppData\Local\Temp\ccbuwIV7.s:941    .text.R_OS_SysUnlock:00000020 $d
C:\Users\a5089698\AppData\Local\Temp\ccbuwIV7.s:947    .text.R_OS_SysWaitAccess:00000000 $a
C:\Users\a5089698\AppData\Local\Temp\ccbuwIV7.s:953    .text.R_OS_SysWaitAccess:00000000 R_OS_SysWaitAccess
C:\Users\a5089698\AppData\Local\Temp\ccbuwIV7.s:1003   .text.R_OS_SysWaitAccess:00000060 $d
C:\Users\a5089698\AppData\Local\Temp\ccbuwIV7.s:1010   .text.R_OS_SysReleaseAccess:00000000 $a
C:\Users\a5089698\AppData\Local\Temp\ccbuwIV7.s:1016   .text.R_OS_SysReleaseAccess:00000000 R_OS_SysReleaseAccess
C:\Users\a5089698\AppData\Local\Temp\ccbuwIV7.s:1044   .text.R_OS_SysReleaseAccess:00000030 $d
C:\Users\a5089698\AppData\Local\Temp\ccbuwIV7.s:1051   .text.R_OS_AssertCalled:00000000 $a
C:\Users\a5089698\AppData\Local\Temp\ccbuwIV7.s:1057   .text.R_OS_AssertCalled:00000000 R_OS_AssertCalled
C:\Users\a5089698\AppData\Local\Temp\ccbuwIV7.s:1166   .text.R_OS_AssertCalled:000000c4 $d
C:\Users\a5089698\AppData\Local\Temp\ccbuwIV7.s:1177   .text.R_OS_Malloc:00000000 $a
C:\Users\a5089698\AppData\Local\Temp\ccbuwIV7.s:1183   .text.R_OS_Malloc:00000000 R_OS_Malloc
C:\Users\a5089698\AppData\Local\Temp\ccbuwIV7.s:1226   .text.R_OS_Malloc:0000003c $d
C:\Users\a5089698\AppData\Local\Temp\ccbuwIV7.s:1231   .text.R_OS_Free:00000000 $a
C:\Users\a5089698\AppData\Local\Temp\ccbuwIV7.s:1237   .text.R_OS_Free:00000000 R_OS_Free
C:\Users\a5089698\AppData\Local\Temp\ccbuwIV7.s:1267   .text.R_OS_TaskGetState:00000000 $a
C:\Users\a5089698\AppData\Local\Temp\ccbuwIV7.s:1273   .text.R_OS_TaskGetState:00000000 R_OS_TaskGetState
C:\Users\a5089698\AppData\Local\Temp\ccbuwIV7.s:1404   .text.R_OS_TaskGetState:000000cc $d
C:\Users\a5089698\AppData\Local\Temp\ccbuwIV7.s:1410   .text.R_OS_SemaphoreCreate:00000000 $a
C:\Users\a5089698\AppData\Local\Temp\ccbuwIV7.s:1416   .text.R_OS_SemaphoreCreate:00000000 R_OS_SemaphoreCreate
C:\Users\a5089698\AppData\Local\Temp\ccbuwIV7.s:1457   .text.R_OS_SemaphoreDelete:00000000 $a
C:\Users\a5089698\AppData\Local\Temp\ccbuwIV7.s:1463   .text.R_OS_SemaphoreDelete:00000000 R_OS_SemaphoreDelete
C:\Users\a5089698\AppData\Local\Temp\ccbuwIV7.s:1499   .text.R_OS_SemaphoreWait:00000000 $a
C:\Users\a5089698\AppData\Local\Temp\ccbuwIV7.s:1505   .text.R_OS_SemaphoreWait:00000000 R_OS_SemaphoreWait
C:\Users\a5089698\AppData\Local\Temp\ccbuwIV7.s:1555   .text.R_OS_SemaphoreWait:00000048 $d
C:\Users\a5089698\AppData\Local\Temp\ccbuwIV7.s:1560   .text.R_OS_SemaphoreRelease:00000000 $a
C:\Users\a5089698\AppData\Local\Temp\ccbuwIV7.s:1566   .text.R_OS_SemaphoreRelease:00000000 R_OS_SemaphoreRelease
C:\Users\a5089698\AppData\Local\Temp\ccbuwIV7.s:1597   .text.R_OS_SemaphoreRelease:00000030 $d
C:\Users\a5089698\AppData\Local\Temp\ccbuwIV7.s:1602   .text.R_OS_MutexCreate:00000000 $a
C:\Users\a5089698\AppData\Local\Temp\ccbuwIV7.s:1608   .text.R_OS_MutexCreate:00000000 R_OS_MutexCreate
C:\Users\a5089698\AppData\Local\Temp\ccbuwIV7.s:1623   .text.R_OS_MutexDelete:00000000 $a
C:\Users\a5089698\AppData\Local\Temp\ccbuwIV7.s:1629   .text.R_OS_MutexDelete:00000000 R_OS_MutexDelete
C:\Users\a5089698\AppData\Local\Temp\ccbuwIV7.s:1655   .text.R_OS_MutexAcquire:00000000 $a
C:\Users\a5089698\AppData\Local\Temp\ccbuwIV7.s:1661   .text.R_OS_MutexAcquire:00000000 R_OS_MutexAcquire
C:\Users\a5089698\AppData\Local\Temp\ccbuwIV7.s:1677   .text.R_OS_MutexRelease:00000000 $a
C:\Users\a5089698\AppData\Local\Temp\ccbuwIV7.s:1683   .text.R_OS_MutexRelease:00000000 R_OS_MutexRelease
C:\Users\a5089698\AppData\Local\Temp\ccbuwIV7.s:1701   .text.R_OS_MutexWait:00000000 $a
C:\Users\a5089698\AppData\Local\Temp\ccbuwIV7.s:1707   .text.R_OS_MutexWait:00000000 R_OS_MutexWait
C:\Users\a5089698\AppData\Local\Temp\ccbuwIV7.s:1752   .text.R_OS_EnterCritical:00000000 $a
C:\Users\a5089698\AppData\Local\Temp\ccbuwIV7.s:1758   .text.R_OS_EnterCritical:00000000 R_OS_EnterCritical
C:\Users\a5089698\AppData\Local\Temp\ccbuwIV7.s:1772   .text.R_OS_ExitCritical:00000000 $a
C:\Users\a5089698\AppData\Local\Temp\ccbuwIV7.s:1778   .text.R_OS_ExitCritical:00000000 R_OS_ExitCritical
C:\Users\a5089698\AppData\Local\Temp\ccbuwIV7.s:1792   .text.R_OS_MessageQueueCreate:00000000 $a
C:\Users\a5089698\AppData\Local\Temp\ccbuwIV7.s:1798   .text.R_OS_MessageQueueCreate:00000000 R_OS_MessageQueueCreate
C:\Users\a5089698\AppData\Local\Temp\ccbuwIV7.s:1834   .text.R_OS_MessageQueuePut:00000000 $a
C:\Users\a5089698\AppData\Local\Temp\ccbuwIV7.s:1840   .text.R_OS_MessageQueuePut:00000000 R_OS_MessageQueuePut
C:\Users\a5089698\AppData\Local\Temp\ccbuwIV7.s:1900   .text.R_OS_MessageQueuePut:00000058 $d
C:\Users\a5089698\AppData\Local\Temp\ccbuwIV7.s:1905   .text.R_OS_MessageQueueGet:00000000 $a
C:\Users\a5089698\AppData\Local\Temp\ccbuwIV7.s:1911   .text.R_OS_MessageQueueGet:00000000 R_OS_MessageQueueGet
C:\Users\a5089698\AppData\Local\Temp\ccbuwIV7.s:1988   .text.R_OS_MessageQueueClear:00000000 $a
C:\Users\a5089698\AppData\Local\Temp\ccbuwIV7.s:1994   .text.R_OS_MessageQueueClear:00000000 R_OS_MessageQueueClear
C:\Users\a5089698\AppData\Local\Temp\ccbuwIV7.s:2029   .text.R_OS_MessageQueueDelete:00000000 $a
C:\Users\a5089698\AppData\Local\Temp\ccbuwIV7.s:2035   .text.R_OS_MessageQueueDelete:00000000 R_OS_MessageQueueDelete
C:\Users\a5089698\AppData\Local\Temp\ccbuwIV7.s:2068   .text.R_OS_EventCreate:00000000 $a
C:\Users\a5089698\AppData\Local\Temp\ccbuwIV7.s:2074   .text.R_OS_EventCreate:00000000 R_OS_EventCreate
C:\Users\a5089698\AppData\Local\Temp\ccbuwIV7.s:2128   .text.R_OS_EventCreate:00000058 $d
C:\Users\a5089698\AppData\Local\Temp\ccbuwIV7.s:2134   .text.R_OS_EventDelete:00000000 $a
C:\Users\a5089698\AppData\Local\Temp\ccbuwIV7.s:2140   .text.R_OS_EventDelete:00000000 R_OS_EventDelete
C:\Users\a5089698\AppData\Local\Temp\ccbuwIV7.s:2174   .text.R_OS_EventDelete:00000034 $d
C:\Users\a5089698\AppData\Local\Temp\ccbuwIV7.s:2179   .text.R_OS_EventSet:00000000 $a
C:\Users\a5089698\AppData\Local\Temp\ccbuwIV7.s:2185   .text.R_OS_EventSet:00000000 R_OS_EventSet
C:\Users\a5089698\AppData\Local\Temp\ccbuwIV7.s:2233   .text.R_OS_EventSet:00000044 $d
C:\Users\a5089698\AppData\Local\Temp\ccbuwIV7.s:2238   .text.R_OS_EventReset:00000000 $a
C:\Users\a5089698\AppData\Local\Temp\ccbuwIV7.s:2244   .text.R_OS_EventReset:00000000 R_OS_EventReset
C:\Users\a5089698\AppData\Local\Temp\ccbuwIV7.s:2295   .text.R_OS_EventReset:00000044 $d
C:\Users\a5089698\AppData\Local\Temp\ccbuwIV7.s:2300   .text.R_OS_EventGet:00000000 $a
C:\Users\a5089698\AppData\Local\Temp\ccbuwIV7.s:2306   .text.R_OS_EventGet:00000000 R_OS_EventGet
C:\Users\a5089698\AppData\Local\Temp\ccbuwIV7.s:2349   .text.R_OS_EventGet:0000003c $d
C:\Users\a5089698\AppData\Local\Temp\ccbuwIV7.s:2354   .text.R_OS_EventWait:00000000 $a
C:\Users\a5089698\AppData\Local\Temp\ccbuwIV7.s:2360   .text.R_OS_EventWait:00000000 R_OS_EventWait
C:\Users\a5089698\AppData\Local\Temp\ccbuwIV7.s:2435   .text.R_OS_EventSetFromIsr:00000000 $a
C:\Users\a5089698\AppData\Local\Temp\ccbuwIV7.s:2441   .text.R_OS_EventSetFromIsr:00000000 R_OS_EventSetFromIsr
C:\Users\a5089698\AppData\Local\Temp\ccbuwIV7.s:2478   .text.R_OS_GetTickCount:00000000 $a
C:\Users\a5089698\AppData\Local\Temp\ccbuwIV7.s:2484   .text.R_OS_GetTickCount:00000000 R_OS_GetTickCount
C:\Users\a5089698\AppData\Local\Temp\ccbuwIV7.s:2498   .text.R_OS_GetVersion:00000000 $a
C:\Users\a5089698\AppData\Local\Temp\ccbuwIV7.s:2504   .text.R_OS_GetVersion:00000000 R_OS_GetVersion
C:\Users\a5089698\AppData\Local\Temp\ccbuwIV7.s:2531   .text.R_OS_GetVersion:00000028 $d
C:\Users\a5089698\AppData\Local\Temp\ccbuwIV7.s:2536   .text.vApplicationStackOverflowHook:00000000 $a
C:\Users\a5089698\AppData\Local\Temp\ccbuwIV7.s:2542   .text.vApplicationStackOverflowHook:00000000 vApplicationStackOverflowHook
C:\Users\a5089698\AppData\Local\Temp\ccbuwIV7.s:2572   .text.vApplicationStackOverflowHook:00000024 $d
C:\Users\a5089698\AppData\Local\Temp\ccbuwIV7.s:2578   .text.vApplicationIdleHook:00000000 $a
C:\Users\a5089698\AppData\Local\Temp\ccbuwIV7.s:2584   .text.vApplicationIdleHook:00000000 vApplicationIdleHook
C:\Users\a5089698\AppData\Local\Temp\ccbuwIV7.s:2608   .text.os_abstraction_isr:00000000 $a
C:\Users\a5089698\AppData\Local\Temp\ccbuwIV7.s:2614   .text.os_abstraction_isr:00000000 os_abstraction_isr
C:\Users\a5089698\AppData\Local\Temp\ccbuwIV7.s:2697   .freertos_heap:00000000 ucHeap
C:\Users\a5089698\AppData\Local\Temp\ccbuwIV7.s:2640   .bss.s_event_count:00000000 $d
C:\Users\a5089698\AppData\Local\Temp\ccbuwIV7.s:2644   .bss.s_event_count:00000000 s_event_count
C:\Users\a5089698\AppData\Local\Temp\ccbuwIV7.s:2647   .bss.s_event_max:00000000 $d
C:\Users\a5089698\AppData\Local\Temp\ccbuwIV7.s:2651   .bss.s_event_max:00000000 s_event_max
C:\Users\a5089698\AppData\Local\Temp\ccbuwIV7.s:2657   .bss.s_file:00000000 s_file
C:\Users\a5089698\AppData\Local\Temp\ccbuwIV7.s:2658   .bss.s_file:00000000 $d
C:\Users\a5089698\AppData\Local\Temp\ccbuwIV7.s:2660   .bss.s_line:00000000 $d
C:\Users\a5089698\AppData\Local\Temp\ccbuwIV7.s:2664   .bss.s_line:00000000 s_line
C:\Users\a5089698\AppData\Local\Temp\ccbuwIV7.s:2667   .bss.s_os_running:00000000 $d
C:\Users\a5089698\AppData\Local\Temp\ccbuwIV7.s:2671   .bss.s_os_running:00000000 s_os_running
C:\Users\a5089698\AppData\Local\Temp\ccbuwIV7.s:2674   .bss.s_pstream_mutex:00000000 $d
C:\Users\a5089698\AppData\Local\Temp\ccbuwIV7.s:2678   .bss.s_pstream_mutex:00000000 s_pstream_mutex
C:\Users\a5089698\AppData\Local\Temp\ccbuwIV7.s:2681   .bss.sp_task_handle:00000000 $d
C:\Users\a5089698\AppData\Local\Temp\ccbuwIV7.s:2685   .bss.sp_task_handle:00000000 sp_task_handle
C:\Users\a5089698\AppData\Local\Temp\ccbuwIV7.s:2688   .bss.xHeapRegions:00000000 $d
C:\Users\a5089698\AppData\Local\Temp\ccbuwIV7.s:2698   .freertos_heap:00000000 $d
C:\Users\a5089698\AppData\Local\Temp\ccbuwIV7.s:2716   .rodata.s_startup_task_name_str:00000000 s_startup_task_name_str
C:\Users\a5089698\AppData\Local\Temp\ccbuwIV7.s:2719   .rodata.sp_status_name.71715:00000000 $d
C:\Users\a5089698\AppData\Local\Temp\ccbuwIV7.s:2723   .rodata.sp_status_name.71715:00000000 sp_status_name.71715
                     .debug_frame:00000010 $d

UNDEFINED SYMBOLS
os_main_task_t
vTaskEndScheduler
vTaskStartScheduler
vPortDefineHeapRegions
__freertos_heap_start
__freertos_heap_end
R_DEVLINK_Init
initialise_monitor_handles
xTaskCreate
longjmp
Unity
vTaskDelete
vTaskDelay
eTaskGetState
vTaskSuspend
vTaskResume
xTaskGetSchedulerState
vTaskSuspendAll
xTaskResumeAll
uxTaskGetNumberOfTasks
vPortTaskUsesFPU
uxTaskPriorityGet
vTaskPrioritySet
xTaskGetCurrentTaskHandle
vTaskGetInfo
vPortEnterCritical
ulPortSetInterruptMask
ulPortInterruptNesting
vPortExitCritical
vPortClearInterruptMask
xQueueCreateMutex
xQueueSemaphoreTake
xQueueGenericSend
memset
strncpy
printf
fflush
_impure_ptr
pvPortMalloc
vPortFree
puts
uxTaskGetSystemState
strcmp
xQueueCreateCountingSemaphore
vQueueDelete
xQueueReceiveFromISR
xQueueGiveFromISR
xQueueGenericCreate
xQueueGenericSendFromISR
xQueueReceive
xQueueGenericReset
xQueuePeekFromISR
xQueuePeek
xTaskGetTickCount
xPortGetFreeHeapSize
