   1              		.cpu cortex-a9
   2              		.eabi_attribute 28, 1
   3              		.eabi_attribute 20, 1
   4              		.eabi_attribute 21, 1
   5              		.eabi_attribute 23, 3
   6              		.eabi_attribute 24, 1
   7              		.eabi_attribute 25, 1
   8              		.eabi_attribute 26, 1
   9              		.eabi_attribute 30, 4
  10              		.eabi_attribute 34, 0
  11              		.eabi_attribute 18, 4
  12              		.file	"aws_test_mqtt_agent.c"
  13              		.text
  14              	.Ltext0:
  15              		.cfi_sections	.debug_frame
  16              		.section	.text.TEST_Full_MQTT_Agent_ALPN_TEAR_DOWN,"ax",%progbits
  17              		.align	2
  18              		.global	TEST_Full_MQTT_Agent_ALPN_TEAR_DOWN
  19              		.syntax unified
  20              		.arm
  21              		.fpu neon
  23              	TEST_Full_MQTT_Agent_ALPN_TEAR_DOWN:
  24              	.LFB9:
  25              		.file 1 "D:/Work/DeviceTester/amazon-freertos/tests/common/mqtt/aws_test_mqtt_agent.c"
   1:D:/Work/DeviceTester/amazon-freertos/tests/common/mqtt\aws_test_mqtt_agent.c **** /*
   2:D:/Work/DeviceTester/amazon-freertos/tests/common/mqtt\aws_test_mqtt_agent.c ****  * Amazon FreeRTOS MQTT AFQP V1.1.4
   3:D:/Work/DeviceTester/amazon-freertos/tests/common/mqtt\aws_test_mqtt_agent.c ****  * Copyright (C) 2018 Amazon.com, Inc. or its affiliates.  All Rights Reserved.
   4:D:/Work/DeviceTester/amazon-freertos/tests/common/mqtt\aws_test_mqtt_agent.c ****  *
   5:D:/Work/DeviceTester/amazon-freertos/tests/common/mqtt\aws_test_mqtt_agent.c ****  * Permission is hereby granted, free of charge, to any person obtaining a copy of
   6:D:/Work/DeviceTester/amazon-freertos/tests/common/mqtt\aws_test_mqtt_agent.c ****  * this software and associated documentation files (the "Software"), to deal in
   7:D:/Work/DeviceTester/amazon-freertos/tests/common/mqtt\aws_test_mqtt_agent.c ****  * the Software without restriction, including without limitation the rights to
   8:D:/Work/DeviceTester/amazon-freertos/tests/common/mqtt\aws_test_mqtt_agent.c ****  * use, copy, modify, merge, publish, distribute, sublicense, and/or sell copies of
   9:D:/Work/DeviceTester/amazon-freertos/tests/common/mqtt\aws_test_mqtt_agent.c ****  * the Software, and to permit persons to whom the Software is furnished to do so,
  10:D:/Work/DeviceTester/amazon-freertos/tests/common/mqtt\aws_test_mqtt_agent.c ****  * subject to the following conditions:
  11:D:/Work/DeviceTester/amazon-freertos/tests/common/mqtt\aws_test_mqtt_agent.c ****  *
  12:D:/Work/DeviceTester/amazon-freertos/tests/common/mqtt\aws_test_mqtt_agent.c ****  * The above copyright notice and this permission notice shall be included in all
  13:D:/Work/DeviceTester/amazon-freertos/tests/common/mqtt\aws_test_mqtt_agent.c ****  * copies or substantial portions of the Software.
  14:D:/Work/DeviceTester/amazon-freertos/tests/common/mqtt\aws_test_mqtt_agent.c ****  *
  15:D:/Work/DeviceTester/amazon-freertos/tests/common/mqtt\aws_test_mqtt_agent.c ****  * THE SOFTWARE IS PROVIDED "AS IS", WITHOUT WARRANTY OF ANY KIND, EXPRESS OR
  16:D:/Work/DeviceTester/amazon-freertos/tests/common/mqtt\aws_test_mqtt_agent.c ****  * IMPLIED, INCLUDING BUT NOT LIMITED TO THE WARRANTIES OF MERCHANTABILITY, FITNESS
  17:D:/Work/DeviceTester/amazon-freertos/tests/common/mqtt\aws_test_mqtt_agent.c ****  * FOR A PARTICULAR PURPOSE AND NONINFRINGEMENT. IN NO EVENT SHALL THE AUTHORS OR
  18:D:/Work/DeviceTester/amazon-freertos/tests/common/mqtt\aws_test_mqtt_agent.c ****  * COPYRIGHT HOLDERS BE LIABLE FOR ANY CLAIM, DAMAGES OR OTHER LIABILITY, WHETHER
  19:D:/Work/DeviceTester/amazon-freertos/tests/common/mqtt\aws_test_mqtt_agent.c ****  * IN AN ACTION OF CONTRACT, TORT OR OTHERWISE, ARISING FROM, OUT OF OR IN
  20:D:/Work/DeviceTester/amazon-freertos/tests/common/mqtt\aws_test_mqtt_agent.c ****  * CONNECTION WITH THE SOFTWARE OR THE USE OR OTHER DEALINGS IN THE SOFTWARE.
  21:D:/Work/DeviceTester/amazon-freertos/tests/common/mqtt\aws_test_mqtt_agent.c ****  *
  22:D:/Work/DeviceTester/amazon-freertos/tests/common/mqtt\aws_test_mqtt_agent.c ****  * http://aws.amazon.com/freertos
  23:D:/Work/DeviceTester/amazon-freertos/tests/common/mqtt\aws_test_mqtt_agent.c ****  * http://www.FreeRTOS.org
  24:D:/Work/DeviceTester/amazon-freertos/tests/common/mqtt\aws_test_mqtt_agent.c ****  */
  25:D:/Work/DeviceTester/amazon-freertos/tests/common/mqtt\aws_test_mqtt_agent.c **** 
  26:D:/Work/DeviceTester/amazon-freertos/tests/common/mqtt\aws_test_mqtt_agent.c **** /**
  27:D:/Work/DeviceTester/amazon-freertos/tests/common/mqtt\aws_test_mqtt_agent.c ****  * @file aws_test_mqtt_agent.c
  28:D:/Work/DeviceTester/amazon-freertos/tests/common/mqtt\aws_test_mqtt_agent.c ****  * @brief Tests for MQTT Agent.
  29:D:/Work/DeviceTester/amazon-freertos/tests/common/mqtt\aws_test_mqtt_agent.c ****  */
  30:D:/Work/DeviceTester/amazon-freertos/tests/common/mqtt\aws_test_mqtt_agent.c **** 
  31:D:/Work/DeviceTester/amazon-freertos/tests/common/mqtt\aws_test_mqtt_agent.c **** /* Standard includes. */
  32:D:/Work/DeviceTester/amazon-freertos/tests/common/mqtt\aws_test_mqtt_agent.c **** #include <stdio.h>
  33:D:/Work/DeviceTester/amazon-freertos/tests/common/mqtt\aws_test_mqtt_agent.c **** #include <string.h>
  34:D:/Work/DeviceTester/amazon-freertos/tests/common/mqtt\aws_test_mqtt_agent.c **** 
  35:D:/Work/DeviceTester/amazon-freertos/tests/common/mqtt\aws_test_mqtt_agent.c **** /* Amazon FreeRTOS includes. */
  36:D:/Work/DeviceTester/amazon-freertos/tests/common/mqtt\aws_test_mqtt_agent.c **** #include "FreeRTOS.h"
  37:D:/Work/DeviceTester/amazon-freertos/tests/common/mqtt\aws_test_mqtt_agent.c **** #include "semphr.h"
  38:D:/Work/DeviceTester/amazon-freertos/tests/common/mqtt\aws_test_mqtt_agent.c **** #include "aws_mqtt_agent.h"
  39:D:/Work/DeviceTester/amazon-freertos/tests/common/mqtt\aws_test_mqtt_agent.c **** #include "task.h"
  40:D:/Work/DeviceTester/amazon-freertos/tests/common/mqtt\aws_test_mqtt_agent.c **** #include "queue.h"
  41:D:/Work/DeviceTester/amazon-freertos/tests/common/mqtt\aws_test_mqtt_agent.c **** #include "event_groups.h"
  42:D:/Work/DeviceTester/amazon-freertos/tests/common/mqtt\aws_test_mqtt_agent.c **** #include "aws_clientcredential.h"
  43:D:/Work/DeviceTester/amazon-freertos/tests/common/mqtt\aws_test_mqtt_agent.c **** 
  44:D:/Work/DeviceTester/amazon-freertos/tests/common/mqtt\aws_test_mqtt_agent.c **** /* Unity framework includes. */
  45:D:/Work/DeviceTester/amazon-freertos/tests/common/mqtt\aws_test_mqtt_agent.c **** #include "unity_fixture.h"
  46:D:/Work/DeviceTester/amazon-freertos/tests/common/mqtt\aws_test_mqtt_agent.c **** 
  47:D:/Work/DeviceTester/amazon-freertos/tests/common/mqtt\aws_test_mqtt_agent.c **** /* MQTT agent connection timeout. */
  48:D:/Work/DeviceTester/amazon-freertos/tests/common/mqtt\aws_test_mqtt_agent.c **** #define mqttagenttestTIMEOUT       pdMS_TO_TICKS( 10000UL )
  49:D:/Work/DeviceTester/amazon-freertos/tests/common/mqtt\aws_test_mqtt_agent.c **** 
  50:D:/Work/DeviceTester/amazon-freertos/tests/common/mqtt\aws_test_mqtt_agent.c **** /* Topic name for ping-pong testing. */
  51:D:/Work/DeviceTester/amazon-freertos/tests/common/mqtt\aws_test_mqtt_agent.c **** #define mqttagenttestTOPIC_NAME    ( ( const uint8_t * ) "freertos/tests/echo" )
  52:D:/Work/DeviceTester/amazon-freertos/tests/common/mqtt\aws_test_mqtt_agent.c **** 
  53:D:/Work/DeviceTester/amazon-freertos/tests/common/mqtt\aws_test_mqtt_agent.c **** #define mqttagenttestMESSAGE       "Hello from the test."
  54:D:/Work/DeviceTester/amazon-freertos/tests/common/mqtt\aws_test_mqtt_agent.c **** #define mqttagenttestFAILUREPRINTF( x )    vLoggingPrintf x
  55:D:/Work/DeviceTester/amazon-freertos/tests/common/mqtt\aws_test_mqtt_agent.c **** 
  56:D:/Work/DeviceTester/amazon-freertos/tests/common/mqtt\aws_test_mqtt_agent.c **** /* The parameters below are definable so the test can run on most target. */
  57:D:/Work/DeviceTester/amazon-freertos/tests/common/mqtt\aws_test_mqtt_agent.c **** /* Size in bytes of the messages published.  */
  58:D:/Work/DeviceTester/amazon-freertos/tests/common/mqtt\aws_test_mqtt_agent.c **** #ifndef  mqttagenttestMULTI_TASK_TEST_PUB_DATA_SIZE
  59:D:/Work/DeviceTester/amazon-freertos/tests/common/mqtt\aws_test_mqtt_agent.c ****     #define mqttagenttestMULTI_TASK_TEST_PUB_DATA_SIZE    ( 256 )
  60:D:/Work/DeviceTester/amazon-freertos/tests/common/mqtt\aws_test_mqtt_agent.c **** #endif
  61:D:/Work/DeviceTester/amazon-freertos/tests/common/mqtt\aws_test_mqtt_agent.c **** 
  62:D:/Work/DeviceTester/amazon-freertos/tests/common/mqtt\aws_test_mqtt_agent.c **** /* Number of Receive Tasks that are created. */
  63:D:/Work/DeviceTester/amazon-freertos/tests/common/mqtt\aws_test_mqtt_agent.c **** #ifndef  mqttagenttestMULTI_TASK_TEST_NUM_RX_TASKS
  64:D:/Work/DeviceTester/amazon-freertos/tests/common/mqtt\aws_test_mqtt_agent.c ****     #define mqttagenttestMULTI_TASK_TEST_NUM_RX_TASKS    ( 2 )
  65:D:/Work/DeviceTester/amazon-freertos/tests/common/mqtt\aws_test_mqtt_agent.c **** #endif
  66:D:/Work/DeviceTester/amazon-freertos/tests/common/mqtt\aws_test_mqtt_agent.c **** 
  67:D:/Work/DeviceTester/amazon-freertos/tests/common/mqtt\aws_test_mqtt_agent.c **** /* Number of Transmit Tasks that are created. */
  68:D:/Work/DeviceTester/amazon-freertos/tests/common/mqtt\aws_test_mqtt_agent.c **** #ifndef  mqttagenttestMULTI_TASK_TEST_NUM_TX_TASKS
  69:D:/Work/DeviceTester/amazon-freertos/tests/common/mqtt\aws_test_mqtt_agent.c ****     #define mqttagenttestMULTI_TASK_TEST_NUM_TX_TASKS    ( 2 )
  70:D:/Work/DeviceTester/amazon-freertos/tests/common/mqtt\aws_test_mqtt_agent.c **** #endif
  71:D:/Work/DeviceTester/amazon-freertos/tests/common/mqtt\aws_test_mqtt_agent.c **** 
  72:D:/Work/DeviceTester/amazon-freertos/tests/common/mqtt\aws_test_mqtt_agent.c **** /* Total number of tasks. */
  73:D:/Work/DeviceTester/amazon-freertos/tests/common/mqtt\aws_test_mqtt_agent.c **** #define mqttagenttestMULTI_TASK_TEST_NUM_TASKS    ( mqttagenttestMULTI_TASK_TEST_NUM_TX_TASKS + mqt
  74:D:/Work/DeviceTester/amazon-freertos/tests/common/mqtt\aws_test_mqtt_agent.c **** 
  75:D:/Work/DeviceTester/amazon-freertos/tests/common/mqtt\aws_test_mqtt_agent.c **** 
  76:D:/Work/DeviceTester/amazon-freertos/tests/common/mqtt\aws_test_mqtt_agent.c **** 
  77:D:/Work/DeviceTester/amazon-freertos/tests/common/mqtt\aws_test_mqtt_agent.c **** /* TCP Echo Client tasks multitask example parameters. */
  78:D:/Work/DeviceTester/amazon-freertos/tests/common/mqtt\aws_test_mqtt_agent.c **** #define  mqttagenttestMULTI_TASK_TEST_TASKS_STACK_SIZE    ( configMINIMAL_STACK_SIZE * 4 )
  79:D:/Work/DeviceTester/amazon-freertos/tests/common/mqtt\aws_test_mqtt_agent.c **** #define  mqttagenttestMULTI_TASK_TEST_TASKS_PRIORITY      ( tskIDLE_PRIORITY )
  80:D:/Work/DeviceTester/amazon-freertos/tests/common/mqtt\aws_test_mqtt_agent.c **** 
  81:D:/Work/DeviceTester/amazon-freertos/tests/common/mqtt\aws_test_mqtt_agent.c **** 
  82:D:/Work/DeviceTester/amazon-freertos/tests/common/mqtt\aws_test_mqtt_agent.c **** /* Timeout for sync between Transmit and Receive Tasks. */
  83:D:/Work/DeviceTester/amazon-freertos/tests/common/mqtt\aws_test_mqtt_agent.c **** #ifndef  mqttagenttestMULTI_TASK_TEST_SYNC_TIMEOUT
  84:D:/Work/DeviceTester/amazon-freertos/tests/common/mqtt\aws_test_mqtt_agent.c ****     #define  mqttagenttestMULTI_TASK_TEST_SYNC_TIMEOUT    ( 40000 )
  85:D:/Work/DeviceTester/amazon-freertos/tests/common/mqtt\aws_test_mqtt_agent.c **** #endif
  86:D:/Work/DeviceTester/amazon-freertos/tests/common/mqtt\aws_test_mqtt_agent.c **** 
  87:D:/Work/DeviceTester/amazon-freertos/tests/common/mqtt\aws_test_mqtt_agent.c **** /* This represents the time to wait to complete the multitask test.
  88:D:/Work/DeviceTester/amazon-freertos/tests/common/mqtt\aws_test_mqtt_agent.c ****  * It will vary from one platform to another. */
  89:D:/Work/DeviceTester/amazon-freertos/tests/common/mqtt\aws_test_mqtt_agent.c **** #ifndef mqttagenttestMULTI_TASK_TEST_COMPLETE_TIMEOUT
  90:D:/Work/DeviceTester/amazon-freertos/tests/common/mqtt\aws_test_mqtt_agent.c ****     #define mqttagenttestMULTI_TASK_TEST_COMPLETE_TIMEOUT    ( 400000 )
  91:D:/Work/DeviceTester/amazon-freertos/tests/common/mqtt\aws_test_mqtt_agent.c **** #endif
  92:D:/Work/DeviceTester/amazon-freertos/tests/common/mqtt\aws_test_mqtt_agent.c **** 
  93:D:/Work/DeviceTester/amazon-freertos/tests/common/mqtt\aws_test_mqtt_agent.c **** 
  94:D:/Work/DeviceTester/amazon-freertos/tests/common/mqtt\aws_test_mqtt_agent.c **** /* Event mask used for the sync group. It represents all Tasks.*/
  95:D:/Work/DeviceTester/amazon-freertos/tests/common/mqtt\aws_test_mqtt_agent.c **** #define mqttagenttestMULTI_TASK_TEST_EVENT_MASK                ( ( 1 << mqttagenttestMULTI_TASK_TES
  96:D:/Work/DeviceTester/amazon-freertos/tests/common/mqtt\aws_test_mqtt_agent.c **** /* Event mask used for the sync group. It represents all Transmit Tasks. */
  97:D:/Work/DeviceTester/amazon-freertos/tests/common/mqtt\aws_test_mqtt_agent.c **** #define mqttagenttestMULTI_TASK_TEST_TX_EVENT_MASK             ( ( ( 1 << mqttagenttestMULTI_TASK_T
  98:D:/Work/DeviceTester/amazon-freertos/tests/common/mqtt\aws_test_mqtt_agent.c **** 
  99:D:/Work/DeviceTester/amazon-freertos/tests/common/mqtt\aws_test_mqtt_agent.c **** #define  mqttagenttestMULTI_TASK_TEST_SYNC_TIMEOUT_TICKS       ( pdMS_TO_TICKS( mqttagenttestMULTI_
 100:D:/Work/DeviceTester/amazon-freertos/tests/common/mqtt\aws_test_mqtt_agent.c **** #define mqttagenttestMULTI_TASK_TEST_COMPLETE_TIMEOUT_TICKS    ( pdMS_TO_TICKS( mqttagenttestMULTI_
 101:D:/Work/DeviceTester/amazon-freertos/tests/common/mqtt\aws_test_mqtt_agent.c **** 
 102:D:/Work/DeviceTester/amazon-freertos/tests/common/mqtt\aws_test_mqtt_agent.c **** /* Receive task priority is changed on bit 0, while Transmit is changed on bit 1.
 103:D:/Work/DeviceTester/amazon-freertos/tests/common/mqtt\aws_test_mqtt_agent.c ****  * Loop needs to be at least 4 to cover every cases. */
 104:D:/Work/DeviceTester/amazon-freertos/tests/common/mqtt\aws_test_mqtt_agent.c **** #define mqttagenttestMULTI_TASK_TEST_MAX_LOOP                  ( 4 )
 105:D:/Work/DeviceTester/amazon-freertos/tests/common/mqtt\aws_test_mqtt_agent.c **** 
 106:D:/Work/DeviceTester/amazon-freertos/tests/common/mqtt\aws_test_mqtt_agent.c **** #define mqttagenttestMULTI_TASK_TEST_LOW_PRIORITY              tskIDLE_PRIORITY
 107:D:/Work/DeviceTester/amazon-freertos/tests/common/mqtt\aws_test_mqtt_agent.c **** #define mqttagenttestMULTI_TASK_TEST_HIGH_PRIORITY             ( configMAX_PRIORITIES - 1 )
 108:D:/Work/DeviceTester/amazon-freertos/tests/common/mqtt\aws_test_mqtt_agent.c **** 
 109:D:/Work/DeviceTester/amazon-freertos/tests/common/mqtt\aws_test_mqtt_agent.c **** /* Receive task toggle priority on bit 0 while Transmit does on bit 1. This allows covering all pos
 110:D:/Work/DeviceTester/amazon-freertos/tests/common/mqtt\aws_test_mqtt_agent.c **** #define mqttagenttestMULTI_TASK_TEST_RX_LOWP_SWITCH_MASK       ( 0 )
 111:D:/Work/DeviceTester/amazon-freertos/tests/common/mqtt\aws_test_mqtt_agent.c **** #define mqttagenttestMULTI_TASK_TEST_TX_LOWP_SWITCH_MASK       ( 1 )
 112:D:/Work/DeviceTester/amazon-freertos/tests/common/mqtt\aws_test_mqtt_agent.c **** 
 113:D:/Work/DeviceTester/amazon-freertos/tests/common/mqtt\aws_test_mqtt_agent.c **** /* Every Receive task will create one client. */
 114:D:/Work/DeviceTester/amazon-freertos/tests/common/mqtt\aws_test_mqtt_agent.c **** #define mqttagenttestMULTI_TASK_TEST_CLIENT_ID                 "ClientId%d"
 115:D:/Work/DeviceTester/amazon-freertos/tests/common/mqtt\aws_test_mqtt_agent.c **** #define mqttagenttestMULTI_TASK_TEST_MAX_CLIENT_ID_SIZE        ( 14 )
 116:D:/Work/DeviceTester/amazon-freertos/tests/common/mqtt\aws_test_mqtt_agent.c **** 
 117:D:/Work/DeviceTester/amazon-freertos/tests/common/mqtt\aws_test_mqtt_agent.c **** /* Number of publishing made by the Transmit task every loop. */
 118:D:/Work/DeviceTester/amazon-freertos/tests/common/mqtt\aws_test_mqtt_agent.c **** #define mqttagenttestMULTI_TASK_TEST_PUBLISH_PER_LOOP          ( 10 )
 119:D:/Work/DeviceTester/amazon-freertos/tests/common/mqtt\aws_test_mqtt_agent.c **** 
 120:D:/Work/DeviceTester/amazon-freertos/tests/common/mqtt\aws_test_mqtt_agent.c **** /* Topic name for ping-pong testing. */
 121:D:/Work/DeviceTester/amazon-freertos/tests/common/mqtt\aws_test_mqtt_agent.c **** #define mqttagenttestMULTI_TASK_TEST_TOPIC_NAME                ( ( const uint8_t * ) "freertos/test
 122:D:/Work/DeviceTester/amazon-freertos/tests/common/mqtt\aws_test_mqtt_agent.c **** #define mqttagenttestMULTI_TASK_TEST_MAX_TOPIC_NAME_SIZE       ( 30 )
 123:D:/Work/DeviceTester/amazon-freertos/tests/common/mqtt\aws_test_mqtt_agent.c **** 
 124:D:/Work/DeviceTester/amazon-freertos/tests/common/mqtt\aws_test_mqtt_agent.c **** 
 125:D:/Work/DeviceTester/amazon-freertos/tests/common/mqtt\aws_test_mqtt_agent.c **** /* Default connection parameters. */
 126:D:/Work/DeviceTester/amazon-freertos/tests/common/mqtt\aws_test_mqtt_agent.c **** static const MQTTAgentConnectParams_t xDefaultConnectParameters =
 127:D:/Work/DeviceTester/amazon-freertos/tests/common/mqtt\aws_test_mqtt_agent.c **** {
 128:D:/Work/DeviceTester/amazon-freertos/tests/common/mqtt\aws_test_mqtt_agent.c ****     clientcredentialMQTT_BROKER_ENDPOINT,
 129:D:/Work/DeviceTester/amazon-freertos/tests/common/mqtt\aws_test_mqtt_agent.c ****     mqttagentREQUIRE_TLS,
 130:D:/Work/DeviceTester/amazon-freertos/tests/common/mqtt\aws_test_mqtt_agent.c ****     pdFALSE,
 131:D:/Work/DeviceTester/amazon-freertos/tests/common/mqtt\aws_test_mqtt_agent.c ****     clientcredentialMQTT_BROKER_PORT,
 132:D:/Work/DeviceTester/amazon-freertos/tests/common/mqtt\aws_test_mqtt_agent.c ****     ( const uint8_t * ) clientcredentialIOT_THING_NAME,
 133:D:/Work/DeviceTester/amazon-freertos/tests/common/mqtt\aws_test_mqtt_agent.c ****     0,
 134:D:/Work/DeviceTester/amazon-freertos/tests/common/mqtt\aws_test_mqtt_agent.c ****     pdTRUE,
 135:D:/Work/DeviceTester/amazon-freertos/tests/common/mqtt\aws_test_mqtt_agent.c ****     NULL,
 136:D:/Work/DeviceTester/amazon-freertos/tests/common/mqtt\aws_test_mqtt_agent.c ****     NULL,
 137:D:/Work/DeviceTester/amazon-freertos/tests/common/mqtt\aws_test_mqtt_agent.c ****     NULL,
 138:D:/Work/DeviceTester/amazon-freertos/tests/common/mqtt\aws_test_mqtt_agent.c ****     0
 139:D:/Work/DeviceTester/amazon-freertos/tests/common/mqtt\aws_test_mqtt_agent.c **** };
 140:D:/Work/DeviceTester/amazon-freertos/tests/common/mqtt\aws_test_mqtt_agent.c **** 
 141:D:/Work/DeviceTester/amazon-freertos/tests/common/mqtt\aws_test_mqtt_agent.c **** /* Parameters used in Muti task call back function. Data is checked and status is passed down. */
 142:D:/Work/DeviceTester/amazon-freertos/tests/common/mqtt\aws_test_mqtt_agent.c **** typedef struct
 143:D:/Work/DeviceTester/amazon-freertos/tests/common/mqtt\aws_test_mqtt_agent.c **** {
 144:D:/Work/DeviceTester/amazon-freertos/tests/common/mqtt\aws_test_mqtt_agent.c ****     SemaphoreHandle_t xSemaphore;
 145:D:/Work/DeviceTester/amazon-freertos/tests/common/mqtt\aws_test_mqtt_agent.c ****     BaseType_t xStatus;
 146:D:/Work/DeviceTester/amazon-freertos/tests/common/mqtt\aws_test_mqtt_agent.c **** } MQTTtestAgentCbParam_t;
 147:D:/Work/DeviceTester/amazon-freertos/tests/common/mqtt\aws_test_mqtt_agent.c **** 
 148:D:/Work/DeviceTester/amazon-freertos/tests/common/mqtt\aws_test_mqtt_agent.c **** 
 149:D:/Work/DeviceTester/amazon-freertos/tests/common/mqtt\aws_test_mqtt_agent.c **** /* Task parameters for multitask test. */
 150:D:/Work/DeviceTester/amazon-freertos/tests/common/mqtt\aws_test_mqtt_agent.c **** typedef struct
 151:D:/Work/DeviceTester/amazon-freertos/tests/common/mqtt\aws_test_mqtt_agent.c **** {
 152:D:/Work/DeviceTester/amazon-freertos/tests/common/mqtt\aws_test_mqtt_agent.c ****     uint16_t usTaskTag;
 153:D:/Work/DeviceTester/amazon-freertos/tests/common/mqtt\aws_test_mqtt_agent.c ****     BaseType_t xStatus;
 154:D:/Work/DeviceTester/amazon-freertos/tests/common/mqtt\aws_test_mqtt_agent.c ****     TaskHandle_t xTaskHandle;
 155:D:/Work/DeviceTester/amazon-freertos/tests/common/mqtt\aws_test_mqtt_agent.c ****     uint8_t * pucTransmittedData;
 156:D:/Work/DeviceTester/amazon-freertos/tests/common/mqtt\aws_test_mqtt_agent.c ****     SemaphoreHandle_t xSemaphore;
 157:D:/Work/DeviceTester/amazon-freertos/tests/common/mqtt\aws_test_mqtt_agent.c ****     BaseType_t xTaskCreated;
 158:D:/Work/DeviceTester/amazon-freertos/tests/common/mqtt\aws_test_mqtt_agent.c **** } MQTTtestAgentTaskParams_t;
 159:D:/Work/DeviceTester/amazon-freertos/tests/common/mqtt\aws_test_mqtt_agent.c **** 
 160:D:/Work/DeviceTester/amazon-freertos/tests/common/mqtt\aws_test_mqtt_agent.c **** 
 161:D:/Work/DeviceTester/amazon-freertos/tests/common/mqtt\aws_test_mqtt_agent.c **** /* Parameters for the Receive tasks. They are bundles into one structure to improve readability. */
 162:D:/Work/DeviceTester/amazon-freertos/tests/common/mqtt\aws_test_mqtt_agent.c **** typedef struct
 163:D:/Work/DeviceTester/amazon-freertos/tests/common/mqtt\aws_test_mqtt_agent.c **** {
 164:D:/Work/DeviceTester/amazon-freertos/tests/common/mqtt\aws_test_mqtt_agent.c ****     MQTTAgentHandle_t xMQTTHandle;
 165:D:/Work/DeviceTester/amazon-freertos/tests/common/mqtt\aws_test_mqtt_agent.c ****     EventGroupHandle_t xSyncEventRx;
 166:D:/Work/DeviceTester/amazon-freertos/tests/common/mqtt\aws_test_mqtt_agent.c ****     uint8_t cTopic[ mqttagenttestMULTI_TASK_TEST_MAX_TOPIC_NAME_SIZE ];
 167:D:/Work/DeviceTester/amazon-freertos/tests/common/mqtt\aws_test_mqtt_agent.c ****     uint16_t usTopicLength;
 168:D:/Work/DeviceTester/amazon-freertos/tests/common/mqtt\aws_test_mqtt_agent.c ****     uint8_t cClientID[ mqttagenttestMULTI_TASK_TEST_MAX_CLIENT_ID_SIZE ];
 169:D:/Work/DeviceTester/amazon-freertos/tests/common/mqtt\aws_test_mqtt_agent.c ****     uint16_t usClientIDLength;
 170:D:/Work/DeviceTester/amazon-freertos/tests/common/mqtt\aws_test_mqtt_agent.c **** } MQTTtestAgentMultiTestRxParam_t;
 171:D:/Work/DeviceTester/amazon-freertos/tests/common/mqtt\aws_test_mqtt_agent.c **** /* Bundle of global static used by Receive tasks. Note that Transmit task will also use the mqtt ha
 172:D:/Work/DeviceTester/amazon-freertos/tests/common/mqtt\aws_test_mqtt_agent.c **** static MQTTtestAgentMultiTestRxParam_t MQTTtestAgentMultiTestRxParam[ mqttagenttestMULTI_TASK_TEST_
 173:D:/Work/DeviceTester/amazon-freertos/tests/common/mqtt\aws_test_mqtt_agent.c **** 
 174:D:/Work/DeviceTester/amazon-freertos/tests/common/mqtt\aws_test_mqtt_agent.c **** static void prvMultiTaskTest_Rx_Task( void * pvParameters );
 175:D:/Work/DeviceTester/amazon-freertos/tests/common/mqtt\aws_test_mqtt_agent.c **** static void prvMultiTaskTest_Tx_Task( void * pvParameters );
 176:D:/Work/DeviceTester/amazon-freertos/tests/common/mqtt\aws_test_mqtt_agent.c **** 
 177:D:/Work/DeviceTester/amazon-freertos/tests/common/mqtt\aws_test_mqtt_agent.c **** /* The event group used to wait for the multitaks test completion.*/
 178:D:/Work/DeviceTester/amazon-freertos/tests/common/mqtt\aws_test_mqtt_agent.c **** static EventGroupHandle_t xSyncEventGroup = NULL;
 179:D:/Work/DeviceTester/amazon-freertos/tests/common/mqtt\aws_test_mqtt_agent.c **** 
 180:D:/Work/DeviceTester/amazon-freertos/tests/common/mqtt\aws_test_mqtt_agent.c **** /**
 181:D:/Work/DeviceTester/amazon-freertos/tests/common/mqtt\aws_test_mqtt_agent.c ****  * @brief Callback for MQTT subscription.
 182:D:/Work/DeviceTester/amazon-freertos/tests/common/mqtt\aws_test_mqtt_agent.c ****  */
 183:D:/Work/DeviceTester/amazon-freertos/tests/common/mqtt\aws_test_mqtt_agent.c **** static MQTTBool_t prvMultiTaskTestMQTTCallback( void * pvUserData,
 184:D:/Work/DeviceTester/amazon-freertos/tests/common/mqtt\aws_test_mqtt_agent.c ****                                                 const MQTTPublishData_t * const pxPublishParameters
 185:D:/Work/DeviceTester/amazon-freertos/tests/common/mqtt\aws_test_mqtt_agent.c **** {
 186:D:/Work/DeviceTester/amazon-freertos/tests/common/mqtt\aws_test_mqtt_agent.c ****     MQTTtestAgentCbParam_t * pxMQTTtestAgentCbParam;
 187:D:/Work/DeviceTester/amazon-freertos/tests/common/mqtt\aws_test_mqtt_agent.c ****     BaseType_t xDataIndex;
 188:D:/Work/DeviceTester/amazon-freertos/tests/common/mqtt\aws_test_mqtt_agent.c **** 
 189:D:/Work/DeviceTester/amazon-freertos/tests/common/mqtt\aws_test_mqtt_agent.c ****     pxMQTTtestAgentCbParam = ( MQTTtestAgentCbParam_t * ) pvUserData;
 190:D:/Work/DeviceTester/amazon-freertos/tests/common/mqtt\aws_test_mqtt_agent.c **** 
 191:D:/Work/DeviceTester/amazon-freertos/tests/common/mqtt\aws_test_mqtt_agent.c ****     pxMQTTtestAgentCbParam->xStatus = pdPASS;
 192:D:/Work/DeviceTester/amazon-freertos/tests/common/mqtt\aws_test_mqtt_agent.c **** 
 193:D:/Work/DeviceTester/amazon-freertos/tests/common/mqtt\aws_test_mqtt_agent.c ****     if( pxPublishParameters->ulDataLength != mqttagenttestMULTI_TASK_TEST_PUB_DATA_SIZE )
 194:D:/Work/DeviceTester/amazon-freertos/tests/common/mqtt\aws_test_mqtt_agent.c ****     {
 195:D:/Work/DeviceTester/amazon-freertos/tests/common/mqtt\aws_test_mqtt_agent.c ****         pxMQTTtestAgentCbParam->xStatus = pdFAIL;
 196:D:/Work/DeviceTester/amazon-freertos/tests/common/mqtt\aws_test_mqtt_agent.c ****     }
 197:D:/Work/DeviceTester/amazon-freertos/tests/common/mqtt\aws_test_mqtt_agent.c ****     else
 198:D:/Work/DeviceTester/amazon-freertos/tests/common/mqtt\aws_test_mqtt_agent.c ****     {
 199:D:/Work/DeviceTester/amazon-freertos/tests/common/mqtt\aws_test_mqtt_agent.c ****         for( xDataIndex = 0; xDataIndex < mqttagenttestMULTI_TASK_TEST_PUB_DATA_SIZE; xDataIndex++ 
 200:D:/Work/DeviceTester/amazon-freertos/tests/common/mqtt\aws_test_mqtt_agent.c ****         {
 201:D:/Work/DeviceTester/amazon-freertos/tests/common/mqtt\aws_test_mqtt_agent.c ****             if( ( ( uint8_t * ) ( pxPublishParameters->pvData ) )[ xDataIndex ] != xDataIndex )
 202:D:/Work/DeviceTester/amazon-freertos/tests/common/mqtt\aws_test_mqtt_agent.c ****             {
 203:D:/Work/DeviceTester/amazon-freertos/tests/common/mqtt\aws_test_mqtt_agent.c ****                 pxMQTTtestAgentCbParam->xStatus = pdFAIL;
 204:D:/Work/DeviceTester/amazon-freertos/tests/common/mqtt\aws_test_mqtt_agent.c ****                 break;
 205:D:/Work/DeviceTester/amazon-freertos/tests/common/mqtt\aws_test_mqtt_agent.c ****             }
 206:D:/Work/DeviceTester/amazon-freertos/tests/common/mqtt\aws_test_mqtt_agent.c ****         }
 207:D:/Work/DeviceTester/amazon-freertos/tests/common/mqtt\aws_test_mqtt_agent.c ****     }
 208:D:/Work/DeviceTester/amazon-freertos/tests/common/mqtt\aws_test_mqtt_agent.c **** 
 209:D:/Work/DeviceTester/amazon-freertos/tests/common/mqtt\aws_test_mqtt_agent.c ****     /* Give the semaphore to signal message receipt. */
 210:D:/Work/DeviceTester/amazon-freertos/tests/common/mqtt\aws_test_mqtt_agent.c ****     xSemaphoreGive( pxMQTTtestAgentCbParam->xSemaphore );
 211:D:/Work/DeviceTester/amazon-freertos/tests/common/mqtt\aws_test_mqtt_agent.c **** 
 212:D:/Work/DeviceTester/amazon-freertos/tests/common/mqtt\aws_test_mqtt_agent.c ****     return eMQTTFalse;
 213:D:/Work/DeviceTester/amazon-freertos/tests/common/mqtt\aws_test_mqtt_agent.c **** }
 214:D:/Work/DeviceTester/amazon-freertos/tests/common/mqtt\aws_test_mqtt_agent.c **** 
 215:D:/Work/DeviceTester/amazon-freertos/tests/common/mqtt\aws_test_mqtt_agent.c **** /**
 216:D:/Work/DeviceTester/amazon-freertos/tests/common/mqtt\aws_test_mqtt_agent.c ****  * @brief Callback for MQTT subscription.
 217:D:/Work/DeviceTester/amazon-freertos/tests/common/mqtt\aws_test_mqtt_agent.c ****  */
 218:D:/Work/DeviceTester/amazon-freertos/tests/common/mqtt\aws_test_mqtt_agent.c **** static MQTTBool_t prvMQTTCallback( void * pvUserData,
 219:D:/Work/DeviceTester/amazon-freertos/tests/common/mqtt\aws_test_mqtt_agent.c ****                                    const MQTTPublishData_t * const pxPublishParameters )
 220:D:/Work/DeviceTester/amazon-freertos/tests/common/mqtt\aws_test_mqtt_agent.c **** {
 221:D:/Work/DeviceTester/amazon-freertos/tests/common/mqtt\aws_test_mqtt_agent.c ****     /* Give the semaphore to signal message receipt. */
 222:D:/Work/DeviceTester/amazon-freertos/tests/common/mqtt\aws_test_mqtt_agent.c ****     xSemaphoreGive( ( SemaphoreHandle_t ) pvUserData );
 223:D:/Work/DeviceTester/amazon-freertos/tests/common/mqtt\aws_test_mqtt_agent.c **** 
 224:D:/Work/DeviceTester/amazon-freertos/tests/common/mqtt\aws_test_mqtt_agent.c ****     return eMQTTFalse;
 225:D:/Work/DeviceTester/amazon-freertos/tests/common/mqtt\aws_test_mqtt_agent.c **** }
 226:D:/Work/DeviceTester/amazon-freertos/tests/common/mqtt\aws_test_mqtt_agent.c **** 
 227:D:/Work/DeviceTester/amazon-freertos/tests/common/mqtt\aws_test_mqtt_agent.c **** /*-----------------------------------------------------------*/
 228:D:/Work/DeviceTester/amazon-freertos/tests/common/mqtt\aws_test_mqtt_agent.c **** 
 229:D:/Work/DeviceTester/amazon-freertos/tests/common/mqtt\aws_test_mqtt_agent.c **** 
 230:D:/Work/DeviceTester/amazon-freertos/tests/common/mqtt\aws_test_mqtt_agent.c **** /**
 231:D:/Work/DeviceTester/amazon-freertos/tests/common/mqtt\aws_test_mqtt_agent.c ****  * @brief Test helper routine for MQTT connect, subcribe, publish, and
 232:D:/Work/DeviceTester/amazon-freertos/tests/common/mqtt\aws_test_mqtt_agent.c ****  * tear-down.
 233:D:/Work/DeviceTester/amazon-freertos/tests/common/mqtt\aws_test_mqtt_agent.c ****  */
 234:D:/Work/DeviceTester/amazon-freertos/tests/common/mqtt\aws_test_mqtt_agent.c **** static BaseType_t prvCreateClientAndConnectToBroker( BaseType_t xUseAlpn )
 235:D:/Work/DeviceTester/amazon-freertos/tests/common/mqtt\aws_test_mqtt_agent.c **** {
 236:D:/Work/DeviceTester/amazon-freertos/tests/common/mqtt\aws_test_mqtt_agent.c ****     MQTTAgentReturnCode_t xReturned = eMQTTAgentFailure;
 237:D:/Work/DeviceTester/amazon-freertos/tests/common/mqtt\aws_test_mqtt_agent.c ****     StaticSemaphore_t xSemaphore = { 0 };
 238:D:/Work/DeviceTester/amazon-freertos/tests/common/mqtt\aws_test_mqtt_agent.c ****     MQTTAgentHandle_t xMQTTHandle = NULL;
 239:D:/Work/DeviceTester/amazon-freertos/tests/common/mqtt\aws_test_mqtt_agent.c ****     MQTTAgentSubscribeParams_t xSubscribeParams;
 240:D:/Work/DeviceTester/amazon-freertos/tests/common/mqtt\aws_test_mqtt_agent.c ****     MQTTAgentPublishParams_t xPublishParameters;
 241:D:/Work/DeviceTester/amazon-freertos/tests/common/mqtt\aws_test_mqtt_agent.c ****     BaseType_t xMQTTAgentCreated = pdFALSE;
 242:D:/Work/DeviceTester/amazon-freertos/tests/common/mqtt\aws_test_mqtt_agent.c ****     MQTTAgentConnectParams_t xConnectParameters;
 243:D:/Work/DeviceTester/amazon-freertos/tests/common/mqtt\aws_test_mqtt_agent.c **** 
 244:D:/Work/DeviceTester/amazon-freertos/tests/common/mqtt\aws_test_mqtt_agent.c ****     memcpy( &xConnectParameters, &xDefaultConnectParameters, sizeof( MQTTAgentConnectParams_t ) );
 245:D:/Work/DeviceTester/amazon-freertos/tests/common/mqtt\aws_test_mqtt_agent.c **** 
 246:D:/Work/DeviceTester/amazon-freertos/tests/common/mqtt\aws_test_mqtt_agent.c ****     /* Initialize the semaphore as unavailable. */
 247:D:/Work/DeviceTester/amazon-freertos/tests/common/mqtt\aws_test_mqtt_agent.c ****     TEST_ASSERT_NOT_NULL( xSemaphoreCreateCountingStatic( 1, 0, &xSemaphore ) );
 248:D:/Work/DeviceTester/amazon-freertos/tests/common/mqtt\aws_test_mqtt_agent.c **** 
 249:D:/Work/DeviceTester/amazon-freertos/tests/common/mqtt\aws_test_mqtt_agent.c ****     /* Fill in the MQTTAgentConnectParams_t member that is not const. */
 250:D:/Work/DeviceTester/amazon-freertos/tests/common/mqtt\aws_test_mqtt_agent.c ****     xConnectParameters.usClientIdLength = ( uint16_t ) strlen(
 251:D:/Work/DeviceTester/amazon-freertos/tests/common/mqtt\aws_test_mqtt_agent.c ****         ( char * ) xConnectParameters.pucClientId );
 252:D:/Work/DeviceTester/amazon-freertos/tests/common/mqtt\aws_test_mqtt_agent.c **** 
 253:D:/Work/DeviceTester/amazon-freertos/tests/common/mqtt\aws_test_mqtt_agent.c ****     /* Switch ports if requested. */
 254:D:/Work/DeviceTester/amazon-freertos/tests/common/mqtt\aws_test_mqtt_agent.c ****     if( pdTRUE == xUseAlpn )
 255:D:/Work/DeviceTester/amazon-freertos/tests/common/mqtt\aws_test_mqtt_agent.c ****     {
 256:D:/Work/DeviceTester/amazon-freertos/tests/common/mqtt\aws_test_mqtt_agent.c ****         xConnectParameters.xFlags |= mqttagentUSE_AWS_IOT_ALPN_443;
 257:D:/Work/DeviceTester/amazon-freertos/tests/common/mqtt\aws_test_mqtt_agent.c ****     }
 258:D:/Work/DeviceTester/amazon-freertos/tests/common/mqtt\aws_test_mqtt_agent.c **** 
 259:D:/Work/DeviceTester/amazon-freertos/tests/common/mqtt\aws_test_mqtt_agent.c ****     if( TEST_PROTECT() )
 260:D:/Work/DeviceTester/amazon-freertos/tests/common/mqtt\aws_test_mqtt_agent.c ****     {
 261:D:/Work/DeviceTester/amazon-freertos/tests/common/mqtt\aws_test_mqtt_agent.c ****         /* The MQTT client object must be created before it can be used. */
 262:D:/Work/DeviceTester/amazon-freertos/tests/common/mqtt\aws_test_mqtt_agent.c ****         xReturned = MQTT_AGENT_Create( &xMQTTHandle );
 263:D:/Work/DeviceTester/amazon-freertos/tests/common/mqtt\aws_test_mqtt_agent.c ****         TEST_ASSERT_EQUAL_INT( xReturned, eMQTTAgentSuccess );
 264:D:/Work/DeviceTester/amazon-freertos/tests/common/mqtt\aws_test_mqtt_agent.c ****         xMQTTAgentCreated = pdTRUE;
 265:D:/Work/DeviceTester/amazon-freertos/tests/common/mqtt\aws_test_mqtt_agent.c **** 
 266:D:/Work/DeviceTester/amazon-freertos/tests/common/mqtt\aws_test_mqtt_agent.c ****         /* Connect to the broker. */
 267:D:/Work/DeviceTester/amazon-freertos/tests/common/mqtt\aws_test_mqtt_agent.c ****         xReturned = MQTT_AGENT_Connect( xMQTTHandle,
 268:D:/Work/DeviceTester/amazon-freertos/tests/common/mqtt\aws_test_mqtt_agent.c ****                                         &xConnectParameters,
 269:D:/Work/DeviceTester/amazon-freertos/tests/common/mqtt\aws_test_mqtt_agent.c ****                                         mqttagenttestTIMEOUT );
 270:D:/Work/DeviceTester/amazon-freertos/tests/common/mqtt\aws_test_mqtt_agent.c ****         TEST_ASSERT_EQUAL_INT_MESSAGE( xReturned, eMQTTAgentSuccess, "Failed to connect to the MQTT
 271:D:/Work/DeviceTester/amazon-freertos/tests/common/mqtt\aws_test_mqtt_agent.c **** 
 272:D:/Work/DeviceTester/amazon-freertos/tests/common/mqtt\aws_test_mqtt_agent.c ****         /* Setup subscribe parameters to subscribe to echo topic. */
 273:D:/Work/DeviceTester/amazon-freertos/tests/common/mqtt\aws_test_mqtt_agent.c ****         xSubscribeParams.pucTopic = mqttagenttestTOPIC_NAME;
 274:D:/Work/DeviceTester/amazon-freertos/tests/common/mqtt\aws_test_mqtt_agent.c ****         xSubscribeParams.pvPublishCallbackContext = &xSemaphore;
 275:D:/Work/DeviceTester/amazon-freertos/tests/common/mqtt\aws_test_mqtt_agent.c ****         xSubscribeParams.pxPublishCallback = prvMQTTCallback;
 276:D:/Work/DeviceTester/amazon-freertos/tests/common/mqtt\aws_test_mqtt_agent.c ****         xSubscribeParams.usTopicLength = ( uint16_t ) strlen( ( const char * ) mqttagenttestTOPIC_N
 277:D:/Work/DeviceTester/amazon-freertos/tests/common/mqtt\aws_test_mqtt_agent.c ****         xSubscribeParams.xQoS = eMQTTQoS1;
 278:D:/Work/DeviceTester/amazon-freertos/tests/common/mqtt\aws_test_mqtt_agent.c **** 
 279:D:/Work/DeviceTester/amazon-freertos/tests/common/mqtt\aws_test_mqtt_agent.c ****         /* Subscribe to the topic. */
 280:D:/Work/DeviceTester/amazon-freertos/tests/common/mqtt\aws_test_mqtt_agent.c ****         xReturned = MQTT_AGENT_Subscribe( xMQTTHandle,
 281:D:/Work/DeviceTester/amazon-freertos/tests/common/mqtt\aws_test_mqtt_agent.c ****                                           &xSubscribeParams,
 282:D:/Work/DeviceTester/amazon-freertos/tests/common/mqtt\aws_test_mqtt_agent.c ****                                           mqttagenttestTIMEOUT );
 283:D:/Work/DeviceTester/amazon-freertos/tests/common/mqtt\aws_test_mqtt_agent.c ****         TEST_ASSERT_EQUAL_INT( xReturned, eMQTTAgentSuccess );
 284:D:/Work/DeviceTester/amazon-freertos/tests/common/mqtt\aws_test_mqtt_agent.c **** 
 285:D:/Work/DeviceTester/amazon-freertos/tests/common/mqtt\aws_test_mqtt_agent.c ****         /* Setup the publish parameters. */
 286:D:/Work/DeviceTester/amazon-freertos/tests/common/mqtt\aws_test_mqtt_agent.c ****         memset( &( xPublishParameters ), 0x00, sizeof( xPublishParameters ) );
 287:D:/Work/DeviceTester/amazon-freertos/tests/common/mqtt\aws_test_mqtt_agent.c ****         xPublishParameters.pucTopic = mqttagenttestTOPIC_NAME;
 288:D:/Work/DeviceTester/amazon-freertos/tests/common/mqtt\aws_test_mqtt_agent.c ****         xPublishParameters.pvData = mqttagenttestMESSAGE;
 289:D:/Work/DeviceTester/amazon-freertos/tests/common/mqtt\aws_test_mqtt_agent.c ****         xPublishParameters.usTopicLength = ( uint16_t ) strlen( ( const char * ) mqttagenttestTOPIC
 290:D:/Work/DeviceTester/amazon-freertos/tests/common/mqtt\aws_test_mqtt_agent.c ****         xPublishParameters.ulDataLength = ( uint32_t ) strlen( mqttagenttestMESSAGE );
 291:D:/Work/DeviceTester/amazon-freertos/tests/common/mqtt\aws_test_mqtt_agent.c ****         xPublishParameters.xQoS = eMQTTQoS1;
 292:D:/Work/DeviceTester/amazon-freertos/tests/common/mqtt\aws_test_mqtt_agent.c **** 
 293:D:/Work/DeviceTester/amazon-freertos/tests/common/mqtt\aws_test_mqtt_agent.c ****         /* Publish the message. */
 294:D:/Work/DeviceTester/amazon-freertos/tests/common/mqtt\aws_test_mqtt_agent.c ****         xReturned = MQTT_AGENT_Publish( xMQTTHandle,
 295:D:/Work/DeviceTester/amazon-freertos/tests/common/mqtt\aws_test_mqtt_agent.c ****                                         &( xPublishParameters ),
 296:D:/Work/DeviceTester/amazon-freertos/tests/common/mqtt\aws_test_mqtt_agent.c ****                                         mqttagenttestTIMEOUT );
 297:D:/Work/DeviceTester/amazon-freertos/tests/common/mqtt\aws_test_mqtt_agent.c ****         TEST_ASSERT_EQUAL_INT( xReturned, eMQTTAgentSuccess );
 298:D:/Work/DeviceTester/amazon-freertos/tests/common/mqtt\aws_test_mqtt_agent.c **** 
 299:D:/Work/DeviceTester/amazon-freertos/tests/common/mqtt\aws_test_mqtt_agent.c ****         /* Take the semaphore to ensure the message is Received. */
 300:D:/Work/DeviceTester/amazon-freertos/tests/common/mqtt\aws_test_mqtt_agent.c ****         if( pdFALSE == xSemaphoreTake( ( QueueHandle_t ) &( xSemaphore ), mqttagenttestTIMEOUT ) )
 301:D:/Work/DeviceTester/amazon-freertos/tests/common/mqtt\aws_test_mqtt_agent.c ****         {
 302:D:/Work/DeviceTester/amazon-freertos/tests/common/mqtt\aws_test_mqtt_agent.c ****             TEST_FAIL();
 303:D:/Work/DeviceTester/amazon-freertos/tests/common/mqtt\aws_test_mqtt_agent.c ****         }
 304:D:/Work/DeviceTester/amazon-freertos/tests/common/mqtt\aws_test_mqtt_agent.c **** 
 305:D:/Work/DeviceTester/amazon-freertos/tests/common/mqtt\aws_test_mqtt_agent.c ****         /* Disconnect the client. */
 306:D:/Work/DeviceTester/amazon-freertos/tests/common/mqtt\aws_test_mqtt_agent.c ****         xReturned = MQTT_AGENT_Disconnect( xMQTTHandle, mqttagenttestTIMEOUT );
 307:D:/Work/DeviceTester/amazon-freertos/tests/common/mqtt\aws_test_mqtt_agent.c ****         TEST_ASSERT_EQUAL_INT( xReturned, eMQTTAgentSuccess );
 308:D:/Work/DeviceTester/amazon-freertos/tests/common/mqtt\aws_test_mqtt_agent.c ****     }
 309:D:/Work/DeviceTester/amazon-freertos/tests/common/mqtt\aws_test_mqtt_agent.c ****     else
 310:D:/Work/DeviceTester/amazon-freertos/tests/common/mqtt\aws_test_mqtt_agent.c ****     {
 311:D:/Work/DeviceTester/amazon-freertos/tests/common/mqtt\aws_test_mqtt_agent.c ****         TEST_FAIL();
 312:D:/Work/DeviceTester/amazon-freertos/tests/common/mqtt\aws_test_mqtt_agent.c ****     }
 313:D:/Work/DeviceTester/amazon-freertos/tests/common/mqtt\aws_test_mqtt_agent.c **** 
 314:D:/Work/DeviceTester/amazon-freertos/tests/common/mqtt\aws_test_mqtt_agent.c ****     /*Don't forget to reset the flag, since connect parameters are global, all test afterwards woul
 315:D:/Work/DeviceTester/amazon-freertos/tests/common/mqtt\aws_test_mqtt_agent.c ****     xConnectParameters.xFlags &= ~mqttagentUSE_AWS_IOT_ALPN_443;
 316:D:/Work/DeviceTester/amazon-freertos/tests/common/mqtt\aws_test_mqtt_agent.c **** 
 317:D:/Work/DeviceTester/amazon-freertos/tests/common/mqtt\aws_test_mqtt_agent.c ****     if( xMQTTAgentCreated == pdTRUE )
 318:D:/Work/DeviceTester/amazon-freertos/tests/common/mqtt\aws_test_mqtt_agent.c ****     {
 319:D:/Work/DeviceTester/amazon-freertos/tests/common/mqtt\aws_test_mqtt_agent.c ****         /* Delete the MQTT client. */
 320:D:/Work/DeviceTester/amazon-freertos/tests/common/mqtt\aws_test_mqtt_agent.c ****         xReturned = MQTT_AGENT_Delete( xMQTTHandle );
 321:D:/Work/DeviceTester/amazon-freertos/tests/common/mqtt\aws_test_mqtt_agent.c ****         TEST_ASSERT_EQUAL_INT( xReturned, eMQTTAgentSuccess );
 322:D:/Work/DeviceTester/amazon-freertos/tests/common/mqtt\aws_test_mqtt_agent.c ****     }
 323:D:/Work/DeviceTester/amazon-freertos/tests/common/mqtt\aws_test_mqtt_agent.c **** 
 324:D:/Work/DeviceTester/amazon-freertos/tests/common/mqtt\aws_test_mqtt_agent.c ****     return eMQTTAgentSuccess == xReturned;
 325:D:/Work/DeviceTester/amazon-freertos/tests/common/mqtt\aws_test_mqtt_agent.c **** }
 326:D:/Work/DeviceTester/amazon-freertos/tests/common/mqtt\aws_test_mqtt_agent.c **** /*-----------------------------------------------------------*/
 327:D:/Work/DeviceTester/amazon-freertos/tests/common/mqtt\aws_test_mqtt_agent.c **** 
 328:D:/Work/DeviceTester/amazon-freertos/tests/common/mqtt\aws_test_mqtt_agent.c **** /* Define Test Group. */
 329:D:/Work/DeviceTester/amazon-freertos/tests/common/mqtt\aws_test_mqtt_agent.c **** TEST_GROUP( Full_MQTT_Agent );
 330:D:/Work/DeviceTester/amazon-freertos/tests/common/mqtt\aws_test_mqtt_agent.c **** TEST_GROUP( Full_MQTT_Agent_ALPN );
 331:D:/Work/DeviceTester/amazon-freertos/tests/common/mqtt\aws_test_mqtt_agent.c **** TEST_GROUP( Full_MQTT_Agent_Stress_Tests );
 332:D:/Work/DeviceTester/amazon-freertos/tests/common/mqtt\aws_test_mqtt_agent.c **** 
 333:D:/Work/DeviceTester/amazon-freertos/tests/common/mqtt\aws_test_mqtt_agent.c **** /*-----------------------------------------------------------*/
 334:D:/Work/DeviceTester/amazon-freertos/tests/common/mqtt\aws_test_mqtt_agent.c **** 
 335:D:/Work/DeviceTester/amazon-freertos/tests/common/mqtt\aws_test_mqtt_agent.c **** /**
 336:D:/Work/DeviceTester/amazon-freertos/tests/common/mqtt\aws_test_mqtt_agent.c ****  * @brief Setup function called before each test in this group is executed.
 337:D:/Work/DeviceTester/amazon-freertos/tests/common/mqtt\aws_test_mqtt_agent.c ****  */
 338:D:/Work/DeviceTester/amazon-freertos/tests/common/mqtt\aws_test_mqtt_agent.c **** TEST_SETUP( Full_MQTT_Agent )
 339:D:/Work/DeviceTester/amazon-freertos/tests/common/mqtt\aws_test_mqtt_agent.c **** {
 340:D:/Work/DeviceTester/amazon-freertos/tests/common/mqtt\aws_test_mqtt_agent.c **** }
 341:D:/Work/DeviceTester/amazon-freertos/tests/common/mqtt\aws_test_mqtt_agent.c **** TEST_SETUP( Full_MQTT_Agent_Stress_Tests )
 342:D:/Work/DeviceTester/amazon-freertos/tests/common/mqtt\aws_test_mqtt_agent.c **** {
 343:D:/Work/DeviceTester/amazon-freertos/tests/common/mqtt\aws_test_mqtt_agent.c **** }
 344:D:/Work/DeviceTester/amazon-freertos/tests/common/mqtt\aws_test_mqtt_agent.c **** TEST_SETUP( Full_MQTT_Agent_ALPN )
 345:D:/Work/DeviceTester/amazon-freertos/tests/common/mqtt\aws_test_mqtt_agent.c **** {
 346:D:/Work/DeviceTester/amazon-freertos/tests/common/mqtt\aws_test_mqtt_agent.c **** }
 347:D:/Work/DeviceTester/amazon-freertos/tests/common/mqtt\aws_test_mqtt_agent.c **** /*-----------------------------------------------------------*/
 348:D:/Work/DeviceTester/amazon-freertos/tests/common/mqtt\aws_test_mqtt_agent.c **** 
 349:D:/Work/DeviceTester/amazon-freertos/tests/common/mqtt\aws_test_mqtt_agent.c **** /**
 350:D:/Work/DeviceTester/amazon-freertos/tests/common/mqtt\aws_test_mqtt_agent.c ****  * @brief Tear down function called after each test in this group is executed.
 351:D:/Work/DeviceTester/amazon-freertos/tests/common/mqtt\aws_test_mqtt_agent.c ****  */
 352:D:/Work/DeviceTester/amazon-freertos/tests/common/mqtt\aws_test_mqtt_agent.c **** TEST_TEAR_DOWN( Full_MQTT_Agent )
 353:D:/Work/DeviceTester/amazon-freertos/tests/common/mqtt\aws_test_mqtt_agent.c **** {
 354:D:/Work/DeviceTester/amazon-freertos/tests/common/mqtt\aws_test_mqtt_agent.c **** }
 355:D:/Work/DeviceTester/amazon-freertos/tests/common/mqtt\aws_test_mqtt_agent.c **** TEST_TEAR_DOWN( Full_MQTT_Agent_Stress_Tests )
 356:D:/Work/DeviceTester/amazon-freertos/tests/common/mqtt\aws_test_mqtt_agent.c **** {
 357:D:/Work/DeviceTester/amazon-freertos/tests/common/mqtt\aws_test_mqtt_agent.c **** }
 358:D:/Work/DeviceTester/amazon-freertos/tests/common/mqtt\aws_test_mqtt_agent.c **** TEST_TEAR_DOWN( Full_MQTT_Agent_ALPN )
 359:D:/Work/DeviceTester/amazon-freertos/tests/common/mqtt\aws_test_mqtt_agent.c **** {
  26              		.loc 1 359 0
  27              		.cfi_startproc
  28              		@ args = 0, pretend = 0, frame = 0
  29              		@ frame_needed = 0, uses_anonymous_args = 0
  30              		@ link register save eliminated.
  31 0000 1EFF2FE1 		bx	lr
  32              		.cfi_endproc
  33              	.LFE9:
  35              		.section	.text.prvCreateClientAndConnectToBroker,"ax",%progbits
  36              		.align	2
  37              		.syntax unified
  38              		.arm
  39              		.fpu neon
  41              	prvCreateClientAndConnectToBroker:
  42              	.LFB3:
 235:D:/Work/DeviceTester/amazon-freertos/tests/common/mqtt\aws_test_mqtt_agent.c ****     MQTTAgentReturnCode_t xReturned = eMQTTAgentFailure;
  43              		.loc 1 235 0
  44              		.cfi_startproc
  45              		@ args = 0, pretend = 0, frame = 168
  46              		@ frame_needed = 0, uses_anonymous_args = 0
  47              	.LVL0:
 235:D:/Work/DeviceTester/amazon-freertos/tests/common/mqtt\aws_test_mqtt_agent.c ****     MQTTAgentReturnCode_t xReturned = eMQTTAgentFailure;
  48              		.loc 1 235 0
  49 0000 F0412DE9 		push	{r4, r5, r6, r7, r8, lr}
  50              		.cfi_def_cfa_offset 24
  51              		.cfi_offset 4, -24
  52              		.cfi_offset 5, -20
  53              		.cfi_offset 6, -16
  54              		.cfi_offset 7, -12
  55              		.cfi_offset 8, -8
  56              		.cfi_offset 14, -4
  57 0004 B0D04DE2 		sub	sp, sp, #176
  58              		.cfi_def_cfa_offset 200
 236:D:/Work/DeviceTester/amazon-freertos/tests/common/mqtt\aws_test_mqtt_agent.c ****     StaticSemaphore_t xSemaphore = { 0 };
  59              		.loc 1 236 0
  60 0008 0130A0E3 		mov	r3, #1
 237:D:/Work/DeviceTester/amazon-freertos/tests/common/mqtt\aws_test_mqtt_agent.c ****     MQTTAgentHandle_t xMQTTHandle = NULL;
  61              		.loc 1 237 0
  62 000c 5020A0E3 		mov	r2, #80
  63 0010 0010A0E3 		mov	r1, #0
 235:D:/Work/DeviceTester/amazon-freertos/tests/common/mqtt\aws_test_mqtt_agent.c ****     MQTTAgentReturnCode_t xReturned = eMQTTAgentFailure;
  64              		.loc 1 235 0
  65 0014 0040A0E1 		mov	r4, r0
 237:D:/Work/DeviceTester/amazon-freertos/tests/common/mqtt\aws_test_mqtt_agent.c ****     MQTTAgentHandle_t xMQTTHandle = NULL;
  66              		.loc 1 237 0
  67 0018 60008DE2 		add	r0, sp, #96
  68              	.LVL1:
 236:D:/Work/DeviceTester/amazon-freertos/tests/common/mqtt\aws_test_mqtt_agent.c ****     StaticSemaphore_t xSemaphore = { 0 };
  69              		.loc 1 236 0
  70 001c 0C308DE5 		str	r3, [sp, #12]
  71              	.LVL2:
 237:D:/Work/DeviceTester/amazon-freertos/tests/common/mqtt\aws_test_mqtt_agent.c ****     MQTTAgentHandle_t xMQTTHandle = NULL;
  72              		.loc 1 237 0
  73 0020 FEFFFFEB 		bl	memset
  74              	.LVL3:
 244:D:/Work/DeviceTester/amazon-freertos/tests/common/mqtt\aws_test_mqtt_agent.c **** 
  75              		.loc 1 244 0
  76 0024 08E29FE5 		ldr	lr, .L16
 238:D:/Work/DeviceTester/amazon-freertos/tests/common/mqtt\aws_test_mqtt_agent.c ****     MQTTAgentSubscribeParams_t xSubscribeParams;
  77              		.loc 1 238 0
  78 0028 0030A0E3 		mov	r3, #0
  79 002c 10308DE5 		str	r3, [sp, #16]
 244:D:/Work/DeviceTester/amazon-freertos/tests/common/mqtt\aws_test_mqtt_agent.c **** 
  80              		.loc 1 244 0
  81 0030 34C08DE2 		add	ip, sp, #52
 241:D:/Work/DeviceTester/amazon-freertos/tests/common/mqtt\aws_test_mqtt_agent.c ****     MQTTAgentConnectParams_t xConnectParameters;
  82              		.loc 1 241 0
  83 0034 08308DE5 		str	r3, [sp, #8]
  84              	.LVL4:
 244:D:/Work/DeviceTester/amazon-freertos/tests/common/mqtt\aws_test_mqtt_agent.c **** 
  85              		.loc 1 244 0
  86 0038 0F00BEE8 		ldmia	lr!, {r0, r1, r2, r3}
  87 003c 0F00ACE8 		stmia	ip!, {r0, r1, r2, r3}
  88 0040 0F00BEE8 		ldmia	lr!, {r0, r1, r2, r3}
  89 0044 0F00ACE8 		stmia	ip!, {r0, r1, r2, r3}
  90 0048 07009EE8 		ldm	lr, {r0, r1, r2}
  91 004c 07008CE8 		stm	ip, {r0, r1, r2}
 247:D:/Work/DeviceTester/amazon-freertos/tests/common/mqtt\aws_test_mqtt_agent.c **** 
  92              		.loc 1 247 0
  93 0050 60208DE2 		add	r2, sp, #96
  94 0054 0010A0E3 		mov	r1, #0
  95 0058 0100A0E3 		mov	r0, #1
  96 005c FEFFFFEB 		bl	xQueueCreateCountingSemaphoreStatic
  97              	.LVL5:
  98 0060 000050E3 		cmp	r0, #0
  99 0064 6700000A 		beq	.L3
 100              	.L6:
 250:D:/Work/DeviceTester/amazon-freertos/tests/common/mqtt\aws_test_mqtt_agent.c ****         ( char * ) xConnectParameters.pucClientId );
 101              		.loc 1 250 0
 102 0068 44009DE5 		ldr	r0, [sp, #68]
 103 006c FEFFFFEB 		bl	strlen
 104              	.LVL6:
 254:D:/Work/DeviceTester/amazon-freertos/tests/common/mqtt\aws_test_mqtt_agent.c ****     {
 105              		.loc 1 254 0
 106 0070 010054E3 		cmp	r4, #1
 250:D:/Work/DeviceTester/amazon-freertos/tests/common/mqtt\aws_test_mqtt_agent.c ****         ( char * ) xConnectParameters.pucClientId );
 107              		.loc 1 250 0
 108 0074 B804CDE1 		strh	r0, [sp, #72]	@ movhi
 254:D:/Work/DeviceTester/amazon-freertos/tests/common/mqtt\aws_test_mqtt_agent.c ****     {
 109              		.loc 1 254 0
 256:D:/Work/DeviceTester/amazon-freertos/tests/common/mqtt\aws_test_mqtt_agent.c ****     }
 110              		.loc 1 256 0
 111 0078 38309D05 		ldreq	r3, [sp, #56]
 112 007c 04308303 		orreq	r3, r3, #4
 113 0080 38308D05 		streq	r3, [sp, #56]
 114              	.L5:
 259:D:/Work/DeviceTester/amazon-freertos/tests/common/mqtt\aws_test_mqtt_agent.c ****     {
 115              		.loc 1 259 0
 116 0084 AC019FE5 		ldr	r0, .L16+4
 117 0088 FEFFFFEB 		bl	setjmp
 118              	.LVL7:
 119 008c 004050E2 		subs	r4, r0, #0
 120              	.LVL8:
 121 0090 6300001A 		bne	.L14
 263:D:/Work/DeviceTester/amazon-freertos/tests/common/mqtt\aws_test_mqtt_agent.c ****         xMQTTAgentCreated = pdTRUE;
 122              		.loc 1 263 0
 123 0094 1450A0E3 		mov	r5, #20
 262:D:/Work/DeviceTester/amazon-freertos/tests/common/mqtt\aws_test_mqtt_agent.c ****         TEST_ASSERT_EQUAL_INT( xReturned, eMQTTAgentSuccess );
 124              		.loc 1 262 0
 125 0098 10008DE2 		add	r0, sp, #16
 126 009c FEFFFFEB 		bl	MQTT_AGENT_Create
 127              	.LVL9:
 263:D:/Work/DeviceTester/amazon-freertos/tests/common/mqtt\aws_test_mqtt_agent.c ****         xMQTTAgentCreated = pdTRUE;
 128              		.loc 1 263 0
 129 00a0 073100E3 		movw	r3, #263
 130 00a4 0420A0E1 		mov	r2, r4
 131 00a8 0410A0E1 		mov	r1, r4
 132 00ac 00508DE5 		str	r5, [sp]
 133 00b0 FEFFFFEB 		bl	UnityAssertEqualNumber
 134              	.LVL10:
 264:D:/Work/DeviceTester/amazon-freertos/tests/common/mqtt\aws_test_mqtt_agent.c **** 
 135              		.loc 1 264 0
 136 00b4 0130A0E3 		mov	r3, #1
 267:D:/Work/DeviceTester/amazon-freertos/tests/common/mqtt\aws_test_mqtt_agent.c ****                                         &xConnectParameters,
 137              		.loc 1 267 0
 138 00b8 102702E3 		movw	r2, #10000
 139 00bc 34108DE2 		add	r1, sp, #52
 140 00c0 10009DE5 		ldr	r0, [sp, #16]
 264:D:/Work/DeviceTester/amazon-freertos/tests/common/mqtt\aws_test_mqtt_agent.c **** 
 141              		.loc 1 264 0
 142 00c4 08308DE5 		str	r3, [sp, #8]
 274:D:/Work/DeviceTester/amazon-freertos/tests/common/mqtt\aws_test_mqtt_agent.c ****         xSubscribeParams.pxPublishCallback = prvMQTTCallback;
 143              		.loc 1 274 0
 144 00c8 60608DE2 		add	r6, sp, #96
 267:D:/Work/DeviceTester/amazon-freertos/tests/common/mqtt\aws_test_mqtt_agent.c ****                                         &xConnectParameters,
 145              		.loc 1 267 0
 146 00cc FEFFFFEB 		bl	MQTT_AGENT_Connect
 147              	.LVL11:
 270:D:/Work/DeviceTester/amazon-freertos/tests/common/mqtt\aws_test_mqtt_agent.c **** 
 148              		.loc 1 270 0
 149 00d0 0E3100E3 		movw	r3, #270
 150 00d4 60219FE5 		ldr	r2, .L16+8
 151 00d8 0410A0E1 		mov	r1, r4
 152 00dc 00508DE5 		str	r5, [sp]
 153 00e0 FEFFFFEB 		bl	UnityAssertEqualNumber
 154              	.LVL12:
 275:D:/Work/DeviceTester/amazon-freertos/tests/common/mqtt\aws_test_mqtt_agent.c ****         xSubscribeParams.usTopicLength = ( uint16_t ) strlen( ( const char * ) mqttagenttestTOPIC_N
 155              		.loc 1 275 0
 156 00e4 54319FE5 		ldr	r3, .L16+12
 276:D:/Work/DeviceTester/amazon-freertos/tests/common/mqtt\aws_test_mqtt_agent.c ****         xSubscribeParams.xQoS = eMQTTQoS1;
 157              		.loc 1 276 0
 158 00e8 1370A0E3 		mov	r7, #19
 273:D:/Work/DeviceTester/amazon-freertos/tests/common/mqtt\aws_test_mqtt_agent.c ****         xSubscribeParams.pvPublishCallbackContext = &xSemaphore;
 159              		.loc 1 273 0
 160 00ec 50819FE5 		ldr	r8, .L16+16
 280:D:/Work/DeviceTester/amazon-freertos/tests/common/mqtt\aws_test_mqtt_agent.c ****                                           &xSubscribeParams,
 161              		.loc 1 280 0
 162 00f0 102702E3 		movw	r2, #10000
 163 00f4 05108DE0 		add	r1, sp, r5
 164 00f8 10009DE5 		ldr	r0, [sp, #16]
 275:D:/Work/DeviceTester/amazon-freertos/tests/common/mqtt\aws_test_mqtt_agent.c ****         xSubscribeParams.usTopicLength = ( uint16_t ) strlen( ( const char * ) mqttagenttestTOPIC_N
 165              		.loc 1 275 0
 166 00fc 20308DE5 		str	r3, [sp, #32]
 277:D:/Work/DeviceTester/amazon-freertos/tests/common/mqtt\aws_test_mqtt_agent.c **** 
 167              		.loc 1 277 0
 168 0100 0830DDE5 		ldrb	r3, [sp, #8]	@ zero_extendqisi2
 273:D:/Work/DeviceTester/amazon-freertos/tests/common/mqtt\aws_test_mqtt_agent.c ****         xSubscribeParams.pvPublishCallbackContext = &xSemaphore;
 169              		.loc 1 273 0
 170 0104 14808DE5 		str	r8, [sp, #20]
 274:D:/Work/DeviceTester/amazon-freertos/tests/common/mqtt\aws_test_mqtt_agent.c ****         xSubscribeParams.pxPublishCallback = prvMQTTCallback;
 171              		.loc 1 274 0
 172 0108 1C608DE5 		str	r6, [sp, #28]
 277:D:/Work/DeviceTester/amazon-freertos/tests/common/mqtt\aws_test_mqtt_agent.c **** 
 173              		.loc 1 277 0
 174 010c 1A30CDE5 		strb	r3, [sp, #26]
 276:D:/Work/DeviceTester/amazon-freertos/tests/common/mqtt\aws_test_mqtt_agent.c ****         xSubscribeParams.xQoS = eMQTTQoS1;
 175              		.loc 1 276 0
 176 0110 B871CDE1 		strh	r7, [sp, #24]	@ movhi
 280:D:/Work/DeviceTester/amazon-freertos/tests/common/mqtt\aws_test_mqtt_agent.c ****                                           &xSubscribeParams,
 177              		.loc 1 280 0
 178 0114 FEFFFFEB 		bl	MQTT_AGENT_Subscribe
 179              	.LVL13:
 283:D:/Work/DeviceTester/amazon-freertos/tests/common/mqtt\aws_test_mqtt_agent.c **** 
 180              		.loc 1 283 0
 181 0118 1B3100E3 		movw	r3, #283
 182 011c 0420A0E1 		mov	r2, r4
 183 0120 0410A0E1 		mov	r1, r4
 184 0124 00508DE5 		str	r5, [sp]
 185 0128 FEFFFFEB 		bl	UnityAssertEqualNumber
 186              	.LVL14:
 286:D:/Work/DeviceTester/amazon-freertos/tests/common/mqtt\aws_test_mqtt_agent.c ****         xPublishParameters.pucTopic = mqttagenttestTOPIC_NAME;
 187              		.loc 1 286 0
 188 012c 1020A0E3 		mov	r2, #16
 189 0130 0410A0E1 		mov	r1, r4
 190 0134 24008DE2 		add	r0, sp, #36
 191 0138 FEFFFFEB 		bl	memset
 192              	.LVL15:
 288:D:/Work/DeviceTester/amazon-freertos/tests/common/mqtt\aws_test_mqtt_agent.c ****         xPublishParameters.usTopicLength = ( uint16_t ) strlen( ( const char * ) mqttagenttestTOPIC
 193              		.loc 1 288 0
 194 013c 04319FE5 		ldr	r3, .L16+20
 294:D:/Work/DeviceTester/amazon-freertos/tests/common/mqtt\aws_test_mqtt_agent.c ****                                         &( xPublishParameters ),
 195              		.loc 1 294 0
 196 0140 102702E3 		movw	r2, #10000
 197 0144 24108DE2 		add	r1, sp, #36
 198 0148 10009DE5 		ldr	r0, [sp, #16]
 287:D:/Work/DeviceTester/amazon-freertos/tests/common/mqtt\aws_test_mqtt_agent.c ****         xPublishParameters.pvData = mqttagenttestMESSAGE;
 199              		.loc 1 287 0
 200 014c 24808DE5 		str	r8, [sp, #36]
 288:D:/Work/DeviceTester/amazon-freertos/tests/common/mqtt\aws_test_mqtt_agent.c ****         xPublishParameters.usTopicLength = ( uint16_t ) strlen( ( const char * ) mqttagenttestTOPIC
 201              		.loc 1 288 0
 202 0150 2C308DE5 		str	r3, [sp, #44]
 291:D:/Work/DeviceTester/amazon-freertos/tests/common/mqtt\aws_test_mqtt_agent.c **** 
 203              		.loc 1 291 0
 204 0154 0830DDE5 		ldrb	r3, [sp, #8]	@ zero_extendqisi2
 289:D:/Work/DeviceTester/amazon-freertos/tests/common/mqtt\aws_test_mqtt_agent.c ****         xPublishParameters.ulDataLength = ( uint32_t ) strlen( mqttagenttestMESSAGE );
 205              		.loc 1 289 0
 206 0158 B872CDE1 		strh	r7, [sp, #40]	@ movhi
 290:D:/Work/DeviceTester/amazon-freertos/tests/common/mqtt\aws_test_mqtt_agent.c ****         xPublishParameters.xQoS = eMQTTQoS1;
 207              		.loc 1 290 0
 208 015c 30508DE5 		str	r5, [sp, #48]
 291:D:/Work/DeviceTester/amazon-freertos/tests/common/mqtt\aws_test_mqtt_agent.c **** 
 209              		.loc 1 291 0
 210 0160 2A30CDE5 		strb	r3, [sp, #42]
 294:D:/Work/DeviceTester/amazon-freertos/tests/common/mqtt\aws_test_mqtt_agent.c ****                                         &( xPublishParameters ),
 211              		.loc 1 294 0
 212 0164 FEFFFFEB 		bl	MQTT_AGENT_Publish
 213              	.LVL16:
 297:D:/Work/DeviceTester/amazon-freertos/tests/common/mqtt\aws_test_mqtt_agent.c **** 
 214              		.loc 1 297 0
 215 0168 293100E3 		movw	r3, #297
 216 016c 0420A0E1 		mov	r2, r4
 217 0170 0410A0E1 		mov	r1, r4
 218 0174 00508DE5 		str	r5, [sp]
 219 0178 FEFFFFEB 		bl	UnityAssertEqualNumber
 220              	.LVL17:
 300:D:/Work/DeviceTester/amazon-freertos/tests/common/mqtt\aws_test_mqtt_agent.c ****         {
 221              		.loc 1 300 0
 222 017c 101702E3 		movw	r1, #10000
 223 0180 0600A0E1 		mov	r0, r6
 224 0184 FEFFFFEB 		bl	xQueueSemaphoreTake
 225              	.LVL18:
 226 0188 000050E3 		cmp	r0, #0
 227 018c 2100000A 		beq	.L9
 228              	.L11:
 306:D:/Work/DeviceTester/amazon-freertos/tests/common/mqtt\aws_test_mqtt_agent.c ****         TEST_ASSERT_EQUAL_INT( xReturned, eMQTTAgentSuccess );
 229              		.loc 1 306 0
 230 0190 101702E3 		movw	r1, #10000
 231 0194 10009DE5 		ldr	r0, [sp, #16]
 232 0198 FEFFFFEB 		bl	MQTT_AGENT_Disconnect
 233              	.LVL19:
 307:D:/Work/DeviceTester/amazon-freertos/tests/common/mqtt\aws_test_mqtt_agent.c ****     }
 234              		.loc 1 307 0
 235 019c 1430A0E3 		mov	r3, #20
 236 01a0 0020A0E3 		mov	r2, #0
 237 01a4 00308DE5 		str	r3, [sp]
 238 01a8 0210A0E1 		mov	r1, r2
 239 01ac 333100E3 		movw	r3, #307
 306:D:/Work/DeviceTester/amazon-freertos/tests/common/mqtt\aws_test_mqtt_agent.c ****         TEST_ASSERT_EQUAL_INT( xReturned, eMQTTAgentSuccess );
 240              		.loc 1 306 0
 241 01b0 0C008DE5 		str	r0, [sp, #12]
 242              	.LVL20:
 307:D:/Work/DeviceTester/amazon-freertos/tests/common/mqtt\aws_test_mqtt_agent.c ****     }
 243              		.loc 1 307 0
 244 01b4 FEFFFFEB 		bl	UnityAssertEqualNumber
 245              	.LVL21:
 246              	.L12:
 315:D:/Work/DeviceTester/amazon-freertos/tests/common/mqtt\aws_test_mqtt_agent.c **** 
 247              		.loc 1 315 0
 248 01b8 38309DE5 		ldr	r3, [sp, #56]
 249 01bc 0430C3E3 		bic	r3, r3, #4
 250 01c0 38308DE5 		str	r3, [sp, #56]
 317:D:/Work/DeviceTester/amazon-freertos/tests/common/mqtt\aws_test_mqtt_agent.c ****     {
 251              		.loc 1 317 0
 252 01c4 08309DE5 		ldr	r3, [sp, #8]
 253 01c8 010053E3 		cmp	r3, #1
 254 01cc 0800001A 		bne	.L13
 320:D:/Work/DeviceTester/amazon-freertos/tests/common/mqtt\aws_test_mqtt_agent.c ****         TEST_ASSERT_EQUAL_INT( xReturned, eMQTTAgentSuccess );
 255              		.loc 1 320 0
 256 01d0 10009DE5 		ldr	r0, [sp, #16]
 257 01d4 FEFFFFEB 		bl	MQTT_AGENT_Delete
 258              	.LVL22:
 321:D:/Work/DeviceTester/amazon-freertos/tests/common/mqtt\aws_test_mqtt_agent.c ****     }
 259              		.loc 1 321 0
 260 01d8 1430A0E3 		mov	r3, #20
 261 01dc 0020A0E3 		mov	r2, #0
 262 01e0 00308DE5 		str	r3, [sp]
 263 01e4 0210A0E1 		mov	r1, r2
 264 01e8 413100E3 		movw	r3, #321
 320:D:/Work/DeviceTester/amazon-freertos/tests/common/mqtt\aws_test_mqtt_agent.c ****         TEST_ASSERT_EQUAL_INT( xReturned, eMQTTAgentSuccess );
 265              		.loc 1 320 0
 266 01ec 0C008DE5 		str	r0, [sp, #12]
 267              	.LVL23:
 321:D:/Work/DeviceTester/amazon-freertos/tests/common/mqtt\aws_test_mqtt_agent.c ****     }
 268              		.loc 1 321 0
 269 01f0 FEFFFFEB 		bl	UnityAssertEqualNumber
 270              	.LVL24:
 271              	.L13:
 325:D:/Work/DeviceTester/amazon-freertos/tests/common/mqtt\aws_test_mqtt_agent.c **** /*-----------------------------------------------------------*/
 272              		.loc 1 325 0
 273 01f4 0C309DE5 		ldr	r3, [sp, #12]
 274 01f8 130F6FE1 		clz	r0, r3
 275 01fc A002A0E1 		lsr	r0, r0, #5
 276 0200 B0D08DE2 		add	sp, sp, #176
 277              		.cfi_remember_state
 278              		.cfi_def_cfa_offset 24
 279              		@ sp needed
 280 0204 F081BDE8 		pop	{r4, r5, r6, r7, r8, pc}
 281              	.LVL25:
 282              	.L3:
 283              		.cfi_restore_state
 247:D:/Work/DeviceTester/amazon-freertos/tests/common/mqtt\aws_test_mqtt_agent.c **** 
 284              		.loc 1 247 0 discriminator 2
 285 0208 F710A0E3 		mov	r1, #247
 286 020c 38009FE5 		ldr	r0, .L16+24
 287 0210 FEFFFFEB 		bl	UnityFail
 288              	.LVL26:
 289 0214 93FFFFEA 		b	.L6
 290              	.LVL27:
 291              	.L9:
 302:D:/Work/DeviceTester/amazon-freertos/tests/common/mqtt\aws_test_mqtt_agent.c ****         }
 292              		.loc 1 302 0
 293 0218 2E1100E3 		movw	r1, #302
 294 021c FEFFFFEB 		bl	UnityFail
 295              	.LVL28:
 296 0220 DAFFFFEA 		b	.L11
 297              	.LVL29:
 298              	.L14:
 311:D:/Work/DeviceTester/amazon-freertos/tests/common/mqtt\aws_test_mqtt_agent.c ****     }
 299              		.loc 1 311 0
 300 0224 371100E3 		movw	r1, #311
 301 0228 0000A0E3 		mov	r0, #0
 302 022c FEFFFFEB 		bl	UnityFail
 303              	.LVL30:
 304 0230 E0FFFFEA 		b	.L12
 305              	.L17:
 306              		.align	2
 307              	.L16:
 308 0234 00000000 		.word	.LANCHOR0
 309 0238 28000000 		.word	Unity+40
 310 023c 13000000 		.word	.LC1
 311 0240 00000000 		.word	prvMQTTCallback
 312 0244 53000000 		.word	.LC2
 313 0248 67000000 		.word	.LC3
 314 024c 00000000 		.word	.LC0
 315              		.cfi_endproc
 316              	.LFE3:
 318              		.section	.text.TEST_Full_MQTT_Agent_AFQP_MQTT_Agent_SubscribePublishDefaultPort_,"ax",%progbits
 319              		.align	2
 320              		.global	TEST_Full_MQTT_Agent_AFQP_MQTT_Agent_SubscribePublishDefaultPort_
 321              		.syntax unified
 322              		.arm
 323              		.fpu neon
 325              	TEST_Full_MQTT_Agent_AFQP_MQTT_Agent_SubscribePublishDefaultPort_:
 326              	.LFB14:
 360:D:/Work/DeviceTester/amazon-freertos/tests/common/mqtt\aws_test_mqtt_agent.c **** }
 361:D:/Work/DeviceTester/amazon-freertos/tests/common/mqtt\aws_test_mqtt_agent.c **** /*-----------------------------------------------------------*/
 362:D:/Work/DeviceTester/amazon-freertos/tests/common/mqtt\aws_test_mqtt_agent.c **** 
 363:D:/Work/DeviceTester/amazon-freertos/tests/common/mqtt\aws_test_mqtt_agent.c **** /**
 364:D:/Work/DeviceTester/amazon-freertos/tests/common/mqtt\aws_test_mqtt_agent.c ****  * @brief Function to define which tests to execute as part of this group.
 365:D:/Work/DeviceTester/amazon-freertos/tests/common/mqtt\aws_test_mqtt_agent.c ****  */
 366:D:/Work/DeviceTester/amazon-freertos/tests/common/mqtt\aws_test_mqtt_agent.c **** TEST_GROUP_RUNNER( Full_MQTT_Agent )
 367:D:/Work/DeviceTester/amazon-freertos/tests/common/mqtt\aws_test_mqtt_agent.c **** {
 368:D:/Work/DeviceTester/amazon-freertos/tests/common/mqtt\aws_test_mqtt_agent.c ****     RUN_TEST_CASE( Full_MQTT_Agent, AFQP_MQTT_Agent_SubscribePublishDefaultPort );
 369:D:/Work/DeviceTester/amazon-freertos/tests/common/mqtt\aws_test_mqtt_agent.c ****     RUN_TEST_CASE( Full_MQTT_Agent, AFQP_MQTT_Agent_InvalidCredentials );
 370:D:/Work/DeviceTester/amazon-freertos/tests/common/mqtt\aws_test_mqtt_agent.c **** }
 371:D:/Work/DeviceTester/amazon-freertos/tests/common/mqtt\aws_test_mqtt_agent.c **** TEST_GROUP_RUNNER( Full_MQTT_Agent_Stress_Tests )
 372:D:/Work/DeviceTester/amazon-freertos/tests/common/mqtt\aws_test_mqtt_agent.c **** {
 373:D:/Work/DeviceTester/amazon-freertos/tests/common/mqtt\aws_test_mqtt_agent.c ****     RUN_TEST_CASE( Full_MQTT_Agent_Stress_Tests, MQTT_Agent_MultiTaskTest );
 374:D:/Work/DeviceTester/amazon-freertos/tests/common/mqtt\aws_test_mqtt_agent.c **** }
 375:D:/Work/DeviceTester/amazon-freertos/tests/common/mqtt\aws_test_mqtt_agent.c **** TEST_GROUP_RUNNER( Full_MQTT_Agent_ALPN )
 376:D:/Work/DeviceTester/amazon-freertos/tests/common/mqtt\aws_test_mqtt_agent.c **** {
 377:D:/Work/DeviceTester/amazon-freertos/tests/common/mqtt\aws_test_mqtt_agent.c ****     RUN_TEST_CASE( Full_MQTT_Agent_ALPN, MQTT_Agent_SubscribePublishAlpn );
 378:D:/Work/DeviceTester/amazon-freertos/tests/common/mqtt\aws_test_mqtt_agent.c **** }
 379:D:/Work/DeviceTester/amazon-freertos/tests/common/mqtt\aws_test_mqtt_agent.c **** /*-----------------------------------------------------------*/
 380:D:/Work/DeviceTester/amazon-freertos/tests/common/mqtt\aws_test_mqtt_agent.c **** 
 381:D:/Work/DeviceTester/amazon-freertos/tests/common/mqtt\aws_test_mqtt_agent.c **** /* Test for ping-ponging a message using the default AWS IoT port for MQTT. */
 382:D:/Work/DeviceTester/amazon-freertos/tests/common/mqtt\aws_test_mqtt_agent.c **** TEST( Full_MQTT_Agent, AFQP_MQTT_Agent_SubscribePublishDefaultPort )
 383:D:/Work/DeviceTester/amazon-freertos/tests/common/mqtt\aws_test_mqtt_agent.c **** {
 327              		.loc 1 383 0
 328              		.cfi_startproc
 329              		@ args = 0, pretend = 0, frame = 0
 330              		@ frame_needed = 0, uses_anonymous_args = 0
 331              		@ link register save eliminated.
 384:D:/Work/DeviceTester/amazon-freertos/tests/common/mqtt\aws_test_mqtt_agent.c ****     prvCreateClientAndConnectToBroker( pdFALSE );
 332              		.loc 1 384 0
 333 0000 0000A0E3 		mov	r0, #0
 334 0004 FEFFFFEA 		b	prvCreateClientAndConnectToBroker
 335              	.LVL31:
 336              		.cfi_endproc
 337              	.LFE14:
 339              		.section	.text.TEST_Full_MQTT_Agent_ALPN_MQTT_Agent_SubscribePublishAlpn_,"ax",%progbits
 340              		.align	2
 341              		.global	TEST_Full_MQTT_Agent_ALPN_MQTT_Agent_SubscribePublishAlpn_
 342              		.syntax unified
 343              		.arm
 344              		.fpu neon
 346              	TEST_Full_MQTT_Agent_ALPN_MQTT_Agent_SubscribePublishAlpn_:
 347              	.LFB18:
 385:D:/Work/DeviceTester/amazon-freertos/tests/common/mqtt\aws_test_mqtt_agent.c **** }
 386:D:/Work/DeviceTester/amazon-freertos/tests/common/mqtt\aws_test_mqtt_agent.c **** 
 387:D:/Work/DeviceTester/amazon-freertos/tests/common/mqtt\aws_test_mqtt_agent.c **** /* Test for ping-ponging a message using the default AWS IoT port for MQTT. */
 388:D:/Work/DeviceTester/amazon-freertos/tests/common/mqtt\aws_test_mqtt_agent.c **** TEST( Full_MQTT_Agent, AFQP_MQTT_Agent_InvalidCredentials )
 389:D:/Work/DeviceTester/amazon-freertos/tests/common/mqtt\aws_test_mqtt_agent.c **** {
 390:D:/Work/DeviceTester/amazon-freertos/tests/common/mqtt\aws_test_mqtt_agent.c ****     MQTTAgentReturnCode_t xReturned;
 391:D:/Work/DeviceTester/amazon-freertos/tests/common/mqtt\aws_test_mqtt_agent.c ****     MQTTAgentHandle_t xMQTTHandle = NULL;
 392:D:/Work/DeviceTester/amazon-freertos/tests/common/mqtt\aws_test_mqtt_agent.c ****     BaseType_t xClientCreated, xClientConnected;
 393:D:/Work/DeviceTester/amazon-freertos/tests/common/mqtt\aws_test_mqtt_agent.c ****     MQTTAgentConnectParams_t xConnectParameters;
 394:D:/Work/DeviceTester/amazon-freertos/tests/common/mqtt\aws_test_mqtt_agent.c **** 
 395:D:/Work/DeviceTester/amazon-freertos/tests/common/mqtt\aws_test_mqtt_agent.c ****     memcpy( &xConnectParameters, &xDefaultConnectParameters, sizeof( MQTTAgentConnectParams_t ) );
 396:D:/Work/DeviceTester/amazon-freertos/tests/common/mqtt\aws_test_mqtt_agent.c **** 
 397:D:/Work/DeviceTester/amazon-freertos/tests/common/mqtt\aws_test_mqtt_agent.c ****     /* Initialize the semaphore. */
 398:D:/Work/DeviceTester/amazon-freertos/tests/common/mqtt\aws_test_mqtt_agent.c ****     if( TEST_PROTECT() )
 399:D:/Work/DeviceTester/amazon-freertos/tests/common/mqtt\aws_test_mqtt_agent.c ****     {
 400:D:/Work/DeviceTester/amazon-freertos/tests/common/mqtt\aws_test_mqtt_agent.c ****         xClientCreated = pdFALSE;
 401:D:/Work/DeviceTester/amazon-freertos/tests/common/mqtt\aws_test_mqtt_agent.c ****         /* Arbitrary invalid credentials. */
 402:D:/Work/DeviceTester/amazon-freertos/tests/common/mqtt\aws_test_mqtt_agent.c ****         xConnectParameters.pcCertificate = "abcd";
 403:D:/Work/DeviceTester/amazon-freertos/tests/common/mqtt\aws_test_mqtt_agent.c ****         xConnectParameters.ulCertificateSize = ( uint16_t ) strlen( xConnectParameters.pcCertificat
 404:D:/Work/DeviceTester/amazon-freertos/tests/common/mqtt\aws_test_mqtt_agent.c ****         /* Fill in the MQTTAgentConnectParams_t member that is not const. */
 405:D:/Work/DeviceTester/amazon-freertos/tests/common/mqtt\aws_test_mqtt_agent.c ****         xConnectParameters.usClientIdLength = ( uint16_t ) strlen(
 406:D:/Work/DeviceTester/amazon-freertos/tests/common/mqtt\aws_test_mqtt_agent.c ****             ( char * ) xConnectParameters.pucClientId );
 407:D:/Work/DeviceTester/amazon-freertos/tests/common/mqtt\aws_test_mqtt_agent.c **** 
 408:D:/Work/DeviceTester/amazon-freertos/tests/common/mqtt\aws_test_mqtt_agent.c **** 
 409:D:/Work/DeviceTester/amazon-freertos/tests/common/mqtt\aws_test_mqtt_agent.c ****         /* The MQTT client object must be created before it can be used. */
 410:D:/Work/DeviceTester/amazon-freertos/tests/common/mqtt\aws_test_mqtt_agent.c ****         xReturned = MQTT_AGENT_Create( &xMQTTHandle );
 411:D:/Work/DeviceTester/amazon-freertos/tests/common/mqtt\aws_test_mqtt_agent.c ****         TEST_ASSERT_EQUAL_INT( xReturned, eMQTTAgentSuccess );
 412:D:/Work/DeviceTester/amazon-freertos/tests/common/mqtt\aws_test_mqtt_agent.c ****         xClientCreated = pdTRUE;
 413:D:/Work/DeviceTester/amazon-freertos/tests/common/mqtt\aws_test_mqtt_agent.c **** 
 414:D:/Work/DeviceTester/amazon-freertos/tests/common/mqtt\aws_test_mqtt_agent.c ****         /* Connect to the broker. */
 415:D:/Work/DeviceTester/amazon-freertos/tests/common/mqtt\aws_test_mqtt_agent.c ****         xClientConnected = pdTRUE;
 416:D:/Work/DeviceTester/amazon-freertos/tests/common/mqtt\aws_test_mqtt_agent.c ****         xReturned = MQTT_AGENT_Connect( xMQTTHandle,
 417:D:/Work/DeviceTester/amazon-freertos/tests/common/mqtt\aws_test_mqtt_agent.c ****                                         &xConnectParameters,
 418:D:/Work/DeviceTester/amazon-freertos/tests/common/mqtt\aws_test_mqtt_agent.c ****                                         mqttagenttestTIMEOUT );
 419:D:/Work/DeviceTester/amazon-freertos/tests/common/mqtt\aws_test_mqtt_agent.c ****         TEST_ASSERT_NOT_EQUAL( xReturned, eMQTTAgentSuccess );
 420:D:/Work/DeviceTester/amazon-freertos/tests/common/mqtt\aws_test_mqtt_agent.c ****         xClientConnected = pdFALSE;
 421:D:/Work/DeviceTester/amazon-freertos/tests/common/mqtt\aws_test_mqtt_agent.c ****     }
 422:D:/Work/DeviceTester/amazon-freertos/tests/common/mqtt\aws_test_mqtt_agent.c **** 
 423:D:/Work/DeviceTester/amazon-freertos/tests/common/mqtt\aws_test_mqtt_agent.c ****     /* Connect to the broker. */
 424:D:/Work/DeviceTester/amazon-freertos/tests/common/mqtt\aws_test_mqtt_agent.c ****     if( xClientConnected == pdTRUE )
 425:D:/Work/DeviceTester/amazon-freertos/tests/common/mqtt\aws_test_mqtt_agent.c ****     {
 426:D:/Work/DeviceTester/amazon-freertos/tests/common/mqtt\aws_test_mqtt_agent.c ****         /* If enter here, test has already failed. */
 427:D:/Work/DeviceTester/amazon-freertos/tests/common/mqtt\aws_test_mqtt_agent.c ****         xReturned = MQTT_AGENT_Disconnect( xMQTTHandle,
 428:D:/Work/DeviceTester/amazon-freertos/tests/common/mqtt\aws_test_mqtt_agent.c ****                                            mqttagenttestTIMEOUT );
 429:D:/Work/DeviceTester/amazon-freertos/tests/common/mqtt\aws_test_mqtt_agent.c **** 
 430:D:/Work/DeviceTester/amazon-freertos/tests/common/mqtt\aws_test_mqtt_agent.c ****         if( xReturned != eMQTTAgentSuccess )
 431:D:/Work/DeviceTester/amazon-freertos/tests/common/mqtt\aws_test_mqtt_agent.c ****         {
 432:D:/Work/DeviceTester/amazon-freertos/tests/common/mqtt\aws_test_mqtt_agent.c ****             mqttagenttestFAILUREPRINTF( ( "%s: Could not disconnect client.\r\n", __FUNCTION__ ) );
 433:D:/Work/DeviceTester/amazon-freertos/tests/common/mqtt\aws_test_mqtt_agent.c ****         }
 434:D:/Work/DeviceTester/amazon-freertos/tests/common/mqtt\aws_test_mqtt_agent.c ****     }
 435:D:/Work/DeviceTester/amazon-freertos/tests/common/mqtt\aws_test_mqtt_agent.c **** 
 436:D:/Work/DeviceTester/amazon-freertos/tests/common/mqtt\aws_test_mqtt_agent.c ****     if( xClientCreated == pdTRUE )
 437:D:/Work/DeviceTester/amazon-freertos/tests/common/mqtt\aws_test_mqtt_agent.c ****     {
 438:D:/Work/DeviceTester/amazon-freertos/tests/common/mqtt\aws_test_mqtt_agent.c ****         /* Delete the MQTT client. */
 439:D:/Work/DeviceTester/amazon-freertos/tests/common/mqtt\aws_test_mqtt_agent.c ****         xReturned = MQTT_AGENT_Delete( xMQTTHandle );
 440:D:/Work/DeviceTester/amazon-freertos/tests/common/mqtt\aws_test_mqtt_agent.c ****         TEST_ASSERT_EQUAL_INT( xReturned, eMQTTAgentSuccess );
 441:D:/Work/DeviceTester/amazon-freertos/tests/common/mqtt\aws_test_mqtt_agent.c ****     }
 442:D:/Work/DeviceTester/amazon-freertos/tests/common/mqtt\aws_test_mqtt_agent.c **** }
 443:D:/Work/DeviceTester/amazon-freertos/tests/common/mqtt\aws_test_mqtt_agent.c **** /*-----------------------------------------------------------*/
 444:D:/Work/DeviceTester/amazon-freertos/tests/common/mqtt\aws_test_mqtt_agent.c **** 
 445:D:/Work/DeviceTester/amazon-freertos/tests/common/mqtt\aws_test_mqtt_agent.c **** /* Test for ping-ponging a message using AWS IoT MQTT broker support for port 443. */
 446:D:/Work/DeviceTester/amazon-freertos/tests/common/mqtt\aws_test_mqtt_agent.c **** TEST( Full_MQTT_Agent_ALPN, MQTT_Agent_SubscribePublishAlpn )
 447:D:/Work/DeviceTester/amazon-freertos/tests/common/mqtt\aws_test_mqtt_agent.c **** {
 348              		.loc 1 447 0
 349              		.cfi_startproc
 350              		@ args = 0, pretend = 0, frame = 0
 351              		@ frame_needed = 0, uses_anonymous_args = 0
 352              		@ link register save eliminated.
 448:D:/Work/DeviceTester/amazon-freertos/tests/common/mqtt\aws_test_mqtt_agent.c ****     prvCreateClientAndConnectToBroker( pdTRUE );
 353              		.loc 1 448 0
 354 0000 0100A0E3 		mov	r0, #1
 355 0004 FEFFFFEA 		b	prvCreateClientAndConnectToBroker
 356              	.LVL32:
 357              		.cfi_endproc
 358              	.LFE18:
 360              		.section	.text.prvMQTTCallback,"ax",%progbits
 361              		.align	2
 362              		.syntax unified
 363              		.arm
 364              		.fpu neon
 366              	prvMQTTCallback:
 367              	.LFB2:
 220:D:/Work/DeviceTester/amazon-freertos/tests/common/mqtt\aws_test_mqtt_agent.c ****     /* Give the semaphore to signal message receipt. */
 368              		.loc 1 220 0
 369              		.cfi_startproc
 370              		@ args = 0, pretend = 0, frame = 0
 371              		@ frame_needed = 0, uses_anonymous_args = 0
 372              	.LVL33:
 222:D:/Work/DeviceTester/amazon-freertos/tests/common/mqtt\aws_test_mqtt_agent.c **** 
 373              		.loc 1 222 0
 374 0000 0030A0E3 		mov	r3, #0
 220:D:/Work/DeviceTester/amazon-freertos/tests/common/mqtt\aws_test_mqtt_agent.c ****     /* Give the semaphore to signal message receipt. */
 375              		.loc 1 220 0
 376 0004 10402DE9 		push	{r4, lr}
 377              		.cfi_def_cfa_offset 8
 378              		.cfi_offset 4, -8
 379              		.cfi_offset 14, -4
 222:D:/Work/DeviceTester/amazon-freertos/tests/common/mqtt\aws_test_mqtt_agent.c **** 
 380              		.loc 1 222 0
 381 0008 0320A0E1 		mov	r2, r3
 382 000c 0310A0E1 		mov	r1, r3
 383              	.LVL34:
 384 0010 FEFFFFEB 		bl	xQueueGenericSend
 385              	.LVL35:
 225:D:/Work/DeviceTester/amazon-freertos/tests/common/mqtt\aws_test_mqtt_agent.c **** 
 386              		.loc 1 225 0
 387 0014 0000A0E3 		mov	r0, #0
 388 0018 1080BDE8 		pop	{r4, pc}
 389              		.cfi_endproc
 390              	.LFE2:
 392              		.section	.text.prvMultiTaskTestMQTTCallback,"ax",%progbits
 393              		.align	2
 394              		.syntax unified
 395              		.arm
 396              		.fpu neon
 398              	prvMultiTaskTestMQTTCallback:
 399              	.LFB1:
 185:D:/Work/DeviceTester/amazon-freertos/tests/common/mqtt\aws_test_mqtt_agent.c ****     MQTTtestAgentCbParam_t * pxMQTTtestAgentCbParam;
 400              		.loc 1 185 0
 401              		.cfi_startproc
 402              		@ args = 0, pretend = 0, frame = 0
 403              		@ frame_needed = 0, uses_anonymous_args = 0
 404              	.LVL36:
 191:D:/Work/DeviceTester/amazon-freertos/tests/common/mqtt\aws_test_mqtt_agent.c **** 
 405              		.loc 1 191 0
 406 0000 0130A0E3 		mov	r3, #1
 185:D:/Work/DeviceTester/amazon-freertos/tests/common/mqtt\aws_test_mqtt_agent.c ****     MQTTtestAgentCbParam_t * pxMQTTtestAgentCbParam;
 407              		.loc 1 185 0
 408 0004 10402DE9 		push	{r4, lr}
 409              		.cfi_def_cfa_offset 8
 410              		.cfi_offset 4, -8
 411              		.cfi_offset 14, -4
 191:D:/Work/DeviceTester/amazon-freertos/tests/common/mqtt\aws_test_mqtt_agent.c **** 
 412              		.loc 1 191 0
 413 0008 043080E5 		str	r3, [r0, #4]
 193:D:/Work/DeviceTester/amazon-freertos/tests/common/mqtt\aws_test_mqtt_agent.c ****     {
 414              		.loc 1 193 0
 415 000c 103091E5 		ldr	r3, [r1, #16]
 416 0010 010C53E3 		cmp	r3, #256
 417 0014 0800000A 		beq	.L23
 418              	.LVL37:
 419              	.L25:
 195:D:/Work/DeviceTester/amazon-freertos/tests/common/mqtt\aws_test_mqtt_agent.c ****     }
 420              		.loc 1 195 0
 421 0018 0030A0E3 		mov	r3, #0
 422 001c 043080E5 		str	r3, [r0, #4]
 423              	.L24:
 210:D:/Work/DeviceTester/amazon-freertos/tests/common/mqtt\aws_test_mqtt_agent.c **** 
 424              		.loc 1 210 0
 425 0020 0030A0E3 		mov	r3, #0
 426 0024 000090E5 		ldr	r0, [r0]
 427              	.LVL38:
 428 0028 0320A0E1 		mov	r2, r3
 429 002c 0310A0E1 		mov	r1, r3
 430 0030 FEFFFFEB 		bl	xQueueGenericSend
 431              	.LVL39:
 213:D:/Work/DeviceTester/amazon-freertos/tests/common/mqtt\aws_test_mqtt_agent.c **** 
 432              		.loc 1 213 0
 433 0034 0000A0E3 		mov	r0, #0
 434 0038 1080BDE8 		pop	{r4, pc}
 435              	.LVL40:
 436              	.L23:
 201:D:/Work/DeviceTester/amazon-freertos/tests/common/mqtt\aws_test_mqtt_agent.c ****             {
 437              		.loc 1 201 0
 438 003c 0C2091E5 		ldr	r2, [r1, #12]
 439 0040 0030A0E3 		mov	r3, #0
 440              	.LVL41:
 441              	.L26:
 442 0044 0310D2E7 		ldrb	r1, [r2, r3]	@ zero_extendqisi2
 443 0048 030051E1 		cmp	r1, r3
 444 004c F1FFFF1A 		bne	.L25
 199:D:/Work/DeviceTester/amazon-freertos/tests/common/mqtt\aws_test_mqtt_agent.c ****         {
 445              		.loc 1 199 0 discriminator 2
 446 0050 013083E2 		add	r3, r3, #1
 447              	.LVL42:
 448 0054 010C53E3 		cmp	r3, #256
 449 0058 F9FFFF1A 		bne	.L26
 450 005c EFFFFFEA 		b	.L24
 451              		.cfi_endproc
 452              	.LFE1:
 454              		.section	.text.TEST_Full_MQTT_Agent_AFQP_MQTT_Agent_InvalidCredentials_,"ax",%progbits
 455              		.align	2
 456              		.global	TEST_Full_MQTT_Agent_AFQP_MQTT_Agent_InvalidCredentials_
 457              		.syntax unified
 458              		.arm
 459              		.fpu neon
 461              	TEST_Full_MQTT_Agent_AFQP_MQTT_Agent_InvalidCredentials_:
 462              	.LFB16:
 389:D:/Work/DeviceTester/amazon-freertos/tests/common/mqtt\aws_test_mqtt_agent.c ****     MQTTAgentReturnCode_t xReturned;
 463              		.loc 1 389 0
 464              		.cfi_startproc
 465              		@ args = 0, pretend = 0, frame = 48
 466              		@ frame_needed = 0, uses_anonymous_args = 0
 467 0000 10402DE9 		push	{r4, lr}
 468              		.cfi_def_cfa_offset 8
 469              		.cfi_offset 4, -8
 470              		.cfi_offset 14, -4
 391:D:/Work/DeviceTester/amazon-freertos/tests/common/mqtt\aws_test_mqtt_agent.c ****     BaseType_t xClientCreated, xClientConnected;
 471              		.loc 1 391 0
 472 0004 0030A0E3 		mov	r3, #0
 395:D:/Work/DeviceTester/amazon-freertos/tests/common/mqtt\aws_test_mqtt_agent.c **** 
 473              		.loc 1 395 0
 474 0008 B8E09FE5 		ldr	lr, .L38
 389:D:/Work/DeviceTester/amazon-freertos/tests/common/mqtt\aws_test_mqtt_agent.c ****     MQTTAgentReturnCode_t xReturned;
 475              		.loc 1 389 0
 476 000c 38D04DE2 		sub	sp, sp, #56
 477              		.cfi_def_cfa_offset 64
 395:D:/Work/DeviceTester/amazon-freertos/tests/common/mqtt\aws_test_mqtt_agent.c **** 
 478              		.loc 1 395 0
 479 0010 0CC08DE2 		add	ip, sp, #12
 391:D:/Work/DeviceTester/amazon-freertos/tests/common/mqtt\aws_test_mqtt_agent.c ****     BaseType_t xClientCreated, xClientConnected;
 480              		.loc 1 391 0
 481 0014 08308DE5 		str	r3, [sp, #8]
 395:D:/Work/DeviceTester/amazon-freertos/tests/common/mqtt\aws_test_mqtt_agent.c **** 
 482              		.loc 1 395 0
 483 0018 0F00BEE8 		ldmia	lr!, {r0, r1, r2, r3}
 484 001c 0F00ACE8 		stmia	ip!, {r0, r1, r2, r3}
 485 0020 0F00BEE8 		ldmia	lr!, {r0, r1, r2, r3}
 486 0024 0F00ACE8 		stmia	ip!, {r0, r1, r2, r3}
 487 0028 07009EE8 		ldm	lr, {r0, r1, r2}
 488 002c 07008CE8 		stm	ip, {r0, r1, r2}
 398:D:/Work/DeviceTester/amazon-freertos/tests/common/mqtt\aws_test_mqtt_agent.c ****     {
 489              		.loc 1 398 0
 490 0030 94009FE5 		ldr	r0, .L38+4
 491 0034 FEFFFFEB 		bl	setjmp
 492              	.LVL43:
 493 0038 004050E2 		subs	r4, r0, #0
 494 003c 1F00001A 		bne	.L29
 495              	.LVL44:
 402:D:/Work/DeviceTester/amazon-freertos/tests/common/mqtt\aws_test_mqtt_agent.c ****         xConnectParameters.ulCertificateSize = ( uint16_t ) strlen( xConnectParameters.pcCertificat
 496              		.loc 1 402 0
 497 0040 88309FE5 		ldr	r3, .L38+8
 405:D:/Work/DeviceTester/amazon-freertos/tests/common/mqtt\aws_test_mqtt_agent.c ****             ( char * ) xConnectParameters.pucClientId );
 498              		.loc 1 405 0
 499 0044 1C009DE5 		ldr	r0, [sp, #28]
 402:D:/Work/DeviceTester/amazon-freertos/tests/common/mqtt\aws_test_mqtt_agent.c ****         xConnectParameters.ulCertificateSize = ( uint16_t ) strlen( xConnectParameters.pcCertificat
 500              		.loc 1 402 0
 501 0048 30308DE5 		str	r3, [sp, #48]
 403:D:/Work/DeviceTester/amazon-freertos/tests/common/mqtt\aws_test_mqtt_agent.c ****         /* Fill in the MQTTAgentConnectParams_t member that is not const. */
 502              		.loc 1 403 0
 503 004c 0430A0E3 		mov	r3, #4
 504 0050 34308DE5 		str	r3, [sp, #52]
 405:D:/Work/DeviceTester/amazon-freertos/tests/common/mqtt\aws_test_mqtt_agent.c ****             ( char * ) xConnectParameters.pucClientId );
 505              		.loc 1 405 0
 506 0054 FEFFFFEB 		bl	strlen
 507              	.LVL45:
 508 0058 B002CDE1 		strh	r0, [sp, #32]	@ movhi
 410:D:/Work/DeviceTester/amazon-freertos/tests/common/mqtt\aws_test_mqtt_agent.c ****         TEST_ASSERT_EQUAL_INT( xReturned, eMQTTAgentSuccess );
 509              		.loc 1 410 0
 510 005c 08008DE2 		add	r0, sp, #8
 511 0060 FEFFFFEB 		bl	MQTT_AGENT_Create
 512              	.LVL46:
 411:D:/Work/DeviceTester/amazon-freertos/tests/common/mqtt\aws_test_mqtt_agent.c ****         xClientCreated = pdTRUE;
 513              		.loc 1 411 0
 514 0064 1430A0E3 		mov	r3, #20
 515 0068 0420A0E1 		mov	r2, r4
 516 006c 00308DE5 		str	r3, [sp]
 517 0070 0410A0E1 		mov	r1, r4
 518 0074 9B3100E3 		movw	r3, #411
 519 0078 FEFFFFEB 		bl	UnityAssertEqualNumber
 520              	.LVL47:
 416:D:/Work/DeviceTester/amazon-freertos/tests/common/mqtt\aws_test_mqtt_agent.c ****                                         &xConnectParameters,
 521              		.loc 1 416 0
 522 007c 102702E3 		movw	r2, #10000
 523 0080 0C108DE2 		add	r1, sp, #12
 524 0084 08009DE5 		ldr	r0, [sp, #8]
 525 0088 FEFFFFEB 		bl	MQTT_AGENT_Connect
 526              	.LVL48:
 419:D:/Work/DeviceTester/amazon-freertos/tests/common/mqtt\aws_test_mqtt_agent.c ****         xClientConnected = pdFALSE;
 527              		.loc 1 419 0
 528 008c 000050E3 		cmp	r0, #0
 529 0090 0200001A 		bne	.L32
 419:D:/Work/DeviceTester/amazon-freertos/tests/common/mqtt\aws_test_mqtt_agent.c ****         xClientConnected = pdFALSE;
 530              		.loc 1 419 0 is_stmt 0 discriminator 1
 531 0094 A31100E3 		movw	r1, #419
 532 0098 34009FE5 		ldr	r0, .L38+12
 533              	.LVL49:
 534 009c FEFFFFEB 		bl	UnityFail
 535              	.LVL50:
 536              	.L32:
 439:D:/Work/DeviceTester/amazon-freertos/tests/common/mqtt\aws_test_mqtt_agent.c ****         TEST_ASSERT_EQUAL_INT( xReturned, eMQTTAgentSuccess );
 537              		.loc 1 439 0 is_stmt 1
 538 00a0 08009DE5 		ldr	r0, [sp, #8]
 539 00a4 FEFFFFEB 		bl	MQTT_AGENT_Delete
 540              	.LVL51:
 440:D:/Work/DeviceTester/amazon-freertos/tests/common/mqtt\aws_test_mqtt_agent.c ****     }
 541              		.loc 1 440 0
 542 00a8 1430A0E3 		mov	r3, #20
 543 00ac 0020A0E3 		mov	r2, #0
 544 00b0 00308DE5 		str	r3, [sp]
 545 00b4 0210A0E1 		mov	r1, r2
 546 00b8 6E3FA0E3 		mov	r3, #440
 547 00bc FEFFFFEB 		bl	UnityAssertEqualNumber
 548              	.LVL52:
 549              	.L29:
 442:D:/Work/DeviceTester/amazon-freertos/tests/common/mqtt\aws_test_mqtt_agent.c **** /*-----------------------------------------------------------*/
 550              		.loc 1 442 0
 551 00c0 38D08DE2 		add	sp, sp, #56
 552              		.cfi_def_cfa_offset 8
 553              		@ sp needed
 554 00c4 1080BDE8 		pop	{r4, pc}
 555              	.L39:
 556              		.align	2
 557              	.L38:
 558 00c8 00000000 		.word	.LANCHOR0
 559 00cc 28000000 		.word	Unity+40
 560 00d0 00000000 		.word	.LC4
 561 00d4 05000000 		.word	.LC5
 562              		.cfi_endproc
 563              	.LFE16:
 565              		.section	.text.TEST_Full_MQTT_Agent_Stress_Tests_MQTT_Agent_MultiTaskTest_,"ax",%progbits
 566              		.align	2
 567              		.global	TEST_Full_MQTT_Agent_Stress_Tests_MQTT_Agent_MultiTaskTest_
 568              		.syntax unified
 569              		.arm
 570              		.fpu neon
 572              	TEST_Full_MQTT_Agent_Stress_Tests_MQTT_Agent_MultiTaskTest_:
 573              	.LFB20:
 449:D:/Work/DeviceTester/amazon-freertos/tests/common/mqtt\aws_test_mqtt_agent.c **** }
 450:D:/Work/DeviceTester/amazon-freertos/tests/common/mqtt\aws_test_mqtt_agent.c **** /*-----------------------------------------------------------*/
 451:D:/Work/DeviceTester/amazon-freertos/tests/common/mqtt\aws_test_mqtt_agent.c **** 
 452:D:/Work/DeviceTester/amazon-freertos/tests/common/mqtt\aws_test_mqtt_agent.c **** /**
 453:D:/Work/DeviceTester/amazon-freertos/tests/common/mqtt\aws_test_mqtt_agent.c ****  * @brief multitask test for MQTT
 454:D:/Work/DeviceTester/amazon-freertos/tests/common/mqtt\aws_test_mqtt_agent.c ****  *
 455:D:/Work/DeviceTester/amazon-freertos/tests/common/mqtt\aws_test_mqtt_agent.c ****  * This test create x number of Receive tasks that will create x different clients and
 456:D:/Work/DeviceTester/amazon-freertos/tests/common/mqtt\aws_test_mqtt_agent.c ****  * subscribe to x different topic.
 457:D:/Work/DeviceTester/amazon-freertos/tests/common/mqtt\aws_test_mqtt_agent.c ****  * The Receive tasks will take care of create, connecting, subscribing, disconnecting and deleting 
 458:D:/Work/DeviceTester/amazon-freertos/tests/common/mqtt\aws_test_mqtt_agent.c ****  * Also, y number of Transmit task are going to be created, each tasks are going to publish n numbe
 459:D:/Work/DeviceTester/amazon-freertos/tests/common/mqtt\aws_test_mqtt_agent.c ****  * to each one of the x tasks.
 460:D:/Work/DeviceTester/amazon-freertos/tests/common/mqtt\aws_test_mqtt_agent.c ****  * Once each y Transmit tasks have submitted n messages to each of the x Receive task, it starts al
 461:D:/Work/DeviceTester/amazon-freertos/tests/common/mqtt\aws_test_mqtt_agent.c ****  * cycle are the priorities. Receive and Transmit tasks will swich priorities in such a way as to c
 462:D:/Work/DeviceTester/amazon-freertos/tests/common/mqtt\aws_test_mqtt_agent.c ****  * high and low prioritie.
 463:D:/Work/DeviceTester/amazon-freertos/tests/common/mqtt\aws_test_mqtt_agent.c ****  *
 464:D:/Work/DeviceTester/amazon-freertos/tests/common/mqtt\aws_test_mqtt_agent.c ****  * At the end of the test, Tasks do not self delete. They get suspended. The main test function wil
 465:D:/Work/DeviceTester/amazon-freertos/tests/common/mqtt\aws_test_mqtt_agent.c ****  * task to complete through Amazon FreeRTOS synchronization mechanism then it will delete all the c
 466:D:/Work/DeviceTester/amazon-freertos/tests/common/mqtt\aws_test_mqtt_agent.c ****  *
 467:D:/Work/DeviceTester/amazon-freertos/tests/common/mqtt\aws_test_mqtt_agent.c ****  * For simplicity sake, memory is not allocated in the Receive or Transmit tasks. The allocation is
 468:D:/Work/DeviceTester/amazon-freertos/tests/common/mqtt\aws_test_mqtt_agent.c ****  */
 469:D:/Work/DeviceTester/amazon-freertos/tests/common/mqtt\aws_test_mqtt_agent.c **** TEST( Full_MQTT_Agent_Stress_Tests, MQTT_Agent_MultiTaskTest )
 470:D:/Work/DeviceTester/amazon-freertos/tests/common/mqtt\aws_test_mqtt_agent.c **** {
 574              		.loc 1 470 0
 575              		.cfi_startproc
 576              		@ args = 0, pretend = 0, frame = 104
 577              		@ frame_needed = 0, uses_anonymous_args = 0
 471:D:/Work/DeviceTester/amazon-freertos/tests/common/mqtt\aws_test_mqtt_agent.c ****     uint16_t usIndex;
 472:D:/Work/DeviceTester/amazon-freertos/tests/common/mqtt\aws_test_mqtt_agent.c ****     MQTTtestAgentTaskParams_t xTaskParams[ mqttagenttestMULTI_TASK_TEST_NUM_TASKS ];
 473:D:/Work/DeviceTester/amazon-freertos/tests/common/mqtt\aws_test_mqtt_agent.c ****     uint32_t usEventMask;
 474:D:/Work/DeviceTester/amazon-freertos/tests/common/mqtt\aws_test_mqtt_agent.c ****     BaseType_t xResult;
 475:D:/Work/DeviceTester/amazon-freertos/tests/common/mqtt\aws_test_mqtt_agent.c ****     uint8_t * pucTransmittedData;
 476:D:/Work/DeviceTester/amazon-freertos/tests/common/mqtt\aws_test_mqtt_agent.c **** 
 477:D:/Work/DeviceTester/amazon-freertos/tests/common/mqtt\aws_test_mqtt_agent.c ****     xSyncEventGroup = NULL;
 578              		.loc 1 477 0
 579 0000 70239FE5 		ldr	r2, .L81
 580 0004 0030A0E3 		mov	r3, #0
 470:D:/Work/DeviceTester/amazon-freertos/tests/common/mqtt\aws_test_mqtt_agent.c ****     uint16_t usIndex;
 581              		.loc 1 470 0
 582 0008 F04F2DE9 		push	{r4, r5, r6, r7, r8, r9, r10, fp, lr}
 583              		.cfi_def_cfa_offset 36
 584              		.cfi_offset 4, -36
 585              		.cfi_offset 5, -32
 586              		.cfi_offset 6, -28
 587              		.cfi_offset 7, -24
 588              		.cfi_offset 8, -20
 589              		.cfi_offset 9, -16
 590              		.cfi_offset 10, -12
 591              		.cfi_offset 11, -8
 592              		.cfi_offset 14, -4
 593 000c 74D04DE2 		sub	sp, sp, #116
 594              		.cfi_def_cfa_offset 152
 478:D:/Work/DeviceTester/amazon-freertos/tests/common/mqtt\aws_test_mqtt_agent.c ****     pucTransmittedData = NULL;
 479:D:/Work/DeviceTester/amazon-freertos/tests/common/mqtt\aws_test_mqtt_agent.c **** 
 480:D:/Work/DeviceTester/amazon-freertos/tests/common/mqtt\aws_test_mqtt_agent.c ****     /* Initialize to unallocated. */
 481:D:/Work/DeviceTester/amazon-freertos/tests/common/mqtt\aws_test_mqtt_agent.c ****     for( usIndex = 0; usIndex < mqttagenttestMULTI_TASK_TEST_NUM_RX_TASKS; usIndex++ )
 482:D:/Work/DeviceTester/amazon-freertos/tests/common/mqtt\aws_test_mqtt_agent.c ****     {
 483:D:/Work/DeviceTester/amazon-freertos/tests/common/mqtt\aws_test_mqtt_agent.c ****         xTaskParams[ usIndex ].xSemaphore = NULL;
 484:D:/Work/DeviceTester/amazon-freertos/tests/common/mqtt\aws_test_mqtt_agent.c ****         MQTTtestAgentMultiTestRxParam[ usIndex ].xSyncEventRx = NULL;
 485:D:/Work/DeviceTester/amazon-freertos/tests/common/mqtt\aws_test_mqtt_agent.c ****     }
 486:D:/Work/DeviceTester/amazon-freertos/tests/common/mqtt\aws_test_mqtt_agent.c **** 
 487:D:/Work/DeviceTester/amazon-freertos/tests/common/mqtt\aws_test_mqtt_agent.c ****     if( TEST_PROTECT() )
 595              		.loc 1 487 0
 596 0010 64039FE5 		ldr	r0, .L81+4
 477:D:/Work/DeviceTester/amazon-freertos/tests/common/mqtt\aws_test_mqtt_agent.c ****     pucTransmittedData = NULL;
 597              		.loc 1 477 0
 598 0014 003082E5 		str	r3, [r2]
 599              	.LVL53:
 484:D:/Work/DeviceTester/amazon-freertos/tests/common/mqtt\aws_test_mqtt_agent.c ****     }
 600              		.loc 1 484 0
 601 0018 60239FE5 		ldr	r2, .L81+8
 483:D:/Work/DeviceTester/amazon-freertos/tests/common/mqtt\aws_test_mqtt_agent.c ****         MQTTtestAgentMultiTestRxParam[ usIndex ].xSyncEventRx = NULL;
 602              		.loc 1 483 0
 603 001c 20308DE5 		str	r3, [sp, #32]
 604 0020 38308DE5 		str	r3, [sp, #56]
 484:D:/Work/DeviceTester/amazon-freertos/tests/common/mqtt\aws_test_mqtt_agent.c ****     }
 605              		.loc 1 484 0
 606 0024 043082E5 		str	r3, [r2, #4]
 607              	.LVL54:
 608 0028 3C3082E5 		str	r3, [r2, #60]
 609              	.LVL55:
 478:D:/Work/DeviceTester/amazon-freertos/tests/common/mqtt\aws_test_mqtt_agent.c **** 
 610              		.loc 1 478 0
 611 002c 08308DE5 		str	r3, [sp, #8]
 612              		.loc 1 487 0
 613 0030 FEFFFFEB 		bl	setjmp
 614              	.LVL56:
 615 0034 000050E3 		cmp	r0, #0
 616 0038 9400001A 		bne	.L42
 488:D:/Work/DeviceTester/amazon-freertos/tests/common/mqtt\aws_test_mqtt_agent.c ****     {
 489:D:/Work/DeviceTester/amazon-freertos/tests/common/mqtt\aws_test_mqtt_agent.c ****         /* Create the event group used by the Transmit and Receive tasks to synchronize prior
 490:D:/Work/DeviceTester/amazon-freertos/tests/common/mqtt\aws_test_mqtt_agent.c ****          * to commencing a cycle using a new socket. */
 491:D:/Work/DeviceTester/amazon-freertos/tests/common/mqtt\aws_test_mqtt_agent.c ****         xSyncEventGroup = xEventGroupCreate();
 617              		.loc 1 491 0
 618 003c FEFFFFEB 		bl	xEventGroupCreate
 619              	.LVL57:
 620 0040 30339FE5 		ldr	r3, .L81
 492:D:/Work/DeviceTester/amazon-freertos/tests/common/mqtt\aws_test_mqtt_agent.c ****         TEST_ASSERT_NOT_NULL_MESSAGE( xSyncEventGroup, "Couldn't create Sync event." );
 621              		.loc 1 492 0
 622 0044 000050E3 		cmp	r0, #0
 491:D:/Work/DeviceTester/amazon-freertos/tests/common/mqtt\aws_test_mqtt_agent.c ****         TEST_ASSERT_NOT_NULL_MESSAGE( xSyncEventGroup, "Couldn't create Sync event." );
 623              		.loc 1 491 0
 624 0048 000083E5 		str	r0, [r3]
 625              		.loc 1 492 0
 626 004c B100000A 		beq	.L43
 627              	.L46:
 628              	.LVL58:
 493:D:/Work/DeviceTester/amazon-freertos/tests/common/mqtt\aws_test_mqtt_agent.c **** 
 494:D:/Work/DeviceTester/amazon-freertos/tests/common/mqtt\aws_test_mqtt_agent.c ****         for( usIndex = 0; usIndex < mqttagenttestMULTI_TASK_TEST_NUM_RX_TASKS; usIndex++ )
 495:D:/Work/DeviceTester/amazon-freertos/tests/common/mqtt\aws_test_mqtt_agent.c ****         {
 496:D:/Work/DeviceTester/amazon-freertos/tests/common/mqtt\aws_test_mqtt_agent.c ****             MQTTtestAgentMultiTestRxParam[ usIndex ].xSyncEventRx = xEventGroupCreate();
 629              		.loc 1 496 0
 630 0050 FEFFFFEB 		bl	xEventGroupCreate
 631              	.LVL59:
 632 0054 24339FE5 		ldr	r3, .L81+8
 497:D:/Work/DeviceTester/amazon-freertos/tests/common/mqtt\aws_test_mqtt_agent.c ****             TEST_ASSERT_NOT_NULL_MESSAGE( MQTTtestAgentMultiTestRxParam[ usIndex ].xSyncEventRx, "C
 633              		.loc 1 497 0
 634 0058 000050E3 		cmp	r0, #0
 496:D:/Work/DeviceTester/amazon-freertos/tests/common/mqtt\aws_test_mqtt_agent.c ****             TEST_ASSERT_NOT_NULL_MESSAGE( MQTTtestAgentMultiTestRxParam[ usIndex ].xSyncEventRx, "C
 635              		.loc 1 496 0
 636 005c 040083E5 		str	r0, [r3, #4]
 637              		.loc 1 497 0
 638 0060 0200001A 		bne	.L44
 639 0064 F11100E3 		movw	r1, #497
 640 0068 14039FE5 		ldr	r0, .L81+12
 641 006c FEFFFFEB 		bl	UnityFail
 642              	.LVL60:
 643              	.L44:
 496:D:/Work/DeviceTester/amazon-freertos/tests/common/mqtt\aws_test_mqtt_agent.c ****             TEST_ASSERT_NOT_NULL_MESSAGE( MQTTtestAgentMultiTestRxParam[ usIndex ].xSyncEventRx, "C
 644              		.loc 1 496 0
 645 0070 FEFFFFEB 		bl	xEventGroupCreate
 646              	.LVL61:
 647 0074 04339FE5 		ldr	r3, .L81+8
 648              		.loc 1 497 0
 649 0078 000050E3 		cmp	r0, #0
 496:D:/Work/DeviceTester/amazon-freertos/tests/common/mqtt\aws_test_mqtt_agent.c ****             TEST_ASSERT_NOT_NULL_MESSAGE( MQTTtestAgentMultiTestRxParam[ usIndex ].xSyncEventRx, "C
 650              		.loc 1 496 0
 651 007c 3C0083E5 		str	r0, [r3, #60]
 652              		.loc 1 497 0
 653 0080 0200001A 		bne	.L49
 654              		.loc 1 497 0 is_stmt 0 discriminator 1
 655 0084 F11100E3 		movw	r1, #497
 656 0088 F4029FE5 		ldr	r0, .L81+12
 657 008c FEFFFFEB 		bl	UnityFail
 658              	.LVL62:
 659              	.L49:
 498:D:/Work/DeviceTester/amazon-freertos/tests/common/mqtt\aws_test_mqtt_agent.c ****             /* Flag memory as allocated for later Free. */
 499:D:/Work/DeviceTester/amazon-freertos/tests/common/mqtt\aws_test_mqtt_agent.c ****         }
 500:D:/Work/DeviceTester/amazon-freertos/tests/common/mqtt\aws_test_mqtt_agent.c **** 
 501:D:/Work/DeviceTester/amazon-freertos/tests/common/mqtt\aws_test_mqtt_agent.c ****         pucTransmittedData = pvPortMalloc( mqttagenttestMULTI_TASK_TEST_PUB_DATA_SIZE * sizeof( uin
 660              		.loc 1 501 0 is_stmt 1
 661 0090 010CA0E3 		mov	r0, #256
 662 0094 FEFFFFEB 		bl	pvPortMalloc
 663              	.LVL63:
 502:D:/Work/DeviceTester/amazon-freertos/tests/common/mqtt\aws_test_mqtt_agent.c ****         TEST_ASSERT_NOT_NULL_MESSAGE( pucTransmittedData, "Couldn't allocate data." );
 664              		.loc 1 502 0
 665 0098 000050E3 		cmp	r0, #0
 501:D:/Work/DeviceTester/amazon-freertos/tests/common/mqtt\aws_test_mqtt_agent.c ****         TEST_ASSERT_NOT_NULL_MESSAGE( pucTransmittedData, "Couldn't allocate data." );
 666              		.loc 1 501 0
 667 009c 0050A0E1 		mov	r5, r0
 668 00a0 08008DE5 		str	r0, [sp, #8]
 669              	.LVL64:
 670              		.loc 1 502 0
 671 00a4 0200001A 		bne	.L52
 672              		.loc 1 502 0 is_stmt 0 discriminator 1
 673 00a8 F61100E3 		movw	r1, #502
 674 00ac D4029FE5 		ldr	r0, .L81+16
 675              	.LVL65:
 676 00b0 FEFFFFEB 		bl	UnityFail
 677              	.LVL66:
 678              	.L52:
 679 00b4 0500A0E1 		mov	r0, r5
 680 00b8 012C85E2 		add	r2, r5, #256
 478:D:/Work/DeviceTester/amazon-freertos/tests/common/mqtt\aws_test_mqtt_agent.c **** 
 681              		.loc 1 478 0 is_stmt 1
 682 00bc 0530A0E1 		mov	r3, r5
 683              	.LVL67:
 684              	.L51:
 503:D:/Work/DeviceTester/amazon-freertos/tests/common/mqtt\aws_test_mqtt_agent.c **** 
 504:D:/Work/DeviceTester/amazon-freertos/tests/common/mqtt\aws_test_mqtt_agent.c ****         /* Data sent by Transmit tasks. And a counter to check integrity of the data when Received 
 505:D:/Work/DeviceTester/amazon-freertos/tests/common/mqtt\aws_test_mqtt_agent.c ****         for( usIndex = 0; usIndex < mqttagenttestMULTI_TASK_TEST_PUB_DATA_SIZE; usIndex++ )
 506:D:/Work/DeviceTester/amazon-freertos/tests/common/mqtt\aws_test_mqtt_agent.c ****         {
 507:D:/Work/DeviceTester/amazon-freertos/tests/common/mqtt\aws_test_mqtt_agent.c ****             pucTransmittedData[ usIndex ] = ( uint8_t ) ( usIndex & 0xFF );
 685              		.loc 1 507 0 discriminator 3
 686 00c0 001043E0 		sub	r1, r3, r0
 687 00c4 0110C3E4 		strb	r1, [r3], #1
 505:D:/Work/DeviceTester/amazon-freertos/tests/common/mqtt\aws_test_mqtt_agent.c ****         {
 688              		.loc 1 505 0 discriminator 3
 689 00c8 020053E1 		cmp	r3, r2
 690 00cc FBFFFF1A 		bne	.L51
 691 00d0 B4829FE5 		ldr	r8, .L81+20
 505:D:/Work/DeviceTester/amazon-freertos/tests/common/mqtt\aws_test_mqtt_agent.c ****         {
 692              		.loc 1 505 0 is_stmt 0
 693 00d4 0070A0E3 		mov	r7, #0
 694 00d8 18608DE2 		add	r6, sp, #24
 508:D:/Work/DeviceTester/amazon-freertos/tests/common/mqtt\aws_test_mqtt_agent.c ****         }
 509:D:/Work/DeviceTester/amazon-freertos/tests/common/mqtt\aws_test_mqtt_agent.c **** 
 510:D:/Work/DeviceTester/amazon-freertos/tests/common/mqtt\aws_test_mqtt_agent.c ****         /* Create Receive tasks. */
 511:D:/Work/DeviceTester/amazon-freertos/tests/common/mqtt\aws_test_mqtt_agent.c ****         for( usIndex = 0; usIndex < mqttagenttestMULTI_TASK_TEST_NUM_RX_TASKS; usIndex++ )
 512:D:/Work/DeviceTester/amazon-freertos/tests/common/mqtt\aws_test_mqtt_agent.c ****         {
 513:D:/Work/DeviceTester/amazon-freertos/tests/common/mqtt\aws_test_mqtt_agent.c ****             xTaskParams[ usIndex ].usTaskTag = usIndex;
 514:D:/Work/DeviceTester/amazon-freertos/tests/common/mqtt\aws_test_mqtt_agent.c ****             xTaskParams[ usIndex ].xStatus = pdFAIL;
 695              		.loc 1 514 0 is_stmt 1
 696 00dc 0740A0E1 		mov	r4, r7
 515:D:/Work/DeviceTester/amazon-freertos/tests/common/mqtt\aws_test_mqtt_agent.c ****             xTaskParams[ usIndex ].pucTransmittedData = pucTransmittedData;
 516:D:/Work/DeviceTester/amazon-freertos/tests/common/mqtt\aws_test_mqtt_agent.c **** 
 517:D:/Work/DeviceTester/amazon-freertos/tests/common/mqtt\aws_test_mqtt_agent.c ****             /* Each Receive task will Receive mqttagenttestMULTI_TASK_TEST_PUBLISH_PER_LOOP * mqtta
 518:D:/Work/DeviceTester/amazon-freertos/tests/common/mqtt\aws_test_mqtt_agent.c ****              * It is possible that all of them may be Received before callback can trigger, so make
 519:D:/Work/DeviceTester/amazon-freertos/tests/common/mqtt\aws_test_mqtt_agent.c ****             xTaskParams[ usIndex ].xSemaphore = xSemaphoreCreateCounting( mqttagenttestMULTI_TASK_T
 697              		.loc 1 519 0
 698 00e0 14A0A0E3 		mov	r10, #20
 699              	.LVL68:
 700              	.L56:
 513:D:/Work/DeviceTester/amazon-freertos/tests/common/mqtt\aws_test_mqtt_agent.c ****             xTaskParams[ usIndex ].xStatus = pdFAIL;
 701              		.loc 1 513 0
 702 00e4 B87046E1 		strh	r7, [r6, #-8]	@ movhi
 703              		.loc 1 519 0
 704 00e8 0410A0E1 		mov	r1, r4
 514:D:/Work/DeviceTester/amazon-freertos/tests/common/mqtt\aws_test_mqtt_agent.c ****             xTaskParams[ usIndex ].pucTransmittedData = pucTransmittedData;
 705              		.loc 1 514 0
 706 00ec 044006E5 		str	r4, [r6, #-4]
 707              		.loc 1 519 0
 708 00f0 0A00A0E1 		mov	r0, r10
 515:D:/Work/DeviceTester/amazon-freertos/tests/common/mqtt\aws_test_mqtt_agent.c ****             xTaskParams[ usIndex ].pucTransmittedData = pucTransmittedData;
 709              		.loc 1 515 0
 710 00f4 045086E5 		str	r5, [r6, #4]
 513:D:/Work/DeviceTester/amazon-freertos/tests/common/mqtt\aws_test_mqtt_agent.c ****             xTaskParams[ usIndex ].xStatus = pdFAIL;
 711              		.loc 1 513 0
 712 00f8 0790A0E1 		mov	r9, r7
 713 00fc 0C608DE5 		str	r6, [sp, #12]
 714              		.loc 1 519 0
 715 0100 FEFFFFEB 		bl	xQueueCreateCountingSemaphore
 716              	.LVL69:
 520:D:/Work/DeviceTester/amazon-freertos/tests/common/mqtt\aws_test_mqtt_agent.c ****             TEST_ASSERT_NOT_NULL( xTaskParams[ usIndex ].xSemaphore );
 717              		.loc 1 520 0
 718 0104 000050E3 		cmp	r0, #0
 519:D:/Work/DeviceTester/amazon-freertos/tests/common/mqtt\aws_test_mqtt_agent.c ****             TEST_ASSERT_NOT_NULL( xTaskParams[ usIndex ].xSemaphore );
 719              		.loc 1 519 0
 720 0108 080086E5 		str	r0, [r6, #8]
 721              		.loc 1 520 0
 722 010c 8500000A 		beq	.L53
 723              	.L55:
 521:D:/Work/DeviceTester/amazon-freertos/tests/common/mqtt\aws_test_mqtt_agent.c **** 
 522:D:/Work/DeviceTester/amazon-freertos/tests/common/mqtt\aws_test_mqtt_agent.c ****             /* Create topic for each Receive task. */
 523:D:/Work/DeviceTester/amazon-freertos/tests/common/mqtt\aws_test_mqtt_agent.c ****             MQTTtestAgentMultiTestRxParam[ usIndex ].usTopicLength =
 524:D:/Work/DeviceTester/amazon-freertos/tests/common/mqtt\aws_test_mqtt_agent.c ****                 snprintf( ( char * ) &MQTTtestAgentMultiTestRxParam[ usIndex ].cTopic,
 525:D:/Work/DeviceTester/amazon-freertos/tests/common/mqtt\aws_test_mqtt_agent.c ****                           mqttagenttestMULTI_TASK_TEST_MAX_TOPIC_NAME_SIZE, /* Limit size, will var
 526:D:/Work/DeviceTester/amazon-freertos/tests/common/mqtt\aws_test_mqtt_agent.c ****                           ( char * ) mqttagenttestMULTI_TASK_TEST_TOPIC_NAME,
 527:D:/Work/DeviceTester/amazon-freertos/tests/common/mqtt\aws_test_mqtt_agent.c ****                           usIndex );
 528:D:/Work/DeviceTester/amazon-freertos/tests/common/mqtt\aws_test_mqtt_agent.c ****             /* Create client ID for each Receive task. */
 529:D:/Work/DeviceTester/amazon-freertos/tests/common/mqtt\aws_test_mqtt_agent.c ****             MQTTtestAgentMultiTestRxParam[ usIndex ].usClientIDLength =
 530:D:/Work/DeviceTester/amazon-freertos/tests/common/mqtt\aws_test_mqtt_agent.c ****                 snprintf( ( char * ) &MQTTtestAgentMultiTestRxParam[ usIndex ].cClientID,
 531:D:/Work/DeviceTester/amazon-freertos/tests/common/mqtt\aws_test_mqtt_agent.c ****                           mqttagenttestMULTI_TASK_TEST_MAX_CLIENT_ID_SIZE, /* Limit size, will vary
 532:D:/Work/DeviceTester/amazon-freertos/tests/common/mqtt\aws_test_mqtt_agent.c ****                           ( char * ) mqttagenttestMULTI_TASK_TEST_CLIENT_ID,
 533:D:/Work/DeviceTester/amazon-freertos/tests/common/mqtt\aws_test_mqtt_agent.c ****                           usIndex );
 534:D:/Work/DeviceTester/amazon-freertos/tests/common/mqtt\aws_test_mqtt_agent.c **** 
 535:D:/Work/DeviceTester/amazon-freertos/tests/common/mqtt\aws_test_mqtt_agent.c ****             /* Create Receive Task. When created, flag it for later deletion. */
 536:D:/Work/DeviceTester/amazon-freertos/tests/common/mqtt\aws_test_mqtt_agent.c ****             xTaskParams[ usIndex ].xTaskCreated = pdFALSE;
 537:D:/Work/DeviceTester/amazon-freertos/tests/common/mqtt\aws_test_mqtt_agent.c ****             xResult = xTaskCreate( prvMultiTaskTest_Rx_Task, /* The function that implements the ta
 724              		.loc 1 537 0
 725 0110 78B29FE5 		ldr	fp, .L81+24
 524:D:/Work/DeviceTester/amazon-freertos/tests/common/mqtt\aws_test_mqtt_agent.c ****                           mqttagenttestMULTI_TASK_TEST_MAX_TOPIC_NAME_SIZE, /* Limit size, will var
 726              		.loc 1 524 0
 727 0114 0930A0E1 		mov	r3, r9
 728 0118 74229FE5 		ldr	r2, .L81+28
 729 011c 1E10A0E3 		mov	r1, #30
 730 0120 200048E2 		sub	r0, r8, #32
 731 0124 FEFFFFEB 		bl	snprintf
 732              	.LVL70:
 530:D:/Work/DeviceTester/amazon-freertos/tests/common/mqtt\aws_test_mqtt_agent.c ****                           mqttagenttestMULTI_TASK_TEST_MAX_CLIENT_ID_SIZE, /* Limit size, will vary
 733              		.loc 1 530 0
 734 0128 0930A0E1 		mov	r3, r9
 523:D:/Work/DeviceTester/amazon-freertos/tests/common/mqtt\aws_test_mqtt_agent.c ****                 snprintf( ( char * ) &MQTTtestAgentMultiTestRxParam[ usIndex ].cTopic,
 735              		.loc 1 523 0
 736 012c B20048E1 		strh	r0, [r8, #-2]	@ movhi
 530:D:/Work/DeviceTester/amazon-freertos/tests/common/mqtt\aws_test_mqtt_agent.c ****                           mqttagenttestMULTI_TASK_TEST_MAX_CLIENT_ID_SIZE, /* Limit size, will vary
 737              		.loc 1 530 0
 738 0130 60229FE5 		ldr	r2, .L81+32
 739 0134 0E10A0E3 		mov	r1, #14
 740 0138 0800A0E1 		mov	r0, r8
 538:D:/Work/DeviceTester/amazon-freertos/tests/common/mqtt\aws_test_mqtt_agent.c ****                                    "ClientTask",             /* Just a text name for the task to ai
 539:D:/Work/DeviceTester/amazon-freertos/tests/common/mqtt\aws_test_mqtt_agent.c ****                                    mqttagenttestMULTI_TASK_TEST_TASKS_STACK_SIZE,
 540:D:/Work/DeviceTester/amazon-freertos/tests/common/mqtt\aws_test_mqtt_agent.c ****                                    &( xTaskParams[ usIndex ] ),
 541:D:/Work/DeviceTester/amazon-freertos/tests/common/mqtt\aws_test_mqtt_agent.c ****                                    mqttagenttestMULTI_TASK_TEST_TASKS_PRIORITY,
 542:D:/Work/DeviceTester/amazon-freertos/tests/common/mqtt\aws_test_mqtt_agent.c ****                                    &( xTaskParams[ usIndex ].xTaskHandle ) );
 543:D:/Work/DeviceTester/amazon-freertos/tests/common/mqtt\aws_test_mqtt_agent.c ****             TEST_ASSERT_EQUAL_MESSAGE( pdPASS, xResult, "Task creation failed" );
 544:D:/Work/DeviceTester/amazon-freertos/tests/common/mqtt\aws_test_mqtt_agent.c ****             /* Flag Task as created for later delete. */
 545:D:/Work/DeviceTester/amazon-freertos/tests/common/mqtt\aws_test_mqtt_agent.c ****             xTaskParams[ usIndex ].xTaskCreated = pdTRUE;
 741              		.loc 1 545 0
 742 013c 0190A0E3 		mov	r9, #1
 530:D:/Work/DeviceTester/amazon-freertos/tests/common/mqtt\aws_test_mqtt_agent.c ****                           mqttagenttestMULTI_TASK_TEST_MAX_CLIENT_ID_SIZE, /* Limit size, will vary
 743              		.loc 1 530 0
 744 0140 FEFFFFEB 		bl	snprintf
 745              	.LVL71:
 536:D:/Work/DeviceTester/amazon-freertos/tests/common/mqtt\aws_test_mqtt_agent.c ****             xResult = xTaskCreate( prvMultiTaskTest_Rx_Task, /* The function that implements the ta
 746              		.loc 1 536 0
 747 0144 0C4086E5 		str	r4, [r6, #12]
 537:D:/Work/DeviceTester/amazon-freertos/tests/common/mqtt\aws_test_mqtt_agent.c ****                                    "ClientTask",             /* Just a text name for the task to ai
 748              		.loc 1 537 0
 749 0148 083046E2 		sub	r3, r6, #8
 529:D:/Work/DeviceTester/amazon-freertos/tests/common/mqtt\aws_test_mqtt_agent.c ****                 snprintf( ( char * ) &MQTTtestAgentMultiTestRxParam[ usIndex ].cClientID,
 750              		.loc 1 529 0
 751 014c BE00C8E1 		strh	r0, [r8, #14]	@ movhi
 537:D:/Work/DeviceTester/amazon-freertos/tests/common/mqtt\aws_test_mqtt_agent.c ****                                    "ClientTask",             /* Just a text name for the task to ai
 752              		.loc 1 537 0
 753 0150 022BA0E3 		mov	r2, #2048
 754 0154 04608DE5 		str	r6, [sp, #4]
 755 0158 0B10A0E1 		mov	r1, fp
 756 015c 00408DE5 		str	r4, [sp]
 757 0160 097087E0 		add	r7, r7, r9
 758              	.LVL72:
 759 0164 30029FE5 		ldr	r0, .L81+36
 760 0168 186086E2 		add	r6, r6, #24
 761 016c FEFFFFEB 		bl	xTaskCreate
 762              	.LVL73:
 543:D:/Work/DeviceTester/amazon-freertos/tests/common/mqtt\aws_test_mqtt_agent.c ****             /* Flag Task as created for later delete. */
 763              		.loc 1 543 0
 764 0170 00A08DE5 		str	r10, [sp]
 765 0174 0010A0E1 		mov	r1, r0
 766 0178 1F3200E3 		movw	r3, #543
 767 017c 1C229FE5 		ldr	r2, .L81+40
 768 0180 0100A0E3 		mov	r0, #1
 769              	.LVL74:
 770 0184 388088E2 		add	r8, r8, #56
 771 0188 FEFFFFEB 		bl	UnityAssertEqualNumber
 772              	.LVL75:
 511:D:/Work/DeviceTester/amazon-freertos/tests/common/mqtt\aws_test_mqtt_agent.c ****         {
 773              		.loc 1 511 0
 774 018c 020057E3 		cmp	r7, #2
 775              		.loc 1 545 0
 776 0190 0C9006E5 		str	r9, [r6, #-12]
 511:D:/Work/DeviceTester/amazon-freertos/tests/common/mqtt\aws_test_mqtt_agent.c ****         {
 777              		.loc 1 511 0
 778 0194 D2FFFF1A 		bne	.L56
 779              	.LVL76:
 546:D:/Work/DeviceTester/amazon-freertos/tests/common/mqtt\aws_test_mqtt_agent.c ****         }
 547:D:/Work/DeviceTester/amazon-freertos/tests/common/mqtt\aws_test_mqtt_agent.c **** 
 548:D:/Work/DeviceTester/amazon-freertos/tests/common/mqtt\aws_test_mqtt_agent.c ****         /* Create Transmit tasks. */
 549:D:/Work/DeviceTester/amazon-freertos/tests/common/mqtt\aws_test_mqtt_agent.c ****         for( usIndex = mqttagenttestMULTI_TASK_TEST_NUM_RX_TASKS; usIndex < mqttagenttestMULTI_TASK
 550:D:/Work/DeviceTester/amazon-freertos/tests/common/mqtt\aws_test_mqtt_agent.c ****         {
 551:D:/Work/DeviceTester/amazon-freertos/tests/common/mqtt\aws_test_mqtt_agent.c ****             xTaskParams[ usIndex ].usTaskTag = usIndex;
 552:D:/Work/DeviceTester/amazon-freertos/tests/common/mqtt\aws_test_mqtt_agent.c ****             xTaskParams[ usIndex ].xStatus = pdFAIL;
 553:D:/Work/DeviceTester/amazon-freertos/tests/common/mqtt\aws_test_mqtt_agent.c ****             xTaskParams[ usIndex ].pucTransmittedData = pucTransmittedData;
 554:D:/Work/DeviceTester/amazon-freertos/tests/common/mqtt\aws_test_mqtt_agent.c **** 
 555:D:/Work/DeviceTester/amazon-freertos/tests/common/mqtt\aws_test_mqtt_agent.c ****             xTaskParams[ usIndex ].xTaskCreated = pdFALSE;
 556:D:/Work/DeviceTester/amazon-freertos/tests/common/mqtt\aws_test_mqtt_agent.c ****             xResult = xTaskCreate( prvMultiTaskTest_Tx_Task, /* The function that implements the ta
 780              		.loc 1 556 0
 781 0198 04629FE5 		ldr	r6, .L81+44
 782 019c 48308DE2 		add	r3, sp, #72
 783 01a0 04308DE5 		str	r3, [sp, #4]
 784 01a4 022BA0E3 		mov	r2, #2048
 785 01a8 40308DE2 		add	r3, sp, #64
 786 01ac 0B10A0E1 		mov	r1, fp
 787 01b0 0600A0E1 		mov	r0, r6
 788 01b4 00408DE5 		str	r4, [sp]
 553:D:/Work/DeviceTester/amazon-freertos/tests/common/mqtt\aws_test_mqtt_agent.c **** 
 789              		.loc 1 553 0
 790 01b8 4C508DE5 		str	r5, [sp, #76]
 551:D:/Work/DeviceTester/amazon-freertos/tests/common/mqtt\aws_test_mqtt_agent.c ****             xTaskParams[ usIndex ].xStatus = pdFAIL;
 791              		.loc 1 551 0
 792 01bc B074CDE1 		strh	r7, [sp, #64]	@ movhi
 552:D:/Work/DeviceTester/amazon-freertos/tests/common/mqtt\aws_test_mqtt_agent.c ****             xTaskParams[ usIndex ].pucTransmittedData = pucTransmittedData;
 793              		.loc 1 552 0
 794 01c0 44408DE5 		str	r4, [sp, #68]
 555:D:/Work/DeviceTester/amazon-freertos/tests/common/mqtt\aws_test_mqtt_agent.c ****             xResult = xTaskCreate( prvMultiTaskTest_Tx_Task, /* The function that implements the ta
 795              		.loc 1 555 0
 796 01c4 54408DE5 		str	r4, [sp, #84]
 797              		.loc 1 556 0
 798 01c8 FEFFFFEB 		bl	xTaskCreate
 799              	.LVL77:
 557:D:/Work/DeviceTester/amazon-freertos/tests/common/mqtt\aws_test_mqtt_agent.c ****                                    "ClientTask",             /* Just a text name for the task to ai
 558:D:/Work/DeviceTester/amazon-freertos/tests/common/mqtt\aws_test_mqtt_agent.c ****                                    mqttagenttestMULTI_TASK_TEST_TASKS_STACK_SIZE,
 559:D:/Work/DeviceTester/amazon-freertos/tests/common/mqtt\aws_test_mqtt_agent.c ****                                    &( xTaskParams[ usIndex ] ),
 560:D:/Work/DeviceTester/amazon-freertos/tests/common/mqtt\aws_test_mqtt_agent.c ****                                    mqttagenttestMULTI_TASK_TEST_TASKS_PRIORITY,
 561:D:/Work/DeviceTester/amazon-freertos/tests/common/mqtt\aws_test_mqtt_agent.c ****                                    &( xTaskParams[ usIndex ].xTaskHandle ) );
 562:D:/Work/DeviceTester/amazon-freertos/tests/common/mqtt\aws_test_mqtt_agent.c ****             TEST_ASSERT_EQUAL_MESSAGE( pdPASS, xResult, "Task creation failed" );
 800              		.loc 1 562 0
 801 01cc 323200E3 		movw	r3, #562
 802 01d0 0010A0E1 		mov	r1, r0
 803 01d4 C4219FE5 		ldr	r2, .L81+40
 804 01d8 0900A0E1 		mov	r0, r9
 805              	.LVL78:
 806 01dc 00A08DE5 		str	r10, [sp]
 807 01e0 FEFFFFEB 		bl	UnityAssertEqualNumber
 808              	.LVL79:
 551:D:/Work/DeviceTester/amazon-freertos/tests/common/mqtt\aws_test_mqtt_agent.c ****             xTaskParams[ usIndex ].xStatus = pdFAIL;
 809              		.loc 1 551 0
 810 01e4 0330A0E3 		mov	r3, #3
 556:D:/Work/DeviceTester/amazon-freertos/tests/common/mqtt\aws_test_mqtt_agent.c ****                                    "ClientTask",             /* Just a text name for the task to ai
 811              		.loc 1 556 0
 812 01e8 022BA0E3 		mov	r2, #2048
 551:D:/Work/DeviceTester/amazon-freertos/tests/common/mqtt\aws_test_mqtt_agent.c ****             xTaskParams[ usIndex ].xStatus = pdFAIL;
 813              		.loc 1 551 0
 814 01ec B835CDE1 		strh	r3, [sp, #88]	@ movhi
 556:D:/Work/DeviceTester/amazon-freertos/tests/common/mqtt\aws_test_mqtt_agent.c ****                                    "ClientTask",             /* Just a text name for the task to ai
 815              		.loc 1 556 0
 816 01f0 60308DE2 		add	r3, sp, #96
 817 01f4 04308DE5 		str	r3, [sp, #4]
 818 01f8 0B10A0E1 		mov	r1, fp
 819 01fc 58308DE2 		add	r3, sp, #88
 820 0200 0600A0E1 		mov	r0, r6
 821 0204 00408DE5 		str	r4, [sp]
 563:D:/Work/DeviceTester/amazon-freertos/tests/common/mqtt\aws_test_mqtt_agent.c ****             /* Flag Task as created for later delete. */
 564:D:/Work/DeviceTester/amazon-freertos/tests/common/mqtt\aws_test_mqtt_agent.c ****             xTaskParams[ usIndex ].xTaskCreated = pdTRUE;
 565:D:/Work/DeviceTester/amazon-freertos/tests/common/mqtt\aws_test_mqtt_agent.c ****         }
 566:D:/Work/DeviceTester/amazon-freertos/tests/common/mqtt\aws_test_mqtt_agent.c **** 
 567:D:/Work/DeviceTester/amazon-freertos/tests/common/mqtt\aws_test_mqtt_agent.c ****         /* When all task reaches the sync group, then the test is complete. */
 568:D:/Work/DeviceTester/amazon-freertos/tests/common/mqtt\aws_test_mqtt_agent.c ****         usEventMask = xEventGroupSync( xSyncEventGroup, /* The event group used for the rendezvous.
 569:D:/Work/DeviceTester/amazon-freertos/tests/common/mqtt\aws_test_mqtt_agent.c ****                                        0,
 570:D:/Work/DeviceTester/amazon-freertos/tests/common/mqtt\aws_test_mqtt_agent.c ****                                        mqttagenttestMULTI_TASK_TEST_EVENT_MASK,
 571:D:/Work/DeviceTester/amazon-freertos/tests/common/mqtt\aws_test_mqtt_agent.c ****                                        mqttagenttestMULTI_TASK_TEST_COMPLETE_TIMEOUT_TICKS );
 572:D:/Work/DeviceTester/amazon-freertos/tests/common/mqtt\aws_test_mqtt_agent.c ****         TEST_ASSERT_EQUAL_MESSAGE( mqttagenttestMULTI_TASK_TEST_EVENT_MASK, usEventMask, "Timeout w
 573:D:/Work/DeviceTester/amazon-freertos/tests/common/mqtt\aws_test_mqtt_agent.c **** 
 574:D:/Work/DeviceTester/amazon-freertos/tests/common/mqtt\aws_test_mqtt_agent.c ****         /* Check which tasks have failed. If one failed, the test is failed. */
 575:D:/Work/DeviceTester/amazon-freertos/tests/common/mqtt\aws_test_mqtt_agent.c ****         for( usIndex = 0; usIndex < mqttagenttestMULTI_TASK_TEST_NUM_TASKS; usIndex++ )
 576:D:/Work/DeviceTester/amazon-freertos/tests/common/mqtt\aws_test_mqtt_agent.c ****         {
 577:D:/Work/DeviceTester/amazon-freertos/tests/common/mqtt\aws_test_mqtt_agent.c ****             if( xTaskParams[ usIndex ].xStatus != pdPASS )
 578:D:/Work/DeviceTester/amazon-freertos/tests/common/mqtt\aws_test_mqtt_agent.c ****             {
 579:D:/Work/DeviceTester/amazon-freertos/tests/common/mqtt\aws_test_mqtt_agent.c ****                 TEST_FAIL_MESSAGE( "Not all tasks completed successfully." );
 822              		.loc 1 579 0
 823 0208 436200E3 		movw	r6, #579
 553:D:/Work/DeviceTester/amazon-freertos/tests/common/mqtt\aws_test_mqtt_agent.c **** 
 824              		.loc 1 553 0
 825 020c 64508DE5 		str	r5, [sp, #100]
 564:D:/Work/DeviceTester/amazon-freertos/tests/common/mqtt\aws_test_mqtt_agent.c ****         }
 826              		.loc 1 564 0
 827 0210 54908DE5 		str	r9, [sp, #84]
 828              	.LVL80:
 552:D:/Work/DeviceTester/amazon-freertos/tests/common/mqtt\aws_test_mqtt_agent.c ****             xTaskParams[ usIndex ].pucTransmittedData = pucTransmittedData;
 829              		.loc 1 552 0
 830 0214 5C408DE5 		str	r4, [sp, #92]
 555:D:/Work/DeviceTester/amazon-freertos/tests/common/mqtt\aws_test_mqtt_agent.c ****             xResult = xTaskCreate( prvMultiTaskTest_Tx_Task, /* The function that implements the ta
 831              		.loc 1 555 0
 832 0218 6C408DE5 		str	r4, [sp, #108]
 556:D:/Work/DeviceTester/amazon-freertos/tests/common/mqtt\aws_test_mqtt_agent.c ****                                    "ClientTask",             /* Just a text name for the task to ai
 833              		.loc 1 556 0
 834 021c FEFFFFEB 		bl	xTaskCreate
 835              	.LVL81:
 562:D:/Work/DeviceTester/amazon-freertos/tests/common/mqtt\aws_test_mqtt_agent.c ****             /* Flag Task as created for later delete. */
 836              		.loc 1 562 0
 837 0220 323200E3 		movw	r3, #562
 838 0224 0010A0E1 		mov	r1, r0
 839 0228 70219FE5 		ldr	r2, .L81+40
 840 022c 0900A0E1 		mov	r0, r9
 841              	.LVL82:
 842 0230 00A08DE5 		str	r10, [sp]
 843 0234 FEFFFFEB 		bl	UnityAssertEqualNumber
 844              	.LVL83:
 568:D:/Work/DeviceTester/amazon-freertos/tests/common/mqtt\aws_test_mqtt_agent.c ****                                        0,
 845              		.loc 1 568 0
 846 0238 38019FE5 		ldr	r0, .L81
 847 023c 0F20A0E3 		mov	r2, #15
 848              		.loc 1 579 0
 849 0240 60519FE5 		ldr	r5, .L81+48
 850              	.LVL84:
 568:D:/Work/DeviceTester/amazon-freertos/tests/common/mqtt\aws_test_mqtt_agent.c ****                                        0,
 851              		.loc 1 568 0
 852 0244 0410A0E1 		mov	r1, r4
 853 0248 5C319FE5 		ldr	r3, .L81+52
 854 024c 000090E5 		ldr	r0, [r0]
 564:D:/Work/DeviceTester/amazon-freertos/tests/common/mqtt\aws_test_mqtt_agent.c ****         }
 855              		.loc 1 564 0
 856 0250 6C908DE5 		str	r9, [sp, #108]
 857              	.LVL85:
 568:D:/Work/DeviceTester/amazon-freertos/tests/common/mqtt\aws_test_mqtt_agent.c ****                                        0,
 858              		.loc 1 568 0
 859 0254 FEFFFFEB 		bl	xEventGroupSync
 860              	.LVL86:
 572:D:/Work/DeviceTester/amazon-freertos/tests/common/mqtt\aws_test_mqtt_agent.c **** 
 861              		.loc 1 572 0
 862 0258 00A08DE5 		str	r10, [sp]
 863 025c 0010A0E1 		mov	r1, r0
 864 0260 8F3FA0E3 		mov	r3, #572
 865 0264 44219FE5 		ldr	r2, .L81+56
 866 0268 0F00A0E3 		mov	r0, #15
 867              	.LVL87:
 868 026c FEFFFFEB 		bl	UnityAssertEqualNumber
 869              	.LVL88:
 870              	.L58:
 577:D:/Work/DeviceTester/amazon-freertos/tests/common/mqtt\aws_test_mqtt_agent.c ****             {
 871              		.loc 1 577 0
 872 0270 10308DE2 		add	r3, sp, #16
 873 0274 043083E0 		add	r3, r3, r4
 874 0278 043093E5 		ldr	r3, [r3, #4]
 875 027c 010053E3 		cmp	r3, #1
 876 0280 2C00001A 		bne	.L57
 877              	.L59:
 878 0284 184084E2 		add	r4, r4, #24
 575:D:/Work/DeviceTester/amazon-freertos/tests/common/mqtt\aws_test_mqtt_agent.c ****         {
 879              		.loc 1 575 0
 880 0288 600054E3 		cmp	r4, #96
 881 028c F7FFFF1A 		bne	.L58
 882              	.LVL89:
 883              	.L42:
 572:D:/Work/DeviceTester/amazon-freertos/tests/common/mqtt\aws_test_mqtt_agent.c **** 
 884              		.loc 1 572 0
 885 0290 0040A0E3 		mov	r4, #0
 886              	.LVL90:
 887              	.L61:
 888 0294 10308DE2 		add	r3, sp, #16
 889 0298 043083E0 		add	r3, r3, r4
 580:D:/Work/DeviceTester/amazon-freertos/tests/common/mqtt\aws_test_mqtt_agent.c ****             }
 581:D:/Work/DeviceTester/amazon-freertos/tests/common/mqtt\aws_test_mqtt_agent.c ****         }
 582:D:/Work/DeviceTester/amazon-freertos/tests/common/mqtt\aws_test_mqtt_agent.c ****     }
 583:D:/Work/DeviceTester/amazon-freertos/tests/common/mqtt\aws_test_mqtt_agent.c **** 
 584:D:/Work/DeviceTester/amazon-freertos/tests/common/mqtt\aws_test_mqtt_agent.c ****     /* The code below will delete all the memory that has been successfully allocated. */
 585:D:/Work/DeviceTester/amazon-freertos/tests/common/mqtt\aws_test_mqtt_agent.c ****     /* For each task not completed, delete the task.  */
 586:D:/Work/DeviceTester/amazon-freertos/tests/common/mqtt\aws_test_mqtt_agent.c ****     for( usIndex = 0; usIndex < mqttagenttestMULTI_TASK_TEST_NUM_TASKS; usIndex++ )
 587:D:/Work/DeviceTester/amazon-freertos/tests/common/mqtt\aws_test_mqtt_agent.c ****     {
 588:D:/Work/DeviceTester/amazon-freertos/tests/common/mqtt\aws_test_mqtt_agent.c ****         /* Check task has been created before deleting it. */
 589:D:/Work/DeviceTester/amazon-freertos/tests/common/mqtt\aws_test_mqtt_agent.c ****         if( xTaskParams[ usIndex ].xTaskCreated == pdTRUE )
 890              		.loc 1 589 0
 891 029c 142093E5 		ldr	r2, [r3, #20]
 892 02a0 010052E3 		cmp	r2, #1
 893 02a4 2700000A 		beq	.L60
 894              	.L63:
 895 02a8 184084E2 		add	r4, r4, #24
 586:D:/Work/DeviceTester/amazon-freertos/tests/common/mqtt\aws_test_mqtt_agent.c ****     {
 896              		.loc 1 586 0
 897 02ac 600054E3 		cmp	r4, #96
 898 02b0 F7FFFF1A 		bne	.L61
 590:D:/Work/DeviceTester/amazon-freertos/tests/common/mqtt\aws_test_mqtt_agent.c ****         {
 591:D:/Work/DeviceTester/amazon-freertos/tests/common/mqtt\aws_test_mqtt_agent.c ****             vTaskDelete( xTaskParams[ usIndex ].xTaskHandle );
 592:D:/Work/DeviceTester/amazon-freertos/tests/common/mqtt\aws_test_mqtt_agent.c ****         }
 593:D:/Work/DeviceTester/amazon-freertos/tests/common/mqtt\aws_test_mqtt_agent.c ****     }
 594:D:/Work/DeviceTester/amazon-freertos/tests/common/mqtt\aws_test_mqtt_agent.c **** 
 595:D:/Work/DeviceTester/amazon-freertos/tests/common/mqtt\aws_test_mqtt_agent.c ****     /* Delete global group event. */
 596:D:/Work/DeviceTester/amazon-freertos/tests/common/mqtt\aws_test_mqtt_agent.c ****     if( xSyncEventGroup != NULL )
 899              		.loc 1 596 0
 900 02b4 BC309FE5 		ldr	r3, .L81
 901 02b8 000093E5 		ldr	r0, [r3]
 902 02bc 000050E3 		cmp	r0, #0
 903 02c0 2300001A 		bne	.L64
 904              	.L69:
 905              	.LVL91:
 597:D:/Work/DeviceTester/amazon-freertos/tests/common/mqtt\aws_test_mqtt_agent.c ****     {
 598:D:/Work/DeviceTester/amazon-freertos/tests/common/mqtt\aws_test_mqtt_agent.c ****         vEventGroupDelete( xSyncEventGroup );
 599:D:/Work/DeviceTester/amazon-freertos/tests/common/mqtt\aws_test_mqtt_agent.c ****     }
 600:D:/Work/DeviceTester/amazon-freertos/tests/common/mqtt\aws_test_mqtt_agent.c **** 
 601:D:/Work/DeviceTester/amazon-freertos/tests/common/mqtt\aws_test_mqtt_agent.c ****     for( usIndex = 0; usIndex < mqttagenttestMULTI_TASK_TEST_NUM_RX_TASKS; usIndex++ )
 602:D:/Work/DeviceTester/amazon-freertos/tests/common/mqtt\aws_test_mqtt_agent.c ****     {
 603:D:/Work/DeviceTester/amazon-freertos/tests/common/mqtt\aws_test_mqtt_agent.c ****         if( MQTTtestAgentMultiTestRxParam[ usIndex ].xSyncEventRx != NULL )
 906              		.loc 1 603 0
 907 02c4 B4309FE5 		ldr	r3, .L81+8
 908 02c8 040093E5 		ldr	r0, [r3, #4]
 909 02cc 000050E3 		cmp	r0, #0
 910 02d0 0000000A 		beq	.L65
 604:D:/Work/DeviceTester/amazon-freertos/tests/common/mqtt\aws_test_mqtt_agent.c ****         {
 605:D:/Work/DeviceTester/amazon-freertos/tests/common/mqtt\aws_test_mqtt_agent.c ****             vEventGroupDelete( MQTTtestAgentMultiTestRxParam[ usIndex ].xSyncEventRx );
 911              		.loc 1 605 0
 912 02d4 FEFFFFEB 		bl	vEventGroupDelete
 913              	.LVL92:
 914              	.L65:
 606:D:/Work/DeviceTester/amazon-freertos/tests/common/mqtt\aws_test_mqtt_agent.c ****         }
 607:D:/Work/DeviceTester/amazon-freertos/tests/common/mqtt\aws_test_mqtt_agent.c **** 
 608:D:/Work/DeviceTester/amazon-freertos/tests/common/mqtt\aws_test_mqtt_agent.c ****         if( xTaskParams[ usIndex ].xSemaphore != NULL )
 915              		.loc 1 608 0
 916 02d8 20009DE5 		ldr	r0, [sp, #32]
 917 02dc 000050E3 		cmp	r0, #0
 918 02e0 0000000A 		beq	.L66
 609:D:/Work/DeviceTester/amazon-freertos/tests/common/mqtt\aws_test_mqtt_agent.c ****         {
 610:D:/Work/DeviceTester/amazon-freertos/tests/common/mqtt\aws_test_mqtt_agent.c ****             vSemaphoreDelete( xTaskParams[ usIndex ].xSemaphore );
 919              		.loc 1 610 0
 920 02e4 FEFFFFEB 		bl	vQueueDelete
 921              	.LVL93:
 922              	.L66:
 603:D:/Work/DeviceTester/amazon-freertos/tests/common/mqtt\aws_test_mqtt_agent.c ****         {
 923              		.loc 1 603 0
 924 02e8 90309FE5 		ldr	r3, .L81+8
 925 02ec 3C0093E5 		ldr	r0, [r3, #60]
 926 02f0 000050E3 		cmp	r0, #0
 927 02f4 1800001A 		bne	.L67
 928              	.L68:
 608:D:/Work/DeviceTester/amazon-freertos/tests/common/mqtt\aws_test_mqtt_agent.c ****         {
 929              		.loc 1 608 0
 930 02f8 38009DE5 		ldr	r0, [sp, #56]
 931 02fc 000050E3 		cmp	r0, #0
 932 0300 1700001A 		bne	.L70
 933              	.L71:
 934              	.LVL94:
 611:D:/Work/DeviceTester/amazon-freertos/tests/common/mqtt\aws_test_mqtt_agent.c ****         }
 612:D:/Work/DeviceTester/amazon-freertos/tests/common/mqtt\aws_test_mqtt_agent.c ****     }
 613:D:/Work/DeviceTester/amazon-freertos/tests/common/mqtt\aws_test_mqtt_agent.c **** 
 614:D:/Work/DeviceTester/amazon-freertos/tests/common/mqtt\aws_test_mqtt_agent.c ****     if( pucTransmittedData != NULL )
 935              		.loc 1 614 0
 936 0304 08309DE5 		ldr	r3, [sp, #8]
 937 0308 000053E3 		cmp	r3, #0
 938 030c 1600001A 		bne	.L72
 939              	.L40:
 615:D:/Work/DeviceTester/amazon-freertos/tests/common/mqtt\aws_test_mqtt_agent.c ****     {
 616:D:/Work/DeviceTester/amazon-freertos/tests/common/mqtt\aws_test_mqtt_agent.c ****         vPortFree( pucTransmittedData );
 617:D:/Work/DeviceTester/amazon-freertos/tests/common/mqtt\aws_test_mqtt_agent.c ****     }
 618:D:/Work/DeviceTester/amazon-freertos/tests/common/mqtt\aws_test_mqtt_agent.c **** }
 940              		.loc 1 618 0
 941 0310 74D08DE2 		add	sp, sp, #116
 942              		.cfi_remember_state
 943              		.cfi_def_cfa_offset 36
 944              		@ sp needed
 945 0314 F08FBDE8 		pop	{r4, r5, r6, r7, r8, r9, r10, fp, pc}
 946              	.LVL95:
 947              	.L43:
 948              		.cfi_restore_state
 492:D:/Work/DeviceTester/amazon-freertos/tests/common/mqtt\aws_test_mqtt_agent.c **** 
 949              		.loc 1 492 0 discriminator 1
 950 0318 7B1FA0E3 		mov	r1, #492
 951 031c 60009FE5 		ldr	r0, .L81+12
 952 0320 FEFFFFEB 		bl	UnityFail
 953              	.LVL96:
 954 0324 49FFFFEA 		b	.L46
 955              	.LVL97:
 956              	.L53:
 520:D:/Work/DeviceTester/amazon-freertos/tests/common/mqtt\aws_test_mqtt_agent.c **** 
 957              		.loc 1 520 0 discriminator 1
 958 0328 821FA0E3 		mov	r1, #520
 959 032c 80009FE5 		ldr	r0, .L81+60
 960 0330 FEFFFFEB 		bl	UnityFail
 961              	.LVL98:
 962 0334 75FFFFEA 		b	.L55
 963              	.LVL99:
 964              	.L57:
 579:D:/Work/DeviceTester/amazon-freertos/tests/common/mqtt\aws_test_mqtt_agent.c ****             }
 965              		.loc 1 579 0
 966 0338 0610A0E1 		mov	r1, r6
 967 033c 0500A0E1 		mov	r0, r5
 968 0340 FEFFFFEB 		bl	UnityFail
 969              	.LVL100:
 970 0344 CEFFFFEA 		b	.L59
 971              	.L60:
 591:D:/Work/DeviceTester/amazon-freertos/tests/common/mqtt\aws_test_mqtt_agent.c ****         }
 972              		.loc 1 591 0
 973 0348 080093E5 		ldr	r0, [r3, #8]
 974 034c FEFFFFEB 		bl	vTaskDelete
 975              	.LVL101:
 976 0350 D4FFFFEA 		b	.L63
 977              	.L64:
 598:D:/Work/DeviceTester/amazon-freertos/tests/common/mqtt\aws_test_mqtt_agent.c ****     }
 978              		.loc 1 598 0
 979 0354 FEFFFFEB 		bl	vEventGroupDelete
 980              	.LVL102:
 981 0358 D9FFFFEA 		b	.L69
 982              	.LVL103:
 983              	.L67:
 605:D:/Work/DeviceTester/amazon-freertos/tests/common/mqtt\aws_test_mqtt_agent.c ****         }
 984              		.loc 1 605 0
 985 035c FEFFFFEB 		bl	vEventGroupDelete
 986              	.LVL104:
 987 0360 E4FFFFEA 		b	.L68
 988              	.L70:
 610:D:/Work/DeviceTester/amazon-freertos/tests/common/mqtt\aws_test_mqtt_agent.c ****         }
 989              		.loc 1 610 0
 990 0364 FEFFFFEB 		bl	vQueueDelete
 991              	.LVL105:
 992 0368 E5FFFFEA 		b	.L71
 993              	.LVL106:
 994              	.L72:
 616:D:/Work/DeviceTester/amazon-freertos/tests/common/mqtt\aws_test_mqtt_agent.c ****     }
 995              		.loc 1 616 0
 996 036c 08009DE5 		ldr	r0, [sp, #8]
 997 0370 FEFFFFEB 		bl	vPortFree
 998              	.LVL107:
 999 0374 E5FFFFEA 		b	.L40
 1000              	.L82:
 1001              		.align	2
 1002              	.L81:
 1003 0378 00000000 		.word	.LANCHOR2
 1004 037c 28000000 		.word	Unity+40
 1005 0380 00000000 		.word	.LANCHOR3
 1006 0384 00000000 		.word	.LC7
 1007 0388 1C000000 		.word	.LC8
 1008 038c 28000000 		.word	.LANCHOR3+40
 1009 0390 5B000000 		.word	.LC11
 1010 0394 34000000 		.word	.LC9
 1011 0398 50000000 		.word	.LC10
 1012 039c 00000000 		.word	prvMultiTaskTest_Rx_Task
 1013 03a0 66000000 		.word	.LC12
 1014 03a4 00000000 		.word	prvMultiTaskTest_Tx_Task
 1015 03a8 95000000 		.word	.LC14
 1016 03ac 801A0600 		.word	400000
 1017 03b0 7B000000 		.word	.LC13
 1018 03b4 00000000 		.word	.LC0
 1019              		.cfi_endproc
 1020              	.LFE20:
 1022              		.section	.text.prvMultiTaskTest_Tx_Task,"ax",%progbits
 1023              		.align	2
 1024              		.syntax unified
 1025              		.arm
 1026              		.fpu neon
 1028              	prvMultiTaskTest_Tx_Task:
 1029              	.LFB22:
 619:D:/Work/DeviceTester/amazon-freertos/tests/common/mqtt\aws_test_mqtt_agent.c **** 
 620:D:/Work/DeviceTester/amazon-freertos/tests/common/mqtt\aws_test_mqtt_agent.c **** /*-----------------------------------------------------------*/
 621:D:/Work/DeviceTester/amazon-freertos/tests/common/mqtt\aws_test_mqtt_agent.c **** 
 622:D:/Work/DeviceTester/amazon-freertos/tests/common/mqtt\aws_test_mqtt_agent.c **** /**
 623:D:/Work/DeviceTester/amazon-freertos/tests/common/mqtt\aws_test_mqtt_agent.c ****  * @brief Receive Task
 624:D:/Work/DeviceTester/amazon-freertos/tests/common/mqtt\aws_test_mqtt_agent.c ****  *
 625:D:/Work/DeviceTester/amazon-freertos/tests/common/mqtt\aws_test_mqtt_agent.c ****  * The Receive tasks will take care of create, connecting, subscribing, disconnecting and deleting 
 626:D:/Work/DeviceTester/amazon-freertos/tests/common/mqtt\aws_test_mqtt_agent.c ****  * Also, y number of Transmit task are going to be created, each tasks are going to publish n numbe
 627:D:/Work/DeviceTester/amazon-freertos/tests/common/mqtt\aws_test_mqtt_agent.c ****  * to each one of the x tasks.
 628:D:/Work/DeviceTester/amazon-freertos/tests/common/mqtt\aws_test_mqtt_agent.c ****  *
 629:D:/Work/DeviceTester/amazon-freertos/tests/common/mqtt\aws_test_mqtt_agent.c ****  * Once the task has connected, it will synch with the Transmit tasks. Since the task will receice 
 630:D:/Work/DeviceTester/amazon-freertos/tests/common/mqtt\aws_test_mqtt_agent.c ****  * it will pend on Receive semaphore y times. Data is a simple counter and is checked in the callba
 631:D:/Work/DeviceTester/amazon-freertos/tests/common/mqtt\aws_test_mqtt_agent.c ****  */
 632:D:/Work/DeviceTester/amazon-freertos/tests/common/mqtt\aws_test_mqtt_agent.c **** static void prvMultiTaskTest_Rx_Task( void * pvParameters )
 633:D:/Work/DeviceTester/amazon-freertos/tests/common/mqtt\aws_test_mqtt_agent.c **** {
 634:D:/Work/DeviceTester/amazon-freertos/tests/common/mqtt\aws_test_mqtt_agent.c ****     MQTTAgentSubscribeParams_t xSubscribeParams;
 635:D:/Work/DeviceTester/amazon-freertos/tests/common/mqtt\aws_test_mqtt_agent.c ****     MQTTAgentUnsubscribeParams_t xUnSubscribeParams;
 636:D:/Work/DeviceTester/amazon-freertos/tests/common/mqtt\aws_test_mqtt_agent.c ****     BaseType_t xResult, xStatus, xAgentCreated = pdFALSE;
 637:D:/Work/DeviceTester/amazon-freertos/tests/common/mqtt\aws_test_mqtt_agent.c ****     size_t xRecvLoop, xPubSubIndex;
 638:D:/Work/DeviceTester/amazon-freertos/tests/common/mqtt\aws_test_mqtt_agent.c ****     MQTTtestAgentTaskParams_t * pxTcptestEchoClientsTaskParams;
 639:D:/Work/DeviceTester/amazon-freertos/tests/common/mqtt\aws_test_mqtt_agent.c ****     EventGroupHandle_t * pxSyncEventRx;
 640:D:/Work/DeviceTester/amazon-freertos/tests/common/mqtt\aws_test_mqtt_agent.c ****     MQTTAgentHandle_t * pxMQTTHandle;
 641:D:/Work/DeviceTester/amazon-freertos/tests/common/mqtt\aws_test_mqtt_agent.c ****     MQTTAgentConnectParams_t xConnectParametersMultiTaskTest;
 642:D:/Work/DeviceTester/amazon-freertos/tests/common/mqtt\aws_test_mqtt_agent.c ****     MQTTtestAgentCbParam_t MQTTtestAgentCbParam;
 643:D:/Work/DeviceTester/amazon-freertos/tests/common/mqtt\aws_test_mqtt_agent.c ****     uint16_t usTaskTag;
 644:D:/Work/DeviceTester/amazon-freertos/tests/common/mqtt\aws_test_mqtt_agent.c **** 
 645:D:/Work/DeviceTester/amazon-freertos/tests/common/mqtt\aws_test_mqtt_agent.c ****     /* Copy over default parameters, then change for specific clientID connection. */
 646:D:/Work/DeviceTester/amazon-freertos/tests/common/mqtt\aws_test_mqtt_agent.c ****     memcpy( &xConnectParametersMultiTaskTest, &xDefaultConnectParameters, sizeof( MQTTAgentConnectP
 647:D:/Work/DeviceTester/amazon-freertos/tests/common/mqtt\aws_test_mqtt_agent.c **** 
 648:D:/Work/DeviceTester/amazon-freertos/tests/common/mqtt\aws_test_mqtt_agent.c **** 
 649:D:/Work/DeviceTester/amazon-freertos/tests/common/mqtt\aws_test_mqtt_agent.c ****     pxTcptestEchoClientsTaskParams = ( ( MQTTtestAgentTaskParams_t * ) pvParameters );
 650:D:/Work/DeviceTester/amazon-freertos/tests/common/mqtt\aws_test_mqtt_agent.c ****     usTaskTag = pxTcptestEchoClientsTaskParams->usTaskTag;
 651:D:/Work/DeviceTester/amazon-freertos/tests/common/mqtt\aws_test_mqtt_agent.c ****     pxSyncEventRx = &MQTTtestAgentMultiTestRxParam[ usTaskTag ].xSyncEventRx;
 652:D:/Work/DeviceTester/amazon-freertos/tests/common/mqtt\aws_test_mqtt_agent.c ****     pxMQTTHandle = &MQTTtestAgentMultiTestRxParam[ usTaskTag ].xMQTTHandle;
 653:D:/Work/DeviceTester/amazon-freertos/tests/common/mqtt\aws_test_mqtt_agent.c ****     xConnectParametersMultiTaskTest.pucClientId = MQTTtestAgentMultiTestRxParam[ usTaskTag ].cClien
 654:D:/Work/DeviceTester/amazon-freertos/tests/common/mqtt\aws_test_mqtt_agent.c ****     xConnectParametersMultiTaskTest.usClientIdLength = MQTTtestAgentMultiTestRxParam[ usTaskTag ].u
 655:D:/Work/DeviceTester/amazon-freertos/tests/common/mqtt\aws_test_mqtt_agent.c **** 
 656:D:/Work/DeviceTester/amazon-freertos/tests/common/mqtt\aws_test_mqtt_agent.c ****     /* Setup subscribe parameters to subscribe to echo topic. */
 657:D:/Work/DeviceTester/amazon-freertos/tests/common/mqtt\aws_test_mqtt_agent.c ****     xSubscribeParams.pvPublishCallbackContext = &MQTTtestAgentCbParam;
 658:D:/Work/DeviceTester/amazon-freertos/tests/common/mqtt\aws_test_mqtt_agent.c ****     xSubscribeParams.pxPublishCallback = prvMultiTaskTestMQTTCallback;
 659:D:/Work/DeviceTester/amazon-freertos/tests/common/mqtt\aws_test_mqtt_agent.c ****     xSubscribeParams.xQoS = eMQTTQoS1;
 660:D:/Work/DeviceTester/amazon-freertos/tests/common/mqtt\aws_test_mqtt_agent.c ****     xSubscribeParams.pucTopic = MQTTtestAgentMultiTestRxParam[ usTaskTag ].cTopic;
 661:D:/Work/DeviceTester/amazon-freertos/tests/common/mqtt\aws_test_mqtt_agent.c ****     xSubscribeParams.usTopicLength = MQTTtestAgentMultiTestRxParam[ usTaskTag ].usTopicLength;
 662:D:/Work/DeviceTester/amazon-freertos/tests/common/mqtt\aws_test_mqtt_agent.c **** 
 663:D:/Work/DeviceTester/amazon-freertos/tests/common/mqtt\aws_test_mqtt_agent.c ****     xUnSubscribeParams.pucTopic = xSubscribeParams.pucTopic;
 664:D:/Work/DeviceTester/amazon-freertos/tests/common/mqtt\aws_test_mqtt_agent.c ****     xUnSubscribeParams.usTopicLength = xSubscribeParams.usTopicLength;
 665:D:/Work/DeviceTester/amazon-freertos/tests/common/mqtt\aws_test_mqtt_agent.c **** 
 666:D:/Work/DeviceTester/amazon-freertos/tests/common/mqtt\aws_test_mqtt_agent.c ****     MQTTtestAgentCbParam.xSemaphore = pxTcptestEchoClientsTaskParams->xSemaphore;
 667:D:/Work/DeviceTester/amazon-freertos/tests/common/mqtt\aws_test_mqtt_agent.c **** 
 668:D:/Work/DeviceTester/amazon-freertos/tests/common/mqtt\aws_test_mqtt_agent.c ****     /* Default is pass to avoid nesting. */
 669:D:/Work/DeviceTester/amazon-freertos/tests/common/mqtt\aws_test_mqtt_agent.c ****     xStatus = pdPASS;
 670:D:/Work/DeviceTester/amazon-freertos/tests/common/mqtt\aws_test_mqtt_agent.c **** 
 671:D:/Work/DeviceTester/amazon-freertos/tests/common/mqtt\aws_test_mqtt_agent.c ****     for( xRecvLoop = 0; xRecvLoop < mqttagenttestMULTI_TASK_TEST_MAX_LOOP; xRecvLoop++ )
 672:D:/Work/DeviceTester/amazon-freertos/tests/common/mqtt\aws_test_mqtt_agent.c ****     {
 673:D:/Work/DeviceTester/amazon-freertos/tests/common/mqtt\aws_test_mqtt_agent.c ****         if( mqttagenttestMULTI_TASK_TEST_RX_LOWP_SWITCH_MASK & xRecvLoop )
 674:D:/Work/DeviceTester/amazon-freertos/tests/common/mqtt\aws_test_mqtt_agent.c ****         {
 675:D:/Work/DeviceTester/amazon-freertos/tests/common/mqtt\aws_test_mqtt_agent.c ****             vTaskPrioritySet( NULL, mqttagenttestMULTI_TASK_TEST_LOW_PRIORITY );
 676:D:/Work/DeviceTester/amazon-freertos/tests/common/mqtt\aws_test_mqtt_agent.c ****         }
 677:D:/Work/DeviceTester/amazon-freertos/tests/common/mqtt\aws_test_mqtt_agent.c ****         else
 678:D:/Work/DeviceTester/amazon-freertos/tests/common/mqtt\aws_test_mqtt_agent.c ****         {
 679:D:/Work/DeviceTester/amazon-freertos/tests/common/mqtt\aws_test_mqtt_agent.c ****             vTaskPrioritySet( NULL, mqttagenttestMULTI_TASK_TEST_HIGH_PRIORITY );
 680:D:/Work/DeviceTester/amazon-freertos/tests/common/mqtt\aws_test_mqtt_agent.c ****         }
 681:D:/Work/DeviceTester/amazon-freertos/tests/common/mqtt\aws_test_mqtt_agent.c **** 
 682:D:/Work/DeviceTester/amazon-freertos/tests/common/mqtt\aws_test_mqtt_agent.c ****         /* The MQTT client object must be created before it can be used. */
 683:D:/Work/DeviceTester/amazon-freertos/tests/common/mqtt\aws_test_mqtt_agent.c ****         xResult = MQTT_AGENT_Create( pxMQTTHandle );
 684:D:/Work/DeviceTester/amazon-freertos/tests/common/mqtt\aws_test_mqtt_agent.c **** 
 685:D:/Work/DeviceTester/amazon-freertos/tests/common/mqtt\aws_test_mqtt_agent.c ****         if( xResult != eMQTTAgentSuccess )
 686:D:/Work/DeviceTester/amazon-freertos/tests/common/mqtt\aws_test_mqtt_agent.c ****         {
 687:D:/Work/DeviceTester/amazon-freertos/tests/common/mqtt\aws_test_mqtt_agent.c ****             mqttagenttestFAILUREPRINTF( ( "%s: Could not create MQTT client.\r\n", __FUNCTION__ ) )
 688:D:/Work/DeviceTester/amazon-freertos/tests/common/mqtt\aws_test_mqtt_agent.c ****             xStatus = pdFAIL;
 689:D:/Work/DeviceTester/amazon-freertos/tests/common/mqtt\aws_test_mqtt_agent.c ****             break;
 690:D:/Work/DeviceTester/amazon-freertos/tests/common/mqtt\aws_test_mqtt_agent.c ****         }
 691:D:/Work/DeviceTester/amazon-freertos/tests/common/mqtt\aws_test_mqtt_agent.c **** 
 692:D:/Work/DeviceTester/amazon-freertos/tests/common/mqtt\aws_test_mqtt_agent.c ****         xAgentCreated = pdTRUE;
 693:D:/Work/DeviceTester/amazon-freertos/tests/common/mqtt\aws_test_mqtt_agent.c **** 
 694:D:/Work/DeviceTester/amazon-freertos/tests/common/mqtt\aws_test_mqtt_agent.c ****         /* Connect to the broker. */
 695:D:/Work/DeviceTester/amazon-freertos/tests/common/mqtt\aws_test_mqtt_agent.c ****         xResult = MQTT_AGENT_Connect( *pxMQTTHandle,
 696:D:/Work/DeviceTester/amazon-freertos/tests/common/mqtt\aws_test_mqtt_agent.c ****                                       &xConnectParametersMultiTaskTest,
 697:D:/Work/DeviceTester/amazon-freertos/tests/common/mqtt\aws_test_mqtt_agent.c ****                                       mqttagenttestTIMEOUT );
 698:D:/Work/DeviceTester/amazon-freertos/tests/common/mqtt\aws_test_mqtt_agent.c **** 
 699:D:/Work/DeviceTester/amazon-freertos/tests/common/mqtt\aws_test_mqtt_agent.c ****         if( xResult != eMQTTAgentSuccess )
 700:D:/Work/DeviceTester/amazon-freertos/tests/common/mqtt\aws_test_mqtt_agent.c ****         {
 701:D:/Work/DeviceTester/amazon-freertos/tests/common/mqtt\aws_test_mqtt_agent.c ****             mqttagenttestFAILUREPRINTF( ( "%s: Could not connect MQTT client.\r\n", __FUNCTION__ ) 
 702:D:/Work/DeviceTester/amazon-freertos/tests/common/mqtt\aws_test_mqtt_agent.c ****             xStatus = pdFAIL;
 703:D:/Work/DeviceTester/amazon-freertos/tests/common/mqtt\aws_test_mqtt_agent.c ****             break;
 704:D:/Work/DeviceTester/amazon-freertos/tests/common/mqtt\aws_test_mqtt_agent.c ****         }
 705:D:/Work/DeviceTester/amazon-freertos/tests/common/mqtt\aws_test_mqtt_agent.c **** 
 706:D:/Work/DeviceTester/amazon-freertos/tests/common/mqtt\aws_test_mqtt_agent.c ****         /* Subscribe to the topic. */
 707:D:/Work/DeviceTester/amazon-freertos/tests/common/mqtt\aws_test_mqtt_agent.c ****         xResult = MQTT_AGENT_Subscribe( *pxMQTTHandle,
 708:D:/Work/DeviceTester/amazon-freertos/tests/common/mqtt\aws_test_mqtt_agent.c ****                                         &xSubscribeParams,
 709:D:/Work/DeviceTester/amazon-freertos/tests/common/mqtt\aws_test_mqtt_agent.c ****                                         mqttagenttestTIMEOUT );
 710:D:/Work/DeviceTester/amazon-freertos/tests/common/mqtt\aws_test_mqtt_agent.c **** 
 711:D:/Work/DeviceTester/amazon-freertos/tests/common/mqtt\aws_test_mqtt_agent.c ****         if( xResult != eMQTTAgentSuccess )
 712:D:/Work/DeviceTester/amazon-freertos/tests/common/mqtt\aws_test_mqtt_agent.c ****         {
 713:D:/Work/DeviceTester/amazon-freertos/tests/common/mqtt\aws_test_mqtt_agent.c ****             mqttagenttestFAILUREPRINTF( ( "%s: Could not subscribe to topic.\r\n", __FUNCTION__ ) )
 714:D:/Work/DeviceTester/amazon-freertos/tests/common/mqtt\aws_test_mqtt_agent.c ****             xStatus = pdFAIL;
 715:D:/Work/DeviceTester/amazon-freertos/tests/common/mqtt\aws_test_mqtt_agent.c ****             break;
 716:D:/Work/DeviceTester/amazon-freertos/tests/common/mqtt\aws_test_mqtt_agent.c ****         }
 717:D:/Work/DeviceTester/amazon-freertos/tests/common/mqtt\aws_test_mqtt_agent.c **** 
 718:D:/Work/DeviceTester/amazon-freertos/tests/common/mqtt\aws_test_mqtt_agent.c ****         if( xEventGroupSync( *pxSyncEventRx, /* The event group used for the rendezvous. */
 719:D:/Work/DeviceTester/amazon-freertos/tests/common/mqtt\aws_test_mqtt_agent.c ****                              ( 1 << usTaskTag ),
 720:D:/Work/DeviceTester/amazon-freertos/tests/common/mqtt\aws_test_mqtt_agent.c ****                              ( 1 << usTaskTag ) | mqttagenttestMULTI_TASK_TEST_TX_EVENT_MASK,
 721:D:/Work/DeviceTester/amazon-freertos/tests/common/mqtt\aws_test_mqtt_agent.c ****                              mqttagenttestMULTI_TASK_TEST_SYNC_TIMEOUT_TICKS ) != ( ( 1 << usTaskTa
 722:D:/Work/DeviceTester/amazon-freertos/tests/common/mqtt\aws_test_mqtt_agent.c ****         {
 723:D:/Work/DeviceTester/amazon-freertos/tests/common/mqtt\aws_test_mqtt_agent.c ****             mqttagenttestFAILUREPRINTF( ( "%s: Timed out waiting for Transmit tasks.\r\n", __FUNCTI
 724:D:/Work/DeviceTester/amazon-freertos/tests/common/mqtt\aws_test_mqtt_agent.c ****             xStatus = pdFAIL;
 725:D:/Work/DeviceTester/amazon-freertos/tests/common/mqtt\aws_test_mqtt_agent.c ****             break;
 726:D:/Work/DeviceTester/amazon-freertos/tests/common/mqtt\aws_test_mqtt_agent.c ****         }
 727:D:/Work/DeviceTester/amazon-freertos/tests/common/mqtt\aws_test_mqtt_agent.c **** 
 728:D:/Work/DeviceTester/amazon-freertos/tests/common/mqtt\aws_test_mqtt_agent.c ****         /* Take the semaphore to ensure the message is Received. */
 729:D:/Work/DeviceTester/amazon-freertos/tests/common/mqtt\aws_test_mqtt_agent.c ****         for( xPubSubIndex = 0; xPubSubIndex < mqttagenttestMULTI_TASK_TEST_PUBLISH_PER_LOOP * mqtta
 730:D:/Work/DeviceTester/amazon-freertos/tests/common/mqtt\aws_test_mqtt_agent.c ****         {
 731:D:/Work/DeviceTester/amazon-freertos/tests/common/mqtt\aws_test_mqtt_agent.c ****             if( pdFALSE == xSemaphoreTake( pxTcptestEchoClientsTaskParams->xSemaphore, mqttagenttes
 732:D:/Work/DeviceTester/amazon-freertos/tests/common/mqtt\aws_test_mqtt_agent.c ****             {
 733:D:/Work/DeviceTester/amazon-freertos/tests/common/mqtt\aws_test_mqtt_agent.c ****                 mqttagenttestFAILUREPRINTF( ( "%s: Timed out waiting for pub from Transmit tasks.\r
 734:D:/Work/DeviceTester/amazon-freertos/tests/common/mqtt\aws_test_mqtt_agent.c ****                 xStatus = pdFAIL;
 735:D:/Work/DeviceTester/amazon-freertos/tests/common/mqtt\aws_test_mqtt_agent.c ****                 break;
 736:D:/Work/DeviceTester/amazon-freertos/tests/common/mqtt\aws_test_mqtt_agent.c ****             }
 737:D:/Work/DeviceTester/amazon-freertos/tests/common/mqtt\aws_test_mqtt_agent.c ****             else /* Get status from the callback*/
 738:D:/Work/DeviceTester/amazon-freertos/tests/common/mqtt\aws_test_mqtt_agent.c ****             {
 739:D:/Work/DeviceTester/amazon-freertos/tests/common/mqtt\aws_test_mqtt_agent.c ****                 if( MQTTtestAgentCbParam.xStatus != pdPASS )
 740:D:/Work/DeviceTester/amazon-freertos/tests/common/mqtt\aws_test_mqtt_agent.c ****                 {
 741:D:/Work/DeviceTester/amazon-freertos/tests/common/mqtt\aws_test_mqtt_agent.c ****                     mqttagenttestFAILUREPRINTF( ( "%s: Error, corrupted data Received.\r\n", __FUNC
 742:D:/Work/DeviceTester/amazon-freertos/tests/common/mqtt\aws_test_mqtt_agent.c ****                     xStatus = pdFAIL;
 743:D:/Work/DeviceTester/amazon-freertos/tests/common/mqtt\aws_test_mqtt_agent.c ****                     break;
 744:D:/Work/DeviceTester/amazon-freertos/tests/common/mqtt\aws_test_mqtt_agent.c ****                 }
 745:D:/Work/DeviceTester/amazon-freertos/tests/common/mqtt\aws_test_mqtt_agent.c ****             }
 746:D:/Work/DeviceTester/amazon-freertos/tests/common/mqtt\aws_test_mqtt_agent.c ****         }
 747:D:/Work/DeviceTester/amazon-freertos/tests/common/mqtt\aws_test_mqtt_agent.c **** 
 748:D:/Work/DeviceTester/amazon-freertos/tests/common/mqtt\aws_test_mqtt_agent.c ****         /*If fail happened in for loop above, break out. */
 749:D:/Work/DeviceTester/amazon-freertos/tests/common/mqtt\aws_test_mqtt_agent.c ****         if( xStatus == pdFAIL )
 750:D:/Work/DeviceTester/amazon-freertos/tests/common/mqtt\aws_test_mqtt_agent.c ****         {
 751:D:/Work/DeviceTester/amazon-freertos/tests/common/mqtt\aws_test_mqtt_agent.c ****             break;
 752:D:/Work/DeviceTester/amazon-freertos/tests/common/mqtt\aws_test_mqtt_agent.c ****         }
 753:D:/Work/DeviceTester/amazon-freertos/tests/common/mqtt\aws_test_mqtt_agent.c **** 
 754:D:/Work/DeviceTester/amazon-freertos/tests/common/mqtt\aws_test_mqtt_agent.c ****         if( xEventGroupSync( *pxSyncEventRx, /* The event group used for the rendezvous. */
 755:D:/Work/DeviceTester/amazon-freertos/tests/common/mqtt\aws_test_mqtt_agent.c ****                              ( 1 << usTaskTag ),
 756:D:/Work/DeviceTester/amazon-freertos/tests/common/mqtt\aws_test_mqtt_agent.c ****                              ( 1 << usTaskTag ) | mqttagenttestMULTI_TASK_TEST_TX_EVENT_MASK,
 757:D:/Work/DeviceTester/amazon-freertos/tests/common/mqtt\aws_test_mqtt_agent.c ****                              mqttagenttestMULTI_TASK_TEST_SYNC_TIMEOUT_TICKS ) != ( ( 1 << usTaskTa
 758:D:/Work/DeviceTester/amazon-freertos/tests/common/mqtt\aws_test_mqtt_agent.c ****         {
 759:D:/Work/DeviceTester/amazon-freertos/tests/common/mqtt\aws_test_mqtt_agent.c ****             mqttagenttestFAILUREPRINTF( ( "%s: Timed out waiting for Transmit tasks.\r\n", __FUNCTI
 760:D:/Work/DeviceTester/amazon-freertos/tests/common/mqtt\aws_test_mqtt_agent.c ****             xStatus = pdFAIL;
 761:D:/Work/DeviceTester/amazon-freertos/tests/common/mqtt\aws_test_mqtt_agent.c ****             break;
 762:D:/Work/DeviceTester/amazon-freertos/tests/common/mqtt\aws_test_mqtt_agent.c ****         }
 763:D:/Work/DeviceTester/amazon-freertos/tests/common/mqtt\aws_test_mqtt_agent.c **** 
 764:D:/Work/DeviceTester/amazon-freertos/tests/common/mqtt\aws_test_mqtt_agent.c ****         /* Unsubscribe to the topic. */
 765:D:/Work/DeviceTester/amazon-freertos/tests/common/mqtt\aws_test_mqtt_agent.c ****         xResult = MQTT_AGENT_Unsubscribe( *pxMQTTHandle,
 766:D:/Work/DeviceTester/amazon-freertos/tests/common/mqtt\aws_test_mqtt_agent.c ****                                           &xUnSubscribeParams,
 767:D:/Work/DeviceTester/amazon-freertos/tests/common/mqtt\aws_test_mqtt_agent.c ****                                           mqttagenttestTIMEOUT );
 768:D:/Work/DeviceTester/amazon-freertos/tests/common/mqtt\aws_test_mqtt_agent.c **** 
 769:D:/Work/DeviceTester/amazon-freertos/tests/common/mqtt\aws_test_mqtt_agent.c ****         if( xResult != eMQTTAgentSuccess )
 770:D:/Work/DeviceTester/amazon-freertos/tests/common/mqtt\aws_test_mqtt_agent.c ****         {
 771:D:/Work/DeviceTester/amazon-freertos/tests/common/mqtt\aws_test_mqtt_agent.c ****             mqttagenttestFAILUREPRINTF( ( "%s: Failed to unsubscribe.\r\n", __FUNCTION__ ) );
 772:D:/Work/DeviceTester/amazon-freertos/tests/common/mqtt\aws_test_mqtt_agent.c ****             xStatus = pdFAIL;
 773:D:/Work/DeviceTester/amazon-freertos/tests/common/mqtt\aws_test_mqtt_agent.c ****             break;
 774:D:/Work/DeviceTester/amazon-freertos/tests/common/mqtt\aws_test_mqtt_agent.c ****         }
 775:D:/Work/DeviceTester/amazon-freertos/tests/common/mqtt\aws_test_mqtt_agent.c **** 
 776:D:/Work/DeviceTester/amazon-freertos/tests/common/mqtt\aws_test_mqtt_agent.c ****         /* Disconnect. */
 777:D:/Work/DeviceTester/amazon-freertos/tests/common/mqtt\aws_test_mqtt_agent.c ****         xResult = MQTT_AGENT_Disconnect( *pxMQTTHandle, mqttagenttestTIMEOUT );
 778:D:/Work/DeviceTester/amazon-freertos/tests/common/mqtt\aws_test_mqtt_agent.c **** 
 779:D:/Work/DeviceTester/amazon-freertos/tests/common/mqtt\aws_test_mqtt_agent.c ****         if( xResult != eMQTTAgentSuccess )
 780:D:/Work/DeviceTester/amazon-freertos/tests/common/mqtt\aws_test_mqtt_agent.c ****         {
 781:D:/Work/DeviceTester/amazon-freertos/tests/common/mqtt\aws_test_mqtt_agent.c ****             mqttagenttestFAILUREPRINTF( ( "%s: Failed to disconnect.\r\n", __FUNCTION__ ) );
 782:D:/Work/DeviceTester/amazon-freertos/tests/common/mqtt\aws_test_mqtt_agent.c ****             xStatus = pdFAIL;
 783:D:/Work/DeviceTester/amazon-freertos/tests/common/mqtt\aws_test_mqtt_agent.c ****             break;
 784:D:/Work/DeviceTester/amazon-freertos/tests/common/mqtt\aws_test_mqtt_agent.c ****         }
 785:D:/Work/DeviceTester/amazon-freertos/tests/common/mqtt\aws_test_mqtt_agent.c **** 
 786:D:/Work/DeviceTester/amazon-freertos/tests/common/mqtt\aws_test_mqtt_agent.c ****         xResult = MQTT_AGENT_Delete( *pxMQTTHandle );
 787:D:/Work/DeviceTester/amazon-freertos/tests/common/mqtt\aws_test_mqtt_agent.c **** 
 788:D:/Work/DeviceTester/amazon-freertos/tests/common/mqtt\aws_test_mqtt_agent.c ****         if( xResult != eMQTTAgentSuccess )
 789:D:/Work/DeviceTester/amazon-freertos/tests/common/mqtt\aws_test_mqtt_agent.c ****         {
 790:D:/Work/DeviceTester/amazon-freertos/tests/common/mqtt\aws_test_mqtt_agent.c ****             mqttagenttestFAILUREPRINTF( ( "%s: Failed to delete MQTT client.\r\n", __FUNCTION__ ) )
 791:D:/Work/DeviceTester/amazon-freertos/tests/common/mqtt\aws_test_mqtt_agent.c ****             xStatus = pdFAIL;
 792:D:/Work/DeviceTester/amazon-freertos/tests/common/mqtt\aws_test_mqtt_agent.c ****             break;
 793:D:/Work/DeviceTester/amazon-freertos/tests/common/mqtt\aws_test_mqtt_agent.c ****         }
 794:D:/Work/DeviceTester/amazon-freertos/tests/common/mqtt\aws_test_mqtt_agent.c **** 
 795:D:/Work/DeviceTester/amazon-freertos/tests/common/mqtt\aws_test_mqtt_agent.c ****         xAgentCreated = pdFALSE;
 796:D:/Work/DeviceTester/amazon-freertos/tests/common/mqtt\aws_test_mqtt_agent.c ****     }
 797:D:/Work/DeviceTester/amazon-freertos/tests/common/mqtt\aws_test_mqtt_agent.c **** 
 798:D:/Work/DeviceTester/amazon-freertos/tests/common/mqtt\aws_test_mqtt_agent.c ****     if( xAgentCreated == pdTRUE )
 799:D:/Work/DeviceTester/amazon-freertos/tests/common/mqtt\aws_test_mqtt_agent.c ****     {
 800:D:/Work/DeviceTester/amazon-freertos/tests/common/mqtt\aws_test_mqtt_agent.c ****         ( void ) MQTT_AGENT_Delete( *pxMQTTHandle );
 801:D:/Work/DeviceTester/amazon-freertos/tests/common/mqtt\aws_test_mqtt_agent.c ****     }
 802:D:/Work/DeviceTester/amazon-freertos/tests/common/mqtt\aws_test_mqtt_agent.c **** 
 803:D:/Work/DeviceTester/amazon-freertos/tests/common/mqtt\aws_test_mqtt_agent.c ****     pxTcptestEchoClientsTaskParams->xStatus = xStatus;
 804:D:/Work/DeviceTester/amazon-freertos/tests/common/mqtt\aws_test_mqtt_agent.c ****     xEventGroupSync( xSyncEventGroup, /* The event group used for the rendezvous. */
 805:D:/Work/DeviceTester/amazon-freertos/tests/common/mqtt\aws_test_mqtt_agent.c ****                      ( 1 << usTaskTag ),
 806:D:/Work/DeviceTester/amazon-freertos/tests/common/mqtt\aws_test_mqtt_agent.c ****                      mqttagenttestMULTI_TASK_TEST_EVENT_MASK,
 807:D:/Work/DeviceTester/amazon-freertos/tests/common/mqtt\aws_test_mqtt_agent.c ****                      mqttagenttestMULTI_TASK_TEST_COMPLETE_TIMEOUT_TICKS );
 808:D:/Work/DeviceTester/amazon-freertos/tests/common/mqtt\aws_test_mqtt_agent.c ****     vTaskSuspend( NULL ); /* Suspend this task. Will be deleted by the mainTask */
 809:D:/Work/DeviceTester/amazon-freertos/tests/common/mqtt\aws_test_mqtt_agent.c **** }
 810:D:/Work/DeviceTester/amazon-freertos/tests/common/mqtt\aws_test_mqtt_agent.c **** 
 811:D:/Work/DeviceTester/amazon-freertos/tests/common/mqtt\aws_test_mqtt_agent.c **** /*-----------------------------------------------------------*/
 812:D:/Work/DeviceTester/amazon-freertos/tests/common/mqtt\aws_test_mqtt_agent.c **** 
 813:D:/Work/DeviceTester/amazon-freertos/tests/common/mqtt\aws_test_mqtt_agent.c **** /**
 814:D:/Work/DeviceTester/amazon-freertos/tests/common/mqtt\aws_test_mqtt_agent.c ****  * @brief Transmit Task
 815:D:/Work/DeviceTester/amazon-freertos/tests/common/mqtt\aws_test_mqtt_agent.c ****  *
 816:D:/Work/DeviceTester/amazon-freertos/tests/common/mqtt\aws_test_mqtt_agent.c ****  * y number of Transmit task are going to be created, each tasks are going to publish n number of M
 817:D:/Work/DeviceTester/amazon-freertos/tests/common/mqtt\aws_test_mqtt_agent.c ****  * to each one of the x tasks.
 818:D:/Work/DeviceTester/amazon-freertos/tests/common/mqtt\aws_test_mqtt_agent.c ****  */
 819:D:/Work/DeviceTester/amazon-freertos/tests/common/mqtt\aws_test_mqtt_agent.c **** static void prvMultiTaskTest_Tx_Task( void * pvParameters )
 820:D:/Work/DeviceTester/amazon-freertos/tests/common/mqtt\aws_test_mqtt_agent.c **** {
 1030              		.loc 1 820 0
 1031              		.cfi_startproc
 1032              		@ args = 0, pretend = 0, frame = 24
 1033              		@ frame_needed = 0, uses_anonymous_args = 0
 1034              	.LVL108:
 1035 0000 F04F2DE9 		push	{r4, r5, r6, r7, r8, r9, r10, fp, lr}
 1036              		.cfi_def_cfa_offset 36
 1037              		.cfi_offset 4, -36
 1038              		.cfi_offset 5, -32
 1039              		.cfi_offset 6, -28
 1040              		.cfi_offset 7, -24
 1041              		.cfi_offset 8, -20
 1042              		.cfi_offset 9, -16
 1043              		.cfi_offset 10, -12
 1044              		.cfi_offset 11, -8
 1045              		.cfi_offset 14, -4
 821:D:/Work/DeviceTester/amazon-freertos/tests/common/mqtt\aws_test_mqtt_agent.c ****     size_t xSendLoop;
 822:D:/Work/DeviceTester/amazon-freertos/tests/common/mqtt\aws_test_mqtt_agent.c ****     BaseType_t xStatus, xReturn;
 823:D:/Work/DeviceTester/amazon-freertos/tests/common/mqtt\aws_test_mqtt_agent.c ****     size_t xPubSubIndex, usIndex;
 824:D:/Work/DeviceTester/amazon-freertos/tests/common/mqtt\aws_test_mqtt_agent.c ****     MQTTAgentPublishParams_t xPublishParameters;
 825:D:/Work/DeviceTester/amazon-freertos/tests/common/mqtt\aws_test_mqtt_agent.c ****     MQTTtestAgentTaskParams_t * xTcptestEchoClientsTaskParams;
 826:D:/Work/DeviceTester/amazon-freertos/tests/common/mqtt\aws_test_mqtt_agent.c **** 
 827:D:/Work/DeviceTester/amazon-freertos/tests/common/mqtt\aws_test_mqtt_agent.c ****     xTcptestEchoClientsTaskParams = ( ( MQTTtestAgentTaskParams_t * ) pvParameters );
 828:D:/Work/DeviceTester/amazon-freertos/tests/common/mqtt\aws_test_mqtt_agent.c **** 
 829:D:/Work/DeviceTester/amazon-freertos/tests/common/mqtt\aws_test_mqtt_agent.c ****     xStatus = pdPASS;
 1046              		.loc 1 829 0
 1047 0004 0160A0E3 		mov	r6, #1
 830:D:/Work/DeviceTester/amazon-freertos/tests/common/mqtt\aws_test_mqtt_agent.c **** 
 831:D:/Work/DeviceTester/amazon-freertos/tests/common/mqtt\aws_test_mqtt_agent.c ****     /* Transmit and Receive loop switch priorities on a different bit, so all combination of high a
 832:D:/Work/DeviceTester/amazon-freertos/tests/common/mqtt\aws_test_mqtt_agent.c ****     for( xSendLoop = 1; xSendLoop < mqttagenttestMULTI_TASK_TEST_MAX_LOOP + 1; xSendLoop++ )
 833:D:/Work/DeviceTester/amazon-freertos/tests/common/mqtt\aws_test_mqtt_agent.c ****     {
 834:D:/Work/DeviceTester/amazon-freertos/tests/common/mqtt\aws_test_mqtt_agent.c ****         if( mqttagenttestMULTI_TASK_TEST_TX_LOWP_SWITCH_MASK & xSendLoop )
 835:D:/Work/DeviceTester/amazon-freertos/tests/common/mqtt\aws_test_mqtt_agent.c ****         {
 836:D:/Work/DeviceTester/amazon-freertos/tests/common/mqtt\aws_test_mqtt_agent.c ****             vTaskPrioritySet( NULL, mqttagenttestMULTI_TASK_TEST_LOW_PRIORITY );
 837:D:/Work/DeviceTester/amazon-freertos/tests/common/mqtt\aws_test_mqtt_agent.c ****         }
 838:D:/Work/DeviceTester/amazon-freertos/tests/common/mqtt\aws_test_mqtt_agent.c ****         else
 839:D:/Work/DeviceTester/amazon-freertos/tests/common/mqtt\aws_test_mqtt_agent.c ****         {
 840:D:/Work/DeviceTester/amazon-freertos/tests/common/mqtt\aws_test_mqtt_agent.c ****             vTaskPrioritySet( NULL, mqttagenttestMULTI_TASK_TEST_HIGH_PRIORITY );
 841:D:/Work/DeviceTester/amazon-freertos/tests/common/mqtt\aws_test_mqtt_agent.c ****         }
 842:D:/Work/DeviceTester/amazon-freertos/tests/common/mqtt\aws_test_mqtt_agent.c **** 
 843:D:/Work/DeviceTester/amazon-freertos/tests/common/mqtt\aws_test_mqtt_agent.c ****         /* Wait for the Receive tasks to create and connect the agent. */
 844:D:/Work/DeviceTester/amazon-freertos/tests/common/mqtt\aws_test_mqtt_agent.c **** 
 845:D:/Work/DeviceTester/amazon-freertos/tests/common/mqtt\aws_test_mqtt_agent.c ****         for( usIndex = 0; usIndex < mqttagenttestMULTI_TASK_TEST_NUM_RX_TASKS; usIndex++ )
 846:D:/Work/DeviceTester/amazon-freertos/tests/common/mqtt\aws_test_mqtt_agent.c ****         {
 847:D:/Work/DeviceTester/amazon-freertos/tests/common/mqtt\aws_test_mqtt_agent.c ****             if( xEventGroupSync( MQTTtestAgentMultiTestRxParam[ usIndex ].xSyncEventRx,            
 1048              		.loc 1 847 0
 1049 0008 94819FE5 		ldr	r8, .L113
 820:D:/Work/DeviceTester/amazon-freertos/tests/common/mqtt\aws_test_mqtt_agent.c ****     size_t xSendLoop;
 1050              		.loc 1 820 0
 1051 000c 1CD04DE2 		sub	sp, sp, #28
 1052              		.cfi_def_cfa_offset 64
 820:D:/Work/DeviceTester/amazon-freertos/tests/common/mqtt\aws_test_mqtt_agent.c ****     size_t xSendLoop;
 1053              		.loc 1 820 0
 1054 0010 0040A0E1 		mov	r4, r0
 1055              	.LVL109:
 832:D:/Work/DeviceTester/amazon-freertos/tests/common/mqtt\aws_test_mqtt_agent.c ****     {
 1056              		.loc 1 832 0
 1057 0014 0670A0E1 		mov	r7, r6
 848:D:/Work/DeviceTester/amazon-freertos/tests/common/mqtt\aws_test_mqtt_agent.c ****                                  ( 1 << xTcptestEchoClientsTaskParams->usTaskTag ),                
 849:D:/Work/DeviceTester/amazon-freertos/tests/common/mqtt\aws_test_mqtt_agent.c ****                                  ( mqttagenttestMULTI_TASK_TEST_TX_EVENT_MASK | ( 1 << usIndex ) ),
 850:D:/Work/DeviceTester/amazon-freertos/tests/common/mqtt\aws_test_mqtt_agent.c ****                                  mqttagenttestMULTI_TASK_TEST_SYNC_TIMEOUT_TICKS ) != ( mqttagentte
 851:D:/Work/DeviceTester/amazon-freertos/tests/common/mqtt\aws_test_mqtt_agent.c ****             {
 852:D:/Work/DeviceTester/amazon-freertos/tests/common/mqtt\aws_test_mqtt_agent.c ****                 mqttagenttestFAILUREPRINTF( ( "%s: Failed synching with Transmit and Receive tasks.
 853:D:/Work/DeviceTester/amazon-freertos/tests/common/mqtt\aws_test_mqtt_agent.c ****                 xStatus = pdFAIL;
 854:D:/Work/DeviceTester/amazon-freertos/tests/common/mqtt\aws_test_mqtt_agent.c ****                 break;
 855:D:/Work/DeviceTester/amazon-freertos/tests/common/mqtt\aws_test_mqtt_agent.c ****             }
 856:D:/Work/DeviceTester/amazon-freertos/tests/common/mqtt\aws_test_mqtt_agent.c ****         }
 857:D:/Work/DeviceTester/amazon-freertos/tests/common/mqtt\aws_test_mqtt_agent.c **** 
 858:D:/Work/DeviceTester/amazon-freertos/tests/common/mqtt\aws_test_mqtt_agent.c ****         if( xStatus == pdFAIL )
 859:D:/Work/DeviceTester/amazon-freertos/tests/common/mqtt\aws_test_mqtt_agent.c ****         {
 860:D:/Work/DeviceTester/amazon-freertos/tests/common/mqtt\aws_test_mqtt_agent.c ****             break;
 861:D:/Work/DeviceTester/amazon-freertos/tests/common/mqtt\aws_test_mqtt_agent.c ****         }
 862:D:/Work/DeviceTester/amazon-freertos/tests/common/mqtt\aws_test_mqtt_agent.c **** 
 863:D:/Work/DeviceTester/amazon-freertos/tests/common/mqtt\aws_test_mqtt_agent.c ****         for( usIndex = 0; usIndex < mqttagenttestMULTI_TASK_TEST_NUM_RX_TASKS; usIndex++ )
 864:D:/Work/DeviceTester/amazon-freertos/tests/common/mqtt\aws_test_mqtt_agent.c ****         {
 865:D:/Work/DeviceTester/amazon-freertos/tests/common/mqtt\aws_test_mqtt_agent.c ****             /* Setup the publish parameters. */
 866:D:/Work/DeviceTester/amazon-freertos/tests/common/mqtt\aws_test_mqtt_agent.c ****             memset( &( xPublishParameters ), 0x00, sizeof( xPublishParameters ) );
 867:D:/Work/DeviceTester/amazon-freertos/tests/common/mqtt\aws_test_mqtt_agent.c ****             xPublishParameters.pucTopic = MQTTtestAgentMultiTestRxParam[ usIndex ].cTopic;
 868:D:/Work/DeviceTester/amazon-freertos/tests/common/mqtt\aws_test_mqtt_agent.c ****             xPublishParameters.pvData = xTcptestEchoClientsTaskParams->pucTransmittedData;
 869:D:/Work/DeviceTester/amazon-freertos/tests/common/mqtt\aws_test_mqtt_agent.c ****             xPublishParameters.usTopicLength = MQTTtestAgentMultiTestRxParam[ usIndex ].usTopicLeng
 870:D:/Work/DeviceTester/amazon-freertos/tests/common/mqtt\aws_test_mqtt_agent.c ****             xPublishParameters.ulDataLength = ( uint32_t ) mqttagenttestMULTI_TASK_TEST_PUB_DATA_SI
 871:D:/Work/DeviceTester/amazon-freertos/tests/common/mqtt\aws_test_mqtt_agent.c ****             xPublishParameters.xQoS = eMQTTQoS1;
 872:D:/Work/DeviceTester/amazon-freertos/tests/common/mqtt\aws_test_mqtt_agent.c **** 
 873:D:/Work/DeviceTester/amazon-freertos/tests/common/mqtt\aws_test_mqtt_agent.c ****             /* Publish the message. */
 874:D:/Work/DeviceTester/amazon-freertos/tests/common/mqtt\aws_test_mqtt_agent.c ****             for( xPubSubIndex = 0; xPubSubIndex < mqttagenttestMULTI_TASK_TEST_PUBLISH_PER_LOOP; xP
 875:D:/Work/DeviceTester/amazon-freertos/tests/common/mqtt\aws_test_mqtt_agent.c ****             {
 876:D:/Work/DeviceTester/amazon-freertos/tests/common/mqtt\aws_test_mqtt_agent.c ****                 xReturn = MQTT_AGENT_Publish( MQTTtestAgentMultiTestRxParam[ usIndex ].xMQTTHandle,
 877:D:/Work/DeviceTester/amazon-freertos/tests/common/mqtt\aws_test_mqtt_agent.c ****                                               &( xPublishParameters ),
 878:D:/Work/DeviceTester/amazon-freertos/tests/common/mqtt\aws_test_mqtt_agent.c ****                                               mqttagenttestTIMEOUT );
 879:D:/Work/DeviceTester/amazon-freertos/tests/common/mqtt\aws_test_mqtt_agent.c **** 
 880:D:/Work/DeviceTester/amazon-freertos/tests/common/mqtt\aws_test_mqtt_agent.c ****                 if( xReturn != eMQTTAgentSuccess )
 881:D:/Work/DeviceTester/amazon-freertos/tests/common/mqtt\aws_test_mqtt_agent.c ****                 {
 882:D:/Work/DeviceTester/amazon-freertos/tests/common/mqtt\aws_test_mqtt_agent.c ****                     mqttagenttestFAILUREPRINTF( ( "%s: Failed publishing to topic.\r\n", __FUNCTION
 883:D:/Work/DeviceTester/amazon-freertos/tests/common/mqtt\aws_test_mqtt_agent.c ****                     xStatus = pdFAIL;
 884:D:/Work/DeviceTester/amazon-freertos/tests/common/mqtt\aws_test_mqtt_agent.c ****                     break;
 885:D:/Work/DeviceTester/amazon-freertos/tests/common/mqtt\aws_test_mqtt_agent.c ****                 }
 886:D:/Work/DeviceTester/amazon-freertos/tests/common/mqtt\aws_test_mqtt_agent.c ****             }
 887:D:/Work/DeviceTester/amazon-freertos/tests/common/mqtt\aws_test_mqtt_agent.c **** 
 888:D:/Work/DeviceTester/amazon-freertos/tests/common/mqtt\aws_test_mqtt_agent.c ****             if( xStatus == pdFAIL )
 889:D:/Work/DeviceTester/amazon-freertos/tests/common/mqtt\aws_test_mqtt_agent.c ****             {
 890:D:/Work/DeviceTester/amazon-freertos/tests/common/mqtt\aws_test_mqtt_agent.c ****                 break;
 891:D:/Work/DeviceTester/amazon-freertos/tests/common/mqtt\aws_test_mqtt_agent.c ****             }
 892:D:/Work/DeviceTester/amazon-freertos/tests/common/mqtt\aws_test_mqtt_agent.c ****         }
 893:D:/Work/DeviceTester/amazon-freertos/tests/common/mqtt\aws_test_mqtt_agent.c **** 
 894:D:/Work/DeviceTester/amazon-freertos/tests/common/mqtt\aws_test_mqtt_agent.c ****         if( xStatus == pdFAIL )
 895:D:/Work/DeviceTester/amazon-freertos/tests/common/mqtt\aws_test_mqtt_agent.c ****         {
 896:D:/Work/DeviceTester/amazon-freertos/tests/common/mqtt\aws_test_mqtt_agent.c ****             break;
 897:D:/Work/DeviceTester/amazon-freertos/tests/common/mqtt\aws_test_mqtt_agent.c ****         }
 898:D:/Work/DeviceTester/amazon-freertos/tests/common/mqtt\aws_test_mqtt_agent.c **** 
 899:D:/Work/DeviceTester/amazon-freertos/tests/common/mqtt\aws_test_mqtt_agent.c ****         for( usIndex = 0; usIndex < mqttagenttestMULTI_TASK_TEST_NUM_RX_TASKS; usIndex++ )
 900:D:/Work/DeviceTester/amazon-freertos/tests/common/mqtt\aws_test_mqtt_agent.c ****         {
 901:D:/Work/DeviceTester/amazon-freertos/tests/common/mqtt\aws_test_mqtt_agent.c ****             if( xEventGroupSync( MQTTtestAgentMultiTestRxParam[ usIndex ].xSyncEventRx,            
 902:D:/Work/DeviceTester/amazon-freertos/tests/common/mqtt\aws_test_mqtt_agent.c ****                                  ( 1 << xTcptestEchoClientsTaskParams->usTaskTag ),                
 903:D:/Work/DeviceTester/amazon-freertos/tests/common/mqtt\aws_test_mqtt_agent.c ****                                  ( mqttagenttestMULTI_TASK_TEST_TX_EVENT_MASK | ( 1 << usIndex ) ),
 904:D:/Work/DeviceTester/amazon-freertos/tests/common/mqtt\aws_test_mqtt_agent.c ****                                  mqttagenttestMULTI_TASK_TEST_SYNC_TIMEOUT_TICKS ) != ( mqttagentte
 905:D:/Work/DeviceTester/amazon-freertos/tests/common/mqtt\aws_test_mqtt_agent.c ****             {
 906:D:/Work/DeviceTester/amazon-freertos/tests/common/mqtt\aws_test_mqtt_agent.c ****                 mqttagenttestFAILUREPRINTF( ( "%s: Failed synching with Transmit and Receive tasks.
 1058              		.loc 1 906 0
 1059 0018 88A19FE5 		ldr	r10, .L113+4
 1060 001c 0890A0E1 		mov	r9, r8
 1061              	.LVL110:
 1062              	.L93:
 834:D:/Work/DeviceTester/amazon-freertos/tests/common/mqtt\aws_test_mqtt_agent.c ****         {
 1063              		.loc 1 834 0
 1064 0020 010017E2 		ands	r0, r7, #1
 848:D:/Work/DeviceTester/amazon-freertos/tests/common/mqtt\aws_test_mqtt_agent.c ****                                  ( 1 << xTcptestEchoClientsTaskParams->usTaskTag ),                
 1065              		.loc 1 848 0
 1066 0024 0150A0E3 		mov	r5, #1
 836:D:/Work/DeviceTester/amazon-freertos/tests/common/mqtt\aws_test_mqtt_agent.c ****         }
 1067              		.loc 1 836 0
 1068 0028 0010A013 		movne	r1, #0
 840:D:/Work/DeviceTester/amazon-freertos/tests/common/mqtt\aws_test_mqtt_agent.c ****         }
 1069              		.loc 1 840 0
 1070 002c 1310A003 		moveq	r1, #19
 836:D:/Work/DeviceTester/amazon-freertos/tests/common/mqtt\aws_test_mqtt_agent.c ****         }
 1071              		.loc 1 836 0
 1072 0030 0100A011 		movne	r0, r1
 1073 0034 FEFFFFEB 		bl	vTaskPrioritySet
 1074              	.LVL111:
 848:D:/Work/DeviceTester/amazon-freertos/tests/common/mqtt\aws_test_mqtt_agent.c ****                                  ( mqttagenttestMULTI_TASK_TEST_TX_EVENT_MASK | ( 1 << usIndex ) ),
 1075              		.loc 1 848 0
 1076 0038 B010D4E1 		ldrh	r1, [r4]
 847:D:/Work/DeviceTester/amazon-freertos/tests/common/mqtt\aws_test_mqtt_agent.c ****                                  ( 1 << xTcptestEchoClientsTaskParams->usTaskTag ),                
 1077              		.loc 1 847 0
 1078 003c 403C09E3 		movw	r3, #40000
 1079 0040 0D20A0E3 		mov	r2, #13
 1080 0044 040098E5 		ldr	r0, [r8, #4]
 1081 0048 1511A0E1 		lsl	r1, r5, r1
 1082 004c FEFFFFEB 		bl	xEventGroupSync
 1083              	.LVL112:
 1084 0050 0D0050E3 		cmp	r0, #13
 1085 0054 0700001A 		bne	.L85
 1086              	.LVL113:
 848:D:/Work/DeviceTester/amazon-freertos/tests/common/mqtt\aws_test_mqtt_agent.c ****                                  ( mqttagenttestMULTI_TASK_TEST_TX_EVENT_MASK | ( 1 << usIndex ) ),
 1087              		.loc 1 848 0
 1088 0058 B010D4E1 		ldrh	r1, [r4]
 847:D:/Work/DeviceTester/amazon-freertos/tests/common/mqtt\aws_test_mqtt_agent.c ****                                  ( 1 << xTcptestEchoClientsTaskParams->usTaskTag ),                
 1089              		.loc 1 847 0
 1090 005c 403C09E3 		movw	r3, #40000
 1091 0060 0E20A0E3 		mov	r2, #14
 1092 0064 3C0098E5 		ldr	r0, [r8, #60]
 1093 0068 1511A0E1 		lsl	r1, r5, r1
 1094 006c FEFFFFEB 		bl	xEventGroupSync
 1095              	.LVL114:
 1096 0070 0E0050E3 		cmp	r0, #14
 1097 0074 1000000A 		beq	.L106
 1098              	.LVL115:
 1099              	.L85:
 852:D:/Work/DeviceTester/amazon-freertos/tests/common/mqtt\aws_test_mqtt_agent.c ****                 xStatus = pdFAIL;
 1100              		.loc 1 852 0
 1101 0078 28119FE5 		ldr	r1, .L113+4
 1102 007c 28019FE5 		ldr	r0, .L113+8
 1103              	.LVL116:
 1104              	.L112:
 882:D:/Work/DeviceTester/amazon-freertos/tests/common/mqtt\aws_test_mqtt_agent.c ****                     xStatus = pdFAIL;
 1105              		.loc 1 882 0
 1106 0080 0060A0E3 		mov	r6, #0
 1107 0084 FEFFFFEB 		bl	vLoggingPrintf
 1108              	.LVL117:
 1109              	.L88:
 907:D:/Work/DeviceTester/amazon-freertos/tests/common/mqtt\aws_test_mqtt_agent.c ****                 xStatus = pdFAIL;
 908:D:/Work/DeviceTester/amazon-freertos/tests/common/mqtt\aws_test_mqtt_agent.c ****                 break;
 909:D:/Work/DeviceTester/amazon-freertos/tests/common/mqtt\aws_test_mqtt_agent.c ****             }
 910:D:/Work/DeviceTester/amazon-freertos/tests/common/mqtt\aws_test_mqtt_agent.c ****         }
 911:D:/Work/DeviceTester/amazon-freertos/tests/common/mqtt\aws_test_mqtt_agent.c ****     }
 912:D:/Work/DeviceTester/amazon-freertos/tests/common/mqtt\aws_test_mqtt_agent.c **** 
 913:D:/Work/DeviceTester/amazon-freertos/tests/common/mqtt\aws_test_mqtt_agent.c ****     xTcptestEchoClientsTaskParams->xStatus = xStatus;
 914:D:/Work/DeviceTester/amazon-freertos/tests/common/mqtt\aws_test_mqtt_agent.c ****     xEventGroupSync( xSyncEventGroup, /* The event group used for the rendezvous. */
 915:D:/Work/DeviceTester/amazon-freertos/tests/common/mqtt\aws_test_mqtt_agent.c ****                      ( 1 << xTcptestEchoClientsTaskParams->usTaskTag ),
 1110              		.loc 1 915 0
 1111 0088 B010D4E1 		ldrh	r1, [r4]
 914:D:/Work/DeviceTester/amazon-freertos/tests/common/mqtt\aws_test_mqtt_agent.c ****                      ( 1 << xTcptestEchoClientsTaskParams->usTaskTag ),
 1112              		.loc 1 914 0
 1113 008c 0100A0E3 		mov	r0, #1
 1114 0090 18319FE5 		ldr	r3, .L113+12
 1115 0094 0F20A0E3 		mov	r2, #15
 913:D:/Work/DeviceTester/amazon-freertos/tests/common/mqtt\aws_test_mqtt_agent.c ****     xEventGroupSync( xSyncEventGroup, /* The event group used for the rendezvous. */
 1116              		.loc 1 913 0
 1117 0098 046084E5 		str	r6, [r4, #4]
 914:D:/Work/DeviceTester/amazon-freertos/tests/common/mqtt\aws_test_mqtt_agent.c ****                      ( 1 << xTcptestEchoClientsTaskParams->usTaskTag ),
 1118              		.loc 1 914 0
 1119 009c 1011A0E1 		lsl	r1, r0, r1
 1120 00a0 0C019FE5 		ldr	r0, .L113+16
 1121 00a4 000090E5 		ldr	r0, [r0]
 1122 00a8 FEFFFFEB 		bl	xEventGroupSync
 1123              	.LVL118:
 916:D:/Work/DeviceTester/amazon-freertos/tests/common/mqtt\aws_test_mqtt_agent.c ****                      mqttagenttestMULTI_TASK_TEST_EVENT_MASK,
 917:D:/Work/DeviceTester/amazon-freertos/tests/common/mqtt\aws_test_mqtt_agent.c ****                      mqttagenttestMULTI_TASK_TEST_COMPLETE_TIMEOUT_TICKS );
 918:D:/Work/DeviceTester/amazon-freertos/tests/common/mqtt\aws_test_mqtt_agent.c ****     vTaskSuspend( NULL ); /* Suspend this task. Will be deleted by the mainTask */
 1124              		.loc 1 918 0
 1125 00ac 0000A0E3 		mov	r0, #0
 1126 00b0 FEFFFFEB 		bl	vTaskSuspend
 1127              	.LVL119:
 919:D:/Work/DeviceTester/amazon-freertos/tests/common/mqtt\aws_test_mqtt_agent.c **** }
 1128              		.loc 1 919 0
 1129 00b4 1CD08DE2 		add	sp, sp, #28
 1130              		.cfi_remember_state
 1131              		.cfi_def_cfa_offset 36
 1132              		@ sp needed
 1133 00b8 F08FBDE8 		pop	{r4, r5, r6, r7, r8, r9, r10, fp, pc}
 1134              	.LVL120:
 1135              	.L106:
 1136              		.cfi_restore_state
 858:D:/Work/DeviceTester/amazon-freertos/tests/common/mqtt\aws_test_mqtt_agent.c ****         {
 1137              		.loc 1 858 0
 1138 00bc 000056E3 		cmp	r6, #0
 1139 00c0 F0FFFF0A 		beq	.L88
 1140 00c4 EC509FE5 		ldr	r5, .L113+20
 1141 00c8 70B085E2 		add	fp, r5, #112
 1142              	.LVL121:
 1143              	.L94:
 866:D:/Work/DeviceTester/amazon-freertos/tests/common/mqtt\aws_test_mqtt_agent.c ****             xPublishParameters.pucTopic = MQTTtestAgentMultiTestRxParam[ usIndex ].cTopic;
 1144              		.loc 1 866 0
 1145 00cc 1020A0E3 		mov	r2, #16
 1146 00d0 0010A0E3 		mov	r1, #0
 1147 00d4 08008DE2 		add	r0, sp, #8
 1148 00d8 FEFFFFEB 		bl	memset
 1149              	.LVL122:
 868:D:/Work/DeviceTester/amazon-freertos/tests/common/mqtt\aws_test_mqtt_agent.c ****             xPublishParameters.usTopicLength = MQTTtestAgentMultiTestRxParam[ usIndex ].usTopicLeng
 1150              		.loc 1 868 0
 1151 00dc 0C3094E5 		ldr	r3, [r4, #12]
 867:D:/Work/DeviceTester/amazon-freertos/tests/common/mqtt\aws_test_mqtt_agent.c ****             xPublishParameters.pvData = xTcptestEchoClientsTaskParams->pucTransmittedData;
 1152              		.loc 1 867 0
 1153 00e0 08508DE5 		str	r5, [sp, #8]
 868:D:/Work/DeviceTester/amazon-freertos/tests/common/mqtt\aws_test_mqtt_agent.c ****             xPublishParameters.usTopicLength = MQTTtestAgentMultiTestRxParam[ usIndex ].usTopicLeng
 1154              		.loc 1 868 0
 1155 00e4 10308DE5 		str	r3, [sp, #16]
 869:D:/Work/DeviceTester/amazon-freertos/tests/common/mqtt\aws_test_mqtt_agent.c ****             xPublishParameters.ulDataLength = ( uint32_t ) mqttagenttestMULTI_TASK_TEST_PUB_DATA_SI
 1156              		.loc 1 869 0
 1157 00e8 BE31D5E1 		ldrh	r3, [r5, #30]
 1158 00ec BC30CDE1 		strh	r3, [sp, #12]	@ movhi
 870:D:/Work/DeviceTester/amazon-freertos/tests/common/mqtt\aws_test_mqtt_agent.c ****             xPublishParameters.xQoS = eMQTTQoS1;
 1159              		.loc 1 870 0
 1160 00f0 013CA0E3 		mov	r3, #256
 1161 00f4 14308DE5 		str	r3, [sp, #20]
 871:D:/Work/DeviceTester/amazon-freertos/tests/common/mqtt\aws_test_mqtt_agent.c **** 
 1162              		.loc 1 871 0
 1163 00f8 0130A0E3 		mov	r3, #1
 1164 00fc 0E30CDE5 		strb	r3, [sp, #14]
 1165              	.LVL123:
 1166 0100 0A30A0E3 		mov	r3, #10
 1167              	.LVL124:
 1168              	.L90:
 876:D:/Work/DeviceTester/amazon-freertos/tests/common/mqtt\aws_test_mqtt_agent.c ****                                               &( xPublishParameters ),
 1169              		.loc 1 876 0
 1170 0104 102702E3 		movw	r2, #10000
 1171 0108 08108DE2 		add	r1, sp, #8
 1172 010c 080015E5 		ldr	r0, [r5, #-8]
 1173 0110 04308DE5 		str	r3, [sp, #4]
 1174              	.LVL125:
 1175 0114 FEFFFFEB 		bl	MQTT_AGENT_Publish
 1176              	.LVL126:
 880:D:/Work/DeviceTester/amazon-freertos/tests/common/mqtt\aws_test_mqtt_agent.c ****                 {
 1177              		.loc 1 880 0
 1178 0118 000050E3 		cmp	r0, #0
 1179 011c 04309DE5 		ldr	r3, [sp, #4]
 882:D:/Work/DeviceTester/amazon-freertos/tests/common/mqtt\aws_test_mqtt_agent.c ****                     xStatus = pdFAIL;
 1180              		.loc 1 882 0
 1181 0120 80109F15 		ldrne	r1, .L113+4
 1182 0124 90009F15 		ldrne	r0, .L113+24
 1183              	.LVL127:
 1184 0128 D4FFFF1A 		bne	.L112
 1185              	.LVL128:
 1186              	.L89:
 874:D:/Work/DeviceTester/amazon-freertos/tests/common/mqtt\aws_test_mqtt_agent.c ****             {
 1187              		.loc 1 874 0 discriminator 2
 1188 012c 013053E2 		subs	r3, r3, #1
 1189              	.LVL129:
 1190 0130 F3FFFF1A 		bne	.L90
 1191 0134 385085E2 		add	r5, r5, #56
 863:D:/Work/DeviceTester/amazon-freertos/tests/common/mqtt\aws_test_mqtt_agent.c ****         {
 1192              		.loc 1 863 0
 1193 0138 05005BE1 		cmp	fp, r5
 1194 013c E2FFFF1A 		bne	.L94
 1195              	.LVL130:
 902:D:/Work/DeviceTester/amazon-freertos/tests/common/mqtt\aws_test_mqtt_agent.c ****                                  ( mqttagenttestMULTI_TASK_TEST_TX_EVENT_MASK | ( 1 << usIndex ) ),
 1196              		.loc 1 902 0
 1197 0140 B010D4E1 		ldrh	r1, [r4]
 1198 0144 0150A0E3 		mov	r5, #1
 901:D:/Work/DeviceTester/amazon-freertos/tests/common/mqtt\aws_test_mqtt_agent.c ****                                  ( 1 << xTcptestEchoClientsTaskParams->usTaskTag ),                
 1199              		.loc 1 901 0
 1200 0148 403C09E3 		movw	r3, #40000
 1201 014c 0D20A0E3 		mov	r2, #13
 1202 0150 040099E5 		ldr	r0, [r9, #4]
 1203              	.LVL131:
 1204 0154 1511A0E1 		lsl	r1, r5, r1
 1205 0158 FEFFFFEB 		bl	xEventGroupSync
 1206              	.LVL132:
 1207 015c 0D0050E3 		cmp	r0, #13
 1208 0160 0700001A 		bne	.L95
 1209              	.LVL133:
 902:D:/Work/DeviceTester/amazon-freertos/tests/common/mqtt\aws_test_mqtt_agent.c ****                                  ( mqttagenttestMULTI_TASK_TEST_TX_EVENT_MASK | ( 1 << usIndex ) ),
 1210              		.loc 1 902 0
 1211 0164 B010D4E1 		ldrh	r1, [r4]
 901:D:/Work/DeviceTester/amazon-freertos/tests/common/mqtt\aws_test_mqtt_agent.c ****                                  ( 1 << xTcptestEchoClientsTaskParams->usTaskTag ),                
 1212              		.loc 1 901 0
 1213 0168 403C09E3 		movw	r3, #40000
 1214 016c 0E20A0E3 		mov	r2, #14
 1215 0170 3C0099E5 		ldr	r0, [r9, #60]
 1216 0174 1511A0E1 		lsl	r1, r5, r1
 1217 0178 FEFFFFEB 		bl	xEventGroupSync
 1218              	.LVL134:
 1219 017c 0E0050E3 		cmp	r0, #14
 1220 0180 0300000A 		beq	.L92
 1221              	.LVL135:
 1222              	.L95:
 907:D:/Work/DeviceTester/amazon-freertos/tests/common/mqtt\aws_test_mqtt_agent.c ****                 break;
 1223              		.loc 1 907 0
 1224 0184 0060A0E3 		mov	r6, #0
 906:D:/Work/DeviceTester/amazon-freertos/tests/common/mqtt\aws_test_mqtt_agent.c ****                 xStatus = pdFAIL;
 1225              		.loc 1 906 0
 1226 0188 0A10A0E1 		mov	r1, r10
 1227 018c 18009FE5 		ldr	r0, .L113+8
 1228 0190 FEFFFFEB 		bl	vLoggingPrintf
 1229              	.LVL136:
 1230              	.L92:
 832:D:/Work/DeviceTester/amazon-freertos/tests/common/mqtt\aws_test_mqtt_agent.c ****     {
 1231              		.loc 1 832 0 discriminator 2
 1232 0194 017087E2 		add	r7, r7, #1
 1233              	.LVL137:
 1234 0198 050057E3 		cmp	r7, #5
 1235 019c 9FFFFF1A 		bne	.L93
 1236 01a0 B8FFFFEA 		b	.L88
 1237              	.L114:
 1238              		.align	2
 1239              	.L113:
 1240 01a4 00000000 		.word	.LANCHOR3
 1241 01a8 00000000 		.word	.LANCHOR4
 1242 01ac 00000000 		.word	.LC15
 1243 01b0 801A0600 		.word	400000
 1244 01b4 00000000 		.word	.LANCHOR2
 1245 01b8 08000000 		.word	.LANCHOR3+8
 1246 01bc 37000000 		.word	.LC16
 1247              		.cfi_endproc
 1248              	.LFE22:
 1250              		.section	.text.prvMultiTaskTest_Rx_Task,"ax",%progbits
 1251              		.align	2
 1252              		.syntax unified
 1253              		.arm
 1254              		.fpu neon
 1256              	prvMultiTaskTest_Rx_Task:
 1257              	.LFB21:
 633:D:/Work/DeviceTester/amazon-freertos/tests/common/mqtt\aws_test_mqtt_agent.c ****     MQTTAgentSubscribeParams_t xSubscribeParams;
 1258              		.loc 1 633 0
 1259              		.cfi_startproc
 1260              		@ args = 0, pretend = 0, frame = 88
 1261              		@ frame_needed = 0, uses_anonymous_args = 0
 1262              	.LVL138:
 1263 0000 F04F2DE9 		push	{r4, r5, r6, r7, r8, r9, r10, fp, lr}
 1264              		.cfi_def_cfa_offset 36
 1265              		.cfi_offset 4, -36
 1266              		.cfi_offset 5, -32
 1267              		.cfi_offset 6, -28
 1268              		.cfi_offset 7, -24
 1269              		.cfi_offset 8, -20
 1270              		.cfi_offset 9, -16
 1271              		.cfi_offset 10, -12
 1272              		.cfi_offset 11, -8
 1273              		.cfi_offset 14, -4
 1274 0004 0070A0E1 		mov	r7, r0
 646:D:/Work/DeviceTester/amazon-freertos/tests/common/mqtt\aws_test_mqtt_agent.c **** 
 1275              		.loc 1 646 0
 1276 0008 30E29FE5 		ldr	lr, .L140
 633:D:/Work/DeviceTester/amazon-freertos/tests/common/mqtt\aws_test_mqtt_agent.c ****     MQTTAgentSubscribeParams_t xSubscribeParams;
 1277              		.loc 1 633 0
 1278 000c 5CD04DE2 		sub	sp, sp, #92
 1279              		.cfi_def_cfa_offset 128
 646:D:/Work/DeviceTester/amazon-freertos/tests/common/mqtt\aws_test_mqtt_agent.c **** 
 1280              		.loc 1 646 0
 1281 0010 2CC08DE2 		add	ip, sp, #44
 659:D:/Work/DeviceTester/amazon-freertos/tests/common/mqtt\aws_test_mqtt_agent.c ****     xSubscribeParams.pucTopic = MQTTtestAgentMultiTestRxParam[ usTaskTag ].cTopic;
 1282              		.loc 1 659 0
 1283 0014 0140A0E3 		mov	r4, #1
 650:D:/Work/DeviceTester/amazon-freertos/tests/common/mqtt\aws_test_mqtt_agent.c ****     pxSyncEventRx = &MQTTtestAgentMultiTestRxParam[ usTaskTag ].xSyncEventRx;
 1284              		.loc 1 650 0
 1285 0018 B0A0D7E1 		ldrh	r10, [r7]
 718:D:/Work/DeviceTester/amazon-freertos/tests/common/mqtt\aws_test_mqtt_agent.c ****                              ( 1 << usTaskTag ),
 1286              		.loc 1 718 0
 1287 001c 04B0A0E3 		mov	fp, #4
 659:D:/Work/DeviceTester/amazon-freertos/tests/common/mqtt\aws_test_mqtt_agent.c ****     xSubscribeParams.pucTopic = MQTTtestAgentMultiTestRxParam[ usTaskTag ].cTopic;
 1288              		.loc 1 659 0
 1289 0020 2240CDE5 		strb	r4, [sp, #34]
 646:D:/Work/DeviceTester/amazon-freertos/tests/common/mqtt\aws_test_mqtt_agent.c **** 
 1290              		.loc 1 646 0
 1291 0024 0F00BEE8 		ldmia	lr!, {r0, r1, r2, r3}
 1292              	.LVL139:
 719:D:/Work/DeviceTester/amazon-freertos/tests/common/mqtt\aws_test_mqtt_agent.c ****                              ( 1 << usTaskTag ) | mqttagenttestMULTI_TASK_TEST_TX_EVENT_MASK,
 1293              		.loc 1 719 0
 1294 0028 144AA0E1 		lsl	r4, r4, r10
 646:D:/Work/DeviceTester/amazon-freertos/tests/common/mqtt\aws_test_mqtt_agent.c **** 
 1295              		.loc 1 646 0
 1296 002c 0F00ACE8 		stmia	ip!, {r0, r1, r2, r3}
 720:D:/Work/DeviceTester/amazon-freertos/tests/common/mqtt\aws_test_mqtt_agent.c ****                              mqttagenttestMULTI_TASK_TEST_SYNC_TIMEOUT_TICKS ) != ( ( 1 << usTaskTa
 1297              		.loc 1 720 0
 1298 0030 0C8084E3 		orr	r8, r4, #12
 646:D:/Work/DeviceTester/amazon-freertos/tests/common/mqtt\aws_test_mqtt_agent.c **** 
 1299              		.loc 1 646 0
 1300 0034 0F00BEE8 		ldmia	lr!, {r0, r1, r2, r3}
 1301 0038 0F00ACE8 		stmia	ip!, {r0, r1, r2, r3}
 1302 003c 3830A0E3 		mov	r3, #56
 1303 0040 930A03E0 		mul	r3, r3, r10
 1304 0044 07009EE8 		ldm	lr, {r0, r1, r2}
 1305 0048 07008CE8 		stm	ip, {r0, r1, r2}
 1306              	.LVL140:
 653:D:/Work/DeviceTester/amazon-freertos/tests/common/mqtt\aws_test_mqtt_agent.c ****     xConnectParametersMultiTaskTest.usClientIdLength = MQTTtestAgentMultiTestRxParam[ usTaskTag ].u
 1307              		.loc 1 653 0
 1308 004c 281083E2 		add	r1, r3, #40
 652:D:/Work/DeviceTester/amazon-freertos/tests/common/mqtt\aws_test_mqtt_agent.c ****     xConnectParametersMultiTaskTest.pucClientId = MQTTtestAgentMultiTestRxParam[ usTaskTag ].cClien
 1309              		.loc 1 652 0
 1310 0050 EC219FE5 		ldr	r2, .L140+4
 1311 0054 039082E0 		add	r9, r2, r3
 1312              	.LVL141:
 653:D:/Work/DeviceTester/amazon-freertos/tests/common/mqtt\aws_test_mqtt_agent.c ****     xConnectParametersMultiTaskTest.usClientIdLength = MQTTtestAgentMultiTestRxParam[ usTaskTag ].u
 1313              		.loc 1 653 0
 1314 0058 011082E0 		add	r1, r2, r1
 1315 005c 3C108DE5 		str	r1, [sp, #60]
 660:D:/Work/DeviceTester/amazon-freertos/tests/common/mqtt\aws_test_mqtt_agent.c ****     xSubscribeParams.usTopicLength = MQTTtestAgentMultiTestRxParam[ usTaskTag ].usTopicLength;
 1316              		.loc 1 660 0
 1317 0060 083083E2 		add	r3, r3, #8
 654:D:/Work/DeviceTester/amazon-freertos/tests/common/mqtt\aws_test_mqtt_agent.c **** 
 1318              		.loc 1 654 0
 1319 0064 B613D9E1 		ldrh	r1, [r9, #54]
 660:D:/Work/DeviceTester/amazon-freertos/tests/common/mqtt\aws_test_mqtt_agent.c ****     xSubscribeParams.usTopicLength = MQTTtestAgentMultiTestRxParam[ usTaskTag ].usTopicLength;
 1320              		.loc 1 660 0
 1321 0068 033082E0 		add	r3, r2, r3
 1322 006c 1C308DE5 		str	r3, [sp, #28]
 695:D:/Work/DeviceTester/amazon-freertos/tests/common/mqtt\aws_test_mqtt_agent.c ****                                       &xConnectParametersMultiTaskTest,
 1323              		.loc 1 695 0
 1324 0070 0950A0E1 		mov	r5, r9
 654:D:/Work/DeviceTester/amazon-freertos/tests/common/mqtt\aws_test_mqtt_agent.c **** 
 1325              		.loc 1 654 0
 1326 0074 B014CDE1 		strh	r1, [sp, #64]	@ movhi
 657:D:/Work/DeviceTester/amazon-freertos/tests/common/mqtt\aws_test_mqtt_agent.c ****     xSubscribeParams.pxPublishCallback = prvMultiTaskTestMQTTCallback;
 1327              		.loc 1 657 0
 1328 0078 14108DE2 		add	r1, sp, #20
 1329 007c 24108DE5 		str	r1, [sp, #36]
 658:D:/Work/DeviceTester/amazon-freertos/tests/common/mqtt\aws_test_mqtt_agent.c ****     xSubscribeParams.xQoS = eMQTTQoS1;
 1330              		.loc 1 658 0
 1331 0080 C0119FE5 		ldr	r1, .L140+8
 1332 0084 28108DE5 		str	r1, [sp, #40]
 661:D:/Work/DeviceTester/amazon-freertos/tests/common/mqtt\aws_test_mqtt_agent.c **** 
 1333              		.loc 1 661 0
 1334 0088 B612D9E1 		ldrh	r1, [r9, #38]
 1335 008c B012CDE1 		strh	r1, [sp, #32]	@ movhi
 663:D:/Work/DeviceTester/amazon-freertos/tests/common/mqtt\aws_test_mqtt_agent.c ****     xUnSubscribeParams.usTopicLength = xSubscribeParams.usTopicLength;
 1336              		.loc 1 663 0
 1337 0090 0C308DE5 		str	r3, [sp, #12]
 666:D:/Work/DeviceTester/amazon-freertos/tests/common/mqtt\aws_test_mqtt_agent.c **** 
 1338              		.loc 1 666 0
 1339 0094 103097E5 		ldr	r3, [r7, #16]
 664:D:/Work/DeviceTester/amazon-freertos/tests/common/mqtt\aws_test_mqtt_agent.c **** 
 1340              		.loc 1 664 0
 1341 0098 B011CDE1 		strh	r1, [sp, #16]	@ movhi
 1342 009c 00208DE5 		str	r2, [sp]
 666:D:/Work/DeviceTester/amazon-freertos/tests/common/mqtt\aws_test_mqtt_agent.c **** 
 1343              		.loc 1 666 0
 1344 00a0 14308DE5 		str	r3, [sp, #20]
 1345              	.LVL142:
 1346              	.L129:
 679:D:/Work/DeviceTester/amazon-freertos/tests/common/mqtt\aws_test_mqtt_agent.c ****         }
 1347              		.loc 1 679 0
 1348 00a4 1310A0E3 		mov	r1, #19
 1349 00a8 0000A0E3 		mov	r0, #0
 1350 00ac FEFFFFEB 		bl	vTaskPrioritySet
 1351              	.LVL143:
 683:D:/Work/DeviceTester/amazon-freertos/tests/common/mqtt\aws_test_mqtt_agent.c **** 
 1352              		.loc 1 683 0
 1353 00b0 0900A0E1 		mov	r0, r9
 1354 00b4 FEFFFFEB 		bl	MQTT_AGENT_Create
 1355              	.LVL144:
 685:D:/Work/DeviceTester/amazon-freertos/tests/common/mqtt\aws_test_mqtt_agent.c ****         {
 1356              		.loc 1 685 0
 1357 00b8 000050E3 		cmp	r0, #0
 1358 00bc 0400000A 		beq	.L116
 687:D:/Work/DeviceTester/amazon-freertos/tests/common/mqtt\aws_test_mqtt_agent.c ****             xStatus = pdFAIL;
 1359              		.loc 1 687 0
 1360 00c0 84119FE5 		ldr	r1, .L140+12
 1361 00c4 84019FE5 		ldr	r0, .L140+16
 1362              	.LVL145:
 1363 00c8 FEFFFFEB 		bl	vLoggingPrintf
 1364              	.LVL146:
 1365              	.L138:
 800:D:/Work/DeviceTester/amazon-freertos/tests/common/mqtt\aws_test_mqtt_agent.c ****     }
 1366              		.loc 1 800 0
 1367 00cc 0060A0E3 		mov	r6, #0
 1368 00d0 4F0000EA 		b	.L117
 1369              	.LVL147:
 1370              	.L116:
 695:D:/Work/DeviceTester/amazon-freertos/tests/common/mqtt\aws_test_mqtt_agent.c ****                                       &xConnectParametersMultiTaskTest,
 1371              		.loc 1 695 0
 1372 00d4 102702E3 		movw	r2, #10000
 1373 00d8 2C108DE2 		add	r1, sp, #44
 1374 00dc 000095E5 		ldr	r0, [r5]
 1375              	.LVL148:
 1376 00e0 FEFFFFEB 		bl	MQTT_AGENT_Connect
 1377              	.LVL149:
 699:D:/Work/DeviceTester/amazon-freertos/tests/common/mqtt\aws_test_mqtt_agent.c ****         {
 1378              		.loc 1 699 0
 1379 00e4 000050E3 		cmp	r0, #0
 1380 00e8 0800000A 		beq	.L118
 701:D:/Work/DeviceTester/amazon-freertos/tests/common/mqtt\aws_test_mqtt_agent.c ****             xStatus = pdFAIL;
 1381              		.loc 1 701 0
 1382 00ec 58119FE5 		ldr	r1, .L140+12
 1383 00f0 5C019FE5 		ldr	r0, .L140+20
 1384              	.LVL150:
 1385              	.L139:
 790:D:/Work/DeviceTester/amazon-freertos/tests/common/mqtt\aws_test_mqtt_agent.c ****             xStatus = pdFAIL;
 1386              		.loc 1 790 0
 1387 00f4 FEFFFFEB 		bl	vLoggingPrintf
 1388              	.LVL151:
 800:D:/Work/DeviceTester/amazon-freertos/tests/common/mqtt\aws_test_mqtt_agent.c ****     }
 1389              		.loc 1 800 0
 1390 00f8 3830A0E3 		mov	r3, #56
 1391 00fc 930A0AE0 		mul	r10, r3, r10
 1392              	.LVL152:
 1393 0100 00309DE5 		ldr	r3, [sp]
 1394 0104 0A0093E7 		ldr	r0, [r3, r10]
 1395 0108 FEFFFFEB 		bl	MQTT_AGENT_Delete
 1396              	.LVL153:
 1397 010c EEFFFFEA 		b	.L138
 1398              	.LVL154:
 1399              	.L118:
 707:D:/Work/DeviceTester/amazon-freertos/tests/common/mqtt\aws_test_mqtt_agent.c ****                                         &xSubscribeParams,
 1400              		.loc 1 707 0
 1401 0110 102702E3 		movw	r2, #10000
 1402 0114 1C108DE2 		add	r1, sp, #28
 1403 0118 000095E5 		ldr	r0, [r5]
 1404              	.LVL155:
 1405 011c FEFFFFEB 		bl	MQTT_AGENT_Subscribe
 1406              	.LVL156:
 711:D:/Work/DeviceTester/amazon-freertos/tests/common/mqtt\aws_test_mqtt_agent.c ****         {
 1407              		.loc 1 711 0
 1408 0120 000050E3 		cmp	r0, #0
 713:D:/Work/DeviceTester/amazon-freertos/tests/common/mqtt\aws_test_mqtt_agent.c ****             xStatus = pdFAIL;
 1409              		.loc 1 713 0
 1410 0124 20119F15 		ldrne	r1, .L140+12
 1411 0128 28019F15 		ldrne	r0, .L140+24
 1412              	.LVL157:
 1413 012c F0FFFF1A 		bne	.L139
 1414              	.LVL158:
 1415              	.L120:
 718:D:/Work/DeviceTester/amazon-freertos/tests/common/mqtt\aws_test_mqtt_agent.c ****                              ( 1 << usTaskTag ),
 1416              		.loc 1 718 0
 1417 0130 403C09E3 		movw	r3, #40000
 1418 0134 0820A0E1 		mov	r2, r8
 1419 0138 0410A0E1 		mov	r1, r4
 1420 013c 040095E5 		ldr	r0, [r5, #4]
 1421              	.LVL159:
 1422 0140 FEFFFFEB 		bl	xEventGroupSync
 1423              	.LVL160:
 1424 0144 000058E1 		cmp	r8, r0
 1425 0148 0200000A 		beq	.L121
 1426              	.L130:
 723:D:/Work/DeviceTester/amazon-freertos/tests/common/mqtt\aws_test_mqtt_agent.c ****             xStatus = pdFAIL;
 1427              		.loc 1 723 0
 1428 014c F8109FE5 		ldr	r1, .L140+12
 1429 0150 04019FE5 		ldr	r0, .L140+28
 1430 0154 E6FFFFEA 		b	.L139
 1431              	.L121:
 1432 0158 1430A0E3 		mov	r3, #20
 1433              	.L124:
 731:D:/Work/DeviceTester/amazon-freertos/tests/common/mqtt\aws_test_mqtt_agent.c ****             {
 1434              		.loc 1 731 0
 1435 015c 401C09E3 		movw	r1, #40000
 1436 0160 100097E5 		ldr	r0, [r7, #16]
 1437 0164 04308DE5 		str	r3, [sp, #4]
 1438              	.LVL161:
 1439 0168 FEFFFFEB 		bl	xQueueSemaphoreTake
 1440              	.LVL162:
 1441 016c 000050E3 		cmp	r0, #0
 1442 0170 04309DE5 		ldr	r3, [sp, #4]
 733:D:/Work/DeviceTester/amazon-freertos/tests/common/mqtt\aws_test_mqtt_agent.c ****                 xStatus = pdFAIL;
 1443              		.loc 1 733 0
 1444 0174 D0109F05 		ldreq	r1, .L140+12
 1445 0178 E0009F05 		ldreq	r0, .L140+32
 1446 017c DCFFFF0A 		beq	.L139
 1447              	.L122:
 739:D:/Work/DeviceTester/amazon-freertos/tests/common/mqtt\aws_test_mqtt_agent.c ****                 {
 1448              		.loc 1 739 0
 1449 0180 18609DE5 		ldr	r6, [sp, #24]
 1450 0184 010056E3 		cmp	r6, #1
 741:D:/Work/DeviceTester/amazon-freertos/tests/common/mqtt\aws_test_mqtt_agent.c ****                     xStatus = pdFAIL;
 1451              		.loc 1 741 0
 1452 0188 BC109F15 		ldrne	r1, .L140+12
 1453 018c D0009F15 		ldrne	r0, .L140+36
 1454 0190 D7FFFF1A 		bne	.L139
 1455              	.L123:
 1456              	.LVL163:
 729:D:/Work/DeviceTester/amazon-freertos/tests/common/mqtt\aws_test_mqtt_agent.c ****         {
 1457              		.loc 1 729 0 discriminator 2
 1458 0194 013053E2 		subs	r3, r3, #1
 1459              	.LVL164:
 1460 0198 EFFFFF1A 		bne	.L124
 754:D:/Work/DeviceTester/amazon-freertos/tests/common/mqtt\aws_test_mqtt_agent.c ****                              ( 1 << usTaskTag ),
 1461              		.loc 1 754 0
 1462 019c 403C09E3 		movw	r3, #40000
 1463 01a0 0820A0E1 		mov	r2, r8
 1464 01a4 0410A0E1 		mov	r1, r4
 1465 01a8 040095E5 		ldr	r0, [r5, #4]
 1466 01ac FEFFFFEB 		bl	xEventGroupSync
 1467              	.LVL165:
 1468 01b0 000058E1 		cmp	r8, r0
 1469 01b4 E4FFFF1A 		bne	.L130
 765:D:/Work/DeviceTester/amazon-freertos/tests/common/mqtt\aws_test_mqtt_agent.c ****                                           &xUnSubscribeParams,
 1470              		.loc 1 765 0
 1471 01b8 102702E3 		movw	r2, #10000
 1472 01bc 0C108DE2 		add	r1, sp, #12
 1473 01c0 000095E5 		ldr	r0, [r5]
 1474 01c4 FEFFFFEB 		bl	MQTT_AGENT_Unsubscribe
 1475              	.LVL166:
 769:D:/Work/DeviceTester/amazon-freertos/tests/common/mqtt\aws_test_mqtt_agent.c ****         {
 1476              		.loc 1 769 0
 1477 01c8 000050E3 		cmp	r0, #0
 771:D:/Work/DeviceTester/amazon-freertos/tests/common/mqtt\aws_test_mqtt_agent.c ****             xStatus = pdFAIL;
 1478              		.loc 1 771 0
 1479 01cc 78109F15 		ldrne	r1, .L140+12
 1480 01d0 90009F15 		ldrne	r0, .L140+40
 1481              	.LVL167:
 1482 01d4 C6FFFF1A 		bne	.L139
 1483              	.LVL168:
 1484              	.L126:
 777:D:/Work/DeviceTester/amazon-freertos/tests/common/mqtt\aws_test_mqtt_agent.c **** 
 1485              		.loc 1 777 0
 1486 01d8 101702E3 		movw	r1, #10000
 1487 01dc 000095E5 		ldr	r0, [r5]
 1488              	.LVL169:
 1489 01e0 FEFFFFEB 		bl	MQTT_AGENT_Disconnect
 1490              	.LVL170:
 779:D:/Work/DeviceTester/amazon-freertos/tests/common/mqtt\aws_test_mqtt_agent.c ****         {
 1491              		.loc 1 779 0
 1492 01e4 000050E3 		cmp	r0, #0
 781:D:/Work/DeviceTester/amazon-freertos/tests/common/mqtt\aws_test_mqtt_agent.c ****             xStatus = pdFAIL;
 1493              		.loc 1 781 0
 1494 01e8 5C109F15 		ldrne	r1, .L140+12
 1495 01ec 78009F15 		ldrne	r0, .L140+44
 1496              	.LVL171:
 1497 01f0 BFFFFF1A 		bne	.L139
 1498              	.LVL172:
 1499              	.L127:
 786:D:/Work/DeviceTester/amazon-freertos/tests/common/mqtt\aws_test_mqtt_agent.c **** 
 1500              		.loc 1 786 0
 1501 01f4 000095E5 		ldr	r0, [r5]
 1502              	.LVL173:
 1503 01f8 FEFFFFEB 		bl	MQTT_AGENT_Delete
 1504              	.LVL174:
 788:D:/Work/DeviceTester/amazon-freertos/tests/common/mqtt\aws_test_mqtt_agent.c ****         {
 1505              		.loc 1 788 0
 1506 01fc 000050E3 		cmp	r0, #0
 790:D:/Work/DeviceTester/amazon-freertos/tests/common/mqtt\aws_test_mqtt_agent.c ****             xStatus = pdFAIL;
 1507              		.loc 1 790 0
 1508 0200 44109F15 		ldrne	r1, .L140+12
 1509 0204 64009F15 		ldrne	r0, .L140+48
 1510              	.LVL175:
 1511 0208 B9FFFF1A 		bne	.L139
 1512              	.LVL176:
 1513              	.L128:
 671:D:/Work/DeviceTester/amazon-freertos/tests/common/mqtt\aws_test_mqtt_agent.c ****     {
 1514              		.loc 1 671 0 discriminator 2
 1515 020c 01B05BE2 		subs	fp, fp, #1
 1516              	.LVL177:
 1517 0210 A3FFFF1A 		bne	.L129
 1518              	.LVL178:
 1519              	.L117:
 804:D:/Work/DeviceTester/amazon-freertos/tests/common/mqtt\aws_test_mqtt_agent.c ****                      ( 1 << usTaskTag ),
 1520              		.loc 1 804 0
 1521 0214 58009FE5 		ldr	r0, .L140+52
 1522 0218 0F20A0E3 		mov	r2, #15
 1523 021c 54309FE5 		ldr	r3, .L140+56
 1524 0220 0410A0E1 		mov	r1, r4
 803:D:/Work/DeviceTester/amazon-freertos/tests/common/mqtt\aws_test_mqtt_agent.c ****     xEventGroupSync( xSyncEventGroup, /* The event group used for the rendezvous. */
 1525              		.loc 1 803 0
 1526 0224 046087E5 		str	r6, [r7, #4]
 804:D:/Work/DeviceTester/amazon-freertos/tests/common/mqtt\aws_test_mqtt_agent.c ****                      ( 1 << usTaskTag ),
 1527              		.loc 1 804 0
 1528 0228 000090E5 		ldr	r0, [r0]
 1529 022c FEFFFFEB 		bl	xEventGroupSync
 1530              	.LVL179:
 808:D:/Work/DeviceTester/amazon-freertos/tests/common/mqtt\aws_test_mqtt_agent.c **** }
 1531              		.loc 1 808 0
 1532 0230 0000A0E3 		mov	r0, #0
 1533 0234 FEFFFFEB 		bl	vTaskSuspend
 1534              	.LVL180:
 809:D:/Work/DeviceTester/amazon-freertos/tests/common/mqtt\aws_test_mqtt_agent.c **** 
 1535              		.loc 1 809 0
 1536 0238 5CD08DE2 		add	sp, sp, #92
 1537              		.cfi_def_cfa_offset 36
 1538              		@ sp needed
 1539 023c F08FBDE8 		pop	{r4, r5, r6, r7, r8, r9, r10, fp, pc}
 1540              	.LVL181:
 1541              	.L141:
 1542              		.align	2
 1543              	.L140:
 1544 0240 00000000 		.word	.LANCHOR0
 1545 0244 00000000 		.word	.LANCHOR3
 1546 0248 00000000 		.word	prvMultiTaskTestMQTTCallback
 1547 024c 00000000 		.word	.LANCHOR5
 1548 0250 00000000 		.word	.LC17
 1549 0254 24000000 		.word	.LC18
 1550 0258 49000000 		.word	.LC19
 1551 025c 6D000000 		.word	.LC20
 1552 0260 99000000 		.word	.LC21
 1553 0264 CE000000 		.word	.LC22
 1554 0268 F4000000 		.word	.LC23
 1555 026c 11010000 		.word	.LC24
 1556 0270 2D010000 		.word	.LC25
 1557 0274 00000000 		.word	.LANCHOR2
 1558 0278 801A0600 		.word	400000
 1559              		.cfi_endproc
 1560              	.LFE21:
 1562              		.section	.text.TEST_Full_MQTT_Agent_Stress_Tests_TEAR_DOWN,"ax",%progbits
 1563              		.align	2
 1564              		.global	TEST_Full_MQTT_Agent_Stress_Tests_TEAR_DOWN
 1565              		.syntax unified
 1566              		.arm
 1567              		.fpu neon
 1569              	TEST_Full_MQTT_Agent_Stress_Tests_TEAR_DOWN:
 1570              	.LFB24:
 1571              		.cfi_startproc
 1572              		@ args = 0, pretend = 0, frame = 0
 1573              		@ frame_needed = 0, uses_anonymous_args = 0
 1574              		@ link register save eliminated.
 1575 0000 1EFF2FE1 		bx	lr
 1576              		.cfi_endproc
 1577              	.LFE24:
 1579              		.section	.text.TEST_Full_MQTT_Agent_SETUP,"ax",%progbits
 1580              		.align	2
 1581              		.global	TEST_Full_MQTT_Agent_SETUP
 1582              		.syntax unified
 1583              		.arm
 1584              		.fpu neon
 1586              	TEST_Full_MQTT_Agent_SETUP:
 1587              	.LFB32:
 1588              		.cfi_startproc
 1589              		@ args = 0, pretend = 0, frame = 0
 1590              		@ frame_needed = 0, uses_anonymous_args = 0
 1591              		@ link register save eliminated.
 1592 0000 1EFF2FE1 		bx	lr
 1593              		.cfi_endproc
 1594              	.LFE32:
 1596              		.section	.text.TEST_Full_MQTT_Agent_Stress_Tests_SETUP,"ax",%progbits
 1597              		.align	2
 1598              		.global	TEST_Full_MQTT_Agent_Stress_Tests_SETUP
 1599              		.syntax unified
 1600              		.arm
 1601              		.fpu neon
 1603              	TEST_Full_MQTT_Agent_Stress_Tests_SETUP:
 1604              	.LFB30:
 1605              		.cfi_startproc
 1606              		@ args = 0, pretend = 0, frame = 0
 1607              		@ frame_needed = 0, uses_anonymous_args = 0
 1608              		@ link register save eliminated.
 1609 0000 1EFF2FE1 		bx	lr
 1610              		.cfi_endproc
 1611              	.LFE30:
 1613              		.section	.text.TEST_Full_MQTT_Agent_ALPN_SETUP,"ax",%progbits
 1614              		.align	2
 1615              		.global	TEST_Full_MQTT_Agent_ALPN_SETUP
 1616              		.syntax unified
 1617              		.arm
 1618              		.fpu neon
 1620              	TEST_Full_MQTT_Agent_ALPN_SETUP:
 1621              	.LFB28:
 1622              		.cfi_startproc
 1623              		@ args = 0, pretend = 0, frame = 0
 1624              		@ frame_needed = 0, uses_anonymous_args = 0
 1625              		@ link register save eliminated.
 1626 0000 1EFF2FE1 		bx	lr
 1627              		.cfi_endproc
 1628              	.LFE28:
 1630              		.section	.text.TEST_Full_MQTT_Agent_TEAR_DOWN,"ax",%progbits
 1631              		.align	2
 1632              		.global	TEST_Full_MQTT_Agent_TEAR_DOWN
 1633              		.syntax unified
 1634              		.arm
 1635              		.fpu neon
 1637              	TEST_Full_MQTT_Agent_TEAR_DOWN:
 1638              	.LFB26:
 1639              		.cfi_startproc
 1640              		@ args = 0, pretend = 0, frame = 0
 1641              		@ frame_needed = 0, uses_anonymous_args = 0
 1642              		@ link register save eliminated.
 1643 0000 1EFF2FE1 		bx	lr
 1644              		.cfi_endproc
 1645              	.LFE26:
 1647              		.section	.text.TEST_Full_MQTT_Agent_AFQP_MQTT_Agent_SubscribePublishDefaultPort_run,"ax",%progbits
 1648              		.align	2
 1649              		.global	TEST_Full_MQTT_Agent_AFQP_MQTT_Agent_SubscribePublishDefaultPort_run
 1650              		.syntax unified
 1651              		.arm
 1652              		.fpu neon
 1654              	TEST_Full_MQTT_Agent_AFQP_MQTT_Agent_SubscribePublishDefaultPort_run:
 1655              	.LFB13:
 382:D:/Work/DeviceTester/amazon-freertos/tests/common/mqtt\aws_test_mqtt_agent.c **** {
 1656              		.loc 1 382 0
 1657              		.cfi_startproc
 1658              		@ args = 0, pretend = 0, frame = 0
 1659              		@ frame_needed = 0, uses_anonymous_args = 0
 382:D:/Work/DeviceTester/amazon-freertos/tests/common/mqtt\aws_test_mqtt_agent.c **** {
 1660              		.loc 1 382 0
 1661 0000 1F402DE9 		push	{r0, r1, r2, r3, r4, lr}
 1662              		.cfi_def_cfa_offset 24
 1663              		.cfi_offset 14, -4
 382:D:/Work/DeviceTester/amazon-freertos/tests/common/mqtt\aws_test_mqtt_agent.c **** {
 1664              		.loc 1 382 0
 1665 0004 7E3100E3 		movw	r3, #382
 1666 0008 0C308DE5 		str	r3, [sp, #12]
 1667 000c 2C309FE5 		ldr	r3, .L149
 1668 0010 2C209FE5 		ldr	r2, .L149+4
 1669 0014 2C109FE5 		ldr	r1, .L149+8
 1670 0018 08308DE5 		str	r3, [sp, #8]
 1671 001c 28309FE5 		ldr	r3, .L149+12
 1672 0020 28009FE5 		ldr	r0, .L149+16
 1673 0024 04308DE5 		str	r3, [sp, #4]
 1674 0028 24309FE5 		ldr	r3, .L149+20
 1675 002c 00308DE5 		str	r3, [sp]
 1676 0030 20309FE5 		ldr	r3, .L149+24
 1677 0034 FEFFFFEB 		bl	UnityTestRunner
 1678              	.LVL182:
 1679 0038 14D08DE2 		add	sp, sp, #20
 1680              		.cfi_def_cfa_offset 4
 1681              		@ sp needed
 1682 003c 04F09DE4 		ldr	pc, [sp], #4
 1683              	.L150:
 1684              		.align	2
 1685              	.L149:
 1686 0040 43000000 		.word	.LC27
 1687 0044 00000000 		.word	TEST_Full_MQTT_Agent_TEAR_DOWN
 1688 0048 00000000 		.word	TEST_Full_MQTT_Agent_AFQP_MQTT_Agent_SubscribePublishDefaultPort_
 1689 004c 90000000 		.word	.LC28
 1690 0050 00000000 		.word	TEST_Full_MQTT_Agent_SETUP
 1691 0054 BC000000 		.word	.LC29
 1692 0058 00000000 		.word	.LC26
 1693              		.cfi_endproc
 1694              	.LFE13:
 1696              		.section	.text.TEST_Full_MQTT_Agent_AFQP_MQTT_Agent_InvalidCredentials_run,"ax",%progbits
 1697              		.align	2
 1698              		.global	TEST_Full_MQTT_Agent_AFQP_MQTT_Agent_InvalidCredentials_run
 1699              		.syntax unified
 1700              		.arm
 1701              		.fpu neon
 1703              	TEST_Full_MQTT_Agent_AFQP_MQTT_Agent_InvalidCredentials_run:
 1704              	.LFB15:
 388:D:/Work/DeviceTester/amazon-freertos/tests/common/mqtt\aws_test_mqtt_agent.c **** {
 1705              		.loc 1 388 0
 1706              		.cfi_startproc
 1707              		@ args = 0, pretend = 0, frame = 0
 1708              		@ frame_needed = 0, uses_anonymous_args = 0
 1709 0000 1F402DE9 		push	{r0, r1, r2, r3, r4, lr}
 1710              		.cfi_def_cfa_offset 24
 1711              		.cfi_offset 14, -4
 388:D:/Work/DeviceTester/amazon-freertos/tests/common/mqtt\aws_test_mqtt_agent.c **** {
 1712              		.loc 1 388 0
 1713 0004 613FA0E3 		mov	r3, #388
 1714 0008 0C308DE5 		str	r3, [sp, #12]
 1715 000c 2C309FE5 		ldr	r3, .L153
 1716 0010 2C209FE5 		ldr	r2, .L153+4
 1717 0014 2C109FE5 		ldr	r1, .L153+8
 1718 0018 08308DE5 		str	r3, [sp, #8]
 1719 001c 28309FE5 		ldr	r3, .L153+12
 1720 0020 28009FE5 		ldr	r0, .L153+16
 1721 0024 04308DE5 		str	r3, [sp, #4]
 1722 0028 24309FE5 		ldr	r3, .L153+20
 1723 002c 00308DE5 		str	r3, [sp]
 1724 0030 20309FE5 		ldr	r3, .L153+24
 1725 0034 FEFFFFEB 		bl	UnityTestRunner
 1726              	.LVL183:
 1727 0038 14D08DE2 		add	sp, sp, #20
 1728              		.cfi_def_cfa_offset 4
 1729              		@ sp needed
 1730 003c 04F09DE4 		ldr	pc, [sp], #4
 1731              	.L154:
 1732              		.align	2
 1733              	.L153:
 1734 0040 43000000 		.word	.LC27
 1735 0044 00000000 		.word	TEST_Full_MQTT_Agent_TEAR_DOWN
 1736 0048 00000000 		.word	TEST_Full_MQTT_Agent_AFQP_MQTT_Agent_InvalidCredentials_
 1737 004c 3A000000 		.word	.LC31
 1738 0050 00000000 		.word	TEST_Full_MQTT_Agent_SETUP
 1739 0054 BC000000 		.word	.LC29
 1740 0058 00000000 		.word	.LC30
 1741              		.cfi_endproc
 1742              	.LFE15:
 1744              		.section	.text.TEST_Full_MQTT_Agent_GROUP_RUNNER,"ax",%progbits
 1745              		.align	2
 1746              		.global	TEST_Full_MQTT_Agent_GROUP_RUNNER
 1747              		.syntax unified
 1748              		.arm
 1749              		.fpu neon
 1751              	TEST_Full_MQTT_Agent_GROUP_RUNNER:
 1752              	.LFB10:
 367:D:/Work/DeviceTester/amazon-freertos/tests/common/mqtt\aws_test_mqtt_agent.c ****     RUN_TEST_CASE( Full_MQTT_Agent, AFQP_MQTT_Agent_SubscribePublishDefaultPort );
 1753              		.loc 1 367 0
 1754              		.cfi_startproc
 1755              		@ args = 0, pretend = 0, frame = 0
 1756              		@ frame_needed = 0, uses_anonymous_args = 0
 1757 0000 10402DE9 		push	{r4, lr}
 1758              		.cfi_def_cfa_offset 8
 1759              		.cfi_offset 4, -8
 1760              		.cfi_offset 14, -4
 1761              	.LBB2:
 368:D:/Work/DeviceTester/amazon-freertos/tests/common/mqtt\aws_test_mqtt_agent.c ****     RUN_TEST_CASE( Full_MQTT_Agent, AFQP_MQTT_Agent_InvalidCredentials );
 1762              		.loc 1 368 0
 1763 0004 FEFFFFEB 		bl	TEST_Full_MQTT_Agent_AFQP_MQTT_Agent_SubscribePublishDefaultPort_run
 1764              	.LVL184:
 1765              	.LBE2:
 370:D:/Work/DeviceTester/amazon-freertos/tests/common/mqtt\aws_test_mqtt_agent.c **** TEST_GROUP_RUNNER( Full_MQTT_Agent_Stress_Tests )
 1766              		.loc 1 370 0
 1767 0008 1040BDE8 		pop	{r4, lr}
 1768              		.cfi_restore 14
 1769              		.cfi_restore 4
 1770              		.cfi_def_cfa_offset 0
 1771              	.LBB3:
 369:D:/Work/DeviceTester/amazon-freertos/tests/common/mqtt\aws_test_mqtt_agent.c **** }
 1772              		.loc 1 369 0
 1773 000c FEFFFFEA 		b	TEST_Full_MQTT_Agent_AFQP_MQTT_Agent_InvalidCredentials_run
 1774              	.LVL185:
 1775              	.LBE3:
 1776              		.cfi_endproc
 1777              	.LFE10:
 1779              		.section	.text.TEST_Full_MQTT_Agent_ALPN_MQTT_Agent_SubscribePublishAlpn_run,"ax",%progbits
 1780              		.align	2
 1781              		.global	TEST_Full_MQTT_Agent_ALPN_MQTT_Agent_SubscribePublishAlpn_run
 1782              		.syntax unified
 1783              		.arm
 1784              		.fpu neon
 1786              	TEST_Full_MQTT_Agent_ALPN_MQTT_Agent_SubscribePublishAlpn_run:
 1787              	.LFB17:
 446:D:/Work/DeviceTester/amazon-freertos/tests/common/mqtt\aws_test_mqtt_agent.c **** {
 1788              		.loc 1 446 0
 1789              		.cfi_startproc
 1790              		@ args = 0, pretend = 0, frame = 0
 1791              		@ frame_needed = 0, uses_anonymous_args = 0
 1792 0000 1F402DE9 		push	{r0, r1, r2, r3, r4, lr}
 1793              		.cfi_def_cfa_offset 24
 1794              		.cfi_offset 14, -4
 446:D:/Work/DeviceTester/amazon-freertos/tests/common/mqtt\aws_test_mqtt_agent.c **** {
 1795              		.loc 1 446 0
 1796 0004 BE3100E3 		movw	r3, #446
 1797 0008 0C308DE5 		str	r3, [sp, #12]
 1798 000c 2C309FE5 		ldr	r3, .L159
 1799 0010 2C209FE5 		ldr	r2, .L159+4
 1800 0014 2C109FE5 		ldr	r1, .L159+8
 1801 0018 08308DE5 		str	r3, [sp, #8]
 1802 001c 28309FE5 		ldr	r3, .L159+12
 1803 0020 28009FE5 		ldr	r0, .L159+16
 1804 0024 04308DE5 		str	r3, [sp, #4]
 1805 0028 24309FE5 		ldr	r3, .L159+20
 1806 002c 00308DE5 		str	r3, [sp]
 1807 0030 20309FE5 		ldr	r3, .L159+24
 1808 0034 FEFFFFEB 		bl	UnityTestRunner
 1809              	.LVL186:
 1810 0038 14D08DE2 		add	sp, sp, #20
 1811              		.cfi_def_cfa_offset 4
 1812              		@ sp needed
 1813 003c 04F09DE4 		ldr	pc, [sp], #4
 1814              	.L160:
 1815              		.align	2
 1816              	.L159:
 1817 0040 43000000 		.word	.LC27
 1818 0044 00000000 		.word	TEST_Full_MQTT_Agent_ALPN_TEAR_DOWN
 1819 0048 00000000 		.word	TEST_Full_MQTT_Agent_ALPN_MQTT_Agent_SubscribePublishAlpn_
 1820 004c 3C000000 		.word	.LC33
 1821 0050 00000000 		.word	TEST_Full_MQTT_Agent_ALPN_SETUP
 1822 0054 5C000000 		.word	.LC34
 1823 0058 00000000 		.word	.LC32
 1824              		.cfi_endproc
 1825              	.LFE17:
 1827              		.section	.text.TEST_Full_MQTT_Agent_ALPN_GROUP_RUNNER,"ax",%progbits
 1828              		.align	2
 1829              		.global	TEST_Full_MQTT_Agent_ALPN_GROUP_RUNNER
 1830              		.syntax unified
 1831              		.arm
 1832              		.fpu neon
 1834              	TEST_Full_MQTT_Agent_ALPN_GROUP_RUNNER:
 1835              	.LFB12:
 376:D:/Work/DeviceTester/amazon-freertos/tests/common/mqtt\aws_test_mqtt_agent.c ****     RUN_TEST_CASE( Full_MQTT_Agent_ALPN, MQTT_Agent_SubscribePublishAlpn );
 1836              		.loc 1 376 0
 1837              		.cfi_startproc
 1838              		@ args = 0, pretend = 0, frame = 0
 1839              		@ frame_needed = 0, uses_anonymous_args = 0
 1840              		@ link register save eliminated.
 1841              	.LBB4:
 377:D:/Work/DeviceTester/amazon-freertos/tests/common/mqtt\aws_test_mqtt_agent.c **** }
 1842              		.loc 1 377 0
 1843 0000 FEFFFFEA 		b	TEST_Full_MQTT_Agent_ALPN_MQTT_Agent_SubscribePublishAlpn_run
 1844              	.LVL187:
 1845              	.LBE4:
 1846              		.cfi_endproc
 1847              	.LFE12:
 1849              		.section	.text.TEST_Full_MQTT_Agent_Stress_Tests_MQTT_Agent_MultiTaskTest_run,"ax",%progbits
 1850              		.align	2
 1851              		.global	TEST_Full_MQTT_Agent_Stress_Tests_MQTT_Agent_MultiTaskTest_run
 1852              		.syntax unified
 1853              		.arm
 1854              		.fpu neon
 1856              	TEST_Full_MQTT_Agent_Stress_Tests_MQTT_Agent_MultiTaskTest_run:
 1857              	.LFB19:
 469:D:/Work/DeviceTester/amazon-freertos/tests/common/mqtt\aws_test_mqtt_agent.c **** {
 1858              		.loc 1 469 0
 1859              		.cfi_startproc
 1860              		@ args = 0, pretend = 0, frame = 0
 1861              		@ frame_needed = 0, uses_anonymous_args = 0
 1862 0000 1F402DE9 		push	{r0, r1, r2, r3, r4, lr}
 1863              		.cfi_def_cfa_offset 24
 1864              		.cfi_offset 14, -4
 469:D:/Work/DeviceTester/amazon-freertos/tests/common/mqtt\aws_test_mqtt_agent.c **** {
 1865              		.loc 1 469 0
 1866 0004 D53100E3 		movw	r3, #469
 1867 0008 0C308DE5 		str	r3, [sp, #12]
 1868 000c 2C309FE5 		ldr	r3, .L164
 1869 0010 2C209FE5 		ldr	r2, .L164+4
 1870 0014 2C109FE5 		ldr	r1, .L164+8
 1871 0018 08308DE5 		str	r3, [sp, #8]
 1872 001c 28309FE5 		ldr	r3, .L164+12
 1873 0020 28009FE5 		ldr	r0, .L164+16
 1874 0024 04308DE5 		str	r3, [sp, #4]
 1875 0028 24309FE5 		ldr	r3, .L164+20
 1876 002c 00308DE5 		str	r3, [sp]
 1877 0030 20309FE5 		ldr	r3, .L164+24
 1878 0034 FEFFFFEB 		bl	UnityTestRunner
 1879              	.LVL188:
 1880 0038 14D08DE2 		add	sp, sp, #20
 1881              		.cfi_def_cfa_offset 4
 1882              		@ sp needed
 1883 003c 04F09DE4 		ldr	pc, [sp], #4
 1884              	.L165:
 1885              		.align	2
 1886              	.L164:
 1887 0040 43000000 		.word	.LC27
 1888 0044 00000000 		.word	TEST_Full_MQTT_Agent_Stress_Tests_TEAR_DOWN
 1889 0048 00000000 		.word	TEST_Full_MQTT_Agent_Stress_Tests_MQTT_Agent_MultiTaskTest_
 1890 004c 3D000000 		.word	.LC36
 1891 0050 00000000 		.word	TEST_Full_MQTT_Agent_Stress_Tests_SETUP
 1892 0054 56000000 		.word	.LC37
 1893 0058 00000000 		.word	.LC35
 1894              		.cfi_endproc
 1895              	.LFE19:
 1897              		.section	.text.TEST_Full_MQTT_Agent_Stress_Tests_GROUP_RUNNER,"ax",%progbits
 1898              		.align	2
 1899              		.global	TEST_Full_MQTT_Agent_Stress_Tests_GROUP_RUNNER
 1900              		.syntax unified
 1901              		.arm
 1902              		.fpu neon
 1904              	TEST_Full_MQTT_Agent_Stress_Tests_GROUP_RUNNER:
 1905              	.LFB11:
 372:D:/Work/DeviceTester/amazon-freertos/tests/common/mqtt\aws_test_mqtt_agent.c ****     RUN_TEST_CASE( Full_MQTT_Agent_Stress_Tests, MQTT_Agent_MultiTaskTest );
 1906              		.loc 1 372 0
 1907              		.cfi_startproc
 1908              		@ args = 0, pretend = 0, frame = 0
 1909              		@ frame_needed = 0, uses_anonymous_args = 0
 1910              		@ link register save eliminated.
 1911              	.LBB5:
 373:D:/Work/DeviceTester/amazon-freertos/tests/common/mqtt\aws_test_mqtt_agent.c **** }
 1912              		.loc 1 373 0
 1913 0000 FEFFFFEA 		b	TEST_Full_MQTT_Agent_Stress_Tests_MQTT_Agent_MultiTaskTest_run
 1914              	.LVL189:
 1915              	.LBE5:
 1916              		.cfi_endproc
 1917              	.LFE11:
 1919              		.section	.bss.MQTTtestAgentMultiTestRxParam,"aw",%nobits
 1920              		.align	2
 1921              		.set	.LANCHOR3,. + 0
 1924              	MQTTtestAgentMultiTestRxParam:
 1925 0000 00000000 		.space	112
 1925      00000000 
 1925      00000000 
 1925      00000000 
 1925      00000000 
 1926              		.section	.bss.xSyncEventGroup,"aw",%nobits
 1927              		.align	2
 1928              		.set	.LANCHOR2,. + 0
 1931              	xSyncEventGroup:
 1932 0000 00000000 		.space	4
 1933              		.section	.rodata.TEST_Full_MQTT_Agent_AFQP_MQTT_Agent_InvalidCredentials_.str1.1,"aMS",%progbits,1
 1934              	.LC4:
 1935 0000 61626364 		.ascii	"abcd\000"
 1935      00
 1936              	.LC5:
 1937 0005 20457870 		.ascii	" Expected Not-Equal\000"
 1937      65637465 
 1937      64204E6F 
 1937      742D4571 
 1937      75616C00 
 1938              	.LC6:
 1939 0019 25733A20 		.ascii	"%s: Could not disconnect client.\015\012\000"
 1939      436F756C 
 1939      64206E6F 
 1939      74206469 
 1939      73636F6E 
 1940              		.section	.rodata.TEST_Full_MQTT_Agent_AFQP_MQTT_Agent_InvalidCredentials_run.str1.1,"aMS",%progbit
 1941              	.LC30:
 1942 0000 54455354 		.ascii	"TEST(Full_MQTT_Agent, AFQP_MQTT_Agent_InvalidCreden"
 1942      2846756C 
 1942      6C5F4D51 
 1942      54545F41 
 1942      67656E74 
 1943 0033 7469616C 		.ascii	"tials)\000"
 1943      732900
 1944              	.LC31:
 1945 003a 41465150 		.ascii	"AFQP_MQTT_Agent_InvalidCredentials\000"
 1945      5F4D5154 
 1945      545F4167 
 1945      656E745F 
 1945      496E7661 
 1946              		.section	.rodata.TEST_Full_MQTT_Agent_AFQP_MQTT_Agent_SubscribePublishDefaultPort_run.str1.1,"aMS"
 1947              	.LC26:
 1948 0000 54455354 		.ascii	"TEST(Full_MQTT_Agent, AFQP_MQTT_Agent_SubscribePubl"
 1948      2846756C 
 1948      6C5F4D51 
 1948      54545F41 
 1948      67656E74 
 1949 0033 69736844 		.ascii	"ishDefaultPort)\000"
 1949      65666175 
 1949      6C74506F 
 1949      72742900 
 1950              	.LC27:
 1951 0043 443A2F57 		.ascii	"D:/Work/DeviceTester/amazon-freertos/tests/common/m"
 1951      6F726B2F 
 1951      44657669 
 1951      63655465 
 1951      73746572 
 1952 0076 7174742F 		.ascii	"qtt/aws_test_mqtt_agent.c\000"
 1952      6177735F 
 1952      74657374 
 1952      5F6D7174 
 1952      745F6167 
 1953              	.LC28:
 1954 0090 41465150 		.ascii	"AFQP_MQTT_Agent_SubscribePublishDefaultPort\000"
 1954      5F4D5154 
 1954      545F4167 
 1954      656E745F 
 1954      53756273 
 1955              	.LC29:
 1956 00bc 46756C6C 		.ascii	"Full_MQTT_Agent\000"
 1956      5F4D5154 
 1956      545F4167 
 1956      656E7400 
 1957              		.section	.rodata.TEST_Full_MQTT_Agent_ALPN_MQTT_Agent_SubscribePublishAlpn_run.str1.1,"aMS",%progb
 1958              	.LC32:
 1959 0000 54455354 		.ascii	"TEST(Full_MQTT_Agent_ALPN, MQTT_Agent_SubscribePubl"
 1959      2846756C 
 1959      6C5F4D51 
 1959      54545F41 
 1959      67656E74 
 1960 0033 69736841 		.ascii	"ishAlpn)\000"
 1960      6C706E29 
 1960      00
 1961              	.LC33:
 1962 003c 4D515454 		.ascii	"MQTT_Agent_SubscribePublishAlpn\000"
 1962      5F416765 
 1962      6E745F53 
 1962      75627363 
 1962      72696265 
 1963              	.LC34:
 1964 005c 46756C6C 		.ascii	"Full_MQTT_Agent_ALPN\000"
 1964      5F4D5154 
 1964      545F4167 
 1964      656E745F 
 1964      414C504E 
 1965              		.section	.rodata.TEST_Full_MQTT_Agent_Stress_Tests_MQTT_Agent_MultiTaskTest_.str1.1,"aMS",%progbit
 1966              	.LC7:
 1967 0000 436F756C 		.ascii	"Couldn't create Sync event.\000"
 1967      646E2774 
 1967      20637265 
 1967      61746520 
 1967      53796E63 
 1968              	.LC8:
 1969 001c 436F756C 		.ascii	"Couldn't allocate data.\000"
 1969      646E2774 
 1969      20616C6C 
 1969      6F636174 
 1969      65206461 
 1970              	.LC9:
 1971 0034 66726565 		.ascii	"freertos/tests/multiTask/%d\000"
 1971      72746F73 
 1971      2F746573 
 1971      74732F6D 
 1971      756C7469 
 1972              	.LC10:
 1973 0050 436C6965 		.ascii	"ClientId%d\000"
 1973      6E744964 
 1973      256400
 1974              	.LC11:
 1975 005b 436C6965 		.ascii	"ClientTask\000"
 1975      6E745461 
 1975      736B00
 1976              	.LC12:
 1977 0066 5461736B 		.ascii	"Task creation failed\000"
 1977      20637265 
 1977      6174696F 
 1977      6E206661 
 1977      696C6564 
 1978              	.LC13:
 1979 007b 54696D65 		.ascii	"Timeout waiting for tasks\000"
 1979      6F757420 
 1979      77616974 
 1979      696E6720 
 1979      666F7220 
 1980              	.LC14:
 1981 0095 4E6F7420 		.ascii	"Not all tasks completed successfully.\000"
 1981      616C6C20 
 1981      7461736B 
 1981      7320636F 
 1981      6D706C65 
 1982              		.section	.rodata.TEST_Full_MQTT_Agent_Stress_Tests_MQTT_Agent_MultiTaskTest_run.str1.1,"aMS",%prog
 1983              	.LC35:
 1984 0000 54455354 		.ascii	"TEST(Full_MQTT_Agent_Stress_Tests, MQTT_Agent_Multi"
 1984      2846756C 
 1984      6C5F4D51 
 1984      54545F41 
 1984      67656E74 
 1985 0033 5461736B 		.ascii	"TaskTest)\000"
 1985      54657374 
 1985      2900
 1986              	.LC36:
 1987 003d 4D515454 		.ascii	"MQTT_Agent_MultiTaskTest\000"
 1987      5F416765 
 1987      6E745F4D 
 1987      756C7469 
 1987      5461736B 
 1988              	.LC37:
 1989 0056 46756C6C 		.ascii	"Full_MQTT_Agent_Stress_Tests\000"
 1989      5F4D5154 
 1989      545F4167 
 1989      656E745F 
 1989      53747265 
 1990              		.section	.rodata.__FUNCTION__.8718,"a",%progbits
 1991              		.set	.LANCHOR1,. + 0
 1994              	__FUNCTION__.8718:
 1995 0000 54455354 		.ascii	"TEST_Full_MQTT_Agent_AFQP_MQTT_Agent_InvalidCredent"
 1995      5F46756C 
 1995      6C5F4D51 
 1995      54545F41 
 1995      67656E74 
 1996 0033 69616C73 		.ascii	"ials_\000"
 1996      5F00
 1997              		.section	.rodata.__FUNCTION__.8784,"a",%progbits
 1998              		.set	.LANCHOR5,. + 0
 2001              	__FUNCTION__.8784:
 2002 0000 7072764D 		.ascii	"prvMultiTaskTest_Rx_Task\000"
 2002      756C7469 
 2002      5461736B 
 2002      54657374 
 2002      5F52785F 
 2003              		.section	.rodata.__FUNCTION__.8801,"a",%progbits
 2004              		.set	.LANCHOR4,. + 0
 2007              	__FUNCTION__.8801:
 2008 0000 7072764D 		.ascii	"prvMultiTaskTest_Tx_Task\000"
 2008      756C7469 
 2008      5461736B 
 2008      54657374 
 2008      5F54785F 
 2009              		.section	.rodata.clientcredentialMQTT_BROKER_ENDPOINT,"a",%progbits
 2012              	clientcredentialMQTT_BROKER_ENDPOINT:
 2013 0000 61333369 		.ascii	"a33i4lqfcxqo2.iot.ap-northeast-1.amazonaws.com\000"
 2013      346C7166 
 2013      6378716F 
 2013      322E696F 
 2013      742E6170 
 2014              		.section	.rodata.prvCreateClientAndConnectToBroker.str1.1,"aMS",%progbits,1
 2015              	.LC0:
 2016 0000 20457870 		.ascii	" Expected Non-NULL\000"
 2016      65637465 
 2016      64204E6F 
 2016      6E2D4E55 
 2016      4C4C00
 2017              	.LC1:
 2018 0013 4661696C 		.ascii	"Failed to connect to the MQTT broker with MQTT_AGEN"
 2018      65642074 
 2018      6F20636F 
 2018      6E6E6563 
 2018      7420746F 
 2019 0046 545F436F 		.ascii	"T_Connect().\000"
 2019      6E6E6563 
 2019      7428292E 
 2019      00
 2020              	.LC2:
 2021 0053 66726565 		.ascii	"freertos/tests/echo\000"
 2021      72746F73 
 2021      2F746573 
 2021      74732F65 
 2021      63686F00 
 2022              	.LC3:
 2023 0067 48656C6C 		.ascii	"Hello from the test.\000"
 2023      6F206672 
 2023      6F6D2074 
 2023      68652074 
 2023      6573742E 
 2024              		.section	.rodata.prvMultiTaskTest_Rx_Task.str1.1,"aMS",%progbits,1
 2025              	.LC17:
 2026 0000 25733A20 		.ascii	"%s: Could not create MQTT client.\015\012\000"
 2026      436F756C 
 2026      64206E6F 
 2026      74206372 
 2026      65617465 
 2027              	.LC18:
 2028 0024 25733A20 		.ascii	"%s: Could not connect MQTT client.\015\012\000"
 2028      436F756C 
 2028      64206E6F 
 2028      7420636F 
 2028      6E6E6563 
 2029              	.LC19:
 2030 0049 25733A20 		.ascii	"%s: Could not subscribe to topic.\015\012\000"
 2030      436F756C 
 2030      64206E6F 
 2030      74207375 
 2030      62736372 
 2031              	.LC20:
 2032 006d 25733A20 		.ascii	"%s: Timed out waiting for Transmit tasks.\015\012\000"
 2032      54696D65 
 2032      64206F75 
 2032      74207761 
 2032      6974696E 
 2033              	.LC21:
 2034 0099 25733A20 		.ascii	"%s: Timed out waiting for pub from Transmit tasks.\015"
 2034      54696D65 
 2034      64206F75 
 2034      74207761 
 2034      6974696E 
 2035 00cc 0A00     		.ascii	"\012\000"
 2036              	.LC22:
 2037 00ce 25733A20 		.ascii	"%s: Error, corrupted data Received.\015\012\000"
 2037      4572726F 
 2037      722C2063 
 2037      6F727275 
 2037      70746564 
 2038              	.LC23:
 2039 00f4 25733A20 		.ascii	"%s: Failed to unsubscribe.\015\012\000"
 2039      4661696C 
 2039      65642074 
 2039      6F20756E 
 2039      73756273 
 2040              	.LC24:
 2041 0111 25733A20 		.ascii	"%s: Failed to disconnect.\015\012\000"
 2041      4661696C 
 2041      65642074 
 2041      6F206469 
 2041      73636F6E 
 2042              	.LC25:
 2043 012d 25733A20 		.ascii	"%s: Failed to delete MQTT client.\015\012\000"
 2043      4661696C 
 2043      65642074 
 2043      6F206465 
 2043      6C657465 
 2044              		.section	.rodata.prvMultiTaskTest_Tx_Task.str1.1,"aMS",%progbits,1
 2045              	.LC15:
 2046 0000 25733A20 		.ascii	"%s: Failed synching with Transmit and Receive tasks"
 2046      4661696C 
 2046      65642073 
 2046      796E6368 
 2046      696E6720 
 2047 0033 2E0D0A00 		.ascii	".\015\012\000"
 2048              	.LC16:
 2049 0037 25733A20 		.ascii	"%s: Failed publishing to topic.\015\012\000"
 2049      4661696C 
 2049      65642070 
 2049      75626C69 
 2049      7368696E 
 2050              		.section	.rodata.str1.1,"aMS",%progbits,1
 2051              	.LC38:
 2052 0000 6964742D 		.ascii	"idt-6287306328291364584\000"
 2052      36323837 
 2052      33303633 
 2052      32383239 
 2052      31333634 
 2053              		.section	.rodata.xDefaultConnectParameters,"a",%progbits
 2054              		.align	2
 2055              		.set	.LANCHOR0,. + 0
 2058              	xDefaultConnectParameters:
 2059 0000 00000000 		.word	clientcredentialMQTT_BROKER_ENDPOINT
 2060 0004 02000000 		.word	2
 2061 0008 00000000 		.word	0
 2062 000c B322     		.short	8883
 2063 000e 0000     		.space	2
 2064 0010 00000000 		.word	.LC38
 2065 0014 0000     		.short	0
 2066 0016 0000     		.space	2
 2067 0018 01000000 		.word	1
 2068 001c 00000000 		.word	0
 2069 0020 00000000 		.word	0
 2070 0024 00000000 		.word	0
 2071 0028 00000000 		.word	0
 2072              		.text
 2073              	.Letext0:
 2074              		.file 2 "c:\\program files (x86)\\gnu tools arm embedded\\6 2017-q2-update\\arm-none-eabi\\include
 2075              		.file 3 "c:\\program files (x86)\\gnu tools arm embedded\\6 2017-q2-update\\lib\\gcc\\arm-none-eab
 2076              		.file 4 "c:\\program files (x86)\\gnu tools arm embedded\\6 2017-q2-update\\arm-none-eabi\\include
 2077              		.file 5 "c:\\program files (x86)\\gnu tools arm embedded\\6 2017-q2-update\\arm-none-eabi\\include
 2078              		.file 6 "c:\\program files (x86)\\gnu tools arm embedded\\6 2017-q2-update\\arm-none-eabi\\include
 2079              		.file 7 "c:\\program files (x86)\\gnu tools arm embedded\\6 2017-q2-update\\arm-none-eabi\\include
 2080              		.file 8 "c:\\program files (x86)\\gnu tools arm embedded\\6 2017-q2-update\\arm-none-eabi\\include
 2081              		.file 9 "c:\\program files (x86)\\gnu tools arm embedded\\6 2017-q2-update\\arm-none-eabi\\include
 2082              		.file 10 "D:\\Work\\DeviceTester\\amazon-freertos\\lib\\third_party\\unity\\src/unity_internals.h"
 2083              		.file 11 "D:\\Work\\DeviceTester\\amazon-freertos\\lib\\FreeRTOS\\portable\\GCC\\ARM_CA9_RZA2M/por
 2084              		.file 12 "D:\\Work\\DeviceTester\\amazon-freertos\\lib\\include/FreeRTOS.h"
 2085              		.file 13 "D:\\Work\\DeviceTester\\amazon-freertos\\lib\\include/task.h"
 2086              		.file 14 "D:\\Work\\DeviceTester\\amazon-freertos\\lib\\include/queue.h"
 2087              		.file 15 "D:\\Work\\DeviceTester\\amazon-freertos\\lib\\include/semphr.h"
 2088              		.file 16 "D:\\Work\\DeviceTester\\amazon-freertos\\lib\\include\\private/aws_mqtt_buffer.h"
 2089              		.file 17 "D:\\Work\\DeviceTester\\amazon-freertos\\lib\\include/aws_mqtt_lib.h"
 2090              		.file 18 "D:\\Work\\DeviceTester\\amazon-freertos\\lib\\include/aws_mqtt_agent.h"
 2091              		.file 19 "D:\\Work\\DeviceTester\\amazon-freertos\\lib\\include/event_groups.h"
 2092              		.file 20 "D:\\Work\\DeviceTester\\amazon-freertos\\tests\\common\\include/aws_clientcredential_key
 2093              		.file 21 "c:\\program files (x86)\\gnu tools arm embedded\\6 2017-q2-update\\arm-none-eabi\\includ
 2094              		.file 22 "D:\\Work\\DeviceTester\\amazon-freertos\\lib\\third_party\\unity\\extras\\fixture\\src/u
 2095              		.file 23 "D:\\Work\\DeviceTester\\amazon-freertos\\tests\\common\\include/aws_clientcredential.h"
 2096              		.file 24 "D:\\Work\\DeviceTester\\amazon-freertos\\lib\\include\\private/aws_mqtt_config_defaults.
 2097              		.file 25 "c:\\program files (x86)\\gnu tools arm embedded\\6 2017-q2-update\\arm-none-eabi\\includ
 2098              		.file 26 "D:\\Work\\DeviceTester\\amazon-freertos\\lib\\include\\private/portable.h"
 2099              		.file 27 "c:\\program files (x86)\\gnu tools arm embedded\\6 2017-q2-update\\arm-none-eabi\\includ
 2100              		.file 28 "c:\\program files (x86)\\gnu tools arm embedded\\6 2017-q2-update\\arm-none-eabi\\includ