   1              		.cpu cortex-a9
   2              		.eabi_attribute 28, 1
   3              		.eabi_attribute 20, 1
   4              		.eabi_attribute 21, 1
   5              		.eabi_attribute 23, 3
   6              		.eabi_attribute 24, 1
   7              		.eabi_attribute 25, 1
   8              		.eabi_attribute 26, 1
   9              		.eabi_attribute 30, 4
  10              		.eabi_attribute 34, 0
  11              		.eabi_attribute 18, 4
  12              		.file	"aws_test_mqtt_lib.c"
  13              		.text
  14              	.Ltext0:
  15              		.cfi_sections	.debug_frame
  16              		.section	.text.prvSendCallback,"ax",%progbits
  17              		.align	2
  18              		.syntax unified
  19              		.arm
  20              		.fpu neon
  22              	prvSendCallback:
  23              	.LFB1:
  24              		.file 1 "D:/Work/DeviceTester/amazon-freertos/tests/common/mqtt/aws_test_mqtt_lib.c"
   1:D:/Work/DeviceTester/amazon-freertos/tests/common/mqtt\aws_test_mqtt_lib.c **** /*
   2:D:/Work/DeviceTester/amazon-freertos/tests/common/mqtt\aws_test_mqtt_lib.c ****  * Amazon FreeRTOS MQTT AFQP V1.1.4
   3:D:/Work/DeviceTester/amazon-freertos/tests/common/mqtt\aws_test_mqtt_lib.c ****  * Copyright (C) 2017 Amazon.com, Inc. or its affiliates.  All Rights Reserved.
   4:D:/Work/DeviceTester/amazon-freertos/tests/common/mqtt\aws_test_mqtt_lib.c ****  *
   5:D:/Work/DeviceTester/amazon-freertos/tests/common/mqtt\aws_test_mqtt_lib.c ****  * Permission is hereby granted, free of charge, to any person obtaining a copy of
   6:D:/Work/DeviceTester/amazon-freertos/tests/common/mqtt\aws_test_mqtt_lib.c ****  * this software and associated documentation files (the "Software"), to deal in
   7:D:/Work/DeviceTester/amazon-freertos/tests/common/mqtt\aws_test_mqtt_lib.c ****  * the Software without restriction, including without limitation the rights to
   8:D:/Work/DeviceTester/amazon-freertos/tests/common/mqtt\aws_test_mqtt_lib.c ****  * use, copy, modify, merge, publish, distribute, sublicense, and/or sell copies of
   9:D:/Work/DeviceTester/amazon-freertos/tests/common/mqtt\aws_test_mqtt_lib.c ****  * the Software, and to permit persons to whom the Software is furnished to do so,
  10:D:/Work/DeviceTester/amazon-freertos/tests/common/mqtt\aws_test_mqtt_lib.c ****  * subject to the following conditions:
  11:D:/Work/DeviceTester/amazon-freertos/tests/common/mqtt\aws_test_mqtt_lib.c ****  *
  12:D:/Work/DeviceTester/amazon-freertos/tests/common/mqtt\aws_test_mqtt_lib.c ****  * The above copyright notice and this permission notice shall be included in all
  13:D:/Work/DeviceTester/amazon-freertos/tests/common/mqtt\aws_test_mqtt_lib.c ****  * copies or substantial portions of the Software.
  14:D:/Work/DeviceTester/amazon-freertos/tests/common/mqtt\aws_test_mqtt_lib.c ****  *
  15:D:/Work/DeviceTester/amazon-freertos/tests/common/mqtt\aws_test_mqtt_lib.c ****  * THE SOFTWARE IS PROVIDED "AS IS", WITHOUT WARRANTY OF ANY KIND, EXPRESS OR
  16:D:/Work/DeviceTester/amazon-freertos/tests/common/mqtt\aws_test_mqtt_lib.c ****  * IMPLIED, INCLUDING BUT NOT LIMITED TO THE WARRANTIES OF MERCHANTABILITY, FITNESS
  17:D:/Work/DeviceTester/amazon-freertos/tests/common/mqtt\aws_test_mqtt_lib.c ****  * FOR A PARTICULAR PURPOSE AND NONINFRINGEMENT. IN NO EVENT SHALL THE AUTHORS OR
  18:D:/Work/DeviceTester/amazon-freertos/tests/common/mqtt\aws_test_mqtt_lib.c ****  * COPYRIGHT HOLDERS BE LIABLE FOR ANY CLAIM, DAMAGES OR OTHER LIABILITY, WHETHER
  19:D:/Work/DeviceTester/amazon-freertos/tests/common/mqtt\aws_test_mqtt_lib.c ****  * IN AN ACTION OF CONTRACT, TORT OR OTHERWISE, ARISING FROM, OUT OF OR IN
  20:D:/Work/DeviceTester/amazon-freertos/tests/common/mqtt\aws_test_mqtt_lib.c ****  * CONNECTION WITH THE SOFTWARE OR THE USE OR OTHER DEALINGS IN THE SOFTWARE.
  21:D:/Work/DeviceTester/amazon-freertos/tests/common/mqtt\aws_test_mqtt_lib.c ****  *
  22:D:/Work/DeviceTester/amazon-freertos/tests/common/mqtt\aws_test_mqtt_lib.c ****  * http://aws.amazon.com/freertos
  23:D:/Work/DeviceTester/amazon-freertos/tests/common/mqtt\aws_test_mqtt_lib.c ****  * http://www.FreeRTOS.org
  24:D:/Work/DeviceTester/amazon-freertos/tests/common/mqtt\aws_test_mqtt_lib.c ****  */
  25:D:/Work/DeviceTester/amazon-freertos/tests/common/mqtt\aws_test_mqtt_lib.c **** 
  26:D:/Work/DeviceTester/amazon-freertos/tests/common/mqtt\aws_test_mqtt_lib.c **** /**
  27:D:/Work/DeviceTester/amazon-freertos/tests/common/mqtt\aws_test_mqtt_lib.c ****  * @file aws_test_mqtt_lib.c
  28:D:/Work/DeviceTester/amazon-freertos/tests/common/mqtt\aws_test_mqtt_lib.c ****  * @brief Tests for MQTT Core Library.
  29:D:/Work/DeviceTester/amazon-freertos/tests/common/mqtt\aws_test_mqtt_lib.c ****  */
  30:D:/Work/DeviceTester/amazon-freertos/tests/common/mqtt\aws_test_mqtt_lib.c **** 
  31:D:/Work/DeviceTester/amazon-freertos/tests/common/mqtt\aws_test_mqtt_lib.c **** /* Standard includes. */
  32:D:/Work/DeviceTester/amazon-freertos/tests/common/mqtt\aws_test_mqtt_lib.c **** #include <string.h>
  33:D:/Work/DeviceTester/amazon-freertos/tests/common/mqtt\aws_test_mqtt_lib.c **** 
  34:D:/Work/DeviceTester/amazon-freertos/tests/common/mqtt\aws_test_mqtt_lib.c **** /* Unity framework includes. */
  35:D:/Work/DeviceTester/amazon-freertos/tests/common/mqtt\aws_test_mqtt_lib.c **** #include "unity_fixture.h"
  36:D:/Work/DeviceTester/amazon-freertos/tests/common/mqtt\aws_test_mqtt_lib.c **** 
  37:D:/Work/DeviceTester/amazon-freertos/tests/common/mqtt\aws_test_mqtt_lib.c **** /* MQTT Lib includes. */
  38:D:/Work/DeviceTester/amazon-freertos/tests/common/mqtt\aws_test_mqtt_lib.c **** #include "aws_mqtt_lib.h"
  39:D:/Work/DeviceTester/amazon-freertos/tests/common/mqtt\aws_test_mqtt_lib.c **** #include "aws_mqtt_lib_test_access_declare.h"
  40:D:/Work/DeviceTester/amazon-freertos/tests/common/mqtt\aws_test_mqtt_lib.c **** #include "aws_mqtt_agent_config.h"
  41:D:/Work/DeviceTester/amazon-freertos/tests/common/mqtt\aws_test_mqtt_lib.c **** 
  42:D:/Work/DeviceTester/amazon-freertos/tests/common/mqtt\aws_test_mqtt_lib.c **** /* Bufferpool includes. */
  43:D:/Work/DeviceTester/amazon-freertos/tests/common/mqtt\aws_test_mqtt_lib.c **** #include "aws_bufferpool.h"
  44:D:/Work/DeviceTester/amazon-freertos/tests/common/mqtt\aws_test_mqtt_lib.c **** 
  45:D:/Work/DeviceTester/amazon-freertos/tests/common/mqtt\aws_test_mqtt_lib.c **** /**
  46:D:/Work/DeviceTester/amazon-freertos/tests/common/mqtt\aws_test_mqtt_lib.c ****  * @brief The callback context registered with the MQTT Core library.
  47:D:/Work/DeviceTester/amazon-freertos/tests/common/mqtt\aws_test_mqtt_lib.c ****  *
  48:D:/Work/DeviceTester/amazon-freertos/tests/common/mqtt\aws_test_mqtt_lib.c ****  * The same context is returned in the MQTT event callback. This specific
  49:D:/Work/DeviceTester/amazon-freertos/tests/common/mqtt\aws_test_mqtt_lib.c ****  * value is used to check that the library indeed passes the same context
  50:D:/Work/DeviceTester/amazon-freertos/tests/common/mqtt\aws_test_mqtt_lib.c ****  * back.
  51:D:/Work/DeviceTester/amazon-freertos/tests/common/mqtt\aws_test_mqtt_lib.c ****  */
  52:D:/Work/DeviceTester/amazon-freertos/tests/common/mqtt\aws_test_mqtt_lib.c **** #define testmqttlibCALLBACK_CONTEXT           ( void * ) ( 0x5a5a5a5a )
  53:D:/Work/DeviceTester/amazon-freertos/tests/common/mqtt\aws_test_mqtt_lib.c **** 
  54:D:/Work/DeviceTester/amazon-freertos/tests/common/mqtt\aws_test_mqtt_lib.c **** /**
  55:D:/Work/DeviceTester/amazon-freertos/tests/common/mqtt\aws_test_mqtt_lib.c ****  * @brief The send context registered with the MQTT Code library.
  56:D:/Work/DeviceTester/amazon-freertos/tests/common/mqtt\aws_test_mqtt_lib.c ****  *
  57:D:/Work/DeviceTester/amazon-freertos/tests/common/mqtt\aws_test_mqtt_lib.c ****  * The same context us returned in the network send callback. This specific
  58:D:/Work/DeviceTester/amazon-freertos/tests/common/mqtt\aws_test_mqtt_lib.c ****  * value is used to check that the library indeed passes the same context
  59:D:/Work/DeviceTester/amazon-freertos/tests/common/mqtt\aws_test_mqtt_lib.c ****  * back.
  60:D:/Work/DeviceTester/amazon-freertos/tests/common/mqtt\aws_test_mqtt_lib.c ****  */
  61:D:/Work/DeviceTester/amazon-freertos/tests/common/mqtt\aws_test_mqtt_lib.c **** #define testmqttlibSEND_CONTEXT               ( void * ) ( 0x0a0a0a0a )
  62:D:/Work/DeviceTester/amazon-freertos/tests/common/mqtt\aws_test_mqtt_lib.c **** 
  63:D:/Work/DeviceTester/amazon-freertos/tests/common/mqtt\aws_test_mqtt_lib.c **** /**
  64:D:/Work/DeviceTester/amazon-freertos/tests/common/mqtt\aws_test_mqtt_lib.c ****  * @brief Packet ID of the connect message.
  65:D:/Work/DeviceTester/amazon-freertos/tests/common/mqtt\aws_test_mqtt_lib.c ****  */
  66:D:/Work/DeviceTester/amazon-freertos/tests/common/mqtt\aws_test_mqtt_lib.c **** #define testmqttlibCONNECT_PACKET_ID          ( 1 )
  67:D:/Work/DeviceTester/amazon-freertos/tests/common/mqtt\aws_test_mqtt_lib.c **** 
  68:D:/Work/DeviceTester/amazon-freertos/tests/common/mqtt\aws_test_mqtt_lib.c **** /**
  69:D:/Work/DeviceTester/amazon-freertos/tests/common/mqtt\aws_test_mqtt_lib.c ****  * @brief Number of ticks after which an operation should timeout.
  70:D:/Work/DeviceTester/amazon-freertos/tests/common/mqtt\aws_test_mqtt_lib.c ****  */
  71:D:/Work/DeviceTester/amazon-freertos/tests/common/mqtt\aws_test_mqtt_lib.c **** #define testmqttlibOPERATION_TIMEOUT_TICKS    ( 1000 )
  72:D:/Work/DeviceTester/amazon-freertos/tests/common/mqtt\aws_test_mqtt_lib.c **** 
  73:D:/Work/DeviceTester/amazon-freertos/tests/common/mqtt\aws_test_mqtt_lib.c **** /**
  74:D:/Work/DeviceTester/amazon-freertos/tests/common/mqtt\aws_test_mqtt_lib.c ****  * @brief MQTT Control packet types.
  75:D:/Work/DeviceTester/amazon-freertos/tests/common/mqtt\aws_test_mqtt_lib.c ****  */
  76:D:/Work/DeviceTester/amazon-freertos/tests/common/mqtt\aws_test_mqtt_lib.c **** #define mqttCONTROL_CONNACK                   ( ( uint8_t ) 2 << ( uint8_t ) 4 )
  77:D:/Work/DeviceTester/amazon-freertos/tests/common/mqtt\aws_test_mqtt_lib.c **** 
  78:D:/Work/DeviceTester/amazon-freertos/tests/common/mqtt\aws_test_mqtt_lib.c **** /**
  79:D:/Work/DeviceTester/amazon-freertos/tests/common/mqtt\aws_test_mqtt_lib.c ****  * @brief MQTT Control packet flags.
  80:D:/Work/DeviceTester/amazon-freertos/tests/common/mqtt\aws_test_mqtt_lib.c ****  */
  81:D:/Work/DeviceTester/amazon-freertos/tests/common/mqtt\aws_test_mqtt_lib.c **** #define mqttFLAGS_CONNACK                     ( ( uint8_t ) 0 ) /**< Reserved. */
  82:D:/Work/DeviceTester/amazon-freertos/tests/common/mqtt\aws_test_mqtt_lib.c **** /*-----------------------------------------------------------*/
  83:D:/Work/DeviceTester/amazon-freertos/tests/common/mqtt\aws_test_mqtt_lib.c **** 
  84:D:/Work/DeviceTester/amazon-freertos/tests/common/mqtt\aws_test_mqtt_lib.c **** /**
  85:D:/Work/DeviceTester/amazon-freertos/tests/common/mqtt\aws_test_mqtt_lib.c ****  * @brief Tracks the number of times the registered callback is invoked for
  86:D:/Work/DeviceTester/amazon-freertos/tests/common/mqtt\aws_test_mqtt_lib.c ****  * various events during the execution of a test.
  87:D:/Work/DeviceTester/amazon-freertos/tests/common/mqtt\aws_test_mqtt_lib.c ****  */
  88:D:/Work/DeviceTester/amazon-freertos/tests/common/mqtt\aws_test_mqtt_lib.c **** typedef struct CallbackCounter
  89:D:/Work/DeviceTester/amazon-freertos/tests/common/mqtt\aws_test_mqtt_lib.c **** {
  90:D:/Work/DeviceTester/amazon-freertos/tests/common/mqtt\aws_test_mqtt_lib.c ****     uint32_t ulConnACK;           /**< Number of times the callback is invoked for CONNACK message.
  91:D:/Work/DeviceTester/amazon-freertos/tests/common/mqtt\aws_test_mqtt_lib.c ****     uint32_t ulUnexpectedConnACK; /**< Number of times the callback is invoked for unexpected CONNA
  92:D:/Work/DeviceTester/amazon-freertos/tests/common/mqtt\aws_test_mqtt_lib.c ****     uint32_t ulDisconnect;        /**< Number of times the callback is invoked for disconnect messa
  93:D:/Work/DeviceTester/amazon-freertos/tests/common/mqtt\aws_test_mqtt_lib.c ****     uint32_t ulUnidentified;      /**< Number of times the callback is invoked for un-handled event
  94:D:/Work/DeviceTester/amazon-freertos/tests/common/mqtt\aws_test_mqtt_lib.c **** } CallbackCounter_t;
  95:D:/Work/DeviceTester/amazon-freertos/tests/common/mqtt\aws_test_mqtt_lib.c **** /*-----------------------------------------------------------*/
  96:D:/Work/DeviceTester/amazon-freertos/tests/common/mqtt\aws_test_mqtt_lib.c **** 
  97:D:/Work/DeviceTester/amazon-freertos/tests/common/mqtt\aws_test_mqtt_lib.c **** /**
  98:D:/Work/DeviceTester/amazon-freertos/tests/common/mqtt\aws_test_mqtt_lib.c ****  * @breif MQTT context used by all the tests.
  99:D:/Work/DeviceTester/amazon-freertos/tests/common/mqtt\aws_test_mqtt_lib.c ****  */
 100:D:/Work/DeviceTester/amazon-freertos/tests/common/mqtt\aws_test_mqtt_lib.c **** static MQTTContext_t xMQTTContext;
 101:D:/Work/DeviceTester/amazon-freertos/tests/common/mqtt\aws_test_mqtt_lib.c **** 
 102:D:/Work/DeviceTester/amazon-freertos/tests/common/mqtt\aws_test_mqtt_lib.c **** /**
 103:D:/Work/DeviceTester/amazon-freertos/tests/common/mqtt\aws_test_mqtt_lib.c ****  * @brief Callback counter used by all the tests.
 104:D:/Work/DeviceTester/amazon-freertos/tests/common/mqtt\aws_test_mqtt_lib.c ****  */
 105:D:/Work/DeviceTester/amazon-freertos/tests/common/mqtt\aws_test_mqtt_lib.c **** static CallbackCounter_t xCallbackCounter;
 106:D:/Work/DeviceTester/amazon-freertos/tests/common/mqtt\aws_test_mqtt_lib.c **** /*-----------------------------------------------------------*/
 107:D:/Work/DeviceTester/amazon-freertos/tests/common/mqtt\aws_test_mqtt_lib.c **** 
 108:D:/Work/DeviceTester/amazon-freertos/tests/common/mqtt\aws_test_mqtt_lib.c **** /**
 109:D:/Work/DeviceTester/amazon-freertos/tests/common/mqtt\aws_test_mqtt_lib.c ****  * @brief The MQTT event callback registered with the MQTT library.
 110:D:/Work/DeviceTester/amazon-freertos/tests/common/mqtt\aws_test_mqtt_lib.c ****  *
 111:D:/Work/DeviceTester/amazon-freertos/tests/common/mqtt\aws_test_mqtt_lib.c ****  * In this case, we just update the callback counters for checking later after
 112:D:/Work/DeviceTester/amazon-freertos/tests/common/mqtt\aws_test_mqtt_lib.c ****  * the test finishes.
 113:D:/Work/DeviceTester/amazon-freertos/tests/common/mqtt\aws_test_mqtt_lib.c ****  *
 114:D:/Work/DeviceTester/amazon-freertos/tests/common/mqtt\aws_test_mqtt_lib.c ****  * @param[in] pvCallbackContext The callback context as supplied in Init parameters.
 115:D:/Work/DeviceTester/amazon-freertos/tests/common/mqtt\aws_test_mqtt_lib.c ****  * @param[in] pxParams The event and related data.
 116:D:/Work/DeviceTester/amazon-freertos/tests/common/mqtt\aws_test_mqtt_lib.c ****  *
 117:D:/Work/DeviceTester/amazon-freertos/tests/common/mqtt\aws_test_mqtt_lib.c ****  * @return The return value is ignored in all other cases except publish (i.e. eMQTTPublish
 118:D:/Work/DeviceTester/amazon-freertos/tests/common/mqtt\aws_test_mqtt_lib.c ****  * event):
 119:D:/Work/DeviceTester/amazon-freertos/tests/common/mqtt\aws_test_mqtt_lib.c ****  * 1. If eMQTTTrue is returned - the ownership of the buffer passed in the callback (xBuffer
 120:D:/Work/DeviceTester/amazon-freertos/tests/common/mqtt\aws_test_mqtt_lib.c ****  * in MQTTPublishData_t) lies with the user.
 121:D:/Work/DeviceTester/amazon-freertos/tests/common/mqtt\aws_test_mqtt_lib.c ****  * 2. If eMQTTFalse is returned - the ownership of the buffer passed in the callback (xBuffer
 122:D:/Work/DeviceTester/amazon-freertos/tests/common/mqtt\aws_test_mqtt_lib.c ****  * in MQTTPublishData_t) remains with the library and it is recycled as soon as the callback
 123:D:/Work/DeviceTester/amazon-freertos/tests/common/mqtt\aws_test_mqtt_lib.c ****  * returns.
 124:D:/Work/DeviceTester/amazon-freertos/tests/common/mqtt\aws_test_mqtt_lib.c ****  */
 125:D:/Work/DeviceTester/amazon-freertos/tests/common/mqtt\aws_test_mqtt_lib.c **** static MQTTBool_t prvMQTTEventCallback( void * pvCallbackContext,
 126:D:/Work/DeviceTester/amazon-freertos/tests/common/mqtt\aws_test_mqtt_lib.c ****                                         const MQTTEventCallbackParams_t * const pxParams );
 127:D:/Work/DeviceTester/amazon-freertos/tests/common/mqtt\aws_test_mqtt_lib.c **** 
 128:D:/Work/DeviceTester/amazon-freertos/tests/common/mqtt\aws_test_mqtt_lib.c **** /**
 129:D:/Work/DeviceTester/amazon-freertos/tests/common/mqtt\aws_test_mqtt_lib.c ****  * @brief The send callback registered with the MQTT library.
 130:D:/Work/DeviceTester/amazon-freertos/tests/common/mqtt\aws_test_mqtt_lib.c ****  *
 131:D:/Work/DeviceTester/amazon-freertos/tests/common/mqtt\aws_test_mqtt_lib.c ****  * This one mimics a successful send by returning ulDataLength
 132:D:/Work/DeviceTester/amazon-freertos/tests/common/mqtt\aws_test_mqtt_lib.c ****  * indicating that all the data was transmitted successfully.
 133:D:/Work/DeviceTester/amazon-freertos/tests/common/mqtt\aws_test_mqtt_lib.c ****  *
 134:D:/Work/DeviceTester/amazon-freertos/tests/common/mqtt\aws_test_mqtt_lib.c ****  * @param[in] pvSendContext The send context as supplied in Init parameters.
 135:D:/Work/DeviceTester/amazon-freertos/tests/common/mqtt\aws_test_mqtt_lib.c ****  * @param[in] pucData The data to transmit.
 136:D:/Work/DeviceTester/amazon-freertos/tests/common/mqtt\aws_test_mqtt_lib.c ****  * @param[in] ulDataLength The length of the data.
 137:D:/Work/DeviceTester/amazon-freertos/tests/common/mqtt\aws_test_mqtt_lib.c ****  *
 138:D:/Work/DeviceTester/amazon-freertos/tests/common/mqtt\aws_test_mqtt_lib.c ****  * @return The number of bytes actually transmitted.
 139:D:/Work/DeviceTester/amazon-freertos/tests/common/mqtt\aws_test_mqtt_lib.c ****  */
 140:D:/Work/DeviceTester/amazon-freertos/tests/common/mqtt\aws_test_mqtt_lib.c **** static uint32_t prvSendCallback( void * pvSendContext,
 141:D:/Work/DeviceTester/amazon-freertos/tests/common/mqtt\aws_test_mqtt_lib.c ****                                  const uint8_t * const pucData,
 142:D:/Work/DeviceTester/amazon-freertos/tests/common/mqtt\aws_test_mqtt_lib.c ****                                  uint32_t ulDataLength );
 143:D:/Work/DeviceTester/amazon-freertos/tests/common/mqtt\aws_test_mqtt_lib.c **** 
 144:D:/Work/DeviceTester/amazon-freertos/tests/common/mqtt\aws_test_mqtt_lib.c **** /**
 145:D:/Work/DeviceTester/amazon-freertos/tests/common/mqtt\aws_test_mqtt_lib.c ****  * @brief The send callback registered with the MQTT library to
 146:D:/Work/DeviceTester/amazon-freertos/tests/common/mqtt\aws_test_mqtt_lib.c ****  * mimic network send failure..
 147:D:/Work/DeviceTester/amazon-freertos/tests/common/mqtt\aws_test_mqtt_lib.c ****  *
 148:D:/Work/DeviceTester/amazon-freertos/tests/common/mqtt\aws_test_mqtt_lib.c ****  * This one mimics a failed send by returning 0 indicating that
 149:D:/Work/DeviceTester/amazon-freertos/tests/common/mqtt\aws_test_mqtt_lib.c ****  * no data could be transmitted.
 150:D:/Work/DeviceTester/amazon-freertos/tests/common/mqtt\aws_test_mqtt_lib.c ****  *
 151:D:/Work/DeviceTester/amazon-freertos/tests/common/mqtt\aws_test_mqtt_lib.c ****  * @param[in] pvSendContext The send context as supplied in Init parameters.
 152:D:/Work/DeviceTester/amazon-freertos/tests/common/mqtt\aws_test_mqtt_lib.c ****  * @param[in] pucData The data to transmit.
 153:D:/Work/DeviceTester/amazon-freertos/tests/common/mqtt\aws_test_mqtt_lib.c ****  * @param[in] ulDataLength The length of the data.
 154:D:/Work/DeviceTester/amazon-freertos/tests/common/mqtt\aws_test_mqtt_lib.c ****  *
 155:D:/Work/DeviceTester/amazon-freertos/tests/common/mqtt\aws_test_mqtt_lib.c ****  * @return The number of bytes actually transmitted.
 156:D:/Work/DeviceTester/amazon-freertos/tests/common/mqtt\aws_test_mqtt_lib.c ****  */
 157:D:/Work/DeviceTester/amazon-freertos/tests/common/mqtt\aws_test_mqtt_lib.c **** static uint32_t prvSendFailedCallback( void * pvSendContext,
 158:D:/Work/DeviceTester/amazon-freertos/tests/common/mqtt\aws_test_mqtt_lib.c ****                                        const uint8_t * const pucData,
 159:D:/Work/DeviceTester/amazon-freertos/tests/common/mqtt\aws_test_mqtt_lib.c ****                                        uint32_t ulDataLength );
 160:D:/Work/DeviceTester/amazon-freertos/tests/common/mqtt\aws_test_mqtt_lib.c **** 
 161:D:/Work/DeviceTester/amazon-freertos/tests/common/mqtt\aws_test_mqtt_lib.c **** /**
 162:D:/Work/DeviceTester/amazon-freertos/tests/common/mqtt\aws_test_mqtt_lib.c ****  * @brief Initializes the global callback counter object.
 163:D:/Work/DeviceTester/amazon-freertos/tests/common/mqtt\aws_test_mqtt_lib.c ****  */
 164:D:/Work/DeviceTester/amazon-freertos/tests/common/mqtt\aws_test_mqtt_lib.c **** static void prvInitializeCallbackCounter( void );
 165:D:/Work/DeviceTester/amazon-freertos/tests/common/mqtt\aws_test_mqtt_lib.c **** 
 166:D:/Work/DeviceTester/amazon-freertos/tests/common/mqtt\aws_test_mqtt_lib.c **** /**
 167:D:/Work/DeviceTester/amazon-freertos/tests/common/mqtt\aws_test_mqtt_lib.c ****  * @brief Initializes the global MQTT context by calling MQTT_Init.
 168:D:/Work/DeviceTester/amazon-freertos/tests/common/mqtt\aws_test_mqtt_lib.c ****  *
 169:D:/Work/DeviceTester/amazon-freertos/tests/common/mqtt\aws_test_mqtt_lib.c ****  * @return The return value of MQTT_Init.
 170:D:/Work/DeviceTester/amazon-freertos/tests/common/mqtt\aws_test_mqtt_lib.c ****  */
 171:D:/Work/DeviceTester/amazon-freertos/tests/common/mqtt\aws_test_mqtt_lib.c **** static MQTTReturnCode_t prvInitializeMQTTContext( void );
 172:D:/Work/DeviceTester/amazon-freertos/tests/common/mqtt\aws_test_mqtt_lib.c **** 
 173:D:/Work/DeviceTester/amazon-freertos/tests/common/mqtt\aws_test_mqtt_lib.c **** /**
 174:D:/Work/DeviceTester/amazon-freertos/tests/common/mqtt\aws_test_mqtt_lib.c ****  * @brief Sends MQTT connect message by calling MQTT_Connect.
 175:D:/Work/DeviceTester/amazon-freertos/tests/common/mqtt\aws_test_mqtt_lib.c ****  *
 176:D:/Work/DeviceTester/amazon-freertos/tests/common/mqtt\aws_test_mqtt_lib.c ****  * @return The return value of MQTT_Connect.
 177:D:/Work/DeviceTester/amazon-freertos/tests/common/mqtt\aws_test_mqtt_lib.c ****  */
 178:D:/Work/DeviceTester/amazon-freertos/tests/common/mqtt\aws_test_mqtt_lib.c **** static MQTTReturnCode_t prvSendMQTTConnect( void );
 179:D:/Work/DeviceTester/amazon-freertos/tests/common/mqtt\aws_test_mqtt_lib.c **** 
 180:D:/Work/DeviceTester/amazon-freertos/tests/common/mqtt\aws_test_mqtt_lib.c **** /**
 181:D:/Work/DeviceTester/amazon-freertos/tests/common/mqtt\aws_test_mqtt_lib.c ****  * @brief Mimics receiving a CONNACK message by passing a valid CONNACK message
 182:D:/Work/DeviceTester/amazon-freertos/tests/common/mqtt\aws_test_mqtt_lib.c ****  * to MQTT_ParseReceivedData.
 183:D:/Work/DeviceTester/amazon-freertos/tests/common/mqtt\aws_test_mqtt_lib.c ****  *
 184:D:/Work/DeviceTester/amazon-freertos/tests/common/mqtt\aws_test_mqtt_lib.c ****  * @return The return value of MQTT_ParseReceivedData.
 185:D:/Work/DeviceTester/amazon-freertos/tests/common/mqtt\aws_test_mqtt_lib.c ****  */
 186:D:/Work/DeviceTester/amazon-freertos/tests/common/mqtt\aws_test_mqtt_lib.c **** static MQTTReturnCode_t prvReceiveMQTTConnACK( void );
 187:D:/Work/DeviceTester/amazon-freertos/tests/common/mqtt\aws_test_mqtt_lib.c **** /*-----------------------------------------------------------*/
 188:D:/Work/DeviceTester/amazon-freertos/tests/common/mqtt\aws_test_mqtt_lib.c **** 
 189:D:/Work/DeviceTester/amazon-freertos/tests/common/mqtt\aws_test_mqtt_lib.c **** static MQTTBool_t prvMQTTEventCallback( void * pvCallbackContext,
 190:D:/Work/DeviceTester/amazon-freertos/tests/common/mqtt\aws_test_mqtt_lib.c ****                                         const MQTTEventCallbackParams_t * const pxParams )
 191:D:/Work/DeviceTester/amazon-freertos/tests/common/mqtt\aws_test_mqtt_lib.c **** {
 192:D:/Work/DeviceTester/amazon-freertos/tests/common/mqtt\aws_test_mqtt_lib.c ****     /* Ensure that the correct callback context was supplied
 193:D:/Work/DeviceTester/amazon-freertos/tests/common/mqtt\aws_test_mqtt_lib.c ****      * back by the library. */
 194:D:/Work/DeviceTester/amazon-freertos/tests/common/mqtt\aws_test_mqtt_lib.c ****     TEST_ASSERT_EQUAL( pvCallbackContext, testmqttlibCALLBACK_CONTEXT );
 195:D:/Work/DeviceTester/amazon-freertos/tests/common/mqtt\aws_test_mqtt_lib.c **** 
 196:D:/Work/DeviceTester/amazon-freertos/tests/common/mqtt\aws_test_mqtt_lib.c ****     switch( pxParams->xEventType )
 197:D:/Work/DeviceTester/amazon-freertos/tests/common/mqtt\aws_test_mqtt_lib.c ****     {
 198:D:/Work/DeviceTester/amazon-freertos/tests/common/mqtt\aws_test_mqtt_lib.c ****         case eMQTTConnACK:
 199:D:/Work/DeviceTester/amazon-freertos/tests/common/mqtt\aws_test_mqtt_lib.c ****             xCallbackCounter.ulConnACK += 1;
 200:D:/Work/DeviceTester/amazon-freertos/tests/common/mqtt\aws_test_mqtt_lib.c **** 
 201:D:/Work/DeviceTester/amazon-freertos/tests/common/mqtt\aws_test_mqtt_lib.c ****             /* Ensure that correct identifier was passed. */
 202:D:/Work/DeviceTester/amazon-freertos/tests/common/mqtt\aws_test_mqtt_lib.c ****             TEST_ASSERT_EQUAL( pxParams->u.xMQTTConnACKData.usPacketIdentifier, testmqttlibCONNECT_
 203:D:/Work/DeviceTester/amazon-freertos/tests/common/mqtt\aws_test_mqtt_lib.c **** 
 204:D:/Work/DeviceTester/amazon-freertos/tests/common/mqtt\aws_test_mqtt_lib.c ****             break;
 205:D:/Work/DeviceTester/amazon-freertos/tests/common/mqtt\aws_test_mqtt_lib.c **** 
 206:D:/Work/DeviceTester/amazon-freertos/tests/common/mqtt\aws_test_mqtt_lib.c ****         case eMQTTClientDisconnected:
 207:D:/Work/DeviceTester/amazon-freertos/tests/common/mqtt\aws_test_mqtt_lib.c ****             xCallbackCounter.ulDisconnect += 1;
 208:D:/Work/DeviceTester/amazon-freertos/tests/common/mqtt\aws_test_mqtt_lib.c **** 
 209:D:/Work/DeviceTester/amazon-freertos/tests/common/mqtt\aws_test_mqtt_lib.c ****             break;
 210:D:/Work/DeviceTester/amazon-freertos/tests/common/mqtt\aws_test_mqtt_lib.c **** 
 211:D:/Work/DeviceTester/amazon-freertos/tests/common/mqtt\aws_test_mqtt_lib.c ****         case eMQTTUnexpectedConnACK:
 212:D:/Work/DeviceTester/amazon-freertos/tests/common/mqtt\aws_test_mqtt_lib.c ****             xCallbackCounter.ulUnexpectedConnACK += 1;
 213:D:/Work/DeviceTester/amazon-freertos/tests/common/mqtt\aws_test_mqtt_lib.c **** 
 214:D:/Work/DeviceTester/amazon-freertos/tests/common/mqtt\aws_test_mqtt_lib.c ****             break;
 215:D:/Work/DeviceTester/amazon-freertos/tests/common/mqtt\aws_test_mqtt_lib.c **** 
 216:D:/Work/DeviceTester/amazon-freertos/tests/common/mqtt\aws_test_mqtt_lib.c ****         default:
 217:D:/Work/DeviceTester/amazon-freertos/tests/common/mqtt\aws_test_mqtt_lib.c ****             xCallbackCounter.ulUnidentified += 1;
 218:D:/Work/DeviceTester/amazon-freertos/tests/common/mqtt\aws_test_mqtt_lib.c **** 
 219:D:/Work/DeviceTester/amazon-freertos/tests/common/mqtt\aws_test_mqtt_lib.c ****             break;
 220:D:/Work/DeviceTester/amazon-freertos/tests/common/mqtt\aws_test_mqtt_lib.c ****     }
 221:D:/Work/DeviceTester/amazon-freertos/tests/common/mqtt\aws_test_mqtt_lib.c **** 
 222:D:/Work/DeviceTester/amazon-freertos/tests/common/mqtt\aws_test_mqtt_lib.c ****     /* This value is ignored for all events other than the
 223:D:/Work/DeviceTester/amazon-freertos/tests/common/mqtt\aws_test_mqtt_lib.c ****      * publish messages received from the broker. */
 224:D:/Work/DeviceTester/amazon-freertos/tests/common/mqtt\aws_test_mqtt_lib.c ****     return eMQTTFalse;
 225:D:/Work/DeviceTester/amazon-freertos/tests/common/mqtt\aws_test_mqtt_lib.c **** }
 226:D:/Work/DeviceTester/amazon-freertos/tests/common/mqtt\aws_test_mqtt_lib.c **** /*-----------------------------------------------------------*/
 227:D:/Work/DeviceTester/amazon-freertos/tests/common/mqtt\aws_test_mqtt_lib.c **** 
 228:D:/Work/DeviceTester/amazon-freertos/tests/common/mqtt\aws_test_mqtt_lib.c **** static uint32_t prvSendCallback( void * pvSendContext,
 229:D:/Work/DeviceTester/amazon-freertos/tests/common/mqtt\aws_test_mqtt_lib.c ****                                  const uint8_t * const pucData,
 230:D:/Work/DeviceTester/amazon-freertos/tests/common/mqtt\aws_test_mqtt_lib.c ****                                  uint32_t ulDataLength )
 231:D:/Work/DeviceTester/amazon-freertos/tests/common/mqtt\aws_test_mqtt_lib.c **** {
  25              		.loc 1 231 0
  26              		.cfi_startproc
  27              		@ args = 0, pretend = 0, frame = 0
  28              		@ frame_needed = 0, uses_anonymous_args = 0
  29              	.LVL0:
 232:D:/Work/DeviceTester/amazon-freertos/tests/common/mqtt\aws_test_mqtt_lib.c ****     /* Ensure that the correct context was supplied by the library. */
 233:D:/Work/DeviceTester/amazon-freertos/tests/common/mqtt\aws_test_mqtt_lib.c ****     TEST_ASSERT_EQUAL( pvSendContext, testmqttlibSEND_CONTEXT );
  30              		.loc 1 233 0
  31 0000 1430A0E3 		mov	r3, #20
 231:D:/Work/DeviceTester/amazon-freertos/tests/common/mqtt\aws_test_mqtt_lib.c ****     /* Ensure that the correct context was supplied by the library. */
  32              		.loc 1 231 0
  33 0004 13402DE9 		push	{r0, r1, r4, lr}
  34              		.cfi_def_cfa_offset 16
  35              		.cfi_offset 4, -8
  36              		.cfi_offset 14, -4
 231:D:/Work/DeviceTester/amazon-freertos/tests/common/mqtt\aws_test_mqtt_lib.c ****     /* Ensure that the correct context was supplied by the library. */
  37              		.loc 1 231 0
  38 0008 0240A0E1 		mov	r4, r2
  39              		.loc 1 233 0
  40 000c 00308DE5 		str	r3, [sp]
  41 0010 0020A0E3 		mov	r2, #0
  42              	.LVL1:
  43 0014 E930A0E3 		mov	r3, #233
  44 0018 0C109FE5 		ldr	r1, .L3
  45              	.LVL2:
  46 001c FEFFFFEB 		bl	UnityAssertEqualNumber
  47              	.LVL3:
 234:D:/Work/DeviceTester/amazon-freertos/tests/common/mqtt\aws_test_mqtt_lib.c **** 
 235:D:/Work/DeviceTester/amazon-freertos/tests/common/mqtt\aws_test_mqtt_lib.c ****     /* Mimic that everything was sent successfully. */
 236:D:/Work/DeviceTester/amazon-freertos/tests/common/mqtt\aws_test_mqtt_lib.c ****     return ulDataLength;
 237:D:/Work/DeviceTester/amazon-freertos/tests/common/mqtt\aws_test_mqtt_lib.c **** }
  48              		.loc 1 237 0
  49 0020 0400A0E1 		mov	r0, r4
  50 0024 08D08DE2 		add	sp, sp, #8
  51              		.cfi_def_cfa_offset 8
  52              		@ sp needed
  53 0028 1080BDE8 		pop	{r4, pc}
  54              	.LVL4:
  55              	.L4:
  56              		.align	2
  57              	.L3:
  58 002c 0A0A0A0A 		.word	168430090
  59              		.cfi_endproc
  60              	.LFE1:
  62              		.section	.text.prvSendFailedCallback,"ax",%progbits
  63              		.align	2
  64              		.syntax unified
  65              		.arm
  66              		.fpu neon
  68              	prvSendFailedCallback:
  69              	.LFB2:
 238:D:/Work/DeviceTester/amazon-freertos/tests/common/mqtt\aws_test_mqtt_lib.c **** /*-----------------------------------------------------------*/
 239:D:/Work/DeviceTester/amazon-freertos/tests/common/mqtt\aws_test_mqtt_lib.c **** 
 240:D:/Work/DeviceTester/amazon-freertos/tests/common/mqtt\aws_test_mqtt_lib.c **** static uint32_t prvSendFailedCallback( void * pvSendContext,
 241:D:/Work/DeviceTester/amazon-freertos/tests/common/mqtt\aws_test_mqtt_lib.c ****                                        const uint8_t * const pucData,
 242:D:/Work/DeviceTester/amazon-freertos/tests/common/mqtt\aws_test_mqtt_lib.c ****                                        uint32_t ulDataLength )
 243:D:/Work/DeviceTester/amazon-freertos/tests/common/mqtt\aws_test_mqtt_lib.c **** {
  70              		.loc 1 243 0
  71              		.cfi_startproc
  72              		@ args = 0, pretend = 0, frame = 0
  73              		@ frame_needed = 0, uses_anonymous_args = 0
  74              	.LVL5:
 244:D:/Work/DeviceTester/amazon-freertos/tests/common/mqtt\aws_test_mqtt_lib.c ****     /* Ensure that the correct context was supplied by the library. */
 245:D:/Work/DeviceTester/amazon-freertos/tests/common/mqtt\aws_test_mqtt_lib.c ****     TEST_ASSERT_EQUAL( pvSendContext, testmqttlibSEND_CONTEXT );
  75              		.loc 1 245 0
  76 0000 1430A0E3 		mov	r3, #20
 243:D:/Work/DeviceTester/amazon-freertos/tests/common/mqtt\aws_test_mqtt_lib.c ****     /* Ensure that the correct context was supplied by the library. */
  77              		.loc 1 243 0
  78 0004 07402DE9 		push	{r0, r1, r2, lr}
  79              		.cfi_def_cfa_offset 16
  80              		.cfi_offset 14, -4
  81              		.loc 1 245 0
  82 0008 0020A0E3 		mov	r2, #0
  83              	.LVL6:
  84 000c 00308DE5 		str	r3, [sp]
  85 0010 F530A0E3 		mov	r3, #245
  86 0014 0C109FE5 		ldr	r1, .L7
  87              	.LVL7:
  88 0018 FEFFFFEB 		bl	UnityAssertEqualNumber
  89              	.LVL8:
 246:D:/Work/DeviceTester/amazon-freertos/tests/common/mqtt\aws_test_mqtt_lib.c **** 
 247:D:/Work/DeviceTester/amazon-freertos/tests/common/mqtt\aws_test_mqtt_lib.c ****     /* Mimic that no data could be sent. */
 248:D:/Work/DeviceTester/amazon-freertos/tests/common/mqtt\aws_test_mqtt_lib.c ****     return 0;
 249:D:/Work/DeviceTester/amazon-freertos/tests/common/mqtt\aws_test_mqtt_lib.c **** }
  90              		.loc 1 249 0
  91 001c 0000A0E3 		mov	r0, #0
  92 0020 0CD08DE2 		add	sp, sp, #12
  93              		.cfi_def_cfa_offset 4
  94              		@ sp needed
  95 0024 04F09DE4 		ldr	pc, [sp], #4
  96              	.L8:
  97              		.align	2
  98              	.L7:
  99 0028 0A0A0A0A 		.word	168430090
 100              		.cfi_endproc
 101              	.LFE2:
 103              		.section	.text.prvInitializeMQTTContext,"ax",%progbits
 104              		.align	2
 105              		.syntax unified
 106              		.arm
 107              		.fpu neon
 109              	prvInitializeMQTTContext:
 110              	.LFB4:
 250:D:/Work/DeviceTester/amazon-freertos/tests/common/mqtt\aws_test_mqtt_lib.c **** /*-----------------------------------------------------------*/
 251:D:/Work/DeviceTester/amazon-freertos/tests/common/mqtt\aws_test_mqtt_lib.c **** 
 252:D:/Work/DeviceTester/amazon-freertos/tests/common/mqtt\aws_test_mqtt_lib.c **** static void prvInitializeCallbackCounter( void )
 253:D:/Work/DeviceTester/amazon-freertos/tests/common/mqtt\aws_test_mqtt_lib.c **** {
 254:D:/Work/DeviceTester/amazon-freertos/tests/common/mqtt\aws_test_mqtt_lib.c ****     xCallbackCounter.ulConnACK = 0;
 255:D:/Work/DeviceTester/amazon-freertos/tests/common/mqtt\aws_test_mqtt_lib.c ****     xCallbackCounter.ulUnexpectedConnACK = 0;
 256:D:/Work/DeviceTester/amazon-freertos/tests/common/mqtt\aws_test_mqtt_lib.c ****     xCallbackCounter.ulDisconnect = 0;
 257:D:/Work/DeviceTester/amazon-freertos/tests/common/mqtt\aws_test_mqtt_lib.c ****     xCallbackCounter.ulUnidentified = 0;
 258:D:/Work/DeviceTester/amazon-freertos/tests/common/mqtt\aws_test_mqtt_lib.c **** }
 259:D:/Work/DeviceTester/amazon-freertos/tests/common/mqtt\aws_test_mqtt_lib.c **** /*-----------------------------------------------------------*/
 260:D:/Work/DeviceTester/amazon-freertos/tests/common/mqtt\aws_test_mqtt_lib.c **** 
 261:D:/Work/DeviceTester/amazon-freertos/tests/common/mqtt\aws_test_mqtt_lib.c **** static MQTTReturnCode_t prvInitializeMQTTContext( void )
 262:D:/Work/DeviceTester/amazon-freertos/tests/common/mqtt\aws_test_mqtt_lib.c **** {
 111              		.loc 1 262 0
 112              		.cfi_startproc
 113              		@ args = 0, pretend = 0, frame = 32
 114              		@ frame_needed = 0, uses_anonymous_args = 0
 263:D:/Work/DeviceTester/amazon-freertos/tests/common/mqtt\aws_test_mqtt_lib.c ****     MQTTInitParams_t xInitParams;
 264:D:/Work/DeviceTester/amazon-freertos/tests/common/mqtt\aws_test_mqtt_lib.c ****     MQTTReturnCode_t xReturnCode;
 265:D:/Work/DeviceTester/amazon-freertos/tests/common/mqtt\aws_test_mqtt_lib.c **** 
 266:D:/Work/DeviceTester/amazon-freertos/tests/common/mqtt\aws_test_mqtt_lib.c ****     /* Setup init parameters. */
 267:D:/Work/DeviceTester/amazon-freertos/tests/common/mqtt\aws_test_mqtt_lib.c ****     xInitParams.pxCallback = &( prvMQTTEventCallback );
 115              		.loc 1 267 0
 116 0000 4C309FE5 		ldr	r3, .L11
 262:D:/Work/DeviceTester/amazon-freertos/tests/common/mqtt\aws_test_mqtt_lib.c ****     MQTTInitParams_t xInitParams;
 117              		.loc 1 262 0
 118 0004 04E02DE5 		str	lr, [sp, #-4]!
 119              		.cfi_def_cfa_offset 4
 120              		.cfi_offset 14, -4
 121 0008 24D04DE2 		sub	sp, sp, #36
 122              		.cfi_def_cfa_offset 40
 268:D:/Work/DeviceTester/amazon-freertos/tests/common/mqtt\aws_test_mqtt_lib.c ****     xInitParams.pvCallbackContext = testmqttlibCALLBACK_CONTEXT;
 269:D:/Work/DeviceTester/amazon-freertos/tests/common/mqtt\aws_test_mqtt_lib.c ****     xInitParams.pvSendContext = testmqttlibSEND_CONTEXT;
 270:D:/Work/DeviceTester/amazon-freertos/tests/common/mqtt\aws_test_mqtt_lib.c ****     xInitParams.pxMQTTSendFxn = &( prvSendCallback );
 271:D:/Work/DeviceTester/amazon-freertos/tests/common/mqtt\aws_test_mqtt_lib.c ****     xInitParams.pxGetTicksFxn = NULL;
 272:D:/Work/DeviceTester/amazon-freertos/tests/common/mqtt\aws_test_mqtt_lib.c ****     xInitParams.xBufferPoolInterface.pxGetBufferFxn = BUFFERPOOL_GetFreeBuffer;
 273:D:/Work/DeviceTester/amazon-freertos/tests/common/mqtt\aws_test_mqtt_lib.c ****     xInitParams.xBufferPoolInterface.pxReturnBufferFxn = BUFFERPOOL_ReturnBuffer;
 274:D:/Work/DeviceTester/amazon-freertos/tests/common/mqtt\aws_test_mqtt_lib.c **** 
 275:D:/Work/DeviceTester/amazon-freertos/tests/common/mqtt\aws_test_mqtt_lib.c ****     /* Initialize MQTT context. */
 276:D:/Work/DeviceTester/amazon-freertos/tests/common/mqtt\aws_test_mqtt_lib.c ****     xReturnCode = MQTT_Init( &( xMQTTContext ), &( xInitParams ) );
 123              		.loc 1 276 0
 124 000c 04108DE2 		add	r1, sp, #4
 125 0010 40009FE5 		ldr	r0, .L11+4
 267:D:/Work/DeviceTester/amazon-freertos/tests/common/mqtt\aws_test_mqtt_lib.c ****     xInitParams.pvCallbackContext = testmqttlibCALLBACK_CONTEXT;
 126              		.loc 1 267 0
 127 0014 08308DE5 		str	r3, [sp, #8]
 268:D:/Work/DeviceTester/amazon-freertos/tests/common/mqtt\aws_test_mqtt_lib.c ****     xInitParams.pvCallbackContext = testmqttlibCALLBACK_CONTEXT;
 128              		.loc 1 268 0
 129 0018 3C309FE5 		ldr	r3, .L11+8
 130 001c 04308DE5 		str	r3, [sp, #4]
 269:D:/Work/DeviceTester/amazon-freertos/tests/common/mqtt\aws_test_mqtt_lib.c ****     xInitParams.pxMQTTSendFxn = &( prvSendCallback );
 131              		.loc 1 269 0
 132 0020 38309FE5 		ldr	r3, .L11+12
 133 0024 0C308DE5 		str	r3, [sp, #12]
 270:D:/Work/DeviceTester/amazon-freertos/tests/common/mqtt\aws_test_mqtt_lib.c ****     xInitParams.pxGetTicksFxn = NULL;
 134              		.loc 1 270 0
 135 0028 34309FE5 		ldr	r3, .L11+16
 136 002c 10308DE5 		str	r3, [sp, #16]
 271:D:/Work/DeviceTester/amazon-freertos/tests/common/mqtt\aws_test_mqtt_lib.c ****     xInitParams.xBufferPoolInterface.pxGetBufferFxn = BUFFERPOOL_GetFreeBuffer;
 137              		.loc 1 271 0
 138 0030 0030A0E3 		mov	r3, #0
 139 0034 14308DE5 		str	r3, [sp, #20]
 272:D:/Work/DeviceTester/amazon-freertos/tests/common/mqtt\aws_test_mqtt_lib.c ****     xInitParams.xBufferPoolInterface.pxReturnBufferFxn = BUFFERPOOL_ReturnBuffer;
 140              		.loc 1 272 0
 141 0038 28309FE5 		ldr	r3, .L11+20
 142 003c 18308DE5 		str	r3, [sp, #24]
 273:D:/Work/DeviceTester/amazon-freertos/tests/common/mqtt\aws_test_mqtt_lib.c **** 
 143              		.loc 1 273 0
 144 0040 24309FE5 		ldr	r3, .L11+24
 145 0044 1C308DE5 		str	r3, [sp, #28]
 146              		.loc 1 276 0
 147 0048 FEFFFFEB 		bl	MQTT_Init
 148              	.LVL9:
 277:D:/Work/DeviceTester/amazon-freertos/tests/common/mqtt\aws_test_mqtt_lib.c **** 
 278:D:/Work/DeviceTester/amazon-freertos/tests/common/mqtt\aws_test_mqtt_lib.c ****     /* Return the returned code. */
 279:D:/Work/DeviceTester/amazon-freertos/tests/common/mqtt\aws_test_mqtt_lib.c ****     return xReturnCode;
 280:D:/Work/DeviceTester/amazon-freertos/tests/common/mqtt\aws_test_mqtt_lib.c **** }
 149              		.loc 1 280 0
 150 004c 24D08DE2 		add	sp, sp, #36
 151              		.cfi_def_cfa_offset 4
 152              		@ sp needed
 153 0050 04F09DE4 		ldr	pc, [sp], #4
 154              	.L12:
 155              		.align	2
 156              	.L11:
 157 0054 00000000 		.word	prvMQTTEventCallback
 158 0058 00000000 		.word	.LANCHOR0
 159 005c 5A5A5A5A 		.word	1515870810
 160 0060 0A0A0A0A 		.word	168430090
 161 0064 00000000 		.word	prvSendCallback
 162 0068 00000000 		.word	BUFFERPOOL_GetFreeBuffer
 163 006c 00000000 		.word	BUFFERPOOL_ReturnBuffer
 164              		.cfi_endproc
 165              	.LFE4:
 167              		.section	.text.TEST_Full_MQTT_SETUP,"ax",%progbits
 168              		.align	2
 169              		.global	TEST_Full_MQTT_SETUP
 170              		.syntax unified
 171              		.arm
 172              		.fpu neon
 174              	TEST_Full_MQTT_SETUP:
 175              	.LFB7:
 281:D:/Work/DeviceTester/amazon-freertos/tests/common/mqtt\aws_test_mqtt_lib.c **** /*-----------------------------------------------------------*/
 282:D:/Work/DeviceTester/amazon-freertos/tests/common/mqtt\aws_test_mqtt_lib.c **** 
 283:D:/Work/DeviceTester/amazon-freertos/tests/common/mqtt\aws_test_mqtt_lib.c **** static MQTTReturnCode_t prvSendMQTTConnect( void )
 284:D:/Work/DeviceTester/amazon-freertos/tests/common/mqtt\aws_test_mqtt_lib.c **** {
 285:D:/Work/DeviceTester/amazon-freertos/tests/common/mqtt\aws_test_mqtt_lib.c ****     MQTTConnectParams_t xConnectParams;
 286:D:/Work/DeviceTester/amazon-freertos/tests/common/mqtt\aws_test_mqtt_lib.c ****     MQTTReturnCode_t xReturnCode;
 287:D:/Work/DeviceTester/amazon-freertos/tests/common/mqtt\aws_test_mqtt_lib.c **** 
 288:D:/Work/DeviceTester/amazon-freertos/tests/common/mqtt\aws_test_mqtt_lib.c ****     /* Setup connect parameters. */
 289:D:/Work/DeviceTester/amazon-freertos/tests/common/mqtt\aws_test_mqtt_lib.c ****     xConnectParams.pucClientId = ( const uint8_t * ) "client_id";
 290:D:/Work/DeviceTester/amazon-freertos/tests/common/mqtt\aws_test_mqtt_lib.c ****     xConnectParams.usClientIdLength = ( uint16_t ) ( strlen( ( const char * ) xConnectParams.pucCli
 291:D:/Work/DeviceTester/amazon-freertos/tests/common/mqtt\aws_test_mqtt_lib.c ****     xConnectParams.pucUserName = ( const uint8_t * ) "Amazon FreeRTOS";
 292:D:/Work/DeviceTester/amazon-freertos/tests/common/mqtt\aws_test_mqtt_lib.c ****     xConnectParams.usUserNameLength = ( uint16_t ) ( strlen( ( const char * ) xConnectParams.pucUse
 293:D:/Work/DeviceTester/amazon-freertos/tests/common/mqtt\aws_test_mqtt_lib.c ****     xConnectParams.usPacketIdentifier = ( uint16_t ) testmqttlibCONNECT_PACKET_ID;
 294:D:/Work/DeviceTester/amazon-freertos/tests/common/mqtt\aws_test_mqtt_lib.c ****     xConnectParams.usKeepAliveIntervalSeconds = mqttconfigKEEP_ALIVE_INTERVAL_SECONDS;
 295:D:/Work/DeviceTester/amazon-freertos/tests/common/mqtt\aws_test_mqtt_lib.c ****     xConnectParams.ulKeepAliveActualIntervalTicks = mqttconfigKEEP_ALIVE_ACTUAL_INTERVAL_TICKS;
 296:D:/Work/DeviceTester/amazon-freertos/tests/common/mqtt\aws_test_mqtt_lib.c ****     xConnectParams.ulPingRequestTimeoutTicks = mqttconfigKEEP_ALIVE_TIMEOUT_TICKS;
 297:D:/Work/DeviceTester/amazon-freertos/tests/common/mqtt\aws_test_mqtt_lib.c ****     xConnectParams.ulTimeoutTicks = testmqttlibOPERATION_TIMEOUT_TICKS;
 298:D:/Work/DeviceTester/amazon-freertos/tests/common/mqtt\aws_test_mqtt_lib.c **** 
 299:D:/Work/DeviceTester/amazon-freertos/tests/common/mqtt\aws_test_mqtt_lib.c ****     /* Send MQTT Connect. */
 300:D:/Work/DeviceTester/amazon-freertos/tests/common/mqtt\aws_test_mqtt_lib.c ****     xReturnCode = MQTT_Connect( &( xMQTTContext ), &( xConnectParams ) );
 301:D:/Work/DeviceTester/amazon-freertos/tests/common/mqtt\aws_test_mqtt_lib.c **** 
 302:D:/Work/DeviceTester/amazon-freertos/tests/common/mqtt\aws_test_mqtt_lib.c ****     /* Return the returned code. */
 303:D:/Work/DeviceTester/amazon-freertos/tests/common/mqtt\aws_test_mqtt_lib.c ****     return xReturnCode;
 304:D:/Work/DeviceTester/amazon-freertos/tests/common/mqtt\aws_test_mqtt_lib.c **** }
 305:D:/Work/DeviceTester/amazon-freertos/tests/common/mqtt\aws_test_mqtt_lib.c **** /*-----------------------------------------------------------*/
 306:D:/Work/DeviceTester/amazon-freertos/tests/common/mqtt\aws_test_mqtt_lib.c **** 
 307:D:/Work/DeviceTester/amazon-freertos/tests/common/mqtt\aws_test_mqtt_lib.c **** static MQTTReturnCode_t prvReceiveMQTTConnACK( void )
 308:D:/Work/DeviceTester/amazon-freertos/tests/common/mqtt\aws_test_mqtt_lib.c **** {
 309:D:/Work/DeviceTester/amazon-freertos/tests/common/mqtt\aws_test_mqtt_lib.c ****     MQTTReturnCode_t xReturnCode;
 310:D:/Work/DeviceTester/amazon-freertos/tests/common/mqtt\aws_test_mqtt_lib.c ****     static const uint8_t ucConnACKMessage[] =
 311:D:/Work/DeviceTester/amazon-freertos/tests/common/mqtt\aws_test_mqtt_lib.c ****     {
 312:D:/Work/DeviceTester/amazon-freertos/tests/common/mqtt\aws_test_mqtt_lib.c ****         mqttCONTROL_CONNACK | mqttFLAGS_CONNACK, /* Fixed header control packet type. */
 313:D:/Work/DeviceTester/amazon-freertos/tests/common/mqtt\aws_test_mqtt_lib.c ****         2,                                       /* Fixed header remaining length - always 2 for CO
 314:D:/Work/DeviceTester/amazon-freertos/tests/common/mqtt\aws_test_mqtt_lib.c ****         0,                                       /* Bit 0 is SP - Session Present. */
 315:D:/Work/DeviceTester/amazon-freertos/tests/common/mqtt\aws_test_mqtt_lib.c ****         0,                                       /* Return code. */
 316:D:/Work/DeviceTester/amazon-freertos/tests/common/mqtt\aws_test_mqtt_lib.c ****     };
 317:D:/Work/DeviceTester/amazon-freertos/tests/common/mqtt\aws_test_mqtt_lib.c **** 
 318:D:/Work/DeviceTester/amazon-freertos/tests/common/mqtt\aws_test_mqtt_lib.c ****     /* Receive CONNACK. */
 319:D:/Work/DeviceTester/amazon-freertos/tests/common/mqtt\aws_test_mqtt_lib.c ****     xReturnCode = MQTT_ParseReceivedData( &( xMQTTContext ), ucConnACKMessage, sizeof( ucConnACKMes
 320:D:/Work/DeviceTester/amazon-freertos/tests/common/mqtt\aws_test_mqtt_lib.c **** 
 321:D:/Work/DeviceTester/amazon-freertos/tests/common/mqtt\aws_test_mqtt_lib.c ****     /* Return the returned code. */
 322:D:/Work/DeviceTester/amazon-freertos/tests/common/mqtt\aws_test_mqtt_lib.c ****     return xReturnCode;
 323:D:/Work/DeviceTester/amazon-freertos/tests/common/mqtt\aws_test_mqtt_lib.c **** }
 324:D:/Work/DeviceTester/amazon-freertos/tests/common/mqtt\aws_test_mqtt_lib.c **** /*-----------------------------------------------------------*/
 325:D:/Work/DeviceTester/amazon-freertos/tests/common/mqtt\aws_test_mqtt_lib.c **** 
 326:D:/Work/DeviceTester/amazon-freertos/tests/common/mqtt\aws_test_mqtt_lib.c **** /* Define Test Group. */
 327:D:/Work/DeviceTester/amazon-freertos/tests/common/mqtt\aws_test_mqtt_lib.c **** TEST_GROUP( Full_MQTT );
 328:D:/Work/DeviceTester/amazon-freertos/tests/common/mqtt\aws_test_mqtt_lib.c **** /*-----------------------------------------------------------*/
 329:D:/Work/DeviceTester/amazon-freertos/tests/common/mqtt\aws_test_mqtt_lib.c **** 
 330:D:/Work/DeviceTester/amazon-freertos/tests/common/mqtt\aws_test_mqtt_lib.c **** /**
 331:D:/Work/DeviceTester/amazon-freertos/tests/common/mqtt\aws_test_mqtt_lib.c ****  * @brief Setup function called before each test in this group is executed.
 332:D:/Work/DeviceTester/amazon-freertos/tests/common/mqtt\aws_test_mqtt_lib.c ****  */
 333:D:/Work/DeviceTester/amazon-freertos/tests/common/mqtt\aws_test_mqtt_lib.c **** TEST_SETUP( Full_MQTT )
 334:D:/Work/DeviceTester/amazon-freertos/tests/common/mqtt\aws_test_mqtt_lib.c **** {
 176              		.loc 1 334 0
 177              		.cfi_startproc
 178              		@ args = 0, pretend = 0, frame = 0
 179              		@ frame_needed = 0, uses_anonymous_args = 0
 180 0000 07402DE9 		push	{r0, r1, r2, lr}
 181              		.cfi_def_cfa_offset 16
 182              		.cfi_offset 14, -4
 335:D:/Work/DeviceTester/amazon-freertos/tests/common/mqtt\aws_test_mqtt_lib.c ****     MQTTReturnCode_t xReturnCode;
 336:D:/Work/DeviceTester/amazon-freertos/tests/common/mqtt\aws_test_mqtt_lib.c **** 
 337:D:/Work/DeviceTester/amazon-freertos/tests/common/mqtt\aws_test_mqtt_lib.c ****     /* Each test starts with a fresh context state. */
 338:D:/Work/DeviceTester/amazon-freertos/tests/common/mqtt\aws_test_mqtt_lib.c ****     xReturnCode = prvInitializeMQTTContext();
 183              		.loc 1 338 0
 184 0004 FEFFFFEB 		bl	prvInitializeMQTTContext
 185              	.LVL10:
 339:D:/Work/DeviceTester/amazon-freertos/tests/common/mqtt\aws_test_mqtt_lib.c **** 
 340:D:/Work/DeviceTester/amazon-freertos/tests/common/mqtt\aws_test_mqtt_lib.c ****     /* Ensure that the context was initialized successfully. */
 341:D:/Work/DeviceTester/amazon-freertos/tests/common/mqtt\aws_test_mqtt_lib.c ****     TEST_ASSERT_EQUAL( eMQTTSuccess, xReturnCode );
 186              		.loc 1 341 0
 187 0008 0020A0E3 		mov	r2, #0
 188 000c 1430A0E3 		mov	r3, #20
 189 0010 00308DE5 		str	r3, [sp]
 190 0014 0010A0E1 		mov	r1, r0
 191 0018 553100E3 		movw	r3, #341
 192 001c 0200A0E1 		mov	r0, r2
 193              	.LVL11:
 194 0020 FEFFFFEB 		bl	UnityAssertEqualNumber
 195              	.LVL12:
 196              	.LBB4:
 197              	.LBB5:
 254:D:/Work/DeviceTester/amazon-freertos/tests/common/mqtt\aws_test_mqtt_lib.c ****     xCallbackCounter.ulUnexpectedConnACK = 0;
 198              		.loc 1 254 0
 199 0024 18309FE5 		ldr	r3, .L15
 200 0028 0020A0E3 		mov	r2, #0
 201 002c 002083E5 		str	r2, [r3]
 255:D:/Work/DeviceTester/amazon-freertos/tests/common/mqtt\aws_test_mqtt_lib.c ****     xCallbackCounter.ulDisconnect = 0;
 202              		.loc 1 255 0
 203 0030 042083E5 		str	r2, [r3, #4]
 256:D:/Work/DeviceTester/amazon-freertos/tests/common/mqtt\aws_test_mqtt_lib.c ****     xCallbackCounter.ulUnidentified = 0;
 204              		.loc 1 256 0
 205 0034 082083E5 		str	r2, [r3, #8]
 257:D:/Work/DeviceTester/amazon-freertos/tests/common/mqtt\aws_test_mqtt_lib.c **** }
 206              		.loc 1 257 0
 207 0038 0C2083E5 		str	r2, [r3, #12]
 208              	.LBE5:
 209              	.LBE4:
 342:D:/Work/DeviceTester/amazon-freertos/tests/common/mqtt\aws_test_mqtt_lib.c **** 
 343:D:/Work/DeviceTester/amazon-freertos/tests/common/mqtt\aws_test_mqtt_lib.c ****     /* Reset callback counters before each test. */
 344:D:/Work/DeviceTester/amazon-freertos/tests/common/mqtt\aws_test_mqtt_lib.c ****     prvInitializeCallbackCounter();
 345:D:/Work/DeviceTester/amazon-freertos/tests/common/mqtt\aws_test_mqtt_lib.c **** }
 210              		.loc 1 345 0
 211 003c 0CD08DE2 		add	sp, sp, #12
 212              		.cfi_def_cfa_offset 4
 213              		@ sp needed
 214 0040 04F09DE4 		ldr	pc, [sp], #4
 215              	.L16:
 216              		.align	2
 217              	.L15:
 218 0044 00000000 		.word	.LANCHOR1
 219              		.cfi_endproc
 220              	.LFE7:
 222              		.section	.text.TEST_Full_MQTT_AFQP_MQTT_Init_HappyCase_,"ax",%progbits
 223              		.align	2
 224              		.global	TEST_Full_MQTT_AFQP_MQTT_Init_HappyCase_
 225              		.syntax unified
 226              		.arm
 227              		.fpu neon
 229              	TEST_Full_MQTT_AFQP_MQTT_Init_HappyCase_:
 230              	.LFB19:
 346:D:/Work/DeviceTester/amazon-freertos/tests/common/mqtt\aws_test_mqtt_lib.c **** /*-----------------------------------------------------------*/
 347:D:/Work/DeviceTester/amazon-freertos/tests/common/mqtt\aws_test_mqtt_lib.c **** 
 348:D:/Work/DeviceTester/amazon-freertos/tests/common/mqtt\aws_test_mqtt_lib.c **** /**
 349:D:/Work/DeviceTester/amazon-freertos/tests/common/mqtt\aws_test_mqtt_lib.c ****  * @brief Tear down function called after each test in this group is executed.
 350:D:/Work/DeviceTester/amazon-freertos/tests/common/mqtt\aws_test_mqtt_lib.c ****  */
 351:D:/Work/DeviceTester/amazon-freertos/tests/common/mqtt\aws_test_mqtt_lib.c **** TEST_TEAR_DOWN( Full_MQTT )
 352:D:/Work/DeviceTester/amazon-freertos/tests/common/mqtt\aws_test_mqtt_lib.c **** {
 353:D:/Work/DeviceTester/amazon-freertos/tests/common/mqtt\aws_test_mqtt_lib.c ****     /* Each test leaves the context in fresh state. */
 354:D:/Work/DeviceTester/amazon-freertos/tests/common/mqtt\aws_test_mqtt_lib.c ****     Test_prvResetMQTTContext( &( xMQTTContext ) );
 355:D:/Work/DeviceTester/amazon-freertos/tests/common/mqtt\aws_test_mqtt_lib.c **** }
 356:D:/Work/DeviceTester/amazon-freertos/tests/common/mqtt\aws_test_mqtt_lib.c **** /*-----------------------------------------------------------*/
 357:D:/Work/DeviceTester/amazon-freertos/tests/common/mqtt\aws_test_mqtt_lib.c **** 
 358:D:/Work/DeviceTester/amazon-freertos/tests/common/mqtt\aws_test_mqtt_lib.c **** /**
 359:D:/Work/DeviceTester/amazon-freertos/tests/common/mqtt\aws_test_mqtt_lib.c ****  * @brief Function to define which tests to execute as part of this group.
 360:D:/Work/DeviceTester/amazon-freertos/tests/common/mqtt\aws_test_mqtt_lib.c ****  */
 361:D:/Work/DeviceTester/amazon-freertos/tests/common/mqtt\aws_test_mqtt_lib.c **** TEST_GROUP_RUNNER( Full_MQTT )
 362:D:/Work/DeviceTester/amazon-freertos/tests/common/mqtt\aws_test_mqtt_lib.c **** {
 363:D:/Work/DeviceTester/amazon-freertos/tests/common/mqtt\aws_test_mqtt_lib.c ****     RUN_TEST_CASE( Full_MQTT, AFQP_prvGetTopicFilterType_HappyCases );
 364:D:/Work/DeviceTester/amazon-freertos/tests/common/mqtt\aws_test_mqtt_lib.c ****     RUN_TEST_CASE( Full_MQTT, AFQP_prvGetTopicFilterType_ErrorCases );
 365:D:/Work/DeviceTester/amazon-freertos/tests/common/mqtt\aws_test_mqtt_lib.c **** 
 366:D:/Work/DeviceTester/amazon-freertos/tests/common/mqtt\aws_test_mqtt_lib.c ****     RUN_TEST_CASE( Full_MQTT, AFQP_prvDoesTopicMatchTopicFilter_MatchCases );
 367:D:/Work/DeviceTester/amazon-freertos/tests/common/mqtt\aws_test_mqtt_lib.c ****     RUN_TEST_CASE( Full_MQTT, AFQP_prvDoesTopicMatchTopicFilter_NotMatchCases );
 368:D:/Work/DeviceTester/amazon-freertos/tests/common/mqtt\aws_test_mqtt_lib.c **** 
 369:D:/Work/DeviceTester/amazon-freertos/tests/common/mqtt\aws_test_mqtt_lib.c ****     /* MQTT_Init tests. */
 370:D:/Work/DeviceTester/amazon-freertos/tests/common/mqtt\aws_test_mqtt_lib.c ****     RUN_TEST_CASE( Full_MQTT, AFQP_MQTT_Init_HappyCase );
 371:D:/Work/DeviceTester/amazon-freertos/tests/common/mqtt\aws_test_mqtt_lib.c ****     RUN_TEST_CASE( Full_MQTT, AFQP_MQTT_Init_NULLParams );
 372:D:/Work/DeviceTester/amazon-freertos/tests/common/mqtt\aws_test_mqtt_lib.c **** 
 373:D:/Work/DeviceTester/amazon-freertos/tests/common/mqtt\aws_test_mqtt_lib.c ****     /* MQTT_Connect tests. */
 374:D:/Work/DeviceTester/amazon-freertos/tests/common/mqtt\aws_test_mqtt_lib.c ****     RUN_TEST_CASE( Full_MQTT, AFQP_MQTT_Connect_HappyCase );
 375:D:/Work/DeviceTester/amazon-freertos/tests/common/mqtt\aws_test_mqtt_lib.c ****     RUN_TEST_CASE( Full_MQTT, AFQP_MQTT_Connect_BrokerRejectsConnection );
 376:D:/Work/DeviceTester/amazon-freertos/tests/common/mqtt\aws_test_mqtt_lib.c ****     RUN_TEST_CASE( Full_MQTT, AFQP_MQTT_Connect_ConnACKWithoutConnect );
 377:D:/Work/DeviceTester/amazon-freertos/tests/common/mqtt\aws_test_mqtt_lib.c ****     RUN_TEST_CASE( Full_MQTT, AFQP_MQTT_Connect_ReservedReturnCodeFromBroker );
 378:D:/Work/DeviceTester/amazon-freertos/tests/common/mqtt\aws_test_mqtt_lib.c ****     RUN_TEST_CASE( Full_MQTT, AFQP_MQTT_Connect_ShorterConnACK );
 379:D:/Work/DeviceTester/amazon-freertos/tests/common/mqtt\aws_test_mqtt_lib.c ****     RUN_TEST_CASE( Full_MQTT, AFQP_MQTT_Connect_LongerConnACK );
 380:D:/Work/DeviceTester/amazon-freertos/tests/common/mqtt\aws_test_mqtt_lib.c ****     RUN_TEST_CASE( Full_MQTT, AFQP_MQTT_Connect_NULLParams );
 381:D:/Work/DeviceTester/amazon-freertos/tests/common/mqtt\aws_test_mqtt_lib.c ****     RUN_TEST_CASE( Full_MQTT, AFQP_MQTT_Connect_SecondConnectWhileAlreadyConnected );
 382:D:/Work/DeviceTester/amazon-freertos/tests/common/mqtt\aws_test_mqtt_lib.c ****     RUN_TEST_CASE( Full_MQTT, AFQP_MQTT_Connect_SecondConnectWhileWaitingForConnACK );
 383:D:/Work/DeviceTester/amazon-freertos/tests/common/mqtt\aws_test_mqtt_lib.c ****     RUN_TEST_CASE( Full_MQTT, AFQP_MQTT_Connect_NetworkSendFailed );
 384:D:/Work/DeviceTester/amazon-freertos/tests/common/mqtt\aws_test_mqtt_lib.c **** }
 385:D:/Work/DeviceTester/amazon-freertos/tests/common/mqtt\aws_test_mqtt_lib.c **** /*-----------------------------------------------------------*/
 386:D:/Work/DeviceTester/amazon-freertos/tests/common/mqtt\aws_test_mqtt_lib.c **** 
 387:D:/Work/DeviceTester/amazon-freertos/tests/common/mqtt\aws_test_mqtt_lib.c **** /**
 388:D:/Work/DeviceTester/amazon-freertos/tests/common/mqtt\aws_test_mqtt_lib.c ****  * @brief Valid topic filter test cases for the function prvGetTopicFilterType.
 389:D:/Work/DeviceTester/amazon-freertos/tests/common/mqtt\aws_test_mqtt_lib.c ****  */
 390:D:/Work/DeviceTester/amazon-freertos/tests/common/mqtt\aws_test_mqtt_lib.c **** TEST( Full_MQTT, AFQP_prvGetTopicFilterType_HappyCases )
 391:D:/Work/DeviceTester/amazon-freertos/tests/common/mqtt\aws_test_mqtt_lib.c **** {
 392:D:/Work/DeviceTester/amazon-freertos/tests/common/mqtt\aws_test_mqtt_lib.c ****     MQTTTopicFilterType_t xTopicFilterType;
 393:D:/Work/DeviceTester/amazon-freertos/tests/common/mqtt\aws_test_mqtt_lib.c **** 
 394:D:/Work/DeviceTester/amazon-freertos/tests/common/mqtt\aws_test_mqtt_lib.c ****     /* Simple topic filter without any separators. */
 395:D:/Work/DeviceTester/amazon-freertos/tests/common/mqtt\aws_test_mqtt_lib.c ****     xTopicFilterType = Test_prvGetTopicFilterType( ( const uint8_t * ) "aws", ( uint16_t ) strlen( 
 396:D:/Work/DeviceTester/amazon-freertos/tests/common/mqtt\aws_test_mqtt_lib.c ****     TEST_ASSERT_EQUAL( eMQTTTopicFilterTypeSimple, xTopicFilterType );
 397:D:/Work/DeviceTester/amazon-freertos/tests/common/mqtt\aws_test_mqtt_lib.c **** 
 398:D:/Work/DeviceTester/amazon-freertos/tests/common/mqtt\aws_test_mqtt_lib.c ****     /* Simple topic filter with separators. */
 399:D:/Work/DeviceTester/amazon-freertos/tests/common/mqtt\aws_test_mqtt_lib.c ****     xTopicFilterType = Test_prvGetTopicFilterType( ( const uint8_t * ) "aws/iot", ( uint16_t ) strl
 400:D:/Work/DeviceTester/amazon-freertos/tests/common/mqtt\aws_test_mqtt_lib.c ****     TEST_ASSERT_EQUAL( eMQTTTopicFilterTypeSimple, xTopicFilterType );
 401:D:/Work/DeviceTester/amazon-freertos/tests/common/mqtt\aws_test_mqtt_lib.c **** 
 402:D:/Work/DeviceTester/amazon-freertos/tests/common/mqtt\aws_test_mqtt_lib.c ****     /* '+' wild card topic filters. */
 403:D:/Work/DeviceTester/amazon-freertos/tests/common/mqtt\aws_test_mqtt_lib.c ****     xTopicFilterType = Test_prvGetTopicFilterType( ( const uint8_t * ) "+", ( uint16_t ) strlen( "+
 404:D:/Work/DeviceTester/amazon-freertos/tests/common/mqtt\aws_test_mqtt_lib.c ****     TEST_ASSERT_EQUAL( eMQTTTopicFilterTypeWildCard, xTopicFilterType );
 405:D:/Work/DeviceTester/amazon-freertos/tests/common/mqtt\aws_test_mqtt_lib.c **** 
 406:D:/Work/DeviceTester/amazon-freertos/tests/common/mqtt\aws_test_mqtt_lib.c ****     xTopicFilterType = Test_prvGetTopicFilterType( ( const uint8_t * ) "a/b/+", ( uint16_t ) strlen
 407:D:/Work/DeviceTester/amazon-freertos/tests/common/mqtt\aws_test_mqtt_lib.c ****     TEST_ASSERT_EQUAL( eMQTTTopicFilterTypeWildCard, xTopicFilterType );
 408:D:/Work/DeviceTester/amazon-freertos/tests/common/mqtt\aws_test_mqtt_lib.c **** 
 409:D:/Work/DeviceTester/amazon-freertos/tests/common/mqtt\aws_test_mqtt_lib.c ****     xTopicFilterType = Test_prvGetTopicFilterType( ( const uint8_t * ) "a/b/+/d", ( uint16_t ) strl
 410:D:/Work/DeviceTester/amazon-freertos/tests/common/mqtt\aws_test_mqtt_lib.c ****     TEST_ASSERT_EQUAL( eMQTTTopicFilterTypeWildCard, xTopicFilterType );
 411:D:/Work/DeviceTester/amazon-freertos/tests/common/mqtt\aws_test_mqtt_lib.c **** 
 412:D:/Work/DeviceTester/amazon-freertos/tests/common/mqtt\aws_test_mqtt_lib.c ****     xTopicFilterType = Test_prvGetTopicFilterType( ( const uint8_t * ) "+/a/b", ( uint16_t ) strlen
 413:D:/Work/DeviceTester/amazon-freertos/tests/common/mqtt\aws_test_mqtt_lib.c ****     TEST_ASSERT_EQUAL( eMQTTTopicFilterTypeWildCard, xTopicFilterType );
 414:D:/Work/DeviceTester/amazon-freertos/tests/common/mqtt\aws_test_mqtt_lib.c **** 
 415:D:/Work/DeviceTester/amazon-freertos/tests/common/mqtt\aws_test_mqtt_lib.c ****     /* '#' wild card topic filters. */
 416:D:/Work/DeviceTester/amazon-freertos/tests/common/mqtt\aws_test_mqtt_lib.c ****     xTopicFilterType = Test_prvGetTopicFilterType( ( const uint8_t * ) "#", ( uint16_t ) strlen( "#
 417:D:/Work/DeviceTester/amazon-freertos/tests/common/mqtt\aws_test_mqtt_lib.c ****     TEST_ASSERT_EQUAL( eMQTTTopicFilterTypeWildCard, xTopicFilterType );
 418:D:/Work/DeviceTester/amazon-freertos/tests/common/mqtt\aws_test_mqtt_lib.c **** 
 419:D:/Work/DeviceTester/amazon-freertos/tests/common/mqtt\aws_test_mqtt_lib.c ****     xTopicFilterType = Test_prvGetTopicFilterType( ( const uint8_t * ) "a/b/#", ( uint16_t ) strlen
 420:D:/Work/DeviceTester/amazon-freertos/tests/common/mqtt\aws_test_mqtt_lib.c ****     TEST_ASSERT_EQUAL( eMQTTTopicFilterTypeWildCard, xTopicFilterType );
 421:D:/Work/DeviceTester/amazon-freertos/tests/common/mqtt\aws_test_mqtt_lib.c **** 
 422:D:/Work/DeviceTester/amazon-freertos/tests/common/mqtt\aws_test_mqtt_lib.c ****     /* Mixed wild card topic filters. */
 423:D:/Work/DeviceTester/amazon-freertos/tests/common/mqtt\aws_test_mqtt_lib.c ****     xTopicFilterType = Test_prvGetTopicFilterType( ( const uint8_t * ) "a/+/b/#", ( uint16_t ) strl
 424:D:/Work/DeviceTester/amazon-freertos/tests/common/mqtt\aws_test_mqtt_lib.c ****     TEST_ASSERT_EQUAL( eMQTTTopicFilterTypeWildCard, xTopicFilterType );
 425:D:/Work/DeviceTester/amazon-freertos/tests/common/mqtt\aws_test_mqtt_lib.c **** }
 426:D:/Work/DeviceTester/amazon-freertos/tests/common/mqtt\aws_test_mqtt_lib.c **** /*-----------------------------------------------------------*/
 427:D:/Work/DeviceTester/amazon-freertos/tests/common/mqtt\aws_test_mqtt_lib.c **** 
 428:D:/Work/DeviceTester/amazon-freertos/tests/common/mqtt\aws_test_mqtt_lib.c **** /**
 429:D:/Work/DeviceTester/amazon-freertos/tests/common/mqtt\aws_test_mqtt_lib.c ****  * @brief Invalid topic filter test cases for the function prvGetTopicFilterType.
 430:D:/Work/DeviceTester/amazon-freertos/tests/common/mqtt\aws_test_mqtt_lib.c ****  */
 431:D:/Work/DeviceTester/amazon-freertos/tests/common/mqtt\aws_test_mqtt_lib.c **** TEST( Full_MQTT, AFQP_prvGetTopicFilterType_ErrorCases )
 432:D:/Work/DeviceTester/amazon-freertos/tests/common/mqtt\aws_test_mqtt_lib.c **** {
 433:D:/Work/DeviceTester/amazon-freertos/tests/common/mqtt\aws_test_mqtt_lib.c ****     MQTTTopicFilterType_t xTopicFilterType;
 434:D:/Work/DeviceTester/amazon-freertos/tests/common/mqtt\aws_test_mqtt_lib.c **** 
 435:D:/Work/DeviceTester/amazon-freertos/tests/common/mqtt\aws_test_mqtt_lib.c ****     /* Multiple '#' characters. */
 436:D:/Work/DeviceTester/amazon-freertos/tests/common/mqtt\aws_test_mqtt_lib.c ****     xTopicFilterType = Test_prvGetTopicFilterType( ( const uint8_t * ) "##", ( uint16_t ) strlen( "
 437:D:/Work/DeviceTester/amazon-freertos/tests/common/mqtt\aws_test_mqtt_lib.c ****     TEST_ASSERT_EQUAL( eMQTTTopicFilterTypeInvalid, xTopicFilterType );
 438:D:/Work/DeviceTester/amazon-freertos/tests/common/mqtt\aws_test_mqtt_lib.c **** 
 439:D:/Work/DeviceTester/amazon-freertos/tests/common/mqtt\aws_test_mqtt_lib.c ****     /* '#' not preceded by '/'. */
 440:D:/Work/DeviceTester/amazon-freertos/tests/common/mqtt\aws_test_mqtt_lib.c ****     xTopicFilterType = Test_prvGetTopicFilterType( ( const uint8_t * ) "/aws/iot#", ( uint16_t ) st
 441:D:/Work/DeviceTester/amazon-freertos/tests/common/mqtt\aws_test_mqtt_lib.c ****     TEST_ASSERT_EQUAL( eMQTTTopicFilterTypeInvalid, xTopicFilterType );
 442:D:/Work/DeviceTester/amazon-freertos/tests/common/mqtt\aws_test_mqtt_lib.c **** 
 443:D:/Work/DeviceTester/amazon-freertos/tests/common/mqtt\aws_test_mqtt_lib.c ****     /* '#' not the last character. */
 444:D:/Work/DeviceTester/amazon-freertos/tests/common/mqtt\aws_test_mqtt_lib.c ****     xTopicFilterType = Test_prvGetTopicFilterType( ( const uint8_t * ) "/aws/#/iot", ( uint16_t ) s
 445:D:/Work/DeviceTester/amazon-freertos/tests/common/mqtt\aws_test_mqtt_lib.c ****     TEST_ASSERT_EQUAL( eMQTTTopicFilterTypeInvalid, xTopicFilterType );
 446:D:/Work/DeviceTester/amazon-freertos/tests/common/mqtt\aws_test_mqtt_lib.c **** 
 447:D:/Work/DeviceTester/amazon-freertos/tests/common/mqtt\aws_test_mqtt_lib.c ****     /* Multiple '#' at the same topic level. */
 448:D:/Work/DeviceTester/amazon-freertos/tests/common/mqtt\aws_test_mqtt_lib.c ****     xTopicFilterType = Test_prvGetTopicFilterType( ( const uint8_t * ) "/aws/##/iot", ( uint16_t ) 
 449:D:/Work/DeviceTester/amazon-freertos/tests/common/mqtt\aws_test_mqtt_lib.c ****     TEST_ASSERT_EQUAL( eMQTTTopicFilterTypeInvalid, xTopicFilterType );
 450:D:/Work/DeviceTester/amazon-freertos/tests/common/mqtt\aws_test_mqtt_lib.c **** 
 451:D:/Work/DeviceTester/amazon-freertos/tests/common/mqtt\aws_test_mqtt_lib.c ****     /* Multiple consecutive '+'. */
 452:D:/Work/DeviceTester/amazon-freertos/tests/common/mqtt\aws_test_mqtt_lib.c ****     xTopicFilterType = Test_prvGetTopicFilterType( ( const uint8_t * ) "++", ( uint16_t ) strlen( "
 453:D:/Work/DeviceTester/amazon-freertos/tests/common/mqtt\aws_test_mqtt_lib.c ****     TEST_ASSERT_EQUAL( eMQTTTopicFilterTypeInvalid, xTopicFilterType );
 454:D:/Work/DeviceTester/amazon-freertos/tests/common/mqtt\aws_test_mqtt_lib.c **** 
 455:D:/Work/DeviceTester/amazon-freertos/tests/common/mqtt\aws_test_mqtt_lib.c ****     /* '+' not preceded by '/'. */
 456:D:/Work/DeviceTester/amazon-freertos/tests/common/mqtt\aws_test_mqtt_lib.c ****     xTopicFilterType = Test_prvGetTopicFilterType( ( const uint8_t * ) "/aws/iot+", ( uint16_t ) st
 457:D:/Work/DeviceTester/amazon-freertos/tests/common/mqtt\aws_test_mqtt_lib.c ****     TEST_ASSERT_EQUAL( eMQTTTopicFilterTypeInvalid, xTopicFilterType );
 458:D:/Work/DeviceTester/amazon-freertos/tests/common/mqtt\aws_test_mqtt_lib.c **** 
 459:D:/Work/DeviceTester/amazon-freertos/tests/common/mqtt\aws_test_mqtt_lib.c ****     /* Multiple consecutive '+' in between. */
 460:D:/Work/DeviceTester/amazon-freertos/tests/common/mqtt\aws_test_mqtt_lib.c ****     xTopicFilterType = Test_prvGetTopicFilterType( ( const uint8_t * ) "/aws/++/iot", ( uint16_t ) 
 461:D:/Work/DeviceTester/amazon-freertos/tests/common/mqtt\aws_test_mqtt_lib.c ****     TEST_ASSERT_EQUAL( eMQTTTopicFilterTypeInvalid, xTopicFilterType );
 462:D:/Work/DeviceTester/amazon-freertos/tests/common/mqtt\aws_test_mqtt_lib.c **** 
 463:D:/Work/DeviceTester/amazon-freertos/tests/common/mqtt\aws_test_mqtt_lib.c ****     /* Invalid mix of '#' and '+'. */
 464:D:/Work/DeviceTester/amazon-freertos/tests/common/mqtt\aws_test_mqtt_lib.c ****     xTopicFilterType = Test_prvGetTopicFilterType( ( const uint8_t * ) "/aws/#+/iot", ( uint16_t ) 
 465:D:/Work/DeviceTester/amazon-freertos/tests/common/mqtt\aws_test_mqtt_lib.c ****     TEST_ASSERT_EQUAL( eMQTTTopicFilterTypeInvalid, xTopicFilterType );
 466:D:/Work/DeviceTester/amazon-freertos/tests/common/mqtt\aws_test_mqtt_lib.c **** 
 467:D:/Work/DeviceTester/amazon-freertos/tests/common/mqtt\aws_test_mqtt_lib.c ****     /* Invalid mix of '#' and '+'. */
 468:D:/Work/DeviceTester/amazon-freertos/tests/common/mqtt\aws_test_mqtt_lib.c ****     xTopicFilterType = Test_prvGetTopicFilterType( ( const uint8_t * ) "/aws/+#/iot", ( uint16_t ) 
 469:D:/Work/DeviceTester/amazon-freertos/tests/common/mqtt\aws_test_mqtt_lib.c ****     TEST_ASSERT_EQUAL( eMQTTTopicFilterTypeInvalid, xTopicFilterType );
 470:D:/Work/DeviceTester/amazon-freertos/tests/common/mqtt\aws_test_mqtt_lib.c **** }
 471:D:/Work/DeviceTester/amazon-freertos/tests/common/mqtt\aws_test_mqtt_lib.c **** /*-----------------------------------------------------------*/
 472:D:/Work/DeviceTester/amazon-freertos/tests/common/mqtt\aws_test_mqtt_lib.c **** 
 473:D:/Work/DeviceTester/amazon-freertos/tests/common/mqtt\aws_test_mqtt_lib.c **** /**
 474:D:/Work/DeviceTester/amazon-freertos/tests/common/mqtt\aws_test_mqtt_lib.c ****  * @brief Tests for prvDoesTopicMatchTopicFilter where the topic matches the given filter..
 475:D:/Work/DeviceTester/amazon-freertos/tests/common/mqtt\aws_test_mqtt_lib.c ****  */
 476:D:/Work/DeviceTester/amazon-freertos/tests/common/mqtt\aws_test_mqtt_lib.c **** TEST( Full_MQTT, AFQP_prvDoesTopicMatchTopicFilter_MatchCases )
 477:D:/Work/DeviceTester/amazon-freertos/tests/common/mqtt\aws_test_mqtt_lib.c **** {
 478:D:/Work/DeviceTester/amazon-freertos/tests/common/mqtt\aws_test_mqtt_lib.c ****     MQTTBool_t xTopicMatchesTopicFilter;
 479:D:/Work/DeviceTester/amazon-freertos/tests/common/mqtt\aws_test_mqtt_lib.c **** 
 480:D:/Work/DeviceTester/amazon-freertos/tests/common/mqtt\aws_test_mqtt_lib.c ****     /* Simple topic filter with no separator. */
 481:D:/Work/DeviceTester/amazon-freertos/tests/common/mqtt\aws_test_mqtt_lib.c ****     xTopicMatchesTopicFilter = Test_prvDoesTopicMatchTopicFilter( ( const uint8_t * ) "aws",
 482:D:/Work/DeviceTester/amazon-freertos/tests/common/mqtt\aws_test_mqtt_lib.c ****                                                                   ( uint16_t ) strlen( "aws" ),
 483:D:/Work/DeviceTester/amazon-freertos/tests/common/mqtt\aws_test_mqtt_lib.c ****                                                                   ( const uint8_t * ) "aws",
 484:D:/Work/DeviceTester/amazon-freertos/tests/common/mqtt\aws_test_mqtt_lib.c ****                                                                   ( uint16_t ) strlen( "aws" ) );
 485:D:/Work/DeviceTester/amazon-freertos/tests/common/mqtt\aws_test_mqtt_lib.c ****     TEST_ASSERT_EQUAL( eMQTTTrue, xTopicMatchesTopicFilter );
 486:D:/Work/DeviceTester/amazon-freertos/tests/common/mqtt\aws_test_mqtt_lib.c **** 
 487:D:/Work/DeviceTester/amazon-freertos/tests/common/mqtt\aws_test_mqtt_lib.c ****     /* Simple topic filter with separators. */
 488:D:/Work/DeviceTester/amazon-freertos/tests/common/mqtt\aws_test_mqtt_lib.c ****     xTopicMatchesTopicFilter = Test_prvDoesTopicMatchTopicFilter( ( const uint8_t * ) "aws/iot",
 489:D:/Work/DeviceTester/amazon-freertos/tests/common/mqtt\aws_test_mqtt_lib.c ****                                                                   ( uint16_t ) strlen( "aws/iot" ),
 490:D:/Work/DeviceTester/amazon-freertos/tests/common/mqtt\aws_test_mqtt_lib.c ****                                                                   ( const uint8_t * ) "aws/iot",
 491:D:/Work/DeviceTester/amazon-freertos/tests/common/mqtt\aws_test_mqtt_lib.c ****                                                                   ( uint16_t ) strlen( "aws/iot" ) 
 492:D:/Work/DeviceTester/amazon-freertos/tests/common/mqtt\aws_test_mqtt_lib.c ****     TEST_ASSERT_EQUAL( eMQTTTrue, xTopicMatchesTopicFilter );
 493:D:/Work/DeviceTester/amazon-freertos/tests/common/mqtt\aws_test_mqtt_lib.c **** 
 494:D:/Work/DeviceTester/amazon-freertos/tests/common/mqtt\aws_test_mqtt_lib.c ****     /* Empty topic level. */
 495:D:/Work/DeviceTester/amazon-freertos/tests/common/mqtt\aws_test_mqtt_lib.c ****     xTopicMatchesTopicFilter = Test_prvDoesTopicMatchTopicFilter( ( const uint8_t * ) "aws//iot",
 496:D:/Work/DeviceTester/amazon-freertos/tests/common/mqtt\aws_test_mqtt_lib.c ****                                                                   ( uint16_t ) strlen( "aws//iot" )
 497:D:/Work/DeviceTester/amazon-freertos/tests/common/mqtt\aws_test_mqtt_lib.c ****                                                                   ( const uint8_t * ) "aws//iot",
 498:D:/Work/DeviceTester/amazon-freertos/tests/common/mqtt\aws_test_mqtt_lib.c ****                                                                   ( uint16_t ) strlen( "aws//iot" )
 499:D:/Work/DeviceTester/amazon-freertos/tests/common/mqtt\aws_test_mqtt_lib.c ****     TEST_ASSERT_EQUAL( eMQTTTrue, xTopicMatchesTopicFilter );
 500:D:/Work/DeviceTester/amazon-freertos/tests/common/mqtt\aws_test_mqtt_lib.c **** 
 501:D:/Work/DeviceTester/amazon-freertos/tests/common/mqtt\aws_test_mqtt_lib.c ****     /* '+' at the end. */
 502:D:/Work/DeviceTester/amazon-freertos/tests/common/mqtt\aws_test_mqtt_lib.c ****     xTopicMatchesTopicFilter = Test_prvDoesTopicMatchTopicFilter( ( const uint8_t * ) "aws/iot",
 503:D:/Work/DeviceTester/amazon-freertos/tests/common/mqtt\aws_test_mqtt_lib.c ****                                                                   ( uint16_t ) strlen( "aws/iot" ),
 504:D:/Work/DeviceTester/amazon-freertos/tests/common/mqtt\aws_test_mqtt_lib.c ****                                                                   ( const uint8_t * ) "aws/+",
 505:D:/Work/DeviceTester/amazon-freertos/tests/common/mqtt\aws_test_mqtt_lib.c ****                                                                   ( uint16_t ) strlen( "aws/+" ) );
 506:D:/Work/DeviceTester/amazon-freertos/tests/common/mqtt\aws_test_mqtt_lib.c ****     TEST_ASSERT_EQUAL( eMQTTTrue, xTopicMatchesTopicFilter );
 507:D:/Work/DeviceTester/amazon-freertos/tests/common/mqtt\aws_test_mqtt_lib.c **** 
 508:D:/Work/DeviceTester/amazon-freertos/tests/common/mqtt\aws_test_mqtt_lib.c ****     /* '+' in between. */
 509:D:/Work/DeviceTester/amazon-freertos/tests/common/mqtt\aws_test_mqtt_lib.c ****     xTopicMatchesTopicFilter = Test_prvDoesTopicMatchTopicFilter( ( const uint8_t * ) "aws/iot/shad
 510:D:/Work/DeviceTester/amazon-freertos/tests/common/mqtt\aws_test_mqtt_lib.c ****                                                                   ( uint16_t ) strlen( "aws/iot/sha
 511:D:/Work/DeviceTester/amazon-freertos/tests/common/mqtt\aws_test_mqtt_lib.c ****                                                                   ( const uint8_t * ) "aws/+/shadow
 512:D:/Work/DeviceTester/amazon-freertos/tests/common/mqtt\aws_test_mqtt_lib.c ****                                                                   ( uint16_t ) strlen( "aws/+/shado
 513:D:/Work/DeviceTester/amazon-freertos/tests/common/mqtt\aws_test_mqtt_lib.c ****     TEST_ASSERT_EQUAL( eMQTTTrue, xTopicMatchesTopicFilter );
 514:D:/Work/DeviceTester/amazon-freertos/tests/common/mqtt\aws_test_mqtt_lib.c **** 
 515:D:/Work/DeviceTester/amazon-freertos/tests/common/mqtt\aws_test_mqtt_lib.c ****     /* More than one '+'. */
 516:D:/Work/DeviceTester/amazon-freertos/tests/common/mqtt\aws_test_mqtt_lib.c ****     xTopicMatchesTopicFilter = Test_prvDoesTopicMatchTopicFilter( ( const uint8_t * ) "aws/iot/shad
 517:D:/Work/DeviceTester/amazon-freertos/tests/common/mqtt\aws_test_mqtt_lib.c ****                                                                   ( uint16_t ) strlen( "aws/iot/sha
 518:D:/Work/DeviceTester/amazon-freertos/tests/common/mqtt\aws_test_mqtt_lib.c ****                                                                   ( const uint8_t * ) "aws/+/+",
 519:D:/Work/DeviceTester/amazon-freertos/tests/common/mqtt\aws_test_mqtt_lib.c ****                                                                   ( uint16_t ) strlen( "aws/+/+" ) 
 520:D:/Work/DeviceTester/amazon-freertos/tests/common/mqtt\aws_test_mqtt_lib.c ****     TEST_ASSERT_EQUAL( eMQTTTrue, xTopicMatchesTopicFilter );
 521:D:/Work/DeviceTester/amazon-freertos/tests/common/mqtt\aws_test_mqtt_lib.c **** 
 522:D:/Work/DeviceTester/amazon-freertos/tests/common/mqtt\aws_test_mqtt_lib.c ****     /* '#' matches anything. */
 523:D:/Work/DeviceTester/amazon-freertos/tests/common/mqtt\aws_test_mqtt_lib.c ****     xTopicMatchesTopicFilter = Test_prvDoesTopicMatchTopicFilter( ( const uint8_t * ) "aws/iot/shad
 524:D:/Work/DeviceTester/amazon-freertos/tests/common/mqtt\aws_test_mqtt_lib.c ****                                                                   ( uint16_t ) strlen( "aws/iot/sha
 525:D:/Work/DeviceTester/amazon-freertos/tests/common/mqtt\aws_test_mqtt_lib.c ****                                                                   ( const uint8_t * ) "#",
 526:D:/Work/DeviceTester/amazon-freertos/tests/common/mqtt\aws_test_mqtt_lib.c ****                                                                   ( uint16_t ) strlen( "#" ) );
 527:D:/Work/DeviceTester/amazon-freertos/tests/common/mqtt\aws_test_mqtt_lib.c ****     TEST_ASSERT_EQUAL( eMQTTTrue, xTopicMatchesTopicFilter );
 528:D:/Work/DeviceTester/amazon-freertos/tests/common/mqtt\aws_test_mqtt_lib.c **** 
 529:D:/Work/DeviceTester/amazon-freertos/tests/common/mqtt\aws_test_mqtt_lib.c ****     /* '#' matches anything starting with separator. */
 530:D:/Work/DeviceTester/amazon-freertos/tests/common/mqtt\aws_test_mqtt_lib.c ****     xTopicMatchesTopicFilter = Test_prvDoesTopicMatchTopicFilter( ( const uint8_t * ) "/aws/iot/sha
 531:D:/Work/DeviceTester/amazon-freertos/tests/common/mqtt\aws_test_mqtt_lib.c ****                                                                   ( uint16_t ) strlen( "/aws/iot/sh
 532:D:/Work/DeviceTester/amazon-freertos/tests/common/mqtt\aws_test_mqtt_lib.c ****                                                                   ( const uint8_t * ) "#",
 533:D:/Work/DeviceTester/amazon-freertos/tests/common/mqtt\aws_test_mqtt_lib.c ****                                                                   ( uint16_t ) strlen( "#" ) );
 534:D:/Work/DeviceTester/amazon-freertos/tests/common/mqtt\aws_test_mqtt_lib.c ****     TEST_ASSERT_EQUAL( eMQTTTrue, xTopicMatchesTopicFilter );
 535:D:/Work/DeviceTester/amazon-freertos/tests/common/mqtt\aws_test_mqtt_lib.c **** 
 536:D:/Work/DeviceTester/amazon-freertos/tests/common/mqtt\aws_test_mqtt_lib.c ****     /* '#' starting with '/'. */
 537:D:/Work/DeviceTester/amazon-freertos/tests/common/mqtt\aws_test_mqtt_lib.c ****     xTopicMatchesTopicFilter = Test_prvDoesTopicMatchTopicFilter( ( const uint8_t * ) "/aws/iot/sha
 538:D:/Work/DeviceTester/amazon-freertos/tests/common/mqtt\aws_test_mqtt_lib.c ****                                                                   ( uint16_t ) strlen( "/aws/iot/sh
 539:D:/Work/DeviceTester/amazon-freertos/tests/common/mqtt\aws_test_mqtt_lib.c ****                                                                   ( const uint8_t * ) "/#",
 540:D:/Work/DeviceTester/amazon-freertos/tests/common/mqtt\aws_test_mqtt_lib.c ****                                                                   ( uint16_t ) strlen( "/#" ) );
 541:D:/Work/DeviceTester/amazon-freertos/tests/common/mqtt\aws_test_mqtt_lib.c ****     TEST_ASSERT_EQUAL( eMQTTTrue, xTopicMatchesTopicFilter );
 542:D:/Work/DeviceTester/amazon-freertos/tests/common/mqtt\aws_test_mqtt_lib.c **** 
 543:D:/Work/DeviceTester/amazon-freertos/tests/common/mqtt\aws_test_mqtt_lib.c ****     /* '#' matches one level. */
 544:D:/Work/DeviceTester/amazon-freertos/tests/common/mqtt\aws_test_mqtt_lib.c ****     xTopicMatchesTopicFilter = Test_prvDoesTopicMatchTopicFilter( ( const uint8_t * ) "aws/iot/shad
 545:D:/Work/DeviceTester/amazon-freertos/tests/common/mqtt\aws_test_mqtt_lib.c ****                                                                   ( uint16_t ) strlen( "aws/iot/sha
 546:D:/Work/DeviceTester/amazon-freertos/tests/common/mqtt\aws_test_mqtt_lib.c ****                                                                   ( const uint8_t * ) "aws/iot/#",
 547:D:/Work/DeviceTester/amazon-freertos/tests/common/mqtt\aws_test_mqtt_lib.c ****                                                                   ( uint16_t ) strlen( "aws/iot/#" 
 548:D:/Work/DeviceTester/amazon-freertos/tests/common/mqtt\aws_test_mqtt_lib.c ****     TEST_ASSERT_EQUAL( eMQTTTrue, xTopicMatchesTopicFilter );
 549:D:/Work/DeviceTester/amazon-freertos/tests/common/mqtt\aws_test_mqtt_lib.c **** 
 550:D:/Work/DeviceTester/amazon-freertos/tests/common/mqtt\aws_test_mqtt_lib.c ****     /* '#' matches more than one level. */
 551:D:/Work/DeviceTester/amazon-freertos/tests/common/mqtt\aws_test_mqtt_lib.c ****     xTopicMatchesTopicFilter = Test_prvDoesTopicMatchTopicFilter( ( const uint8_t * ) "aws/iot/shad
 552:D:/Work/DeviceTester/amazon-freertos/tests/common/mqtt\aws_test_mqtt_lib.c ****                                                                   ( uint16_t ) strlen( "aws/iot/sha
 553:D:/Work/DeviceTester/amazon-freertos/tests/common/mqtt\aws_test_mqtt_lib.c ****                                                                   ( const uint8_t * ) "aws/iot/#",
 554:D:/Work/DeviceTester/amazon-freertos/tests/common/mqtt\aws_test_mqtt_lib.c ****                                                                   ( uint16_t ) strlen( "aws/iot/#" 
 555:D:/Work/DeviceTester/amazon-freertos/tests/common/mqtt\aws_test_mqtt_lib.c ****     TEST_ASSERT_EQUAL( eMQTTTrue, xTopicMatchesTopicFilter );
 556:D:/Work/DeviceTester/amazon-freertos/tests/common/mqtt\aws_test_mqtt_lib.c **** 
 557:D:/Work/DeviceTester/amazon-freertos/tests/common/mqtt\aws_test_mqtt_lib.c ****     /* "aws/#" should match "aws" as '#' includes parent level - MQTT protocol spec.*/
 558:D:/Work/DeviceTester/amazon-freertos/tests/common/mqtt\aws_test_mqtt_lib.c ****     xTopicMatchesTopicFilter = Test_prvDoesTopicMatchTopicFilter( ( const uint8_t * ) "aws",
 559:D:/Work/DeviceTester/amazon-freertos/tests/common/mqtt\aws_test_mqtt_lib.c ****                                                                   ( uint16_t ) strlen( "aws" ),
 560:D:/Work/DeviceTester/amazon-freertos/tests/common/mqtt\aws_test_mqtt_lib.c ****                                                                   ( const uint8_t * ) "aws/#",
 561:D:/Work/DeviceTester/amazon-freertos/tests/common/mqtt\aws_test_mqtt_lib.c ****                                                                   ( uint16_t ) strlen( "aws/#" ) );
 562:D:/Work/DeviceTester/amazon-freertos/tests/common/mqtt\aws_test_mqtt_lib.c ****     TEST_ASSERT_EQUAL( eMQTTTrue, xTopicMatchesTopicFilter );
 563:D:/Work/DeviceTester/amazon-freertos/tests/common/mqtt\aws_test_mqtt_lib.c **** 
 564:D:/Work/DeviceTester/amazon-freertos/tests/common/mqtt\aws_test_mqtt_lib.c ****     /* "aws/+" should match "aws/" - MQTT protocol spec.*/
 565:D:/Work/DeviceTester/amazon-freertos/tests/common/mqtt\aws_test_mqtt_lib.c ****     xTopicMatchesTopicFilter = Test_prvDoesTopicMatchTopicFilter( ( const uint8_t * ) "aws/",
 566:D:/Work/DeviceTester/amazon-freertos/tests/common/mqtt\aws_test_mqtt_lib.c ****                                                                   ( uint16_t ) strlen( "aws/" ),
 567:D:/Work/DeviceTester/amazon-freertos/tests/common/mqtt\aws_test_mqtt_lib.c ****                                                                   ( const uint8_t * ) "aws/+",
 568:D:/Work/DeviceTester/amazon-freertos/tests/common/mqtt\aws_test_mqtt_lib.c ****                                                                   ( uint16_t ) strlen( "aws/+" ) );
 569:D:/Work/DeviceTester/amazon-freertos/tests/common/mqtt\aws_test_mqtt_lib.c ****     TEST_ASSERT_EQUAL( eMQTTTrue, xTopicMatchesTopicFilter );
 570:D:/Work/DeviceTester/amazon-freertos/tests/common/mqtt\aws_test_mqtt_lib.c **** 
 571:D:/Work/DeviceTester/amazon-freertos/tests/common/mqtt\aws_test_mqtt_lib.c ****     /* '+' matches empty topic level. */
 572:D:/Work/DeviceTester/amazon-freertos/tests/common/mqtt\aws_test_mqtt_lib.c ****     xTopicMatchesTopicFilter = Test_prvDoesTopicMatchTopicFilter( ( const uint8_t * ) "/aws",
 573:D:/Work/DeviceTester/amazon-freertos/tests/common/mqtt\aws_test_mqtt_lib.c ****                                                                   ( uint16_t ) strlen( "/aws" ),
 574:D:/Work/DeviceTester/amazon-freertos/tests/common/mqtt\aws_test_mqtt_lib.c ****                                                                   ( const uint8_t * ) "+/+",
 575:D:/Work/DeviceTester/amazon-freertos/tests/common/mqtt\aws_test_mqtt_lib.c ****                                                                   ( uint16_t ) strlen( "+/+" ) );
 576:D:/Work/DeviceTester/amazon-freertos/tests/common/mqtt\aws_test_mqtt_lib.c ****     TEST_ASSERT_EQUAL( eMQTTTrue, xTopicMatchesTopicFilter );
 577:D:/Work/DeviceTester/amazon-freertos/tests/common/mqtt\aws_test_mqtt_lib.c **** 
 578:D:/Work/DeviceTester/amazon-freertos/tests/common/mqtt\aws_test_mqtt_lib.c ****     /* '+' matches empty topic level. */
 579:D:/Work/DeviceTester/amazon-freertos/tests/common/mqtt\aws_test_mqtt_lib.c ****     xTopicMatchesTopicFilter = Test_prvDoesTopicMatchTopicFilter( ( const uint8_t * ) "aws//iot",
 580:D:/Work/DeviceTester/amazon-freertos/tests/common/mqtt\aws_test_mqtt_lib.c ****                                                                   ( uint16_t ) strlen( "aws//iot" )
 581:D:/Work/DeviceTester/amazon-freertos/tests/common/mqtt\aws_test_mqtt_lib.c ****                                                                   ( const uint8_t * ) "aws/+/iot",
 582:D:/Work/DeviceTester/amazon-freertos/tests/common/mqtt\aws_test_mqtt_lib.c ****                                                                   ( uint16_t ) strlen( "aws/+/iot" 
 583:D:/Work/DeviceTester/amazon-freertos/tests/common/mqtt\aws_test_mqtt_lib.c ****     TEST_ASSERT_EQUAL( eMQTTTrue, xTopicMatchesTopicFilter );
 584:D:/Work/DeviceTester/amazon-freertos/tests/common/mqtt\aws_test_mqtt_lib.c **** 
 585:D:/Work/DeviceTester/amazon-freertos/tests/common/mqtt\aws_test_mqtt_lib.c ****     /* '+' matches empty topic level. */
 586:D:/Work/DeviceTester/amazon-freertos/tests/common/mqtt\aws_test_mqtt_lib.c ****     xTopicMatchesTopicFilter = Test_prvDoesTopicMatchTopicFilter( ( const uint8_t * ) "aws///iot",
 587:D:/Work/DeviceTester/amazon-freertos/tests/common/mqtt\aws_test_mqtt_lib.c ****                                                                   ( uint16_t ) strlen( "aws///iot" 
 588:D:/Work/DeviceTester/amazon-freertos/tests/common/mqtt\aws_test_mqtt_lib.c ****                                                                   ( const uint8_t * ) "aws/+/+/iot"
 589:D:/Work/DeviceTester/amazon-freertos/tests/common/mqtt\aws_test_mqtt_lib.c ****                                                                   ( uint16_t ) strlen( "aws/+/+/iot
 590:D:/Work/DeviceTester/amazon-freertos/tests/common/mqtt\aws_test_mqtt_lib.c ****     TEST_ASSERT_EQUAL( eMQTTTrue, xTopicMatchesTopicFilter );
 591:D:/Work/DeviceTester/amazon-freertos/tests/common/mqtt\aws_test_mqtt_lib.c **** 
 592:D:/Work/DeviceTester/amazon-freertos/tests/common/mqtt\aws_test_mqtt_lib.c ****     /* Empty level with '+'. */
 593:D:/Work/DeviceTester/amazon-freertos/tests/common/mqtt\aws_test_mqtt_lib.c ****     xTopicMatchesTopicFilter = Test_prvDoesTopicMatchTopicFilter( ( const uint8_t * ) "aws//iot",
 594:D:/Work/DeviceTester/amazon-freertos/tests/common/mqtt\aws_test_mqtt_lib.c ****                                                                   ( uint16_t ) strlen( "aws//iot" )
 595:D:/Work/DeviceTester/amazon-freertos/tests/common/mqtt\aws_test_mqtt_lib.c ****                                                                   ( const uint8_t * ) "aws//+",
 596:D:/Work/DeviceTester/amazon-freertos/tests/common/mqtt\aws_test_mqtt_lib.c ****                                                                   ( uint16_t ) strlen( "aws//+" ) )
 597:D:/Work/DeviceTester/amazon-freertos/tests/common/mqtt\aws_test_mqtt_lib.c ****     TEST_ASSERT_EQUAL( eMQTTTrue, xTopicMatchesTopicFilter );
 598:D:/Work/DeviceTester/amazon-freertos/tests/common/mqtt\aws_test_mqtt_lib.c **** 
 599:D:/Work/DeviceTester/amazon-freertos/tests/common/mqtt\aws_test_mqtt_lib.c ****     /* '+' only at one level. */
 600:D:/Work/DeviceTester/amazon-freertos/tests/common/mqtt\aws_test_mqtt_lib.c ****     xTopicMatchesTopicFilter = Test_prvDoesTopicMatchTopicFilter( ( const uint8_t * ) "/aws",
 601:D:/Work/DeviceTester/amazon-freertos/tests/common/mqtt\aws_test_mqtt_lib.c ****                                                                   ( uint16_t ) strlen( "/aws" ),
 602:D:/Work/DeviceTester/amazon-freertos/tests/common/mqtt\aws_test_mqtt_lib.c ****                                                                   ( const uint8_t * ) "/+",
 603:D:/Work/DeviceTester/amazon-freertos/tests/common/mqtt\aws_test_mqtt_lib.c ****                                                                   ( uint16_t ) strlen( "/+" ) );
 604:D:/Work/DeviceTester/amazon-freertos/tests/common/mqtt\aws_test_mqtt_lib.c ****     TEST_ASSERT_EQUAL( eMQTTTrue, xTopicMatchesTopicFilter );
 605:D:/Work/DeviceTester/amazon-freertos/tests/common/mqtt\aws_test_mqtt_lib.c **** 
 606:D:/Work/DeviceTester/amazon-freertos/tests/common/mqtt\aws_test_mqtt_lib.c ****     /* Mix of '+' and '#'. */
 607:D:/Work/DeviceTester/amazon-freertos/tests/common/mqtt\aws_test_mqtt_lib.c ****     xTopicMatchesTopicFilter = Test_prvDoesTopicMatchTopicFilter( ( const uint8_t * ) "aws/iot/shad
 608:D:/Work/DeviceTester/amazon-freertos/tests/common/mqtt\aws_test_mqtt_lib.c ****                                                                   ( uint16_t ) strlen( "aws/iot/sha
 609:D:/Work/DeviceTester/amazon-freertos/tests/common/mqtt\aws_test_mqtt_lib.c ****                                                                   ( const uint8_t * ) "aws/+/shadow
 610:D:/Work/DeviceTester/amazon-freertos/tests/common/mqtt\aws_test_mqtt_lib.c ****                                                                   ( uint16_t ) strlen( "aws/+/shado
 611:D:/Work/DeviceTester/amazon-freertos/tests/common/mqtt\aws_test_mqtt_lib.c ****     TEST_ASSERT_EQUAL( eMQTTTrue, xTopicMatchesTopicFilter );
 612:D:/Work/DeviceTester/amazon-freertos/tests/common/mqtt\aws_test_mqtt_lib.c **** }
 613:D:/Work/DeviceTester/amazon-freertos/tests/common/mqtt\aws_test_mqtt_lib.c **** /*-----------------------------------------------------------*/
 614:D:/Work/DeviceTester/amazon-freertos/tests/common/mqtt\aws_test_mqtt_lib.c **** 
 615:D:/Work/DeviceTester/amazon-freertos/tests/common/mqtt\aws_test_mqtt_lib.c **** /**
 616:D:/Work/DeviceTester/amazon-freertos/tests/common/mqtt\aws_test_mqtt_lib.c ****  * @brief Tests for prvDoesTopicMatchTopicFilter where the topic does not match the given filter.
 617:D:/Work/DeviceTester/amazon-freertos/tests/common/mqtt\aws_test_mqtt_lib.c ****  */
 618:D:/Work/DeviceTester/amazon-freertos/tests/common/mqtt\aws_test_mqtt_lib.c **** TEST( Full_MQTT, AFQP_prvDoesTopicMatchTopicFilter_NotMatchCases )
 619:D:/Work/DeviceTester/amazon-freertos/tests/common/mqtt\aws_test_mqtt_lib.c **** {
 620:D:/Work/DeviceTester/amazon-freertos/tests/common/mqtt\aws_test_mqtt_lib.c ****     MQTTBool_t xTopicMatchesTopicFilter;
 621:D:/Work/DeviceTester/amazon-freertos/tests/common/mqtt\aws_test_mqtt_lib.c **** 
 622:D:/Work/DeviceTester/amazon-freertos/tests/common/mqtt\aws_test_mqtt_lib.c ****     /* Basic mismatch. */
 623:D:/Work/DeviceTester/amazon-freertos/tests/common/mqtt\aws_test_mqtt_lib.c ****     xTopicMatchesTopicFilter = Test_prvDoesTopicMatchTopicFilter( ( const uint8_t * ) "aws",
 624:D:/Work/DeviceTester/amazon-freertos/tests/common/mqtt\aws_test_mqtt_lib.c ****                                                                   ( uint16_t ) strlen( "aws" ),
 625:D:/Work/DeviceTester/amazon-freertos/tests/common/mqtt\aws_test_mqtt_lib.c ****                                                                   ( const uint8_t * ) "iot",
 626:D:/Work/DeviceTester/amazon-freertos/tests/common/mqtt\aws_test_mqtt_lib.c ****                                                                   ( uint16_t ) strlen( "iot" ) );
 627:D:/Work/DeviceTester/amazon-freertos/tests/common/mqtt\aws_test_mqtt_lib.c ****     TEST_ASSERT_EQUAL( eMQTTFalse, xTopicMatchesTopicFilter );
 628:D:/Work/DeviceTester/amazon-freertos/tests/common/mqtt\aws_test_mqtt_lib.c **** 
 629:D:/Work/DeviceTester/amazon-freertos/tests/common/mqtt\aws_test_mqtt_lib.c ****     /* Case mismatch. */
 630:D:/Work/DeviceTester/amazon-freertos/tests/common/mqtt\aws_test_mqtt_lib.c ****     xTopicMatchesTopicFilter = Test_prvDoesTopicMatchTopicFilter( ( const uint8_t * ) "AWS",
 631:D:/Work/DeviceTester/amazon-freertos/tests/common/mqtt\aws_test_mqtt_lib.c ****                                                                   ( uint16_t ) strlen( "AWS" ),
 632:D:/Work/DeviceTester/amazon-freertos/tests/common/mqtt\aws_test_mqtt_lib.c ****                                                                   ( const uint8_t * ) "aws",
 633:D:/Work/DeviceTester/amazon-freertos/tests/common/mqtt\aws_test_mqtt_lib.c ****                                                                   ( uint16_t ) strlen( "aws" ) );
 634:D:/Work/DeviceTester/amazon-freertos/tests/common/mqtt\aws_test_mqtt_lib.c ****     TEST_ASSERT_EQUAL( eMQTTFalse, xTopicMatchesTopicFilter );
 635:D:/Work/DeviceTester/amazon-freertos/tests/common/mqtt\aws_test_mqtt_lib.c **** 
 636:D:/Work/DeviceTester/amazon-freertos/tests/common/mqtt\aws_test_mqtt_lib.c ****     /* Substrings should not match. */
 637:D:/Work/DeviceTester/amazon-freertos/tests/common/mqtt\aws_test_mqtt_lib.c ****     xTopicMatchesTopicFilter = Test_prvDoesTopicMatchTopicFilter( ( const uint8_t * ) "aws/iot",
 638:D:/Work/DeviceTester/amazon-freertos/tests/common/mqtt\aws_test_mqtt_lib.c ****                                                                   ( uint16_t ) strlen( "aws/iot" ),
 639:D:/Work/DeviceTester/amazon-freertos/tests/common/mqtt\aws_test_mqtt_lib.c ****                                                                   ( const uint8_t * ) "aws",
 640:D:/Work/DeviceTester/amazon-freertos/tests/common/mqtt\aws_test_mqtt_lib.c ****                                                                   ( uint16_t ) strlen( "aws" ) );
 641:D:/Work/DeviceTester/amazon-freertos/tests/common/mqtt\aws_test_mqtt_lib.c ****     TEST_ASSERT_EQUAL( eMQTTFalse, xTopicMatchesTopicFilter );
 642:D:/Work/DeviceTester/amazon-freertos/tests/common/mqtt\aws_test_mqtt_lib.c **** 
 643:D:/Work/DeviceTester/amazon-freertos/tests/common/mqtt\aws_test_mqtt_lib.c ****     /* Substrings should not match. */
 644:D:/Work/DeviceTester/amazon-freertos/tests/common/mqtt\aws_test_mqtt_lib.c ****     xTopicMatchesTopicFilter = Test_prvDoesTopicMatchTopicFilter( ( const uint8_t * ) "aws",
 645:D:/Work/DeviceTester/amazon-freertos/tests/common/mqtt\aws_test_mqtt_lib.c ****                                                                   ( uint16_t ) strlen( "aws" ),
 646:D:/Work/DeviceTester/amazon-freertos/tests/common/mqtt\aws_test_mqtt_lib.c ****                                                                   ( const uint8_t * ) "aws/iot",
 647:D:/Work/DeviceTester/amazon-freertos/tests/common/mqtt\aws_test_mqtt_lib.c ****                                                                   ( uint16_t ) strlen( "aws/iot" ) 
 648:D:/Work/DeviceTester/amazon-freertos/tests/common/mqtt\aws_test_mqtt_lib.c ****     TEST_ASSERT_EQUAL( eMQTTFalse, xTopicMatchesTopicFilter );
 649:D:/Work/DeviceTester/amazon-freertos/tests/common/mqtt\aws_test_mqtt_lib.c **** 
 650:D:/Work/DeviceTester/amazon-freertos/tests/common/mqtt\aws_test_mqtt_lib.c ****     /* "aws/+" should not match "aws" - MQTT protocol spec. */
 651:D:/Work/DeviceTester/amazon-freertos/tests/common/mqtt\aws_test_mqtt_lib.c ****     xTopicMatchesTopicFilter = Test_prvDoesTopicMatchTopicFilter( ( const uint8_t * ) "aws",
 652:D:/Work/DeviceTester/amazon-freertos/tests/common/mqtt\aws_test_mqtt_lib.c ****                                                                   ( uint16_t ) strlen( "aws" ),
 653:D:/Work/DeviceTester/amazon-freertos/tests/common/mqtt\aws_test_mqtt_lib.c ****                                                                   ( const uint8_t * ) "aws/+",
 654:D:/Work/DeviceTester/amazon-freertos/tests/common/mqtt\aws_test_mqtt_lib.c ****                                                                   ( uint16_t ) strlen( "aws/+" ) );
 655:D:/Work/DeviceTester/amazon-freertos/tests/common/mqtt\aws_test_mqtt_lib.c ****     TEST_ASSERT_EQUAL( eMQTTFalse, xTopicMatchesTopicFilter );
 656:D:/Work/DeviceTester/amazon-freertos/tests/common/mqtt\aws_test_mqtt_lib.c **** 
 657:D:/Work/DeviceTester/amazon-freertos/tests/common/mqtt\aws_test_mqtt_lib.c ****     /* '+' should not match more than one level. */
 658:D:/Work/DeviceTester/amazon-freertos/tests/common/mqtt\aws_test_mqtt_lib.c ****     xTopicMatchesTopicFilter = Test_prvDoesTopicMatchTopicFilter( ( const uint8_t * ) "aws/iot/shad
 659:D:/Work/DeviceTester/amazon-freertos/tests/common/mqtt\aws_test_mqtt_lib.c ****                                                                   ( uint16_t ) strlen( "aws/iot/sha
 660:D:/Work/DeviceTester/amazon-freertos/tests/common/mqtt\aws_test_mqtt_lib.c ****                                                                   ( const uint8_t * ) "aws/+",
 661:D:/Work/DeviceTester/amazon-freertos/tests/common/mqtt\aws_test_mqtt_lib.c ****                                                                   ( uint16_t ) strlen( "aws/+" ) );
 662:D:/Work/DeviceTester/amazon-freertos/tests/common/mqtt\aws_test_mqtt_lib.c ****     TEST_ASSERT_EQUAL( eMQTTFalse, xTopicMatchesTopicFilter );
 663:D:/Work/DeviceTester/amazon-freertos/tests/common/mqtt\aws_test_mqtt_lib.c **** 
 664:D:/Work/DeviceTester/amazon-freertos/tests/common/mqtt\aws_test_mqtt_lib.c ****     /* '+' with other mismatch. */
 665:D:/Work/DeviceTester/amazon-freertos/tests/common/mqtt\aws_test_mqtt_lib.c ****     xTopicMatchesTopicFilter = Test_prvDoesTopicMatchTopicFilter( ( const uint8_t * ) "aws/iot/shad
 666:D:/Work/DeviceTester/amazon-freertos/tests/common/mqtt\aws_test_mqtt_lib.c ****                                                                   ( uint16_t ) strlen( "aws/iot/sha
 667:D:/Work/DeviceTester/amazon-freertos/tests/common/mqtt\aws_test_mqtt_lib.c ****                                                                   ( const uint8_t * ) "aws/+/thing"
 668:D:/Work/DeviceTester/amazon-freertos/tests/common/mqtt\aws_test_mqtt_lib.c ****                                                                   ( uint16_t ) strlen( "aws/+/thing
 669:D:/Work/DeviceTester/amazon-freertos/tests/common/mqtt\aws_test_mqtt_lib.c ****     TEST_ASSERT_EQUAL( eMQTTFalse, xTopicMatchesTopicFilter );
 670:D:/Work/DeviceTester/amazon-freertos/tests/common/mqtt\aws_test_mqtt_lib.c **** 
 671:D:/Work/DeviceTester/amazon-freertos/tests/common/mqtt\aws_test_mqtt_lib.c ****     /* '#' with other mismatch. */
 672:D:/Work/DeviceTester/amazon-freertos/tests/common/mqtt\aws_test_mqtt_lib.c ****     xTopicMatchesTopicFilter = Test_prvDoesTopicMatchTopicFilter( ( const uint8_t * ) "aws/iot/shad
 673:D:/Work/DeviceTester/amazon-freertos/tests/common/mqtt\aws_test_mqtt_lib.c ****                                                                   ( uint16_t ) strlen( "aws/iot/sha
 674:D:/Work/DeviceTester/amazon-freertos/tests/common/mqtt\aws_test_mqtt_lib.c ****                                                                   ( const uint8_t * ) "iot/#",
 675:D:/Work/DeviceTester/amazon-freertos/tests/common/mqtt\aws_test_mqtt_lib.c ****                                                                   ( uint16_t ) strlen( "iot/#" ) );
 676:D:/Work/DeviceTester/amazon-freertos/tests/common/mqtt\aws_test_mqtt_lib.c ****     TEST_ASSERT_EQUAL( eMQTTFalse, xTopicMatchesTopicFilter );
 677:D:/Work/DeviceTester/amazon-freertos/tests/common/mqtt\aws_test_mqtt_lib.c **** 
 678:D:/Work/DeviceTester/amazon-freertos/tests/common/mqtt\aws_test_mqtt_lib.c ****     /* '+' and '#' with other mismatch. */
 679:D:/Work/DeviceTester/amazon-freertos/tests/common/mqtt\aws_test_mqtt_lib.c ****     xTopicMatchesTopicFilter = Test_prvDoesTopicMatchTopicFilter( ( const uint8_t * ) "aws/iot/shad
 680:D:/Work/DeviceTester/amazon-freertos/tests/common/mqtt\aws_test_mqtt_lib.c ****                                                                   ( uint16_t ) strlen( "aws/iot/sha
 681:D:/Work/DeviceTester/amazon-freertos/tests/common/mqtt\aws_test_mqtt_lib.c ****                                                                   ( const uint8_t * ) "iot/+/#",
 682:D:/Work/DeviceTester/amazon-freertos/tests/common/mqtt\aws_test_mqtt_lib.c ****                                                                   ( uint16_t ) strlen( "iot/+/#" ) 
 683:D:/Work/DeviceTester/amazon-freertos/tests/common/mqtt\aws_test_mqtt_lib.c ****     TEST_ASSERT_EQUAL( eMQTTFalse, xTopicMatchesTopicFilter );
 684:D:/Work/DeviceTester/amazon-freertos/tests/common/mqtt\aws_test_mqtt_lib.c **** 
 685:D:/Work/DeviceTester/amazon-freertos/tests/common/mqtt\aws_test_mqtt_lib.c ****     /* '+' with missing '/'. */
 686:D:/Work/DeviceTester/amazon-freertos/tests/common/mqtt\aws_test_mqtt_lib.c ****     xTopicMatchesTopicFilter = Test_prvDoesTopicMatchTopicFilter( ( const uint8_t * ) "/aws",
 687:D:/Work/DeviceTester/amazon-freertos/tests/common/mqtt\aws_test_mqtt_lib.c ****                                                                   ( uint16_t ) strlen( "/aws" ),
 688:D:/Work/DeviceTester/amazon-freertos/tests/common/mqtt\aws_test_mqtt_lib.c ****                                                                   ( const uint8_t * ) "+",
 689:D:/Work/DeviceTester/amazon-freertos/tests/common/mqtt\aws_test_mqtt_lib.c ****                                                                   ( uint16_t ) strlen( "+" ) );
 690:D:/Work/DeviceTester/amazon-freertos/tests/common/mqtt\aws_test_mqtt_lib.c ****     TEST_ASSERT_EQUAL( eMQTTFalse, xTopicMatchesTopicFilter );
 691:D:/Work/DeviceTester/amazon-freertos/tests/common/mqtt\aws_test_mqtt_lib.c **** 
 692:D:/Work/DeviceTester/amazon-freertos/tests/common/mqtt\aws_test_mqtt_lib.c ****     /* '#' with missing '/'. */
 693:D:/Work/DeviceTester/amazon-freertos/tests/common/mqtt\aws_test_mqtt_lib.c ****     xTopicMatchesTopicFilter = Test_prvDoesTopicMatchTopicFilter( ( const uint8_t * ) "aws/iot",
 694:D:/Work/DeviceTester/amazon-freertos/tests/common/mqtt\aws_test_mqtt_lib.c ****                                                                   ( uint16_t ) strlen( "aws/iot" ),
 695:D:/Work/DeviceTester/amazon-freertos/tests/common/mqtt\aws_test_mqtt_lib.c ****                                                                   ( const uint8_t * ) "/#",
 696:D:/Work/DeviceTester/amazon-freertos/tests/common/mqtt\aws_test_mqtt_lib.c ****                                                                   ( uint16_t ) strlen( "/#" ) );
 697:D:/Work/DeviceTester/amazon-freertos/tests/common/mqtt\aws_test_mqtt_lib.c ****     TEST_ASSERT_EQUAL( eMQTTFalse, xTopicMatchesTopicFilter );
 698:D:/Work/DeviceTester/amazon-freertos/tests/common/mqtt\aws_test_mqtt_lib.c **** }
 699:D:/Work/DeviceTester/amazon-freertos/tests/common/mqtt\aws_test_mqtt_lib.c **** /*-----------------------------------------------------------*/
 700:D:/Work/DeviceTester/amazon-freertos/tests/common/mqtt\aws_test_mqtt_lib.c **** 
 701:D:/Work/DeviceTester/amazon-freertos/tests/common/mqtt\aws_test_mqtt_lib.c **** /**
 702:D:/Work/DeviceTester/amazon-freertos/tests/common/mqtt\aws_test_mqtt_lib.c ****  * @brief MQTT context initialization happy case.
 703:D:/Work/DeviceTester/amazon-freertos/tests/common/mqtt\aws_test_mqtt_lib.c ****  */
 704:D:/Work/DeviceTester/amazon-freertos/tests/common/mqtt\aws_test_mqtt_lib.c **** TEST( Full_MQTT, AFQP_MQTT_Init_HappyCase )
 705:D:/Work/DeviceTester/amazon-freertos/tests/common/mqtt\aws_test_mqtt_lib.c **** {
 231              		.loc 1 705 0
 232              		.cfi_startproc
 233              		@ args = 0, pretend = 0, frame = 0
 234              		@ frame_needed = 0, uses_anonymous_args = 0
 235 0000 07402DE9 		push	{r0, r1, r2, lr}
 236              		.cfi_def_cfa_offset 16
 237              		.cfi_offset 14, -4
 706:D:/Work/DeviceTester/amazon-freertos/tests/common/mqtt\aws_test_mqtt_lib.c ****     MQTTReturnCode_t xReturnCode;
 707:D:/Work/DeviceTester/amazon-freertos/tests/common/mqtt\aws_test_mqtt_lib.c **** 
 708:D:/Work/DeviceTester/amazon-freertos/tests/common/mqtt\aws_test_mqtt_lib.c ****     /* Initialize the MQTT context. */
 709:D:/Work/DeviceTester/amazon-freertos/tests/common/mqtt\aws_test_mqtt_lib.c ****     xReturnCode = prvInitializeMQTTContext();
 238              		.loc 1 709 0
 239 0004 FEFFFFEB 		bl	prvInitializeMQTTContext
 240              	.LVL13:
 710:D:/Work/DeviceTester/amazon-freertos/tests/common/mqtt\aws_test_mqtt_lib.c **** 
 711:D:/Work/DeviceTester/amazon-freertos/tests/common/mqtt\aws_test_mqtt_lib.c ****     /* Ensure that the context was initialized successfully. */
 712:D:/Work/DeviceTester/amazon-freertos/tests/common/mqtt\aws_test_mqtt_lib.c ****     TEST_ASSERT_EQUAL( eMQTTSuccess, xReturnCode );
 241              		.loc 1 712 0
 242 0008 0020A0E3 		mov	r2, #0
 243 000c 1430A0E3 		mov	r3, #20
 244 0010 00308DE5 		str	r3, [sp]
 245 0014 0010A0E1 		mov	r1, r0
 246 0018 B23FA0E3 		mov	r3, #712
 247 001c 0200A0E1 		mov	r0, r2
 248              	.LVL14:
 249 0020 FEFFFFEB 		bl	UnityAssertEqualNumber
 250              	.LVL15:
 713:D:/Work/DeviceTester/amazon-freertos/tests/common/mqtt\aws_test_mqtt_lib.c **** }
 251              		.loc 1 713 0
 252 0024 0CD08DE2 		add	sp, sp, #12
 253              		.cfi_def_cfa_offset 4
 254              		@ sp needed
 255 0028 04F09DE4 		ldr	pc, [sp], #4
 256              		.cfi_endproc
 257              	.LFE19:
 259              		.section	.text.TEST_Full_MQTT_TEAR_DOWN,"ax",%progbits
 260              		.align	2
 261              		.global	TEST_Full_MQTT_TEAR_DOWN
 262              		.syntax unified
 263              		.arm
 264              		.fpu neon
 266              	TEST_Full_MQTT_TEAR_DOWN:
 267              	.LFB8:
 352:D:/Work/DeviceTester/amazon-freertos/tests/common/mqtt\aws_test_mqtt_lib.c ****     /* Each test leaves the context in fresh state. */
 268              		.loc 1 352 0
 269              		.cfi_startproc
 270              		@ args = 0, pretend = 0, frame = 0
 271              		@ frame_needed = 0, uses_anonymous_args = 0
 272              		@ link register save eliminated.
 354:D:/Work/DeviceTester/amazon-freertos/tests/common/mqtt\aws_test_mqtt_lib.c **** }
 273              		.loc 1 354 0
 274 0000 00009FE5 		ldr	r0, .L20
 275 0004 FEFFFFEA 		b	Test_prvResetMQTTContext
 276              	.LVL16:
 277              	.L21:
 278              		.align	2
 279              	.L20:
 280 0008 00000000 		.word	.LANCHOR0
 281              		.cfi_endproc
 282              	.LFE8:
 284              		.section	.text.TEST_Full_MQTT_AFQP_prvGetTopicFilterType_HappyCases_,"ax",%progbits
 285              		.align	2
 286              		.global	TEST_Full_MQTT_AFQP_prvGetTopicFilterType_HappyCases_
 287              		.syntax unified
 288              		.arm
 289              		.fpu neon
 291              	TEST_Full_MQTT_AFQP_prvGetTopicFilterType_HappyCases_:
 292              	.LFB11:
 391:D:/Work/DeviceTester/amazon-freertos/tests/common/mqtt\aws_test_mqtt_lib.c ****     MQTTTopicFilterType_t xTopicFilterType;
 293              		.loc 1 391 0
 294              		.cfi_startproc
 295              		@ args = 0, pretend = 0, frame = 0
 296              		@ frame_needed = 0, uses_anonymous_args = 0
 297 0000 13402DE9 		push	{r0, r1, r4, lr}
 298              		.cfi_def_cfa_offset 16
 299              		.cfi_offset 4, -8
 300              		.cfi_offset 14, -4
 396:D:/Work/DeviceTester/amazon-freertos/tests/common/mqtt\aws_test_mqtt_lib.c **** 
 301              		.loc 1 396 0
 302 0004 1440A0E3 		mov	r4, #20
 395:D:/Work/DeviceTester/amazon-freertos/tests/common/mqtt\aws_test_mqtt_lib.c ****     TEST_ASSERT_EQUAL( eMQTTTopicFilterTypeSimple, xTopicFilterType );
 303              		.loc 1 395 0
 304 0008 0310A0E3 		mov	r1, #3
 305 000c 40019FE5 		ldr	r0, .L24
 306 0010 FEFFFFEB 		bl	Test_prvGetTopicFilterType
 307              	.LVL17:
 396:D:/Work/DeviceTester/amazon-freertos/tests/common/mqtt\aws_test_mqtt_lib.c **** 
 308              		.loc 1 396 0
 309 0014 633FA0E3 		mov	r3, #396
 310 0018 0020A0E3 		mov	r2, #0
 311 001c 0010A0E1 		mov	r1, r0
 312 0020 00408DE5 		str	r4, [sp]
 313 0024 0100A0E3 		mov	r0, #1
 314              	.LVL18:
 315 0028 FEFFFFEB 		bl	UnityAssertEqualNumber
 316              	.LVL19:
 399:D:/Work/DeviceTester/amazon-freertos/tests/common/mqtt\aws_test_mqtt_lib.c ****     TEST_ASSERT_EQUAL( eMQTTTopicFilterTypeSimple, xTopicFilterType );
 317              		.loc 1 399 0
 318 002c 0710A0E3 		mov	r1, #7
 319 0030 20019FE5 		ldr	r0, .L24+4
 320 0034 FEFFFFEB 		bl	Test_prvGetTopicFilterType
 321              	.LVL20:
 400:D:/Work/DeviceTester/amazon-freertos/tests/common/mqtt\aws_test_mqtt_lib.c **** 
 322              		.loc 1 400 0
 323 0038 193EA0E3 		mov	r3, #400
 324 003c 0020A0E3 		mov	r2, #0
 325 0040 0010A0E1 		mov	r1, r0
 326 0044 00408DE5 		str	r4, [sp]
 327 0048 0100A0E3 		mov	r0, #1
 328              	.LVL21:
 329 004c FEFFFFEB 		bl	UnityAssertEqualNumber
 330              	.LVL22:
 403:D:/Work/DeviceTester/amazon-freertos/tests/common/mqtt\aws_test_mqtt_lib.c ****     TEST_ASSERT_EQUAL( eMQTTTopicFilterTypeWildCard, xTopicFilterType );
 331              		.loc 1 403 0
 332 0050 0110A0E3 		mov	r1, #1
 333 0054 00019FE5 		ldr	r0, .L24+8
 334 0058 FEFFFFEB 		bl	Test_prvGetTopicFilterType
 335              	.LVL23:
 404:D:/Work/DeviceTester/amazon-freertos/tests/common/mqtt\aws_test_mqtt_lib.c **** 
 336              		.loc 1 404 0
 337 005c 653FA0E3 		mov	r3, #404
 338 0060 0020A0E3 		mov	r2, #0
 339 0064 0010A0E1 		mov	r1, r0
 340 0068 00408DE5 		str	r4, [sp]
 341 006c 0200A0E3 		mov	r0, #2
 342              	.LVL24:
 343 0070 FEFFFFEB 		bl	UnityAssertEqualNumber
 344              	.LVL25:
 406:D:/Work/DeviceTester/amazon-freertos/tests/common/mqtt\aws_test_mqtt_lib.c ****     TEST_ASSERT_EQUAL( eMQTTTopicFilterTypeWildCard, xTopicFilterType );
 345              		.loc 1 406 0
 346 0074 0510A0E3 		mov	r1, #5
 347 0078 E0009FE5 		ldr	r0, .L24+12
 348 007c FEFFFFEB 		bl	Test_prvGetTopicFilterType
 349              	.LVL26:
 407:D:/Work/DeviceTester/amazon-freertos/tests/common/mqtt\aws_test_mqtt_lib.c **** 
 350              		.loc 1 407 0
 351 0080 973100E3 		movw	r3, #407
 352 0084 0020A0E3 		mov	r2, #0
 353 0088 0010A0E1 		mov	r1, r0
 354 008c 00408DE5 		str	r4, [sp]
 355 0090 0200A0E3 		mov	r0, #2
 356              	.LVL27:
 357 0094 FEFFFFEB 		bl	UnityAssertEqualNumber
 358              	.LVL28:
 409:D:/Work/DeviceTester/amazon-freertos/tests/common/mqtt\aws_test_mqtt_lib.c ****     TEST_ASSERT_EQUAL( eMQTTTopicFilterTypeWildCard, xTopicFilterType );
 359              		.loc 1 409 0
 360 0098 0710A0E3 		mov	r1, #7
 361 009c C0009FE5 		ldr	r0, .L24+16
 362 00a0 FEFFFFEB 		bl	Test_prvGetTopicFilterType
 363              	.LVL29:
 410:D:/Work/DeviceTester/amazon-freertos/tests/common/mqtt\aws_test_mqtt_lib.c **** 
 364              		.loc 1 410 0
 365 00a4 9A3100E3 		movw	r3, #410
 366 00a8 0020A0E3 		mov	r2, #0
 367 00ac 0010A0E1 		mov	r1, r0
 368 00b0 00408DE5 		str	r4, [sp]
 369 00b4 0200A0E3 		mov	r0, #2
 370              	.LVL30:
 371 00b8 FEFFFFEB 		bl	UnityAssertEqualNumber
 372              	.LVL31:
 412:D:/Work/DeviceTester/amazon-freertos/tests/common/mqtt\aws_test_mqtt_lib.c ****     TEST_ASSERT_EQUAL( eMQTTTopicFilterTypeWildCard, xTopicFilterType );
 373              		.loc 1 412 0
 374 00bc 0510A0E3 		mov	r1, #5
 375 00c0 A0009FE5 		ldr	r0, .L24+20
 376 00c4 FEFFFFEB 		bl	Test_prvGetTopicFilterType
 377              	.LVL32:
 413:D:/Work/DeviceTester/amazon-freertos/tests/common/mqtt\aws_test_mqtt_lib.c **** 
 378              		.loc 1 413 0
 379 00c8 9D3100E3 		movw	r3, #413
 380 00cc 0020A0E3 		mov	r2, #0
 381 00d0 0010A0E1 		mov	r1, r0
 382 00d4 00408DE5 		str	r4, [sp]
 383 00d8 0200A0E3 		mov	r0, #2
 384              	.LVL33:
 385 00dc FEFFFFEB 		bl	UnityAssertEqualNumber
 386              	.LVL34:
 416:D:/Work/DeviceTester/amazon-freertos/tests/common/mqtt\aws_test_mqtt_lib.c ****     TEST_ASSERT_EQUAL( eMQTTTopicFilterTypeWildCard, xTopicFilterType );
 387              		.loc 1 416 0
 388 00e0 0110A0E3 		mov	r1, #1
 389 00e4 80009FE5 		ldr	r0, .L24+24
 390 00e8 FEFFFFEB 		bl	Test_prvGetTopicFilterType
 391              	.LVL35:
 417:D:/Work/DeviceTester/amazon-freertos/tests/common/mqtt\aws_test_mqtt_lib.c **** 
 392              		.loc 1 417 0
 393 00ec A13100E3 		movw	r3, #417
 394 00f0 0020A0E3 		mov	r2, #0
 395 00f4 0010A0E1 		mov	r1, r0
 396 00f8 00408DE5 		str	r4, [sp]
 397 00fc 0200A0E3 		mov	r0, #2
 398              	.LVL36:
 399 0100 FEFFFFEB 		bl	UnityAssertEqualNumber
 400              	.LVL37:
 419:D:/Work/DeviceTester/amazon-freertos/tests/common/mqtt\aws_test_mqtt_lib.c ****     TEST_ASSERT_EQUAL( eMQTTTopicFilterTypeWildCard, xTopicFilterType );
 401              		.loc 1 419 0
 402 0104 0510A0E3 		mov	r1, #5
 403 0108 60009FE5 		ldr	r0, .L24+28
 404 010c FEFFFFEB 		bl	Test_prvGetTopicFilterType
 405              	.LVL38:
 420:D:/Work/DeviceTester/amazon-freertos/tests/common/mqtt\aws_test_mqtt_lib.c **** 
 406              		.loc 1 420 0
 407 0110 693FA0E3 		mov	r3, #420
 408 0114 0020A0E3 		mov	r2, #0
 409 0118 0010A0E1 		mov	r1, r0
 410 011c 00408DE5 		str	r4, [sp]
 411 0120 0200A0E3 		mov	r0, #2
 412              	.LVL39:
 413 0124 FEFFFFEB 		bl	UnityAssertEqualNumber
 414              	.LVL40:
 423:D:/Work/DeviceTester/amazon-freertos/tests/common/mqtt\aws_test_mqtt_lib.c ****     TEST_ASSERT_EQUAL( eMQTTTopicFilterTypeWildCard, xTopicFilterType );
 415              		.loc 1 423 0
 416 0128 0710A0E3 		mov	r1, #7
 417 012c 40009FE5 		ldr	r0, .L24+32
 418 0130 FEFFFFEB 		bl	Test_prvGetTopicFilterType
 419              	.LVL41:
 424:D:/Work/DeviceTester/amazon-freertos/tests/common/mqtt\aws_test_mqtt_lib.c **** }
 420              		.loc 1 424 0
 421 0134 00408DE5 		str	r4, [sp]
 422 0138 0010A0E1 		mov	r1, r0
 423 013c 6A3FA0E3 		mov	r3, #424
 424 0140 0020A0E3 		mov	r2, #0
 425 0144 0200A0E3 		mov	r0, #2
 426              	.LVL42:
 427 0148 FEFFFFEB 		bl	UnityAssertEqualNumber
 428              	.LVL43:
 425:D:/Work/DeviceTester/amazon-freertos/tests/common/mqtt\aws_test_mqtt_lib.c **** /*-----------------------------------------------------------*/
 429              		.loc 1 425 0
 430 014c 08D08DE2 		add	sp, sp, #8
 431              		.cfi_def_cfa_offset 8
 432              		@ sp needed
 433 0150 1080BDE8 		pop	{r4, pc}
 434              	.L25:
 435              		.align	2
 436              	.L24:
 437 0154 00000000 		.word	.LC0
 438 0158 04000000 		.word	.LC1
 439 015c 0C000000 		.word	.LC2
 440 0160 0E000000 		.word	.LC3
 441 0164 14000000 		.word	.LC4
 442 0168 1C000000 		.word	.LC5
 443 016c 22000000 		.word	.LC6
 444 0170 24000000 		.word	.LC7
 445 0174 2A000000 		.word	.LC8
 446              		.cfi_endproc
 447              	.LFE11:
 449              		.section	.text.TEST_Full_MQTT_AFQP_prvGetTopicFilterType_ErrorCases_,"ax",%progbits
 450              		.align	2
 451              		.global	TEST_Full_MQTT_AFQP_prvGetTopicFilterType_ErrorCases_
 452              		.syntax unified
 453              		.arm
 454              		.fpu neon
 456              	TEST_Full_MQTT_AFQP_prvGetTopicFilterType_ErrorCases_:
 457              	.LFB13:
 432:D:/Work/DeviceTester/amazon-freertos/tests/common/mqtt\aws_test_mqtt_lib.c ****     MQTTTopicFilterType_t xTopicFilterType;
 458              		.loc 1 432 0
 459              		.cfi_startproc
 460              		@ args = 0, pretend = 0, frame = 0
 461              		@ frame_needed = 0, uses_anonymous_args = 0
 462 0000 13402DE9 		push	{r0, r1, r4, lr}
 463              		.cfi_def_cfa_offset 16
 464              		.cfi_offset 4, -8
 465              		.cfi_offset 14, -4
 436:D:/Work/DeviceTester/amazon-freertos/tests/common/mqtt\aws_test_mqtt_lib.c ****     TEST_ASSERT_EQUAL( eMQTTTopicFilterTypeInvalid, xTopicFilterType );
 466              		.loc 1 436 0
 467 0004 0210A0E3 		mov	r1, #2
 468 0008 44019FE5 		ldr	r0, .L28
 437:D:/Work/DeviceTester/amazon-freertos/tests/common/mqtt\aws_test_mqtt_lib.c **** 
 469              		.loc 1 437 0
 470 000c 1440A0E3 		mov	r4, #20
 436:D:/Work/DeviceTester/amazon-freertos/tests/common/mqtt\aws_test_mqtt_lib.c ****     TEST_ASSERT_EQUAL( eMQTTTopicFilterTypeInvalid, xTopicFilterType );
 471              		.loc 1 436 0
 472 0010 FEFFFFEB 		bl	Test_prvGetTopicFilterType
 473              	.LVL44:
 437:D:/Work/DeviceTester/amazon-freertos/tests/common/mqtt\aws_test_mqtt_lib.c **** 
 474              		.loc 1 437 0
 475 0014 0020A0E3 		mov	r2, #0
 476 0018 B53100E3 		movw	r3, #437
 477 001c 0010A0E1 		mov	r1, r0
 478 0020 00408DE5 		str	r4, [sp]
 479 0024 0200A0E1 		mov	r0, r2
 480              	.LVL45:
 481 0028 FEFFFFEB 		bl	UnityAssertEqualNumber
 482              	.LVL46:
 440:D:/Work/DeviceTester/amazon-freertos/tests/common/mqtt\aws_test_mqtt_lib.c ****     TEST_ASSERT_EQUAL( eMQTTTopicFilterTypeInvalid, xTopicFilterType );
 483              		.loc 1 440 0
 484 002c 0910A0E3 		mov	r1, #9
 485 0030 20019FE5 		ldr	r0, .L28+4
 486 0034 FEFFFFEB 		bl	Test_prvGetTopicFilterType
 487              	.LVL47:
 441:D:/Work/DeviceTester/amazon-freertos/tests/common/mqtt\aws_test_mqtt_lib.c **** 
 488              		.loc 1 441 0
 489 0038 0020A0E3 		mov	r2, #0
 490 003c B93100E3 		movw	r3, #441
 491 0040 0010A0E1 		mov	r1, r0
 492 0044 00408DE5 		str	r4, [sp]
 493 0048 0200A0E1 		mov	r0, r2
 494              	.LVL48:
 495 004c FEFFFFEB 		bl	UnityAssertEqualNumber
 496              	.LVL49:
 444:D:/Work/DeviceTester/amazon-freertos/tests/common/mqtt\aws_test_mqtt_lib.c ****     TEST_ASSERT_EQUAL( eMQTTTopicFilterTypeInvalid, xTopicFilterType );
 497              		.loc 1 444 0
 498 0050 0A10A0E3 		mov	r1, #10
 499 0054 00019FE5 		ldr	r0, .L28+8
 500 0058 FEFFFFEB 		bl	Test_prvGetTopicFilterType
 501              	.LVL50:
 445:D:/Work/DeviceTester/amazon-freertos/tests/common/mqtt\aws_test_mqtt_lib.c **** 
 502              		.loc 1 445 0
 503 005c 0020A0E3 		mov	r2, #0
 504 0060 BD3100E3 		movw	r3, #445
 505 0064 0010A0E1 		mov	r1, r0
 506 0068 00408DE5 		str	r4, [sp]
 507 006c 0200A0E1 		mov	r0, r2
 508              	.LVL51:
 509 0070 FEFFFFEB 		bl	UnityAssertEqualNumber
 510              	.LVL52:
 448:D:/Work/DeviceTester/amazon-freertos/tests/common/mqtt\aws_test_mqtt_lib.c ****     TEST_ASSERT_EQUAL( eMQTTTopicFilterTypeInvalid, xTopicFilterType );
 511              		.loc 1 448 0
 512 0074 0B10A0E3 		mov	r1, #11
 513 0078 E0009FE5 		ldr	r0, .L28+12
 514 007c FEFFFFEB 		bl	Test_prvGetTopicFilterType
 515              	.LVL53:
 449:D:/Work/DeviceTester/amazon-freertos/tests/common/mqtt\aws_test_mqtt_lib.c **** 
 516              		.loc 1 449 0
 517 0080 0020A0E3 		mov	r2, #0
 518 0084 C13100E3 		movw	r3, #449
 519 0088 0010A0E1 		mov	r1, r0
 520 008c 00408DE5 		str	r4, [sp]
 521 0090 0200A0E1 		mov	r0, r2
 522              	.LVL54:
 523 0094 FEFFFFEB 		bl	UnityAssertEqualNumber
 524              	.LVL55:
 452:D:/Work/DeviceTester/amazon-freertos/tests/common/mqtt\aws_test_mqtt_lib.c ****     TEST_ASSERT_EQUAL( eMQTTTopicFilterTypeInvalid, xTopicFilterType );
 525              		.loc 1 452 0
 526 0098 0210A0E3 		mov	r1, #2
 527 009c C0009FE5 		ldr	r0, .L28+16
 528 00a0 FEFFFFEB 		bl	Test_prvGetTopicFilterType
 529              	.LVL56:
 453:D:/Work/DeviceTester/amazon-freertos/tests/common/mqtt\aws_test_mqtt_lib.c **** 
 530              		.loc 1 453 0
 531 00a4 0020A0E3 		mov	r2, #0
 532 00a8 C53100E3 		movw	r3, #453
 533 00ac 0010A0E1 		mov	r1, r0
 534 00b0 00408DE5 		str	r4, [sp]
 535 00b4 0200A0E1 		mov	r0, r2
 536              	.LVL57:
 537 00b8 FEFFFFEB 		bl	UnityAssertEqualNumber
 538              	.LVL58:
 456:D:/Work/DeviceTester/amazon-freertos/tests/common/mqtt\aws_test_mqtt_lib.c ****     TEST_ASSERT_EQUAL( eMQTTTopicFilterTypeInvalid, xTopicFilterType );
 539              		.loc 1 456 0
 540 00bc 0910A0E3 		mov	r1, #9
 541 00c0 A0009FE5 		ldr	r0, .L28+20
 542 00c4 FEFFFFEB 		bl	Test_prvGetTopicFilterType
 543              	.LVL59:
 457:D:/Work/DeviceTester/amazon-freertos/tests/common/mqtt\aws_test_mqtt_lib.c **** 
 544              		.loc 1 457 0
 545 00c8 0020A0E3 		mov	r2, #0
 546 00cc C93100E3 		movw	r3, #457
 547 00d0 0010A0E1 		mov	r1, r0
 548 00d4 00408DE5 		str	r4, [sp]
 549 00d8 0200A0E1 		mov	r0, r2
 550              	.LVL60:
 551 00dc FEFFFFEB 		bl	UnityAssertEqualNumber
 552              	.LVL61:
 460:D:/Work/DeviceTester/amazon-freertos/tests/common/mqtt\aws_test_mqtt_lib.c ****     TEST_ASSERT_EQUAL( eMQTTTopicFilterTypeInvalid, xTopicFilterType );
 553              		.loc 1 460 0
 554 00e0 0B10A0E3 		mov	r1, #11
 555 00e4 80009FE5 		ldr	r0, .L28+24
 556 00e8 FEFFFFEB 		bl	Test_prvGetTopicFilterType
 557              	.LVL62:
 461:D:/Work/DeviceTester/amazon-freertos/tests/common/mqtt\aws_test_mqtt_lib.c **** 
 558              		.loc 1 461 0
 559 00ec 0020A0E3 		mov	r2, #0
 560 00f0 CD3100E3 		movw	r3, #461
 561 00f4 0010A0E1 		mov	r1, r0
 562 00f8 00408DE5 		str	r4, [sp]
 563 00fc 0200A0E1 		mov	r0, r2
 564              	.LVL63:
 565 0100 FEFFFFEB 		bl	UnityAssertEqualNumber
 566              	.LVL64:
 464:D:/Work/DeviceTester/amazon-freertos/tests/common/mqtt\aws_test_mqtt_lib.c ****     TEST_ASSERT_EQUAL( eMQTTTopicFilterTypeInvalid, xTopicFilterType );
 567              		.loc 1 464 0
 568 0104 0B10A0E3 		mov	r1, #11
 569 0108 60009FE5 		ldr	r0, .L28+28
 570 010c FEFFFFEB 		bl	Test_prvGetTopicFilterType
 571              	.LVL65:
 465:D:/Work/DeviceTester/amazon-freertos/tests/common/mqtt\aws_test_mqtt_lib.c **** 
 572              		.loc 1 465 0
 573 0110 0020A0E3 		mov	r2, #0
 574 0114 D13100E3 		movw	r3, #465
 575 0118 0010A0E1 		mov	r1, r0
 576 011c 00408DE5 		str	r4, [sp]
 577 0120 0200A0E1 		mov	r0, r2
 578              	.LVL66:
 579 0124 FEFFFFEB 		bl	UnityAssertEqualNumber
 580              	.LVL67:
 468:D:/Work/DeviceTester/amazon-freertos/tests/common/mqtt\aws_test_mqtt_lib.c ****     TEST_ASSERT_EQUAL( eMQTTTopicFilterTypeInvalid, xTopicFilterType );
 581              		.loc 1 468 0
 582 0128 0B10A0E3 		mov	r1, #11
 583 012c 40009FE5 		ldr	r0, .L28+32
 584 0130 FEFFFFEB 		bl	Test_prvGetTopicFilterType
 585              	.LVL68:
 469:D:/Work/DeviceTester/amazon-freertos/tests/common/mqtt\aws_test_mqtt_lib.c **** }
 586              		.loc 1 469 0
 587 0134 0020A0E3 		mov	r2, #0
 588 0138 0010A0E1 		mov	r1, r0
 589 013c 00408DE5 		str	r4, [sp]
 590 0140 D53100E3 		movw	r3, #469
 591 0144 0200A0E1 		mov	r0, r2
 592              	.LVL69:
 593 0148 FEFFFFEB 		bl	UnityAssertEqualNumber
 594              	.LVL70:
 470:D:/Work/DeviceTester/amazon-freertos/tests/common/mqtt\aws_test_mqtt_lib.c **** /*-----------------------------------------------------------*/
 595              		.loc 1 470 0
 596 014c 08D08DE2 		add	sp, sp, #8
 597              		.cfi_def_cfa_offset 8
 598              		@ sp needed
 599 0150 1080BDE8 		pop	{r4, pc}
 600              	.L29:
 601              		.align	2
 602              	.L28:
 603 0154 00000000 		.word	.LC9
 604 0158 03000000 		.word	.LC10
 605 015c 0D000000 		.word	.LC11
 606 0160 18000000 		.word	.LC12
 607 0164 24000000 		.word	.LC13
 608 0168 27000000 		.word	.LC14
 609 016c 31000000 		.word	.LC15
 610 0170 3D000000 		.word	.LC16
 611 0174 49000000 		.word	.LC17
 612              		.cfi_endproc
 613              	.LFE13:
 615              		.section	.text.TEST_Full_MQTT_AFQP_prvDoesTopicMatchTopicFilter_MatchCases_,"ax",%progbits
 616              		.align	2
 617              		.global	TEST_Full_MQTT_AFQP_prvDoesTopicMatchTopicFilter_MatchCases_
 618              		.syntax unified
 619              		.arm
 620              		.fpu neon
 622              	TEST_Full_MQTT_AFQP_prvDoesTopicMatchTopicFilter_MatchCases_:
 623              	.LFB15:
 477:D:/Work/DeviceTester/amazon-freertos/tests/common/mqtt\aws_test_mqtt_lib.c ****     MQTTBool_t xTopicMatchesTopicFilter;
 624              		.loc 1 477 0
 625              		.cfi_startproc
 626              		@ args = 0, pretend = 0, frame = 0
 627              		@ frame_needed = 0, uses_anonymous_args = 0
 628 0000 F3472DE9 		push	{r0, r1, r4, r5, r6, r7, r8, r9, r10, lr}
 629              		.cfi_def_cfa_offset 40
 630              		.cfi_offset 4, -32
 631              		.cfi_offset 5, -28
 632              		.cfi_offset 6, -24
 633              		.cfi_offset 7, -20
 634              		.cfi_offset 8, -16
 635              		.cfi_offset 9, -12
 636              		.cfi_offset 10, -8
 637              		.cfi_offset 14, -4
 481:D:/Work/DeviceTester/amazon-freertos/tests/common/mqtt\aws_test_mqtt_lib.c ****                                                                   ( uint16_t ) strlen( "aws" ),
 638              		.loc 1 481 0
 639 0004 0330A0E3 		mov	r3, #3
 640 0008 68739FE5 		ldr	r7, .L32
 485:D:/Work/DeviceTester/amazon-freertos/tests/common/mqtt\aws_test_mqtt_lib.c **** 
 641              		.loc 1 485 0
 642 000c 1440A0E3 		mov	r4, #20
 481:D:/Work/DeviceTester/amazon-freertos/tests/common/mqtt\aws_test_mqtt_lib.c ****                                                                   ( uint16_t ) strlen( "aws" ),
 643              		.loc 1 481 0
 644 0010 0310A0E1 		mov	r1, r3
 488:D:/Work/DeviceTester/amazon-freertos/tests/common/mqtt\aws_test_mqtt_lib.c ****                                                                   ( uint16_t ) strlen( "aws/iot" ),
 645              		.loc 1 488 0
 646 0014 60639FE5 		ldr	r6, .L32+4
 481:D:/Work/DeviceTester/amazon-freertos/tests/common/mqtt\aws_test_mqtt_lib.c ****                                                                   ( uint16_t ) strlen( "aws" ),
 647              		.loc 1 481 0
 648 0018 0720A0E1 		mov	r2, r7
 649 001c 0700A0E1 		mov	r0, r7
 650 0020 FEFFFFEB 		bl	Test_prvDoesTopicMatchTopicFilter
 651              	.LVL71:
 485:D:/Work/DeviceTester/amazon-freertos/tests/common/mqtt\aws_test_mqtt_lib.c **** 
 652              		.loc 1 485 0
 653 0024 00408DE5 		str	r4, [sp]
 654 0028 0010A0E1 		mov	r1, r0
 655 002c E53100E3 		movw	r3, #485
 656 0030 0020A0E3 		mov	r2, #0
 657 0034 0100A0E3 		mov	r0, #1
 658              	.LVL72:
 495:D:/Work/DeviceTester/amazon-freertos/tests/common/mqtt\aws_test_mqtt_lib.c ****                                                                   ( uint16_t ) strlen( "aws//iot" )
 659              		.loc 1 495 0
 660 0038 40539FE5 		ldr	r5, .L32+8
 485:D:/Work/DeviceTester/amazon-freertos/tests/common/mqtt\aws_test_mqtt_lib.c **** 
 661              		.loc 1 485 0
 662 003c FEFFFFEB 		bl	UnityAssertEqualNumber
 663              	.LVL73:
 488:D:/Work/DeviceTester/amazon-freertos/tests/common/mqtt\aws_test_mqtt_lib.c ****                                                                   ( uint16_t ) strlen( "aws/iot" ),
 664              		.loc 1 488 0
 665 0040 0730A0E3 		mov	r3, #7
 666 0044 0620A0E1 		mov	r2, r6
 667 0048 0310A0E1 		mov	r1, r3
 668 004c 0600A0E1 		mov	r0, r6
 669 0050 FEFFFFEB 		bl	Test_prvDoesTopicMatchTopicFilter
 670              	.LVL74:
 492:D:/Work/DeviceTester/amazon-freertos/tests/common/mqtt\aws_test_mqtt_lib.c **** 
 671              		.loc 1 492 0
 672 0054 00408DE5 		str	r4, [sp]
 673 0058 0010A0E1 		mov	r1, r0
 674 005c 7B3FA0E3 		mov	r3, #492
 675 0060 0020A0E3 		mov	r2, #0
 676 0064 0100A0E3 		mov	r0, #1
 677              	.LVL75:
 502:D:/Work/DeviceTester/amazon-freertos/tests/common/mqtt\aws_test_mqtt_lib.c ****                                                                   ( uint16_t ) strlen( "aws/iot" ),
 678              		.loc 1 502 0
 679 0068 14839FE5 		ldr	r8, .L32+12
 492:D:/Work/DeviceTester/amazon-freertos/tests/common/mqtt\aws_test_mqtt_lib.c **** 
 680              		.loc 1 492 0
 681 006c FEFFFFEB 		bl	UnityAssertEqualNumber
 682              	.LVL76:
 495:D:/Work/DeviceTester/amazon-freertos/tests/common/mqtt\aws_test_mqtt_lib.c ****                                                                   ( uint16_t ) strlen( "aws//iot" )
 683              		.loc 1 495 0
 684 0070 0830A0E3 		mov	r3, #8
 685 0074 0520A0E1 		mov	r2, r5
 686 0078 0310A0E1 		mov	r1, r3
 687 007c 0500A0E1 		mov	r0, r5
 688 0080 FEFFFFEB 		bl	Test_prvDoesTopicMatchTopicFilter
 689              	.LVL77:
 499:D:/Work/DeviceTester/amazon-freertos/tests/common/mqtt\aws_test_mqtt_lib.c **** 
 690              		.loc 1 499 0
 691 0084 00408DE5 		str	r4, [sp]
 692 0088 0010A0E1 		mov	r1, r0
 693 008c F33100E3 		movw	r3, #499
 694 0090 0020A0E3 		mov	r2, #0
 695 0094 0100A0E3 		mov	r0, #1
 696              	.LVL78:
 523:D:/Work/DeviceTester/amazon-freertos/tests/common/mqtt\aws_test_mqtt_lib.c ****                                                                   ( uint16_t ) strlen( "aws/iot/sha
 697              		.loc 1 523 0
 698 0098 E8A29FE5 		ldr	r10, .L32+16
 499:D:/Work/DeviceTester/amazon-freertos/tests/common/mqtt\aws_test_mqtt_lib.c **** 
 699              		.loc 1 499 0
 700 009c FEFFFFEB 		bl	UnityAssertEqualNumber
 701              	.LVL79:
 502:D:/Work/DeviceTester/amazon-freertos/tests/common/mqtt\aws_test_mqtt_lib.c ****                                                                   ( uint16_t ) strlen( "aws/iot" ),
 702              		.loc 1 502 0
 703 00a0 0600A0E1 		mov	r0, r6
 509:D:/Work/DeviceTester/amazon-freertos/tests/common/mqtt\aws_test_mqtt_lib.c ****                                                                   ( uint16_t ) strlen( "aws/iot/sha
 704              		.loc 1 509 0
 705 00a4 E0629FE5 		ldr	r6, .L32+20
 502:D:/Work/DeviceTester/amazon-freertos/tests/common/mqtt\aws_test_mqtt_lib.c ****                                                                   ( uint16_t ) strlen( "aws/iot" ),
 706              		.loc 1 502 0
 707 00a8 0820A0E1 		mov	r2, r8
 708 00ac 0530A0E3 		mov	r3, #5
 709 00b0 0710A0E3 		mov	r1, #7
 530:D:/Work/DeviceTester/amazon-freertos/tests/common/mqtt\aws_test_mqtt_lib.c ****                                                                   ( uint16_t ) strlen( "/aws/iot/sh
 710              		.loc 1 530 0
 711 00b4 D4929FE5 		ldr	r9, .L32+24
 502:D:/Work/DeviceTester/amazon-freertos/tests/common/mqtt\aws_test_mqtt_lib.c ****                                                                   ( uint16_t ) strlen( "aws/iot" ),
 712              		.loc 1 502 0
 713 00b8 FEFFFFEB 		bl	Test_prvDoesTopicMatchTopicFilter
 714              	.LVL80:
 506:D:/Work/DeviceTester/amazon-freertos/tests/common/mqtt\aws_test_mqtt_lib.c **** 
 715              		.loc 1 506 0
 716 00bc 00408DE5 		str	r4, [sp]
 717 00c0 0010A0E1 		mov	r1, r0
 718 00c4 FA3100E3 		movw	r3, #506
 719 00c8 0020A0E3 		mov	r2, #0
 720 00cc 0100A0E3 		mov	r0, #1
 721              	.LVL81:
 722 00d0 FEFFFFEB 		bl	UnityAssertEqualNumber
 723              	.LVL82:
 509:D:/Work/DeviceTester/amazon-freertos/tests/common/mqtt\aws_test_mqtt_lib.c ****                                                                   ( uint16_t ) strlen( "aws/iot/sha
 724              		.loc 1 509 0
 725 00d4 0C30A0E3 		mov	r3, #12
 726 00d8 B4229FE5 		ldr	r2, .L32+28
 727 00dc 0E10A0E3 		mov	r1, #14
 728 00e0 0600A0E1 		mov	r0, r6
 729 00e4 FEFFFFEB 		bl	Test_prvDoesTopicMatchTopicFilter
 730              	.LVL83:
 513:D:/Work/DeviceTester/amazon-freertos/tests/common/mqtt\aws_test_mqtt_lib.c **** 
 731              		.loc 1 513 0
 732 00e8 00408DE5 		str	r4, [sp]
 733 00ec 0010A0E1 		mov	r1, r0
 734 00f0 013200E3 		movw	r3, #513
 735 00f4 0020A0E3 		mov	r2, #0
 736 00f8 0100A0E3 		mov	r0, #1
 737              	.LVL84:
 738 00fc FEFFFFEB 		bl	UnityAssertEqualNumber
 739              	.LVL85:
 516:D:/Work/DeviceTester/amazon-freertos/tests/common/mqtt\aws_test_mqtt_lib.c ****                                                                   ( uint16_t ) strlen( "aws/iot/sha
 740              		.loc 1 516 0
 741 0100 0730A0E3 		mov	r3, #7
 742 0104 8C229FE5 		ldr	r2, .L32+32
 743 0108 0E10A0E3 		mov	r1, #14
 744 010c 0600A0E1 		mov	r0, r6
 745 0110 FEFFFFEB 		bl	Test_prvDoesTopicMatchTopicFilter
 746              	.LVL86:
 520:D:/Work/DeviceTester/amazon-freertos/tests/common/mqtt\aws_test_mqtt_lib.c **** 
 747              		.loc 1 520 0
 748 0114 00408DE5 		str	r4, [sp]
 749 0118 0010A0E1 		mov	r1, r0
 750 011c 823FA0E3 		mov	r3, #520
 751 0120 0020A0E3 		mov	r2, #0
 752 0124 0100A0E3 		mov	r0, #1
 753              	.LVL87:
 754 0128 FEFFFFEB 		bl	UnityAssertEqualNumber
 755              	.LVL88:
 523:D:/Work/DeviceTester/amazon-freertos/tests/common/mqtt\aws_test_mqtt_lib.c ****                                                                   ( uint16_t ) strlen( "aws/iot/sha
 756              		.loc 1 523 0
 757 012c 0A20A0E1 		mov	r2, r10
 758 0130 0130A0E3 		mov	r3, #1
 759 0134 0E10A0E3 		mov	r1, #14
 760 0138 0600A0E1 		mov	r0, r6
 761 013c FEFFFFEB 		bl	Test_prvDoesTopicMatchTopicFilter
 762              	.LVL89:
 527:D:/Work/DeviceTester/amazon-freertos/tests/common/mqtt\aws_test_mqtt_lib.c **** 
 763              		.loc 1 527 0
 764 0140 00408DE5 		str	r4, [sp]
 765 0144 0010A0E1 		mov	r1, r0
 766 0148 0F3200E3 		movw	r3, #527
 767 014c 0020A0E3 		mov	r2, #0
 768 0150 0100A0E3 		mov	r0, #1
 769              	.LVL90:
 770 0154 FEFFFFEB 		bl	UnityAssertEqualNumber
 771              	.LVL91:
 530:D:/Work/DeviceTester/amazon-freertos/tests/common/mqtt\aws_test_mqtt_lib.c ****                                                                   ( uint16_t ) strlen( "/aws/iot/sh
 772              		.loc 1 530 0
 773 0158 0A20A0E1 		mov	r2, r10
 774 015c 0130A0E3 		mov	r3, #1
 775 0160 0F10A0E3 		mov	r1, #15
 776 0164 0900A0E1 		mov	r0, r9
 777 0168 FEFFFFEB 		bl	Test_prvDoesTopicMatchTopicFilter
 778              	.LVL92:
 534:D:/Work/DeviceTester/amazon-freertos/tests/common/mqtt\aws_test_mqtt_lib.c **** 
 779              		.loc 1 534 0
 780 016c 00408DE5 		str	r4, [sp]
 781 0170 0010A0E1 		mov	r1, r0
 782 0174 163200E3 		movw	r3, #534
 783 0178 0020A0E3 		mov	r2, #0
 784 017c 0100A0E3 		mov	r0, #1
 785              	.LVL93:
 786 0180 FEFFFFEB 		bl	UnityAssertEqualNumber
 787              	.LVL94:
 537:D:/Work/DeviceTester/amazon-freertos/tests/common/mqtt\aws_test_mqtt_lib.c ****                                                                   ( uint16_t ) strlen( "/aws/iot/sh
 788              		.loc 1 537 0
 789 0184 0900A0E1 		mov	r0, r9
 544:D:/Work/DeviceTester/amazon-freertos/tests/common/mqtt\aws_test_mqtt_lib.c ****                                                                   ( uint16_t ) strlen( "aws/iot/sha
 790              		.loc 1 544 0
 791 0188 0C929FE5 		ldr	r9, .L32+36
 537:D:/Work/DeviceTester/amazon-freertos/tests/common/mqtt\aws_test_mqtt_lib.c ****                                                                   ( uint16_t ) strlen( "/aws/iot/sh
 792              		.loc 1 537 0
 793 018c 0230A0E3 		mov	r3, #2
 794 0190 08229FE5 		ldr	r2, .L32+40
 795 0194 0F10A0E3 		mov	r1, #15
 796 0198 FEFFFFEB 		bl	Test_prvDoesTopicMatchTopicFilter
 797              	.LVL95:
 541:D:/Work/DeviceTester/amazon-freertos/tests/common/mqtt\aws_test_mqtt_lib.c **** 
 798              		.loc 1 541 0
 799 019c 00408DE5 		str	r4, [sp]
 800 01a0 0010A0E1 		mov	r1, r0
 801 01a4 1D3200E3 		movw	r3, #541
 802 01a8 0020A0E3 		mov	r2, #0
 803 01ac 0100A0E3 		mov	r0, #1
 804              	.LVL96:
 805 01b0 FEFFFFEB 		bl	UnityAssertEqualNumber
 806              	.LVL97:
 544:D:/Work/DeviceTester/amazon-freertos/tests/common/mqtt\aws_test_mqtt_lib.c ****                                                                   ( uint16_t ) strlen( "aws/iot/sha
 807              		.loc 1 544 0
 808 01b4 0920A0E1 		mov	r2, r9
 809 01b8 0930A0E3 		mov	r3, #9
 810 01bc 0E10A0E3 		mov	r1, #14
 811 01c0 0600A0E1 		mov	r0, r6
 812 01c4 FEFFFFEB 		bl	Test_prvDoesTopicMatchTopicFilter
 813              	.LVL98:
 548:D:/Work/DeviceTester/amazon-freertos/tests/common/mqtt\aws_test_mqtt_lib.c **** 
 814              		.loc 1 548 0
 815 01c8 00408DE5 		str	r4, [sp]
 816 01cc 0010A0E1 		mov	r1, r0
 817 01d0 893FA0E3 		mov	r3, #548
 818 01d4 0020A0E3 		mov	r2, #0
 819 01d8 0100A0E3 		mov	r0, #1
 820              	.LVL99:
 572:D:/Work/DeviceTester/amazon-freertos/tests/common/mqtt\aws_test_mqtt_lib.c ****                                                                   ( uint16_t ) strlen( "/aws" ),
 821              		.loc 1 572 0
 822 01dc C0619FE5 		ldr	r6, .L32+44
 548:D:/Work/DeviceTester/amazon-freertos/tests/common/mqtt\aws_test_mqtt_lib.c **** 
 823              		.loc 1 548 0
 824 01e0 FEFFFFEB 		bl	UnityAssertEqualNumber
 825              	.LVL100:
 551:D:/Work/DeviceTester/amazon-freertos/tests/common/mqtt\aws_test_mqtt_lib.c ****                                                                   ( uint16_t ) strlen( "aws/iot/sha
 826              		.loc 1 551 0
 827 01e4 0920A0E1 		mov	r2, r9
 828 01e8 0410A0E1 		mov	r1, r4
 829 01ec 0930A0E3 		mov	r3, #9
 830 01f0 B0019FE5 		ldr	r0, .L32+48
 831 01f4 FEFFFFEB 		bl	Test_prvDoesTopicMatchTopicFilter
 832              	.LVL101:
 555:D:/Work/DeviceTester/amazon-freertos/tests/common/mqtt\aws_test_mqtt_lib.c **** 
 833              		.loc 1 555 0
 834 01f8 00408DE5 		str	r4, [sp]
 835 01fc 0010A0E1 		mov	r1, r0
 836 0200 2B3200E3 		movw	r3, #555
 837 0204 0020A0E3 		mov	r2, #0
 838 0208 0100A0E3 		mov	r0, #1
 839              	.LVL102:
 840 020c FEFFFFEB 		bl	UnityAssertEqualNumber
 841              	.LVL103:
 558:D:/Work/DeviceTester/amazon-freertos/tests/common/mqtt\aws_test_mqtt_lib.c ****                                                                   ( uint16_t ) strlen( "aws" ),
 842              		.loc 1 558 0
 843 0210 0530A0E3 		mov	r3, #5
 844 0214 90219FE5 		ldr	r2, .L32+52
 845 0218 0310A0E3 		mov	r1, #3
 846 021c 0700A0E1 		mov	r0, r7
 847 0220 FEFFFFEB 		bl	Test_prvDoesTopicMatchTopicFilter
 848              	.LVL104:
 562:D:/Work/DeviceTester/amazon-freertos/tests/common/mqtt\aws_test_mqtt_lib.c **** 
 849              		.loc 1 562 0
 850 0224 00408DE5 		str	r4, [sp]
 851 0228 0010A0E1 		mov	r1, r0
 852 022c 323200E3 		movw	r3, #562
 853 0230 0020A0E3 		mov	r2, #0
 854 0234 0100A0E3 		mov	r0, #1
 855              	.LVL105:
 856 0238 FEFFFFEB 		bl	UnityAssertEqualNumber
 857              	.LVL106:
 565:D:/Work/DeviceTester/amazon-freertos/tests/common/mqtt\aws_test_mqtt_lib.c ****                                                                   ( uint16_t ) strlen( "aws/" ),
 858              		.loc 1 565 0
 859 023c 0820A0E1 		mov	r2, r8
 860 0240 0530A0E3 		mov	r3, #5
 861 0244 0410A0E3 		mov	r1, #4
 862 0248 60019FE5 		ldr	r0, .L32+56
 863 024c FEFFFFEB 		bl	Test_prvDoesTopicMatchTopicFilter
 864              	.LVL107:
 569:D:/Work/DeviceTester/amazon-freertos/tests/common/mqtt\aws_test_mqtt_lib.c **** 
 865              		.loc 1 569 0
 866 0250 00408DE5 		str	r4, [sp]
 867 0254 0010A0E1 		mov	r1, r0
 868 0258 393200E3 		movw	r3, #569
 869 025c 0020A0E3 		mov	r2, #0
 870 0260 0100A0E3 		mov	r0, #1
 871              	.LVL108:
 872 0264 FEFFFFEB 		bl	UnityAssertEqualNumber
 873              	.LVL109:
 572:D:/Work/DeviceTester/amazon-freertos/tests/common/mqtt\aws_test_mqtt_lib.c ****                                                                   ( uint16_t ) strlen( "/aws" ),
 874              		.loc 1 572 0
 875 0268 0330A0E3 		mov	r3, #3
 876 026c 40219FE5 		ldr	r2, .L32+60
 877 0270 0410A0E3 		mov	r1, #4
 878 0274 0600A0E1 		mov	r0, r6
 879 0278 FEFFFFEB 		bl	Test_prvDoesTopicMatchTopicFilter
 880              	.LVL110:
 576:D:/Work/DeviceTester/amazon-freertos/tests/common/mqtt\aws_test_mqtt_lib.c **** 
 881              		.loc 1 576 0
 882 027c 00408DE5 		str	r4, [sp]
 883 0280 0010A0E1 		mov	r1, r0
 884 0284 093DA0E3 		mov	r3, #576
 885 0288 0020A0E3 		mov	r2, #0
 886 028c 0100A0E3 		mov	r0, #1
 887              	.LVL111:
 888 0290 FEFFFFEB 		bl	UnityAssertEqualNumber
 889              	.LVL112:
 579:D:/Work/DeviceTester/amazon-freertos/tests/common/mqtt\aws_test_mqtt_lib.c ****                                                                   ( uint16_t ) strlen( "aws//iot" )
 890              		.loc 1 579 0
 891 0294 0930A0E3 		mov	r3, #9
 892 0298 18219FE5 		ldr	r2, .L32+64
 893 029c 0810A0E3 		mov	r1, #8
 894 02a0 0500A0E1 		mov	r0, r5
 895 02a4 FEFFFFEB 		bl	Test_prvDoesTopicMatchTopicFilter
 896              	.LVL113:
 583:D:/Work/DeviceTester/amazon-freertos/tests/common/mqtt\aws_test_mqtt_lib.c **** 
 897              		.loc 1 583 0
 898 02a8 00408DE5 		str	r4, [sp]
 899 02ac 0010A0E1 		mov	r1, r0
 900 02b0 473200E3 		movw	r3, #583
 901 02b4 0020A0E3 		mov	r2, #0
 902 02b8 0100A0E3 		mov	r0, #1
 903              	.LVL114:
 904 02bc FEFFFFEB 		bl	UnityAssertEqualNumber
 905              	.LVL115:
 586:D:/Work/DeviceTester/amazon-freertos/tests/common/mqtt\aws_test_mqtt_lib.c ****                                                                   ( uint16_t ) strlen( "aws///iot" 
 906              		.loc 1 586 0
 907 02c0 0B30A0E3 		mov	r3, #11
 908 02c4 F0209FE5 		ldr	r2, .L32+68
 909 02c8 0910A0E3 		mov	r1, #9
 910 02cc EC009FE5 		ldr	r0, .L32+72
 911 02d0 FEFFFFEB 		bl	Test_prvDoesTopicMatchTopicFilter
 912              	.LVL116:
 590:D:/Work/DeviceTester/amazon-freertos/tests/common/mqtt\aws_test_mqtt_lib.c **** 
 913              		.loc 1 590 0
 914 02d4 00408DE5 		str	r4, [sp]
 915 02d8 0010A0E1 		mov	r1, r0
 916 02dc 4E3200E3 		movw	r3, #590
 917 02e0 0020A0E3 		mov	r2, #0
 918 02e4 0100A0E3 		mov	r0, #1
 919              	.LVL117:
 920 02e8 FEFFFFEB 		bl	UnityAssertEqualNumber
 921              	.LVL118:
 593:D:/Work/DeviceTester/amazon-freertos/tests/common/mqtt\aws_test_mqtt_lib.c ****                                                                   ( uint16_t ) strlen( "aws//iot" )
 922              		.loc 1 593 0
 923 02ec 0630A0E3 		mov	r3, #6
 924 02f0 CC209FE5 		ldr	r2, .L32+76
 925 02f4 0810A0E3 		mov	r1, #8
 926 02f8 0500A0E1 		mov	r0, r5
 927 02fc FEFFFFEB 		bl	Test_prvDoesTopicMatchTopicFilter
 928              	.LVL119:
 597:D:/Work/DeviceTester/amazon-freertos/tests/common/mqtt\aws_test_mqtt_lib.c **** 
 929              		.loc 1 597 0
 930 0300 00408DE5 		str	r4, [sp]
 931 0304 0010A0E1 		mov	r1, r0
 932 0308 553200E3 		movw	r3, #597
 933 030c 0020A0E3 		mov	r2, #0
 934 0310 0100A0E3 		mov	r0, #1
 935              	.LVL120:
 936 0314 FEFFFFEB 		bl	UnityAssertEqualNumber
 937              	.LVL121:
 600:D:/Work/DeviceTester/amazon-freertos/tests/common/mqtt\aws_test_mqtt_lib.c ****                                                                   ( uint16_t ) strlen( "/aws" ),
 938              		.loc 1 600 0
 939 0318 0230A0E3 		mov	r3, #2
 940 031c A4209FE5 		ldr	r2, .L32+80
 941 0320 0410A0E3 		mov	r1, #4
 942 0324 0600A0E1 		mov	r0, r6
 943 0328 FEFFFFEB 		bl	Test_prvDoesTopicMatchTopicFilter
 944              	.LVL122:
 604:D:/Work/DeviceTester/amazon-freertos/tests/common/mqtt\aws_test_mqtt_lib.c **** 
 945              		.loc 1 604 0
 946 032c 00408DE5 		str	r4, [sp]
 947 0330 0010A0E1 		mov	r1, r0
 948 0334 973FA0E3 		mov	r3, #604
 949 0338 0020A0E3 		mov	r2, #0
 950 033c 0100A0E3 		mov	r0, #1
 951              	.LVL123:
 952 0340 FEFFFFEB 		bl	UnityAssertEqualNumber
 953              	.LVL124:
 607:D:/Work/DeviceTester/amazon-freertos/tests/common/mqtt\aws_test_mqtt_lib.c ****                                                                   ( uint16_t ) strlen( "aws/iot/sha
 954              		.loc 1 607 0
 955 0344 0E30A0E3 		mov	r3, #14
 956 0348 7C209FE5 		ldr	r2, .L32+84
 957 034c 1910A0E3 		mov	r1, #25
 958 0350 78009FE5 		ldr	r0, .L32+88
 959 0354 FEFFFFEB 		bl	Test_prvDoesTopicMatchTopicFilter
 960              	.LVL125:
 611:D:/Work/DeviceTester/amazon-freertos/tests/common/mqtt\aws_test_mqtt_lib.c **** }
 961              		.loc 1 611 0
 962 0358 00408DE5 		str	r4, [sp]
 963 035c 0010A0E1 		mov	r1, r0
 964 0360 633200E3 		movw	r3, #611
 965 0364 0020A0E3 		mov	r2, #0
 966 0368 0100A0E3 		mov	r0, #1
 967              	.LVL126:
 968 036c FEFFFFEB 		bl	UnityAssertEqualNumber
 969              	.LVL127:
 612:D:/Work/DeviceTester/amazon-freertos/tests/common/mqtt\aws_test_mqtt_lib.c **** /*-----------------------------------------------------------*/
 970              		.loc 1 612 0
 971 0370 08D08DE2 		add	sp, sp, #8
 972              		.cfi_def_cfa_offset 32
 973              		@ sp needed
 974 0374 F087BDE8 		pop	{r4, r5, r6, r7, r8, r9, r10, pc}
 975              	.L33:
 976              		.align	2
 977              	.L32:
 978 0378 00000000 		.word	.LC0
 979 037c 04000000 		.word	.LC1
 980 0380 00000000 		.word	.LC18
 981 0384 09000000 		.word	.LC19
 982 0388 22000000 		.word	.LC6
 983 038c 1C000000 		.word	.LC21
 984 0390 33000000 		.word	.LC23
 985 0394 0F000000 		.word	.LC20
 986 0398 2B000000 		.word	.LC22
 987 039c 46000000 		.word	.LC25
 988 03a0 43000000 		.word	.LC24
 989 03a4 74000000 		.word	.LC30
 990 03a8 50000000 		.word	.LC26
 991 03ac 65000000 		.word	.LC27
 992 03b0 6B000000 		.word	.LC28
 993 03b4 70000000 		.word	.LC29
 994 03b8 79000000 		.word	.LC31
 995 03bc 83000000 		.word	.LC32
 996 03c0 8F000000 		.word	.LC33
 997 03c4 99000000 		.word	.LC34
 998 03c8 A0000000 		.word	.LC35
 999 03cc A3000000 		.word	.LC36
 1000 03d0 B2000000 		.word	.LC37
 1001              		.cfi_endproc
 1002              	.LFE15:
 1004              		.section	.text.TEST_Full_MQTT_AFQP_prvDoesTopicMatchTopicFilter_NotMatchCases_,"ax",%progbits
 1005              		.align	2
 1006              		.global	TEST_Full_MQTT_AFQP_prvDoesTopicMatchTopicFilter_NotMatchCases_
 1007              		.syntax unified
 1008              		.arm
 1009              		.fpu neon
 1011              	TEST_Full_MQTT_AFQP_prvDoesTopicMatchTopicFilter_NotMatchCases_:
 1012              	.LFB17:
 619:D:/Work/DeviceTester/amazon-freertos/tests/common/mqtt\aws_test_mqtt_lib.c ****     MQTTBool_t xTopicMatchesTopicFilter;
 1013              		.loc 1 619 0
 1014              		.cfi_startproc
 1015              		@ args = 0, pretend = 0, frame = 0
 1016              		@ frame_needed = 0, uses_anonymous_args = 0
 1017 0000 F7402DE9 		push	{r0, r1, r2, r4, r5, r6, r7, lr}
 1018              		.cfi_def_cfa_offset 32
 1019              		.cfi_offset 4, -20
 1020              		.cfi_offset 5, -16
 1021              		.cfi_offset 6, -12
 1022              		.cfi_offset 7, -8
 1023              		.cfi_offset 14, -4
 623:D:/Work/DeviceTester/amazon-freertos/tests/common/mqtt\aws_test_mqtt_lib.c ****                                                                   ( uint16_t ) strlen( "aws" ),
 1024              		.loc 1 623 0
 1025 0004 0330A0E3 		mov	r3, #3
 1026 0008 F4519FE5 		ldr	r5, .L36
 1027 000c 0310A0E1 		mov	r1, r3
 627:D:/Work/DeviceTester/amazon-freertos/tests/common/mqtt\aws_test_mqtt_lib.c **** 
 1028              		.loc 1 627 0
 1029 0010 1440A0E3 		mov	r4, #20
 623:D:/Work/DeviceTester/amazon-freertos/tests/common/mqtt\aws_test_mqtt_lib.c ****                                                                   ( uint16_t ) strlen( "aws" ),
 1030              		.loc 1 623 0
 1031 0014 EC219FE5 		ldr	r2, .L36+4
 1032 0018 0500A0E1 		mov	r0, r5
 637:D:/Work/DeviceTester/amazon-freertos/tests/common/mqtt\aws_test_mqtt_lib.c ****                                                                   ( uint16_t ) strlen( "aws/iot" ),
 1033              		.loc 1 637 0
 1034 001c E8619FE5 		ldr	r6, .L36+8
 623:D:/Work/DeviceTester/amazon-freertos/tests/common/mqtt\aws_test_mqtt_lib.c ****                                                                   ( uint16_t ) strlen( "aws" ),
 1035              		.loc 1 623 0
 1036 0020 FEFFFFEB 		bl	Test_prvDoesTopicMatchTopicFilter
 1037              	.LVL128:
 627:D:/Work/DeviceTester/amazon-freertos/tests/common/mqtt\aws_test_mqtt_lib.c **** 
 1038              		.loc 1 627 0
 1039 0024 0020A0E3 		mov	r2, #0
 1040 0028 0010A0E1 		mov	r1, r0
 1041 002c 00408DE5 		str	r4, [sp]
 1042 0030 0200A0E1 		mov	r0, r2
 1043              	.LVL129:
 1044 0034 733200E3 		movw	r3, #627
 651:D:/Work/DeviceTester/amazon-freertos/tests/common/mqtt\aws_test_mqtt_lib.c ****                                                                   ( uint16_t ) strlen( "aws" ),
 1045              		.loc 1 651 0
 1046 0038 D0719FE5 		ldr	r7, .L36+12
 627:D:/Work/DeviceTester/amazon-freertos/tests/common/mqtt\aws_test_mqtt_lib.c **** 
 1047              		.loc 1 627 0
 1048 003c FEFFFFEB 		bl	UnityAssertEqualNumber
 1049              	.LVL130:
 630:D:/Work/DeviceTester/amazon-freertos/tests/common/mqtt\aws_test_mqtt_lib.c ****                                                                   ( uint16_t ) strlen( "AWS" ),
 1050              		.loc 1 630 0
 1051 0040 0330A0E3 		mov	r3, #3
 1052 0044 0520A0E1 		mov	r2, r5
 1053 0048 0310A0E1 		mov	r1, r3
 1054 004c C0019FE5 		ldr	r0, .L36+16
 1055 0050 FEFFFFEB 		bl	Test_prvDoesTopicMatchTopicFilter
 1056              	.LVL131:
 634:D:/Work/DeviceTester/amazon-freertos/tests/common/mqtt\aws_test_mqtt_lib.c **** 
 1057              		.loc 1 634 0
 1058 0054 0020A0E3 		mov	r2, #0
 1059 0058 0010A0E1 		mov	r1, r0
 1060 005c 00408DE5 		str	r4, [sp]
 1061 0060 0200A0E1 		mov	r0, r2
 1062              	.LVL132:
 1063 0064 7A3200E3 		movw	r3, #634
 1064 0068 FEFFFFEB 		bl	UnityAssertEqualNumber
 1065              	.LVL133:
 637:D:/Work/DeviceTester/amazon-freertos/tests/common/mqtt\aws_test_mqtt_lib.c ****                                                                   ( uint16_t ) strlen( "aws/iot" ),
 1066              		.loc 1 637 0
 1067 006c 0520A0E1 		mov	r2, r5
 1068 0070 0330A0E3 		mov	r3, #3
 1069 0074 0710A0E3 		mov	r1, #7
 1070 0078 0600A0E1 		mov	r0, r6
 1071 007c FEFFFFEB 		bl	Test_prvDoesTopicMatchTopicFilter
 1072              	.LVL134:
 641:D:/Work/DeviceTester/amazon-freertos/tests/common/mqtt\aws_test_mqtt_lib.c **** 
 1073              		.loc 1 641 0
 1074 0080 0020A0E3 		mov	r2, #0
 1075 0084 0010A0E1 		mov	r1, r0
 1076 0088 00408DE5 		str	r4, [sp]
 1077 008c 0200A0E1 		mov	r0, r2
 1078              	.LVL135:
 1079 0090 813200E3 		movw	r3, #641
 1080 0094 FEFFFFEB 		bl	UnityAssertEqualNumber
 1081              	.LVL136:
 644:D:/Work/DeviceTester/amazon-freertos/tests/common/mqtt\aws_test_mqtt_lib.c ****                                                                   ( uint16_t ) strlen( "aws" ),
 1082              		.loc 1 644 0
 1083 0098 0620A0E1 		mov	r2, r6
 1084 009c 0730A0E3 		mov	r3, #7
 1085 00a0 0310A0E3 		mov	r1, #3
 1086 00a4 0500A0E1 		mov	r0, r5
 1087 00a8 FEFFFFEB 		bl	Test_prvDoesTopicMatchTopicFilter
 1088              	.LVL137:
 648:D:/Work/DeviceTester/amazon-freertos/tests/common/mqtt\aws_test_mqtt_lib.c **** 
 1089              		.loc 1 648 0
 1090 00ac 0020A0E3 		mov	r2, #0
 1091 00b0 0010A0E1 		mov	r1, r0
 1092 00b4 00408DE5 		str	r4, [sp]
 1093 00b8 0200A0E1 		mov	r0, r2
 1094              	.LVL138:
 1095 00bc A23FA0E3 		mov	r3, #648
 1096 00c0 FEFFFFEB 		bl	UnityAssertEqualNumber
 1097              	.LVL139:
 651:D:/Work/DeviceTester/amazon-freertos/tests/common/mqtt\aws_test_mqtt_lib.c ****                                                                   ( uint16_t ) strlen( "aws" ),
 1098              		.loc 1 651 0
 1099 00c4 0720A0E1 		mov	r2, r7
 1100 00c8 0530A0E3 		mov	r3, #5
 1101 00cc 0310A0E3 		mov	r1, #3
 1102 00d0 0500A0E1 		mov	r0, r5
 658:D:/Work/DeviceTester/amazon-freertos/tests/common/mqtt\aws_test_mqtt_lib.c ****                                                                   ( uint16_t ) strlen( "aws/iot/sha
 1103              		.loc 1 658 0
 1104 00d4 3C519FE5 		ldr	r5, .L36+20
 651:D:/Work/DeviceTester/amazon-freertos/tests/common/mqtt\aws_test_mqtt_lib.c ****                                                                   ( uint16_t ) strlen( "aws" ),
 1105              		.loc 1 651 0
 1106 00d8 FEFFFFEB 		bl	Test_prvDoesTopicMatchTopicFilter
 1107              	.LVL140:
 655:D:/Work/DeviceTester/amazon-freertos/tests/common/mqtt\aws_test_mqtt_lib.c **** 
 1108              		.loc 1 655 0
 1109 00dc 0020A0E3 		mov	r2, #0
 1110 00e0 0010A0E1 		mov	r1, r0
 1111 00e4 00408DE5 		str	r4, [sp]
 1112 00e8 0200A0E1 		mov	r0, r2
 1113              	.LVL141:
 1114 00ec 8F3200E3 		movw	r3, #655
 1115 00f0 FEFFFFEB 		bl	UnityAssertEqualNumber
 1116              	.LVL142:
 658:D:/Work/DeviceTester/amazon-freertos/tests/common/mqtt\aws_test_mqtt_lib.c ****                                                                   ( uint16_t ) strlen( "aws/iot/sha
 1117              		.loc 1 658 0
 1118 00f4 0720A0E1 		mov	r2, r7
 1119 00f8 0530A0E3 		mov	r3, #5
 1120 00fc 0E10A0E3 		mov	r1, #14
 1121 0100 0500A0E1 		mov	r0, r5
 1122 0104 FEFFFFEB 		bl	Test_prvDoesTopicMatchTopicFilter
 1123              	.LVL143:
 662:D:/Work/DeviceTester/amazon-freertos/tests/common/mqtt\aws_test_mqtt_lib.c **** 
 1124              		.loc 1 662 0
 1125 0108 0020A0E3 		mov	r2, #0
 1126 010c 0010A0E1 		mov	r1, r0
 1127 0110 00408DE5 		str	r4, [sp]
 1128 0114 0200A0E1 		mov	r0, r2
 1129              	.LVL144:
 1130 0118 963200E3 		movw	r3, #662
 1131 011c FEFFFFEB 		bl	UnityAssertEqualNumber
 1132              	.LVL145:
 665:D:/Work/DeviceTester/amazon-freertos/tests/common/mqtt\aws_test_mqtt_lib.c ****                                                                   ( uint16_t ) strlen( "aws/iot/sha
 1133              		.loc 1 665 0
 1134 0120 0B30A0E3 		mov	r3, #11
 1135 0124 F0209FE5 		ldr	r2, .L36+24
 1136 0128 0E10A0E3 		mov	r1, #14
 1137 012c 0500A0E1 		mov	r0, r5
 1138 0130 FEFFFFEB 		bl	Test_prvDoesTopicMatchTopicFilter
 1139              	.LVL146:
 669:D:/Work/DeviceTester/amazon-freertos/tests/common/mqtt\aws_test_mqtt_lib.c **** 
 1140              		.loc 1 669 0
 1141 0134 0020A0E3 		mov	r2, #0
 1142 0138 0010A0E1 		mov	r1, r0
 1143 013c 00408DE5 		str	r4, [sp]
 1144 0140 0200A0E1 		mov	r0, r2
 1145              	.LVL147:
 1146 0144 9D3200E3 		movw	r3, #669
 1147 0148 FEFFFFEB 		bl	UnityAssertEqualNumber
 1148              	.LVL148:
 672:D:/Work/DeviceTester/amazon-freertos/tests/common/mqtt\aws_test_mqtt_lib.c ****                                                                   ( uint16_t ) strlen( "aws/iot/sha
 1149              		.loc 1 672 0
 1150 014c 0530A0E3 		mov	r3, #5
 1151 0150 C8209FE5 		ldr	r2, .L36+28
 1152 0154 0E10A0E3 		mov	r1, #14
 1153 0158 0500A0E1 		mov	r0, r5
 1154 015c FEFFFFEB 		bl	Test_prvDoesTopicMatchTopicFilter
 1155              	.LVL149:
 676:D:/Work/DeviceTester/amazon-freertos/tests/common/mqtt\aws_test_mqtt_lib.c **** 
 1156              		.loc 1 676 0
 1157 0160 0020A0E3 		mov	r2, #0
 1158 0164 0010A0E1 		mov	r1, r0
 1159 0168 00408DE5 		str	r4, [sp]
 1160 016c 0200A0E1 		mov	r0, r2
 1161              	.LVL150:
 1162 0170 A93FA0E3 		mov	r3, #676
 1163 0174 FEFFFFEB 		bl	UnityAssertEqualNumber
 1164              	.LVL151:
 679:D:/Work/DeviceTester/amazon-freertos/tests/common/mqtt\aws_test_mqtt_lib.c ****                                                                   ( uint16_t ) strlen( "aws/iot/sha
 1165              		.loc 1 679 0
 1166 0178 0730A0E3 		mov	r3, #7
 1167 017c A0209FE5 		ldr	r2, .L36+32
 1168 0180 0E10A0E3 		mov	r1, #14
 1169 0184 0500A0E1 		mov	r0, r5
 1170 0188 FEFFFFEB 		bl	Test_prvDoesTopicMatchTopicFilter
 1171              	.LVL152:
 683:D:/Work/DeviceTester/amazon-freertos/tests/common/mqtt\aws_test_mqtt_lib.c **** 
 1172              		.loc 1 683 0
 1173 018c 0020A0E3 		mov	r2, #0
 1174 0190 0010A0E1 		mov	r1, r0
 1175 0194 00408DE5 		str	r4, [sp]
 1176 0198 0200A0E1 		mov	r0, r2
 1177              	.LVL153:
 1178 019c AB3200E3 		movw	r3, #683
 1179 01a0 FEFFFFEB 		bl	UnityAssertEqualNumber
 1180              	.LVL154:
 686:D:/Work/DeviceTester/amazon-freertos/tests/common/mqtt\aws_test_mqtt_lib.c ****                                                                   ( uint16_t ) strlen( "/aws" ),
 1181              		.loc 1 686 0
 1182 01a4 0130A0E3 		mov	r3, #1
 1183 01a8 78209FE5 		ldr	r2, .L36+36
 1184 01ac 0410A0E3 		mov	r1, #4
 1185 01b0 74009FE5 		ldr	r0, .L36+40
 1186 01b4 FEFFFFEB 		bl	Test_prvDoesTopicMatchTopicFilter
 1187              	.LVL155:
 690:D:/Work/DeviceTester/amazon-freertos/tests/common/mqtt\aws_test_mqtt_lib.c **** 
 1188              		.loc 1 690 0
 1189 01b8 0020A0E3 		mov	r2, #0
 1190 01bc 0010A0E1 		mov	r1, r0
 1191 01c0 00408DE5 		str	r4, [sp]
 1192 01c4 0200A0E1 		mov	r0, r2
 1193              	.LVL156:
 1194 01c8 B23200E3 		movw	r3, #690
 1195 01cc FEFFFFEB 		bl	UnityAssertEqualNumber
 1196              	.LVL157:
 693:D:/Work/DeviceTester/amazon-freertos/tests/common/mqtt\aws_test_mqtt_lib.c ****                                                                   ( uint16_t ) strlen( "aws/iot" ),
 1197              		.loc 1 693 0
 1198 01d0 0230A0E3 		mov	r3, #2
 1199 01d4 54209FE5 		ldr	r2, .L36+44
 1200 01d8 0710A0E3 		mov	r1, #7
 1201 01dc 0600A0E1 		mov	r0, r6
 1202 01e0 FEFFFFEB 		bl	Test_prvDoesTopicMatchTopicFilter
 1203              	.LVL158:
 697:D:/Work/DeviceTester/amazon-freertos/tests/common/mqtt\aws_test_mqtt_lib.c **** }
 1204              		.loc 1 697 0
 1205 01e4 0020A0E3 		mov	r2, #0
 1206 01e8 0010A0E1 		mov	r1, r0
 1207 01ec 00408DE5 		str	r4, [sp]
 1208 01f0 B93200E3 		movw	r3, #697
 1209 01f4 0200A0E1 		mov	r0, r2
 1210              	.LVL159:
 1211 01f8 FEFFFFEB 		bl	UnityAssertEqualNumber
 1212              	.LVL160:
 698:D:/Work/DeviceTester/amazon-freertos/tests/common/mqtt\aws_test_mqtt_lib.c **** /*-----------------------------------------------------------*/
 1213              		.loc 1 698 0
 1214 01fc 0CD08DE2 		add	sp, sp, #12
 1215              		.cfi_def_cfa_offset 20
 1216              		@ sp needed
 1217 0200 F080BDE8 		pop	{r4, r5, r6, r7, pc}
 1218              	.L37:
 1219              		.align	2
 1220              	.L36:
 1221 0204 00000000 		.word	.LC0
 1222 0208 00000000 		.word	.LC38
 1223 020c 04000000 		.word	.LC1
 1224 0210 09000000 		.word	.LC19
 1225 0214 04000000 		.word	.LC39
 1226 0218 1C000000 		.word	.LC21
 1227 021c 08000000 		.word	.LC40
 1228 0220 14000000 		.word	.LC41
 1229 0224 1A000000 		.word	.LC42
 1230 0228 0C000000 		.word	.LC2
 1231 022c 74000000 		.word	.LC30
 1232 0230 43000000 		.word	.LC24
 1233              		.cfi_endproc
 1234              	.LFE17:
 1236              		.section	.text.TEST_Full_MQTT_AFQP_MQTT_Init_NULLParams_,"ax",%progbits
 1237              		.align	2
 1238              		.global	TEST_Full_MQTT_AFQP_MQTT_Init_NULLParams_
 1239              		.syntax unified
 1240              		.arm
 1241              		.fpu neon
 1243              	TEST_Full_MQTT_AFQP_MQTT_Init_NULLParams_:
 1244              	.LFB21:
 714:D:/Work/DeviceTester/amazon-freertos/tests/common/mqtt\aws_test_mqtt_lib.c **** /*-----------------------------------------------------------*/
 715:D:/Work/DeviceTester/amazon-freertos/tests/common/mqtt\aws_test_mqtt_lib.c **** 
 716:D:/Work/DeviceTester/amazon-freertos/tests/common/mqtt\aws_test_mqtt_lib.c **** /**
 717:D:/Work/DeviceTester/amazon-freertos/tests/common/mqtt\aws_test_mqtt_lib.c ****  * @brief MQTT context initialization NULL value for required parameter.
 718:D:/Work/DeviceTester/amazon-freertos/tests/common/mqtt\aws_test_mqtt_lib.c ****  */
 719:D:/Work/DeviceTester/amazon-freertos/tests/common/mqtt\aws_test_mqtt_lib.c **** TEST( Full_MQTT, AFQP_MQTT_Init_NULLParams )
 720:D:/Work/DeviceTester/amazon-freertos/tests/common/mqtt\aws_test_mqtt_lib.c **** {
 1245              		.loc 1 720 0
 1246              		.cfi_startproc
 1247              		@ args = 0, pretend = 0, frame = 32
 1248              		@ frame_needed = 0, uses_anonymous_args = 0
 721:D:/Work/DeviceTester/amazon-freertos/tests/common/mqtt\aws_test_mqtt_lib.c ****     MQTTInitParams_t xInitParams;
 722:D:/Work/DeviceTester/amazon-freertos/tests/common/mqtt\aws_test_mqtt_lib.c **** 
 723:D:/Work/DeviceTester/amazon-freertos/tests/common/mqtt\aws_test_mqtt_lib.c ****     /* Setup init parameters. */
 724:D:/Work/DeviceTester/amazon-freertos/tests/common/mqtt\aws_test_mqtt_lib.c ****     xInitParams.pxCallback = &( prvMQTTEventCallback );
 1249              		.loc 1 724 0
 1250 0000 64309FE5 		ldr	r3, .L42
 720:D:/Work/DeviceTester/amazon-freertos/tests/common/mqtt\aws_test_mqtt_lib.c ****     MQTTInitParams_t xInitParams;
 1251              		.loc 1 720 0
 1252 0004 10402DE9 		push	{r4, lr}
 1253              		.cfi_def_cfa_offset 8
 1254              		.cfi_offset 4, -8
 1255              		.cfi_offset 14, -4
 1256 0008 20D04DE2 		sub	sp, sp, #32
 1257              		.cfi_def_cfa_offset 40
 725:D:/Work/DeviceTester/amazon-freertos/tests/common/mqtt\aws_test_mqtt_lib.c ****     xInitParams.pvCallbackContext = testmqttlibCALLBACK_CONTEXT;
 726:D:/Work/DeviceTester/amazon-freertos/tests/common/mqtt\aws_test_mqtt_lib.c ****     xInitParams.pvSendContext = testmqttlibSEND_CONTEXT;
 727:D:/Work/DeviceTester/amazon-freertos/tests/common/mqtt\aws_test_mqtt_lib.c ****     xInitParams.pxMQTTSendFxn = NULL; /* This is a required callback and setting it to NULL will fi
 728:D:/Work/DeviceTester/amazon-freertos/tests/common/mqtt\aws_test_mqtt_lib.c ****     xInitParams.pxGetTicksFxn = NULL;
 729:D:/Work/DeviceTester/amazon-freertos/tests/common/mqtt\aws_test_mqtt_lib.c ****     xInitParams.xBufferPoolInterface.pxGetBufferFxn = BUFFERPOOL_GetFreeBuffer;
 730:D:/Work/DeviceTester/amazon-freertos/tests/common/mqtt\aws_test_mqtt_lib.c ****     xInitParams.xBufferPoolInterface.pxReturnBufferFxn = BUFFERPOOL_ReturnBuffer;
 731:D:/Work/DeviceTester/amazon-freertos/tests/common/mqtt\aws_test_mqtt_lib.c **** 
 732:D:/Work/DeviceTester/amazon-freertos/tests/common/mqtt\aws_test_mqtt_lib.c ****     if( TEST_PROTECT() )
 1258              		.loc 1 732 0
 1259 000c 5C009FE5 		ldr	r0, .L42+4
 724:D:/Work/DeviceTester/amazon-freertos/tests/common/mqtt\aws_test_mqtt_lib.c ****     xInitParams.pvCallbackContext = testmqttlibCALLBACK_CONTEXT;
 1260              		.loc 1 724 0
 1261 0010 08308DE5 		str	r3, [sp, #8]
 725:D:/Work/DeviceTester/amazon-freertos/tests/common/mqtt\aws_test_mqtt_lib.c ****     xInitParams.pvCallbackContext = testmqttlibCALLBACK_CONTEXT;
 1262              		.loc 1 725 0
 1263 0014 58309FE5 		ldr	r3, .L42+8
 1264 0018 04308DE5 		str	r3, [sp, #4]
 726:D:/Work/DeviceTester/amazon-freertos/tests/common/mqtt\aws_test_mqtt_lib.c ****     xInitParams.pxMQTTSendFxn = NULL; /* This is a required callback and setting it to NULL will fi
 1265              		.loc 1 726 0
 1266 001c 54309FE5 		ldr	r3, .L42+12
 1267 0020 0C308DE5 		str	r3, [sp, #12]
 727:D:/Work/DeviceTester/amazon-freertos/tests/common/mqtt\aws_test_mqtt_lib.c ****     xInitParams.pxGetTicksFxn = NULL;
 1268              		.loc 1 727 0
 1269 0024 0030A0E3 		mov	r3, #0
 1270 0028 10308DE5 		str	r3, [sp, #16]
 728:D:/Work/DeviceTester/amazon-freertos/tests/common/mqtt\aws_test_mqtt_lib.c ****     xInitParams.xBufferPoolInterface.pxGetBufferFxn = BUFFERPOOL_GetFreeBuffer;
 1271              		.loc 1 728 0
 1272 002c 14308DE5 		str	r3, [sp, #20]
 729:D:/Work/DeviceTester/amazon-freertos/tests/common/mqtt\aws_test_mqtt_lib.c ****     xInitParams.xBufferPoolInterface.pxReturnBufferFxn = BUFFERPOOL_ReturnBuffer;
 1273              		.loc 1 729 0
 1274 0030 44309FE5 		ldr	r3, .L42+16
 1275 0034 18308DE5 		str	r3, [sp, #24]
 730:D:/Work/DeviceTester/amazon-freertos/tests/common/mqtt\aws_test_mqtt_lib.c **** 
 1276              		.loc 1 730 0
 1277 0038 40309FE5 		ldr	r3, .L42+20
 1278 003c 1C308DE5 		str	r3, [sp, #28]
 1279              		.loc 1 732 0
 1280 0040 FEFFFFEB 		bl	setjmp
 1281              	.LVL161:
 1282 0044 004050E2 		subs	r4, r0, #0
 1283 0048 0500001A 		bne	.L38
 733:D:/Work/DeviceTester/amazon-freertos/tests/common/mqtt\aws_test_mqtt_lib.c ****     {
 734:D:/Work/DeviceTester/amazon-freertos/tests/common/mqtt\aws_test_mqtt_lib.c ****         /* Initialize the MQTT context. */
 735:D:/Work/DeviceTester/amazon-freertos/tests/common/mqtt\aws_test_mqtt_lib.c ****         ( void ) MQTT_Init( &( xMQTTContext ), &( xInitParams ) );
 1284              		.loc 1 735 0
 1285 004c 04108DE2 		add	r1, sp, #4
 1286 0050 2C009FE5 		ldr	r0, .L42+24
 1287 0054 FEFFFFEB 		bl	MQTT_Init
 1288              	.LVL162:
 736:D:/Work/DeviceTester/amazon-freertos/tests/common/mqtt\aws_test_mqtt_lib.c **** 
 737:D:/Work/DeviceTester/amazon-freertos/tests/common/mqtt\aws_test_mqtt_lib.c ****         /* Since the above call results in assert being fired,
 738:D:/Work/DeviceTester/amazon-freertos/tests/common/mqtt\aws_test_mqtt_lib.c ****          * this line must never get executed. */
 739:D:/Work/DeviceTester/amazon-freertos/tests/common/mqtt\aws_test_mqtt_lib.c ****         TEST_FAIL();
 1289              		.loc 1 739 0
 1290 0058 E31200E3 		movw	r1, #739
 1291 005c 0400A0E1 		mov	r0, r4
 1292 0060 FEFFFFEB 		bl	UnityFail
 1293              	.LVL163:
 1294              	.L38:
 740:D:/Work/DeviceTester/amazon-freertos/tests/common/mqtt\aws_test_mqtt_lib.c ****     }
 741:D:/Work/DeviceTester/amazon-freertos/tests/common/mqtt\aws_test_mqtt_lib.c **** }
 1295              		.loc 1 741 0
 1296 0064 20D08DE2 		add	sp, sp, #32
 1297              		.cfi_def_cfa_offset 8
 1298              		@ sp needed
 1299 0068 1080BDE8 		pop	{r4, pc}
 1300              	.L43:
 1301              		.align	2
 1302              	.L42:
 1303 006c 00000000 		.word	prvMQTTEventCallback
 1304 0070 28000000 		.word	Unity+40
 1305 0074 5A5A5A5A 		.word	1515870810
 1306 0078 0A0A0A0A 		.word	168430090
 1307 007c 00000000 		.word	BUFFERPOOL_GetFreeBuffer
 1308 0080 00000000 		.word	BUFFERPOOL_ReturnBuffer
 1309 0084 00000000 		.word	.LANCHOR0
 1310              		.cfi_endproc
 1311              	.LFE21:
 1313              		.section	.text.prvSendMQTTConnect,"ax",%progbits
 1314              		.align	2
 1315              		.syntax unified
 1316              		.arm
 1317              		.fpu neon
 1319              	prvSendMQTTConnect:
 1320              	.LFB5:
 284:D:/Work/DeviceTester/amazon-freertos/tests/common/mqtt\aws_test_mqtt_lib.c ****     MQTTConnectParams_t xConnectParams;
 1321              		.loc 1 284 0
 1322              		.cfi_startproc
 1323              		@ args = 0, pretend = 0, frame = 32
 1324              		@ frame_needed = 0, uses_anonymous_args = 0
 289:D:/Work/DeviceTester/amazon-freertos/tests/common/mqtt\aws_test_mqtt_lib.c ****     xConnectParams.usClientIdLength = ( uint16_t ) ( strlen( ( const char * ) xConnectParams.pucCli
 1325              		.loc 1 289 0
 1326 0000 58309FE5 		ldr	r3, .L46
 284:D:/Work/DeviceTester/amazon-freertos/tests/common/mqtt\aws_test_mqtt_lib.c ****     MQTTConnectParams_t xConnectParams;
 1327              		.loc 1 284 0
 1328 0004 04E02DE5 		str	lr, [sp, #-4]!
 1329              		.cfi_def_cfa_offset 4
 1330              		.cfi_offset 14, -4
 1331 0008 24D04DE2 		sub	sp, sp, #36
 1332              		.cfi_def_cfa_offset 40
 300:D:/Work/DeviceTester/amazon-freertos/tests/common/mqtt\aws_test_mqtt_lib.c **** 
 1333              		.loc 1 300 0
 1334 000c 0D10A0E1 		mov	r1, sp
 1335 0010 4C009FE5 		ldr	r0, .L46+4
 289:D:/Work/DeviceTester/amazon-freertos/tests/common/mqtt\aws_test_mqtt_lib.c ****     xConnectParams.usClientIdLength = ( uint16_t ) ( strlen( ( const char * ) xConnectParams.pucCli
 1336              		.loc 1 289 0
 1337 0014 0C308DE5 		str	r3, [sp, #12]
 290:D:/Work/DeviceTester/amazon-freertos/tests/common/mqtt\aws_test_mqtt_lib.c ****     xConnectParams.pucUserName = ( const uint8_t * ) "Amazon FreeRTOS";
 1338              		.loc 1 290 0
 1339 0018 0930A0E3 		mov	r3, #9
 1340 001c B031CDE1 		strh	r3, [sp, #16]	@ movhi
 291:D:/Work/DeviceTester/amazon-freertos/tests/common/mqtt\aws_test_mqtt_lib.c ****     xConnectParams.usUserNameLength = ( uint16_t ) ( strlen( ( const char * ) xConnectParams.pucUse
 1341              		.loc 1 291 0
 1342 0020 40309FE5 		ldr	r3, .L46+8
 1343 0024 14308DE5 		str	r3, [sp, #20]
 292:D:/Work/DeviceTester/amazon-freertos/tests/common/mqtt\aws_test_mqtt_lib.c ****     xConnectParams.usPacketIdentifier = ( uint16_t ) testmqttlibCONNECT_PACKET_ID;
 1344              		.loc 1 292 0
 1345 0028 0F30A0E3 		mov	r3, #15
 1346 002c B831CDE1 		strh	r3, [sp, #24]	@ movhi
 293:D:/Work/DeviceTester/amazon-freertos/tests/common/mqtt\aws_test_mqtt_lib.c ****     xConnectParams.usKeepAliveIntervalSeconds = mqttconfigKEEP_ALIVE_INTERVAL_SECONDS;
 1347              		.loc 1 293 0
 1348 0030 0130A0E3 		mov	r3, #1
 1349 0034 BA31CDE1 		strh	r3, [sp, #26]	@ movhi
 294:D:/Work/DeviceTester/amazon-freertos/tests/common/mqtt\aws_test_mqtt_lib.c ****     xConnectParams.ulKeepAliveActualIntervalTicks = mqttconfigKEEP_ALIVE_ACTUAL_INTERVAL_TICKS;
 1350              		.loc 1 294 0
 1351 0038 6430A0E3 		mov	r3, #100
 1352 003c B030CDE1 		strh	r3, [sp]	@ movhi
 295:D:/Work/DeviceTester/amazon-freertos/tests/common/mqtt\aws_test_mqtt_lib.c ****     xConnectParams.ulPingRequestTimeoutTicks = mqttconfigKEEP_ALIVE_TIMEOUT_TICKS;
 1353              		.loc 1 295 0
 1354 0040 24309FE5 		ldr	r3, .L46+12
 1355 0044 04308DE5 		str	r3, [sp, #4]
 296:D:/Work/DeviceTester/amazon-freertos/tests/common/mqtt\aws_test_mqtt_lib.c ****     xConnectParams.ulTimeoutTicks = testmqttlibOPERATION_TIMEOUT_TICKS;
 1356              		.loc 1 296 0
 1357 0048 FA3FA0E3 		mov	r3, #1000
 1358 004c 08308DE5 		str	r3, [sp, #8]
 297:D:/Work/DeviceTester/amazon-freertos/tests/common/mqtt\aws_test_mqtt_lib.c **** 
 1359              		.loc 1 297 0
 1360 0050 1C308DE5 		str	r3, [sp, #28]
 300:D:/Work/DeviceTester/amazon-freertos/tests/common/mqtt\aws_test_mqtt_lib.c **** 
 1361              		.loc 1 300 0
 1362 0054 FEFFFFEB 		bl	MQTT_Connect
 1363              	.LVL164:
 304:D:/Work/DeviceTester/amazon-freertos/tests/common/mqtt\aws_test_mqtt_lib.c **** /*-----------------------------------------------------------*/
 1364              		.loc 1 304 0
 1365 0058 24D08DE2 		add	sp, sp, #36
 1366              		.cfi_def_cfa_offset 4
 1367              		@ sp needed
 1368 005c 04F09DE4 		ldr	pc, [sp], #4
 1369              	.L47:
 1370              		.align	2
 1371              	.L46:
 1372 0060 00000000 		.word	.LC43
 1373 0064 00000000 		.word	.LANCHOR0
 1374 0068 0A000000 		.word	.LC44
 1375 006c E0930400 		.word	300000
 1376              		.cfi_endproc
 1377              	.LFE5:
 1379              		.section	.text.TEST_Full_MQTT_AFQP_MQTT_Connect_SecondConnectWhileWaitingForConnACK_,"ax",%progbit
 1380              		.align	2
 1381              		.global	TEST_Full_MQTT_AFQP_MQTT_Connect_SecondConnectWhileWaitingForConnACK_
 1382              		.syntax unified
 1383              		.arm
 1384              		.fpu neon
 1386              	TEST_Full_MQTT_AFQP_MQTT_Connect_SecondConnectWhileWaitingForConnACK_:
 1387              	.LFB39:
 742:D:/Work/DeviceTester/amazon-freertos/tests/common/mqtt\aws_test_mqtt_lib.c **** /*-----------------------------------------------------------*/
 743:D:/Work/DeviceTester/amazon-freertos/tests/common/mqtt\aws_test_mqtt_lib.c **** 
 744:D:/Work/DeviceTester/amazon-freertos/tests/common/mqtt\aws_test_mqtt_lib.c **** /**
 745:D:/Work/DeviceTester/amazon-freertos/tests/common/mqtt\aws_test_mqtt_lib.c ****  * @brief MQTT connect happy case.
 746:D:/Work/DeviceTester/amazon-freertos/tests/common/mqtt\aws_test_mqtt_lib.c ****  */
 747:D:/Work/DeviceTester/amazon-freertos/tests/common/mqtt\aws_test_mqtt_lib.c **** TEST( Full_MQTT, AFQP_MQTT_Connect_HappyCase )
 748:D:/Work/DeviceTester/amazon-freertos/tests/common/mqtt\aws_test_mqtt_lib.c **** {
 749:D:/Work/DeviceTester/amazon-freertos/tests/common/mqtt\aws_test_mqtt_lib.c ****     MQTTReturnCode_t xReturnCode;
 750:D:/Work/DeviceTester/amazon-freertos/tests/common/mqtt\aws_test_mqtt_lib.c **** 
 751:D:/Work/DeviceTester/amazon-freertos/tests/common/mqtt\aws_test_mqtt_lib.c ****     /* Send MQTT Connect message. */
 752:D:/Work/DeviceTester/amazon-freertos/tests/common/mqtt\aws_test_mqtt_lib.c ****     xReturnCode = prvSendMQTTConnect();
 753:D:/Work/DeviceTester/amazon-freertos/tests/common/mqtt\aws_test_mqtt_lib.c **** 
 754:D:/Work/DeviceTester/amazon-freertos/tests/common/mqtt\aws_test_mqtt_lib.c ****     /* Connect must have been sent successfully. */
 755:D:/Work/DeviceTester/amazon-freertos/tests/common/mqtt\aws_test_mqtt_lib.c ****     TEST_ASSERT_EQUAL( eMQTTSuccess, xReturnCode );
 756:D:/Work/DeviceTester/amazon-freertos/tests/common/mqtt\aws_test_mqtt_lib.c **** 
 757:D:/Work/DeviceTester/amazon-freertos/tests/common/mqtt\aws_test_mqtt_lib.c ****     /* Connection state must be "in-progress". */
 758:D:/Work/DeviceTester/amazon-freertos/tests/common/mqtt\aws_test_mqtt_lib.c ****     TEST_ASSERT_EQUAL( eMQTTConnectionInProgress, xMQTTContext.xConnectionState );
 759:D:/Work/DeviceTester/amazon-freertos/tests/common/mqtt\aws_test_mqtt_lib.c **** 
 760:D:/Work/DeviceTester/amazon-freertos/tests/common/mqtt\aws_test_mqtt_lib.c ****     /* Receive CONNACK. */
 761:D:/Work/DeviceTester/amazon-freertos/tests/common/mqtt\aws_test_mqtt_lib.c ****     xReturnCode = prvReceiveMQTTConnACK();
 762:D:/Work/DeviceTester/amazon-freertos/tests/common/mqtt\aws_test_mqtt_lib.c **** 
 763:D:/Work/DeviceTester/amazon-freertos/tests/common/mqtt\aws_test_mqtt_lib.c ****     /* CONNACK must have been received successfully. */
 764:D:/Work/DeviceTester/amazon-freertos/tests/common/mqtt\aws_test_mqtt_lib.c ****     TEST_ASSERT_EQUAL( eMQTTSuccess, xReturnCode );
 765:D:/Work/DeviceTester/amazon-freertos/tests/common/mqtt\aws_test_mqtt_lib.c **** 
 766:D:/Work/DeviceTester/amazon-freertos/tests/common/mqtt\aws_test_mqtt_lib.c ****     /* Connection state must be "connected". */
 767:D:/Work/DeviceTester/amazon-freertos/tests/common/mqtt\aws_test_mqtt_lib.c ****     TEST_ASSERT_EQUAL( eMQTTConnected, xMQTTContext.xConnectionState );
 768:D:/Work/DeviceTester/amazon-freertos/tests/common/mqtt\aws_test_mqtt_lib.c **** 
 769:D:/Work/DeviceTester/amazon-freertos/tests/common/mqtt\aws_test_mqtt_lib.c ****     /* Callback must have been invoked for CONNACK. */
 770:D:/Work/DeviceTester/amazon-freertos/tests/common/mqtt\aws_test_mqtt_lib.c ****     TEST_ASSERT_EQUAL( 1, xCallbackCounter.ulConnACK );
 771:D:/Work/DeviceTester/amazon-freertos/tests/common/mqtt\aws_test_mqtt_lib.c **** 
 772:D:/Work/DeviceTester/amazon-freertos/tests/common/mqtt\aws_test_mqtt_lib.c ****     /* No other callback must have been invoked. */
 773:D:/Work/DeviceTester/amazon-freertos/tests/common/mqtt\aws_test_mqtt_lib.c ****     TEST_ASSERT_EQUAL( 0, xCallbackCounter.ulUnidentified );
 774:D:/Work/DeviceTester/amazon-freertos/tests/common/mqtt\aws_test_mqtt_lib.c **** }
 775:D:/Work/DeviceTester/amazon-freertos/tests/common/mqtt\aws_test_mqtt_lib.c **** /*-----------------------------------------------------------*/
 776:D:/Work/DeviceTester/amazon-freertos/tests/common/mqtt\aws_test_mqtt_lib.c **** 
 777:D:/Work/DeviceTester/amazon-freertos/tests/common/mqtt\aws_test_mqtt_lib.c **** /**
 778:D:/Work/DeviceTester/amazon-freertos/tests/common/mqtt\aws_test_mqtt_lib.c ****  * @brief MQTT connect - Connection request rejected by the broker.
 779:D:/Work/DeviceTester/amazon-freertos/tests/common/mqtt\aws_test_mqtt_lib.c ****  */
 780:D:/Work/DeviceTester/amazon-freertos/tests/common/mqtt\aws_test_mqtt_lib.c **** TEST( Full_MQTT, AFQP_MQTT_Connect_BrokerRejectsConnection )
 781:D:/Work/DeviceTester/amazon-freertos/tests/common/mqtt\aws_test_mqtt_lib.c **** {
 782:D:/Work/DeviceTester/amazon-freertos/tests/common/mqtt\aws_test_mqtt_lib.c ****     MQTTReturnCode_t xReturnCode;
 783:D:/Work/DeviceTester/amazon-freertos/tests/common/mqtt\aws_test_mqtt_lib.c ****     static const uint8_t ucConnACKMessage[] =
 784:D:/Work/DeviceTester/amazon-freertos/tests/common/mqtt\aws_test_mqtt_lib.c ****     {
 785:D:/Work/DeviceTester/amazon-freertos/tests/common/mqtt\aws_test_mqtt_lib.c ****         mqttCONTROL_CONNACK | mqttFLAGS_CONNACK, /* Fixed header control packet type. */
 786:D:/Work/DeviceTester/amazon-freertos/tests/common/mqtt\aws_test_mqtt_lib.c ****         2,                                       /* Fixed header remaining length - always 2 for CO
 787:D:/Work/DeviceTester/amazon-freertos/tests/common/mqtt\aws_test_mqtt_lib.c ****         0,                                       /* Bit 0 is SP - Session Present. */
 788:D:/Work/DeviceTester/amazon-freertos/tests/common/mqtt\aws_test_mqtt_lib.c ****         1                                        /* Return code - 1 means unacceptable protocol ver
 789:D:/Work/DeviceTester/amazon-freertos/tests/common/mqtt\aws_test_mqtt_lib.c ****     };
 790:D:/Work/DeviceTester/amazon-freertos/tests/common/mqtt\aws_test_mqtt_lib.c **** 
 791:D:/Work/DeviceTester/amazon-freertos/tests/common/mqtt\aws_test_mqtt_lib.c ****     /* Send MQTT Connect message. */
 792:D:/Work/DeviceTester/amazon-freertos/tests/common/mqtt\aws_test_mqtt_lib.c ****     xReturnCode = prvSendMQTTConnect();
 793:D:/Work/DeviceTester/amazon-freertos/tests/common/mqtt\aws_test_mqtt_lib.c **** 
 794:D:/Work/DeviceTester/amazon-freertos/tests/common/mqtt\aws_test_mqtt_lib.c ****     /* Connect must have been sent successfully. */
 795:D:/Work/DeviceTester/amazon-freertos/tests/common/mqtt\aws_test_mqtt_lib.c ****     TEST_ASSERT_EQUAL( eMQTTSuccess, xReturnCode );
 796:D:/Work/DeviceTester/amazon-freertos/tests/common/mqtt\aws_test_mqtt_lib.c **** 
 797:D:/Work/DeviceTester/amazon-freertos/tests/common/mqtt\aws_test_mqtt_lib.c ****     /* Connection state must be "in-progress". */
 798:D:/Work/DeviceTester/amazon-freertos/tests/common/mqtt\aws_test_mqtt_lib.c ****     TEST_ASSERT_EQUAL( eMQTTConnectionInProgress, xMQTTContext.xConnectionState );
 799:D:/Work/DeviceTester/amazon-freertos/tests/common/mqtt\aws_test_mqtt_lib.c **** 
 800:D:/Work/DeviceTester/amazon-freertos/tests/common/mqtt\aws_test_mqtt_lib.c ****     /* Receive CONNACK. */
 801:D:/Work/DeviceTester/amazon-freertos/tests/common/mqtt\aws_test_mqtt_lib.c ****     xReturnCode = MQTT_ParseReceivedData( &( xMQTTContext ), ucConnACKMessage, sizeof( ucConnACKMes
 802:D:/Work/DeviceTester/amazon-freertos/tests/common/mqtt\aws_test_mqtt_lib.c **** 
 803:D:/Work/DeviceTester/amazon-freertos/tests/common/mqtt\aws_test_mqtt_lib.c ****     /* MQTT_ParseReceivedData must return success. */
 804:D:/Work/DeviceTester/amazon-freertos/tests/common/mqtt\aws_test_mqtt_lib.c ****     TEST_ASSERT_EQUAL( eMQTTSuccess, xReturnCode );
 805:D:/Work/DeviceTester/amazon-freertos/tests/common/mqtt\aws_test_mqtt_lib.c **** 
 806:D:/Work/DeviceTester/amazon-freertos/tests/common/mqtt\aws_test_mqtt_lib.c ****     /* Connection state must be "not-connected", since
 807:D:/Work/DeviceTester/amazon-freertos/tests/common/mqtt\aws_test_mqtt_lib.c ****      * the broker rejected the connection request. */
 808:D:/Work/DeviceTester/amazon-freertos/tests/common/mqtt\aws_test_mqtt_lib.c ****     TEST_ASSERT_EQUAL( eMQTTNotConnected, xMQTTContext.xConnectionState );
 809:D:/Work/DeviceTester/amazon-freertos/tests/common/mqtt\aws_test_mqtt_lib.c **** 
 810:D:/Work/DeviceTester/amazon-freertos/tests/common/mqtt\aws_test_mqtt_lib.c ****     /* Callback must have been invoked for CONNACK. */
 811:D:/Work/DeviceTester/amazon-freertos/tests/common/mqtt\aws_test_mqtt_lib.c ****     TEST_ASSERT_EQUAL( 1, xCallbackCounter.ulConnACK );
 812:D:/Work/DeviceTester/amazon-freertos/tests/common/mqtt\aws_test_mqtt_lib.c **** 
 813:D:/Work/DeviceTester/amazon-freertos/tests/common/mqtt\aws_test_mqtt_lib.c ****     /* Callback must have been invoked for Disconnect because
 814:D:/Work/DeviceTester/amazon-freertos/tests/common/mqtt\aws_test_mqtt_lib.c ****      * the broker rejected the connection request. */
 815:D:/Work/DeviceTester/amazon-freertos/tests/common/mqtt\aws_test_mqtt_lib.c ****     TEST_ASSERT_EQUAL( 1, xCallbackCounter.ulDisconnect );
 816:D:/Work/DeviceTester/amazon-freertos/tests/common/mqtt\aws_test_mqtt_lib.c **** 
 817:D:/Work/DeviceTester/amazon-freertos/tests/common/mqtt\aws_test_mqtt_lib.c ****     /* No other callback must have been invoked. */
 818:D:/Work/DeviceTester/amazon-freertos/tests/common/mqtt\aws_test_mqtt_lib.c ****     TEST_ASSERT_EQUAL( 0, xCallbackCounter.ulUnidentified );
 819:D:/Work/DeviceTester/amazon-freertos/tests/common/mqtt\aws_test_mqtt_lib.c **** }
 820:D:/Work/DeviceTester/amazon-freertos/tests/common/mqtt\aws_test_mqtt_lib.c **** /*-----------------------------------------------------------*/
 821:D:/Work/DeviceTester/amazon-freertos/tests/common/mqtt\aws_test_mqtt_lib.c **** 
 822:D:/Work/DeviceTester/amazon-freertos/tests/common/mqtt\aws_test_mqtt_lib.c **** /**
 823:D:/Work/DeviceTester/amazon-freertos/tests/common/mqtt\aws_test_mqtt_lib.c ****  * @brief MQTT connect - Verify CONNACK is not processed when not connected.
 824:D:/Work/DeviceTester/amazon-freertos/tests/common/mqtt\aws_test_mqtt_lib.c ****  */
 825:D:/Work/DeviceTester/amazon-freertos/tests/common/mqtt\aws_test_mqtt_lib.c **** TEST( Full_MQTT, AFQP_MQTT_Connect_ConnACKWithoutConnect )
 826:D:/Work/DeviceTester/amazon-freertos/tests/common/mqtt\aws_test_mqtt_lib.c **** {
 827:D:/Work/DeviceTester/amazon-freertos/tests/common/mqtt\aws_test_mqtt_lib.c ****     MQTTReturnCode_t xReturnCode;
 828:D:/Work/DeviceTester/amazon-freertos/tests/common/mqtt\aws_test_mqtt_lib.c **** 
 829:D:/Work/DeviceTester/amazon-freertos/tests/common/mqtt\aws_test_mqtt_lib.c ****     /* Receive CONNACK without sending connect. */
 830:D:/Work/DeviceTester/amazon-freertos/tests/common/mqtt\aws_test_mqtt_lib.c ****     xReturnCode = prvReceiveMQTTConnACK();
 831:D:/Work/DeviceTester/amazon-freertos/tests/common/mqtt\aws_test_mqtt_lib.c **** 
 832:D:/Work/DeviceTester/amazon-freertos/tests/common/mqtt\aws_test_mqtt_lib.c ****     /* The returned code must be that the client is not connected. */
 833:D:/Work/DeviceTester/amazon-freertos/tests/common/mqtt\aws_test_mqtt_lib.c ****     TEST_ASSERT_EQUAL( eMQTTClientNotConnected, xReturnCode );
 834:D:/Work/DeviceTester/amazon-freertos/tests/common/mqtt\aws_test_mqtt_lib.c **** 
 835:D:/Work/DeviceTester/amazon-freertos/tests/common/mqtt\aws_test_mqtt_lib.c ****     /* Connection state must be "not-connected", since
 836:D:/Work/DeviceTester/amazon-freertos/tests/common/mqtt\aws_test_mqtt_lib.c ****      * the connect was never sent. */
 837:D:/Work/DeviceTester/amazon-freertos/tests/common/mqtt\aws_test_mqtt_lib.c ****     TEST_ASSERT_EQUAL( eMQTTNotConnected, xMQTTContext.xConnectionState );
 838:D:/Work/DeviceTester/amazon-freertos/tests/common/mqtt\aws_test_mqtt_lib.c **** 
 839:D:/Work/DeviceTester/amazon-freertos/tests/common/mqtt\aws_test_mqtt_lib.c ****     /* ConnACK is not processed without a connection, so there is no unexpectedConnACK. */
 840:D:/Work/DeviceTester/amazon-freertos/tests/common/mqtt\aws_test_mqtt_lib.c ****     TEST_ASSERT_EQUAL( 0, xCallbackCounter.ulUnexpectedConnACK );
 841:D:/Work/DeviceTester/amazon-freertos/tests/common/mqtt\aws_test_mqtt_lib.c **** 
 842:D:/Work/DeviceTester/amazon-freertos/tests/common/mqtt\aws_test_mqtt_lib.c ****     /* No other callback must have been invoked. */
 843:D:/Work/DeviceTester/amazon-freertos/tests/common/mqtt\aws_test_mqtt_lib.c ****     TEST_ASSERT_EQUAL( 0, xCallbackCounter.ulUnidentified );
 844:D:/Work/DeviceTester/amazon-freertos/tests/common/mqtt\aws_test_mqtt_lib.c **** }
 845:D:/Work/DeviceTester/amazon-freertos/tests/common/mqtt\aws_test_mqtt_lib.c **** /*-----------------------------------------------------------*/
 846:D:/Work/DeviceTester/amazon-freertos/tests/common/mqtt\aws_test_mqtt_lib.c **** 
 847:D:/Work/DeviceTester/amazon-freertos/tests/common/mqtt\aws_test_mqtt_lib.c **** /**
 848:D:/Work/DeviceTester/amazon-freertos/tests/common/mqtt\aws_test_mqtt_lib.c ****  * @brief MQTT connect - Broker sends invalid return code in CONNACK.
 849:D:/Work/DeviceTester/amazon-freertos/tests/common/mqtt\aws_test_mqtt_lib.c ****  */
 850:D:/Work/DeviceTester/amazon-freertos/tests/common/mqtt\aws_test_mqtt_lib.c **** TEST( Full_MQTT, AFQP_MQTT_Connect_ReservedReturnCodeFromBroker )
 851:D:/Work/DeviceTester/amazon-freertos/tests/common/mqtt\aws_test_mqtt_lib.c **** {
 852:D:/Work/DeviceTester/amazon-freertos/tests/common/mqtt\aws_test_mqtt_lib.c ****     MQTTReturnCode_t xReturnCode;
 853:D:/Work/DeviceTester/amazon-freertos/tests/common/mqtt\aws_test_mqtt_lib.c ****     static const uint8_t ucConnACKMessage[] =
 854:D:/Work/DeviceTester/amazon-freertos/tests/common/mqtt\aws_test_mqtt_lib.c ****     {
 855:D:/Work/DeviceTester/amazon-freertos/tests/common/mqtt\aws_test_mqtt_lib.c ****         mqttCONTROL_CONNACK | mqttFLAGS_CONNACK, /* Fixed header control packet type. */
 856:D:/Work/DeviceTester/amazon-freertos/tests/common/mqtt\aws_test_mqtt_lib.c ****         2,                                       /* Fixed header remaining length - always 2 for CO
 857:D:/Work/DeviceTester/amazon-freertos/tests/common/mqtt\aws_test_mqtt_lib.c ****         0,                                       /* Bit 0 is SP - Session Present. */
 858:D:/Work/DeviceTester/amazon-freertos/tests/common/mqtt\aws_test_mqtt_lib.c ****         128                                      /* Return code - Values above 5 are reserved and m
 859:D:/Work/DeviceTester/amazon-freertos/tests/common/mqtt\aws_test_mqtt_lib.c ****     };
 860:D:/Work/DeviceTester/amazon-freertos/tests/common/mqtt\aws_test_mqtt_lib.c **** 
 861:D:/Work/DeviceTester/amazon-freertos/tests/common/mqtt\aws_test_mqtt_lib.c ****     /* Send MQTT Connect message. */
 862:D:/Work/DeviceTester/amazon-freertos/tests/common/mqtt\aws_test_mqtt_lib.c ****     xReturnCode = prvSendMQTTConnect();
 863:D:/Work/DeviceTester/amazon-freertos/tests/common/mqtt\aws_test_mqtt_lib.c **** 
 864:D:/Work/DeviceTester/amazon-freertos/tests/common/mqtt\aws_test_mqtt_lib.c ****     /* Connect must have been sent successfully. */
 865:D:/Work/DeviceTester/amazon-freertos/tests/common/mqtt\aws_test_mqtt_lib.c ****     TEST_ASSERT_EQUAL( eMQTTSuccess, xReturnCode );
 866:D:/Work/DeviceTester/amazon-freertos/tests/common/mqtt\aws_test_mqtt_lib.c **** 
 867:D:/Work/DeviceTester/amazon-freertos/tests/common/mqtt\aws_test_mqtt_lib.c ****     /* Connection state must be "in-progress". */
 868:D:/Work/DeviceTester/amazon-freertos/tests/common/mqtt\aws_test_mqtt_lib.c ****     TEST_ASSERT_EQUAL( eMQTTConnectionInProgress, xMQTTContext.xConnectionState );
 869:D:/Work/DeviceTester/amazon-freertos/tests/common/mqtt\aws_test_mqtt_lib.c **** 
 870:D:/Work/DeviceTester/amazon-freertos/tests/common/mqtt\aws_test_mqtt_lib.c ****     /* Receive CONNACK. */
 871:D:/Work/DeviceTester/amazon-freertos/tests/common/mqtt\aws_test_mqtt_lib.c ****     xReturnCode = MQTT_ParseReceivedData( &( xMQTTContext ), ucConnACKMessage, sizeof( ucConnACKMes
 872:D:/Work/DeviceTester/amazon-freertos/tests/common/mqtt\aws_test_mqtt_lib.c **** 
 873:D:/Work/DeviceTester/amazon-freertos/tests/common/mqtt\aws_test_mqtt_lib.c ****     /* MQTT_ParseReceivedData must return success. */
 874:D:/Work/DeviceTester/amazon-freertos/tests/common/mqtt\aws_test_mqtt_lib.c ****     TEST_ASSERT_EQUAL( eMQTTSuccess, xReturnCode );
 875:D:/Work/DeviceTester/amazon-freertos/tests/common/mqtt\aws_test_mqtt_lib.c **** 
 876:D:/Work/DeviceTester/amazon-freertos/tests/common/mqtt\aws_test_mqtt_lib.c ****     /* Callback must have been invoked for disconnect since
 877:D:/Work/DeviceTester/amazon-freertos/tests/common/mqtt\aws_test_mqtt_lib.c ****      * since a malformed packet must result in disconnect. */
 878:D:/Work/DeviceTester/amazon-freertos/tests/common/mqtt\aws_test_mqtt_lib.c ****     TEST_ASSERT_EQUAL( 1, xCallbackCounter.ulDisconnect );
 879:D:/Work/DeviceTester/amazon-freertos/tests/common/mqtt\aws_test_mqtt_lib.c **** 
 880:D:/Work/DeviceTester/amazon-freertos/tests/common/mqtt\aws_test_mqtt_lib.c ****     /* Connection state must be "not-connected". */
 881:D:/Work/DeviceTester/amazon-freertos/tests/common/mqtt\aws_test_mqtt_lib.c ****     TEST_ASSERT_EQUAL( eMQTTNotConnected, xMQTTContext.xConnectionState );
 882:D:/Work/DeviceTester/amazon-freertos/tests/common/mqtt\aws_test_mqtt_lib.c **** 
 883:D:/Work/DeviceTester/amazon-freertos/tests/common/mqtt\aws_test_mqtt_lib.c ****     /* No other callback must have been invoked. */
 884:D:/Work/DeviceTester/amazon-freertos/tests/common/mqtt\aws_test_mqtt_lib.c ****     TEST_ASSERT_EQUAL( 0, xCallbackCounter.ulUnidentified );
 885:D:/Work/DeviceTester/amazon-freertos/tests/common/mqtt\aws_test_mqtt_lib.c **** }
 886:D:/Work/DeviceTester/amazon-freertos/tests/common/mqtt\aws_test_mqtt_lib.c **** /*-----------------------------------------------------------*/
 887:D:/Work/DeviceTester/amazon-freertos/tests/common/mqtt\aws_test_mqtt_lib.c **** 
 888:D:/Work/DeviceTester/amazon-freertos/tests/common/mqtt\aws_test_mqtt_lib.c **** /**
 889:D:/Work/DeviceTester/amazon-freertos/tests/common/mqtt\aws_test_mqtt_lib.c ****  * @brief MQTT connect - CONNACK with invalid length.
 890:D:/Work/DeviceTester/amazon-freertos/tests/common/mqtt\aws_test_mqtt_lib.c ****  */
 891:D:/Work/DeviceTester/amazon-freertos/tests/common/mqtt\aws_test_mqtt_lib.c **** TEST( Full_MQTT, AFQP_MQTT_Connect_ShorterConnACK )
 892:D:/Work/DeviceTester/amazon-freertos/tests/common/mqtt\aws_test_mqtt_lib.c **** {
 893:D:/Work/DeviceTester/amazon-freertos/tests/common/mqtt\aws_test_mqtt_lib.c ****     MQTTReturnCode_t xReturnCode;
 894:D:/Work/DeviceTester/amazon-freertos/tests/common/mqtt\aws_test_mqtt_lib.c ****     static const uint8_t ucConnACKMessage[] =
 895:D:/Work/DeviceTester/amazon-freertos/tests/common/mqtt\aws_test_mqtt_lib.c ****     {
 896:D:/Work/DeviceTester/amazon-freertos/tests/common/mqtt\aws_test_mqtt_lib.c ****         mqttCONTROL_CONNACK | mqttFLAGS_CONNACK, /* Fixed header control packet type. */
 897:D:/Work/DeviceTester/amazon-freertos/tests/common/mqtt\aws_test_mqtt_lib.c ****         1,                                       /* Fixed header remaining length - must always be 
 898:D:/Work/DeviceTester/amazon-freertos/tests/common/mqtt\aws_test_mqtt_lib.c ****         0                                        /* Bit 0 is SP - Session Present. */
 899:D:/Work/DeviceTester/amazon-freertos/tests/common/mqtt\aws_test_mqtt_lib.c ****     };
 900:D:/Work/DeviceTester/amazon-freertos/tests/common/mqtt\aws_test_mqtt_lib.c **** 
 901:D:/Work/DeviceTester/amazon-freertos/tests/common/mqtt\aws_test_mqtt_lib.c ****     /* Send MQTT Connect message. */
 902:D:/Work/DeviceTester/amazon-freertos/tests/common/mqtt\aws_test_mqtt_lib.c ****     xReturnCode = prvSendMQTTConnect();
 903:D:/Work/DeviceTester/amazon-freertos/tests/common/mqtt\aws_test_mqtt_lib.c **** 
 904:D:/Work/DeviceTester/amazon-freertos/tests/common/mqtt\aws_test_mqtt_lib.c ****     /* Connect must have been sent successfully. */
 905:D:/Work/DeviceTester/amazon-freertos/tests/common/mqtt\aws_test_mqtt_lib.c ****     TEST_ASSERT_EQUAL( eMQTTSuccess, xReturnCode );
 906:D:/Work/DeviceTester/amazon-freertos/tests/common/mqtt\aws_test_mqtt_lib.c **** 
 907:D:/Work/DeviceTester/amazon-freertos/tests/common/mqtt\aws_test_mqtt_lib.c ****     /* Connection state must be "in-progress". */
 908:D:/Work/DeviceTester/amazon-freertos/tests/common/mqtt\aws_test_mqtt_lib.c ****     TEST_ASSERT_EQUAL( eMQTTConnectionInProgress, xMQTTContext.xConnectionState );
 909:D:/Work/DeviceTester/amazon-freertos/tests/common/mqtt\aws_test_mqtt_lib.c **** 
 910:D:/Work/DeviceTester/amazon-freertos/tests/common/mqtt\aws_test_mqtt_lib.c ****     /* Receive CONNACK. */
 911:D:/Work/DeviceTester/amazon-freertos/tests/common/mqtt\aws_test_mqtt_lib.c ****     xReturnCode = MQTT_ParseReceivedData( &( xMQTTContext ), ucConnACKMessage, sizeof( ucConnACKMes
 912:D:/Work/DeviceTester/amazon-freertos/tests/common/mqtt\aws_test_mqtt_lib.c **** 
 913:D:/Work/DeviceTester/amazon-freertos/tests/common/mqtt\aws_test_mqtt_lib.c ****     /* MQTT_ParseReceivedData must return success. */
 914:D:/Work/DeviceTester/amazon-freertos/tests/common/mqtt\aws_test_mqtt_lib.c ****     TEST_ASSERT_EQUAL( eMQTTSuccess, xReturnCode );
 915:D:/Work/DeviceTester/amazon-freertos/tests/common/mqtt\aws_test_mqtt_lib.c **** 
 916:D:/Work/DeviceTester/amazon-freertos/tests/common/mqtt\aws_test_mqtt_lib.c ****     /* Callback must have been invoked for disconnect since
 917:D:/Work/DeviceTester/amazon-freertos/tests/common/mqtt\aws_test_mqtt_lib.c ****      * since a malformed packet must result in disconnect. */
 918:D:/Work/DeviceTester/amazon-freertos/tests/common/mqtt\aws_test_mqtt_lib.c ****     TEST_ASSERT_EQUAL( 1, xCallbackCounter.ulDisconnect );
 919:D:/Work/DeviceTester/amazon-freertos/tests/common/mqtt\aws_test_mqtt_lib.c **** 
 920:D:/Work/DeviceTester/amazon-freertos/tests/common/mqtt\aws_test_mqtt_lib.c ****     /* Connection state must be "not-connected". */
 921:D:/Work/DeviceTester/amazon-freertos/tests/common/mqtt\aws_test_mqtt_lib.c ****     TEST_ASSERT_EQUAL( eMQTTNotConnected, xMQTTContext.xConnectionState );
 922:D:/Work/DeviceTester/amazon-freertos/tests/common/mqtt\aws_test_mqtt_lib.c **** 
 923:D:/Work/DeviceTester/amazon-freertos/tests/common/mqtt\aws_test_mqtt_lib.c ****     /* No other callback must have been invoked. */
 924:D:/Work/DeviceTester/amazon-freertos/tests/common/mqtt\aws_test_mqtt_lib.c ****     TEST_ASSERT_EQUAL( 0, xCallbackCounter.ulUnidentified );
 925:D:/Work/DeviceTester/amazon-freertos/tests/common/mqtt\aws_test_mqtt_lib.c **** }
 926:D:/Work/DeviceTester/amazon-freertos/tests/common/mqtt\aws_test_mqtt_lib.c **** /*-----------------------------------------------------------*/
 927:D:/Work/DeviceTester/amazon-freertos/tests/common/mqtt\aws_test_mqtt_lib.c **** 
 928:D:/Work/DeviceTester/amazon-freertos/tests/common/mqtt\aws_test_mqtt_lib.c **** /**
 929:D:/Work/DeviceTester/amazon-freertos/tests/common/mqtt\aws_test_mqtt_lib.c ****  * @brief MQTT connect - CONNACK with invalid length.
 930:D:/Work/DeviceTester/amazon-freertos/tests/common/mqtt\aws_test_mqtt_lib.c ****  */
 931:D:/Work/DeviceTester/amazon-freertos/tests/common/mqtt\aws_test_mqtt_lib.c **** TEST( Full_MQTT, AFQP_MQTT_Connect_LongerConnACK )
 932:D:/Work/DeviceTester/amazon-freertos/tests/common/mqtt\aws_test_mqtt_lib.c **** {
 933:D:/Work/DeviceTester/amazon-freertos/tests/common/mqtt\aws_test_mqtt_lib.c ****     MQTTReturnCode_t xReturnCode;
 934:D:/Work/DeviceTester/amazon-freertos/tests/common/mqtt\aws_test_mqtt_lib.c ****     static const uint8_t ucConnACKMessage[] =
 935:D:/Work/DeviceTester/amazon-freertos/tests/common/mqtt\aws_test_mqtt_lib.c ****     {
 936:D:/Work/DeviceTester/amazon-freertos/tests/common/mqtt\aws_test_mqtt_lib.c ****         mqttCONTROL_CONNACK | mqttFLAGS_CONNACK, /* Fixed header control packet type. */
 937:D:/Work/DeviceTester/amazon-freertos/tests/common/mqtt\aws_test_mqtt_lib.c ****         3,                                       /* Fixed header remaining length - must always be 
 938:D:/Work/DeviceTester/amazon-freertos/tests/common/mqtt\aws_test_mqtt_lib.c ****         0,                                       /* Bit 0 is SP - Session Present. */
 939:D:/Work/DeviceTester/amazon-freertos/tests/common/mqtt\aws_test_mqtt_lib.c ****         0,                                       /* Return code. */
 940:D:/Work/DeviceTester/amazon-freertos/tests/common/mqtt\aws_test_mqtt_lib.c ****         1                                        /* Bogus value. */
 941:D:/Work/DeviceTester/amazon-freertos/tests/common/mqtt\aws_test_mqtt_lib.c ****     };
 942:D:/Work/DeviceTester/amazon-freertos/tests/common/mqtt\aws_test_mqtt_lib.c **** 
 943:D:/Work/DeviceTester/amazon-freertos/tests/common/mqtt\aws_test_mqtt_lib.c ****     /* Send MQTT Connect message. */
 944:D:/Work/DeviceTester/amazon-freertos/tests/common/mqtt\aws_test_mqtt_lib.c ****     xReturnCode = prvSendMQTTConnect();
 945:D:/Work/DeviceTester/amazon-freertos/tests/common/mqtt\aws_test_mqtt_lib.c **** 
 946:D:/Work/DeviceTester/amazon-freertos/tests/common/mqtt\aws_test_mqtt_lib.c ****     /* Connect must have been sent successfully. */
 947:D:/Work/DeviceTester/amazon-freertos/tests/common/mqtt\aws_test_mqtt_lib.c ****     TEST_ASSERT_EQUAL( eMQTTSuccess, xReturnCode );
 948:D:/Work/DeviceTester/amazon-freertos/tests/common/mqtt\aws_test_mqtt_lib.c **** 
 949:D:/Work/DeviceTester/amazon-freertos/tests/common/mqtt\aws_test_mqtt_lib.c ****     /* Connection state must be "in-progress". */
 950:D:/Work/DeviceTester/amazon-freertos/tests/common/mqtt\aws_test_mqtt_lib.c ****     TEST_ASSERT_EQUAL( eMQTTConnectionInProgress, xMQTTContext.xConnectionState );
 951:D:/Work/DeviceTester/amazon-freertos/tests/common/mqtt\aws_test_mqtt_lib.c **** 
 952:D:/Work/DeviceTester/amazon-freertos/tests/common/mqtt\aws_test_mqtt_lib.c ****     /* Receive CONNACK. */
 953:D:/Work/DeviceTester/amazon-freertos/tests/common/mqtt\aws_test_mqtt_lib.c ****     xReturnCode = MQTT_ParseReceivedData( &( xMQTTContext ), ucConnACKMessage, sizeof( ucConnACKMes
 954:D:/Work/DeviceTester/amazon-freertos/tests/common/mqtt\aws_test_mqtt_lib.c **** 
 955:D:/Work/DeviceTester/amazon-freertos/tests/common/mqtt\aws_test_mqtt_lib.c ****     /* MQTT_ParseReceivedData must return success. */
 956:D:/Work/DeviceTester/amazon-freertos/tests/common/mqtt\aws_test_mqtt_lib.c ****     TEST_ASSERT_EQUAL( eMQTTSuccess, xReturnCode );
 957:D:/Work/DeviceTester/amazon-freertos/tests/common/mqtt\aws_test_mqtt_lib.c **** 
 958:D:/Work/DeviceTester/amazon-freertos/tests/common/mqtt\aws_test_mqtt_lib.c ****     /* Callback must have been invoked for disconnect since
 959:D:/Work/DeviceTester/amazon-freertos/tests/common/mqtt\aws_test_mqtt_lib.c ****      * since a malformed packet must result in disconnect. */
 960:D:/Work/DeviceTester/amazon-freertos/tests/common/mqtt\aws_test_mqtt_lib.c ****     TEST_ASSERT_EQUAL( 1, xCallbackCounter.ulDisconnect );
 961:D:/Work/DeviceTester/amazon-freertos/tests/common/mqtt\aws_test_mqtt_lib.c **** 
 962:D:/Work/DeviceTester/amazon-freertos/tests/common/mqtt\aws_test_mqtt_lib.c ****     /* Connection state must be "not-connected". */
 963:D:/Work/DeviceTester/amazon-freertos/tests/common/mqtt\aws_test_mqtt_lib.c ****     TEST_ASSERT_EQUAL( eMQTTNotConnected, xMQTTContext.xConnectionState );
 964:D:/Work/DeviceTester/amazon-freertos/tests/common/mqtt\aws_test_mqtt_lib.c **** 
 965:D:/Work/DeviceTester/amazon-freertos/tests/common/mqtt\aws_test_mqtt_lib.c ****     /* No other callback must have been invoked. */
 966:D:/Work/DeviceTester/amazon-freertos/tests/common/mqtt\aws_test_mqtt_lib.c ****     TEST_ASSERT_EQUAL( 0, xCallbackCounter.ulUnidentified );
 967:D:/Work/DeviceTester/amazon-freertos/tests/common/mqtt\aws_test_mqtt_lib.c **** }
 968:D:/Work/DeviceTester/amazon-freertos/tests/common/mqtt\aws_test_mqtt_lib.c **** /*-----------------------------------------------------------*/
 969:D:/Work/DeviceTester/amazon-freertos/tests/common/mqtt\aws_test_mqtt_lib.c **** 
 970:D:/Work/DeviceTester/amazon-freertos/tests/common/mqtt\aws_test_mqtt_lib.c **** /**
 971:D:/Work/DeviceTester/amazon-freertos/tests/common/mqtt\aws_test_mqtt_lib.c ****  * @brief MQTT connect - NULL value for required parameters.
 972:D:/Work/DeviceTester/amazon-freertos/tests/common/mqtt\aws_test_mqtt_lib.c ****  */
 973:D:/Work/DeviceTester/amazon-freertos/tests/common/mqtt\aws_test_mqtt_lib.c **** TEST( Full_MQTT, AFQP_MQTT_Connect_NULLParams )
 974:D:/Work/DeviceTester/amazon-freertos/tests/common/mqtt\aws_test_mqtt_lib.c **** {
 975:D:/Work/DeviceTester/amazon-freertos/tests/common/mqtt\aws_test_mqtt_lib.c ****     if( TEST_PROTECT() )
 976:D:/Work/DeviceTester/amazon-freertos/tests/common/mqtt\aws_test_mqtt_lib.c ****     {
 977:D:/Work/DeviceTester/amazon-freertos/tests/common/mqtt\aws_test_mqtt_lib.c ****         /* Call MQTT_Connect with NULL parameters which will
 978:D:/Work/DeviceTester/amazon-freertos/tests/common/mqtt\aws_test_mqtt_lib.c ****          * fire assert. */
 979:D:/Work/DeviceTester/amazon-freertos/tests/common/mqtt\aws_test_mqtt_lib.c ****         ( void ) MQTT_Connect( &( xMQTTContext ), NULL );
 980:D:/Work/DeviceTester/amazon-freertos/tests/common/mqtt\aws_test_mqtt_lib.c **** 
 981:D:/Work/DeviceTester/amazon-freertos/tests/common/mqtt\aws_test_mqtt_lib.c ****         /* Since the above call results in assert being fired,
 982:D:/Work/DeviceTester/amazon-freertos/tests/common/mqtt\aws_test_mqtt_lib.c ****          * this line must never get executed. */
 983:D:/Work/DeviceTester/amazon-freertos/tests/common/mqtt\aws_test_mqtt_lib.c ****         TEST_FAIL();
 984:D:/Work/DeviceTester/amazon-freertos/tests/common/mqtt\aws_test_mqtt_lib.c ****     }
 985:D:/Work/DeviceTester/amazon-freertos/tests/common/mqtt\aws_test_mqtt_lib.c **** }
 986:D:/Work/DeviceTester/amazon-freertos/tests/common/mqtt\aws_test_mqtt_lib.c **** /*-----------------------------------------------------------*/
 987:D:/Work/DeviceTester/amazon-freertos/tests/common/mqtt\aws_test_mqtt_lib.c **** 
 988:D:/Work/DeviceTester/amazon-freertos/tests/common/mqtt\aws_test_mqtt_lib.c **** /**
 989:D:/Work/DeviceTester/amazon-freertos/tests/common/mqtt\aws_test_mqtt_lib.c ****  * @brief MQTT connect - Send connect message while already connected.
 990:D:/Work/DeviceTester/amazon-freertos/tests/common/mqtt\aws_test_mqtt_lib.c ****  */
 991:D:/Work/DeviceTester/amazon-freertos/tests/common/mqtt\aws_test_mqtt_lib.c **** TEST( Full_MQTT, AFQP_MQTT_Connect_SecondConnectWhileAlreadyConnected )
 992:D:/Work/DeviceTester/amazon-freertos/tests/common/mqtt\aws_test_mqtt_lib.c **** {
 993:D:/Work/DeviceTester/amazon-freertos/tests/common/mqtt\aws_test_mqtt_lib.c ****     MQTTReturnCode_t xReturnCode;
 994:D:/Work/DeviceTester/amazon-freertos/tests/common/mqtt\aws_test_mqtt_lib.c **** 
 995:D:/Work/DeviceTester/amazon-freertos/tests/common/mqtt\aws_test_mqtt_lib.c ****     /* Send MQTT Connect message. */
 996:D:/Work/DeviceTester/amazon-freertos/tests/common/mqtt\aws_test_mqtt_lib.c ****     xReturnCode = prvSendMQTTConnect();
 997:D:/Work/DeviceTester/amazon-freertos/tests/common/mqtt\aws_test_mqtt_lib.c **** 
 998:D:/Work/DeviceTester/amazon-freertos/tests/common/mqtt\aws_test_mqtt_lib.c ****     /* Connect must have been sent successfully. */
 999:D:/Work/DeviceTester/amazon-freertos/tests/common/mqtt\aws_test_mqtt_lib.c ****     TEST_ASSERT_EQUAL( eMQTTSuccess, xReturnCode );
1000:D:/Work/DeviceTester/amazon-freertos/tests/common/mqtt\aws_test_mqtt_lib.c **** 
1001:D:/Work/DeviceTester/amazon-freertos/tests/common/mqtt\aws_test_mqtt_lib.c ****     /* Connection state must be "in-progress". */
1002:D:/Work/DeviceTester/amazon-freertos/tests/common/mqtt\aws_test_mqtt_lib.c ****     TEST_ASSERT_EQUAL( eMQTTConnectionInProgress, xMQTTContext.xConnectionState );
1003:D:/Work/DeviceTester/amazon-freertos/tests/common/mqtt\aws_test_mqtt_lib.c **** 
1004:D:/Work/DeviceTester/amazon-freertos/tests/common/mqtt\aws_test_mqtt_lib.c ****     /* Receive CONNACK. */
1005:D:/Work/DeviceTester/amazon-freertos/tests/common/mqtt\aws_test_mqtt_lib.c ****     xReturnCode = prvReceiveMQTTConnACK();
1006:D:/Work/DeviceTester/amazon-freertos/tests/common/mqtt\aws_test_mqtt_lib.c **** 
1007:D:/Work/DeviceTester/amazon-freertos/tests/common/mqtt\aws_test_mqtt_lib.c ****     /* CONNACK must have been received successfully. */
1008:D:/Work/DeviceTester/amazon-freertos/tests/common/mqtt\aws_test_mqtt_lib.c ****     TEST_ASSERT_EQUAL( eMQTTSuccess, xReturnCode );
1009:D:/Work/DeviceTester/amazon-freertos/tests/common/mqtt\aws_test_mqtt_lib.c **** 
1010:D:/Work/DeviceTester/amazon-freertos/tests/common/mqtt\aws_test_mqtt_lib.c ****     /* Connection state must be "connected". */
1011:D:/Work/DeviceTester/amazon-freertos/tests/common/mqtt\aws_test_mqtt_lib.c ****     TEST_ASSERT_EQUAL( eMQTTConnected, xMQTTContext.xConnectionState );
1012:D:/Work/DeviceTester/amazon-freertos/tests/common/mqtt\aws_test_mqtt_lib.c **** 
1013:D:/Work/DeviceTester/amazon-freertos/tests/common/mqtt\aws_test_mqtt_lib.c ****     /* Callback must have been invoked for CONNACK. */
1014:D:/Work/DeviceTester/amazon-freertos/tests/common/mqtt\aws_test_mqtt_lib.c ****     TEST_ASSERT_EQUAL( 1, xCallbackCounter.ulConnACK );
1015:D:/Work/DeviceTester/amazon-freertos/tests/common/mqtt\aws_test_mqtt_lib.c **** 
1016:D:/Work/DeviceTester/amazon-freertos/tests/common/mqtt\aws_test_mqtt_lib.c ****     /* Send second connect message when already connected. */
1017:D:/Work/DeviceTester/amazon-freertos/tests/common/mqtt\aws_test_mqtt_lib.c ****     xReturnCode = prvSendMQTTConnect();
1018:D:/Work/DeviceTester/amazon-freertos/tests/common/mqtt\aws_test_mqtt_lib.c **** 
1019:D:/Work/DeviceTester/amazon-freertos/tests/common/mqtt\aws_test_mqtt_lib.c ****     /* Ensure that we get the correct error code. */
1020:D:/Work/DeviceTester/amazon-freertos/tests/common/mqtt\aws_test_mqtt_lib.c ****     TEST_ASSERT_EQUAL( eMQTTClientAlreadyConnected, xReturnCode );
1021:D:/Work/DeviceTester/amazon-freertos/tests/common/mqtt\aws_test_mqtt_lib.c **** 
1022:D:/Work/DeviceTester/amazon-freertos/tests/common/mqtt\aws_test_mqtt_lib.c ****     /* No other callback must have been invoked. */
1023:D:/Work/DeviceTester/amazon-freertos/tests/common/mqtt\aws_test_mqtt_lib.c ****     TEST_ASSERT_EQUAL( 0, xCallbackCounter.ulUnidentified );
1024:D:/Work/DeviceTester/amazon-freertos/tests/common/mqtt\aws_test_mqtt_lib.c **** }
1025:D:/Work/DeviceTester/amazon-freertos/tests/common/mqtt\aws_test_mqtt_lib.c **** /*-----------------------------------------------------------*/
1026:D:/Work/DeviceTester/amazon-freertos/tests/common/mqtt\aws_test_mqtt_lib.c **** 
1027:D:/Work/DeviceTester/amazon-freertos/tests/common/mqtt\aws_test_mqtt_lib.c **** /**
1028:D:/Work/DeviceTester/amazon-freertos/tests/common/mqtt\aws_test_mqtt_lib.c ****  * @brief MQTT connect - Send second connect message while waiting for CONNACK.
1029:D:/Work/DeviceTester/amazon-freertos/tests/common/mqtt\aws_test_mqtt_lib.c ****  */
1030:D:/Work/DeviceTester/amazon-freertos/tests/common/mqtt\aws_test_mqtt_lib.c **** TEST( Full_MQTT, AFQP_MQTT_Connect_SecondConnectWhileWaitingForConnACK )
1031:D:/Work/DeviceTester/amazon-freertos/tests/common/mqtt\aws_test_mqtt_lib.c **** {
 1388              		.loc 1 1031 0
 1389              		.cfi_startproc
 1390              		@ args = 0, pretend = 0, frame = 0
 1391              		@ frame_needed = 0, uses_anonymous_args = 0
 1392 0000 13402DE9 		push	{r0, r1, r4, lr}
 1393              		.cfi_def_cfa_offset 16
 1394              		.cfi_offset 4, -8
 1395              		.cfi_offset 14, -4
1032:D:/Work/DeviceTester/amazon-freertos/tests/common/mqtt\aws_test_mqtt_lib.c ****     MQTTReturnCode_t xReturnCode;
1033:D:/Work/DeviceTester/amazon-freertos/tests/common/mqtt\aws_test_mqtt_lib.c **** 
1034:D:/Work/DeviceTester/amazon-freertos/tests/common/mqtt\aws_test_mqtt_lib.c ****     /* Send MQTT Connect message. */
1035:D:/Work/DeviceTester/amazon-freertos/tests/common/mqtt\aws_test_mqtt_lib.c ****     xReturnCode = prvSendMQTTConnect();
1036:D:/Work/DeviceTester/amazon-freertos/tests/common/mqtt\aws_test_mqtt_lib.c **** 
1037:D:/Work/DeviceTester/amazon-freertos/tests/common/mqtt\aws_test_mqtt_lib.c ****     /* Connect must have been sent successfully. */
1038:D:/Work/DeviceTester/amazon-freertos/tests/common/mqtt\aws_test_mqtt_lib.c ****     TEST_ASSERT_EQUAL( eMQTTSuccess, xReturnCode );
 1396              		.loc 1 1038 0
 1397 0004 1440A0E3 		mov	r4, #20
1035:D:/Work/DeviceTester/amazon-freertos/tests/common/mqtt\aws_test_mqtt_lib.c **** 
 1398              		.loc 1 1035 0
 1399 0008 FEFFFFEB 		bl	prvSendMQTTConnect
 1400              	.LVL165:
 1401              		.loc 1 1038 0
 1402 000c 0020A0E3 		mov	r2, #0
 1403 0010 0010A0E1 		mov	r1, r0
 1404 0014 00408DE5 		str	r4, [sp]
 1405 0018 0200A0E1 		mov	r0, r2
 1406              	.LVL166:
 1407 001c 0E3400E3 		movw	r3, #1038
 1408 0020 FEFFFFEB 		bl	UnityAssertEqualNumber
 1409              	.LVL167:
1039:D:/Work/DeviceTester/amazon-freertos/tests/common/mqtt\aws_test_mqtt_lib.c **** 
1040:D:/Work/DeviceTester/amazon-freertos/tests/common/mqtt\aws_test_mqtt_lib.c ****     /* Connection state must be "in-progress". */
1041:D:/Work/DeviceTester/amazon-freertos/tests/common/mqtt\aws_test_mqtt_lib.c ****     TEST_ASSERT_EQUAL( eMQTTConnectionInProgress, xMQTTContext.xConnectionState );
 1410              		.loc 1 1041 0
 1411 0024 54309FE5 		ldr	r3, .L50
 1412 0028 0020A0E3 		mov	r2, #0
 1413 002c 0100A0E3 		mov	r0, #1
 1414 0030 3C10D3E5 		ldrb	r1, [r3, #60]	@ zero_extendqisi2
 1415 0034 113400E3 		movw	r3, #1041
 1416 0038 00408DE5 		str	r4, [sp]
 1417 003c FEFFFFEB 		bl	UnityAssertEqualNumber
 1418              	.LVL168:
1042:D:/Work/DeviceTester/amazon-freertos/tests/common/mqtt\aws_test_mqtt_lib.c **** 
1043:D:/Work/DeviceTester/amazon-freertos/tests/common/mqtt\aws_test_mqtt_lib.c ****     /* Send the second MQTT Connect message while
1044:D:/Work/DeviceTester/amazon-freertos/tests/common/mqtt\aws_test_mqtt_lib.c ****      * we are waiting for CONNACK. */
1045:D:/Work/DeviceTester/amazon-freertos/tests/common/mqtt\aws_test_mqtt_lib.c ****     xReturnCode = prvSendMQTTConnect();
 1419              		.loc 1 1045 0
 1420 0040 FEFFFFEB 		bl	prvSendMQTTConnect
 1421              	.LVL169:
1046:D:/Work/DeviceTester/amazon-freertos/tests/common/mqtt\aws_test_mqtt_lib.c **** 
1047:D:/Work/DeviceTester/amazon-freertos/tests/common/mqtt\aws_test_mqtt_lib.c ****     /* Ensure that we get the correct error code. */
1048:D:/Work/DeviceTester/amazon-freertos/tests/common/mqtt\aws_test_mqtt_lib.c ****     TEST_ASSERT_EQUAL( eMQTTClientConnectionInProgress, xReturnCode );
 1422              		.loc 1 1048 0
 1423 0044 00408DE5 		str	r4, [sp]
 1424 0048 0010A0E1 		mov	r1, r0
 1425 004c 183400E3 		movw	r3, #1048
 1426 0050 0020A0E3 		mov	r2, #0
 1427 0054 0300A0E3 		mov	r0, #3
 1428              	.LVL170:
 1429 0058 FEFFFFEB 		bl	UnityAssertEqualNumber
 1430              	.LVL171:
1049:D:/Work/DeviceTester/amazon-freertos/tests/common/mqtt\aws_test_mqtt_lib.c **** 
1050:D:/Work/DeviceTester/amazon-freertos/tests/common/mqtt\aws_test_mqtt_lib.c ****     /* No other callback must be invoked. */
1051:D:/Work/DeviceTester/amazon-freertos/tests/common/mqtt\aws_test_mqtt_lib.c ****     TEST_ASSERT_EQUAL( 0, xCallbackCounter.ulUnidentified );
 1431              		.loc 1 1051 0
 1432 005c 20109FE5 		ldr	r1, .L50+4
 1433 0060 0020A0E3 		mov	r2, #0
 1434 0064 00408DE5 		str	r4, [sp]
 1435 0068 1B3400E3 		movw	r3, #1051
 1436 006c 0200A0E1 		mov	r0, r2
 1437 0070 0C1091E5 		ldr	r1, [r1, #12]
 1438 0074 FEFFFFEB 		bl	UnityAssertEqualNumber
 1439              	.LVL172:
1052:D:/Work/DeviceTester/amazon-freertos/tests/common/mqtt\aws_test_mqtt_lib.c **** }
 1440              		.loc 1 1052 0
 1441 0078 08D08DE2 		add	sp, sp, #8
 1442              		.cfi_def_cfa_offset 8
 1443              		@ sp needed
 1444 007c 1080BDE8 		pop	{r4, pc}
 1445              	.L51:
 1446              		.align	2
 1447              	.L50:
 1448 0080 00000000 		.word	.LANCHOR0
 1449 0084 00000000 		.word	.LANCHOR1
 1450              		.cfi_endproc
 1451              	.LFE39:
 1453              		.section	.text.TEST_Full_MQTT_AFQP_MQTT_Connect_NetworkSendFailed_,"ax",%progbits
 1454              		.align	2
 1455              		.global	TEST_Full_MQTT_AFQP_MQTT_Connect_NetworkSendFailed_
 1456              		.syntax unified
 1457              		.arm
 1458              		.fpu neon
 1460              	TEST_Full_MQTT_AFQP_MQTT_Connect_NetworkSendFailed_:
 1461              	.LFB41:
1053:D:/Work/DeviceTester/amazon-freertos/tests/common/mqtt\aws_test_mqtt_lib.c **** /*-----------------------------------------------------------*/
1054:D:/Work/DeviceTester/amazon-freertos/tests/common/mqtt\aws_test_mqtt_lib.c **** 
1055:D:/Work/DeviceTester/amazon-freertos/tests/common/mqtt\aws_test_mqtt_lib.c **** /**
1056:D:/Work/DeviceTester/amazon-freertos/tests/common/mqtt\aws_test_mqtt_lib.c ****  * @brief MQTT connect - Network send failure.
1057:D:/Work/DeviceTester/amazon-freertos/tests/common/mqtt\aws_test_mqtt_lib.c ****  */
1058:D:/Work/DeviceTester/amazon-freertos/tests/common/mqtt\aws_test_mqtt_lib.c **** TEST( Full_MQTT, AFQP_MQTT_Connect_NetworkSendFailed )
1059:D:/Work/DeviceTester/amazon-freertos/tests/common/mqtt\aws_test_mqtt_lib.c **** {
 1462              		.loc 1 1059 0
 1463              		.cfi_startproc
 1464              		@ args = 0, pretend = 0, frame = 0
 1465              		@ frame_needed = 0, uses_anonymous_args = 0
 1466 0000 37402DE9 		push	{r0, r1, r2, r4, r5, lr}
 1467              		.cfi_def_cfa_offset 24
 1468              		.cfi_offset 4, -12
 1469              		.cfi_offset 5, -8
 1470              		.cfi_offset 14, -4
1060:D:/Work/DeviceTester/amazon-freertos/tests/common/mqtt\aws_test_mqtt_lib.c ****     MQTTReturnCode_t xReturnCode;
1061:D:/Work/DeviceTester/amazon-freertos/tests/common/mqtt\aws_test_mqtt_lib.c **** 
1062:D:/Work/DeviceTester/amazon-freertos/tests/common/mqtt\aws_test_mqtt_lib.c ****     /* Change the send callback in the MQTT context. */
1063:D:/Work/DeviceTester/amazon-freertos/tests/common/mqtt\aws_test_mqtt_lib.c ****     xMQTTContext.pxMQTTSendFxn = &( prvSendFailedCallback );
1064:D:/Work/DeviceTester/amazon-freertos/tests/common/mqtt\aws_test_mqtt_lib.c **** 
1065:D:/Work/DeviceTester/amazon-freertos/tests/common/mqtt\aws_test_mqtt_lib.c ****     /* Send MQTT Connect message. */
1066:D:/Work/DeviceTester/amazon-freertos/tests/common/mqtt\aws_test_mqtt_lib.c ****     xReturnCode = prvSendMQTTConnect();
1067:D:/Work/DeviceTester/amazon-freertos/tests/common/mqtt\aws_test_mqtt_lib.c **** 
1068:D:/Work/DeviceTester/amazon-freertos/tests/common/mqtt\aws_test_mqtt_lib.c ****     /* Connect must have failed. */
1069:D:/Work/DeviceTester/amazon-freertos/tests/common/mqtt\aws_test_mqtt_lib.c ****     TEST_ASSERT_EQUAL( eMQTTSendFailed, xReturnCode );
 1471              		.loc 1 1069 0
 1472 0004 1440A0E3 		mov	r4, #20
1063:D:/Work/DeviceTester/amazon-freertos/tests/common/mqtt\aws_test_mqtt_lib.c **** 
 1473              		.loc 1 1063 0
 1474 0008 5C509FE5 		ldr	r5, .L54
 1475 000c 5C309FE5 		ldr	r3, .L54+4
 1476 0010 2C3085E5 		str	r3, [r5, #44]
1066:D:/Work/DeviceTester/amazon-freertos/tests/common/mqtt\aws_test_mqtt_lib.c **** 
 1477              		.loc 1 1066 0
 1478 0014 FEFFFFEB 		bl	prvSendMQTTConnect
 1479              	.LVL173:
 1480              		.loc 1 1069 0
 1481 0018 00408DE5 		str	r4, [sp]
 1482 001c 0010A0E1 		mov	r1, r0
 1483 0020 2D3400E3 		movw	r3, #1069
 1484 0024 0020A0E3 		mov	r2, #0
 1485 0028 0600A0E3 		mov	r0, #6
 1486              	.LVL174:
 1487 002c FEFFFFEB 		bl	UnityAssertEqualNumber
 1488              	.LVL175:
1070:D:/Work/DeviceTester/amazon-freertos/tests/common/mqtt\aws_test_mqtt_lib.c **** 
1071:D:/Work/DeviceTester/amazon-freertos/tests/common/mqtt\aws_test_mqtt_lib.c ****     /* Connection state must be "not-connected". */
1072:D:/Work/DeviceTester/amazon-freertos/tests/common/mqtt\aws_test_mqtt_lib.c ****     TEST_ASSERT_EQUAL( eMQTTNotConnected, xMQTTContext.xConnectionState );
 1489              		.loc 1 1072 0
 1490 0030 0020A0E3 		mov	r2, #0
 1491 0034 3C10D5E5 		ldrb	r1, [r5, #60]	@ zero_extendqisi2
 1492 0038 0200A0E1 		mov	r0, r2
 1493 003c 00408DE5 		str	r4, [sp]
 1494 0040 433EA0E3 		mov	r3, #1072
 1495 0044 FEFFFFEB 		bl	UnityAssertEqualNumber
 1496              	.LVL176:
1073:D:/Work/DeviceTester/amazon-freertos/tests/common/mqtt\aws_test_mqtt_lib.c **** 
1074:D:/Work/DeviceTester/amazon-freertos/tests/common/mqtt\aws_test_mqtt_lib.c ****     /* No callback must have been invoked. */
1075:D:/Work/DeviceTester/amazon-freertos/tests/common/mqtt\aws_test_mqtt_lib.c ****     TEST_ASSERT_EQUAL( 0, xCallbackCounter.ulUnidentified );
 1497              		.loc 1 1075 0
 1498 0048 24109FE5 		ldr	r1, .L54+8
 1499 004c 0020A0E3 		mov	r2, #0
 1500 0050 00408DE5 		str	r4, [sp]
 1501 0054 333400E3 		movw	r3, #1075
 1502 0058 0200A0E1 		mov	r0, r2
 1503 005c 0C1091E5 		ldr	r1, [r1, #12]
 1504 0060 FEFFFFEB 		bl	UnityAssertEqualNumber
 1505              	.LVL177:
1076:D:/Work/DeviceTester/amazon-freertos/tests/common/mqtt\aws_test_mqtt_lib.c **** }
 1506              		.loc 1 1076 0
 1507 0064 0CD08DE2 		add	sp, sp, #12
 1508              		.cfi_def_cfa_offset 12
 1509              		@ sp needed
 1510 0068 3080BDE8 		pop	{r4, r5, pc}
 1511              	.L55:
 1512              		.align	2
 1513              	.L54:
 1514 006c 00000000 		.word	.LANCHOR0
 1515 0070 00000000 		.word	prvSendFailedCallback
 1516 0074 00000000 		.word	.LANCHOR1
 1517              		.cfi_endproc
 1518              	.LFE41:
 1520              		.section	.text.TEST_Full_MQTT_AFQP_MQTT_Connect_NULLParams_,"ax",%progbits
 1521              		.align	2
 1522              		.global	TEST_Full_MQTT_AFQP_MQTT_Connect_NULLParams_
 1523              		.syntax unified
 1524              		.arm
 1525              		.fpu neon
 1527              	TEST_Full_MQTT_AFQP_MQTT_Connect_NULLParams_:
 1528              	.LFB35:
 974:D:/Work/DeviceTester/amazon-freertos/tests/common/mqtt\aws_test_mqtt_lib.c ****     if( TEST_PROTECT() )
 1529              		.loc 1 974 0
 1530              		.cfi_startproc
 1531              		@ args = 0, pretend = 0, frame = 0
 1532              		@ frame_needed = 0, uses_anonymous_args = 0
 975:D:/Work/DeviceTester/amazon-freertos/tests/common/mqtt\aws_test_mqtt_lib.c ****     {
 1533              		.loc 1 975 0
 1534 0000 28009FE5 		ldr	r0, .L60
 974:D:/Work/DeviceTester/amazon-freertos/tests/common/mqtt\aws_test_mqtt_lib.c ****     if( TEST_PROTECT() )
 1535              		.loc 1 974 0
 1536 0004 10402DE9 		push	{r4, lr}
 1537              		.cfi_def_cfa_offset 8
 1538              		.cfi_offset 4, -8
 1539              		.cfi_offset 14, -4
 975:D:/Work/DeviceTester/amazon-freertos/tests/common/mqtt\aws_test_mqtt_lib.c ****     {
 1540              		.loc 1 975 0
 1541 0008 FEFFFFEB 		bl	setjmp
 1542              	.LVL178:
 1543 000c 004050E2 		subs	r4, r0, #0
 1544 0010 1080BD18 		popne	{r4, pc}
 979:D:/Work/DeviceTester/amazon-freertos/tests/common/mqtt\aws_test_mqtt_lib.c **** 
 1545              		.loc 1 979 0
 1546 0014 0410A0E1 		mov	r1, r4
 1547 0018 14009FE5 		ldr	r0, .L60+4
 1548 001c FEFFFFEB 		bl	MQTT_Connect
 1549              	.LVL179:
 983:D:/Work/DeviceTester/amazon-freertos/tests/common/mqtt\aws_test_mqtt_lib.c ****     }
 1550              		.loc 1 983 0
 1551 0020 D71300E3 		movw	r1, #983
 1552 0024 0400A0E1 		mov	r0, r4
 1553 0028 FEFFFFEB 		bl	UnityFail
 1554              	.LVL180:
 1555 002c 1080BDE8 		pop	{r4, pc}
 1556              	.L61:
 1557              		.align	2
 1558              	.L60:
 1559 0030 28000000 		.word	Unity+40
 1560 0034 00000000 		.word	.LANCHOR0
 1561              		.cfi_endproc
 1562              	.LFE35:
 1564              		.section	.text.prvReceiveMQTTConnACK,"ax",%progbits
 1565              		.align	2
 1566              		.syntax unified
 1567              		.arm
 1568              		.fpu neon
 1570              	prvReceiveMQTTConnACK:
 1571              	.LFB6:
 308:D:/Work/DeviceTester/amazon-freertos/tests/common/mqtt\aws_test_mqtt_lib.c ****     MQTTReturnCode_t xReturnCode;
 1572              		.loc 1 308 0
 1573              		.cfi_startproc
 1574              		@ args = 0, pretend = 0, frame = 0
 1575              		@ frame_needed = 0, uses_anonymous_args = 0
 1576              		@ link register save eliminated.
 319:D:/Work/DeviceTester/amazon-freertos/tests/common/mqtt\aws_test_mqtt_lib.c **** 
 1577              		.loc 1 319 0
 1578 0000 0420A0E3 		mov	r2, #4
 1579 0004 04109FE5 		ldr	r1, .L63
 1580 0008 04009FE5 		ldr	r0, .L63+4
 1581 000c FEFFFFEA 		b	MQTT_ParseReceivedData
 1582              	.LVL181:
 1583              	.L64:
 1584              		.align	2
 1585              	.L63:
 1586 0010 00000000 		.word	.LANCHOR2
 1587 0014 00000000 		.word	.LANCHOR0
 1588              		.cfi_endproc
 1589              	.LFE6:
 1591              		.section	.text.TEST_Full_MQTT_AFQP_MQTT_Connect_HappyCase_,"ax",%progbits
 1592              		.align	2
 1593              		.global	TEST_Full_MQTT_AFQP_MQTT_Connect_HappyCase_
 1594              		.syntax unified
 1595              		.arm
 1596              		.fpu neon
 1598              	TEST_Full_MQTT_AFQP_MQTT_Connect_HappyCase_:
 1599              	.LFB23:
 748:D:/Work/DeviceTester/amazon-freertos/tests/common/mqtt\aws_test_mqtt_lib.c ****     MQTTReturnCode_t xReturnCode;
 1600              		.loc 1 748 0
 1601              		.cfi_startproc
 1602              		@ args = 0, pretend = 0, frame = 0
 1603              		@ frame_needed = 0, uses_anonymous_args = 0
 1604 0000 37402DE9 		push	{r0, r1, r2, r4, r5, lr}
 1605              		.cfi_def_cfa_offset 24
 1606              		.cfi_offset 4, -12
 1607              		.cfi_offset 5, -8
 1608              		.cfi_offset 14, -4
 755:D:/Work/DeviceTester/amazon-freertos/tests/common/mqtt\aws_test_mqtt_lib.c **** 
 1609              		.loc 1 755 0
 1610 0004 1440A0E3 		mov	r4, #20
 758:D:/Work/DeviceTester/amazon-freertos/tests/common/mqtt\aws_test_mqtt_lib.c **** 
 1611              		.loc 1 758 0
 1612 0008 A0509FE5 		ldr	r5, .L67
 752:D:/Work/DeviceTester/amazon-freertos/tests/common/mqtt\aws_test_mqtt_lib.c **** 
 1613              		.loc 1 752 0
 1614 000c FEFFFFEB 		bl	prvSendMQTTConnect
 1615              	.LVL182:
 755:D:/Work/DeviceTester/amazon-freertos/tests/common/mqtt\aws_test_mqtt_lib.c **** 
 1616              		.loc 1 755 0
 1617 0010 0020A0E3 		mov	r2, #0
 1618 0014 0010A0E1 		mov	r1, r0
 1619 0018 00408DE5 		str	r4, [sp]
 1620 001c 0200A0E1 		mov	r0, r2
 1621              	.LVL183:
 1622 0020 F33200E3 		movw	r3, #755
 1623 0024 FEFFFFEB 		bl	UnityAssertEqualNumber
 1624              	.LVL184:
 758:D:/Work/DeviceTester/amazon-freertos/tests/common/mqtt\aws_test_mqtt_lib.c **** 
 1625              		.loc 1 758 0
 1626 0028 3C10D5E5 		ldrb	r1, [r5, #60]	@ zero_extendqisi2
 1627 002c F63200E3 		movw	r3, #758
 1628 0030 0020A0E3 		mov	r2, #0
 1629 0034 00408DE5 		str	r4, [sp]
 1630 0038 0100A0E3 		mov	r0, #1
 1631 003c FEFFFFEB 		bl	UnityAssertEqualNumber
 1632              	.LVL185:
 761:D:/Work/DeviceTester/amazon-freertos/tests/common/mqtt\aws_test_mqtt_lib.c **** 
 1633              		.loc 1 761 0
 1634 0040 FEFFFFEB 		bl	prvReceiveMQTTConnACK
 1635              	.LVL186:
 764:D:/Work/DeviceTester/amazon-freertos/tests/common/mqtt\aws_test_mqtt_lib.c **** 
 1636              		.loc 1 764 0
 1637 0044 0020A0E3 		mov	r2, #0
 1638 0048 0010A0E1 		mov	r1, r0
 1639 004c 00408DE5 		str	r4, [sp]
 1640 0050 0200A0E1 		mov	r0, r2
 1641              	.LVL187:
 1642 0054 BF3FA0E3 		mov	r3, #764
 1643 0058 FEFFFFEB 		bl	UnityAssertEqualNumber
 1644              	.LVL188:
 767:D:/Work/DeviceTester/amazon-freertos/tests/common/mqtt\aws_test_mqtt_lib.c **** 
 1645              		.loc 1 767 0
 1646 005c 3C10D5E5 		ldrb	r1, [r5, #60]	@ zero_extendqisi2
 1647 0060 FF3200E3 		movw	r3, #767
 770:D:/Work/DeviceTester/amazon-freertos/tests/common/mqtt\aws_test_mqtt_lib.c **** 
 1648              		.loc 1 770 0
 1649 0064 48509FE5 		ldr	r5, .L67+4
 767:D:/Work/DeviceTester/amazon-freertos/tests/common/mqtt\aws_test_mqtt_lib.c **** 
 1650              		.loc 1 767 0
 1651 0068 0020A0E3 		mov	r2, #0
 1652 006c 00408DE5 		str	r4, [sp]
 1653 0070 0200A0E3 		mov	r0, #2
 1654 0074 FEFFFFEB 		bl	UnityAssertEqualNumber
 1655              	.LVL189:
 770:D:/Work/DeviceTester/amazon-freertos/tests/common/mqtt\aws_test_mqtt_lib.c **** 
 1656              		.loc 1 770 0
 1657 0078 00408DE5 		str	r4, [sp]
 1658 007c 023300E3 		movw	r3, #770
 1659 0080 001095E5 		ldr	r1, [r5]
 1660 0084 0020A0E3 		mov	r2, #0
 1661 0088 0100A0E3 		mov	r0, #1
 1662 008c FEFFFFEB 		bl	UnityAssertEqualNumber
 1663              	.LVL190:
 773:D:/Work/DeviceTester/amazon-freertos/tests/common/mqtt\aws_test_mqtt_lib.c **** }
 1664              		.loc 1 773 0
 1665 0090 0020A0E3 		mov	r2, #0
 1666 0094 00408DE5 		str	r4, [sp]
 1667 0098 053300E3 		movw	r3, #773
 1668 009c 0C1095E5 		ldr	r1, [r5, #12]
 1669 00a0 0200A0E1 		mov	r0, r2
 1670 00a4 FEFFFFEB 		bl	UnityAssertEqualNumber
 1671              	.LVL191:
 774:D:/Work/DeviceTester/amazon-freertos/tests/common/mqtt\aws_test_mqtt_lib.c **** /*-----------------------------------------------------------*/
 1672              		.loc 1 774 0
 1673 00a8 0CD08DE2 		add	sp, sp, #12
 1674              		.cfi_def_cfa_offset 12
 1675              		@ sp needed
 1676 00ac 3080BDE8 		pop	{r4, r5, pc}
 1677              	.L68:
 1678              		.align	2
 1679              	.L67:
 1680 00b0 00000000 		.word	.LANCHOR0
 1681 00b4 00000000 		.word	.LANCHOR1
 1682              		.cfi_endproc
 1683              	.LFE23:
 1685              		.section	.text.TEST_Full_MQTT_AFQP_MQTT_Connect_ConnACKWithoutConnect_,"ax",%progbits
 1686              		.align	2
 1687              		.global	TEST_Full_MQTT_AFQP_MQTT_Connect_ConnACKWithoutConnect_
 1688              		.syntax unified
 1689              		.arm
 1690              		.fpu neon
 1692              	TEST_Full_MQTT_AFQP_MQTT_Connect_ConnACKWithoutConnect_:
 1693              	.LFB27:
 826:D:/Work/DeviceTester/amazon-freertos/tests/common/mqtt\aws_test_mqtt_lib.c ****     MQTTReturnCode_t xReturnCode;
 1694              		.loc 1 826 0
 1695              		.cfi_startproc
 1696              		@ args = 0, pretend = 0, frame = 0
 1697              		@ frame_needed = 0, uses_anonymous_args = 0
 1698 0000 37402DE9 		push	{r0, r1, r2, r4, r5, lr}
 1699              		.cfi_def_cfa_offset 24
 1700              		.cfi_offset 4, -12
 1701              		.cfi_offset 5, -8
 1702              		.cfi_offset 14, -4
 833:D:/Work/DeviceTester/amazon-freertos/tests/common/mqtt\aws_test_mqtt_lib.c **** 
 1703              		.loc 1 833 0
 1704 0004 1440A0E3 		mov	r4, #20
 830:D:/Work/DeviceTester/amazon-freertos/tests/common/mqtt\aws_test_mqtt_lib.c **** 
 1705              		.loc 1 830 0
 1706 0008 FEFFFFEB 		bl	prvReceiveMQTTConnACK
 1707              	.LVL192:
 833:D:/Work/DeviceTester/amazon-freertos/tests/common/mqtt\aws_test_mqtt_lib.c **** 
 1708              		.loc 1 833 0
 1709 000c 413300E3 		movw	r3, #833
 1710 0010 0010A0E1 		mov	r1, r0
 1711 0014 00408DE5 		str	r4, [sp]
 1712 0018 0020A0E3 		mov	r2, #0
 1713 001c 0400A0E3 		mov	r0, #4
 1714              	.LVL193:
 840:D:/Work/DeviceTester/amazon-freertos/tests/common/mqtt\aws_test_mqtt_lib.c **** 
 1715              		.loc 1 840 0
 1716 0020 54509FE5 		ldr	r5, .L71
 833:D:/Work/DeviceTester/amazon-freertos/tests/common/mqtt\aws_test_mqtt_lib.c **** 
 1717              		.loc 1 833 0
 1718 0024 FEFFFFEB 		bl	UnityAssertEqualNumber
 1719              	.LVL194:
 837:D:/Work/DeviceTester/amazon-freertos/tests/common/mqtt\aws_test_mqtt_lib.c **** 
 1720              		.loc 1 837 0
 1721 0028 50309FE5 		ldr	r3, .L71+4
 1722 002c 0020A0E3 		mov	r2, #0
 1723 0030 0200A0E1 		mov	r0, r2
 1724 0034 3C10D3E5 		ldrb	r1, [r3, #60]	@ zero_extendqisi2
 1725 0038 453300E3 		movw	r3, #837
 1726 003c 00408DE5 		str	r4, [sp]
 1727 0040 FEFFFFEB 		bl	UnityAssertEqualNumber
 1728              	.LVL195:
 840:D:/Work/DeviceTester/amazon-freertos/tests/common/mqtt\aws_test_mqtt_lib.c **** 
 1729              		.loc 1 840 0
 1730 0044 0020A0E3 		mov	r2, #0
 1731 0048 041095E5 		ldr	r1, [r5, #4]
 1732 004c 0200A0E1 		mov	r0, r2
 1733 0050 00408DE5 		str	r4, [sp]
 1734 0054 D23FA0E3 		mov	r3, #840
 1735 0058 FEFFFFEB 		bl	UnityAssertEqualNumber
 1736              	.LVL196:
 843:D:/Work/DeviceTester/amazon-freertos/tests/common/mqtt\aws_test_mqtt_lib.c **** }
 1737              		.loc 1 843 0
 1738 005c 0020A0E3 		mov	r2, #0
 1739 0060 00408DE5 		str	r4, [sp]
 1740 0064 4B3300E3 		movw	r3, #843
 1741 0068 0C1095E5 		ldr	r1, [r5, #12]
 1742 006c 0200A0E1 		mov	r0, r2
 1743 0070 FEFFFFEB 		bl	UnityAssertEqualNumber
 1744              	.LVL197:
 844:D:/Work/DeviceTester/amazon-freertos/tests/common/mqtt\aws_test_mqtt_lib.c **** /*-----------------------------------------------------------*/
 1745              		.loc 1 844 0
 1746 0074 0CD08DE2 		add	sp, sp, #12
 1747              		.cfi_def_cfa_offset 12
 1748              		@ sp needed
 1749 0078 3080BDE8 		pop	{r4, r5, pc}
 1750              	.L72:
 1751              		.align	2
 1752              	.L71:
 1753 007c 00000000 		.word	.LANCHOR1
 1754 0080 00000000 		.word	.LANCHOR0
 1755              		.cfi_endproc
 1756              	.LFE27:
 1758              		.section	.text.TEST_Full_MQTT_AFQP_MQTT_Connect_SecondConnectWhileAlreadyConnected_,"ax",%progbits
 1759              		.align	2
 1760              		.global	TEST_Full_MQTT_AFQP_MQTT_Connect_SecondConnectWhileAlreadyConnected_
 1761              		.syntax unified
 1762              		.arm
 1763              		.fpu neon
 1765              	TEST_Full_MQTT_AFQP_MQTT_Connect_SecondConnectWhileAlreadyConnected_:
 1766              	.LFB37:
 992:D:/Work/DeviceTester/amazon-freertos/tests/common/mqtt\aws_test_mqtt_lib.c ****     MQTTReturnCode_t xReturnCode;
 1767              		.loc 1 992 0
 1768              		.cfi_startproc
 1769              		@ args = 0, pretend = 0, frame = 0
 1770              		@ frame_needed = 0, uses_anonymous_args = 0
 1771 0000 37402DE9 		push	{r0, r1, r2, r4, r5, lr}
 1772              		.cfi_def_cfa_offset 24
 1773              		.cfi_offset 4, -12
 1774              		.cfi_offset 5, -8
 1775              		.cfi_offset 14, -4
 999:D:/Work/DeviceTester/amazon-freertos/tests/common/mqtt\aws_test_mqtt_lib.c **** 
 1776              		.loc 1 999 0
 1777 0004 1440A0E3 		mov	r4, #20
1002:D:/Work/DeviceTester/amazon-freertos/tests/common/mqtt\aws_test_mqtt_lib.c **** 
 1778              		.loc 1 1002 0
 1779 0008 BC509FE5 		ldr	r5, .L75
 996:D:/Work/DeviceTester/amazon-freertos/tests/common/mqtt\aws_test_mqtt_lib.c **** 
 1780              		.loc 1 996 0
 1781 000c FEFFFFEB 		bl	prvSendMQTTConnect
 1782              	.LVL198:
 999:D:/Work/DeviceTester/amazon-freertos/tests/common/mqtt\aws_test_mqtt_lib.c **** 
 1783              		.loc 1 999 0
 1784 0010 0020A0E3 		mov	r2, #0
 1785 0014 0010A0E1 		mov	r1, r0
 1786 0018 00408DE5 		str	r4, [sp]
 1787 001c 0200A0E1 		mov	r0, r2
 1788              	.LVL199:
 1789 0020 E73300E3 		movw	r3, #999
 1790 0024 FEFFFFEB 		bl	UnityAssertEqualNumber
 1791              	.LVL200:
1002:D:/Work/DeviceTester/amazon-freertos/tests/common/mqtt\aws_test_mqtt_lib.c **** 
 1792              		.loc 1 1002 0
 1793 0028 3C10D5E5 		ldrb	r1, [r5, #60]	@ zero_extendqisi2
 1794 002c EA3300E3 		movw	r3, #1002
 1795 0030 0020A0E3 		mov	r2, #0
 1796 0034 00408DE5 		str	r4, [sp]
 1797 0038 0100A0E3 		mov	r0, #1
 1798 003c FEFFFFEB 		bl	UnityAssertEqualNumber
 1799              	.LVL201:
1005:D:/Work/DeviceTester/amazon-freertos/tests/common/mqtt\aws_test_mqtt_lib.c **** 
 1800              		.loc 1 1005 0
 1801 0040 FEFFFFEB 		bl	prvReceiveMQTTConnACK
 1802              	.LVL202:
1008:D:/Work/DeviceTester/amazon-freertos/tests/common/mqtt\aws_test_mqtt_lib.c **** 
 1803              		.loc 1 1008 0
 1804 0044 0020A0E3 		mov	r2, #0
 1805 0048 0010A0E1 		mov	r1, r0
 1806 004c 00408DE5 		str	r4, [sp]
 1807 0050 0200A0E1 		mov	r0, r2
 1808              	.LVL203:
 1809 0054 3F3EA0E3 		mov	r3, #1008
 1810 0058 FEFFFFEB 		bl	UnityAssertEqualNumber
 1811              	.LVL204:
1011:D:/Work/DeviceTester/amazon-freertos/tests/common/mqtt\aws_test_mqtt_lib.c **** 
 1812              		.loc 1 1011 0
 1813 005c 3C10D5E5 		ldrb	r1, [r5, #60]	@ zero_extendqisi2
 1814 0060 F33300E3 		movw	r3, #1011
1014:D:/Work/DeviceTester/amazon-freertos/tests/common/mqtt\aws_test_mqtt_lib.c **** 
 1815              		.loc 1 1014 0
 1816 0064 64509FE5 		ldr	r5, .L75+4
1011:D:/Work/DeviceTester/amazon-freertos/tests/common/mqtt\aws_test_mqtt_lib.c **** 
 1817              		.loc 1 1011 0
 1818 0068 0020A0E3 		mov	r2, #0
 1819 006c 00408DE5 		str	r4, [sp]
 1820 0070 0200A0E3 		mov	r0, #2
 1821 0074 FEFFFFEB 		bl	UnityAssertEqualNumber
 1822              	.LVL205:
1014:D:/Work/DeviceTester/amazon-freertos/tests/common/mqtt\aws_test_mqtt_lib.c **** 
 1823              		.loc 1 1014 0
 1824 0078 00408DE5 		str	r4, [sp]
 1825 007c F63300E3 		movw	r3, #1014
 1826 0080 001095E5 		ldr	r1, [r5]
 1827 0084 0020A0E3 		mov	r2, #0
 1828 0088 0100A0E3 		mov	r0, #1
 1829 008c FEFFFFEB 		bl	UnityAssertEqualNumber
 1830              	.LVL206:
1017:D:/Work/DeviceTester/amazon-freertos/tests/common/mqtt\aws_test_mqtt_lib.c **** 
 1831              		.loc 1 1017 0
 1832 0090 FEFFFFEB 		bl	prvSendMQTTConnect
 1833              	.LVL207:
1020:D:/Work/DeviceTester/amazon-freertos/tests/common/mqtt\aws_test_mqtt_lib.c **** 
 1834              		.loc 1 1020 0
 1835 0094 00408DE5 		str	r4, [sp]
 1836 0098 0010A0E1 		mov	r1, r0
 1837 009c FF3FA0E3 		mov	r3, #1020
 1838 00a0 0020A0E3 		mov	r2, #0
 1839 00a4 0200A0E3 		mov	r0, #2
 1840              	.LVL208:
 1841 00a8 FEFFFFEB 		bl	UnityAssertEqualNumber
 1842              	.LVL209:
1023:D:/Work/DeviceTester/amazon-freertos/tests/common/mqtt\aws_test_mqtt_lib.c **** }
 1843              		.loc 1 1023 0
 1844 00ac 0020A0E3 		mov	r2, #0
 1845 00b0 00408DE5 		str	r4, [sp]
 1846 00b4 FF3300E3 		movw	r3, #1023
 1847 00b8 0C1095E5 		ldr	r1, [r5, #12]
 1848 00bc 0200A0E1 		mov	r0, r2
 1849 00c0 FEFFFFEB 		bl	UnityAssertEqualNumber
 1850              	.LVL210:
1024:D:/Work/DeviceTester/amazon-freertos/tests/common/mqtt\aws_test_mqtt_lib.c **** /*-----------------------------------------------------------*/
 1851              		.loc 1 1024 0
 1852 00c4 0CD08DE2 		add	sp, sp, #12
 1853              		.cfi_def_cfa_offset 12
 1854              		@ sp needed
 1855 00c8 3080BDE8 		pop	{r4, r5, pc}
 1856              	.L76:
 1857              		.align	2
 1858              	.L75:
 1859 00cc 00000000 		.word	.LANCHOR0
 1860 00d0 00000000 		.word	.LANCHOR1
 1861              		.cfi_endproc
 1862              	.LFE37:
 1864              		.section	.text.TEST_Full_MQTT_AFQP_MQTT_Connect_BrokerRejectsConnection_,"ax",%progbits
 1865              		.align	2
 1866              		.global	TEST_Full_MQTT_AFQP_MQTT_Connect_BrokerRejectsConnection_
 1867              		.syntax unified
 1868              		.arm
 1869              		.fpu neon
 1871              	TEST_Full_MQTT_AFQP_MQTT_Connect_BrokerRejectsConnection_:
 1872              	.LFB25:
 781:D:/Work/DeviceTester/amazon-freertos/tests/common/mqtt\aws_test_mqtt_lib.c ****     MQTTReturnCode_t xReturnCode;
 1873              		.loc 1 781 0
 1874              		.cfi_startproc
 1875              		@ args = 0, pretend = 0, frame = 0
 1876              		@ frame_needed = 0, uses_anonymous_args = 0
 1877 0000 37402DE9 		push	{r0, r1, r2, r4, r5, lr}
 1878              		.cfi_def_cfa_offset 24
 1879              		.cfi_offset 4, -12
 1880              		.cfi_offset 5, -8
 1881              		.cfi_offset 14, -4
 795:D:/Work/DeviceTester/amazon-freertos/tests/common/mqtt\aws_test_mqtt_lib.c **** 
 1882              		.loc 1 795 0
 1883 0004 1440A0E3 		mov	r4, #20
 798:D:/Work/DeviceTester/amazon-freertos/tests/common/mqtt\aws_test_mqtt_lib.c **** 
 1884              		.loc 1 798 0
 1885 0008 C4509FE5 		ldr	r5, .L79
 792:D:/Work/DeviceTester/amazon-freertos/tests/common/mqtt\aws_test_mqtt_lib.c **** 
 1886              		.loc 1 792 0
 1887 000c FEFFFFEB 		bl	prvSendMQTTConnect
 1888              	.LVL211:
 795:D:/Work/DeviceTester/amazon-freertos/tests/common/mqtt\aws_test_mqtt_lib.c **** 
 1889              		.loc 1 795 0
 1890 0010 0020A0E3 		mov	r2, #0
 1891 0014 0010A0E1 		mov	r1, r0
 1892 0018 00408DE5 		str	r4, [sp]
 1893 001c 0200A0E1 		mov	r0, r2
 1894              	.LVL212:
 1895 0020 1B3300E3 		movw	r3, #795
 1896 0024 FEFFFFEB 		bl	UnityAssertEqualNumber
 1897              	.LVL213:
 798:D:/Work/DeviceTester/amazon-freertos/tests/common/mqtt\aws_test_mqtt_lib.c **** 
 1898              		.loc 1 798 0
 1899 0028 3C10D5E5 		ldrb	r1, [r5, #60]	@ zero_extendqisi2
 1900 002c 1E3300E3 		movw	r3, #798
 1901 0030 00408DE5 		str	r4, [sp]
 1902 0034 0020A0E3 		mov	r2, #0
 1903 0038 0100A0E3 		mov	r0, #1
 1904 003c FEFFFFEB 		bl	UnityAssertEqualNumber
 1905              	.LVL214:
 801:D:/Work/DeviceTester/amazon-freertos/tests/common/mqtt\aws_test_mqtt_lib.c **** 
 1906              		.loc 1 801 0
 1907 0040 0420A0E3 		mov	r2, #4
 1908 0044 8C109FE5 		ldr	r1, .L79+4
 1909 0048 0500A0E1 		mov	r0, r5
 1910 004c FEFFFFEB 		bl	MQTT_ParseReceivedData
 1911              	.LVL215:
 804:D:/Work/DeviceTester/amazon-freertos/tests/common/mqtt\aws_test_mqtt_lib.c **** 
 1912              		.loc 1 804 0
 1913 0050 0020A0E3 		mov	r2, #0
 1914 0054 0010A0E1 		mov	r1, r0
 1915 0058 00408DE5 		str	r4, [sp]
 1916 005c 0200A0E1 		mov	r0, r2
 1917              	.LVL216:
 1918 0060 C93FA0E3 		mov	r3, #804
 1919 0064 FEFFFFEB 		bl	UnityAssertEqualNumber
 1920              	.LVL217:
 808:D:/Work/DeviceTester/amazon-freertos/tests/common/mqtt\aws_test_mqtt_lib.c **** 
 1921              		.loc 1 808 0
 1922 0068 3C10D5E5 		ldrb	r1, [r5, #60]	@ zero_extendqisi2
 1923 006c 0020A0E3 		mov	r2, #0
 811:D:/Work/DeviceTester/amazon-freertos/tests/common/mqtt\aws_test_mqtt_lib.c **** 
 1924              		.loc 1 811 0
 1925 0070 64509FE5 		ldr	r5, .L79+8
 808:D:/Work/DeviceTester/amazon-freertos/tests/common/mqtt\aws_test_mqtt_lib.c **** 
 1926              		.loc 1 808 0
 1927 0074 0200A0E1 		mov	r0, r2
 1928 0078 00408DE5 		str	r4, [sp]
 1929 007c CA3FA0E3 		mov	r3, #808
 1930 0080 FEFFFFEB 		bl	UnityAssertEqualNumber
 1931              	.LVL218:
 811:D:/Work/DeviceTester/amazon-freertos/tests/common/mqtt\aws_test_mqtt_lib.c **** 
 1932              		.loc 1 811 0
 1933 0084 00408DE5 		str	r4, [sp]
 1934 0088 2B3300E3 		movw	r3, #811
 1935 008c 001095E5 		ldr	r1, [r5]
 1936 0090 0020A0E3 		mov	r2, #0
 1937 0094 0100A0E3 		mov	r0, #1
 1938 0098 FEFFFFEB 		bl	UnityAssertEqualNumber
 1939              	.LVL219:
 815:D:/Work/DeviceTester/amazon-freertos/tests/common/mqtt\aws_test_mqtt_lib.c **** 
 1940              		.loc 1 815 0
 1941 009c 00408DE5 		str	r4, [sp]
 1942 00a0 2F3300E3 		movw	r3, #815
 1943 00a4 081095E5 		ldr	r1, [r5, #8]
 1944 00a8 0020A0E3 		mov	r2, #0
 1945 00ac 0100A0E3 		mov	r0, #1
 1946 00b0 FEFFFFEB 		bl	UnityAssertEqualNumber
 1947              	.LVL220:
 818:D:/Work/DeviceTester/amazon-freertos/tests/common/mqtt\aws_test_mqtt_lib.c **** }
 1948              		.loc 1 818 0
 1949 00b4 0020A0E3 		mov	r2, #0
 1950 00b8 00408DE5 		str	r4, [sp]
 1951 00bc 323300E3 		movw	r3, #818
 1952 00c0 0C1095E5 		ldr	r1, [r5, #12]
 1953 00c4 0200A0E1 		mov	r0, r2
 1954 00c8 FEFFFFEB 		bl	UnityAssertEqualNumber
 1955              	.LVL221:
 819:D:/Work/DeviceTester/amazon-freertos/tests/common/mqtt\aws_test_mqtt_lib.c **** /*-----------------------------------------------------------*/
 1956              		.loc 1 819 0
 1957 00cc 0CD08DE2 		add	sp, sp, #12
 1958              		.cfi_def_cfa_offset 12
 1959              		@ sp needed
 1960 00d0 3080BDE8 		pop	{r4, r5, pc}
 1961              	.L80:
 1962              		.align	2
 1963              	.L79:
 1964 00d4 00000000 		.word	.LANCHOR0
 1965 00d8 00000000 		.word	.LANCHOR3
 1966 00dc 00000000 		.word	.LANCHOR1
 1967              		.cfi_endproc
 1968              	.LFE25:
 1970              		.section	.text.TEST_Full_MQTT_AFQP_MQTT_Connect_ReservedReturnCodeFromBroker_,"ax",%progbits
 1971              		.align	2
 1972              		.global	TEST_Full_MQTT_AFQP_MQTT_Connect_ReservedReturnCodeFromBroker_
 1973              		.syntax unified
 1974              		.arm
 1975              		.fpu neon
 1977              	TEST_Full_MQTT_AFQP_MQTT_Connect_ReservedReturnCodeFromBroker_:
 1978              	.LFB29:
 851:D:/Work/DeviceTester/amazon-freertos/tests/common/mqtt\aws_test_mqtt_lib.c ****     MQTTReturnCode_t xReturnCode;
 1979              		.loc 1 851 0
 1980              		.cfi_startproc
 1981              		@ args = 0, pretend = 0, frame = 0
 1982              		@ frame_needed = 0, uses_anonymous_args = 0
 1983 0000 73402DE9 		push	{r0, r1, r4, r5, r6, lr}
 1984              		.cfi_def_cfa_offset 24
 1985              		.cfi_offset 4, -16
 1986              		.cfi_offset 5, -12
 1987              		.cfi_offset 6, -8
 1988              		.cfi_offset 14, -4
 865:D:/Work/DeviceTester/amazon-freertos/tests/common/mqtt\aws_test_mqtt_lib.c **** 
 1989              		.loc 1 865 0
 1990 0004 1440A0E3 		mov	r4, #20
 868:D:/Work/DeviceTester/amazon-freertos/tests/common/mqtt\aws_test_mqtt_lib.c **** 
 1991              		.loc 1 868 0
 1992 0008 AC509FE5 		ldr	r5, .L83
 862:D:/Work/DeviceTester/amazon-freertos/tests/common/mqtt\aws_test_mqtt_lib.c **** 
 1993              		.loc 1 862 0
 1994 000c FEFFFFEB 		bl	prvSendMQTTConnect
 1995              	.LVL222:
 865:D:/Work/DeviceTester/amazon-freertos/tests/common/mqtt\aws_test_mqtt_lib.c **** 
 1996              		.loc 1 865 0
 1997 0010 0020A0E3 		mov	r2, #0
 1998 0014 0010A0E1 		mov	r1, r0
 1999 0018 00408DE5 		str	r4, [sp]
 2000 001c 0200A0E1 		mov	r0, r2
 2001              	.LVL223:
 2002 0020 613300E3 		movw	r3, #865
 878:D:/Work/DeviceTester/amazon-freertos/tests/common/mqtt\aws_test_mqtt_lib.c **** 
 2003              		.loc 1 878 0
 2004 0024 94609FE5 		ldr	r6, .L83+4
 865:D:/Work/DeviceTester/amazon-freertos/tests/common/mqtt\aws_test_mqtt_lib.c **** 
 2005              		.loc 1 865 0
 2006 0028 FEFFFFEB 		bl	UnityAssertEqualNumber
 2007              	.LVL224:
 868:D:/Work/DeviceTester/amazon-freertos/tests/common/mqtt\aws_test_mqtt_lib.c **** 
 2008              		.loc 1 868 0
 2009 002c 3C10D5E5 		ldrb	r1, [r5, #60]	@ zero_extendqisi2
 2010 0030 D93FA0E3 		mov	r3, #868
 2011 0034 00408DE5 		str	r4, [sp]
 2012 0038 0020A0E3 		mov	r2, #0
 2013 003c 0100A0E3 		mov	r0, #1
 2014 0040 FEFFFFEB 		bl	UnityAssertEqualNumber
 2015              	.LVL225:
 871:D:/Work/DeviceTester/amazon-freertos/tests/common/mqtt\aws_test_mqtt_lib.c **** 
 2016              		.loc 1 871 0
 2017 0044 0420A0E3 		mov	r2, #4
 2018 0048 74109FE5 		ldr	r1, .L83+8
 2019 004c 0500A0E1 		mov	r0, r5
 2020 0050 FEFFFFEB 		bl	MQTT_ParseReceivedData
 2021              	.LVL226:
 874:D:/Work/DeviceTester/amazon-freertos/tests/common/mqtt\aws_test_mqtt_lib.c **** 
 2022              		.loc 1 874 0
 2023 0054 0020A0E3 		mov	r2, #0
 2024 0058 0010A0E1 		mov	r1, r0
 2025 005c 00408DE5 		str	r4, [sp]
 2026 0060 0200A0E1 		mov	r0, r2
 2027              	.LVL227:
 2028 0064 6A3300E3 		movw	r3, #874
 2029 0068 FEFFFFEB 		bl	UnityAssertEqualNumber
 2030              	.LVL228:
 878:D:/Work/DeviceTester/amazon-freertos/tests/common/mqtt\aws_test_mqtt_lib.c **** 
 2031              		.loc 1 878 0
 2032 006c 081096E5 		ldr	r1, [r6, #8]
 2033 0070 6E3300E3 		movw	r3, #878
 2034 0074 00408DE5 		str	r4, [sp]
 2035 0078 0020A0E3 		mov	r2, #0
 2036 007c 0100A0E3 		mov	r0, #1
 2037 0080 FEFFFFEB 		bl	UnityAssertEqualNumber
 2038              	.LVL229:
 881:D:/Work/DeviceTester/amazon-freertos/tests/common/mqtt\aws_test_mqtt_lib.c **** 
 2039              		.loc 1 881 0
 2040 0084 0020A0E3 		mov	r2, #0
 2041 0088 3C10D5E5 		ldrb	r1, [r5, #60]	@ zero_extendqisi2
 2042 008c 0200A0E1 		mov	r0, r2
 2043 0090 00408DE5 		str	r4, [sp]
 2044 0094 713300E3 		movw	r3, #881
 2045 0098 FEFFFFEB 		bl	UnityAssertEqualNumber
 2046              	.LVL230:
 884:D:/Work/DeviceTester/amazon-freertos/tests/common/mqtt\aws_test_mqtt_lib.c **** }
 2047              		.loc 1 884 0
 2048 009c 0020A0E3 		mov	r2, #0
 2049 00a0 00408DE5 		str	r4, [sp]
 2050 00a4 DD3FA0E3 		mov	r3, #884
 2051 00a8 0C1096E5 		ldr	r1, [r6, #12]
 2052 00ac 0200A0E1 		mov	r0, r2
 2053 00b0 FEFFFFEB 		bl	UnityAssertEqualNumber
 2054              	.LVL231:
 885:D:/Work/DeviceTester/amazon-freertos/tests/common/mqtt\aws_test_mqtt_lib.c **** /*-----------------------------------------------------------*/
 2055              		.loc 1 885 0
 2056 00b4 08D08DE2 		add	sp, sp, #8
 2057              		.cfi_def_cfa_offset 16
 2058              		@ sp needed
 2059 00b8 7080BDE8 		pop	{r4, r5, r6, pc}
 2060              	.L84:
 2061              		.align	2
 2062              	.L83:
 2063 00bc 00000000 		.word	.LANCHOR0
 2064 00c0 00000000 		.word	.LANCHOR1
 2065 00c4 00000000 		.word	.LANCHOR4
 2066              		.cfi_endproc
 2067              	.LFE29:
 2069              		.section	.text.TEST_Full_MQTT_AFQP_MQTT_Connect_ShorterConnACK_,"ax",%progbits
 2070              		.align	2
 2071              		.global	TEST_Full_MQTT_AFQP_MQTT_Connect_ShorterConnACK_
 2072              		.syntax unified
 2073              		.arm
 2074              		.fpu neon
 2076              	TEST_Full_MQTT_AFQP_MQTT_Connect_ShorterConnACK_:
 2077              	.LFB31:
 892:D:/Work/DeviceTester/amazon-freertos/tests/common/mqtt\aws_test_mqtt_lib.c ****     MQTTReturnCode_t xReturnCode;
 2078              		.loc 1 892 0
 2079              		.cfi_startproc
 2080              		@ args = 0, pretend = 0, frame = 0
 2081              		@ frame_needed = 0, uses_anonymous_args = 0
 2082 0000 73402DE9 		push	{r0, r1, r4, r5, r6, lr}
 2083              		.cfi_def_cfa_offset 24
 2084              		.cfi_offset 4, -16
 2085              		.cfi_offset 5, -12
 2086              		.cfi_offset 6, -8
 2087              		.cfi_offset 14, -4
 905:D:/Work/DeviceTester/amazon-freertos/tests/common/mqtt\aws_test_mqtt_lib.c **** 
 2088              		.loc 1 905 0
 2089 0004 1440A0E3 		mov	r4, #20
 908:D:/Work/DeviceTester/amazon-freertos/tests/common/mqtt\aws_test_mqtt_lib.c **** 
 2090              		.loc 1 908 0
 2091 0008 AC509FE5 		ldr	r5, .L87
 902:D:/Work/DeviceTester/amazon-freertos/tests/common/mqtt\aws_test_mqtt_lib.c **** 
 2092              		.loc 1 902 0
 2093 000c FEFFFFEB 		bl	prvSendMQTTConnect
 2094              	.LVL232:
 905:D:/Work/DeviceTester/amazon-freertos/tests/common/mqtt\aws_test_mqtt_lib.c **** 
 2095              		.loc 1 905 0
 2096 0010 0020A0E3 		mov	r2, #0
 2097 0014 0010A0E1 		mov	r1, r0
 2098 0018 00408DE5 		str	r4, [sp]
 2099 001c 0200A0E1 		mov	r0, r2
 2100              	.LVL233:
 2101 0020 893300E3 		movw	r3, #905
 918:D:/Work/DeviceTester/amazon-freertos/tests/common/mqtt\aws_test_mqtt_lib.c **** 
 2102              		.loc 1 918 0
 2103 0024 94609FE5 		ldr	r6, .L87+4
 905:D:/Work/DeviceTester/amazon-freertos/tests/common/mqtt\aws_test_mqtt_lib.c **** 
 2104              		.loc 1 905 0
 2105 0028 FEFFFFEB 		bl	UnityAssertEqualNumber
 2106              	.LVL234:
 908:D:/Work/DeviceTester/amazon-freertos/tests/common/mqtt\aws_test_mqtt_lib.c **** 
 2107              		.loc 1 908 0
 2108 002c 3C10D5E5 		ldrb	r1, [r5, #60]	@ zero_extendqisi2
 2109 0030 E33FA0E3 		mov	r3, #908
 2110 0034 00408DE5 		str	r4, [sp]
 2111 0038 0020A0E3 		mov	r2, #0
 2112 003c 0100A0E3 		mov	r0, #1
 2113 0040 FEFFFFEB 		bl	UnityAssertEqualNumber
 2114              	.LVL235:
 911:D:/Work/DeviceTester/amazon-freertos/tests/common/mqtt\aws_test_mqtt_lib.c **** 
 2115              		.loc 1 911 0
 2116 0044 0320A0E3 		mov	r2, #3
 2117 0048 74109FE5 		ldr	r1, .L87+8
 2118 004c 0500A0E1 		mov	r0, r5
 2119 0050 FEFFFFEB 		bl	MQTT_ParseReceivedData
 2120              	.LVL236:
 914:D:/Work/DeviceTester/amazon-freertos/tests/common/mqtt\aws_test_mqtt_lib.c **** 
 2121              		.loc 1 914 0
 2122 0054 0020A0E3 		mov	r2, #0
 2123 0058 0010A0E1 		mov	r1, r0
 2124 005c 00408DE5 		str	r4, [sp]
 2125 0060 0200A0E1 		mov	r0, r2
 2126              	.LVL237:
 2127 0064 923300E3 		movw	r3, #914
 2128 0068 FEFFFFEB 		bl	UnityAssertEqualNumber
 2129              	.LVL238:
 918:D:/Work/DeviceTester/amazon-freertos/tests/common/mqtt\aws_test_mqtt_lib.c **** 
 2130              		.loc 1 918 0
 2131 006c 081096E5 		ldr	r1, [r6, #8]
 2132 0070 963300E3 		movw	r3, #918
 2133 0074 00408DE5 		str	r4, [sp]
 2134 0078 0020A0E3 		mov	r2, #0
 2135 007c 0100A0E3 		mov	r0, #1
 2136 0080 FEFFFFEB 		bl	UnityAssertEqualNumber
 2137              	.LVL239:
 921:D:/Work/DeviceTester/amazon-freertos/tests/common/mqtt\aws_test_mqtt_lib.c **** 
 2138              		.loc 1 921 0
 2139 0084 0020A0E3 		mov	r2, #0
 2140 0088 3C10D5E5 		ldrb	r1, [r5, #60]	@ zero_extendqisi2
 2141 008c 0200A0E1 		mov	r0, r2
 2142 0090 00408DE5 		str	r4, [sp]
 2143 0094 993300E3 		movw	r3, #921
 2144 0098 FEFFFFEB 		bl	UnityAssertEqualNumber
 2145              	.LVL240:
 924:D:/Work/DeviceTester/amazon-freertos/tests/common/mqtt\aws_test_mqtt_lib.c **** }
 2146              		.loc 1 924 0
 2147 009c 0020A0E3 		mov	r2, #0
 2148 00a0 00408DE5 		str	r4, [sp]
 2149 00a4 E73FA0E3 		mov	r3, #924
 2150 00a8 0C1096E5 		ldr	r1, [r6, #12]
 2151 00ac 0200A0E1 		mov	r0, r2
 2152 00b0 FEFFFFEB 		bl	UnityAssertEqualNumber
 2153              	.LVL241:
 925:D:/Work/DeviceTester/amazon-freertos/tests/common/mqtt\aws_test_mqtt_lib.c **** /*-----------------------------------------------------------*/
 2154              		.loc 1 925 0
 2155 00b4 08D08DE2 		add	sp, sp, #8
 2156              		.cfi_def_cfa_offset 16
 2157              		@ sp needed
 2158 00b8 7080BDE8 		pop	{r4, r5, r6, pc}
 2159              	.L88:
 2160              		.align	2
 2161              	.L87:
 2162 00bc 00000000 		.word	.LANCHOR0
 2163 00c0 00000000 		.word	.LANCHOR1
 2164 00c4 00000000 		.word	.LANCHOR5
 2165              		.cfi_endproc
 2166              	.LFE31:
 2168              		.section	.text.TEST_Full_MQTT_AFQP_MQTT_Connect_LongerConnACK_,"ax",%progbits
 2169              		.align	2
 2170              		.global	TEST_Full_MQTT_AFQP_MQTT_Connect_LongerConnACK_
 2171              		.syntax unified
 2172              		.arm
 2173              		.fpu neon
 2175              	TEST_Full_MQTT_AFQP_MQTT_Connect_LongerConnACK_:
 2176              	.LFB33:
 932:D:/Work/DeviceTester/amazon-freertos/tests/common/mqtt\aws_test_mqtt_lib.c ****     MQTTReturnCode_t xReturnCode;
 2177              		.loc 1 932 0
 2178              		.cfi_startproc
 2179              		@ args = 0, pretend = 0, frame = 0
 2180              		@ frame_needed = 0, uses_anonymous_args = 0
 2181 0000 73402DE9 		push	{r0, r1, r4, r5, r6, lr}
 2182              		.cfi_def_cfa_offset 24
 2183              		.cfi_offset 4, -16
 2184              		.cfi_offset 5, -12
 2185              		.cfi_offset 6, -8
 2186              		.cfi_offset 14, -4
 947:D:/Work/DeviceTester/amazon-freertos/tests/common/mqtt\aws_test_mqtt_lib.c **** 
