   1              		.cpu cortex-a9
   2              		.eabi_attribute 28, 1
   3              		.eabi_attribute 20, 1
   4              		.eabi_attribute 21, 1
   5              		.eabi_attribute 23, 3
   6              		.eabi_attribute 24, 1
   7              		.eabi_attribute 25, 1
   8              		.eabi_attribute 26, 1
   9              		.eabi_attribute 30, 4
  10              		.eabi_attribute 34, 0
  11              		.eabi_attribute 18, 4
  12              		.file	"aes.c"
  13              		.text
  14              	.Ltext0:
  15              		.cfi_sections	.debug_frame
  16              		.section	.text.mbedtls_aes_init,"ax",%progbits
  17              		.align	2
  18              		.global	mbedtls_aes_init
  19              		.syntax unified
  20              		.arm
  21              		.fpu neon
  23              	mbedtls_aes_init:
  24              	.LFB1:
  25              		.file 1 "D:/Work/DeviceTester/amazon-freertos/lib/third_party/mbedtls/library/aes.c"
   1:D:/Work/DeviceTester/amazon-freertos/lib/third_party/mbedtls/library\aes.c **** /*
   2:D:/Work/DeviceTester/amazon-freertos/lib/third_party/mbedtls/library\aes.c ****  *  FIPS-197 compliant AES implementation
   3:D:/Work/DeviceTester/amazon-freertos/lib/third_party/mbedtls/library\aes.c ****  *
   4:D:/Work/DeviceTester/amazon-freertos/lib/third_party/mbedtls/library\aes.c ****  *  Copyright (C) 2006-2015, ARM Limited, All Rights Reserved
   5:D:/Work/DeviceTester/amazon-freertos/lib/third_party/mbedtls/library\aes.c ****  *  SPDX-License-Identifier: Apache-2.0
   6:D:/Work/DeviceTester/amazon-freertos/lib/third_party/mbedtls/library\aes.c ****  *
   7:D:/Work/DeviceTester/amazon-freertos/lib/third_party/mbedtls/library\aes.c ****  *  Licensed under the Apache License, Version 2.0 (the "License"); you may
   8:D:/Work/DeviceTester/amazon-freertos/lib/third_party/mbedtls/library\aes.c ****  *  not use this file except in compliance with the License.
   9:D:/Work/DeviceTester/amazon-freertos/lib/third_party/mbedtls/library\aes.c ****  *  You may obtain a copy of the License at
  10:D:/Work/DeviceTester/amazon-freertos/lib/third_party/mbedtls/library\aes.c ****  *
  11:D:/Work/DeviceTester/amazon-freertos/lib/third_party/mbedtls/library\aes.c ****  *  http://www.apache.org/licenses/LICENSE-2.0
  12:D:/Work/DeviceTester/amazon-freertos/lib/third_party/mbedtls/library\aes.c ****  *
  13:D:/Work/DeviceTester/amazon-freertos/lib/third_party/mbedtls/library\aes.c ****  *  Unless required by applicable law or agreed to in writing, software
  14:D:/Work/DeviceTester/amazon-freertos/lib/third_party/mbedtls/library\aes.c ****  *  distributed under the License is distributed on an "AS IS" BASIS, WITHOUT
  15:D:/Work/DeviceTester/amazon-freertos/lib/third_party/mbedtls/library\aes.c ****  *  WARRANTIES OR CONDITIONS OF ANY KIND, either express or implied.
  16:D:/Work/DeviceTester/amazon-freertos/lib/third_party/mbedtls/library\aes.c ****  *  See the License for the specific language governing permissions and
  17:D:/Work/DeviceTester/amazon-freertos/lib/third_party/mbedtls/library\aes.c ****  *  limitations under the License.
  18:D:/Work/DeviceTester/amazon-freertos/lib/third_party/mbedtls/library\aes.c ****  *
  19:D:/Work/DeviceTester/amazon-freertos/lib/third_party/mbedtls/library\aes.c ****  *  This file is part of mbed TLS (https://tls.mbed.org)
  20:D:/Work/DeviceTester/amazon-freertos/lib/third_party/mbedtls/library\aes.c ****  */
  21:D:/Work/DeviceTester/amazon-freertos/lib/third_party/mbedtls/library\aes.c **** /*
  22:D:/Work/DeviceTester/amazon-freertos/lib/third_party/mbedtls/library\aes.c ****  *  The AES block cipher was designed by Vincent Rijmen and Joan Daemen.
  23:D:/Work/DeviceTester/amazon-freertos/lib/third_party/mbedtls/library\aes.c ****  *
  24:D:/Work/DeviceTester/amazon-freertos/lib/third_party/mbedtls/library\aes.c ****  *  http://csrc.nist.gov/encryption/aes/rijndael/Rijndael.pdf
  25:D:/Work/DeviceTester/amazon-freertos/lib/third_party/mbedtls/library\aes.c ****  *  http://csrc.nist.gov/publications/fips/fips197/fips-197.pdf
  26:D:/Work/DeviceTester/amazon-freertos/lib/third_party/mbedtls/library\aes.c ****  */
  27:D:/Work/DeviceTester/amazon-freertos/lib/third_party/mbedtls/library\aes.c **** 
  28:D:/Work/DeviceTester/amazon-freertos/lib/third_party/mbedtls/library\aes.c **** #if !defined(MBEDTLS_CONFIG_FILE)
  29:D:/Work/DeviceTester/amazon-freertos/lib/third_party/mbedtls/library\aes.c **** #include "mbedtls/config.h"
  30:D:/Work/DeviceTester/amazon-freertos/lib/third_party/mbedtls/library\aes.c **** #else
  31:D:/Work/DeviceTester/amazon-freertos/lib/third_party/mbedtls/library\aes.c **** #include MBEDTLS_CONFIG_FILE
  32:D:/Work/DeviceTester/amazon-freertos/lib/third_party/mbedtls/library\aes.c **** #endif
  33:D:/Work/DeviceTester/amazon-freertos/lib/third_party/mbedtls/library\aes.c **** 
  34:D:/Work/DeviceTester/amazon-freertos/lib/third_party/mbedtls/library\aes.c **** #if defined(MBEDTLS_AES_C)
  35:D:/Work/DeviceTester/amazon-freertos/lib/third_party/mbedtls/library\aes.c **** 
  36:D:/Work/DeviceTester/amazon-freertos/lib/third_party/mbedtls/library\aes.c **** #include <string.h>
  37:D:/Work/DeviceTester/amazon-freertos/lib/third_party/mbedtls/library\aes.c **** 
  38:D:/Work/DeviceTester/amazon-freertos/lib/third_party/mbedtls/library\aes.c **** #include "mbedtls/aes.h"
  39:D:/Work/DeviceTester/amazon-freertos/lib/third_party/mbedtls/library\aes.c **** #include "mbedtls/platform_util.h"
  40:D:/Work/DeviceTester/amazon-freertos/lib/third_party/mbedtls/library\aes.c **** #if defined(MBEDTLS_PADLOCK_C)
  41:D:/Work/DeviceTester/amazon-freertos/lib/third_party/mbedtls/library\aes.c **** #include "mbedtls/padlock.h"
  42:D:/Work/DeviceTester/amazon-freertos/lib/third_party/mbedtls/library\aes.c **** #endif
  43:D:/Work/DeviceTester/amazon-freertos/lib/third_party/mbedtls/library\aes.c **** #if defined(MBEDTLS_AESNI_C)
  44:D:/Work/DeviceTester/amazon-freertos/lib/third_party/mbedtls/library\aes.c **** #include "mbedtls/aesni.h"
  45:D:/Work/DeviceTester/amazon-freertos/lib/third_party/mbedtls/library\aes.c **** #endif
  46:D:/Work/DeviceTester/amazon-freertos/lib/third_party/mbedtls/library\aes.c **** 
  47:D:/Work/DeviceTester/amazon-freertos/lib/third_party/mbedtls/library\aes.c **** #if defined(MBEDTLS_SELF_TEST)
  48:D:/Work/DeviceTester/amazon-freertos/lib/third_party/mbedtls/library\aes.c **** #if defined(MBEDTLS_PLATFORM_C)
  49:D:/Work/DeviceTester/amazon-freertos/lib/third_party/mbedtls/library\aes.c **** #include "mbedtls/platform.h"
  50:D:/Work/DeviceTester/amazon-freertos/lib/third_party/mbedtls/library\aes.c **** #else
  51:D:/Work/DeviceTester/amazon-freertos/lib/third_party/mbedtls/library\aes.c **** #include <stdio.h>
  52:D:/Work/DeviceTester/amazon-freertos/lib/third_party/mbedtls/library\aes.c **** #define mbedtls_printf printf
  53:D:/Work/DeviceTester/amazon-freertos/lib/third_party/mbedtls/library\aes.c **** #endif /* MBEDTLS_PLATFORM_C */
  54:D:/Work/DeviceTester/amazon-freertos/lib/third_party/mbedtls/library\aes.c **** #endif /* MBEDTLS_SELF_TEST */
  55:D:/Work/DeviceTester/amazon-freertos/lib/third_party/mbedtls/library\aes.c **** 
  56:D:/Work/DeviceTester/amazon-freertos/lib/third_party/mbedtls/library\aes.c **** #if !defined(MBEDTLS_AES_ALT)
  57:D:/Work/DeviceTester/amazon-freertos/lib/third_party/mbedtls/library\aes.c **** 
  58:D:/Work/DeviceTester/amazon-freertos/lib/third_party/mbedtls/library\aes.c **** /*
  59:D:/Work/DeviceTester/amazon-freertos/lib/third_party/mbedtls/library\aes.c ****  * 32-bit integer manipulation macros (little endian)
  60:D:/Work/DeviceTester/amazon-freertos/lib/third_party/mbedtls/library\aes.c ****  */
  61:D:/Work/DeviceTester/amazon-freertos/lib/third_party/mbedtls/library\aes.c **** #ifndef GET_UINT32_LE
  62:D:/Work/DeviceTester/amazon-freertos/lib/third_party/mbedtls/library\aes.c **** #define GET_UINT32_LE(n,b,i)                            \
  63:D:/Work/DeviceTester/amazon-freertos/lib/third_party/mbedtls/library\aes.c **** {                                                       \
  64:D:/Work/DeviceTester/amazon-freertos/lib/third_party/mbedtls/library\aes.c ****     (n) = ( (uint32_t) (b)[(i)    ]       )             \
  65:D:/Work/DeviceTester/amazon-freertos/lib/third_party/mbedtls/library\aes.c ****         | ( (uint32_t) (b)[(i) + 1] <<  8 )             \
  66:D:/Work/DeviceTester/amazon-freertos/lib/third_party/mbedtls/library\aes.c ****         | ( (uint32_t) (b)[(i) + 2] << 16 )             \
  67:D:/Work/DeviceTester/amazon-freertos/lib/third_party/mbedtls/library\aes.c ****         | ( (uint32_t) (b)[(i) + 3] << 24 );            \
  68:D:/Work/DeviceTester/amazon-freertos/lib/third_party/mbedtls/library\aes.c **** }
  69:D:/Work/DeviceTester/amazon-freertos/lib/third_party/mbedtls/library\aes.c **** #endif
  70:D:/Work/DeviceTester/amazon-freertos/lib/third_party/mbedtls/library\aes.c **** 
  71:D:/Work/DeviceTester/amazon-freertos/lib/third_party/mbedtls/library\aes.c **** #ifndef PUT_UINT32_LE
  72:D:/Work/DeviceTester/amazon-freertos/lib/third_party/mbedtls/library\aes.c **** #define PUT_UINT32_LE(n,b,i)                                    \
  73:D:/Work/DeviceTester/amazon-freertos/lib/third_party/mbedtls/library\aes.c **** {                                                               \
  74:D:/Work/DeviceTester/amazon-freertos/lib/third_party/mbedtls/library\aes.c ****     (b)[(i)    ] = (unsigned char) ( ( (n)       ) & 0xFF );    \
  75:D:/Work/DeviceTester/amazon-freertos/lib/third_party/mbedtls/library\aes.c ****     (b)[(i) + 1] = (unsigned char) ( ( (n) >>  8 ) & 0xFF );    \
  76:D:/Work/DeviceTester/amazon-freertos/lib/third_party/mbedtls/library\aes.c ****     (b)[(i) + 2] = (unsigned char) ( ( (n) >> 16 ) & 0xFF );    \
  77:D:/Work/DeviceTester/amazon-freertos/lib/third_party/mbedtls/library\aes.c ****     (b)[(i) + 3] = (unsigned char) ( ( (n) >> 24 ) & 0xFF );    \
  78:D:/Work/DeviceTester/amazon-freertos/lib/third_party/mbedtls/library\aes.c **** }
  79:D:/Work/DeviceTester/amazon-freertos/lib/third_party/mbedtls/library\aes.c **** #endif
  80:D:/Work/DeviceTester/amazon-freertos/lib/third_party/mbedtls/library\aes.c **** 
  81:D:/Work/DeviceTester/amazon-freertos/lib/third_party/mbedtls/library\aes.c **** #if defined(MBEDTLS_PADLOCK_C) &&                      \
  82:D:/Work/DeviceTester/amazon-freertos/lib/third_party/mbedtls/library\aes.c ****     ( defined(MBEDTLS_HAVE_X86) || defined(MBEDTLS_PADLOCK_ALIGN16) )
  83:D:/Work/DeviceTester/amazon-freertos/lib/third_party/mbedtls/library\aes.c **** static int aes_padlock_ace = -1;
  84:D:/Work/DeviceTester/amazon-freertos/lib/third_party/mbedtls/library\aes.c **** #endif
  85:D:/Work/DeviceTester/amazon-freertos/lib/third_party/mbedtls/library\aes.c **** 
  86:D:/Work/DeviceTester/amazon-freertos/lib/third_party/mbedtls/library\aes.c **** #if defined(MBEDTLS_AES_ROM_TABLES)
  87:D:/Work/DeviceTester/amazon-freertos/lib/third_party/mbedtls/library\aes.c **** /*
  88:D:/Work/DeviceTester/amazon-freertos/lib/third_party/mbedtls/library\aes.c ****  * Forward S-box
  89:D:/Work/DeviceTester/amazon-freertos/lib/third_party/mbedtls/library\aes.c ****  */
  90:D:/Work/DeviceTester/amazon-freertos/lib/third_party/mbedtls/library\aes.c **** static const unsigned char FSb[256] =
  91:D:/Work/DeviceTester/amazon-freertos/lib/third_party/mbedtls/library\aes.c **** {
  92:D:/Work/DeviceTester/amazon-freertos/lib/third_party/mbedtls/library\aes.c ****     0x63, 0x7C, 0x77, 0x7B, 0xF2, 0x6B, 0x6F, 0xC5,
  93:D:/Work/DeviceTester/amazon-freertos/lib/third_party/mbedtls/library\aes.c ****     0x30, 0x01, 0x67, 0x2B, 0xFE, 0xD7, 0xAB, 0x76,
  94:D:/Work/DeviceTester/amazon-freertos/lib/third_party/mbedtls/library\aes.c ****     0xCA, 0x82, 0xC9, 0x7D, 0xFA, 0x59, 0x47, 0xF0,
  95:D:/Work/DeviceTester/amazon-freertos/lib/third_party/mbedtls/library\aes.c ****     0xAD, 0xD4, 0xA2, 0xAF, 0x9C, 0xA4, 0x72, 0xC0,
  96:D:/Work/DeviceTester/amazon-freertos/lib/third_party/mbedtls/library\aes.c ****     0xB7, 0xFD, 0x93, 0x26, 0x36, 0x3F, 0xF7, 0xCC,
  97:D:/Work/DeviceTester/amazon-freertos/lib/third_party/mbedtls/library\aes.c ****     0x34, 0xA5, 0xE5, 0xF1, 0x71, 0xD8, 0x31, 0x15,
  98:D:/Work/DeviceTester/amazon-freertos/lib/third_party/mbedtls/library\aes.c ****     0x04, 0xC7, 0x23, 0xC3, 0x18, 0x96, 0x05, 0x9A,
  99:D:/Work/DeviceTester/amazon-freertos/lib/third_party/mbedtls/library\aes.c ****     0x07, 0x12, 0x80, 0xE2, 0xEB, 0x27, 0xB2, 0x75,
 100:D:/Work/DeviceTester/amazon-freertos/lib/third_party/mbedtls/library\aes.c ****     0x09, 0x83, 0x2C, 0x1A, 0x1B, 0x6E, 0x5A, 0xA0,
 101:D:/Work/DeviceTester/amazon-freertos/lib/third_party/mbedtls/library\aes.c ****     0x52, 0x3B, 0xD6, 0xB3, 0x29, 0xE3, 0x2F, 0x84,
 102:D:/Work/DeviceTester/amazon-freertos/lib/third_party/mbedtls/library\aes.c ****     0x53, 0xD1, 0x00, 0xED, 0x20, 0xFC, 0xB1, 0x5B,
 103:D:/Work/DeviceTester/amazon-freertos/lib/third_party/mbedtls/library\aes.c ****     0x6A, 0xCB, 0xBE, 0x39, 0x4A, 0x4C, 0x58, 0xCF,
 104:D:/Work/DeviceTester/amazon-freertos/lib/third_party/mbedtls/library\aes.c ****     0xD0, 0xEF, 0xAA, 0xFB, 0x43, 0x4D, 0x33, 0x85,
 105:D:/Work/DeviceTester/amazon-freertos/lib/third_party/mbedtls/library\aes.c ****     0x45, 0xF9, 0x02, 0x7F, 0x50, 0x3C, 0x9F, 0xA8,
 106:D:/Work/DeviceTester/amazon-freertos/lib/third_party/mbedtls/library\aes.c ****     0x51, 0xA3, 0x40, 0x8F, 0x92, 0x9D, 0x38, 0xF5,
 107:D:/Work/DeviceTester/amazon-freertos/lib/third_party/mbedtls/library\aes.c ****     0xBC, 0xB6, 0xDA, 0x21, 0x10, 0xFF, 0xF3, 0xD2,
 108:D:/Work/DeviceTester/amazon-freertos/lib/third_party/mbedtls/library\aes.c ****     0xCD, 0x0C, 0x13, 0xEC, 0x5F, 0x97, 0x44, 0x17,
 109:D:/Work/DeviceTester/amazon-freertos/lib/third_party/mbedtls/library\aes.c ****     0xC4, 0xA7, 0x7E, 0x3D, 0x64, 0x5D, 0x19, 0x73,
 110:D:/Work/DeviceTester/amazon-freertos/lib/third_party/mbedtls/library\aes.c ****     0x60, 0x81, 0x4F, 0xDC, 0x22, 0x2A, 0x90, 0x88,
 111:D:/Work/DeviceTester/amazon-freertos/lib/third_party/mbedtls/library\aes.c ****     0x46, 0xEE, 0xB8, 0x14, 0xDE, 0x5E, 0x0B, 0xDB,
 112:D:/Work/DeviceTester/amazon-freertos/lib/third_party/mbedtls/library\aes.c ****     0xE0, 0x32, 0x3A, 0x0A, 0x49, 0x06, 0x24, 0x5C,
 113:D:/Work/DeviceTester/amazon-freertos/lib/third_party/mbedtls/library\aes.c ****     0xC2, 0xD3, 0xAC, 0x62, 0x91, 0x95, 0xE4, 0x79,
 114:D:/Work/DeviceTester/amazon-freertos/lib/third_party/mbedtls/library\aes.c ****     0xE7, 0xC8, 0x37, 0x6D, 0x8D, 0xD5, 0x4E, 0xA9,
 115:D:/Work/DeviceTester/amazon-freertos/lib/third_party/mbedtls/library\aes.c ****     0x6C, 0x56, 0xF4, 0xEA, 0x65, 0x7A, 0xAE, 0x08,
 116:D:/Work/DeviceTester/amazon-freertos/lib/third_party/mbedtls/library\aes.c ****     0xBA, 0x78, 0x25, 0x2E, 0x1C, 0xA6, 0xB4, 0xC6,
 117:D:/Work/DeviceTester/amazon-freertos/lib/third_party/mbedtls/library\aes.c ****     0xE8, 0xDD, 0x74, 0x1F, 0x4B, 0xBD, 0x8B, 0x8A,
 118:D:/Work/DeviceTester/amazon-freertos/lib/third_party/mbedtls/library\aes.c ****     0x70, 0x3E, 0xB5, 0x66, 0x48, 0x03, 0xF6, 0x0E,
 119:D:/Work/DeviceTester/amazon-freertos/lib/third_party/mbedtls/library\aes.c ****     0x61, 0x35, 0x57, 0xB9, 0x86, 0xC1, 0x1D, 0x9E,
 120:D:/Work/DeviceTester/amazon-freertos/lib/third_party/mbedtls/library\aes.c ****     0xE1, 0xF8, 0x98, 0x11, 0x69, 0xD9, 0x8E, 0x94,
 121:D:/Work/DeviceTester/amazon-freertos/lib/third_party/mbedtls/library\aes.c ****     0x9B, 0x1E, 0x87, 0xE9, 0xCE, 0x55, 0x28, 0xDF,
 122:D:/Work/DeviceTester/amazon-freertos/lib/third_party/mbedtls/library\aes.c ****     0x8C, 0xA1, 0x89, 0x0D, 0xBF, 0xE6, 0x42, 0x68,
 123:D:/Work/DeviceTester/amazon-freertos/lib/third_party/mbedtls/library\aes.c ****     0x41, 0x99, 0x2D, 0x0F, 0xB0, 0x54, 0xBB, 0x16
 124:D:/Work/DeviceTester/amazon-freertos/lib/third_party/mbedtls/library\aes.c **** };
 125:D:/Work/DeviceTester/amazon-freertos/lib/third_party/mbedtls/library\aes.c **** 
 126:D:/Work/DeviceTester/amazon-freertos/lib/third_party/mbedtls/library\aes.c **** /*
 127:D:/Work/DeviceTester/amazon-freertos/lib/third_party/mbedtls/library\aes.c ****  * Forward tables
 128:D:/Work/DeviceTester/amazon-freertos/lib/third_party/mbedtls/library\aes.c ****  */
 129:D:/Work/DeviceTester/amazon-freertos/lib/third_party/mbedtls/library\aes.c **** #define FT \
 130:D:/Work/DeviceTester/amazon-freertos/lib/third_party/mbedtls/library\aes.c **** \
 131:D:/Work/DeviceTester/amazon-freertos/lib/third_party/mbedtls/library\aes.c ****     V(A5,63,63,C6), V(84,7C,7C,F8), V(99,77,77,EE), V(8D,7B,7B,F6), \
 132:D:/Work/DeviceTester/amazon-freertos/lib/third_party/mbedtls/library\aes.c ****     V(0D,F2,F2,FF), V(BD,6B,6B,D6), V(B1,6F,6F,DE), V(54,C5,C5,91), \
 133:D:/Work/DeviceTester/amazon-freertos/lib/third_party/mbedtls/library\aes.c ****     V(50,30,30,60), V(03,01,01,02), V(A9,67,67,CE), V(7D,2B,2B,56), \
 134:D:/Work/DeviceTester/amazon-freertos/lib/third_party/mbedtls/library\aes.c ****     V(19,FE,FE,E7), V(62,D7,D7,B5), V(E6,AB,AB,4D), V(9A,76,76,EC), \
 135:D:/Work/DeviceTester/amazon-freertos/lib/third_party/mbedtls/library\aes.c ****     V(45,CA,CA,8F), V(9D,82,82,1F), V(40,C9,C9,89), V(87,7D,7D,FA), \
 136:D:/Work/DeviceTester/amazon-freertos/lib/third_party/mbedtls/library\aes.c ****     V(15,FA,FA,EF), V(EB,59,59,B2), V(C9,47,47,8E), V(0B,F0,F0,FB), \
 137:D:/Work/DeviceTester/amazon-freertos/lib/third_party/mbedtls/library\aes.c ****     V(EC,AD,AD,41), V(67,D4,D4,B3), V(FD,A2,A2,5F), V(EA,AF,AF,45), \
 138:D:/Work/DeviceTester/amazon-freertos/lib/third_party/mbedtls/library\aes.c ****     V(BF,9C,9C,23), V(F7,A4,A4,53), V(96,72,72,E4), V(5B,C0,C0,9B), \
 139:D:/Work/DeviceTester/amazon-freertos/lib/third_party/mbedtls/library\aes.c ****     V(C2,B7,B7,75), V(1C,FD,FD,E1), V(AE,93,93,3D), V(6A,26,26,4C), \
 140:D:/Work/DeviceTester/amazon-freertos/lib/third_party/mbedtls/library\aes.c ****     V(5A,36,36,6C), V(41,3F,3F,7E), V(02,F7,F7,F5), V(4F,CC,CC,83), \
 141:D:/Work/DeviceTester/amazon-freertos/lib/third_party/mbedtls/library\aes.c ****     V(5C,34,34,68), V(F4,A5,A5,51), V(34,E5,E5,D1), V(08,F1,F1,F9), \
 142:D:/Work/DeviceTester/amazon-freertos/lib/third_party/mbedtls/library\aes.c ****     V(93,71,71,E2), V(73,D8,D8,AB), V(53,31,31,62), V(3F,15,15,2A), \
 143:D:/Work/DeviceTester/amazon-freertos/lib/third_party/mbedtls/library\aes.c ****     V(0C,04,04,08), V(52,C7,C7,95), V(65,23,23,46), V(5E,C3,C3,9D), \
 144:D:/Work/DeviceTester/amazon-freertos/lib/third_party/mbedtls/library\aes.c ****     V(28,18,18,30), V(A1,96,96,37), V(0F,05,05,0A), V(B5,9A,9A,2F), \
 145:D:/Work/DeviceTester/amazon-freertos/lib/third_party/mbedtls/library\aes.c ****     V(09,07,07,0E), V(36,12,12,24), V(9B,80,80,1B), V(3D,E2,E2,DF), \
 146:D:/Work/DeviceTester/amazon-freertos/lib/third_party/mbedtls/library\aes.c ****     V(26,EB,EB,CD), V(69,27,27,4E), V(CD,B2,B2,7F), V(9F,75,75,EA), \
 147:D:/Work/DeviceTester/amazon-freertos/lib/third_party/mbedtls/library\aes.c ****     V(1B,09,09,12), V(9E,83,83,1D), V(74,2C,2C,58), V(2E,1A,1A,34), \
 148:D:/Work/DeviceTester/amazon-freertos/lib/third_party/mbedtls/library\aes.c ****     V(2D,1B,1B,36), V(B2,6E,6E,DC), V(EE,5A,5A,B4), V(FB,A0,A0,5B), \
 149:D:/Work/DeviceTester/amazon-freertos/lib/third_party/mbedtls/library\aes.c ****     V(F6,52,52,A4), V(4D,3B,3B,76), V(61,D6,D6,B7), V(CE,B3,B3,7D), \
 150:D:/Work/DeviceTester/amazon-freertos/lib/third_party/mbedtls/library\aes.c ****     V(7B,29,29,52), V(3E,E3,E3,DD), V(71,2F,2F,5E), V(97,84,84,13), \
 151:D:/Work/DeviceTester/amazon-freertos/lib/third_party/mbedtls/library\aes.c ****     V(F5,53,53,A6), V(68,D1,D1,B9), V(00,00,00,00), V(2C,ED,ED,C1), \
 152:D:/Work/DeviceTester/amazon-freertos/lib/third_party/mbedtls/library\aes.c ****     V(60,20,20,40), V(1F,FC,FC,E3), V(C8,B1,B1,79), V(ED,5B,5B,B6), \
 153:D:/Work/DeviceTester/amazon-freertos/lib/third_party/mbedtls/library\aes.c ****     V(BE,6A,6A,D4), V(46,CB,CB,8D), V(D9,BE,BE,67), V(4B,39,39,72), \
 154:D:/Work/DeviceTester/amazon-freertos/lib/third_party/mbedtls/library\aes.c ****     V(DE,4A,4A,94), V(D4,4C,4C,98), V(E8,58,58,B0), V(4A,CF,CF,85), \
 155:D:/Work/DeviceTester/amazon-freertos/lib/third_party/mbedtls/library\aes.c ****     V(6B,D0,D0,BB), V(2A,EF,EF,C5), V(E5,AA,AA,4F), V(16,FB,FB,ED), \
 156:D:/Work/DeviceTester/amazon-freertos/lib/third_party/mbedtls/library\aes.c ****     V(C5,43,43,86), V(D7,4D,4D,9A), V(55,33,33,66), V(94,85,85,11), \
 157:D:/Work/DeviceTester/amazon-freertos/lib/third_party/mbedtls/library\aes.c ****     V(CF,45,45,8A), V(10,F9,F9,E9), V(06,02,02,04), V(81,7F,7F,FE), \
 158:D:/Work/DeviceTester/amazon-freertos/lib/third_party/mbedtls/library\aes.c ****     V(F0,50,50,A0), V(44,3C,3C,78), V(BA,9F,9F,25), V(E3,A8,A8,4B), \
 159:D:/Work/DeviceTester/amazon-freertos/lib/third_party/mbedtls/library\aes.c ****     V(F3,51,51,A2), V(FE,A3,A3,5D), V(C0,40,40,80), V(8A,8F,8F,05), \
 160:D:/Work/DeviceTester/amazon-freertos/lib/third_party/mbedtls/library\aes.c ****     V(AD,92,92,3F), V(BC,9D,9D,21), V(48,38,38,70), V(04,F5,F5,F1), \
 161:D:/Work/DeviceTester/amazon-freertos/lib/third_party/mbedtls/library\aes.c ****     V(DF,BC,BC,63), V(C1,B6,B6,77), V(75,DA,DA,AF), V(63,21,21,42), \
 162:D:/Work/DeviceTester/amazon-freertos/lib/third_party/mbedtls/library\aes.c ****     V(30,10,10,20), V(1A,FF,FF,E5), V(0E,F3,F3,FD), V(6D,D2,D2,BF), \
 163:D:/Work/DeviceTester/amazon-freertos/lib/third_party/mbedtls/library\aes.c ****     V(4C,CD,CD,81), V(14,0C,0C,18), V(35,13,13,26), V(2F,EC,EC,C3), \
 164:D:/Work/DeviceTester/amazon-freertos/lib/third_party/mbedtls/library\aes.c ****     V(E1,5F,5F,BE), V(A2,97,97,35), V(CC,44,44,88), V(39,17,17,2E), \
 165:D:/Work/DeviceTester/amazon-freertos/lib/third_party/mbedtls/library\aes.c ****     V(57,C4,C4,93), V(F2,A7,A7,55), V(82,7E,7E,FC), V(47,3D,3D,7A), \
 166:D:/Work/DeviceTester/amazon-freertos/lib/third_party/mbedtls/library\aes.c ****     V(AC,64,64,C8), V(E7,5D,5D,BA), V(2B,19,19,32), V(95,73,73,E6), \
 167:D:/Work/DeviceTester/amazon-freertos/lib/third_party/mbedtls/library\aes.c ****     V(A0,60,60,C0), V(98,81,81,19), V(D1,4F,4F,9E), V(7F,DC,DC,A3), \
 168:D:/Work/DeviceTester/amazon-freertos/lib/third_party/mbedtls/library\aes.c ****     V(66,22,22,44), V(7E,2A,2A,54), V(AB,90,90,3B), V(83,88,88,0B), \
 169:D:/Work/DeviceTester/amazon-freertos/lib/third_party/mbedtls/library\aes.c ****     V(CA,46,46,8C), V(29,EE,EE,C7), V(D3,B8,B8,6B), V(3C,14,14,28), \
 170:D:/Work/DeviceTester/amazon-freertos/lib/third_party/mbedtls/library\aes.c ****     V(79,DE,DE,A7), V(E2,5E,5E,BC), V(1D,0B,0B,16), V(76,DB,DB,AD), \
 171:D:/Work/DeviceTester/amazon-freertos/lib/third_party/mbedtls/library\aes.c ****     V(3B,E0,E0,DB), V(56,32,32,64), V(4E,3A,3A,74), V(1E,0A,0A,14), \
 172:D:/Work/DeviceTester/amazon-freertos/lib/third_party/mbedtls/library\aes.c ****     V(DB,49,49,92), V(0A,06,06,0C), V(6C,24,24,48), V(E4,5C,5C,B8), \
 173:D:/Work/DeviceTester/amazon-freertos/lib/third_party/mbedtls/library\aes.c ****     V(5D,C2,C2,9F), V(6E,D3,D3,BD), V(EF,AC,AC,43), V(A6,62,62,C4), \
 174:D:/Work/DeviceTester/amazon-freertos/lib/third_party/mbedtls/library\aes.c ****     V(A8,91,91,39), V(A4,95,95,31), V(37,E4,E4,D3), V(8B,79,79,F2), \
 175:D:/Work/DeviceTester/amazon-freertos/lib/third_party/mbedtls/library\aes.c ****     V(32,E7,E7,D5), V(43,C8,C8,8B), V(59,37,37,6E), V(B7,6D,6D,DA), \
 176:D:/Work/DeviceTester/amazon-freertos/lib/third_party/mbedtls/library\aes.c ****     V(8C,8D,8D,01), V(64,D5,D5,B1), V(D2,4E,4E,9C), V(E0,A9,A9,49), \
 177:D:/Work/DeviceTester/amazon-freertos/lib/third_party/mbedtls/library\aes.c ****     V(B4,6C,6C,D8), V(FA,56,56,AC), V(07,F4,F4,F3), V(25,EA,EA,CF), \
 178:D:/Work/DeviceTester/amazon-freertos/lib/third_party/mbedtls/library\aes.c ****     V(AF,65,65,CA), V(8E,7A,7A,F4), V(E9,AE,AE,47), V(18,08,08,10), \
 179:D:/Work/DeviceTester/amazon-freertos/lib/third_party/mbedtls/library\aes.c ****     V(D5,BA,BA,6F), V(88,78,78,F0), V(6F,25,25,4A), V(72,2E,2E,5C), \
 180:D:/Work/DeviceTester/amazon-freertos/lib/third_party/mbedtls/library\aes.c ****     V(24,1C,1C,38), V(F1,A6,A6,57), V(C7,B4,B4,73), V(51,C6,C6,97), \
 181:D:/Work/DeviceTester/amazon-freertos/lib/third_party/mbedtls/library\aes.c ****     V(23,E8,E8,CB), V(7C,DD,DD,A1), V(9C,74,74,E8), V(21,1F,1F,3E), \
 182:D:/Work/DeviceTester/amazon-freertos/lib/third_party/mbedtls/library\aes.c ****     V(DD,4B,4B,96), V(DC,BD,BD,61), V(86,8B,8B,0D), V(85,8A,8A,0F), \
 183:D:/Work/DeviceTester/amazon-freertos/lib/third_party/mbedtls/library\aes.c ****     V(90,70,70,E0), V(42,3E,3E,7C), V(C4,B5,B5,71), V(AA,66,66,CC), \
 184:D:/Work/DeviceTester/amazon-freertos/lib/third_party/mbedtls/library\aes.c ****     V(D8,48,48,90), V(05,03,03,06), V(01,F6,F6,F7), V(12,0E,0E,1C), \
 185:D:/Work/DeviceTester/amazon-freertos/lib/third_party/mbedtls/library\aes.c ****     V(A3,61,61,C2), V(5F,35,35,6A), V(F9,57,57,AE), V(D0,B9,B9,69), \
 186:D:/Work/DeviceTester/amazon-freertos/lib/third_party/mbedtls/library\aes.c ****     V(91,86,86,17), V(58,C1,C1,99), V(27,1D,1D,3A), V(B9,9E,9E,27), \
 187:D:/Work/DeviceTester/amazon-freertos/lib/third_party/mbedtls/library\aes.c ****     V(38,E1,E1,D9), V(13,F8,F8,EB), V(B3,98,98,2B), V(33,11,11,22), \
 188:D:/Work/DeviceTester/amazon-freertos/lib/third_party/mbedtls/library\aes.c ****     V(BB,69,69,D2), V(70,D9,D9,A9), V(89,8E,8E,07), V(A7,94,94,33), \
 189:D:/Work/DeviceTester/amazon-freertos/lib/third_party/mbedtls/library\aes.c ****     V(B6,9B,9B,2D), V(22,1E,1E,3C), V(92,87,87,15), V(20,E9,E9,C9), \
 190:D:/Work/DeviceTester/amazon-freertos/lib/third_party/mbedtls/library\aes.c ****     V(49,CE,CE,87), V(FF,55,55,AA), V(78,28,28,50), V(7A,DF,DF,A5), \
 191:D:/Work/DeviceTester/amazon-freertos/lib/third_party/mbedtls/library\aes.c ****     V(8F,8C,8C,03), V(F8,A1,A1,59), V(80,89,89,09), V(17,0D,0D,1A), \
 192:D:/Work/DeviceTester/amazon-freertos/lib/third_party/mbedtls/library\aes.c ****     V(DA,BF,BF,65), V(31,E6,E6,D7), V(C6,42,42,84), V(B8,68,68,D0), \
 193:D:/Work/DeviceTester/amazon-freertos/lib/third_party/mbedtls/library\aes.c ****     V(C3,41,41,82), V(B0,99,99,29), V(77,2D,2D,5A), V(11,0F,0F,1E), \
 194:D:/Work/DeviceTester/amazon-freertos/lib/third_party/mbedtls/library\aes.c ****     V(CB,B0,B0,7B), V(FC,54,54,A8), V(D6,BB,BB,6D), V(3A,16,16,2C)
 195:D:/Work/DeviceTester/amazon-freertos/lib/third_party/mbedtls/library\aes.c **** 
 196:D:/Work/DeviceTester/amazon-freertos/lib/third_party/mbedtls/library\aes.c **** #define V(a,b,c,d) 0x##a##b##c##d
 197:D:/Work/DeviceTester/amazon-freertos/lib/third_party/mbedtls/library\aes.c **** static const uint32_t FT0[256] = { FT };
 198:D:/Work/DeviceTester/amazon-freertos/lib/third_party/mbedtls/library\aes.c **** #undef V
 199:D:/Work/DeviceTester/amazon-freertos/lib/third_party/mbedtls/library\aes.c **** 
 200:D:/Work/DeviceTester/amazon-freertos/lib/third_party/mbedtls/library\aes.c **** #if !defined(MBEDTLS_AES_FEWER_TABLES)
 201:D:/Work/DeviceTester/amazon-freertos/lib/third_party/mbedtls/library\aes.c **** 
 202:D:/Work/DeviceTester/amazon-freertos/lib/third_party/mbedtls/library\aes.c **** #define V(a,b,c,d) 0x##b##c##d##a
 203:D:/Work/DeviceTester/amazon-freertos/lib/third_party/mbedtls/library\aes.c **** static const uint32_t FT1[256] = { FT };
 204:D:/Work/DeviceTester/amazon-freertos/lib/third_party/mbedtls/library\aes.c **** #undef V
 205:D:/Work/DeviceTester/amazon-freertos/lib/third_party/mbedtls/library\aes.c **** 
 206:D:/Work/DeviceTester/amazon-freertos/lib/third_party/mbedtls/library\aes.c **** #define V(a,b,c,d) 0x##c##d##a##b
 207:D:/Work/DeviceTester/amazon-freertos/lib/third_party/mbedtls/library\aes.c **** static const uint32_t FT2[256] = { FT };
 208:D:/Work/DeviceTester/amazon-freertos/lib/third_party/mbedtls/library\aes.c **** #undef V
 209:D:/Work/DeviceTester/amazon-freertos/lib/third_party/mbedtls/library\aes.c **** 
 210:D:/Work/DeviceTester/amazon-freertos/lib/third_party/mbedtls/library\aes.c **** #define V(a,b,c,d) 0x##d##a##b##c
 211:D:/Work/DeviceTester/amazon-freertos/lib/third_party/mbedtls/library\aes.c **** static const uint32_t FT3[256] = { FT };
 212:D:/Work/DeviceTester/amazon-freertos/lib/third_party/mbedtls/library\aes.c **** #undef V
 213:D:/Work/DeviceTester/amazon-freertos/lib/third_party/mbedtls/library\aes.c **** 
 214:D:/Work/DeviceTester/amazon-freertos/lib/third_party/mbedtls/library\aes.c **** #endif /* !MBEDTLS_AES_FEWER_TABLES */
 215:D:/Work/DeviceTester/amazon-freertos/lib/third_party/mbedtls/library\aes.c **** 
 216:D:/Work/DeviceTester/amazon-freertos/lib/third_party/mbedtls/library\aes.c **** #undef FT
 217:D:/Work/DeviceTester/amazon-freertos/lib/third_party/mbedtls/library\aes.c **** 
 218:D:/Work/DeviceTester/amazon-freertos/lib/third_party/mbedtls/library\aes.c **** /*
 219:D:/Work/DeviceTester/amazon-freertos/lib/third_party/mbedtls/library\aes.c ****  * Reverse S-box
 220:D:/Work/DeviceTester/amazon-freertos/lib/third_party/mbedtls/library\aes.c ****  */
 221:D:/Work/DeviceTester/amazon-freertos/lib/third_party/mbedtls/library\aes.c **** static const unsigned char RSb[256] =
 222:D:/Work/DeviceTester/amazon-freertos/lib/third_party/mbedtls/library\aes.c **** {
 223:D:/Work/DeviceTester/amazon-freertos/lib/third_party/mbedtls/library\aes.c ****     0x52, 0x09, 0x6A, 0xD5, 0x30, 0x36, 0xA5, 0x38,
 224:D:/Work/DeviceTester/amazon-freertos/lib/third_party/mbedtls/library\aes.c ****     0xBF, 0x40, 0xA3, 0x9E, 0x81, 0xF3, 0xD7, 0xFB,
 225:D:/Work/DeviceTester/amazon-freertos/lib/third_party/mbedtls/library\aes.c ****     0x7C, 0xE3, 0x39, 0x82, 0x9B, 0x2F, 0xFF, 0x87,
 226:D:/Work/DeviceTester/amazon-freertos/lib/third_party/mbedtls/library\aes.c ****     0x34, 0x8E, 0x43, 0x44, 0xC4, 0xDE, 0xE9, 0xCB,
 227:D:/Work/DeviceTester/amazon-freertos/lib/third_party/mbedtls/library\aes.c ****     0x54, 0x7B, 0x94, 0x32, 0xA6, 0xC2, 0x23, 0x3D,
 228:D:/Work/DeviceTester/amazon-freertos/lib/third_party/mbedtls/library\aes.c ****     0xEE, 0x4C, 0x95, 0x0B, 0x42, 0xFA, 0xC3, 0x4E,
 229:D:/Work/DeviceTester/amazon-freertos/lib/third_party/mbedtls/library\aes.c ****     0x08, 0x2E, 0xA1, 0x66, 0x28, 0xD9, 0x24, 0xB2,
 230:D:/Work/DeviceTester/amazon-freertos/lib/third_party/mbedtls/library\aes.c ****     0x76, 0x5B, 0xA2, 0x49, 0x6D, 0x8B, 0xD1, 0x25,
 231:D:/Work/DeviceTester/amazon-freertos/lib/third_party/mbedtls/library\aes.c ****     0x72, 0xF8, 0xF6, 0x64, 0x86, 0x68, 0x98, 0x16,
 232:D:/Work/DeviceTester/amazon-freertos/lib/third_party/mbedtls/library\aes.c ****     0xD4, 0xA4, 0x5C, 0xCC, 0x5D, 0x65, 0xB6, 0x92,
 233:D:/Work/DeviceTester/amazon-freertos/lib/third_party/mbedtls/library\aes.c ****     0x6C, 0x70, 0x48, 0x50, 0xFD, 0xED, 0xB9, 0xDA,
 234:D:/Work/DeviceTester/amazon-freertos/lib/third_party/mbedtls/library\aes.c ****     0x5E, 0x15, 0x46, 0x57, 0xA7, 0x8D, 0x9D, 0x84,
 235:D:/Work/DeviceTester/amazon-freertos/lib/third_party/mbedtls/library\aes.c ****     0x90, 0xD8, 0xAB, 0x00, 0x8C, 0xBC, 0xD3, 0x0A,
 236:D:/Work/DeviceTester/amazon-freertos/lib/third_party/mbedtls/library\aes.c ****     0xF7, 0xE4, 0x58, 0x05, 0xB8, 0xB3, 0x45, 0x06,
 237:D:/Work/DeviceTester/amazon-freertos/lib/third_party/mbedtls/library\aes.c ****     0xD0, 0x2C, 0x1E, 0x8F, 0xCA, 0x3F, 0x0F, 0x02,
 238:D:/Work/DeviceTester/amazon-freertos/lib/third_party/mbedtls/library\aes.c ****     0xC1, 0xAF, 0xBD, 0x03, 0x01, 0x13, 0x8A, 0x6B,
 239:D:/Work/DeviceTester/amazon-freertos/lib/third_party/mbedtls/library\aes.c ****     0x3A, 0x91, 0x11, 0x41, 0x4F, 0x67, 0xDC, 0xEA,
 240:D:/Work/DeviceTester/amazon-freertos/lib/third_party/mbedtls/library\aes.c ****     0x97, 0xF2, 0xCF, 0xCE, 0xF0, 0xB4, 0xE6, 0x73,
 241:D:/Work/DeviceTester/amazon-freertos/lib/third_party/mbedtls/library\aes.c ****     0x96, 0xAC, 0x74, 0x22, 0xE7, 0xAD, 0x35, 0x85,
 242:D:/Work/DeviceTester/amazon-freertos/lib/third_party/mbedtls/library\aes.c ****     0xE2, 0xF9, 0x37, 0xE8, 0x1C, 0x75, 0xDF, 0x6E,
 243:D:/Work/DeviceTester/amazon-freertos/lib/third_party/mbedtls/library\aes.c ****     0x47, 0xF1, 0x1A, 0x71, 0x1D, 0x29, 0xC5, 0x89,
 244:D:/Work/DeviceTester/amazon-freertos/lib/third_party/mbedtls/library\aes.c ****     0x6F, 0xB7, 0x62, 0x0E, 0xAA, 0x18, 0xBE, 0x1B,
 245:D:/Work/DeviceTester/amazon-freertos/lib/third_party/mbedtls/library\aes.c ****     0xFC, 0x56, 0x3E, 0x4B, 0xC6, 0xD2, 0x79, 0x20,
 246:D:/Work/DeviceTester/amazon-freertos/lib/third_party/mbedtls/library\aes.c ****     0x9A, 0xDB, 0xC0, 0xFE, 0x78, 0xCD, 0x5A, 0xF4,
 247:D:/Work/DeviceTester/amazon-freertos/lib/third_party/mbedtls/library\aes.c ****     0x1F, 0xDD, 0xA8, 0x33, 0x88, 0x07, 0xC7, 0x31,
 248:D:/Work/DeviceTester/amazon-freertos/lib/third_party/mbedtls/library\aes.c ****     0xB1, 0x12, 0x10, 0x59, 0x27, 0x80, 0xEC, 0x5F,
 249:D:/Work/DeviceTester/amazon-freertos/lib/third_party/mbedtls/library\aes.c ****     0x60, 0x51, 0x7F, 0xA9, 0x19, 0xB5, 0x4A, 0x0D,
 250:D:/Work/DeviceTester/amazon-freertos/lib/third_party/mbedtls/library\aes.c ****     0x2D, 0xE5, 0x7A, 0x9F, 0x93, 0xC9, 0x9C, 0xEF,
 251:D:/Work/DeviceTester/amazon-freertos/lib/third_party/mbedtls/library\aes.c ****     0xA0, 0xE0, 0x3B, 0x4D, 0xAE, 0x2A, 0xF5, 0xB0,
 252:D:/Work/DeviceTester/amazon-freertos/lib/third_party/mbedtls/library\aes.c ****     0xC8, 0xEB, 0xBB, 0x3C, 0x83, 0x53, 0x99, 0x61,
 253:D:/Work/DeviceTester/amazon-freertos/lib/third_party/mbedtls/library\aes.c ****     0x17, 0x2B, 0x04, 0x7E, 0xBA, 0x77, 0xD6, 0x26,
 254:D:/Work/DeviceTester/amazon-freertos/lib/third_party/mbedtls/library\aes.c ****     0xE1, 0x69, 0x14, 0x63, 0x55, 0x21, 0x0C, 0x7D
 255:D:/Work/DeviceTester/amazon-freertos/lib/third_party/mbedtls/library\aes.c **** };
 256:D:/Work/DeviceTester/amazon-freertos/lib/third_party/mbedtls/library\aes.c **** 
 257:D:/Work/DeviceTester/amazon-freertos/lib/third_party/mbedtls/library\aes.c **** /*
 258:D:/Work/DeviceTester/amazon-freertos/lib/third_party/mbedtls/library\aes.c ****  * Reverse tables
 259:D:/Work/DeviceTester/amazon-freertos/lib/third_party/mbedtls/library\aes.c ****  */
 260:D:/Work/DeviceTester/amazon-freertos/lib/third_party/mbedtls/library\aes.c **** #define RT \
 261:D:/Work/DeviceTester/amazon-freertos/lib/third_party/mbedtls/library\aes.c **** \
 262:D:/Work/DeviceTester/amazon-freertos/lib/third_party/mbedtls/library\aes.c ****     V(50,A7,F4,51), V(53,65,41,7E), V(C3,A4,17,1A), V(96,5E,27,3A), \
 263:D:/Work/DeviceTester/amazon-freertos/lib/third_party/mbedtls/library\aes.c ****     V(CB,6B,AB,3B), V(F1,45,9D,1F), V(AB,58,FA,AC), V(93,03,E3,4B), \
 264:D:/Work/DeviceTester/amazon-freertos/lib/third_party/mbedtls/library\aes.c ****     V(55,FA,30,20), V(F6,6D,76,AD), V(91,76,CC,88), V(25,4C,02,F5), \
 265:D:/Work/DeviceTester/amazon-freertos/lib/third_party/mbedtls/library\aes.c ****     V(FC,D7,E5,4F), V(D7,CB,2A,C5), V(80,44,35,26), V(8F,A3,62,B5), \
 266:D:/Work/DeviceTester/amazon-freertos/lib/third_party/mbedtls/library\aes.c ****     V(49,5A,B1,DE), V(67,1B,BA,25), V(98,0E,EA,45), V(E1,C0,FE,5D), \
 267:D:/Work/DeviceTester/amazon-freertos/lib/third_party/mbedtls/library\aes.c ****     V(02,75,2F,C3), V(12,F0,4C,81), V(A3,97,46,8D), V(C6,F9,D3,6B), \
 268:D:/Work/DeviceTester/amazon-freertos/lib/third_party/mbedtls/library\aes.c ****     V(E7,5F,8F,03), V(95,9C,92,15), V(EB,7A,6D,BF), V(DA,59,52,95), \
 269:D:/Work/DeviceTester/amazon-freertos/lib/third_party/mbedtls/library\aes.c ****     V(2D,83,BE,D4), V(D3,21,74,58), V(29,69,E0,49), V(44,C8,C9,8E), \
 270:D:/Work/DeviceTester/amazon-freertos/lib/third_party/mbedtls/library\aes.c ****     V(6A,89,C2,75), V(78,79,8E,F4), V(6B,3E,58,99), V(DD,71,B9,27), \
 271:D:/Work/DeviceTester/amazon-freertos/lib/third_party/mbedtls/library\aes.c ****     V(B6,4F,E1,BE), V(17,AD,88,F0), V(66,AC,20,C9), V(B4,3A,CE,7D), \
 272:D:/Work/DeviceTester/amazon-freertos/lib/third_party/mbedtls/library\aes.c ****     V(18,4A,DF,63), V(82,31,1A,E5), V(60,33,51,97), V(45,7F,53,62), \
 273:D:/Work/DeviceTester/amazon-freertos/lib/third_party/mbedtls/library\aes.c ****     V(E0,77,64,B1), V(84,AE,6B,BB), V(1C,A0,81,FE), V(94,2B,08,F9), \
 274:D:/Work/DeviceTester/amazon-freertos/lib/third_party/mbedtls/library\aes.c ****     V(58,68,48,70), V(19,FD,45,8F), V(87,6C,DE,94), V(B7,F8,7B,52), \
 275:D:/Work/DeviceTester/amazon-freertos/lib/third_party/mbedtls/library\aes.c ****     V(23,D3,73,AB), V(E2,02,4B,72), V(57,8F,1F,E3), V(2A,AB,55,66), \
 276:D:/Work/DeviceTester/amazon-freertos/lib/third_party/mbedtls/library\aes.c ****     V(07,28,EB,B2), V(03,C2,B5,2F), V(9A,7B,C5,86), V(A5,08,37,D3), \
 277:D:/Work/DeviceTester/amazon-freertos/lib/third_party/mbedtls/library\aes.c ****     V(F2,87,28,30), V(B2,A5,BF,23), V(BA,6A,03,02), V(5C,82,16,ED), \
 278:D:/Work/DeviceTester/amazon-freertos/lib/third_party/mbedtls/library\aes.c ****     V(2B,1C,CF,8A), V(92,B4,79,A7), V(F0,F2,07,F3), V(A1,E2,69,4E), \
 279:D:/Work/DeviceTester/amazon-freertos/lib/third_party/mbedtls/library\aes.c ****     V(CD,F4,DA,65), V(D5,BE,05,06), V(1F,62,34,D1), V(8A,FE,A6,C4), \
 280:D:/Work/DeviceTester/amazon-freertos/lib/third_party/mbedtls/library\aes.c ****     V(9D,53,2E,34), V(A0,55,F3,A2), V(32,E1,8A,05), V(75,EB,F6,A4), \
 281:D:/Work/DeviceTester/amazon-freertos/lib/third_party/mbedtls/library\aes.c ****     V(39,EC,83,0B), V(AA,EF,60,40), V(06,9F,71,5E), V(51,10,6E,BD), \
 282:D:/Work/DeviceTester/amazon-freertos/lib/third_party/mbedtls/library\aes.c ****     V(F9,8A,21,3E), V(3D,06,DD,96), V(AE,05,3E,DD), V(46,BD,E6,4D), \
 283:D:/Work/DeviceTester/amazon-freertos/lib/third_party/mbedtls/library\aes.c ****     V(B5,8D,54,91), V(05,5D,C4,71), V(6F,D4,06,04), V(FF,15,50,60), \
 284:D:/Work/DeviceTester/amazon-freertos/lib/third_party/mbedtls/library\aes.c ****     V(24,FB,98,19), V(97,E9,BD,D6), V(CC,43,40,89), V(77,9E,D9,67), \
 285:D:/Work/DeviceTester/amazon-freertos/lib/third_party/mbedtls/library\aes.c ****     V(BD,42,E8,B0), V(88,8B,89,07), V(38,5B,19,E7), V(DB,EE,C8,79), \
 286:D:/Work/DeviceTester/amazon-freertos/lib/third_party/mbedtls/library\aes.c ****     V(47,0A,7C,A1), V(E9,0F,42,7C), V(C9,1E,84,F8), V(00,00,00,00), \
 287:D:/Work/DeviceTester/amazon-freertos/lib/third_party/mbedtls/library\aes.c ****     V(83,86,80,09), V(48,ED,2B,32), V(AC,70,11,1E), V(4E,72,5A,6C), \
 288:D:/Work/DeviceTester/amazon-freertos/lib/third_party/mbedtls/library\aes.c ****     V(FB,FF,0E,FD), V(56,38,85,0F), V(1E,D5,AE,3D), V(27,39,2D,36), \
 289:D:/Work/DeviceTester/amazon-freertos/lib/third_party/mbedtls/library\aes.c ****     V(64,D9,0F,0A), V(21,A6,5C,68), V(D1,54,5B,9B), V(3A,2E,36,24), \
 290:D:/Work/DeviceTester/amazon-freertos/lib/third_party/mbedtls/library\aes.c ****     V(B1,67,0A,0C), V(0F,E7,57,93), V(D2,96,EE,B4), V(9E,91,9B,1B), \
 291:D:/Work/DeviceTester/amazon-freertos/lib/third_party/mbedtls/library\aes.c ****     V(4F,C5,C0,80), V(A2,20,DC,61), V(69,4B,77,5A), V(16,1A,12,1C), \
 292:D:/Work/DeviceTester/amazon-freertos/lib/third_party/mbedtls/library\aes.c ****     V(0A,BA,93,E2), V(E5,2A,A0,C0), V(43,E0,22,3C), V(1D,17,1B,12), \
 293:D:/Work/DeviceTester/amazon-freertos/lib/third_party/mbedtls/library\aes.c ****     V(0B,0D,09,0E), V(AD,C7,8B,F2), V(B9,A8,B6,2D), V(C8,A9,1E,14), \
 294:D:/Work/DeviceTester/amazon-freertos/lib/third_party/mbedtls/library\aes.c ****     V(85,19,F1,57), V(4C,07,75,AF), V(BB,DD,99,EE), V(FD,60,7F,A3), \
 295:D:/Work/DeviceTester/amazon-freertos/lib/third_party/mbedtls/library\aes.c ****     V(9F,26,01,F7), V(BC,F5,72,5C), V(C5,3B,66,44), V(34,7E,FB,5B), \
 296:D:/Work/DeviceTester/amazon-freertos/lib/third_party/mbedtls/library\aes.c ****     V(76,29,43,8B), V(DC,C6,23,CB), V(68,FC,ED,B6), V(63,F1,E4,B8), \
 297:D:/Work/DeviceTester/amazon-freertos/lib/third_party/mbedtls/library\aes.c ****     V(CA,DC,31,D7), V(10,85,63,42), V(40,22,97,13), V(20,11,C6,84), \
 298:D:/Work/DeviceTester/amazon-freertos/lib/third_party/mbedtls/library\aes.c ****     V(7D,24,4A,85), V(F8,3D,BB,D2), V(11,32,F9,AE), V(6D,A1,29,C7), \
 299:D:/Work/DeviceTester/amazon-freertos/lib/third_party/mbedtls/library\aes.c ****     V(4B,2F,9E,1D), V(F3,30,B2,DC), V(EC,52,86,0D), V(D0,E3,C1,77), \
 300:D:/Work/DeviceTester/amazon-freertos/lib/third_party/mbedtls/library\aes.c ****     V(6C,16,B3,2B), V(99,B9,70,A9), V(FA,48,94,11), V(22,64,E9,47), \
 301:D:/Work/DeviceTester/amazon-freertos/lib/third_party/mbedtls/library\aes.c ****     V(C4,8C,FC,A8), V(1A,3F,F0,A0), V(D8,2C,7D,56), V(EF,90,33,22), \
 302:D:/Work/DeviceTester/amazon-freertos/lib/third_party/mbedtls/library\aes.c ****     V(C7,4E,49,87), V(C1,D1,38,D9), V(FE,A2,CA,8C), V(36,0B,D4,98), \
 303:D:/Work/DeviceTester/amazon-freertos/lib/third_party/mbedtls/library\aes.c ****     V(CF,81,F5,A6), V(28,DE,7A,A5), V(26,8E,B7,DA), V(A4,BF,AD,3F), \
 304:D:/Work/DeviceTester/amazon-freertos/lib/third_party/mbedtls/library\aes.c ****     V(E4,9D,3A,2C), V(0D,92,78,50), V(9B,CC,5F,6A), V(62,46,7E,54), \
 305:D:/Work/DeviceTester/amazon-freertos/lib/third_party/mbedtls/library\aes.c ****     V(C2,13,8D,F6), V(E8,B8,D8,90), V(5E,F7,39,2E), V(F5,AF,C3,82), \
 306:D:/Work/DeviceTester/amazon-freertos/lib/third_party/mbedtls/library\aes.c ****     V(BE,80,5D,9F), V(7C,93,D0,69), V(A9,2D,D5,6F), V(B3,12,25,CF), \
 307:D:/Work/DeviceTester/amazon-freertos/lib/third_party/mbedtls/library\aes.c ****     V(3B,99,AC,C8), V(A7,7D,18,10), V(6E,63,9C,E8), V(7B,BB,3B,DB), \
 308:D:/Work/DeviceTester/amazon-freertos/lib/third_party/mbedtls/library\aes.c ****     V(09,78,26,CD), V(F4,18,59,6E), V(01,B7,9A,EC), V(A8,9A,4F,83), \
 309:D:/Work/DeviceTester/amazon-freertos/lib/third_party/mbedtls/library\aes.c ****     V(65,6E,95,E6), V(7E,E6,FF,AA), V(08,CF,BC,21), V(E6,E8,15,EF), \
 310:D:/Work/DeviceTester/amazon-freertos/lib/third_party/mbedtls/library\aes.c ****     V(D9,9B,E7,BA), V(CE,36,6F,4A), V(D4,09,9F,EA), V(D6,7C,B0,29), \
 311:D:/Work/DeviceTester/amazon-freertos/lib/third_party/mbedtls/library\aes.c ****     V(AF,B2,A4,31), V(31,23,3F,2A), V(30,94,A5,C6), V(C0,66,A2,35), \
 312:D:/Work/DeviceTester/amazon-freertos/lib/third_party/mbedtls/library\aes.c ****     V(37,BC,4E,74), V(A6,CA,82,FC), V(B0,D0,90,E0), V(15,D8,A7,33), \
 313:D:/Work/DeviceTester/amazon-freertos/lib/third_party/mbedtls/library\aes.c ****     V(4A,98,04,F1), V(F7,DA,EC,41), V(0E,50,CD,7F), V(2F,F6,91,17), \
 314:D:/Work/DeviceTester/amazon-freertos/lib/third_party/mbedtls/library\aes.c ****     V(8D,D6,4D,76), V(4D,B0,EF,43), V(54,4D,AA,CC), V(DF,04,96,E4), \
 315:D:/Work/DeviceTester/amazon-freertos/lib/third_party/mbedtls/library\aes.c ****     V(E3,B5,D1,9E), V(1B,88,6A,4C), V(B8,1F,2C,C1), V(7F,51,65,46), \
 316:D:/Work/DeviceTester/amazon-freertos/lib/third_party/mbedtls/library\aes.c ****     V(04,EA,5E,9D), V(5D,35,8C,01), V(73,74,87,FA), V(2E,41,0B,FB), \
 317:D:/Work/DeviceTester/amazon-freertos/lib/third_party/mbedtls/library\aes.c ****     V(5A,1D,67,B3), V(52,D2,DB,92), V(33,56,10,E9), V(13,47,D6,6D), \
 318:D:/Work/DeviceTester/amazon-freertos/lib/third_party/mbedtls/library\aes.c ****     V(8C,61,D7,9A), V(7A,0C,A1,37), V(8E,14,F8,59), V(89,3C,13,EB), \
 319:D:/Work/DeviceTester/amazon-freertos/lib/third_party/mbedtls/library\aes.c ****     V(EE,27,A9,CE), V(35,C9,61,B7), V(ED,E5,1C,E1), V(3C,B1,47,7A), \
 320:D:/Work/DeviceTester/amazon-freertos/lib/third_party/mbedtls/library\aes.c ****     V(59,DF,D2,9C), V(3F,73,F2,55), V(79,CE,14,18), V(BF,37,C7,73), \
 321:D:/Work/DeviceTester/amazon-freertos/lib/third_party/mbedtls/library\aes.c ****     V(EA,CD,F7,53), V(5B,AA,FD,5F), V(14,6F,3D,DF), V(86,DB,44,78), \
 322:D:/Work/DeviceTester/amazon-freertos/lib/third_party/mbedtls/library\aes.c ****     V(81,F3,AF,CA), V(3E,C4,68,B9), V(2C,34,24,38), V(5F,40,A3,C2), \
 323:D:/Work/DeviceTester/amazon-freertos/lib/third_party/mbedtls/library\aes.c ****     V(72,C3,1D,16), V(0C,25,E2,BC), V(8B,49,3C,28), V(41,95,0D,FF), \
 324:D:/Work/DeviceTester/amazon-freertos/lib/third_party/mbedtls/library\aes.c ****     V(71,01,A8,39), V(DE,B3,0C,08), V(9C,E4,B4,D8), V(90,C1,56,64), \
 325:D:/Work/DeviceTester/amazon-freertos/lib/third_party/mbedtls/library\aes.c ****     V(61,84,CB,7B), V(70,B6,32,D5), V(74,5C,6C,48), V(42,57,B8,D0)
 326:D:/Work/DeviceTester/amazon-freertos/lib/third_party/mbedtls/library\aes.c **** 
 327:D:/Work/DeviceTester/amazon-freertos/lib/third_party/mbedtls/library\aes.c **** #define V(a,b,c,d) 0x##a##b##c##d
 328:D:/Work/DeviceTester/amazon-freertos/lib/third_party/mbedtls/library\aes.c **** static const uint32_t RT0[256] = { RT };
 329:D:/Work/DeviceTester/amazon-freertos/lib/third_party/mbedtls/library\aes.c **** #undef V
 330:D:/Work/DeviceTester/amazon-freertos/lib/third_party/mbedtls/library\aes.c **** 
 331:D:/Work/DeviceTester/amazon-freertos/lib/third_party/mbedtls/library\aes.c **** #if !defined(MBEDTLS_AES_FEWER_TABLES)
 332:D:/Work/DeviceTester/amazon-freertos/lib/third_party/mbedtls/library\aes.c **** 
 333:D:/Work/DeviceTester/amazon-freertos/lib/third_party/mbedtls/library\aes.c **** #define V(a,b,c,d) 0x##b##c##d##a
 334:D:/Work/DeviceTester/amazon-freertos/lib/third_party/mbedtls/library\aes.c **** static const uint32_t RT1[256] = { RT };
 335:D:/Work/DeviceTester/amazon-freertos/lib/third_party/mbedtls/library\aes.c **** #undef V
 336:D:/Work/DeviceTester/amazon-freertos/lib/third_party/mbedtls/library\aes.c **** 
 337:D:/Work/DeviceTester/amazon-freertos/lib/third_party/mbedtls/library\aes.c **** #define V(a,b,c,d) 0x##c##d##a##b
 338:D:/Work/DeviceTester/amazon-freertos/lib/third_party/mbedtls/library\aes.c **** static const uint32_t RT2[256] = { RT };
 339:D:/Work/DeviceTester/amazon-freertos/lib/third_party/mbedtls/library\aes.c **** #undef V
 340:D:/Work/DeviceTester/amazon-freertos/lib/third_party/mbedtls/library\aes.c **** 
 341:D:/Work/DeviceTester/amazon-freertos/lib/third_party/mbedtls/library\aes.c **** #define V(a,b,c,d) 0x##d##a##b##c
 342:D:/Work/DeviceTester/amazon-freertos/lib/third_party/mbedtls/library\aes.c **** static const uint32_t RT3[256] = { RT };
 343:D:/Work/DeviceTester/amazon-freertos/lib/third_party/mbedtls/library\aes.c **** #undef V
 344:D:/Work/DeviceTester/amazon-freertos/lib/third_party/mbedtls/library\aes.c **** 
 345:D:/Work/DeviceTester/amazon-freertos/lib/third_party/mbedtls/library\aes.c **** #endif /* !MBEDTLS_AES_FEWER_TABLES */
 346:D:/Work/DeviceTester/amazon-freertos/lib/third_party/mbedtls/library\aes.c **** 
 347:D:/Work/DeviceTester/amazon-freertos/lib/third_party/mbedtls/library\aes.c **** #undef RT
 348:D:/Work/DeviceTester/amazon-freertos/lib/third_party/mbedtls/library\aes.c **** 
 349:D:/Work/DeviceTester/amazon-freertos/lib/third_party/mbedtls/library\aes.c **** /*
 350:D:/Work/DeviceTester/amazon-freertos/lib/third_party/mbedtls/library\aes.c ****  * Round constants
 351:D:/Work/DeviceTester/amazon-freertos/lib/third_party/mbedtls/library\aes.c ****  */
 352:D:/Work/DeviceTester/amazon-freertos/lib/third_party/mbedtls/library\aes.c **** static const uint32_t RCON[10] =
 353:D:/Work/DeviceTester/amazon-freertos/lib/third_party/mbedtls/library\aes.c **** {
 354:D:/Work/DeviceTester/amazon-freertos/lib/third_party/mbedtls/library\aes.c ****     0x00000001, 0x00000002, 0x00000004, 0x00000008,
 355:D:/Work/DeviceTester/amazon-freertos/lib/third_party/mbedtls/library\aes.c ****     0x00000010, 0x00000020, 0x00000040, 0x00000080,
 356:D:/Work/DeviceTester/amazon-freertos/lib/third_party/mbedtls/library\aes.c ****     0x0000001B, 0x00000036
 357:D:/Work/DeviceTester/amazon-freertos/lib/third_party/mbedtls/library\aes.c **** };
 358:D:/Work/DeviceTester/amazon-freertos/lib/third_party/mbedtls/library\aes.c **** 
 359:D:/Work/DeviceTester/amazon-freertos/lib/third_party/mbedtls/library\aes.c **** #else /* MBEDTLS_AES_ROM_TABLES */
 360:D:/Work/DeviceTester/amazon-freertos/lib/third_party/mbedtls/library\aes.c **** 
 361:D:/Work/DeviceTester/amazon-freertos/lib/third_party/mbedtls/library\aes.c **** /*
 362:D:/Work/DeviceTester/amazon-freertos/lib/third_party/mbedtls/library\aes.c ****  * Forward S-box & tables
 363:D:/Work/DeviceTester/amazon-freertos/lib/third_party/mbedtls/library\aes.c ****  */
 364:D:/Work/DeviceTester/amazon-freertos/lib/third_party/mbedtls/library\aes.c **** static unsigned char FSb[256];
 365:D:/Work/DeviceTester/amazon-freertos/lib/third_party/mbedtls/library\aes.c **** static uint32_t FT0[256];
 366:D:/Work/DeviceTester/amazon-freertos/lib/third_party/mbedtls/library\aes.c **** #if !defined(MBEDTLS_AES_FEWER_TABLES)
 367:D:/Work/DeviceTester/amazon-freertos/lib/third_party/mbedtls/library\aes.c **** static uint32_t FT1[256];
 368:D:/Work/DeviceTester/amazon-freertos/lib/third_party/mbedtls/library\aes.c **** static uint32_t FT2[256];
 369:D:/Work/DeviceTester/amazon-freertos/lib/third_party/mbedtls/library\aes.c **** static uint32_t FT3[256];
 370:D:/Work/DeviceTester/amazon-freertos/lib/third_party/mbedtls/library\aes.c **** #endif /* !MBEDTLS_AES_FEWER_TABLES */
 371:D:/Work/DeviceTester/amazon-freertos/lib/third_party/mbedtls/library\aes.c **** 
 372:D:/Work/DeviceTester/amazon-freertos/lib/third_party/mbedtls/library\aes.c **** /*
 373:D:/Work/DeviceTester/amazon-freertos/lib/third_party/mbedtls/library\aes.c ****  * Reverse S-box & tables
 374:D:/Work/DeviceTester/amazon-freertos/lib/third_party/mbedtls/library\aes.c ****  */
 375:D:/Work/DeviceTester/amazon-freertos/lib/third_party/mbedtls/library\aes.c **** static unsigned char RSb[256];
 376:D:/Work/DeviceTester/amazon-freertos/lib/third_party/mbedtls/library\aes.c **** static uint32_t RT0[256];
 377:D:/Work/DeviceTester/amazon-freertos/lib/third_party/mbedtls/library\aes.c **** #if !defined(MBEDTLS_AES_FEWER_TABLES)
 378:D:/Work/DeviceTester/amazon-freertos/lib/third_party/mbedtls/library\aes.c **** static uint32_t RT1[256];
 379:D:/Work/DeviceTester/amazon-freertos/lib/third_party/mbedtls/library\aes.c **** static uint32_t RT2[256];
 380:D:/Work/DeviceTester/amazon-freertos/lib/third_party/mbedtls/library\aes.c **** static uint32_t RT3[256];
 381:D:/Work/DeviceTester/amazon-freertos/lib/third_party/mbedtls/library\aes.c **** #endif /* !MBEDTLS_AES_FEWER_TABLES */
 382:D:/Work/DeviceTester/amazon-freertos/lib/third_party/mbedtls/library\aes.c **** 
 383:D:/Work/DeviceTester/amazon-freertos/lib/third_party/mbedtls/library\aes.c **** /*
 384:D:/Work/DeviceTester/amazon-freertos/lib/third_party/mbedtls/library\aes.c ****  * Round constants
 385:D:/Work/DeviceTester/amazon-freertos/lib/third_party/mbedtls/library\aes.c ****  */
 386:D:/Work/DeviceTester/amazon-freertos/lib/third_party/mbedtls/library\aes.c **** static uint32_t RCON[10];
 387:D:/Work/DeviceTester/amazon-freertos/lib/third_party/mbedtls/library\aes.c **** 
 388:D:/Work/DeviceTester/amazon-freertos/lib/third_party/mbedtls/library\aes.c **** /*
 389:D:/Work/DeviceTester/amazon-freertos/lib/third_party/mbedtls/library\aes.c ****  * Tables generation code
 390:D:/Work/DeviceTester/amazon-freertos/lib/third_party/mbedtls/library\aes.c ****  */
 391:D:/Work/DeviceTester/amazon-freertos/lib/third_party/mbedtls/library\aes.c **** #define ROTL8(x) ( ( x << 8 ) & 0xFFFFFFFF ) | ( x >> 24 )
 392:D:/Work/DeviceTester/amazon-freertos/lib/third_party/mbedtls/library\aes.c **** #define XTIME(x) ( ( x << 1 ) ^ ( ( x & 0x80 ) ? 0x1B : 0x00 ) )
 393:D:/Work/DeviceTester/amazon-freertos/lib/third_party/mbedtls/library\aes.c **** #define MUL(x,y) ( ( x && y ) ? pow[(log[x]+log[y]) % 255] : 0 )
 394:D:/Work/DeviceTester/amazon-freertos/lib/third_party/mbedtls/library\aes.c **** 
 395:D:/Work/DeviceTester/amazon-freertos/lib/third_party/mbedtls/library\aes.c **** static int aes_init_done = 0;
 396:D:/Work/DeviceTester/amazon-freertos/lib/third_party/mbedtls/library\aes.c **** 
 397:D:/Work/DeviceTester/amazon-freertos/lib/third_party/mbedtls/library\aes.c **** static void aes_gen_tables( void )
 398:D:/Work/DeviceTester/amazon-freertos/lib/third_party/mbedtls/library\aes.c **** {
 399:D:/Work/DeviceTester/amazon-freertos/lib/third_party/mbedtls/library\aes.c ****     int i, x, y, z;
 400:D:/Work/DeviceTester/amazon-freertos/lib/third_party/mbedtls/library\aes.c ****     int pow[256];
 401:D:/Work/DeviceTester/amazon-freertos/lib/third_party/mbedtls/library\aes.c ****     int log[256];
 402:D:/Work/DeviceTester/amazon-freertos/lib/third_party/mbedtls/library\aes.c **** 
 403:D:/Work/DeviceTester/amazon-freertos/lib/third_party/mbedtls/library\aes.c ****     /*
 404:D:/Work/DeviceTester/amazon-freertos/lib/third_party/mbedtls/library\aes.c ****      * compute pow and log tables over GF(2^8)
 405:D:/Work/DeviceTester/amazon-freertos/lib/third_party/mbedtls/library\aes.c ****      */
 406:D:/Work/DeviceTester/amazon-freertos/lib/third_party/mbedtls/library\aes.c ****     for( i = 0, x = 1; i < 256; i++ )
 407:D:/Work/DeviceTester/amazon-freertos/lib/third_party/mbedtls/library\aes.c ****     {
 408:D:/Work/DeviceTester/amazon-freertos/lib/third_party/mbedtls/library\aes.c ****         pow[i] = x;
 409:D:/Work/DeviceTester/amazon-freertos/lib/third_party/mbedtls/library\aes.c ****         log[x] = i;
 410:D:/Work/DeviceTester/amazon-freertos/lib/third_party/mbedtls/library\aes.c ****         x = ( x ^ XTIME( x ) ) & 0xFF;
 411:D:/Work/DeviceTester/amazon-freertos/lib/third_party/mbedtls/library\aes.c ****     }
 412:D:/Work/DeviceTester/amazon-freertos/lib/third_party/mbedtls/library\aes.c **** 
 413:D:/Work/DeviceTester/amazon-freertos/lib/third_party/mbedtls/library\aes.c ****     /*
 414:D:/Work/DeviceTester/amazon-freertos/lib/third_party/mbedtls/library\aes.c ****      * calculate the round constants
 415:D:/Work/DeviceTester/amazon-freertos/lib/third_party/mbedtls/library\aes.c ****      */
 416:D:/Work/DeviceTester/amazon-freertos/lib/third_party/mbedtls/library\aes.c ****     for( i = 0, x = 1; i < 10; i++ )
 417:D:/Work/DeviceTester/amazon-freertos/lib/third_party/mbedtls/library\aes.c ****     {
 418:D:/Work/DeviceTester/amazon-freertos/lib/third_party/mbedtls/library\aes.c ****         RCON[i] = (uint32_t) x;
 419:D:/Work/DeviceTester/amazon-freertos/lib/third_party/mbedtls/library\aes.c ****         x = XTIME( x ) & 0xFF;
 420:D:/Work/DeviceTester/amazon-freertos/lib/third_party/mbedtls/library\aes.c ****     }
 421:D:/Work/DeviceTester/amazon-freertos/lib/third_party/mbedtls/library\aes.c **** 
 422:D:/Work/DeviceTester/amazon-freertos/lib/third_party/mbedtls/library\aes.c ****     /*
 423:D:/Work/DeviceTester/amazon-freertos/lib/third_party/mbedtls/library\aes.c ****      * generate the forward and reverse S-boxes
 424:D:/Work/DeviceTester/amazon-freertos/lib/third_party/mbedtls/library\aes.c ****      */
 425:D:/Work/DeviceTester/amazon-freertos/lib/third_party/mbedtls/library\aes.c ****     FSb[0x00] = 0x63;
 426:D:/Work/DeviceTester/amazon-freertos/lib/third_party/mbedtls/library\aes.c ****     RSb[0x63] = 0x00;
 427:D:/Work/DeviceTester/amazon-freertos/lib/third_party/mbedtls/library\aes.c **** 
 428:D:/Work/DeviceTester/amazon-freertos/lib/third_party/mbedtls/library\aes.c ****     for( i = 1; i < 256; i++ )
 429:D:/Work/DeviceTester/amazon-freertos/lib/third_party/mbedtls/library\aes.c ****     {
 430:D:/Work/DeviceTester/amazon-freertos/lib/third_party/mbedtls/library\aes.c ****         x = pow[255 - log[i]];
 431:D:/Work/DeviceTester/amazon-freertos/lib/third_party/mbedtls/library\aes.c **** 
 432:D:/Work/DeviceTester/amazon-freertos/lib/third_party/mbedtls/library\aes.c ****         y  = x; y = ( ( y << 1 ) | ( y >> 7 ) ) & 0xFF;
 433:D:/Work/DeviceTester/amazon-freertos/lib/third_party/mbedtls/library\aes.c ****         x ^= y; y = ( ( y << 1 ) | ( y >> 7 ) ) & 0xFF;
 434:D:/Work/DeviceTester/amazon-freertos/lib/third_party/mbedtls/library\aes.c ****         x ^= y; y = ( ( y << 1 ) | ( y >> 7 ) ) & 0xFF;
 435:D:/Work/DeviceTester/amazon-freertos/lib/third_party/mbedtls/library\aes.c ****         x ^= y; y = ( ( y << 1 ) | ( y >> 7 ) ) & 0xFF;
 436:D:/Work/DeviceTester/amazon-freertos/lib/third_party/mbedtls/library\aes.c ****         x ^= y ^ 0x63;
 437:D:/Work/DeviceTester/amazon-freertos/lib/third_party/mbedtls/library\aes.c **** 
 438:D:/Work/DeviceTester/amazon-freertos/lib/third_party/mbedtls/library\aes.c ****         FSb[i] = (unsigned char) x;
 439:D:/Work/DeviceTester/amazon-freertos/lib/third_party/mbedtls/library\aes.c ****         RSb[x] = (unsigned char) i;
 440:D:/Work/DeviceTester/amazon-freertos/lib/third_party/mbedtls/library\aes.c ****     }
 441:D:/Work/DeviceTester/amazon-freertos/lib/third_party/mbedtls/library\aes.c **** 
 442:D:/Work/DeviceTester/amazon-freertos/lib/third_party/mbedtls/library\aes.c ****     /*
 443:D:/Work/DeviceTester/amazon-freertos/lib/third_party/mbedtls/library\aes.c ****      * generate the forward and reverse tables
 444:D:/Work/DeviceTester/amazon-freertos/lib/third_party/mbedtls/library\aes.c ****      */
 445:D:/Work/DeviceTester/amazon-freertos/lib/third_party/mbedtls/library\aes.c ****     for( i = 0; i < 256; i++ )
 446:D:/Work/DeviceTester/amazon-freertos/lib/third_party/mbedtls/library\aes.c ****     {
 447:D:/Work/DeviceTester/amazon-freertos/lib/third_party/mbedtls/library\aes.c ****         x = FSb[i];
 448:D:/Work/DeviceTester/amazon-freertos/lib/third_party/mbedtls/library\aes.c ****         y = XTIME( x ) & 0xFF;
 449:D:/Work/DeviceTester/amazon-freertos/lib/third_party/mbedtls/library\aes.c ****         z =  ( y ^ x ) & 0xFF;
 450:D:/Work/DeviceTester/amazon-freertos/lib/third_party/mbedtls/library\aes.c **** 
 451:D:/Work/DeviceTester/amazon-freertos/lib/third_party/mbedtls/library\aes.c ****         FT0[i] = ( (uint32_t) y       ) ^
 452:D:/Work/DeviceTester/amazon-freertos/lib/third_party/mbedtls/library\aes.c ****                  ( (uint32_t) x <<  8 ) ^
 453:D:/Work/DeviceTester/amazon-freertos/lib/third_party/mbedtls/library\aes.c ****                  ( (uint32_t) x << 16 ) ^
 454:D:/Work/DeviceTester/amazon-freertos/lib/third_party/mbedtls/library\aes.c ****                  ( (uint32_t) z << 24 );
 455:D:/Work/DeviceTester/amazon-freertos/lib/third_party/mbedtls/library\aes.c **** 
 456:D:/Work/DeviceTester/amazon-freertos/lib/third_party/mbedtls/library\aes.c **** #if !defined(MBEDTLS_AES_FEWER_TABLES)
 457:D:/Work/DeviceTester/amazon-freertos/lib/third_party/mbedtls/library\aes.c ****         FT1[i] = ROTL8( FT0[i] );
 458:D:/Work/DeviceTester/amazon-freertos/lib/third_party/mbedtls/library\aes.c ****         FT2[i] = ROTL8( FT1[i] );
 459:D:/Work/DeviceTester/amazon-freertos/lib/third_party/mbedtls/library\aes.c ****         FT3[i] = ROTL8( FT2[i] );
 460:D:/Work/DeviceTester/amazon-freertos/lib/third_party/mbedtls/library\aes.c **** #endif /* !MBEDTLS_AES_FEWER_TABLES */
 461:D:/Work/DeviceTester/amazon-freertos/lib/third_party/mbedtls/library\aes.c **** 
 462:D:/Work/DeviceTester/amazon-freertos/lib/third_party/mbedtls/library\aes.c ****         x = RSb[i];
 463:D:/Work/DeviceTester/amazon-freertos/lib/third_party/mbedtls/library\aes.c **** 
 464:D:/Work/DeviceTester/amazon-freertos/lib/third_party/mbedtls/library\aes.c ****         RT0[i] = ( (uint32_t) MUL( 0x0E, x )       ) ^
 465:D:/Work/DeviceTester/amazon-freertos/lib/third_party/mbedtls/library\aes.c ****                  ( (uint32_t) MUL( 0x09, x ) <<  8 ) ^
 466:D:/Work/DeviceTester/amazon-freertos/lib/third_party/mbedtls/library\aes.c ****                  ( (uint32_t) MUL( 0x0D, x ) << 16 ) ^
 467:D:/Work/DeviceTester/amazon-freertos/lib/third_party/mbedtls/library\aes.c ****                  ( (uint32_t) MUL( 0x0B, x ) << 24 );
 468:D:/Work/DeviceTester/amazon-freertos/lib/third_party/mbedtls/library\aes.c **** 
 469:D:/Work/DeviceTester/amazon-freertos/lib/third_party/mbedtls/library\aes.c **** #if !defined(MBEDTLS_AES_FEWER_TABLES)
 470:D:/Work/DeviceTester/amazon-freertos/lib/third_party/mbedtls/library\aes.c ****         RT1[i] = ROTL8( RT0[i] );
 471:D:/Work/DeviceTester/amazon-freertos/lib/third_party/mbedtls/library\aes.c ****         RT2[i] = ROTL8( RT1[i] );
 472:D:/Work/DeviceTester/amazon-freertos/lib/third_party/mbedtls/library\aes.c ****         RT3[i] = ROTL8( RT2[i] );
 473:D:/Work/DeviceTester/amazon-freertos/lib/third_party/mbedtls/library\aes.c **** #endif /* !MBEDTLS_AES_FEWER_TABLES */
 474:D:/Work/DeviceTester/amazon-freertos/lib/third_party/mbedtls/library\aes.c ****     }
 475:D:/Work/DeviceTester/amazon-freertos/lib/third_party/mbedtls/library\aes.c **** }
 476:D:/Work/DeviceTester/amazon-freertos/lib/third_party/mbedtls/library\aes.c **** 
 477:D:/Work/DeviceTester/amazon-freertos/lib/third_party/mbedtls/library\aes.c **** #undef ROTL8
 478:D:/Work/DeviceTester/amazon-freertos/lib/third_party/mbedtls/library\aes.c **** 
 479:D:/Work/DeviceTester/amazon-freertos/lib/third_party/mbedtls/library\aes.c **** #endif /* MBEDTLS_AES_ROM_TABLES */
 480:D:/Work/DeviceTester/amazon-freertos/lib/third_party/mbedtls/library\aes.c **** 
 481:D:/Work/DeviceTester/amazon-freertos/lib/third_party/mbedtls/library\aes.c **** #if defined(MBEDTLS_AES_FEWER_TABLES)
 482:D:/Work/DeviceTester/amazon-freertos/lib/third_party/mbedtls/library\aes.c **** 
 483:D:/Work/DeviceTester/amazon-freertos/lib/third_party/mbedtls/library\aes.c **** #define ROTL8(x)  ( (uint32_t)( ( x ) <<  8 ) + (uint32_t)( ( x ) >> 24 ) )
 484:D:/Work/DeviceTester/amazon-freertos/lib/third_party/mbedtls/library\aes.c **** #define ROTL16(x) ( (uint32_t)( ( x ) << 16 ) + (uint32_t)( ( x ) >> 16 ) )
 485:D:/Work/DeviceTester/amazon-freertos/lib/third_party/mbedtls/library\aes.c **** #define ROTL24(x) ( (uint32_t)( ( x ) << 24 ) + (uint32_t)( ( x ) >>  8 ) )
 486:D:/Work/DeviceTester/amazon-freertos/lib/third_party/mbedtls/library\aes.c **** 
 487:D:/Work/DeviceTester/amazon-freertos/lib/third_party/mbedtls/library\aes.c **** #define AES_RT0(idx) RT0[idx]
 488:D:/Work/DeviceTester/amazon-freertos/lib/third_party/mbedtls/library\aes.c **** #define AES_RT1(idx) ROTL8(  RT0[idx] )
 489:D:/Work/DeviceTester/amazon-freertos/lib/third_party/mbedtls/library\aes.c **** #define AES_RT2(idx) ROTL16( RT0[idx] )
 490:D:/Work/DeviceTester/amazon-freertos/lib/third_party/mbedtls/library\aes.c **** #define AES_RT3(idx) ROTL24( RT0[idx] )
 491:D:/Work/DeviceTester/amazon-freertos/lib/third_party/mbedtls/library\aes.c **** 
 492:D:/Work/DeviceTester/amazon-freertos/lib/third_party/mbedtls/library\aes.c **** #define AES_FT0(idx) FT0[idx]
 493:D:/Work/DeviceTester/amazon-freertos/lib/third_party/mbedtls/library\aes.c **** #define AES_FT1(idx) ROTL8(  FT0[idx] )
 494:D:/Work/DeviceTester/amazon-freertos/lib/third_party/mbedtls/library\aes.c **** #define AES_FT2(idx) ROTL16( FT0[idx] )
 495:D:/Work/DeviceTester/amazon-freertos/lib/third_party/mbedtls/library\aes.c **** #define AES_FT3(idx) ROTL24( FT0[idx] )
 496:D:/Work/DeviceTester/amazon-freertos/lib/third_party/mbedtls/library\aes.c **** 
 497:D:/Work/DeviceTester/amazon-freertos/lib/third_party/mbedtls/library\aes.c **** #else /* MBEDTLS_AES_FEWER_TABLES */
 498:D:/Work/DeviceTester/amazon-freertos/lib/third_party/mbedtls/library\aes.c **** 
 499:D:/Work/DeviceTester/amazon-freertos/lib/third_party/mbedtls/library\aes.c **** #define AES_RT0(idx) RT0[idx]
 500:D:/Work/DeviceTester/amazon-freertos/lib/third_party/mbedtls/library\aes.c **** #define AES_RT1(idx) RT1[idx]
 501:D:/Work/DeviceTester/amazon-freertos/lib/third_party/mbedtls/library\aes.c **** #define AES_RT2(idx) RT2[idx]
 502:D:/Work/DeviceTester/amazon-freertos/lib/third_party/mbedtls/library\aes.c **** #define AES_RT3(idx) RT3[idx]
 503:D:/Work/DeviceTester/amazon-freertos/lib/third_party/mbedtls/library\aes.c **** 
 504:D:/Work/DeviceTester/amazon-freertos/lib/third_party/mbedtls/library\aes.c **** #define AES_FT0(idx) FT0[idx]
 505:D:/Work/DeviceTester/amazon-freertos/lib/third_party/mbedtls/library\aes.c **** #define AES_FT1(idx) FT1[idx]
 506:D:/Work/DeviceTester/amazon-freertos/lib/third_party/mbedtls/library\aes.c **** #define AES_FT2(idx) FT2[idx]
 507:D:/Work/DeviceTester/amazon-freertos/lib/third_party/mbedtls/library\aes.c **** #define AES_FT3(idx) FT3[idx]
 508:D:/Work/DeviceTester/amazon-freertos/lib/third_party/mbedtls/library\aes.c **** 
 509:D:/Work/DeviceTester/amazon-freertos/lib/third_party/mbedtls/library\aes.c **** #endif /* MBEDTLS_AES_FEWER_TABLES */
 510:D:/Work/DeviceTester/amazon-freertos/lib/third_party/mbedtls/library\aes.c **** 
 511:D:/Work/DeviceTester/amazon-freertos/lib/third_party/mbedtls/library\aes.c **** void mbedtls_aes_init( mbedtls_aes_context *ctx )
 512:D:/Work/DeviceTester/amazon-freertos/lib/third_party/mbedtls/library\aes.c **** {
  26              		.loc 1 512 0
  27              		.cfi_startproc
  28              		@ args = 0, pretend = 0, frame = 0
  29              		@ frame_needed = 0, uses_anonymous_args = 0
  30              		@ link register save eliminated.
  31              	.LVL0:
 513:D:/Work/DeviceTester/amazon-freertos/lib/third_party/mbedtls/library\aes.c ****     memset( ctx, 0, sizeof( mbedtls_aes_context ) );
  32              		.loc 1 513 0
  33 0000 462FA0E3 		mov	r2, #280
  34 0004 0010A0E3 		mov	r1, #0
  35 0008 FEFFFFEA 		b	memset
  36              	.LVL1:
  37              		.cfi_endproc
  38              	.LFE1:
  40              		.section	.text.mbedtls_aes_free,"ax",%progbits
  41              		.align	2
  42              		.global	mbedtls_aes_free
  43              		.syntax unified
  44              		.arm
  45              		.fpu neon
  47              	mbedtls_aes_free:
  48              	.LFB2:
 514:D:/Work/DeviceTester/amazon-freertos/lib/third_party/mbedtls/library\aes.c **** }
 515:D:/Work/DeviceTester/amazon-freertos/lib/third_party/mbedtls/library\aes.c **** 
 516:D:/Work/DeviceTester/amazon-freertos/lib/third_party/mbedtls/library\aes.c **** void mbedtls_aes_free( mbedtls_aes_context *ctx )
 517:D:/Work/DeviceTester/amazon-freertos/lib/third_party/mbedtls/library\aes.c **** {
  49              		.loc 1 517 0
  50              		.cfi_startproc
  51              		@ args = 0, pretend = 0, frame = 0
  52              		@ frame_needed = 0, uses_anonymous_args = 0
  53              		@ link register save eliminated.
  54              	.LVL2:
 518:D:/Work/DeviceTester/amazon-freertos/lib/third_party/mbedtls/library\aes.c ****     if( ctx == NULL )
  55              		.loc 1 518 0
  56 0000 000050E3 		cmp	r0, #0
  57 0004 1EFF2F01 		bxeq	lr
 519:D:/Work/DeviceTester/amazon-freertos/lib/third_party/mbedtls/library\aes.c ****         return;
 520:D:/Work/DeviceTester/amazon-freertos/lib/third_party/mbedtls/library\aes.c **** 
 521:D:/Work/DeviceTester/amazon-freertos/lib/third_party/mbedtls/library\aes.c ****     mbedtls_platform_zeroize( ctx, sizeof( mbedtls_aes_context ) );
  58              		.loc 1 521 0
  59 0008 461FA0E3 		mov	r1, #280
  60 000c FEFFFFEA 		b	mbedtls_platform_zeroize
  61              	.LVL3:
  62              		.cfi_endproc
  63              	.LFE2:
  65              		.section	.text.mbedtls_aes_setkey_enc,"ax",%progbits
  66              		.align	2
  67              		.global	mbedtls_aes_setkey_enc
  68              		.syntax unified
  69              		.arm
  70              		.fpu neon
  72              	mbedtls_aes_setkey_enc:
  73              	.LFB3:
 522:D:/Work/DeviceTester/amazon-freertos/lib/third_party/mbedtls/library\aes.c **** }
 523:D:/Work/DeviceTester/amazon-freertos/lib/third_party/mbedtls/library\aes.c **** 
 524:D:/Work/DeviceTester/amazon-freertos/lib/third_party/mbedtls/library\aes.c **** #if defined(MBEDTLS_CIPHER_MODE_XTS)
 525:D:/Work/DeviceTester/amazon-freertos/lib/third_party/mbedtls/library\aes.c **** void mbedtls_aes_xts_init( mbedtls_aes_xts_context *ctx )
 526:D:/Work/DeviceTester/amazon-freertos/lib/third_party/mbedtls/library\aes.c **** {
 527:D:/Work/DeviceTester/amazon-freertos/lib/third_party/mbedtls/library\aes.c ****     mbedtls_aes_init( &ctx->crypt );
 528:D:/Work/DeviceTester/amazon-freertos/lib/third_party/mbedtls/library\aes.c ****     mbedtls_aes_init( &ctx->tweak );
 529:D:/Work/DeviceTester/amazon-freertos/lib/third_party/mbedtls/library\aes.c **** }
 530:D:/Work/DeviceTester/amazon-freertos/lib/third_party/mbedtls/library\aes.c **** 
 531:D:/Work/DeviceTester/amazon-freertos/lib/third_party/mbedtls/library\aes.c **** void mbedtls_aes_xts_free( mbedtls_aes_xts_context *ctx )
 532:D:/Work/DeviceTester/amazon-freertos/lib/third_party/mbedtls/library\aes.c **** {
 533:D:/Work/DeviceTester/amazon-freertos/lib/third_party/mbedtls/library\aes.c ****     mbedtls_aes_free( &ctx->crypt );
 534:D:/Work/DeviceTester/amazon-freertos/lib/third_party/mbedtls/library\aes.c ****     mbedtls_aes_free( &ctx->tweak );
 535:D:/Work/DeviceTester/amazon-freertos/lib/third_party/mbedtls/library\aes.c **** }
 536:D:/Work/DeviceTester/amazon-freertos/lib/third_party/mbedtls/library\aes.c **** #endif /* MBEDTLS_CIPHER_MODE_XTS */
 537:D:/Work/DeviceTester/amazon-freertos/lib/third_party/mbedtls/library\aes.c **** 
 538:D:/Work/DeviceTester/amazon-freertos/lib/third_party/mbedtls/library\aes.c **** /*
 539:D:/Work/DeviceTester/amazon-freertos/lib/third_party/mbedtls/library\aes.c ****  * AES key schedule (encryption)
 540:D:/Work/DeviceTester/amazon-freertos/lib/third_party/mbedtls/library\aes.c ****  */
 541:D:/Work/DeviceTester/amazon-freertos/lib/third_party/mbedtls/library\aes.c **** #if !defined(MBEDTLS_AES_SETKEY_ENC_ALT)
 542:D:/Work/DeviceTester/amazon-freertos/lib/third_party/mbedtls/library\aes.c **** int mbedtls_aes_setkey_enc( mbedtls_aes_context *ctx, const unsigned char *key,
 543:D:/Work/DeviceTester/amazon-freertos/lib/third_party/mbedtls/library\aes.c ****                     unsigned int keybits )
 544:D:/Work/DeviceTester/amazon-freertos/lib/third_party/mbedtls/library\aes.c **** {
  74              		.loc 1 544 0
  75              		.cfi_startproc
  76              		@ args = 0, pretend = 0, frame = 0
  77              		@ frame_needed = 0, uses_anonymous_args = 0
  78              	.LVL4:
 545:D:/Work/DeviceTester/amazon-freertos/lib/third_party/mbedtls/library\aes.c ****     unsigned int i;
 546:D:/Work/DeviceTester/amazon-freertos/lib/third_party/mbedtls/library\aes.c ****     uint32_t *RK;
 547:D:/Work/DeviceTester/amazon-freertos/lib/third_party/mbedtls/library\aes.c **** 
 548:D:/Work/DeviceTester/amazon-freertos/lib/third_party/mbedtls/library\aes.c **** #if !defined(MBEDTLS_AES_ROM_TABLES)
 549:D:/Work/DeviceTester/amazon-freertos/lib/third_party/mbedtls/library\aes.c ****     if( aes_init_done == 0 )
 550:D:/Work/DeviceTester/amazon-freertos/lib/third_party/mbedtls/library\aes.c ****     {
 551:D:/Work/DeviceTester/amazon-freertos/lib/third_party/mbedtls/library\aes.c ****         aes_gen_tables();
 552:D:/Work/DeviceTester/amazon-freertos/lib/third_party/mbedtls/library\aes.c ****         aes_init_done = 1;
 553:D:/Work/DeviceTester/amazon-freertos/lib/third_party/mbedtls/library\aes.c **** 
 554:D:/Work/DeviceTester/amazon-freertos/lib/third_party/mbedtls/library\aes.c ****     }
 555:D:/Work/DeviceTester/amazon-freertos/lib/third_party/mbedtls/library\aes.c **** #endif
 556:D:/Work/DeviceTester/amazon-freertos/lib/third_party/mbedtls/library\aes.c **** 
 557:D:/Work/DeviceTester/amazon-freertos/lib/third_party/mbedtls/library\aes.c ****     switch( keybits )
  79              		.loc 1 557 0
  80 0000 C00052E3 		cmp	r2, #192
  81 0004 0600000A 		beq	.L6
  82 0008 010C52E3 		cmp	r2, #256
  83 000c 3700000A 		beq	.L7
  84 0010 800052E3 		cmp	r2, #128
 558:D:/Work/DeviceTester/amazon-freertos/lib/third_party/mbedtls/library\aes.c ****     {
 559:D:/Work/DeviceTester/amazon-freertos/lib/third_party/mbedtls/library\aes.c ****         case 128: ctx->nr = 10; break;
  85              		.loc 1 559 0
  86 0014 0A30A003 		moveq	r3, #10
 557:D:/Work/DeviceTester/amazon-freertos/lib/third_party/mbedtls/library\aes.c ****     {
  87              		.loc 1 557 0
  88 0018 0200000A 		beq	.L29
 560:D:/Work/DeviceTester/amazon-freertos/lib/third_party/mbedtls/library\aes.c ****         case 192: ctx->nr = 12; break;
 561:D:/Work/DeviceTester/amazon-freertos/lib/third_party/mbedtls/library\aes.c ****         case 256: ctx->nr = 14; break;
 562:D:/Work/DeviceTester/amazon-freertos/lib/third_party/mbedtls/library\aes.c ****         default : return( MBEDTLS_ERR_AES_INVALID_KEY_LENGTH );
  89              		.loc 1 562 0
  90 001c 1F00E0E3 		mvn	r0, #31
  91              	.LVL5:
  92 0020 1EFF2FE1 		bx	lr
  93              	.LVL6:
  94              	.L6:
 560:D:/Work/DeviceTester/amazon-freertos/lib/third_party/mbedtls/library\aes.c ****         case 192: ctx->nr = 12; break;
  95              		.loc 1 560 0
  96 0024 0C30A0E3 		mov	r3, #12
  97              	.L29:
 563:D:/Work/DeviceTester/amazon-freertos/lib/third_party/mbedtls/library\aes.c ****     }
 564:D:/Work/DeviceTester/amazon-freertos/lib/third_party/mbedtls/library\aes.c **** 
 565:D:/Work/DeviceTester/amazon-freertos/lib/third_party/mbedtls/library\aes.c **** #if defined(MBEDTLS_PADLOCK_C) && defined(MBEDTLS_PADLOCK_ALIGN16)
 566:D:/Work/DeviceTester/amazon-freertos/lib/third_party/mbedtls/library\aes.c ****     if( aes_padlock_ace == -1 )
 567:D:/Work/DeviceTester/amazon-freertos/lib/third_party/mbedtls/library\aes.c ****         aes_padlock_ace = mbedtls_padlock_has_support( MBEDTLS_PADLOCK_ACE );
 568:D:/Work/DeviceTester/amazon-freertos/lib/third_party/mbedtls/library\aes.c **** 
 569:D:/Work/DeviceTester/amazon-freertos/lib/third_party/mbedtls/library\aes.c ****     if( aes_padlock_ace )
 570:D:/Work/DeviceTester/amazon-freertos/lib/third_party/mbedtls/library\aes.c ****         ctx->rk = RK = MBEDTLS_PADLOCK_ALIGN16( ctx->buf );
 571:D:/Work/DeviceTester/amazon-freertos/lib/third_party/mbedtls/library\aes.c ****     else
 572:D:/Work/DeviceTester/amazon-freertos/lib/third_party/mbedtls/library\aes.c **** #endif
 573:D:/Work/DeviceTester/amazon-freertos/lib/third_party/mbedtls/library\aes.c ****     ctx->rk = RK = ctx->buf;
 574:D:/Work/DeviceTester/amazon-freertos/lib/third_party/mbedtls/library\aes.c **** 
 575:D:/Work/DeviceTester/amazon-freertos/lib/third_party/mbedtls/library\aes.c **** #if defined(MBEDTLS_AESNI_C) && defined(MBEDTLS_HAVE_X86_64)
 576:D:/Work/DeviceTester/amazon-freertos/lib/third_party/mbedtls/library\aes.c ****     if( mbedtls_aesni_has_support( MBEDTLS_AESNI_AES ) )
 577:D:/Work/DeviceTester/amazon-freertos/lib/third_party/mbedtls/library\aes.c ****         return( mbedtls_aesni_setkey_enc( (unsigned char *) ctx->rk, key, keybits ) );
 578:D:/Work/DeviceTester/amazon-freertos/lib/third_party/mbedtls/library\aes.c **** #endif
 579:D:/Work/DeviceTester/amazon-freertos/lib/third_party/mbedtls/library\aes.c **** 
 580:D:/Work/DeviceTester/amazon-freertos/lib/third_party/mbedtls/library\aes.c ****     for( i = 0; i < ( keybits >> 5 ); i++ )
  98              		.loc 1 580 0
  99 0028 A222A0E1 		lsr	r2, r2, #5
 100              	.LVL7:
 101 002c 00C0A0E3 		mov	ip, #0
 561:D:/Work/DeviceTester/amazon-freertos/lib/third_party/mbedtls/library\aes.c ****         default : return( MBEDTLS_ERR_AES_INVALID_KEY_LENGTH );
 102              		.loc 1 561 0
 103 0030 003080E5 		str	r3, [r0]
 544:D:/Work/DeviceTester/amazon-freertos/lib/third_party/mbedtls/library\aes.c ****     unsigned int i;
 104              		.loc 1 544 0
 105 0034 30402DE9 		push	{r4, r5, lr}
 106              		.cfi_def_cfa_offset 12
 107              		.cfi_offset 4, -12
 108              		.cfi_offset 5, -8
 109              		.cfi_offset 14, -4
 573:D:/Work/DeviceTester/amazon-freertos/lib/third_party/mbedtls/library\aes.c **** 
 110              		.loc 1 573 0
 111 0038 08E080E2 		add	lr, r0, #8
 112              	.LVL8:
 113 003c 04E080E5 		str	lr, [r0, #4]
 114              	.LVL9:
 115              	.L10:
 116              		.loc 1 580 0 discriminator 1
 117 0040 02005CE1 		cmp	ip, r2
 118 0044 041081E2 		add	r1, r1, #4
 119 0048 2A00001A 		bne	.L11
 581:D:/Work/DeviceTester/amazon-freertos/lib/third_party/mbedtls/library\aes.c ****     {
 582:D:/Work/DeviceTester/amazon-freertos/lib/third_party/mbedtls/library\aes.c ****         GET_UINT32_LE( RK[i], key, i << 2 );
 583:D:/Work/DeviceTester/amazon-freertos/lib/third_party/mbedtls/library\aes.c ****     }
 584:D:/Work/DeviceTester/amazon-freertos/lib/third_party/mbedtls/library\aes.c **** 
 585:D:/Work/DeviceTester/amazon-freertos/lib/third_party/mbedtls/library\aes.c ****     switch( ctx->nr )
 120              		.loc 1 585 0
 121 004c 003090E5 		ldr	r3, [r0]
 122 0050 0C0053E3 		cmp	r3, #12
 123 0054 3200000A 		beq	.L12
 124 0058 0E0053E3 		cmp	r3, #14
 125 005c 5700000A 		beq	.L13
 126 0060 0A0053E3 		cmp	r3, #10
 127 0064 1F00001A 		bne	.L25
 586:D:/Work/DeviceTester/amazon-freertos/lib/third_party/mbedtls/library\aes.c ****     {
 587:D:/Work/DeviceTester/amazon-freertos/lib/third_party/mbedtls/library\aes.c ****         case 10:
 588:D:/Work/DeviceTester/amazon-freertos/lib/third_party/mbedtls/library\aes.c **** 
 589:D:/Work/DeviceTester/amazon-freertos/lib/third_party/mbedtls/library\aes.c ****             for( i = 0; i < 10; i++, RK += 4 )
 590:D:/Work/DeviceTester/amazon-freertos/lib/third_party/mbedtls/library\aes.c ****             {
 591:D:/Work/DeviceTester/amazon-freertos/lib/third_party/mbedtls/library\aes.c ****                 RK[4]  = RK[0] ^ RCON[i] ^
 128              		.loc 1 591 0
 129 0068 2CE29FE5 		ldr	lr, .L30
 130              	.LVL10:
 131 006c 180080E2 		add	r0, r0, #24
 132              	.LVL11:
 592:D:/Work/DeviceTester/amazon-freertos/lib/third_party/mbedtls/library\aes.c ****                 ( (uint32_t) FSb[ ( RK[3] >>  8 ) & 0xFF ]       ) ^
 133              		.loc 1 592 0
 134 0070 28C29FE5 		ldr	ip, .L30+4
 135              	.LVL12:
 585:D:/Work/DeviceTester/amazon-freertos/lib/third_party/mbedtls/library\aes.c ****     {
 136              		.loc 1 585 0
 137 0074 0010A0E3 		mov	r1, #0
 138              	.LVL13:
 139              	.L15:
 140              		.loc 1 592 0 discriminator 3
 141 0078 042010E5 		ldr	r2, [r0, #-4]
 142 007c 100080E2 		add	r0, r0, #16
 143              	.LVL14:
 593:D:/Work/DeviceTester/amazon-freertos/lib/third_party/mbedtls/library\aes.c ****                 ( (uint32_t) FSb[ ( RK[3] >> 16 ) & 0xFF ] <<  8 ) ^
 594:D:/Work/DeviceTester/amazon-freertos/lib/third_party/mbedtls/library\aes.c ****                 ( (uint32_t) FSb[ ( RK[3] >> 24 ) & 0xFF ] << 16 ) ^
 144              		.loc 1 594 0 discriminator 3
 145 0080 204010E5 		ldr	r4, [r0, #-32]
 146 0084 01319EE7 		ldr	r3, [lr, r1, lsl #2]
 589:D:/Work/DeviceTester/amazon-freertos/lib/third_party/mbedtls/library\aes.c ****             {
 147              		.loc 1 589 0 discriminator 3
 148 0088 011081E2 		add	r1, r1, #1
 149              	.LVL15:
 150 008c 0A0051E3 		cmp	r1, #10
 151              		.loc 1 594 0 discriminator 3
 152 0090 043023E0 		eor	r3, r3, r4
 592:D:/Work/DeviceTester/amazon-freertos/lib/third_party/mbedtls/library\aes.c ****                 ( (uint32_t) FSb[ ( RK[3] >> 16 ) & 0xFF ] <<  8 ) ^
 153              		.loc 1 592 0 discriminator 3
 154 0094 5244E7E7 		ubfx	r4, r2, #8, #8
 155 0098 0440DCE7 		ldrb	r4, [ip, r4]	@ zero_extendqisi2
 156              		.loc 1 594 0 discriminator 3
 157 009c 043023E0 		eor	r3, r3, r4
 158 00a0 224CDCE7 		ldrb	r4, [ip, r2, lsr #24]	@ zero_extendqisi2
 159 00a4 043823E0 		eor	r3, r3, r4, lsl #16
 595:D:/Work/DeviceTester/amazon-freertos/lib/third_party/mbedtls/library\aes.c ****                 ( (uint32_t) FSb[ ( RK[3]       ) & 0xFF ] << 24 );
 160              		.loc 1 595 0 discriminator 3
 161 00a8 7240EFE6 		uxtb	r4, r2
 162 00ac 0440DCE7 		ldrb	r4, [ip, r4]	@ zero_extendqisi2
 594:D:/Work/DeviceTester/amazon-freertos/lib/third_party/mbedtls/library\aes.c ****                 ( (uint32_t) FSb[ ( RK[3]       ) & 0xFF ] << 24 );
 163              		.loc 1 594 0 discriminator 3
 164 00b0 043C23E0 		eor	r3, r3, r4, lsl #24
 593:D:/Work/DeviceTester/amazon-freertos/lib/third_party/mbedtls/library\aes.c ****                 ( (uint32_t) FSb[ ( RK[3] >> 24 ) & 0xFF ] << 16 ) ^
 165              		.loc 1 593 0 discriminator 3
 166 00b4 5248E7E7 		ubfx	r4, r2, #16, #8
 167 00b8 0440DCE7 		ldrb	r4, [ip, r4]	@ zero_extendqisi2
 594:D:/Work/DeviceTester/amazon-freertos/lib/third_party/mbedtls/library\aes.c ****                 ( (uint32_t) FSb[ ( RK[3]       ) & 0xFF ] << 24 );
 168              		.loc 1 594 0 discriminator 3
 169 00bc 043423E0 		eor	r3, r3, r4, lsl #8
 596:D:/Work/DeviceTester/amazon-freertos/lib/third_party/mbedtls/library\aes.c **** 
 597:D:/Work/DeviceTester/amazon-freertos/lib/third_party/mbedtls/library\aes.c ****                 RK[5]  = RK[1] ^ RK[4];
 170              		.loc 1 597 0 discriminator 3
 171 00c0 1C4010E5 		ldr	r4, [r0, #-28]
 591:D:/Work/DeviceTester/amazon-freertos/lib/third_party/mbedtls/library\aes.c ****                 ( (uint32_t) FSb[ ( RK[3] >>  8 ) & 0xFF ]       ) ^
 172              		.loc 1 591 0 discriminator 3
 173 00c4 103000E5 		str	r3, [r0, #-16]
 174              		.loc 1 597 0 discriminator 3
 175 00c8 043023E0 		eor	r3, r3, r4
 598:D:/Work/DeviceTester/amazon-freertos/lib/third_party/mbedtls/library\aes.c ****                 RK[6]  = RK[2] ^ RK[5];
 176              		.loc 1 598 0 discriminator 3
 177 00cc 184010E5 		ldr	r4, [r0, #-24]
 597:D:/Work/DeviceTester/amazon-freertos/lib/third_party/mbedtls/library\aes.c ****                 RK[6]  = RK[2] ^ RK[5];
 178              		.loc 1 597 0 discriminator 3
 179 00d0 0C3000E5 		str	r3, [r0, #-12]
 180              		.loc 1 598 0 discriminator 3
 181 00d4 043023E0 		eor	r3, r3, r4
 182 00d8 083000E5 		str	r3, [r0, #-8]
 599:D:/Work/DeviceTester/amazon-freertos/lib/third_party/mbedtls/library\aes.c ****                 RK[7]  = RK[3] ^ RK[6];
 183              		.loc 1 599 0 discriminator 3
 184 00dc 023023E0 		eor	r3, r3, r2
 185 00e0 043000E5 		str	r3, [r0, #-4]
 589:D:/Work/DeviceTester/amazon-freertos/lib/third_party/mbedtls/library\aes.c ****             {
 186              		.loc 1 589 0 discriminator 3
 187 00e4 E3FFFF1A 		bne	.L15
 188              	.LVL16:
 189              	.L25:
 600:D:/Work/DeviceTester/amazon-freertos/lib/third_party/mbedtls/library\aes.c ****             }
 601:D:/Work/DeviceTester/amazon-freertos/lib/third_party/mbedtls/library\aes.c ****             break;
 602:D:/Work/DeviceTester/amazon-freertos/lib/third_party/mbedtls/library\aes.c **** 
 603:D:/Work/DeviceTester/amazon-freertos/lib/third_party/mbedtls/library\aes.c ****         case 12:
 604:D:/Work/DeviceTester/amazon-freertos/lib/third_party/mbedtls/library\aes.c **** 
 605:D:/Work/DeviceTester/amazon-freertos/lib/third_party/mbedtls/library\aes.c ****             for( i = 0; i < 8; i++, RK += 6 )
 606:D:/Work/DeviceTester/amazon-freertos/lib/third_party/mbedtls/library\aes.c ****             {
 607:D:/Work/DeviceTester/amazon-freertos/lib/third_party/mbedtls/library\aes.c ****                 RK[6]  = RK[0] ^ RCON[i] ^
 608:D:/Work/DeviceTester/amazon-freertos/lib/third_party/mbedtls/library\aes.c ****                 ( (uint32_t) FSb[ ( RK[5] >>  8 ) & 0xFF ]       ) ^
 609:D:/Work/DeviceTester/amazon-freertos/lib/third_party/mbedtls/library\aes.c ****                 ( (uint32_t) FSb[ ( RK[5] >> 16 ) & 0xFF ] <<  8 ) ^
 610:D:/Work/DeviceTester/amazon-freertos/lib/third_party/mbedtls/library\aes.c ****                 ( (uint32_t) FSb[ ( RK[5] >> 24 ) & 0xFF ] << 16 ) ^
 611:D:/Work/DeviceTester/amazon-freertos/lib/third_party/mbedtls/library\aes.c ****                 ( (uint32_t) FSb[ ( RK[5]       ) & 0xFF ] << 24 );
 612:D:/Work/DeviceTester/amazon-freertos/lib/third_party/mbedtls/library\aes.c **** 
 613:D:/Work/DeviceTester/amazon-freertos/lib/third_party/mbedtls/library\aes.c ****                 RK[7]  = RK[1] ^ RK[6];
 614:D:/Work/DeviceTester/amazon-freertos/lib/third_party/mbedtls/library\aes.c ****                 RK[8]  = RK[2] ^ RK[7];
 615:D:/Work/DeviceTester/amazon-freertos/lib/third_party/mbedtls/library\aes.c ****                 RK[9]  = RK[3] ^ RK[8];
 616:D:/Work/DeviceTester/amazon-freertos/lib/third_party/mbedtls/library\aes.c ****                 RK[10] = RK[4] ^ RK[9];
 617:D:/Work/DeviceTester/amazon-freertos/lib/third_party/mbedtls/library\aes.c ****                 RK[11] = RK[5] ^ RK[10];
 618:D:/Work/DeviceTester/amazon-freertos/lib/third_party/mbedtls/library\aes.c ****             }
 619:D:/Work/DeviceTester/amazon-freertos/lib/third_party/mbedtls/library\aes.c ****             break;
 620:D:/Work/DeviceTester/amazon-freertos/lib/third_party/mbedtls/library\aes.c **** 
 621:D:/Work/DeviceTester/amazon-freertos/lib/third_party/mbedtls/library\aes.c ****         case 14:
 622:D:/Work/DeviceTester/amazon-freertos/lib/third_party/mbedtls/library\aes.c **** 
 623:D:/Work/DeviceTester/amazon-freertos/lib/third_party/mbedtls/library\aes.c ****             for( i = 0; i < 7; i++, RK += 8 )
 624:D:/Work/DeviceTester/amazon-freertos/lib/third_party/mbedtls/library\aes.c ****             {
 625:D:/Work/DeviceTester/amazon-freertos/lib/third_party/mbedtls/library\aes.c ****                 RK[8]  = RK[0] ^ RCON[i] ^
 626:D:/Work/DeviceTester/amazon-freertos/lib/third_party/mbedtls/library\aes.c ****                 ( (uint32_t) FSb[ ( RK[7] >>  8 ) & 0xFF ]       ) ^
 627:D:/Work/DeviceTester/amazon-freertos/lib/third_party/mbedtls/library\aes.c ****                 ( (uint32_t) FSb[ ( RK[7] >> 16 ) & 0xFF ] <<  8 ) ^
 628:D:/Work/DeviceTester/amazon-freertos/lib/third_party/mbedtls/library\aes.c ****                 ( (uint32_t) FSb[ ( RK[7] >> 24 ) & 0xFF ] << 16 ) ^
 629:D:/Work/DeviceTester/amazon-freertos/lib/third_party/mbedtls/library\aes.c ****                 ( (uint32_t) FSb[ ( RK[7]       ) & 0xFF ] << 24 );
 630:D:/Work/DeviceTester/amazon-freertos/lib/third_party/mbedtls/library\aes.c **** 
 631:D:/Work/DeviceTester/amazon-freertos/lib/third_party/mbedtls/library\aes.c ****                 RK[9]  = RK[1] ^ RK[8];
 632:D:/Work/DeviceTester/amazon-freertos/lib/third_party/mbedtls/library\aes.c ****                 RK[10] = RK[2] ^ RK[9];
 633:D:/Work/DeviceTester/amazon-freertos/lib/third_party/mbedtls/library\aes.c ****                 RK[11] = RK[3] ^ RK[10];
 634:D:/Work/DeviceTester/amazon-freertos/lib/third_party/mbedtls/library\aes.c **** 
 635:D:/Work/DeviceTester/amazon-freertos/lib/third_party/mbedtls/library\aes.c ****                 RK[12] = RK[4] ^
 636:D:/Work/DeviceTester/amazon-freertos/lib/third_party/mbedtls/library\aes.c ****                 ( (uint32_t) FSb[ ( RK[11]       ) & 0xFF ]       ) ^
 637:D:/Work/DeviceTester/amazon-freertos/lib/third_party/mbedtls/library\aes.c ****                 ( (uint32_t) FSb[ ( RK[11] >>  8 ) & 0xFF ] <<  8 ) ^
 638:D:/Work/DeviceTester/amazon-freertos/lib/third_party/mbedtls/library\aes.c ****                 ( (uint32_t) FSb[ ( RK[11] >> 16 ) & 0xFF ] << 16 ) ^
 639:D:/Work/DeviceTester/amazon-freertos/lib/third_party/mbedtls/library\aes.c ****                 ( (uint32_t) FSb[ ( RK[11] >> 24 ) & 0xFF ] << 24 );
 640:D:/Work/DeviceTester/amazon-freertos/lib/third_party/mbedtls/library\aes.c **** 
 641:D:/Work/DeviceTester/amazon-freertos/lib/third_party/mbedtls/library\aes.c ****                 RK[13] = RK[5] ^ RK[12];
 642:D:/Work/DeviceTester/amazon-freertos/lib/third_party/mbedtls/library\aes.c ****                 RK[14] = RK[6] ^ RK[13];
 643:D:/Work/DeviceTester/amazon-freertos/lib/third_party/mbedtls/library\aes.c ****                 RK[15] = RK[7] ^ RK[14];
 644:D:/Work/DeviceTester/amazon-freertos/lib/third_party/mbedtls/library\aes.c ****             }
 645:D:/Work/DeviceTester/amazon-freertos/lib/third_party/mbedtls/library\aes.c ****             break;
 646:D:/Work/DeviceTester/amazon-freertos/lib/third_party/mbedtls/library\aes.c ****     }
 647:D:/Work/DeviceTester/amazon-freertos/lib/third_party/mbedtls/library\aes.c **** 
 648:D:/Work/DeviceTester/amazon-freertos/lib/third_party/mbedtls/library\aes.c ****     return( 0 );
 190              		.loc 1 648 0
 191 00e8 0000A0E3 		mov	r0, #0
 649:D:/Work/DeviceTester/amazon-freertos/lib/third_party/mbedtls/library\aes.c **** }
 192              		.loc 1 649 0
 193 00ec 3080BDE8 		pop	{r4, r5, pc}
 194              	.LVL17:
 195              	.L7:
 196              		.cfi_def_cfa_offset 0
 197              		.cfi_restore 4
 198              		.cfi_restore 5
 199              		.cfi_restore 14
 561:D:/Work/DeviceTester/amazon-freertos/lib/third_party/mbedtls/library\aes.c ****         default : return( MBEDTLS_ERR_AES_INVALID_KEY_LENGTH );
 200              		.loc 1 561 0
 201 00f0 0E30A0E3 		mov	r3, #14
 202 00f4 CBFFFFEA 		b	.L29
 203              	.LVL18:
 204              	.L11:
 205              		.cfi_def_cfa_offset 12
 206              		.cfi_offset 4, -12
 207              		.cfi_offset 5, -8
 208              		.cfi_offset 14, -4
 582:D:/Work/DeviceTester/amazon-freertos/lib/third_party/mbedtls/library\aes.c ****     }
 209              		.loc 1 582 0 discriminator 3
 210 00f8 023051E5 		ldrb	r3, [r1, #-2]	@ zero_extendqisi2
 211 00fc 034051E5 		ldrb	r4, [r1, #-3]	@ zero_extendqisi2
 212 0100 0338A0E1 		lsl	r3, r3, #16
 213 0104 043483E1 		orr	r3, r3, r4, lsl #8
 214 0108 044051E5 		ldrb	r4, [r1, #-4]	@ zero_extendqisi2
 215 010c 043083E1 		orr	r3, r3, r4
 216 0110 014051E5 		ldrb	r4, [r1, #-1]	@ zero_extendqisi2
 217 0114 043C83E1 		orr	r3, r3, r4, lsl #24
 218 0118 0C318EE7 		str	r3, [lr, ip, lsl #2]
 580:D:/Work/DeviceTester/amazon-freertos/lib/third_party/mbedtls/library\aes.c ****     {
 219              		.loc 1 580 0 discriminator 3
 220 011c 01C08CE2 		add	ip, ip, #1
 221              	.LVL19:
 222 0120 C6FFFFEA 		b	.L10
 223              	.L12:
 607:D:/Work/DeviceTester/amazon-freertos/lib/third_party/mbedtls/library\aes.c ****                 ( (uint32_t) FSb[ ( RK[5] >>  8 ) & 0xFF ]       ) ^
 224              		.loc 1 607 0
 225 0124 70E19FE5 		ldr	lr, .L30
 226              	.LVL20:
 227 0128 200080E2 		add	r0, r0, #32
 228              	.LVL21:
 608:D:/Work/DeviceTester/amazon-freertos/lib/third_party/mbedtls/library\aes.c ****                 ( (uint32_t) FSb[ ( RK[5] >> 16 ) & 0xFF ] <<  8 ) ^
 229              		.loc 1 608 0
 230 012c 6CC19FE5 		ldr	ip, .L30+4
 231              	.LVL22:
 585:D:/Work/DeviceTester/amazon-freertos/lib/third_party/mbedtls/library\aes.c ****     {
 232              		.loc 1 585 0
 233 0130 0010A0E3 		mov	r1, #0
 234              	.LVL23:
 235              	.L16:
 608:D:/Work/DeviceTester/amazon-freertos/lib/third_party/mbedtls/library\aes.c ****                 ( (uint32_t) FSb[ ( RK[5] >> 16 ) & 0xFF ] <<  8 ) ^
 236              		.loc 1 608 0 discriminator 3
 237 0134 042010E5 		ldr	r2, [r0, #-4]
 238 0138 180080E2 		add	r0, r0, #24
 239              	.LVL24:
 610:D:/Work/DeviceTester/amazon-freertos/lib/third_party/mbedtls/library\aes.c ****                 ( (uint32_t) FSb[ ( RK[5]       ) & 0xFF ] << 24 );
 240              		.loc 1 610 0 discriminator 3
 241 013c 304010E5 		ldr	r4, [r0, #-48]
 242 0140 01319EE7 		ldr	r3, [lr, r1, lsl #2]
 605:D:/Work/DeviceTester/amazon-freertos/lib/third_party/mbedtls/library\aes.c ****             {
 243              		.loc 1 605 0 discriminator 3
 244 0144 011081E2 		add	r1, r1, #1
 245              	.LVL25:
 246 0148 080051E3 		cmp	r1, #8
 610:D:/Work/DeviceTester/amazon-freertos/lib/third_party/mbedtls/library\aes.c ****                 ( (uint32_t) FSb[ ( RK[5]       ) & 0xFF ] << 24 );
 247              		.loc 1 610 0 discriminator 3
 248 014c 043023E0 		eor	r3, r3, r4
 608:D:/Work/DeviceTester/amazon-freertos/lib/third_party/mbedtls/library\aes.c ****                 ( (uint32_t) FSb[ ( RK[5] >> 16 ) & 0xFF ] <<  8 ) ^
 249              		.loc 1 608 0 discriminator 3
 250 0150 5244E7E7 		ubfx	r4, r2, #8, #8
 251 0154 0440DCE7 		ldrb	r4, [ip, r4]	@ zero_extendqisi2
 610:D:/Work/DeviceTester/amazon-freertos/lib/third_party/mbedtls/library\aes.c ****                 ( (uint32_t) FSb[ ( RK[5]       ) & 0xFF ] << 24 );
 252              		.loc 1 610 0 discriminator 3
 253 0158 043023E0 		eor	r3, r3, r4
 254 015c 224CDCE7 		ldrb	r4, [ip, r2, lsr #24]	@ zero_extendqisi2
 255 0160 043823E0 		eor	r3, r3, r4, lsl #16
 611:D:/Work/DeviceTester/amazon-freertos/lib/third_party/mbedtls/library\aes.c **** 
 256              		.loc 1 611 0 discriminator 3
 257 0164 7240EFE6 		uxtb	r4, r2
 258 0168 0440DCE7 		ldrb	r4, [ip, r4]	@ zero_extendqisi2
 610:D:/Work/DeviceTester/amazon-freertos/lib/third_party/mbedtls/library\aes.c ****                 ( (uint32_t) FSb[ ( RK[5]       ) & 0xFF ] << 24 );
 259              		.loc 1 610 0 discriminator 3
 260 016c 043C23E0 		eor	r3, r3, r4, lsl #24
 609:D:/Work/DeviceTester/amazon-freertos/lib/third_party/mbedtls/library\aes.c ****                 ( (uint32_t) FSb[ ( RK[5] >> 24 ) & 0xFF ] << 16 ) ^
 261              		.loc 1 609 0 discriminator 3
 262 0170 5248E7E7 		ubfx	r4, r2, #16, #8
 263 0174 0440DCE7 		ldrb	r4, [ip, r4]	@ zero_extendqisi2
 610:D:/Work/DeviceTester/amazon-freertos/lib/third_party/mbedtls/library\aes.c ****                 ( (uint32_t) FSb[ ( RK[5]       ) & 0xFF ] << 24 );
 264              		.loc 1 610 0 discriminator 3
 265 0178 043423E0 		eor	r3, r3, r4, lsl #8
 613:D:/Work/DeviceTester/amazon-freertos/lib/third_party/mbedtls/library\aes.c ****                 RK[8]  = RK[2] ^ RK[7];
 266              		.loc 1 613 0 discriminator 3
 267 017c 2C4010E5 		ldr	r4, [r0, #-44]
 607:D:/Work/DeviceTester/amazon-freertos/lib/third_party/mbedtls/library\aes.c ****                 ( (uint32_t) FSb[ ( RK[5] >>  8 ) & 0xFF ]       ) ^
 268              		.loc 1 607 0 discriminator 3
 269 0180 183000E5 		str	r3, [r0, #-24]
 613:D:/Work/DeviceTester/amazon-freertos/lib/third_party/mbedtls/library\aes.c ****                 RK[8]  = RK[2] ^ RK[7];
 270              		.loc 1 613 0 discriminator 3
 271 0184 043023E0 		eor	r3, r3, r4
 614:D:/Work/DeviceTester/amazon-freertos/lib/third_party/mbedtls/library\aes.c ****                 RK[9]  = RK[3] ^ RK[8];
 272              		.loc 1 614 0 discriminator 3
 273 0188 284010E5 		ldr	r4, [r0, #-40]
 613:D:/Work/DeviceTester/amazon-freertos/lib/third_party/mbedtls/library\aes.c ****                 RK[8]  = RK[2] ^ RK[7];
 274              		.loc 1 613 0 discriminator 3
 275 018c 143000E5 		str	r3, [r0, #-20]
 614:D:/Work/DeviceTester/amazon-freertos/lib/third_party/mbedtls/library\aes.c ****                 RK[9]  = RK[3] ^ RK[8];
 276              		.loc 1 614 0 discriminator 3
 277 0190 043023E0 		eor	r3, r3, r4
 615:D:/Work/DeviceTester/amazon-freertos/lib/third_party/mbedtls/library\aes.c ****                 RK[10] = RK[4] ^ RK[9];
 278              		.loc 1 615 0 discriminator 3
 279 0194 244010E5 		ldr	r4, [r0, #-36]
 614:D:/Work/DeviceTester/amazon-freertos/lib/third_party/mbedtls/library\aes.c ****                 RK[9]  = RK[3] ^ RK[8];
 280              		.loc 1 614 0 discriminator 3
 281 0198 103000E5 		str	r3, [r0, #-16]
 615:D:/Work/DeviceTester/amazon-freertos/lib/third_party/mbedtls/library\aes.c ****                 RK[10] = RK[4] ^ RK[9];
 282              		.loc 1 615 0 discriminator 3
 283 019c 043023E0 		eor	r3, r3, r4
 616:D:/Work/DeviceTester/amazon-freertos/lib/third_party/mbedtls/library\aes.c ****                 RK[11] = RK[5] ^ RK[10];
 284              		.loc 1 616 0 discriminator 3
 285 01a0 204010E5 		ldr	r4, [r0, #-32]
 615:D:/Work/DeviceTester/amazon-freertos/lib/third_party/mbedtls/library\aes.c ****                 RK[10] = RK[4] ^ RK[9];
 286              		.loc 1 615 0 discriminator 3
 287 01a4 0C3000E5 		str	r3, [r0, #-12]
 616:D:/Work/DeviceTester/amazon-freertos/lib/third_party/mbedtls/library\aes.c ****                 RK[11] = RK[5] ^ RK[10];
 288              		.loc 1 616 0 discriminator 3
 289 01a8 043023E0 		eor	r3, r3, r4
 290 01ac 083000E5 		str	r3, [r0, #-8]
 617:D:/Work/DeviceTester/amazon-freertos/lib/third_party/mbedtls/library\aes.c ****             }
 291              		.loc 1 617 0 discriminator 3
 292 01b0 023023E0 		eor	r3, r3, r2
 293 01b4 043000E5 		str	r3, [r0, #-4]
 605:D:/Work/DeviceTester/amazon-freertos/lib/third_party/mbedtls/library\aes.c ****             {
 294              		.loc 1 605 0 discriminator 3
 295 01b8 DDFFFF1A 		bne	.L16
 296 01bc C9FFFFEA 		b	.L25
 297              	.LVL26:
 298              	.L13:
 625:D:/Work/DeviceTester/amazon-freertos/lib/third_party/mbedtls/library\aes.c ****                 ( (uint32_t) FSb[ ( RK[7] >>  8 ) & 0xFF ]       ) ^
 299              		.loc 1 625 0
 300 01c0 D4E09FE5 		ldr	lr, .L30
 301              	.LVL27:
 302 01c4 280080E2 		add	r0, r0, #40
 303              	.LVL28:
 626:D:/Work/DeviceTester/amazon-freertos/lib/third_party/mbedtls/library\aes.c ****                 ( (uint32_t) FSb[ ( RK[7] >> 16 ) & 0xFF ] <<  8 ) ^
 304              		.loc 1 626 0
 305 01c8 D0209FE5 		ldr	r2, .L30+4
 585:D:/Work/DeviceTester/amazon-freertos/lib/third_party/mbedtls/library\aes.c ****     {
 306              		.loc 1 585 0
 307 01cc 00C0A0E3 		mov	ip, #0
 308              	.LVL29:
 309              	.L18:
 626:D:/Work/DeviceTester/amazon-freertos/lib/third_party/mbedtls/library\aes.c ****                 ( (uint32_t) FSb[ ( RK[7] >> 16 ) & 0xFF ] <<  8 ) ^
 310              		.loc 1 626 0 discriminator 3
 311 01d0 041010E5 		ldr	r1, [r0, #-4]
 312 01d4 200080E2 		add	r0, r0, #32
 313              	.LVL30:
 628:D:/Work/DeviceTester/amazon-freertos/lib/third_party/mbedtls/library\aes.c ****                 ( (uint32_t) FSb[ ( RK[7]       ) & 0xFF ] << 24 );
 314              		.loc 1 628 0 discriminator 3
 315 01d8 404010E5 		ldr	r4, [r0, #-64]
 316 01dc 0C319EE7 		ldr	r3, [lr, ip, lsl #2]
 623:D:/Work/DeviceTester/amazon-freertos/lib/third_party/mbedtls/library\aes.c ****             {
 317              		.loc 1 623 0 discriminator 3
 318 01e0 01C08CE2 		add	ip, ip, #1
 319              	.LVL31:
 638:D:/Work/DeviceTester/amazon-freertos/lib/third_party/mbedtls/library\aes.c ****                 ( (uint32_t) FSb[ ( RK[11] >> 24 ) & 0xFF ] << 24 );
 320              		.loc 1 638 0 discriminator 3
 321 01e4 305010E5 		ldr	r5, [r0, #-48]
 623:D:/Work/DeviceTester/amazon-freertos/lib/third_party/mbedtls/library\aes.c ****             {
 322              		.loc 1 623 0 discriminator 3
 323 01e8 07005CE3 		cmp	ip, #7
 628:D:/Work/DeviceTester/amazon-freertos/lib/third_party/mbedtls/library\aes.c ****                 ( (uint32_t) FSb[ ( RK[7]       ) & 0xFF ] << 24 );
 324              		.loc 1 628 0 discriminator 3
 325 01ec 043023E0 		eor	r3, r3, r4
 626:D:/Work/DeviceTester/amazon-freertos/lib/third_party/mbedtls/library\aes.c ****                 ( (uint32_t) FSb[ ( RK[7] >> 16 ) & 0xFF ] <<  8 ) ^
 326              		.loc 1 626 0 discriminator 3
 327 01f0 5144E7E7 		ubfx	r4, r1, #8, #8
 328 01f4 0440D2E7 		ldrb	r4, [r2, r4]	@ zero_extendqisi2
 628:D:/Work/DeviceTester/amazon-freertos/lib/third_party/mbedtls/library\aes.c ****                 ( (uint32_t) FSb[ ( RK[7]       ) & 0xFF ] << 24 );
 329              		.loc 1 628 0 discriminator 3
 330 01f8 043023E0 		eor	r3, r3, r4
 331 01fc 214CD2E7 		ldrb	r4, [r2, r1, lsr #24]	@ zero_extendqisi2
 332 0200 043823E0 		eor	r3, r3, r4, lsl #16
 629:D:/Work/DeviceTester/amazon-freertos/lib/third_party/mbedtls/library\aes.c **** 
 333              		.loc 1 629 0 discriminator 3
 334 0204 7140EFE6 		uxtb	r4, r1
 335 0208 0440D2E7 		ldrb	r4, [r2, r4]	@ zero_extendqisi2
 628:D:/Work/DeviceTester/amazon-freertos/lib/third_party/mbedtls/library\aes.c ****                 ( (uint32_t) FSb[ ( RK[7]       ) & 0xFF ] << 24 );
 336              		.loc 1 628 0 discriminator 3
 337 020c 043C23E0 		eor	r3, r3, r4, lsl #24
 627:D:/Work/DeviceTester/amazon-freertos/lib/third_party/mbedtls/library\aes.c ****                 ( (uint32_t) FSb[ ( RK[7] >> 24 ) & 0xFF ] << 16 ) ^
 338              		.loc 1 627 0 discriminator 3
 339 0210 5148E7E7 		ubfx	r4, r1, #16, #8
 340 0214 0440D2E7 		ldrb	r4, [r2, r4]	@ zero_extendqisi2
 628:D:/Work/DeviceTester/amazon-freertos/lib/third_party/mbedtls/library\aes.c ****                 ( (uint32_t) FSb[ ( RK[7]       ) & 0xFF ] << 24 );
 341              		.loc 1 628 0 discriminator 3
 342 0218 043423E0 		eor	r3, r3, r4, lsl #8
 631:D:/Work/DeviceTester/amazon-freertos/lib/third_party/mbedtls/library\aes.c ****                 RK[10] = RK[2] ^ RK[9];
 343              		.loc 1 631 0 discriminator 3
 344 021c 3C4010E5 		ldr	r4, [r0, #-60]
 625:D:/Work/DeviceTester/amazon-freertos/lib/third_party/mbedtls/library\aes.c ****                 ( (uint32_t) FSb[ ( RK[7] >>  8 ) & 0xFF ]       ) ^
 345              		.loc 1 625 0 discriminator 3
 346 0220 203000E5 		str	r3, [r0, #-32]
 631:D:/Work/DeviceTester/amazon-freertos/lib/third_party/mbedtls/library\aes.c ****                 RK[10] = RK[2] ^ RK[9];
 347              		.loc 1 631 0 discriminator 3
 348 0224 043023E0 		eor	r3, r3, r4
 632:D:/Work/DeviceTester/amazon-freertos/lib/third_party/mbedtls/library\aes.c ****                 RK[11] = RK[3] ^ RK[10];
 349              		.loc 1 632 0 discriminator 3
 350 0228 384010E5 		ldr	r4, [r0, #-56]
 631:D:/Work/DeviceTester/amazon-freertos/lib/third_party/mbedtls/library\aes.c ****                 RK[10] = RK[2] ^ RK[9];
 351              		.loc 1 631 0 discriminator 3
 352 022c 1C3000E5 		str	r3, [r0, #-28]
 632:D:/Work/DeviceTester/amazon-freertos/lib/third_party/mbedtls/library\aes.c ****                 RK[11] = RK[3] ^ RK[10];
 353              		.loc 1 632 0 discriminator 3
 354 0230 043023E0 		eor	r3, r3, r4
 633:D:/Work/DeviceTester/amazon-freertos/lib/third_party/mbedtls/library\aes.c **** 
 355              		.loc 1 633 0 discriminator 3
 356 0234 344010E5 		ldr	r4, [r0, #-52]
 632:D:/Work/DeviceTester/amazon-freertos/lib/third_party/mbedtls/library\aes.c ****                 RK[11] = RK[3] ^ RK[10];
 357              		.loc 1 632 0 discriminator 3
 358 0238 183000E5 		str	r3, [r0, #-24]
 633:D:/Work/DeviceTester/amazon-freertos/lib/third_party/mbedtls/library\aes.c **** 
 359              		.loc 1 633 0 discriminator 3
 360 023c 043023E0 		eor	r3, r3, r4
 636:D:/Work/DeviceTester/amazon-freertos/lib/third_party/mbedtls/library\aes.c ****                 ( (uint32_t) FSb[ ( RK[11] >>  8 ) & 0xFF ] <<  8 ) ^
 361              		.loc 1 636 0 discriminator 3
 362 0240 7340EFE6 		uxtb	r4, r3
 633:D:/Work/DeviceTester/amazon-freertos/lib/third_party/mbedtls/library\aes.c **** 
 363              		.loc 1 633 0 discriminator 3
 364 0244 143000E5 		str	r3, [r0, #-20]
 636:D:/Work/DeviceTester/amazon-freertos/lib/third_party/mbedtls/library\aes.c ****                 ( (uint32_t) FSb[ ( RK[11] >>  8 ) & 0xFF ] <<  8 ) ^
 365              		.loc 1 636 0 discriminator 3
 366 0248 0440D2E7 		ldrb	r4, [r2, r4]	@ zero_extendqisi2
 638:D:/Work/DeviceTester/amazon-freertos/lib/third_party/mbedtls/library\aes.c ****                 ( (uint32_t) FSb[ ( RK[11] >> 24 ) & 0xFF ] << 24 );
 367              		.loc 1 638 0 discriminator 3
 368 024c 054024E0 		eor	r4, r4, r5
 639:D:/Work/DeviceTester/amazon-freertos/lib/third_party/mbedtls/library\aes.c **** 
 369              		.loc 1 639 0 discriminator 3
 370 0250 235CD2E7 		ldrb	r5, [r2, r3, lsr #24]	@ zero_extendqisi2
 638:D:/Work/DeviceTester/amazon-freertos/lib/third_party/mbedtls/library\aes.c ****                 ( (uint32_t) FSb[ ( RK[11] >> 24 ) & 0xFF ] << 24 );
 371              		.loc 1 638 0 discriminator 3
 372 0254 054C24E0 		eor	r4, r4, r5, lsl #24
 637:D:/Work/DeviceTester/amazon-freertos/lib/third_party/mbedtls/library\aes.c ****                 ( (uint32_t) FSb[ ( RK[11] >> 16 ) & 0xFF ] << 16 ) ^
 373              		.loc 1 637 0 discriminator 3
 374 0258 5354E7E7 		ubfx	r5, r3, #8, #8
 375 025c 0550D2E7 		ldrb	r5, [r2, r5]	@ zero_extendqisi2
 638:D:/Work/DeviceTester/amazon-freertos/lib/third_party/mbedtls/library\aes.c ****                 ( (uint32_t) FSb[ ( RK[11] >> 24 ) & 0xFF ] << 24 );
 376              		.loc 1 638 0 discriminator 3
 377 0260 5338E7E7 		ubfx	r3, r3, #16, #8
 378 0264 0330D2E7 		ldrb	r3, [r2, r3]	@ zero_extendqisi2
 379 0268 054424E0 		eor	r4, r4, r5, lsl #8
 380 026c 033824E0 		eor	r3, r4, r3, lsl #16
 641:D:/Work/DeviceTester/amazon-freertos/lib/third_party/mbedtls/library\aes.c ****                 RK[14] = RK[6] ^ RK[13];
 381              		.loc 1 641 0 discriminator 3
 382 0270 2C4010E5 		ldr	r4, [r0, #-44]
 635:D:/Work/DeviceTester/amazon-freertos/lib/third_party/mbedtls/library\aes.c ****                 ( (uint32_t) FSb[ ( RK[11]       ) & 0xFF ]       ) ^
 383              		.loc 1 635 0 discriminator 3
 384 0274 103000E5 		str	r3, [r0, #-16]
 641:D:/Work/DeviceTester/amazon-freertos/lib/third_party/mbedtls/library\aes.c ****                 RK[14] = RK[6] ^ RK[13];
 385              		.loc 1 641 0 discriminator 3
 386 0278 043023E0 		eor	r3, r3, r4
 642:D:/Work/DeviceTester/amazon-freertos/lib/third_party/mbedtls/library\aes.c ****                 RK[15] = RK[7] ^ RK[14];
 387              		.loc 1 642 0 discriminator 3
 388 027c 284010E5 		ldr	r4, [r0, #-40]
 641:D:/Work/DeviceTester/amazon-freertos/lib/third_party/mbedtls/library\aes.c ****                 RK[14] = RK[6] ^ RK[13];
 389              		.loc 1 641 0 discriminator 3
 390 0280 0C3000E5 		str	r3, [r0, #-12]
 642:D:/Work/DeviceTester/amazon-freertos/lib/third_party/mbedtls/library\aes.c ****                 RK[15] = RK[7] ^ RK[14];
 391              		.loc 1 642 0 discriminator 3
 392 0284 043023E0 		eor	r3, r3, r4
 643:D:/Work/DeviceTester/amazon-freertos/lib/third_party/mbedtls/library\aes.c ****             }
 393              		.loc 1 643 0 discriminator 3
 394 0288 031021E0 		eor	r1, r1, r3
 642:D:/Work/DeviceTester/amazon-freertos/lib/third_party/mbedtls/library\aes.c ****                 RK[15] = RK[7] ^ RK[14];
 395              		.loc 1 642 0 discriminator 3
 396 028c 083000E5 		str	r3, [r0, #-8]
 643:D:/Work/DeviceTester/amazon-freertos/lib/third_party/mbedtls/library\aes.c ****             }
 397              		.loc 1 643 0 discriminator 3
 398 0290 041000E5 		str	r1, [r0, #-4]
 623:D:/Work/DeviceTester/amazon-freertos/lib/third_party/mbedtls/library\aes.c ****             {
 399              		.loc 1 623 0 discriminator 3
 400 0294 CDFFFF1A 		bne	.L18
 401 0298 92FFFFEA 		b	.L25
 402              	.L31:
 403              		.align	2
 404              	.L30:
 405 029c 00000000 		.word	.LANCHOR0
 406 02a0 00000000 		.word	.LANCHOR1
 407              		.cfi_endproc
 408              	.LFE3:
 410              		.section	.text.mbedtls_aes_setkey_dec,"ax",%progbits
 411              		.align	2
 412              		.global	mbedtls_aes_setkey_dec
 413              		.syntax unified
 414              		.arm
 415              		.fpu neon
 417              	mbedtls_aes_setkey_dec:
 418              	.LFB4:
 650:D:/Work/DeviceTester/amazon-freertos/lib/third_party/mbedtls/library\aes.c **** #endif /* !MBEDTLS_AES_SETKEY_ENC_ALT */
 651:D:/Work/DeviceTester/amazon-freertos/lib/third_party/mbedtls/library\aes.c **** 
 652:D:/Work/DeviceTester/amazon-freertos/lib/third_party/mbedtls/library\aes.c **** /*
 653:D:/Work/DeviceTester/amazon-freertos/lib/third_party/mbedtls/library\aes.c ****  * AES key schedule (decryption)
 654:D:/Work/DeviceTester/amazon-freertos/lib/third_party/mbedtls/library\aes.c ****  */
 655:D:/Work/DeviceTester/amazon-freertos/lib/third_party/mbedtls/library\aes.c **** #if !defined(MBEDTLS_AES_SETKEY_DEC_ALT)
 656:D:/Work/DeviceTester/amazon-freertos/lib/third_party/mbedtls/library\aes.c **** int mbedtls_aes_setkey_dec( mbedtls_aes_context *ctx, const unsigned char *key,
 657:D:/Work/DeviceTester/amazon-freertos/lib/third_party/mbedtls/library\aes.c ****                     unsigned int keybits )
 658:D:/Work/DeviceTester/amazon-freertos/lib/third_party/mbedtls/library\aes.c **** {
 419              		.loc 1 658 0
 420              		.cfi_startproc
 421              		@ args = 0, pretend = 0, frame = 288
 422              		@ frame_needed = 0, uses_anonymous_args = 0
 423              	.LVL32:
 424 0000 F04F2DE9 		push	{r4, r5, r6, r7, r8, r9, r10, fp, lr}
 425              		.cfi_def_cfa_offset 36
 426              		.cfi_offset 4, -36
 427              		.cfi_offset 5, -32
 428              		.cfi_offset 6, -28
 429              		.cfi_offset 7, -24
 430              		.cfi_offset 8, -20
 431              		.cfi_offset 9, -16
 432              		.cfi_offset 10, -12
 433              		.cfi_offset 11, -8
 434              		.cfi_offset 14, -4
 435 0004 49DF4DE2 		sub	sp, sp, #292
 436              		.cfi_def_cfa_offset 328
 437              		.loc 1 658 0
 438 0008 0040A0E1 		mov	r4, r0
 659:D:/Work/DeviceTester/amazon-freertos/lib/third_party/mbedtls/library\aes.c ****     int i, j, ret;
 660:D:/Work/DeviceTester/amazon-freertos/lib/third_party/mbedtls/library\aes.c ****     mbedtls_aes_context cty;
 661:D:/Work/DeviceTester/amazon-freertos/lib/third_party/mbedtls/library\aes.c ****     uint32_t *RK;
 662:D:/Work/DeviceTester/amazon-freertos/lib/third_party/mbedtls/library\aes.c ****     uint32_t *SK;
 663:D:/Work/DeviceTester/amazon-freertos/lib/third_party/mbedtls/library\aes.c **** 
 664:D:/Work/DeviceTester/amazon-freertos/lib/third_party/mbedtls/library\aes.c ****     mbedtls_aes_init( &cty );
 439              		.loc 1 664 0
 440 000c 08008DE2 		add	r0, sp, #8
 441              	.LVL33:
 658:D:/Work/DeviceTester/amazon-freertos/lib/third_party/mbedtls/library\aes.c ****     int i, j, ret;
 442              		.loc 1 658 0
 443 0010 0150A0E1 		mov	r5, r1
 444 0014 0260A0E1 		mov	r6, r2
 445              		.loc 1 664 0
 446 0018 FEFFFFEB 		bl	mbedtls_aes_init
 447              	.LVL34:
 665:D:/Work/DeviceTester/amazon-freertos/lib/third_party/mbedtls/library\aes.c **** 
 666:D:/Work/DeviceTester/amazon-freertos/lib/third_party/mbedtls/library\aes.c **** #if defined(MBEDTLS_PADLOCK_C) && defined(MBEDTLS_PADLOCK_ALIGN16)
 667:D:/Work/DeviceTester/amazon-freertos/lib/third_party/mbedtls/library\aes.c ****     if( aes_padlock_ace == -1 )
 668:D:/Work/DeviceTester/amazon-freertos/lib/third_party/mbedtls/library\aes.c ****         aes_padlock_ace = mbedtls_padlock_has_support( MBEDTLS_PADLOCK_ACE );
 669:D:/Work/DeviceTester/amazon-freertos/lib/third_party/mbedtls/library\aes.c **** 
 670:D:/Work/DeviceTester/amazon-freertos/lib/third_party/mbedtls/library\aes.c ****     if( aes_padlock_ace )
 671:D:/Work/DeviceTester/amazon-freertos/lib/third_party/mbedtls/library\aes.c ****         ctx->rk = RK = MBEDTLS_PADLOCK_ALIGN16( ctx->buf );
 672:D:/Work/DeviceTester/amazon-freertos/lib/third_party/mbedtls/library\aes.c ****     else
 673:D:/Work/DeviceTester/amazon-freertos/lib/third_party/mbedtls/library\aes.c **** #endif
 674:D:/Work/DeviceTester/amazon-freertos/lib/third_party/mbedtls/library\aes.c ****     ctx->rk = RK = ctx->buf;
 448              		.loc 1 674 0
 449 001c 083084E2 		add	r3, r4, #8
 450              	.LVL35:
 675:D:/Work/DeviceTester/amazon-freertos/lib/third_party/mbedtls/library\aes.c **** 
 676:D:/Work/DeviceTester/amazon-freertos/lib/third_party/mbedtls/library\aes.c ****     /* Also checks keybits */
 677:D:/Work/DeviceTester/amazon-freertos/lib/third_party/mbedtls/library\aes.c ****     if( ( ret = mbedtls_aes_setkey_enc( &cty, key, keybits ) ) != 0 )
 451              		.loc 1 677 0
 452 0020 0620A0E1 		mov	r2, r6
 674:D:/Work/DeviceTester/amazon-freertos/lib/third_party/mbedtls/library\aes.c **** 
 453              		.loc 1 674 0
 454 0024 043084E5 		str	r3, [r4, #4]
 455              		.loc 1 677 0
 456 0028 0510A0E1 		mov	r1, r5
 457 002c 08008DE2 		add	r0, sp, #8
 458 0030 FEFFFFEB 		bl	mbedtls_aes_setkey_enc
 459              	.LVL36:
 460 0034 007050E2 		subs	r7, r0, #0
 461 0038 3800001A 		bne	.L33
 678:D:/Work/DeviceTester/amazon-freertos/lib/third_party/mbedtls/library\aes.c ****         goto exit;
 679:D:/Work/DeviceTester/amazon-freertos/lib/third_party/mbedtls/library\aes.c **** 
 680:D:/Work/DeviceTester/amazon-freertos/lib/third_party/mbedtls/library\aes.c ****     ctx->nr = cty.nr;
 462              		.loc 1 680 0
 463 003c 08209DE5 		ldr	r2, [sp, #8]
 681:D:/Work/DeviceTester/amazon-freertos/lib/third_party/mbedtls/library\aes.c **** 
 682:D:/Work/DeviceTester/amazon-freertos/lib/third_party/mbedtls/library\aes.c **** #if defined(MBEDTLS_AESNI_C) && defined(MBEDTLS_HAVE_X86_64)
 683:D:/Work/DeviceTester/amazon-freertos/lib/third_party/mbedtls/library\aes.c ****     if( mbedtls_aesni_has_support( MBEDTLS_AESNI_AES ) )
 684:D:/Work/DeviceTester/amazon-freertos/lib/third_party/mbedtls/library\aes.c ****     {
 685:D:/Work/DeviceTester/amazon-freertos/lib/third_party/mbedtls/library\aes.c ****         mbedtls_aesni_inverse_key( (unsigned char *) ctx->rk,
 686:D:/Work/DeviceTester/amazon-freertos/lib/third_party/mbedtls/library\aes.c ****                            (const unsigned char *) cty.rk, ctx->nr );
 687:D:/Work/DeviceTester/amazon-freertos/lib/third_party/mbedtls/library\aes.c ****         goto exit;
 688:D:/Work/DeviceTester/amazon-freertos/lib/third_party/mbedtls/library\aes.c ****     }
 689:D:/Work/DeviceTester/amazon-freertos/lib/third_party/mbedtls/library\aes.c **** #endif
 690:D:/Work/DeviceTester/amazon-freertos/lib/third_party/mbedtls/library\aes.c **** 
 691:D:/Work/DeviceTester/amazon-freertos/lib/third_party/mbedtls/library\aes.c ****     SK = cty.rk + cty.nr * 4;
 464              		.loc 1 691 0
 465 0040 0C109DE5 		ldr	r1, [sp, #12]
 692:D:/Work/DeviceTester/amazon-freertos/lib/third_party/mbedtls/library\aes.c **** 
 693:D:/Work/DeviceTester/amazon-freertos/lib/third_party/mbedtls/library\aes.c ****     *RK++ = *SK++;
 694:D:/Work/DeviceTester/amazon-freertos/lib/third_party/mbedtls/library\aes.c ****     *RK++ = *SK++;
 695:D:/Work/DeviceTester/amazon-freertos/lib/third_party/mbedtls/library\aes.c ****     *RK++ = *SK++;
 696:D:/Work/DeviceTester/amazon-freertos/lib/third_party/mbedtls/library\aes.c ****     *RK++ = *SK++;
 697:D:/Work/DeviceTester/amazon-freertos/lib/third_party/mbedtls/library\aes.c **** 
 698:D:/Work/DeviceTester/amazon-freertos/lib/third_party/mbedtls/library\aes.c ****     for( i = ctx->nr - 1, SK -= 8; i > 0; i--, SK -= 8 )
 699:D:/Work/DeviceTester/amazon-freertos/lib/third_party/mbedtls/library\aes.c ****     {
 700:D:/Work/DeviceTester/amazon-freertos/lib/third_party/mbedtls/library\aes.c ****         for( j = 0; j < 4; j++, SK++ )
 701:D:/Work/DeviceTester/amazon-freertos/lib/third_party/mbedtls/library\aes.c ****         {
 702:D:/Work/DeviceTester/amazon-freertos/lib/third_party/mbedtls/library\aes.c ****             *RK++ = AES_RT0( FSb[ ( *SK       ) & 0xFF ] ) ^
 466              		.loc 1 702 0
 467 0044 E8809FE5 		ldr	r8, .L39
 468 0048 E8E09FE5 		ldr	lr, .L39+4
 703:D:/Work/DeviceTester/amazon-freertos/lib/third_party/mbedtls/library\aes.c ****                     AES_RT1( FSb[ ( *SK >>  8 ) & 0xFF ] ) ^
 704:D:/Work/DeviceTester/amazon-freertos/lib/third_party/mbedtls/library\aes.c ****                     AES_RT2( FSb[ ( *SK >> 16 ) & 0xFF ] ) ^
 705:D:/Work/DeviceTester/amazon-freertos/lib/third_party/mbedtls/library\aes.c ****                     AES_RT3( FSb[ ( *SK >> 24 ) & 0xFF ] );
 469              		.loc 1 705 0
 470 004c E8909FE5 		ldr	r9, .L39+8
 691:D:/Work/DeviceTester/amazon-freertos/lib/third_party/mbedtls/library\aes.c **** 
 471              		.loc 1 691 0
 472 0050 023281E0 		add	r3, r1, r2, lsl #4
 473              	.LVL37:
 693:D:/Work/DeviceTester/amazon-freertos/lib/third_party/mbedtls/library\aes.c ****     *RK++ = *SK++;
 474              		.loc 1 693 0
 475 0054 021291E7 		ldr	r1, [r1, r2, lsl #4]
 703:D:/Work/DeviceTester/amazon-freertos/lib/third_party/mbedtls/library\aes.c ****                     AES_RT1( FSb[ ( *SK >>  8 ) & 0xFF ] ) ^
 476              		.loc 1 703 0
 477 0058 E0A09FE5 		ldr	r10, .L39+12
 704:D:/Work/DeviceTester/amazon-freertos/lib/third_party/mbedtls/library\aes.c ****                     AES_RT3( FSb[ ( *SK >> 24 ) & 0xFF ] );
 478              		.loc 1 704 0
 479 005c E0B09FE5 		ldr	fp, .L39+16
 698:D:/Work/DeviceTester/amazon-freertos/lib/third_party/mbedtls/library\aes.c ****     {
 480              		.loc 1 698 0
 481 0060 103043E2 		sub	r3, r3, #16
 482              	.LVL38:
 693:D:/Work/DeviceTester/amazon-freertos/lib/third_party/mbedtls/library\aes.c ****     *RK++ = *SK++;
 483              		.loc 1 693 0
 484 0064 081084E5 		str	r1, [r4, #8]
 485              	.LVL39:
 694:D:/Work/DeviceTester/amazon-freertos/lib/third_party/mbedtls/library\aes.c ****     *RK++ = *SK++;
 486              		.loc 1 694 0
 487 0068 141093E5 		ldr	r1, [r3, #20]
 680:D:/Work/DeviceTester/amazon-freertos/lib/third_party/mbedtls/library\aes.c **** 
 488              		.loc 1 680 0
 489 006c 002084E5 		str	r2, [r4]
 698:D:/Work/DeviceTester/amazon-freertos/lib/third_party/mbedtls/library\aes.c ****     {
 490              		.loc 1 698 0
 491 0070 012042E2 		sub	r2, r2, #1
 694:D:/Work/DeviceTester/amazon-freertos/lib/third_party/mbedtls/library\aes.c ****     *RK++ = *SK++;
 492              		.loc 1 694 0
 493 0074 0C1084E5 		str	r1, [r4, #12]
 494              	.LVL40:
 695:D:/Work/DeviceTester/amazon-freertos/lib/third_party/mbedtls/library\aes.c ****     *RK++ = *SK++;
 495              		.loc 1 695 0
 496 0078 181093E5 		ldr	r1, [r3, #24]
 497 007c 101084E5 		str	r1, [r4, #16]
 696:D:/Work/DeviceTester/amazon-freertos/lib/third_party/mbedtls/library\aes.c **** 
 498              		.loc 1 696 0
 499 0080 181084E2 		add	r1, r4, #24
 500              	.LVL41:
 501 0084 1C0093E5 		ldr	r0, [r3, #28]
 502              	.LVL42:
 503 0088 140084E5 		str	r0, [r4, #20]
 504              	.LVL43:
 505              	.L34:
 698:D:/Work/DeviceTester/amazon-freertos/lib/third_party/mbedtls/library\aes.c ****     {
 506              		.loc 1 698 0 discriminator 1
 507 008c 000052E3 		cmp	r2, #0
 508 0090 1A0000DA 		ble	.L36
 509 0094 044043E2 		sub	r4, r3, #4
 510 0098 046041E2 		sub	r6, r1, #4
 511 009c 0C0083E2 		add	r0, r3, #12
 512 00a0 04008DE5 		str	r0, [sp, #4]
 513              	.LVL44:
 514              	.L35:
 702:D:/Work/DeviceTester/amazon-freertos/lib/third_party/mbedtls/library\aes.c ****                     AES_RT1( FSb[ ( *SK >>  8 ) & 0xFF ] ) ^
 515              		.loc 1 702 0 discriminator 3
 516 00a4 0400B4E5 		ldr	r0, [r4, #4]!
 517              	.LVL45:
 518 00a8 70C0EFE6 		uxtb	ip, r0
 519 00ac 0C50DEE7 		ldrb	r5, [lr, ip]	@ zero_extendqisi2
 520              		.loc 1 705 0 discriminator 3
 521 00b0 20CCDEE7 		ldrb	ip, [lr, r0, lsr #24]	@ zero_extendqisi2
 704:D:/Work/DeviceTester/amazon-freertos/lib/third_party/mbedtls/library\aes.c ****                     AES_RT3( FSb[ ( *SK >> 24 ) & 0xFF ] );
 522              		.loc 1 704 0 discriminator 3
 523 00b4 055198E7 		ldr	r5, [r8, r5, lsl #2]
 524 00b8 0CC199E7 		ldr	ip, [r9, ip, lsl #2]
 525 00bc 0C5025E0 		eor	r5, r5, ip
 703:D:/Work/DeviceTester/amazon-freertos/lib/third_party/mbedtls/library\aes.c ****                     AES_RT2( FSb[ ( *SK >> 16 ) & 0xFF ] ) ^
 526              		.loc 1 703 0 discriminator 3
 527 00c0 50C4E7E7 		ubfx	ip, r0, #8, #8
 528 00c4 0CC0DEE7 		ldrb	ip, [lr, ip]	@ zero_extendqisi2
 704:D:/Work/DeviceTester/amazon-freertos/lib/third_party/mbedtls/library\aes.c ****                     AES_RT3( FSb[ ( *SK >> 24 ) & 0xFF ] );
 529              		.loc 1 704 0 discriminator 3
 530 00c8 5008E7E7 		ubfx	r0, r0, #16, #8
 531 00cc 0000DEE7 		ldrb	r0, [lr, r0]	@ zero_extendqisi2
 532 00d0 0CC19AE7 		ldr	ip, [r10, ip, lsl #2]
 533 00d4 05C02CE0 		eor	ip, ip, r5
 534 00d8 00519BE7 		ldr	r5, [fp, r0, lsl #2]
 700:D:/Work/DeviceTester/amazon-freertos/lib/third_party/mbedtls/library\aes.c ****         {
 535              		.loc 1 700 0 discriminator 3
 536 00dc 04009DE5 		ldr	r0, [sp, #4]
 704:D:/Work/DeviceTester/amazon-freertos/lib/third_party/mbedtls/library\aes.c ****                     AES_RT3( FSb[ ( *SK >> 24 ) & 0xFF ] );
 537              		.loc 1 704 0 discriminator 3
 538 00e0 05C02CE0 		eor	ip, ip, r5
 700:D:/Work/DeviceTester/amazon-freertos/lib/third_party/mbedtls/library\aes.c ****         {
 539              		.loc 1 700 0 discriminator 3
 540 00e4 040050E1 		cmp	r0, r4
 702:D:/Work/DeviceTester/amazon-freertos/lib/third_party/mbedtls/library\aes.c ****                     AES_RT1( FSb[ ( *SK >>  8 ) & 0xFF ] ) ^
 541              		.loc 1 702 0 discriminator 3
 542 00e8 04C0A6E5 		str	ip, [r6, #4]!
 543              	.LVL46:
 700:D:/Work/DeviceTester/amazon-freertos/lib/third_party/mbedtls/library\aes.c ****         {
 544              		.loc 1 700 0 discriminator 3
 545 00ec ECFFFF1A 		bne	.L35
 546 00f0 101081E2 		add	r1, r1, #16
 698:D:/Work/DeviceTester/amazon-freertos/lib/third_party/mbedtls/library\aes.c ****     {
 547              		.loc 1 698 0 discriminator 2
 548 00f4 012042E2 		sub	r2, r2, #1
 549              	.LVL47:
 550 00f8 103043E2 		sub	r3, r3, #16
 551              	.LVL48:
 552 00fc E2FFFFEA 		b	.L34
 553              	.LVL49:
 554              	.L36:
 706:D:/Work/DeviceTester/amazon-freertos/lib/third_party/mbedtls/library\aes.c ****         }
 707:D:/Work/DeviceTester/amazon-freertos/lib/third_party/mbedtls/library\aes.c ****     }
 708:D:/Work/DeviceTester/amazon-freertos/lib/third_party/mbedtls/library\aes.c **** 
 709:D:/Work/DeviceTester/amazon-freertos/lib/third_party/mbedtls/library\aes.c ****     *RK++ = *SK++;
 555              		.loc 1 709 0
 556 0100 002093E5 		ldr	r2, [r3]
 557              	.LVL50:
 558 0104 002081E5 		str	r2, [r1]
 559              	.LVL51:
 710:D:/Work/DeviceTester/amazon-freertos/lib/third_party/mbedtls/library\aes.c ****     *RK++ = *SK++;
 560              		.loc 1 710 0
 561 0108 042093E5 		ldr	r2, [r3, #4]
 562 010c 042081E5 		str	r2, [r1, #4]
 563              	.LVL52:
 711:D:/Work/DeviceTester/amazon-freertos/lib/third_party/mbedtls/library\aes.c ****     *RK++ = *SK++;
 564              		.loc 1 711 0
 565 0110 082093E5 		ldr	r2, [r3, #8]
 566 0114 082081E5 		str	r2, [r1, #8]
 567              	.LVL53:
 712:D:/Work/DeviceTester/amazon-freertos/lib/third_party/mbedtls/library\aes.c ****     *RK++ = *SK++;
 568              		.loc 1 712 0
 569 0118 0C3093E5 		ldr	r3, [r3, #12]
 570              	.LVL54:
 571 011c 0C3081E5 		str	r3, [r1, #12]
 572              	.LVL55:
 573              	.L33:
 713:D:/Work/DeviceTester/amazon-freertos/lib/third_party/mbedtls/library\aes.c **** 
 714:D:/Work/DeviceTester/amazon-freertos/lib/third_party/mbedtls/library\aes.c **** exit:
 715:D:/Work/DeviceTester/amazon-freertos/lib/third_party/mbedtls/library\aes.c ****     mbedtls_aes_free( &cty );
 574              		.loc 1 715 0
 575 0120 08008DE2 		add	r0, sp, #8
 576 0124 FEFFFFEB 		bl	mbedtls_aes_free
 577              	.LVL56:
 716:D:/Work/DeviceTester/amazon-freertos/lib/third_party/mbedtls/library\aes.c **** 
 717:D:/Work/DeviceTester/amazon-freertos/lib/third_party/mbedtls/library\aes.c ****     return( ret );
 718:D:/Work/DeviceTester/amazon-freertos/lib/third_party/mbedtls/library\aes.c **** }
 578              		.loc 1 718 0
 579 0128 0700A0E1 		mov	r0, r7
 580 012c 49DF8DE2 		add	sp, sp, #292
 581              		.cfi_def_cfa_offset 36
 582              		@ sp needed
 583 0130 F08FBDE8 		pop	{r4, r5, r6, r7, r8, r9, r10, fp, pc}
 584              	.LVL57:
 585              	.L40:
 586              		.align	2
 587              	.L39:
 588 0134 00000000 		.word	.LANCHOR2
 589 0138 00000000 		.word	.LANCHOR1
 590 013c 00000000 		.word	.LANCHOR3
 591 0140 00000000 		.word	.LANCHOR4
 592 0144 00000000 		.word	.LANCHOR5
 593              		.cfi_endproc
 594              	.LFE4:
 596              		.section	.text.mbedtls_internal_aes_encrypt,"ax",%progbits
 597              		.align	2
 598              		.global	mbedtls_internal_aes_encrypt
 599              		.syntax unified
 600              		.arm
 601              		.fpu neon
 603              	mbedtls_internal_aes_encrypt:
 604              	.LFB5:
 719:D:/Work/DeviceTester/amazon-freertos/lib/third_party/mbedtls/library\aes.c **** 
 720:D:/Work/DeviceTester/amazon-freertos/lib/third_party/mbedtls/library\aes.c **** #if defined(MBEDTLS_CIPHER_MODE_XTS)
 721:D:/Work/DeviceTester/amazon-freertos/lib/third_party/mbedtls/library\aes.c **** static int mbedtls_aes_xts_decode_keys( const unsigned char *key,
 722:D:/Work/DeviceTester/amazon-freertos/lib/third_party/mbedtls/library\aes.c ****                                         unsigned int keybits,
 723:D:/Work/DeviceTester/amazon-freertos/lib/third_party/mbedtls/library\aes.c ****                                         const unsigned char **key1,
 724:D:/Work/DeviceTester/amazon-freertos/lib/third_party/mbedtls/library\aes.c ****                                         unsigned int *key1bits,
 725:D:/Work/DeviceTester/amazon-freertos/lib/third_party/mbedtls/library\aes.c ****                                         const unsigned char **key2,
 726:D:/Work/DeviceTester/amazon-freertos/lib/third_party/mbedtls/library\aes.c ****                                         unsigned int *key2bits )
 727:D:/Work/DeviceTester/amazon-freertos/lib/third_party/mbedtls/library\aes.c **** {
 728:D:/Work/DeviceTester/amazon-freertos/lib/third_party/mbedtls/library\aes.c ****     const unsigned int half_keybits = keybits / 2;
 729:D:/Work/DeviceTester/amazon-freertos/lib/third_party/mbedtls/library\aes.c ****     const unsigned int half_keybytes = half_keybits / 8;
 730:D:/Work/DeviceTester/amazon-freertos/lib/third_party/mbedtls/library\aes.c **** 
 731:D:/Work/DeviceTester/amazon-freertos/lib/third_party/mbedtls/library\aes.c ****     switch( keybits )
 732:D:/Work/DeviceTester/amazon-freertos/lib/third_party/mbedtls/library\aes.c ****     {
 733:D:/Work/DeviceTester/amazon-freertos/lib/third_party/mbedtls/library\aes.c ****         case 256: break;
 734:D:/Work/DeviceTester/amazon-freertos/lib/third_party/mbedtls/library\aes.c ****         case 512: break;
 735:D:/Work/DeviceTester/amazon-freertos/lib/third_party/mbedtls/library\aes.c ****         default : return( MBEDTLS_ERR_AES_INVALID_KEY_LENGTH );
 736:D:/Work/DeviceTester/amazon-freertos/lib/third_party/mbedtls/library\aes.c ****     }
 737:D:/Work/DeviceTester/amazon-freertos/lib/third_party/mbedtls/library\aes.c **** 
 738:D:/Work/DeviceTester/amazon-freertos/lib/third_party/mbedtls/library\aes.c ****     *key1bits = half_keybits;
 739:D:/Work/DeviceTester/amazon-freertos/lib/third_party/mbedtls/library\aes.c ****     *key2bits = half_keybits;
 740:D:/Work/DeviceTester/amazon-freertos/lib/third_party/mbedtls/library\aes.c ****     *key1 = &key[0];
 741:D:/Work/DeviceTester/amazon-freertos/lib/third_party/mbedtls/library\aes.c ****     *key2 = &key[half_keybytes];
 742:D:/Work/DeviceTester/amazon-freertos/lib/third_party/mbedtls/library\aes.c **** 
 743:D:/Work/DeviceTester/amazon-freertos/lib/third_party/mbedtls/library\aes.c ****     return 0;
 744:D:/Work/DeviceTester/amazon-freertos/lib/third_party/mbedtls/library\aes.c **** }
 745:D:/Work/DeviceTester/amazon-freertos/lib/third_party/mbedtls/library\aes.c **** 
 746:D:/Work/DeviceTester/amazon-freertos/lib/third_party/mbedtls/library\aes.c **** int mbedtls_aes_xts_setkey_enc( mbedtls_aes_xts_context *ctx,
 747:D:/Work/DeviceTester/amazon-freertos/lib/third_party/mbedtls/library\aes.c ****                                 const unsigned char *key,
 748:D:/Work/DeviceTester/amazon-freertos/lib/third_party/mbedtls/library\aes.c ****                                 unsigned int keybits)
 749:D:/Work/DeviceTester/amazon-freertos/lib/third_party/mbedtls/library\aes.c **** {
 750:D:/Work/DeviceTester/amazon-freertos/lib/third_party/mbedtls/library\aes.c ****     int ret;
 751:D:/Work/DeviceTester/amazon-freertos/lib/third_party/mbedtls/library\aes.c ****     const unsigned char *key1, *key2;
 752:D:/Work/DeviceTester/amazon-freertos/lib/third_party/mbedtls/library\aes.c ****     unsigned int key1bits, key2bits;
 753:D:/Work/DeviceTester/amazon-freertos/lib/third_party/mbedtls/library\aes.c **** 
 754:D:/Work/DeviceTester/amazon-freertos/lib/third_party/mbedtls/library\aes.c ****     ret = mbedtls_aes_xts_decode_keys( key, keybits, &key1, &key1bits,
 755:D:/Work/DeviceTester/amazon-freertos/lib/third_party/mbedtls/library\aes.c ****                                        &key2, &key2bits );
 756:D:/Work/DeviceTester/amazon-freertos/lib/third_party/mbedtls/library\aes.c ****     if( ret != 0 )
 757:D:/Work/DeviceTester/amazon-freertos/lib/third_party/mbedtls/library\aes.c ****         return( ret );
 758:D:/Work/DeviceTester/amazon-freertos/lib/third_party/mbedtls/library\aes.c **** 
 759:D:/Work/DeviceTester/amazon-freertos/lib/third_party/mbedtls/library\aes.c ****     /* Set the tweak key. Always set tweak key for the encryption mode. */
 760:D:/Work/DeviceTester/amazon-freertos/lib/third_party/mbedtls/library\aes.c ****     ret = mbedtls_aes_setkey_enc( &ctx->tweak, key2, key2bits );
 761:D:/Work/DeviceTester/amazon-freertos/lib/third_party/mbedtls/library\aes.c ****     if( ret != 0 )
 762:D:/Work/DeviceTester/amazon-freertos/lib/third_party/mbedtls/library\aes.c ****         return( ret );
 763:D:/Work/DeviceTester/amazon-freertos/lib/third_party/mbedtls/library\aes.c **** 
 764:D:/Work/DeviceTester/amazon-freertos/lib/third_party/mbedtls/library\aes.c ****     /* Set crypt key for encryption. */
 765:D:/Work/DeviceTester/amazon-freertos/lib/third_party/mbedtls/library\aes.c ****     return mbedtls_aes_setkey_enc( &ctx->crypt, key1, key1bits );
 766:D:/Work/DeviceTester/amazon-freertos/lib/third_party/mbedtls/library\aes.c **** }
 767:D:/Work/DeviceTester/amazon-freertos/lib/third_party/mbedtls/library\aes.c **** 
 768:D:/Work/DeviceTester/amazon-freertos/lib/third_party/mbedtls/library\aes.c **** int mbedtls_aes_xts_setkey_dec( mbedtls_aes_xts_context *ctx,
 769:D:/Work/DeviceTester/amazon-freertos/lib/third_party/mbedtls/library\aes.c ****                                 const unsigned char *key,
 770:D:/Work/DeviceTester/amazon-freertos/lib/third_party/mbedtls/library\aes.c ****                                 unsigned int keybits)
 771:D:/Work/DeviceTester/amazon-freertos/lib/third_party/mbedtls/library\aes.c **** {
 772:D:/Work/DeviceTester/amazon-freertos/lib/third_party/mbedtls/library\aes.c ****     int ret;
 773:D:/Work/DeviceTester/amazon-freertos/lib/third_party/mbedtls/library\aes.c ****     const unsigned char *key1, *key2;
 774:D:/Work/DeviceTester/amazon-freertos/lib/third_party/mbedtls/library\aes.c ****     unsigned int key1bits, key2bits;
 775:D:/Work/DeviceTester/amazon-freertos/lib/third_party/mbedtls/library\aes.c **** 
 776:D:/Work/DeviceTester/amazon-freertos/lib/third_party/mbedtls/library\aes.c ****     ret = mbedtls_aes_xts_decode_keys( key, keybits, &key1, &key1bits,
 777:D:/Work/DeviceTester/amazon-freertos/lib/third_party/mbedtls/library\aes.c ****                                        &key2, &key2bits );
 778:D:/Work/DeviceTester/amazon-freertos/lib/third_party/mbedtls/library\aes.c ****     if( ret != 0 )
 779:D:/Work/DeviceTester/amazon-freertos/lib/third_party/mbedtls/library\aes.c ****         return( ret );
 780:D:/Work/DeviceTester/amazon-freertos/lib/third_party/mbedtls/library\aes.c **** 
 781:D:/Work/DeviceTester/amazon-freertos/lib/third_party/mbedtls/library\aes.c ****     /* Set the tweak key. Always set tweak key for encryption. */
 782:D:/Work/DeviceTester/amazon-freertos/lib/third_party/mbedtls/library\aes.c ****     ret = mbedtls_aes_setkey_enc( &ctx->tweak, key2, key2bits );
 783:D:/Work/DeviceTester/amazon-freertos/lib/third_party/mbedtls/library\aes.c ****     if( ret != 0 )
 784:D:/Work/DeviceTester/amazon-freertos/lib/third_party/mbedtls/library\aes.c ****         return( ret );
 785:D:/Work/DeviceTester/amazon-freertos/lib/third_party/mbedtls/library\aes.c **** 
 786:D:/Work/DeviceTester/amazon-freertos/lib/third_party/mbedtls/library\aes.c ****     /* Set crypt key for decryption. */
 787:D:/Work/DeviceTester/amazon-freertos/lib/third_party/mbedtls/library\aes.c ****     return mbedtls_aes_setkey_dec( &ctx->crypt, key1, key1bits );
 788:D:/Work/DeviceTester/amazon-freertos/lib/third_party/mbedtls/library\aes.c **** }
 789:D:/Work/DeviceTester/amazon-freertos/lib/third_party/mbedtls/library\aes.c **** #endif /* MBEDTLS_CIPHER_MODE_XTS */
 790:D:/Work/DeviceTester/amazon-freertos/lib/third_party/mbedtls/library\aes.c **** 
 791:D:/Work/DeviceTester/amazon-freertos/lib/third_party/mbedtls/library\aes.c **** #endif /* !MBEDTLS_AES_SETKEY_DEC_ALT */
 792:D:/Work/DeviceTester/amazon-freertos/lib/third_party/mbedtls/library\aes.c **** 
 793:D:/Work/DeviceTester/amazon-freertos/lib/third_party/mbedtls/library\aes.c **** #define AES_FROUND(X0,X1,X2,X3,Y0,Y1,Y2,Y3)         \
 794:D:/Work/DeviceTester/amazon-freertos/lib/third_party/mbedtls/library\aes.c **** {                                                   \
 795:D:/Work/DeviceTester/amazon-freertos/lib/third_party/mbedtls/library\aes.c ****     X0 = *RK++ ^ AES_FT0( ( Y0       ) & 0xFF ) ^   \
 796:D:/Work/DeviceTester/amazon-freertos/lib/third_party/mbedtls/library\aes.c ****                  AES_FT1( ( Y1 >>  8 ) & 0xFF ) ^   \
 797:D:/Work/DeviceTester/amazon-freertos/lib/third_party/mbedtls/library\aes.c ****                  AES_FT2( ( Y2 >> 16 ) & 0xFF ) ^   \
 798:D:/Work/DeviceTester/amazon-freertos/lib/third_party/mbedtls/library\aes.c ****                  AES_FT3( ( Y3 >> 24 ) & 0xFF );    \
 799:D:/Work/DeviceTester/amazon-freertos/lib/third_party/mbedtls/library\aes.c ****                                                     \
 800:D:/Work/DeviceTester/amazon-freertos/lib/third_party/mbedtls/library\aes.c ****     X1 = *RK++ ^ AES_FT0( ( Y1       ) & 0xFF ) ^   \
 801:D:/Work/DeviceTester/amazon-freertos/lib/third_party/mbedtls/library\aes.c ****                  AES_FT1( ( Y2 >>  8 ) & 0xFF ) ^   \
 802:D:/Work/DeviceTester/amazon-freertos/lib/third_party/mbedtls/library\aes.c ****                  AES_FT2( ( Y3 >> 16 ) & 0xFF ) ^   \
 803:D:/Work/DeviceTester/amazon-freertos/lib/third_party/mbedtls/library\aes.c ****                  AES_FT3( ( Y0 >> 24 ) & 0xFF );    \
 804:D:/Work/DeviceTester/amazon-freertos/lib/third_party/mbedtls/library\aes.c ****                                                     \
 805:D:/Work/DeviceTester/amazon-freertos/lib/third_party/mbedtls/library\aes.c ****     X2 = *RK++ ^ AES_FT0( ( Y2       ) & 0xFF ) ^   \
 806:D:/Work/DeviceTester/amazon-freertos/lib/third_party/mbedtls/library\aes.c ****                  AES_FT1( ( Y3 >>  8 ) & 0xFF ) ^   \
 807:D:/Work/DeviceTester/amazon-freertos/lib/third_party/mbedtls/library\aes.c ****                  AES_FT2( ( Y0 >> 16 ) & 0xFF ) ^   \
 808:D:/Work/DeviceTester/amazon-freertos/lib/third_party/mbedtls/library\aes.c ****                  AES_FT3( ( Y1 >> 24 ) & 0xFF );    \
 809:D:/Work/DeviceTester/amazon-freertos/lib/third_party/mbedtls/library\aes.c ****                                                     \
 810:D:/Work/DeviceTester/amazon-freertos/lib/third_party/mbedtls/library\aes.c ****     X3 = *RK++ ^ AES_FT0( ( Y3       ) & 0xFF ) ^   \
 811:D:/Work/DeviceTester/amazon-freertos/lib/third_party/mbedtls/library\aes.c ****                  AES_FT1( ( Y0 >>  8 ) & 0xFF ) ^   \
 812:D:/Work/DeviceTester/amazon-freertos/lib/third_party/mbedtls/library\aes.c ****                  AES_FT2( ( Y1 >> 16 ) & 0xFF ) ^   \
 813:D:/Work/DeviceTester/amazon-freertos/lib/third_party/mbedtls/library\aes.c ****                  AES_FT3( ( Y2 >> 24 ) & 0xFF );    \
 814:D:/Work/DeviceTester/amazon-freertos/lib/third_party/mbedtls/library\aes.c **** }
 815:D:/Work/DeviceTester/amazon-freertos/lib/third_party/mbedtls/library\aes.c **** 
 816:D:/Work/DeviceTester/amazon-freertos/lib/third_party/mbedtls/library\aes.c **** #define AES_RROUND(X0,X1,X2,X3,Y0,Y1,Y2,Y3)         \
 817:D:/Work/DeviceTester/amazon-freertos/lib/third_party/mbedtls/library\aes.c **** {                                                   \
 818:D:/Work/DeviceTester/amazon-freertos/lib/third_party/mbedtls/library\aes.c ****     X0 = *RK++ ^ AES_RT0( ( Y0       ) & 0xFF ) ^   \
 819:D:/Work/DeviceTester/amazon-freertos/lib/third_party/mbedtls/library\aes.c ****                  AES_RT1( ( Y3 >>  8 ) & 0xFF ) ^   \
 820:D:/Work/DeviceTester/amazon-freertos/lib/third_party/mbedtls/library\aes.c ****                  AES_RT2( ( Y2 >> 16 ) & 0xFF ) ^   \
 821:D:/Work/DeviceTester/amazon-freertos/lib/third_party/mbedtls/library\aes.c ****                  AES_RT3( ( Y1 >> 24 ) & 0xFF );    \
 822:D:/Work/DeviceTester/amazon-freertos/lib/third_party/mbedtls/library\aes.c ****                                                     \
 823:D:/Work/DeviceTester/amazon-freertos/lib/third_party/mbedtls/library\aes.c ****     X1 = *RK++ ^ AES_RT0( ( Y1       ) & 0xFF ) ^   \
 824:D:/Work/DeviceTester/amazon-freertos/lib/third_party/mbedtls/library\aes.c ****                  AES_RT1( ( Y0 >>  8 ) & 0xFF ) ^   \
 825:D:/Work/DeviceTester/amazon-freertos/lib/third_party/mbedtls/library\aes.c ****                  AES_RT2( ( Y3 >> 16 ) & 0xFF ) ^   \
 826:D:/Work/DeviceTester/amazon-freertos/lib/third_party/mbedtls/library\aes.c ****                  AES_RT3( ( Y2 >> 24 ) & 0xFF );    \
 827:D:/Work/DeviceTester/amazon-freertos/lib/third_party/mbedtls/library\aes.c ****                                                     \
 828:D:/Work/DeviceTester/amazon-freertos/lib/third_party/mbedtls/library\aes.c ****     X2 = *RK++ ^ AES_RT0( ( Y2       ) & 0xFF ) ^   \
 829:D:/Work/DeviceTester/amazon-freertos/lib/third_party/mbedtls/library\aes.c ****                  AES_RT1( ( Y1 >>  8 ) & 0xFF ) ^   \
 830:D:/Work/DeviceTester/amazon-freertos/lib/third_party/mbedtls/library\aes.c ****                  AES_RT2( ( Y0 >> 16 ) & 0xFF ) ^   \
 831:D:/Work/DeviceTester/amazon-freertos/lib/third_party/mbedtls/library\aes.c ****                  AES_RT3( ( Y3 >> 24 ) & 0xFF );    \
 832:D:/Work/DeviceTester/amazon-freertos/lib/third_party/mbedtls/library\aes.c ****                                                     \
 833:D:/Work/DeviceTester/amazon-freertos/lib/third_party/mbedtls/library\aes.c ****     X3 = *RK++ ^ AES_RT0( ( Y3       ) & 0xFF ) ^   \
 834:D:/Work/DeviceTester/amazon-freertos/lib/third_party/mbedtls/library\aes.c ****                  AES_RT1( ( Y2 >>  8 ) & 0xFF ) ^   \
 835:D:/Work/DeviceTester/amazon-freertos/lib/third_party/mbedtls/library\aes.c ****                  AES_RT2( ( Y1 >> 16 ) & 0xFF ) ^   \
 836:D:/Work/DeviceTester/amazon-freertos/lib/third_party/mbedtls/library\aes.c ****                  AES_RT3( ( Y0 >> 24 ) & 0xFF );    \
 837:D:/Work/DeviceTester/amazon-freertos/lib/third_party/mbedtls/library\aes.c **** }
 838:D:/Work/DeviceTester/amazon-freertos/lib/third_party/mbedtls/library\aes.c **** 
 839:D:/Work/DeviceTester/amazon-freertos/lib/third_party/mbedtls/library\aes.c **** /*
 840:D:/Work/DeviceTester/amazon-freertos/lib/third_party/mbedtls/library\aes.c ****  * AES-ECB block encryption
 841:D:/Work/DeviceTester/amazon-freertos/lib/third_party/mbedtls/library\aes.c ****  */
 842:D:/Work/DeviceTester/amazon-freertos/lib/third_party/mbedtls/library\aes.c **** #if !defined(MBEDTLS_AES_ENCRYPT_ALT)
 843:D:/Work/DeviceTester/amazon-freertos/lib/third_party/mbedtls/library\aes.c **** int mbedtls_internal_aes_encrypt( mbedtls_aes_context *ctx,
 844:D:/Work/DeviceTester/amazon-freertos/lib/third_party/mbedtls/library\aes.c ****                                   const unsigned char input[16],
 845:D:/Work/DeviceTester/amazon-freertos/lib/third_party/mbedtls/library\aes.c ****                                   unsigned char output[16] )
 846:D:/Work/DeviceTester/amazon-freertos/lib/third_party/mbedtls/library\aes.c **** {
 605              		.loc 1 846 0
 606              		.cfi_startproc
 607              		@ args = 0, pretend = 0, frame = 8
 608              		@ frame_needed = 0, uses_anonymous_args = 0
 609              	.LVL58:
 610 0000 F74F2DE9 		push	{r0, r1, r2, r4, r5, r6, r7, r8, r9, r10, fp, lr}
 611              		.cfi_def_cfa_offset 48
 612              		.cfi_offset 4, -36
 613              		.cfi_offset 5, -32
 614              		.cfi_offset 6, -28
 615              		.cfi_offset 7, -24
 616              		.cfi_offset 8, -20
 617              		.cfi_offset 9, -16
 618              		.cfi_offset 10, -12
 619              		.cfi_offset 11, -8
 620              		.cfi_offset 14, -4
 847:D:/Work/DeviceTester/amazon-freertos/lib/third_party/mbedtls/library\aes.c ****     int i;
 848:D:/Work/DeviceTester/amazon-freertos/lib/third_party/mbedtls/library\aes.c ****     uint32_t *RK, X0, X1, X2, X3, Y0, Y1, Y2, Y3;
 849:D:/Work/DeviceTester/amazon-freertos/lib/third_party/mbedtls/library\aes.c **** 
 850:D:/Work/DeviceTester/amazon-freertos/lib/third_party/mbedtls/library\aes.c ****     RK = ctx->rk;
 851:D:/Work/DeviceTester/amazon-freertos/lib/third_party/mbedtls/library\aes.c **** 
 852:D:/Work/DeviceTester/amazon-freertos/lib/third_party/mbedtls/library\aes.c ****     GET_UINT32_LE( X0, input,  0 ); X0 ^= *RK++;
 621              		.loc 1 852 0
 622 0004 0130D1E5 		ldrb	r3, [r1, #1]	@ zero_extendqisi2
 623 0008 00E0D1E5 		ldrb	lr, [r1]	@ zero_extendqisi2
 850:D:/Work/DeviceTester/amazon-freertos/lib/third_party/mbedtls/library\aes.c **** 
 624              		.loc 1 850 0
 625 000c 045090E5 		ldr	r5, [r0, #4]
 626              	.LVL59:
 853:D:/Work/DeviceTester/amazon-freertos/lib/third_party/mbedtls/library\aes.c ****     GET_UINT32_LE( X1, input,  4 ); X1 ^= *RK++;
 627              		.loc 1 853 0
 628 0010 05C0D1E5 		ldrb	ip, [r1, #5]	@ zero_extendqisi2
 854:D:/Work/DeviceTester/amazon-freertos/lib/third_party/mbedtls/library\aes.c ****     GET_UINT32_LE( X2, input,  8 ); X2 ^= *RK++;
 629              		.loc 1 854 0
 630 0014 0940D1E5 		ldrb	r4, [r1, #9]	@ zero_extendqisi2
 852:D:/Work/DeviceTester/amazon-freertos/lib/third_party/mbedtls/library\aes.c ****     GET_UINT32_LE( X1, input,  4 ); X1 ^= *RK++;
 631              		.loc 1 852 0
 632 0018 03E48EE1 		orr	lr, lr, r3, lsl #8
 633 001c 0230D1E5 		ldrb	r3, [r1, #2]	@ zero_extendqisi2
 855:D:/Work/DeviceTester/amazon-freertos/lib/third_party/mbedtls/library\aes.c ****     GET_UINT32_LE( X3, input, 12 ); X3 ^= *RK++;
 634              		.loc 1 855 0
 635 0020 0D60D1E5 		ldrb	r6, [r1, #13]	@ zero_extendqisi2
 856:D:/Work/DeviceTester/amazon-freertos/lib/third_party/mbedtls/library\aes.c **** 
 857:D:/Work/DeviceTester/amazon-freertos/lib/third_party/mbedtls/library\aes.c ****     for( i = ( ctx->nr >> 1 ) - 1; i > 0; i-- )
 636              		.loc 1 857 0
 637 0024 000090E5 		ldr	r0, [r0]
 638              	.LVL60:
 639 0028 64849FE5 		ldr	r8, .L45
 852:D:/Work/DeviceTester/amazon-freertos/lib/third_party/mbedtls/library\aes.c ****     GET_UINT32_LE( X1, input,  4 ); X1 ^= *RK++;
 640              		.loc 1 852 0
 641 002c 03E88EE1 		orr	lr, lr, r3, lsl #16
 642 0030 0330D1E5 		ldrb	r3, [r1, #3]	@ zero_extendqisi2
 643 0034 5C749FE5 		ldr	r7, .L45+4
 644              		.loc 1 857 0
 645 0038 C000A0E1 		asr	r0, r0, #1
 858:D:/Work/DeviceTester/amazon-freertos/lib/third_party/mbedtls/library\aes.c ****     {
 859:D:/Work/DeviceTester/amazon-freertos/lib/third_party/mbedtls/library\aes.c ****         AES_FROUND( Y0, Y1, Y2, Y3, X0, X1, X2, X3 );
 646              		.loc 1 859 0
 647 003c 58949FE5 		ldr	r9, .L45+8
 648 0040 58A49FE5 		ldr	r10, .L45+12
 852:D:/Work/DeviceTester/amazon-freertos/lib/third_party/mbedtls/library\aes.c ****     GET_UINT32_LE( X1, input,  4 ); X1 ^= *RK++;
 649              		.loc 1 852 0
 650 0044 03EC8EE1 		orr	lr, lr, r3, lsl #24
 651              	.LVL61:
 652 0048 003095E5 		ldr	r3, [r5]
 857:D:/Work/DeviceTester/amazon-freertos/lib/third_party/mbedtls/library\aes.c ****     {
 653              		.loc 1 857 0
 654 004c 010040E2 		sub	r0, r0, #1
 655 0050 04008DE5 		str	r0, [sp, #4]
 855:D:/Work/DeviceTester/amazon-freertos/lib/third_party/mbedtls/library\aes.c **** 
 656              		.loc 1 855 0
 657 0054 0500A0E1 		mov	r0, r5
 852:D:/Work/DeviceTester/amazon-freertos/lib/third_party/mbedtls/library\aes.c ****     GET_UINT32_LE( X1, input,  4 ); X1 ^= *RK++;
 658              		.loc 1 852 0
 659 0058 03E02EE0 		eor	lr, lr, r3
 660              	.LVL62:
 853:D:/Work/DeviceTester/amazon-freertos/lib/third_party/mbedtls/library\aes.c ****     GET_UINT32_LE( X2, input,  8 ); X2 ^= *RK++;
 661              		.loc 1 853 0
 662 005c 0430D1E5 		ldrb	r3, [r1, #4]	@ zero_extendqisi2
 663 0060 0C3483E1 		orr	r3, r3, ip, lsl #8
 664 0064 06C0D1E5 		ldrb	ip, [r1, #6]	@ zero_extendqisi2
 665 0068 0C3883E1 		orr	r3, r3, ip, lsl #16
 666 006c 07C0D1E5 		ldrb	ip, [r1, #7]	@ zero_extendqisi2
 667 0070 0C3C83E1 		orr	r3, r3, ip, lsl #24
 668              	.LVL63:
 669 0074 04C095E5 		ldr	ip, [r5, #4]
 670 0078 0C3023E0 		eor	r3, r3, ip
 671              	.LVL64:
 854:D:/Work/DeviceTester/amazon-freertos/lib/third_party/mbedtls/library\aes.c ****     GET_UINT32_LE( X3, input, 12 ); X3 ^= *RK++;
 672              		.loc 1 854 0
 673 007c 08C0D1E5 		ldrb	ip, [r1, #8]	@ zero_extendqisi2
 674 0080 04C48CE1 		orr	ip, ip, r4, lsl #8
 675 0084 0A40D1E5 		ldrb	r4, [r1, #10]	@ zero_extendqisi2
 676 0088 04C88CE1 		orr	ip, ip, r4, lsl #16
 677 008c 0B40D1E5 		ldrb	r4, [r1, #11]	@ zero_extendqisi2
 678 0090 04CC8CE1 		orr	ip, ip, r4, lsl #24
 679              	.LVL65:
 680 0094 084095E5 		ldr	r4, [r5, #8]
 681 0098 04C02CE0 		eor	ip, ip, r4
 682              	.LVL66:
 855:D:/Work/DeviceTester/amazon-freertos/lib/third_party/mbedtls/library\aes.c **** 
 683              		.loc 1 855 0
 684 009c 0C40D1E5 		ldrb	r4, [r1, #12]	@ zero_extendqisi2
 685 00a0 064484E1 		orr	r4, r4, r6, lsl #8
 686 00a4 0E60D1E5 		ldrb	r6, [r1, #14]	@ zero_extendqisi2
 687 00a8 0F10D1E5 		ldrb	r1, [r1, #15]	@ zero_extendqisi2
 688              	.LVL67:
 689 00ac 064884E1 		orr	r4, r4, r6, lsl #16
 690 00b0 011C84E1 		orr	r1, r4, r1, lsl #24
 691              	.LVL68:
 692 00b4 0C4095E5 		ldr	r4, [r5, #12]
 693 00b8 1050B0E5 		ldr	r5, [r0, #16]!
 694              	.LVL69:
 695 00bc 041021E0 		eor	r1, r1, r4
 696              	.LVL70:
 697              	.L42:
 857:D:/Work/DeviceTester/amazon-freertos/lib/third_party/mbedtls/library\aes.c ****     {
 698              		.loc 1 857 0 discriminator 1
 699 00c0 04609DE5 		ldr	r6, [sp, #4]
 700 00c4 0040A0E1 		mov	r4, r0
 701              	.LVL71:
 702 00c8 7EB0EFE6 		uxtb	fp, lr
 703 00cc 200080E2 		add	r0, r0, #32
 704 00d0 000056E3 		cmp	r6, #0
 705 00d4 216CA0E1 		lsr	r6, r1, #24
 706              	.LVL72:
 707 00d8 820000CA 		bgt	.L43
 708              	.LVL73:
 860:D:/Work/DeviceTester/amazon-freertos/lib/third_party/mbedtls/library\aes.c ****         AES_FROUND( X0, X1, X2, X3, Y0, Y1, Y2, Y3 );
 861:D:/Work/DeviceTester/amazon-freertos/lib/third_party/mbedtls/library\aes.c ****     }
 862:D:/Work/DeviceTester/amazon-freertos/lib/third_party/mbedtls/library\aes.c **** 
 863:D:/Work/DeviceTester/amazon-freertos/lib/third_party/mbedtls/library\aes.c ****     AES_FROUND( Y0, Y1, Y2, Y3, X0, X1, X2, X3 );
 709              		.loc 1 863 0
 710 00dc 0B0198E7 		ldr	r0, [r8, fp, lsl #2]
 711 00e0 23BCA0E1 		lsr	fp, r3, #24
 712 00e4 066197E7 		ldr	r6, [r7, r6, lsl #2]
 713 00e8 ACA39FE5 		ldr	r10, .L45+8
 714 00ec AC939FE5 		ldr	r9, .L45+12
 715 00f0 060020E0 		eor	r0, r0, r6
 716 00f4 2E6CA0E1 		lsr	r6, lr, #24
 717 00f8 005025E0 		eor	r5, r5, r0
 718 00fc 0BB197E7 		ldr	fp, [r7, fp, lsl #2]
 719 0100 5304E7E7 		ubfx	r0, r3, #8, #8
 720 0104 066197E7 		ldr	r6, [r7, r6, lsl #2]
 721 0108 00019AE7 		ldr	r0, [r10, r0, lsl #2]
 722 010c 005025E0 		eor	r5, r5, r0
 723 0110 5C08E7E7 		ubfx	r0, ip, #16, #8
 724 0114 000199E7 		ldr	r0, [r9, r0, lsl #2]
 725 0118 005025E0 		eor	r5, r5, r0
 726              	.LVL74:
 727 011c 7300EFE6 		uxtb	r0, r3
 728 0120 5338E7E7 		ubfx	r3, r3, #16, #8
 729              	.LVL75:
 730 0124 000198E7 		ldr	r0, [r8, r0, lsl #2]
 731 0128 033199E7 		ldr	r3, [r9, r3, lsl #2]
 732 012c 060020E0 		eor	r0, r0, r6
 733 0130 046094E5 		ldr	r6, [r4, #4]
 734 0134 060020E0 		eor	r0, r0, r6
 735 0138 5C64E7E7 		ubfx	r6, ip, #8, #8
 736 013c 06619AE7 		ldr	r6, [r10, r6, lsl #2]
 737 0140 060020E0 		eor	r0, r0, r6
 738 0144 5168E7E7 		ubfx	r6, r1, #16, #8
 739 0148 066199E7 		ldr	r6, [r9, r6, lsl #2]
 740 014c 060020E0 		eor	r0, r0, r6
 741              	.LVL76:
 742 0150 7C60EFE6 		uxtb	r6, ip
 743 0154 2CCCA0E1 		lsr	ip, ip, #24
 744              	.LVL77:
 745 0158 066198E7 		ldr	r6, [r8, r6, lsl #2]
 746 015c 0CC197E7 		ldr	ip, [r7, ip, lsl #2]
 747 0160 0B6026E0 		eor	r6, r6, fp
 748 0164 08B094E5 		ldr	fp, [r4, #8]
 749 0168 0B6026E0 		eor	r6, r6, fp
 750 016c 51B4E7E7 		ubfx	fp, r1, #8, #8
 751 0170 7110EFE6 		uxtb	r1, r1
 752              	.LVL78:
 753 0174 0BB19AE7 		ldr	fp, [r10, fp, lsl #2]
 754 0178 011198E7 		ldr	r1, [r8, r1, lsl #2]
 755 017c 0B6026E0 		eor	r6, r6, fp
 756 0180 5EB8E7E7 		ubfx	fp, lr, #16, #8
 757 0184 5EE4E7E7 		ubfx	lr, lr, #8, #8
 758              	.LVL79:
 759 0188 0BB199E7 		ldr	fp, [r9, fp, lsl #2]
 760 018c 0C1021E0 		eor	r1, r1, ip
 761 0190 0CC094E5 		ldr	ip, [r4, #12]
 864:D:/Work/DeviceTester/amazon-freertos/lib/third_party/mbedtls/library\aes.c **** 
 865:D:/Work/DeviceTester/amazon-freertos/lib/third_party/mbedtls/library\aes.c ****     X0 = *RK++ ^ \
 866:D:/Work/DeviceTester/amazon-freertos/lib/third_party/mbedtls/library\aes.c ****             ( (uint32_t) FSb[ ( Y0       ) & 0xFF ]       ) ^
 867:D:/Work/DeviceTester/amazon-freertos/lib/third_party/mbedtls/library\aes.c ****             ( (uint32_t) FSb[ ( Y1 >>  8 ) & 0xFF ] <<  8 ) ^
 868:D:/Work/DeviceTester/amazon-freertos/lib/third_party/mbedtls/library\aes.c ****             ( (uint32_t) FSb[ ( Y2 >> 16 ) & 0xFF ] << 16 ) ^
 869:D:/Work/DeviceTester/amazon-freertos/lib/third_party/mbedtls/library\aes.c ****             ( (uint32_t) FSb[ ( Y3 >> 24 ) & 0xFF ] << 24 );
 870:D:/Work/DeviceTester/amazon-freertos/lib/third_party/mbedtls/library\aes.c **** 
 871:D:/Work/DeviceTester/amazon-freertos/lib/third_party/mbedtls/library\aes.c ****     X1 = *RK++ ^ \
 872:D:/Work/DeviceTester/amazon-freertos/lib/third_party/mbedtls/library\aes.c ****             ( (uint32_t) FSb[ ( Y1       ) & 0xFF ]       ) ^
 873:D:/Work/DeviceTester/amazon-freertos/lib/third_party/mbedtls/library\aes.c ****             ( (uint32_t) FSb[ ( Y2 >>  8 ) & 0xFF ] <<  8 ) ^
 874:D:/Work/DeviceTester/amazon-freertos/lib/third_party/mbedtls/library\aes.c ****             ( (uint32_t) FSb[ ( Y3 >> 16 ) & 0xFF ] << 16 ) ^
 875:D:/Work/DeviceTester/amazon-freertos/lib/third_party/mbedtls/library\aes.c ****             ( (uint32_t) FSb[ ( Y0 >> 24 ) & 0xFF ] << 24 );
 876:D:/Work/DeviceTester/amazon-freertos/lib/third_party/mbedtls/library\aes.c **** 
 877:D:/Work/DeviceTester/amazon-freertos/lib/third_party/mbedtls/library\aes.c ****     X2 = *RK++ ^ \
 762              		.loc 1 877 0
 763 0194 188094E5 		ldr	r8, [r4, #24]
 863:D:/Work/DeviceTester/amazon-freertos/lib/third_party/mbedtls/library\aes.c **** 
 764              		.loc 1 863 0
 765 0198 0B6026E0 		eor	r6, r6, fp
 766              	.LVL80:
 767 019c 0C1021E0 		eor	r1, r1, ip
 768 01a0 0EC19AE7 		ldr	ip, [r10, lr, lsl #2]
 769 01a4 0C1021E0 		eor	r1, r1, ip
 866:D:/Work/DeviceTester/amazon-freertos/lib/third_party/mbedtls/library\aes.c ****             ( (uint32_t) FSb[ ( Y1 >>  8 ) & 0xFF ] <<  8 ) ^
 770              		.loc 1 866 0
 771 01a8 75C0EFE6 		uxtb	ip, r5
 863:D:/Work/DeviceTester/amazon-freertos/lib/third_party/mbedtls/library\aes.c **** 
 772              		.loc 1 863 0
 773 01ac 031021E0 		eor	r1, r1, r3
 774              	.LVL81:
 866:D:/Work/DeviceTester/amazon-freertos/lib/third_party/mbedtls/library\aes.c ****             ( (uint32_t) FSb[ ( Y1 >>  8 ) & 0xFF ] <<  8 ) ^
 775              		.loc 1 866 0
 776 01b0 EC329FE5 		ldr	r3, .L45+16
 777 01b4 0C70D3E7 		ldrb	r7, [r3, ip]	@ zero_extendqisi2
 865:D:/Work/DeviceTester/amazon-freertos/lib/third_party/mbedtls/library\aes.c ****             ( (uint32_t) FSb[ ( Y0       ) & 0xFF ]       ) ^
 778              		.loc 1 865 0
 779 01b8 10C094E5 		ldr	ip, [r4, #16]
 780 01bc 0C7027E0 		eor	r7, r7, ip
 869:D:/Work/DeviceTester/amazon-freertos/lib/third_party/mbedtls/library\aes.c **** 
 781              		.loc 1 869 0
 782 01c0 21CCD3E7 		ldrb	ip, [r3, r1, lsr #24]	@ zero_extendqisi2
 865:D:/Work/DeviceTester/amazon-freertos/lib/third_party/mbedtls/library\aes.c ****             ( (uint32_t) FSb[ ( Y0       ) & 0xFF ]       ) ^
 783              		.loc 1 865 0
 784 01c4 0C7C27E0 		eor	r7, r7, ip, lsl #24
 867:D:/Work/DeviceTester/amazon-freertos/lib/third_party/mbedtls/library\aes.c ****             ( (uint32_t) FSb[ ( Y2 >> 16 ) & 0xFF ] << 16 ) ^
 785              		.loc 1 867 0
 786 01c8 50C4E7E7 		ubfx	ip, r0, #8, #8
 787 01cc 0CC0D3E7 		ldrb	ip, [r3, ip]	@ zero_extendqisi2
 865:D:/Work/DeviceTester/amazon-freertos/lib/third_party/mbedtls/library\aes.c ****             ( (uint32_t) FSb[ ( Y0       ) & 0xFF ]       ) ^
 788              		.loc 1 865 0
 789 01d0 0C7427E0 		eor	r7, r7, ip, lsl #8
 868:D:/Work/DeviceTester/amazon-freertos/lib/third_party/mbedtls/library\aes.c ****             ( (uint32_t) FSb[ ( Y3 >> 24 ) & 0xFF ] << 24 );
 790              		.loc 1 868 0
 791 01d4 56C8E7E7 		ubfx	ip, r6, #16, #8
 792 01d8 0CC0D3E7 		ldrb	ip, [r3, ip]	@ zero_extendqisi2
 865:D:/Work/DeviceTester/amazon-freertos/lib/third_party/mbedtls/library\aes.c ****             ( (uint32_t) FSb[ ( Y0       ) & 0xFF ]       ) ^
 793              		.loc 1 865 0
 794 01dc 0C7827E0 		eor	r7, r7, ip, lsl #16
 795              	.LVL82:
 872:D:/Work/DeviceTester/amazon-freertos/lib/third_party/mbedtls/library\aes.c ****             ( (uint32_t) FSb[ ( Y2 >>  8 ) & 0xFF ] <<  8 ) ^
 796              		.loc 1 872 0
 797 01e0 70C0EFE6 		uxtb	ip, r0
 798 01e4 0CE0D3E7 		ldrb	lr, [r3, ip]	@ zero_extendqisi2
 871:D:/Work/DeviceTester/amazon-freertos/lib/third_party/mbedtls/library\aes.c ****             ( (uint32_t) FSb[ ( Y1       ) & 0xFF ]       ) ^
 799              		.loc 1 871 0
 800 01e8 14C094E5 		ldr	ip, [r4, #20]
 801 01ec 0CE02EE0 		eor	lr, lr, ip
 875:D:/Work/DeviceTester/amazon-freertos/lib/third_party/mbedtls/library\aes.c **** 
 802              		.loc 1 875 0
 803 01f0 25CCD3E7 		ldrb	ip, [r3, r5, lsr #24]	@ zero_extendqisi2
 871:D:/Work/DeviceTester/amazon-freertos/lib/third_party/mbedtls/library\aes.c ****             ( (uint32_t) FSb[ ( Y1       ) & 0xFF ]       ) ^
 804              		.loc 1 871 0
 805 01f4 0CEC2EE0 		eor	lr, lr, ip, lsl #24
 873:D:/Work/DeviceTester/amazon-freertos/lib/third_party/mbedtls/library\aes.c ****             ( (uint32_t) FSb[ ( Y3 >> 16 ) & 0xFF ] << 16 ) ^
 806              		.loc 1 873 0
 807 01f8 56C4E7E7 		ubfx	ip, r6, #8, #8
 808 01fc 0CC0D3E7 		ldrb	ip, [r3, ip]	@ zero_extendqisi2
 871:D:/Work/DeviceTester/amazon-freertos/lib/third_party/mbedtls/library\aes.c ****             ( (uint32_t) FSb[ ( Y1       ) & 0xFF ]       ) ^
 809              		.loc 1 871 0
 810 0200 0CE42EE0 		eor	lr, lr, ip, lsl #8
 874:D:/Work/DeviceTester/amazon-freertos/lib/third_party/mbedtls/library\aes.c ****             ( (uint32_t) FSb[ ( Y0 >> 24 ) & 0xFF ] << 24 );
 811              		.loc 1 874 0
 812 0204 51C8E7E7 		ubfx	ip, r1, #16, #8
 813 0208 0CC0D3E7 		ldrb	ip, [r3, ip]	@ zero_extendqisi2
 871:D:/Work/DeviceTester/amazon-freertos/lib/third_party/mbedtls/library\aes.c ****             ( (uint32_t) FSb[ ( Y1       ) & 0xFF ]       ) ^
 814              		.loc 1 871 0
 815 020c 0CE82EE0 		eor	lr, lr, ip, lsl #16
 816              	.LVL83:
 878:D:/Work/DeviceTester/amazon-freertos/lib/third_party/mbedtls/library\aes.c ****             ( (uint32_t) FSb[ ( Y2       ) & 0xFF ]       ) ^
 817              		.loc 1 878 0
 818 0210 76C0EFE6 		uxtb	ip, r6
 819 0214 0CC0D3E7 		ldrb	ip, [r3, ip]	@ zero_extendqisi2
 877:D:/Work/DeviceTester/amazon-freertos/lib/third_party/mbedtls/library\aes.c ****             ( (uint32_t) FSb[ ( Y2       ) & 0xFF ]       ) ^
 820              		.loc 1 877 0
 821 0218 08C02CE0 		eor	ip, ip, r8
 879:D:/Work/DeviceTester/amazon-freertos/lib/third_party/mbedtls/library\aes.c ****             ( (uint32_t) FSb[ ( Y3 >>  8 ) & 0xFF ] <<  8 ) ^
 880:D:/Work/DeviceTester/amazon-freertos/lib/third_party/mbedtls/library\aes.c ****             ( (uint32_t) FSb[ ( Y0 >> 16 ) & 0xFF ] << 16 ) ^
 881:D:/Work/DeviceTester/amazon-freertos/lib/third_party/mbedtls/library\aes.c ****             ( (uint32_t) FSb[ ( Y1 >> 24 ) & 0xFF ] << 24 );
 822              		.loc 1 881 0
 823 021c 208CD3E7 		ldrb	r8, [r3, r0, lsr #24]	@ zero_extendqisi2
 882:D:/Work/DeviceTester/amazon-freertos/lib/third_party/mbedtls/library\aes.c **** 
 883:D:/Work/DeviceTester/amazon-freertos/lib/third_party/mbedtls/library\aes.c ****     X3 = *RK++ ^ \
 884:D:/Work/DeviceTester/amazon-freertos/lib/third_party/mbedtls/library\aes.c ****             ( (uint32_t) FSb[ ( Y3       ) & 0xFF ]       ) ^
 885:D:/Work/DeviceTester/amazon-freertos/lib/third_party/mbedtls/library\aes.c ****             ( (uint32_t) FSb[ ( Y0 >>  8 ) & 0xFF ] <<  8 ) ^
 886:D:/Work/DeviceTester/amazon-freertos/lib/third_party/mbedtls/library\aes.c ****             ( (uint32_t) FSb[ ( Y1 >> 16 ) & 0xFF ] << 16 ) ^
 824              		.loc 1 886 0
 825 0220 5008E7E7 		ubfx	r0, r0, #16, #8
 826              	.LVL84:
 877:D:/Work/DeviceTester/amazon-freertos/lib/third_party/mbedtls/library\aes.c ****             ( (uint32_t) FSb[ ( Y2       ) & 0xFF ]       ) ^
 827              		.loc 1 877 0
 828 0224 08CC2CE0 		eor	ip, ip, r8, lsl #24
 879:D:/Work/DeviceTester/amazon-freertos/lib/third_party/mbedtls/library\aes.c ****             ( (uint32_t) FSb[ ( Y3 >>  8 ) & 0xFF ] <<  8 ) ^
 829              		.loc 1 879 0
 830 0228 5184E7E7 		ubfx	r8, r1, #8, #8
 884:D:/Work/DeviceTester/amazon-freertos/lib/third_party/mbedtls/library\aes.c ****             ( (uint32_t) FSb[ ( Y0 >>  8 ) & 0xFF ] <<  8 ) ^
 831              		.loc 1 884 0
 832 022c 7110EFE6 		uxtb	r1, r1
 833              	.LVL85:
 879:D:/Work/DeviceTester/amazon-freertos/lib/third_party/mbedtls/library\aes.c ****             ( (uint32_t) FSb[ ( Y0 >> 16 ) & 0xFF ] << 16 ) ^
 834              		.loc 1 879 0
 835 0230 0880D3E7 		ldrb	r8, [r3, r8]	@ zero_extendqisi2
 883:D:/Work/DeviceTester/amazon-freertos/lib/third_party/mbedtls/library\aes.c ****             ( (uint32_t) FSb[ ( Y3       ) & 0xFF ]       ) ^
 836              		.loc 1 883 0
 837 0234 1C4094E5 		ldr	r4, [r4, #28]
 838              	.LVL86:
 884:D:/Work/DeviceTester/amazon-freertos/lib/third_party/mbedtls/library\aes.c ****             ( (uint32_t) FSb[ ( Y0 >>  8 ) & 0xFF ] <<  8 ) ^
 839              		.loc 1 884 0
 840 0238 0110D3E7 		ldrb	r1, [r3, r1]	@ zero_extendqisi2
 887:D:/Work/DeviceTester/amazon-freertos/lib/third_party/mbedtls/library\aes.c ****             ( (uint32_t) FSb[ ( Y2 >> 24 ) & 0xFF ] << 24 );
 888:D:/Work/DeviceTester/amazon-freertos/lib/third_party/mbedtls/library\aes.c **** 
 889:D:/Work/DeviceTester/amazon-freertos/lib/third_party/mbedtls/library\aes.c ****     PUT_UINT32_LE( X0, output,  0 );
 841              		.loc 1 889 0
 842 023c 0070C2E5 		strb	r7, [r2]
 877:D:/Work/DeviceTester/amazon-freertos/lib/third_party/mbedtls/library\aes.c ****             ( (uint32_t) FSb[ ( Y2       ) & 0xFF ]       ) ^
 843              		.loc 1 877 0
 844 0240 08C42CE0 		eor	ip, ip, r8, lsl #8
 880:D:/Work/DeviceTester/amazon-freertos/lib/third_party/mbedtls/library\aes.c ****             ( (uint32_t) FSb[ ( Y1 >> 24 ) & 0xFF ] << 24 );
 845              		.loc 1 880 0
 846 0244 5588E7E7 		ubfx	r8, r5, #16, #8
 883:D:/Work/DeviceTester/amazon-freertos/lib/third_party/mbedtls/library\aes.c ****             ( (uint32_t) FSb[ ( Y3       ) & 0xFF ]       ) ^
 847              		.loc 1 883 0
 848 0248 041021E0 		eor	r1, r1, r4
 887:D:/Work/DeviceTester/amazon-freertos/lib/third_party/mbedtls/library\aes.c **** 
 849              		.loc 1 887 0
 850 024c 264CD3E7 		ldrb	r4, [r3, r6, lsr #24]	@ zero_extendqisi2
 885:D:/Work/DeviceTester/amazon-freertos/lib/third_party/mbedtls/library\aes.c ****             ( (uint32_t) FSb[ ( Y1 >> 16 ) & 0xFF ] << 16 ) ^
 851              		.loc 1 885 0
 852 0250 5554E7E7 		ubfx	r5, r5, #8, #8
 853              	.LVL87:
 880:D:/Work/DeviceTester/amazon-freertos/lib/third_party/mbedtls/library\aes.c ****             ( (uint32_t) FSb[ ( Y1 >> 24 ) & 0xFF ] << 24 );
 854              		.loc 1 880 0
 855 0254 0880D3E7 		ldrb	r8, [r3, r8]	@ zero_extendqisi2
 890:D:/Work/DeviceTester/amazon-freertos/lib/third_party/mbedtls/library\aes.c ****     PUT_UINT32_LE( X1, output,  4 );
 856              		.loc 1 890 0
 857 0258 04E0C2E5 		strb	lr, [r2, #4]
 883:D:/Work/DeviceTester/amazon-freertos/lib/third_party/mbedtls/library\aes.c ****             ( (uint32_t) FSb[ ( Y3       ) & 0xFF ]       ) ^
 858              		.loc 1 883 0
 859 025c 041C21E0 		eor	r1, r1, r4, lsl #24
 885:D:/Work/DeviceTester/amazon-freertos/lib/third_party/mbedtls/library\aes.c ****             ( (uint32_t) FSb[ ( Y1 >> 16 ) & 0xFF ] << 16 ) ^
 860              		.loc 1 885 0
 861 0260 0540D3E7 		ldrb	r4, [r3, r5]	@ zero_extendqisi2
 886:D:/Work/DeviceTester/amazon-freertos/lib/third_party/mbedtls/library\aes.c ****             ( (uint32_t) FSb[ ( Y2 >> 24 ) & 0xFF ] << 24 );
 862              		.loc 1 886 0
 863 0264 0030D3E7 		ldrb	r3, [r3, r0]	@ zero_extendqisi2
 877:D:/Work/DeviceTester/amazon-freertos/lib/third_party/mbedtls/library\aes.c ****             ( (uint32_t) FSb[ ( Y2       ) & 0xFF ]       ) ^
 864              		.loc 1 877 0
 865 0268 08C82CE0 		eor	ip, ip, r8, lsl #16
 866              	.LVL88:
 891:D:/Work/DeviceTester/amazon-freertos/lib/third_party/mbedtls/library\aes.c ****     PUT_UINT32_LE( X2, output,  8 );
 892:D:/Work/DeviceTester/amazon-freertos/lib/third_party/mbedtls/library\aes.c ****     PUT_UINT32_LE( X3, output, 12 );
 893:D:/Work/DeviceTester/amazon-freertos/lib/third_party/mbedtls/library\aes.c **** 
 894:D:/Work/DeviceTester/amazon-freertos/lib/third_party/mbedtls/library\aes.c ****     return( 0 );
 895:D:/Work/DeviceTester/amazon-freertos/lib/third_party/mbedtls/library\aes.c **** }
 867              		.loc 1 895 0
 868 026c 0000A0E3 		mov	r0, #0
 891:D:/Work/DeviceTester/amazon-freertos/lib/third_party/mbedtls/library\aes.c ****     PUT_UINT32_LE( X2, output,  8 );
 869              		.loc 1 891 0
 870 0270 08C0C2E5 		strb	ip, [r2, #8]
 883:D:/Work/DeviceTester/amazon-freertos/lib/third_party/mbedtls/library\aes.c ****             ( (uint32_t) FSb[ ( Y3       ) & 0xFF ]       ) ^
 871              		.loc 1 883 0
 872 0274 041421E0 		eor	r1, r1, r4, lsl #8
 873 0278 033821E0 		eor	r3, r1, r3, lsl #16
 874              	.LVL89:
 889:D:/Work/DeviceTester/amazon-freertos/lib/third_party/mbedtls/library\aes.c ****     PUT_UINT32_LE( X1, output,  4 );
 875              		.loc 1 889 0
 876 027c 2714A0E1 		lsr	r1, r7, #8
 877 0280 0110C2E5 		strb	r1, [r2, #1]
 878 0284 2718A0E1 		lsr	r1, r7, #16
 892:D:/Work/DeviceTester/amazon-freertos/lib/third_party/mbedtls/library\aes.c **** 
 879              		.loc 1 892 0
 880 0288 0C30C2E5 		strb	r3, [r2, #12]
 889:D:/Work/DeviceTester/amazon-freertos/lib/third_party/mbedtls/library\aes.c ****     PUT_UINT32_LE( X1, output,  4 );
 881              		.loc 1 889 0
 882 028c 277CA0E1 		lsr	r7, r7, #24
 883              	.LVL90:
 884 0290 0210C2E5 		strb	r1, [r2, #2]
 890:D:/Work/DeviceTester/amazon-freertos/lib/third_party/mbedtls/library\aes.c ****     PUT_UINT32_LE( X2, output,  8 );
 885              		.loc 1 890 0
 886 0294 2E14A0E1 		lsr	r1, lr, #8
 889:D:/Work/DeviceTester/amazon-freertos/lib/third_party/mbedtls/library\aes.c ****     PUT_UINT32_LE( X1, output,  4 );
 887              		.loc 1 889 0
 888 0298 0370C2E5 		strb	r7, [r2, #3]
 890:D:/Work/DeviceTester/amazon-freertos/lib/third_party/mbedtls/library\aes.c ****     PUT_UINT32_LE( X2, output,  8 );
 889              		.loc 1 890 0
 890 029c 0510C2E5 		strb	r1, [r2, #5]
 891 02a0 2E18A0E1 		lsr	r1, lr, #16
 892 02a4 2EECA0E1 		lsr	lr, lr, #24
 893              	.LVL91:
 894 02a8 0610C2E5 		strb	r1, [r2, #6]
 891:D:/Work/DeviceTester/amazon-freertos/lib/third_party/mbedtls/library\aes.c ****     PUT_UINT32_LE( X3, output, 12 );
 895              		.loc 1 891 0
 896 02ac 2C14A0E1 		lsr	r1, ip, #8
 890:D:/Work/DeviceTester/amazon-freertos/lib/third_party/mbedtls/library\aes.c ****     PUT_UINT32_LE( X2, output,  8 );
 897              		.loc 1 890 0
 898 02b0 07E0C2E5 		strb	lr, [r2, #7]
 891:D:/Work/DeviceTester/amazon-freertos/lib/third_party/mbedtls/library\aes.c ****     PUT_UINT32_LE( X3, output, 12 );
 899              		.loc 1 891 0
 900 02b4 0910C2E5 		strb	r1, [r2, #9]
 901 02b8 2C18A0E1 		lsr	r1, ip, #16
 902 02bc 2CCCA0E1 		lsr	ip, ip, #24
 903              	.LVL92:
 904 02c0 0A10C2E5 		strb	r1, [r2, #10]
 892:D:/Work/DeviceTester/amazon-freertos/lib/third_party/mbedtls/library\aes.c **** 
 905              		.loc 1 892 0
 906 02c4 2314A0E1 		lsr	r1, r3, #8
 891:D:/Work/DeviceTester/amazon-freertos/lib/third_party/mbedtls/library\aes.c ****     PUT_UINT32_LE( X3, output, 12 );
 907              		.loc 1 891 0
 908 02c8 0BC0C2E5 		strb	ip, [r2, #11]
 892:D:/Work/DeviceTester/amazon-freertos/lib/third_party/mbedtls/library\aes.c **** 
 909              		.loc 1 892 0
 910 02cc 0D10C2E5 		strb	r1, [r2, #13]
 911 02d0 2318A0E1 		lsr	r1, r3, #16
 912 02d4 233CA0E1 		lsr	r3, r3, #24
 913              	.LVL93:
 914 02d8 0E10C2E5 		strb	r1, [r2, #14]
 915 02dc 0F30C2E5 		strb	r3, [r2, #15]
 916              		.loc 1 895 0
 917 02e0 0CD08DE2 		add	sp, sp, #12
 918              		.cfi_remember_state
 919              		.cfi_def_cfa_offset 36
 920              		@ sp needed
 921 02e4 F08FBDE8 		pop	{r4, r5, r6, r7, r8, r9, r10, fp, pc}
 922              	.LVL94:
 923              	.L43:
 924              		.cfi_restore_state
 859:D:/Work/DeviceTester/amazon-freertos/lib/third_party/mbedtls/library\aes.c ****         AES_FROUND( X0, X1, X2, X3, Y0, Y1, Y2, Y3 );
 925              		.loc 1 859 0 discriminator 3
 926 02e8 064197E7 		ldr	r4, [r7, r6, lsl #2]
 927              	.LVL95:
 928 02ec 2E6CA0E1 		lsr	r6, lr, #24
 929 02f0 0B5198E7 		ldr	r5, [r8, fp, lsl #2]
 930 02f4 7CB0EFE6 		uxtb	fp, ip
 931 02f8 066197E7 		ldr	r6, [r7, r6, lsl #2]
 932 02fc 0BB198E7 		ldr	fp, [r8, fp, lsl #2]
 933 0300 045025E0 		eor	r5, r5, r4
 934 0304 204010E5 		ldr	r4, [r0, #-32]
 935 0308 045025E0 		eor	r5, r5, r4
 936 030c 5344E7E7 		ubfx	r4, r3, #8, #8
 937 0310 044199E7 		ldr	r4, [r9, r4, lsl #2]
 938 0314 045025E0 		eor	r5, r5, r4
 939 0318 5C48E7E7 		ubfx	r4, ip, #16, #8
 940 031c 04419AE7 		ldr	r4, [r10, r4, lsl #2]
 941 0320 045025E0 		eor	r5, r5, r4
 942              	.LVL96:
 943 0324 7340EFE6 		uxtb	r4, r3
 944 0328 044198E7 		ldr	r4, [r8, r4, lsl #2]
 945 032c 064024E0 		eor	r4, r4, r6
 946 0330 1C6010E5 		ldr	r6, [r0, #-28]
 947 0334 064024E0 		eor	r4, r4, r6
 948 0338 5C64E7E7 		ubfx	r6, ip, #8, #8
 949 033c 066199E7 		ldr	r6, [r9, r6, lsl #2]
 950 0340 2CCCA0E1 		lsr	ip, ip, #24
 951              	.LVL97:
 952 0344 0CC197E7 		ldr	ip, [r7, ip, lsl #2]
 953 0348 064024E0 		eor	r4, r4, r6
 954 034c 5168E7E7 		ubfx	r6, r1, #16, #8
 955 0350 06619AE7 		ldr	r6, [r10, r6, lsl #2]
 956 0354 064024E0 		eor	r4, r4, r6
 957              	.LVL98:
 958 0358 236CA0E1 		lsr	r6, r3, #24
 959 035c 5338E7E7 		ubfx	r3, r3, #16, #8
 960              	.LVL99:
 961 0360 066197E7 		ldr	r6, [r7, r6, lsl #2]
 962 0364 03319AE7 		ldr	r3, [r10, r3, lsl #2]
 963 0368 0B6026E0 		eor	r6, r6, fp
 964 036c 18B010E5 		ldr	fp, [r0, #-24]
 965 0370 0B6026E0 		eor	r6, r6, fp
 966 0374 51B4E7E7 		ubfx	fp, r1, #8, #8
 967 0378 7110EFE6 		uxtb	r1, r1
 968              	.LVL100:
 969 037c 0BB199E7 		ldr	fp, [r9, fp, lsl #2]
 970 0380 011198E7 		ldr	r1, [r8, r1, lsl #2]
 971 0384 0B6026E0 		eor	r6, r6, fp
 972 0388 5EB8E7E7 		ubfx	fp, lr, #16, #8
 973 038c 5EE4E7E7 		ubfx	lr, lr, #8, #8
 974              	.LVL101:
 975 0390 0BB19AE7 		ldr	fp, [r10, fp, lsl #2]
 976 0394 0C1021E0 		eor	r1, r1, ip
 977 0398 14C010E5 		ldr	ip, [r0, #-20]
 978 039c 0B6026E0 		eor	r6, r6, fp
 979              	.LVL102:
 980 03a0 0C1021E0 		eor	r1, r1, ip
 981 03a4 0EC199E7 		ldr	ip, [r9, lr, lsl #2]
 860:D:/Work/DeviceTester/amazon-freertos/lib/third_party/mbedtls/library\aes.c ****     }
 982              		.loc 1 860 0 discriminator 3
 983 03a8 76B0EFE6 		uxtb	fp, r6
 859:D:/Work/DeviceTester/amazon-freertos/lib/third_party/mbedtls/library\aes.c ****         AES_FROUND( X0, X1, X2, X3, Y0, Y1, Y2, Y3 );
 984              		.loc 1 859 0 discriminator 3
 985 03ac 0C1021E0 		eor	r1, r1, ip
 860:D:/Work/DeviceTester/amazon-freertos/lib/third_party/mbedtls/library\aes.c ****     }
 986              		.loc 1 860 0 discriminator 3
 987 03b0 75C0EFE6 		uxtb	ip, r5
 859:D:/Work/DeviceTester/amazon-freertos/lib/third_party/mbedtls/library\aes.c ****         AES_FROUND( X0, X1, X2, X3, Y0, Y1, Y2, Y3 );
 988              		.loc 1 859 0 discriminator 3
 989 03b4 031021E0 		eor	r1, r1, r3
 990              	.LVL103:
 860:D:/Work/DeviceTester/amazon-freertos/lib/third_party/mbedtls/library\aes.c ****     }
 991              		.loc 1 860 0 discriminator 3
 992 03b8 0BB198E7 		ldr	fp, [r8, fp, lsl #2]
 993 03bc 213CA0E1 		lsr	r3, r1, #24
 994 03c0 0CE198E7 		ldr	lr, [r8, ip, lsl #2]
 995 03c4 25CCA0E1 		lsr	ip, r5, #24
 996 03c8 033197E7 		ldr	r3, [r7, r3, lsl #2]
 997 03cc 0CC197E7 		ldr	ip, [r7, ip, lsl #2]
 998 03d0 03E02EE0 		eor	lr, lr, r3
 999 03d4 103010E5 		ldr	r3, [r0, #-16]
 1000 03d8 03E02EE0 		eor	lr, lr, r3
 1001 03dc 5434E7E7 		ubfx	r3, r4, #8, #8
 1002 03e0 033199E7 		ldr	r3, [r9, r3, lsl #2]
 1003 03e4 03E02EE0 		eor	lr, lr, r3
 1004 03e8 5638E7E7 		ubfx	r3, r6, #16, #8
 1005 03ec 03319AE7 		ldr	r3, [r10, r3, lsl #2]
 1006 03f0 03E02EE0 		eor	lr, lr, r3
 1007              	.LVL104:
 1008 03f4 7430EFE6 		uxtb	r3, r4
 1009 03f8 033198E7 		ldr	r3, [r8, r3, lsl #2]
 1010 03fc 0C3023E0 		eor	r3, r3, ip
 1011 0400 0CC010E5 		ldr	ip, [r0, #-12]
 1012 0404 0C3023E0 		eor	r3, r3, ip
 1013 0408 56C4E7E7 		ubfx	ip, r6, #8, #8
 1014 040c 0CC199E7 		ldr	ip, [r9, ip, lsl #2]
 1015 0410 266CA0E1 		lsr	r6, r6, #24
 1016              	.LVL105:
 1017 0414 0C3023E0 		eor	r3, r3, ip
 1018 0418 51C8E7E7 		ubfx	ip, r1, #16, #8
 1019 041c 0CC19AE7 		ldr	ip, [r10, ip, lsl #2]
 1020 0420 0C3023E0 		eor	r3, r3, ip
 1021              	.LVL106:
 1022 0424 24CCA0E1 		lsr	ip, r4, #24
 1023 0428 5448E7E7 		ubfx	r4, r4, #16, #8
 1024              	.LVL107:
 1025 042c 0CC197E7 		ldr	ip, [r7, ip, lsl #2]
 1026 0430 0BC02CE0 		eor	ip, ip, fp
 1027 0434 08B010E5 		ldr	fp, [r0, #-8]
 1028 0438 066197E7 		ldr	r6, [r7, r6, lsl #2]
 1029 043c 04419AE7 		ldr	r4, [r10, r4, lsl #2]
 1030 0440 0BC02CE0 		eor	ip, ip, fp
 1031 0444 51B4E7E7 		ubfx	fp, r1, #8, #8
 1032 0448 7110EFE6 		uxtb	r1, r1
 1033              	.LVL108:
 1034 044c 0BB199E7 		ldr	fp, [r9, fp, lsl #2]
 1035 0450 011198E7 		ldr	r1, [r8, r1, lsl #2]
 1036 0454 0BC02CE0 		eor	ip, ip, fp
 1037 0458 55B8E7E7 		ubfx	fp, r5, #16, #8
 1038 045c 5554E7E7 		ubfx	r5, r5, #8, #8
 1039              	.LVL109:
 1040 0460 0BB19AE7 		ldr	fp, [r10, fp, lsl #2]
 1041 0464 061021E0 		eor	r1, r1, r6
 1042 0468 046010E5 		ldr	r6, [r0, #-4]
 1043 046c 055199E7 		ldr	r5, [r9, r5, lsl #2]
 1044 0470 0BC02CE0 		eor	ip, ip, fp
 1045              	.LVL110:
 1046 0474 061021E0 		eor	r1, r1, r6
 1047 0478 051021E0 		eor	r1, r1, r5
 1048 047c 005090E5 		ldr	r5, [r0]
 1049 0480 041021E0 		eor	r1, r1, r4
 1050              	.LVL111:
 857:D:/Work/DeviceTester/amazon-freertos/lib/third_party/mbedtls/library\aes.c ****     {
 1051              		.loc 1 857 0 discriminator 3
 1052 0484 04409DE5 		ldr	r4, [sp, #4]
 1053 0488 014044E2 		sub	r4, r4, #1
 1054 048c 04408DE5 		str	r4, [sp, #4]
 1055              	.LVL112:
 1056 0490 0AFFFFEA 		b	.L42
 1057              	.L46:
 1058              		.align	2
 1059              	.L45:
 1060 0494 00000000 		.word	.LANCHOR6
 1061 0498 00000000 		.word	.LANCHOR7
 1062 049c 00000000 		.word	.LANCHOR8
 1063 04a0 00000000 		.word	.LANCHOR9
 1064 04a4 00000000 		.word	.LANCHOR1
 1065              		.cfi_endproc
 1066              	.LFE5:
 1068              		.section	.text.mbedtls_internal_aes_decrypt,"ax",%progbits
 1069              		.align	2
 1070              		.global	mbedtls_internal_aes_decrypt
 1071              		.syntax unified
 1072              		.arm
 1073              		.fpu neon
 1075              	mbedtls_internal_aes_decrypt:
 1076              	.LFB6:
 896:D:/Work/DeviceTester/amazon-freertos/lib/third_party/mbedtls/library\aes.c **** #endif /* !MBEDTLS_AES_ENCRYPT_ALT */
 897:D:/Work/DeviceTester/amazon-freertos/lib/third_party/mbedtls/library\aes.c **** 
 898:D:/Work/DeviceTester/amazon-freertos/lib/third_party/mbedtls/library\aes.c **** #if !defined(MBEDTLS_DEPRECATED_REMOVED)
 899:D:/Work/DeviceTester/amazon-freertos/lib/third_party/mbedtls/library\aes.c **** void mbedtls_aes_encrypt( mbedtls_aes_context *ctx,
 900:D:/Work/DeviceTester/amazon-freertos/lib/third_party/mbedtls/library\aes.c ****                           const unsigned char input[16],
 901:D:/Work/DeviceTester/amazon-freertos/lib/third_party/mbedtls/library\aes.c ****                           unsigned char output[16] )
 902:D:/Work/DeviceTester/amazon-freertos/lib/third_party/mbedtls/library\aes.c **** {
 903:D:/Work/DeviceTester/amazon-freertos/lib/third_party/mbedtls/library\aes.c ****     mbedtls_internal_aes_encrypt( ctx, input, output );
 904:D:/Work/DeviceTester/amazon-freertos/lib/third_party/mbedtls/library\aes.c **** }
 905:D:/Work/DeviceTester/amazon-freertos/lib/third_party/mbedtls/library\aes.c **** #endif /* !MBEDTLS_DEPRECATED_REMOVED */
 906:D:/Work/DeviceTester/amazon-freertos/lib/third_party/mbedtls/library\aes.c **** 
 907:D:/Work/DeviceTester/amazon-freertos/lib/third_party/mbedtls/library\aes.c **** /*
 908:D:/Work/DeviceTester/amazon-freertos/lib/third_party/mbedtls/library\aes.c ****  * AES-ECB block decryption
 909:D:/Work/DeviceTester/amazon-freertos/lib/third_party/mbedtls/library\aes.c ****  */
 910:D:/Work/DeviceTester/amazon-freertos/lib/third_party/mbedtls/library\aes.c **** #if !defined(MBEDTLS_AES_DECRYPT_ALT)
 911:D:/Work/DeviceTester/amazon-freertos/lib/third_party/mbedtls/library\aes.c **** int mbedtls_internal_aes_decrypt( mbedtls_aes_context *ctx,
 912:D:/Work/DeviceTester/amazon-freertos/lib/third_party/mbedtls/library\aes.c ****                                   const unsigned char input[16],
 913:D:/Work/DeviceTester/amazon-freertos/lib/third_party/mbedtls/library\aes.c ****                                   unsigned char output[16] )
 914:D:/Work/DeviceTester/amazon-freertos/lib/third_party/mbedtls/library\aes.c **** {
 1077              		.loc 1 914 0
 1078              		.cfi_startproc
 1079              		@ args = 0, pretend = 0, frame = 8
 1080              		@ frame_needed = 0, uses_anonymous_args = 0
 1081              	.LVL113:
 1082 0000 F74F2DE9 		push	{r0, r1, r2, r4, r5, r6, r7, r8, r9, r10, fp, lr}
 1083              		.cfi_def_cfa_offset 48
 1084              		.cfi_offset 4, -36
 1085              		.cfi_offset 5, -32
 1086              		.cfi_offset 6, -28
 1087              		.cfi_offset 7, -24
 1088              		.cfi_offset 8, -20
 1089              		.cfi_offset 9, -16
 1090              		.cfi_offset 10, -12
 1091              		.cfi_offset 11, -8
 1092              		.cfi_offset 14, -4
 915:D:/Work/DeviceTester/amazon-freertos/lib/third_party/mbedtls/library\aes.c ****     int i;
 916:D:/Work/DeviceTester/amazon-freertos/lib/third_party/mbedtls/library\aes.c ****     uint32_t *RK, X0, X1, X2, X3, Y0, Y1, Y2, Y3;
 917:D:/Work/DeviceTester/amazon-freertos/lib/third_party/mbedtls/library\aes.c **** 
 918:D:/Work/DeviceTester/amazon-freertos/lib/third_party/mbedtls/library\aes.c ****     RK = ctx->rk;
 919:D:/Work/DeviceTester/amazon-freertos/lib/third_party/mbedtls/library\aes.c **** 
 920:D:/Work/DeviceTester/amazon-freertos/lib/third_party/mbedtls/library\aes.c ****     GET_UINT32_LE( X0, input,  0 ); X0 ^= *RK++;
 1093              		.loc 1 920 0
 1094 0004 0130D1E5 		ldrb	r3, [r1, #1]	@ zero_extendqisi2
 1095 0008 00E0D1E5 		ldrb	lr, [r1]	@ zero_extendqisi2
 918:D:/Work/DeviceTester/amazon-freertos/lib/third_party/mbedtls/library\aes.c **** 
 1096              		.loc 1 918 0
 1097 000c 045090E5 		ldr	r5, [r0, #4]
 1098              	.LVL114:
 921:D:/Work/DeviceTester/amazon-freertos/lib/third_party/mbedtls/library\aes.c ****     GET_UINT32_LE( X1, input,  4 ); X1 ^= *RK++;
 1099              		.loc 1 921 0
 1100 0010 04C0D1E5 		ldrb	ip, [r1, #4]	@ zero_extendqisi2
 922:D:/Work/DeviceTester/amazon-freertos/lib/third_party/mbedtls/library\aes.c ****     GET_UINT32_LE( X2, input,  8 ); X2 ^= *RK++;
 1101              		.loc 1 922 0
 1102 0014 0940D1E5 		ldrb	r4, [r1, #9]	@ zero_extendqisi2
 920:D:/Work/DeviceTester/amazon-freertos/lib/third_party/mbedtls/library\aes.c ****     GET_UINT32_LE( X1, input,  4 ); X1 ^= *RK++;
 1103              		.loc 1 920 0
 1104 0018 03E48EE1 		orr	lr, lr, r3, lsl #8
 1105 001c 0230D1E5 		ldrb	r3, [r1, #2]	@ zero_extendqisi2
 923:D:/Work/DeviceTester/amazon-freertos/lib/third_party/mbedtls/library\aes.c ****     GET_UINT32_LE( X3, input, 12 ); X3 ^= *RK++;
 1106              		.loc 1 923 0
 1107 0020 0D60D1E5 		ldrb	r6, [r1, #13]	@ zero_extendqisi2
 924:D:/Work/DeviceTester/amazon-freertos/lib/third_party/mbedtls/library\aes.c **** 
 925:D:/Work/DeviceTester/amazon-freertos/lib/third_party/mbedtls/library\aes.c ****     for( i = ( ctx->nr >> 1 ) - 1; i > 0; i-- )
 1108              		.loc 1 925 0
 1109 0024 000090E5 		ldr	r0, [r0]
 1110              	.LVL115:
 1111 0028 64849FE5 		ldr	r8, .L51
 920:D:/Work/DeviceTester/amazon-freertos/lib/third_party/mbedtls/library\aes.c ****     GET_UINT32_LE( X1, input,  4 ); X1 ^= *RK++;
 1112              		.loc 1 920 0
 1113 002c 03E88EE1 		orr	lr, lr, r3, lsl #16
 1114 0030 0330D1E5 		ldrb	r3, [r1, #3]	@ zero_extendqisi2
 1115 0034 5C749FE5 		ldr	r7, .L51+4
 1116              		.loc 1 925 0
 1117 0038 C000A0E1 		asr	r0, r0, #1
 926:D:/Work/DeviceTester/amazon-freertos/lib/third_party/mbedtls/library\aes.c ****     {
 927:D:/Work/DeviceTester/amazon-freertos/lib/third_party/mbedtls/library\aes.c ****         AES_RROUND( Y0, Y1, Y2, Y3, X0, X1, X2, X3 );
 1118              		.loc 1 927 0
 1119 003c 58949FE5 		ldr	r9, .L51+8
 1120 0040 58A49FE5 		ldr	r10, .L51+12
 920:D:/Work/DeviceTester/amazon-freertos/lib/third_party/mbedtls/library\aes.c ****     GET_UINT32_LE( X1, input,  4 ); X1 ^= *RK++;
 1121              		.loc 1 920 0
 1122 0044 03EC8EE1 		orr	lr, lr, r3, lsl #24
 1123              	.LVL116:
 1124 0048 003095E5 		ldr	r3, [r5]
 925:D:/Work/DeviceTester/amazon-freertos/lib/third_party/mbedtls/library\aes.c ****     {
 1125              		.loc 1 925 0
 1126 004c 010040E2 		sub	r0, r0, #1
 1127 0050 04008DE5 		str	r0, [sp, #4]
 923:D:/Work/DeviceTester/amazon-freertos/lib/third_party/mbedtls/library\aes.c **** 
 1128              		.loc 1 923 0
 1129 0054 0500A0E1 		mov	r0, r5
 920:D:/Work/DeviceTester/amazon-freertos/lib/third_party/mbedtls/library\aes.c ****     GET_UINT32_LE( X1, input,  4 ); X1 ^= *RK++;
 1130              		.loc 1 920 0
 1131 0058 03E02EE0 		eor	lr, lr, r3
 1132              	.LVL117:
 921:D:/Work/DeviceTester/amazon-freertos/lib/third_party/mbedtls/library\aes.c ****     GET_UINT32_LE( X2, input,  8 ); X2 ^= *RK++;
 1133              		.loc 1 921 0
 1134 005c 0530D1E5 		ldrb	r3, [r1, #5]	@ zero_extendqisi2
 1135 0060 03C48CE1 		orr	ip, ip, r3, lsl #8
 1136 0064 0630D1E5 		ldrb	r3, [r1, #6]	@ zero_extendqisi2
 1137 0068 03C88CE1 		orr	ip, ip, r3, lsl #16
 1138 006c 0730D1E5 		ldrb	r3, [r1, #7]	@ zero_extendqisi2
 1139 0070 03CC8CE1 		orr	ip, ip, r3, lsl #24
 1140              	.LVL118:
 1141 0074 043095E5 		ldr	r3, [r5, #4]
 1142 0078 03C02CE0 		eor	ip, ip, r3
 1143              	.LVL119:
 922:D:/Work/DeviceTester/amazon-freertos/lib/third_party/mbedtls/library\aes.c ****     GET_UINT32_LE( X3, input, 12 ); X3 ^= *RK++;
 1144              		.loc 1 922 0
 1145 007c 0830D1E5 		ldrb	r3, [r1, #8]	@ zero_extendqisi2
 1146 0080 043483E1 		orr	r3, r3, r4, lsl #8
 1147 0084 0A40D1E5 		ldrb	r4, [r1, #10]	@ zero_extendqisi2
 1148 0088 043883E1 		orr	r3, r3, r4, lsl #16
 1149 008c 0B40D1E5 		ldrb	r4, [r1, #11]	@ zero_extendqisi2
 1150 0090 043C83E1 		orr	r3, r3, r4, lsl #24
 1151              	.LVL120:
 1152 0094 084095E5 		ldr	r4, [r5, #8]
 1153 0098 043023E0 		eor	r3, r3, r4
 1154              	.LVL121:
 923:D:/Work/DeviceTester/amazon-freertos/lib/third_party/mbedtls/library\aes.c **** 
 1155              		.loc 1 923 0
 1156 009c 0C40D1E5 		ldrb	r4, [r1, #12]	@ zero_extendqisi2
 1157 00a0 064484E1 		orr	r4, r4, r6, lsl #8
 1158 00a4 0E60D1E5 		ldrb	r6, [r1, #14]	@ zero_extendqisi2
 1159 00a8 0F10D1E5 		ldrb	r1, [r1, #15]	@ zero_extendqisi2
 1160              	.LVL122:
 1161 00ac 064884E1 		orr	r4, r4, r6, lsl #16
 1162 00b0 011C84E1 		orr	r1, r4, r1, lsl #24
 1163              	.LVL123:
 1164 00b4 0C4095E5 		ldr	r4, [r5, #12]
 1165 00b8 1050B0E5 		ldr	r5, [r0, #16]!
 1166              	.LVL124:
 1167 00bc 041021E0 		eor	r1, r1, r4
 1168              	.LVL125:
 1169              	.L48:
 925:D:/Work/DeviceTester/amazon-freertos/lib/third_party/mbedtls/library\aes.c ****     {
 1170              		.loc 1 925 0 discriminator 1
 1171 00c0 04609DE5 		ldr	r6, [sp, #4]
 1172 00c4 0040A0E1 		mov	r4, r0
 1173              	.LVL126:
 1174 00c8 2CBCA0E1 		lsr	fp, ip, #24
 1175 00cc 200080E2 		add	r0, r0, #32
 1176 00d0 000056E3 		cmp	r6, #0
 1177 00d4 7E60EFE6 		uxtb	r6, lr
 1178              	.LVL127:
 1179 00d8 820000CA 		bgt	.L49
 1180              	.LVL128:
 928:D:/Work/DeviceTester/amazon-freertos/lib/third_party/mbedtls/library\aes.c ****         AES_RROUND( X0, X1, X2, X3, Y0, Y1, Y2, Y3 );
 929:D:/Work/DeviceTester/amazon-freertos/lib/third_party/mbedtls/library\aes.c ****     }
 930:D:/Work/DeviceTester/amazon-freertos/lib/third_party/mbedtls/library\aes.c **** 
 931:D:/Work/DeviceTester/amazon-freertos/lib/third_party/mbedtls/library\aes.c ****     AES_RROUND( Y0, Y1, Y2, Y3, X0, X1, X2, X3 );
 1181              		.loc 1 931 0
 1182 00dc 060198E7 		ldr	r0, [r8, r6, lsl #2]
 1183 00e0 0B6197E7 		ldr	r6, [r7, fp, lsl #2]
 1184 00e4 21BCA0E1 		lsr	fp, r1, #24
 1185 00e8 ACA39FE5 		ldr	r10, .L51+8
 1186 00ec AC939FE5 		ldr	r9, .L51+12
 1187 00f0 060020E0 		eor	r0, r0, r6
 1188 00f4 236CA0E1 		lsr	r6, r3, #24
 1189 00f8 005025E0 		eor	r5, r5, r0
 1190 00fc 0BB197E7 		ldr	fp, [r7, fp, lsl #2]
 1191 0100 5104E7E7 		ubfx	r0, r1, #8, #8
 1192 0104 066197E7 		ldr	r6, [r7, r6, lsl #2]
 1193 0108 00019AE7 		ldr	r0, [r10, r0, lsl #2]
 1194 010c 005025E0 		eor	r5, r5, r0
 1195 0110 5308E7E7 		ubfx	r0, r3, #16, #8
 1196 0114 000199E7 		ldr	r0, [r9, r0, lsl #2]
 1197 0118 005025E0 		eor	r5, r5, r0
 1198              	.LVL129:
 1199 011c 7C00EFE6 		uxtb	r0, ip
 1200 0120 000198E7 		ldr	r0, [r8, r0, lsl #2]
 1201 0124 060020E0 		eor	r0, r0, r6
 1202 0128 046094E5 		ldr	r6, [r4, #4]
 1203 012c 060020E0 		eor	r0, r0, r6
 1204 0130 5E64E7E7 		ubfx	r6, lr, #8, #8
 1205 0134 06619AE7 		ldr	r6, [r10, r6, lsl #2]
 1206 0138 060020E0 		eor	r0, r0, r6
 1207 013c 5168E7E7 		ubfx	r6, r1, #16, #8
 1208 0140 066199E7 		ldr	r6, [r9, r6, lsl #2]
 1209 0144 7110EFE6 		uxtb	r1, r1
 1210              	.LVL130:
 1211 0148 011198E7 		ldr	r1, [r8, r1, lsl #2]
 1212 014c 060020E0 		eor	r0, r0, r6
 1213              	.LVL131:
 1214 0150 7360EFE6 		uxtb	r6, r3
 1215 0154 5334E7E7 		ubfx	r3, r3, #8, #8
 1216              	.LVL132:
 1217 0158 066198E7 		ldr	r6, [r8, r6, lsl #2]
 1218 015c 03319AE7 		ldr	r3, [r10, r3, lsl #2]
 932:D:/Work/DeviceTester/amazon-freertos/lib/third_party/mbedtls/library\aes.c **** 
 933:D:/Work/DeviceTester/amazon-freertos/lib/third_party/mbedtls/library\aes.c ****     X0 = *RK++ ^ \
 934:D:/Work/DeviceTester/amazon-freertos/lib/third_party/mbedtls/library\aes.c ****             ( (uint32_t) RSb[ ( Y0       ) & 0xFF ]       ) ^
 935:D:/Work/DeviceTester/amazon-freertos/lib/third_party/mbedtls/library\aes.c ****             ( (uint32_t) RSb[ ( Y3 >>  8 ) & 0xFF ] <<  8 ) ^
 936:D:/Work/DeviceTester/amazon-freertos/lib/third_party/mbedtls/library\aes.c ****             ( (uint32_t) RSb[ ( Y2 >> 16 ) & 0xFF ] << 16 ) ^
 937:D:/Work/DeviceTester/amazon-freertos/lib/third_party/mbedtls/library\aes.c ****             ( (uint32_t) RSb[ ( Y1 >> 24 ) & 0xFF ] << 24 );
 938:D:/Work/DeviceTester/amazon-freertos/lib/third_party/mbedtls/library\aes.c **** 
 939:D:/Work/DeviceTester/amazon-freertos/lib/third_party/mbedtls/library\aes.c ****     X1 = *RK++ ^ \
 940:D:/Work/DeviceTester/amazon-freertos/lib/third_party/mbedtls/library\aes.c ****             ( (uint32_t) RSb[ ( Y1       ) & 0xFF ]       ) ^
 941:D:/Work/DeviceTester/amazon-freertos/lib/third_party/mbedtls/library\aes.c ****             ( (uint32_t) RSb[ ( Y0 >>  8 ) & 0xFF ] <<  8 ) ^
 942:D:/Work/DeviceTester/amazon-freertos/lib/third_party/mbedtls/library\aes.c ****             ( (uint32_t) RSb[ ( Y3 >> 16 ) & 0xFF ] << 16 ) ^
 943:D:/Work/DeviceTester/amazon-freertos/lib/third_party/mbedtls/library\aes.c ****             ( (uint32_t) RSb[ ( Y2 >> 24 ) & 0xFF ] << 24 );
 944:D:/Work/DeviceTester/amazon-freertos/lib/third_party/mbedtls/library\aes.c **** 
 945:D:/Work/DeviceTester/amazon-freertos/lib/third_party/mbedtls/library\aes.c ****     X2 = *RK++ ^ \
 1219              		.loc 1 945 0
 1220 0160 188094E5 		ldr	r8, [r4, #24]
 931:D:/Work/DeviceTester/amazon-freertos/lib/third_party/mbedtls/library\aes.c **** 
 1221              		.loc 1 931 0
 1222 0164 0B6026E0 		eor	r6, r6, fp
 1223 0168 08B094E5 		ldr	fp, [r4, #8]
 1224 016c 0B6026E0 		eor	r6, r6, fp
 1225 0170 5CB4E7E7 		ubfx	fp, ip, #8, #8
 1226 0174 0BB19AE7 		ldr	fp, [r10, fp, lsl #2]
 1227 0178 5CC8E7E7 		ubfx	ip, ip, #16, #8
 1228              	.LVL133:
 1229 017c 0B6026E0 		eor	r6, r6, fp
 1230 0180 5EB8E7E7 		ubfx	fp, lr, #16, #8
 1231 0184 2EECA0E1 		lsr	lr, lr, #24
 1232              	.LVL134:
 1233 0188 0BB199E7 		ldr	fp, [r9, fp, lsl #2]
 1234 018c 0EE197E7 		ldr	lr, [r7, lr, lsl #2]
 1235 0190 0B6026E0 		eor	r6, r6, fp
 1236              	.LVL135:
 1237 0194 0E1021E0 		eor	r1, r1, lr
 1238 0198 0CE094E5 		ldr	lr, [r4, #12]
 1239 019c 0E1021E0 		eor	r1, r1, lr
 1240 01a0 031021E0 		eor	r1, r1, r3
 1241 01a4 0C3199E7 		ldr	r3, [r9, ip, lsl #2]
 934:D:/Work/DeviceTester/amazon-freertos/lib/third_party/mbedtls/library\aes.c ****             ( (uint32_t) RSb[ ( Y3 >>  8 ) & 0xFF ] <<  8 ) ^
 1242              		.loc 1 934 0
 1243 01a8 75C0EFE6 		uxtb	ip, r5
 931:D:/Work/DeviceTester/amazon-freertos/lib/third_party/mbedtls/library\aes.c **** 
 1244              		.loc 1 931 0
 1245 01ac 031021E0 		eor	r1, r1, r3
 1246              	.LVL136:
 934:D:/Work/DeviceTester/amazon-freertos/lib/third_party/mbedtls/library\aes.c ****             ( (uint32_t) RSb[ ( Y3 >>  8 ) & 0xFF ] <<  8 ) ^
 1247              		.loc 1 934 0
 1248 01b0 EC329FE5 		ldr	r3, .L51+16
 1249 01b4 0C70D3E7 		ldrb	r7, [r3, ip]	@ zero_extendqisi2
 933:D:/Work/DeviceTester/amazon-freertos/lib/third_party/mbedtls/library\aes.c ****             ( (uint32_t) RSb[ ( Y0       ) & 0xFF ]       ) ^
 1250              		.loc 1 933 0
 1251 01b8 10C094E5 		ldr	ip, [r4, #16]
 1252 01bc 0C7027E0 		eor	r7, r7, ip
 937:D:/Work/DeviceTester/amazon-freertos/lib/third_party/mbedtls/library\aes.c **** 
 1253              		.loc 1 937 0
 1254 01c0 20CCD3E7 		ldrb	ip, [r3, r0, lsr #24]	@ zero_extendqisi2
 933:D:/Work/DeviceTester/amazon-freertos/lib/third_party/mbedtls/library\aes.c ****             ( (uint32_t) RSb[ ( Y0       ) & 0xFF ]       ) ^
 1255              		.loc 1 933 0
 1256 01c4 0C7C27E0 		eor	r7, r7, ip, lsl #24
 935:D:/Work/DeviceTester/amazon-freertos/lib/third_party/mbedtls/library\aes.c ****             ( (uint32_t) RSb[ ( Y2 >> 16 ) & 0xFF ] << 16 ) ^
 1257              		.loc 1 935 0
 1258 01c8 51C4E7E7 		ubfx	ip, r1, #8, #8
 1259 01cc 0CC0D3E7 		ldrb	ip, [r3, ip]	@ zero_extendqisi2
 933:D:/Work/DeviceTester/amazon-freertos/lib/third_party/mbedtls/library\aes.c ****             ( (uint32_t) RSb[ ( Y0       ) & 0xFF ]       ) ^
 1260              		.loc 1 933 0
 1261 01d0 0C7427E0 		eor	r7, r7, ip, lsl #8
 936:D:/Work/DeviceTester/amazon-freertos/lib/third_party/mbedtls/library\aes.c ****             ( (uint32_t) RSb[ ( Y1 >> 24 ) & 0xFF ] << 24 );
 1262              		.loc 1 936 0
 1263 01d4 56C8E7E7 		ubfx	ip, r6, #16, #8
 1264 01d8 0CC0D3E7 		ldrb	ip, [r3, ip]	@ zero_extendqisi2
 933:D:/Work/DeviceTester/amazon-freertos/lib/third_party/mbedtls/library\aes.c ****             ( (uint32_t) RSb[ ( Y0       ) & 0xFF ]       ) ^
 1265              		.loc 1 933 0
 1266 01dc 0C7827E0 		eor	r7, r7, ip, lsl #16
 1267              	.LVL137:
 940:D:/Work/DeviceTester/amazon-freertos/lib/third_party/mbedtls/library\aes.c ****             ( (uint32_t) RSb[ ( Y0 >>  8 ) & 0xFF ] <<  8 ) ^
 1268              		.loc 1 940 0
 1269 01e0 70C0EFE6 		uxtb	ip, r0
 1270 01e4 0CE0D3E7 		ldrb	lr, [r3, ip]	@ zero_extendqisi2
 939:D:/Work/DeviceTester/amazon-freertos/lib/third_party/mbedtls/library\aes.c ****             ( (uint32_t) RSb[ ( Y1       ) & 0xFF ]       ) ^
 1271              		.loc 1 939 0
 1272 01e8 14C094E5 		ldr	ip, [r4, #20]
 1273 01ec 0CE02EE0 		eor	lr, lr, ip
 943:D:/Work/DeviceTester/amazon-freertos/lib/third_party/mbedtls/library\aes.c **** 
 1274              		.loc 1 943 0
 1275 01f0 26CCD3E7 		ldrb	ip, [r3, r6, lsr #24]	@ zero_extendqisi2
 939:D:/Work/DeviceTester/amazon-freertos/lib/third_party/mbedtls/library\aes.c ****             ( (uint32_t) RSb[ ( Y1       ) & 0xFF ]       ) ^
 1276              		.loc 1 939 0
 1277 01f4 0CEC2EE0 		eor	lr, lr, ip, lsl #24
 941:D:/Work/DeviceTester/amazon-freertos/lib/third_party/mbedtls/library\aes.c ****             ( (uint32_t) RSb[ ( Y3 >> 16 ) & 0xFF ] << 16 ) ^
 1278              		.loc 1 941 0
 1279 01f8 55C4E7E7 		ubfx	ip, r5, #8, #8
 1280 01fc 0CC0D3E7 		ldrb	ip, [r3, ip]	@ zero_extendqisi2
 939:D:/Work/DeviceTester/amazon-freertos/lib/third_party/mbedtls/library\aes.c ****             ( (uint32_t) RSb[ ( Y1       ) & 0xFF ]       ) ^
 1281              		.loc 1 939 0
 1282 0200 0CE42EE0 		eor	lr, lr, ip, lsl #8
 942:D:/Work/DeviceTester/amazon-freertos/lib/third_party/mbedtls/library\aes.c ****             ( (uint32_t) RSb[ ( Y2 >> 24 ) & 0xFF ] << 24 );
 1283              		.loc 1 942 0
 1284 0204 51C8E7E7 		ubfx	ip, r1, #16, #8
 1285 0208 0CC0D3E7 		ldrb	ip, [r3, ip]	@ zero_extendqisi2
 939:D:/Work/DeviceTester/amazon-freertos/lib/third_party/mbedtls/library\aes.c ****             ( (uint32_t) RSb[ ( Y1       ) & 0xFF ]       ) ^
 1286              		.loc 1 939 0
 1287 020c 0CE82EE0 		eor	lr, lr, ip, lsl #16
 1288              	.LVL138:
 946:D:/Work/DeviceTester/amazon-freertos/lib/third_party/mbedtls/library\aes.c ****             ( (uint32_t) RSb[ ( Y2       ) & 0xFF ]       ) ^
 1289              		.loc 1 946 0
 1290 0210 76C0EFE6 		uxtb	ip, r6
 1291 0214 0CC0D3E7 		ldrb	ip, [r3, ip]	@ zero_extendqisi2
 947:D:/Work/DeviceTester/amazon-freertos/lib/third_party/mbedtls/library\aes.c ****             ( (uint32_t) RSb[ ( Y1 >>  8 ) & 0xFF ] <<  8 ) ^
 948:D:/Work/DeviceTester/amazon-freertos/lib/third_party/mbedtls/library\aes.c ****             ( (uint32_t) RSb[ ( Y0 >> 16 ) & 0xFF ] << 16 ) ^
 949:D:/Work/DeviceTester/amazon-freertos/lib/third_party/mbedtls/library\aes.c ****             ( (uint32_t) RSb[ ( Y3 >> 24 ) & 0xFF ] << 24 );
 950:D:/Work/DeviceTester/amazon-freertos/lib/third_party/mbedtls/library\aes.c **** 
 951:D:/Work/DeviceTester/amazon-freertos/lib/third_party/mbedtls/library\aes.c ****     X3 = *RK++ ^ \
 952:D:/Work/DeviceTester/amazon-freertos/lib/third_party/mbedtls/library\aes.c ****             ( (uint32_t) RSb[ ( Y3       ) & 0xFF ]       ) ^
 953:D:/Work/DeviceTester/amazon-freertos/lib/third_party/mbedtls/library\aes.c ****             ( (uint32_t) RSb[ ( Y2 >>  8 ) & 0xFF ] <<  8 ) ^
 1292              		.loc 1 953 0
 1293 0218 5664E7E7 		ubfx	r6, r6, #8, #8
 1294              	.LVL139:
 945:D:/Work/DeviceTester/amazon-freertos/lib/third_party/mbedtls/library\aes.c ****             ( (uint32_t) RSb[ ( Y2       ) & 0xFF ]       ) ^
 1295              		.loc 1 945 0
 1296 021c 08C02CE0 		eor	ip, ip, r8
 949:D:/Work/DeviceTester/amazon-freertos/lib/third_party/mbedtls/library\aes.c **** 
 1297              		.loc 1 949 0
 1298 0220 218CD3E7 		ldrb	r8, [r3, r1, lsr #24]	@ zero_extendqisi2
 952:D:/Work/DeviceTester/amazon-freertos/lib/third_party/mbedtls/library\aes.c ****             ( (uint32_t) RSb[ ( Y2 >>  8 ) & 0xFF ] <<  8 ) ^
 1299              		.loc 1 952 0
 1300 0224 7110EFE6 		uxtb	r1, r1
 1301              	.LVL140:
 945:D:/Work/DeviceTester/amazon-freertos/lib/third_party/mbedtls/library\aes.c ****             ( (uint32_t) RSb[ ( Y2       ) & 0xFF ]       ) ^
 1302              		.loc 1 945 0
 1303 0228 08CC2CE0 		eor	ip, ip, r8, lsl #24
 947:D:/Work/DeviceTester/amazon-freertos/lib/third_party/mbedtls/library\aes.c ****             ( (uint32_t) RSb[ ( Y0 >> 16 ) & 0xFF ] << 16 ) ^
 1304              		.loc 1 947 0
 1305 022c 5084E7E7 		ubfx	r8, r0, #8, #8
 1306 0230 0880D3E7 		ldrb	r8, [r3, r8]	@ zero_extendqisi2
 954:D:/Work/DeviceTester/amazon-freertos/lib/third_party/mbedtls/library\aes.c ****             ( (uint32_t) RSb[ ( Y1 >> 16 ) & 0xFF ] << 16 ) ^
 1307              		.loc 1 954 0
 1308 0234 5008E7E7 		ubfx	r0, r0, #16, #8
 1309              	.LVL141:
 951:D:/Work/DeviceTester/amazon-freertos/lib/third_party/mbedtls/library\aes.c ****             ( (uint32_t) RSb[ ( Y3       ) & 0xFF ]       ) ^
 1310              		.loc 1 951 0
 1311 0238 1C4094E5 		ldr	r4, [r4, #28]
 1312              	.LVL142:
 952:D:/Work/DeviceTester/amazon-freertos/lib/third_party/mbedtls/library\aes.c ****             ( (uint32_t) RSb[ ( Y2 >>  8 ) & 0xFF ] <<  8 ) ^
 1313              		.loc 1 952 0
 1314 023c 0110D3E7 		ldrb	r1, [r3, r1]	@ zero_extendqisi2
 955:D:/Work/DeviceTester/amazon-freertos/lib/third_party/mbedtls/library\aes.c ****             ( (uint32_t) RSb[ ( Y0 >> 24 ) & 0xFF ] << 24 );
 956:D:/Work/DeviceTester/amazon-freertos/lib/third_party/mbedtls/library\aes.c **** 
 957:D:/Work/DeviceTester/amazon-freertos/lib/third_party/mbedtls/library\aes.c ****     PUT_UINT32_LE( X0, output,  0 );
 1315              		.loc 1 957 0
 1316 0240 0070C2E5 		strb	r7, [r2]
 945:D:/Work/DeviceTester/amazon-freertos/lib/third_party/mbedtls/library\aes.c ****             ( (uint32_t) RSb[ ( Y2       ) & 0xFF ]       ) ^
 1317              		.loc 1 945 0
 1318 0244 08C42CE0 		eor	ip, ip, r8, lsl #8
 948:D:/Work/DeviceTester/amazon-freertos/lib/third_party/mbedtls/library\aes.c ****             ( (uint32_t) RSb[ ( Y3 >> 24 ) & 0xFF ] << 24 );
 1319              		.loc 1 948 0
 1320 0248 5588E7E7 		ubfx	r8, r5, #16, #8
 951:D:/Work/DeviceTester/amazon-freertos/lib/third_party/mbedtls/library\aes.c ****             ( (uint32_t) RSb[ ( Y3       ) & 0xFF ]       ) ^
 1321              		.loc 1 951 0
 1322 024c 041021E0 		eor	r1, r1, r4
 955:D:/Work/DeviceTester/amazon-freertos/lib/third_party/mbedtls/library\aes.c **** 
 1323              		.loc 1 955 0
 1324 0250 254CD3E7 		ldrb	r4, [r3, r5, lsr #24]	@ zero_extendqisi2
 948:D:/Work/DeviceTester/amazon-freertos/lib/third_party/mbedtls/library\aes.c ****             ( (uint32_t) RSb[ ( Y3 >> 24 ) & 0xFF ] << 24 );
 1325              		.loc 1 948 0
 1326 0254 0880D3E7 		ldrb	r8, [r3, r8]	@ zero_extendqisi2
 958:D:/Work/DeviceTester/amazon-freertos/lib/third_party/mbedtls/library\aes.c ****     PUT_UINT32_LE( X1, output,  4 );
 1327              		.loc 1 958 0
 1328 0258 04E0C2E5 		strb	lr, [r2, #4]
 951:D:/Work/DeviceTester/amazon-freertos/lib/third_party/mbedtls/library\aes.c ****             ( (uint32_t) RSb[ ( Y3       ) & 0xFF ]       ) ^
 1329              		.loc 1 951 0
 1330 025c 041C21E0 		eor	r1, r1, r4, lsl #24
 953:D:/Work/DeviceTester/amazon-freertos/lib/third_party/mbedtls/library\aes.c ****             ( (uint32_t) RSb[ ( Y1 >> 16 ) & 0xFF ] << 16 ) ^
 1331              		.loc 1 953 0
 1332 0260 0640D3E7 		ldrb	r4, [r3, r6]	@ zero_extendqisi2
 954:D:/Work/DeviceTester/amazon-freertos/lib/third_party/mbedtls/library\aes.c ****             ( (uint32_t) RSb[ ( Y0 >> 24 ) & 0xFF ] << 24 );
 1333              		.loc 1 954 0
 1334 0264 0030D3E7 		ldrb	r3, [r3, r0]	@ zero_extendqisi2
 945:D:/Work/DeviceTester/amazon-freertos/lib/third_party/mbedtls/library\aes.c ****             ( (uint32_t) RSb[ ( Y2       ) & 0xFF ]       ) ^
 1335              		.loc 1 945 0
 1336 0268 08C82CE0 		eor	ip, ip, r8, lsl #16
 1337              	.LVL143:
 959:D:/Work/DeviceTester/amazon-freertos/lib/third_party/mbedtls/library\aes.c ****     PUT_UINT32_LE( X2, output,  8 );
 960:D:/Work/DeviceTester/amazon-freertos/lib/third_party/mbedtls/library\aes.c ****     PUT_UINT32_LE( X3, output, 12 );
 961:D:/Work/DeviceTester/amazon-freertos/lib/third_party/mbedtls/library\aes.c **** 
 962:D:/Work/DeviceTester/amazon-freertos/lib/third_party/mbedtls/library\aes.c ****     return( 0 );
 963:D:/Work/DeviceTester/amazon-freertos/lib/third_party/mbedtls/library\aes.c **** }
 1338              		.loc 1 963 0
 1339 026c 0000A0E3 		mov	r0, #0
 959:D:/Work/DeviceTester/amazon-freertos/lib/third_party/mbedtls/library\aes.c ****     PUT_UINT32_LE( X2, output,  8 );
 1340              		.loc 1 959 0
 1341 0270 08C0C2E5 		strb	ip, [r2, #8]
 951:D:/Work/DeviceTester/amazon-freertos/lib/third_party/mbedtls/library\aes.c ****             ( (uint32_t) RSb[ ( Y3       ) & 0xFF ]       ) ^
 1342              		.loc 1 951 0
 1343 0274 041421E0 		eor	r1, r1, r4, lsl #8
 1344 0278 033821E0 		eor	r3, r1, r3, lsl #16
 1345              	.LVL144:
 957:D:/Work/DeviceTester/amazon-freertos/lib/third_party/mbedtls/library\aes.c ****     PUT_UINT32_LE( X1, output,  4 );
 1346              		.loc 1 957 0
 1347 027c 2714A0E1 		lsr	r1, r7, #8
 1348 0280 0110C2E5 		strb	r1, [r2, #1]
 1349 0284 2718A0E1 		lsr	r1, r7, #16
 960:D:/Work/DeviceTester/amazon-freertos/lib/third_party/mbedtls/library\aes.c **** 
 1350              		.loc 1 960 0
 1351 0288 0C30C2E5 		strb	r3, [r2, #12]
 957:D:/Work/DeviceTester/amazon-freertos/lib/third_party/mbedtls/library\aes.c ****     PUT_UINT32_LE( X1, output,  4 );
 1352              		.loc 1 957 0
 1353 028c 277CA0E1 		lsr	r7, r7, #24
 1354              	.LVL145:
 1355 0290 0210C2E5 		strb	r1, [r2, #2]
 958:D:/Work/DeviceTester/amazon-freertos/lib/third_party/mbedtls/library\aes.c ****     PUT_UINT32_LE( X2, output,  8 );
 1356              		.loc 1 958 0
 1357 0294 2E14A0E1 		lsr	r1, lr, #8
 957:D:/Work/DeviceTester/amazon-freertos/lib/third_party/mbedtls/library\aes.c ****     PUT_UINT32_LE( X1, output,  4 );
 1358              		.loc 1 957 0
 1359 0298 0370C2E5 		strb	r7, [r2, #3]
 958:D:/Work/DeviceTester/amazon-freertos/lib/third_party/mbedtls/library\aes.c ****     PUT_UINT32_LE( X2, output,  8 );
 1360              		.loc 1 958 0
 1361 029c 0510C2E5 		strb	r1, [r2, #5]
 1362 02a0 2E18A0E1 		lsr	r1, lr, #16
 1363 02a4 2EECA0E1 		lsr	lr, lr, #24
 1364              	.LVL146:
 1365 02a8 0610C2E5 		strb	r1, [r2, #6]
 959:D:/Work/DeviceTester/amazon-freertos/lib/third_party/mbedtls/library\aes.c ****     PUT_UINT32_LE( X3, output, 12 );
 1366              		.loc 1 959 0
 1367 02ac 2C14A0E1 		lsr	r1, ip, #8
 958:D:/Work/DeviceTester/amazon-freertos/lib/third_party/mbedtls/library\aes.c ****     PUT_UINT32_LE( X2, output,  8 );
 1368              		.loc 1 958 0
 1369 02b0 07E0C2E5 		strb	lr, [r2, #7]
 959:D:/Work/DeviceTester/amazon-freertos/lib/third_party/mbedtls/library\aes.c ****     PUT_UINT32_LE( X3, output, 12 );
 1370              		.loc 1 959 0
 1371 02b4 0910C2E5 		strb	r1, [r2, #9]
 1372 02b8 2C18A0E1 		lsr	r1, ip, #16
 1373 02bc 2CCCA0E1 		lsr	ip, ip, #24
 1374              	.LVL147:
 1375 02c0 0A10C2E5 		strb	r1, [r2, #10]
 960:D:/Work/DeviceTester/amazon-freertos/lib/third_party/mbedtls/library\aes.c **** 
 1376              		.loc 1 960 0
 1377 02c4 2314A0E1 		lsr	r1, r3, #8
 959:D:/Work/DeviceTester/amazon-freertos/lib/third_party/mbedtls/library\aes.c ****     PUT_UINT32_LE( X3, output, 12 );
 1378              		.loc 1 959 0
 1379 02c8 0BC0C2E5 		strb	ip, [r2, #11]
 960:D:/Work/DeviceTester/amazon-freertos/lib/third_party/mbedtls/library\aes.c **** 
 1380              		.loc 1 960 0
 1381 02cc 0D10C2E5 		strb	r1, [r2, #13]
 1382 02d0 2318A0E1 		lsr	r1, r3, #16
 1383 02d4 233CA0E1 		lsr	r3, r3, #24
 1384              	.LVL148:
 1385 02d8 0E10C2E5 		strb	r1, [r2, #14]
 1386 02dc 0F30C2E5 		strb	r3, [r2, #15]
 1387              		.loc 1 963 0
 1388 02e0 0CD08DE2 		add	sp, sp, #12
 1389              		.cfi_remember_state
 1390              		.cfi_def_cfa_offset 36
 1391              		@ sp needed
 1392 02e4 F08FBDE8 		pop	{r4, r5, r6, r7, r8, r9, r10, fp, pc}
 1393              	.LVL149:
 1394              	.L49:
 1395              		.cfi_restore_state
 927:D:/Work/DeviceTester/amazon-freertos/lib/third_party/mbedtls/library\aes.c ****         AES_RROUND( X0, X1, X2, X3, Y0, Y1, Y2, Y3 );
 1396              		.loc 1 927 0 discriminator 3
 1397 02e8 0B4197E7 		ldr	r4, [r7, fp, lsl #2]
 1398              	.LVL150:
 1399 02ec 235CA0E1 		lsr	r5, r3, #24
 1400 02f0 066198E7 		ldr	r6, [r8, r6, lsl #2]
 1401 02f4 73B0EFE6 		uxtb	fp, r3
 1402 02f8 055197E7 		ldr	r5, [r7, r5, lsl #2]
 1403 02fc 0BB198E7 		ldr	fp, [r8, fp, lsl #2]
 1404 0300 046026E0 		eor	r6, r6, r4
 1405 0304 204010E5 		ldr	r4, [r0, #-32]
 1406 0308 046026E0 		eor	r6, r6, r4
 1407 030c 5144E7E7 		ubfx	r4, r1, #8, #8
 1408 0310 044199E7 		ldr	r4, [r9, r4, lsl #2]
 1409 0314 046026E0 		eor	r6, r6, r4
 1410 0318 5348E7E7 		ubfx	r4, r3, #16, #8
 1411 031c 04419AE7 		ldr	r4, [r10, r4, lsl #2]
 1412 0320 5334E7E7 		ubfx	r3, r3, #8, #8
 1413              	.LVL151:
 1414 0324 033199E7 		ldr	r3, [r9, r3, lsl #2]
 1415 0328 046026E0 		eor	r6, r6, r4
 1416              	.LVL152:
 1417 032c 7C40EFE6 		uxtb	r4, ip
 1418 0330 044198E7 		ldr	r4, [r8, r4, lsl #2]
 1419 0334 054024E0 		eor	r4, r4, r5
 1420 0338 1C5010E5 		ldr	r5, [r0, #-28]
 1421 033c 054024E0 		eor	r4, r4, r5
 1422 0340 5E54E7E7 		ubfx	r5, lr, #8, #8
 1423 0344 055199E7 		ldr	r5, [r9, r5, lsl #2]
 1424 0348 054024E0 		eor	r4, r4, r5
 1425 034c 5158E7E7 		ubfx	r5, r1, #16, #8
 1426 0350 05519AE7 		ldr	r5, [r10, r5, lsl #2]
 1427 0354 054024E0 		eor	r4, r4, r5
 1428              	.LVL153:
 1429 0358 215CA0E1 		lsr	r5, r1, #24
 1430 035c 7110EFE6 		uxtb	r1, r1
 1431              	.LVL154:
 1432 0360 055197E7 		ldr	r5, [r7, r5, lsl #2]
 1433 0364 011198E7 		ldr	r1, [r8, r1, lsl #2]
 1434 0368 0B5025E0 		eor	r5, r5, fp
 1435 036c 18B010E5 		ldr	fp, [r0, #-24]
 1436 0370 0B5025E0 		eor	r5, r5, fp
 1437 0374 5CB4E7E7 		ubfx	fp, ip, #8, #8
 1438 0378 0BB199E7 		ldr	fp, [r9, fp, lsl #2]
 1439 037c 5CC8E7E7 		ubfx	ip, ip, #16, #8
 1440              	.LVL155:
 1441 0380 0B5025E0 		eor	r5, r5, fp
 1442 0384 5EB8E7E7 		ubfx	fp, lr, #16, #8
 1443 0388 2EECA0E1 		lsr	lr, lr, #24
 1444              	.LVL156:
 1445 038c 0BB19AE7 		ldr	fp, [r10, fp, lsl #2]
 1446 0390 0EE197E7 		ldr	lr, [r7, lr, lsl #2]
 1447 0394 0B5025E0 		eor	r5, r5, fp
 1448              	.LVL157:
 928:D:/Work/DeviceTester/amazon-freertos/lib/third_party/mbedtls/library\aes.c ****     }
 1449              		.loc 1 928 0 discriminator 3
 1450 0398 75B0EFE6 		uxtb	fp, r5
 927:D:/Work/DeviceTester/amazon-freertos/lib/third_party/mbedtls/library\aes.c ****         AES_RROUND( X0, X1, X2, X3, Y0, Y1, Y2, Y3 );
 1451              		.loc 1 927 0 discriminator 3
 1452 039c 0E1021E0 		eor	r1, r1, lr
 1453 03a0 14E010E5 		ldr	lr, [r0, #-20]
 928:D:/Work/DeviceTester/amazon-freertos/lib/third_party/mbedtls/library\aes.c ****     }
 1454              		.loc 1 928 0 discriminator 3
 1455 03a4 0BB198E7 		ldr	fp, [r8, fp, lsl #2]
 927:D:/Work/DeviceTester/amazon-freertos/lib/third_party/mbedtls/library\aes.c ****         AES_RROUND( X0, X1, X2, X3, Y0, Y1, Y2, Y3 );
 1456              		.loc 1 927 0 discriminator 3
 1457 03a8 0E1021E0 		eor	r1, r1, lr
 1458 03ac 031021E0 		eor	r1, r1, r3
 1459 03b0 0C319AE7 		ldr	r3, [r10, ip, lsl #2]
 928:D:/Work/DeviceTester/amazon-freertos/lib/third_party/mbedtls/library\aes.c ****     }
 1460              		.loc 1 928 0 discriminator 3
 1461 03b4 76C0EFE6 		uxtb	ip, r6
 927:D:/Work/DeviceTester/amazon-freertos/lib/third_party/mbedtls/library\aes.c ****         AES_RROUND( X0, X1, X2, X3, Y0, Y1, Y2, Y3 );
 1462              		.loc 1 927 0 discriminator 3
 1463 03b8 031021E0 		eor	r1, r1, r3
 1464              	.LVL158:
 928:D:/Work/DeviceTester/amazon-freertos/lib/third_party/mbedtls/library\aes.c ****     }
 1465              		.loc 1 928 0 discriminator 3
 1466 03bc 243CA0E1 		lsr	r3, r4, #24
 1467 03c0 0CE198E7 		ldr	lr, [r8, ip, lsl #2]
 1468 03c4 74C0EFE6 		uxtb	ip, r4
 1469 03c8 033197E7 		ldr	r3, [r7, r3, lsl #2]
 1470 03cc 0CC198E7 		ldr	ip, [r8, ip, lsl #2]
 1471 03d0 03E02EE0 		eor	lr, lr, r3
 1472 03d4 103010E5 		ldr	r3, [r0, #-16]
 1473 03d8 03E02EE0 		eor	lr, lr, r3
 1474 03dc 5134E7E7 		ubfx	r3, r1, #8, #8
 1475 03e0 033199E7 		ldr	r3, [r9, r3, lsl #2]
 1476 03e4 03E02EE0 		eor	lr, lr, r3
 1477 03e8 5538E7E7 		ubfx	r3, r5, #16, #8
 1478 03ec 03319AE7 		ldr	r3, [r10, r3, lsl #2]
 1479 03f0 03E02EE0 		eor	lr, lr, r3
 1480              	.LVL159:
 1481 03f4 253CA0E1 		lsr	r3, r5, #24
 1482 03f8 5554E7E7 		ubfx	r5, r5, #8, #8
 1483              	.LVL160:
 1484 03fc 033197E7 		ldr	r3, [r7, r3, lsl #2]
 1485 0400 03C02CE0 		eor	ip, ip, r3
 1486 0404 0C3010E5 		ldr	r3, [r0, #-12]
 1487 0408 03C02CE0 		eor	ip, ip, r3
 1488 040c 5634E7E7 		ubfx	r3, r6, #8, #8
 1489 0410 033199E7 		ldr	r3, [r9, r3, lsl #2]
 1490 0414 03C02CE0 		eor	ip, ip, r3
 1491 0418 5138E7E7 		ubfx	r3, r1, #16, #8
 1492 041c 03319AE7 		ldr	r3, [r10, r3, lsl #2]
 1493 0420 03C02CE0 		eor	ip, ip, r3
 1494              	.LVL161:
 1495 0424 213CA0E1 		lsr	r3, r1, #24
 1496 0428 7110EFE6 		uxtb	r1, r1
 1497              	.LVL162:
 1498 042c 033197E7 		ldr	r3, [r7, r3, lsl #2]
 1499 0430 0B3023E0 		eor	r3, r3, fp
 1500 0434 08B010E5 		ldr	fp, [r0, #-8]
 1501 0438 011198E7 		ldr	r1, [r8, r1, lsl #2]
 1502 043c 055199E7 		ldr	r5, [r9, r5, lsl #2]
 1503 0440 0B3023E0 		eor	r3, r3, fp
 1504 0444 54B4E7E7 		ubfx	fp, r4, #8, #8
 1505 0448 0BB199E7 		ldr	fp, [r9, fp, lsl #2]
 1506 044c 5448E7E7 		ubfx	r4, r4, #16, #8
 1507              	.LVL163:
 1508 0450 04419AE7 		ldr	r4, [r10, r4, lsl #2]
 1509 0454 0B3023E0 		eor	r3, r3, fp
 1510 0458 56B8E7E7 		ubfx	fp, r6, #16, #8
 1511 045c 266CA0E1 		lsr	r6, r6, #24
 1512              	.LVL164:
 1513 0460 0BB19AE7 		ldr	fp, [r10, fp, lsl #2]
 1514 0464 066197E7 		ldr	r6, [r7, r6, lsl #2]
 1515 0468 0B3023E0 		eor	r3, r3, fp
 1516              	.LVL165:
 1517 046c 061021E0 		eor	r1, r1, r6
 1518 0470 046010E5 		ldr	r6, [r0, #-4]
 1519 0474 061021E0 		eor	r1, r1, r6
 1520 0478 051021E0 		eor	r1, r1, r5
 1521 047c 005090E5 		ldr	r5, [r0]
 1522 0480 041021E0 		eor	r1, r1, r4
 1523              	.LVL166:
 925:D:/Work/DeviceTester/amazon-freertos/lib/third_party/mbedtls/library\aes.c ****     {
 1524              		.loc 1 925 0 discriminator 3
 1525 0484 04409DE5 		ldr	r4, [sp, #4]
 1526 0488 014044E2 		sub	r4, r4, #1
 1527 048c 04408DE5 		str	r4, [sp, #4]
 1528              	.LVL167:
 1529 0490 0AFFFFEA 		b	.L48
 1530              	.L52:
 1531              		.align	2
 1532              	.L51:
 1533 0494 00000000 		.word	.LANCHOR2
 1534 0498 00000000 		.word	.LANCHOR3
 1535 049c 00000000 		.word	.LANCHOR4
 1536 04a0 00000000 		.word	.LANCHOR5
 1537 04a4 00000000 		.word	.LANCHOR10
 1538              		.cfi_endproc
 1539              	.LFE6:
 1541              		.section	.text.mbedtls_aes_crypt_ecb,"ax",%progbits
 1542              		.align	2
 1543              		.global	mbedtls_aes_crypt_ecb
 1544              		.syntax unified
 1545              		.arm
 1546              		.fpu neon
 1548              	mbedtls_aes_crypt_ecb:
 1549              	.LFB7:
 964:D:/Work/DeviceTester/amazon-freertos/lib/third_party/mbedtls/library\aes.c **** #endif /* !MBEDTLS_AES_DECRYPT_ALT */
 965:D:/Work/DeviceTester/amazon-freertos/lib/third_party/mbedtls/library\aes.c **** 
 966:D:/Work/DeviceTester/amazon-freertos/lib/third_party/mbedtls/library\aes.c **** #if !defined(MBEDTLS_DEPRECATED_REMOVED)
 967:D:/Work/DeviceTester/amazon-freertos/lib/third_party/mbedtls/library\aes.c **** void mbedtls_aes_decrypt( mbedtls_aes_context *ctx,
 968:D:/Work/DeviceTester/amazon-freertos/lib/third_party/mbedtls/library\aes.c ****                           const unsigned char input[16],
 969:D:/Work/DeviceTester/amazon-freertos/lib/third_party/mbedtls/library\aes.c ****                           unsigned char output[16] )
 970:D:/Work/DeviceTester/amazon-freertos/lib/third_party/mbedtls/library\aes.c **** {
 971:D:/Work/DeviceTester/amazon-freertos/lib/third_party/mbedtls/library\aes.c ****     mbedtls_internal_aes_decrypt( ctx, input, output );
 972:D:/Work/DeviceTester/amazon-freertos/lib/third_party/mbedtls/library\aes.c **** }
 973:D:/Work/DeviceTester/amazon-freertos/lib/third_party/mbedtls/library\aes.c **** #endif /* !MBEDTLS_DEPRECATED_REMOVED */
 974:D:/Work/DeviceTester/amazon-freertos/lib/third_party/mbedtls/library\aes.c **** 
 975:D:/Work/DeviceTester/amazon-freertos/lib/third_party/mbedtls/library\aes.c **** /*
 976:D:/Work/DeviceTester/amazon-freertos/lib/third_party/mbedtls/library\aes.c ****  * AES-ECB block encryption/decryption
 977:D:/Work/DeviceTester/amazon-freertos/lib/third_party/mbedtls/library\aes.c ****  */
 978:D:/Work/DeviceTester/amazon-freertos/lib/third_party/mbedtls/library\aes.c **** int mbedtls_aes_crypt_ecb( mbedtls_aes_context *ctx,
 979:D:/Work/DeviceTester/amazon-freertos/lib/third_party/mbedtls/library\aes.c ****                     int mode,
 980:D:/Work/DeviceTester/amazon-freertos/lib/third_party/mbedtls/library\aes.c ****                     const unsigned char input[16],
 981:D:/Work/DeviceTester/amazon-freertos/lib/third_party/mbedtls/library\aes.c ****                     unsigned char output[16] )
 982:D:/Work/DeviceTester/amazon-freertos/lib/third_party/mbedtls/library\aes.c **** {
 1550              		.loc 1 982 0
 1551              		.cfi_startproc
 1552              		@ args = 0, pretend = 0, frame = 0
 1553              		@ frame_needed = 0, uses_anonymous_args = 0
 1554              		@ link register save eliminated.
 1555              	.LVL168:
 983:D:/Work/DeviceTester/amazon-freertos/lib/third_party/mbedtls/library\aes.c **** #if defined(MBEDTLS_AESNI_C) && defined(MBEDTLS_HAVE_X86_64)
 984:D:/Work/DeviceTester/amazon-freertos/lib/third_party/mbedtls/library\aes.c ****     if( mbedtls_aesni_has_support( MBEDTLS_AESNI_AES ) )
 985:D:/Work/DeviceTester/amazon-freertos/lib/third_party/mbedtls/library\aes.c ****         return( mbedtls_aesni_crypt_ecb( ctx, mode, input, output ) );
 986:D:/Work/DeviceTester/amazon-freertos/lib/third_party/mbedtls/library\aes.c **** #endif
 987:D:/Work/DeviceTester/amazon-freertos/lib/third_party/mbedtls/library\aes.c **** 
 988:D:/Work/DeviceTester/amazon-freertos/lib/third_party/mbedtls/library\aes.c **** #if defined(MBEDTLS_PADLOCK_C) && defined(MBEDTLS_HAVE_X86)
 989:D:/Work/DeviceTester/amazon-freertos/lib/third_party/mbedtls/library\aes.c ****     if( aes_padlock_ace )
 990:D:/Work/DeviceTester/amazon-freertos/lib/third_party/mbedtls/library\aes.c ****     {
 991:D:/Work/DeviceTester/amazon-freertos/lib/third_party/mbedtls/library\aes.c ****         if( mbedtls_padlock_xcryptecb( ctx, mode, input, output ) == 0 )
 992:D:/Work/DeviceTester/amazon-freertos/lib/third_party/mbedtls/library\aes.c ****             return( 0 );
 993:D:/Work/DeviceTester/amazon-freertos/lib/third_party/mbedtls/library\aes.c **** 
 994:D:/Work/DeviceTester/amazon-freertos/lib/third_party/mbedtls/library\aes.c ****         // If padlock data misaligned, we just fall back to
 995:D:/Work/DeviceTester/amazon-freertos/lib/third_party/mbedtls/library\aes.c ****         // unaccelerated mode
 996:D:/Work/DeviceTester/amazon-freertos/lib/third_party/mbedtls/library\aes.c ****         //
 997:D:/Work/DeviceTester/amazon-freertos/lib/third_party/mbedtls/library\aes.c ****     }
 998:D:/Work/DeviceTester/amazon-freertos/lib/third_party/mbedtls/library\aes.c **** #endif
 999:D:/Work/DeviceTester/amazon-freertos/lib/third_party/mbedtls/library\aes.c **** 
1000:D:/Work/DeviceTester/amazon-freertos/lib/third_party/mbedtls/library\aes.c ****     if( mode == MBEDTLS_AES_ENCRYPT )
 1556              		.loc 1 1000 0
 1557 0000 010051E3 		cmp	r1, #1
 982:D:/Work/DeviceTester/amazon-freertos/lib/third_party/mbedtls/library\aes.c **** #if defined(MBEDTLS_AESNI_C) && defined(MBEDTLS_HAVE_X86_64)
 1558              		.loc 1 982 0
 1559 0004 02C0A0E1 		mov	ip, r2
1001:D:/Work/DeviceTester/amazon-freertos/lib/third_party/mbedtls/library\aes.c ****         return( mbedtls_internal_aes_encrypt( ctx, input, output ) );
 1560              		.loc 1 1001 0
 1561 0008 0C10A0E1 		mov	r1, ip
 1562              	.LVL169:
 982:D:/Work/DeviceTester/amazon-freertos/lib/third_party/mbedtls/library\aes.c **** #if defined(MBEDTLS_AESNI_C) && defined(MBEDTLS_HAVE_X86_64)
 1563              		.loc 1 982 0
 1564 000c 0320A0E1 		mov	r2, r3
 1565              	.LVL170:
1000:D:/Work/DeviceTester/amazon-freertos/lib/third_party/mbedtls/library\aes.c ****         return( mbedtls_internal_aes_encrypt( ctx, input, output ) );
 1566              		.loc 1 1000 0
 1567 0010 0000001A 		bne	.L54
 1568              		.loc 1 1001 0
 1569 0014 FEFFFFEA 		b	mbedtls_internal_aes_encrypt
 1570              	.LVL171:
 1571              	.L54:
1002:D:/Work/DeviceTester/amazon-freertos/lib/third_party/mbedtls/library\aes.c ****     else
1003:D:/Work/DeviceTester/amazon-freertos/lib/third_party/mbedtls/library\aes.c ****         return( mbedtls_internal_aes_decrypt( ctx, input, output ) );
 1572              		.loc 1 1003 0
 1573 0018 FEFFFFEA 		b	mbedtls_internal_aes_decrypt
 1574              	.LVL172:
 1575              		.cfi_endproc
 1576              	.LFE7:
 1578              		.section	.text.mbedtls_aes_crypt_cbc,"ax",%progbits
 1579              		.align	2
 1580              		.global	mbedtls_aes_crypt_cbc
 1581              		.syntax unified
 1582              		.arm
 1583              		.fpu neon
 1585              	mbedtls_aes_crypt_cbc:
 1586              	.LFB8:
1004:D:/Work/DeviceTester/amazon-freertos/lib/third_party/mbedtls/library\aes.c **** }
1005:D:/Work/DeviceTester/amazon-freertos/lib/third_party/mbedtls/library\aes.c **** 
1006:D:/Work/DeviceTester/amazon-freertos/lib/third_party/mbedtls/library\aes.c **** #if defined(MBEDTLS_CIPHER_MODE_CBC)
1007:D:/Work/DeviceTester/amazon-freertos/lib/third_party/mbedtls/library\aes.c **** /*
1008:D:/Work/DeviceTester/amazon-freertos/lib/third_party/mbedtls/library\aes.c ****  * AES-CBC buffer encryption/decryption
1009:D:/Work/DeviceTester/amazon-freertos/lib/third_party/mbedtls/library\aes.c ****  */
1010:D:/Work/DeviceTester/amazon-freertos/lib/third_party/mbedtls/library\aes.c **** int mbedtls_aes_crypt_cbc( mbedtls_aes_context *ctx,
1011:D:/Work/DeviceTester/amazon-freertos/lib/third_party/mbedtls/library\aes.c ****                     int mode,
1012:D:/Work/DeviceTester/amazon-freertos/lib/third_party/mbedtls/library\aes.c ****                     size_t length,
1013:D:/Work/DeviceTester/amazon-freertos/lib/third_party/mbedtls/library\aes.c ****                     unsigned char iv[16],
1014:D:/Work/DeviceTester/amazon-freertos/lib/third_party/mbedtls/library\aes.c ****                     const unsigned char *input,
1015:D:/Work/DeviceTester/amazon-freertos/lib/third_party/mbedtls/library\aes.c ****                     unsigned char *output )
1016:D:/Work/DeviceTester/amazon-freertos/lib/third_party/mbedtls/library\aes.c **** {
 1587              		.loc 1 1016 0
 1588              		.cfi_startproc
 1589              		@ args = 8, pretend = 0, frame = 16
 1590              		@ frame_needed = 0, uses_anonymous_args = 0
 1591              	.LVL173:
1017:D:/Work/DeviceTester/amazon-freertos/lib/third_party/mbedtls/library\aes.c ****     int i;
1018:D:/Work/DeviceTester/amazon-freertos/lib/third_party/mbedtls/library\aes.c ****     unsigned char temp[16];
1019:D:/Work/DeviceTester/amazon-freertos/lib/third_party/mbedtls/library\aes.c **** 
1020:D:/Work/DeviceTester/amazon-freertos/lib/third_party/mbedtls/library\aes.c ****     if( length % 16 )
 1592              		.loc 1 1020 0
 1593 0000 0F0012E3 		tst	r2, #15
1016:D:/Work/DeviceTester/amazon-freertos/lib/third_party/mbedtls/library\aes.c ****     int i;
 1594              		.loc 1 1016 0
 1595 0004 FF472DE9 		push	{r0, r1, r2, r3, r4, r5, r6, r7, r8, r9, r10, lr}
 1596              		.cfi_def_cfa_offset 48
 1597              		.cfi_offset 4, -32
 1598              		.cfi_offset 5, -28
 1599              		.cfi_offset 6, -24
 1600              		.cfi_offset 7, -20
 1601              		.cfi_offset 8, -16
 1602              		.cfi_offset 9, -12
 1603              		.cfi_offset 10, -8
 1604              		.cfi_offset 14, -4
1016:D:/Work/DeviceTester/amazon-freertos/lib/third_party/mbedtls/library\aes.c ****     int i;
 1605              		.loc 1 1016 0
 1606 0008 30509DE5 		ldr	r5, [sp, #48]
1021:D:/Work/DeviceTester/amazon-freertos/lib/third_party/mbedtls/library\aes.c ****         return( MBEDTLS_ERR_AES_INVALID_INPUT_LENGTH );
 1607              		.loc 1 1021 0
 1608 000c 2170E013 		mvnne	r7, #33
1016:D:/Work/DeviceTester/amazon-freertos/lib/third_party/mbedtls/library\aes.c ****     int i;
 1609              		.loc 1 1016 0
 1610 0010 34409DE5 		ldr	r4, [sp, #52]
1020:D:/Work/DeviceTester/amazon-freertos/lib/third_party/mbedtls/library\aes.c ****         return( MBEDTLS_ERR_AES_INVALID_INPUT_LENGTH );
 1611              		.loc 1 1020 0
 1612 0014 0A00001A 		bne	.L56
1022:D:/Work/DeviceTester/amazon-freertos/lib/third_party/mbedtls/library\aes.c **** 
1023:D:/Work/DeviceTester/amazon-freertos/lib/third_party/mbedtls/library\aes.c **** #if defined(MBEDTLS_PADLOCK_C) && defined(MBEDTLS_HAVE_X86)
1024:D:/Work/DeviceTester/amazon-freertos/lib/third_party/mbedtls/library\aes.c ****     if( aes_padlock_ace )
1025:D:/Work/DeviceTester/amazon-freertos/lib/third_party/mbedtls/library\aes.c ****     {
1026:D:/Work/DeviceTester/amazon-freertos/lib/third_party/mbedtls/library\aes.c ****         if( mbedtls_padlock_xcryptcbc( ctx, mode, length, iv, input, output ) == 0 )
1027:D:/Work/DeviceTester/amazon-freertos/lib/third_party/mbedtls/library\aes.c ****             return( 0 );
1028:D:/Work/DeviceTester/amazon-freertos/lib/third_party/mbedtls/library\aes.c **** 
1029:D:/Work/DeviceTester/amazon-freertos/lib/third_party/mbedtls/library\aes.c ****         // If padlock data misaligned, we just fall back to
1030:D:/Work/DeviceTester/amazon-freertos/lib/third_party/mbedtls/library\aes.c ****         // unaccelerated mode
1031:D:/Work/DeviceTester/amazon-freertos/lib/third_party/mbedtls/library\aes.c ****         //
1032:D:/Work/DeviceTester/amazon-freertos/lib/third_party/mbedtls/library\aes.c ****     }
1033:D:/Work/DeviceTester/amazon-freertos/lib/third_party/mbedtls/library\aes.c **** #endif
1034:D:/Work/DeviceTester/amazon-freertos/lib/third_party/mbedtls/library\aes.c **** 
1035:D:/Work/DeviceTester/amazon-freertos/lib/third_party/mbedtls/library\aes.c ****     if( mode == MBEDTLS_AES_DECRYPT )
 1613              		.loc 1 1035 0
 1614 0018 000051E3 		cmp	r1, #0
 1615 001c 00A0A0E1 		mov	r10, r0
 1616 0020 0170A0E1 		mov	r7, r1
 1617 0024 0260A0E1 		mov	r6, r2
 1618 0028 0390A0E1 		mov	r9, r3
 1619 002c 0580A001 		moveq	r8, r5
 1620 0030 01504512 		subne	r5, r5, #1
 1621 0034 2F00001A 		bne	.L59
 1622              	.LVL174:
 1623              	.L58:
 1624              	.LBB12:
 1625              	.LBB13:
1036:D:/Work/DeviceTester/amazon-freertos/lib/third_party/mbedtls/library\aes.c ****     {
1037:D:/Work/DeviceTester/amazon-freertos/lib/third_party/mbedtls/library\aes.c ****         while( length > 0 )
 1626              		.loc 1 1037 0
 1627 0038 083046E0 		sub	r3, r6, r8
 1628 003c 030075E1 		cmn	r5, r3
 1629 0040 0200001A 		bne	.L61
 1630              	.LVL175:
 1631              	.L56:
 1632              	.LBE13:
 1633              	.LBE12:
1038:D:/Work/DeviceTester/amazon-freertos/lib/third_party/mbedtls/library\aes.c ****         {
1039:D:/Work/DeviceTester/amazon-freertos/lib/third_party/mbedtls/library\aes.c ****             memcpy( temp, input, 16 );
1040:D:/Work/DeviceTester/amazon-freertos/lib/third_party/mbedtls/library\aes.c ****             mbedtls_aes_crypt_ecb( ctx, mode, input, output );
1041:D:/Work/DeviceTester/amazon-freertos/lib/third_party/mbedtls/library\aes.c **** 
1042:D:/Work/DeviceTester/amazon-freertos/lib/third_party/mbedtls/library\aes.c ****             for( i = 0; i < 16; i++ )
1043:D:/Work/DeviceTester/amazon-freertos/lib/third_party/mbedtls/library\aes.c ****                 output[i] = (unsigned char)( output[i] ^ iv[i] );
1044:D:/Work/DeviceTester/amazon-freertos/lib/third_party/mbedtls/library\aes.c **** 
1045:D:/Work/DeviceTester/amazon-freertos/lib/third_party/mbedtls/library\aes.c ****             memcpy( iv, temp, 16 );
1046:D:/Work/DeviceTester/amazon-freertos/lib/third_party/mbedtls/library\aes.c **** 
1047:D:/Work/DeviceTester/amazon-freertos/lib/third_party/mbedtls/library\aes.c ****             input  += 16;
1048:D:/Work/DeviceTester/amazon-freertos/lib/third_party/mbedtls/library\aes.c ****             output += 16;
1049:D:/Work/DeviceTester/amazon-freertos/lib/third_party/mbedtls/library\aes.c ****             length -= 16;
1050:D:/Work/DeviceTester/amazon-freertos/lib/third_party/mbedtls/library\aes.c ****         }
1051:D:/Work/DeviceTester/amazon-freertos/lib/third_party/mbedtls/library\aes.c ****     }
1052:D:/Work/DeviceTester/amazon-freertos/lib/third_party/mbedtls/library\aes.c ****     else
1053:D:/Work/DeviceTester/amazon-freertos/lib/third_party/mbedtls/library\aes.c ****     {
1054:D:/Work/DeviceTester/amazon-freertos/lib/third_party/mbedtls/library\aes.c ****         while( length > 0 )
1055:D:/Work/DeviceTester/amazon-freertos/lib/third_party/mbedtls/library\aes.c ****         {
1056:D:/Work/DeviceTester/amazon-freertos/lib/third_party/mbedtls/library\aes.c ****             for( i = 0; i < 16; i++ )
1057:D:/Work/DeviceTester/amazon-freertos/lib/third_party/mbedtls/library\aes.c ****                 output[i] = (unsigned char)( input[i] ^ iv[i] );
1058:D:/Work/DeviceTester/amazon-freertos/lib/third_party/mbedtls/library\aes.c **** 
1059:D:/Work/DeviceTester/amazon-freertos/lib/third_party/mbedtls/library\aes.c ****             mbedtls_aes_crypt_ecb( ctx, mode, output, output );
1060:D:/Work/DeviceTester/amazon-freertos/lib/third_party/mbedtls/library\aes.c ****             memcpy( iv, output, 16 );
1061:D:/Work/DeviceTester/amazon-freertos/lib/third_party/mbedtls/library\aes.c **** 
1062:D:/Work/DeviceTester/amazon-freertos/lib/third_party/mbedtls/library\aes.c ****             input  += 16;
1063:D:/Work/DeviceTester/amazon-freertos/lib/third_party/mbedtls/library\aes.c ****             output += 16;
1064:D:/Work/DeviceTester/amazon-freertos/lib/third_party/mbedtls/library\aes.c ****             length -= 16;
1065:D:/Work/DeviceTester/amazon-freertos/lib/third_party/mbedtls/library\aes.c ****         }
1066:D:/Work/DeviceTester/amazon-freertos/lib/third_party/mbedtls/library\aes.c ****     }
1067:D:/Work/DeviceTester/amazon-freertos/lib/third_party/mbedtls/library\aes.c **** 
1068:D:/Work/DeviceTester/amazon-freertos/lib/third_party/mbedtls/library\aes.c ****     return( 0 );
1069:D:/Work/DeviceTester/amazon-freertos/lib/third_party/mbedtls/library\aes.c **** }
 1634              		.loc 1 1069 0
 1635 0044 0700A0E1 		mov	r0, r7
 1636 0048 10D08DE2 		add	sp, sp, #16
 1637              		.cfi_remember_state
 1638              		.cfi_def_cfa_offset 32
 1639              		@ sp needed
 1640 004c F087BDE8 		pop	{r4, r5, r6, r7, r8, r9, r10, pc}
 1641              	.LVL176:
 1642              	.L61:
 1643              		.cfi_restore_state
 1644              	.LBB15:
 1645              	.LBB14:
1039:D:/Work/DeviceTester/amazon-freertos/lib/third_party/mbedtls/library\aes.c ****             mbedtls_aes_crypt_ecb( ctx, mode, input, output );
 1646              		.loc 1 1039 0
 1647 0050 1020A0E3 		mov	r2, #16
 1648 0054 0810A0E1 		mov	r1, r8
 1649 0058 0D00A0E1 		mov	r0, sp
 1650 005c FEFFFFEB 		bl	memcpy
 1651              	.LVL177:
1040:D:/Work/DeviceTester/amazon-freertos/lib/third_party/mbedtls/library\aes.c **** 
 1652              		.loc 1 1040 0
 1653 0060 0430A0E1 		mov	r3, r4
 1654 0064 0010A0E3 		mov	r1, #0
 1655 0068 0820A0E1 		mov	r2, r8
 1656 006c 0A00A0E1 		mov	r0, r10
 1657 0070 FEFFFFEB 		bl	mbedtls_aes_crypt_ecb
 1658              	.LVL178:
 1659 0074 013044E2 		sub	r3, r4, #1
 1660 0078 011049E2 		sub	r1, r9, #1
 1661 007c 0F0084E2 		add	r0, r4, #15
 1662              	.LVL179:
 1663              	.L60:
1043:D:/Work/DeviceTester/amazon-freertos/lib/third_party/mbedtls/library\aes.c **** 
 1664              		.loc 1 1043 0
 1665 0080 0120D3E5 		ldrb	r2, [r3, #1]	@ zero_extendqisi2
 1666 0084 01C0F1E5 		ldrb	ip, [r1, #1]!	@ zero_extendqisi2
 1667 0088 0C2022E0 		eor	r2, r2, ip
 1668 008c 0120E3E5 		strb	r2, [r3, #1]!
1042:D:/Work/DeviceTester/amazon-freertos/lib/third_party/mbedtls/library\aes.c ****                 output[i] = (unsigned char)( output[i] ^ iv[i] );
 1669              		.loc 1 1042 0
 1670 0090 000053E1 		cmp	r3, r0
 1671 0094 F9FFFF1A 		bne	.L60
1045:D:/Work/DeviceTester/amazon-freertos/lib/third_party/mbedtls/library\aes.c **** 
 1672              		.loc 1 1045 0
 1673 0098 1020A0E3 		mov	r2, #16
 1674 009c 0D10A0E1 		mov	r1, sp
 1675 00a0 0900A0E1 		mov	r0, r9
1047:D:/Work/DeviceTester/amazon-freertos/lib/third_party/mbedtls/library\aes.c ****             output += 16;
 1676              		.loc 1 1047 0
 1677 00a4 108088E2 		add	r8, r8, #16
 1678              	.LVL180:
1045:D:/Work/DeviceTester/amazon-freertos/lib/third_party/mbedtls/library\aes.c **** 
 1679              		.loc 1 1045 0
 1680 00a8 FEFFFFEB 		bl	memcpy
 1681              	.LVL181:
1048:D:/Work/DeviceTester/amazon-freertos/lib/third_party/mbedtls/library\aes.c ****             length -= 16;
 1682              		.loc 1 1048 0
 1683 00ac 104084E2 		add	r4, r4, #16
 1684              	.LVL182:
 1685 00b0 E0FFFFEA 		b	.L58
 1686              	.LVL183:
 1687              	.L62:
 1688              	.LBE14:
 1689              	.LBE15:
1057:D:/Work/DeviceTester/amazon-freertos/lib/third_party/mbedtls/library\aes.c **** 
 1690              		.loc 1 1057 0 discriminator 3
 1691 00b4 0130F5E5 		ldrb	r3, [r5, #1]!	@ zero_extendqisi2
 1692              	.LVL184:
 1693 00b8 01C0F1E5 		ldrb	ip, [r1, #1]!	@ zero_extendqisi2
1056:D:/Work/DeviceTester/amazon-freertos/lib/third_party/mbedtls/library\aes.c ****                 output[i] = (unsigned char)( input[i] ^ iv[i] );
 1694              		.loc 1 1056 0 discriminator 3
 1695 00bc 000055E1 		cmp	r5, r0
1057:D:/Work/DeviceTester/amazon-freertos/lib/third_party/mbedtls/library\aes.c **** 
 1696              		.loc 1 1057 0 discriminator 3
 1697 00c0 0C3023E0 		eor	r3, r3, ip
 1698 00c4 0130E2E5 		strb	r3, [r2, #1]!
 1699              	.LVL185:
1056:D:/Work/DeviceTester/amazon-freertos/lib/third_party/mbedtls/library\aes.c ****                 output[i] = (unsigned char)( input[i] ^ iv[i] );
 1700              		.loc 1 1056 0 discriminator 3
 1701 00c8 F9FFFF1A 		bne	.L62
1059:D:/Work/DeviceTester/amazon-freertos/lib/third_party/mbedtls/library\aes.c ****             memcpy( iv, output, 16 );
 1702              		.loc 1 1059 0
 1703 00cc 0430A0E1 		mov	r3, r4
 1704 00d0 0420A0E1 		mov	r2, r4
 1705 00d4 0710A0E1 		mov	r1, r7
 1706 00d8 0A00A0E1 		mov	r0, r10
 1707 00dc FEFFFFEB 		bl	mbedtls_aes_crypt_ecb
 1708              	.LVL186:
1064:D:/Work/DeviceTester/amazon-freertos/lib/third_party/mbedtls/library\aes.c ****         }
 1709              		.loc 1 1064 0
 1710 00e0 106046E2 		sub	r6, r6, #16
 1711              	.LVL187:
1060:D:/Work/DeviceTester/amazon-freertos/lib/third_party/mbedtls/library\aes.c **** 
 1712              		.loc 1 1060 0
 1713 00e4 0410A0E1 		mov	r1, r4
1063:D:/Work/DeviceTester/amazon-freertos/lib/third_party/mbedtls/library\aes.c ****             length -= 16;
 1714              		.loc 1 1063 0
 1715 00e8 104084E2 		add	r4, r4, #16
 1716              	.LVL188:
1060:D:/Work/DeviceTester/amazon-freertos/lib/third_party/mbedtls/library\aes.c **** 
 1717              		.loc 1 1060 0
 1718 00ec 1020A0E3 		mov	r2, #16
 1719 00f0 0900A0E1 		mov	r0, r9
 1720 00f4 FEFFFFEB 		bl	memcpy
 1721              	.LVL189:
 1722              	.L59:
1054:D:/Work/DeviceTester/amazon-freertos/lib/third_party/mbedtls/library\aes.c ****         {
 1723              		.loc 1 1054 0
 1724 00f8 000056E3 		cmp	r6, #0
 1725 00fc 01104912 		subne	r1, r9, #1
 1726 0100 01204412 		subne	r2, r4, #1
 1727 0104 10008512 		addne	r0, r5, #16
 1728 0108 E9FFFF1A 		bne	.L62
 1729              	.L64:
1068:D:/Work/DeviceTester/amazon-freertos/lib/third_party/mbedtls/library\aes.c **** }
 1730              		.loc 1 1068 0
 1731 010c 0670A0E1 		mov	r7, r6
 1732              	.LVL190:
 1733 0110 CBFFFFEA 		b	.L56
 1734              		.cfi_endproc
 1735              	.LFE8:
 1737              		.section	.text.mbedtls_aes_crypt_cfb128,"ax",%progbits
 1738              		.align	2
 1739              		.global	mbedtls_aes_crypt_cfb128
 1740              		.syntax unified
 1741              		.arm
 1742              		.fpu neon
 1744              	mbedtls_aes_crypt_cfb128:
 1745              	.LFB9:
1070:D:/Work/DeviceTester/amazon-freertos/lib/third_party/mbedtls/library\aes.c **** #endif /* MBEDTLS_CIPHER_MODE_CBC */
1071:D:/Work/DeviceTester/amazon-freertos/lib/third_party/mbedtls/library\aes.c **** 
1072:D:/Work/DeviceTester/amazon-freertos/lib/third_party/mbedtls/library\aes.c **** #if defined(MBEDTLS_CIPHER_MODE_XTS)
1073:D:/Work/DeviceTester/amazon-freertos/lib/third_party/mbedtls/library\aes.c **** 
1074:D:/Work/DeviceTester/amazon-freertos/lib/third_party/mbedtls/library\aes.c **** /* Endianess with 64 bits values */
1075:D:/Work/DeviceTester/amazon-freertos/lib/third_party/mbedtls/library\aes.c **** #ifndef GET_UINT64_LE
1076:D:/Work/DeviceTester/amazon-freertos/lib/third_party/mbedtls/library\aes.c **** #define GET_UINT64_LE(n,b,i)                            \
1077:D:/Work/DeviceTester/amazon-freertos/lib/third_party/mbedtls/library\aes.c **** {                                                       \
1078:D:/Work/DeviceTester/amazon-freertos/lib/third_party/mbedtls/library\aes.c ****     (n) = ( (uint64_t) (b)[(i) + 7] << 56 )             \
1079:D:/Work/DeviceTester/amazon-freertos/lib/third_party/mbedtls/library\aes.c ****         | ( (uint64_t) (b)[(i) + 6] << 48 )             \
1080:D:/Work/DeviceTester/amazon-freertos/lib/third_party/mbedtls/library\aes.c ****         | ( (uint64_t) (b)[(i) + 5] << 40 )             \
1081:D:/Work/DeviceTester/amazon-freertos/lib/third_party/mbedtls/library\aes.c ****         | ( (uint64_t) (b)[(i) + 4] << 32 )             \
1082:D:/Work/DeviceTester/amazon-freertos/lib/third_party/mbedtls/library\aes.c ****         | ( (uint64_t) (b)[(i) + 3] << 24 )             \
1083:D:/Work/DeviceTester/amazon-freertos/lib/third_party/mbedtls/library\aes.c ****         | ( (uint64_t) (b)[(i) + 2] << 16 )             \
1084:D:/Work/DeviceTester/amazon-freertos/lib/third_party/mbedtls/library\aes.c ****         | ( (uint64_t) (b)[(i) + 1] <<  8 )             \
1085:D:/Work/DeviceTester/amazon-freertos/lib/third_party/mbedtls/library\aes.c ****         | ( (uint64_t) (b)[(i)    ]       );            \
1086:D:/Work/DeviceTester/amazon-freertos/lib/third_party/mbedtls/library\aes.c **** }
1087:D:/Work/DeviceTester/amazon-freertos/lib/third_party/mbedtls/library\aes.c **** #endif
1088:D:/Work/DeviceTester/amazon-freertos/lib/third_party/mbedtls/library\aes.c **** 
1089:D:/Work/DeviceTester/amazon-freertos/lib/third_party/mbedtls/library\aes.c **** #ifndef PUT_UINT64_LE
1090:D:/Work/DeviceTester/amazon-freertos/lib/third_party/mbedtls/library\aes.c **** #define PUT_UINT64_LE(n,b,i)                            \
1091:D:/Work/DeviceTester/amazon-freertos/lib/third_party/mbedtls/library\aes.c **** {                                                       \
1092:D:/Work/DeviceTester/amazon-freertos/lib/third_party/mbedtls/library\aes.c ****     (b)[(i) + 7] = (unsigned char) ( (n) >> 56 );       \
1093:D:/Work/DeviceTester/amazon-freertos/lib/third_party/mbedtls/library\aes.c ****     (b)[(i) + 6] = (unsigned char) ( (n) >> 48 );       \
1094:D:/Work/DeviceTester/amazon-freertos/lib/third_party/mbedtls/library\aes.c ****     (b)[(i) + 5] = (unsigned char) ( (n) >> 40 );       \
1095:D:/Work/DeviceTester/amazon-freertos/lib/third_party/mbedtls/library\aes.c ****     (b)[(i) + 4] = (unsigned char) ( (n) >> 32 );       \
1096:D:/Work/DeviceTester/amazon-freertos/lib/third_party/mbedtls/library\aes.c ****     (b)[(i) + 3] = (unsigned char) ( (n) >> 24 );       \
1097:D:/Work/DeviceTester/amazon-freertos/lib/third_party/mbedtls/library\aes.c ****     (b)[(i) + 2] = (unsigned char) ( (n) >> 16 );       \
1098:D:/Work/DeviceTester/amazon-freertos/lib/third_party/mbedtls/library\aes.c ****     (b)[(i) + 1] = (unsigned char) ( (n) >>  8 );       \
1099:D:/Work/DeviceTester/amazon-freertos/lib/third_party/mbedtls/library\aes.c ****     (b)[(i)    ] = (unsigned char) ( (n)       );       \
1100:D:/Work/DeviceTester/amazon-freertos/lib/third_party/mbedtls/library\aes.c **** }
1101:D:/Work/DeviceTester/amazon-freertos/lib/third_party/mbedtls/library\aes.c **** #endif
1102:D:/Work/DeviceTester/amazon-freertos/lib/third_party/mbedtls/library\aes.c **** 
1103:D:/Work/DeviceTester/amazon-freertos/lib/third_party/mbedtls/library\aes.c **** typedef unsigned char mbedtls_be128[16];
1104:D:/Work/DeviceTester/amazon-freertos/lib/third_party/mbedtls/library\aes.c **** 
1105:D:/Work/DeviceTester/amazon-freertos/lib/third_party/mbedtls/library\aes.c **** /*
1106:D:/Work/DeviceTester/amazon-freertos/lib/third_party/mbedtls/library\aes.c ****  * GF(2^128) multiplication function
1107:D:/Work/DeviceTester/amazon-freertos/lib/third_party/mbedtls/library\aes.c ****  *
1108:D:/Work/DeviceTester/amazon-freertos/lib/third_party/mbedtls/library\aes.c ****  * This function multiplies a field element by x in the polynomial field
1109:D:/Work/DeviceTester/amazon-freertos/lib/third_party/mbedtls/library\aes.c ****  * representation. It uses 64-bit word operations to gain speed but compensates
1110:D:/Work/DeviceTester/amazon-freertos/lib/third_party/mbedtls/library\aes.c ****  * for machine endianess and hence works correctly on both big and little
1111:D:/Work/DeviceTester/amazon-freertos/lib/third_party/mbedtls/library\aes.c ****  * endian machines.
1112:D:/Work/DeviceTester/amazon-freertos/lib/third_party/mbedtls/library\aes.c ****  */
1113:D:/Work/DeviceTester/amazon-freertos/lib/third_party/mbedtls/library\aes.c **** static void mbedtls_gf128mul_x_ble( unsigned char r[16],
1114:D:/Work/DeviceTester/amazon-freertos/lib/third_party/mbedtls/library\aes.c ****                                     const unsigned char x[16] )
1115:D:/Work/DeviceTester/amazon-freertos/lib/third_party/mbedtls/library\aes.c **** {
1116:D:/Work/DeviceTester/amazon-freertos/lib/third_party/mbedtls/library\aes.c ****     uint64_t a, b, ra, rb;
1117:D:/Work/DeviceTester/amazon-freertos/lib/third_party/mbedtls/library\aes.c **** 
1118:D:/Work/DeviceTester/amazon-freertos/lib/third_party/mbedtls/library\aes.c ****     GET_UINT64_LE( a, x, 0 );
1119:D:/Work/DeviceTester/amazon-freertos/lib/third_party/mbedtls/library\aes.c ****     GET_UINT64_LE( b, x, 8 );
1120:D:/Work/DeviceTester/amazon-freertos/lib/third_party/mbedtls/library\aes.c **** 
1121:D:/Work/DeviceTester/amazon-freertos/lib/third_party/mbedtls/library\aes.c ****     ra = ( a << 1 )  ^ 0x0087 >> ( 8 - ( ( b >> 63 ) << 3 ) );
1122:D:/Work/DeviceTester/amazon-freertos/lib/third_party/mbedtls/library\aes.c ****     rb = ( a >> 63 ) | ( b << 1 );
1123:D:/Work/DeviceTester/amazon-freertos/lib/third_party/mbedtls/library\aes.c **** 
1124:D:/Work/DeviceTester/amazon-freertos/lib/third_party/mbedtls/library\aes.c ****     PUT_UINT64_LE( ra, r, 0 );
1125:D:/Work/DeviceTester/amazon-freertos/lib/third_party/mbedtls/library\aes.c ****     PUT_UINT64_LE( rb, r, 8 );
1126:D:/Work/DeviceTester/amazon-freertos/lib/third_party/mbedtls/library\aes.c **** }
1127:D:/Work/DeviceTester/amazon-freertos/lib/third_party/mbedtls/library\aes.c **** 
1128:D:/Work/DeviceTester/amazon-freertos/lib/third_party/mbedtls/library\aes.c **** /*
1129:D:/Work/DeviceTester/amazon-freertos/lib/third_party/mbedtls/library\aes.c ****  * AES-XTS buffer encryption/decryption
1130:D:/Work/DeviceTester/amazon-freertos/lib/third_party/mbedtls/library\aes.c ****  */
1131:D:/Work/DeviceTester/amazon-freertos/lib/third_party/mbedtls/library\aes.c **** int mbedtls_aes_crypt_xts( mbedtls_aes_xts_context *ctx,
1132:D:/Work/DeviceTester/amazon-freertos/lib/third_party/mbedtls/library\aes.c ****                            int mode,
1133:D:/Work/DeviceTester/amazon-freertos/lib/third_party/mbedtls/library\aes.c ****                            size_t length,
1134:D:/Work/DeviceTester/amazon-freertos/lib/third_party/mbedtls/library\aes.c ****                            const unsigned char data_unit[16],
1135:D:/Work/DeviceTester/amazon-freertos/lib/third_party/mbedtls/library\aes.c ****                            const unsigned char *input,
1136:D:/Work/DeviceTester/amazon-freertos/lib/third_party/mbedtls/library\aes.c ****                            unsigned char *output )
1137:D:/Work/DeviceTester/amazon-freertos/lib/third_party/mbedtls/library\aes.c **** {
1138:D:/Work/DeviceTester/amazon-freertos/lib/third_party/mbedtls/library\aes.c ****     int ret;
1139:D:/Work/DeviceTester/amazon-freertos/lib/third_party/mbedtls/library\aes.c ****     size_t blocks = length / 16;
1140:D:/Work/DeviceTester/amazon-freertos/lib/third_party/mbedtls/library\aes.c ****     size_t leftover = length % 16;
1141:D:/Work/DeviceTester/amazon-freertos/lib/third_party/mbedtls/library\aes.c ****     unsigned char tweak[16];
1142:D:/Work/DeviceTester/amazon-freertos/lib/third_party/mbedtls/library\aes.c ****     unsigned char prev_tweak[16];
1143:D:/Work/DeviceTester/amazon-freertos/lib/third_party/mbedtls/library\aes.c ****     unsigned char tmp[16];
1144:D:/Work/DeviceTester/amazon-freertos/lib/third_party/mbedtls/library\aes.c **** 
1145:D:/Work/DeviceTester/amazon-freertos/lib/third_party/mbedtls/library\aes.c ****     /* Sectors must be at least 16 bytes. */
1146:D:/Work/DeviceTester/amazon-freertos/lib/third_party/mbedtls/library\aes.c ****     if( length < 16 )
1147:D:/Work/DeviceTester/amazon-freertos/lib/third_party/mbedtls/library\aes.c ****         return MBEDTLS_ERR_AES_INVALID_INPUT_LENGTH;
1148:D:/Work/DeviceTester/amazon-freertos/lib/third_party/mbedtls/library\aes.c **** 
1149:D:/Work/DeviceTester/amazon-freertos/lib/third_party/mbedtls/library\aes.c ****     /* NIST SP 80-38E disallows data units larger than 2**20 blocks. */
1150:D:/Work/DeviceTester/amazon-freertos/lib/third_party/mbedtls/library\aes.c ****     if( length > ( 1 << 20 ) * 16 )
1151:D:/Work/DeviceTester/amazon-freertos/lib/third_party/mbedtls/library\aes.c ****         return MBEDTLS_ERR_AES_INVALID_INPUT_LENGTH;
1152:D:/Work/DeviceTester/amazon-freertos/lib/third_party/mbedtls/library\aes.c **** 
1153:D:/Work/DeviceTester/amazon-freertos/lib/third_party/mbedtls/library\aes.c ****     /* Compute the tweak. */
1154:D:/Work/DeviceTester/amazon-freertos/lib/third_party/mbedtls/library\aes.c ****     ret = mbedtls_aes_crypt_ecb( &ctx->tweak, MBEDTLS_AES_ENCRYPT,
1155:D:/Work/DeviceTester/amazon-freertos/lib/third_party/mbedtls/library\aes.c ****                                  data_unit, tweak );
1156:D:/Work/DeviceTester/amazon-freertos/lib/third_party/mbedtls/library\aes.c ****     if( ret != 0 )
1157:D:/Work/DeviceTester/amazon-freertos/lib/third_party/mbedtls/library\aes.c ****         return( ret );
1158:D:/Work/DeviceTester/amazon-freertos/lib/third_party/mbedtls/library\aes.c **** 
1159:D:/Work/DeviceTester/amazon-freertos/lib/third_party/mbedtls/library\aes.c ****     while( blocks-- )
1160:D:/Work/DeviceTester/amazon-freertos/lib/third_party/mbedtls/library\aes.c ****     {
1161:D:/Work/DeviceTester/amazon-freertos/lib/third_party/mbedtls/library\aes.c ****         size_t i;
1162:D:/Work/DeviceTester/amazon-freertos/lib/third_party/mbedtls/library\aes.c **** 
1163:D:/Work/DeviceTester/amazon-freertos/lib/third_party/mbedtls/library\aes.c ****         if( leftover && ( mode == MBEDTLS_AES_DECRYPT ) && blocks == 0 )
1164:D:/Work/DeviceTester/amazon-freertos/lib/third_party/mbedtls/library\aes.c ****         {
1165:D:/Work/DeviceTester/amazon-freertos/lib/third_party/mbedtls/library\aes.c ****             /* We are on the last block in a decrypt operation that has
1166:D:/Work/DeviceTester/amazon-freertos/lib/third_party/mbedtls/library\aes.c ****              * leftover bytes, so we need to use the next tweak for this block,
1167:D:/Work/DeviceTester/amazon-freertos/lib/third_party/mbedtls/library\aes.c ****              * and this tweak for the lefover bytes. Save the current tweak for
1168:D:/Work/DeviceTester/amazon-freertos/lib/third_party/mbedtls/library\aes.c ****              * the leftovers and then update the current tweak for use on this,
1169:D:/Work/DeviceTester/amazon-freertos/lib/third_party/mbedtls/library\aes.c ****              * the last full block. */
1170:D:/Work/DeviceTester/amazon-freertos/lib/third_party/mbedtls/library\aes.c ****             memcpy( prev_tweak, tweak, sizeof( tweak ) );
1171:D:/Work/DeviceTester/amazon-freertos/lib/third_party/mbedtls/library\aes.c ****             mbedtls_gf128mul_x_ble( tweak, tweak );
1172:D:/Work/DeviceTester/amazon-freertos/lib/third_party/mbedtls/library\aes.c ****         }
1173:D:/Work/DeviceTester/amazon-freertos/lib/third_party/mbedtls/library\aes.c **** 
1174:D:/Work/DeviceTester/amazon-freertos/lib/third_party/mbedtls/library\aes.c ****         for( i = 0; i < 16; i++ )
1175:D:/Work/DeviceTester/amazon-freertos/lib/third_party/mbedtls/library\aes.c ****             tmp[i] = input[i] ^ tweak[i];
1176:D:/Work/DeviceTester/amazon-freertos/lib/third_party/mbedtls/library\aes.c **** 
1177:D:/Work/DeviceTester/amazon-freertos/lib/third_party/mbedtls/library\aes.c ****         ret = mbedtls_aes_crypt_ecb( &ctx->crypt, mode, tmp, tmp );
1178:D:/Work/DeviceTester/amazon-freertos/lib/third_party/mbedtls/library\aes.c ****         if( ret != 0 )
1179:D:/Work/DeviceTester/amazon-freertos/lib/third_party/mbedtls/library\aes.c ****             return( ret );
1180:D:/Work/DeviceTester/amazon-freertos/lib/third_party/mbedtls/library\aes.c **** 
1181:D:/Work/DeviceTester/amazon-freertos/lib/third_party/mbedtls/library\aes.c ****         for( i = 0; i < 16; i++ )
1182:D:/Work/DeviceTester/amazon-freertos/lib/third_party/mbedtls/library\aes.c ****             output[i] = tmp[i] ^ tweak[i];
1183:D:/Work/DeviceTester/amazon-freertos/lib/third_party/mbedtls/library\aes.c **** 
1184:D:/Work/DeviceTester/amazon-freertos/lib/third_party/mbedtls/library\aes.c ****         /* Update the tweak for the next block. */
1185:D:/Work/DeviceTester/amazon-freertos/lib/third_party/mbedtls/library\aes.c ****         mbedtls_gf128mul_x_ble( tweak, tweak );
1186:D:/Work/DeviceTester/amazon-freertos/lib/third_party/mbedtls/library\aes.c **** 
1187:D:/Work/DeviceTester/amazon-freertos/lib/third_party/mbedtls/library\aes.c ****         output += 16;
1188:D:/Work/DeviceTester/amazon-freertos/lib/third_party/mbedtls/library\aes.c ****         input += 16;
1189:D:/Work/DeviceTester/amazon-freertos/lib/third_party/mbedtls/library\aes.c ****     }
1190:D:/Work/DeviceTester/amazon-freertos/lib/third_party/mbedtls/library\aes.c **** 
1191:D:/Work/DeviceTester/amazon-freertos/lib/third_party/mbedtls/library\aes.c ****     if( leftover )
1192:D:/Work/DeviceTester/amazon-freertos/lib/third_party/mbedtls/library\aes.c ****     {
1193:D:/Work/DeviceTester/amazon-freertos/lib/third_party/mbedtls/library\aes.c ****         /* If we are on the leftover bytes in a decrypt operation, we need to
1194:D:/Work/DeviceTester/amazon-freertos/lib/third_party/mbedtls/library\aes.c ****          * use the previous tweak for these bytes (as saved in prev_tweak). */
1195:D:/Work/DeviceTester/amazon-freertos/lib/third_party/mbedtls/library\aes.c ****         unsigned char *t = mode == MBEDTLS_AES_DECRYPT ? prev_tweak : tweak;
1196:D:/Work/DeviceTester/amazon-freertos/lib/third_party/mbedtls/library\aes.c **** 
1197:D:/Work/DeviceTester/amazon-freertos/lib/third_party/mbedtls/library\aes.c ****         /* We are now on the final part of the data unit, which doesn't divide
1198:D:/Work/DeviceTester/amazon-freertos/lib/third_party/mbedtls/library\aes.c ****          * evenly by 16. It's time for ciphertext stealing. */
1199:D:/Work/DeviceTester/amazon-freertos/lib/third_party/mbedtls/library\aes.c ****         size_t i;
1200:D:/Work/DeviceTester/amazon-freertos/lib/third_party/mbedtls/library\aes.c ****         unsigned char *prev_output = output - 16;
1201:D:/Work/DeviceTester/amazon-freertos/lib/third_party/mbedtls/library\aes.c **** 
1202:D:/Work/DeviceTester/amazon-freertos/lib/third_party/mbedtls/library\aes.c ****         /* Copy ciphertext bytes from the previous block to our output for each
1203:D:/Work/DeviceTester/amazon-freertos/lib/third_party/mbedtls/library\aes.c ****          * byte of cyphertext we won't steal. At the same time, copy the
1204:D:/Work/DeviceTester/amazon-freertos/lib/third_party/mbedtls/library\aes.c ****          * remainder of the input for this final round (since the loop bounds
1205:D:/Work/DeviceTester/amazon-freertos/lib/third_party/mbedtls/library\aes.c ****          * are the same). */
1206:D:/Work/DeviceTester/amazon-freertos/lib/third_party/mbedtls/library\aes.c ****         for( i = 0; i < leftover; i++ )
1207:D:/Work/DeviceTester/amazon-freertos/lib/third_party/mbedtls/library\aes.c ****         {
1208:D:/Work/DeviceTester/amazon-freertos/lib/third_party/mbedtls/library\aes.c ****             output[i] = prev_output[i];
1209:D:/Work/DeviceTester/amazon-freertos/lib/third_party/mbedtls/library\aes.c ****             tmp[i] = input[i] ^ t[i];
1210:D:/Work/DeviceTester/amazon-freertos/lib/third_party/mbedtls/library\aes.c ****         }
1211:D:/Work/DeviceTester/amazon-freertos/lib/third_party/mbedtls/library\aes.c **** 
1212:D:/Work/DeviceTester/amazon-freertos/lib/third_party/mbedtls/library\aes.c ****         /* Copy ciphertext bytes from the previous block for input in this
1213:D:/Work/DeviceTester/amazon-freertos/lib/third_party/mbedtls/library\aes.c ****          * round. */
1214:D:/Work/DeviceTester/amazon-freertos/lib/third_party/mbedtls/library\aes.c ****         for( ; i < 16; i++ )
1215:D:/Work/DeviceTester/amazon-freertos/lib/third_party/mbedtls/library\aes.c ****             tmp[i] = prev_output[i] ^ t[i];
1216:D:/Work/DeviceTester/amazon-freertos/lib/third_party/mbedtls/library\aes.c **** 
1217:D:/Work/DeviceTester/amazon-freertos/lib/third_party/mbedtls/library\aes.c ****         ret = mbedtls_aes_crypt_ecb( &ctx->crypt, mode, tmp, tmp );
1218:D:/Work/DeviceTester/amazon-freertos/lib/third_party/mbedtls/library\aes.c ****         if( ret != 0 )
1219:D:/Work/DeviceTester/amazon-freertos/lib/third_party/mbedtls/library\aes.c ****             return ret;
1220:D:/Work/DeviceTester/amazon-freertos/lib/third_party/mbedtls/library\aes.c **** 
1221:D:/Work/DeviceTester/amazon-freertos/lib/third_party/mbedtls/library\aes.c ****         /* Write the result back to the previous block, overriding the previous
1222:D:/Work/DeviceTester/amazon-freertos/lib/third_party/mbedtls/library\aes.c ****          * output we copied. */
1223:D:/Work/DeviceTester/amazon-freertos/lib/third_party/mbedtls/library\aes.c ****         for( i = 0; i < 16; i++ )
1224:D:/Work/DeviceTester/amazon-freertos/lib/third_party/mbedtls/library\aes.c ****             prev_output[i] = tmp[i] ^ t[i];
1225:D:/Work/DeviceTester/amazon-freertos/lib/third_party/mbedtls/library\aes.c ****     }
1226:D:/Work/DeviceTester/amazon-freertos/lib/third_party/mbedtls/library\aes.c **** 
1227:D:/Work/DeviceTester/amazon-freertos/lib/third_party/mbedtls/library\aes.c ****     return( 0 );
1228:D:/Work/DeviceTester/amazon-freertos/lib/third_party/mbedtls/library\aes.c **** }
1229:D:/Work/DeviceTester/amazon-freertos/lib/third_party/mbedtls/library\aes.c **** #endif /* MBEDTLS_CIPHER_MODE_XTS */
1230:D:/Work/DeviceTester/amazon-freertos/lib/third_party/mbedtls/library\aes.c **** 
1231:D:/Work/DeviceTester/amazon-freertos/lib/third_party/mbedtls/library\aes.c **** #if defined(MBEDTLS_CIPHER_MODE_CFB)
1232:D:/Work/DeviceTester/amazon-freertos/lib/third_party/mbedtls/library\aes.c **** /*
1233:D:/Work/DeviceTester/amazon-freertos/lib/third_party/mbedtls/library\aes.c ****  * AES-CFB128 buffer encryption/decryption
1234:D:/Work/DeviceTester/amazon-freertos/lib/third_party/mbedtls/library\aes.c ****  */
1235:D:/Work/DeviceTester/amazon-freertos/lib/third_party/mbedtls/library\aes.c **** int mbedtls_aes_crypt_cfb128( mbedtls_aes_context *ctx,
1236:D:/Work/DeviceTester/amazon-freertos/lib/third_party/mbedtls/library\aes.c ****                        int mode,
1237:D:/Work/DeviceTester/amazon-freertos/lib/third_party/mbedtls/library\aes.c ****                        size_t length,
1238:D:/Work/DeviceTester/amazon-freertos/lib/third_party/mbedtls/library\aes.c ****                        size_t *iv_off,
1239:D:/Work/DeviceTester/amazon-freertos/lib/third_party/mbedtls/library\aes.c ****                        unsigned char iv[16],
1240:D:/Work/DeviceTester/amazon-freertos/lib/third_party/mbedtls/library\aes.c ****                        const unsigned char *input,
1241:D:/Work/DeviceTester/amazon-freertos/lib/third_party/mbedtls/library\aes.c ****                        unsigned char *output )
1242:D:/Work/DeviceTester/amazon-freertos/lib/third_party/mbedtls/library\aes.c **** {
 1746              		.loc 1 1242 0
 1747              		.cfi_startproc
