   1              		.cpu cortex-a9
   2              		.eabi_attribute 28, 1
   3              		.eabi_attribute 20, 1
   4              		.eabi_attribute 21, 1
   5              		.eabi_attribute 23, 3
   6              		.eabi_attribute 24, 1
   7              		.eabi_attribute 25, 1
   8              		.eabi_attribute 26, 1
   9              		.eabi_attribute 30, 4
  10              		.eabi_attribute 34, 0
  11              		.eabi_attribute 18, 4
  12              		.file	"aes.c"
  13              		.text
  14              	.Ltext0:
  15              		.cfi_sections	.debug_frame
  16              		.section	.text.mbedtls_aes_init,"ax",%progbits
  17              		.align	2
  18              		.global	mbedtls_aes_init
  19              		.syntax unified
  20              		.arm
  21              		.fpu neon
  23              	mbedtls_aes_init:
  24              	.LFB1:
  25              		.file 1 "D:/Work/DeviceTester/amazon-freertos/lib/third_party/mbedtls/library/aes.c"
   1:D:/Work/DeviceTester/amazon-freertos/lib/third_party/mbedtls/library\aes.c **** /*
   2:D:/Work/DeviceTester/amazon-freertos/lib/third_party/mbedtls/library\aes.c ****  *  FIPS-197 compliant AES implementation
   3:D:/Work/DeviceTester/amazon-freertos/lib/third_party/mbedtls/library\aes.c ****  *
   4:D:/Work/DeviceTester/amazon-freertos/lib/third_party/mbedtls/library\aes.c ****  *  Copyright (C) 2006-2015, ARM Limited, All Rights Reserved
   5:D:/Work/DeviceTester/amazon-freertos/lib/third_party/mbedtls/library\aes.c ****  *  SPDX-License-Identifier: Apache-2.0
   6:D:/Work/DeviceTester/amazon-freertos/lib/third_party/mbedtls/library\aes.c ****  *
   7:D:/Work/DeviceTester/amazon-freertos/lib/third_party/mbedtls/library\aes.c ****  *  Licensed under the Apache License, Version 2.0 (the "License"); you may
   8:D:/Work/DeviceTester/amazon-freertos/lib/third_party/mbedtls/library\aes.c ****  *  not use this file except in compliance with the License.
   9:D:/Work/DeviceTester/amazon-freertos/lib/third_party/mbedtls/library\aes.c ****  *  You may obtain a copy of the License at
  10:D:/Work/DeviceTester/amazon-freertos/lib/third_party/mbedtls/library\aes.c ****  *
  11:D:/Work/DeviceTester/amazon-freertos/lib/third_party/mbedtls/library\aes.c ****  *  http://www.apache.org/licenses/LICENSE-2.0
  12:D:/Work/DeviceTester/amazon-freertos/lib/third_party/mbedtls/library\aes.c ****  *
  13:D:/Work/DeviceTester/amazon-freertos/lib/third_party/mbedtls/library\aes.c ****  *  Unless required by applicable law or agreed to in writing, software
  14:D:/Work/DeviceTester/amazon-freertos/lib/third_party/mbedtls/library\aes.c ****  *  distributed under the License is distributed on an "AS IS" BASIS, WITHOUT
  15:D:/Work/DeviceTester/amazon-freertos/lib/third_party/mbedtls/library\aes.c ****  *  WARRANTIES OR CONDITIONS OF ANY KIND, either express or implied.
  16:D:/Work/DeviceTester/amazon-freertos/lib/third_party/mbedtls/library\aes.c ****  *  See the License for the specific language governing permissions and
  17:D:/Work/DeviceTester/amazon-freertos/lib/third_party/mbedtls/library\aes.c ****  *  limitations under the License.
  18:D:/Work/DeviceTester/amazon-freertos/lib/third_party/mbedtls/library\aes.c ****  *
  19:D:/Work/DeviceTester/amazon-freertos/lib/third_party/mbedtls/library\aes.c ****  *  This file is part of mbed TLS (https://tls.mbed.org)
  20:D:/Work/DeviceTester/amazon-freertos/lib/third_party/mbedtls/library\aes.c ****  */
  21:D:/Work/DeviceTester/amazon-freertos/lib/third_party/mbedtls/library\aes.c **** /*
  22:D:/Work/DeviceTester/amazon-freertos/lib/third_party/mbedtls/library\aes.c ****  *  The AES block cipher was designed by Vincent Rijmen and Joan Daemen.
  23:D:/Work/DeviceTester/amazon-freertos/lib/third_party/mbedtls/library\aes.c ****  *
  24:D:/Work/DeviceTester/amazon-freertos/lib/third_party/mbedtls/library\aes.c ****  *  http://csrc.nist.gov/encryption/aes/rijndael/Rijndael.pdf
  25:D:/Work/DeviceTester/amazon-freertos/lib/third_party/mbedtls/library\aes.c ****  *  http://csrc.nist.gov/publications/fips/fips197/fips-197.pdf
  26:D:/Work/DeviceTester/amazon-freertos/lib/third_party/mbedtls/library\aes.c ****  */
  27:D:/Work/DeviceTester/amazon-freertos/lib/third_party/mbedtls/library\aes.c **** 
  28:D:/Work/DeviceTester/amazon-freertos/lib/third_party/mbedtls/library\aes.c **** #if !defined(MBEDTLS_CONFIG_FILE)
  29:D:/Work/DeviceTester/amazon-freertos/lib/third_party/mbedtls/library\aes.c **** #include "mbedtls/config.h"
  30:D:/Work/DeviceTester/amazon-freertos/lib/third_party/mbedtls/library\aes.c **** #else
  31:D:/Work/DeviceTester/amazon-freertos/lib/third_party/mbedtls/library\aes.c **** #include MBEDTLS_CONFIG_FILE
  32:D:/Work/DeviceTester/amazon-freertos/lib/third_party/mbedtls/library\aes.c **** #endif
  33:D:/Work/DeviceTester/amazon-freertos/lib/third_party/mbedtls/library\aes.c **** 
  34:D:/Work/DeviceTester/amazon-freertos/lib/third_party/mbedtls/library\aes.c **** #if defined(MBEDTLS_AES_C)
  35:D:/Work/DeviceTester/amazon-freertos/lib/third_party/mbedtls/library\aes.c **** 
  36:D:/Work/DeviceTester/amazon-freertos/lib/third_party/mbedtls/library\aes.c **** #include <string.h>
  37:D:/Work/DeviceTester/amazon-freertos/lib/third_party/mbedtls/library\aes.c **** 
  38:D:/Work/DeviceTester/amazon-freertos/lib/third_party/mbedtls/library\aes.c **** #include "mbedtls/aes.h"
  39:D:/Work/DeviceTester/amazon-freertos/lib/third_party/mbedtls/library\aes.c **** #include "mbedtls/platform_util.h"
  40:D:/Work/DeviceTester/amazon-freertos/lib/third_party/mbedtls/library\aes.c **** #if defined(MBEDTLS_PADLOCK_C)
  41:D:/Work/DeviceTester/amazon-freertos/lib/third_party/mbedtls/library\aes.c **** #include "mbedtls/padlock.h"
  42:D:/Work/DeviceTester/amazon-freertos/lib/third_party/mbedtls/library\aes.c **** #endif
  43:D:/Work/DeviceTester/amazon-freertos/lib/third_party/mbedtls/library\aes.c **** #if defined(MBEDTLS_AESNI_C)
  44:D:/Work/DeviceTester/amazon-freertos/lib/third_party/mbedtls/library\aes.c **** #include "mbedtls/aesni.h"
  45:D:/Work/DeviceTester/amazon-freertos/lib/third_party/mbedtls/library\aes.c **** #endif
  46:D:/Work/DeviceTester/amazon-freertos/lib/third_party/mbedtls/library\aes.c **** 
  47:D:/Work/DeviceTester/amazon-freertos/lib/third_party/mbedtls/library\aes.c **** #if defined(MBEDTLS_SELF_TEST)
  48:D:/Work/DeviceTester/amazon-freertos/lib/third_party/mbedtls/library\aes.c **** #if defined(MBEDTLS_PLATFORM_C)
  49:D:/Work/DeviceTester/amazon-freertos/lib/third_party/mbedtls/library\aes.c **** #include "mbedtls/platform.h"
  50:D:/Work/DeviceTester/amazon-freertos/lib/third_party/mbedtls/library\aes.c **** #else
  51:D:/Work/DeviceTester/amazon-freertos/lib/third_party/mbedtls/library\aes.c **** #include <stdio.h>
  52:D:/Work/DeviceTester/amazon-freertos/lib/third_party/mbedtls/library\aes.c **** #define mbedtls_printf printf
  53:D:/Work/DeviceTester/amazon-freertos/lib/third_party/mbedtls/library\aes.c **** #endif /* MBEDTLS_PLATFORM_C */
  54:D:/Work/DeviceTester/amazon-freertos/lib/third_party/mbedtls/library\aes.c **** #endif /* MBEDTLS_SELF_TEST */
  55:D:/Work/DeviceTester/amazon-freertos/lib/third_party/mbedtls/library\aes.c **** 
  56:D:/Work/DeviceTester/amazon-freertos/lib/third_party/mbedtls/library\aes.c **** #if !defined(MBEDTLS_AES_ALT)
  57:D:/Work/DeviceTester/amazon-freertos/lib/third_party/mbedtls/library\aes.c **** 
  58:D:/Work/DeviceTester/amazon-freertos/lib/third_party/mbedtls/library\aes.c **** /*
  59:D:/Work/DeviceTester/amazon-freertos/lib/third_party/mbedtls/library\aes.c ****  * 32-bit integer manipulation macros (little endian)
  60:D:/Work/DeviceTester/amazon-freertos/lib/third_party/mbedtls/library\aes.c ****  */
  61:D:/Work/DeviceTester/amazon-freertos/lib/third_party/mbedtls/library\aes.c **** #ifndef GET_UINT32_LE
  62:D:/Work/DeviceTester/amazon-freertos/lib/third_party/mbedtls/library\aes.c **** #define GET_UINT32_LE(n,b,i)                            \
  63:D:/Work/DeviceTester/amazon-freertos/lib/third_party/mbedtls/library\aes.c **** {                                                       \
  64:D:/Work/DeviceTester/amazon-freertos/lib/third_party/mbedtls/library\aes.c ****     (n) = ( (uint32_t) (b)[(i)    ]       )             \
  65:D:/Work/DeviceTester/amazon-freertos/lib/third_party/mbedtls/library\aes.c ****         | ( (uint32_t) (b)[(i) + 1] <<  8 )             \
  66:D:/Work/DeviceTester/amazon-freertos/lib/third_party/mbedtls/library\aes.c ****         | ( (uint32_t) (b)[(i) + 2] << 16 )             \
  67:D:/Work/DeviceTester/amazon-freertos/lib/third_party/mbedtls/library\aes.c ****         | ( (uint32_t) (b)[(i) + 3] << 24 );            \
  68:D:/Work/DeviceTester/amazon-freertos/lib/third_party/mbedtls/library\aes.c **** }
  69:D:/Work/DeviceTester/amazon-freertos/lib/third_party/mbedtls/library\aes.c **** #endif
  70:D:/Work/DeviceTester/amazon-freertos/lib/third_party/mbedtls/library\aes.c **** 
  71:D:/Work/DeviceTester/amazon-freertos/lib/third_party/mbedtls/library\aes.c **** #ifndef PUT_UINT32_LE
  72:D:/Work/DeviceTester/amazon-freertos/lib/third_party/mbedtls/library\aes.c **** #define PUT_UINT32_LE(n,b,i)                                    \
  73:D:/Work/DeviceTester/amazon-freertos/lib/third_party/mbedtls/library\aes.c **** {                                                               \
  74:D:/Work/DeviceTester/amazon-freertos/lib/third_party/mbedtls/library\aes.c ****     (b)[(i)    ] = (unsigned char) ( ( (n)       ) & 0xFF );    \
  75:D:/Work/DeviceTester/amazon-freertos/lib/third_party/mbedtls/library\aes.c ****     (b)[(i) + 1] = (unsigned char) ( ( (n) >>  8 ) & 0xFF );    \
  76:D:/Work/DeviceTester/amazon-freertos/lib/third_party/mbedtls/library\aes.c ****     (b)[(i) + 2] = (unsigned char) ( ( (n) >> 16 ) & 0xFF );    \
  77:D:/Work/DeviceTester/amazon-freertos/lib/third_party/mbedtls/library\aes.c ****     (b)[(i) + 3] = (unsigned char) ( ( (n) >> 24 ) & 0xFF );    \
  78:D:/Work/DeviceTester/amazon-freertos/lib/third_party/mbedtls/library\aes.c **** }
  79:D:/Work/DeviceTester/amazon-freertos/lib/third_party/mbedtls/library\aes.c **** #endif
  80:D:/Work/DeviceTester/amazon-freertos/lib/third_party/mbedtls/library\aes.c **** 
  81:D:/Work/DeviceTester/amazon-freertos/lib/third_party/mbedtls/library\aes.c **** #if defined(MBEDTLS_PADLOCK_C) &&                      \
  82:D:/Work/DeviceTester/amazon-freertos/lib/third_party/mbedtls/library\aes.c ****     ( defined(MBEDTLS_HAVE_X86) || defined(MBEDTLS_PADLOCK_ALIGN16) )
  83:D:/Work/DeviceTester/amazon-freertos/lib/third_party/mbedtls/library\aes.c **** static int aes_padlock_ace = -1;
  84:D:/Work/DeviceTester/amazon-freertos/lib/third_party/mbedtls/library\aes.c **** #endif
  85:D:/Work/DeviceTester/amazon-freertos/lib/third_party/mbedtls/library\aes.c **** 
  86:D:/Work/DeviceTester/amazon-freertos/lib/third_party/mbedtls/library\aes.c **** #if defined(MBEDTLS_AES_ROM_TABLES)
  87:D:/Work/DeviceTester/amazon-freertos/lib/third_party/mbedtls/library\aes.c **** /*
  88:D:/Work/DeviceTester/amazon-freertos/lib/third_party/mbedtls/library\aes.c ****  * Forward S-box
  89:D:/Work/DeviceTester/amazon-freertos/lib/third_party/mbedtls/library\aes.c ****  */
  90:D:/Work/DeviceTester/amazon-freertos/lib/third_party/mbedtls/library\aes.c **** static const unsigned char FSb[256] =
  91:D:/Work/DeviceTester/amazon-freertos/lib/third_party/mbedtls/library\aes.c **** {
  92:D:/Work/DeviceTester/amazon-freertos/lib/third_party/mbedtls/library\aes.c ****     0x63, 0x7C, 0x77, 0x7B, 0xF2, 0x6B, 0x6F, 0xC5,
  93:D:/Work/DeviceTester/amazon-freertos/lib/third_party/mbedtls/library\aes.c ****     0x30, 0x01, 0x67, 0x2B, 0xFE, 0xD7, 0xAB, 0x76,
  94:D:/Work/DeviceTester/amazon-freertos/lib/third_party/mbedtls/library\aes.c ****     0xCA, 0x82, 0xC9, 0x7D, 0xFA, 0x59, 0x47, 0xF0,
  95:D:/Work/DeviceTester/amazon-freertos/lib/third_party/mbedtls/library\aes.c ****     0xAD, 0xD4, 0xA2, 0xAF, 0x9C, 0xA4, 0x72, 0xC0,
  96:D:/Work/DeviceTester/amazon-freertos/lib/third_party/mbedtls/library\aes.c ****     0xB7, 0xFD, 0x93, 0x26, 0x36, 0x3F, 0xF7, 0xCC,
  97:D:/Work/DeviceTester/amazon-freertos/lib/third_party/mbedtls/library\aes.c ****     0x34, 0xA5, 0xE5, 0xF1, 0x71, 0xD8, 0x31, 0x15,
  98:D:/Work/DeviceTester/amazon-freertos/lib/third_party/mbedtls/library\aes.c ****     0x04, 0xC7, 0x23, 0xC3, 0x18, 0x96, 0x05, 0x9A,
  99:D:/Work/DeviceTester/amazon-freertos/lib/third_party/mbedtls/library\aes.c ****     0x07, 0x12, 0x80, 0xE2, 0xEB, 0x27, 0xB2, 0x75,
 100:D:/Work/DeviceTester/amazon-freertos/lib/third_party/mbedtls/library\aes.c ****     0x09, 0x83, 0x2C, 0x1A, 0x1B, 0x6E, 0x5A, 0xA0,
 101:D:/Work/DeviceTester/amazon-freertos/lib/third_party/mbedtls/library\aes.c ****     0x52, 0x3B, 0xD6, 0xB3, 0x29, 0xE3, 0x2F, 0x84,
 102:D:/Work/DeviceTester/amazon-freertos/lib/third_party/mbedtls/library\aes.c ****     0x53, 0xD1, 0x00, 0xED, 0x20, 0xFC, 0xB1, 0x5B,
 103:D:/Work/DeviceTester/amazon-freertos/lib/third_party/mbedtls/library\aes.c ****     0x6A, 0xCB, 0xBE, 0x39, 0x4A, 0x4C, 0x58, 0xCF,
 104:D:/Work/DeviceTester/amazon-freertos/lib/third_party/mbedtls/library\aes.c ****     0xD0, 0xEF, 0xAA, 0xFB, 0x43, 0x4D, 0x33, 0x85,
 105:D:/Work/DeviceTester/amazon-freertos/lib/third_party/mbedtls/library\aes.c ****     0x45, 0xF9, 0x02, 0x7F, 0x50, 0x3C, 0x9F, 0xA8,
 106:D:/Work/DeviceTester/amazon-freertos/lib/third_party/mbedtls/library\aes.c ****     0x51, 0xA3, 0x40, 0x8F, 0x92, 0x9D, 0x38, 0xF5,
 107:D:/Work/DeviceTester/amazon-freertos/lib/third_party/mbedtls/library\aes.c ****     0xBC, 0xB6, 0xDA, 0x21, 0x10, 0xFF, 0xF3, 0xD2,
 108:D:/Work/DeviceTester/amazon-freertos/lib/third_party/mbedtls/library\aes.c ****     0xCD, 0x0C, 0x13, 0xEC, 0x5F, 0x97, 0x44, 0x17,
 109:D:/Work/DeviceTester/amazon-freertos/lib/third_party/mbedtls/library\aes.c ****     0xC4, 0xA7, 0x7E, 0x3D, 0x64, 0x5D, 0x19, 0x73,
 110:D:/Work/DeviceTester/amazon-freertos/lib/third_party/mbedtls/library\aes.c ****     0x60, 0x81, 0x4F, 0xDC, 0x22, 0x2A, 0x90, 0x88,
 111:D:/Work/DeviceTester/amazon-freertos/lib/third_party/mbedtls/library\aes.c ****     0x46, 0xEE, 0xB8, 0x14, 0xDE, 0x5E, 0x0B, 0xDB,
 112:D:/Work/DeviceTester/amazon-freertos/lib/third_party/mbedtls/library\aes.c ****     0xE0, 0x32, 0x3A, 0x0A, 0x49, 0x06, 0x24, 0x5C,
 113:D:/Work/DeviceTester/amazon-freertos/lib/third_party/mbedtls/library\aes.c ****     0xC2, 0xD3, 0xAC, 0x62, 0x91, 0x95, 0xE4, 0x79,
 114:D:/Work/DeviceTester/amazon-freertos/lib/third_party/mbedtls/library\aes.c ****     0xE7, 0xC8, 0x37, 0x6D, 0x8D, 0xD5, 0x4E, 0xA9,
 115:D:/Work/DeviceTester/amazon-freertos/lib/third_party/mbedtls/library\aes.c ****     0x6C, 0x56, 0xF4, 0xEA, 0x65, 0x7A, 0xAE, 0x08,
 116:D:/Work/DeviceTester/amazon-freertos/lib/third_party/mbedtls/library\aes.c ****     0xBA, 0x78, 0x25, 0x2E, 0x1C, 0xA6, 0xB4, 0xC6,
 117:D:/Work/DeviceTester/amazon-freertos/lib/third_party/mbedtls/library\aes.c ****     0xE8, 0xDD, 0x74, 0x1F, 0x4B, 0xBD, 0x8B, 0x8A,
 118:D:/Work/DeviceTester/amazon-freertos/lib/third_party/mbedtls/library\aes.c ****     0x70, 0x3E, 0xB5, 0x66, 0x48, 0x03, 0xF6, 0x0E,
 119:D:/Work/DeviceTester/amazon-freertos/lib/third_party/mbedtls/library\aes.c ****     0x61, 0x35, 0x57, 0xB9, 0x86, 0xC1, 0x1D, 0x9E,
 120:D:/Work/DeviceTester/amazon-freertos/lib/third_party/mbedtls/library\aes.c ****     0xE1, 0xF8, 0x98, 0x11, 0x69, 0xD9, 0x8E, 0x94,
 121:D:/Work/DeviceTester/amazon-freertos/lib/third_party/mbedtls/library\aes.c ****     0x9B, 0x1E, 0x87, 0xE9, 0xCE, 0x55, 0x28, 0xDF,
 122:D:/Work/DeviceTester/amazon-freertos/lib/third_party/mbedtls/library\aes.c ****     0x8C, 0xA1, 0x89, 0x0D, 0xBF, 0xE6, 0x42, 0x68,
 123:D:/Work/DeviceTester/amazon-freertos/lib/third_party/mbedtls/library\aes.c ****     0x41, 0x99, 0x2D, 0x0F, 0xB0, 0x54, 0xBB, 0x16
 124:D:/Work/DeviceTester/amazon-freertos/lib/third_party/mbedtls/library\aes.c **** };
 125:D:/Work/DeviceTester/amazon-freertos/lib/third_party/mbedtls/library\aes.c **** 
 126:D:/Work/DeviceTester/amazon-freertos/lib/third_party/mbedtls/library\aes.c **** /*
 127:D:/Work/DeviceTester/amazon-freertos/lib/third_party/mbedtls/library\aes.c ****  * Forward tables
 128:D:/Work/DeviceTester/amazon-freertos/lib/third_party/mbedtls/library\aes.c ****  */
 129:D:/Work/DeviceTester/amazon-freertos/lib/third_party/mbedtls/library\aes.c **** #define FT \
 130:D:/Work/DeviceTester/amazon-freertos/lib/third_party/mbedtls/library\aes.c **** \
 131:D:/Work/DeviceTester/amazon-freertos/lib/third_party/mbedtls/library\aes.c ****     V(A5,63,63,C6), V(84,7C,7C,F8), V(99,77,77,EE), V(8D,7B,7B,F6), \
 132:D:/Work/DeviceTester/amazon-freertos/lib/third_party/mbedtls/library\aes.c ****     V(0D,F2,F2,FF), V(BD,6B,6B,D6), V(B1,6F,6F,DE), V(54,C5,C5,91), \
 133:D:/Work/DeviceTester/amazon-freertos/lib/third_party/mbedtls/library\aes.c ****     V(50,30,30,60), V(03,01,01,02), V(A9,67,67,CE), V(7D,2B,2B,56), \
 134:D:/Work/DeviceTester/amazon-freertos/lib/third_party/mbedtls/library\aes.c ****     V(19,FE,FE,E7), V(62,D7,D7,B5), V(E6,AB,AB,4D), V(9A,76,76,EC), \
 135:D:/Work/DeviceTester/amazon-freertos/lib/third_party/mbedtls/library\aes.c ****     V(45,CA,CA,8F), V(9D,82,82,1F), V(40,C9,C9,89), V(87,7D,7D,FA), \
 136:D:/Work/DeviceTester/amazon-freertos/lib/third_party/mbedtls/library\aes.c ****     V(15,FA,FA,EF), V(EB,59,59,B2), V(C9,47,47,8E), V(0B,F0,F0,FB), \
 137:D:/Work/DeviceTester/amazon-freertos/lib/third_party/mbedtls/library\aes.c ****     V(EC,AD,AD,41), V(67,D4,D4,B3), V(FD,A2,A2,5F), V(EA,AF,AF,45), \
 138:D:/Work/DeviceTester/amazon-freertos/lib/third_party/mbedtls/library\aes.c ****     V(BF,9C,9C,23), V(F7,A4,A4,53), V(96,72,72,E4), V(5B,C0,C0,9B), \
 139:D:/Work/DeviceTester/amazon-freertos/lib/third_party/mbedtls/library\aes.c ****     V(C2,B7,B7,75), V(1C,FD,FD,E1), V(AE,93,93,3D), V(6A,26,26,4C), \
 140:D:/Work/DeviceTester/amazon-freertos/lib/third_party/mbedtls/library\aes.c ****     V(5A,36,36,6C), V(41,3F,3F,7E), V(02,F7,F7,F5), V(4F,CC,CC,83), \
 141:D:/Work/DeviceTester/amazon-freertos/lib/third_party/mbedtls/library\aes.c ****     V(5C,34,34,68), V(F4,A5,A5,51), V(34,E5,E5,D1), V(08,F1,F1,F9), \
 142:D:/Work/DeviceTester/amazon-freertos/lib/third_party/mbedtls/library\aes.c ****     V(93,71,71,E2), V(73,D8,D8,AB), V(53,31,31,62), V(3F,15,15,2A), \
 143:D:/Work/DeviceTester/amazon-freertos/lib/third_party/mbedtls/library\aes.c ****     V(0C,04,04,08), V(52,C7,C7,95), V(65,23,23,46), V(5E,C3,C3,9D), \
 144:D:/Work/DeviceTester/amazon-freertos/lib/third_party/mbedtls/library\aes.c ****     V(28,18,18,30), V(A1,96,96,37), V(0F,05,05,0A), V(B5,9A,9A,2F), \
 145:D:/Work/DeviceTester/amazon-freertos/lib/third_party/mbedtls/library\aes.c ****     V(09,07,07,0E), V(36,12,12,24), V(9B,80,80,1B), V(3D,E2,E2,DF), \
 146:D:/Work/DeviceTester/amazon-freertos/lib/third_party/mbedtls/library\aes.c ****     V(26,EB,EB,CD), V(69,27,27,4E), V(CD,B2,B2,7F), V(9F,75,75,EA), \
 147:D:/Work/DeviceTester/amazon-freertos/lib/third_party/mbedtls/library\aes.c ****     V(1B,09,09,12), V(9E,83,83,1D), V(74,2C,2C,58), V(2E,1A,1A,34), \
 148:D:/Work/DeviceTester/amazon-freertos/lib/third_party/mbedtls/library\aes.c ****     V(2D,1B,1B,36), V(B2,6E,6E,DC), V(EE,5A,5A,B4), V(FB,A0,A0,5B), \
 149:D:/Work/DeviceTester/amazon-freertos/lib/third_party/mbedtls/library\aes.c ****     V(F6,52,52,A4), V(4D,3B,3B,76), V(61,D6,D6,B7), V(CE,B3,B3,7D), \
 150:D:/Work/DeviceTester/amazon-freertos/lib/third_party/mbedtls/library\aes.c ****     V(7B,29,29,52), V(3E,E3,E3,DD), V(71,2F,2F,5E), V(97,84,84,13), \
 151:D:/Work/DeviceTester/amazon-freertos/lib/third_party/mbedtls/library\aes.c ****     V(F5,53,53,A6), V(68,D1,D1,B9), V(00,00,00,00), V(2C,ED,ED,C1), \
 152:D:/Work/DeviceTester/amazon-freertos/lib/third_party/mbedtls/library\aes.c ****     V(60,20,20,40), V(1F,FC,FC,E3), V(C8,B1,B1,79), V(ED,5B,5B,B6), \
 153:D:/Work/DeviceTester/amazon-freertos/lib/third_party/mbedtls/library\aes.c ****     V(BE,6A,6A,D4), V(46,CB,CB,8D), V(D9,BE,BE,67), V(4B,39,39,72), \
 154:D:/Work/DeviceTester/amazon-freertos/lib/third_party/mbedtls/library\aes.c ****     V(DE,4A,4A,94), V(D4,4C,4C,98), V(E8,58,58,B0), V(4A,CF,CF,85), \
 155:D:/Work/DeviceTester/amazon-freertos/lib/third_party/mbedtls/library\aes.c ****     V(6B,D0,D0,BB), V(2A,EF,EF,C5), V(E5,AA,AA,4F), V(16,FB,FB,ED), \
 156:D:/Work/DeviceTester/amazon-freertos/lib/third_party/mbedtls/library\aes.c ****     V(C5,43,43,86), V(D7,4D,4D,9A), V(55,33,33,66), V(94,85,85,11), \
 157:D:/Work/DeviceTester/amazon-freertos/lib/third_party/mbedtls/library\aes.c ****     V(CF,45,45,8A), V(10,F9,F9,E9), V(06,02,02,04), V(81,7F,7F,FE), \
 158:D:/Work/DeviceTester/amazon-freertos/lib/third_party/mbedtls/library\aes.c ****     V(F0,50,50,A0), V(44,3C,3C,78), V(BA,9F,9F,25), V(E3,A8,A8,4B), \
 159:D:/Work/DeviceTester/amazon-freertos/lib/third_party/mbedtls/library\aes.c ****     V(F3,51,51,A2), V(FE,A3,A3,5D), V(C0,40,40,80), V(8A,8F,8F,05), \
 160:D:/Work/DeviceTester/amazon-freertos/lib/third_party/mbedtls/library\aes.c ****     V(AD,92,92,3F), V(BC,9D,9D,21), V(48,38,38,70), V(04,F5,F5,F1), \
 161:D:/Work/DeviceTester/amazon-freertos/lib/third_party/mbedtls/library\aes.c ****     V(DF,BC,BC,63), V(C1,B6,B6,77), V(75,DA,DA,AF), V(63,21,21,42), \
 162:D:/Work/DeviceTester/amazon-freertos/lib/third_party/mbedtls/library\aes.c ****     V(30,10,10,20), V(1A,FF,FF,E5), V(0E,F3,F3,FD), V(6D,D2,D2,BF), \
 163:D:/Work/DeviceTester/amazon-freertos/lib/third_party/mbedtls/library\aes.c ****     V(4C,CD,CD,81), V(14,0C,0C,18), V(35,13,13,26), V(2F,EC,EC,C3), \
 164:D:/Work/DeviceTester/amazon-freertos/lib/third_party/mbedtls/library\aes.c ****     V(E1,5F,5F,BE), V(A2,97,97,35), V(CC,44,44,88), V(39,17,17,2E), \
 165:D:/Work/DeviceTester/amazon-freertos/lib/third_party/mbedtls/library\aes.c ****     V(57,C4,C4,93), V(F2,A7,A7,55), V(82,7E,7E,FC), V(47,3D,3D,7A), \
 166:D:/Work/DeviceTester/amazon-freertos/lib/third_party/mbedtls/library\aes.c ****     V(AC,64,64,C8), V(E7,5D,5D,BA), V(2B,19,19,32), V(95,73,73,E6), \
 167:D:/Work/DeviceTester/amazon-freertos/lib/third_party/mbedtls/library\aes.c ****     V(A0,60,60,C0), V(98,81,81,19), V(D1,4F,4F,9E), V(7F,DC,DC,A3), \
 168:D:/Work/DeviceTester/amazon-freertos/lib/third_party/mbedtls/library\aes.c ****     V(66,22,22,44), V(7E,2A,2A,54), V(AB,90,90,3B), V(83,88,88,0B), \
 169:D:/Work/DeviceTester/amazon-freertos/lib/third_party/mbedtls/library\aes.c ****     V(CA,46,46,8C), V(29,EE,EE,C7), V(D3,B8,B8,6B), V(3C,14,14,28), \
 170:D:/Work/DeviceTester/amazon-freertos/lib/third_party/mbedtls/library\aes.c ****     V(79,DE,DE,A7), V(E2,5E,5E,BC), V(1D,0B,0B,16), V(76,DB,DB,AD), \
 171:D:/Work/DeviceTester/amazon-freertos/lib/third_party/mbedtls/library\aes.c ****     V(3B,E0,E0,DB), V(56,32,32,64), V(4E,3A,3A,74), V(1E,0A,0A,14), \
 172:D:/Work/DeviceTester/amazon-freertos/lib/third_party/mbedtls/library\aes.c ****     V(DB,49,49,92), V(0A,06,06,0C), V(6C,24,24,48), V(E4,5C,5C,B8), \
 173:D:/Work/DeviceTester/amazon-freertos/lib/third_party/mbedtls/library\aes.c ****     V(5D,C2,C2,9F), V(6E,D3,D3,BD), V(EF,AC,AC,43), V(A6,62,62,C4), \
 174:D:/Work/DeviceTester/amazon-freertos/lib/third_party/mbedtls/library\aes.c ****     V(A8,91,91,39), V(A4,95,95,31), V(37,E4,E4,D3), V(8B,79,79,F2), \
 175:D:/Work/DeviceTester/amazon-freertos/lib/third_party/mbedtls/library\aes.c ****     V(32,E7,E7,D5), V(43,C8,C8,8B), V(59,37,37,6E), V(B7,6D,6D,DA), \
 176:D:/Work/DeviceTester/amazon-freertos/lib/third_party/mbedtls/library\aes.c ****     V(8C,8D,8D,01), V(64,D5,D5,B1), V(D2,4E,4E,9C), V(E0,A9,A9,49), \
 177:D:/Work/DeviceTester/amazon-freertos/lib/third_party/mbedtls/library\aes.c ****     V(B4,6C,6C,D8), V(FA,56,56,AC), V(07,F4,F4,F3), V(25,EA,EA,CF), \
 178:D:/Work/DeviceTester/amazon-freertos/lib/third_party/mbedtls/library\aes.c ****     V(AF,65,65,CA), V(8E,7A,7A,F4), V(E9,AE,AE,47), V(18,08,08,10), \
 179:D:/Work/DeviceTester/amazon-freertos/lib/third_party/mbedtls/library\aes.c ****     V(D5,BA,BA,6F), V(88,78,78,F0), V(6F,25,25,4A), V(72,2E,2E,5C), \
 180:D:/Work/DeviceTester/amazon-freertos/lib/third_party/mbedtls/library\aes.c ****     V(24,1C,1C,38), V(F1,A6,A6,57), V(C7,B4,B4,73), V(51,C6,C6,97), \
 181:D:/Work/DeviceTester/amazon-freertos/lib/third_party/mbedtls/library\aes.c ****     V(23,E8,E8,CB), V(7C,DD,DD,A1), V(9C,74,74,E8), V(21,1F,1F,3E), \
 182:D:/Work/DeviceTester/amazon-freertos/lib/third_party/mbedtls/library\aes.c ****     V(DD,4B,4B,96), V(DC,BD,BD,61), V(86,8B,8B,0D), V(85,8A,8A,0F), \
 183:D:/Work/DeviceTester/amazon-freertos/lib/third_party/mbedtls/library\aes.c ****     V(90,70,70,E0), V(42,3E,3E,7C), V(C4,B5,B5,71), V(AA,66,66,CC), \
 184:D:/Work/DeviceTester/amazon-freertos/lib/third_party/mbedtls/library\aes.c ****     V(D8,48,48,90), V(05,03,03,06), V(01,F6,F6,F7), V(12,0E,0E,1C), \
 185:D:/Work/DeviceTester/amazon-freertos/lib/third_party/mbedtls/library\aes.c ****     V(A3,61,61,C2), V(5F,35,35,6A), V(F9,57,57,AE), V(D0,B9,B9,69), \
 186:D:/Work/DeviceTester/amazon-freertos/lib/third_party/mbedtls/library\aes.c ****     V(91,86,86,17), V(58,C1,C1,99), V(27,1D,1D,3A), V(B9,9E,9E,27), \
 187:D:/Work/DeviceTester/amazon-freertos/lib/third_party/mbedtls/library\aes.c ****     V(38,E1,E1,D9), V(13,F8,F8,EB), V(B3,98,98,2B), V(33,11,11,22), \
 188:D:/Work/DeviceTester/amazon-freertos/lib/third_party/mbedtls/library\aes.c ****     V(BB,69,69,D2), V(70,D9,D9,A9), V(89,8E,8E,07), V(A7,94,94,33), \
 189:D:/Work/DeviceTester/amazon-freertos/lib/third_party/mbedtls/library\aes.c ****     V(B6,9B,9B,2D), V(22,1E,1E,3C), V(92,87,87,15), V(20,E9,E9,C9), \
 190:D:/Work/DeviceTester/amazon-freertos/lib/third_party/mbedtls/library\aes.c ****     V(49,CE,CE,87), V(FF,55,55,AA), V(78,28,28,50), V(7A,DF,DF,A5), \
 191:D:/Work/DeviceTester/amazon-freertos/lib/third_party/mbedtls/library\aes.c ****     V(8F,8C,8C,03), V(F8,A1,A1,59), V(80,89,89,09), V(17,0D,0D,1A), \
 192:D:/Work/DeviceTester/amazon-freertos/lib/third_party/mbedtls/library\aes.c ****     V(DA,BF,BF,65), V(31,E6,E6,D7), V(C6,42,42,84), V(B8,68,68,D0), \
 193:D:/Work/DeviceTester/amazon-freertos/lib/third_party/mbedtls/library\aes.c ****     V(C3,41,41,82), V(B0,99,99,29), V(77,2D,2D,5A), V(11,0F,0F,1E), \
 194:D:/Work/DeviceTester/amazon-freertos/lib/third_party/mbedtls/library\aes.c ****     V(CB,B0,B0,7B), V(FC,54,54,A8), V(D6,BB,BB,6D), V(3A,16,16,2C)
 195:D:/Work/DeviceTester/amazon-freertos/lib/third_party/mbedtls/library\aes.c **** 
 196:D:/Work/DeviceTester/amazon-freertos/lib/third_party/mbedtls/library\aes.c **** #define V(a,b,c,d) 0x##a##b##c##d
 197:D:/Work/DeviceTester/amazon-freertos/lib/third_party/mbedtls/library\aes.c **** static const uint32_t FT0[256] = { FT };
 198:D:/Work/DeviceTester/amazon-freertos/lib/third_party/mbedtls/library\aes.c **** #undef V
 199:D:/Work/DeviceTester/amazon-freertos/lib/third_party/mbedtls/library\aes.c **** 
 200:D:/Work/DeviceTester/amazon-freertos/lib/third_party/mbedtls/library\aes.c **** #if !defined(MBEDTLS_AES_FEWER_TABLES)
 201:D:/Work/DeviceTester/amazon-freertos/lib/third_party/mbedtls/library\aes.c **** 
 202:D:/Work/DeviceTester/amazon-freertos/lib/third_party/mbedtls/library\aes.c **** #define V(a,b,c,d) 0x##b##c##d##a
 203:D:/Work/DeviceTester/amazon-freertos/lib/third_party/mbedtls/library\aes.c **** static const uint32_t FT1[256] = { FT };
 204:D:/Work/DeviceTester/amazon-freertos/lib/third_party/mbedtls/library\aes.c **** #undef V
 205:D:/Work/DeviceTester/amazon-freertos/lib/third_party/mbedtls/library\aes.c **** 
 206:D:/Work/DeviceTester/amazon-freertos/lib/third_party/mbedtls/library\aes.c **** #define V(a,b,c,d) 0x##c##d##a##b
 207:D:/Work/DeviceTester/amazon-freertos/lib/third_party/mbedtls/library\aes.c **** static const uint32_t FT2[256] = { FT };
 208:D:/Work/DeviceTester/amazon-freertos/lib/third_party/mbedtls/library\aes.c **** #undef V
 209:D:/Work/DeviceTester/amazon-freertos/lib/third_party/mbedtls/library\aes.c **** 
 210:D:/Work/DeviceTester/amazon-freertos/lib/third_party/mbedtls/library\aes.c **** #define V(a,b,c,d) 0x##d##a##b##c
 211:D:/Work/DeviceTester/amazon-freertos/lib/third_party/mbedtls/library\aes.c **** static const uint32_t FT3[256] = { FT };
 212:D:/Work/DeviceTester/amazon-freertos/lib/third_party/mbedtls/library\aes.c **** #undef V
 213:D:/Work/DeviceTester/amazon-freertos/lib/third_party/mbedtls/library\aes.c **** 
 214:D:/Work/DeviceTester/amazon-freertos/lib/third_party/mbedtls/library\aes.c **** #endif /* !MBEDTLS_AES_FEWER_TABLES */
 215:D:/Work/DeviceTester/amazon-freertos/lib/third_party/mbedtls/library\aes.c **** 
 216:D:/Work/DeviceTester/amazon-freertos/lib/third_party/mbedtls/library\aes.c **** #undef FT
 217:D:/Work/DeviceTester/amazon-freertos/lib/third_party/mbedtls/library\aes.c **** 
 218:D:/Work/DeviceTester/amazon-freertos/lib/third_party/mbedtls/library\aes.c **** /*
 219:D:/Work/DeviceTester/amazon-freertos/lib/third_party/mbedtls/library\aes.c ****  * Reverse S-box
 220:D:/Work/DeviceTester/amazon-freertos/lib/third_party/mbedtls/library\aes.c ****  */
 221:D:/Work/DeviceTester/amazon-freertos/lib/third_party/mbedtls/library\aes.c **** static const unsigned char RSb[256] =
 222:D:/Work/DeviceTester/amazon-freertos/lib/third_party/mbedtls/library\aes.c **** {
 223:D:/Work/DeviceTester/amazon-freertos/lib/third_party/mbedtls/library\aes.c ****     0x52, 0x09, 0x6A, 0xD5, 0x30, 0x36, 0xA5, 0x38,
 224:D:/Work/DeviceTester/amazon-freertos/lib/third_party/mbedtls/library\aes.c ****     0xBF, 0x40, 0xA3, 0x9E, 0x81, 0xF3, 0xD7, 0xFB,
 225:D:/Work/DeviceTester/amazon-freertos/lib/third_party/mbedtls/library\aes.c ****     0x7C, 0xE3, 0x39, 0x82, 0x9B, 0x2F, 0xFF, 0x87,
 226:D:/Work/DeviceTester/amazon-freertos/lib/third_party/mbedtls/library\aes.c ****     0x34, 0x8E, 0x43, 0x44, 0xC4, 0xDE, 0xE9, 0xCB,
 227:D:/Work/DeviceTester/amazon-freertos/lib/third_party/mbedtls/library\aes.c ****     0x54, 0x7B, 0x94, 0x32, 0xA6, 0xC2, 0x23, 0x3D,
 228:D:/Work/DeviceTester/amazon-freertos/lib/third_party/mbedtls/library\aes.c ****     0xEE, 0x4C, 0x95, 0x0B, 0x42, 0xFA, 0xC3, 0x4E,
 229:D:/Work/DeviceTester/amazon-freertos/lib/third_party/mbedtls/library\aes.c ****     0x08, 0x2E, 0xA1, 0x66, 0x28, 0xD9, 0x24, 0xB2,
 230:D:/Work/DeviceTester/amazon-freertos/lib/third_party/mbedtls/library\aes.c ****     0x76, 0x5B, 0xA2, 0x49, 0x6D, 0x8B, 0xD1, 0x25,
 231:D:/Work/DeviceTester/amazon-freertos/lib/third_party/mbedtls/library\aes.c ****     0x72, 0xF8, 0xF6, 0x64, 0x86, 0x68, 0x98, 0x16,
 232:D:/Work/DeviceTester/amazon-freertos/lib/third_party/mbedtls/library\aes.c ****     0xD4, 0xA4, 0x5C, 0xCC, 0x5D, 0x65, 0xB6, 0x92,
 233:D:/Work/DeviceTester/amazon-freertos/lib/third_party/mbedtls/library\aes.c ****     0x6C, 0x70, 0x48, 0x50, 0xFD, 0xED, 0xB9, 0xDA,
 234:D:/Work/DeviceTester/amazon-freertos/lib/third_party/mbedtls/library\aes.c ****     0x5E, 0x15, 0x46, 0x57, 0xA7, 0x8D, 0x9D, 0x84,
 235:D:/Work/DeviceTester/amazon-freertos/lib/third_party/mbedtls/library\aes.c ****     0x90, 0xD8, 0xAB, 0x00, 0x8C, 0xBC, 0xD3, 0x0A,
 236:D:/Work/DeviceTester/amazon-freertos/lib/third_party/mbedtls/library\aes.c ****     0xF7, 0xE4, 0x58, 0x05, 0xB8, 0xB3, 0x45, 0x06,
 237:D:/Work/DeviceTester/amazon-freertos/lib/third_party/mbedtls/library\aes.c ****     0xD0, 0x2C, 0x1E, 0x8F, 0xCA, 0x3F, 0x0F, 0x02,
 238:D:/Work/DeviceTester/amazon-freertos/lib/third_party/mbedtls/library\aes.c ****     0xC1, 0xAF, 0xBD, 0x03, 0x01, 0x13, 0x8A, 0x6B,
 239:D:/Work/DeviceTester/amazon-freertos/lib/third_party/mbedtls/library\aes.c ****     0x3A, 0x91, 0x11, 0x41, 0x4F, 0x67, 0xDC, 0xEA,
 240:D:/Work/DeviceTester/amazon-freertos/lib/third_party/mbedtls/library\aes.c ****     0x97, 0xF2, 0xCF, 0xCE, 0xF0, 0xB4, 0xE6, 0x73,
 241:D:/Work/DeviceTester/amazon-freertos/lib/third_party/mbedtls/library\aes.c ****     0x96, 0xAC, 0x74, 0x22, 0xE7, 0xAD, 0x35, 0x85,
 242:D:/Work/DeviceTester/amazon-freertos/lib/third_party/mbedtls/library\aes.c ****     0xE2, 0xF9, 0x37, 0xE8, 0x1C, 0x75, 0xDF, 0x6E,
 243:D:/Work/DeviceTester/amazon-freertos/lib/third_party/mbedtls/library\aes.c ****     0x47, 0xF1, 0x1A, 0x71, 0x1D, 0x29, 0xC5, 0x89,
 244:D:/Work/DeviceTester/amazon-freertos/lib/third_party/mbedtls/library\aes.c ****     0x6F, 0xB7, 0x62, 0x0E, 0xAA, 0x18, 0xBE, 0x1B,
 245:D:/Work/DeviceTester/amazon-freertos/lib/third_party/mbedtls/library\aes.c ****     0xFC, 0x56, 0x3E, 0x4B, 0xC6, 0xD2, 0x79, 0x20,
 246:D:/Work/DeviceTester/amazon-freertos/lib/third_party/mbedtls/library\aes.c ****     0x9A, 0xDB, 0xC0, 0xFE, 0x78, 0xCD, 0x5A, 0xF4,
 247:D:/Work/DeviceTester/amazon-freertos/lib/third_party/mbedtls/library\aes.c ****     0x1F, 0xDD, 0xA8, 0x33, 0x88, 0x07, 0xC7, 0x31,
 248:D:/Work/DeviceTester/amazon-freertos/lib/third_party/mbedtls/library\aes.c ****     0xB1, 0x12, 0x10, 0x59, 0x27, 0x80, 0xEC, 0x5F,
 249:D:/Work/DeviceTester/amazon-freertos/lib/third_party/mbedtls/library\aes.c ****     0x60, 0x51, 0x7F, 0xA9, 0x19, 0xB5, 0x4A, 0x0D,
 250:D:/Work/DeviceTester/amazon-freertos/lib/third_party/mbedtls/library\aes.c ****     0x2D, 0xE5, 0x7A, 0x9F, 0x93, 0xC9, 0x9C, 0xEF,
 251:D:/Work/DeviceTester/amazon-freertos/lib/third_party/mbedtls/library\aes.c ****     0xA0, 0xE0, 0x3B, 0x4D, 0xAE, 0x2A, 0xF5, 0xB0,
 252:D:/Work/DeviceTester/amazon-freertos/lib/third_party/mbedtls/library\aes.c ****     0xC8, 0xEB, 0xBB, 0x3C, 0x83, 0x53, 0x99, 0x61,
 253:D:/Work/DeviceTester/amazon-freertos/lib/third_party/mbedtls/library\aes.c ****     0x17, 0x2B, 0x04, 0x7E, 0xBA, 0x77, 0xD6, 0x26,
 254:D:/Work/DeviceTester/amazon-freertos/lib/third_party/mbedtls/library\aes.c ****     0xE1, 0x69, 0x14, 0x63, 0x55, 0x21, 0x0C, 0x7D
 255:D:/Work/DeviceTester/amazon-freertos/lib/third_party/mbedtls/library\aes.c **** };
 256:D:/Work/DeviceTester/amazon-freertos/lib/third_party/mbedtls/library\aes.c **** 
 257:D:/Work/DeviceTester/amazon-freertos/lib/third_party/mbedtls/library\aes.c **** /*
 258:D:/Work/DeviceTester/amazon-freertos/lib/third_party/mbedtls/library\aes.c ****  * Reverse tables
 259:D:/Work/DeviceTester/amazon-freertos/lib/third_party/mbedtls/library\aes.c ****  */
 260:D:/Work/DeviceTester/amazon-freertos/lib/third_party/mbedtls/library\aes.c **** #define RT \
 261:D:/Work/DeviceTester/amazon-freertos/lib/third_party/mbedtls/library\aes.c **** \
 262:D:/Work/DeviceTester/amazon-freertos/lib/third_party/mbedtls/library\aes.c ****     V(50,A7,F4,51), V(53,65,41,7E), V(C3,A4,17,1A), V(96,5E,27,3A), \
 263:D:/Work/DeviceTester/amazon-freertos/lib/third_party/mbedtls/library\aes.c ****     V(CB,6B,AB,3B), V(F1,45,9D,1F), V(AB,58,FA,AC), V(93,03,E3,4B), \
 264:D:/Work/DeviceTester/amazon-freertos/lib/third_party/mbedtls/library\aes.c ****     V(55,FA,30,20), V(F6,6D,76,AD), V(91,76,CC,88), V(25,4C,02,F5), \
 265:D:/Work/DeviceTester/amazon-freertos/lib/third_party/mbedtls/library\aes.c ****     V(FC,D7,E5,4F), V(D7,CB,2A,C5), V(80,44,35,26), V(8F,A3,62,B5), \
 266:D:/Work/DeviceTester/amazon-freertos/lib/third_party/mbedtls/library\aes.c ****     V(49,5A,B1,DE), V(67,1B,BA,25), V(98,0E,EA,45), V(E1,C0,FE,5D), \
 267:D:/Work/DeviceTester/amazon-freertos/lib/third_party/mbedtls/library\aes.c ****     V(02,75,2F,C3), V(12,F0,4C,81), V(A3,97,46,8D), V(C6,F9,D3,6B), \
 268:D:/Work/DeviceTester/amazon-freertos/lib/third_party/mbedtls/library\aes.c ****     V(E7,5F,8F,03), V(95,9C,92,15), V(EB,7A,6D,BF), V(DA,59,52,95), \
 269:D:/Work/DeviceTester/amazon-freertos/lib/third_party/mbedtls/library\aes.c ****     V(2D,83,BE,D4), V(D3,21,74,58), V(29,69,E0,49), V(44,C8,C9,8E), \
 270:D:/Work/DeviceTester/amazon-freertos/lib/third_party/mbedtls/library\aes.c ****     V(6A,89,C2,75), V(78,79,8E,F4), V(6B,3E,58,99), V(DD,71,B9,27), \
 271:D:/Work/DeviceTester/amazon-freertos/lib/third_party/mbedtls/library\aes.c ****     V(B6,4F,E1,BE), V(17,AD,88,F0), V(66,AC,20,C9), V(B4,3A,CE,7D), \
 272:D:/Work/DeviceTester/amazon-freertos/lib/third_party/mbedtls/library\aes.c ****     V(18,4A,DF,63), V(82,31,1A,E5), V(60,33,51,97), V(45,7F,53,62), \
 273:D:/Work/DeviceTester/amazon-freertos/lib/third_party/mbedtls/library\aes.c ****     V(E0,77,64,B1), V(84,AE,6B,BB), V(1C,A0,81,FE), V(94,2B,08,F9), \
 274:D:/Work/DeviceTester/amazon-freertos/lib/third_party/mbedtls/library\aes.c ****     V(58,68,48,70), V(19,FD,45,8F), V(87,6C,DE,94), V(B7,F8,7B,52), \
 275:D:/Work/DeviceTester/amazon-freertos/lib/third_party/mbedtls/library\aes.c ****     V(23,D3,73,AB), V(E2,02,4B,72), V(57,8F,1F,E3), V(2A,AB,55,66), \
 276:D:/Work/DeviceTester/amazon-freertos/lib/third_party/mbedtls/library\aes.c ****     V(07,28,EB,B2), V(03,C2,B5,2F), V(9A,7B,C5,86), V(A5,08,37,D3), \
 277:D:/Work/DeviceTester/amazon-freertos/lib/third_party/mbedtls/library\aes.c ****     V(F2,87,28,30), V(B2,A5,BF,23), V(BA,6A,03,02), V(5C,82,16,ED), \
 278:D:/Work/DeviceTester/amazon-freertos/lib/third_party/mbedtls/library\aes.c ****     V(2B,1C,CF,8A), V(92,B4,79,A7), V(F0,F2,07,F3), V(A1,E2,69,4E), \
 279:D:/Work/DeviceTester/amazon-freertos/lib/third_party/mbedtls/library\aes.c ****     V(CD,F4,DA,65), V(D5,BE,05,06), V(1F,62,34,D1), V(8A,FE,A6,C4), \
 280:D:/Work/DeviceTester/amazon-freertos/lib/third_party/mbedtls/library\aes.c ****     V(9D,53,2E,34), V(A0,55,F3,A2), V(32,E1,8A,05), V(75,EB,F6,A4), \
 281:D:/Work/DeviceTester/amazon-freertos/lib/third_party/mbedtls/library\aes.c ****     V(39,EC,83,0B), V(AA,EF,60,40), V(06,9F,71,5E), V(51,10,6E,BD), \
 282:D:/Work/DeviceTester/amazon-freertos/lib/third_party/mbedtls/library\aes.c ****     V(F9,8A,21,3E), V(3D,06,DD,96), V(AE,05,3E,DD), V(46,BD,E6,4D), \
 283:D:/Work/DeviceTester/amazon-freertos/lib/third_party/mbedtls/library\aes.c ****     V(B5,8D,54,91), V(05,5D,C4,71), V(6F,D4,06,04), V(FF,15,50,60), \
 284:D:/Work/DeviceTester/amazon-freertos/lib/third_party/mbedtls/library\aes.c ****     V(24,FB,98,19), V(97,E9,BD,D6), V(CC,43,40,89), V(77,9E,D9,67), \
 285:D:/Work/DeviceTester/amazon-freertos/lib/third_party/mbedtls/library\aes.c ****     V(BD,42,E8,B0), V(88,8B,89,07), V(38,5B,19,E7), V(DB,EE,C8,79), \
 286:D:/Work/DeviceTester/amazon-freertos/lib/third_party/mbedtls/library\aes.c ****     V(47,0A,7C,A1), V(E9,0F,42,7C), V(C9,1E,84,F8), V(00,00,00,00), \
 287:D:/Work/DeviceTester/amazon-freertos/lib/third_party/mbedtls/library\aes.c ****     V(83,86,80,09), V(48,ED,2B,32), V(AC,70,11,1E), V(4E,72,5A,6C), \
 288:D:/Work/DeviceTester/amazon-freertos/lib/third_party/mbedtls/library\aes.c ****     V(FB,FF,0E,FD), V(56,38,85,0F), V(1E,D5,AE,3D), V(27,39,2D,36), \
 289:D:/Work/DeviceTester/amazon-freertos/lib/third_party/mbedtls/library\aes.c ****     V(64,D9,0F,0A), V(21,A6,5C,68), V(D1,54,5B,9B), V(3A,2E,36,24), \
 290:D:/Work/DeviceTester/amazon-freertos/lib/third_party/mbedtls/library\aes.c ****     V(B1,67,0A,0C), V(0F,E7,57,93), V(D2,96,EE,B4), V(9E,91,9B,1B), \
 291:D:/Work/DeviceTester/amazon-freertos/lib/third_party/mbedtls/library\aes.c ****     V(4F,C5,C0,80), V(A2,20,DC,61), V(69,4B,77,5A), V(16,1A,12,1C), \
 292:D:/Work/DeviceTester/amazon-freertos/lib/third_party/mbedtls/library\aes.c ****     V(0A,BA,93,E2), V(E5,2A,A0,C0), V(43,E0,22,3C), V(1D,17,1B,12), \
 293:D:/Work/DeviceTester/amazon-freertos/lib/third_party/mbedtls/library\aes.c ****     V(0B,0D,09,0E), V(AD,C7,8B,F2), V(B9,A8,B6,2D), V(C8,A9,1E,14), \
 294:D:/Work/DeviceTester/amazon-freertos/lib/third_party/mbedtls/library\aes.c ****     V(85,19,F1,57), V(4C,07,75,AF), V(BB,DD,99,EE), V(FD,60,7F,A3), \
 295:D:/Work/DeviceTester/amazon-freertos/lib/third_party/mbedtls/library\aes.c ****     V(9F,26,01,F7), V(BC,F5,72,5C), V(C5,3B,66,44), V(34,7E,FB,5B), \
 296:D:/Work/DeviceTester/amazon-freertos/lib/third_party/mbedtls/library\aes.c ****     V(76,29,43,8B), V(DC,C6,23,CB), V(68,FC,ED,B6), V(63,F1,E4,B8), \
 297:D:/Work/DeviceTester/amazon-freertos/lib/third_party/mbedtls/library\aes.c ****     V(CA,DC,31,D7), V(10,85,63,42), V(40,22,97,13), V(20,11,C6,84), \
 298:D:/Work/DeviceTester/amazon-freertos/lib/third_party/mbedtls/library\aes.c ****     V(7D,24,4A,85), V(F8,3D,BB,D2), V(11,32,F9,AE), V(6D,A1,29,C7), \
 299:D:/Work/DeviceTester/amazon-freertos/lib/third_party/mbedtls/library\aes.c ****     V(4B,2F,9E,1D), V(F3,30,B2,DC), V(EC,52,86,0D), V(D0,E3,C1,77), \
 300:D:/Work/DeviceTester/amazon-freertos/lib/third_party/mbedtls/library\aes.c ****     V(6C,16,B3,2B), V(99,B9,70,A9), V(FA,48,94,11), V(22,64,E9,47), \
 301:D:/Work/DeviceTester/amazon-freertos/lib/third_party/mbedtls/library\aes.c ****     V(C4,8C,FC,A8), V(1A,3F,F0,A0), V(D8,2C,7D,56), V(EF,90,33,22), \
 302:D:/Work/DeviceTester/amazon-freertos/lib/third_party/mbedtls/library\aes.c ****     V(C7,4E,49,87), V(C1,D1,38,D9), V(FE,A2,CA,8C), V(36,0B,D4,98), \
 303:D:/Work/DeviceTester/amazon-freertos/lib/third_party/mbedtls/library\aes.c ****     V(CF,81,F5,A6), V(28,DE,7A,A5), V(26,8E,B7,DA), V(A4,BF,AD,3F), \
 304:D:/Work/DeviceTester/amazon-freertos/lib/third_party/mbedtls/library\aes.c ****     V(E4,9D,3A,2C), V(0D,92,78,50), V(9B,CC,5F,6A), V(62,46,7E,54), \
 305:D:/Work/DeviceTester/amazon-freertos/lib/third_party/mbedtls/library\aes.c ****     V(C2,13,8D,F6), V(E8,B8,D8,90), V(5E,F7,39,2E), V(F5,AF,C3,82), \
 306:D:/Work/DeviceTester/amazon-freertos/lib/third_party/mbedtls/library\aes.c ****     V(BE,80,5D,9F), V(7C,93,D0,69), V(A9,2D,D5,6F), V(B3,12,25,CF), \
 307:D:/Work/DeviceTester/amazon-freertos/lib/third_party/mbedtls/library\aes.c ****     V(3B,99,AC,C8), V(A7,7D,18,10), V(6E,63,9C,E8), V(7B,BB,3B,DB), \
 308:D:/Work/DeviceTester/amazon-freertos/lib/third_party/mbedtls/library\aes.c ****     V(09,78,26,CD), V(F4,18,59,6E), V(01,B7,9A,EC), V(A8,9A,4F,83), \
 309:D:/Work/DeviceTester/amazon-freertos/lib/third_party/mbedtls/library\aes.c ****     V(65,6E,95,E6), V(7E,E6,FF,AA), V(08,CF,BC,21), V(E6,E8,15,EF), \
 310:D:/Work/DeviceTester/amazon-freertos/lib/third_party/mbedtls/library\aes.c ****     V(D9,9B,E7,BA), V(CE,36,6F,4A), V(D4,09,9F,EA), V(D6,7C,B0,29), \
 311:D:/Work/DeviceTester/amazon-freertos/lib/third_party/mbedtls/library\aes.c ****     V(AF,B2,A4,31), V(31,23,3F,2A), V(30,94,A5,C6), V(C0,66,A2,35), \
 312:D:/Work/DeviceTester/amazon-freertos/lib/third_party/mbedtls/library\aes.c ****     V(37,BC,4E,74), V(A6,CA,82,FC), V(B0,D0,90,E0), V(15,D8,A7,33), \
 313:D:/Work/DeviceTester/amazon-freertos/lib/third_party/mbedtls/library\aes.c ****     V(4A,98,04,F1), V(F7,DA,EC,41), V(0E,50,CD,7F), V(2F,F6,91,17), \
 314:D:/Work/DeviceTester/amazon-freertos/lib/third_party/mbedtls/library\aes.c ****     V(8D,D6,4D,76), V(4D,B0,EF,43), V(54,4D,AA,CC), V(DF,04,96,E4), \
 315:D:/Work/DeviceTester/amazon-freertos/lib/third_party/mbedtls/library\aes.c ****     V(E3,B5,D1,9E), V(1B,88,6A,4C), V(B8,1F,2C,C1), V(7F,51,65,46), \
 316:D:/Work/DeviceTester/amazon-freertos/lib/third_party/mbedtls/library\aes.c ****     V(04,EA,5E,9D), V(5D,35,8C,01), V(73,74,87,FA), V(2E,41,0B,FB), \
 317:D:/Work/DeviceTester/amazon-freertos/lib/third_party/mbedtls/library\aes.c ****     V(5A,1D,67,B3), V(52,D2,DB,92), V(33,56,10,E9), V(13,47,D6,6D), \
 318:D:/Work/DeviceTester/amazon-freertos/lib/third_party/mbedtls/library\aes.c ****     V(8C,61,D7,9A), V(7A,0C,A1,37), V(8E,14,F8,59), V(89,3C,13,EB), \
 319:D:/Work/DeviceTester/amazon-freertos/lib/third_party/mbedtls/library\aes.c ****     V(EE,27,A9,CE), V(35,C9,61,B7), V(ED,E5,1C,E1), V(3C,B1,47,7A), \
 320:D:/Work/DeviceTester/amazon-freertos/lib/third_party/mbedtls/library\aes.c ****     V(59,DF,D2,9C), V(3F,73,F2,55), V(79,CE,14,18), V(BF,37,C7,73), \
 321:D:/Work/DeviceTester/amazon-freertos/lib/third_party/mbedtls/library\aes.c ****     V(EA,CD,F7,53), V(5B,AA,FD,5F), V(14,6F,3D,DF), V(86,DB,44,78), \
 322:D:/Work/DeviceTester/amazon-freertos/lib/third_party/mbedtls/library\aes.c ****     V(81,F3,AF,CA), V(3E,C4,68,B9), V(2C,34,24,38), V(5F,40,A3,C2), \
 323:D:/Work/DeviceTester/amazon-freertos/lib/third_party/mbedtls/library\aes.c ****     V(72,C3,1D,16), V(0C,25,E2,BC), V(8B,49,3C,28), V(41,95,0D,FF), \
 324:D:/Work/DeviceTester/amazon-freertos/lib/third_party/mbedtls/library\aes.c ****     V(71,01,A8,39), V(DE,B3,0C,08), V(9C,E4,B4,D8), V(90,C1,56,64), \
 325:D:/Work/DeviceTester/amazon-freertos/lib/third_party/mbedtls/library\aes.c ****     V(61,84,CB,7B), V(70,B6,32,D5), V(74,5C,6C,48), V(42,57,B8,D0)
 326:D:/Work/DeviceTester/amazon-freertos/lib/third_party/mbedtls/library\aes.c **** 
 327:D:/Work/DeviceTester/amazon-freertos/lib/third_party/mbedtls/library\aes.c **** #define V(a,b,c,d) 0x##a##b##c##d
 328:D:/Work/DeviceTester/amazon-freertos/lib/third_party/mbedtls/library\aes.c **** static const uint32_t RT0[256] = { RT };
 329:D:/Work/DeviceTester/amazon-freertos/lib/third_party/mbedtls/library\aes.c **** #undef V
 330:D:/Work/DeviceTester/amazon-freertos/lib/third_party/mbedtls/library\aes.c **** 
 331:D:/Work/DeviceTester/amazon-freertos/lib/third_party/mbedtls/library\aes.c **** #if !defined(MBEDTLS_AES_FEWER_TABLES)
 332:D:/Work/DeviceTester/amazon-freertos/lib/third_party/mbedtls/library\aes.c **** 
 333:D:/Work/DeviceTester/amazon-freertos/lib/third_party/mbedtls/library\aes.c **** #define V(a,b,c,d) 0x##b##c##d##a
 334:D:/Work/DeviceTester/amazon-freertos/lib/third_party/mbedtls/library\aes.c **** static const uint32_t RT1[256] = { RT };
 335:D:/Work/DeviceTester/amazon-freertos/lib/third_party/mbedtls/library\aes.c **** #undef V
 336:D:/Work/DeviceTester/amazon-freertos/lib/third_party/mbedtls/library\aes.c **** 
 337:D:/Work/DeviceTester/amazon-freertos/lib/third_party/mbedtls/library\aes.c **** #define V(a,b,c,d) 0x##c##d##a##b
 338:D:/Work/DeviceTester/amazon-freertos/lib/third_party/mbedtls/library\aes.c **** static const uint32_t RT2[256] = { RT };
 339:D:/Work/DeviceTester/amazon-freertos/lib/third_party/mbedtls/library\aes.c **** #undef V
 340:D:/Work/DeviceTester/amazon-freertos/lib/third_party/mbedtls/library\aes.c **** 
 341:D:/Work/DeviceTester/amazon-freertos/lib/third_party/mbedtls/library\aes.c **** #define V(a,b,c,d) 0x##d##a##b##c
 342:D:/Work/DeviceTester/amazon-freertos/lib/third_party/mbedtls/library\aes.c **** static const uint32_t RT3[256] = { RT };
 343:D:/Work/DeviceTester/amazon-freertos/lib/third_party/mbedtls/library\aes.c **** #undef V
 344:D:/Work/DeviceTester/amazon-freertos/lib/third_party/mbedtls/library\aes.c **** 
 345:D:/Work/DeviceTester/amazon-freertos/lib/third_party/mbedtls/library\aes.c **** #endif /* !MBEDTLS_AES_FEWER_TABLES */
 346:D:/Work/DeviceTester/amazon-freertos/lib/third_party/mbedtls/library\aes.c **** 
 347:D:/Work/DeviceTester/amazon-freertos/lib/third_party/mbedtls/library\aes.c **** #undef RT
 348:D:/Work/DeviceTester/amazon-freertos/lib/third_party/mbedtls/library\aes.c **** 
 349:D:/Work/DeviceTester/amazon-freertos/lib/third_party/mbedtls/library\aes.c **** /*
 350:D:/Work/DeviceTester/amazon-freertos/lib/third_party/mbedtls/library\aes.c ****  * Round constants
 351:D:/Work/DeviceTester/amazon-freertos/lib/third_party/mbedtls/library\aes.c ****  */
 352:D:/Work/DeviceTester/amazon-freertos/lib/third_party/mbedtls/library\aes.c **** static const uint32_t RCON[10] =
 353:D:/Work/DeviceTester/amazon-freertos/lib/third_party/mbedtls/library\aes.c **** {
 354:D:/Work/DeviceTester/amazon-freertos/lib/third_party/mbedtls/library\aes.c ****     0x00000001, 0x00000002, 0x00000004, 0x00000008,
 355:D:/Work/DeviceTester/amazon-freertos/lib/third_party/mbedtls/library\aes.c ****     0x00000010, 0x00000020, 0x00000040, 0x00000080,
 356:D:/Work/DeviceTester/amazon-freertos/lib/third_party/mbedtls/library\aes.c ****     0x0000001B, 0x00000036
 357:D:/Work/DeviceTester/amazon-freertos/lib/third_party/mbedtls/library\aes.c **** };
 358:D:/Work/DeviceTester/amazon-freertos/lib/third_party/mbedtls/library\aes.c **** 
 359:D:/Work/DeviceTester/amazon-freertos/lib/third_party/mbedtls/library\aes.c **** #else /* MBEDTLS_AES_ROM_TABLES */
 360:D:/Work/DeviceTester/amazon-freertos/lib/third_party/mbedtls/library\aes.c **** 
 361:D:/Work/DeviceTester/amazon-freertos/lib/third_party/mbedtls/library\aes.c **** /*
 362:D:/Work/DeviceTester/amazon-freertos/lib/third_party/mbedtls/library\aes.c ****  * Forward S-box & tables
 363:D:/Work/DeviceTester/amazon-freertos/lib/third_party/mbedtls/library\aes.c ****  */
 364:D:/Work/DeviceTester/amazon-freertos/lib/third_party/mbedtls/library\aes.c **** static unsigned char FSb[256];
 365:D:/Work/DeviceTester/amazon-freertos/lib/third_party/mbedtls/library\aes.c **** static uint32_t FT0[256];
 366:D:/Work/DeviceTester/amazon-freertos/lib/third_party/mbedtls/library\aes.c **** #if !defined(MBEDTLS_AES_FEWER_TABLES)
 367:D:/Work/DeviceTester/amazon-freertos/lib/third_party/mbedtls/library\aes.c **** static uint32_t FT1[256];
 368:D:/Work/DeviceTester/amazon-freertos/lib/third_party/mbedtls/library\aes.c **** static uint32_t FT2[256];
 369:D:/Work/DeviceTester/amazon-freertos/lib/third_party/mbedtls/library\aes.c **** static uint32_t FT3[256];
 370:D:/Work/DeviceTester/amazon-freertos/lib/third_party/mbedtls/library\aes.c **** #endif /* !MBEDTLS_AES_FEWER_TABLES */
 371:D:/Work/DeviceTester/amazon-freertos/lib/third_party/mbedtls/library\aes.c **** 
 372:D:/Work/DeviceTester/amazon-freertos/lib/third_party/mbedtls/library\aes.c **** /*
 373:D:/Work/DeviceTester/amazon-freertos/lib/third_party/mbedtls/library\aes.c ****  * Reverse S-box & tables
 374:D:/Work/DeviceTester/amazon-freertos/lib/third_party/mbedtls/library\aes.c ****  */
 375:D:/Work/DeviceTester/amazon-freertos/lib/third_party/mbedtls/library\aes.c **** static unsigned char RSb[256];
 376:D:/Work/DeviceTester/amazon-freertos/lib/third_party/mbedtls/library\aes.c **** static uint32_t RT0[256];
 377:D:/Work/DeviceTester/amazon-freertos/lib/third_party/mbedtls/library\aes.c **** #if !defined(MBEDTLS_AES_FEWER_TABLES)
 378:D:/Work/DeviceTester/amazon-freertos/lib/third_party/mbedtls/library\aes.c **** static uint32_t RT1[256];
 379:D:/Work/DeviceTester/amazon-freertos/lib/third_party/mbedtls/library\aes.c **** static uint32_t RT2[256];
 380:D:/Work/DeviceTester/amazon-freertos/lib/third_party/mbedtls/library\aes.c **** static uint32_t RT3[256];
 381:D:/Work/DeviceTester/amazon-freertos/lib/third_party/mbedtls/library\aes.c **** #endif /* !MBEDTLS_AES_FEWER_TABLES */
 382:D:/Work/DeviceTester/amazon-freertos/lib/third_party/mbedtls/library\aes.c **** 
 383:D:/Work/DeviceTester/amazon-freertos/lib/third_party/mbedtls/library\aes.c **** /*
 384:D:/Work/DeviceTester/amazon-freertos/lib/third_party/mbedtls/library\aes.c ****  * Round constants
 385:D:/Work/DeviceTester/amazon-freertos/lib/third_party/mbedtls/library\aes.c ****  */
 386:D:/Work/DeviceTester/amazon-freertos/lib/third_party/mbedtls/library\aes.c **** static uint32_t RCON[10];
 387:D:/Work/DeviceTester/amazon-freertos/lib/third_party/mbedtls/library\aes.c **** 
 388:D:/Work/DeviceTester/amazon-freertos/lib/third_party/mbedtls/library\aes.c **** /*
 389:D:/Work/DeviceTester/amazon-freertos/lib/third_party/mbedtls/library\aes.c ****  * Tables generation code
 390:D:/Work/DeviceTester/amazon-freertos/lib/third_party/mbedtls/library\aes.c ****  */
 391:D:/Work/DeviceTester/amazon-freertos/lib/third_party/mbedtls/library\aes.c **** #define ROTL8(x) ( ( x << 8 ) & 0xFFFFFFFF ) | ( x >> 24 )
 392:D:/Work/DeviceTester/amazon-freertos/lib/third_party/mbedtls/library\aes.c **** #define XTIME(x) ( ( x << 1 ) ^ ( ( x & 0x80 ) ? 0x1B : 0x00 ) )
 393:D:/Work/DeviceTester/amazon-freertos/lib/third_party/mbedtls/library\aes.c **** #define MUL(x,y) ( ( x && y ) ? pow[(log[x]+log[y]) % 255] : 0 )
 394:D:/Work/DeviceTester/amazon-freertos/lib/third_party/mbedtls/library\aes.c **** 
 395:D:/Work/DeviceTester/amazon-freertos/lib/third_party/mbedtls/library\aes.c **** static int aes_init_done = 0;
 396:D:/Work/DeviceTester/amazon-freertos/lib/third_party/mbedtls/library\aes.c **** 
 397:D:/Work/DeviceTester/amazon-freertos/lib/third_party/mbedtls/library\aes.c **** static void aes_gen_tables( void )
 398:D:/Work/DeviceTester/amazon-freertos/lib/third_party/mbedtls/library\aes.c **** {
 399:D:/Work/DeviceTester/amazon-freertos/lib/third_party/mbedtls/library\aes.c ****     int i, x, y, z;
 400:D:/Work/DeviceTester/amazon-freertos/lib/third_party/mbedtls/library\aes.c ****     int pow[256];
 401:D:/Work/DeviceTester/amazon-freertos/lib/third_party/mbedtls/library\aes.c ****     int log[256];
 402:D:/Work/DeviceTester/amazon-freertos/lib/third_party/mbedtls/library\aes.c **** 
 403:D:/Work/DeviceTester/amazon-freertos/lib/third_party/mbedtls/library\aes.c ****     /*
 404:D:/Work/DeviceTester/amazon-freertos/lib/third_party/mbedtls/library\aes.c ****      * compute pow and log tables over GF(2^8)
 405:D:/Work/DeviceTester/amazon-freertos/lib/third_party/mbedtls/library\aes.c ****      */
 406:D:/Work/DeviceTester/amazon-freertos/lib/third_party/mbedtls/library\aes.c ****     for( i = 0, x = 1; i < 256; i++ )
 407:D:/Work/DeviceTester/amazon-freertos/lib/third_party/mbedtls/library\aes.c ****     {
 408:D:/Work/DeviceTester/amazon-freertos/lib/third_party/mbedtls/library\aes.c ****         pow[i] = x;
 409:D:/Work/DeviceTester/amazon-freertos/lib/third_party/mbedtls/library\aes.c ****         log[x] = i;
 410:D:/Work/DeviceTester/amazon-freertos/lib/third_party/mbedtls/library\aes.c ****         x = ( x ^ XTIME( x ) ) & 0xFF;
 411:D:/Work/DeviceTester/amazon-freertos/lib/third_party/mbedtls/library\aes.c ****     }
 412:D:/Work/DeviceTester/amazon-freertos/lib/third_party/mbedtls/library\aes.c **** 
 413:D:/Work/DeviceTester/amazon-freertos/lib/third_party/mbedtls/library\aes.c ****     /*
 414:D:/Work/DeviceTester/amazon-freertos/lib/third_party/mbedtls/library\aes.c ****      * calculate the round constants
 415:D:/Work/DeviceTester/amazon-freertos/lib/third_party/mbedtls/library\aes.c ****      */
 416:D:/Work/DeviceTester/amazon-freertos/lib/third_party/mbedtls/library\aes.c ****     for( i = 0, x = 1; i < 10; i++ )
 417:D:/Work/DeviceTester/amazon-freertos/lib/third_party/mbedtls/library\aes.c ****     {
 418:D:/Work/DeviceTester/amazon-freertos/lib/third_party/mbedtls/library\aes.c ****         RCON[i] = (uint32_t) x;
 419:D:/Work/DeviceTester/amazon-freertos/lib/third_party/mbedtls/library\aes.c ****         x = XTIME( x ) & 0xFF;
 420:D:/Work/DeviceTester/amazon-freertos/lib/third_party/mbedtls/library\aes.c ****     }
 421:D:/Work/DeviceTester/amazon-freertos/lib/third_party/mbedtls/library\aes.c **** 
 422:D:/Work/DeviceTester/amazon-freertos/lib/third_party/mbedtls/library\aes.c ****     /*
 423:D:/Work/DeviceTester/amazon-freertos/lib/third_party/mbedtls/library\aes.c ****      * generate the forward and reverse S-boxes
 424:D:/Work/DeviceTester/amazon-freertos/lib/third_party/mbedtls/library\aes.c ****      */
 425:D:/Work/DeviceTester/amazon-freertos/lib/third_party/mbedtls/library\aes.c ****     FSb[0x00] = 0x63;
 426:D:/Work/DeviceTester/amazon-freertos/lib/third_party/mbedtls/library\aes.c ****     RSb[0x63] = 0x00;
 427:D:/Work/DeviceTester/amazon-freertos/lib/third_party/mbedtls/library\aes.c **** 
 428:D:/Work/DeviceTester/amazon-freertos/lib/third_party/mbedtls/library\aes.c ****     for( i = 1; i < 256; i++ )
 429:D:/Work/DeviceTester/amazon-freertos/lib/third_party/mbedtls/library\aes.c ****     {
 430:D:/Work/DeviceTester/amazon-freertos/lib/third_party/mbedtls/library\aes.c ****         x = pow[255 - log[i]];
 431:D:/Work/DeviceTester/amazon-freertos/lib/third_party/mbedtls/library\aes.c **** 
 432:D:/Work/DeviceTester/amazon-freertos/lib/third_party/mbedtls/library\aes.c ****         y  = x; y = ( ( y << 1 ) | ( y >> 7 ) ) & 0xFF;
 433:D:/Work/DeviceTester/amazon-freertos/lib/third_party/mbedtls/library\aes.c ****         x ^= y; y = ( ( y << 1 ) | ( y >> 7 ) ) & 0xFF;
 434:D:/Work/DeviceTester/amazon-freertos/lib/third_party/mbedtls/library\aes.c ****         x ^= y; y = ( ( y << 1 ) | ( y >> 7 ) ) & 0xFF;
 435:D:/Work/DeviceTester/amazon-freertos/lib/third_party/mbedtls/library\aes.c ****         x ^= y; y = ( ( y << 1 ) | ( y >> 7 ) ) & 0xFF;
 436:D:/Work/DeviceTester/amazon-freertos/lib/third_party/mbedtls/library\aes.c ****         x ^= y ^ 0x63;
 437:D:/Work/DeviceTester/amazon-freertos/lib/third_party/mbedtls/library\aes.c **** 
 438:D:/Work/DeviceTester/amazon-freertos/lib/third_party/mbedtls/library\aes.c ****         FSb[i] = (unsigned char) x;
 439:D:/Work/DeviceTester/amazon-freertos/lib/third_party/mbedtls/library\aes.c ****         RSb[x] = (unsigned char) i;
 440:D:/Work/DeviceTester/amazon-freertos/lib/third_party/mbedtls/library\aes.c ****     }
 441:D:/Work/DeviceTester/amazon-freertos/lib/third_party/mbedtls/library\aes.c **** 
 442:D:/Work/DeviceTester/amazon-freertos/lib/third_party/mbedtls/library\aes.c ****     /*
 443:D:/Work/DeviceTester/amazon-freertos/lib/third_party/mbedtls/library\aes.c ****      * generate the forward and reverse tables
 444:D:/Work/DeviceTester/amazon-freertos/lib/third_party/mbedtls/library\aes.c ****      */
 445:D:/Work/DeviceTester/amazon-freertos/lib/third_party/mbedtls/library\aes.c ****     for( i = 0; i < 256; i++ )
 446:D:/Work/DeviceTester/amazon-freertos/lib/third_party/mbedtls/library\aes.c ****     {
 447:D:/Work/DeviceTester/amazon-freertos/lib/third_party/mbedtls/library\aes.c ****         x = FSb[i];
 448:D:/Work/DeviceTester/amazon-freertos/lib/third_party/mbedtls/library\aes.c ****         y = XTIME( x ) & 0xFF;
 449:D:/Work/DeviceTester/amazon-freertos/lib/third_party/mbedtls/library\aes.c ****         z =  ( y ^ x ) & 0xFF;
 450:D:/Work/DeviceTester/amazon-freertos/lib/third_party/mbedtls/library\aes.c **** 
 451:D:/Work/DeviceTester/amazon-freertos/lib/third_party/mbedtls/library\aes.c ****         FT0[i] = ( (uint32_t) y       ) ^
 452:D:/Work/DeviceTester/amazon-freertos/lib/third_party/mbedtls/library\aes.c ****                  ( (uint32_t) x <<  8 ) ^
 453:D:/Work/DeviceTester/amazon-freertos/lib/third_party/mbedtls/library\aes.c ****                  ( (uint32_t) x << 16 ) ^
 454:D:/Work/DeviceTester/amazon-freertos/lib/third_party/mbedtls/library\aes.c ****                  ( (uint32_t) z << 24 );
 455:D:/Work/DeviceTester/amazon-freertos/lib/third_party/mbedtls/library\aes.c **** 
 456:D:/Work/DeviceTester/amazon-freertos/lib/third_party/mbedtls/library\aes.c **** #if !defined(MBEDTLS_AES_FEWER_TABLES)
 457:D:/Work/DeviceTester/amazon-freertos/lib/third_party/mbedtls/library\aes.c ****         FT1[i] = ROTL8( FT0[i] );
 458:D:/Work/DeviceTester/amazon-freertos/lib/third_party/mbedtls/library\aes.c ****         FT2[i] = ROTL8( FT1[i] );
 459:D:/Work/DeviceTester/amazon-freertos/lib/third_party/mbedtls/library\aes.c ****         FT3[i] = ROTL8( FT2[i] );
 460:D:/Work/DeviceTester/amazon-freertos/lib/third_party/mbedtls/library\aes.c **** #endif /* !MBEDTLS_AES_FEWER_TABLES */
 461:D:/Work/DeviceTester/amazon-freertos/lib/third_party/mbedtls/library\aes.c **** 
 462:D:/Work/DeviceTester/amazon-freertos/lib/third_party/mbedtls/library\aes.c ****         x = RSb[i];
 463:D:/Work/DeviceTester/amazon-freertos/lib/third_party/mbedtls/library\aes.c **** 
 464:D:/Work/DeviceTester/amazon-freertos/lib/third_party/mbedtls/library\aes.c ****         RT0[i] = ( (uint32_t) MUL( 0x0E, x )       ) ^
 465:D:/Work/DeviceTester/amazon-freertos/lib/third_party/mbedtls/library\aes.c ****                  ( (uint32_t) MUL( 0x09, x ) <<  8 ) ^
 466:D:/Work/DeviceTester/amazon-freertos/lib/third_party/mbedtls/library\aes.c ****                  ( (uint32_t) MUL( 0x0D, x ) << 16 ) ^
 467:D:/Work/DeviceTester/amazon-freertos/lib/third_party/mbedtls/library\aes.c ****                  ( (uint32_t) MUL( 0x0B, x ) << 24 );
 468:D:/Work/DeviceTester/amazon-freertos/lib/third_party/mbedtls/library\aes.c **** 
 469:D:/Work/DeviceTester/amazon-freertos/lib/third_party/mbedtls/library\aes.c **** #if !defined(MBEDTLS_AES_FEWER_TABLES)
 470:D:/Work/DeviceTester/amazon-freertos/lib/third_party/mbedtls/library\aes.c ****         RT1[i] = ROTL8( RT0[i] );
 471:D:/Work/DeviceTester/amazon-freertos/lib/third_party/mbedtls/library\aes.c ****         RT2[i] = ROTL8( RT1[i] );
 472:D:/Work/DeviceTester/amazon-freertos/lib/third_party/mbedtls/library\aes.c ****         RT3[i] = ROTL8( RT2[i] );
 473:D:/Work/DeviceTester/amazon-freertos/lib/third_party/mbedtls/library\aes.c **** #endif /* !MBEDTLS_AES_FEWER_TABLES */
 474:D:/Work/DeviceTester/amazon-freertos/lib/third_party/mbedtls/library\aes.c ****     }
 475:D:/Work/DeviceTester/amazon-freertos/lib/third_party/mbedtls/library\aes.c **** }
 476:D:/Work/DeviceTester/amazon-freertos/lib/third_party/mbedtls/library\aes.c **** 
 477:D:/Work/DeviceTester/amazon-freertos/lib/third_party/mbedtls/library\aes.c **** #undef ROTL8
 478:D:/Work/DeviceTester/amazon-freertos/lib/third_party/mbedtls/library\aes.c **** 
 479:D:/Work/DeviceTester/amazon-freertos/lib/third_party/mbedtls/library\aes.c **** #endif /* MBEDTLS_AES_ROM_TABLES */
 480:D:/Work/DeviceTester/amazon-freertos/lib/third_party/mbedtls/library\aes.c **** 
 481:D:/Work/DeviceTester/amazon-freertos/lib/third_party/mbedtls/library\aes.c **** #if defined(MBEDTLS_AES_FEWER_TABLES)
 482:D:/Work/DeviceTester/amazon-freertos/lib/third_party/mbedtls/library\aes.c **** 
 483:D:/Work/DeviceTester/amazon-freertos/lib/third_party/mbedtls/library\aes.c **** #define ROTL8(x)  ( (uint32_t)( ( x ) <<  8 ) + (uint32_t)( ( x ) >> 24 ) )
 484:D:/Work/DeviceTester/amazon-freertos/lib/third_party/mbedtls/library\aes.c **** #define ROTL16(x) ( (uint32_t)( ( x ) << 16 ) + (uint32_t)( ( x ) >> 16 ) )
 485:D:/Work/DeviceTester/amazon-freertos/lib/third_party/mbedtls/library\aes.c **** #define ROTL24(x) ( (uint32_t)( ( x ) << 24 ) + (uint32_t)( ( x ) >>  8 ) )
 486:D:/Work/DeviceTester/amazon-freertos/lib/third_party/mbedtls/library\aes.c **** 
 487:D:/Work/DeviceTester/amazon-freertos/lib/third_party/mbedtls/library\aes.c **** #define AES_RT0(idx) RT0[idx]
 488:D:/Work/DeviceTester/amazon-freertos/lib/third_party/mbedtls/library\aes.c **** #define AES_RT1(idx) ROTL8(  RT0[idx] )
 489:D:/Work/DeviceTester/amazon-freertos/lib/third_party/mbedtls/library\aes.c **** #define AES_RT2(idx) ROTL16( RT0[idx] )
 490:D:/Work/DeviceTester/amazon-freertos/lib/third_party/mbedtls/library\aes.c **** #define AES_RT3(idx) ROTL24( RT0[idx] )
 491:D:/Work/DeviceTester/amazon-freertos/lib/third_party/mbedtls/library\aes.c **** 
 492:D:/Work/DeviceTester/amazon-freertos/lib/third_party/mbedtls/library\aes.c **** #define AES_FT0(idx) FT0[idx]
 493:D:/Work/DeviceTester/amazon-freertos/lib/third_party/mbedtls/library\aes.c **** #define AES_FT1(idx) ROTL8(  FT0[idx] )
 494:D:/Work/DeviceTester/amazon-freertos/lib/third_party/mbedtls/library\aes.c **** #define AES_FT2(idx) ROTL16( FT0[idx] )
 495:D:/Work/DeviceTester/amazon-freertos/lib/third_party/mbedtls/library\aes.c **** #define AES_FT3(idx) ROTL24( FT0[idx] )
 496:D:/Work/DeviceTester/amazon-freertos/lib/third_party/mbedtls/library\aes.c **** 
 497:D:/Work/DeviceTester/amazon-freertos/lib/third_party/mbedtls/library\aes.c **** #else /* MBEDTLS_AES_FEWER_TABLES */
 498:D:/Work/DeviceTester/amazon-freertos/lib/third_party/mbedtls/library\aes.c **** 
 499:D:/Work/DeviceTester/amazon-freertos/lib/third_party/mbedtls/library\aes.c **** #define AES_RT0(idx) RT0[idx]
 500:D:/Work/DeviceTester/amazon-freertos/lib/third_party/mbedtls/library\aes.c **** #define AES_RT1(idx) RT1[idx]
 501:D:/Work/DeviceTester/amazon-freertos/lib/third_party/mbedtls/library\aes.c **** #define AES_RT2(idx) RT2[idx]
 502:D:/Work/DeviceTester/amazon-freertos/lib/third_party/mbedtls/library\aes.c **** #define AES_RT3(idx) RT3[idx]
 503:D:/Work/DeviceTester/amazon-freertos/lib/third_party/mbedtls/library\aes.c **** 
 504:D:/Work/DeviceTester/amazon-freertos/lib/third_party/mbedtls/library\aes.c **** #define AES_FT0(idx) FT0[idx]
 505:D:/Work/DeviceTester/amazon-freertos/lib/third_party/mbedtls/library\aes.c **** #define AES_FT1(idx) FT1[idx]
 506:D:/Work/DeviceTester/amazon-freertos/lib/third_party/mbedtls/library\aes.c **** #define AES_FT2(idx) FT2[idx]
 507:D:/Work/DeviceTester/amazon-freertos/lib/third_party/mbedtls/library\aes.c **** #define AES_FT3(idx) FT3[idx]
 508:D:/Work/DeviceTester/amazon-freertos/lib/third_party/mbedtls/library\aes.c **** 
 509:D:/Work/DeviceTester/amazon-freertos/lib/third_party/mbedtls/library\aes.c **** #endif /* MBEDTLS_AES_FEWER_TABLES */
 510:D:/Work/DeviceTester/amazon-freertos/lib/third_party/mbedtls/library\aes.c **** 
 511:D:/Work/DeviceTester/amazon-freertos/lib/third_party/mbedtls/library\aes.c **** void mbedtls_aes_init( mbedtls_aes_context *ctx )
 512:D:/Work/DeviceTester/amazon-freertos/lib/third_party/mbedtls/library\aes.c **** {
  26              		.loc 1 512 0
  27              		.cfi_startproc
  28              		@ args = 0, pretend = 0, frame = 0
  29              		@ frame_needed = 0, uses_anonymous_args = 0
  30              		@ link register save eliminated.
  31              	.LVL0:
 513:D:/Work/DeviceTester/amazon-freertos/lib/third_party/mbedtls/library\aes.c ****     memset( ctx, 0, sizeof( mbedtls_aes_context ) );
  32              		.loc 1 513 0
  33 0000 462FA0E3 		mov	r2, #280
  34 0004 0010A0E3 		mov	r1, #0
  35 0008 FEFFFFEA 		b	memset
  36              	.LVL1:
  37              		.cfi_endproc
  38              	.LFE1:
  40              		.section	.text.mbedtls_aes_free,"ax",%progbits
  41              		.align	2
  42              		.global	mbedtls_aes_free
  43              		.syntax unified
  44              		.arm
  45              		.fpu neon
  47              	mbedtls_aes_free:
  48              	.LFB2:
 514:D:/Work/DeviceTester/amazon-freertos/lib/third_party/mbedtls/library\aes.c **** }
 515:D:/Work/DeviceTester/amazon-freertos/lib/third_party/mbedtls/library\aes.c **** 
 516:D:/Work/DeviceTester/amazon-freertos/lib/third_party/mbedtls/library\aes.c **** void mbedtls_aes_free( mbedtls_aes_context *ctx )
 517:D:/Work/DeviceTester/amazon-freertos/lib/third_party/mbedtls/library\aes.c **** {
  49              		.loc 1 517 0
  50              		.cfi_startproc
  51              		@ args = 0, pretend = 0, frame = 0
  52              		@ frame_needed = 0, uses_anonymous_args = 0
  53              		@ link register save eliminated.
  54              	.LVL2:
 518:D:/Work/DeviceTester/amazon-freertos/lib/third_party/mbedtls/library\aes.c ****     if( ctx == NULL )
  55              		.loc 1 518 0
  56 0000 000050E3 		cmp	r0, #0
  57 0004 1EFF2F01 		bxeq	lr
 519:D:/Work/DeviceTester/amazon-freertos/lib/third_party/mbedtls/library\aes.c ****         return;
 520:D:/Work/DeviceTester/amazon-freertos/lib/third_party/mbedtls/library\aes.c **** 
 521:D:/Work/DeviceTester/amazon-freertos/lib/third_party/mbedtls/library\aes.c ****     mbedtls_platform_zeroize( ctx, sizeof( mbedtls_aes_context ) );
  58              		.loc 1 521 0
  59 0008 461FA0E3 		mov	r1, #280
  60 000c FEFFFFEA 		b	mbedtls_platform_zeroize
  61              	.LVL3:
  62              		.cfi_endproc
  63              	.LFE2:
  65              		.section	.text.mbedtls_aes_setkey_enc,"ax",%progbits
  66              		.align	2
  67              		.global	mbedtls_aes_setkey_enc
  68              		.syntax unified
  69              		.arm
  70              		.fpu neon
  72              	mbedtls_aes_setkey_enc:
  73              	.LFB3:
 522:D:/Work/DeviceTester/amazon-freertos/lib/third_party/mbedtls/library\aes.c **** }
 523:D:/Work/DeviceTester/amazon-freertos/lib/third_party/mbedtls/library\aes.c **** 
 524:D:/Work/DeviceTester/amazon-freertos/lib/third_party/mbedtls/library\aes.c **** #if defined(MBEDTLS_CIPHER_MODE_XTS)
 525:D:/Work/DeviceTester/amazon-freertos/lib/third_party/mbedtls/library\aes.c **** void mbedtls_aes_xts_init( mbedtls_aes_xts_context *ctx )
 526:D:/Work/DeviceTester/amazon-freertos/lib/third_party/mbedtls/library\aes.c **** {
 527:D:/Work/DeviceTester/amazon-freertos/lib/third_party/mbedtls/library\aes.c ****     mbedtls_aes_init( &ctx->crypt );
 528:D:/Work/DeviceTester/amazon-freertos/lib/third_party/mbedtls/library\aes.c ****     mbedtls_aes_init( &ctx->tweak );
 529:D:/Work/DeviceTester/amazon-freertos/lib/third_party/mbedtls/library\aes.c **** }
 530:D:/Work/DeviceTester/amazon-freertos/lib/third_party/mbedtls/library\aes.c **** 
 531:D:/Work/DeviceTester/amazon-freertos/lib/third_party/mbedtls/library\aes.c **** void mbedtls_aes_xts_free( mbedtls_aes_xts_context *ctx )
 532:D:/Work/DeviceTester/amazon-freertos/lib/third_party/mbedtls/library\aes.c **** {
 533:D:/Work/DeviceTester/amazon-freertos/lib/third_party/mbedtls/library\aes.c ****     mbedtls_aes_free( &ctx->crypt );
 534:D:/Work/DeviceTester/amazon-freertos/lib/third_party/mbedtls/library\aes.c ****     mbedtls_aes_free( &ctx->tweak );
 535:D:/Work/DeviceTester/amazon-freertos/lib/third_party/mbedtls/library\aes.c **** }
 536:D:/Work/DeviceTester/amazon-freertos/lib/third_party/mbedtls/library\aes.c **** #endif /* MBEDTLS_CIPHER_MODE_XTS */
 537:D:/Work/DeviceTester/amazon-freertos/lib/third_party/mbedtls/library\aes.c **** 
 538:D:/Work/DeviceTester/amazon-freertos/lib/third_party/mbedtls/library\aes.c **** /*
 539:D:/Work/DeviceTester/amazon-freertos/lib/third_party/mbedtls/library\aes.c ****  * AES key schedule (encryption)
 540:D:/Work/DeviceTester/amazon-freertos/lib/third_party/mbedtls/library\aes.c ****  */
 541:D:/Work/DeviceTester/amazon-freertos/lib/third_party/mbedtls/library\aes.c **** #if !defined(MBEDTLS_AES_SETKEY_ENC_ALT)
 542:D:/Work/DeviceTester/amazon-freertos/lib/third_party/mbedtls/library\aes.c **** int mbedtls_aes_setkey_enc( mbedtls_aes_context *ctx, const unsigned char *key,
 543:D:/Work/DeviceTester/amazon-freertos/lib/third_party/mbedtls/library\aes.c ****                     unsigned int keybits )
 544:D:/Work/DeviceTester/amazon-freertos/lib/third_party/mbedtls/library\aes.c **** {
  74              		.loc 1 544 0
  75              		.cfi_startproc
  76              		@ args = 0, pretend = 0, frame = 0
  77              		@ frame_needed = 0, uses_anonymous_args = 0
  78              	.LVL4:
 545:D:/Work/DeviceTester/amazon-freertos/lib/third_party/mbedtls/library\aes.c ****     unsigned int i;
 546:D:/Work/DeviceTester/amazon-freertos/lib/third_party/mbedtls/library\aes.c ****     uint32_t *RK;
 547:D:/Work/DeviceTester/amazon-freertos/lib/third_party/mbedtls/library\aes.c **** 
 548:D:/Work/DeviceTester/amazon-freertos/lib/third_party/mbedtls/library\aes.c **** #if !defined(MBEDTLS_AES_ROM_TABLES)
 549:D:/Work/DeviceTester/amazon-freertos/lib/third_party/mbedtls/library\aes.c ****     if( aes_init_done == 0 )
 550:D:/Work/DeviceTester/amazon-freertos/lib/third_party/mbedtls/library\aes.c ****     {
 551:D:/Work/DeviceTester/amazon-freertos/lib/third_party/mbedtls/library\aes.c ****         aes_gen_tables();
 552:D:/Work/DeviceTester/amazon-freertos/lib/third_party/mbedtls/library\aes.c ****         aes_init_done = 1;
 553:D:/Work/DeviceTester/amazon-freertos/lib/third_party/mbedtls/library\aes.c **** 
 554:D:/Work/DeviceTester/amazon-freertos/lib/third_party/mbedtls/library\aes.c ****     }
 555:D:/Work/DeviceTester/amazon-freertos/lib/third_party/mbedtls/library\aes.c **** #endif
 556:D:/Work/DeviceTester/amazon-freertos/lib/third_party/mbedtls/library\aes.c **** 
 557:D:/Work/DeviceTester/amazon-freertos/lib/third_party/mbedtls/library\aes.c ****     switch( keybits )
  79              		.loc 1 557 0
  80 0000 C00052E3 		cmp	r2, #192
  81 0004 0600000A 		beq	.L6
  82 0008 010C52E3 		cmp	r2, #256
  83 000c 3700000A 		beq	.L7
  84 0010 800052E3 		cmp	r2, #128
 558:D:/Work/DeviceTester/amazon-freertos/lib/third_party/mbedtls/library\aes.c ****     {
 559:D:/Work/DeviceTester/amazon-freertos/lib/third_party/mbedtls/library\aes.c ****         case 128: ctx->nr = 10; break;
  85              		.loc 1 559 0
  86 0014 0A30A003 		moveq	r3, #10
 557:D:/Work/DeviceTester/amazon-freertos/lib/third_party/mbedtls/library\aes.c ****     {
  87              		.loc 1 557 0
  88 0018 0200000A 		beq	.L29
 560:D:/Work/DeviceTester/amazon-freertos/lib/third_party/mbedtls/library\aes.c ****         case 192: ctx->nr = 12; break;
 561:D:/Work/DeviceTester/amazon-freertos/lib/third_party/mbedtls/library\aes.c ****         case 256: ctx->nr = 14; break;
 562:D:/Work/DeviceTester/amazon-freertos/lib/third_party/mbedtls/library\aes.c ****         default : return( MBEDTLS_ERR_AES_INVALID_KEY_LENGTH );
  89              		.loc 1 562 0
  90 001c 1F00E0E3 		mvn	r0, #31
  91              	.LVL5:
  92 0020 1EFF2FE1 		bx	lr
  93              	.LVL6:
  94              	.L6:
 560:D:/Work/DeviceTester/amazon-freertos/lib/third_party/mbedtls/library\aes.c ****         case 192: ctx->nr = 12; break;
  95              		.loc 1 560 0
  96 0024 0C30A0E3 		mov	r3, #12
  97              	.L29:
 563:D:/Work/DeviceTester/amazon-freertos/lib/third_party/mbedtls/library\aes.c ****     }
 564:D:/Work/DeviceTester/amazon-freertos/lib/third_party/mbedtls/library\aes.c **** 
 565:D:/Work/DeviceTester/amazon-freertos/lib/third_party/mbedtls/library\aes.c **** #if defined(MBEDTLS_PADLOCK_C) && defined(MBEDTLS_PADLOCK_ALIGN16)
 566:D:/Work/DeviceTester/amazon-freertos/lib/third_party/mbedtls/library\aes.c ****     if( aes_padlock_ace == -1 )
 567:D:/Work/DeviceTester/amazon-freertos/lib/third_party/mbedtls/library\aes.c ****         aes_padlock_ace = mbedtls_padlock_has_support( MBEDTLS_PADLOCK_ACE );
 568:D:/Work/DeviceTester/amazon-freertos/lib/third_party/mbedtls/library\aes.c **** 
 569:D:/Work/DeviceTester/amazon-freertos/lib/third_party/mbedtls/library\aes.c ****     if( aes_padlock_ace )
 570:D:/Work/DeviceTester/amazon-freertos/lib/third_party/mbedtls/library\aes.c ****         ctx->rk = RK = MBEDTLS_PADLOCK_ALIGN16( ctx->buf );
 571:D:/Work/DeviceTester/amazon-freertos/lib/third_party/mbedtls/library\aes.c ****     else
 572:D:/Work/DeviceTester/amazon-freertos/lib/third_party/mbedtls/library\aes.c **** #endif
 573:D:/Work/DeviceTester/amazon-freertos/lib/third_party/mbedtls/library\aes.c ****     ctx->rk = RK = ctx->buf;
 574:D:/Work/DeviceTester/amazon-freertos/lib/third_party/mbedtls/library\aes.c **** 
 575:D:/Work/DeviceTester/amazon-freertos/lib/third_party/mbedtls/library\aes.c **** #if defined(MBEDTLS_AESNI_C) && defined(MBEDTLS_HAVE_X86_64)
 576:D:/Work/DeviceTester/amazon-freertos/lib/third_party/mbedtls/library\aes.c ****     if( mbedtls_aesni_has_support( MBEDTLS_AESNI_AES ) )
 577:D:/Work/DeviceTester/amazon-freertos/lib/third_party/mbedtls/library\aes.c ****         return( mbedtls_aesni_setkey_enc( (unsigned char *) ctx->rk, key, keybits ) );
 578:D:/Work/DeviceTester/amazon-freertos/lib/third_party/mbedtls/library\aes.c **** #endif
 579:D:/Work/DeviceTester/amazon-freertos/lib/third_party/mbedtls/library\aes.c **** 
 580:D:/Work/DeviceTester/amazon-freertos/lib/third_party/mbedtls/library\aes.c ****     for( i = 0; i < ( keybits >> 5 ); i++ )
  98              		.loc 1 580 0
  99 0028 A222A0E1 		lsr	r2, r2, #5
 100              	.LVL7:
 101 002c 00C0A0E3 		mov	ip, #0
 561:D:/Work/DeviceTester/amazon-freertos/lib/third_party/mbedtls/library\aes.c ****         default : return( MBEDTLS_ERR_AES_INVALID_KEY_LENGTH );
 102              		.loc 1 561 0
 103 0030 003080E5 		str	r3, [r0]
 544:D:/Work/DeviceTester/amazon-freertos/lib/third_party/mbedtls/library\aes.c ****     unsigned int i;
 104              		.loc 1 544 0
 105 0034 30402DE9 		push	{r4, r5, lr}
 106              		.cfi_def_cfa_offset 12
 107              		.cfi_offset 4, -12
 108              		.cfi_offset 5, -8
 109              		.cfi_offset 14, -4
 573:D:/Work/DeviceTester/amazon-freertos/lib/third_party/mbedtls/library\aes.c **** 
 110              		.loc 1 573 0
 111 0038 08E080E2 		add	lr, r0, #8
 112              	.LVL8:
 113 003c 04E080E5 		str	lr, [r0, #4]
 114              	.LVL9:
 115              	.L10:
 116              		.loc 1 580 0 discriminator 1
 117 0040 02005CE1 		cmp	ip, r2
 118 0044 041081E2 		add	r1, r1, #4
 119 0048 2A00001A 		bne	.L11
 581:D:/Work/DeviceTester/amazon-freertos/lib/third_party/mbedtls/library\aes.c ****     {
 582:D:/Work/DeviceTester/amazon-freertos/lib/third_party/mbedtls/library\aes.c ****         GET_UINT32_LE( RK[i], key, i << 2 );
 583:D:/Work/DeviceTester/amazon-freertos/lib/third_party/mbedtls/library\aes.c ****     }
 584:D:/Work/DeviceTester/amazon-freertos/lib/third_party/mbedtls/library\aes.c **** 
 585:D:/Work/DeviceTester/amazon-freertos/lib/third_party/mbedtls/library\aes.c ****     switch( ctx->nr )
 120              		.loc 1 585 0
 121 004c 003090E5 		ldr	r3, [r0]
 122 0050 0C0053E3 		cmp	r3, #12
 123 0054 3200000A 		beq	.L12
 124 0058 0E0053E3 		cmp	r3, #14
 125 005c 5700000A 		beq	.L13
 126 0060 0A0053E3 		cmp	r3, #10
 127 0064 1F00001A 		bne	.L25
 586:D:/Work/DeviceTester/amazon-freertos/lib/third_party/mbedtls/library\aes.c ****     {
 587:D:/Work/DeviceTester/amazon-freertos/lib/third_party/mbedtls/library\aes.c ****         case 10:
 588:D:/Work/DeviceTester/amazon-freertos/lib/third_party/mbedtls/library\aes.c **** 
 589:D:/Work/DeviceTester/amazon-freertos/lib/third_party/mbedtls/library\aes.c ****             for( i = 0; i < 10; i++, RK += 4 )
 590:D:/Work/DeviceTester/amazon-freertos/lib/third_party/mbedtls/library\aes.c ****             {
 591:D:/Work/DeviceTester/amazon-freertos/lib/third_party/mbedtls/library\aes.c ****                 RK[4]  = RK[0] ^ RCON[i] ^
 128              		.loc 1 591 0
 129 0068 2CE29FE5 		ldr	lr, .L30
 130              	.LVL10:
 131 006c 180080E2 		add	r0, r0, #24
 132              	.LVL11:
 592:D:/Work/DeviceTester/amazon-freertos/lib/third_party/mbedtls/library\aes.c ****                 ( (uint32_t) FSb[ ( RK[3] >>  8 ) & 0xFF ]       ) ^
 133              		.loc 1 592 0
 134 0070 28C29FE5 		ldr	ip, .L30+4
 135              	.LVL12:
 585:D:/Work/DeviceTester/amazon-freertos/lib/third_party/mbedtls/library\aes.c ****     {
 136              		.loc 1 585 0
 137 0074 0010A0E3 		mov	r1, #0
 138              	.LVL13:
 139              	.L15:
 140              		.loc 1 592 0 discriminator 3
 141 0078 042010E5 		ldr	r2, [r0, #-4]
 142 007c 100080E2 		add	r0, r0, #16
 143              	.LVL14:
 593:D:/Work/DeviceTester/amazon-freertos/lib/third_party/mbedtls/library\aes.c ****                 ( (uint32_t) FSb[ ( RK[3] >> 16 ) & 0xFF ] <<  8 ) ^
 594:D:/Work/DeviceTester/amazon-freertos/lib/third_party/mbedtls/library\aes.c ****                 ( (uint32_t) FSb[ ( RK[3] >> 24 ) & 0xFF ] << 16 ) ^
 144              		.loc 1 594 0 discriminator 3
 145 0080 204010E5 		ldr	r4, [r0, #-32]
 146 0084 01319EE7 		ldr	r3, [lr, r1, lsl #2]
 589:D:/Work/DeviceTester/amazon-freertos/lib/third_party/mbedtls/library\aes.c ****             {
 147              		.loc 1 589 0 discriminator 3
 148 0088 011081E2 		add	r1, r1, #1
 149              	.LVL15:
 150 008c 0A0051E3 		cmp	r1, #10
 151              		.loc 1 594 0 discriminator 3
 152 0090 043023E0 		eor	r3, r3, r4
 592:D:/Work/DeviceTester/amazon-freertos/lib/third_party/mbedtls/library\aes.c ****                 ( (uint32_t) FSb[ ( RK[3] >> 16 ) & 0xFF ] <<  8 ) ^
 153              		.loc 1 592 0 discriminator 3
 154 0094 5244E7E7 		ubfx	r4, r2, #8, #8
 155 0098 0440DCE7 		ldrb	r4, [ip, r4]	@ zero_extendqisi2
 156              		.loc 1 594 0 discriminator 3
 157 009c 043023E0 		eor	r3, r3, r4
 158 00a0 224CDCE7 		ldrb	r4, [ip, r2, lsr #24]	@ zero_extendqisi2
 159 00a4 043823E0 		eor	r3, r3, r4, lsl #16
 595:D:/Work/DeviceTester/amazon-freertos/lib/third_party/mbedtls/library\aes.c ****                 ( (uint32_t) FSb[ ( RK[3]       ) & 0xFF ] << 24 );
 160              		.loc 1 595 0 discriminator 3
 161 00a8 7240EFE6 		uxtb	r4, r2
 162 00ac 0440DCE7 		ldrb	r4, [ip, r4]	@ zero_extendqisi2
 594:D:/Work/DeviceTester/amazon-freertos/lib/third_party/mbedtls/library\aes.c ****                 ( (uint32_t) FSb[ ( RK[3]       ) & 0xFF ] << 24 );
 163              		.loc 1 594 0 discriminator 3
 164 00b0 043C23E0 		eor	r3, r3, r4, lsl #24
 593:D:/Work/DeviceTester/amazon-freertos/lib/third_party/mbedtls/library\aes.c ****                 ( (uint32_t) FSb[ ( RK[3] >> 24 ) & 0xFF ] << 16 ) ^
 165              		.loc 1 593 0 discriminator 3
 166 00b4 5248E7E7 		ubfx	r4, r2, #16, #8
 167 00b8 0440DCE7 		ldrb	r4, [ip, r4]	@ zero_extendqisi2
 594:D:/Work/DeviceTester/amazon-freertos/lib/third_party/mbedtls/library\aes.c ****                 ( (uint32_t) FSb[ ( RK[3]       ) & 0xFF ] << 24 );
 168              		.loc 1 594 0 discriminator 3
 169 00bc 043423E0 		eor	r3, r3, r4, lsl #8
 596:D:/Work/DeviceTester/amazon-freertos/lib/third_party/mbedtls/library\aes.c **** 
 597:D:/Work/DeviceTester/amazon-freertos/lib/third_party/mbedtls/library\aes.c ****                 RK[5]  = RK[1] ^ RK[4];
 170              		.loc 1 597 0 discriminator 3
 171 00c0 1C4010E5 		ldr	r4, [r0, #-28]
 591:D:/Work/DeviceTester/amazon-freertos/lib/third_party/mbedtls/library\aes.c ****                 ( (uint32_t) FSb[ ( RK[3] >>  8 ) & 0xFF ]       ) ^
 172              		.loc 1 591 0 discriminator 3
 173 00c4 103000E5 		str	r3, [r0, #-16]
 174              		.loc 1 597 0 discriminator 3
 175 00c8 043023E0 		eor	r3, r3, r4
 598:D:/Work/DeviceTester/amazon-freertos/lib/third_party/mbedtls/library\aes.c ****                 RK[6]  = RK[2] ^ RK[5];
 176              		.loc 1 598 0 discriminator 3
 177 00cc 184010E5 		ldr	r4, [r0, #-24]
 597:D:/Work/DeviceTester/amazon-freertos/lib/third_party/mbedtls/library\aes.c ****                 RK[6]  = RK[2] ^ RK[5];
 178              		.loc 1 597 0 discriminator 3
 179 00d0 0C3000E5 		str	r3, [r0, #-12]
 180              		.loc 1 598 0 discriminator 3
 181 00d4 043023E0 		eor	r3, r3, r4
 182 00d8 083000E5 		str	r3, [r0, #-8]
 599:D:/Work/DeviceTester/amazon-freertos/lib/third_party/mbedtls/library\aes.c ****                 RK[7]  = RK[3] ^ RK[6];
 183              		.loc 1 599 0 discriminator 3
 184 00dc 023023E0 		eor	r3, r3, r2
 185 00e0 043000E5 		str	r3, [r0, #-4]
 589:D:/Work/DeviceTester/amazon-freertos/lib/third_party/mbedtls/library\aes.c ****             {
 186              		.loc 1 589 0 discriminator 3
 187 00e4 E3FFFF1A 		bne	.L15
 188              	.LVL16:
 189              	.L25:
 600:D:/Work/DeviceTester/amazon-freertos/lib/third_party/mbedtls/library\aes.c ****             }
 601:D:/Work/DeviceTester/amazon-freertos/lib/third_party/mbedtls/library\aes.c ****             break;
 602:D:/Work/DeviceTester/amazon-freertos/lib/third_party/mbedtls/library\aes.c **** 
 603:D:/Work/DeviceTester/amazon-freertos/lib/third_party/mbedtls/library\aes.c ****         case 12:
 604:D:/Work/DeviceTester/amazon-freertos/lib/third_party/mbedtls/library\aes.c **** 
 605:D:/Work/DeviceTester/amazon-freertos/lib/third_party/mbedtls/library\aes.c ****             for( i = 0; i < 8; i++, RK += 6 )
 606:D:/Work/DeviceTester/amazon-freertos/lib/third_party/mbedtls/library\aes.c ****             {
 607:D:/Work/DeviceTester/amazon-freertos/lib/third_party/mbedtls/library\aes.c ****                 RK[6]  = RK[0] ^ RCON[i] ^
 608:D:/Work/DeviceTester/amazon-freertos/lib/third_party/mbedtls/library\aes.c ****                 ( (uint32_t) FSb[ ( RK[5] >>  8 ) & 0xFF ]       ) ^
 609:D:/Work/DeviceTester/amazon-freertos/lib/third_party/mbedtls/library\aes.c ****                 ( (uint32_t) FSb[ ( RK[5] >> 16 ) & 0xFF ] <<  8 ) ^
 610:D:/Work/DeviceTester/amazon-freertos/lib/third_party/mbedtls/library\aes.c ****                 ( (uint32_t) FSb[ ( RK[5] >> 24 ) & 0xFF ] << 16 ) ^
 611:D:/Work/DeviceTester/amazon-freertos/lib/third_party/mbedtls/library\aes.c ****                 ( (uint32_t) FSb[ ( RK[5]       ) & 0xFF ] << 24 );
 612:D:/Work/DeviceTester/amazon-freertos/lib/third_party/mbedtls/library\aes.c **** 
 613:D:/Work/DeviceTester/amazon-freertos/lib/third_party/mbedtls/library\aes.c ****                 RK[7]  = RK[1] ^ RK[6];
 614:D:/Work/DeviceTester/amazon-freertos/lib/third_party/mbedtls/library\aes.c ****                 RK[8]  = RK[2] ^ RK[7];
 615:D:/Work/DeviceTester/amazon-freertos/lib/third_party/mbedtls/library\aes.c ****                 RK[9]  = RK[3] ^ RK[8];
 616:D:/Work/DeviceTester/amazon-freertos/lib/third_party/mbedtls/library\aes.c ****                 RK[10] = RK[4] ^ RK[9];
 617:D:/Work/DeviceTester/amazon-freertos/lib/third_party/mbedtls/library\aes.c ****                 RK[11] = RK[5] ^ RK[10];
 618:D:/Work/DeviceTester/amazon-freertos/lib/third_party/mbedtls/library\aes.c ****             }
 619:D:/Work/DeviceTester/amazon-freertos/lib/third_party/mbedtls/library\aes.c ****             break;
 620:D:/Work/DeviceTester/amazon-freertos/lib/third_party/mbedtls/library\aes.c **** 
 621:D:/Work/DeviceTester/amazon-freertos/lib/third_party/mbedtls/library\aes.c ****         case 14:
 622:D:/Work/DeviceTester/amazon-freertos/lib/third_party/mbedtls/library\aes.c **** 
 623:D:/Work/DeviceTester/amazon-freertos/lib/third_party/mbedtls/library\aes.c ****             for( i = 0; i < 7; i++, RK += 8 )
 624:D:/Work/DeviceTester/amazon-freertos/lib/third_party/mbedtls/library\aes.c ****             {
 625:D:/Work/DeviceTester/amazon-freertos/lib/third_party/mbedtls/library\aes.c ****                 RK[8]  = RK[0] ^ RCON[i] ^
 626:D:/Work/DeviceTester/amazon-freertos/lib/third_party/mbedtls/library\aes.c ****                 ( (uint32_t) FSb[ ( RK[7] >>  8 ) & 0xFF ]       ) ^
 627:D:/Work/DeviceTester/amazon-freertos/lib/third_party/mbedtls/library\aes.c ****                 ( (uint32_t) FSb[ ( RK[7] >> 16 ) & 0xFF ] <<  8 ) ^
 628:D:/Work/DeviceTester/amazon-freertos/lib/third_party/mbedtls/library\aes.c ****                 ( (uint32_t) FSb[ ( RK[7] >> 24 ) & 0xFF ] << 16 ) ^
 629:D:/Work/DeviceTester/amazon-freertos/lib/third_party/mbedtls/library\aes.c ****                 ( (uint32_t) FSb[ ( RK[7]       ) & 0xFF ] << 24 );
 630:D:/Work/DeviceTester/amazon-freertos/lib/third_party/mbedtls/library\aes.c **** 
 631:D:/Work/DeviceTester/amazon-freertos/lib/third_party/mbedtls/library\aes.c ****                 RK[9]  = RK[1] ^ RK[8];
 632:D:/Work/DeviceTester/amazon-freertos/lib/third_party/mbedtls/library\aes.c ****                 RK[10] = RK[2] ^ RK[9];
 633:D:/Work/DeviceTester/amazon-freertos/lib/third_party/mbedtls/library\aes.c ****                 RK[11] = RK[3] ^ RK[10];
 634:D:/Work/DeviceTester/amazon-freertos/lib/third_party/mbedtls/library\aes.c **** 
 635:D:/Work/DeviceTester/amazon-freertos/lib/third_party/mbedtls/library\aes.c ****                 RK[12] = RK[4] ^
 636:D:/Work/DeviceTester/amazon-freertos/lib/third_party/mbedtls/library\aes.c ****                 ( (uint32_t) FSb[ ( RK[11]       ) & 0xFF ]       ) ^
 637:D:/Work/DeviceTester/amazon-freertos/lib/third_party/mbedtls/library\aes.c ****                 ( (uint32_t) FSb[ ( RK[11] >>  8 ) & 0xFF ] <<  8 ) ^
 638:D:/Work/DeviceTester/amazon-freertos/lib/third_party/mbedtls/library\aes.c ****                 ( (uint32_t) FSb[ ( RK[11] >> 16 ) & 0xFF ] << 16 ) ^
 639:D:/Work/DeviceTester/amazon-freertos/lib/third_party/mbedtls/library\aes.c ****                 ( (uint32_t) FSb[ ( RK[11] >> 24 ) & 0xFF ] << 24 );
 640:D:/Work/DeviceTester/amazon-freertos/lib/third_party/mbedtls/library\aes.c **** 
 641:D:/Work/DeviceTester/amazon-freertos/lib/third_party/mbedtls/library\aes.c ****                 RK[13] = RK[5] ^ RK[12];
 642:D:/Work/DeviceTester/amazon-freertos/lib/third_party/mbedtls/library\aes.c ****                 RK[14] = RK[6] ^ RK[13];
 643:D:/Work/DeviceTester/amazon-freertos/lib/third_party/mbedtls/library\aes.c ****                 RK[15] = RK[7] ^ RK[14];
 644:D:/Work/DeviceTester/amazon-freertos/lib/third_party/mbedtls/library\aes.c ****             }
 645:D:/Work/DeviceTester/amazon-freertos/lib/third_party/mbedtls/library\aes.c ****             break;
 646:D:/Work/DeviceTester/amazon-freertos/lib/third_party/mbedtls/library\aes.c ****     }
 647:D:/Work/DeviceTester/amazon-freertos/lib/third_party/mbedtls/library\aes.c **** 
 648:D:/Work/DeviceTester/amazon-freertos/lib/third_party/mbedtls/library\aes.c ****     return( 0 );
 190              		.loc 1 648 0
 191 00e8 0000A0E3 		mov	r0, #0
 649:D:/Work/DeviceTester/amazon-freertos/lib/third_party/mbedtls/library\aes.c **** }
 192              		.loc 1 649 0
 193 00ec 3080BDE8 		pop	{r4, r5, pc}
 194              	.LVL17:
 195              	.L7:
 196              		.cfi_def_cfa_offset 0
 197              		.cfi_restore 4
 198              		.cfi_restore 5
 199              		.cfi_restore 14
 561:D:/Work/DeviceTester/amazon-freertos/lib/third_party/mbedtls/library\aes.c ****         default : return( MBEDTLS_ERR_AES_INVALID_KEY_LENGTH );
 200              		.loc 1 561 0
 201 00f0 0E30A0E3 		mov	r3, #14
 202 00f4 CBFFFFEA 		b	.L29
 203              	.LVL18:
 204              	.L11:
 205              		.cfi_def_cfa_offset 12
 206              		.cfi_offset 4, -12
 207              		.cfi_offset 5, -8
 208              		.cfi_offset 14, -4
 582:D:/Work/DeviceTester/amazon-freertos/lib/third_party/mbedtls/library\aes.c ****     }
 209              		.loc 1 582 0 discriminator 3
 210 00f8 023051E5 		ldrb	r3, [r1, #-2]	@ zero_extendqisi2
 211 00fc 034051E5 		ldrb	r4, [r1, #-3]	@ zero_extendqisi2
 212 0100 0338A0E1 		lsl	r3, r3, #16
 213 0104 043483E1 		orr	r3, r3, r4, lsl #8
 214 0108 044051E5 		ldrb	r4, [r1, #-4]	@ zero_extendqisi2
 215 010c 043083E1 		orr	r3, r3, r4
 216 0110 014051E5 		ldrb	r4, [r1, #-1]	@ zero_extendqisi2
 217 0114 043C83E1 		orr	r3, r3, r4, lsl #24
 218 0118 0C318EE7 		str	r3, [lr, ip, lsl #2]
 580:D:/Work/DeviceTester/amazon-freertos/lib/third_party/mbedtls/library\aes.c ****     {
 219              		.loc 1 580 0 discriminator 3
 220 011c 01C08CE2 		add	ip, ip, #1
 221              	.LVL19:
 222 0120 C6FFFFEA 		b	.L10
 223              	.L12:
 607:D:/Work/DeviceTester/amazon-freertos/lib/third_party/mbedtls/library\aes.c ****                 ( (uint32_t) FSb[ ( RK[5] >>  8 ) & 0xFF ]       ) ^
 224              		.loc 1 607 0
 225 0124 70E19FE5 		ldr	lr, .L30
 226              	.LVL20:
 227 0128 200080E2 		add	r0, r0, #32
 228              	.LVL21:
 608:D:/Work/DeviceTester/amazon-freertos/lib/third_party/mbedtls/library\aes.c ****                 ( (uint32_t) FSb[ ( RK[5] >> 16 ) & 0xFF ] <<  8 ) ^
 229              		.loc 1 608 0
 230 012c 6CC19FE5 		ldr	ip, .L30+4
 231              	.LVL22:
 585:D:/Work/DeviceTester/amazon-freertos/lib/third_party/mbedtls/library\aes.c ****     {
 232              		.loc 1 585 0
 233 0130 0010A0E3 		mov	r1, #0
 234              	.LVL23:
 235              	.L16:
 608:D:/Work/DeviceTester/amazon-freertos/lib/third_party/mbedtls/library\aes.c ****                 ( (uint32_t) FSb[ ( RK[5] >> 16 ) & 0xFF ] <<  8 ) ^
 236              		.loc 1 608 0 discriminator 3
 237 0134 042010E5 		ldr	r2, [r0, #-4]
 238 0138 180080E2 		add	r0, r0, #24
 239              	.LVL24:
 610:D:/Work/DeviceTester/amazon-freertos/lib/third_party/mbedtls/library\aes.c ****                 ( (uint32_t) FSb[ ( RK[5]       ) & 0xFF ] << 24 );
 240              		.loc 1 610 0 discriminator 3
 241 013c 304010E5 		ldr	r4, [r0, #-48]
 242 0140 01319EE7 		ldr	r3, [lr, r1, lsl #2]
 605:D:/Work/DeviceTester/amazon-freertos/lib/third_party/mbedtls/library\aes.c ****             {
 243              		.loc 1 605 0 discriminator 3
 244 0144 011081E2 		add	r1, r1, #1
 245              	.LVL25:
 246 0148 080051E3 		cmp	r1, #8
 610:D:/Work/DeviceTester/amazon-freertos/lib/third_party/mbedtls/library\aes.c ****                 ( (uint32_t) FSb[ ( RK[5]       ) & 0xFF ] << 24 );
 247              		.loc 1 610 0 discriminator 3
 248 014c 043023E0 		eor	r3, r3, r4
 608:D:/Work/DeviceTester/amazon-freertos/lib/third_party/mbedtls/library\aes.c ****                 ( (uint32_t) FSb[ ( RK[5] >> 16 ) & 0xFF ] <<  8 ) ^
 249              		.loc 1 608 0 discriminator 3
 250 0150 5244E7E7 		ubfx	r4, r2, #8, #8
 251 0154 0440DCE7 		ldrb	r4, [ip, r4]	@ zero_extendqisi2
 610:D:/Work/DeviceTester/amazon-freertos/lib/third_party/mbedtls/library\aes.c ****                 ( (uint32_t) FSb[ ( RK[5]       ) & 0xFF ] << 24 );
 252              		.loc 1 610 0 discriminator 3
 253 0158 043023E0 		eor	r3, r3, r4
 254 015c 224CDCE7 		ldrb	r4, [ip, r2, lsr #24]	@ zero_extendqisi2
 255 0160 043823E0 		eor	r3, r3, r4, lsl #16
 611:D:/Work/DeviceTester/amazon-freertos/lib/third_party/mbedtls/library\aes.c **** 
 256              		.loc 1 611 0 discriminator 3
 257 0164 7240EFE6 		uxtb	r4, r2
 258 0168 0440DCE7 		ldrb	r4, [ip, r4]	@ zero_extendqisi2
 610:D:/Work/DeviceTester/amazon-freertos/lib/third_party/mbedtls/library\aes.c ****                 ( (uint32_t) FSb[ ( RK[5]       ) & 0xFF ] << 24 );
 259              		.loc 1 610 0 discriminator 3
 260 016c 043C23E0 		eor	r3, r3, r4, lsl #24
 609:D:/Work/DeviceTester/amazon-freertos/lib/third_party/mbedtls/library\aes.c ****                 ( (uint32_t) FSb[ ( RK[5] >> 24 ) & 0xFF ] << 16 ) ^
 261              		.loc 1 609 0 discriminator 3
 262 0170 5248E7E7 		ubfx	r4, r2, #16, #8
 263 0174 0440DCE7 		ldrb	r4, [ip, r4]	@ zero_extendqisi2
 610:D:/Work/DeviceTester/amazon-freertos/lib/third_party/mbedtls/library\aes.c ****                 ( (uint32_t) FSb[ ( RK[5]       ) & 0xFF ] << 24 );
 264              		.loc 1 610 0 discriminator 3
 265 0178 043423E0 		eor	r3, r3, r4, lsl #8
 613:D:/Work/DeviceTester/amazon-freertos/lib/third_party/mbedtls/library\aes.c ****                 RK[8]  = RK[2] ^ RK[7];
 266              		.loc 1 613 0 discriminator 3
 267 017c 2C4010E5 		ldr	r4, [r0, #-44]
 607:D:/Work/DeviceTester/amazon-freertos/lib/third_party/mbedtls/library\aes.c ****                 ( (uint32_t) FSb[ ( RK[5] >>  8 ) & 0xFF ]       ) ^
 268              		.loc 1 607 0 discriminator 3
 269 0180 183000E5 		str	r3, [r0, #-24]
 613:D:/Work/DeviceTester/amazon-freertos/lib/third_party/mbedtls/library\aes.c ****                 RK[8]  = RK[2] ^ RK[7];
 270              		.loc 1 613 0 discriminator 3
 271 0184 043023E0 		eor	r3, r3, r4
 614:D:/Work/DeviceTester/amazon-freertos/lib/third_party/mbedtls/library\aes.c ****                 RK[9]  = RK[3] ^ RK[8];
 272              		.loc 1 614 0 discriminator 3
 273 0188 284010E5 		ldr	r4, [r0, #-40]
 613:D:/Work/DeviceTester/amazon-freertos/lib/third_party/mbedtls/library\aes.c ****                 RK[8]  = RK[2] ^ RK[7];
 274              		.loc 1 613 0 discriminator 3
 275 018c 143000E5 		str	r3, [r0, #-20]
 614:D:/Work/DeviceTester/amazon-freertos/lib/third_party/mbedtls/library\aes.c ****                 RK[9]  = RK[3] ^ RK[8];
 276              		.loc 1 614 0 discriminator 3
 277 0190 043023E0 		eor	r3, r3, r4
 615:D:/Work/DeviceTester/amazon-freertos/lib/third_party/mbedtls/library\aes.c ****                 RK[10] = RK[4] ^ RK[9];
 278              		.loc 1 615 0 discriminator 3
 279 0194 244010E5 		ldr	r4, [r0, #-36]
 614:D:/Work/DeviceTester/amazon-freertos/lib/third_party/mbedtls/library\aes.c ****                 RK[9]  = RK[3] ^ RK[8];
 280              		.loc 1 614 0 discriminator 3
 281 0198 103000E5 		str	r3, [r0, #-16]
 615:D:/Work/DeviceTester/amazon-freertos/lib/third_party/mbedtls/library\aes.c ****                 RK[10] = RK[4] ^ RK[9];
 282              		.loc 1 615 0 discriminator 3
 283 019c 043023E0 		eor	r3, r3, r4
 616:D:/Work/DeviceTester/amazon-freertos/lib/third_party/mbedtls/library\aes.c ****                 RK[11] = RK[5] ^ RK[10];
 284              		.loc 1 616 0 discriminator 3
 285 01a0 204010E5 		ldr	r4, [r0, #-32]
 615:D:/Work/DeviceTester/amazon-freertos/lib/third_party/mbedtls/library\aes.c ****                 RK[10] = RK[4] ^ RK[9];
 286              		.loc 1 615 0 discriminator 3
 287 01a4 0C3000E5 		str	r3, [r0, #-12]
 616:D:/Work/DeviceTester/amazon-freertos/lib/third_party/mbedtls/library\aes.c ****                 RK[11] = RK[5] ^ RK[10];
 288              		.loc 1 616 0 discriminator 3
 289 01a8 043023E0 		eor	r3, r3, r4
 290 01ac 083000E5 		str	r3, [r0, #-8]
 617:D:/Work/DeviceTester/amazon-freertos/lib/third_party/mbedtls/library\aes.c ****             }
 291              		.loc 1 617 0 discriminator 3
 292 01b0 023023E0 		eor	r3, r3, r2
 293 01b4 043000E5 		str	r3, [r0, #-4]
 605:D:/Work/DeviceTester/amazon-freertos/lib/third_party/mbedtls/library\aes.c ****             {
 294              		.loc 1 605 0 discriminator 3
 295 01b8 DDFFFF1A 		bne	.L16
 296 01bc C9FFFFEA 		b	.L25
 297              	.LVL26:
 298              	.L13:
 625:D:/Work/DeviceTester/amazon-freertos/lib/third_party/mbedtls/library\aes.c ****                 ( (uint32_t) FSb[ ( RK[7] >>  8 ) & 0xFF ]       ) ^
 299              		.loc 1 625 0
 300 01c0 D4E09FE5 		ldr	lr, .L30
 301              	.LVL27:
 302 01c4 280080E2 		add	r0, r0, #40
 303              	.LVL28:
 626:D:/Work/DeviceTester/amazon-freertos/lib/third_party/mbedtls/library\aes.c ****                 ( (uint32_t) FSb[ ( RK[7] >> 16 ) & 0xFF ] <<  8 ) ^
 304              		.loc 1 626 0
 305 01c8 D0209FE5 		ldr	r2, .L30+4
 585:D:/Work/DeviceTester/amazon-freertos/lib/third_party/mbedtls/library\aes.c ****     {
 306              		.loc 1 585 0
 307 01cc 00C0A0E3 		mov	ip, #0
 308              	.LVL29:
 309              	.L18:
 626:D:/Work/DeviceTester/amazon-freertos/lib/third_party/mbedtls/library\aes.c ****                 ( (uint32_t) FSb[ ( RK[7] >> 16 ) & 0xFF ] <<  8 ) ^
 310              		.loc 1 626 0 discriminator 3
 311 01d0 041010E5 		ldr	r1, [r0, #-4]
 312 01d4 200080E2 		add	r0, r0, #32
 313              	.LVL30:
 628:D:/Work/DeviceTester/amazon-freertos/lib/third_party/mbedtls/library\aes.c ****                 ( (uint32_t) FSb[ ( RK[7]       ) & 0xFF ] << 24 );
 314              		.loc 1 628 0 discriminator 3
 315 01d8 404010E5 		ldr	r4, [r0, #-64]
 316 01dc 0C319EE7 		ldr	r3, [lr, ip, lsl #2]
 623:D:/Work/DeviceTester/amazon-freertos/lib/third_party/mbedtls/library\aes.c ****             {
 317              		.loc 1 623 0 discriminator 3
 318 01e0 01C08CE2 		add	ip, ip, #1
 319              	.LVL31:
 638:D:/Work/DeviceTester/amazon-freertos/lib/third_party/mbedtls/library\aes.c ****                 ( (uint32_t) FSb[ ( RK[11] >> 24 ) & 0xFF ] << 24 );
 320              		.loc 1 638 0 discriminator 3
 321 01e4 305010E5 		ldr	r5, [r0, #-48]
 623:D:/Work/DeviceTester/amazon-freertos/lib/third_party/mbedtls/library\aes.c ****             {
 322              		.loc 1 623 0 discriminator 3
 323 01e8 07005CE3 		cmp	ip, #7
 628:D:/Work/DeviceTester/amazon-freertos/lib/third_party/mbedtls/library\aes.c ****                 ( (uint32_t) FSb[ ( RK[7]       ) & 0xFF ] << 24 );
 324              		.loc 1 628 0 discriminator 3
 325 01ec 043023E0 		eor	r3, r3, r4
 626:D:/Work/DeviceTester/amazon-freertos/lib/third_party/mbedtls/library\aes.c ****                 ( (uint32_t) FSb[ ( RK[7] >> 16 ) & 0xFF ] <<  8 ) ^
 326              		.loc 1 626 0 discriminator 3
 327 01f0 5144E7E7 		ubfx	r4, r1, #8, #8
 328 01f4 0440D2E7 		ldrb	r4, [r2, r4]	@ zero_extendqisi2
 628:D:/Work/DeviceTester/amazon-freertos/lib/third_party/mbedtls/library\aes.c ****                 ( (uint32_t) FSb[ ( RK[7]       ) & 0xFF ] << 24 );
 329              		.loc 1 628 0 discriminator 3
 330 01f8 043023E0 		eor	r3, r3, r4
 331 01fc 214CD2E7 		ldrb	r4, [r2, r1, lsr #24]	@ zero_extendqisi2
 332 0200 043823E0 		eor	r3, r3, r4, lsl #16
 629:D:/Work/DeviceTester/amazon-freertos/lib/third_party/mbedtls/library\aes.c **** 
 333              		.loc 1 629 0 discriminator 3
 334 0204 7140EFE6 		uxtb	r4, r1
 335 0208 0440D2E7 		ldrb	r4, [r2, r4]	@ zero_extendqisi2
 628:D:/Work/DeviceTester/amazon-freertos/lib/third_party/mbedtls/library\aes.c ****                 ( (uint32_t) FSb[ ( RK[7]       ) & 0xFF ] << 24 );
 336              		.loc 1 628 0 discriminator 3
 337 020c 043C23E0 		eor	r3, r3, r4, lsl #24
 627:D:/Work/DeviceTester/amazon-freertos/lib/third_party/mbedtls/library\aes.c ****                 ( (uint32_t) FSb[ ( RK[7] >> 24 ) & 0xFF ] << 16 ) ^
 338              		.loc 1 627 0 discriminator 3
 339 0210 5148E7E7 		ubfx	r4, r1, #16, #8
 340 0214 0440D2E7 		ldrb	r4, [r2, r4]	@ zero_extendqisi2
 628:D:/Work/DeviceTester/amazon-freertos/lib/third_party/mbedtls/library\aes.c ****                 ( (uint32_t) FSb[ ( RK[7]       ) & 0xFF ] << 24 );
 341              		.loc 1 628 0 discriminator 3
 342 0218 043423E0 		eor	r3, r3, r4, lsl #8
 631:D:/Work/DeviceTester/amazon-freertos/lib/third_party/mbedtls/library\aes.c ****                 RK[10] = RK[2] ^ RK[9];
 343              		.loc 1 631 0 discriminator 3
 344 021c 3C4010E5 		ldr	r4, [r0, #-60]
 625:D:/Work/DeviceTester/amazon-freertos/lib/third_party/mbedtls/library\aes.c ****                 ( (uint32_t) FSb[ ( RK[7] >>  8 ) & 0xFF ]       ) ^
 345              		.loc 1 625 0 discriminator 3
 346 0220 203000E5 		str	r3, [r0, #-32]
 631:D:/Work/DeviceTester/amazon-freertos/lib/third_party/mbedtls/library\aes.c ****                 RK[10] = RK[2] ^ RK[9];
 347              		.loc 1 631 0 discriminator 3
 348 0224 043023E0 		eor	r3, r3, r4
 632:D:/Work/DeviceTester/amazon-freertos/lib/third_party/mbedtls/library\aes.c ****                 RK[11] = RK[3] ^ RK[10];
 349              		.loc 1 632 0 discriminator 3
 350 0228 384010E5 		ldr	r4, [r0, #-56]
 631:D:/Work/DeviceTester/amazon-freertos/lib/third_party/mbedtls/library\aes.c ****                 RK[10] = RK[2] ^ RK[9];
 351              		.loc 1 631 0 discriminator 3
 352 022c 1C3000E5 		str	r3, [r0, #-28]
 632:D:/Work/DeviceTester/amazon-freertos/lib/third_party/mbedtls/library\aes.c ****                 RK[11] = RK[3] ^ RK[10];
 353              		.loc 1 632 0 discriminator 3
 354 0230 043023E0 		eor	r3, r3, r4
 633:D:/Work/DeviceTester/amazon-freertos/lib/third_party/mbedtls/library\aes.c **** 
 355              		.loc 1 633 0 discriminator 3
 356 0234 344010E5 		ldr	r4, [r0, #-52]
 632:D:/Work/DeviceTester/amazon-freertos/lib/third_party/mbedtls/library\aes.c ****                 RK[11] = RK[3] ^ RK[10];
 357              		.loc 1 632 0 discriminator 3
 358 0238 183000E5 		str	r3, [r0, #-24]
 633:D:/Work/DeviceTester/amazon-freertos/lib/third_party/mbedtls/library\aes.c **** 
 359              		.loc 1 633 0 discriminator 3
 360 023c 043023E0 		eor	r3, r3, r4
 636:D:/Work/DeviceTester/amazon-freertos/lib/third_party/mbedtls/library\aes.c ****                 ( (uint32_t) FSb[ ( RK[11] >>  8 ) & 0xFF ] <<  8 ) ^
 361              		.loc 1 636 0 discriminator 3
 362 0240 7340EFE6 		uxtb	r4, r3
 633:D:/Work/DeviceTester/amazon-freertos/lib/third_party/mbedtls/library\aes.c **** 
 363              		.loc 1 633 0 discriminator 3
 364 0244 143000E5 		str	r3, [r0, #-20]
 636:D:/Work/DeviceTester/amazon-freertos/lib/third_party/mbedtls/library\aes.c ****                 ( (uint32_t) FSb[ ( RK[11] >>  8 ) & 0xFF ] <<  8 ) ^
 365              		.loc 1 636 0 discriminator 3
 366 0248 0440D2E7 		ldrb	r4, [r2, r4]	@ zero_extendqisi2
 638:D:/Work/DeviceTester/amazon-freertos/lib/third_party/mbedtls/library\aes.c ****                 ( (uint32_t) FSb[ ( RK[11] >> 24 ) & 0xFF ] << 24 );
 367              		.loc 1 638 0 discriminator 3
 368 024c 054024E0 		eor	r4, r4, r5
 639:D:/Work/DeviceTester/amazon-freertos/lib/third_party/mbedtls/library\aes.c **** 
 369              		.loc 1 639 0 discriminator 3
 370 0250 235CD2E7 		ldrb	r5, [r2, r3, lsr #24]	@ zero_extendqisi2
 638:D:/Work/DeviceTester/amazon-freertos/lib/third_party/mbedtls/library\aes.c ****                 ( (uint32_t) FSb[ ( RK[11] >> 24 ) & 0xFF ] << 24 );
 371              		.loc 1 638 0 discriminator 3
 372 0254 054C24E0 		eor	r4, r4, r5, lsl #24
 637:D:/Work/DeviceTester/amazon-freertos/lib/third_party/mbedtls/library\aes.c ****                 ( (uint32_t) FSb[ ( RK[11] >> 16 ) & 0xFF ] << 16 ) ^
 373              		.loc 1 637 0 discriminator 3
 374 0258 5354E7E7 		ubfx	r5, r3, #8, #8
 375 025c 0550D2E7 		ldrb	r5, [r2, r5]	@ zero_extendqisi2
 638:D:/Work/DeviceTester/amazon-freertos/lib/third_party/mbedtls/library\aes.c ****                 ( (uint32_t) FSb[ ( RK[11] >> 24 ) & 0xFF ] << 24 );
 376              		.loc 1 638 0 discriminator 3
 377 0260 5338E7E7 		ubfx	r3, r3, #16, #8
 378 0264 0330D2E7 		ldrb	r3, [r2, r3]	@ zero_extendqisi2
 379 0268 054424E0 		eor	r4, r4, r5, lsl #8
 380 026c 033824E0 		eor	r3, r4, r3, lsl #16
 641:D:/Work/DeviceTester/amazon-freertos/lib/third_party/mbedtls/library\aes.c ****                 RK[14] = RK[6] ^ RK[13];
 381              		.loc 1 641 0 discriminator 3
 382 0270 2C4010E5 		ldr	r4, [r0, #-44]
 635:D:/Work/DeviceTester/amazon-freertos/lib/third_party/mbedtls/library\aes.c ****                 ( (uint32_t) FSb[ ( RK[11]       ) & 0xFF ]       ) ^
 383              		.loc 1 635 0 discriminator 3
 384 0274 103000E5 		str	r3, [r0, #-16]
 641:D:/Work/DeviceTester/amazon-freertos/lib/third_party/mbedtls/library\aes.c ****                 RK[14] = RK[6] ^ RK[13];
 385              		.loc 1 641 0 discriminator 3
 386 0278 043023E0 		eor	r3, r3, r4
 642:D:/Work/DeviceTester/amazon-freertos/lib/third_party/mbedtls/library\aes.c ****                 RK[15] = RK[7] ^ RK[14];
 387              		.loc 1 642 0 discriminator 3
 388 027c 284010E5 		ldr	r4, [r0, #-40]
 641:D:/Work/DeviceTester/amazon-freertos/lib/third_party/mbedtls/library\aes.c ****                 RK[14] = RK[6] ^ RK[13];
 389              		.loc 1 641 0 discriminator 3
 390 0280 0C3000E5 		str	r3, [r0, #-12]
 642:D:/Work/DeviceTester/amazon-freertos/lib/third_party/mbedtls/library\aes.c ****                 RK[15] = RK[7] ^ RK[14];
 391              		.loc 1 642 0 discriminator 3
 392 0284 043023E0 		eor	r3, r3, r4
 643:D:/Work/DeviceTester/amazon-freertos/lib/third_party/mbedtls/library\aes.c ****             }
 393              		.loc 1 643 0 discriminator 3
 394 0288 031021E0 		eor	r1, r1, r3
 642:D:/Work/DeviceTester/amazon-freertos/lib/third_party/mbedtls/library\aes.c ****                 RK[15] = RK[7] ^ RK[14];
 395              		.loc 1 642 0 discriminator 3
 396 028c 083000E5 		str	r3, [r0, #-8]
 643:D:/Work/DeviceTester/amazon-freertos/lib/third_party/mbedtls/library\aes.c ****             }
 397              		.loc 1 643 0 discriminator 3
 398 0290 041000E5 		str	r1, [r0, #-4]
 623:D:/Work/DeviceTester/amazon-freertos/lib/third_party/mbedtls/library\aes.c ****             {
 399              		.loc 1 623 0 discriminator 3
 400 0294 CDFFFF1A 		bne	.L18
 401 0298 92FFFFEA 		b	.L25
 402              	.L31:
 403              		.align	2
 404              	.L30:
 405 029c 00000000 		.word	.LANCHOR0
 406 02a0 00000000 		.word	.LANCHOR1
 407              		.cfi_endproc
 408              	.LFE3:
 410              		.section	.text.mbedtls_aes_setkey_dec,"ax",%progbits
 411              		.align	2
 412              		.global	mbedtls_aes_setkey_dec
 413              		.syntax unified
 414              		.arm
 415              		.fpu neon
 417              	mbedtls_aes_setkey_dec:
 418              	.LFB4:
 650:D:/Work/DeviceTester/amazon-freertos/lib/third_party/mbedtls/library\aes.c **** #endif /* !MBEDTLS_AES_SETKEY_ENC_ALT */
 651:D:/Work/DeviceTester/amazon-freertos/lib/third_party/mbedtls/library\aes.c **** 
 652:D:/Work/DeviceTester/amazon-freertos/lib/third_party/mbedtls/library\aes.c **** /*
 653:D:/Work/DeviceTester/amazon-freertos/lib/third_party/mbedtls/library\aes.c ****  * AES key schedule (decryption)
 654:D:/Work/DeviceTester/amazon-freertos/lib/third_party/mbedtls/library\aes.c ****  */
 655:D:/Work/DeviceTester/amazon-freertos/lib/third_party/mbedtls/library\aes.c **** #if !defined(MBEDTLS_AES_SETKEY_DEC_ALT)
 656:D:/Work/DeviceTester/amazon-freertos/lib/third_party/mbedtls/library\aes.c **** int mbedtls_aes_setkey_dec( mbedtls_aes_context *ctx, const unsigned char *key,
 657:D:/Work/DeviceTester/amazon-freertos/lib/third_party/mbedtls/library\aes.c ****                     unsigned int keybits )
 658:D:/Work/DeviceTester/amazon-freertos/lib/third_party/mbedtls/library\aes.c **** {
 419              		.loc 1 658 0
 420              		.cfi_startproc
 421              		@ args = 0, pretend = 0, frame = 288
 422              		@ frame_needed = 0, uses_anonymous_args = 0
 423              	.LVL32:
 424 0000 F04F2DE9 		push	{r4, r5, r6, r7, r8, r9, r10, fp, lr}
 425              		.cfi_def_cfa_offset 36
 426              		.cfi_offset 4, -36
 427              		.cfi_offset 5, -32
 428              		.cfi_offset 6, -28
 429              		.cfi_offset 7, -24
 430              		.cfi_offset 8, -20
 431              		.cfi_offset 9, -16
 432              		.cfi_offset 10, -12
 433              		.cfi_offset 11, -8
 434              		.cfi_offset 14, -4
 435 0004 49DF4DE2 		sub	sp, sp, #292
 436              		.cfi_def_cfa_offset 328
 437              		.loc 1 658 0
 438 0008 0040A0E1 		mov	r4, r0
 659:D:/Work/DeviceTester/amazon-freertos/lib/third_party/mbedtls/library\aes.c ****     int i, j, ret;
 660:D:/Work/DeviceTester/amazon-freertos/lib/third_party/mbedtls/library\aes.c ****     mbedtls_aes_context cty;
 661:D:/Work/DeviceTester/amazon-freertos/lib/third_party/mbedtls/library\aes.c ****     uint32_t *RK;
 662:D:/Work/DeviceTester/amazon-freertos/lib/third_party/mbedtls/library\aes.c ****     uint32_t *SK;
 663:D:/Work/DeviceTester/amazon-freertos/lib/third_party/mbedtls/library\aes.c **** 
 664:D:/Work/DeviceTester/amazon-freertos/lib/third_party/mbedtls/library\aes.c ****     mbedtls_aes_init( &cty );
 439              		.loc 1 664 0
 440 000c 08008DE2 		add	r0, sp, #8
 441              	.LVL33:
 658:D:/Work/DeviceTester/amazon-freertos/lib/third_party/mbedtls/library\aes.c ****     int i, j, ret;
 442              		.loc 1 658 0
 443 0010 0150A0E1 		mov	r5, r1
 444 0014 0260A0E1 		mov	r6, r2
 445              		.loc 1 664 0
 446 0018 FEFFFFEB 		bl	mbedtls_aes_init
 447              	.LVL34:
 665:D:/Work/DeviceTester/amazon-freertos/lib/third_party/mbedtls/library\aes.c **** 
 666:D:/Work/DeviceTester/amazon-freertos/lib/third_party/mbedtls/library\aes.c **** #if defined(MBEDTLS_PADLOCK_C) && defined(MBEDTLS_PADLOCK_ALIGN16)
 667:D:/Work/DeviceTester/amazon-freertos/lib/third_party/mbedtls/library\aes.c ****     if( aes_padlock_ace == -1 )
 668:D:/Work/DeviceTester/amazon-freertos/lib/third_party/mbedtls/library\aes.c ****         aes_padlock_ace = mbedtls_padlock_has_support( MBEDTLS_PADLOCK_ACE );
 669:D:/Work/DeviceTester/amazon-freertos/lib/third_party/mbedtls/library\aes.c **** 
 670:D:/Work/DeviceTester/amazon-freertos/lib/third_party/mbedtls/library\aes.c ****     if( aes_padlock_ace )
 671:D:/Work/DeviceTester/amazon-freertos/lib/third_party/mbedtls/library\aes.c ****         ctx->rk = RK = MBEDTLS_PADLOCK_ALIGN16( ctx->buf );
 672:D:/Work/DeviceTester/amazon-freertos/lib/third_party/mbedtls/library\aes.c ****     else
 673:D:/Work/DeviceTester/amazon-freertos/lib/third_party/mbedtls/library\aes.c **** #endif
 674:D:/Work/DeviceTester/amazon-freertos/lib/third_party/mbedtls/library\aes.c ****     ctx->rk = RK = ctx->buf;
 448              		.loc 1 674 0
 449 001c 083084E2 		add	r3, r4, #8
 450              	.LVL35:
 675:D:/Work/DeviceTester/amazon-freertos/lib/third_party/mbedtls/library\aes.c **** 
 676:D:/Work/DeviceTester/amazon-freertos/lib/third_party/mbedtls/library\aes.c ****     /* Also checks keybits */
 677:D:/Work/DeviceTester/amazon-freertos/lib/third_party/mbedtls/library\aes.c ****     if( ( ret = mbedtls_aes_setkey_enc( &cty, key, keybits ) ) != 0 )
 451              		.loc 1 677 0
 452 0020 0620A0E1 		mov	r2, r6
 674:D:/Work/DeviceTester/amazon-freertos/lib/third_party/mbedtls/library\aes.c **** 
 453              		.loc 1 674 0
 454 0024 043084E5 		str	r3, [r4, #4]
 455              		.loc 1 677 0
 456 0028 0510A0E1 		mov	r1, r5
 457 002c 08008DE2 		add	r0, sp, #8
 458 0030 FEFFFFEB 		bl	mbedtls_aes_setkey_enc
 459              	.LVL36:
 460 0034 007050E2 		subs	r7, r0, #0
 461 0038 3800001A 		bne	.L33
 678:D:/Work/DeviceTester/amazon-freertos/lib/third_party/mbedtls/library\aes.c ****         goto exit;
 679:D:/Work/DeviceTester/amazon-freertos/lib/third_party/mbedtls/library\aes.c **** 
 680:D:/Work/DeviceTester/amazon-freertos/lib/third_party/mbedtls/library\aes.c ****     ctx->nr = cty.nr;
 462              		.loc 1 680 0
 463 003c 08209DE5 		ldr	r2, [sp, #8]
 681:D:/Work/DeviceTester/amazon-freertos/lib/third_party/mbedtls/library\aes.c **** 
 682:D:/Work/DeviceTester/amazon-freertos/lib/third_party/mbedtls/library\aes.c **** #if defined(MBEDTLS_AESNI_C) && defined(MBEDTLS_HAVE_X86_64)
 683:D:/Work/DeviceTester/amazon-freertos/lib/third_party/mbedtls/library\aes.c ****     if( mbedtls_aesni_has_support( MBEDTLS_AESNI_AES ) )
 684:D:/Work/DeviceTester/amazon-freertos/lib/third_party/mbedtls/library\aes.c ****     {
 685:D:/Work/DeviceTester/amazon-freertos/lib/third_party/mbedtls/library\aes.c ****         mbedtls_aesni_inverse_key( (unsigned char *) ctx->rk,
 686:D:/Work/DeviceTester/amazon-freertos/lib/third_party/mbedtls/library\aes.c ****                            (const unsigned char *) cty.rk, ctx->nr );
 687:D:/Work/DeviceTester/amazon-freertos/lib/third_party/mbedtls/library\aes.c ****         goto exit;
 688:D:/Work/DeviceTester/amazon-freertos/lib/third_party/mbedtls/library\aes.c ****     }
 689:D:/Work/DeviceTester/amazon-freertos/lib/third_party/mbedtls/library\aes.c **** #endif
 690:D:/Work/DeviceTester/amazon-freertos/lib/third_party/mbedtls/library\aes.c **** 
 691:D:/Work/DeviceTester/amazon-freertos/lib/third_party/mbedtls/library\aes.c ****     SK = cty.rk + cty.nr * 4;
 464              		.loc 1 691 0
 465 0040 0C109DE5 		ldr	r1, [sp, #12]
 692:D:/Work/DeviceTester/amazon-freertos/lib/third_party/mbedtls/library\aes.c **** 
 693:D:/Work/DeviceTester/amazon-freertos/lib/third_party/mbedtls/library\aes.c ****     *RK++ = *SK++;
 694:D:/Work/DeviceTester/amazon-freertos/lib/third_party/mbedtls/library\aes.c ****     *RK++ = *SK++;
 695:D:/Work/DeviceTester/amazon-freertos/lib/third_party/mbedtls/library\aes.c ****     *RK++ = *SK++;
 696:D:/Work/DeviceTester/amazon-freertos/lib/third_party/mbedtls/library\aes.c ****     *RK++ = *SK++;
 697:D:/Work/DeviceTester/amazon-freertos/lib/third_party/mbedtls/library\aes.c **** 
 698:D:/Work/DeviceTester/amazon-freertos/lib/third_party/mbedtls/library\aes.c ****     for( i = ctx->nr - 1, SK -= 8; i > 0; i--, SK -= 8 )
 699:D:/Work/DeviceTester/amazon-freertos/lib/third_party/mbedtls/library\aes.c ****     {
 700:D:/Work/DeviceTester/amazon-freertos/lib/third_party/mbedtls/library\aes.c ****         for( j = 0; j < 4; j++, SK++ )
 701:D:/Work/DeviceTester/amazon-freertos/lib/third_party/mbedtls/library\aes.c ****         {
 702:D:/Work/DeviceTester/amazon-freertos/lib/third_party/mbedtls/library\aes.c ****             *RK++ = AES_RT0( FSb[ ( *SK       ) & 0xFF ] ) ^
 466              		.loc 1 702 0
 467 0044 E8809FE5 		ldr	r8, .L39
 468 0048 E8E09FE5 		ldr	lr, .L39+4
 703:D:/Work/DeviceTester/amazon-freertos/lib/third_party/mbedtls/library\aes.c ****                     AES_RT1( FSb[ ( *SK >>  8 ) & 0xFF ] ) ^
 704:D:/Work/DeviceTester/amazon-freertos/lib/third_party/mbedtls/library\aes.c ****                     AES_RT2( FSb[ ( *SK >> 16 ) & 0xFF ] ) ^
 705:D:/Work/DeviceTester/amazon-freertos/lib/third_party/mbedtls/library\aes.c ****                     AES_RT3( FSb[ ( *SK >> 24 ) & 0xFF ] );
 469              		.loc 1 705 0
 470 004c E8909FE5 		ldr	r9, .L39+8
 691:D:/Work/DeviceTester/amazon-freertos/lib/third_party/mbedtls/library\aes.c **** 
 471              		.loc 1 691 0
 472 0050 023281E0 		add	r3, r1, r2, lsl #4
 473              	.LVL37:
 693:D:/Work/DeviceTester/amazon-freertos/lib/third_party/mbedtls/library\aes.c ****     *RK++ = *SK++;
 474              		.loc 1 693 0
 475 0054 021291E7 		ldr	r1, [r1, r2, lsl #4]
 703:D:/Work/DeviceTester/amazon-freertos/lib/third_party/mbedtls/library\aes.c ****                     AES_RT1( FSb[ ( *SK >>  8 ) & 0xFF ] ) ^
 476              		.loc 1 703 0
 477 0058 E0A09FE5 		ldr	r10, .L39+12
 704:D:/Work/DeviceTester/amazon-freertos/lib/third_party/mbedtls/library\aes.c ****                     AES_RT3( FSb[ ( *SK >> 24 ) & 0xFF ] );
 478              		.loc 1 704 0
 479 005c E0B09FE5 		ldr	fp, .L39+16
 698:D:/Work/DeviceTester/amazon-freertos/lib/third_party/mbedtls/library\aes.c ****     {
 480              		.loc 1 698 0
 481 0060 103043E2 		sub	r3, r3, #16
 482              	.LVL38:
 693:D:/Work/DeviceTester/amazon-freertos/lib/third_party/mbedtls/library\aes.c ****     *RK++ = *SK++;
 483              		.loc 1 693 0
 484 0064 081084E5 		str	r1, [r4, #8]
 485              	.LVL39:
 694:D:/Work/DeviceTester/amazon-freertos/lib/third_party/mbedtls/library\aes.c ****     *RK++ = *SK++;
 486              		.loc 1 694 0
 487 0068 141093E5 		ldr	r1, [r3, #20]
 680:D:/Work/DeviceTester/amazon-freertos/lib/third_party/mbedtls/library\aes.c **** 
 488              		.loc 1 680 0
 489 006c 002084E5 		str	r2, [r4]
 698:D:/Work/DeviceTester/amazon-freertos/lib/third_party/mbedtls/library\aes.c ****     {
 490              		.loc 1 698 0
 491 0070 012042E2 		sub	r2, r2, #1
 694:D:/Work/DeviceTester/amazon-freertos/lib/third_party/mbedtls/library\aes.c ****     *RK++ = *SK++;
 492              		.loc 1 694 0
 493 0074 0C1084E5 		str	r1, [r4, #12]
 494              	.LVL40:
 695:D:/Work/DeviceTester/amazon-freertos/lib/third_party/mbedtls/library\aes.c ****     *RK++ = *SK++;
 495              		.loc 1 695 0
 496 0078 181093E5 		ldr	r1, [r3, #24]
 497 007c 101084E5 		str	r1, [r4, #16]
 696:D:/Work/DeviceTester/amazon-freertos/lib/third_party/mbedtls/library\aes.c **** 
 498              		.loc 1 696 0
 499 0080 181084E2 		add	r1, r4, #24
 500              	.LVL41:
 501 0084 1C0093E5 		ldr	r0, [r3, #28]
 502              	.LVL42:
 503 0088 140084E5 		str	r0, [r4, #20]
 504              	.LVL43:
 505              	.L34:
 698:D:/Work/DeviceTester/amazon-freertos/lib/third_party/mbedtls/library\aes.c ****     {
 506              		.loc 1 698 0 discriminator 1
 507 008c 000052E3 		cmp	r2, #0
 508 0090 1A0000DA 		ble	.L36
 509 0094 044043E2 		sub	r4, r3, #4
 510 0098 046041E2 		sub	r6, r1, #4
 511 009c 0C0083E2 		add	r0, r3, #12
 512 00a0 04008DE5 		str	r0, [sp, #4]
 513              	.LVL44:
 514              	.L35:
 702:D:/Work/DeviceTester/amazon-freertos/lib/third_party/mbedtls/library\aes.c ****                     AES_RT1( FSb[ ( *SK >>  8 ) & 0xFF ] ) ^
 515              		.loc 1 702 0 discriminator 3
 516 00a4 0400B4E5 		ldr	r0, [r4, #4]!
 517              	.LVL45:
 518 00a8 70C0EFE6 		uxtb	ip, r0
 519 00ac 0C50DEE7 		ldrb	r5, [lr, ip]	@ zero_extendqisi2
 520              		.loc 1 705 0 discriminator 3
 521 00b0 20CCDEE7 		ldrb	ip, [lr, r0, lsr #24]	@ zero_extendqisi2
 704:D:/Work/DeviceTester/amazon-freertos/lib/third_party/mbedtls/library\aes.c ****                     AES_RT3( FSb[ ( *SK >> 24 ) & 0xFF ] );
 522              		.loc 1 704 0 discriminator 3
 523 00b4 055198E7 		ldr	r5, [r8, r5, lsl #2]
 524 00b8 0CC199E7 		ldr	ip, [r9, ip, lsl #2]
 525 00bc 0C5025E0 		eor	r5, r5, ip
 703:D:/Work/DeviceTester/amazon-freertos/lib/third_party/mbedtls/library\aes.c ****                     AES_RT2( FSb[ ( *SK >> 16 ) & 0xFF ] ) ^
 526              		.loc 1 703 0 discriminator 3
 527 00c0 50C4E7E7 		ubfx	ip, r0, #8, #8
 528 00c4 0CC0DEE7 		ldrb	ip, [lr, ip]	@ zero_extendqisi2
 704:D:/Work/DeviceTester/amazon-freertos/lib/third_party/mbedtls/library\aes.c ****                     AES_RT3( FSb[ ( *SK >> 24 ) & 0xFF ] );
 529              		.loc 1 704 0 discriminator 3
 530 00c8 5008E7E7 		ubfx	r0, r0, #16, #8
 531 00cc 0000DEE7 		ldrb	r0, [lr, r0]	@ zero_extendqisi2
 532 00d0 0CC19AE7 		ldr	ip, [r10, ip, lsl #2]
 533 00d4 05C02CE0 		eor	ip, ip, r5
 534 00d8 00519BE7 		ldr	r5, [fp, r0, lsl #2]
 700:D:/Work/DeviceTester/amazon-freertos/lib/third_party/mbedtls/library\aes.c ****         {
 535              		.loc 1 700 0 discriminator 3
 536 00dc 04009DE5 		ldr	r0, [sp, #4]
 704:D:/Work/DeviceTester/amazon-freertos/lib/third_party/mbedtls/library\aes.c ****                     AES_RT3( FSb[ ( *SK >> 24 ) & 0xFF ] );
 537              		.loc 1 704 0 discriminator 3
 538 00e0 05C02CE0 		eor	ip, ip, r5
 700:D:/Work/DeviceTester/amazon-freertos/lib/third_party/mbedtls/library\aes.c ****         {
 539              		.loc 1 700 0 discriminator 3
 540 00e4 040050E1 		cmp	r0, r4
 702:D:/Work/DeviceTester/amazon-freertos/lib/third_party/mbedtls/library\aes.c ****                     AES_RT1( FSb[ ( *SK >>  8 ) & 0xFF ] ) ^
 541              		.loc 1 702 0 discriminator 3
 542 00e8 04C0A6E5 		str	ip, [r6, #4]!
 543              	.LVL46:
 700:D:/Work/DeviceTester/amazon-freertos/lib/third_party/mbedtls/library\aes.c ****         {
 544              		.loc 1 700 0 discriminator 3
 545 00ec ECFFFF1A 		bne	.L35
 546 00f0 101081E2 		add	r1, r1, #16
 698:D:/Work/DeviceTester/amazon-freertos/lib/third_party/mbedtls/library\aes.c ****     {
 547              		.loc 1 698 0 discriminator 2
 548 00f4 012042E2 		sub	r2, r2, #1
 549              	.LVL47:
 550 00f8 103043E2 		sub	r3, r3, #16
 551              	.LVL48:
 552 00fc E2FFFFEA 		b	.L34
 553              	.LVL49:
 554              	.L36:
 706:D:/Work/DeviceTester/amazon-freertos/lib/third_party/mbedtls/library\aes.c ****         }
 707:D:/Work/DeviceTester/amazon-freertos/lib/third_party/mbedtls/library\aes.c ****     }
 708:D:/Work/DeviceTester/amazon-freertos/lib/third_party/mbedtls/library\aes.c **** 
 709:D:/Work/DeviceTester/amazon-freertos/lib/third_party/mbedtls/library\aes.c ****     *RK++ = *SK++;
 555              		.loc 1 709 0
 556 0100 002093E5 		ldr	r2, [r3]
 557              	.LVL50:
 558 0104 002081E5 		str	r2, [r1]
 559              	.LVL51:
 710:D:/Work/DeviceTester/amazon-freertos/lib/third_party/mbedtls/library\aes.c ****     *RK++ = *SK++;
 560              		.loc 1 710 0
 561 0108 042093E5 		ldr	r2, [r3, #4]
 562 010c 042081E5 		str	r2, [r1, #4]
 563              	.LVL52:
 711:D:/Work/DeviceTester/amazon-freertos/lib/third_party/mbedtls/library\aes.c ****     *RK++ = *SK++;
 564              		.loc 1 711 0
 565 0110 082093E5 		ldr	r2, [r3, #8]
 566 0114 082081E5 		str	r2, [r1, #8]
 567              	.LVL53:
 712:D:/Work/DeviceTester/amazon-freertos/lib/third_party/mbedtls/library\aes.c ****     *RK++ = *SK++;
 568              		.loc 1 712 0
 569 0118 0C3093E5 		ldr	r3, [r3, #12]
 570              	.LVL54:
 571 011c 0C3081E5 		str	r3, [r1, #12]
 572              	.LVL55:
 573              	.L33:
 713:D:/Work/DeviceTester/amazon-freertos/lib/third_party/mbedtls/library\aes.c **** 
 714:D:/Work/DeviceTester/amazon-freertos/lib/third_party/mbedtls/library\aes.c **** exit:
 715:D:/Work/DeviceTester/amazon-freertos/lib/third_party/mbedtls/library\aes.c ****     mbedtls_aes_free( &cty );
 574              		.loc 1 715 0
 575 0120 08008DE2 		add	r0, sp, #8
 576 0124 FEFFFFEB 		bl	mbedtls_aes_free
 577              	.LVL56:
 716:D:/Work/DeviceTester/amazon-freertos/lib/third_party/mbedtls/library\aes.c **** 
 717:D:/Work/DeviceTester/amazon-freertos/lib/third_party/mbedtls/library\aes.c ****     return( ret );
 718:D:/Work/DeviceTester/amazon-freertos/lib/third_party/mbedtls/library\aes.c **** }
 578              		.loc 1 718 0
 579 0128 0700A0E1 		mov	r0, r7
 580 012c 49DF8DE2 		add	sp, sp, #292
 581              		.cfi_def_cfa_offset 36
 582              		@ sp needed
 583 0130 F08FBDE8 		pop	{r4, r5, r6, r7, r8, r9, r10, fp, pc}
 584              	.LVL57:
 585              	.L40:
 586              		.align	2
 587              	.L39:
 588 0134 00000000 		.word	.LANCHOR2
 589 0138 00000000 		.word	.LANCHOR1
 590 013c 00000000 		.word	.LANCHOR3
 591 0140 00000000 		.word	.LANCHOR4
 592 0144 00000000 		.word	.LANCHOR5
 593              		.cfi_endproc
 594              	.LFE4:
 596              		.section	.text.mbedtls_internal_aes_encrypt,"ax",%progbits
 597              		.align	2
 598              		.global	mbedtls_internal_aes_encrypt
 599              		.syntax unified
 600              		.arm
 601              		.fpu neon
 603              	mbedtls_internal_aes_encrypt:
 604              	.LFB5:
 719:D:/Work/DeviceTester/amazon-freertos/lib/third_party/mbedtls/library\aes.c **** 
 720:D:/Work/DeviceTester/amazon-freertos/lib/third_party/mbedtls/library\aes.c **** #if defined(MBEDTLS_CIPHER_MODE_XTS)
 721:D:/Work/DeviceTester/amazon-freertos/lib/third_party/mbedtls/library\aes.c **** static int mbedtls_aes_xts_decode_keys( const unsigned char *key,
 722:D:/Work/DeviceTester/amazon-freertos/lib/third_party/mbedtls/library\aes.c ****                                         unsigned int keybits,
 723:D:/Work/DeviceTester/amazon-freertos/lib/third_party/mbedtls/library\aes.c ****                                         const unsigned char **key1,
 724:D:/Work/DeviceTester/amazon-freertos/lib/third_party/mbedtls/library\aes.c ****                                         unsigned int *key1bits,
 725:D:/Work/DeviceTester/amazon-freertos/lib/third_party/mbedtls/library\aes.c ****                                         const unsigned char **key2,
 726:D:/Work/DeviceTester/amazon-freertos/lib/third_party/mbedtls/library\aes.c ****                                         unsigned int *key2bits )
 727:D:/Work/DeviceTester/amazon-freertos/lib/third_party/mbedtls/library\aes.c **** {
 728:D:/Work/DeviceTester/amazon-freertos/lib/third_party/mbedtls/library\aes.c ****     const unsigned int half_keybits = keybits / 2;
 729:D:/Work/DeviceTester/amazon-freertos/lib/third_party/mbedtls/library\aes.c ****     const unsigned int half_keybytes = half_keybits / 8;
 730:D:/Work/DeviceTester/amazon-freertos/lib/third_party/mbedtls/library\aes.c **** 
 731:D:/Work/DeviceTester/amazon-freertos/lib/third_party/mbedtls/library\aes.c ****     switch( keybits )
 732:D:/Work/DeviceTester/amazon-freertos/lib/third_party/mbedtls/library\aes.c ****     {
 733:D:/Work/DeviceTester/amazon-freertos/lib/third_party/mbedtls/library\aes.c ****         case 256: break;
 734:D:/Work/DeviceTester/amazon-freertos/lib/third_party/mbedtls/library\aes.c ****         case 512: break;
 735:D:/Work/DeviceTester/amazon-freertos/lib/third_party/mbedtls/library\aes.c ****         default : return( MBEDTLS_ERR_AES_INVALID_KEY_LENGTH );
 736:D:/Work/DeviceTester/amazon-freertos/lib/third_party/mbedtls/library\aes.c ****     }
 737:D:/Work/DeviceTester/amazon-freertos/lib/third_party/mbedtls/library\aes.c **** 
 738:D:/Work/DeviceTester/amazon-freertos/lib/third_party/mbedtls/library\aes.c ****     *key1bits = half_keybits;
 739:D:/Work/DeviceTester/amazon-freertos/lib/third_party/mbedtls/library\aes.c ****     *key2bits = half_keybits;
 740:D:/Work/DeviceTester/amazon-freertos/lib/third_party/mbedtls/library\aes.c ****     *key1 = &key[0];
 741:D:/Work/DeviceTester/amazon-freertos/lib/third_party/mbedtls/library\aes.c ****     *key2 = &key[half_keybytes];
 742:D:/Work/DeviceTester/amazon-freertos/lib/third_party/mbedtls/library\aes.c **** 
 743:D:/Work/DeviceTester/amazon-freertos/lib/third_party/mbedtls/library\aes.c ****     return 0;
 744:D:/Work/DeviceTester/amazon-freertos/lib/third_party/mbedtls/library\aes.c **** }
 745:D:/Work/DeviceTester/amazon-freertos/lib/third_party/mbedtls/library\aes.c **** 
 746:D:/Work/DeviceTester/amazon-freertos/lib/third_party/mbedtls/library\aes.c **** int mbedtls_aes_xts_setkey_enc( mbedtls_aes_xts_context *ctx,
 747:D:/Work/DeviceTester/amazon-freertos/lib/third_party/mbedtls/library\aes.c ****                                 const unsigned char *key,
 748:D:/Work/DeviceTester/amazon-freertos/lib/third_party/mbedtls/library\aes.c ****                                 unsigned int keybits)
 749:D:/Work/DeviceTester/amazon-freertos/lib/third_party/mbedtls/library\aes.c **** {
 750:D:/Work/DeviceTester/amazon-freertos/lib/third_party/mbedtls/library\aes.c ****     int ret;
 751:D:/Work/DeviceTester/amazon-freertos/lib/third_party/mbedtls/library\aes.c ****     const unsigned char *key1, *key2;
 752:D:/Work/DeviceTester/amazon-freertos/lib/third_party/mbedtls/library\aes.c ****     unsigned int key1bits, key2bits;
 753:D:/Work/DeviceTester/amazon-freertos/lib/third_party/mbedtls/library\aes.c **** 
 754:D:/Work/DeviceTester/amazon-freertos/lib/third_party/mbedtls/library\aes.c ****     ret = mbedtls_aes_xts_decode_keys( key, keybits, &key1, &key1bits,
 755:D:/Work/DeviceTester/amazon-freertos/lib/third_party/mbedtls/library\aes.c ****                                        &key2, &key2bits );
 756:D:/Work/DeviceTester/amazon-freertos/lib/third_party/mbedtls/library\aes.c ****     if( ret != 0 )
 757:D:/Work/DeviceTester/amazon-freertos/lib/third_party/mbedtls/library\aes.c ****         return( ret );
 758:D:/Work/DeviceTester/amazon-freertos/lib/third_party/mbedtls/library\aes.c **** 
 759:D:/Work/DeviceTester/amazon-freertos/lib/third_party/mbedtls/library\aes.c ****     /* Set the tweak key. Always set tweak key for the encryption mode. */
 760:D:/Work/DeviceTester/amazon-freertos/lib/third_party/mbedtls/library\aes.c ****     ret = mbedtls_aes_setkey_enc( &ctx->tweak, key2, key2bits );
 761:D:/Work/DeviceTester/amazon-freertos/lib/third_party/mbedtls/library\aes.c ****     if( ret != 0 )
 762:D:/Work/DeviceTester/amazon-freertos/lib/third_party/mbedtls/library\aes.c ****         return( ret );
 763:D:/Work/DeviceTester/amazon-freertos/lib/third_party/mbedtls/library\aes.c **** 
 764:D:/Work/DeviceTester/amazon-freertos/lib/third_party/mbedtls/library\aes.c ****     /* Set crypt key for encryption. */
 765:D:/Work/DeviceTester/amazon-freertos/lib/third_party/mbedtls/library\aes.c ****     return mbedtls_aes_setkey_enc( &ctx->crypt, key1, key1bits );
 766:D:/Work/DeviceTester/amazon-freertos/lib/third_party/mbedtls/library\aes.c **** }
 767:D:/Work/DeviceTester/amazon-freertos/lib/third_party/mbedtls/library\aes.c **** 
 768:D:/Work/DeviceTester/amazon-freertos/lib/third_party/mbedtls/library\aes.c **** int mbedtls_aes_xts_setkey_dec( mbedtls_aes_xts_context *ctx,
 769:D:/Work/DeviceTester/amazon-freertos/lib/third_party/mbedtls/library\aes.c ****                                 const unsigned char *key,
 770:D:/Work/DeviceTester/amazon-freertos/lib/third_party/mbedtls/library\aes.c ****                                 unsigned int keybits)
 771:D:/Work/DeviceTester/amazon-freertos/lib/third_party/mbedtls/library\aes.c **** {
 772:D:/Work/DeviceTester/amazon-freertos/lib/third_party/mbedtls/library\aes.c ****     int ret;
 773:D:/Work/DeviceTester/amazon-freertos/lib/third_party/mbedtls/library\aes.c ****     const unsigned char *key1, *key2;
 774:D:/Work/DeviceTester/amazon-freertos/lib/third_party/mbedtls/library\aes.c ****     unsigned int key1bits, key2bits;
 775:D:/Work/DeviceTester/amazon-freertos/lib/third_party/mbedtls/library\aes.c **** 
 776:D:/Work/DeviceTester/amazon-freertos/lib/third_party/mbedtls/library\aes.c ****     ret = mbedtls_aes_xts_decode_keys( key, keybits, &key1, &key1bits,
 777:D:/Work/DeviceTester/amazon-freertos/lib/third_party/mbedtls/library\aes.c ****                                        &key2, &key2bits );
 778:D:/Work/DeviceTester/amazon-freertos/lib/third_party/mbedtls/library\aes.c ****     if( ret != 0 )
 779:D:/Work/DeviceTester/amazon-freertos/lib/third_party/mbedtls/library\aes.c ****         return( ret );
 780:D:/Work/DeviceTester/amazon-freertos/lib/third_party/mbedtls/library\aes.c **** 
 781:D:/Work/DeviceTester/amazon-freertos/lib/third_party/mbedtls/library\aes.c ****     /* Set the tweak key. Always set tweak key for encryption. */
 782:D:/Work/DeviceTester/amazon-freertos/lib/third_party/mbedtls/library\aes.c ****     ret = mbedtls_aes_setkey_enc( &ctx->tweak, key2, key2bits );
 783:D:/Work/DeviceTester/amazon-freertos/lib/third_party/mbedtls/library\aes.c ****     if( ret != 0 )
 784:D:/Work/DeviceTester/amazon-freertos/lib/third_party/mbedtls/library\aes.c ****         return( ret );
 785:D:/Work/DeviceTester/amazon-freertos/lib/third_party/mbedtls/library\aes.c **** 
 786:D:/Work/DeviceTester/amazon-freertos/lib/third_party/mbedtls/library\aes.c ****     /* Set crypt key for decryption. */
 787:D:/Work/DeviceTester/amazon-freertos/lib/third_party/mbedtls/library\aes.c ****     return mbedtls_aes_setkey_dec( &ctx->crypt, key1, key1bits );
 788:D:/Work/DeviceTester/amazon-freertos/lib/third_party/mbedtls/library\aes.c **** }
 789:D:/Work/DeviceTester/amazon-freertos/lib/third_party/mbedtls/library\aes.c **** #endif /* MBEDTLS_CIPHER_MODE_XTS */
 790:D:/Work/DeviceTester/amazon-freertos/lib/third_party/mbedtls/library\aes.c **** 
 791:D:/Work/DeviceTester/amazon-freertos/lib/third_party/mbedtls/library\aes.c **** #endif /* !MBEDTLS_AES_SETKEY_DEC_ALT */
 792:D:/Work/DeviceTester/amazon-freertos/lib/third_party/mbedtls/library\aes.c **** 
 793:D:/Work/DeviceTester/amazon-freertos/lib/third_party/mbedtls/library\aes.c **** #define AES_FROUND(X0,X1,X2,X3,Y0,Y1,Y2,Y3)         \
 794:D:/Work/DeviceTester/amazon-freertos/lib/third_party/mbedtls/library\aes.c **** {                                                   \
 795:D:/Work/DeviceTester/amazon-freertos/lib/third_party/mbedtls/library\aes.c ****     X0 = *RK++ ^ AES_FT0( ( Y0       ) & 0xFF ) ^   \
 796:D:/Work/DeviceTester/amazon-freertos/lib/third_party/mbedtls/library\aes.c ****                  AES_FT1( ( Y1 >>  8 ) & 0xFF ) ^   \
 797:D:/Work/DeviceTester/amazon-freertos/lib/third_party/mbedtls/library\aes.c ****                  AES_FT2( ( Y2 >> 16 ) & 0xFF ) ^   \
 798:D:/Work/DeviceTester/amazon-freertos/lib/third_party/mbedtls/library\aes.c ****                  AES_FT3( ( Y3 >> 24 ) & 0xFF );    \
 799:D:/Work/DeviceTester/amazon-freertos/lib/third_party/mbedtls/library\aes.c ****                                                     \
 800:D:/Work/DeviceTester/amazon-freertos/lib/third_party/mbedtls/library\aes.c ****     X1 = *RK++ ^ AES_FT0( ( Y1       ) & 0xFF ) ^   \
 801:D:/Work/DeviceTester/amazon-freertos/lib/third_party/mbedtls/library\aes.c ****                  AES_FT1( ( Y2 >>  8 ) & 0xFF ) ^   \
 802:D:/Work/DeviceTester/amazon-freertos/lib/third_party/mbedtls/library\aes.c ****                  AES_FT2( ( Y3 >> 16 ) & 0xFF ) ^   \
 803:D:/Work/DeviceTester/amazon-freertos/lib/third_party/mbedtls/library\aes.c ****                  AES_FT3( ( Y0 >> 24 ) & 0xFF );    \
 804:D:/Work/DeviceTester/amazon-freertos/lib/third_party/mbedtls/library\aes.c ****                                                     \
 805:D:/Work/DeviceTester/amazon-freertos/lib/third_party/mbedtls/library\aes.c ****     X2 = *RK++ ^ AES_FT0( ( Y2       ) & 0xFF ) ^   \
 806:D:/Work/DeviceTester/amazon-freertos/lib/third_party/mbedtls/library\aes.c ****                  AES_FT1( ( Y3 >>  8 ) & 0xFF ) ^   \
 807:D:/Work/DeviceTester/amazon-freertos/lib/third_party/mbedtls/library\aes.c ****                  AES_FT2( ( Y0 >> 16 ) & 0xFF ) ^   \
 808:D:/Work/DeviceTester/amazon-freertos/lib/third_party/mbedtls/library\aes.c ****                  AES_FT3( ( Y1 >> 24 ) & 0xFF );    \
 809:D:/Work/DeviceTester/amazon-freertos/lib/third_party/mbedtls/library\aes.c ****                                                     \
 810:D:/Work/DeviceTester/amazon-freertos/lib/third_party/mbedtls/library\aes.c ****     X3 = *RK++ ^ AES_FT0( ( Y3       ) & 0xFF ) ^   \
 811:D:/Work/DeviceTester/amazon-freertos/lib/third_party/mbedtls/library\aes.c ****                  AES_FT1( ( Y0 >>  8 ) & 0xFF ) ^   \
 812:D:/Work/DeviceTester/amazon-freertos/lib/third_party/mbedtls/library\aes.c ****                  AES_FT2( ( Y1 >> 16 ) & 0xFF ) ^   \
 813:D:/Work/DeviceTester/amazon-freertos/lib/third_party/mbedtls/library\aes.c ****                  AES_FT3( ( Y2 >> 24 ) & 0xFF );    \
 814:D:/Work/DeviceTester/amazon-freertos/lib/third_party/mbedtls/library\aes.c **** }
 815:D:/Work/DeviceTester/amazon-freertos/lib/third_party/mbedtls/library\aes.c **** 
 816:D:/Work/DeviceTester/amazon-freertos/lib/third_party/mbedtls/library\aes.c **** #define AES_RROUND(X0,X1,X2,X3,Y0,Y1,Y2,Y3)         \
 817:D:/Work/DeviceTester/amazon-freertos/lib/third_party/mbedtls/library\aes.c **** {                                                   \
 818:D:/Work/DeviceTester/amazon-freertos/lib/third_party/mbedtls/library\aes.c ****     X0 = *RK++ ^ AES_RT0( ( Y0       ) & 0xFF ) ^   \
 819:D:/Work/DeviceTester/amazon-freertos/lib/third_party/mbedtls/library\aes.c ****                  AES_RT1( ( Y3 >>  8 ) & 0xFF ) ^   \
 820:D:/Work/DeviceTester/amazon-freertos/lib/third_party/mbedtls/library\aes.c ****                  AES_RT2( ( Y2 >> 16 ) & 0xFF ) ^   \
 821:D:/Work/DeviceTester/amazon-freertos/lib/third_party/mbedtls/library\aes.c ****                  AES_RT3( ( Y1 >> 24 ) & 0xFF );    \
 822:D:/Work/DeviceTester/amazon-freertos/lib/third_party/mbedtls/library\aes.c ****                                                     \
 823:D:/Work/DeviceTester/amazon-freertos/lib/third_party/mbedtls/library\aes.c ****     X1 = *RK++ ^ AES_RT0( ( Y1       ) & 0xFF ) ^   \
 824:D:/Work/DeviceTester/amazon-freertos/lib/third_party/mbedtls/library\aes.c ****                  AES_RT1( ( Y0 >>  8 ) & 0xFF ) ^   \
 825:D:/Work/DeviceTester/amazon-freertos/lib/third_party/mbedtls/library\aes.c ****                  AES_RT2( ( Y3 >> 16 ) & 0xFF ) ^   \
 826:D:/Work/DeviceTester/amazon-freertos/lib/third_party/mbedtls/library\aes.c ****                  AES_RT3( ( Y2 >> 24 ) & 0xFF );    \
 827:D:/Work/DeviceTester/amazon-freertos/lib/third_party/mbedtls/library\aes.c ****                                                     \
 828:D:/Work/DeviceTester/amazon-freertos/lib/third_party/mbedtls/library\aes.c ****     X2 = *RK++ ^ AES_RT0( ( Y2       ) & 0xFF ) ^   \
 829:D:/Work/DeviceTester/amazon-freertos/lib/third_party/mbedtls/library\aes.c ****                  AES_RT1( ( Y1 >>  8 ) & 0xFF ) ^   \
 830:D:/Work/DeviceTester/amazon-freertos/lib/third_party/mbedtls/library\aes.c ****                  AES_RT2( ( Y0 >> 16 ) & 0xFF ) ^   \
 831:D:/Work/DeviceTester/amazon-freertos/lib/third_party/mbedtls/library\aes.c ****                  AES_RT3( ( Y3 >> 24 ) & 0xFF );    \
 832:D:/Work/DeviceTester/amazon-freertos/lib/third_party/mbedtls/library\aes.c ****                                                     \
 833:D:/Work/DeviceTester/amazon-freertos/lib/third_party/mbedtls/library\aes.c ****     X3 = *RK++ ^ AES_RT0( ( Y3       ) & 0xFF ) ^   \
 834:D:/Work/DeviceTester/amazon-freertos/lib/third_party/mbedtls/library\aes.c ****                  AES_RT1( ( Y2 >>  8 ) & 0xFF ) ^   \
 835:D:/Work/DeviceTester/amazon-freertos/lib/third_party/mbedtls/library\aes.c ****                  AES_RT2( ( Y1 >> 16 ) & 0xFF ) ^   \
 836:D:/Work/DeviceTester/amazon-freertos/lib/third_party/mbedtls/library\aes.c ****                  AES_RT3( ( Y0 >> 24 ) & 0xFF );    \
 837:D:/Work/DeviceTester/amazon-freertos/lib/third_party/mbedtls/library\aes.c **** }
 838:D:/Work/DeviceTester/amazon-freertos/lib/third_party/mbedtls/library\aes.c **** 
 839:D:/Work/DeviceTester/amazon-freertos/lib/third_party/mbedtls/library\aes.c **** /*
 840:D:/Work/DeviceTester/amazon-freertos/lib/third_party/mbedtls/library\aes.c ****  * AES-ECB block encryption
 841:D:/Work/DeviceTester/amazon-freertos/lib/third_party/mbedtls/library\aes.c ****  */
 842:D:/Work/DeviceTester/amazon-freertos/lib/third_party/mbedtls/library\aes.c **** #if !defined(MBEDTLS_AES_ENCRYPT_ALT)
 843:D:/Work/DeviceTester/amazon-freertos/lib/third_party/mbedtls/library\aes.c **** int mbedtls_internal_aes_encrypt( mbedtls_aes_context *ctx,
 844:D:/Work/DeviceTester/amazon-freertos/lib/third_party/mbedtls/library\aes.c ****                                   const unsigned char input[16],
 845:D:/Work/DeviceTester/amazon-freertos/lib/third_party/mbedtls/library\aes.c ****                                   unsigned char output[16] )
 846:D:/Work/DeviceTester/amazon-freertos/lib/third_party/mbedtls/library\aes.c **** {
 605              		.loc 1 846 0
 606              		.cfi_startproc
 607              		@ args = 0, pretend = 0, frame = 8
 608              		@ frame_needed = 0, uses_anonymous_args = 0
 609              	.LVL58:
 610 0000 F74F2DE9 		push	{r0, r1, r2, r4, r5, r6, r7, r8, r9, r10, fp, lr}
 611              		.cfi_def_cfa_offset 48
 612              		.cfi_offset 4, -36
 613              		.cfi_offset 5, -32
 614              		.cfi_offset 6, -28
 615              		.cfi_offset 7, -24
 616              		.cfi_offset 8, -20
 617              		.cfi_offset 9, -16
 618              		.cfi_offset 10, -12
 619              		.cfi_offset 11, -8
 620              		.cfi_offset 14, -4
 847:D:/Work/DeviceTester/amazon-freertos/lib/third_party/mbedtls/library\aes.c ****     int i;
 848:D:/Work/DeviceTester/amazon-freertos/lib/third_party/mbedtls/library\aes.c ****     uint32_t *RK, X0, X1, X2, X3, Y0, Y1, Y2, Y3;
 849:D:/Work/DeviceTester/amazon-freertos/lib/third_party/mbedtls/library\aes.c **** 
 850:D:/Work/DeviceTester/amazon-freertos/lib/third_party/mbedtls/library\aes.c ****     RK = ctx->rk;
 851:D:/Work/DeviceTester/amazon-freertos/lib/third_party/mbedtls/library\aes.c **** 
 852:D:/Work/DeviceTester/amazon-freertos/lib/third_party/mbedtls/library\aes.c ****     GET_UINT32_LE( X0, input,  0 ); X0 ^= *RK++;
 621              		.loc 1 852 0
 622 0004 0130D1E5 		ldrb	r3, [r1, #1]	@ zero_extendqisi2
 623 0008 00E0D1E5 		ldrb	lr, [r1]	@ zero_extendqisi2
 850:D:/Work/DeviceTester/amazon-freertos/lib/third_party/mbedtls/library\aes.c **** 
 624              		.loc 1 850 0
 625 000c 045090E5 		ldr	r5, [r0, #4]
 626              	.LVL59:
 853:D:/Work/DeviceTester/amazon-freertos/lib/third_party/mbedtls/library\aes.c ****     GET_UINT32_LE( X1, input,  4 ); X1 ^= *RK++;
 627              		.loc 1 853 0
 628 0010 05C0D1E5 		ldrb	ip, [r1, #5]	@ zero_extendqisi2
 854:D:/Work/DeviceTester/amazon-freertos/lib/third_party/mbedtls/library\aes.c ****     GET_UINT32_LE( X2, input,  8 ); X2 ^= *RK++;
 629              		.loc 1 854 0
 630 0014 0940D1E5 		ldrb	r4, [r1, #9]	@ zero_extendqisi2
 852:D:/Work/DeviceTester/amazon-freertos/lib/third_party/mbedtls/library\aes.c ****     GET_UINT32_LE( X1, input,  4 ); X1 ^= *RK++;
 631              		.loc 1 852 0
 632 0018 03E48EE1 		orr	lr, lr, r3, lsl #8
 633 001c 0230D1E5 		ldrb	r3, [r1, #2]	@ zero_extendqisi2
 855:D:/Work/DeviceTester/amazon-freertos/lib/third_party/mbedtls/library\aes.c ****     GET_UINT32_LE( X3, input, 12 ); X3 ^= *RK++;
 634              		.loc 1 855 0
 635 0020 0D60D1E5 		ldrb	r6, [r1, #13]	@ zero_extendqisi2
 856:D:/Work/DeviceTester/amazon-freertos/lib/third_party/mbedtls/library\aes.c **** 
 857:D:/Work/DeviceTester/amazon-freertos/lib/third_party/mbedtls/library\aes.c ****     for( i = ( ctx->nr >> 1 ) - 1; i > 0; i-- )
 636              		.loc 1 857 0
 637 0024 000090E5 		ldr	r0, [r0]
 638              	.LVL60:
 639 0028 64849FE5 		ldr	r8, .L45
 852:D:/Work/DeviceTester/amazon-freertos/lib/third_party/mbedtls/library\aes.c ****     GET_UINT32_LE( X1, input,  4 ); X1 ^= *RK++;
 640              		.loc 1 852 0
 641 002c 03E88EE1 		orr	lr, lr, r3, lsl #16
 642 0030 0330D1E5 		ldrb	r3, [r1, #3]	@ zero_extendqisi2
 643 0034 5C749FE5 		ldr	r7, .L45+4
 644              		.loc 1 857 0
 645 0038 C000A0E1 		asr	r0, r0, #1
 858:D:/Work/DeviceTester/amazon-freertos/lib/third_party/mbedtls/library\aes.c ****     {
 859:D:/Work/DeviceTester/amazon-freertos/lib/third_party/mbedtls/library\aes.c ****         AES_FROUND( Y0, Y1, Y2, Y3, X0, X1, X2, X3 );
 646              		.loc 1 859 0
 647 003c 58949FE5 		ldr	r9, .L45+8
 648 0040 58A49FE5 		ldr	r10, .L45+12
 852:D:/Work/DeviceTester/amazon-freertos/lib/third_party/mbedtls/library\aes.c ****     GET_UINT32_LE( X1, input,  4 ); X1 ^= *RK++;
 649              		.loc 1 852 0
 650 0044 03EC8EE1 		orr	lr, lr, r3, lsl #24
 651              	.LVL61:
 652 0048 003095E5 		ldr	r3, [r5]
 857:D:/Work/DeviceTester/amazon-freertos/lib/third_party/mbedtls/library\aes.c ****     {
 653              		.loc 1 857 0
 654 004c 010040E2 		sub	r0, r0, #1
 655 0050 04008DE5 		str	r0, [sp, #4]
 855:D:/Work/DeviceTester/amazon-freertos/lib/third_party/mbedtls/library\aes.c **** 
 656              		.loc 1 855 0
 657 0054 0500A0E1 		mov	r0, r5
 852:D:/Work/DeviceTester/amazon-freertos/lib/third_party/mbedtls/library\aes.c ****     GET_UINT32_LE( X1, input,  4 ); X1 ^= *RK++;
 658              		.loc 1 852 0
 659 0058 03E02EE0 		eor	lr, lr, r3
 660              	.LVL62:
 853:D:/Work/DeviceTester/amazon-freertos/lib/third_party/mbedtls/library\aes.c ****     GET_UINT32_LE( X2, input,  8 ); X2 ^= *RK++;
 661              		.loc 1 853 0
 662 005c 0430D1E5 		ldrb	r3, [r1, #4]	@ zero_extendqisi2
 663 0060 0C3483E1 		orr	r3, r3, ip, lsl #8
 664 0064 06C0D1E5 		ldrb	ip, [r1, #6]	@ zero_extendqisi2
 665 0068 0C3883E1 		orr	r3, r3, ip, lsl #16
 666 006c 07C0D1E5 		ldrb	ip, [r1, #7]	@ zero_extendqisi2
 667 0070 0C3C83E1 		orr	r3, r3, ip, lsl #24
 668              	.LVL63:
 669 0074 04C095E5 		ldr	ip, [r5, #4]
 670 0078 0C3023E0 		eor	r3, r3, ip
 671              	.LVL64:
 854:D:/Work/DeviceTester/amazon-freertos/lib/third_party/mbedtls/library\aes.c ****     GET_UINT32_LE( X3, input, 12 ); X3 ^= *RK++;
 672              		.loc 1 854 0
 673 007c 08C0D1E5 		ldrb	ip, [r1, #8]	@ zero_extendqisi2
 674 0080 04C48CE1 		orr	ip, ip, r4, lsl #8
 675 0084 0A40D1E5 		ldrb	r4, [r1, #10]	@ zero_extendqisi2
 676 0088 04C88CE1 		orr	ip, ip, r4, lsl #16
 677 008c 0B40D1E5 		ldrb	r4, [r1, #11]	@ zero_extendqisi2
 678 0090 04CC8CE1 		orr	ip, ip, r4, lsl #24
 679              	.LVL65:
 680 0094 084095E5 		ldr	r4, [r5, #8]
 681 0098 04C02CE0 		eor	ip, ip, r4
 682              	.LVL66:
 855:D:/Work/DeviceTester/amazon-freertos/lib/third_party/mbedtls/library\aes.c **** 
 683              		.loc 1 855 0
 684 009c 0C40D1E5 		ldrb	r4, [r1, #12]	@ zero_extendqisi2
 685 00a0 064484E1 		orr	r4, r4, r6, lsl #8
 686 00a4 0E60D1E5 		ldrb	r6, [r1, #14]	@ zero_extendqisi2
 687 00a8 0F10D1E5 		ldrb	r1, [r1, #15]	@ zero_extendqisi2
 688              	.LVL67:
 689 00ac 064884E1 		orr	r4, r4, r6, lsl #16
 690 00b0 011C84E1 		orr	r1, r4, r1, lsl #24
 691              	.LVL68:
 692 00b4 0C4095E5 		ldr	r4, [r5, #12]
 693 00b8 1050B0E5 		ldr	r5, [r0, #16]!
 694              	.LVL69:
 695 00bc 041021E0 		eor	r1, r1, r4
 696              	.LVL70:
 697              	.L42:
 857:D:/Work/DeviceTester/amazon-freertos/lib/third_party/mbedtls/library\aes.c ****     {
 698              		.loc 1 857 0 discriminator 1
 699 00c0 04609DE5 		ldr	r6, [sp, #4]
 700 00c4 0040A0E1 		mov	r4, r0
 701              	.LVL71:
 702 00c8 7EB0EFE6 		uxtb	fp, lr
 703 00cc 200080E2 		add	r0, r0, #32
 704 00d0 000056E3 		cmp	r6, #0
 705 00d4 216CA0E1 		lsr	r6, r1, #24
 706              	.LVL72:
 707 00d8 820000CA 		bgt	.L43
 708              	.LVL73:
 860:D:/Work/DeviceTester/amazon-freertos/lib/third_party/mbedtls/library\aes.c ****         AES_FROUND( X0, X1, X2, X3, Y0, Y1, Y2, Y3 );
 861:D:/Work/DeviceTester/amazon-freertos/lib/third_party/mbedtls/library\aes.c ****     }
 862:D:/Work/DeviceTester/amazon-freertos/lib/third_party/mbedtls/library\aes.c **** 
 863:D:/Work/DeviceTester/amazon-freertos/lib/third_party/mbedtls/library\aes.c ****     AES_FROUND( Y0, Y1, Y2, Y3, X0, X1, X2, X3 );
 709              		.loc 1 863 0
 710 00dc 0B0198E7 		ldr	r0, [r8, fp, lsl #2]
 711 00e0 23BCA0E1 		lsr	fp, r3, #24
 712 00e4 066197E7 		ldr	r6, [r7, r6, lsl #2]
 713 00e8 ACA39FE5 		ldr	r10, .L45+8
 714 00ec AC939FE5 		ldr	r9, .L45+12
 715 00f0 060020E0 		eor	r0, r0, r6
 716 00f4 2E6CA0E1 		lsr	r6, lr, #24
 717 00f8 005025E0 		eor	r5, r5, r0
 718 00fc 0BB197E7 		ldr	fp, [r7, fp, lsl #2]
 719 0100 5304E7E7 		ubfx	r0, r3, #8, #8
 720 0104 066197E7 		ldr	r6, [r7, r6, lsl #2]
 721 0108 00019AE7 		ldr	r0, [r10, r0, lsl #2]
 722 010c 005025E0 		eor	r5, r5, r0
 723 0110 5C08E7E7 		ubfx	r0, ip, #16, #8
 724 0114 000199E7 		ldr	r0, [r9, r0, lsl #2]
 725 0118 005025E0 		eor	r5, r5, r0
 726              	.LVL74:
 727 011c 7300EFE6 		uxtb	r0, r3
 728 0120 5338E7E7 		ubfx	r3, r3, #16, #8
 729              	.LVL75:
 730 0124 000198E7 		ldr	r0, [r8, r0, lsl #2]
 731 0128 033199E7 		ldr	r3, [r9, r3, lsl #2]
 732 012c 060020E0 		eor	r0, r0, r6
 733 0130 046094E5 		ldr	r6, [r4, #4]
 734 0134 060020E0 		eor	r0, r0, r6
 735 0138 5C64E7E7 		ubfx	r6, ip, #8, #8
 736 013c 06619AE7 		ldr	r6, [r10, r6, lsl #2]
 737 0140 060020E0 		eor	r0, r0, r6
 738 0144 5168E7E7 		ubfx	r6, r1, #16, #8
 739 0148 066199E7 		ldr	r6, [r9, r6, lsl #2]
 740 014c 060020E0 		eor	r0, r0, r6
 741              	.LVL76:
 742 0150 7C60EFE6 		uxtb	r6, ip
 743 0154 2CCCA0E1 		lsr	ip, ip, #24
 744              	.LVL77:
 745 0158 066198E7 		ldr	r6, [r8, r6, lsl #2]
 746 015c 0CC197E7 		ldr	ip, [r7, ip, lsl #2]
 747 0160 0B6026E0 		eor	r6, r6, fp
 748 0164 08B094E5 		ldr	fp, [r4, #8]
 749 0168 0B6026E0 		eor	r6, r6, fp
 750 016c 51B4E7E7 		ubfx	fp, r1, #8, #8
 751 0170 7110EFE6 		uxtb	r1, r1
 752              	.LVL78:
 753 0174 0BB19AE7 		ldr	fp, [r10, fp, lsl #2]
 754 0178 011198E7 		ldr	r1, [r8, r1, lsl #2]
 755 017c 0B6026E0 		eor	r6, r6, fp
 756 0180 5EB8E7E7 		ubfx	fp, lr, #16, #8
 757 0184 5EE4E7E7 		ubfx	lr, lr, #8, #8
 758              	.LVL79:
 759 0188 0BB199E7 		ldr	fp, [r9, fp, lsl #2]
 760 018c 0C1021E0 		eor	r1, r1, ip
 761 0190 0CC094E5 		ldr	ip, [r4, #12]
 864:D:/Work/DeviceTester/amazon-freertos/lib/third_party/mbedtls/library\aes.c **** 
 865:D:/Work/DeviceTester/amazon-freertos/lib/third_party/mbedtls/library\aes.c ****     X0 = *RK++ ^ \
 866:D:/Work/DeviceTester/amazon-freertos/lib/third_party/mbedtls/library\aes.c ****             ( (uint32_t) FSb[ ( Y0       ) & 0xFF ]       ) ^
 867:D:/Work/DeviceTester/amazon-freertos/lib/third_party/mbedtls/library\aes.c ****             ( (uint32_t) FSb[ ( Y1 >>  8 ) & 0xFF ] <<  8 ) ^
 868:D:/Work/DeviceTester/amazon-freertos/lib/third_party/mbedtls/library\aes.c ****             ( (uint32_t) FSb[ ( Y2 >> 16 ) & 0xFF ] << 16 ) ^
 869:D:/Work/DeviceTester/amazon-freertos/lib/third_party/mbedtls/library\aes.c ****             ( (uint32_t) FSb[ ( Y3 >> 24 ) & 0xFF ] << 24 );
 870:D:/Work/DeviceTester/amazon-freertos/lib/third_party/mbedtls/library\aes.c **** 
 871:D:/Work/DeviceTester/amazon-freertos/lib/third_party/mbedtls/library\aes.c ****     X1 = *RK++ ^ \
 872:D:/Work/DeviceTester/amazon-freertos/lib/third_party/mbedtls/library\aes.c ****             ( (uint32_t) FSb[ ( Y1       ) & 0xFF ]       ) ^
 873:D:/Work/DeviceTester/amazon-freertos/lib/third_party/mbedtls/library\aes.c ****             ( (uint32_t) FSb[ ( Y2 >>  8 ) & 0xFF ] <<  8 ) ^
 874:D:/Work/DeviceTester/amazon-freertos/lib/third_party/mbedtls/library\aes.c ****             ( (uint32_t) FSb[ ( Y3 >> 16 ) & 0xFF ] << 16 ) ^
 875:D:/Work/DeviceTester/amazon-freertos/lib/third_party/mbedtls/library\aes.c ****             ( (uint32_t) FSb[ ( Y0 >> 24 ) & 0xFF ] << 24 );
 876:D:/Work/DeviceTester/amazon-freertos/lib/third_party/mbedtls/library\aes.c **** 
 877:D:/Work/DeviceTester/amazon-freertos/lib/third_party/mbedtls/library\aes.c ****     X2 = *RK++ ^ \
 762              		.loc 1 877 0
 763 0194 188094E5 		ldr	r8, [r4, #24]
 863:D:/Work/DeviceTester/amazon-freertos/lib/third_party/mbedtls/library\aes.c **** 
 764              		.loc 1 863 0
 765 0198 0B6026E0 		eor	r6, r6, fp
 766              	.LVL80:
 767 019c 0C1021E0 		eor	r1, r1, ip
 768 01a0 0EC19AE7 		ldr	ip, [r10, lr, lsl #2]
 769 01a4 0C1021E0 		eor	r1, r1, ip
 866:D:/Work/DeviceTester/amazon-freertos/lib/third_party/mbedtls/library\aes.c ****             ( (uint32_t) FSb[ ( Y1 >>  8 ) & 0xFF ] <<  8 ) ^
 770              		.loc 1 866 0
 771 01a8 75C0EFE6 		uxtb	ip, r5
 863:D:/Work/DeviceTester/amazon-freertos/lib/third_party/mbedtls/library\aes.c **** 
 772              		.loc 1 863 0
 773 01ac 031021E0 		eor	r1, r1, r3
 774              	.LVL81:
 866:D:/Work/DeviceTester/amazon-freertos/lib/third_party/mbedtls/library\aes.c ****             ( (uint32_t) FSb[ ( Y1 >>  8 ) & 0xFF ] <<  8 ) ^
 775              		.loc 1 866 0
 776 01b0 EC329FE5 		ldr	r3, .L45+16
 777 01b4 0C70D3E7 		ldrb	r7, [r3, ip]	@ zero_extendqisi2
 865:D:/Work/DeviceTester/amazon-freertos/lib/third_party/mbedtls/library\aes.c ****             ( (uint32_t) FSb[ ( Y0       ) & 0xFF ]       ) ^
 778              		.loc 1 865 0
 779 01b8 10C094E5 		ldr	ip, [r4, #16]
 780 01bc 0C7027E0 		eor	r7, r7, ip
 869:D:/Work/DeviceTester/amazon-freertos/lib/third_party/mbedtls/library\aes.c **** 
 781              		.loc 1 869 0
 782 01c0 21CCD3E7 		ldrb	ip, [r3, r1, lsr #24]	@ zero_extendqisi2
 865:D:/Work/DeviceTester/amazon-freertos/lib/third_party/mbedtls/library\aes.c ****             ( (uint32_t) FSb[ ( Y0       ) & 0xFF ]       ) ^
 783              		.loc 1 865 0
 784 01c4 0C7C27E0 		eor	r7, r7, ip, lsl #24
 867:D:/Work/DeviceTester/amazon-freertos/lib/third_party/mbedtls/library\aes.c ****             ( (uint32_t) FSb[ ( Y2 >> 16 ) & 0xFF ] << 16 ) ^
 785              		.loc 1 867 0
 786 01c8 50C4E7E7 		ubfx	ip, r0, #8, #8
 787 01cc 0CC0D3E7 		ldrb	ip, [r3, ip]	@ zero_extendqisi2
 865:D:/Work/DeviceTester/amazon-freertos/lib/third_party/mbedtls/library\aes.c ****             ( (uint32_t) FSb[ ( Y0       ) & 0xFF ]       ) ^
 788              		.loc 1 865 0
 789 01d0 0C7427E0 		eor	r7, r7, ip, lsl #8
 868:D:/Work/DeviceTester/amazon-freertos/lib/third_party/mbedtls/library\aes.c ****             ( (uint32_t) FSb[ ( Y3 >> 24 ) & 0xFF ] << 24 );
 790              		.loc 1 868 0
 791 01d4 56C8E7E7 		ubfx	ip, r6, #16, #8
 792 01d8 0CC0D3E7 		ldrb	ip, [r3, ip]	@ zero_extendqisi2
 865:D:/Work/DeviceTester/amazon-freertos/lib/third_party/mbedtls/library\aes.c ****             ( (uint32_t) FSb[ ( Y0       ) & 0xFF ]       ) ^
 793              		.loc 1 865 0
 794 01dc 0C7827E0 		eor	r7, r7, ip, lsl #16
 795              	.LVL82:
 872:D:/Work/DeviceTester/amazon-freertos/lib/third_party/mbedtls/library\aes.c ****             ( (uint32_t) FSb[ ( Y2 >>  8 ) & 0xFF ] <<  8 ) ^
 796              		.loc 1 872 0
 797 01e0 70C0EFE6 		uxtb	ip, r0
 798 01e4 0CE0D3E7 		ldrb	lr, [r3, ip]	@ zero_extendqisi2
 871:D:/Work/DeviceTester/amazon-freertos/lib/third_party/mbedtls/library\aes.c ****             ( (uint32_t) FSb[ ( Y1       ) & 0xFF ]       ) ^
 799              		.loc 1 871 0
 800 01e8 14C094E5 		ldr	ip, [r4, #20]
 801 01ec 0CE02EE0 		eor	lr, lr, ip
 875:D:/Work/DeviceTester/amazon-freertos/lib/third_party/mbedtls/library\aes.c **** 
 802              		.loc 1 875 0
 803 01f0 25CCD3E7 		ldrb	ip, [r3, r5, lsr #24]	@ zero_extendqisi2
 871:D:/Work/DeviceTester/amazon-freertos/lib/third_party/mbedtls/library\aes.c ****             ( (uint32_t) FSb[ ( Y1       ) & 0xFF ]       ) ^
 804              		.loc 1 871 0
 805 01f4 0CEC2EE0 		eor	lr, lr, ip, lsl #24
 873:D:/Work/DeviceTester/amazon-freertos/lib/third_party/mbedtls/library\aes.c ****             ( (uint32_t) FSb[ ( Y3 >> 16 ) & 0xFF ] << 16 ) ^
 806              		.loc 1 873 0
 807 01f8 56C4E7E7 		ubfx	ip, r6, #8, #8
 808 01fc 0CC0D3E7 		ldrb	ip, [r3, ip]	@ zero_extendqisi2
 871:D:/Work/DeviceTester/amazon-freertos/lib/third_party/mbedtls/library\aes.c ****             ( (uint32_t) FSb[ ( Y1       ) & 0xFF ]       ) ^
 809              		.loc 1 871 0
 810 0200 0CE42EE0 		eor	lr, lr, ip, lsl #8
 874:D:/Work/DeviceTester/amazon-freertos/lib/third_party/mbedtls/library\aes.c ****             ( (uint32_t) FSb[ ( Y0 >> 24 ) & 0xFF ] << 24 );
 811              		.loc 1 874 0
 812 0204 51C8E7E7 		ubfx	ip, r1, #16, #8
 813 0208 0CC0D3E7 		ldrb	ip, [r3, ip]	@ zero_extendqisi2
 871:D:/Work/DeviceTester/amazon-freertos/lib/third_party/mbedtls/library\aes.c ****             ( (uint32_t) FSb[ ( Y1       ) & 0xFF ]       ) ^
 814              		.loc 1 871 0
 815 020c 0CE82EE0 		eor	lr, lr, ip, lsl #16
 816              	.LVL83:
 878:D:/Work/DeviceTester/amazon-freertos/lib/third_party/mbedtls/library\aes.c ****             ( (uint32_t) FSb[ ( Y2       ) & 0xFF ]       ) ^
 817              		.loc 1 878 0
 818 0210 76C0EFE6 		uxtb	ip, r6
 819 0214 0CC0D3E7 		ldrb	ip, [r3, ip]	@ zero_extendqisi2
 877:D:/Work/DeviceTester/amazon-freertos/lib/third_party/mbedtls/library\aes.c ****             ( (uint32_t) FSb[ ( Y2       ) & 0xFF ]       ) ^
 820              		.loc 1 877 0
 821 0218 08C02CE0 		eor	ip, ip, r8
 879:D:/Work/DeviceTester/amazon-freertos/lib/third_party/mbedtls/library\aes.c ****             ( (uint32_t) FSb[ ( Y3 >>  8 ) & 0xFF ] <<  8 ) ^
 880:D:/Work/DeviceTester/amazon-freertos/lib/third_party/mbedtls/library\aes.c ****             ( (uint32_t) FSb[ ( Y0 >> 16 ) & 0xFF ] << 16 ) ^
 881:D:/Work/DeviceTester/amazon-freertos/lib/third_party/mbedtls/library\aes.c ****             ( (uint32_t) FSb[ ( Y1 >> 24 ) & 0xFF ] << 24 );
 822              		.loc 1 881 0
 823 021c 208CD3E7 		ldrb	r8, [r3, r0, lsr #24]	@ zero_extendqisi2
 882:D:/Work/DeviceTester/amazon-freertos/lib/third_party/mbedtls/library\aes.c **** 
 883:D:/Work/DeviceTester/amazon-freertos/lib/third_party/mbedtls/library\aes.c ****     X3 = *RK++ ^ \
 884:D:/Work/DeviceTester/amazon-freertos/lib/third_party/mbedtls/library\aes.c ****             ( (uint32_t) FSb[ ( Y3       ) & 0xFF ]       ) ^
 885:D:/Work/DeviceTester/amazon-freertos/lib/third_party/mbedtls/library\aes.c ****             ( (uint32_t) FSb[ ( Y0 >>  8 ) & 0xFF ] <<  8 ) ^
 886:D:/Work/DeviceTester/amazon-freertos/lib/third_party/mbedtls/library\aes.c ****             ( (uint32_t) FSb[ ( Y1 >> 16 ) & 0xFF ] << 16 ) ^
 824              		.loc 1 886 0
 825 0220 5008E7E7 		ubfx	r0, r0, #16, #8
 826              	.LVL84:
 877:D:/Work/DeviceTester/amazon-freertos/lib/third_party/mbedtls/library\aes.c ****             ( (uint32_t) FSb[ ( Y2       ) & 0xFF ]       ) ^
 827              		.loc 1 877 0
 828 0224 08CC2CE0 		eor	ip, ip, r8, lsl #24
 879:D:/Work/DeviceTester/amazon-freertos/lib/third_party/mbedtls/library\aes.c ****             ( (uint32_t) FSb[ ( Y3 >>  8 ) & 0xFF ] <<  8 ) ^
 829              		.loc 1 879 0
 830 0228 5184E7E7 		ubfx	r8, r1, #8, #8
 884:D:/Work/DeviceTester/amazon-freertos/lib/third_party/mbedtls/library\aes.c ****             ( (uint32_t) FSb[ ( Y0 >>  8 ) & 0xFF ] <<  8 ) ^
 831              		.loc 1 884 0
 832 022c 7110EFE6 		uxtb	r1, r1
 833              	.LVL85:
 879:D:/Work/DeviceTester/amazon-freertos/lib/third_party/mbedtls/library\aes.c ****             ( (uint32_t) FSb[ ( Y0 >> 16 ) & 0xFF ] << 16 ) ^
 834              		.loc 1 879 0
 835 0230 0880D3E7 		ldrb	r8, [r3, r8]	@ zero_extendqisi2
 883:D:/Work/DeviceTester/amazon-freertos/lib/third_party/mbedtls/library\aes.c ****             ( (uint32_t) FSb[ ( Y3       ) & 0xFF ]       ) ^
 836              		.loc 1 883 0
 837 0234 1C4094E5 		ldr	r4, [r4, #28]
 838              	.LVL86:
 884:D:/Work/DeviceTester/amazon-freertos/lib/third_party/mbedtls/library\aes.c ****             ( (uint32_t) FSb[ ( Y0 >>  8 ) & 0xFF ] <<  8 ) ^
 839              		.loc 1 884 0
 840 0238 0110D3E7 		ldrb	r1, [r3, r1]	@ zero_extendqisi2
 887:D:/Work/DeviceTester/amazon-freertos/lib/third_party/mbedtls/library\aes.c ****             ( (uint32_t) FSb[ ( Y2 >> 24 ) & 0xFF ] << 24 );
 888:D:/Work/DeviceTester/amazon-freertos/lib/third_party/mbedtls/library\aes.c **** 
 889:D:/Work/DeviceTester/amazon-freertos/lib/third_party/mbedtls/library\aes.c ****     PUT_UINT32_LE( X0, output,  0 );
 841              		.loc 1 889 0
 842 023c 0070C2E5 		strb	r7, [r2]
 877:D:/Work/DeviceTester/amazon-freertos/lib/third_party/mbedtls/library\aes.c ****             ( (uint32_t) FSb[ ( Y2       ) & 0xFF ]       ) ^
 843              		.loc 1 877 0
 844 0240 08C42CE0 		eor	ip, ip, r8, lsl #8
 880:D:/Work/DeviceTester/amazon-freertos/lib/third_party/mbedtls/library\aes.c ****             ( (uint32_t) FSb[ ( Y1 >> 24 ) & 0xFF ] << 24 );
 845              		.loc 1 880 0
 846 0244 5588E7E7 		ubfx	r8, r5, #16, #8
 883:D:/Work/DeviceTester/amazon-freertos/lib/third_party/mbedtls/library\aes.c ****             ( (uint32_t) FSb[ ( Y3       ) & 0xFF ]       ) ^
 847              		.loc 1 883 0
 848 0248 041021E0 		eor	r1, r1, r4
 887:D:/Work/DeviceTester/amazon-freertos/lib/third_party/mbedtls/library\aes.c **** 
 849              		.loc 1 887 0
 850 024c 264CD3E7 		ldrb	r4, [r3, r6, lsr #24]	@ zero_extendqisi2
 885:D:/Work/DeviceTester/amazon-freertos/lib/third_party/mbedtls/library\aes.c ****             ( (uint32_t) FSb[ ( Y1 >> 16 ) & 0xFF ] << 16 ) ^
 851              		.loc 1 885 0
 852 0250 5554E7E7 		ubfx	r5, r5, #8, #8
 853              	.LVL87:
 880:D:/Work/DeviceTester/amazon-freertos/lib/third_party/mbedtls/library\aes.c ****             ( (uint32_t) FSb[ ( Y1 >> 24 ) & 0xFF ] << 24 );
 854              		.loc 1 880 0
 855 0254 0880D3E7 		ldrb	r8, [r3, r8]	@ zero_extendqisi2
 890:D:/Work/DeviceTester/amazon-freertos/lib/third_party/mbedtls/library\aes.c ****     PUT_UINT32_LE( X1, output,  4 );
 856              		.loc 1 890 0
 857 0258 04E0C2E5 		strb	lr, [r2, #4]
 883:D:/Work/DeviceTester/amazon-freertos/lib/third_party/mbedtls/library\aes.c ****             ( (uint32_t) FSb[ ( Y3       ) & 0xFF ]       ) ^
 858              		.loc 1 883 0
 859 025c 041C21E0 		eor	r1, r1, r4, lsl #24
 885:D:/Work/DeviceTester/amazon-freertos/lib/third_party/mbedtls/library\aes.c ****             ( (uint32_t) FSb[ ( Y1 >> 16 ) & 0xFF ] << 16 ) ^
 860              		.loc 1 885 0
 861 0260 0540D3E7 		ldrb	r4, [r3, r5]	@ zero_extendqisi2
 886:D:/Work/DeviceTester/amazon-freertos/lib/third_party/mbedtls/library\aes.c ****             ( (uint32_t) FSb[ ( Y2 >> 24 ) & 0xFF ] << 24 );
 862              		.loc 1 886 0
 863 0264 0030D3E7 		ldrb	r3, [r3, r0]	@ zero_extendqisi2
 877:D:/Work/DeviceTester/amazon-freertos/lib/third_party/mbedtls/library\aes.c ****             ( (uint32_t) FSb[ ( Y2       ) & 0xFF ]       ) ^
 864              		.loc 1 877 0
 865 0268 08C82CE0 		eor	ip, ip, r8, lsl #16
 866              	.LVL88:
 891:D:/Work/DeviceTester/amazon-freertos/lib/third_party/mbedtls/library\aes.c ****     PUT_UINT32_LE( X2, output,  8 );
 892:D:/Work/DeviceTester/amazon-freertos/lib/third_party/mbedtls/library\aes.c ****     PUT_UINT32_LE( X3, output, 12 );
 893:D:/Work/DeviceTester/amazon-freertos/lib/third_party/mbedtls/library\aes.c **** 
 894:D:/Work/DeviceTester/amazon-freertos/lib/third_party/mbedtls/library\aes.c ****     return( 0 );
 895:D:/Work/DeviceTester/amazon-freertos/lib/third_party/mbedtls/library\aes.c **** }
 867              		.loc 1 895 0
 868 026c 0000A0E3 		mov	r0, #0
 891:D:/Work/DeviceTester/amazon-freertos/lib/third_party/mbedtls/library\aes.c ****     PUT_UINT32_LE( X2, output,  8 );
 869              		.loc 1 891 0
 870 0270 08C0C2E5 		strb	ip, [r2, #8]
 883:D:/Work/DeviceTester/amazon-freertos/lib/third_party/mbedtls/library\aes.c ****             ( (uint32_t) FSb[ ( Y3       ) & 0xFF ]       ) ^
 871              		.loc 1 883 0
 872 0274 041421E0 		eor	r1, r1, r4, lsl #8
 873 0278 033821E0 		eor	r3, r1, r3, lsl #16
 874              	.LVL89:
 889:D:/Work/DeviceTester/amazon-freertos/lib/third_party/mbedtls/library\aes.c ****     PUT_UINT32_LE( X1, output,  4 );
 875              		.loc 1 889 0
 876 027c 2714A0E1 		lsr	r1, r7, #8
 877 0280 0110C2E5 		strb	r1, [r2, #1]
 878 0284 2718A0E1 		lsr	r1, r7, #16
 892:D:/Work/DeviceTester/amazon-freertos/lib/third_party/mbedtls/library\aes.c **** 
 879              		.loc 1 892 0
 880 0288 0C30C2E5 		strb	r3, [r2, #12]
 889:D:/Work/DeviceTester/amazon-freertos/lib/third_party/mbedtls/library\aes.c ****     PUT_UINT32_LE( X1, output,  4 );
 881              		.loc 1 889 0
 882 028c 277CA0E1 		lsr	r7, r7, #24
 883              	.LVL90:
 884 0290 0210C2E5 		strb	r1, [r2, #2]
 890:D:/Work/DeviceTester/amazon-freertos/lib/third_party/mbedtls/library\aes.c ****     PUT_UINT32_LE( X2, output,  8 );
 885              		.loc 1 890 0
 886 0294 2E14A0E1 		lsr	r1, lr, #8
 889:D:/Work/DeviceTester/amazon-freertos/lib/third_party/mbedtls/library\aes.c ****     PUT_UINT32_LE( X1, output,  4 );
 887              		.loc 1 889 0
 888 0298 0370C2E5 		strb	r7, [r2, #3]
 890:D:/Work/DeviceTester/amazon-freertos/lib/third_party/mbedtls/library\aes.c ****     PUT_UINT32_LE( X2, output,  8 );
 889              		.loc 1 890 0
 890 029c 0510C2E5 		strb	r1, [r2, #5]
 891 02a0 2E18A0E1 		lsr	r1, lr, #16
 892 02a4 2EECA0E1 		lsr	lr, lr, #24
 893              	.LVL91:
 894 02a8 0610C2E5 		strb	r1, [r2, #6]
 891:D:/Work/DeviceTester/amazon-freertos/lib/third_party/mbedtls/library\aes.c ****     PUT_UINT32_LE( X3, output, 12 );
 895              		.loc 1 891 0
 896 02ac 2C14A0E1 		lsr	r1, ip, #8
 890:D:/Work/DeviceTester/amazon-freertos/lib/third_party/mbedtls/library\aes.c ****     PUT_UINT32_LE( X2, output,  8 );
 897              		.loc 1 890 0
 898 02b0 07E0C2E5 		strb	lr, [r2, #7]
 891:D:/Work/DeviceTester/amazon-freertos/lib/third_party/mbedtls/library\aes.c ****     PUT_UINT32_LE( X3, output, 12 );
 899              		.loc 1 891 0
 900 02b4 0910C2E5 		strb	r1, [r2, #9]
 901 02b8 2C18A0E1 		lsr	r1, ip, #16
 902 02bc 2CCCA0E1 		lsr	ip, ip, #24
 903              	.LVL92:
 904 02c0 0A10C2E5 		strb	r1, [r2, #10]
 892:D:/Work/DeviceTester/amazon-freertos/lib/third_party/mbedtls/library\aes.c **** 
 905              		.loc 1 892 0
 906 02c4 2314A0E1 		lsr	r1, r3, #8
 891:D:/Work/DeviceTester/amazon-freertos/lib/third_party/mbedtls/library\aes.c ****     PUT_UINT32_LE( X3, output, 12 );
 907              		.loc 1 891 0
 908 02c8 0BC0C2E5 		strb	ip, [r2, #11]
 892:D:/Work/DeviceTester/amazon-freertos/lib/third_party/mbedtls/library\aes.c **** 
 909              		.loc 1 892 0
 910 02cc 0D10C2E5 		strb	r1, [r2, #13]
 911 02d0 2318A0E1 		lsr	r1, r3, #16
 912 02d4 233CA0E1 		lsr	r3, r3, #24
 913              	.LVL93:
 914 02d8 0E10C2E5 		strb	r1, [r2, #14]
 915 02dc 0F30C2E5 		strb	r3, [r2, #15]
 916              		.loc 1 895 0
 917 02e0 0CD08DE2 		add	sp, sp, #12
 918              		.cfi_remember_state
 919              		.cfi_def_cfa_offset 36
 920              		@ sp needed
 921 02e4 F08FBDE8 		pop	{r4, r5, r6, r7, r8, r9, r10, fp, pc}
 922              	.LVL94:
 923              	.L43:
 924              		.cfi_restore_state
 859:D:/Work/DeviceTester/amazon-freertos/lib/third_party/mbedtls/library\aes.c ****         AES_FROUND( X0, X1, X2, X3, Y0, Y1, Y2, Y3 );
 925              		.loc 1 859 0 discriminator 3
 926 02e8 064197E7 		ldr	r4, [r7, r6, lsl #2]
 927              	.LVL95:
 928 02ec 2E6CA0E1 		lsr	r6, lr, #24
 929 02f0 0B5198E7 		ldr	r5, [r8, fp, lsl #2]
 930 02f4 7CB0EFE6 		uxtb	fp, ip
 931 02f8 066197E7 		ldr	r6, [r7, r6, lsl #2]
 932 02fc 0BB198E7 		ldr	fp, [r8, fp, lsl #2]
 933 0300 045025E0 		eor	r5, r5, r4
 934 0304 204010E5 		ldr	r4, [r0, #-32]
 935 0308 045025E0 		eor	r5, r5, r4
 936 030c 5344E7E7 		ubfx	r4, r3, #8, #8
 937 0310 044199E7 		ldr	r4, [r9, r4, lsl #2]
 938 0314 045025E0 		eor	r5, r5, r4
 939 0318 5C48E7E7 		ubfx	r4, ip, #16, #8
 940 031c 04419AE7 		ldr	r4, [r10, r4, lsl #2]
 941 0320 045025E0 		eor	r5, r5, r4
 942              	.LVL96:
 943 0324 7340EFE6 		uxtb	r4, r3
 944 0328 044198E7 		ldr	r4, [r8, r4, lsl #2]
 945 032c 064024E0 		eor	r4, r4, r6
 946 0330 1C6010E5 		ldr	r6, [r0, #-28]
 947 0334 064024E0 		eor	r4, r4, r6
 948 0338 5C64E7E7 		ubfx	r6, ip, #8, #8
 949 033c 066199E7 		ldr	r6, [r9, r6, lsl #2]
 950 0340 2CCCA0E1 		lsr	ip, ip, #24
 951              	.LVL97:
 952 0344 0CC197E7 		ldr	ip, [r7, ip, lsl #2]
 953 0348 064024E0 		eor	r4, r4, r6
 954 034c 5168E7E7 		ubfx	r6, r1, #16, #8
 955 0350 06619AE7 		ldr	r6, [r10, r6, lsl #2]
 956 0354 064024E0 		eor	r4, r4, r6
 957              	.LVL98:
 958 0358 236CA0E1 		lsr	r6, r3, #24
 959 035c 5338E7E7 		ubfx	r3, r3, #16, #8
 960              	.LVL99:
 961 0360 066197E7 		ldr	r6, [r7, r6, lsl #2]
 962 0364 03319AE7 		ldr	r3, [r10, r3, lsl #2]
 963 0368 0B6026E0 		eor	r6, r6, fp
 964 036c 18B010E5 		ldr	fp, [r0, #-24]
 965 0370 0B6026E0 		eor	r6, r6, fp
 966 0374 51B4E7E7 		ubfx	fp, r1, #8, #8
 967 0378 7110EFE6 		uxtb	r1, r1
 968              	.LVL100:
 969 037c 0BB199E7 		ldr	fp, [r9, fp, lsl #2]
 970 0380 011198E7 		ldr	r1, [r8, r1, lsl #2]
 971 0384 0B6026E0 		eor	r6, r6, fp
 972 0388 5EB8E7E7 		ubfx	fp, lr, #16, #8
 973 038c 5EE4E7E7 		ubfx	lr, lr, #8, #8
 974              	.LVL101:
 975 0390 0BB19AE7 		ldr	fp, [r10, fp, lsl #2]
 976 0394 0C1021E0 		eor	r1, r1, ip
 977 0398 14C010E5 		ldr	ip, [r0, #-20]
 978 039c 0B6026E0 		eor	r6, r6, fp
 979              	.LVL102:
 980 03a0 0C1021E0 		eor	r1, r1, ip
 981 03a4 0EC199E7 		ldr	ip, [r9, lr, lsl #2]
 860:D:/Work/DeviceTester/amazon-freertos/lib/third_party/mbedtls/library\aes.c ****     }
 982              		.loc 1 860 0 discriminator 3
 983 03a8 76B0EFE6 		uxtb	fp, r6
 859:D:/Work/DeviceTester/amazon-freertos/lib/third_party/mbedtls/library\aes.c ****         AES_FROUND( X0, X1, X2, X3, Y0, Y1, Y2, Y3 );
 984              		.loc 1 859 0 discriminator 3
 985 03ac 0C1021E0 		eor	r1, r1, ip
 860:D:/Work/DeviceTester/amazon-freertos/lib/third_party/mbedtls/library\aes.c ****     }
 986              		.loc 1 860 0 discriminator 3
 987 03b0 75C0EFE6 		uxtb	ip, r5
 859:D:/Work/DeviceTester/amazon-freertos/lib/third_party/mbedtls/library\aes.c ****         AES_FROUND( X0, X1, X2, X3, Y0, Y1, Y2, Y3 );
 988              		.loc 1 859 0 discriminator 3
 989 03b4 031021E0 		eor	r1, r1, r3
 990              	.LVL103:
 860:D:/Work/DeviceTester/amazon-freertos/lib/third_party/mbedtls/library\aes.c ****     }
 991              		.loc 1 860 0 discriminator 3
 992 03b8 0BB198E7 		ldr	fp, [r8, fp, lsl #2]
 993 03bc 213CA0E1 		lsr	r3, r1, #24
 994 03c0 0CE198E7 		ldr	lr, [r8, ip, lsl #2]
 995 03c4 25CCA0E1 		lsr	ip, r5, #24
 996 03c8 033197E7 		ldr	r3, [r7, r3, lsl #2]
 997 03cc 0CC197E7 		ldr	ip, [r7, ip, lsl #2]
 998 03d0 03E02EE0 		eor	lr, lr, r3
 999 03d4 103010E5 		ldr	r3, [r0, #-16]
 1000 03d8 03E02EE0 		eor	lr, lr, r3
 1001 03dc 5434E7E7 		ubfx	r3, r4, #8, #8
 1002 03e0 033199E7 		ldr	r3, [r9, r3, lsl #2]
 1003 03e4 03E02EE0 		eor	lr, lr, r3
 1004 03e8 5638E7E7 		ubfx	r3, r6, #16, #8
 1005 03ec 03319AE7 		ldr	r3, [r10, r3, lsl #2]
 1006 03f0 03E02EE0 		eor	lr, lr, r3
 1007              	.LVL104:
 1008 03f4 7430EFE6 		uxtb	r3, r4
 1009 03f8 033198E7 		ldr	r3, [r8, r3, lsl #2]
 1010 03fc 0C3023E0 		eor	r3, r3, ip
 1011 0400 0CC010E5 		ldr	ip, [r0, #-12]
 1012 0404 0C3023E0 		eor	r3, r3, ip
 1013 0408 56C4E7E7 		ubfx	ip, r6, #8, #8
 1014 040c 0CC199E7 		ldr	ip, [r9, ip, lsl #2]
 1015 0410 266CA0E1 		lsr	r6, r6, #24
 1016              	.LVL105:
 1017 0414 0C3023E0 		eor	r3, r3, ip
 1018 0418 51C8E7E7 		ubfx	ip, r1, #16, #8
 1019 041c 0CC19AE7 		ldr	ip, [r10, ip, lsl #2]
 1020 0420 0C3023E0 		eor	r3, r3, ip
 1021              	.LVL106:
 1022 0424 24CCA0E1 		lsr	ip, r4, #24
 1023 0428 5448E7E7 		ubfx	r4, r4, #16, #8
 1024              	.LVL107:
 1025 042c 0CC197E7 		ldr	ip, [r7, ip, lsl #2]
 1026 0430 0BC02CE0 		eor	ip, ip, fp
 1027 0434 08B010E5 		ldr	fp, [r0, #-8]
 1028 0438 066197E7 		ldr	r6, [r7, r6, lsl #2]
 1029 043c 04419AE7 		ldr	r4, [r10, r4, lsl #2]
 1030 0440 0BC02CE0 		eor	ip, ip, fp
 1031 0444 51B4E7E7 		ubfx	fp, r1, #8, #8
 1032 0448 7110EFE6 		uxtb	r1, r1
 1033              	.LVL108:
 1034 044c 0BB199E7 		ldr	fp, [r9, fp, lsl #2]
 1035 0450 011198E7 		ldr	r1, [r8, r1, lsl #2]
 1036 0454 0BC02CE0 		eor	ip, ip, fp
 1037 0458 55B8E7E7 		ubfx	fp, r5, #16, #8
 1038 045c 5554E7E7 		ubfx	r5, r5, #8, #8
 1039              	.LVL109:
 1040 0460 0BB19AE7 		ldr	fp, [r10, fp, lsl #2]
 1041 0464 061021E0 		eor	r1, r1, r6
 1042 0468 046010E5 		ldr	r6, [r0, #-4]
 1043 046c 055199E7 		ldr	r5, [r9, r5, lsl #2]
 1044 0470 0BC02CE0 		eor	ip, ip, fp
 1045              	.LVL110:
 1046 0474 061021E0 		eor	r1, r1, r6
 1047 0478 051021E0 		eor	r1, r1, r5
 1048 047c 005090E5 		ldr	r5, [r0]
 1049 0480 041021E0 		eor	r1, r1, r4
 1050              	.LVL111:
 857:D:/Work/DeviceTester/amazon-freertos/lib/third_party/mbedtls/library\aes.c ****     {
 1051              		.loc 1 857 0 discriminator 3
 1052 0484 04409DE5 		ldr	r4, [sp, #4]
 1053 0488 014044E2 		sub	r4, r4, #1
 1054 048c 04408DE5 		str	r4, [sp, #4]
 1055              	.LVL112:
 1056 0490 0AFFFFEA 		b	.L42
 1057              	.L46:
 1058              		.align	2
 1059              	.L45:
 1060 0494 00000000 		.word	.LANCHOR6
 1061 0498 00000000 		.word	.LANCHOR7
 1062 049c 00000000 		.word	.LANCHOR8
 1063 04a0 00000000 		.word	.LANCHOR9
 1064 04a4 00000000 		.word	.LANCHOR1
 1065              		.cfi_endproc
 1066              	.LFE5:
 1068              		.section	.text.mbedtls_internal_aes_decrypt,"ax",%progbits
 1069              		.align	2
 1070              		.global	mbedtls_internal_aes_decrypt
 1071              		.syntax unified
 1072              		.arm
 1073              		.fpu neon
 1075              	mbedtls_internal_aes_decrypt:
 1076              	.LFB6:
 896:D:/Work/DeviceTester/amazon-freertos/lib/third_party/mbedtls/library\aes.c **** #endif /* !MBEDTLS_AES_ENCRYPT_ALT */
 897:D:/Work/DeviceTester/amazon-freertos/lib/third_party/mbedtls/library\aes.c **** 
 898:D:/Work/DeviceTester/amazon-freertos/lib/third_party/mbedtls/library\aes.c **** #if !defined(MBEDTLS_DEPRECATED_REMOVED)
 899:D:/Work/DeviceTester/amazon-freertos/lib/third_party/mbedtls/library\aes.c **** void mbedtls_aes_encrypt( mbedtls_aes_context *ctx,
 900:D:/Work/DeviceTester/amazon-freertos/lib/third_party/mbedtls/library\aes.c ****                           const unsigned char input[16],
 901:D:/Work/DeviceTester/amazon-freertos/lib/third_party/mbedtls/library\aes.c ****                           unsigned char output[16] )
 902:D:/Work/DeviceTester/amazon-freertos/lib/third_party/mbedtls/library\aes.c **** {
 903:D:/Work/DeviceTester/amazon-freertos/lib/third_party/mbedtls/library\aes.c ****     mbedtls_internal_aes_encrypt( ctx, input, output );
 904:D:/Work/DeviceTester/amazon-freertos/lib/third_party/mbedtls/library\aes.c **** }
 905:D:/Work/DeviceTester/amazon-freertos/lib/third_party/mbedtls/library\aes.c **** #endif /* !MBEDTLS_DEPRECATED_REMOVED */
 906:D:/Work/DeviceTester/amazon-freertos/lib/third_party/mbedtls/library\aes.c **** 
 907:D:/Work/DeviceTester/amazon-freertos/lib/third_party/mbedtls/library\aes.c **** /*
 908:D:/Work/DeviceTester/amazon-freertos/lib/third_party/mbedtls/library\aes.c ****  * AES-ECB block decryption
 909:D:/Work/DeviceTester/amazon-freertos/lib/third_party/mbedtls/library\aes.c ****  */
 910:D:/Work/DeviceTester/amazon-freertos/lib/third_party/mbedtls/library\aes.c **** #if !defined(MBEDTLS_AES_DECRYPT_ALT)
 911:D:/Work/DeviceTester/amazon-freertos/lib/third_party/mbedtls/library\aes.c **** int mbedtls_internal_aes_decrypt( mbedtls_aes_context *ctx,
 912:D:/Work/DeviceTester/amazon-freertos/lib/third_party/mbedtls/library\aes.c ****                                   const unsigned char input[16],
 913:D:/Work/DeviceTester/amazon-freertos/lib/third_party/mbedtls/library\aes.c ****                                   unsigned char output[16] )
 914:D:/Work/DeviceTester/amazon-freertos/lib/third_party/mbedtls/library\aes.c **** {
 1077              		.loc 1 914 0
 1078              		.cfi_startproc
 1079              		@ args = 0, pretend = 0, frame = 8
 1080              		@ frame_needed = 0, uses_anonymous_args = 0
 1081              	.LVL113:
 1082 0000 F74F2DE9 		push	{r0, r1, r2, r4, r5, r6, r7, r8, r9, r10, fp, lr}
 1083              		.cfi_def_cfa_offset 48
 1084              		.cfi_offset 4, -36
 1085              		.cfi_offset 5, -32
 1086              		.cfi_offset 6, -28
 1087              		.cfi_offset 7, -24
 1088              		.cfi_offset 8, -20
 1089              		.cfi_offset 9, -16
 1090              		.cfi_offset 10, -12
 1091              		.cfi_offset 11, -8
 1092              		.cfi_offset 14, -4
 915:D:/Work/DeviceTester/amazon-freertos/lib/third_party/mbedtls/library\aes.c ****     int i;
 916:D:/Work/DeviceTester/amazon-freertos/lib/third_party/mbedtls/library\aes.c ****     uint32_t *RK, X0, X1, X2, X3, Y0, Y1, Y2, Y3;
 917:D:/Work/DeviceTester/amazon-freertos/lib/third_party/mbedtls/library\aes.c **** 
 918:D:/Work/DeviceTester/amazon-freertos/lib/third_party/mbedtls/library\aes.c ****     RK = ctx->rk;
 919:D:/Work/DeviceTester/amazon-freertos/lib/third_party/mbedtls/library\aes.c **** 
 920:D:/Work/DeviceTester/amazon-freertos/lib/third_party/mbedtls/library\aes.c ****     GET_UINT32_LE( X0, input,  0 ); X0 ^= *RK++;
 1093              		.loc 1 920 0
 1094 0004 0130D1E5 		ldrb	r3, [r1, #1]	@ zero_extendqisi2
 1095 0008 00E0D1E5 		ldrb	lr, [r1]	@ zero_extendqisi2
 918:D:/Work/DeviceTester/amazon-freertos/lib/third_party/mbedtls/library\aes.c **** 
 1096              		.loc 1 918 0
 1097 000c 045090E5 		ldr	r5, [r0, #4]
 1098              	.LVL114:
 921:D:/Work/DeviceTester/amazon-freertos/lib/third_party/mbedtls/library\aes.c ****     GET_UINT32_LE( X1, input,  4 ); X1 ^= *RK++;
 1099              		.loc 1 921 0
 1100 0010 04C0D1E5 		ldrb	ip, [r1, #4]	@ zero_extendqisi2
 922:D:/Work/DeviceTester/amazon-freertos/lib/third_party/mbedtls/library\aes.c ****     GET_UINT32_LE( X2, input,  8 ); X2 ^= *RK++;
 1101              		.loc 1 922 0
 1102 0014 0940D1E5 		ldrb	r4, [r1, #9]	@ zero_extendqisi2
 920:D:/Work/DeviceTester/amazon-freertos/lib/third_party/mbedtls/library\aes.c ****     GET_UINT32_LE( X1, input,  4 ); X1 ^= *RK++;
 1103              		.loc 1 920 0
 1104 0018 03E48EE1 		orr	lr, lr, r3, lsl #8
 1105 001c 0230D1E5 		ldrb	r3, [r1, #2]	@ zero_extendqisi2
 923:D:/Work/DeviceTester/amazon-freertos/lib/third_party/mbedtls/library\aes.c ****     GET_UINT32_LE( X3, input, 12 ); X3 ^= *RK++;
 1106              		.loc 1 923 0
 1107 0020 0D60D1E5 		ldrb	r6, [r1, #13]	@ zero_extendqisi2
 924:D:/Work/DeviceTester/amazon-freertos/lib/third_party/mbedtls/library\aes.c **** 
 925:D:/Work/DeviceTester/amazon-freertos/lib/third_party/mbedtls/library\aes.c ****     for( i = ( ctx->nr >> 1 ) - 1; i > 0; i-- )
 1108              		.loc 1 925 0
 1109 0024 000090E5 		ldr	r0, [r0]
 1110              	.LVL115:
 1111 0028 64849FE5 		ldr	r8, .L51
 920:D:/Work/DeviceTester/amazon-freertos/lib/third_party/mbedtls/library\aes.c ****     GET_UINT32_LE( X1, input,  4 ); X1 ^= *RK++;
 1112              		.loc 1 920 0
 1113 002c 03E88EE1 		orr	lr, lr, r3, lsl #16
 1114 0030 0330D1E5 		ldrb	r3, [r1, #3]	@ zero_extendqisi2
 1115 0034 5C749FE5 		ldr	r7, .L51+4
 1116              		.loc 1 925 0
 1117 0038 C000A0E1 		asr	r0, r0, #1
 926:D:/Work/DeviceTester/amazon-freertos/lib/third_party/mbedtls/library\aes.c ****     {
 927:D:/Work/DeviceTester/amazon-freertos/lib/third_party/mbedtls/library\aes.c ****         AES_RROUND( Y0, Y1, Y2, Y3, X0, X1, X2, X3 );
 1118              		.loc 1 927 0
 1119 003c 58949FE5 		ldr	r9, .L51+8
 1120 0040 58A49FE5 		ldr	r10, .L51+12
 920:D:/Work/DeviceTester/amazon-freertos/lib/third_party/mbedtls/library\aes.c ****     GET_UINT32_LE( X1, input,  4 ); X1 ^= *RK++;
 1121              		.loc 1 920 0
 1122 0044 03EC8EE1 		orr	lr, lr, r3, lsl #24
 1123              	.LVL116:
 1124 0048 003095E5 		ldr	r3, [r5]
 925:D:/Work/DeviceTester/amazon-freertos/lib/third_party/mbedtls/library\aes.c ****     {
 1125              		.loc 1 925 0
 1126 004c 010040E2 		sub	r0, r0, #1
 1127 0050 04008DE5 		str	r0, [sp, #4]
 923:D:/Work/DeviceTester/amazon-freertos/lib/third_party/mbedtls/library\aes.c **** 
 1128              		.loc 1 923 0
 1129 0054 0500A0E1 		mov	r0, r5
 920:D:/Work/DeviceTester/amazon-freertos/lib/third_party/mbedtls/library\aes.c ****     GET_UINT32_LE( X1, input,  4 ); X1 ^= *RK++;
 1130              		.loc 1 920 0
 1131 0058 03E02EE0 		eor	lr, lr, r3
 1132              	.LVL117:
 921:D:/Work/DeviceTester/amazon-freertos/lib/third_party/mbedtls/library\aes.c ****     GET_UINT32_LE( X2, input,  8 ); X2 ^= *RK++;
 1133              		.loc 1 921 0
 1134 005c 0530D1E5 		ldrb	r3, [r1, #5]	@ zero_extendqisi2
 1135 0060 03C48CE1 		orr	ip, ip, r3, lsl #8
 1136 0064 0630D1E5 		ldrb	r3, [r1, #6]	@ zero_extendqisi2
 1137 0068 03C88CE1 		orr	ip, ip, r3, lsl #16
 1138 006c 0730D1E5 		ldrb	r3, [r1, #7]	@ zero_extendqisi2
 1139 0070 03CC8CE1 		orr	ip, ip, r3, lsl #24
 1140              	.LVL118:
 1141 0074 043095E5 		ldr	r3, [r5, #4]
 1142 0078 03C02CE0 		eor	ip, ip, r3
 1143              	.LVL119:
 922:D:/Work/DeviceTester/amazon-freertos/lib/third_party/mbedtls/library\aes.c ****     GET_UINT32_LE( X3, input, 12 ); X3 ^= *RK++;
 1144              		.loc 1 922 0
 1145 007c 0830D1E5 		ldrb	r3, [r1, #8]	@ zero_extendqisi2
 1146 0080 043483E1 		orr	r3, r3, r4, lsl #8
 1147 0084 0A40D1E5 		ldrb	r4, [r1, #10]	@ zero_extendqisi2
 1148 0088 043883E1 		orr	r3, r3, r4, lsl #16
 1149 008c 0B40D1E5 		ldrb	r4, [r1, #11]	@ zero_extendqisi2
 1150 0090 043C83E1 		orr	r3, r3, r4, lsl #24
 1151              	.LVL120:
 1152 0094 084095E5 		ldr	r4, [r5, #8]
 1153 0098 043023E0 		eor	r3, r3, r4
 1154              	.LVL121:
 923:D:/Work/DeviceTester/amazon-freertos/lib/third_party/mbedtls/library\aes.c **** 
 1155              		.loc 1 923 0
 1156 009c 0C40D1E5 		ldrb	r4, [r1, #12]	@ zero_extendqisi2
 1157 00a0 064484E1 		orr	r4, r4, r6, lsl #8
 1158 00a4 0E60D1E5 		ldrb	r6, [r1, #14]	@ zero_extendqisi2
 1159 00a8 0F10D1E5 		ldrb	r1, [r1, #15]	@ zero_extendqisi2
 1160              	.LVL122:
 1161 00ac 064884E1 		orr	r4, r4, r6, lsl #16
 1162 00b0 011C84E1 		orr	r1, r4, r1, lsl #24
 1163              	.LVL123:
 1164 00b4 0C4095E5 		ldr	r4, [r5, #12]
 1165 00b8 1050B0E5 		ldr	r5, [r0, #16]!
 1166              	.LVL124:
 1167 00bc 041021E0 		eor	r1, r1, r4
 1168              	.LVL125:
 1169              	.L48:
 925:D:/Work/DeviceTester/amazon-freertos/lib/third_party/mbedtls/library\aes.c ****     {
 1170              		.loc 1 925 0 discriminator 1
 1171 00c0 04609DE5 		ldr	r6, [sp, #4]
 1172 00c4 0040A0E1 		mov	r4, r0
 1173              	.LVL126:
 1174 00c8 2CBCA0E1 		lsr	fp, ip, #24
 1175 00cc 200080E2 		add	r0, r0, #32
 1176 00d0 000056E3 		cmp	r6, #0
 1177 00d4 7E60EFE6 		uxtb	r6, lr
 1178              	.LVL127:
 1179 00d8 820000CA 		bgt	.L49
 1180              	.LVL128:
 928:D:/Work/DeviceTester/amazon-freertos/lib/third_party/mbedtls/library\aes.c ****         AES_RROUND( X0, X1, X2, X3, Y0, Y1, Y2, Y3 );
 929:D:/Work/DeviceTester/amazon-freertos/lib/third_party/mbedtls/library\aes.c ****     }
 930:D:/Work/DeviceTester/amazon-freertos/lib/third_party/mbedtls/library\aes.c **** 
 931:D:/Work/DeviceTester/amazon-freertos/lib/third_party/mbedtls/library\aes.c ****     AES_RROUND( Y0, Y1, Y2, Y3, X0, X1, X2, X3 );
 1181              		.loc 1 931 0
 1182 00dc 060198E7 		ldr	r0, [r8, r6, lsl #2]
 1183 00e0 0B6197E7 		ldr	r6, [r7, fp, lsl #2]
 1184 00e4 21BCA0E1 		lsr	fp, r1, #24
 1185 00e8 ACA39FE5 		ldr	r10, .L51+8
 1186 00ec AC939FE5 		ldr	r9, .L51+12
 1187 00f0 060020E0 		eor	r0, r0, r6
 1188 00f4 236CA0E1 		lsr	r6, r3, #24
 1189 00f8 005025E0 		eor	r5, r5, r0
 1190 00fc 0BB197E7 		ldr	fp, [r7, fp, lsl #2]
 1191 0100 5104E7E7 		ubfx	r0, r1, #8, #8
 1192 0104 066197E7 		ldr	r6, [r7, r6, lsl #2]
 1193 0108 00019AE7 		ldr	r0, [r10, r0, lsl #2]
 1194 010c 005025E0 		eor	r5, r5, r0
 1195 0110 5308E7E7 		ubfx	r0, r3, #16, #8
 1196 0114 000199E7 		ldr	r0, [r9, r0, lsl #2]
 1197 0118 005025E0 		eor	r5, r5, r0
 1198              	.LVL129:
 1199 011c 7C00EFE6 		uxtb	r0, ip
 1200 0120 000198E7 		ldr	r0, [r8, r0, lsl #2]
 1201 0124 060020E0 		eor	r0, r0, r6
 1202 0128 046094E5 		ldr	r6, [r4, #4]
 1203 012c 060020E0 		eor	r0, r0, r6
 1204 0130 5E64E7E7 		ubfx	r6, lr, #8, #8
 1205 0134 06619AE7 		ldr	r6, [r10, r6, lsl #2]
 1206 0138 060020E0 		eor	r0, r0, r6
 1207 013c 5168E7E7 		ubfx	r6, r1, #16, #8
 1208 0140 066199E7 		ldr	r6, [r9, r6, lsl #2]
 1209 0144 7110EFE6 		uxtb	r1, r1
 1210              	.LVL130:
 1211 0148 011198E7 		ldr	r1, [r8, r1, lsl #2]
 1212 014c 060020E0 		eor	r0, r0, r6
 1213              	.LVL131:
 1214 0150 7360EFE6 		uxtb	r6, r3
 1215 0154 5334E7E7 		ubfx	r3, r3, #8, #8
 1216              	.LVL132:
 1217 0158 066198E7 		ldr	r6, [r8, r6, lsl #2]
 1218 015c 03319AE7 		ldr	r3, [r10, r3, lsl #2]
 932:D:/Work/DeviceTester/amazon-freertos/lib/third_party/mbedtls/library\aes.c **** 
 933:D:/Work/DeviceTester/amazon-freertos/lib/third_party/mbedtls/library\aes.c ****     X0 = *RK++ ^ \
 934:D:/Work/DeviceTester/amazon-freertos/lib/third_party/mbedtls/library\aes.c ****             ( (uint32_t) RSb[ ( Y0       ) & 0xFF ]       ) ^
 935:D:/Work/DeviceTester/amazon-freertos/lib/third_party/mbedtls/library\aes.c ****             ( (uint32_t) RSb[ ( Y3 >>  8 ) & 0xFF ] <<  8 ) ^
 936:D:/Work/DeviceTester/amazon-freertos/lib/third_party/mbedtls/library\aes.c ****             ( (uint32_t) RSb[ ( Y2 >> 16 ) & 0xFF ] << 16 ) ^
 937:D:/Work/DeviceTester/amazon-freertos/lib/third_party/mbedtls/library\aes.c ****             ( (uint32_t) RSb[ ( Y1 >> 24 ) & 0xFF ] << 24 );
 938:D:/Work/DeviceTester/amazon-freertos/lib/third_party/mbedtls/library\aes.c **** 
 939:D:/Work/DeviceTester/amazon-freertos/lib/third_party/mbedtls/library\aes.c ****     X1 = *RK++ ^ \
 940:D:/Work/DeviceTester/amazon-freertos/lib/third_party/mbedtls/library\aes.c ****             ( (uint32_t) RSb[ ( Y1       ) & 0xFF ]       ) ^
 941:D:/Work/DeviceTester/amazon-freertos/lib/third_party/mbedtls/library\aes.c ****             ( (uint32_t) RSb[ ( Y0 >>  8 ) & 0xFF ] <<  8 ) ^
 942:D:/Work/DeviceTester/amazon-freertos/lib/third_party/mbedtls/library\aes.c ****             ( (uint32_t) RSb[ ( Y3 >> 16 ) & 0xFF ] << 16 ) ^
 943:D:/Work/DeviceTester/amazon-freertos/lib/third_party/mbedtls/library\aes.c ****             ( (uint32_t) RSb[ ( Y2 >> 24 ) & 0xFF ] << 24 );
 944:D:/Work/DeviceTester/amazon-freertos/lib/third_party/mbedtls/library\aes.c **** 
 945:D:/Work/DeviceTester/amazon-freertos/lib/third_party/mbedtls/library\aes.c ****     X2 = *RK++ ^ \
 1219              		.loc 1 945 0
 1220 0160 188094E5 		ldr	r8, [r4, #24]
 931:D:/Work/DeviceTester/amazon-freertos/lib/third_party/mbedtls/library\aes.c **** 
 1221              		.loc 1 931 0
 1222 0164 0B6026E0 		eor	r6, r6, fp
 1223 0168 08B094E5 		ldr	fp, [r4, #8]
 1224 016c 0B6026E0 		eor	r6, r6, fp
 1225 0170 5CB4E7E7 		ubfx	fp, ip, #8, #8
 1226 0174 0BB19AE7 		ldr	fp, [r10, fp, lsl #2]
 1227 0178 5CC8E7E7 		ubfx	ip, ip, #16, #8
 1228              	.LVL133:
 1229 017c 0B6026E0 		eor	r6, r6, fp
 1230 0180 5EB8E7E7 		ubfx	fp, lr, #16, #8
 1231 0184 2EECA0E1 		lsr	lr, lr, #24
 1232              	.LVL134:
 1233 0188 0BB199E7 		ldr	fp, [r9, fp, lsl #2]
 1234 018c 0EE197E7 		ldr	lr, [r7, lr, lsl #2]
 1235 0190 0B6026E0 		eor	r6, r6, fp
 1236              	.LVL135:
 1237 0194 0E1021E0 		eor	r1, r1, lr
 1238 0198 0CE094E5 		ldr	lr, [r4, #12]
 1239 019c 0E1021E0 		eor	r1, r1, lr
 1240 01a0 031021E0 		eor	r1, r1, r3
 1241 01a4 0C3199E7 		ldr	r3, [r9, ip, lsl #2]
 934:D:/Work/DeviceTester/amazon-freertos/lib/third_party/mbedtls/library\aes.c ****             ( (uint32_t) RSb[ ( Y3 >>  8 ) & 0xFF ] <<  8 ) ^
 1242              		.loc 1 934 0
 1243 01a8 75C0EFE6 		uxtb	ip, r5
 931:D:/Work/DeviceTester/amazon-freertos/lib/third_party/mbedtls/library\aes.c **** 
 1244              		.loc 1 931 0
 1245 01ac 031021E0 		eor	r1, r1, r3
 1246              	.LVL136:
 934:D:/Work/DeviceTester/amazon-freertos/lib/third_party/mbedtls/library\aes.c ****             ( (uint32_t) RSb[ ( Y3 >>  8 ) & 0xFF ] <<  8 ) ^
 1247              		.loc 1 934 0
 1248 01b0 EC329FE5 		ldr	r3, .L51+16
 1249 01b4 0C70D3E7 		ldrb	r7, [r3, ip]	@ zero_extendqisi2
 933:D:/Work/DeviceTester/amazon-freertos/lib/third_party/mbedtls/library\aes.c ****             ( (uint32_t) RSb[ ( Y0       ) & 0xFF ]       ) ^
 1250              		.loc 1 933 0
 1251 01b8 10C094E5 		ldr	ip, [r4, #16]
 1252 01bc 0C7027E0 		eor	r7, r7, ip
 937:D:/Work/DeviceTester/amazon-freertos/lib/third_party/mbedtls/library\aes.c **** 
 1253              		.loc 1 937 0
 1254 01c0 20CCD3E7 		ldrb	ip, [r3, r0, lsr #24]	@ zero_extendqisi2
 933:D:/Work/DeviceTester/amazon-freertos/lib/third_party/mbedtls/library\aes.c ****             ( (uint32_t) RSb[ ( Y0       ) & 0xFF ]       ) ^
 1255              		.loc 1 933 0
 1256 01c4 0C7C27E0 		eor	r7, r7, ip, lsl #24
 935:D:/Work/DeviceTester/amazon-freertos/lib/third_party/mbedtls/library\aes.c ****             ( (uint32_t) RSb[ ( Y2 >> 16 ) & 0xFF ] << 16 ) ^
 1257              		.loc 1 935 0
 1258 01c8 51C4E7E7 		ubfx	ip, r1, #8, #8
 1259 01cc 0CC0D3E7 		ldrb	ip, [r3, ip]	@ zero_extendqisi2
 933:D:/Work/DeviceTester/amazon-freertos/lib/third_party/mbedtls/library\aes.c ****             ( (uint32_t) RSb[ ( Y0       ) & 0xFF ]       ) ^
 1260              		.loc 1 933 0
 1261 01d0 0C7427E0 		eor	r7, r7, ip, lsl #8
 936:D:/Work/DeviceTester/amazon-freertos/lib/third_party/mbedtls/library\aes.c ****             ( (uint32_t) RSb[ ( Y1 >> 24 ) & 0xFF ] << 24 );
 1262              		.loc 1 936 0
 1263 01d4 56C8E7E7 		ubfx	ip, r6, #16, #8
 1264 01d8 0CC0D3E7 		ldrb	ip, [r3, ip]	@ zero_extendqisi2
 933:D:/Work/DeviceTester/amazon-freertos/lib/third_party/mbedtls/library\aes.c ****             ( (uint32_t) RSb[ ( Y0       ) & 0xFF ]       ) ^
 1265              		.loc 1 933 0
 1266 01dc 0C7827E0 		eor	r7, r7, ip, lsl #16
 1267              	.LVL137:
 940:D:/Work/DeviceTester/amazon-freertos/lib/third_party/mbedtls/library\aes.c ****             ( (uint32_t) RSb[ ( Y0 >>  8 ) & 0xFF ] <<  8 ) ^
 1268              		.loc 1 940 0
 1269 01e0 70C0EFE6 		uxtb	ip, r0
 1270 01e4 0CE0D3E7 		ldrb	lr, [r3, ip]	@ zero_extendqisi2
 939:D:/Work/DeviceTester/amazon-freertos/lib/third_party/mbedtls/library\aes.c ****             ( (uint32_t) RSb[ ( Y1       ) & 0xFF ]       ) ^
 1271              		.loc 1 939 0
 1272 01e8 14C094E5 		ldr	ip, [r4, #20]
 1273 01ec 0CE02EE0 		eor	lr, lr, ip
 943:D:/Work/DeviceTester/amazon-freertos/lib/third_party/mbedtls/library\aes.c **** 
 1274              		.loc 1 943 0
 1275 01f0 26CCD3E7 		ldrb	ip, [r3, r6, lsr #24]	@ zero_extendqisi2
 939:D:/Work/DeviceTester/amazon-freertos/lib/third_party/mbedtls/library\aes.c ****             ( (uint32_t) RSb[ ( Y1       ) & 0xFF ]       ) ^
 1276              		.loc 1 939 0
 1277 01f4 0CEC2EE0 		eor	lr, lr, ip, lsl #24
 941:D:/Work/DeviceTester/amazon-freertos/lib/third_party/mbedtls/library\aes.c ****             ( (uint32_t) RSb[ ( Y3 >> 16 ) & 0xFF ] << 16 ) ^
 1278              		.loc 1 941 0
 1279 01f8 55C4E7E7 		ubfx	ip, r5, #8, #8
 1280 01fc 0CC0D3E7 		ldrb	ip, [r3, ip]	@ zero_extendqisi2
 939:D:/Work/DeviceTester/amazon-freertos/lib/third_party/mbedtls/library\aes.c ****             ( (uint32_t) RSb[ ( Y1       ) & 0xFF ]       ) ^
 1281              		.loc 1 939 0
 1282 0200 0CE42EE0 		eor	lr, lr, ip, lsl #8
 942:D:/Work/DeviceTester/amazon-freertos/lib/third_party/mbedtls/library\aes.c ****             ( (uint32_t) RSb[ ( Y2 >> 24 ) & 0xFF ] << 24 );
 1283              		.loc 1 942 0
 1284 0204 51C8E7E7 		ubfx	ip, r1, #16, #8
 1285 0208 0CC0D3E7 		ldrb	ip, [r3, ip]	@ zero_extendqisi2
 939:D:/Work/DeviceTester/amazon-freertos/lib/third_party/mbedtls/library\aes.c ****             ( (uint32_t) RSb[ ( Y1       ) & 0xFF ]       ) ^
 1286              		.loc 1 939 0
 1287 020c 0CE82EE0 		eor	lr, lr, ip, lsl #16
 1288              	.LVL138:
 946:D:/Work/DeviceTester/amazon-freertos/lib/third_party/mbedtls/library\aes.c ****             ( (uint32_t) RSb[ ( Y2       ) & 0xFF ]       ) ^
 1289              		.loc 1 946 0
 1290 0210 76C0EFE6 		uxtb	ip, r6
 1291 0214 0CC0D3E7 		ldrb	ip, [r3, ip]	@ zero_extendqisi2
 947:D:/Work/DeviceTester/amazon-freertos/lib/third_party/mbedtls/library\aes.c ****             ( (uint32_t) RSb[ ( Y1 >>  8 ) & 0xFF ] <<  8 ) ^
 948:D:/Work/DeviceTester/amazon-freertos/lib/third_party/mbedtls/library\aes.c ****             ( (uint32_t) RSb[ ( Y0 >> 16 ) & 0xFF ] << 16 ) ^
 949:D:/Work/DeviceTester/amazon-freertos/lib/third_party/mbedtls/library\aes.c ****             ( (uint32_t) RSb[ ( Y3 >> 24 ) & 0xFF ] << 24 );
 950:D:/Work/DeviceTester/amazon-freertos/lib/third_party/mbedtls/library\aes.c **** 
 951:D:/Work/DeviceTester/amazon-freertos/lib/third_party/mbedtls/library\aes.c ****     X3 = *RK++ ^ \
 952:D:/Work/DeviceTester/amazon-freertos/lib/third_party/mbedtls/library\aes.c ****             ( (uint32_t) RSb[ ( Y3       ) & 0xFF ]       ) ^
 953:D:/Work/DeviceTester/amazon-freertos/lib/third_party/mbedtls/library\aes.c ****             ( (uint32_t) RSb[ ( Y2 >>  8 ) & 0xFF ] <<  8 ) ^
 1292              		.loc 1 953 0
 1293 0218 5664E7E7 		ubfx	r6, r6, #8, #8
 1294              	.LVL139:
 945:D:/Work/DeviceTester/amazon-freertos/lib/third_party/mbedtls/library\aes.c ****             ( (uint32_t) RSb[ ( Y2       ) & 0xFF ]       ) ^
 1295              		.loc 1 945 0
 1296 021c 08C02CE0 		eor	ip, ip, r8
 949:D:/Work/DeviceTester/amazon-freertos/lib/third_party/mbedtls/library\aes.c **** 
 1297              		.loc 1 949 0
 1298 0220 218CD3E7 		ldrb	r8, [r3, r1, lsr #24]	@ zero_extendqisi2
 952:D:/Work/DeviceTester/amazon-freertos/lib/third_party/mbedtls/library\aes.c ****             ( (uint32_t) RSb[ ( Y2 >>  8 ) & 0xFF ] <<  8 ) ^
 1299              		.loc 1 952 0
 1300 0224 7110EFE6 		uxtb	r1, r1
 1301              	.LVL140:
 945:D:/Work/DeviceTester/amazon-freertos/lib/third_party/mbedtls/library\aes.c ****             ( (uint32_t) RSb[ ( Y2       ) & 0xFF ]       ) ^
 1302              		.loc 1 945 0
 1303 0228 08CC2CE0 		eor	ip, ip, r8, lsl #24
 947:D:/Work/DeviceTester/amazon-freertos/lib/third_party/mbedtls/library\aes.c ****             ( (uint32_t) RSb[ ( Y0 >> 16 ) & 0xFF ] << 16 ) ^
 1304              		.loc 1 947 0
 1305 022c 5084E7E7 		ubfx	r8, r0, #8, #8
 1306 0230 0880D3E7 		ldrb	r8, [r3, r8]	@ zero_extendqisi2
 954:D:/Work/DeviceTester/amazon-freertos/lib/third_party/mbedtls/library\aes.c ****             ( (uint32_t) RSb[ ( Y1 >> 16 ) & 0xFF ] << 16 ) ^
 1307              		.loc 1 954 0
 1308 0234 5008E7E7 		ubfx	r0, r0, #16, #8
 1309              	.LVL141:
 951:D:/Work/DeviceTester/amazon-freertos/lib/third_party/mbedtls/library\aes.c ****             ( (uint32_t) RSb[ ( Y3       ) & 0xFF ]       ) ^
 1310              		.loc 1 951 0
 1311 0238 1C4094E5 		ldr	r4, [r4, #28]
 1312              	.LVL142:
 952:D:/Work/DeviceTester/amazon-freertos/lib/third_party/mbedtls/library\aes.c ****             ( (uint32_t) RSb[ ( Y2 >>  8 ) & 0xFF ] <<  8 ) ^
 1313              		.loc 1 952 0
 1314 023c 0110D3E7 		ldrb	r1, [r3, r1]	@ zero_extendqisi2
 955:D:/Work/DeviceTester/amazon-freertos/lib/third_party/mbedtls/library\aes.c ****             ( (uint32_t) RSb[ ( Y0 >> 24 ) & 0xFF ] << 24 );
 956:D:/Work/DeviceTester/amazon-freertos/lib/third_party/mbedtls/library\aes.c **** 
 957:D:/Work/DeviceTester/amazon-freertos/lib/third_party/mbedtls/library\aes.c ****     PUT_UINT32_LE( X0, output,  0 );
 1315              		.loc 1 957 0
 1316 0240 0070C2E5 		strb	r7, [r2]
 945:D:/Work/DeviceTester/amazon-freertos/lib/third_party/mbedtls/library\aes.c ****             ( (uint32_t) RSb[ ( Y2       ) & 0xFF ]       ) ^
 1317              		.loc 1 945 0
 1318 0244 08C42CE0 		eor	ip, ip, r8, lsl #8
 948:D:/Work/DeviceTester/amazon-freertos/lib/third_party/mbedtls/library\aes.c ****             ( (uint32_t) RSb[ ( Y3 >> 24 ) & 0xFF ] << 24 );
 1319              		.loc 1 948 0
 1320 0248 5588E7E7 		ubfx	r8, r5, #16, #8
 951:D:/Work/DeviceTester/amazon-freertos/lib/third_party/mbedtls/library\aes.c ****             ( (uint32_t) RSb[ ( Y3       ) & 0xFF ]       ) ^
 1321              		.loc 1 951 0
 1322 024c 041021E0 		eor	r1, r1, r4
 955:D:/Work/DeviceTester/amazon-freertos/lib/third_party/mbedtls/library\aes.c **** 
 1323              		.loc 1 955 0
 1324 0250 254CD3E7 		ldrb	r4, [r3, r5, lsr #24]	@ zero_extendqisi2
 948:D:/Work/DeviceTester/amazon-freertos/lib/third_party/mbedtls/library\aes.c ****             ( (uint32_t) RSb[ ( Y3 >> 24 ) & 0xFF ] << 24 );
 1325              		.loc 1 948 0
 1326 0254 0880D3E7 		ldrb	r8, [r3, r8]	@ zero_extendqisi2
 958:D:/Work/DeviceTester/amazon-freertos/lib/third_party/mbedtls/library\aes.c ****     PUT_UINT32_LE( X1, output,  4 );
 1327              		.loc 1 958 0
 1328 0258 04E0C2E5 		strb	lr, [r2, #4]
 951:D:/Work/DeviceTester/amazon-freertos/lib/third_party/mbedtls/library\aes.c ****             ( (uint32_t) RSb[ ( Y3       ) & 0xFF ]       ) ^
 1329              		.loc 1 951 0
 1330 025c 041C21E0 		eor	r1, r1, r4, lsl #24
 953:D:/Work/DeviceTester/amazon-freertos/lib/third_party/mbedtls/library\aes.c ****             ( (uint32_t) RSb[ ( Y1 >> 16 ) & 0xFF ] << 16 ) ^
 1331              		.loc 1 953 0
 1332 0260 0640D3E7 		ldrb	r4, [r3, r6]	@ zero_extendqisi2
 954:D:/Work/DeviceTester/amazon-freertos/lib/third_party/mbedtls/library\aes.c ****             ( (uint32_t) RSb[ ( Y0 >> 24 ) & 0xFF ] << 24 );
 1333              		.loc 1 954 0
 1334 0264 0030D3E7 		ldrb	r3, [r3, r0]	@ zero_extendqisi2
 945:D:/Work/DeviceTester/amazon-freertos/lib/third_party/mbedtls/library\aes.c ****             ( (uint32_t) RSb[ ( Y2       ) & 0xFF ]       ) ^
 1335              		.loc 1 945 0
 1336 0268 08C82CE0 		eor	ip, ip, r8, lsl #16
 1337              	.LVL143:
 959:D:/Work/DeviceTester/amazon-freertos/lib/third_party/mbedtls/library\aes.c ****     PUT_UINT32_LE( X2, output,  8 );
 960:D:/Work/DeviceTester/amazon-freertos/lib/third_party/mbedtls/library\aes.c ****     PUT_UINT32_LE( X3, output, 12 );
 961:D:/Work/DeviceTester/amazon-freertos/lib/third_party/mbedtls/library\aes.c **** 
 962:D:/Work/DeviceTester/amazon-freertos/lib/third_party/mbedtls/library\aes.c ****     return( 0 );
 963:D:/Work/DeviceTester/amazon-freertos/lib/third_party/mbedtls/library\aes.c **** }
 1338              		.loc 1 963 0
 1339 026c 0000A0E3 		mov	r0, #0
 959:D:/Work/DeviceTester/amazon-freertos/lib/third_party/mbedtls/library\aes.c ****     PUT_UINT32_LE( X2, output,  8 );
 1340              		.loc 1 959 0
 1341 0270 08C0C2E5 		strb	ip, [r2, #8]
 951:D:/Work/DeviceTester/amazon-freertos/lib/third_party/mbedtls/library\aes.c ****             ( (uint32_t) RSb[ ( Y3       ) & 0xFF ]       ) ^
 1342              		.loc 1 951 0
 1343 0274 041421E0 		eor	r1, r1, r4, lsl #8
 1344 0278 033821E0 		eor	r3, r1, r3, lsl #16
 1345              	.LVL144:
 957:D:/Work/DeviceTester/amazon-freertos/lib/third_party/mbedtls/library\aes.c ****     PUT_UINT32_LE( X1, output,  4 );
 1346              		.loc 1 957 0
 1347 027c 2714A0E1 		lsr	r1, r7, #8
 1348 0280 0110C2E5 		strb	r1, [r2, #1]
 1349 0284 2718A0E1 		lsr	r1, r7, #16
 960:D:/Work/DeviceTester/amazon-freertos/lib/third_party/mbedtls/library\aes.c **** 
 1350              		.loc 1 960 0
 1351 0288 0C30C2E5 		strb	r3, [r2, #12]
 957:D:/Work/DeviceTester/amazon-freertos/lib/third_party/mbedtls/library\aes.c ****     PUT_UINT32_LE( X1, output,  4 );
 1352              		.loc 1 957 0
 1353 028c 277CA0E1 		lsr	r7, r7, #24
 1354              	.LVL145:
 1355 0290 0210C2E5 		strb	r1, [r2, #2]
 958:D:/Work/DeviceTester/amazon-freertos/lib/third_party/mbedtls/library\aes.c ****     PUT_UINT32_LE( X2, output,  8 );
 1356              		.loc 1 958 0
 1357 0294 2E14A0E1 		lsr	r1, lr, #8
 957:D:/Work/DeviceTester/amazon-freertos/lib/third_party/mbedtls/library\aes.c ****     PUT_UINT32_LE( X1, output,  4 );
 1358              		.loc 1 957 0
 1359 0298 0370C2E5 		strb	r7, [r2, #3]
 958:D:/Work/DeviceTester/amazon-freertos/lib/third_party/mbedtls/library\aes.c ****     PUT_UINT32_LE( X2, output,  8 );
 1360              		.loc 1 958 0
 1361 029c 0510C2E5 		strb	r1, [r2, #5]
 1362 02a0 2E18A0E1 		lsr	r1, lr, #16
 1363 02a4 2EECA0E1 		lsr	lr, lr, #24
 1364              	.LVL146:
 1365 02a8 0610C2E5 		strb	r1, [r2, #6]
 959:D:/Work/DeviceTester/amazon-freertos/lib/third_party/mbedtls/library\aes.c ****     PUT_UINT32_LE( X3, output, 12 );
 1366              		.loc 1 959 0
 1367 02ac 2C14A0E1 		lsr	r1, ip, #8
 958:D:/Work/DeviceTester/amazon-freertos/lib/third_party/mbedtls/library\aes.c ****     PUT_UINT32_LE( X2, output,  8 );
 1368              		.loc 1 958 0
 1369 02b0 07E0C2E5 		strb	lr, [r2, #7]
 959:D:/Work/DeviceTester/amazon-freertos/lib/third_party/mbedtls/library\aes.c ****     PUT_UINT32_LE( X3, output, 12 );
 1370              		.loc 1 959 0
 1371 02b4 0910C2E5 		strb	r1, [r2, #9]
 1372 02b8 2C18A0E1 		lsr	r1, ip, #16
 1373 02bc 2CCCA0E1 		lsr	ip, ip, #24
 1374              	.LVL147:
 1375 02c0 0A10C2E5 		strb	r1, [r2, #10]
 960:D:/Work/DeviceTester/amazon-freertos/lib/third_party/mbedtls/library\aes.c **** 
 1376              		.loc 1 960 0
 1377 02c4 2314A0E1 		lsr	r1, r3, #8
 959:D:/Work/DeviceTester/amazon-freertos/lib/third_party/mbedtls/library\aes.c ****     PUT_UINT32_LE( X3, output, 12 );
 1378              		.loc 1 959 0
 1379 02c8 0BC0C2E5 		strb	ip, [r2, #11]
 960:D:/Work/DeviceTester/amazon-freertos/lib/third_party/mbedtls/library\aes.c **** 
 1380              		.loc 1 960 0
 1381 02cc 0D10C2E5 		strb	r1, [r2, #13]
 1382 02d0 2318A0E1 		lsr	r1, r3, #16
 1383 02d4 233CA0E1 		lsr	r3, r3, #24
 1384              	.LVL148:
 1385 02d8 0E10C2E5 		strb	r1, [r2, #14]
 1386 02dc 0F30C2E5 		strb	r3, [r2, #15]
 1387              		.loc 1 963 0
 1388 02e0 0CD08DE2 		add	sp, sp, #12
 1389              		.cfi_remember_state
 1390              		.cfi_def_cfa_offset 36
 1391              		@ sp needed
 1392 02e4 F08FBDE8 		pop	{r4, r5, r6, r7, r8, r9, r10, fp, pc}
 1393              	.LVL149:
 1394              	.L49:
 1395              		.cfi_restore_state
 927:D:/Work/DeviceTester/amazon-freertos/lib/third_party/mbedtls/library\aes.c ****         AES_RROUND( X0, X1, X2, X3, Y0, Y1, Y2, Y3 );
 1396              		.loc 1 927 0 discriminator 3
 1397 02e8 0B4197E7 		ldr	r4, [r7, fp, lsl #2]
 1398              	.LVL150:
 1399 02ec 235CA0E1 		lsr	r5, r3, #24
 1400 02f0 066198E7 		ldr	r6, [r8, r6, lsl #2]
 1401 02f4 73B0EFE6 		uxtb	fp, r3
 1402 02f8 055197E7 		ldr	r5, [r7, r5, lsl #2]
 1403 02fc 0BB198E7 		ldr	fp, [r8, fp, lsl #2]
 1404 0300 046026E0 		eor	r6, r6, r4
 1405 0304 204010E5 		ldr	r4, [r0, #-32]
 1406 0308 046026E0 		eor	r6, r6, r4
 1407 030c 5144E7E7 		ubfx	r4, r1, #8, #8
 1408 0310 044199E7 		ldr	r4, [r9, r4, lsl #2]
 1409 0314 046026E0 		eor	r6, r6, r4
 1410 0318 5348E7E7 		ubfx	r4, r3, #16, #8
 1411 031c 04419AE7 		ldr	r4, [r10, r4, lsl #2]
 1412 0320 5334E7E7 		ubfx	r3, r3, #8, #8
 1413              	.LVL151:
 1414 0324 033199E7 		ldr	r3, [r9, r3, lsl #2]
 1415 0328 046026E0 		eor	r6, r6, r4
 1416              	.LVL152:
 1417 032c 7C40EFE6 		uxtb	r4, ip
 1418 0330 044198E7 		ldr	r4, [r8, r4, lsl #2]
 1419 0334 054024E0 		eor	r4, r4, r5
 1420 0338 1C5010E5 		ldr	r5, [r0, #-28]
 1421 033c 054024E0 		eor	r4, r4, r5
 1422 0340 5E54E7E7 		ubfx	r5, lr, #8, #8
 1423 0344 055199E7 		ldr	r5, [r9, r5, lsl #2]
 1424 0348 054024E0 		eor	r4, r4, r5
 1425 034c 5158E7E7 		ubfx	r5, r1, #16, #8
 1426 0350 05519AE7 		ldr	r5, [r10, r5, lsl #2]
 1427 0354 054024E0 		eor	r4, r4, r5
 1428              	.LVL153:
 1429 0358 215CA0E1 		lsr	r5, r1, #24
 1430 035c 7110EFE6 		uxtb	r1, r1
 1431              	.LVL154:
 1432 0360 055197E7 		ldr	r5, [r7, r5, lsl #2]
 1433 0364 011198E7 		ldr	r1, [r8, r1, lsl #2]
 1434 0368 0B5025E0 		eor	r5, r5, fp
 1435 036c 18B010E5 		ldr	fp, [r0, #-24]
 1436 0370 0B5025E0 		eor	r5, r5, fp
 1437 0374 5CB4E7E7 		ubfx	fp, ip, #8, #8
 1438 0378 0BB199E7 		ldr	fp, [r9, fp, lsl #2]
 1439 037c 5CC8E7E7 		ubfx	ip, ip, #16, #8
 1440              	.LVL155:
 1441 0380 0B5025E0 		eor	r5, r5, fp
 1442 0384 5EB8E7E7 		ubfx	fp, lr, #16, #8
 1443 0388 2EECA0E1 		lsr	lr, lr, #24
 1444              	.LVL156:
 1445 038c 0BB19AE7 		ldr	fp, [r10, fp, lsl #2]
 1446 0390 0EE197E7 		ldr	lr, [r7, lr, lsl #2]
 1447 0394 0B5025E0 		eor	r5, r5, fp
 1448              	.LVL157:
 928:D:/Work/DeviceTester/amazon-freertos/lib/third_party/mbedtls/library\aes.c ****     }
 1449              		.loc 1 928 0 discriminator 3
 1450 0398 75B0EFE6 		uxtb	fp, r5
 927:D:/Work/DeviceTester/amazon-freertos/lib/third_party/mbedtls/library\aes.c ****         AES_RROUND( X0, X1, X2, X3, Y0, Y1, Y2, Y3 );
 1451              		.loc 1 927 0 discriminator 3
 1452 039c 0E1021E0 		eor	r1, r1, lr
 1453 03a0 14E010E5 		ldr	lr, [r0, #-20]
 928:D:/Work/DeviceTester/amazon-freertos/lib/third_party/mbedtls/library\aes.c ****     }
 1454              		.loc 1 928 0 discriminator 3
 1455 03a4 0BB198E7 		ldr	fp, [r8, fp, lsl #2]
 927:D:/Work/DeviceTester/amazon-freertos/lib/third_party/mbedtls/library\aes.c ****         AES_RROUND( X0, X1, X2, X3, Y0, Y1, Y2, Y3 );
 1456              		.loc 1 927 0 discriminator 3
 1457 03a8 0E1021E0 		eor	r1, r1, lr
 1458 03ac 031021E0 		eor	r1, r1, r3
 1459 03b0 0C319AE7 		ldr	r3, [r10, ip, lsl #2]
 928:D:/Work/DeviceTester/amazon-freertos/lib/third_party/mbedtls/library\aes.c ****     }
 1460              		.loc 1 928 0 discriminator 3
 1461 03b4 76C0EFE6 		uxtb	ip, r6
 927:D:/Work/DeviceTester/amazon-freertos/lib/third_party/mbedtls/library\aes.c ****         AES_RROUND( X0, X1, X2, X3, Y0, Y1, Y2, Y3 );
 1462              		.loc 1 927 0 discriminator 3
 1463 03b8 031021E0 		eor	r1, r1, r3
 1464              	.LVL158:
 928:D:/Work/DeviceTester/amazon-freertos/lib/third_party/mbedtls/library\aes.c ****     }
 1465              		.loc 1 928 0 discriminator 3
 1466 03bc 243CA0E1 		lsr	r3, r4, #24
 1467 03c0 0CE198E7 		ldr	lr, [r8, ip, lsl #2]
 1468 03c4 74C0EFE6 		uxtb	ip, r4
 1469 03c8 033197E7 		ldr	r3, [r7, r3, lsl #2]
 1470 03cc 0CC198E7 		ldr	ip, [r8, ip, lsl #2]
 1471 03d0 03E02EE0 		eor	lr, lr, r3
 1472 03d4 103010E5 		ldr	r3, [r0, #-16]
 1473 03d8 03E02EE0 		eor	lr, lr, r3
 1474 03dc 5134E7E7 		ubfx	r3, r1, #8, #8
 1475 03e0 033199E7 		ldr	r3, [r9, r3, lsl #2]
 1476 03e4 03E02EE0 		eor	lr, lr, r3
 1477 03e8 5538E7E7 		ubfx	r3, r5, #16, #8
 1478 03ec 03319AE7 		ldr	r3, [r10, r3, lsl #2]
 1479 03f0 03E02EE0 		eor	lr, lr, r3
 1480              	.LVL159:
 1481 03f4 253CA0E1 		lsr	r3, r5, #24
 1482 03f8 5554E7E7 		ubfx	r5, r5, #8, #8
 1483              	.LVL160:
 1484 03fc 033197E7 		ldr	r3, [r7, r3, lsl #2]
 1485 0400 03C02CE0 		eor	ip, ip, r3
 1486 0404 0C3010E5 		ldr	r3, [r0, #-12]
 1487 0408 03C02CE0 		eor	ip, ip, r3
 1488 040c 5634E7E7 		ubfx	r3, r6, #8, #8
 1489 0410 033199E7 		ldr	r3, [r9, r3, lsl #2]
 1490 0414 03C02CE0 		eor	ip, ip, r3
 1491 0418 5138E7E7 		ubfx	r3, r1, #16, #8
 1492 041c 03319AE7 		ldr	r3, [r10, r3, lsl #2]
 1493 0420 03C02CE0 		eor	ip, ip, r3
 1494              	.LVL161:
 1495 0424 213CA0E1 		lsr	r3, r1, #24
 1496 0428 7110EFE6 		uxtb	r1, r1
 1497              	.LVL162:
 1498 042c 033197E7 		ldr	r3, [r7, r3, lsl #2]
 1499 0430 0B3023E0 		eor	r3, r3, fp
 1500 0434 08B010E5 		ldr	fp, [r0, #-8]
 1501 0438 011198E7 		ldr	r1, [r8, r1, lsl #2]
 1502 043c 055199E7 		ldr	r5, [r9, r5, lsl #2]
 1503 0440 0B3023E0 		eor	r3, r3, fp
 1504 0444 54B4E7E7 		ubfx	fp, r4, #8, #8
 1505 0448 0BB199E7 		ldr	fp, [r9, fp, lsl #2]
 1506 044c 5448E7E7 		ubfx	r4, r4, #16, #8
 1507              	.LVL163:
 1508 0450 04419AE7 		ldr	r4, [r10, r4, lsl #2]
 1509 0454 0B3023E0 		eor	r3, r3, fp
 1510 0458 56B8E7E7 		ubfx	fp, r6, #16, #8
 1511 045c 266CA0E1 		lsr	r6, r6, #24
 1512              	.LVL164:
 1513 0460 0BB19AE7 		ldr	fp, [r10, fp, lsl #2]
 1514 0464 066197E7 		ldr	r6, [r7, r6, lsl #2]
 1515 0468 0B3023E0 		eor	r3, r3, fp
 1516              	.LVL165:
 1517 046c 061021E0 		eor	r1, r1, r6
 1518 0470 046010E5 		ldr	r6, [r0, #-4]
 1519 0474 061021E0 		eor	r1, r1, r6
 1520 0478 051021E0 		eor	r1, r1, r5
 1521 047c 005090E5 		ldr	r5, [r0]
 1522 0480 041021E0 		eor	r1, r1, r4
 1523              	.LVL166:
 925:D:/Work/DeviceTester/amazon-freertos/lib/third_party/mbedtls/library\aes.c ****     {
 1524              		.loc 1 925 0 discriminator 3
 1525 0484 04409DE5 		ldr	r4, [sp, #4]
 1526 0488 014044E2 		sub	r4, r4, #1
 1527 048c 04408DE5 		str	r4, [sp, #4]
 1528              	.LVL167:
 1529 0490 0AFFFFEA 		b	.L48
 1530              	.L52:
 1531              		.align	2
 1532              	.L51:
 1533 0494 00000000 		.word	.LANCHOR2
 1534 0498 00000000 		.word	.LANCHOR3
 1535 049c 00000000 		.word	.LANCHOR4
 1536 04a0 00000000 		.word	.LANCHOR5
 1537 04a4 00000000 		.word	.LANCHOR10
 1538              		.cfi_endproc
 1539              	.LFE6:
 1541              		.section	.text.mbedtls_aes_crypt_ecb,"ax",%progbits
 1542              		.align	2
 1543              		.global	mbedtls_aes_crypt_ecb
 1544              		.syntax unified
 1545              		.arm
 1546              		.fpu neon
 1548              	mbedtls_aes_crypt_ecb:
 1549              	.LFB7:
 964:D:/Work/DeviceTester/amazon-freertos/lib/third_party/mbedtls/library\aes.c **** #endif /* !MBEDTLS_AES_DECRYPT_ALT */
 965:D:/Work/DeviceTester/amazon-freertos/lib/third_party/mbedtls/library\aes.c **** 
 966:D:/Work/DeviceTester/amazon-freertos/lib/third_party/mbedtls/library\aes.c **** #if !defined(MBEDTLS_DEPRECATED_REMOVED)
 967:D:/Work/DeviceTester/amazon-freertos/lib/third_party/mbedtls/library\aes.c **** void mbedtls_aes_decrypt( mbedtls_aes_context *ctx,
 968:D:/Work/DeviceTester/amazon-freertos/lib/third_party/mbedtls/library\aes.c ****                           const unsigned char input[16],
 969:D:/Work/DeviceTester/amazon-freertos/lib/third_party/mbedtls/library\aes.c ****                           unsigned char output[16] )
 970:D:/Work/DeviceTester/amazon-freertos/lib/third_party/mbedtls/library\aes.c **** {
 971:D:/Work/DeviceTester/amazon-freertos/lib/third_party/mbedtls/library\aes.c ****     mbedtls_internal_aes_decrypt( ctx, input, output );
 972:D:/Work/DeviceTester/amazon-freertos/lib/third_party/mbedtls/library\aes.c **** }
 973:D:/Work/DeviceTester/amazon-freertos/lib/third_party/mbedtls/library\aes.c **** #endif /* !MBEDTLS_DEPRECATED_REMOVED */
 974:D:/Work/DeviceTester/amazon-freertos/lib/third_party/mbedtls/library\aes.c **** 
 975:D:/Work/DeviceTester/amazon-freertos/lib/third_party/mbedtls/library\aes.c **** /*
 976:D:/Work/DeviceTester/amazon-freertos/lib/third_party/mbedtls/library\aes.c ****  * AES-ECB block encryption/decryption
 977:D:/Work/DeviceTester/amazon-freertos/lib/third_party/mbedtls/library\aes.c ****  */
 978:D:/Work/DeviceTester/amazon-freertos/lib/third_party/mbedtls/library\aes.c **** int mbedtls_aes_crypt_ecb( mbedtls_aes_context *ctx,
 979:D:/Work/DeviceTester/amazon-freertos/lib/third_party/mbedtls/library\aes.c ****                     int mode,
 980:D:/Work/DeviceTester/amazon-freertos/lib/third_party/mbedtls/library\aes.c ****                     const unsigned char input[16],
 981:D:/Work/DeviceTester/amazon-freertos/lib/third_party/mbedtls/library\aes.c ****                     unsigned char output[16] )
 982:D:/Work/DeviceTester/amazon-freertos/lib/third_party/mbedtls/library\aes.c **** {
 1550              		.loc 1 982 0
 1551              		.cfi_startproc
 1552              		@ args = 0, pretend = 0, frame = 0
 1553              		@ frame_needed = 0, uses_anonymous_args = 0
 1554              		@ link register save eliminated.
 1555              	.LVL168:
 983:D:/Work/DeviceTester/amazon-freertos/lib/third_party/mbedtls/library\aes.c **** #if defined(MBEDTLS_AESNI_C) && defined(MBEDTLS_HAVE_X86_64)
 984:D:/Work/DeviceTester/amazon-freertos/lib/third_party/mbedtls/library\aes.c ****     if( mbedtls_aesni_has_support( MBEDTLS_AESNI_AES ) )
 985:D:/Work/DeviceTester/amazon-freertos/lib/third_party/mbedtls/library\aes.c ****         return( mbedtls_aesni_crypt_ecb( ctx, mode, input, output ) );
 986:D:/Work/DeviceTester/amazon-freertos/lib/third_party/mbedtls/library\aes.c **** #endif
 987:D:/Work/DeviceTester/amazon-freertos/lib/third_party/mbedtls/library\aes.c **** 
 988:D:/Work/DeviceTester/amazon-freertos/lib/third_party/mbedtls/library\aes.c **** #if defined(MBEDTLS_PADLOCK_C) && defined(MBEDTLS_HAVE_X86)
 989:D:/Work/DeviceTester/amazon-freertos/lib/third_party/mbedtls/library\aes.c ****     if( aes_padlock_ace )
 990:D:/Work/DeviceTester/amazon-freertos/lib/third_party/mbedtls/library\aes.c ****     {
 991:D:/Work/DeviceTester/amazon-freertos/lib/third_party/mbedtls/library\aes.c ****         if( mbedtls_padlock_xcryptecb( ctx, mode, input, output ) == 0 )
 992:D:/Work/DeviceTester/amazon-freertos/lib/third_party/mbedtls/library\aes.c ****             return( 0 );
 993:D:/Work/DeviceTester/amazon-freertos/lib/third_party/mbedtls/library\aes.c **** 
 994:D:/Work/DeviceTester/amazon-freertos/lib/third_party/mbedtls/library\aes.c ****         // If padlock data misaligned, we just fall back to
 995:D:/Work/DeviceTester/amazon-freertos/lib/third_party/mbedtls/library\aes.c ****         // unaccelerated mode
 996:D:/Work/DeviceTester/amazon-freertos/lib/third_party/mbedtls/library\aes.c ****         //
 997:D:/Work/DeviceTester/amazon-freertos/lib/third_party/mbedtls/library\aes.c ****     }
 998:D:/Work/DeviceTester/amazon-freertos/lib/third_party/mbedtls/library\aes.c **** #endif
 999:D:/Work/DeviceTester/amazon-freertos/lib/third_party/mbedtls/library\aes.c **** 
1000:D:/Work/DeviceTester/amazon-freertos/lib/third_party/mbedtls/library\aes.c ****     if( mode == MBEDTLS_AES_ENCRYPT )
 1556              		.loc 1 1000 0
 1557 0000 010051E3 		cmp	r1, #1
 982:D:/Work/DeviceTester/amazon-freertos/lib/third_party/mbedtls/library\aes.c **** #if defined(MBEDTLS_AESNI_C) && defined(MBEDTLS_HAVE_X86_64)
 1558              		.loc 1 982 0
 1559 0004 02C0A0E1 		mov	ip, r2
1001:D:/Work/DeviceTester/amazon-freertos/lib/third_party/mbedtls/library\aes.c ****         return( mbedtls_internal_aes_encrypt( ctx, input, output ) );
 1560              		.loc 1 1001 0
 1561 0008 0C10A0E1 		mov	r1, ip
 1562              	.LVL169:
 982:D:/Work/DeviceTester/amazon-freertos/lib/third_party/mbedtls/library\aes.c **** #if defined(MBEDTLS_AESNI_C) && defined(MBEDTLS_HAVE_X86_64)
 1563              		.loc 1 982 0
 1564 000c 0320A0E1 		mov	r2, r3
 1565              	.LVL170:
1000:D:/Work/DeviceTester/amazon-freertos/lib/third_party/mbedtls/library\aes.c ****         return( mbedtls_internal_aes_encrypt( ctx, input, output ) );
 1566              		.loc 1 1000 0
 1567 0010 0000001A 		bne	.L54
 1568              		.loc 1 1001 0
 1569 0014 FEFFFFEA 		b	mbedtls_internal_aes_encrypt
 1570              	.LVL171:
 1571              	.L54:
1002:D:/Work/DeviceTester/amazon-freertos/lib/third_party/mbedtls/library\aes.c ****     else
1003:D:/Work/DeviceTester/amazon-freertos/lib/third_party/mbedtls/library\aes.c ****         return( mbedtls_internal_aes_decrypt( ctx, input, output ) );
 1572              		.loc 1 1003 0
 1573 0018 FEFFFFEA 		b	mbedtls_internal_aes_decrypt
 1574              	.LVL172:
 1575              		.cfi_endproc
 1576              	.LFE7:
 1578              		.section	.text.mbedtls_aes_crypt_cbc,"ax",%progbits
 1579              		.align	2
 1580              		.global	mbedtls_aes_crypt_cbc
 1581              		.syntax unified
 1582              		.arm
 1583              		.fpu neon
 1585              	mbedtls_aes_crypt_cbc:
 1586              	.LFB8:
1004:D:/Work/DeviceTester/amazon-freertos/lib/third_party/mbedtls/library\aes.c **** }
1005:D:/Work/DeviceTester/amazon-freertos/lib/third_party/mbedtls/library\aes.c **** 
1006:D:/Work/DeviceTester/amazon-freertos/lib/third_party/mbedtls/library\aes.c **** #if defined(MBEDTLS_CIPHER_MODE_CBC)
1007:D:/Work/DeviceTester/amazon-freertos/lib/third_party/mbedtls/library\aes.c **** /*
1008:D:/Work/DeviceTester/amazon-freertos/lib/third_party/mbedtls/library\aes.c ****  * AES-CBC buffer encryption/decryption
1009:D:/Work/DeviceTester/amazon-freertos/lib/third_party/mbedtls/library\aes.c ****  */
1010:D:/Work/DeviceTester/amazon-freertos/lib/third_party/mbedtls/library\aes.c **** int mbedtls_aes_crypt_cbc( mbedtls_aes_context *ctx,
1011:D:/Work/DeviceTester/amazon-freertos/lib/third_party/mbedtls/library\aes.c ****                     int mode,
1012:D:/Work/DeviceTester/amazon-freertos/lib/third_party/mbedtls/library\aes.c ****                     size_t length,
1013:D:/Work/DeviceTester/amazon-freertos/lib/third_party/mbedtls/library\aes.c ****                     unsigned char iv[16],
1014:D:/Work/DeviceTester/amazon-freertos/lib/third_party/mbedtls/library\aes.c ****                     const unsigned char *input,
1015:D:/Work/DeviceTester/amazon-freertos/lib/third_party/mbedtls/library\aes.c ****                     unsigned char *output )
1016:D:/Work/DeviceTester/amazon-freertos/lib/third_party/mbedtls/library\aes.c **** {
 1587              		.loc 1 1016 0
 1588              		.cfi_startproc
 1589              		@ args = 8, pretend = 0, frame = 16
 1590              		@ frame_needed = 0, uses_anonymous_args = 0
 1591              	.LVL173:
1017:D:/Work/DeviceTester/amazon-freertos/lib/third_party/mbedtls/library\aes.c ****     int i;
1018:D:/Work/DeviceTester/amazon-freertos/lib/third_party/mbedtls/library\aes.c ****     unsigned char temp[16];
1019:D:/Work/DeviceTester/amazon-freertos/lib/third_party/mbedtls/library\aes.c **** 
1020:D:/Work/DeviceTester/amazon-freertos/lib/third_party/mbedtls/library\aes.c ****     if( length % 16 )
 1592              		.loc 1 1020 0
 1593 0000 0F0012E3 		tst	r2, #15
1016:D:/Work/DeviceTester/amazon-freertos/lib/third_party/mbedtls/library\aes.c ****     int i;
 1594              		.loc 1 1016 0
 1595 0004 FF472DE9 		push	{r0, r1, r2, r3, r4, r5, r6, r7, r8, r9, r10, lr}
 1596              		.cfi_def_cfa_offset 48
 1597              		.cfi_offset 4, -32
 1598              		.cfi_offset 5, -28
 1599              		.cfi_offset 6, -24
 1600              		.cfi_offset 7, -20
 1601              		.cfi_offset 8, -16
 1602              		.cfi_offset 9, -12
 1603              		.cfi_offset 10, -8
 1604              		.cfi_offset 14, -4
1016:D:/Work/DeviceTester/amazon-freertos/lib/third_party/mbedtls/library\aes.c ****     int i;
 1605              		.loc 1 1016 0
 1606 0008 30509DE5 		ldr	r5, [sp, #48]
1021:D:/Work/DeviceTester/amazon-freertos/lib/third_party/mbedtls/library\aes.c ****         return( MBEDTLS_ERR_AES_INVALID_INPUT_LENGTH );
 1607              		.loc 1 1021 0
 1608 000c 2170E013 		mvnne	r7, #33
1016:D:/Work/DeviceTester/amazon-freertos/lib/third_party/mbedtls/library\aes.c ****     int i;
 1609              		.loc 1 1016 0
 1610 0010 34409DE5 		ldr	r4, [sp, #52]
1020:D:/Work/DeviceTester/amazon-freertos/lib/third_party/mbedtls/library\aes.c ****         return( MBEDTLS_ERR_AES_INVALID_INPUT_LENGTH );
 1611              		.loc 1 1020 0
 1612 0014 0A00001A 		bne	.L56
1022:D:/Work/DeviceTester/amazon-freertos/lib/third_party/mbedtls/library\aes.c **** 
1023:D:/Work/DeviceTester/amazon-freertos/lib/third_party/mbedtls/library\aes.c **** #if defined(MBEDTLS_PADLOCK_C) && defined(MBEDTLS_HAVE_X86)
1024:D:/Work/DeviceTester/amazon-freertos/lib/third_party/mbedtls/library\aes.c ****     if( aes_padlock_ace )
1025:D:/Work/DeviceTester/amazon-freertos/lib/third_party/mbedtls/library\aes.c ****     {
1026:D:/Work/DeviceTester/amazon-freertos/lib/third_party/mbedtls/library\aes.c ****         if( mbedtls_padlock_xcryptcbc( ctx, mode, length, iv, input, output ) == 0 )
1027:D:/Work/DeviceTester/amazon-freertos/lib/third_party/mbedtls/library\aes.c ****             return( 0 );
1028:D:/Work/DeviceTester/amazon-freertos/lib/third_party/mbedtls/library\aes.c **** 
1029:D:/Work/DeviceTester/amazon-freertos/lib/third_party/mbedtls/library\aes.c ****         // If padlock data misaligned, we just fall back to
1030:D:/Work/DeviceTester/amazon-freertos/lib/third_party/mbedtls/library\aes.c ****         // unaccelerated mode
1031:D:/Work/DeviceTester/amazon-freertos/lib/third_party/mbedtls/library\aes.c ****         //
1032:D:/Work/DeviceTester/amazon-freertos/lib/third_party/mbedtls/library\aes.c ****     }
1033:D:/Work/DeviceTester/amazon-freertos/lib/third_party/mbedtls/library\aes.c **** #endif
1034:D:/Work/DeviceTester/amazon-freertos/lib/third_party/mbedtls/library\aes.c **** 
1035:D:/Work/DeviceTester/amazon-freertos/lib/third_party/mbedtls/library\aes.c ****     if( mode == MBEDTLS_AES_DECRYPT )
 1613              		.loc 1 1035 0
 1614 0018 000051E3 		cmp	r1, #0
 1615 001c 00A0A0E1 		mov	r10, r0
 1616 0020 0170A0E1 		mov	r7, r1
 1617 0024 0260A0E1 		mov	r6, r2
 1618 0028 0390A0E1 		mov	r9, r3
 1619 002c 0580A001 		moveq	r8, r5
 1620 0030 01504512 		subne	r5, r5, #1
 1621 0034 2F00001A 		bne	.L59
 1622              	.LVL174:
 1623              	.L58:
 1624              	.LBB12:
 1625              	.LBB13:
1036:D:/Work/DeviceTester/amazon-freertos/lib/third_party/mbedtls/library\aes.c ****     {
1037:D:/Work/DeviceTester/amazon-freertos/lib/third_party/mbedtls/library\aes.c ****         while( length > 0 )
 1626              		.loc 1 1037 0
 1627 0038 083046E0 		sub	r3, r6, r8
 1628 003c 030075E1 		cmn	r5, r3
 1629 0040 0200001A 		bne	.L61
 1630              	.LVL175:
 1631              	.L56:
 1632              	.LBE13:
 1633              	.LBE12:
1038:D:/Work/DeviceTester/amazon-freertos/lib/third_party/mbedtls/library\aes.c ****         {
1039:D:/Work/DeviceTester/amazon-freertos/lib/third_party/mbedtls/library\aes.c ****             memcpy( temp, input, 16 );
1040:D:/Work/DeviceTester/amazon-freertos/lib/third_party/mbedtls/library\aes.c ****             mbedtls_aes_crypt_ecb( ctx, mode, input, output );
1041:D:/Work/DeviceTester/amazon-freertos/lib/third_party/mbedtls/library\aes.c **** 
1042:D:/Work/DeviceTester/amazon-freertos/lib/third_party/mbedtls/library\aes.c ****             for( i = 0; i < 16; i++ )
1043:D:/Work/DeviceTester/amazon-freertos/lib/third_party/mbedtls/library\aes.c ****                 output[i] = (unsigned char)( output[i] ^ iv[i] );
1044:D:/Work/DeviceTester/amazon-freertos/lib/third_party/mbedtls/library\aes.c **** 
1045:D:/Work/DeviceTester/amazon-freertos/lib/third_party/mbedtls/library\aes.c ****             memcpy( iv, temp, 16 );
1046:D:/Work/DeviceTester/amazon-freertos/lib/third_party/mbedtls/library\aes.c **** 
1047:D:/Work/DeviceTester/amazon-freertos/lib/third_party/mbedtls/library\aes.c ****             input  += 16;
1048:D:/Work/DeviceTester/amazon-freertos/lib/third_party/mbedtls/library\aes.c ****             output += 16;
1049:D:/Work/DeviceTester/amazon-freertos/lib/third_party/mbedtls/library\aes.c ****             length -= 16;
1050:D:/Work/DeviceTester/amazon-freertos/lib/third_party/mbedtls/library\aes.c ****         }
1051:D:/Work/DeviceTester/amazon-freertos/lib/third_party/mbedtls/library\aes.c ****     }
1052:D:/Work/DeviceTester/amazon-freertos/lib/third_party/mbedtls/library\aes.c ****     else
1053:D:/Work/DeviceTester/amazon-freertos/lib/third_party/mbedtls/library\aes.c ****     {
1054:D:/Work/DeviceTester/amazon-freertos/lib/third_party/mbedtls/library\aes.c ****         while( length > 0 )
1055:D:/Work/DeviceTester/amazon-freertos/lib/third_party/mbedtls/library\aes.c ****         {
1056:D:/Work/DeviceTester/amazon-freertos/lib/third_party/mbedtls/library\aes.c ****             for( i = 0; i < 16; i++ )
1057:D:/Work/DeviceTester/amazon-freertos/lib/third_party/mbedtls/library\aes.c ****                 output[i] = (unsigned char)( input[i] ^ iv[i] );
1058:D:/Work/DeviceTester/amazon-freertos/lib/third_party/mbedtls/library\aes.c **** 
1059:D:/Work/DeviceTester/amazon-freertos/lib/third_party/mbedtls/library\aes.c ****             mbedtls_aes_crypt_ecb( ctx, mode, output, output );
1060:D:/Work/DeviceTester/amazon-freertos/lib/third_party/mbedtls/library\aes.c ****             memcpy( iv, output, 16 );
1061:D:/Work/DeviceTester/amazon-freertos/lib/third_party/mbedtls/library\aes.c **** 
1062:D:/Work/DeviceTester/amazon-freertos/lib/third_party/mbedtls/library\aes.c ****             input  += 16;
1063:D:/Work/DeviceTester/amazon-freertos/lib/third_party/mbedtls/library\aes.c ****             output += 16;
1064:D:/Work/DeviceTester/amazon-freertos/lib/third_party/mbedtls/library\aes.c ****             length -= 16;
1065:D:/Work/DeviceTester/amazon-freertos/lib/third_party/mbedtls/library\aes.c ****         }
1066:D:/Work/DeviceTester/amazon-freertos/lib/third_party/mbedtls/library\aes.c ****     }
1067:D:/Work/DeviceTester/amazon-freertos/lib/third_party/mbedtls/library\aes.c **** 
1068:D:/Work/DeviceTester/amazon-freertos/lib/third_party/mbedtls/library\aes.c ****     return( 0 );
1069:D:/Work/DeviceTester/amazon-freertos/lib/third_party/mbedtls/library\aes.c **** }
 1634              		.loc 1 1069 0
 1635 0044 0700A0E1 		mov	r0, r7
 1636 0048 10D08DE2 		add	sp, sp, #16
 1637              		.cfi_remember_state
 1638              		.cfi_def_cfa_offset 32
 1639              		@ sp needed
 1640 004c F087BDE8 		pop	{r4, r5, r6, r7, r8, r9, r10, pc}
 1641              	.LVL176:
 1642              	.L61:
 1643              		.cfi_restore_state
 1644              	.LBB15:
 1645              	.LBB14:
1039:D:/Work/DeviceTester/amazon-freertos/lib/third_party/mbedtls/library\aes.c ****             mbedtls_aes_crypt_ecb( ctx, mode, input, output );
 1646              		.loc 1 1039 0
 1647 0050 1020A0E3 		mov	r2, #16
 1648 0054 0810A0E1 		mov	r1, r8
 1649 0058 0D00A0E1 		mov	r0, sp
 1650 005c FEFFFFEB 		bl	memcpy
 1651              	.LVL177:
1040:D:/Work/DeviceTester/amazon-freertos/lib/third_party/mbedtls/library\aes.c **** 
 1652              		.loc 1 1040 0
 1653 0060 0430A0E1 		mov	r3, r4
 1654 0064 0010A0E3 		mov	r1, #0
 1655 0068 0820A0E1 		mov	r2, r8
 1656 006c 0A00A0E1 		mov	r0, r10
 1657 0070 FEFFFFEB 		bl	mbedtls_aes_crypt_ecb
 1658              	.LVL178:
 1659 0074 013044E2 		sub	r3, r4, #1
 1660 0078 011049E2 		sub	r1, r9, #1
 1661 007c 0F0084E2 		add	r0, r4, #15
 1662              	.LVL179:
 1663              	.L60:
1043:D:/Work/DeviceTester/amazon-freertos/lib/third_party/mbedtls/library\aes.c **** 
 1664              		.loc 1 1043 0
 1665 0080 0120D3E5 		ldrb	r2, [r3, #1]	@ zero_extendqisi2
 1666 0084 01C0F1E5 		ldrb	ip, [r1, #1]!	@ zero_extendqisi2
 1667 0088 0C2022E0 		eor	r2, r2, ip
 1668 008c 0120E3E5 		strb	r2, [r3, #1]!
1042:D:/Work/DeviceTester/amazon-freertos/lib/third_party/mbedtls/library\aes.c ****                 output[i] = (unsigned char)( output[i] ^ iv[i] );
 1669              		.loc 1 1042 0
 1670 0090 000053E1 		cmp	r3, r0
 1671 0094 F9FFFF1A 		bne	.L60
1045:D:/Work/DeviceTester/amazon-freertos/lib/third_party/mbedtls/library\aes.c **** 
 1672              		.loc 1 1045 0
 1673 0098 1020A0E3 		mov	r2, #16
 1674 009c 0D10A0E1 		mov	r1, sp
 1675 00a0 0900A0E1 		mov	r0, r9
1047:D:/Work/DeviceTester/amazon-freertos/lib/third_party/mbedtls/library\aes.c ****             output += 16;
 1676              		.loc 1 1047 0
 1677 00a4 108088E2 		add	r8, r8, #16
 1678              	.LVL180:
1045:D:/Work/DeviceTester/amazon-freertos/lib/third_party/mbedtls/library\aes.c **** 
 1679              		.loc 1 1045 0
 1680 00a8 FEFFFFEB 		bl	memcpy
 1681              	.LVL181:
1048:D:/Work/DeviceTester/amazon-freertos/lib/third_party/mbedtls/library\aes.c ****             length -= 16;
 1682              		.loc 1 1048 0
 1683 00ac 104084E2 		add	r4, r4, #16
 1684              	.LVL182:
 1685 00b0 E0FFFFEA 		b	.L58
 1686              	.LVL183:
 1687              	.L62:
 1688              	.LBE14:
 1689              	.LBE15:
1057:D:/Work/DeviceTester/amazon-freertos/lib/third_party/mbedtls/library\aes.c **** 
 1690              		.loc 1 1057 0 discriminator 3
 1691 00b4 0130F5E5 		ldrb	r3, [r5, #1]!	@ zero_extendqisi2
 1692              	.LVL184:
 1693 00b8 01C0F1E5 		ldrb	ip, [r1, #1]!	@ zero_extendqisi2
1056:D:/Work/DeviceTester/amazon-freertos/lib/third_party/mbedtls/library\aes.c ****                 output[i] = (unsigned char)( input[i] ^ iv[i] );
 1694              		.loc 1 1056 0 discriminator 3
 1695 00bc 000055E1 		cmp	r5, r0
1057:D:/Work/DeviceTester/amazon-freertos/lib/third_party/mbedtls/library\aes.c **** 
 1696              		.loc 1 1057 0 discriminator 3
 1697 00c0 0C3023E0 		eor	r3, r3, ip
 1698 00c4 0130E2E5 		strb	r3, [r2, #1]!
 1699              	.LVL185:
1056:D:/Work/DeviceTester/amazon-freertos/lib/third_party/mbedtls/library\aes.c ****                 output[i] = (unsigned char)( input[i] ^ iv[i] );
 1700              		.loc 1 1056 0 discriminator 3
 1701 00c8 F9FFFF1A 		bne	.L62
1059:D:/Work/DeviceTester/amazon-freertos/lib/third_party/mbedtls/library\aes.c ****             memcpy( iv, output, 16 );
 1702              		.loc 1 1059 0
 1703 00cc 0430A0E1 		mov	r3, r4
 1704 00d0 0420A0E1 		mov	r2, r4
 1705 00d4 0710A0E1 		mov	r1, r7
 1706 00d8 0A00A0E1 		mov	r0, r10
 1707 00dc FEFFFFEB 		bl	mbedtls_aes_crypt_ecb
 1708              	.LVL186:
1064:D:/Work/DeviceTester/amazon-freertos/lib/third_party/mbedtls/library\aes.c ****         }
 1709              		.loc 1 1064 0
 1710 00e0 106046E2 		sub	r6, r6, #16
 1711              	.LVL187:
1060:D:/Work/DeviceTester/amazon-freertos/lib/third_party/mbedtls/library\aes.c **** 
 1712              		.loc 1 1060 0
 1713 00e4 0410A0E1 		mov	r1, r4
1063:D:/Work/DeviceTester/amazon-freertos/lib/third_party/mbedtls/library\aes.c ****             length -= 16;
 1714              		.loc 1 1063 0
 1715 00e8 104084E2 		add	r4, r4, #16
 1716              	.LVL188:
1060:D:/Work/DeviceTester/amazon-freertos/lib/third_party/mbedtls/library\aes.c **** 
 1717              		.loc 1 1060 0
 1718 00ec 1020A0E3 		mov	r2, #16
 1719 00f0 0900A0E1 		mov	r0, r9
 1720 00f4 FEFFFFEB 		bl	memcpy
 1721              	.LVL189:
 1722              	.L59:
1054:D:/Work/DeviceTester/amazon-freertos/lib/third_party/mbedtls/library\aes.c ****         {
 1723              		.loc 1 1054 0
 1724 00f8 000056E3 		cmp	r6, #0
 1725 00fc 01104912 		subne	r1, r9, #1
 1726 0100 01204412 		subne	r2, r4, #1
 1727 0104 10008512 		addne	r0, r5, #16
 1728 0108 E9FFFF1A 		bne	.L62
 1729              	.L64:
1068:D:/Work/DeviceTester/amazon-freertos/lib/third_party/mbedtls/library\aes.c **** }
 1730              		.loc 1 1068 0
 1731 010c 0670A0E1 		mov	r7, r6
 1732              	.LVL190:
 1733 0110 CBFFFFEA 		b	.L56
 1734              		.cfi_endproc
 1735              	.LFE8:
 1737              		.section	.text.mbedtls_aes_crypt_cfb128,"ax",%progbits
 1738              		.align	2
 1739              		.global	mbedtls_aes_crypt_cfb128
 1740              		.syntax unified
 1741              		.arm
 1742              		.fpu neon
 1744              	mbedtls_aes_crypt_cfb128:
 1745              	.LFB9:
1070:D:/Work/DeviceTester/amazon-freertos/lib/third_party/mbedtls/library\aes.c **** #endif /* MBEDTLS_CIPHER_MODE_CBC */
1071:D:/Work/DeviceTester/amazon-freertos/lib/third_party/mbedtls/library\aes.c **** 
1072:D:/Work/DeviceTester/amazon-freertos/lib/third_party/mbedtls/library\aes.c **** #if defined(MBEDTLS_CIPHER_MODE_XTS)
1073:D:/Work/DeviceTester/amazon-freertos/lib/third_party/mbedtls/library\aes.c **** 
1074:D:/Work/DeviceTester/amazon-freertos/lib/third_party/mbedtls/library\aes.c **** /* Endianess with 64 bits values */
1075:D:/Work/DeviceTester/amazon-freertos/lib/third_party/mbedtls/library\aes.c **** #ifndef GET_UINT64_LE
1076:D:/Work/DeviceTester/amazon-freertos/lib/third_party/mbedtls/library\aes.c **** #define GET_UINT64_LE(n,b,i)                            \
1077:D:/Work/DeviceTester/amazon-freertos/lib/third_party/mbedtls/library\aes.c **** {                                                       \
1078:D:/Work/DeviceTester/amazon-freertos/lib/third_party/mbedtls/library\aes.c ****     (n) = ( (uint64_t) (b)[(i) + 7] << 56 )             \
1079:D:/Work/DeviceTester/amazon-freertos/lib/third_party/mbedtls/library\aes.c ****         | ( (uint64_t) (b)[(i) + 6] << 48 )             \
1080:D:/Work/DeviceTester/amazon-freertos/lib/third_party/mbedtls/library\aes.c ****         | ( (uint64_t) (b)[(i) + 5] << 40 )             \
1081:D:/Work/DeviceTester/amazon-freertos/lib/third_party/mbedtls/library\aes.c ****         | ( (uint64_t) (b)[(i) + 4] << 32 )             \
1082:D:/Work/DeviceTester/amazon-freertos/lib/third_party/mbedtls/library\aes.c ****         | ( (uint64_t) (b)[(i) + 3] << 24 )             \
1083:D:/Work/DeviceTester/amazon-freertos/lib/third_party/mbedtls/library\aes.c ****         | ( (uint64_t) (b)[(i) + 2] << 16 )             \
1084:D:/Work/DeviceTester/amazon-freertos/lib/third_party/mbedtls/library\aes.c ****         | ( (uint64_t) (b)[(i) + 1] <<  8 )             \
1085:D:/Work/DeviceTester/amazon-freertos/lib/third_party/mbedtls/library\aes.c ****         | ( (uint64_t) (b)[(i)    ]       );            \
1086:D:/Work/DeviceTester/amazon-freertos/lib/third_party/mbedtls/library\aes.c **** }
1087:D:/Work/DeviceTester/amazon-freertos/lib/third_party/mbedtls/library\aes.c **** #endif
1088:D:/Work/DeviceTester/amazon-freertos/lib/third_party/mbedtls/library\aes.c **** 
1089:D:/Work/DeviceTester/amazon-freertos/lib/third_party/mbedtls/library\aes.c **** #ifndef PUT_UINT64_LE
1090:D:/Work/DeviceTester/amazon-freertos/lib/third_party/mbedtls/library\aes.c **** #define PUT_UINT64_LE(n,b,i)                            \
1091:D:/Work/DeviceTester/amazon-freertos/lib/third_party/mbedtls/library\aes.c **** {                                                       \
1092:D:/Work/DeviceTester/amazon-freertos/lib/third_party/mbedtls/library\aes.c ****     (b)[(i) + 7] = (unsigned char) ( (n) >> 56 );       \
1093:D:/Work/DeviceTester/amazon-freertos/lib/third_party/mbedtls/library\aes.c ****     (b)[(i) + 6] = (unsigned char) ( (n) >> 48 );       \
1094:D:/Work/DeviceTester/amazon-freertos/lib/third_party/mbedtls/library\aes.c ****     (b)[(i) + 5] = (unsigned char) ( (n) >> 40 );       \
1095:D:/Work/DeviceTester/amazon-freertos/lib/third_party/mbedtls/library\aes.c ****     (b)[(i) + 4] = (unsigned char) ( (n) >> 32 );       \
1096:D:/Work/DeviceTester/amazon-freertos/lib/third_party/mbedtls/library\aes.c ****     (b)[(i) + 3] = (unsigned char) ( (n) >> 24 );       \
1097:D:/Work/DeviceTester/amazon-freertos/lib/third_party/mbedtls/library\aes.c ****     (b)[(i) + 2] = (unsigned char) ( (n) >> 16 );       \
1098:D:/Work/DeviceTester/amazon-freertos/lib/third_party/mbedtls/library\aes.c ****     (b)[(i) + 1] = (unsigned char) ( (n) >>  8 );       \
1099:D:/Work/DeviceTester/amazon-freertos/lib/third_party/mbedtls/library\aes.c ****     (b)[(i)    ] = (unsigned char) ( (n)       );       \
1100:D:/Work/DeviceTester/amazon-freertos/lib/third_party/mbedtls/library\aes.c **** }
1101:D:/Work/DeviceTester/amazon-freertos/lib/third_party/mbedtls/library\aes.c **** #endif
1102:D:/Work/DeviceTester/amazon-freertos/lib/third_party/mbedtls/library\aes.c **** 
1103:D:/Work/DeviceTester/amazon-freertos/lib/third_party/mbedtls/library\aes.c **** typedef unsigned char mbedtls_be128[16];
1104:D:/Work/DeviceTester/amazon-freertos/lib/third_party/mbedtls/library\aes.c **** 
1105:D:/Work/DeviceTester/amazon-freertos/lib/third_party/mbedtls/library\aes.c **** /*
1106:D:/Work/DeviceTester/amazon-freertos/lib/third_party/mbedtls/library\aes.c ****  * GF(2^128) multiplication function
1107:D:/Work/DeviceTester/amazon-freertos/lib/third_party/mbedtls/library\aes.c ****  *
1108:D:/Work/DeviceTester/amazon-freertos/lib/third_party/mbedtls/library\aes.c ****  * This function multiplies a field element by x in the polynomial field
1109:D:/Work/DeviceTester/amazon-freertos/lib/third_party/mbedtls/library\aes.c ****  * representation. It uses 64-bit word operations to gain speed but compensates
1110:D:/Work/DeviceTester/amazon-freertos/lib/third_party/mbedtls/library\aes.c ****  * for machine endianess and hence works correctly on both big and little
1111:D:/Work/DeviceTester/amazon-freertos/lib/third_party/mbedtls/library\aes.c ****  * endian machines.
1112:D:/Work/DeviceTester/amazon-freertos/lib/third_party/mbedtls/library\aes.c ****  */
1113:D:/Work/DeviceTester/amazon-freertos/lib/third_party/mbedtls/library\aes.c **** static void mbedtls_gf128mul_x_ble( unsigned char r[16],
1114:D:/Work/DeviceTester/amazon-freertos/lib/third_party/mbedtls/library\aes.c ****                                     const unsigned char x[16] )
1115:D:/Work/DeviceTester/amazon-freertos/lib/third_party/mbedtls/library\aes.c **** {
1116:D:/Work/DeviceTester/amazon-freertos/lib/third_party/mbedtls/library\aes.c ****     uint64_t a, b, ra, rb;
1117:D:/Work/DeviceTester/amazon-freertos/lib/third_party/mbedtls/library\aes.c **** 
1118:D:/Work/DeviceTester/amazon-freertos/lib/third_party/mbedtls/library\aes.c ****     GET_UINT64_LE( a, x, 0 );
1119:D:/Work/DeviceTester/amazon-freertos/lib/third_party/mbedtls/library\aes.c ****     GET_UINT64_LE( b, x, 8 );
1120:D:/Work/DeviceTester/amazon-freertos/lib/third_party/mbedtls/library\aes.c **** 
1121:D:/Work/DeviceTester/amazon-freertos/lib/third_party/mbedtls/library\aes.c ****     ra = ( a << 1 )  ^ 0x0087 >> ( 8 - ( ( b >> 63 ) << 3 ) );
1122:D:/Work/DeviceTester/amazon-freertos/lib/third_party/mbedtls/library\aes.c ****     rb = ( a >> 63 ) | ( b << 1 );
1123:D:/Work/DeviceTester/amazon-freertos/lib/third_party/mbedtls/library\aes.c **** 
1124:D:/Work/DeviceTester/amazon-freertos/lib/third_party/mbedtls/library\aes.c ****     PUT_UINT64_LE( ra, r, 0 );
1125:D:/Work/DeviceTester/amazon-freertos/lib/third_party/mbedtls/library\aes.c ****     PUT_UINT64_LE( rb, r, 8 );
1126:D:/Work/DeviceTester/amazon-freertos/lib/third_party/mbedtls/library\aes.c **** }
1127:D:/Work/DeviceTester/amazon-freertos/lib/third_party/mbedtls/library\aes.c **** 
1128:D:/Work/DeviceTester/amazon-freertos/lib/third_party/mbedtls/library\aes.c **** /*
1129:D:/Work/DeviceTester/amazon-freertos/lib/third_party/mbedtls/library\aes.c ****  * AES-XTS buffer encryption/decryption
1130:D:/Work/DeviceTester/amazon-freertos/lib/third_party/mbedtls/library\aes.c ****  */
1131:D:/Work/DeviceTester/amazon-freertos/lib/third_party/mbedtls/library\aes.c **** int mbedtls_aes_crypt_xts( mbedtls_aes_xts_context *ctx,
1132:D:/Work/DeviceTester/amazon-freertos/lib/third_party/mbedtls/library\aes.c ****                            int mode,
1133:D:/Work/DeviceTester/amazon-freertos/lib/third_party/mbedtls/library\aes.c ****                            size_t length,
1134:D:/Work/DeviceTester/amazon-freertos/lib/third_party/mbedtls/library\aes.c ****                            const unsigned char data_unit[16],
1135:D:/Work/DeviceTester/amazon-freertos/lib/third_party/mbedtls/library\aes.c ****                            const unsigned char *input,
1136:D:/Work/DeviceTester/amazon-freertos/lib/third_party/mbedtls/library\aes.c ****                            unsigned char *output )
1137:D:/Work/DeviceTester/amazon-freertos/lib/third_party/mbedtls/library\aes.c **** {
1138:D:/Work/DeviceTester/amazon-freertos/lib/third_party/mbedtls/library\aes.c ****     int ret;
1139:D:/Work/DeviceTester/amazon-freertos/lib/third_party/mbedtls/library\aes.c ****     size_t blocks = length / 16;
1140:D:/Work/DeviceTester/amazon-freertos/lib/third_party/mbedtls/library\aes.c ****     size_t leftover = length % 16;
1141:D:/Work/DeviceTester/amazon-freertos/lib/third_party/mbedtls/library\aes.c ****     unsigned char tweak[16];
1142:D:/Work/DeviceTester/amazon-freertos/lib/third_party/mbedtls/library\aes.c ****     unsigned char prev_tweak[16];
1143:D:/Work/DeviceTester/amazon-freertos/lib/third_party/mbedtls/library\aes.c ****     unsigned char tmp[16];
1144:D:/Work/DeviceTester/amazon-freertos/lib/third_party/mbedtls/library\aes.c **** 
1145:D:/Work/DeviceTester/amazon-freertos/lib/third_party/mbedtls/library\aes.c ****     /* Sectors must be at least 16 bytes. */
1146:D:/Work/DeviceTester/amazon-freertos/lib/third_party/mbedtls/library\aes.c ****     if( length < 16 )
1147:D:/Work/DeviceTester/amazon-freertos/lib/third_party/mbedtls/library\aes.c ****         return MBEDTLS_ERR_AES_INVALID_INPUT_LENGTH;
1148:D:/Work/DeviceTester/amazon-freertos/lib/third_party/mbedtls/library\aes.c **** 
1149:D:/Work/DeviceTester/amazon-freertos/lib/third_party/mbedtls/library\aes.c ****     /* NIST SP 80-38E disallows data units larger than 2**20 blocks. */
1150:D:/Work/DeviceTester/amazon-freertos/lib/third_party/mbedtls/library\aes.c ****     if( length > ( 1 << 20 ) * 16 )
1151:D:/Work/DeviceTester/amazon-freertos/lib/third_party/mbedtls/library\aes.c ****         return MBEDTLS_ERR_AES_INVALID_INPUT_LENGTH;
1152:D:/Work/DeviceTester/amazon-freertos/lib/third_party/mbedtls/library\aes.c **** 
1153:D:/Work/DeviceTester/amazon-freertos/lib/third_party/mbedtls/library\aes.c ****     /* Compute the tweak. */
1154:D:/Work/DeviceTester/amazon-freertos/lib/third_party/mbedtls/library\aes.c ****     ret = mbedtls_aes_crypt_ecb( &ctx->tweak, MBEDTLS_AES_ENCRYPT,
1155:D:/Work/DeviceTester/amazon-freertos/lib/third_party/mbedtls/library\aes.c ****                                  data_unit, tweak );
1156:D:/Work/DeviceTester/amazon-freertos/lib/third_party/mbedtls/library\aes.c ****     if( ret != 0 )
1157:D:/Work/DeviceTester/amazon-freertos/lib/third_party/mbedtls/library\aes.c ****         return( ret );
1158:D:/Work/DeviceTester/amazon-freertos/lib/third_party/mbedtls/library\aes.c **** 
1159:D:/Work/DeviceTester/amazon-freertos/lib/third_party/mbedtls/library\aes.c ****     while( blocks-- )
1160:D:/Work/DeviceTester/amazon-freertos/lib/third_party/mbedtls/library\aes.c ****     {
1161:D:/Work/DeviceTester/amazon-freertos/lib/third_party/mbedtls/library\aes.c ****         size_t i;
1162:D:/Work/DeviceTester/amazon-freertos/lib/third_party/mbedtls/library\aes.c **** 
1163:D:/Work/DeviceTester/amazon-freertos/lib/third_party/mbedtls/library\aes.c ****         if( leftover && ( mode == MBEDTLS_AES_DECRYPT ) && blocks == 0 )
1164:D:/Work/DeviceTester/amazon-freertos/lib/third_party/mbedtls/library\aes.c ****         {
1165:D:/Work/DeviceTester/amazon-freertos/lib/third_party/mbedtls/library\aes.c ****             /* We are on the last block in a decrypt operation that has
1166:D:/Work/DeviceTester/amazon-freertos/lib/third_party/mbedtls/library\aes.c ****              * leftover bytes, so we need to use the next tweak for this block,
1167:D:/Work/DeviceTester/amazon-freertos/lib/third_party/mbedtls/library\aes.c ****              * and this tweak for the lefover bytes. Save the current tweak for
1168:D:/Work/DeviceTester/amazon-freertos/lib/third_party/mbedtls/library\aes.c ****              * the leftovers and then update the current tweak for use on this,
1169:D:/Work/DeviceTester/amazon-freertos/lib/third_party/mbedtls/library\aes.c ****              * the last full block. */
1170:D:/Work/DeviceTester/amazon-freertos/lib/third_party/mbedtls/library\aes.c ****             memcpy( prev_tweak, tweak, sizeof( tweak ) );
1171:D:/Work/DeviceTester/amazon-freertos/lib/third_party/mbedtls/library\aes.c ****             mbedtls_gf128mul_x_ble( tweak, tweak );
1172:D:/Work/DeviceTester/amazon-freertos/lib/third_party/mbedtls/library\aes.c ****         }
1173:D:/Work/DeviceTester/amazon-freertos/lib/third_party/mbedtls/library\aes.c **** 
1174:D:/Work/DeviceTester/amazon-freertos/lib/third_party/mbedtls/library\aes.c ****         for( i = 0; i < 16; i++ )
1175:D:/Work/DeviceTester/amazon-freertos/lib/third_party/mbedtls/library\aes.c ****             tmp[i] = input[i] ^ tweak[i];
1176:D:/Work/DeviceTester/amazon-freertos/lib/third_party/mbedtls/library\aes.c **** 
1177:D:/Work/DeviceTester/amazon-freertos/lib/third_party/mbedtls/library\aes.c ****         ret = mbedtls_aes_crypt_ecb( &ctx->crypt, mode, tmp, tmp );
1178:D:/Work/DeviceTester/amazon-freertos/lib/third_party/mbedtls/library\aes.c ****         if( ret != 0 )
1179:D:/Work/DeviceTester/amazon-freertos/lib/third_party/mbedtls/library\aes.c ****             return( ret );
1180:D:/Work/DeviceTester/amazon-freertos/lib/third_party/mbedtls/library\aes.c **** 
1181:D:/Work/DeviceTester/amazon-freertos/lib/third_party/mbedtls/library\aes.c ****         for( i = 0; i < 16; i++ )
1182:D:/Work/DeviceTester/amazon-freertos/lib/third_party/mbedtls/library\aes.c ****             output[i] = tmp[i] ^ tweak[i];
1183:D:/Work/DeviceTester/amazon-freertos/lib/third_party/mbedtls/library\aes.c **** 
1184:D:/Work/DeviceTester/amazon-freertos/lib/third_party/mbedtls/library\aes.c ****         /* Update the tweak for the next block. */
1185:D:/Work/DeviceTester/amazon-freertos/lib/third_party/mbedtls/library\aes.c ****         mbedtls_gf128mul_x_ble( tweak, tweak );
1186:D:/Work/DeviceTester/amazon-freertos/lib/third_party/mbedtls/library\aes.c **** 
1187:D:/Work/DeviceTester/amazon-freertos/lib/third_party/mbedtls/library\aes.c ****         output += 16;
1188:D:/Work/DeviceTester/amazon-freertos/lib/third_party/mbedtls/library\aes.c ****         input += 16;
1189:D:/Work/DeviceTester/amazon-freertos/lib/third_party/mbedtls/library\aes.c ****     }
1190:D:/Work/DeviceTester/amazon-freertos/lib/third_party/mbedtls/library\aes.c **** 
1191:D:/Work/DeviceTester/amazon-freertos/lib/third_party/mbedtls/library\aes.c ****     if( leftover )
1192:D:/Work/DeviceTester/amazon-freertos/lib/third_party/mbedtls/library\aes.c ****     {
1193:D:/Work/DeviceTester/amazon-freertos/lib/third_party/mbedtls/library\aes.c ****         /* If we are on the leftover bytes in a decrypt operation, we need to
1194:D:/Work/DeviceTester/amazon-freertos/lib/third_party/mbedtls/library\aes.c ****          * use the previous tweak for these bytes (as saved in prev_tweak). */
1195:D:/Work/DeviceTester/amazon-freertos/lib/third_party/mbedtls/library\aes.c ****         unsigned char *t = mode == MBEDTLS_AES_DECRYPT ? prev_tweak : tweak;
1196:D:/Work/DeviceTester/amazon-freertos/lib/third_party/mbedtls/library\aes.c **** 
1197:D:/Work/DeviceTester/amazon-freertos/lib/third_party/mbedtls/library\aes.c ****         /* We are now on the final part of the data unit, which doesn't divide
1198:D:/Work/DeviceTester/amazon-freertos/lib/third_party/mbedtls/library\aes.c ****          * evenly by 16. It's time for ciphertext stealing. */
1199:D:/Work/DeviceTester/amazon-freertos/lib/third_party/mbedtls/library\aes.c ****         size_t i;
1200:D:/Work/DeviceTester/amazon-freertos/lib/third_party/mbedtls/library\aes.c ****         unsigned char *prev_output = output - 16;
1201:D:/Work/DeviceTester/amazon-freertos/lib/third_party/mbedtls/library\aes.c **** 
1202:D:/Work/DeviceTester/amazon-freertos/lib/third_party/mbedtls/library\aes.c ****         /* Copy ciphertext bytes from the previous block to our output for each
1203:D:/Work/DeviceTester/amazon-freertos/lib/third_party/mbedtls/library\aes.c ****          * byte of cyphertext we won't steal. At the same time, copy the
1204:D:/Work/DeviceTester/amazon-freertos/lib/third_party/mbedtls/library\aes.c ****          * remainder of the input for this final round (since the loop bounds
1205:D:/Work/DeviceTester/amazon-freertos/lib/third_party/mbedtls/library\aes.c ****          * are the same). */
1206:D:/Work/DeviceTester/amazon-freertos/lib/third_party/mbedtls/library\aes.c ****         for( i = 0; i < leftover; i++ )
1207:D:/Work/DeviceTester/amazon-freertos/lib/third_party/mbedtls/library\aes.c ****         {
1208:D:/Work/DeviceTester/amazon-freertos/lib/third_party/mbedtls/library\aes.c ****             output[i] = prev_output[i];
1209:D:/Work/DeviceTester/amazon-freertos/lib/third_party/mbedtls/library\aes.c ****             tmp[i] = input[i] ^ t[i];
1210:D:/Work/DeviceTester/amazon-freertos/lib/third_party/mbedtls/library\aes.c ****         }
1211:D:/Work/DeviceTester/amazon-freertos/lib/third_party/mbedtls/library\aes.c **** 
1212:D:/Work/DeviceTester/amazon-freertos/lib/third_party/mbedtls/library\aes.c ****         /* Copy ciphertext bytes from the previous block for input in this
1213:D:/Work/DeviceTester/amazon-freertos/lib/third_party/mbedtls/library\aes.c ****          * round. */
1214:D:/Work/DeviceTester/amazon-freertos/lib/third_party/mbedtls/library\aes.c ****         for( ; i < 16; i++ )
1215:D:/Work/DeviceTester/amazon-freertos/lib/third_party/mbedtls/library\aes.c ****             tmp[i] = prev_output[i] ^ t[i];
1216:D:/Work/DeviceTester/amazon-freertos/lib/third_party/mbedtls/library\aes.c **** 
1217:D:/Work/DeviceTester/amazon-freertos/lib/third_party/mbedtls/library\aes.c ****         ret = mbedtls_aes_crypt_ecb( &ctx->crypt, mode, tmp, tmp );
1218:D:/Work/DeviceTester/amazon-freertos/lib/third_party/mbedtls/library\aes.c ****         if( ret != 0 )
1219:D:/Work/DeviceTester/amazon-freertos/lib/third_party/mbedtls/library\aes.c ****             return ret;
1220:D:/Work/DeviceTester/amazon-freertos/lib/third_party/mbedtls/library\aes.c **** 
1221:D:/Work/DeviceTester/amazon-freertos/lib/third_party/mbedtls/library\aes.c ****         /* Write the result back to the previous block, overriding the previous
1222:D:/Work/DeviceTester/amazon-freertos/lib/third_party/mbedtls/library\aes.c ****          * output we copied. */
1223:D:/Work/DeviceTester/amazon-freertos/lib/third_party/mbedtls/library\aes.c ****         for( i = 0; i < 16; i++ )
1224:D:/Work/DeviceTester/amazon-freertos/lib/third_party/mbedtls/library\aes.c ****             prev_output[i] = tmp[i] ^ t[i];
1225:D:/Work/DeviceTester/amazon-freertos/lib/third_party/mbedtls/library\aes.c ****     }
1226:D:/Work/DeviceTester/amazon-freertos/lib/third_party/mbedtls/library\aes.c **** 
1227:D:/Work/DeviceTester/amazon-freertos/lib/third_party/mbedtls/library\aes.c ****     return( 0 );
1228:D:/Work/DeviceTester/amazon-freertos/lib/third_party/mbedtls/library\aes.c **** }
1229:D:/Work/DeviceTester/amazon-freertos/lib/third_party/mbedtls/library\aes.c **** #endif /* MBEDTLS_CIPHER_MODE_XTS */
1230:D:/Work/DeviceTester/amazon-freertos/lib/third_party/mbedtls/library\aes.c **** 
1231:D:/Work/DeviceTester/amazon-freertos/lib/third_party/mbedtls/library\aes.c **** #if defined(MBEDTLS_CIPHER_MODE_CFB)
1232:D:/Work/DeviceTester/amazon-freertos/lib/third_party/mbedtls/library\aes.c **** /*
1233:D:/Work/DeviceTester/amazon-freertos/lib/third_party/mbedtls/library\aes.c ****  * AES-CFB128 buffer encryption/decryption
1234:D:/Work/DeviceTester/amazon-freertos/lib/third_party/mbedtls/library\aes.c ****  */
1235:D:/Work/DeviceTester/amazon-freertos/lib/third_party/mbedtls/library\aes.c **** int mbedtls_aes_crypt_cfb128( mbedtls_aes_context *ctx,
1236:D:/Work/DeviceTester/amazon-freertos/lib/third_party/mbedtls/library\aes.c ****                        int mode,
1237:D:/Work/DeviceTester/amazon-freertos/lib/third_party/mbedtls/library\aes.c ****                        size_t length,
1238:D:/Work/DeviceTester/amazon-freertos/lib/third_party/mbedtls/library\aes.c ****                        size_t *iv_off,
1239:D:/Work/DeviceTester/amazon-freertos/lib/third_party/mbedtls/library\aes.c ****                        unsigned char iv[16],
1240:D:/Work/DeviceTester/amazon-freertos/lib/third_party/mbedtls/library\aes.c ****                        const unsigned char *input,
1241:D:/Work/DeviceTester/amazon-freertos/lib/third_party/mbedtls/library\aes.c ****                        unsigned char *output )
1242:D:/Work/DeviceTester/amazon-freertos/lib/third_party/mbedtls/library\aes.c **** {
 1746              		.loc 1 1242 0
 1747              		.cfi_startproc
 1748              		@ args = 12, pretend = 0, frame = 0
 1749              		@ frame_needed = 0, uses_anonymous_args = 0
 1750              	.LVL191:
 1751 0000 F0472DE9 		push	{r4, r5, r6, r7, r8, r9, r10, lr}
 1752              		.cfi_def_cfa_offset 32
 1753              		.cfi_offset 4, -32
 1754              		.cfi_offset 5, -28
 1755              		.cfi_offset 6, -24
 1756              		.cfi_offset 7, -20
 1757              		.cfi_offset 8, -16
 1758              		.cfi_offset 9, -12
 1759              		.cfi_offset 10, -8
 1760              		.cfi_offset 14, -4
1243:D:/Work/DeviceTester/amazon-freertos/lib/third_party/mbedtls/library\aes.c ****     int c;
1244:D:/Work/DeviceTester/amazon-freertos/lib/third_party/mbedtls/library\aes.c ****     size_t n = *iv_off;
1245:D:/Work/DeviceTester/amazon-freertos/lib/third_party/mbedtls/library\aes.c **** 
1246:D:/Work/DeviceTester/amazon-freertos/lib/third_party/mbedtls/library\aes.c ****     if( mode == MBEDTLS_AES_DECRYPT )
 1761              		.loc 1 1246 0
 1762 0004 000051E3 		cmp	r1, #0
1242:D:/Work/DeviceTester/amazon-freertos/lib/third_party/mbedtls/library\aes.c ****     int c;
 1763              		.loc 1 1242 0
 1764 0008 28509DE5 		ldr	r5, [sp, #40]
 1765 000c 00A0A0E1 		mov	r10, r0
 1766 0010 0390A0E1 		mov	r9, r3
 1767 0014 24709DE5 		ldr	r7, [sp, #36]
 1768 0018 20609DE5 		ldr	r6, [sp, #32]
 1769 001c 01504512 		subne	r5, r5, #1
1244:D:/Work/DeviceTester/amazon-freertos/lib/third_party/mbedtls/library\aes.c **** 
 1770              		.loc 1 1244 0
 1771 0020 004093E5 		ldr	r4, [r3]
 1772              	.LVL192:
 1773 0024 02808500 		addeq	r8, r5, r2
 1774 0028 02808710 		addne	r8, r7, r2
 1775              		.loc 1 1246 0
 1776 002c 1C00000A 		beq	.L71
 1777              	.LVL193:
 1778              	.L70:
1247:D:/Work/DeviceTester/amazon-freertos/lib/third_party/mbedtls/library\aes.c ****     {
1248:D:/Work/DeviceTester/amazon-freertos/lib/third_party/mbedtls/library\aes.c ****         while( length-- )
1249:D:/Work/DeviceTester/amazon-freertos/lib/third_party/mbedtls/library\aes.c ****         {
1250:D:/Work/DeviceTester/amazon-freertos/lib/third_party/mbedtls/library\aes.c ****             if( n == 0 )
1251:D:/Work/DeviceTester/amazon-freertos/lib/third_party/mbedtls/library\aes.c ****                 mbedtls_aes_crypt_ecb( ctx, MBEDTLS_AES_ENCRYPT, iv, iv );
1252:D:/Work/DeviceTester/amazon-freertos/lib/third_party/mbedtls/library\aes.c **** 
1253:D:/Work/DeviceTester/amazon-freertos/lib/third_party/mbedtls/library\aes.c ****             c = *input++;
1254:D:/Work/DeviceTester/amazon-freertos/lib/third_party/mbedtls/library\aes.c ****             *output++ = (unsigned char)( c ^ iv[n] );
1255:D:/Work/DeviceTester/amazon-freertos/lib/third_party/mbedtls/library\aes.c ****             iv[n] = (unsigned char) c;
1256:D:/Work/DeviceTester/amazon-freertos/lib/third_party/mbedtls/library\aes.c **** 
1257:D:/Work/DeviceTester/amazon-freertos/lib/third_party/mbedtls/library\aes.c ****             n = ( n + 1 ) & 0x0F;
1258:D:/Work/DeviceTester/amazon-freertos/lib/third_party/mbedtls/library\aes.c ****         }
1259:D:/Work/DeviceTester/amazon-freertos/lib/third_party/mbedtls/library\aes.c ****     }
1260:D:/Work/DeviceTester/amazon-freertos/lib/third_party/mbedtls/library\aes.c ****     else
1261:D:/Work/DeviceTester/amazon-freertos/lib/third_party/mbedtls/library\aes.c ****     {
1262:D:/Work/DeviceTester/amazon-freertos/lib/third_party/mbedtls/library\aes.c ****         while( length-- )
 1779              		.loc 1 1262 0
 1780 0030 080057E1 		cmp	r7, r8
 1781 0034 1C00000A 		beq	.L74
1263:D:/Work/DeviceTester/amazon-freertos/lib/third_party/mbedtls/library\aes.c ****         {
1264:D:/Work/DeviceTester/amazon-freertos/lib/third_party/mbedtls/library\aes.c ****             if( n == 0 )
 1782              		.loc 1 1264 0
 1783 0038 000054E3 		cmp	r4, #0
 1784 003c 0300001A 		bne	.L75
 1785              	.LVL194:
 1786              	.LBB16:
 1787              	.LBB17:
1001:D:/Work/DeviceTester/amazon-freertos/lib/third_party/mbedtls/library\aes.c ****     else
 1788              		.loc 1 1001 0
 1789 0040 0620A0E1 		mov	r2, r6
 1790 0044 0610A0E1 		mov	r1, r6
 1791 0048 0A00A0E1 		mov	r0, r10
 1792 004c FEFFFFEB 		bl	mbedtls_internal_aes_encrypt
 1793              	.LVL195:
 1794              	.L75:
 1795              	.LBE17:
 1796              	.LBE16:
1265:D:/Work/DeviceTester/amazon-freertos/lib/third_party/mbedtls/library\aes.c ****                 mbedtls_aes_crypt_ecb( ctx, MBEDTLS_AES_ENCRYPT, iv, iv );
1266:D:/Work/DeviceTester/amazon-freertos/lib/third_party/mbedtls/library\aes.c **** 
1267:D:/Work/DeviceTester/amazon-freertos/lib/third_party/mbedtls/library\aes.c ****             iv[n] = *output++ = (unsigned char)( iv[n] ^ *input++ );
 1797              		.loc 1 1267 0
 1798 0050 0430D6E7 		ldrb	r3, [r6, r4]	@ zero_extendqisi2
 1799 0054 0120D7E4 		ldrb	r2, [r7], #1	@ zero_extendqisi2
 1800              	.LVL196:
 1801 0058 023023E0 		eor	r3, r3, r2
 1802 005c 0130E5E5 		strb	r3, [r5, #1]!
 1803 0060 0430C6E7 		strb	r3, [r6, r4]
1268:D:/Work/DeviceTester/amazon-freertos/lib/third_party/mbedtls/library\aes.c **** 
1269:D:/Work/DeviceTester/amazon-freertos/lib/third_party/mbedtls/library\aes.c ****             n = ( n + 1 ) & 0x0F;
 1804              		.loc 1 1269 0
 1805 0064 014084E2 		add	r4, r4, #1
 1806              	.LVL197:
 1807 0068 0F4004E2 		and	r4, r4, #15
 1808              	.LVL198:
 1809 006c EFFFFFEA 		b	.L70
 1810              	.LVL199:
 1811              	.L73:
1250:D:/Work/DeviceTester/amazon-freertos/lib/third_party/mbedtls/library\aes.c ****                 mbedtls_aes_crypt_ecb( ctx, MBEDTLS_AES_ENCRYPT, iv, iv );
 1812              		.loc 1 1250 0
 1813 0070 000054E3 		cmp	r4, #0
 1814 0074 0300001A 		bne	.L72
 1815              	.LVL200:
 1816              	.LBB18:
 1817              	.LBB19:
1001:D:/Work/DeviceTester/amazon-freertos/lib/third_party/mbedtls/library\aes.c ****     else
 1818              		.loc 1 1001 0
 1819 0078 0620A0E1 		mov	r2, r6
 1820 007c 0610A0E1 		mov	r1, r6
 1821 0080 0A00A0E1 		mov	r0, r10
 1822 0084 FEFFFFEB 		bl	mbedtls_internal_aes_encrypt
 1823              	.LVL201:
 1824              	.L72:
 1825              	.LBE19:
 1826              	.LBE18:
1254:D:/Work/DeviceTester/amazon-freertos/lib/third_party/mbedtls/library\aes.c ****             iv[n] = (unsigned char) c;
 1827              		.loc 1 1254 0
 1828 0088 0430D6E7 		ldrb	r3, [r6, r4]	@ zero_extendqisi2
1253:D:/Work/DeviceTester/amazon-freertos/lib/third_party/mbedtls/library\aes.c ****             *output++ = (unsigned char)( c ^ iv[n] );
 1829              		.loc 1 1253 0
 1830 008c 0120D7E4 		ldrb	r2, [r7], #1	@ zero_extendqisi2
 1831              	.LVL202:
1254:D:/Work/DeviceTester/amazon-freertos/lib/third_party/mbedtls/library\aes.c ****             iv[n] = (unsigned char) c;
 1832              		.loc 1 1254 0
 1833 0090 023023E0 		eor	r3, r3, r2
 1834 0094 0130C5E4 		strb	r3, [r5], #1
 1835              	.LVL203:
1255:D:/Work/DeviceTester/amazon-freertos/lib/third_party/mbedtls/library\aes.c **** 
 1836              		.loc 1 1255 0
 1837 0098 0420C6E7 		strb	r2, [r6, r4]
1257:D:/Work/DeviceTester/amazon-freertos/lib/third_party/mbedtls/library\aes.c ****         }
 1838              		.loc 1 1257 0
 1839 009c 014084E2 		add	r4, r4, #1
 1840              	.LVL204:
 1841 00a0 0F4004E2 		and	r4, r4, #15
 1842              	.LVL205:
 1843              	.L71:
1248:D:/Work/DeviceTester/amazon-freertos/lib/third_party/mbedtls/library\aes.c ****         {
 1844              		.loc 1 1248 0
 1845 00a4 080055E1 		cmp	r5, r8
 1846 00a8 F0FFFF1A 		bne	.L73
 1847              	.L74:
1270:D:/Work/DeviceTester/amazon-freertos/lib/third_party/mbedtls/library\aes.c ****         }
1271:D:/Work/DeviceTester/amazon-freertos/lib/third_party/mbedtls/library\aes.c ****     }
1272:D:/Work/DeviceTester/amazon-freertos/lib/third_party/mbedtls/library\aes.c **** 
1273:D:/Work/DeviceTester/amazon-freertos/lib/third_party/mbedtls/library\aes.c ****     *iv_off = n;
 1848              		.loc 1 1273 0
 1849 00ac 004089E5 		str	r4, [r9]
1274:D:/Work/DeviceTester/amazon-freertos/lib/third_party/mbedtls/library\aes.c **** 
1275:D:/Work/DeviceTester/amazon-freertos/lib/third_party/mbedtls/library\aes.c ****     return( 0 );
1276:D:/Work/DeviceTester/amazon-freertos/lib/third_party/mbedtls/library\aes.c **** }
 1850              		.loc 1 1276 0
 1851 00b0 0000A0E3 		mov	r0, #0
 1852 00b4 F087BDE8 		pop	{r4, r5, r6, r7, r8, r9, r10, pc}
 1853              		.cfi_endproc
 1854              	.LFE9:
 1856              		.section	.text.mbedtls_aes_crypt_cfb8,"ax",%progbits
 1857              		.align	2
 1858              		.global	mbedtls_aes_crypt_cfb8
 1859              		.syntax unified
 1860              		.arm
 1861              		.fpu neon
 1863              	mbedtls_aes_crypt_cfb8:
 1864              	.LFB10:
1277:D:/Work/DeviceTester/amazon-freertos/lib/third_party/mbedtls/library\aes.c **** 
1278:D:/Work/DeviceTester/amazon-freertos/lib/third_party/mbedtls/library\aes.c **** /*
1279:D:/Work/DeviceTester/amazon-freertos/lib/third_party/mbedtls/library\aes.c ****  * AES-CFB8 buffer encryption/decryption
1280:D:/Work/DeviceTester/amazon-freertos/lib/third_party/mbedtls/library\aes.c ****  */
1281:D:/Work/DeviceTester/amazon-freertos/lib/third_party/mbedtls/library\aes.c **** int mbedtls_aes_crypt_cfb8( mbedtls_aes_context *ctx,
1282:D:/Work/DeviceTester/amazon-freertos/lib/third_party/mbedtls/library\aes.c ****                        int mode,
1283:D:/Work/DeviceTester/amazon-freertos/lib/third_party/mbedtls/library\aes.c ****                        size_t length,
1284:D:/Work/DeviceTester/amazon-freertos/lib/third_party/mbedtls/library\aes.c ****                        unsigned char iv[16],
1285:D:/Work/DeviceTester/amazon-freertos/lib/third_party/mbedtls/library\aes.c ****                        const unsigned char *input,
1286:D:/Work/DeviceTester/amazon-freertos/lib/third_party/mbedtls/library\aes.c ****                        unsigned char *output )
1287:D:/Work/DeviceTester/amazon-freertos/lib/third_party/mbedtls/library\aes.c **** {
 1865              		.loc 1 1287 0
 1866              		.cfi_startproc
 1867              		@ args = 8, pretend = 0, frame = 24
 1868              		@ frame_needed = 0, uses_anonymous_args = 0
 1869              	.LVL206:
 1870 0000 F0432DE9 		push	{r4, r5, r6, r7, r8, r9, lr}
 1871              		.cfi_def_cfa_offset 28
 1872              		.cfi_offset 4, -28
 1873              		.cfi_offset 5, -24
 1874              		.cfi_offset 6, -20
 1875              		.cfi_offset 7, -16
 1876              		.cfi_offset 8, -12
 1877              		.cfi_offset 9, -8
 1878              		.cfi_offset 14, -4
 1879 0004 1CD04DE2 		sub	sp, sp, #28
 1880              		.cfi_def_cfa_offset 56
 1881              		.loc 1 1287 0
 1882 0008 3C509DE5 		ldr	r5, [sp, #60]
 1883 000c 0090A0E1 		mov	r9, r0
 1884 0010 0170A0E1 		mov	r7, r1
 1885 0014 0340A0E1 		mov	r4, r3
 1886 0018 38609DE5 		ldr	r6, [sp, #56]
 1887 001c 028085E0 		add	r8, r5, r2
 1888              	.LVL207:
 1889              	.L79:
1288:D:/Work/DeviceTester/amazon-freertos/lib/third_party/mbedtls/library\aes.c ****     unsigned char c;
1289:D:/Work/DeviceTester/amazon-freertos/lib/third_party/mbedtls/library\aes.c ****     unsigned char ov[17];
1290:D:/Work/DeviceTester/amazon-freertos/lib/third_party/mbedtls/library\aes.c **** 
1291:D:/Work/DeviceTester/amazon-freertos/lib/third_party/mbedtls/library\aes.c ****     while( length-- )
 1890              		.loc 1 1291 0
 1891 0020 080055E1 		cmp	r5, r8
 1892 0024 0200001A 		bne	.L82
1292:D:/Work/DeviceTester/amazon-freertos/lib/third_party/mbedtls/library\aes.c ****     {
1293:D:/Work/DeviceTester/amazon-freertos/lib/third_party/mbedtls/library\aes.c ****         memcpy( ov, iv, 16 );
1294:D:/Work/DeviceTester/amazon-freertos/lib/third_party/mbedtls/library\aes.c ****         mbedtls_aes_crypt_ecb( ctx, MBEDTLS_AES_ENCRYPT, iv, iv );
1295:D:/Work/DeviceTester/amazon-freertos/lib/third_party/mbedtls/library\aes.c **** 
1296:D:/Work/DeviceTester/amazon-freertos/lib/third_party/mbedtls/library\aes.c ****         if( mode == MBEDTLS_AES_DECRYPT )
1297:D:/Work/DeviceTester/amazon-freertos/lib/third_party/mbedtls/library\aes.c ****             ov[16] = *input;
1298:D:/Work/DeviceTester/amazon-freertos/lib/third_party/mbedtls/library\aes.c **** 
1299:D:/Work/DeviceTester/amazon-freertos/lib/third_party/mbedtls/library\aes.c ****         c = *output++ = (unsigned char)( iv[0] ^ *input++ );
1300:D:/Work/DeviceTester/amazon-freertos/lib/third_party/mbedtls/library\aes.c **** 
1301:D:/Work/DeviceTester/amazon-freertos/lib/third_party/mbedtls/library\aes.c ****         if( mode == MBEDTLS_AES_ENCRYPT )
1302:D:/Work/DeviceTester/amazon-freertos/lib/third_party/mbedtls/library\aes.c ****             ov[16] = c;
1303:D:/Work/DeviceTester/amazon-freertos/lib/third_party/mbedtls/library\aes.c **** 
1304:D:/Work/DeviceTester/amazon-freertos/lib/third_party/mbedtls/library\aes.c ****         memcpy( iv, ov + 1, 16 );
1305:D:/Work/DeviceTester/amazon-freertos/lib/third_party/mbedtls/library\aes.c ****     }
1306:D:/Work/DeviceTester/amazon-freertos/lib/third_party/mbedtls/library\aes.c **** 
1307:D:/Work/DeviceTester/amazon-freertos/lib/third_party/mbedtls/library\aes.c ****     return( 0 );
1308:D:/Work/DeviceTester/amazon-freertos/lib/third_party/mbedtls/library\aes.c **** }
 1893              		.loc 1 1308 0
 1894 0028 0000A0E3 		mov	r0, #0
 1895 002c 1CD08DE2 		add	sp, sp, #28
 1896              		.cfi_remember_state
 1897              		.cfi_def_cfa_offset 28
 1898              		@ sp needed
 1899 0030 F083BDE8 		pop	{r4, r5, r6, r7, r8, r9, pc}
 1900              	.LVL208:
 1901              	.L82:
 1902              		.cfi_restore_state
1293:D:/Work/DeviceTester/amazon-freertos/lib/third_party/mbedtls/library\aes.c ****         mbedtls_aes_crypt_ecb( ctx, MBEDTLS_AES_ENCRYPT, iv, iv );
 1903              		.loc 1 1293 0
 1904 0034 0410A0E1 		mov	r1, r4
 1905 0038 1020A0E3 		mov	r2, #16
 1906 003c 04008DE2 		add	r0, sp, #4
 1907 0040 FEFFFFEB 		bl	memcpy
 1908              	.LVL209:
 1909              	.LBB20:
 1910              	.LBB21:
1001:D:/Work/DeviceTester/amazon-freertos/lib/third_party/mbedtls/library\aes.c ****     else
 1911              		.loc 1 1001 0
 1912 0044 0420A0E1 		mov	r2, r4
 1913 0048 0410A0E1 		mov	r1, r4
 1914 004c 0900A0E1 		mov	r0, r9
 1915 0050 FEFFFFEB 		bl	mbedtls_internal_aes_encrypt
 1916              	.LVL210:
 1917              	.LBE21:
 1918              	.LBE20:
1296:D:/Work/DeviceTester/amazon-freertos/lib/third_party/mbedtls/library\aes.c ****             ov[16] = *input;
 1919              		.loc 1 1296 0
 1920 0054 000057E3 		cmp	r7, #0
1304:D:/Work/DeviceTester/amazon-freertos/lib/third_party/mbedtls/library\aes.c ****     }
 1921              		.loc 1 1304 0
 1922 0058 05108DE2 		add	r1, sp, #5
1297:D:/Work/DeviceTester/amazon-freertos/lib/third_party/mbedtls/library\aes.c **** 
 1923              		.loc 1 1297 0
 1924 005c 0030D605 		ldrbeq	r3, [r6]	@ zero_extendqisi2
1304:D:/Work/DeviceTester/amazon-freertos/lib/third_party/mbedtls/library\aes.c ****     }
 1925              		.loc 1 1304 0
 1926 0060 0400A0E1 		mov	r0, r4
1299:D:/Work/DeviceTester/amazon-freertos/lib/third_party/mbedtls/library\aes.c **** 
 1927              		.loc 1 1299 0
 1928 0064 0120D6E4 		ldrb	r2, [r6], #1	@ zero_extendqisi2
 1929              	.LVL211:
1297:D:/Work/DeviceTester/amazon-freertos/lib/third_party/mbedtls/library\aes.c **** 
 1930              		.loc 1 1297 0
 1931 0068 1430CD05 		strbeq	r3, [sp, #20]
 1932              	.LVL212:
1301:D:/Work/DeviceTester/amazon-freertos/lib/third_party/mbedtls/library\aes.c ****             ov[16] = c;
 1933              		.loc 1 1301 0
 1934 006c 010057E3 		cmp	r7, #1
1299:D:/Work/DeviceTester/amazon-freertos/lib/third_party/mbedtls/library\aes.c **** 
 1935              		.loc 1 1299 0
 1936 0070 0030D4E5 		ldrb	r3, [r4]	@ zero_extendqisi2
 1937 0074 023023E0 		eor	r3, r3, r2
1304:D:/Work/DeviceTester/amazon-freertos/lib/third_party/mbedtls/library\aes.c ****     }
 1938              		.loc 1 1304 0
 1939 0078 1020A0E3 		mov	r2, #16
1299:D:/Work/DeviceTester/amazon-freertos/lib/third_party/mbedtls/library\aes.c **** 
 1940              		.loc 1 1299 0
 1941 007c 0130C5E4 		strb	r3, [r5], #1
 1942              	.LVL213:
1302:D:/Work/DeviceTester/amazon-freertos/lib/third_party/mbedtls/library\aes.c **** 
 1943              		.loc 1 1302 0
 1944 0080 1430CD05 		strbeq	r3, [sp, #20]
1304:D:/Work/DeviceTester/amazon-freertos/lib/third_party/mbedtls/library\aes.c ****     }
 1945              		.loc 1 1304 0
 1946 0084 FEFFFFEB 		bl	memcpy
 1947              	.LVL214:
 1948 0088 E4FFFFEA 		b	.L79
 1949              		.cfi_endproc
 1950              	.LFE10:
 1952              		.section	.text.mbedtls_aes_crypt_ctr,"ax",%progbits
 1953              		.align	2
 1954              		.global	mbedtls_aes_crypt_ctr
 1955              		.syntax unified
 1956              		.arm
 1957              		.fpu neon
 1959              	mbedtls_aes_crypt_ctr:
 1960              	.LFB11:
1309:D:/Work/DeviceTester/amazon-freertos/lib/third_party/mbedtls/library\aes.c **** #endif /* MBEDTLS_CIPHER_MODE_CFB */
1310:D:/Work/DeviceTester/amazon-freertos/lib/third_party/mbedtls/library\aes.c **** 
1311:D:/Work/DeviceTester/amazon-freertos/lib/third_party/mbedtls/library\aes.c **** #if defined(MBEDTLS_CIPHER_MODE_OFB)
1312:D:/Work/DeviceTester/amazon-freertos/lib/third_party/mbedtls/library\aes.c **** /*
1313:D:/Work/DeviceTester/amazon-freertos/lib/third_party/mbedtls/library\aes.c ****  * AES-OFB (Output Feedback Mode) buffer encryption/decryption
1314:D:/Work/DeviceTester/amazon-freertos/lib/third_party/mbedtls/library\aes.c ****  */
1315:D:/Work/DeviceTester/amazon-freertos/lib/third_party/mbedtls/library\aes.c **** int mbedtls_aes_crypt_ofb( mbedtls_aes_context *ctx,
1316:D:/Work/DeviceTester/amazon-freertos/lib/third_party/mbedtls/library\aes.c ****                            size_t length,
1317:D:/Work/DeviceTester/amazon-freertos/lib/third_party/mbedtls/library\aes.c ****                            size_t *iv_off,
1318:D:/Work/DeviceTester/amazon-freertos/lib/third_party/mbedtls/library\aes.c ****                            unsigned char iv[16],
1319:D:/Work/DeviceTester/amazon-freertos/lib/third_party/mbedtls/library\aes.c ****                            const unsigned char *input,
1320:D:/Work/DeviceTester/amazon-freertos/lib/third_party/mbedtls/library\aes.c ****                            unsigned char *output )
1321:D:/Work/DeviceTester/amazon-freertos/lib/third_party/mbedtls/library\aes.c **** {
1322:D:/Work/DeviceTester/amazon-freertos/lib/third_party/mbedtls/library\aes.c ****     int ret = 0;
1323:D:/Work/DeviceTester/amazon-freertos/lib/third_party/mbedtls/library\aes.c ****     size_t n = *iv_off;
1324:D:/Work/DeviceTester/amazon-freertos/lib/third_party/mbedtls/library\aes.c **** 
1325:D:/Work/DeviceTester/amazon-freertos/lib/third_party/mbedtls/library\aes.c ****     while( length-- )
1326:D:/Work/DeviceTester/amazon-freertos/lib/third_party/mbedtls/library\aes.c ****     {
1327:D:/Work/DeviceTester/amazon-freertos/lib/third_party/mbedtls/library\aes.c ****         if( n == 0 )
1328:D:/Work/DeviceTester/amazon-freertos/lib/third_party/mbedtls/library\aes.c ****         {
1329:D:/Work/DeviceTester/amazon-freertos/lib/third_party/mbedtls/library\aes.c ****             ret = mbedtls_aes_crypt_ecb( ctx, MBEDTLS_AES_ENCRYPT, iv, iv );
1330:D:/Work/DeviceTester/amazon-freertos/lib/third_party/mbedtls/library\aes.c ****             if( ret != 0 )
1331:D:/Work/DeviceTester/amazon-freertos/lib/third_party/mbedtls/library\aes.c ****                 goto exit;
1332:D:/Work/DeviceTester/amazon-freertos/lib/third_party/mbedtls/library\aes.c ****         }
1333:D:/Work/DeviceTester/amazon-freertos/lib/third_party/mbedtls/library\aes.c ****         *output++ =  *input++ ^ iv[n];
1334:D:/Work/DeviceTester/amazon-freertos/lib/third_party/mbedtls/library\aes.c **** 
1335:D:/Work/DeviceTester/amazon-freertos/lib/third_party/mbedtls/library\aes.c ****         n = ( n + 1 ) & 0x0F;
1336:D:/Work/DeviceTester/amazon-freertos/lib/third_party/mbedtls/library\aes.c ****     }
1337:D:/Work/DeviceTester/amazon-freertos/lib/third_party/mbedtls/library\aes.c **** 
1338:D:/Work/DeviceTester/amazon-freertos/lib/third_party/mbedtls/library\aes.c ****     *iv_off = n;
1339:D:/Work/DeviceTester/amazon-freertos/lib/third_party/mbedtls/library\aes.c **** 
1340:D:/Work/DeviceTester/amazon-freertos/lib/third_party/mbedtls/library\aes.c **** exit:
1341:D:/Work/DeviceTester/amazon-freertos/lib/third_party/mbedtls/library\aes.c ****     return( ret );
1342:D:/Work/DeviceTester/amazon-freertos/lib/third_party/mbedtls/library\aes.c **** }
1343:D:/Work/DeviceTester/amazon-freertos/lib/third_party/mbedtls/library\aes.c **** #endif /* MBEDTLS_CIPHER_MODE_OFB */
1344:D:/Work/DeviceTester/amazon-freertos/lib/third_party/mbedtls/library\aes.c **** 
1345:D:/Work/DeviceTester/amazon-freertos/lib/third_party/mbedtls/library\aes.c **** #if defined(MBEDTLS_CIPHER_MODE_CTR)
1346:D:/Work/DeviceTester/amazon-freertos/lib/third_party/mbedtls/library\aes.c **** /*
1347:D:/Work/DeviceTester/amazon-freertos/lib/third_party/mbedtls/library\aes.c ****  * AES-CTR buffer encryption/decryption
1348:D:/Work/DeviceTester/amazon-freertos/lib/third_party/mbedtls/library\aes.c ****  */
1349:D:/Work/DeviceTester/amazon-freertos/lib/third_party/mbedtls/library\aes.c **** int mbedtls_aes_crypt_ctr( mbedtls_aes_context *ctx,
1350:D:/Work/DeviceTester/amazon-freertos/lib/third_party/mbedtls/library\aes.c ****                        size_t length,
1351:D:/Work/DeviceTester/amazon-freertos/lib/third_party/mbedtls/library\aes.c ****                        size_t *nc_off,
1352:D:/Work/DeviceTester/amazon-freertos/lib/third_party/mbedtls/library\aes.c ****                        unsigned char nonce_counter[16],
1353:D:/Work/DeviceTester/amazon-freertos/lib/third_party/mbedtls/library\aes.c ****                        unsigned char stream_block[16],
1354:D:/Work/DeviceTester/amazon-freertos/lib/third_party/mbedtls/library\aes.c ****                        const unsigned char *input,
1355:D:/Work/DeviceTester/amazon-freertos/lib/third_party/mbedtls/library\aes.c ****                        unsigned char *output )
1356:D:/Work/DeviceTester/amazon-freertos/lib/third_party/mbedtls/library\aes.c **** {
 1961              		.loc 1 1356 0
 1962              		.cfi_startproc
 1963              		@ args = 12, pretend = 0, frame = 0
 1964              		@ frame_needed = 0, uses_anonymous_args = 0
 1965              	.LVL215:
 1966 0000 F84F2DE9 		push	{r3, r4, r5, r6, r7, r8, r9, r10, fp, lr}
 1967              		.cfi_def_cfa_offset 40
 1968              		.cfi_offset 3, -40
 1969              		.cfi_offset 4, -36
 1970              		.cfi_offset 5, -32
 1971              		.cfi_offset 6, -28
 1972              		.cfi_offset 7, -24
 1973              		.cfi_offset 8, -20
 1974              		.cfi_offset 9, -16
 1975              		.cfi_offset 10, -12
 1976              		.cfi_offset 11, -8
 1977              		.cfi_offset 14, -4
1357:D:/Work/DeviceTester/amazon-freertos/lib/third_party/mbedtls/library\aes.c ****     int c, i;
1358:D:/Work/DeviceTester/amazon-freertos/lib/third_party/mbedtls/library\aes.c ****     size_t n = *nc_off;
 1978              		.loc 1 1358 0
 1979 0004 004092E5 		ldr	r4, [r2]
 1980              	.LVL216:
1356:D:/Work/DeviceTester/amazon-freertos/lib/third_party/mbedtls/library\aes.c ****     int c, i;
 1981              		.loc 1 1356 0
 1982 0008 28909DE5 		ldr	r9, [sp, #40]
1359:D:/Work/DeviceTester/amazon-freertos/lib/third_party/mbedtls/library\aes.c **** 
1360:D:/Work/DeviceTester/amazon-freertos/lib/third_party/mbedtls/library\aes.c ****     if ( n > 0x0F )
 1983              		.loc 1 1360 0
 1984 000c 0F0054E3 		cmp	r4, #15
1356:D:/Work/DeviceTester/amazon-freertos/lib/third_party/mbedtls/library\aes.c ****     int c, i;
 1985              		.loc 1 1356 0
 1986 0010 2CA09DE5 		ldr	r10, [sp, #44]
 1987 0014 30809DE5 		ldr	r8, [sp, #48]
 1988              		.loc 1 1360 0
 1989 0018 1F00008A 		bhi	.L91
 1990 001c 0360A0E1 		mov	r6, r3
 1991 0020 0270A0E1 		mov	r7, r2
 1992 0024 00B0A0E1 		mov	fp, r0
 1993 0028 015088E0 		add	r5, r8, r1
 1994              	.LVL217:
 1995              	.L86:
1361:D:/Work/DeviceTester/amazon-freertos/lib/third_party/mbedtls/library\aes.c ****         return( MBEDTLS_ERR_AES_BAD_INPUT_DATA );
1362:D:/Work/DeviceTester/amazon-freertos/lib/third_party/mbedtls/library\aes.c **** 
1363:D:/Work/DeviceTester/amazon-freertos/lib/third_party/mbedtls/library\aes.c ****     while( length-- )
 1996              		.loc 1 1363 0
 1997 002c 050058E1 		cmp	r8, r5
 1998 0030 0200001A 		bne	.L90
1364:D:/Work/DeviceTester/amazon-freertos/lib/third_party/mbedtls/library\aes.c ****     {
1365:D:/Work/DeviceTester/amazon-freertos/lib/third_party/mbedtls/library\aes.c ****         if( n == 0 ) {
1366:D:/Work/DeviceTester/amazon-freertos/lib/third_party/mbedtls/library\aes.c ****             mbedtls_aes_crypt_ecb( ctx, MBEDTLS_AES_ENCRYPT, nonce_counter, stream_block );
1367:D:/Work/DeviceTester/amazon-freertos/lib/third_party/mbedtls/library\aes.c **** 
1368:D:/Work/DeviceTester/amazon-freertos/lib/third_party/mbedtls/library\aes.c ****             for( i = 16; i > 0; i-- )
1369:D:/Work/DeviceTester/amazon-freertos/lib/third_party/mbedtls/library\aes.c ****                 if( ++nonce_counter[i - 1] != 0 )
1370:D:/Work/DeviceTester/amazon-freertos/lib/third_party/mbedtls/library\aes.c ****                     break;
1371:D:/Work/DeviceTester/amazon-freertos/lib/third_party/mbedtls/library\aes.c ****         }
1372:D:/Work/DeviceTester/amazon-freertos/lib/third_party/mbedtls/library\aes.c ****         c = *input++;
1373:D:/Work/DeviceTester/amazon-freertos/lib/third_party/mbedtls/library\aes.c ****         *output++ = (unsigned char)( c ^ stream_block[n] );
1374:D:/Work/DeviceTester/amazon-freertos/lib/third_party/mbedtls/library\aes.c **** 
1375:D:/Work/DeviceTester/amazon-freertos/lib/third_party/mbedtls/library\aes.c ****         n = ( n + 1 ) & 0x0F;
1376:D:/Work/DeviceTester/amazon-freertos/lib/third_party/mbedtls/library\aes.c ****     }
1377:D:/Work/DeviceTester/amazon-freertos/lib/third_party/mbedtls/library\aes.c **** 
1378:D:/Work/DeviceTester/amazon-freertos/lib/third_party/mbedtls/library\aes.c ****     *nc_off = n;
 1999              		.loc 1 1378 0
 2000 0034 004087E5 		str	r4, [r7]
1379:D:/Work/DeviceTester/amazon-freertos/lib/third_party/mbedtls/library\aes.c **** 
1380:D:/Work/DeviceTester/amazon-freertos/lib/third_party/mbedtls/library\aes.c ****     return( 0 );
 2001              		.loc 1 1380 0
 2002 0038 0000A0E3 		mov	r0, #0
 2003 003c F88FBDE8 		pop	{r3, r4, r5, r6, r7, r8, r9, r10, fp, pc}
 2004              	.L90:
1365:D:/Work/DeviceTester/amazon-freertos/lib/third_party/mbedtls/library\aes.c ****             mbedtls_aes_crypt_ecb( ctx, MBEDTLS_AES_ENCRYPT, nonce_counter, stream_block );
 2005              		.loc 1 1365 0
 2006 0040 000054E3 		cmp	r4, #0
 2007 0044 0600000A 		beq	.L87
 2008              	.LVL218:
 2009              	.L88:
1373:D:/Work/DeviceTester/amazon-freertos/lib/third_party/mbedtls/library\aes.c **** 
 2010              		.loc 1 1373 0
 2011 0048 0430D9E7 		ldrb	r3, [r9, r4]	@ zero_extendqisi2
1375:D:/Work/DeviceTester/amazon-freertos/lib/third_party/mbedtls/library\aes.c ****     }
 2012              		.loc 1 1375 0
 2013 004c 014084E2 		add	r4, r4, #1
 2014              	.LVL219:
1373:D:/Work/DeviceTester/amazon-freertos/lib/third_party/mbedtls/library\aes.c **** 
 2015              		.loc 1 1373 0
 2016 0050 0120DAE4 		ldrb	r2, [r10], #1	@ zero_extendqisi2
 2017              	.LVL220:
1375:D:/Work/DeviceTester/amazon-freertos/lib/third_party/mbedtls/library\aes.c ****     }
 2018              		.loc 1 1375 0
 2019 0054 0F4004E2 		and	r4, r4, #15
 2020              	.LVL221:
1373:D:/Work/DeviceTester/amazon-freertos/lib/third_party/mbedtls/library\aes.c **** 
 2021              		.loc 1 1373 0
 2022 0058 023023E0 		eor	r3, r3, r2
 2023 005c 0130C8E4 		strb	r3, [r8], #1
 2024              	.LVL222:
 2025 0060 F1FFFFEA 		b	.L86
 2026              	.LVL223:
 2027              	.L87:
 2028              	.LBB22:
 2029              	.LBB23:
1001:D:/Work/DeviceTester/amazon-freertos/lib/third_party/mbedtls/library\aes.c ****     else
 2030              		.loc 1 1001 0
 2031 0064 0920A0E1 		mov	r2, r9
 2032 0068 0610A0E1 		mov	r1, r6
 2033 006c 0B00A0E1 		mov	r0, fp
 2034 0070 FEFFFFEB 		bl	mbedtls_internal_aes_encrypt
 2035              	.LVL224:
 2036 0074 103086E2 		add	r3, r6, #16
 2037              	.LVL225:
 2038              	.L89:
 2039              	.LBE23:
 2040              	.LBE22:
1369:D:/Work/DeviceTester/amazon-freertos/lib/third_party/mbedtls/library\aes.c ****                     break;
 2041              		.loc 1 1369 0
 2042 0078 01C053E5 		ldrb	ip, [r3, #-1]	@ zero_extendqisi2
 2043 007c 01C08CE2 		add	ip, ip, #1
 2044 0080 7CC0EFE6 		uxtb	ip, ip
 2045 0084 00005CE3 		cmp	ip, #0
 2046 0088 01C063E5 		strb	ip, [r3, #-1]!
 2047 008c EDFFFF1A 		bne	.L88
 2048              	.LVL226:
1368:D:/Work/DeviceTester/amazon-freertos/lib/third_party/mbedtls/library\aes.c ****                 if( ++nonce_counter[i - 1] != 0 )
 2049              		.loc 1 1368 0 discriminator 2
 2050 0090 030056E1 		cmp	r6, r3
 2051 0094 F7FFFF1A 		bne	.L89
 2052 0098 EAFFFFEA 		b	.L88
 2053              	.LVL227:
 2054              	.L91:
1361:D:/Work/DeviceTester/amazon-freertos/lib/third_party/mbedtls/library\aes.c **** 
 2055              		.loc 1 1361 0
 2056 009c 2000E0E3 		mvn	r0, #32
 2057              	.LVL228:
1381:D:/Work/DeviceTester/amazon-freertos/lib/third_party/mbedtls/library\aes.c **** }
 2058              		.loc 1 1381 0
 2059 00a0 F88FBDE8 		pop	{r3, r4, r5, r6, r7, r8, r9, r10, fp, pc}
 2060              		.cfi_endproc
 2061              	.LFE11:
 2063              		.section	.text.mbedtls_aes_self_test,"ax",%progbits
 2064              		.align	2
 2065              		.global	mbedtls_aes_self_test
 2066              		.syntax unified
 2067              		.arm
 2068              		.fpu neon
 2070              	mbedtls_aes_self_test:
 2071              	.LFB12:
1382:D:/Work/DeviceTester/amazon-freertos/lib/third_party/mbedtls/library\aes.c **** #endif /* MBEDTLS_CIPHER_MODE_CTR */
1383:D:/Work/DeviceTester/amazon-freertos/lib/third_party/mbedtls/library\aes.c **** 
1384:D:/Work/DeviceTester/amazon-freertos/lib/third_party/mbedtls/library\aes.c **** #endif /* !MBEDTLS_AES_ALT */
1385:D:/Work/DeviceTester/amazon-freertos/lib/third_party/mbedtls/library\aes.c **** 
1386:D:/Work/DeviceTester/amazon-freertos/lib/third_party/mbedtls/library\aes.c **** #if defined(MBEDTLS_SELF_TEST)
1387:D:/Work/DeviceTester/amazon-freertos/lib/third_party/mbedtls/library\aes.c **** /*
1388:D:/Work/DeviceTester/amazon-freertos/lib/third_party/mbedtls/library\aes.c ****  * AES test vectors from:
1389:D:/Work/DeviceTester/amazon-freertos/lib/third_party/mbedtls/library\aes.c ****  *
1390:D:/Work/DeviceTester/amazon-freertos/lib/third_party/mbedtls/library\aes.c ****  * http://csrc.nist.gov/archive/aes/rijndael/rijndael-vals.zip
1391:D:/Work/DeviceTester/amazon-freertos/lib/third_party/mbedtls/library\aes.c ****  */
1392:D:/Work/DeviceTester/amazon-freertos/lib/third_party/mbedtls/library\aes.c **** static const unsigned char aes_test_ecb_dec[3][16] =
1393:D:/Work/DeviceTester/amazon-freertos/lib/third_party/mbedtls/library\aes.c **** {
1394:D:/Work/DeviceTester/amazon-freertos/lib/third_party/mbedtls/library\aes.c ****     { 0x44, 0x41, 0x6A, 0xC2, 0xD1, 0xF5, 0x3C, 0x58,
1395:D:/Work/DeviceTester/amazon-freertos/lib/third_party/mbedtls/library\aes.c ****       0x33, 0x03, 0x91, 0x7E, 0x6B, 0xE9, 0xEB, 0xE0 },
1396:D:/Work/DeviceTester/amazon-freertos/lib/third_party/mbedtls/library\aes.c ****     { 0x48, 0xE3, 0x1E, 0x9E, 0x25, 0x67, 0x18, 0xF2,
1397:D:/Work/DeviceTester/amazon-freertos/lib/third_party/mbedtls/library\aes.c ****       0x92, 0x29, 0x31, 0x9C, 0x19, 0xF1, 0x5B, 0xA4 },
1398:D:/Work/DeviceTester/amazon-freertos/lib/third_party/mbedtls/library\aes.c ****     { 0x05, 0x8C, 0xCF, 0xFD, 0xBB, 0xCB, 0x38, 0x2D,
1399:D:/Work/DeviceTester/amazon-freertos/lib/third_party/mbedtls/library\aes.c ****       0x1F, 0x6F, 0x56, 0x58, 0x5D, 0x8A, 0x4A, 0xDE }
1400:D:/Work/DeviceTester/amazon-freertos/lib/third_party/mbedtls/library\aes.c **** };
1401:D:/Work/DeviceTester/amazon-freertos/lib/third_party/mbedtls/library\aes.c **** 
1402:D:/Work/DeviceTester/amazon-freertos/lib/third_party/mbedtls/library\aes.c **** static const unsigned char aes_test_ecb_enc[3][16] =
1403:D:/Work/DeviceTester/amazon-freertos/lib/third_party/mbedtls/library\aes.c **** {
1404:D:/Work/DeviceTester/amazon-freertos/lib/third_party/mbedtls/library\aes.c ****     { 0xC3, 0x4C, 0x05, 0x2C, 0xC0, 0xDA, 0x8D, 0x73,
1405:D:/Work/DeviceTester/amazon-freertos/lib/third_party/mbedtls/library\aes.c ****       0x45, 0x1A, 0xFE, 0x5F, 0x03, 0xBE, 0x29, 0x7F },
1406:D:/Work/DeviceTester/amazon-freertos/lib/third_party/mbedtls/library\aes.c ****     { 0xF3, 0xF6, 0x75, 0x2A, 0xE8, 0xD7, 0x83, 0x11,
1407:D:/Work/DeviceTester/amazon-freertos/lib/third_party/mbedtls/library\aes.c ****       0x38, 0xF0, 0x41, 0x56, 0x06, 0x31, 0xB1, 0x14 },
1408:D:/Work/DeviceTester/amazon-freertos/lib/third_party/mbedtls/library\aes.c ****     { 0x8B, 0x79, 0xEE, 0xCC, 0x93, 0xA0, 0xEE, 0x5D,
1409:D:/Work/DeviceTester/amazon-freertos/lib/third_party/mbedtls/library\aes.c ****       0xFF, 0x30, 0xB4, 0xEA, 0x21, 0x63, 0x6D, 0xA4 }
1410:D:/Work/DeviceTester/amazon-freertos/lib/third_party/mbedtls/library\aes.c **** };
1411:D:/Work/DeviceTester/amazon-freertos/lib/third_party/mbedtls/library\aes.c **** 
1412:D:/Work/DeviceTester/amazon-freertos/lib/third_party/mbedtls/library\aes.c **** #if defined(MBEDTLS_CIPHER_MODE_CBC)
1413:D:/Work/DeviceTester/amazon-freertos/lib/third_party/mbedtls/library\aes.c **** static const unsigned char aes_test_cbc_dec[3][16] =
1414:D:/Work/DeviceTester/amazon-freertos/lib/third_party/mbedtls/library\aes.c **** {
1415:D:/Work/DeviceTester/amazon-freertos/lib/third_party/mbedtls/library\aes.c ****     { 0xFA, 0xCA, 0x37, 0xE0, 0xB0, 0xC8, 0x53, 0x73,
1416:D:/Work/DeviceTester/amazon-freertos/lib/third_party/mbedtls/library\aes.c ****       0xDF, 0x70, 0x6E, 0x73, 0xF7, 0xC9, 0xAF, 0x86 },
1417:D:/Work/DeviceTester/amazon-freertos/lib/third_party/mbedtls/library\aes.c ****     { 0x5D, 0xF6, 0x78, 0xDD, 0x17, 0xBA, 0x4E, 0x75,
1418:D:/Work/DeviceTester/amazon-freertos/lib/third_party/mbedtls/library\aes.c ****       0xB6, 0x17, 0x68, 0xC6, 0xAD, 0xEF, 0x7C, 0x7B },
1419:D:/Work/DeviceTester/amazon-freertos/lib/third_party/mbedtls/library\aes.c ****     { 0x48, 0x04, 0xE1, 0x81, 0x8F, 0xE6, 0x29, 0x75,
1420:D:/Work/DeviceTester/amazon-freertos/lib/third_party/mbedtls/library\aes.c ****       0x19, 0xA3, 0xE8, 0x8C, 0x57, 0x31, 0x04, 0x13 }
1421:D:/Work/DeviceTester/amazon-freertos/lib/third_party/mbedtls/library\aes.c **** };
1422:D:/Work/DeviceTester/amazon-freertos/lib/third_party/mbedtls/library\aes.c **** 
1423:D:/Work/DeviceTester/amazon-freertos/lib/third_party/mbedtls/library\aes.c **** static const unsigned char aes_test_cbc_enc[3][16] =
1424:D:/Work/DeviceTester/amazon-freertos/lib/third_party/mbedtls/library\aes.c **** {
1425:D:/Work/DeviceTester/amazon-freertos/lib/third_party/mbedtls/library\aes.c ****     { 0x8A, 0x05, 0xFC, 0x5E, 0x09, 0x5A, 0xF4, 0x84,
1426:D:/Work/DeviceTester/amazon-freertos/lib/third_party/mbedtls/library\aes.c ****       0x8A, 0x08, 0xD3, 0x28, 0xD3, 0x68, 0x8E, 0x3D },
1427:D:/Work/DeviceTester/amazon-freertos/lib/third_party/mbedtls/library\aes.c ****     { 0x7B, 0xD9, 0x66, 0xD5, 0x3A, 0xD8, 0xC1, 0xBB,
1428:D:/Work/DeviceTester/amazon-freertos/lib/third_party/mbedtls/library\aes.c ****       0x85, 0xD2, 0xAD, 0xFA, 0xE8, 0x7B, 0xB1, 0x04 },
1429:D:/Work/DeviceTester/amazon-freertos/lib/third_party/mbedtls/library\aes.c ****     { 0xFE, 0x3C, 0x53, 0x65, 0x3E, 0x2F, 0x45, 0xB5,
1430:D:/Work/DeviceTester/amazon-freertos/lib/third_party/mbedtls/library\aes.c ****       0x6F, 0xCD, 0x88, 0xB2, 0xCC, 0x89, 0x8F, 0xF0 }
1431:D:/Work/DeviceTester/amazon-freertos/lib/third_party/mbedtls/library\aes.c **** };
1432:D:/Work/DeviceTester/amazon-freertos/lib/third_party/mbedtls/library\aes.c **** #endif /* MBEDTLS_CIPHER_MODE_CBC */
1433:D:/Work/DeviceTester/amazon-freertos/lib/third_party/mbedtls/library\aes.c **** 
1434:D:/Work/DeviceTester/amazon-freertos/lib/third_party/mbedtls/library\aes.c **** #if defined(MBEDTLS_CIPHER_MODE_CFB)
1435:D:/Work/DeviceTester/amazon-freertos/lib/third_party/mbedtls/library\aes.c **** /*
1436:D:/Work/DeviceTester/amazon-freertos/lib/third_party/mbedtls/library\aes.c ****  * AES-CFB128 test vectors from:
1437:D:/Work/DeviceTester/amazon-freertos/lib/third_party/mbedtls/library\aes.c ****  *
1438:D:/Work/DeviceTester/amazon-freertos/lib/third_party/mbedtls/library\aes.c ****  * http://csrc.nist.gov/publications/nistpubs/800-38a/sp800-38a.pdf
1439:D:/Work/DeviceTester/amazon-freertos/lib/third_party/mbedtls/library\aes.c ****  */
1440:D:/Work/DeviceTester/amazon-freertos/lib/third_party/mbedtls/library\aes.c **** static const unsigned char aes_test_cfb128_key[3][32] =
1441:D:/Work/DeviceTester/amazon-freertos/lib/third_party/mbedtls/library\aes.c **** {
1442:D:/Work/DeviceTester/amazon-freertos/lib/third_party/mbedtls/library\aes.c ****     { 0x2B, 0x7E, 0x15, 0x16, 0x28, 0xAE, 0xD2, 0xA6,
1443:D:/Work/DeviceTester/amazon-freertos/lib/third_party/mbedtls/library\aes.c ****       0xAB, 0xF7, 0x15, 0x88, 0x09, 0xCF, 0x4F, 0x3C },
1444:D:/Work/DeviceTester/amazon-freertos/lib/third_party/mbedtls/library\aes.c ****     { 0x8E, 0x73, 0xB0, 0xF7, 0xDA, 0x0E, 0x64, 0x52,
1445:D:/Work/DeviceTester/amazon-freertos/lib/third_party/mbedtls/library\aes.c ****       0xC8, 0x10, 0xF3, 0x2B, 0x80, 0x90, 0x79, 0xE5,
1446:D:/Work/DeviceTester/amazon-freertos/lib/third_party/mbedtls/library\aes.c ****       0x62, 0xF8, 0xEA, 0xD2, 0x52, 0x2C, 0x6B, 0x7B },
1447:D:/Work/DeviceTester/amazon-freertos/lib/third_party/mbedtls/library\aes.c ****     { 0x60, 0x3D, 0xEB, 0x10, 0x15, 0xCA, 0x71, 0xBE,
1448:D:/Work/DeviceTester/amazon-freertos/lib/third_party/mbedtls/library\aes.c ****       0x2B, 0x73, 0xAE, 0xF0, 0x85, 0x7D, 0x77, 0x81,
1449:D:/Work/DeviceTester/amazon-freertos/lib/third_party/mbedtls/library\aes.c ****       0x1F, 0x35, 0x2C, 0x07, 0x3B, 0x61, 0x08, 0xD7,
1450:D:/Work/DeviceTester/amazon-freertos/lib/third_party/mbedtls/library\aes.c ****       0x2D, 0x98, 0x10, 0xA3, 0x09, 0x14, 0xDF, 0xF4 }
1451:D:/Work/DeviceTester/amazon-freertos/lib/third_party/mbedtls/library\aes.c **** };
1452:D:/Work/DeviceTester/amazon-freertos/lib/third_party/mbedtls/library\aes.c **** 
1453:D:/Work/DeviceTester/amazon-freertos/lib/third_party/mbedtls/library\aes.c **** static const unsigned char aes_test_cfb128_iv[16] =
1454:D:/Work/DeviceTester/amazon-freertos/lib/third_party/mbedtls/library\aes.c **** {
1455:D:/Work/DeviceTester/amazon-freertos/lib/third_party/mbedtls/library\aes.c ****     0x00, 0x01, 0x02, 0x03, 0x04, 0x05, 0x06, 0x07,
1456:D:/Work/DeviceTester/amazon-freertos/lib/third_party/mbedtls/library\aes.c ****     0x08, 0x09, 0x0A, 0x0B, 0x0C, 0x0D, 0x0E, 0x0F
1457:D:/Work/DeviceTester/amazon-freertos/lib/third_party/mbedtls/library\aes.c **** };
1458:D:/Work/DeviceTester/amazon-freertos/lib/third_party/mbedtls/library\aes.c **** 
1459:D:/Work/DeviceTester/amazon-freertos/lib/third_party/mbedtls/library\aes.c **** static const unsigned char aes_test_cfb128_pt[64] =
1460:D:/Work/DeviceTester/amazon-freertos/lib/third_party/mbedtls/library\aes.c **** {
1461:D:/Work/DeviceTester/amazon-freertos/lib/third_party/mbedtls/library\aes.c ****     0x6B, 0xC1, 0xBE, 0xE2, 0x2E, 0x40, 0x9F, 0x96,
1462:D:/Work/DeviceTester/amazon-freertos/lib/third_party/mbedtls/library\aes.c ****     0xE9, 0x3D, 0x7E, 0x11, 0x73, 0x93, 0x17, 0x2A,
1463:D:/Work/DeviceTester/amazon-freertos/lib/third_party/mbedtls/library\aes.c ****     0xAE, 0x2D, 0x8A, 0x57, 0x1E, 0x03, 0xAC, 0x9C,
1464:D:/Work/DeviceTester/amazon-freertos/lib/third_party/mbedtls/library\aes.c ****     0x9E, 0xB7, 0x6F, 0xAC, 0x45, 0xAF, 0x8E, 0x51,
1465:D:/Work/DeviceTester/amazon-freertos/lib/third_party/mbedtls/library\aes.c ****     0x30, 0xC8, 0x1C, 0x46, 0xA3, 0x5C, 0xE4, 0x11,
1466:D:/Work/DeviceTester/amazon-freertos/lib/third_party/mbedtls/library\aes.c ****     0xE5, 0xFB, 0xC1, 0x19, 0x1A, 0x0A, 0x52, 0xEF,
1467:D:/Work/DeviceTester/amazon-freertos/lib/third_party/mbedtls/library\aes.c ****     0xF6, 0x9F, 0x24, 0x45, 0xDF, 0x4F, 0x9B, 0x17,
1468:D:/Work/DeviceTester/amazon-freertos/lib/third_party/mbedtls/library\aes.c ****     0xAD, 0x2B, 0x41, 0x7B, 0xE6, 0x6C, 0x37, 0x10
1469:D:/Work/DeviceTester/amazon-freertos/lib/third_party/mbedtls/library\aes.c **** };
1470:D:/Work/DeviceTester/amazon-freertos/lib/third_party/mbedtls/library\aes.c **** 
1471:D:/Work/DeviceTester/amazon-freertos/lib/third_party/mbedtls/library\aes.c **** static const unsigned char aes_test_cfb128_ct[3][64] =
1472:D:/Work/DeviceTester/amazon-freertos/lib/third_party/mbedtls/library\aes.c **** {
1473:D:/Work/DeviceTester/amazon-freertos/lib/third_party/mbedtls/library\aes.c ****     { 0x3B, 0x3F, 0xD9, 0x2E, 0xB7, 0x2D, 0xAD, 0x20,
1474:D:/Work/DeviceTester/amazon-freertos/lib/third_party/mbedtls/library\aes.c ****       0x33, 0x34, 0x49, 0xF8, 0xE8, 0x3C, 0xFB, 0x4A,
1475:D:/Work/DeviceTester/amazon-freertos/lib/third_party/mbedtls/library\aes.c ****       0xC8, 0xA6, 0x45, 0x37, 0xA0, 0xB3, 0xA9, 0x3F,
1476:D:/Work/DeviceTester/amazon-freertos/lib/third_party/mbedtls/library\aes.c ****       0xCD, 0xE3, 0xCD, 0xAD, 0x9F, 0x1C, 0xE5, 0x8B,
1477:D:/Work/DeviceTester/amazon-freertos/lib/third_party/mbedtls/library\aes.c ****       0x26, 0x75, 0x1F, 0x67, 0xA3, 0xCB, 0xB1, 0x40,
1478:D:/Work/DeviceTester/amazon-freertos/lib/third_party/mbedtls/library\aes.c ****       0xB1, 0x80, 0x8C, 0xF1, 0x87, 0xA4, 0xF4, 0xDF,
1479:D:/Work/DeviceTester/amazon-freertos/lib/third_party/mbedtls/library\aes.c ****       0xC0, 0x4B, 0x05, 0x35, 0x7C, 0x5D, 0x1C, 0x0E,
1480:D:/Work/DeviceTester/amazon-freertos/lib/third_party/mbedtls/library\aes.c ****       0xEA, 0xC4, 0xC6, 0x6F, 0x9F, 0xF7, 0xF2, 0xE6 },
1481:D:/Work/DeviceTester/amazon-freertos/lib/third_party/mbedtls/library\aes.c ****     { 0xCD, 0xC8, 0x0D, 0x6F, 0xDD, 0xF1, 0x8C, 0xAB,
1482:D:/Work/DeviceTester/amazon-freertos/lib/third_party/mbedtls/library\aes.c ****       0x34, 0xC2, 0x59, 0x09, 0xC9, 0x9A, 0x41, 0x74,
1483:D:/Work/DeviceTester/amazon-freertos/lib/third_party/mbedtls/library\aes.c ****       0x67, 0xCE, 0x7F, 0x7F, 0x81, 0x17, 0x36, 0x21,
1484:D:/Work/DeviceTester/amazon-freertos/lib/third_party/mbedtls/library\aes.c ****       0x96, 0x1A, 0x2B, 0x70, 0x17, 0x1D, 0x3D, 0x7A,
1485:D:/Work/DeviceTester/amazon-freertos/lib/third_party/mbedtls/library\aes.c ****       0x2E, 0x1E, 0x8A, 0x1D, 0xD5, 0x9B, 0x88, 0xB1,
1486:D:/Work/DeviceTester/amazon-freertos/lib/third_party/mbedtls/library\aes.c ****       0xC8, 0xE6, 0x0F, 0xED, 0x1E, 0xFA, 0xC4, 0xC9,
1487:D:/Work/DeviceTester/amazon-freertos/lib/third_party/mbedtls/library\aes.c ****       0xC0, 0x5F, 0x9F, 0x9C, 0xA9, 0x83, 0x4F, 0xA0,
1488:D:/Work/DeviceTester/amazon-freertos/lib/third_party/mbedtls/library\aes.c ****       0x42, 0xAE, 0x8F, 0xBA, 0x58, 0x4B, 0x09, 0xFF },
1489:D:/Work/DeviceTester/amazon-freertos/lib/third_party/mbedtls/library\aes.c ****     { 0xDC, 0x7E, 0x84, 0xBF, 0xDA, 0x79, 0x16, 0x4B,
1490:D:/Work/DeviceTester/amazon-freertos/lib/third_party/mbedtls/library\aes.c ****       0x7E, 0xCD, 0x84, 0x86, 0x98, 0x5D, 0x38, 0x60,
1491:D:/Work/DeviceTester/amazon-freertos/lib/third_party/mbedtls/library\aes.c ****       0x39, 0xFF, 0xED, 0x14, 0x3B, 0x28, 0xB1, 0xC8,
1492:D:/Work/DeviceTester/amazon-freertos/lib/third_party/mbedtls/library\aes.c ****       0x32, 0x11, 0x3C, 0x63, 0x31, 0xE5, 0x40, 0x7B,
1493:D:/Work/DeviceTester/amazon-freertos/lib/third_party/mbedtls/library\aes.c ****       0xDF, 0x10, 0x13, 0x24, 0x15, 0xE5, 0x4B, 0x92,
1494:D:/Work/DeviceTester/amazon-freertos/lib/third_party/mbedtls/library\aes.c ****       0xA1, 0x3E, 0xD0, 0xA8, 0x26, 0x7A, 0xE2, 0xF9,
1495:D:/Work/DeviceTester/amazon-freertos/lib/third_party/mbedtls/library\aes.c ****       0x75, 0xA3, 0x85, 0x74, 0x1A, 0xB9, 0xCE, 0xF8,
1496:D:/Work/DeviceTester/amazon-freertos/lib/third_party/mbedtls/library\aes.c ****       0x20, 0x31, 0x62, 0x3D, 0x55, 0xB1, 0xE4, 0x71 }
1497:D:/Work/DeviceTester/amazon-freertos/lib/third_party/mbedtls/library\aes.c **** };
1498:D:/Work/DeviceTester/amazon-freertos/lib/third_party/mbedtls/library\aes.c **** #endif /* MBEDTLS_CIPHER_MODE_CFB */
1499:D:/Work/DeviceTester/amazon-freertos/lib/third_party/mbedtls/library\aes.c **** 
1500:D:/Work/DeviceTester/amazon-freertos/lib/third_party/mbedtls/library\aes.c **** #if defined(MBEDTLS_CIPHER_MODE_OFB)
1501:D:/Work/DeviceTester/amazon-freertos/lib/third_party/mbedtls/library\aes.c **** /*
1502:D:/Work/DeviceTester/amazon-freertos/lib/third_party/mbedtls/library\aes.c ****  * AES-OFB test vectors from:
1503:D:/Work/DeviceTester/amazon-freertos/lib/third_party/mbedtls/library\aes.c ****  *
1504:D:/Work/DeviceTester/amazon-freertos/lib/third_party/mbedtls/library\aes.c ****  * https://csrc.nist.gov/publications/detail/sp/800-38a/final
1505:D:/Work/DeviceTester/amazon-freertos/lib/third_party/mbedtls/library\aes.c ****  */
1506:D:/Work/DeviceTester/amazon-freertos/lib/third_party/mbedtls/library\aes.c **** static const unsigned char aes_test_ofb_key[3][32] =
1507:D:/Work/DeviceTester/amazon-freertos/lib/third_party/mbedtls/library\aes.c **** {
1508:D:/Work/DeviceTester/amazon-freertos/lib/third_party/mbedtls/library\aes.c ****     { 0x2B, 0x7E, 0x15, 0x16, 0x28, 0xAE, 0xD2, 0xA6,
1509:D:/Work/DeviceTester/amazon-freertos/lib/third_party/mbedtls/library\aes.c ****       0xAB, 0xF7, 0x15, 0x88, 0x09, 0xCF, 0x4F, 0x3C },
1510:D:/Work/DeviceTester/amazon-freertos/lib/third_party/mbedtls/library\aes.c ****     { 0x8E, 0x73, 0xB0, 0xF7, 0xDA, 0x0E, 0x64, 0x52,
1511:D:/Work/DeviceTester/amazon-freertos/lib/third_party/mbedtls/library\aes.c ****       0xC8, 0x10, 0xF3, 0x2B, 0x80, 0x90, 0x79, 0xE5,
1512:D:/Work/DeviceTester/amazon-freertos/lib/third_party/mbedtls/library\aes.c ****       0x62, 0xF8, 0xEA, 0xD2, 0x52, 0x2C, 0x6B, 0x7B },
1513:D:/Work/DeviceTester/amazon-freertos/lib/third_party/mbedtls/library\aes.c ****     { 0x60, 0x3D, 0xEB, 0x10, 0x15, 0xCA, 0x71, 0xBE,
1514:D:/Work/DeviceTester/amazon-freertos/lib/third_party/mbedtls/library\aes.c ****       0x2B, 0x73, 0xAE, 0xF0, 0x85, 0x7D, 0x77, 0x81,
1515:D:/Work/DeviceTester/amazon-freertos/lib/third_party/mbedtls/library\aes.c ****       0x1F, 0x35, 0x2C, 0x07, 0x3B, 0x61, 0x08, 0xD7,
1516:D:/Work/DeviceTester/amazon-freertos/lib/third_party/mbedtls/library\aes.c ****       0x2D, 0x98, 0x10, 0xA3, 0x09, 0x14, 0xDF, 0xF4 }
1517:D:/Work/DeviceTester/amazon-freertos/lib/third_party/mbedtls/library\aes.c **** };
1518:D:/Work/DeviceTester/amazon-freertos/lib/third_party/mbedtls/library\aes.c **** 
1519:D:/Work/DeviceTester/amazon-freertos/lib/third_party/mbedtls/library\aes.c **** static const unsigned char aes_test_ofb_iv[16] =
1520:D:/Work/DeviceTester/amazon-freertos/lib/third_party/mbedtls/library\aes.c **** {
1521:D:/Work/DeviceTester/amazon-freertos/lib/third_party/mbedtls/library\aes.c ****     0x00, 0x01, 0x02, 0x03, 0x04, 0x05, 0x06, 0x07,
1522:D:/Work/DeviceTester/amazon-freertos/lib/third_party/mbedtls/library\aes.c ****     0x08, 0x09, 0x0A, 0x0B, 0x0C, 0x0D, 0x0E, 0x0F
1523:D:/Work/DeviceTester/amazon-freertos/lib/third_party/mbedtls/library\aes.c **** };
1524:D:/Work/DeviceTester/amazon-freertos/lib/third_party/mbedtls/library\aes.c **** 
1525:D:/Work/DeviceTester/amazon-freertos/lib/third_party/mbedtls/library\aes.c **** static const unsigned char aes_test_ofb_pt[64] =
1526:D:/Work/DeviceTester/amazon-freertos/lib/third_party/mbedtls/library\aes.c **** {
1527:D:/Work/DeviceTester/amazon-freertos/lib/third_party/mbedtls/library\aes.c ****     0x6B, 0xC1, 0xBE, 0xE2, 0x2E, 0x40, 0x9F, 0x96,
1528:D:/Work/DeviceTester/amazon-freertos/lib/third_party/mbedtls/library\aes.c ****     0xE9, 0x3D, 0x7E, 0x11, 0x73, 0x93, 0x17, 0x2A,
1529:D:/Work/DeviceTester/amazon-freertos/lib/third_party/mbedtls/library\aes.c ****     0xAE, 0x2D, 0x8A, 0x57, 0x1E, 0x03, 0xAC, 0x9C,
1530:D:/Work/DeviceTester/amazon-freertos/lib/third_party/mbedtls/library\aes.c ****     0x9E, 0xB7, 0x6F, 0xAC, 0x45, 0xAF, 0x8E, 0x51,
1531:D:/Work/DeviceTester/amazon-freertos/lib/third_party/mbedtls/library\aes.c ****     0x30, 0xC8, 0x1C, 0x46, 0xA3, 0x5C, 0xE4, 0x11,
1532:D:/Work/DeviceTester/amazon-freertos/lib/third_party/mbedtls/library\aes.c ****     0xE5, 0xFB, 0xC1, 0x19, 0x1A, 0x0A, 0x52, 0xEF,
1533:D:/Work/DeviceTester/amazon-freertos/lib/third_party/mbedtls/library\aes.c ****     0xF6, 0x9F, 0x24, 0x45, 0xDF, 0x4F, 0x9B, 0x17,
1534:D:/Work/DeviceTester/amazon-freertos/lib/third_party/mbedtls/library\aes.c ****     0xAD, 0x2B, 0x41, 0x7B, 0xE6, 0x6C, 0x37, 0x10
1535:D:/Work/DeviceTester/amazon-freertos/lib/third_party/mbedtls/library\aes.c **** };
1536:D:/Work/DeviceTester/amazon-freertos/lib/third_party/mbedtls/library\aes.c **** 
1537:D:/Work/DeviceTester/amazon-freertos/lib/third_party/mbedtls/library\aes.c **** static const unsigned char aes_test_ofb_ct[3][64] =
1538:D:/Work/DeviceTester/amazon-freertos/lib/third_party/mbedtls/library\aes.c **** {
1539:D:/Work/DeviceTester/amazon-freertos/lib/third_party/mbedtls/library\aes.c ****     { 0x3B, 0x3F, 0xD9, 0x2E, 0xB7, 0x2D, 0xAD, 0x20,
1540:D:/Work/DeviceTester/amazon-freertos/lib/third_party/mbedtls/library\aes.c ****       0x33, 0x34, 0x49, 0xF8, 0xE8, 0x3C, 0xFB, 0x4A,
1541:D:/Work/DeviceTester/amazon-freertos/lib/third_party/mbedtls/library\aes.c ****       0x77, 0x89, 0x50, 0x8d, 0x16, 0x91, 0x8f, 0x03,
1542:D:/Work/DeviceTester/amazon-freertos/lib/third_party/mbedtls/library\aes.c ****       0xf5, 0x3c, 0x52, 0xda, 0xc5, 0x4e, 0xd8, 0x25,
1543:D:/Work/DeviceTester/amazon-freertos/lib/third_party/mbedtls/library\aes.c ****       0x97, 0x40, 0x05, 0x1e, 0x9c, 0x5f, 0xec, 0xf6,
1544:D:/Work/DeviceTester/amazon-freertos/lib/third_party/mbedtls/library\aes.c ****       0x43, 0x44, 0xf7, 0xa8, 0x22, 0x60, 0xed, 0xcc,
1545:D:/Work/DeviceTester/amazon-freertos/lib/third_party/mbedtls/library\aes.c ****       0x30, 0x4c, 0x65, 0x28, 0xf6, 0x59, 0xc7, 0x78,
1546:D:/Work/DeviceTester/amazon-freertos/lib/third_party/mbedtls/library\aes.c ****       0x66, 0xa5, 0x10, 0xd9, 0xc1, 0xd6, 0xae, 0x5e },
1547:D:/Work/DeviceTester/amazon-freertos/lib/third_party/mbedtls/library\aes.c ****     { 0xCD, 0xC8, 0x0D, 0x6F, 0xDD, 0xF1, 0x8C, 0xAB,
1548:D:/Work/DeviceTester/amazon-freertos/lib/third_party/mbedtls/library\aes.c ****       0x34, 0xC2, 0x59, 0x09, 0xC9, 0x9A, 0x41, 0x74,
1549:D:/Work/DeviceTester/amazon-freertos/lib/third_party/mbedtls/library\aes.c ****       0xfc, 0xc2, 0x8b, 0x8d, 0x4c, 0x63, 0x83, 0x7c,
1550:D:/Work/DeviceTester/amazon-freertos/lib/third_party/mbedtls/library\aes.c ****       0x09, 0xe8, 0x17, 0x00, 0xc1, 0x10, 0x04, 0x01,
1551:D:/Work/DeviceTester/amazon-freertos/lib/third_party/mbedtls/library\aes.c ****       0x8d, 0x9a, 0x9a, 0xea, 0xc0, 0xf6, 0x59, 0x6f,
1552:D:/Work/DeviceTester/amazon-freertos/lib/third_party/mbedtls/library\aes.c ****       0x55, 0x9c, 0x6d, 0x4d, 0xaf, 0x59, 0xa5, 0xf2,
1553:D:/Work/DeviceTester/amazon-freertos/lib/third_party/mbedtls/library\aes.c ****       0x6d, 0x9f, 0x20, 0x08, 0x57, 0xca, 0x6c, 0x3e,
1554:D:/Work/DeviceTester/amazon-freertos/lib/third_party/mbedtls/library\aes.c ****       0x9c, 0xac, 0x52, 0x4b, 0xd9, 0xac, 0xc9, 0x2a },
1555:D:/Work/DeviceTester/amazon-freertos/lib/third_party/mbedtls/library\aes.c ****     { 0xDC, 0x7E, 0x84, 0xBF, 0xDA, 0x79, 0x16, 0x4B,
1556:D:/Work/DeviceTester/amazon-freertos/lib/third_party/mbedtls/library\aes.c ****       0x7E, 0xCD, 0x84, 0x86, 0x98, 0x5D, 0x38, 0x60,
1557:D:/Work/DeviceTester/amazon-freertos/lib/third_party/mbedtls/library\aes.c ****       0x4f, 0xeb, 0xdc, 0x67, 0x40, 0xd2, 0x0b, 0x3a,
1558:D:/Work/DeviceTester/amazon-freertos/lib/third_party/mbedtls/library\aes.c ****       0xc8, 0x8f, 0x6a, 0xd8, 0x2a, 0x4f, 0xb0, 0x8d,
1559:D:/Work/DeviceTester/amazon-freertos/lib/third_party/mbedtls/library\aes.c ****       0x71, 0xab, 0x47, 0xa0, 0x86, 0xe8, 0x6e, 0xed,
1560:D:/Work/DeviceTester/amazon-freertos/lib/third_party/mbedtls/library\aes.c ****       0xf3, 0x9d, 0x1c, 0x5b, 0xba, 0x97, 0xc4, 0x08,
1561:D:/Work/DeviceTester/amazon-freertos/lib/third_party/mbedtls/library\aes.c ****       0x01, 0x26, 0x14, 0x1d, 0x67, 0xf3, 0x7b, 0xe8,
1562:D:/Work/DeviceTester/amazon-freertos/lib/third_party/mbedtls/library\aes.c ****       0x53, 0x8f, 0x5a, 0x8b, 0xe7, 0x40, 0xe4, 0x84 }
1563:D:/Work/DeviceTester/amazon-freertos/lib/third_party/mbedtls/library\aes.c **** };
1564:D:/Work/DeviceTester/amazon-freertos/lib/third_party/mbedtls/library\aes.c **** #endif /* MBEDTLS_CIPHER_MODE_OFB */
1565:D:/Work/DeviceTester/amazon-freertos/lib/third_party/mbedtls/library\aes.c **** 
1566:D:/Work/DeviceTester/amazon-freertos/lib/third_party/mbedtls/library\aes.c **** #if defined(MBEDTLS_CIPHER_MODE_CTR)
1567:D:/Work/DeviceTester/amazon-freertos/lib/third_party/mbedtls/library\aes.c **** /*
1568:D:/Work/DeviceTester/amazon-freertos/lib/third_party/mbedtls/library\aes.c ****  * AES-CTR test vectors from:
1569:D:/Work/DeviceTester/amazon-freertos/lib/third_party/mbedtls/library\aes.c ****  *
1570:D:/Work/DeviceTester/amazon-freertos/lib/third_party/mbedtls/library\aes.c ****  * http://www.faqs.org/rfcs/rfc3686.html
1571:D:/Work/DeviceTester/amazon-freertos/lib/third_party/mbedtls/library\aes.c ****  */
1572:D:/Work/DeviceTester/amazon-freertos/lib/third_party/mbedtls/library\aes.c **** 
1573:D:/Work/DeviceTester/amazon-freertos/lib/third_party/mbedtls/library\aes.c **** static const unsigned char aes_test_ctr_key[3][16] =
1574:D:/Work/DeviceTester/amazon-freertos/lib/third_party/mbedtls/library\aes.c **** {
1575:D:/Work/DeviceTester/amazon-freertos/lib/third_party/mbedtls/library\aes.c ****     { 0xAE, 0x68, 0x52, 0xF8, 0x12, 0x10, 0x67, 0xCC,
1576:D:/Work/DeviceTester/amazon-freertos/lib/third_party/mbedtls/library\aes.c ****       0x4B, 0xF7, 0xA5, 0x76, 0x55, 0x77, 0xF3, 0x9E },
1577:D:/Work/DeviceTester/amazon-freertos/lib/third_party/mbedtls/library\aes.c ****     { 0x7E, 0x24, 0x06, 0x78, 0x17, 0xFA, 0xE0, 0xD7,
1578:D:/Work/DeviceTester/amazon-freertos/lib/third_party/mbedtls/library\aes.c ****       0x43, 0xD6, 0xCE, 0x1F, 0x32, 0x53, 0x91, 0x63 },
1579:D:/Work/DeviceTester/amazon-freertos/lib/third_party/mbedtls/library\aes.c ****     { 0x76, 0x91, 0xBE, 0x03, 0x5E, 0x50, 0x20, 0xA8,
1580:D:/Work/DeviceTester/amazon-freertos/lib/third_party/mbedtls/library\aes.c ****       0xAC, 0x6E, 0x61, 0x85, 0x29, 0xF9, 0xA0, 0xDC }
1581:D:/Work/DeviceTester/amazon-freertos/lib/third_party/mbedtls/library\aes.c **** };
1582:D:/Work/DeviceTester/amazon-freertos/lib/third_party/mbedtls/library\aes.c **** 
1583:D:/Work/DeviceTester/amazon-freertos/lib/third_party/mbedtls/library\aes.c **** static const unsigned char aes_test_ctr_nonce_counter[3][16] =
1584:D:/Work/DeviceTester/amazon-freertos/lib/third_party/mbedtls/library\aes.c **** {
1585:D:/Work/DeviceTester/amazon-freertos/lib/third_party/mbedtls/library\aes.c ****     { 0x00, 0x00, 0x00, 0x30, 0x00, 0x00, 0x00, 0x00,
1586:D:/Work/DeviceTester/amazon-freertos/lib/third_party/mbedtls/library\aes.c ****       0x00, 0x00, 0x00, 0x00, 0x00, 0x00, 0x00, 0x01 },
1587:D:/Work/DeviceTester/amazon-freertos/lib/third_party/mbedtls/library\aes.c ****     { 0x00, 0x6C, 0xB6, 0xDB, 0xC0, 0x54, 0x3B, 0x59,
1588:D:/Work/DeviceTester/amazon-freertos/lib/third_party/mbedtls/library\aes.c ****       0xDA, 0x48, 0xD9, 0x0B, 0x00, 0x00, 0x00, 0x01 },
1589:D:/Work/DeviceTester/amazon-freertos/lib/third_party/mbedtls/library\aes.c ****     { 0x00, 0xE0, 0x01, 0x7B, 0x27, 0x77, 0x7F, 0x3F,
1590:D:/Work/DeviceTester/amazon-freertos/lib/third_party/mbedtls/library\aes.c ****       0x4A, 0x17, 0x86, 0xF0, 0x00, 0x00, 0x00, 0x01 }
1591:D:/Work/DeviceTester/amazon-freertos/lib/third_party/mbedtls/library\aes.c **** };
1592:D:/Work/DeviceTester/amazon-freertos/lib/third_party/mbedtls/library\aes.c **** 
1593:D:/Work/DeviceTester/amazon-freertos/lib/third_party/mbedtls/library\aes.c **** static const unsigned char aes_test_ctr_pt[3][48] =
1594:D:/Work/DeviceTester/amazon-freertos/lib/third_party/mbedtls/library\aes.c **** {
1595:D:/Work/DeviceTester/amazon-freertos/lib/third_party/mbedtls/library\aes.c ****     { 0x53, 0x69, 0x6E, 0x67, 0x6C, 0x65, 0x20, 0x62,
1596:D:/Work/DeviceTester/amazon-freertos/lib/third_party/mbedtls/library\aes.c ****       0x6C, 0x6F, 0x63, 0x6B, 0x20, 0x6D, 0x73, 0x67 },
1597:D:/Work/DeviceTester/amazon-freertos/lib/third_party/mbedtls/library\aes.c **** 
1598:D:/Work/DeviceTester/amazon-freertos/lib/third_party/mbedtls/library\aes.c ****     { 0x00, 0x01, 0x02, 0x03, 0x04, 0x05, 0x06, 0x07,
1599:D:/Work/DeviceTester/amazon-freertos/lib/third_party/mbedtls/library\aes.c ****       0x08, 0x09, 0x0A, 0x0B, 0x0C, 0x0D, 0x0E, 0x0F,
1600:D:/Work/DeviceTester/amazon-freertos/lib/third_party/mbedtls/library\aes.c ****       0x10, 0x11, 0x12, 0x13, 0x14, 0x15, 0x16, 0x17,
1601:D:/Work/DeviceTester/amazon-freertos/lib/third_party/mbedtls/library\aes.c ****       0x18, 0x19, 0x1A, 0x1B, 0x1C, 0x1D, 0x1E, 0x1F },
1602:D:/Work/DeviceTester/amazon-freertos/lib/third_party/mbedtls/library\aes.c **** 
1603:D:/Work/DeviceTester/amazon-freertos/lib/third_party/mbedtls/library\aes.c ****     { 0x00, 0x01, 0x02, 0x03, 0x04, 0x05, 0x06, 0x07,
1604:D:/Work/DeviceTester/amazon-freertos/lib/third_party/mbedtls/library\aes.c ****       0x08, 0x09, 0x0A, 0x0B, 0x0C, 0x0D, 0x0E, 0x0F,
1605:D:/Work/DeviceTester/amazon-freertos/lib/third_party/mbedtls/library\aes.c ****       0x10, 0x11, 0x12, 0x13, 0x14, 0x15, 0x16, 0x17,
1606:D:/Work/DeviceTester/amazon-freertos/lib/third_party/mbedtls/library\aes.c ****       0x18, 0x19, 0x1A, 0x1B, 0x1C, 0x1D, 0x1E, 0x1F,
1607:D:/Work/DeviceTester/amazon-freertos/lib/third_party/mbedtls/library\aes.c ****       0x20, 0x21, 0x22, 0x23 }
1608:D:/Work/DeviceTester/amazon-freertos/lib/third_party/mbedtls/library\aes.c **** };
1609:D:/Work/DeviceTester/amazon-freertos/lib/third_party/mbedtls/library\aes.c **** 
1610:D:/Work/DeviceTester/amazon-freertos/lib/third_party/mbedtls/library\aes.c **** static const unsigned char aes_test_ctr_ct[3][48] =
1611:D:/Work/DeviceTester/amazon-freertos/lib/third_party/mbedtls/library\aes.c **** {
1612:D:/Work/DeviceTester/amazon-freertos/lib/third_party/mbedtls/library\aes.c ****     { 0xE4, 0x09, 0x5D, 0x4F, 0xB7, 0xA7, 0xB3, 0x79,
1613:D:/Work/DeviceTester/amazon-freertos/lib/third_party/mbedtls/library\aes.c ****       0x2D, 0x61, 0x75, 0xA3, 0x26, 0x13, 0x11, 0xB8 },
1614:D:/Work/DeviceTester/amazon-freertos/lib/third_party/mbedtls/library\aes.c ****     { 0x51, 0x04, 0xA1, 0x06, 0x16, 0x8A, 0x72, 0xD9,
1615:D:/Work/DeviceTester/amazon-freertos/lib/third_party/mbedtls/library\aes.c ****       0x79, 0x0D, 0x41, 0xEE, 0x8E, 0xDA, 0xD3, 0x88,
1616:D:/Work/DeviceTester/amazon-freertos/lib/third_party/mbedtls/library\aes.c ****       0xEB, 0x2E, 0x1E, 0xFC, 0x46, 0xDA, 0x57, 0xC8,
1617:D:/Work/DeviceTester/amazon-freertos/lib/third_party/mbedtls/library\aes.c ****       0xFC, 0xE6, 0x30, 0xDF, 0x91, 0x41, 0xBE, 0x28 },
1618:D:/Work/DeviceTester/amazon-freertos/lib/third_party/mbedtls/library\aes.c ****     { 0xC1, 0xCF, 0x48, 0xA8, 0x9F, 0x2F, 0xFD, 0xD9,
1619:D:/Work/DeviceTester/amazon-freertos/lib/third_party/mbedtls/library\aes.c ****       0xCF, 0x46, 0x52, 0xE9, 0xEF, 0xDB, 0x72, 0xD7,
1620:D:/Work/DeviceTester/amazon-freertos/lib/third_party/mbedtls/library\aes.c ****       0x45, 0x40, 0xA4, 0x2B, 0xDE, 0x6D, 0x78, 0x36,
1621:D:/Work/DeviceTester/amazon-freertos/lib/third_party/mbedtls/library\aes.c ****       0xD5, 0x9A, 0x5C, 0xEA, 0xAE, 0xF3, 0x10, 0x53,
1622:D:/Work/DeviceTester/amazon-freertos/lib/third_party/mbedtls/library\aes.c ****       0x25, 0xB2, 0x07, 0x2F }
1623:D:/Work/DeviceTester/amazon-freertos/lib/third_party/mbedtls/library\aes.c **** };
1624:D:/Work/DeviceTester/amazon-freertos/lib/third_party/mbedtls/library\aes.c **** 
1625:D:/Work/DeviceTester/amazon-freertos/lib/third_party/mbedtls/library\aes.c **** static const int aes_test_ctr_len[3] =
1626:D:/Work/DeviceTester/amazon-freertos/lib/third_party/mbedtls/library\aes.c ****     { 16, 32, 36 };
1627:D:/Work/DeviceTester/amazon-freertos/lib/third_party/mbedtls/library\aes.c **** #endif /* MBEDTLS_CIPHER_MODE_CTR */
1628:D:/Work/DeviceTester/amazon-freertos/lib/third_party/mbedtls/library\aes.c **** 
1629:D:/Work/DeviceTester/amazon-freertos/lib/third_party/mbedtls/library\aes.c **** #if defined(MBEDTLS_CIPHER_MODE_XTS)
1630:D:/Work/DeviceTester/amazon-freertos/lib/third_party/mbedtls/library\aes.c **** /*
1631:D:/Work/DeviceTester/amazon-freertos/lib/third_party/mbedtls/library\aes.c ****  * AES-XTS test vectors from:
1632:D:/Work/DeviceTester/amazon-freertos/lib/third_party/mbedtls/library\aes.c ****  *
1633:D:/Work/DeviceTester/amazon-freertos/lib/third_party/mbedtls/library\aes.c ****  * IEEE P1619/D16 Annex B
1634:D:/Work/DeviceTester/amazon-freertos/lib/third_party/mbedtls/library\aes.c ****  * https://web.archive.org/web/20150629024421/http://grouper.ieee.org/groups/1619/email/pdf00086.pd
1635:D:/Work/DeviceTester/amazon-freertos/lib/third_party/mbedtls/library\aes.c ****  * (Archived from original at http://grouper.ieee.org/groups/1619/email/pdf00086.pdf)
1636:D:/Work/DeviceTester/amazon-freertos/lib/third_party/mbedtls/library\aes.c ****  */
1637:D:/Work/DeviceTester/amazon-freertos/lib/third_party/mbedtls/library\aes.c **** static const unsigned char aes_test_xts_key[][32] =
1638:D:/Work/DeviceTester/amazon-freertos/lib/third_party/mbedtls/library\aes.c **** {
1639:D:/Work/DeviceTester/amazon-freertos/lib/third_party/mbedtls/library\aes.c ****     { 0x00, 0x00, 0x00, 0x00, 0x00, 0x00, 0x00, 0x00,
1640:D:/Work/DeviceTester/amazon-freertos/lib/third_party/mbedtls/library\aes.c ****       0x00, 0x00, 0x00, 0x00, 0x00, 0x00, 0x00, 0x00,
1641:D:/Work/DeviceTester/amazon-freertos/lib/third_party/mbedtls/library\aes.c ****       0x00, 0x00, 0x00, 0x00, 0x00, 0x00, 0x00, 0x00,
1642:D:/Work/DeviceTester/amazon-freertos/lib/third_party/mbedtls/library\aes.c ****       0x00, 0x00, 0x00, 0x00, 0x00, 0x00, 0x00, 0x00 },
1643:D:/Work/DeviceTester/amazon-freertos/lib/third_party/mbedtls/library\aes.c ****     { 0x11, 0x11, 0x11, 0x11, 0x11, 0x11, 0x11, 0x11,
1644:D:/Work/DeviceTester/amazon-freertos/lib/third_party/mbedtls/library\aes.c ****       0x11, 0x11, 0x11, 0x11, 0x11, 0x11, 0x11, 0x11,
1645:D:/Work/DeviceTester/amazon-freertos/lib/third_party/mbedtls/library\aes.c ****       0x22, 0x22, 0x22, 0x22, 0x22, 0x22, 0x22, 0x22,
1646:D:/Work/DeviceTester/amazon-freertos/lib/third_party/mbedtls/library\aes.c ****       0x22, 0x22, 0x22, 0x22, 0x22, 0x22, 0x22, 0x22 },
1647:D:/Work/DeviceTester/amazon-freertos/lib/third_party/mbedtls/library\aes.c ****     { 0xff, 0xfe, 0xfd, 0xfc, 0xfb, 0xfa, 0xf9, 0xf8,
1648:D:/Work/DeviceTester/amazon-freertos/lib/third_party/mbedtls/library\aes.c ****       0xf7, 0xf6, 0xf5, 0xf4, 0xf3, 0xf2, 0xf1, 0xf0,
1649:D:/Work/DeviceTester/amazon-freertos/lib/third_party/mbedtls/library\aes.c ****       0x22, 0x22, 0x22, 0x22, 0x22, 0x22, 0x22, 0x22,
1650:D:/Work/DeviceTester/amazon-freertos/lib/third_party/mbedtls/library\aes.c ****       0x22, 0x22, 0x22, 0x22, 0x22, 0x22, 0x22, 0x22 },
1651:D:/Work/DeviceTester/amazon-freertos/lib/third_party/mbedtls/library\aes.c **** };
1652:D:/Work/DeviceTester/amazon-freertos/lib/third_party/mbedtls/library\aes.c **** 
1653:D:/Work/DeviceTester/amazon-freertos/lib/third_party/mbedtls/library\aes.c **** static const unsigned char aes_test_xts_pt32[][32] =
1654:D:/Work/DeviceTester/amazon-freertos/lib/third_party/mbedtls/library\aes.c **** {
1655:D:/Work/DeviceTester/amazon-freertos/lib/third_party/mbedtls/library\aes.c ****     { 0x00, 0x00, 0x00, 0x00, 0x00, 0x00, 0x00, 0x00,
1656:D:/Work/DeviceTester/amazon-freertos/lib/third_party/mbedtls/library\aes.c ****       0x00, 0x00, 0x00, 0x00, 0x00, 0x00, 0x00, 0x00,
1657:D:/Work/DeviceTester/amazon-freertos/lib/third_party/mbedtls/library\aes.c ****       0x00, 0x00, 0x00, 0x00, 0x00, 0x00, 0x00, 0x00,
1658:D:/Work/DeviceTester/amazon-freertos/lib/third_party/mbedtls/library\aes.c ****       0x00, 0x00, 0x00, 0x00, 0x00, 0x00, 0x00, 0x00 },
1659:D:/Work/DeviceTester/amazon-freertos/lib/third_party/mbedtls/library\aes.c ****     { 0x44, 0x44, 0x44, 0x44, 0x44, 0x44, 0x44, 0x44,
1660:D:/Work/DeviceTester/amazon-freertos/lib/third_party/mbedtls/library\aes.c ****       0x44, 0x44, 0x44, 0x44, 0x44, 0x44, 0x44, 0x44,
1661:D:/Work/DeviceTester/amazon-freertos/lib/third_party/mbedtls/library\aes.c ****       0x44, 0x44, 0x44, 0x44, 0x44, 0x44, 0x44, 0x44,
1662:D:/Work/DeviceTester/amazon-freertos/lib/third_party/mbedtls/library\aes.c ****       0x44, 0x44, 0x44, 0x44, 0x44, 0x44, 0x44, 0x44 },
1663:D:/Work/DeviceTester/amazon-freertos/lib/third_party/mbedtls/library\aes.c ****     { 0x44, 0x44, 0x44, 0x44, 0x44, 0x44, 0x44, 0x44,
1664:D:/Work/DeviceTester/amazon-freertos/lib/third_party/mbedtls/library\aes.c ****       0x44, 0x44, 0x44, 0x44, 0x44, 0x44, 0x44, 0x44,
1665:D:/Work/DeviceTester/amazon-freertos/lib/third_party/mbedtls/library\aes.c ****       0x44, 0x44, 0x44, 0x44, 0x44, 0x44, 0x44, 0x44,
1666:D:/Work/DeviceTester/amazon-freertos/lib/third_party/mbedtls/library\aes.c ****       0x44, 0x44, 0x44, 0x44, 0x44, 0x44, 0x44, 0x44 },
1667:D:/Work/DeviceTester/amazon-freertos/lib/third_party/mbedtls/library\aes.c **** };
1668:D:/Work/DeviceTester/amazon-freertos/lib/third_party/mbedtls/library\aes.c **** 
1669:D:/Work/DeviceTester/amazon-freertos/lib/third_party/mbedtls/library\aes.c **** static const unsigned char aes_test_xts_ct32[][32] =
1670:D:/Work/DeviceTester/amazon-freertos/lib/third_party/mbedtls/library\aes.c **** {
1671:D:/Work/DeviceTester/amazon-freertos/lib/third_party/mbedtls/library\aes.c ****     { 0x91, 0x7c, 0xf6, 0x9e, 0xbd, 0x68, 0xb2, 0xec,
1672:D:/Work/DeviceTester/amazon-freertos/lib/third_party/mbedtls/library\aes.c ****       0x9b, 0x9f, 0xe9, 0xa3, 0xea, 0xdd, 0xa6, 0x92,
1673:D:/Work/DeviceTester/amazon-freertos/lib/third_party/mbedtls/library\aes.c ****       0xcd, 0x43, 0xd2, 0xf5, 0x95, 0x98, 0xed, 0x85,
1674:D:/Work/DeviceTester/amazon-freertos/lib/third_party/mbedtls/library\aes.c ****       0x8c, 0x02, 0xc2, 0x65, 0x2f, 0xbf, 0x92, 0x2e },
1675:D:/Work/DeviceTester/amazon-freertos/lib/third_party/mbedtls/library\aes.c ****     { 0xc4, 0x54, 0x18, 0x5e, 0x6a, 0x16, 0x93, 0x6e,
1676:D:/Work/DeviceTester/amazon-freertos/lib/third_party/mbedtls/library\aes.c ****       0x39, 0x33, 0x40, 0x38, 0xac, 0xef, 0x83, 0x8b,
1677:D:/Work/DeviceTester/amazon-freertos/lib/third_party/mbedtls/library\aes.c ****       0xfb, 0x18, 0x6f, 0xff, 0x74, 0x80, 0xad, 0xc4,
1678:D:/Work/DeviceTester/amazon-freertos/lib/third_party/mbedtls/library\aes.c ****       0x28, 0x93, 0x82, 0xec, 0xd6, 0xd3, 0x94, 0xf0 },
1679:D:/Work/DeviceTester/amazon-freertos/lib/third_party/mbedtls/library\aes.c ****     { 0xaf, 0x85, 0x33, 0x6b, 0x59, 0x7a, 0xfc, 0x1a,
1680:D:/Work/DeviceTester/amazon-freertos/lib/third_party/mbedtls/library\aes.c ****       0x90, 0x0b, 0x2e, 0xb2, 0x1e, 0xc9, 0x49, 0xd2,
1681:D:/Work/DeviceTester/amazon-freertos/lib/third_party/mbedtls/library\aes.c ****       0x92, 0xdf, 0x4c, 0x04, 0x7e, 0x0b, 0x21, 0x53,
1682:D:/Work/DeviceTester/amazon-freertos/lib/third_party/mbedtls/library\aes.c ****       0x21, 0x86, 0xa5, 0x97, 0x1a, 0x22, 0x7a, 0x89 },
1683:D:/Work/DeviceTester/amazon-freertos/lib/third_party/mbedtls/library\aes.c **** };
1684:D:/Work/DeviceTester/amazon-freertos/lib/third_party/mbedtls/library\aes.c **** 
1685:D:/Work/DeviceTester/amazon-freertos/lib/third_party/mbedtls/library\aes.c **** static const unsigned char aes_test_xts_data_unit[][16] =
1686:D:/Work/DeviceTester/amazon-freertos/lib/third_party/mbedtls/library\aes.c **** {
1687:D:/Work/DeviceTester/amazon-freertos/lib/third_party/mbedtls/library\aes.c ****    { 0x00, 0x00, 0x00, 0x00, 0x00, 0x00, 0x00, 0x00,
1688:D:/Work/DeviceTester/amazon-freertos/lib/third_party/mbedtls/library\aes.c ****      0x00, 0x00, 0x00, 0x00, 0x00, 0x00, 0x00, 0x00 },
1689:D:/Work/DeviceTester/amazon-freertos/lib/third_party/mbedtls/library\aes.c ****    { 0x33, 0x33, 0x33, 0x33, 0x33, 0x00, 0x00, 0x00,
1690:D:/Work/DeviceTester/amazon-freertos/lib/third_party/mbedtls/library\aes.c ****      0x00, 0x00, 0x00, 0x00, 0x00, 0x00, 0x00, 0x00 },
1691:D:/Work/DeviceTester/amazon-freertos/lib/third_party/mbedtls/library\aes.c ****    { 0x33, 0x33, 0x33, 0x33, 0x33, 0x00, 0x00, 0x00,
1692:D:/Work/DeviceTester/amazon-freertos/lib/third_party/mbedtls/library\aes.c ****      0x00, 0x00, 0x00, 0x00, 0x00, 0x00, 0x00, 0x00 },
1693:D:/Work/DeviceTester/amazon-freertos/lib/third_party/mbedtls/library\aes.c **** };
1694:D:/Work/DeviceTester/amazon-freertos/lib/third_party/mbedtls/library\aes.c **** 
1695:D:/Work/DeviceTester/amazon-freertos/lib/third_party/mbedtls/library\aes.c **** #endif /* MBEDTLS_CIPHER_MODE_XTS */
1696:D:/Work/DeviceTester/amazon-freertos/lib/third_party/mbedtls/library\aes.c **** 
1697:D:/Work/DeviceTester/amazon-freertos/lib/third_party/mbedtls/library\aes.c **** /*
1698:D:/Work/DeviceTester/amazon-freertos/lib/third_party/mbedtls/library\aes.c ****  * Checkup routine
1699:D:/Work/DeviceTester/amazon-freertos/lib/third_party/mbedtls/library\aes.c ****  */
1700:D:/Work/DeviceTester/amazon-freertos/lib/third_party/mbedtls/library\aes.c **** int mbedtls_aes_self_test( int verbose )
1701:D:/Work/DeviceTester/amazon-freertos/lib/third_party/mbedtls/library\aes.c **** {
 2072              		.loc 1 1701 0
 2073              		.cfi_startproc
 2074              		@ args = 0, pretend = 0, frame = 456
 2075              		@ frame_needed = 0, uses_anonymous_args = 0
 2076              	.LVL229:
 2077 0000 F04F2DE9 		push	{r4, r5, r6, r7, r8, r9, r10, fp, lr}
 2078              		.cfi_def_cfa_offset 36
 2079              		.cfi_offset 4, -36
 2080              		.cfi_offset 5, -32
 2081              		.cfi_offset 6, -28
 2082              		.cfi_offset 7, -24
 2083              		.cfi_offset 8, -20
 2084              		.cfi_offset 9, -16
 2085              		.cfi_offset 10, -12
 2086              		.cfi_offset 11, -8
 2087              		.cfi_offset 14, -4
 2088 0004 77DF4DE2 		sub	sp, sp, #476
 2089              		.cfi_def_cfa_offset 512
1702:D:/Work/DeviceTester/amazon-freertos/lib/third_party/mbedtls/library\aes.c ****     int ret = 0, i, j, u, mode;
1703:D:/Work/DeviceTester/amazon-freertos/lib/third_party/mbedtls/library\aes.c ****     unsigned int keybits;
1704:D:/Work/DeviceTester/amazon-freertos/lib/third_party/mbedtls/library\aes.c ****     unsigned char key[32];
1705:D:/Work/DeviceTester/amazon-freertos/lib/third_party/mbedtls/library\aes.c ****     unsigned char buf[64];
1706:D:/Work/DeviceTester/amazon-freertos/lib/third_party/mbedtls/library\aes.c ****     const unsigned char *aes_tests;
1707:D:/Work/DeviceTester/amazon-freertos/lib/third_party/mbedtls/library\aes.c **** #if defined(MBEDTLS_CIPHER_MODE_CBC) || defined(MBEDTLS_CIPHER_MODE_CFB)
1708:D:/Work/DeviceTester/amazon-freertos/lib/third_party/mbedtls/library\aes.c ****     unsigned char iv[16];
1709:D:/Work/DeviceTester/amazon-freertos/lib/third_party/mbedtls/library\aes.c **** #endif
1710:D:/Work/DeviceTester/amazon-freertos/lib/third_party/mbedtls/library\aes.c **** #if defined(MBEDTLS_CIPHER_MODE_CBC)
1711:D:/Work/DeviceTester/amazon-freertos/lib/third_party/mbedtls/library\aes.c ****     unsigned char prv[16];
1712:D:/Work/DeviceTester/amazon-freertos/lib/third_party/mbedtls/library\aes.c **** #endif
1713:D:/Work/DeviceTester/amazon-freertos/lib/third_party/mbedtls/library\aes.c **** #if defined(MBEDTLS_CIPHER_MODE_CTR) || defined(MBEDTLS_CIPHER_MODE_CFB) || \
1714:D:/Work/DeviceTester/amazon-freertos/lib/third_party/mbedtls/library\aes.c ****     defined(MBEDTLS_CIPHER_MODE_OFB)
1715:D:/Work/DeviceTester/amazon-freertos/lib/third_party/mbedtls/library\aes.c ****     size_t offset;
1716:D:/Work/DeviceTester/amazon-freertos/lib/third_party/mbedtls/library\aes.c **** #endif
1717:D:/Work/DeviceTester/amazon-freertos/lib/third_party/mbedtls/library\aes.c **** #if defined(MBEDTLS_CIPHER_MODE_CTR) || defined(MBEDTLS_CIPHER_MODE_XTS)
1718:D:/Work/DeviceTester/amazon-freertos/lib/third_party/mbedtls/library\aes.c ****     int len;
1719:D:/Work/DeviceTester/amazon-freertos/lib/third_party/mbedtls/library\aes.c **** #endif
1720:D:/Work/DeviceTester/amazon-freertos/lib/third_party/mbedtls/library\aes.c **** #if defined(MBEDTLS_CIPHER_MODE_CTR)
1721:D:/Work/DeviceTester/amazon-freertos/lib/third_party/mbedtls/library\aes.c ****     unsigned char nonce_counter[16];
1722:D:/Work/DeviceTester/amazon-freertos/lib/third_party/mbedtls/library\aes.c ****     unsigned char stream_block[16];
1723:D:/Work/DeviceTester/amazon-freertos/lib/third_party/mbedtls/library\aes.c **** #endif
1724:D:/Work/DeviceTester/amazon-freertos/lib/third_party/mbedtls/library\aes.c ****     mbedtls_aes_context ctx;
1725:D:/Work/DeviceTester/amazon-freertos/lib/third_party/mbedtls/library\aes.c **** 
1726:D:/Work/DeviceTester/amazon-freertos/lib/third_party/mbedtls/library\aes.c ****     memset( key, 0, 32 );
1727:D:/Work/DeviceTester/amazon-freertos/lib/third_party/mbedtls/library\aes.c ****     mbedtls_aes_init( &ctx );
1728:D:/Work/DeviceTester/amazon-freertos/lib/third_party/mbedtls/library\aes.c **** 
1729:D:/Work/DeviceTester/amazon-freertos/lib/third_party/mbedtls/library\aes.c ****     /*
1730:D:/Work/DeviceTester/amazon-freertos/lib/third_party/mbedtls/library\aes.c ****      * ECB mode
1731:D:/Work/DeviceTester/amazon-freertos/lib/third_party/mbedtls/library\aes.c ****      */
1732:D:/Work/DeviceTester/amazon-freertos/lib/third_party/mbedtls/library\aes.c ****     for( i = 0; i < 6; i++ )
1733:D:/Work/DeviceTester/amazon-freertos/lib/third_party/mbedtls/library\aes.c ****     {
1734:D:/Work/DeviceTester/amazon-freertos/lib/third_party/mbedtls/library\aes.c ****         u = i >> 1;
1735:D:/Work/DeviceTester/amazon-freertos/lib/third_party/mbedtls/library\aes.c ****         keybits = 128 + u * 64;
1736:D:/Work/DeviceTester/amazon-freertos/lib/third_party/mbedtls/library\aes.c ****         mode = i & 1;
1737:D:/Work/DeviceTester/amazon-freertos/lib/third_party/mbedtls/library\aes.c **** 
1738:D:/Work/DeviceTester/amazon-freertos/lib/third_party/mbedtls/library\aes.c ****         if( verbose != 0 )
1739:D:/Work/DeviceTester/amazon-freertos/lib/third_party/mbedtls/library\aes.c ****             mbedtls_printf( "  AES-ECB-%3d (%s): ", keybits,
 2090              		.loc 1 1739 0
 2091 0008 60B59FE5 		ldr	fp, .L188
1726:D:/Work/DeviceTester/amazon-freertos/lib/third_party/mbedtls/library\aes.c ****     mbedtls_aes_init( &ctx );
 2092              		.loc 1 1726 0
 2093 000c 2020A0E3 		mov	r2, #32
 2094 0010 0010A0E3 		mov	r1, #0
1701:D:/Work/DeviceTester/amazon-freertos/lib/third_party/mbedtls/library\aes.c ****     int ret = 0, i, j, u, mode;
 2095              		.loc 1 1701 0
 2096 0014 00A0A0E1 		mov	r10, r0
 2097              		.loc 1 1739 0
 2098 0018 54959FE5 		ldr	r9, .L188+4
1726:D:/Work/DeviceTester/amazon-freertos/lib/third_party/mbedtls/library\aes.c ****     mbedtls_aes_init( &ctx );
 2099              		.loc 1 1726 0
 2100 001c 60008DE2 		add	r0, sp, #96
 2101              	.LVL230:
1732:D:/Work/DeviceTester/amazon-freertos/lib/third_party/mbedtls/library\aes.c ****     {
 2102              		.loc 1 1732 0
 2103 0020 0070A0E3 		mov	r7, #0
1726:D:/Work/DeviceTester/amazon-freertos/lib/third_party/mbedtls/library\aes.c ****     mbedtls_aes_init( &ctx );
 2104              		.loc 1 1726 0
 2105 0024 FEFFFFEB 		bl	memset
 2106              	.LVL231:
1727:D:/Work/DeviceTester/amazon-freertos/lib/third_party/mbedtls/library\aes.c **** 
 2107              		.loc 1 1727 0
 2108 0028 C0008DE2 		add	r0, sp, #192
 2109 002c FEFFFFEB 		bl	mbedtls_aes_init
 2110              	.LVL232:
 2111              	.L104:
1734:D:/Work/DeviceTester/amazon-freertos/lib/third_party/mbedtls/library\aes.c ****         keybits = 128 + u * 64;
 2112              		.loc 1 1734 0
 2113 0030 C750A0E1 		asr	r5, r7, #1
 2114              	.LVL233:
1738:D:/Work/DeviceTester/amazon-freertos/lib/third_party/mbedtls/library\aes.c ****             mbedtls_printf( "  AES-ECB-%3d (%s): ", keybits,
 2115              		.loc 1 1738 0
 2116 0034 00005AE3 		cmp	r10, #0
1736:D:/Work/DeviceTester/amazon-freertos/lib/third_party/mbedtls/library\aes.c **** 
 2117              		.loc 1 1736 0
 2118 0038 018007E2 		and	r8, r7, #1
1735:D:/Work/DeviceTester/amazon-freertos/lib/third_party/mbedtls/library\aes.c ****         mode = i & 1;
 2119              		.loc 1 1735 0
 2120 003c 026085E2 		add	r6, r5, #2
 2121 0040 0663A0E1 		lsl	r6, r6, #6
 2122              	.LVL234:
1738:D:/Work/DeviceTester/amazon-freertos/lib/third_party/mbedtls/library\aes.c ****             mbedtls_printf( "  AES-ECB-%3d (%s): ", keybits,
 2123              		.loc 1 1738 0
 2124 0044 0500000A 		beq	.L95
 2125              		.loc 1 1739 0
 2126 0048 000058E3 		cmp	r8, #0
 2127 004c 24059FE5 		ldr	r0, .L188+8
 2128 0050 0B20A011 		movne	r2, fp
 2129 0054 0920A001 		moveq	r2, r9
 2130 0058 0610A0E1 		mov	r1, r6
 2131 005c FEFFFFEB 		bl	printf
 2132              	.LVL235:
 2133              	.L95:
1740:D:/Work/DeviceTester/amazon-freertos/lib/third_party/mbedtls/library\aes.c ****                             ( mode == MBEDTLS_AES_DECRYPT ) ? "dec" : "enc" );
1741:D:/Work/DeviceTester/amazon-freertos/lib/third_party/mbedtls/library\aes.c **** 
1742:D:/Work/DeviceTester/amazon-freertos/lib/third_party/mbedtls/library\aes.c ****         memset( buf, 0, 16 );
 2134              		.loc 1 1742 0
 2135 0060 80408DE2 		add	r4, sp, #128
 2136 0064 1020A0E3 		mov	r2, #16
 2137 0068 0010A0E3 		mov	r1, #0
 2138 006c 0400A0E1 		mov	r0, r4
 2139 0070 FEFFFFEB 		bl	memset
 2140              	.LVL236:
1743:D:/Work/DeviceTester/amazon-freertos/lib/third_party/mbedtls/library\aes.c **** 
1744:D:/Work/DeviceTester/amazon-freertos/lib/third_party/mbedtls/library\aes.c ****         if( mode == MBEDTLS_AES_DECRYPT )
 2141              		.loc 1 1744 0
 2142 0074 000058E3 		cmp	r8, #0
1745:D:/Work/DeviceTester/amazon-freertos/lib/third_party/mbedtls/library\aes.c ****         {
1746:D:/Work/DeviceTester/amazon-freertos/lib/third_party/mbedtls/library\aes.c ****             ret = mbedtls_aes_setkey_dec( &ctx, key, keybits );
 2143              		.loc 1 1746 0
 2144 0078 0620A0E1 		mov	r2, r6
 2145 007c 60108DE2 		add	r1, sp, #96
 2146 0080 C0008DE2 		add	r0, sp, #192
 2147 0084 0552A0E1 		lsl	r5, r5, #4
 2148              	.LVL237:
1744:D:/Work/DeviceTester/amazon-freertos/lib/third_party/mbedtls/library\aes.c ****         {
 2149              		.loc 1 1744 0
 2150 0088 2800001A 		bne	.L97
 2151              	.LVL238:
 2152              		.loc 1 1746 0
 2153 008c FEFFFFEB 		bl	mbedtls_aes_setkey_dec
 2154              	.LVL239:
1747:D:/Work/DeviceTester/amazon-freertos/lib/third_party/mbedtls/library\aes.c ****             aes_tests = aes_test_ecb_dec[u];
 2155              		.loc 1 1747 0
 2156 0090 E4249FE5 		ldr	r2, .L188+12
1746:D:/Work/DeviceTester/amazon-freertos/lib/third_party/mbedtls/library\aes.c ****             aes_tests = aes_test_ecb_dec[u];
 2157              		.loc 1 1746 0
 2158 0094 0030A0E1 		mov	r3, r0
 2159              	.LVL240:
 2160              	.L183:
1748:D:/Work/DeviceTester/amazon-freertos/lib/third_party/mbedtls/library\aes.c ****         }
1749:D:/Work/DeviceTester/amazon-freertos/lib/third_party/mbedtls/library\aes.c ****         else
1750:D:/Work/DeviceTester/amazon-freertos/lib/third_party/mbedtls/library\aes.c ****         {
1751:D:/Work/DeviceTester/amazon-freertos/lib/third_party/mbedtls/library\aes.c ****             ret = mbedtls_aes_setkey_enc( &ctx, key, keybits );
1752:D:/Work/DeviceTester/amazon-freertos/lib/third_party/mbedtls/library\aes.c ****             aes_tests = aes_test_ecb_enc[u];
1753:D:/Work/DeviceTester/amazon-freertos/lib/third_party/mbedtls/library\aes.c ****         }
1754:D:/Work/DeviceTester/amazon-freertos/lib/third_party/mbedtls/library\aes.c **** 
1755:D:/Work/DeviceTester/amazon-freertos/lib/third_party/mbedtls/library\aes.c ****         /*
1756:D:/Work/DeviceTester/amazon-freertos/lib/third_party/mbedtls/library\aes.c ****          * AES-192 is an optional feature that may be unavailable when
1757:D:/Work/DeviceTester/amazon-freertos/lib/third_party/mbedtls/library\aes.c ****          * there is an alternative underlying implementation i.e. when
1758:D:/Work/DeviceTester/amazon-freertos/lib/third_party/mbedtls/library\aes.c ****          * MBEDTLS_AES_ALT is defined.
1759:D:/Work/DeviceTester/amazon-freertos/lib/third_party/mbedtls/library\aes.c ****          */
1760:D:/Work/DeviceTester/amazon-freertos/lib/third_party/mbedtls/library\aes.c ****         if( ret == MBEDTLS_ERR_AES_FEATURE_UNAVAILABLE && keybits == 192 )
 2161              		.loc 1 1760 0
 2162 0098 C00056E3 		cmp	r6, #192
 2163 009c 23007303 		cmneq	r3, #35
1752:D:/Work/DeviceTester/amazon-freertos/lib/third_party/mbedtls/library\aes.c ****         }
 2164              		.loc 1 1752 0
 2165 00a0 055082E0 		add	r5, r2, r5
 2166              	.LVL241:
1761:D:/Work/DeviceTester/amazon-freertos/lib/third_party/mbedtls/library\aes.c ****         {
1762:D:/Work/DeviceTester/amazon-freertos/lib/third_party/mbedtls/library\aes.c ****             mbedtls_printf( "skipped\n" );
 2167              		.loc 1 1762 0
 2168 00a4 D4049F05 		ldreq	r0, .L188+16
 2169              	.LVL242:
1760:D:/Work/DeviceTester/amazon-freertos/lib/third_party/mbedtls/library\aes.c ****         {
 2170              		.loc 1 1760 0
 2171 00a8 2700000A 		beq	.L184
1763:D:/Work/DeviceTester/amazon-freertos/lib/third_party/mbedtls/library\aes.c ****             continue;
1764:D:/Work/DeviceTester/amazon-freertos/lib/third_party/mbedtls/library\aes.c ****         }
1765:D:/Work/DeviceTester/amazon-freertos/lib/third_party/mbedtls/library\aes.c ****         else if( ret != 0 )
 2172              		.loc 1 1765 0
 2173 00ac 000053E3 		cmp	r3, #0
 2174 00b0 1000001A 		bne	.L101
 2175 00b4 106702E3 		movw	r6, #10000
 2176              	.LVL243:
 2177              	.L102:
1766:D:/Work/DeviceTester/amazon-freertos/lib/third_party/mbedtls/library\aes.c ****         {
1767:D:/Work/DeviceTester/amazon-freertos/lib/third_party/mbedtls/library\aes.c ****             goto exit;
1768:D:/Work/DeviceTester/amazon-freertos/lib/third_party/mbedtls/library\aes.c ****         }
1769:D:/Work/DeviceTester/amazon-freertos/lib/third_party/mbedtls/library\aes.c **** 
1770:D:/Work/DeviceTester/amazon-freertos/lib/third_party/mbedtls/library\aes.c ****         for( j = 0; j < 10000; j++ )
1771:D:/Work/DeviceTester/amazon-freertos/lib/third_party/mbedtls/library\aes.c ****         {
1772:D:/Work/DeviceTester/amazon-freertos/lib/third_party/mbedtls/library\aes.c ****             ret = mbedtls_aes_crypt_ecb( &ctx, mode, buf, buf );
 2178              		.loc 1 1772 0
 2179 00b8 0430A0E1 		mov	r3, r4
 2180              	.LVL244:
 2181 00bc 0420A0E1 		mov	r2, r4
 2182 00c0 0810A0E1 		mov	r1, r8
 2183 00c4 C0008DE2 		add	r0, sp, #192
 2184 00c8 FEFFFFEB 		bl	mbedtls_aes_crypt_ecb
 2185              	.LVL245:
1773:D:/Work/DeviceTester/amazon-freertos/lib/third_party/mbedtls/library\aes.c ****             if( ret != 0 )
 2186              		.loc 1 1773 0
 2187 00cc 003050E2 		subs	r3, r0, #0
 2188 00d0 0800001A 		bne	.L101
 2189              	.LVL246:
1770:D:/Work/DeviceTester/amazon-freertos/lib/third_party/mbedtls/library\aes.c ****         {
 2190              		.loc 1 1770 0 discriminator 2
 2191 00d4 016056E2 		subs	r6, r6, #1
 2192              	.LVL247:
 2193 00d8 F6FFFF1A 		bne	.L102
1774:D:/Work/DeviceTester/amazon-freertos/lib/third_party/mbedtls/library\aes.c ****                 goto exit;
1775:D:/Work/DeviceTester/amazon-freertos/lib/third_party/mbedtls/library\aes.c ****         }
1776:D:/Work/DeviceTester/amazon-freertos/lib/third_party/mbedtls/library\aes.c **** 
1777:D:/Work/DeviceTester/amazon-freertos/lib/third_party/mbedtls/library\aes.c ****         if( memcmp( buf, aes_tests, 16 ) != 0 )
 2194              		.loc 1 1777 0
 2195 00dc 1020A0E3 		mov	r2, #16
 2196 00e0 0510A0E1 		mov	r1, r5
 2197 00e4 0400A0E1 		mov	r0, r4
 2198              	.LVL248:
 2199 00e8 FEFFFFEB 		bl	memcmp
 2200              	.LVL249:
 2201 00ec 000050E3 		cmp	r0, #0
 2202 00f0 1200000A 		beq	.L103
 2203              	.LVL250:
 2204              	.L114:
1778:D:/Work/DeviceTester/amazon-freertos/lib/third_party/mbedtls/library\aes.c ****         {
1779:D:/Work/DeviceTester/amazon-freertos/lib/third_party/mbedtls/library\aes.c ****             ret = 1;
 2205              		.loc 1 1779 0
 2206 00f4 0130A0E3 		mov	r3, #1
 2207              	.L101:
 2208              	.LVL251:
1780:D:/Work/DeviceTester/amazon-freertos/lib/third_party/mbedtls/library\aes.c ****             goto exit;
1781:D:/Work/DeviceTester/amazon-freertos/lib/third_party/mbedtls/library\aes.c ****         }
1782:D:/Work/DeviceTester/amazon-freertos/lib/third_party/mbedtls/library\aes.c **** 
1783:D:/Work/DeviceTester/amazon-freertos/lib/third_party/mbedtls/library\aes.c ****         if( verbose != 0 )
1784:D:/Work/DeviceTester/amazon-freertos/lib/third_party/mbedtls/library\aes.c ****             mbedtls_printf( "passed\n" );
1785:D:/Work/DeviceTester/amazon-freertos/lib/third_party/mbedtls/library\aes.c ****     }
1786:D:/Work/DeviceTester/amazon-freertos/lib/third_party/mbedtls/library\aes.c **** 
1787:D:/Work/DeviceTester/amazon-freertos/lib/third_party/mbedtls/library\aes.c ****     if( verbose != 0 )
1788:D:/Work/DeviceTester/amazon-freertos/lib/third_party/mbedtls/library\aes.c ****         mbedtls_printf( "\n" );
1789:D:/Work/DeviceTester/amazon-freertos/lib/third_party/mbedtls/library\aes.c **** 
1790:D:/Work/DeviceTester/amazon-freertos/lib/third_party/mbedtls/library\aes.c **** #if defined(MBEDTLS_CIPHER_MODE_CBC)
1791:D:/Work/DeviceTester/amazon-freertos/lib/third_party/mbedtls/library\aes.c ****     /*
1792:D:/Work/DeviceTester/amazon-freertos/lib/third_party/mbedtls/library\aes.c ****      * CBC mode
1793:D:/Work/DeviceTester/amazon-freertos/lib/third_party/mbedtls/library\aes.c ****      */
1794:D:/Work/DeviceTester/amazon-freertos/lib/third_party/mbedtls/library\aes.c ****     for( i = 0; i < 6; i++ )
1795:D:/Work/DeviceTester/amazon-freertos/lib/third_party/mbedtls/library\aes.c ****     {
1796:D:/Work/DeviceTester/amazon-freertos/lib/third_party/mbedtls/library\aes.c ****         u = i >> 1;
1797:D:/Work/DeviceTester/amazon-freertos/lib/third_party/mbedtls/library\aes.c ****         keybits = 128 + u * 64;
1798:D:/Work/DeviceTester/amazon-freertos/lib/third_party/mbedtls/library\aes.c ****         mode = i & 1;
1799:D:/Work/DeviceTester/amazon-freertos/lib/third_party/mbedtls/library\aes.c **** 
1800:D:/Work/DeviceTester/amazon-freertos/lib/third_party/mbedtls/library\aes.c ****         if( verbose != 0 )
1801:D:/Work/DeviceTester/amazon-freertos/lib/third_party/mbedtls/library\aes.c ****             mbedtls_printf( "  AES-CBC-%3d (%s): ", keybits,
1802:D:/Work/DeviceTester/amazon-freertos/lib/third_party/mbedtls/library\aes.c ****                             ( mode == MBEDTLS_AES_DECRYPT ) ? "dec" : "enc" );
1803:D:/Work/DeviceTester/amazon-freertos/lib/third_party/mbedtls/library\aes.c **** 
1804:D:/Work/DeviceTester/amazon-freertos/lib/third_party/mbedtls/library\aes.c ****         memset( iv , 0, 16 );
1805:D:/Work/DeviceTester/amazon-freertos/lib/third_party/mbedtls/library\aes.c ****         memset( prv, 0, 16 );
1806:D:/Work/DeviceTester/amazon-freertos/lib/third_party/mbedtls/library\aes.c ****         memset( buf, 0, 16 );
1807:D:/Work/DeviceTester/amazon-freertos/lib/third_party/mbedtls/library\aes.c **** 
1808:D:/Work/DeviceTester/amazon-freertos/lib/third_party/mbedtls/library\aes.c ****         if( mode == MBEDTLS_AES_DECRYPT )
1809:D:/Work/DeviceTester/amazon-freertos/lib/third_party/mbedtls/library\aes.c ****         {
1810:D:/Work/DeviceTester/amazon-freertos/lib/third_party/mbedtls/library\aes.c ****             ret = mbedtls_aes_setkey_dec( &ctx, key, keybits );
1811:D:/Work/DeviceTester/amazon-freertos/lib/third_party/mbedtls/library\aes.c ****             aes_tests = aes_test_cbc_dec[u];
1812:D:/Work/DeviceTester/amazon-freertos/lib/third_party/mbedtls/library\aes.c ****         }
1813:D:/Work/DeviceTester/amazon-freertos/lib/third_party/mbedtls/library\aes.c ****         else
1814:D:/Work/DeviceTester/amazon-freertos/lib/third_party/mbedtls/library\aes.c ****         {
1815:D:/Work/DeviceTester/amazon-freertos/lib/third_party/mbedtls/library\aes.c ****             ret = mbedtls_aes_setkey_enc( &ctx, key, keybits );
1816:D:/Work/DeviceTester/amazon-freertos/lib/third_party/mbedtls/library\aes.c ****             aes_tests = aes_test_cbc_enc[u];
1817:D:/Work/DeviceTester/amazon-freertos/lib/third_party/mbedtls/library\aes.c ****         }
1818:D:/Work/DeviceTester/amazon-freertos/lib/third_party/mbedtls/library\aes.c **** 
1819:D:/Work/DeviceTester/amazon-freertos/lib/third_party/mbedtls/library\aes.c ****         /*
1820:D:/Work/DeviceTester/amazon-freertos/lib/third_party/mbedtls/library\aes.c ****          * AES-192 is an optional feature that may be unavailable when
1821:D:/Work/DeviceTester/amazon-freertos/lib/third_party/mbedtls/library\aes.c ****          * there is an alternative underlying implementation i.e. when
1822:D:/Work/DeviceTester/amazon-freertos/lib/third_party/mbedtls/library\aes.c ****          * MBEDTLS_AES_ALT is defined.
1823:D:/Work/DeviceTester/amazon-freertos/lib/third_party/mbedtls/library\aes.c ****          */
1824:D:/Work/DeviceTester/amazon-freertos/lib/third_party/mbedtls/library\aes.c ****         if( ret == MBEDTLS_ERR_AES_FEATURE_UNAVAILABLE && keybits == 192 )
1825:D:/Work/DeviceTester/amazon-freertos/lib/third_party/mbedtls/library\aes.c ****         {
1826:D:/Work/DeviceTester/amazon-freertos/lib/third_party/mbedtls/library\aes.c ****             mbedtls_printf( "skipped\n" );
1827:D:/Work/DeviceTester/amazon-freertos/lib/third_party/mbedtls/library\aes.c ****             continue;
1828:D:/Work/DeviceTester/amazon-freertos/lib/third_party/mbedtls/library\aes.c ****         }
1829:D:/Work/DeviceTester/amazon-freertos/lib/third_party/mbedtls/library\aes.c ****         else if( ret != 0 )
1830:D:/Work/DeviceTester/amazon-freertos/lib/third_party/mbedtls/library\aes.c ****         {
1831:D:/Work/DeviceTester/amazon-freertos/lib/third_party/mbedtls/library\aes.c ****             goto exit;
1832:D:/Work/DeviceTester/amazon-freertos/lib/third_party/mbedtls/library\aes.c ****         }
1833:D:/Work/DeviceTester/amazon-freertos/lib/third_party/mbedtls/library\aes.c **** 
1834:D:/Work/DeviceTester/amazon-freertos/lib/third_party/mbedtls/library\aes.c ****         for( j = 0; j < 10000; j++ )
1835:D:/Work/DeviceTester/amazon-freertos/lib/third_party/mbedtls/library\aes.c ****         {
1836:D:/Work/DeviceTester/amazon-freertos/lib/third_party/mbedtls/library\aes.c ****             if( mode == MBEDTLS_AES_ENCRYPT )
1837:D:/Work/DeviceTester/amazon-freertos/lib/third_party/mbedtls/library\aes.c ****             {
1838:D:/Work/DeviceTester/amazon-freertos/lib/third_party/mbedtls/library\aes.c ****                 unsigned char tmp[16];
1839:D:/Work/DeviceTester/amazon-freertos/lib/third_party/mbedtls/library\aes.c **** 
1840:D:/Work/DeviceTester/amazon-freertos/lib/third_party/mbedtls/library\aes.c ****                 memcpy( tmp, prv, 16 );
1841:D:/Work/DeviceTester/amazon-freertos/lib/third_party/mbedtls/library\aes.c ****                 memcpy( prv, buf, 16 );
1842:D:/Work/DeviceTester/amazon-freertos/lib/third_party/mbedtls/library\aes.c ****                 memcpy( buf, tmp, 16 );
1843:D:/Work/DeviceTester/amazon-freertos/lib/third_party/mbedtls/library\aes.c ****             }
1844:D:/Work/DeviceTester/amazon-freertos/lib/third_party/mbedtls/library\aes.c **** 
1845:D:/Work/DeviceTester/amazon-freertos/lib/third_party/mbedtls/library\aes.c ****             ret = mbedtls_aes_crypt_cbc( &ctx, mode, 16, iv, buf, buf );
1846:D:/Work/DeviceTester/amazon-freertos/lib/third_party/mbedtls/library\aes.c ****             if( ret != 0 )
1847:D:/Work/DeviceTester/amazon-freertos/lib/third_party/mbedtls/library\aes.c ****                 goto exit;
1848:D:/Work/DeviceTester/amazon-freertos/lib/third_party/mbedtls/library\aes.c **** 
1849:D:/Work/DeviceTester/amazon-freertos/lib/third_party/mbedtls/library\aes.c ****         }
1850:D:/Work/DeviceTester/amazon-freertos/lib/third_party/mbedtls/library\aes.c **** 
1851:D:/Work/DeviceTester/amazon-freertos/lib/third_party/mbedtls/library\aes.c ****         if( memcmp( buf, aes_tests, 16 ) != 0 )
1852:D:/Work/DeviceTester/amazon-freertos/lib/third_party/mbedtls/library\aes.c ****         {
1853:D:/Work/DeviceTester/amazon-freertos/lib/third_party/mbedtls/library\aes.c ****             ret = 1;
1854:D:/Work/DeviceTester/amazon-freertos/lib/third_party/mbedtls/library\aes.c ****             goto exit;
1855:D:/Work/DeviceTester/amazon-freertos/lib/third_party/mbedtls/library\aes.c ****         }
1856:D:/Work/DeviceTester/amazon-freertos/lib/third_party/mbedtls/library\aes.c **** 
1857:D:/Work/DeviceTester/amazon-freertos/lib/third_party/mbedtls/library\aes.c ****         if( verbose != 0 )
1858:D:/Work/DeviceTester/amazon-freertos/lib/third_party/mbedtls/library\aes.c ****             mbedtls_printf( "passed\n" );
1859:D:/Work/DeviceTester/amazon-freertos/lib/third_party/mbedtls/library\aes.c ****     }
1860:D:/Work/DeviceTester/amazon-freertos/lib/third_party/mbedtls/library\aes.c **** 
1861:D:/Work/DeviceTester/amazon-freertos/lib/third_party/mbedtls/library\aes.c ****     if( verbose != 0 )
1862:D:/Work/DeviceTester/amazon-freertos/lib/third_party/mbedtls/library\aes.c ****         mbedtls_printf( "\n" );
1863:D:/Work/DeviceTester/amazon-freertos/lib/third_party/mbedtls/library\aes.c **** #endif /* MBEDTLS_CIPHER_MODE_CBC */
1864:D:/Work/DeviceTester/amazon-freertos/lib/third_party/mbedtls/library\aes.c **** 
1865:D:/Work/DeviceTester/amazon-freertos/lib/third_party/mbedtls/library\aes.c **** #if defined(MBEDTLS_CIPHER_MODE_CFB)
1866:D:/Work/DeviceTester/amazon-freertos/lib/third_party/mbedtls/library\aes.c ****     /*
1867:D:/Work/DeviceTester/amazon-freertos/lib/third_party/mbedtls/library\aes.c ****      * CFB128 mode
1868:D:/Work/DeviceTester/amazon-freertos/lib/third_party/mbedtls/library\aes.c ****      */
1869:D:/Work/DeviceTester/amazon-freertos/lib/third_party/mbedtls/library\aes.c ****     for( i = 0; i < 6; i++ )
1870:D:/Work/DeviceTester/amazon-freertos/lib/third_party/mbedtls/library\aes.c ****     {
1871:D:/Work/DeviceTester/amazon-freertos/lib/third_party/mbedtls/library\aes.c ****         u = i >> 1;
1872:D:/Work/DeviceTester/amazon-freertos/lib/third_party/mbedtls/library\aes.c ****         keybits = 128 + u * 64;
1873:D:/Work/DeviceTester/amazon-freertos/lib/third_party/mbedtls/library\aes.c ****         mode = i & 1;
1874:D:/Work/DeviceTester/amazon-freertos/lib/third_party/mbedtls/library\aes.c **** 
1875:D:/Work/DeviceTester/amazon-freertos/lib/third_party/mbedtls/library\aes.c ****         if( verbose != 0 )
1876:D:/Work/DeviceTester/amazon-freertos/lib/third_party/mbedtls/library\aes.c ****             mbedtls_printf( "  AES-CFB128-%3d (%s): ", keybits,
1877:D:/Work/DeviceTester/amazon-freertos/lib/third_party/mbedtls/library\aes.c ****                             ( mode == MBEDTLS_AES_DECRYPT ) ? "dec" : "enc" );
1878:D:/Work/DeviceTester/amazon-freertos/lib/third_party/mbedtls/library\aes.c **** 
1879:D:/Work/DeviceTester/amazon-freertos/lib/third_party/mbedtls/library\aes.c ****         memcpy( iv,  aes_test_cfb128_iv, 16 );
1880:D:/Work/DeviceTester/amazon-freertos/lib/third_party/mbedtls/library\aes.c ****         memcpy( key, aes_test_cfb128_key[u], keybits / 8 );
1881:D:/Work/DeviceTester/amazon-freertos/lib/third_party/mbedtls/library\aes.c **** 
1882:D:/Work/DeviceTester/amazon-freertos/lib/third_party/mbedtls/library\aes.c ****         offset = 0;
1883:D:/Work/DeviceTester/amazon-freertos/lib/third_party/mbedtls/library\aes.c ****         ret = mbedtls_aes_setkey_enc( &ctx, key, keybits );
1884:D:/Work/DeviceTester/amazon-freertos/lib/third_party/mbedtls/library\aes.c ****         /*
1885:D:/Work/DeviceTester/amazon-freertos/lib/third_party/mbedtls/library\aes.c ****          * AES-192 is an optional feature that may be unavailable when
1886:D:/Work/DeviceTester/amazon-freertos/lib/third_party/mbedtls/library\aes.c ****          * there is an alternative underlying implementation i.e. when
1887:D:/Work/DeviceTester/amazon-freertos/lib/third_party/mbedtls/library\aes.c ****          * MBEDTLS_AES_ALT is defined.
1888:D:/Work/DeviceTester/amazon-freertos/lib/third_party/mbedtls/library\aes.c ****          */
1889:D:/Work/DeviceTester/amazon-freertos/lib/third_party/mbedtls/library\aes.c ****         if( ret == MBEDTLS_ERR_AES_FEATURE_UNAVAILABLE && keybits == 192 )
1890:D:/Work/DeviceTester/amazon-freertos/lib/third_party/mbedtls/library\aes.c ****         {
1891:D:/Work/DeviceTester/amazon-freertos/lib/third_party/mbedtls/library\aes.c ****             mbedtls_printf( "skipped\n" );
1892:D:/Work/DeviceTester/amazon-freertos/lib/third_party/mbedtls/library\aes.c ****             continue;
1893:D:/Work/DeviceTester/amazon-freertos/lib/third_party/mbedtls/library\aes.c ****         }
1894:D:/Work/DeviceTester/amazon-freertos/lib/third_party/mbedtls/library\aes.c ****         else if( ret != 0 )
1895:D:/Work/DeviceTester/amazon-freertos/lib/third_party/mbedtls/library\aes.c ****         {
1896:D:/Work/DeviceTester/amazon-freertos/lib/third_party/mbedtls/library\aes.c ****             goto exit;
1897:D:/Work/DeviceTester/amazon-freertos/lib/third_party/mbedtls/library\aes.c ****         }
1898:D:/Work/DeviceTester/amazon-freertos/lib/third_party/mbedtls/library\aes.c **** 
1899:D:/Work/DeviceTester/amazon-freertos/lib/third_party/mbedtls/library\aes.c ****         if( mode == MBEDTLS_AES_DECRYPT )
1900:D:/Work/DeviceTester/amazon-freertos/lib/third_party/mbedtls/library\aes.c ****         {
1901:D:/Work/DeviceTester/amazon-freertos/lib/third_party/mbedtls/library\aes.c ****             memcpy( buf, aes_test_cfb128_ct[u], 64 );
1902:D:/Work/DeviceTester/amazon-freertos/lib/third_party/mbedtls/library\aes.c ****             aes_tests = aes_test_cfb128_pt;
1903:D:/Work/DeviceTester/amazon-freertos/lib/third_party/mbedtls/library\aes.c ****         }
1904:D:/Work/DeviceTester/amazon-freertos/lib/third_party/mbedtls/library\aes.c ****         else
1905:D:/Work/DeviceTester/amazon-freertos/lib/third_party/mbedtls/library\aes.c ****         {
1906:D:/Work/DeviceTester/amazon-freertos/lib/third_party/mbedtls/library\aes.c ****             memcpy( buf, aes_test_cfb128_pt, 64 );
1907:D:/Work/DeviceTester/amazon-freertos/lib/third_party/mbedtls/library\aes.c ****             aes_tests = aes_test_cfb128_ct[u];
1908:D:/Work/DeviceTester/amazon-freertos/lib/third_party/mbedtls/library\aes.c ****         }
1909:D:/Work/DeviceTester/amazon-freertos/lib/third_party/mbedtls/library\aes.c **** 
1910:D:/Work/DeviceTester/amazon-freertos/lib/third_party/mbedtls/library\aes.c ****         ret = mbedtls_aes_crypt_cfb128( &ctx, mode, 64, &offset, iv, buf, buf );
1911:D:/Work/DeviceTester/amazon-freertos/lib/third_party/mbedtls/library\aes.c ****         if( ret != 0 )
1912:D:/Work/DeviceTester/amazon-freertos/lib/third_party/mbedtls/library\aes.c ****             goto exit;
1913:D:/Work/DeviceTester/amazon-freertos/lib/third_party/mbedtls/library\aes.c **** 
1914:D:/Work/DeviceTester/amazon-freertos/lib/third_party/mbedtls/library\aes.c ****         if( memcmp( buf, aes_tests, 64 ) != 0 )
1915:D:/Work/DeviceTester/amazon-freertos/lib/third_party/mbedtls/library\aes.c ****         {
1916:D:/Work/DeviceTester/amazon-freertos/lib/third_party/mbedtls/library\aes.c ****             ret = 1;
1917:D:/Work/DeviceTester/amazon-freertos/lib/third_party/mbedtls/library\aes.c ****             goto exit;
1918:D:/Work/DeviceTester/amazon-freertos/lib/third_party/mbedtls/library\aes.c ****         }
1919:D:/Work/DeviceTester/amazon-freertos/lib/third_party/mbedtls/library\aes.c **** 
1920:D:/Work/DeviceTester/amazon-freertos/lib/third_party/mbedtls/library\aes.c ****         if( verbose != 0 )
1921:D:/Work/DeviceTester/amazon-freertos/lib/third_party/mbedtls/library\aes.c ****             mbedtls_printf( "passed\n" );
1922:D:/Work/DeviceTester/amazon-freertos/lib/third_party/mbedtls/library\aes.c ****     }
1923:D:/Work/DeviceTester/amazon-freertos/lib/third_party/mbedtls/library\aes.c **** 
1924:D:/Work/DeviceTester/amazon-freertos/lib/third_party/mbedtls/library\aes.c ****     if( verbose != 0 )
1925:D:/Work/DeviceTester/amazon-freertos/lib/third_party/mbedtls/library\aes.c ****         mbedtls_printf( "\n" );
1926:D:/Work/DeviceTester/amazon-freertos/lib/third_party/mbedtls/library\aes.c **** #endif /* MBEDTLS_CIPHER_MODE_CFB */
1927:D:/Work/DeviceTester/amazon-freertos/lib/third_party/mbedtls/library\aes.c **** 
1928:D:/Work/DeviceTester/amazon-freertos/lib/third_party/mbedtls/library\aes.c **** #if defined(MBEDTLS_CIPHER_MODE_OFB)
1929:D:/Work/DeviceTester/amazon-freertos/lib/third_party/mbedtls/library\aes.c ****     /*
1930:D:/Work/DeviceTester/amazon-freertos/lib/third_party/mbedtls/library\aes.c ****      * OFB mode
1931:D:/Work/DeviceTester/amazon-freertos/lib/third_party/mbedtls/library\aes.c ****      */
1932:D:/Work/DeviceTester/amazon-freertos/lib/third_party/mbedtls/library\aes.c ****     for( i = 0; i < 6; i++ )
1933:D:/Work/DeviceTester/amazon-freertos/lib/third_party/mbedtls/library\aes.c ****     {
1934:D:/Work/DeviceTester/amazon-freertos/lib/third_party/mbedtls/library\aes.c ****         u = i >> 1;
1935:D:/Work/DeviceTester/amazon-freertos/lib/third_party/mbedtls/library\aes.c ****         keybits = 128 + u * 64;
1936:D:/Work/DeviceTester/amazon-freertos/lib/third_party/mbedtls/library\aes.c ****         mode = i & 1;
1937:D:/Work/DeviceTester/amazon-freertos/lib/third_party/mbedtls/library\aes.c **** 
1938:D:/Work/DeviceTester/amazon-freertos/lib/third_party/mbedtls/library\aes.c ****         if( verbose != 0 )
1939:D:/Work/DeviceTester/amazon-freertos/lib/third_party/mbedtls/library\aes.c ****             mbedtls_printf( "  AES-OFB-%3d (%s): ", keybits,
1940:D:/Work/DeviceTester/amazon-freertos/lib/third_party/mbedtls/library\aes.c ****                             ( mode == MBEDTLS_AES_DECRYPT ) ? "dec" : "enc" );
1941:D:/Work/DeviceTester/amazon-freertos/lib/third_party/mbedtls/library\aes.c **** 
1942:D:/Work/DeviceTester/amazon-freertos/lib/third_party/mbedtls/library\aes.c ****         memcpy( iv,  aes_test_ofb_iv, 16 );
1943:D:/Work/DeviceTester/amazon-freertos/lib/third_party/mbedtls/library\aes.c ****         memcpy( key, aes_test_ofb_key[u], keybits / 8 );
1944:D:/Work/DeviceTester/amazon-freertos/lib/third_party/mbedtls/library\aes.c **** 
1945:D:/Work/DeviceTester/amazon-freertos/lib/third_party/mbedtls/library\aes.c ****         offset = 0;
1946:D:/Work/DeviceTester/amazon-freertos/lib/third_party/mbedtls/library\aes.c ****         ret = mbedtls_aes_setkey_enc( &ctx, key, keybits );
1947:D:/Work/DeviceTester/amazon-freertos/lib/third_party/mbedtls/library\aes.c ****         /*
1948:D:/Work/DeviceTester/amazon-freertos/lib/third_party/mbedtls/library\aes.c ****          * AES-192 is an optional feature that may be unavailable when
1949:D:/Work/DeviceTester/amazon-freertos/lib/third_party/mbedtls/library\aes.c ****          * there is an alternative underlying implementation i.e. when
1950:D:/Work/DeviceTester/amazon-freertos/lib/third_party/mbedtls/library\aes.c ****          * MBEDTLS_AES_ALT is defined.
1951:D:/Work/DeviceTester/amazon-freertos/lib/third_party/mbedtls/library\aes.c ****          */
1952:D:/Work/DeviceTester/amazon-freertos/lib/third_party/mbedtls/library\aes.c ****         if( ret == MBEDTLS_ERR_AES_FEATURE_UNAVAILABLE && keybits == 192 )
1953:D:/Work/DeviceTester/amazon-freertos/lib/third_party/mbedtls/library\aes.c ****         {
1954:D:/Work/DeviceTester/amazon-freertos/lib/third_party/mbedtls/library\aes.c ****             mbedtls_printf( "skipped\n" );
1955:D:/Work/DeviceTester/amazon-freertos/lib/third_party/mbedtls/library\aes.c ****             continue;
1956:D:/Work/DeviceTester/amazon-freertos/lib/third_party/mbedtls/library\aes.c ****         }
1957:D:/Work/DeviceTester/amazon-freertos/lib/third_party/mbedtls/library\aes.c ****         else if( ret != 0 )
1958:D:/Work/DeviceTester/amazon-freertos/lib/third_party/mbedtls/library\aes.c ****         {
1959:D:/Work/DeviceTester/amazon-freertos/lib/third_party/mbedtls/library\aes.c ****             goto exit;
1960:D:/Work/DeviceTester/amazon-freertos/lib/third_party/mbedtls/library\aes.c ****         }
1961:D:/Work/DeviceTester/amazon-freertos/lib/third_party/mbedtls/library\aes.c **** 
1962:D:/Work/DeviceTester/amazon-freertos/lib/third_party/mbedtls/library\aes.c ****         if( mode == MBEDTLS_AES_DECRYPT )
1963:D:/Work/DeviceTester/amazon-freertos/lib/third_party/mbedtls/library\aes.c ****         {
1964:D:/Work/DeviceTester/amazon-freertos/lib/third_party/mbedtls/library\aes.c ****             memcpy( buf, aes_test_ofb_ct[u], 64 );
1965:D:/Work/DeviceTester/amazon-freertos/lib/third_party/mbedtls/library\aes.c ****             aes_tests = aes_test_ofb_pt;
1966:D:/Work/DeviceTester/amazon-freertos/lib/third_party/mbedtls/library\aes.c ****         }
1967:D:/Work/DeviceTester/amazon-freertos/lib/third_party/mbedtls/library\aes.c ****         else
1968:D:/Work/DeviceTester/amazon-freertos/lib/third_party/mbedtls/library\aes.c ****         {
1969:D:/Work/DeviceTester/amazon-freertos/lib/third_party/mbedtls/library\aes.c ****             memcpy( buf, aes_test_ofb_pt, 64 );
1970:D:/Work/DeviceTester/amazon-freertos/lib/third_party/mbedtls/library\aes.c ****             aes_tests = aes_test_ofb_ct[u];
1971:D:/Work/DeviceTester/amazon-freertos/lib/third_party/mbedtls/library\aes.c ****         }
1972:D:/Work/DeviceTester/amazon-freertos/lib/third_party/mbedtls/library\aes.c **** 
1973:D:/Work/DeviceTester/amazon-freertos/lib/third_party/mbedtls/library\aes.c ****         ret = mbedtls_aes_crypt_ofb( &ctx, 64, &offset, iv, buf, buf );
1974:D:/Work/DeviceTester/amazon-freertos/lib/third_party/mbedtls/library\aes.c ****         if( ret != 0 )
1975:D:/Work/DeviceTester/amazon-freertos/lib/third_party/mbedtls/library\aes.c ****             goto exit;
1976:D:/Work/DeviceTester/amazon-freertos/lib/third_party/mbedtls/library\aes.c **** 
1977:D:/Work/DeviceTester/amazon-freertos/lib/third_party/mbedtls/library\aes.c ****         if( memcmp( buf, aes_tests, 64 ) != 0 )
1978:D:/Work/DeviceTester/amazon-freertos/lib/third_party/mbedtls/library\aes.c ****         {
1979:D:/Work/DeviceTester/amazon-freertos/lib/third_party/mbedtls/library\aes.c ****             ret = 1;
1980:D:/Work/DeviceTester/amazon-freertos/lib/third_party/mbedtls/library\aes.c ****             goto exit;
1981:D:/Work/DeviceTester/amazon-freertos/lib/third_party/mbedtls/library\aes.c ****         }
1982:D:/Work/DeviceTester/amazon-freertos/lib/third_party/mbedtls/library\aes.c **** 
1983:D:/Work/DeviceTester/amazon-freertos/lib/third_party/mbedtls/library\aes.c ****         if( verbose != 0 )
1984:D:/Work/DeviceTester/amazon-freertos/lib/third_party/mbedtls/library\aes.c ****             mbedtls_printf( "passed\n" );
1985:D:/Work/DeviceTester/amazon-freertos/lib/third_party/mbedtls/library\aes.c ****     }
1986:D:/Work/DeviceTester/amazon-freertos/lib/third_party/mbedtls/library\aes.c **** 
1987:D:/Work/DeviceTester/amazon-freertos/lib/third_party/mbedtls/library\aes.c ****     if( verbose != 0 )
1988:D:/Work/DeviceTester/amazon-freertos/lib/third_party/mbedtls/library\aes.c ****         mbedtls_printf( "\n" );
1989:D:/Work/DeviceTester/amazon-freertos/lib/third_party/mbedtls/library\aes.c **** #endif /* MBEDTLS_CIPHER_MODE_OFB */
1990:D:/Work/DeviceTester/amazon-freertos/lib/third_party/mbedtls/library\aes.c **** 
1991:D:/Work/DeviceTester/amazon-freertos/lib/third_party/mbedtls/library\aes.c **** #if defined(MBEDTLS_CIPHER_MODE_CTR)
1992:D:/Work/DeviceTester/amazon-freertos/lib/third_party/mbedtls/library\aes.c ****     /*
1993:D:/Work/DeviceTester/amazon-freertos/lib/third_party/mbedtls/library\aes.c ****      * CTR mode
1994:D:/Work/DeviceTester/amazon-freertos/lib/third_party/mbedtls/library\aes.c ****      */
1995:D:/Work/DeviceTester/amazon-freertos/lib/third_party/mbedtls/library\aes.c ****     for( i = 0; i < 6; i++ )
1996:D:/Work/DeviceTester/amazon-freertos/lib/third_party/mbedtls/library\aes.c ****     {
1997:D:/Work/DeviceTester/amazon-freertos/lib/third_party/mbedtls/library\aes.c ****         u = i >> 1;
1998:D:/Work/DeviceTester/amazon-freertos/lib/third_party/mbedtls/library\aes.c ****         mode = i & 1;
1999:D:/Work/DeviceTester/amazon-freertos/lib/third_party/mbedtls/library\aes.c **** 
2000:D:/Work/DeviceTester/amazon-freertos/lib/third_party/mbedtls/library\aes.c ****         if( verbose != 0 )
2001:D:/Work/DeviceTester/amazon-freertos/lib/third_party/mbedtls/library\aes.c ****             mbedtls_printf( "  AES-CTR-128 (%s): ",
2002:D:/Work/DeviceTester/amazon-freertos/lib/third_party/mbedtls/library\aes.c ****                             ( mode == MBEDTLS_AES_DECRYPT ) ? "dec" : "enc" );
2003:D:/Work/DeviceTester/amazon-freertos/lib/third_party/mbedtls/library\aes.c **** 
2004:D:/Work/DeviceTester/amazon-freertos/lib/third_party/mbedtls/library\aes.c ****         memcpy( nonce_counter, aes_test_ctr_nonce_counter[u], 16 );
2005:D:/Work/DeviceTester/amazon-freertos/lib/third_party/mbedtls/library\aes.c ****         memcpy( key, aes_test_ctr_key[u], 16 );
2006:D:/Work/DeviceTester/amazon-freertos/lib/third_party/mbedtls/library\aes.c **** 
2007:D:/Work/DeviceTester/amazon-freertos/lib/third_party/mbedtls/library\aes.c ****         offset = 0;
2008:D:/Work/DeviceTester/amazon-freertos/lib/third_party/mbedtls/library\aes.c ****         if( ( ret = mbedtls_aes_setkey_enc( &ctx, key, 128 ) ) != 0 )
2009:D:/Work/DeviceTester/amazon-freertos/lib/third_party/mbedtls/library\aes.c ****             goto exit;
2010:D:/Work/DeviceTester/amazon-freertos/lib/third_party/mbedtls/library\aes.c **** 
2011:D:/Work/DeviceTester/amazon-freertos/lib/third_party/mbedtls/library\aes.c ****         len = aes_test_ctr_len[u];
2012:D:/Work/DeviceTester/amazon-freertos/lib/third_party/mbedtls/library\aes.c **** 
2013:D:/Work/DeviceTester/amazon-freertos/lib/third_party/mbedtls/library\aes.c ****         if( mode == MBEDTLS_AES_DECRYPT )
2014:D:/Work/DeviceTester/amazon-freertos/lib/third_party/mbedtls/library\aes.c ****         {
2015:D:/Work/DeviceTester/amazon-freertos/lib/third_party/mbedtls/library\aes.c ****             memcpy( buf, aes_test_ctr_ct[u], len );
2016:D:/Work/DeviceTester/amazon-freertos/lib/third_party/mbedtls/library\aes.c ****             aes_tests = aes_test_ctr_pt[u];
2017:D:/Work/DeviceTester/amazon-freertos/lib/third_party/mbedtls/library\aes.c ****         }
2018:D:/Work/DeviceTester/amazon-freertos/lib/third_party/mbedtls/library\aes.c ****         else
2019:D:/Work/DeviceTester/amazon-freertos/lib/third_party/mbedtls/library\aes.c ****         {
2020:D:/Work/DeviceTester/amazon-freertos/lib/third_party/mbedtls/library\aes.c ****             memcpy( buf, aes_test_ctr_pt[u], len );
2021:D:/Work/DeviceTester/amazon-freertos/lib/third_party/mbedtls/library\aes.c ****             aes_tests = aes_test_ctr_ct[u];
2022:D:/Work/DeviceTester/amazon-freertos/lib/third_party/mbedtls/library\aes.c ****         }
2023:D:/Work/DeviceTester/amazon-freertos/lib/third_party/mbedtls/library\aes.c **** 
2024:D:/Work/DeviceTester/amazon-freertos/lib/third_party/mbedtls/library\aes.c ****         ret = mbedtls_aes_crypt_ctr( &ctx, len, &offset, nonce_counter,
2025:D:/Work/DeviceTester/amazon-freertos/lib/third_party/mbedtls/library\aes.c ****                                      stream_block, buf, buf );
2026:D:/Work/DeviceTester/amazon-freertos/lib/third_party/mbedtls/library\aes.c ****         if( ret != 0 )
2027:D:/Work/DeviceTester/amazon-freertos/lib/third_party/mbedtls/library\aes.c ****             goto exit;
2028:D:/Work/DeviceTester/amazon-freertos/lib/third_party/mbedtls/library\aes.c **** 
2029:D:/Work/DeviceTester/amazon-freertos/lib/third_party/mbedtls/library\aes.c ****         if( memcmp( buf, aes_tests, len ) != 0 )
2030:D:/Work/DeviceTester/amazon-freertos/lib/third_party/mbedtls/library\aes.c ****         {
2031:D:/Work/DeviceTester/amazon-freertos/lib/third_party/mbedtls/library\aes.c ****             ret = 1;
2032:D:/Work/DeviceTester/amazon-freertos/lib/third_party/mbedtls/library\aes.c ****             goto exit;
2033:D:/Work/DeviceTester/amazon-freertos/lib/third_party/mbedtls/library\aes.c ****         }
2034:D:/Work/DeviceTester/amazon-freertos/lib/third_party/mbedtls/library\aes.c **** 
2035:D:/Work/DeviceTester/amazon-freertos/lib/third_party/mbedtls/library\aes.c ****         if( verbose != 0 )
2036:D:/Work/DeviceTester/amazon-freertos/lib/third_party/mbedtls/library\aes.c ****             mbedtls_printf( "passed\n" );
2037:D:/Work/DeviceTester/amazon-freertos/lib/third_party/mbedtls/library\aes.c ****     }
2038:D:/Work/DeviceTester/amazon-freertos/lib/third_party/mbedtls/library\aes.c **** 
2039:D:/Work/DeviceTester/amazon-freertos/lib/third_party/mbedtls/library\aes.c ****     if( verbose != 0 )
2040:D:/Work/DeviceTester/amazon-freertos/lib/third_party/mbedtls/library\aes.c ****         mbedtls_printf( "\n" );
2041:D:/Work/DeviceTester/amazon-freertos/lib/third_party/mbedtls/library\aes.c **** #endif /* MBEDTLS_CIPHER_MODE_CTR */
2042:D:/Work/DeviceTester/amazon-freertos/lib/third_party/mbedtls/library\aes.c **** 
2043:D:/Work/DeviceTester/amazon-freertos/lib/third_party/mbedtls/library\aes.c **** #if defined(MBEDTLS_CIPHER_MODE_XTS)
2044:D:/Work/DeviceTester/amazon-freertos/lib/third_party/mbedtls/library\aes.c ****     {
2045:D:/Work/DeviceTester/amazon-freertos/lib/third_party/mbedtls/library\aes.c ****     static const int num_tests =
2046:D:/Work/DeviceTester/amazon-freertos/lib/third_party/mbedtls/library\aes.c ****         sizeof(aes_test_xts_key) / sizeof(*aes_test_xts_key);
2047:D:/Work/DeviceTester/amazon-freertos/lib/third_party/mbedtls/library\aes.c ****     mbedtls_aes_xts_context ctx_xts;
2048:D:/Work/DeviceTester/amazon-freertos/lib/third_party/mbedtls/library\aes.c **** 
2049:D:/Work/DeviceTester/amazon-freertos/lib/third_party/mbedtls/library\aes.c ****     /*
2050:D:/Work/DeviceTester/amazon-freertos/lib/third_party/mbedtls/library\aes.c ****      * XTS mode
2051:D:/Work/DeviceTester/amazon-freertos/lib/third_party/mbedtls/library\aes.c ****      */
2052:D:/Work/DeviceTester/amazon-freertos/lib/third_party/mbedtls/library\aes.c ****     mbedtls_aes_xts_init( &ctx_xts );
2053:D:/Work/DeviceTester/amazon-freertos/lib/third_party/mbedtls/library\aes.c **** 
2054:D:/Work/DeviceTester/amazon-freertos/lib/third_party/mbedtls/library\aes.c ****     for( i = 0; i < num_tests << 1; i++ )
2055:D:/Work/DeviceTester/amazon-freertos/lib/third_party/mbedtls/library\aes.c ****     {
2056:D:/Work/DeviceTester/amazon-freertos/lib/third_party/mbedtls/library\aes.c ****         const unsigned char *data_unit;
2057:D:/Work/DeviceTester/amazon-freertos/lib/third_party/mbedtls/library\aes.c ****         u = i >> 1;
2058:D:/Work/DeviceTester/amazon-freertos/lib/third_party/mbedtls/library\aes.c ****         mode = i & 1;
2059:D:/Work/DeviceTester/amazon-freertos/lib/third_party/mbedtls/library\aes.c **** 
2060:D:/Work/DeviceTester/amazon-freertos/lib/third_party/mbedtls/library\aes.c ****         if( verbose != 0 )
2061:D:/Work/DeviceTester/amazon-freertos/lib/third_party/mbedtls/library\aes.c ****             mbedtls_printf( "  AES-XTS-128 (%s): ",
2062:D:/Work/DeviceTester/amazon-freertos/lib/third_party/mbedtls/library\aes.c ****                             ( mode == MBEDTLS_AES_DECRYPT ) ? "dec" : "enc" );
2063:D:/Work/DeviceTester/amazon-freertos/lib/third_party/mbedtls/library\aes.c **** 
2064:D:/Work/DeviceTester/amazon-freertos/lib/third_party/mbedtls/library\aes.c ****         memset( key, 0, sizeof( key ) );
2065:D:/Work/DeviceTester/amazon-freertos/lib/third_party/mbedtls/library\aes.c ****         memcpy( key, aes_test_xts_key[u], 32 );
2066:D:/Work/DeviceTester/amazon-freertos/lib/third_party/mbedtls/library\aes.c ****         data_unit = aes_test_xts_data_unit[u];
2067:D:/Work/DeviceTester/amazon-freertos/lib/third_party/mbedtls/library\aes.c **** 
2068:D:/Work/DeviceTester/amazon-freertos/lib/third_party/mbedtls/library\aes.c ****         len = sizeof( *aes_test_xts_ct32 );
2069:D:/Work/DeviceTester/amazon-freertos/lib/third_party/mbedtls/library\aes.c **** 
2070:D:/Work/DeviceTester/amazon-freertos/lib/third_party/mbedtls/library\aes.c ****         if( mode == MBEDTLS_AES_DECRYPT )
2071:D:/Work/DeviceTester/amazon-freertos/lib/third_party/mbedtls/library\aes.c ****         {
2072:D:/Work/DeviceTester/amazon-freertos/lib/third_party/mbedtls/library\aes.c ****             ret = mbedtls_aes_xts_setkey_dec( &ctx_xts, key, 256 );
2073:D:/Work/DeviceTester/amazon-freertos/lib/third_party/mbedtls/library\aes.c ****             if( ret != 0)
2074:D:/Work/DeviceTester/amazon-freertos/lib/third_party/mbedtls/library\aes.c ****                 goto exit;
2075:D:/Work/DeviceTester/amazon-freertos/lib/third_party/mbedtls/library\aes.c ****             memcpy( buf, aes_test_xts_ct32[u], len );
2076:D:/Work/DeviceTester/amazon-freertos/lib/third_party/mbedtls/library\aes.c ****             aes_tests = aes_test_xts_pt32[u];
2077:D:/Work/DeviceTester/amazon-freertos/lib/third_party/mbedtls/library\aes.c ****         }
2078:D:/Work/DeviceTester/amazon-freertos/lib/third_party/mbedtls/library\aes.c ****         else
2079:D:/Work/DeviceTester/amazon-freertos/lib/third_party/mbedtls/library\aes.c ****         {
2080:D:/Work/DeviceTester/amazon-freertos/lib/third_party/mbedtls/library\aes.c ****             ret = mbedtls_aes_xts_setkey_enc( &ctx_xts, key, 256 );
2081:D:/Work/DeviceTester/amazon-freertos/lib/third_party/mbedtls/library\aes.c ****             if( ret != 0)
2082:D:/Work/DeviceTester/amazon-freertos/lib/third_party/mbedtls/library\aes.c ****                 goto exit;
2083:D:/Work/DeviceTester/amazon-freertos/lib/third_party/mbedtls/library\aes.c ****             memcpy( buf, aes_test_xts_pt32[u], len );
2084:D:/Work/DeviceTester/amazon-freertos/lib/third_party/mbedtls/library\aes.c ****             aes_tests = aes_test_xts_ct32[u];
2085:D:/Work/DeviceTester/amazon-freertos/lib/third_party/mbedtls/library\aes.c ****         }
2086:D:/Work/DeviceTester/amazon-freertos/lib/third_party/mbedtls/library\aes.c **** 
2087:D:/Work/DeviceTester/amazon-freertos/lib/third_party/mbedtls/library\aes.c **** 
2088:D:/Work/DeviceTester/amazon-freertos/lib/third_party/mbedtls/library\aes.c ****         ret = mbedtls_aes_crypt_xts( &ctx_xts, mode, len, data_unit,
2089:D:/Work/DeviceTester/amazon-freertos/lib/third_party/mbedtls/library\aes.c ****                                      buf, buf );
2090:D:/Work/DeviceTester/amazon-freertos/lib/third_party/mbedtls/library\aes.c ****         if( ret != 0 )
2091:D:/Work/DeviceTester/amazon-freertos/lib/third_party/mbedtls/library\aes.c ****             goto exit;
2092:D:/Work/DeviceTester/amazon-freertos/lib/third_party/mbedtls/library\aes.c **** 
2093:D:/Work/DeviceTester/amazon-freertos/lib/third_party/mbedtls/library\aes.c ****         if( memcmp( buf, aes_tests, len ) != 0 )
2094:D:/Work/DeviceTester/amazon-freertos/lib/third_party/mbedtls/library\aes.c ****         {
2095:D:/Work/DeviceTester/amazon-freertos/lib/third_party/mbedtls/library\aes.c ****             ret = 1;
2096:D:/Work/DeviceTester/amazon-freertos/lib/third_party/mbedtls/library\aes.c ****             goto exit;
2097:D:/Work/DeviceTester/amazon-freertos/lib/third_party/mbedtls/library\aes.c ****         }
2098:D:/Work/DeviceTester/amazon-freertos/lib/third_party/mbedtls/library\aes.c **** 
2099:D:/Work/DeviceTester/amazon-freertos/lib/third_party/mbedtls/library\aes.c ****         if( verbose != 0 )
2100:D:/Work/DeviceTester/amazon-freertos/lib/third_party/mbedtls/library\aes.c ****             mbedtls_printf( "passed\n" );
2101:D:/Work/DeviceTester/amazon-freertos/lib/third_party/mbedtls/library\aes.c ****     }
2102:D:/Work/DeviceTester/amazon-freertos/lib/third_party/mbedtls/library\aes.c **** 
2103:D:/Work/DeviceTester/amazon-freertos/lib/third_party/mbedtls/library\aes.c ****     if( verbose != 0 )
2104:D:/Work/DeviceTester/amazon-freertos/lib/third_party/mbedtls/library\aes.c ****         mbedtls_printf( "\n" );
2105:D:/Work/DeviceTester/amazon-freertos/lib/third_party/mbedtls/library\aes.c **** 
2106:D:/Work/DeviceTester/amazon-freertos/lib/third_party/mbedtls/library\aes.c ****     mbedtls_aes_xts_free( &ctx_xts );
2107:D:/Work/DeviceTester/amazon-freertos/lib/third_party/mbedtls/library\aes.c ****     }
2108:D:/Work/DeviceTester/amazon-freertos/lib/third_party/mbedtls/library\aes.c **** #endif /* MBEDTLS_CIPHER_MODE_XTS */
2109:D:/Work/DeviceTester/amazon-freertos/lib/third_party/mbedtls/library\aes.c **** 
2110:D:/Work/DeviceTester/amazon-freertos/lib/third_party/mbedtls/library\aes.c ****     ret = 0;
2111:D:/Work/DeviceTester/amazon-freertos/lib/third_party/mbedtls/library\aes.c **** 
2112:D:/Work/DeviceTester/amazon-freertos/lib/third_party/mbedtls/library\aes.c **** exit:
2113:D:/Work/DeviceTester/amazon-freertos/lib/third_party/mbedtls/library\aes.c ****     if( ret != 0 && verbose != 0 )
 2209              		.loc 1 2113 0
 2210 00f8 000053E3 		cmp	r3, #0
 2211 00fc 00005A13 		cmpne	r10, #0
 2212 0100 0300000A 		beq	.L131
2114:D:/Work/DeviceTester/amazon-freertos/lib/third_party/mbedtls/library\aes.c ****         mbedtls_printf( "failed\n" );
 2213              		.loc 1 2114 0
 2214 0104 78049FE5 		ldr	r0, .L188+20
 2215 0108 14308DE5 		str	r3, [sp, #20]
 2216 010c FEFFFFEB 		bl	puts
 2217              	.LVL252:
 2218 0110 14309DE5 		ldr	r3, [sp, #20]
 2219              	.LVL253:
 2220              	.L131:
2115:D:/Work/DeviceTester/amazon-freertos/lib/third_party/mbedtls/library\aes.c **** 
2116:D:/Work/DeviceTester/amazon-freertos/lib/third_party/mbedtls/library\aes.c ****     mbedtls_aes_free( &ctx );
 2221              		.loc 1 2116 0
 2222 0114 C0008DE2 		add	r0, sp, #192
 2223 0118 14308DE5 		str	r3, [sp, #20]
 2224 011c FEFFFFEB 		bl	mbedtls_aes_free
 2225              	.LVL254:
2117:D:/Work/DeviceTester/amazon-freertos/lib/third_party/mbedtls/library\aes.c **** 
2118:D:/Work/DeviceTester/amazon-freertos/lib/third_party/mbedtls/library\aes.c ****     return( ret );
2119:D:/Work/DeviceTester/amazon-freertos/lib/third_party/mbedtls/library\aes.c **** }
 2226              		.loc 1 2119 0
 2227 0120 14309DE5 		ldr	r3, [sp, #20]
 2228 0124 0300A0E1 		mov	r0, r3
 2229 0128 77DF8DE2 		add	sp, sp, #476
 2230              		.cfi_remember_state
 2231              		.cfi_def_cfa_offset 36
 2232              		@ sp needed
 2233 012c F08FBDE8 		pop	{r4, r5, r6, r7, r8, r9, r10, fp, pc}
 2234              	.LVL255:
 2235              	.L97:
 2236              		.cfi_restore_state
1751:D:/Work/DeviceTester/amazon-freertos/lib/third_party/mbedtls/library\aes.c ****             aes_tests = aes_test_ecb_enc[u];
 2237              		.loc 1 1751 0
 2238 0130 FEFFFFEB 		bl	mbedtls_aes_setkey_enc
 2239              	.LVL256:
1752:D:/Work/DeviceTester/amazon-freertos/lib/third_party/mbedtls/library\aes.c ****         }
 2240              		.loc 1 1752 0
 2241 0134 4C249FE5 		ldr	r2, .L188+24
1751:D:/Work/DeviceTester/amazon-freertos/lib/third_party/mbedtls/library\aes.c ****             aes_tests = aes_test_ecb_enc[u];
 2242              		.loc 1 1751 0
 2243 0138 0030A0E1 		mov	r3, r0
 2244              	.LVL257:
 2245 013c D5FFFFEA 		b	.L183
 2246              	.LVL258:
 2247              	.L103:
1783:D:/Work/DeviceTester/amazon-freertos/lib/third_party/mbedtls/library\aes.c ****             mbedtls_printf( "passed\n" );
 2248              		.loc 1 1783 0
 2249 0140 00005AE3 		cmp	r10, #0
 2250 0144 0100000A 		beq	.L100
1784:D:/Work/DeviceTester/amazon-freertos/lib/third_party/mbedtls/library\aes.c ****     }
 2251              		.loc 1 1784 0
 2252 0148 3C049FE5 		ldr	r0, .L188+28
 2253              	.LVL259:
 2254              	.L184:
 2255 014c FEFFFFEB 		bl	puts
 2256              	.LVL260:
 2257              	.L100:
1732:D:/Work/DeviceTester/amazon-freertos/lib/third_party/mbedtls/library\aes.c ****     {
 2258              		.loc 1 1732 0 discriminator 2
 2259 0150 017087E2 		add	r7, r7, #1
 2260              	.LVL261:
 2261 0154 060057E3 		cmp	r7, #6
 2262 0158 B4FFFF1A 		bne	.L104
1787:D:/Work/DeviceTester/amazon-freertos/lib/third_party/mbedtls/library\aes.c ****         mbedtls_printf( "\n" );
 2263              		.loc 1 1787 0
 2264 015c 00005AE3 		cmp	r10, #0
 2265 0160 0100000A 		beq	.L105
1788:D:/Work/DeviceTester/amazon-freertos/lib/third_party/mbedtls/library\aes.c **** 
 2266              		.loc 1 1788 0
 2267 0164 0A00A0E3 		mov	r0, #10
 2268 0168 FEFFFFEB 		bl	putchar
 2269              	.LVL262:
 2270              	.L105:
 2271 016c 0080A0E3 		mov	r8, #0
 2272              	.LVL263:
 2273              	.L115:
1796:D:/Work/DeviceTester/amazon-freertos/lib/third_party/mbedtls/library\aes.c ****         keybits = 128 + u * 64;
 2274              		.loc 1 1796 0
 2275 0170 C8B0A0E1 		asr	fp, r8, #1
 2276              	.LVL264:
1800:D:/Work/DeviceTester/amazon-freertos/lib/third_party/mbedtls/library\aes.c ****             mbedtls_printf( "  AES-CBC-%3d (%s): ", keybits,
 2277              		.loc 1 1800 0
 2278 0174 00005AE3 		cmp	r10, #0
1798:D:/Work/DeviceTester/amazon-freertos/lib/third_party/mbedtls/library\aes.c **** 
 2279              		.loc 1 1798 0
 2280 0178 019008E2 		and	r9, r8, #1
1797:D:/Work/DeviceTester/amazon-freertos/lib/third_party/mbedtls/library\aes.c ****         mode = i & 1;
 2281              		.loc 1 1797 0
 2282 017c 02508BE2 		add	r5, fp, #2
 2283 0180 0553A0E1 		lsl	r5, r5, #6
 2284              	.LVL265:
1800:D:/Work/DeviceTester/amazon-freertos/lib/third_party/mbedtls/library\aes.c ****             mbedtls_printf( "  AES-CBC-%3d (%s): ", keybits,
 2285              		.loc 1 1800 0
 2286 0184 0600000A 		beq	.L106
1801:D:/Work/DeviceTester/amazon-freertos/lib/third_party/mbedtls/library\aes.c ****                             ( mode == MBEDTLS_AES_DECRYPT ) ? "dec" : "enc" );
 2287              		.loc 1 1801 0
 2288 0188 E0339FE5 		ldr	r3, .L188
 2289 018c 000059E3 		cmp	r9, #0
 2290 0190 DC239FE5 		ldr	r2, .L188+4
 2291 0194 0510A0E1 		mov	r1, r5
 2292 0198 F0039FE5 		ldr	r0, .L188+32
 2293 019c 0320A011 		movne	r2, r3
 2294 01a0 FEFFFFEB 		bl	printf
 2295              	.LVL266:
 2296              	.L106:
1804:D:/Work/DeviceTester/amazon-freertos/lib/third_party/mbedtls/library\aes.c ****         memset( prv, 0, 16 );
 2297              		.loc 1 1804 0
 2298 01a4 1020A0E3 		mov	r2, #16
 2299 01a8 0010A0E3 		mov	r1, #0
 2300 01ac 20008DE2 		add	r0, sp, #32
 2301 01b0 0BB2A0E1 		lsl	fp, fp, #4
 2302              	.LVL267:
 2303 01b4 FEFFFFEB 		bl	memset
 2304              	.LVL268:
1805:D:/Work/DeviceTester/amazon-freertos/lib/third_party/mbedtls/library\aes.c ****         memset( buf, 0, 16 );
 2305              		.loc 1 1805 0
 2306 01b8 1020A0E3 		mov	r2, #16
 2307 01bc 0010A0E3 		mov	r1, #0
 2308 01c0 30008DE2 		add	r0, sp, #48
 2309 01c4 FEFFFFEB 		bl	memset
 2310              	.LVL269:
1806:D:/Work/DeviceTester/amazon-freertos/lib/third_party/mbedtls/library\aes.c **** 
 2311              		.loc 1 1806 0
 2312 01c8 1020A0E3 		mov	r2, #16
 2313 01cc 0010A0E3 		mov	r1, #0
 2314 01d0 0400A0E1 		mov	r0, r4
 2315 01d4 FEFFFFEB 		bl	memset
 2316              	.LVL270:
1808:D:/Work/DeviceTester/amazon-freertos/lib/third_party/mbedtls/library\aes.c ****         {
 2317              		.loc 1 1808 0
 2318 01d8 000059E3 		cmp	r9, #0
1810:D:/Work/DeviceTester/amazon-freertos/lib/third_party/mbedtls/library\aes.c ****             aes_tests = aes_test_cbc_dec[u];
 2319              		.loc 1 1810 0
 2320 01dc 0520A0E1 		mov	r2, r5
 2321 01e0 60108DE2 		add	r1, sp, #96
 2322 01e4 C0008DE2 		add	r0, sp, #192
1808:D:/Work/DeviceTester/amazon-freertos/lib/third_party/mbedtls/library\aes.c ****         {
 2323              		.loc 1 1808 0
 2324 01e8 CC00001A 		bne	.L108
 2325              	.LVL271:
1810:D:/Work/DeviceTester/amazon-freertos/lib/third_party/mbedtls/library\aes.c ****             aes_tests = aes_test_cbc_dec[u];
 2326              		.loc 1 1810 0
 2327 01ec FEFFFFEB 		bl	mbedtls_aes_setkey_dec
 2328              	.LVL272:
1811:D:/Work/DeviceTester/amazon-freertos/lib/third_party/mbedtls/library\aes.c ****         }
 2329              		.loc 1 1811 0
 2330 01f0 9C239FE5 		ldr	r2, .L188+36
1810:D:/Work/DeviceTester/amazon-freertos/lib/third_party/mbedtls/library\aes.c ****             aes_tests = aes_test_cbc_dec[u];
 2331              		.loc 1 1810 0
 2332 01f4 0030A0E1 		mov	r3, r0
 2333              	.LVL273:
 2334              	.L185:
1824:D:/Work/DeviceTester/amazon-freertos/lib/third_party/mbedtls/library\aes.c ****         {
 2335              		.loc 1 1824 0
 2336 01f8 C00055E3 		cmp	r5, #192
 2337 01fc 23007303 		cmneq	r3, #35
1816:D:/Work/DeviceTester/amazon-freertos/lib/third_party/mbedtls/library\aes.c ****         }
 2338              		.loc 1 1816 0
 2339 0200 0BB082E0 		add	fp, r2, fp
 2340              	.LVL274:
1826:D:/Work/DeviceTester/amazon-freertos/lib/third_party/mbedtls/library\aes.c ****             continue;
 2341              		.loc 1 1826 0
 2342 0204 74039F05 		ldreq	r0, .L188+16
 2343              	.LVL275:
1824:D:/Work/DeviceTester/amazon-freertos/lib/third_party/mbedtls/library\aes.c ****         {
 2344              		.loc 1 1824 0
 2345 0208 2300000A 		beq	.L186
1829:D:/Work/DeviceTester/amazon-freertos/lib/third_party/mbedtls/library\aes.c ****         {
 2346              		.loc 1 1829 0
 2347 020c 000053E3 		cmp	r3, #0
 2348 0210 B8FFFF1A 		bne	.L101
 2349              	.LBB24:
1840:D:/Work/DeviceTester/amazon-freertos/lib/third_party/mbedtls/library\aes.c ****                 memcpy( prv, buf, 16 );
 2350              		.loc 1 1840 0
 2351 0214 50508DE2 		add	r5, sp, #80
 2352              	.LVL276:
 2353 0218 30608DE2 		add	r6, sp, #48
1841:D:/Work/DeviceTester/amazon-freertos/lib/third_party/mbedtls/library\aes.c ****                 memcpy( buf, tmp, 16 );
 2354              		.loc 1 1841 0
 2355 021c 80708DE2 		add	r7, sp, #128
 2356              	.LBE24:
 2357 0220 103702E3 		movw	r3, #10000
 2358              	.LVL277:
 2359 0224 14308DE5 		str	r3, [sp, #20]
 2360              	.L113:
 2361              	.LVL278:
1836:D:/Work/DeviceTester/amazon-freertos/lib/third_party/mbedtls/library\aes.c ****             {
 2362              		.loc 1 1836 0
 2363 0228 000059E3 		cmp	r9, #0
 2364              	.LBB25:
1840:D:/Work/DeviceTester/amazon-freertos/lib/third_party/mbedtls/library\aes.c ****                 memcpy( prv, buf, 16 );
 2365              		.loc 1 1840 0
 2366 022c 0F009618 		ldmne	r6, {r0, r1, r2, r3}
 2367 0230 0F008518 		stmne	r5, {r0, r1, r2, r3}
1841:D:/Work/DeviceTester/amazon-freertos/lib/third_party/mbedtls/library\aes.c ****                 memcpy( buf, tmp, 16 );
 2368              		.loc 1 1841 0
 2369 0234 0F009718 		ldmne	r7, {r0, r1, r2, r3}
 2370 0238 0F008618 		stmne	r6, {r0, r1, r2, r3}
1842:D:/Work/DeviceTester/amazon-freertos/lib/third_party/mbedtls/library\aes.c ****             }
 2371              		.loc 1 1842 0
 2372 023c 0F009518 		ldmne	r5, {r0, r1, r2, r3}
 2373 0240 0F008718 		stmne	r7, {r0, r1, r2, r3}
 2374              	.LBE25:
1845:D:/Work/DeviceTester/amazon-freertos/lib/third_party/mbedtls/library\aes.c ****             if( ret != 0 )
 2375              		.loc 1 1845 0
 2376 0244 20308DE2 		add	r3, sp, #32
 2377 0248 04408DE5 		str	r4, [sp, #4]
 2378 024c 1020A0E3 		mov	r2, #16
 2379 0250 0910A0E1 		mov	r1, r9
 2380 0254 C0008DE2 		add	r0, sp, #192
 2381 0258 00408DE5 		str	r4, [sp]
 2382 025c FEFFFFEB 		bl	mbedtls_aes_crypt_cbc
 2383              	.LVL279:
1846:D:/Work/DeviceTester/amazon-freertos/lib/third_party/mbedtls/library\aes.c ****                 goto exit;
 2384              		.loc 1 1846 0
 2385 0260 003050E2 		subs	r3, r0, #0
 2386 0264 A3FFFF1A 		bne	.L101
 2387              	.LVL280:
1834:D:/Work/DeviceTester/amazon-freertos/lib/third_party/mbedtls/library\aes.c ****         {
 2388              		.loc 1 1834 0 discriminator 2
 2389 0268 14309DE5 		ldr	r3, [sp, #20]
 2390 026c 013053E2 		subs	r3, r3, #1
 2391 0270 14308DE5 		str	r3, [sp, #20]
 2392              	.LVL281:
 2393 0274 EBFFFF1A 		bne	.L113
1851:D:/Work/DeviceTester/amazon-freertos/lib/third_party/mbedtls/library\aes.c ****         {
 2394              		.loc 1 1851 0
 2395 0278 1020A0E3 		mov	r2, #16
 2396 027c 0B10A0E1 		mov	r1, fp
 2397 0280 0400A0E1 		mov	r0, r4
 2398              	.LVL282:
 2399 0284 FEFFFFEB 		bl	memcmp
 2400              	.LVL283:
 2401 0288 000050E3 		cmp	r0, #0
 2402 028c 98FFFF1A 		bne	.L114
1857:D:/Work/DeviceTester/amazon-freertos/lib/third_party/mbedtls/library\aes.c ****             mbedtls_printf( "passed\n" );
 2403              		.loc 1 1857 0
 2404 0290 00005AE3 		cmp	r10, #0
 2405 0294 0100000A 		beq	.L111
1858:D:/Work/DeviceTester/amazon-freertos/lib/third_party/mbedtls/library\aes.c ****     }
 2406              		.loc 1 1858 0
 2407 0298 EC029FE5 		ldr	r0, .L188+28
 2408              	.LVL284:
 2409              	.L186:
 2410 029c FEFFFFEB 		bl	puts
 2411              	.LVL285:
 2412              	.L111:
1794:D:/Work/DeviceTester/amazon-freertos/lib/third_party/mbedtls/library\aes.c ****     {
 2413              		.loc 1 1794 0 discriminator 2
 2414 02a0 018088E2 		add	r8, r8, #1
 2415              	.LVL286:
 2416 02a4 060058E3 		cmp	r8, #6
 2417 02a8 B0FFFF1A 		bne	.L115
1861:D:/Work/DeviceTester/amazon-freertos/lib/third_party/mbedtls/library\aes.c ****         mbedtls_printf( "\n" );
 2418              		.loc 1 1861 0
 2419 02ac 00005AE3 		cmp	r10, #0
 2420 02b0 0100000A 		beq	.L116
1862:D:/Work/DeviceTester/amazon-freertos/lib/third_party/mbedtls/library\aes.c **** #endif /* MBEDTLS_CIPHER_MODE_CBC */
 2421              		.loc 1 1862 0
 2422 02b4 0A00A0E3 		mov	r0, #10
 2423 02b8 FEFFFFEB 		bl	putchar
 2424              	.LVL287:
 2425              	.L116:
1876:D:/Work/DeviceTester/amazon-freertos/lib/third_party/mbedtls/library\aes.c ****                             ( mode == MBEDTLS_AES_DECRYPT ) ? "dec" : "enc" );
 2426              		.loc 1 1876 0
 2427 02bc ACB29FE5 		ldr	fp, .L188
 2428              	.LVL288:
 2429 02c0 0060A0E3 		mov	r6, #0
 2430 02c4 CC929FE5 		ldr	r9, .L188+40
 2431              	.LVL289:
 2432              	.L123:
1871:D:/Work/DeviceTester/amazon-freertos/lib/third_party/mbedtls/library\aes.c ****         keybits = 128 + u * 64;
 2433              		.loc 1 1871 0
 2434 02c8 C680A0E1 		asr	r8, r6, #1
 2435              	.LVL290:
1875:D:/Work/DeviceTester/amazon-freertos/lib/third_party/mbedtls/library\aes.c ****             mbedtls_printf( "  AES-CFB128-%3d (%s): ", keybits,
 2436              		.loc 1 1875 0
 2437 02cc 00005AE3 		cmp	r10, #0
1873:D:/Work/DeviceTester/amazon-freertos/lib/third_party/mbedtls/library\aes.c **** 
 2438              		.loc 1 1873 0
 2439 02d0 017006E2 		and	r7, r6, #1
1872:D:/Work/DeviceTester/amazon-freertos/lib/third_party/mbedtls/library\aes.c ****         mode = i & 1;
 2440              		.loc 1 1872 0
 2441 02d4 025088E2 		add	r5, r8, #2
 2442 02d8 0553A0E1 		lsl	r5, r5, #6
 2443              	.LVL291:
1875:D:/Work/DeviceTester/amazon-freertos/lib/third_party/mbedtls/library\aes.c ****             mbedtls_printf( "  AES-CFB128-%3d (%s): ", keybits,
 2444              		.loc 1 1875 0
 2445 02dc 0500000A 		beq	.L117
1876:D:/Work/DeviceTester/amazon-freertos/lib/third_party/mbedtls/library\aes.c ****                             ( mode == MBEDTLS_AES_DECRYPT ) ? "dec" : "enc" );
 2446              		.loc 1 1876 0
 2447 02e0 000057E3 		cmp	r7, #0
 2448 02e4 88229FE5 		ldr	r2, .L188+4
 2449 02e8 0510A0E1 		mov	r1, r5
 2450 02ec 0B20A011 		movne	r2, fp
 2451 02f0 0900A0E1 		mov	r0, r9
 2452 02f4 FEFFFFEB 		bl	printf
 2453              	.LVL292:
 2454              	.L117:
1879:D:/Work/DeviceTester/amazon-freertos/lib/third_party/mbedtls/library\aes.c ****         memcpy( key, aes_test_cfb128_key[u], keybits / 8 );
 2455              		.loc 1 1879 0
 2456 02f8 1020A0E3 		mov	r2, #16
 2457 02fc 98129FE5 		ldr	r1, .L188+44
 2458 0300 20008DE2 		add	r0, sp, #32
 2459 0304 FEFFFFEB 		bl	memcpy
 2460              	.LVL293:
1880:D:/Work/DeviceTester/amazon-freertos/lib/third_party/mbedtls/library\aes.c **** 
 2461              		.loc 1 1880 0
 2462 0308 90129FE5 		ldr	r1, .L188+48
 2463 030c A521A0E1 		lsr	r2, r5, #3
 2464 0310 60008DE2 		add	r0, sp, #96
 2465 0314 881281E0 		add	r1, r1, r8, lsl #5
 2466 0318 FEFFFFEB 		bl	memcpy
 2467              	.LVL294:
1882:D:/Work/DeviceTester/amazon-freertos/lib/third_party/mbedtls/library\aes.c ****         ret = mbedtls_aes_setkey_enc( &ctx, key, keybits );
 2468              		.loc 1 1882 0
 2469 031c 0030A0E3 		mov	r3, #0
1883:D:/Work/DeviceTester/amazon-freertos/lib/third_party/mbedtls/library\aes.c ****         /*
 2470              		.loc 1 1883 0
 2471 0320 0520A0E1 		mov	r2, r5
 2472 0324 60108DE2 		add	r1, sp, #96
 2473 0328 C0008DE2 		add	r0, sp, #192
1882:D:/Work/DeviceTester/amazon-freertos/lib/third_party/mbedtls/library\aes.c ****         ret = mbedtls_aes_setkey_enc( &ctx, key, keybits );
 2474              		.loc 1 1882 0
 2475 032c 1C308DE5 		str	r3, [sp, #28]
1883:D:/Work/DeviceTester/amazon-freertos/lib/third_party/mbedtls/library\aes.c ****         /*
 2476              		.loc 1 1883 0
 2477 0330 FEFFFFEB 		bl	mbedtls_aes_setkey_enc
 2478              	.LVL295:
1889:D:/Work/DeviceTester/amazon-freertos/lib/third_party/mbedtls/library\aes.c ****         {
 2479              		.loc 1 1889 0
 2480 0334 C00055E3 		cmp	r5, #192
 2481 0338 23007003 		cmneq	r0, #35
1883:D:/Work/DeviceTester/amazon-freertos/lib/third_party/mbedtls/library\aes.c ****         /*
 2482              		.loc 1 1883 0
 2483 033c 0030A0E1 		mov	r3, r0
 2484              	.LVL296:
1891:D:/Work/DeviceTester/amazon-freertos/lib/third_party/mbedtls/library\aes.c ****             continue;
 2485              		.loc 1 1891 0
 2486 0340 38029F05 		ldreq	r0, .L188+16
 2487              	.LVL297:
1889:D:/Work/DeviceTester/amazon-freertos/lib/third_party/mbedtls/library\aes.c ****         {
 2488              		.loc 1 1889 0
 2489 0344 1D00000A 		beq	.L187
1894:D:/Work/DeviceTester/amazon-freertos/lib/third_party/mbedtls/library\aes.c ****         {
 2490              		.loc 1 1894 0
 2491 0348 000053E3 		cmp	r3, #0
 2492 034c 69FFFF1A 		bne	.L101
1899:D:/Work/DeviceTester/amazon-freertos/lib/third_party/mbedtls/library\aes.c ****         {
 2493              		.loc 1 1899 0
 2494 0350 000057E3 		cmp	r7, #0
 2495 0354 48329FE5 		ldr	r3, .L188+52
 2496              	.LVL298:
 2497 0358 7400001A 		bne	.L121
1902:D:/Work/DeviceTester/amazon-freertos/lib/third_party/mbedtls/library\aes.c ****         }
 2498              		.loc 1 1902 0
 2499 035c 44529FE5 		ldr	r5, .L188+56
 2500              	.LVL299:
1901:D:/Work/DeviceTester/amazon-freertos/lib/third_party/mbedtls/library\aes.c ****             aes_tests = aes_test_cfb128_pt;
 2501              		.loc 1 1901 0
 2502 0360 4020A0E3 		mov	r2, #64
 2503 0364 081383E0 		add	r1, r3, r8, lsl #6
 2504 0368 0400A0E1 		mov	r0, r4
 2505 036c FEFFFFEB 		bl	memcpy
 2506              	.LVL300:
 2507              	.L122:
1910:D:/Work/DeviceTester/amazon-freertos/lib/third_party/mbedtls/library\aes.c ****         if( ret != 0 )
 2508              		.loc 1 1910 0
 2509 0370 20308DE2 		add	r3, sp, #32
 2510 0374 08408DE5 		str	r4, [sp, #8]
 2511 0378 00308DE5 		str	r3, [sp]
 2512 037c 4020A0E3 		mov	r2, #64
 2513 0380 1C308DE2 		add	r3, sp, #28
 2514 0384 04408DE5 		str	r4, [sp, #4]
 2515 0388 0710A0E1 		mov	r1, r7
 2516 038c C0008DE2 		add	r0, sp, #192
 2517 0390 FEFFFFEB 		bl	mbedtls_aes_crypt_cfb128
 2518              	.LVL301:
1911:D:/Work/DeviceTester/amazon-freertos/lib/third_party/mbedtls/library\aes.c ****             goto exit;
 2519              		.loc 1 1911 0
 2520 0394 003050E2 		subs	r3, r0, #0
 2521 0398 56FFFF1A 		bne	.L101
1914:D:/Work/DeviceTester/amazon-freertos/lib/third_party/mbedtls/library\aes.c ****         {
 2522              		.loc 1 1914 0
 2523 039c 4020A0E3 		mov	r2, #64
 2524 03a0 0510A0E1 		mov	r1, r5
 2525 03a4 0400A0E1 		mov	r0, r4
 2526              	.LVL302:
 2527 03a8 FEFFFFEB 		bl	memcmp
 2528              	.LVL303:
 2529 03ac 000050E3 		cmp	r0, #0
 2530 03b0 4FFFFF1A 		bne	.L114
1920:D:/Work/DeviceTester/amazon-freertos/lib/third_party/mbedtls/library\aes.c ****             mbedtls_printf( "passed\n" );
 2531              		.loc 1 1920 0
 2532 03b4 00005AE3 		cmp	r10, #0
 2533 03b8 0100000A 		beq	.L120
1921:D:/Work/DeviceTester/amazon-freertos/lib/third_party/mbedtls/library\aes.c ****     }
 2534              		.loc 1 1921 0
 2535 03bc C8019FE5 		ldr	r0, .L188+28
 2536              	.LVL304:
 2537              	.L187:
 2538 03c0 FEFFFFEB 		bl	puts
 2539              	.LVL305:
 2540              	.L120:
1869:D:/Work/DeviceTester/amazon-freertos/lib/third_party/mbedtls/library\aes.c ****     {
 2541              		.loc 1 1869 0 discriminator 2
 2542 03c4 016086E2 		add	r6, r6, #1
 2543              	.LVL306:
 2544 03c8 060056E3 		cmp	r6, #6
 2545 03cc BDFFFF1A 		bne	.L123
1924:D:/Work/DeviceTester/amazon-freertos/lib/third_party/mbedtls/library\aes.c ****         mbedtls_printf( "\n" );
 2546              		.loc 1 1924 0
 2547 03d0 00005AE3 		cmp	r10, #0
 2548 03d4 0100000A 		beq	.L124
1925:D:/Work/DeviceTester/amazon-freertos/lib/third_party/mbedtls/library\aes.c **** #endif /* MBEDTLS_CIPHER_MODE_CFB */
 2549              		.loc 1 1925 0
 2550 03d8 0A00A0E3 		mov	r0, #10
 2551 03dc FEFFFFEB 		bl	putchar
 2552              	.LVL307:
 2553              	.L124:
2001:D:/Work/DeviceTester/amazon-freertos/lib/third_party/mbedtls/library\aes.c ****                             ( mode == MBEDTLS_AES_DECRYPT ) ? "dec" : "enc" );
 2554              		.loc 1 2001 0
 2555 03e0 88919FE5 		ldr	r9, .L188
1902:D:/Work/DeviceTester/amazon-freertos/lib/third_party/mbedtls/library\aes.c ****         }
 2556              		.loc 1 1902 0
 2557 03e4 0060A0E3 		mov	r6, #0
 2558              	.LVL308:
2001:D:/Work/DeviceTester/amazon-freertos/lib/third_party/mbedtls/library\aes.c ****                             ( mode == MBEDTLS_AES_DECRYPT ) ? "dec" : "enc" );
 2559              		.loc 1 2001 0
 2560 03e8 BCB19FE5 		ldr	fp, .L188+60
 2561              	.LVL309:
 2562              	.L130:
2000:D:/Work/DeviceTester/amazon-freertos/lib/third_party/mbedtls/library\aes.c ****             mbedtls_printf( "  AES-CTR-128 (%s): ",
 2563              		.loc 1 2000 0
 2564 03ec 00005AE3 		cmp	r10, #0
1997:D:/Work/DeviceTester/amazon-freertos/lib/third_party/mbedtls/library\aes.c ****         mode = i & 1;
 2565              		.loc 1 1997 0
 2566 03f0 C650A0E1 		asr	r5, r6, #1
 2567              	.LVL310:
1998:D:/Work/DeviceTester/amazon-freertos/lib/third_party/mbedtls/library\aes.c **** 
 2568              		.loc 1 1998 0
 2569 03f4 018006E2 		and	r8, r6, #1
 2570              	.LVL311:
2000:D:/Work/DeviceTester/amazon-freertos/lib/third_party/mbedtls/library\aes.c ****             mbedtls_printf( "  AES-CTR-128 (%s): ",
 2571              		.loc 1 2000 0
 2572 03f8 0400000A 		beq	.L125
2001:D:/Work/DeviceTester/amazon-freertos/lib/third_party/mbedtls/library\aes.c ****                             ( mode == MBEDTLS_AES_DECRYPT ) ? "dec" : "enc" );
 2573              		.loc 1 2001 0
 2574 03fc 000058E3 		cmp	r8, #0
 2575 0400 6C119FE5 		ldr	r1, .L188+4
 2576 0404 0B00A0E1 		mov	r0, fp
 2577 0408 0910A011 		movne	r1, r9
 2578 040c FEFFFFEB 		bl	printf
 2579              	.LVL312:
 2580              	.L125:
2004:D:/Work/DeviceTester/amazon-freertos/lib/third_party/mbedtls/library\aes.c ****         memcpy( key, aes_test_ctr_key[u], 16 );
 2581              		.loc 1 2004 0
 2582 0410 98119FE5 		ldr	r1, .L188+64
 2583 0414 0572A0E1 		lsl	r7, r5, #4
 2584 0418 1020A0E3 		mov	r2, #16
 2585 041c 40008DE2 		add	r0, sp, #64
 2586 0420 071081E0 		add	r1, r1, r7
 2587 0424 FEFFFFEB 		bl	memcpy
 2588              	.LVL313:
2005:D:/Work/DeviceTester/amazon-freertos/lib/third_party/mbedtls/library\aes.c **** 
 2589              		.loc 1 2005 0
 2590 0428 84119FE5 		ldr	r1, .L188+68
 2591 042c 1020A0E3 		mov	r2, #16
 2592 0430 60008DE2 		add	r0, sp, #96
 2593 0434 071081E0 		add	r1, r1, r7
 2594 0438 FEFFFFEB 		bl	memcpy
 2595              	.LVL314:
2007:D:/Work/DeviceTester/amazon-freertos/lib/third_party/mbedtls/library\aes.c ****         if( ( ret = mbedtls_aes_setkey_enc( &ctx, key, 128 ) ) != 0 )
 2596              		.loc 1 2007 0
 2597 043c 0030A0E3 		mov	r3, #0
2008:D:/Work/DeviceTester/amazon-freertos/lib/third_party/mbedtls/library\aes.c ****             goto exit;
 2598              		.loc 1 2008 0
 2599 0440 8020A0E3 		mov	r2, #128
 2600 0444 60108DE2 		add	r1, sp, #96
 2601 0448 C0008DE2 		add	r0, sp, #192
2007:D:/Work/DeviceTester/amazon-freertos/lib/third_party/mbedtls/library\aes.c ****         if( ( ret = mbedtls_aes_setkey_enc( &ctx, key, 128 ) ) != 0 )
 2602              		.loc 1 2007 0
 2603 044c 1C308DE5 		str	r3, [sp, #28]
2008:D:/Work/DeviceTester/amazon-freertos/lib/third_party/mbedtls/library\aes.c ****             goto exit;
 2604              		.loc 1 2008 0
 2605 0450 FEFFFFEB 		bl	mbedtls_aes_setkey_enc
 2606              	.LVL315:
 2607 0454 003050E2 		subs	r3, r0, #0
 2608 0458 26FFFF1A 		bne	.L101
2011:D:/Work/DeviceTester/amazon-freertos/lib/third_party/mbedtls/library\aes.c **** 
 2609              		.loc 1 2011 0
 2610 045c 54319FE5 		ldr	r3, .L188+72
2013:D:/Work/DeviceTester/amazon-freertos/lib/third_party/mbedtls/library\aes.c ****         {
 2611              		.loc 1 2013 0
 2612 0460 000058E3 		cmp	r8, #0
 2613 0464 3020A0E3 		mov	r2, #48
 2614 0468 4C819FE5 		ldr	r8, .L188+76
 2615              	.LVL316:
2011:D:/Work/DeviceTester/amazon-freertos/lib/third_party/mbedtls/library\aes.c **** 
 2616              		.loc 1 2011 0
 2617 046c 057193E7 		ldr	r7, [r3, r5, lsl #2]
 2618              	.LVL317:
 2619 0470 48319FE5 		ldr	r3, .L188+80
2013:D:/Work/DeviceTester/amazon-freertos/lib/third_party/mbedtls/library\aes.c ****         {
 2620              		.loc 1 2013 0
 2621 0474 3600001A 		bne	.L127
 2622 0478 920505E0 		mul	r5, r2, r5
 2623              	.LVL318:
2015:D:/Work/DeviceTester/amazon-freertos/lib/third_party/mbedtls/library\aes.c ****             aes_tests = aes_test_ctr_pt[u];
 2624              		.loc 1 2015 0
 2625 047c 0400A0E1 		mov	r0, r4
 2626              	.LVL319:
 2627 0480 0720A0E1 		mov	r2, r7
 2628 0484 14308DE5 		str	r3, [sp, #20]
 2629 0488 051088E0 		add	r1, r8, r5
 2630 048c FEFFFFEB 		bl	memcpy
 2631              	.LVL320:
2016:D:/Work/DeviceTester/amazon-freertos/lib/third_party/mbedtls/library\aes.c ****         }
 2632              		.loc 1 2016 0
 2633 0490 14309DE5 		ldr	r3, [sp, #20]
 2634 0494 055083E0 		add	r5, r3, r5
 2635              	.LVL321:
 2636              	.L128:
2024:D:/Work/DeviceTester/amazon-freertos/lib/third_party/mbedtls/library\aes.c ****                                      stream_block, buf, buf );
 2637              		.loc 1 2024 0
 2638 0498 50308DE2 		add	r3, sp, #80
 2639 049c 08408DE5 		str	r4, [sp, #8]
 2640 04a0 00308DE5 		str	r3, [sp]
 2641 04a4 1C208DE2 		add	r2, sp, #28
 2642 04a8 40308DE2 		add	r3, sp, #64
 2643 04ac 04408DE5 		str	r4, [sp, #4]
 2644 04b0 0710A0E1 		mov	r1, r7
 2645 04b4 C0008DE2 		add	r0, sp, #192
 2646 04b8 FEFFFFEB 		bl	mbedtls_aes_crypt_ctr
 2647              	.LVL322:
2026:D:/Work/DeviceTester/amazon-freertos/lib/third_party/mbedtls/library\aes.c ****             goto exit;
 2648              		.loc 1 2026 0
 2649 04bc 003050E2 		subs	r3, r0, #0
 2650 04c0 0CFFFF1A 		bne	.L101
2029:D:/Work/DeviceTester/amazon-freertos/lib/third_party/mbedtls/library\aes.c ****         {
 2651              		.loc 1 2029 0
 2652 04c4 0720A0E1 		mov	r2, r7
 2653 04c8 0510A0E1 		mov	r1, r5
 2654 04cc 0400A0E1 		mov	r0, r4
 2655              	.LVL323:
 2656 04d0 FEFFFFEB 		bl	memcmp
 2657              	.LVL324:
 2658 04d4 003050E2 		subs	r3, r0, #0
 2659 04d8 05FFFF1A 		bne	.L114
2035:D:/Work/DeviceTester/amazon-freertos/lib/third_party/mbedtls/library\aes.c ****             mbedtls_printf( "passed\n" );
 2660              		.loc 1 2035 0
 2661 04dc 00005AE3 		cmp	r10, #0
 2662 04e0 0300000A 		beq	.L129
2036:D:/Work/DeviceTester/amazon-freertos/lib/third_party/mbedtls/library\aes.c ****     }
 2663              		.loc 1 2036 0
 2664 04e4 A0009FE5 		ldr	r0, .L188+28
 2665 04e8 14308DE5 		str	r3, [sp, #20]
 2666 04ec FEFFFFEB 		bl	puts
 2667              	.LVL325:
 2668 04f0 14309DE5 		ldr	r3, [sp, #20]
 2669              	.L129:
1995:D:/Work/DeviceTester/amazon-freertos/lib/third_party/mbedtls/library\aes.c ****     {
 2670              		.loc 1 1995 0 discriminator 2
 2671 04f4 016086E2 		add	r6, r6, #1
 2672              	.LVL326:
 2673 04f8 060056E3 		cmp	r6, #6
 2674 04fc BAFFFF1A 		bne	.L130
2039:D:/Work/DeviceTester/amazon-freertos/lib/third_party/mbedtls/library\aes.c ****         mbedtls_printf( "\n" );
 2675              		.loc 1 2039 0
 2676 0500 00005AE3 		cmp	r10, #0
2110:D:/Work/DeviceTester/amazon-freertos/lib/third_party/mbedtls/library\aes.c **** 
 2677              		.loc 1 2110 0
 2678 0504 0A30A001 		moveq	r3, r10
2039:D:/Work/DeviceTester/amazon-freertos/lib/third_party/mbedtls/library\aes.c ****         mbedtls_printf( "\n" );
 2679              		.loc 1 2039 0
 2680 0508 FAFEFF0A 		beq	.L101
2040:D:/Work/DeviceTester/amazon-freertos/lib/third_party/mbedtls/library\aes.c **** #endif /* MBEDTLS_CIPHER_MODE_CTR */
 2681              		.loc 1 2040 0
 2682 050c 0A00A0E3 		mov	r0, #10
 2683 0510 14308DE5 		str	r3, [sp, #20]
 2684 0514 FEFFFFEB 		bl	putchar
 2685              	.LVL327:
 2686 0518 14309DE5 		ldr	r3, [sp, #20]
 2687 051c F5FEFFEA 		b	.L101
 2688              	.LVL328:
 2689              	.L108:
1815:D:/Work/DeviceTester/amazon-freertos/lib/third_party/mbedtls/library\aes.c ****             aes_tests = aes_test_cbc_enc[u];
 2690              		.loc 1 1815 0
 2691 0520 FEFFFFEB 		bl	mbedtls_aes_setkey_enc
 2692              	.LVL329:
1816:D:/Work/DeviceTester/amazon-freertos/lib/third_party/mbedtls/library\aes.c ****         }
 2693              		.loc 1 1816 0
 2694 0524 98209FE5 		ldr	r2, .L188+84
1815:D:/Work/DeviceTester/amazon-freertos/lib/third_party/mbedtls/library\aes.c ****             aes_tests = aes_test_cbc_enc[u];
 2695              		.loc 1 1815 0
 2696 0528 0030A0E1 		mov	r3, r0
 2697              	.LVL330:
 2698 052c 31FFFFEA 		b	.L185
 2699              	.LVL331:
 2700              	.L121:
1906:D:/Work/DeviceTester/amazon-freertos/lib/third_party/mbedtls/library\aes.c ****             aes_tests = aes_test_cfb128_ct[u];
 2701              		.loc 1 1906 0
 2702 0530 4020A0E3 		mov	r2, #64
 2703 0534 6C109FE5 		ldr	r1, .L188+56
 2704 0538 0400A0E1 		mov	r0, r4
 2705 053c 14308DE5 		str	r3, [sp, #20]
 2706 0540 FEFFFFEB 		bl	memcpy
 2707              	.LVL332:
1907:D:/Work/DeviceTester/amazon-freertos/lib/third_party/mbedtls/library\aes.c ****         }
 2708              		.loc 1 1907 0
 2709 0544 14309DE5 		ldr	r3, [sp, #20]
 2710 0548 805045E2 		sub	r5, r5, #128
 2711              	.LVL333:
 2712 054c 055083E0 		add	r5, r3, r5
 2713              	.LVL334:
 2714 0550 86FFFFEA 		b	.L122
 2715              	.LVL335:
 2716              	.L127:
 2717 0554 920505E0 		mul	r5, r2, r5
 2718              	.LVL336:
2020:D:/Work/DeviceTester/amazon-freertos/lib/third_party/mbedtls/library\aes.c ****             aes_tests = aes_test_ctr_ct[u];
 2719              		.loc 1 2020 0
 2720 0558 0400A0E1 		mov	r0, r4
 2721              	.LVL337:
 2722 055c 0720A0E1 		mov	r2, r7
 2723 0560 051083E0 		add	r1, r3, r5
2021:D:/Work/DeviceTester/amazon-freertos/lib/third_party/mbedtls/library\aes.c ****         }
 2724              		.loc 1 2021 0
 2725 0564 055088E0 		add	r5, r8, r5
2020:D:/Work/DeviceTester/amazon-freertos/lib/third_party/mbedtls/library\aes.c ****             aes_tests = aes_test_ctr_ct[u];
 2726              		.loc 1 2020 0
 2727 0568 FEFFFFEB 		bl	memcpy
 2728              	.LVL338:
 2729 056c C9FFFFEA 		b	.L128
 2730              	.L189:
 2731              		.align	2
 2732              	.L188:
 2733 0570 04000000 		.word	.LC1
 2734 0574 00000000 		.word	.LC0
 2735 0578 08000000 		.word	.LC2
 2736 057c 00000000 		.word	.LANCHOR12
 2737 0580 1D000000 		.word	.LC3
 2738 0584 6E000000 		.word	.LC8
 2739 0588 00000000 		.word	.LANCHOR13
 2740 058c 25000000 		.word	.LC4
 2741 0590 2C000000 		.word	.LC5
 2742 0594 00000000 		.word	.LANCHOR14
 2743 0598 41000000 		.word	.LC6
 2744 059c 00000000 		.word	.LANCHOR16
 2745 05a0 00000000 		.word	.LANCHOR17
 2746 05a4 00000000 		.word	.LANCHOR18
 2747 05a8 00000000 		.word	.LANCHOR11
 2748 05ac 59000000 		.word	.LC7
 2749 05b0 00000000 		.word	.LANCHOR19
 2750 05b4 00000000 		.word	.LANCHOR20
 2751 05b8 00000000 		.word	.LANCHOR21
 2752 05bc 00000000 		.word	.LANCHOR22
 2753 05c0 00000000 		.word	.LANCHOR23
 2754 05c4 00000000 		.word	.LANCHOR15
 2755              		.cfi_endproc
 2756              	.LFE12:
 2758              		.section	.rodata.FSb,"a",%progbits
 2759              		.set	.LANCHOR1,. + 0
 2762              	FSb:
 2763 0000 63       		.byte	99
 2764 0001 7C       		.byte	124
 2765 0002 77       		.byte	119
 2766 0003 7B       		.byte	123
 2767 0004 F2       		.byte	-14
 2768 0005 6B       		.byte	107
 2769 0006 6F       		.byte	111
 2770 0007 C5       		.byte	-59
 2771 0008 30       		.byte	48
 2772 0009 01       		.byte	1
 2773 000a 67       		.byte	103
 2774 000b 2B       		.byte	43
 2775 000c FE       		.byte	-2
 2776 000d D7       		.byte	-41
 2777 000e AB       		.byte	-85
 2778 000f 76       		.byte	118
 2779 0010 CA       		.byte	-54
 2780 0011 82       		.byte	-126
 2781 0012 C9       		.byte	-55
 2782 0013 7D       		.byte	125
 2783 0014 FA       		.byte	-6
 2784 0015 59       		.byte	89
 2785 0016 47       		.byte	71
 2786 0017 F0       		.byte	-16
 2787 0018 AD       		.byte	-83
 2788 0019 D4       		.byte	-44
 2789 001a A2       		.byte	-94
 2790 001b AF       		.byte	-81
 2791 001c 9C       		.byte	-100
 2792 001d A4       		.byte	-92
 2793 001e 72       		.byte	114
 2794 001f C0       		.byte	-64
 2795 0020 B7       		.byte	-73
 2796 0021 FD       		.byte	-3
 2797 0022 93       		.byte	-109
 2798 0023 26       		.byte	38
 2799 0024 36       		.byte	54
 2800 0025 3F       		.byte	63
 2801 0026 F7       		.byte	-9
 2802 0027 CC       		.byte	-52
 2803 0028 34       		.byte	52
 2804 0029 A5       		.byte	-91
 2805 002a E5       		.byte	-27
 2806 002b F1       		.byte	-15
 2807 002c 71       		.byte	113
 2808 002d D8       		.byte	-40
 2809 002e 31       		.byte	49
 2810 002f 15       		.byte	21
 2811 0030 04       		.byte	4
 2812 0031 C7       		.byte	-57
 2813 0032 23       		.byte	35
 2814 0033 C3       		.byte	-61
 2815 0034 18       		.byte	24
 2816 0035 96       		.byte	-106
 2817 0036 05       		.byte	5
 2818 0037 9A       		.byte	-102
 2819 0038 07       		.byte	7
 2820 0039 12       		.byte	18
 2821 003a 80       		.byte	-128
 2822 003b E2       		.byte	-30
 2823 003c EB       		.byte	-21
 2824 003d 27       		.byte	39
 2825 003e B2       		.byte	-78
 2826 003f 75       		.byte	117
 2827 0040 09       		.byte	9
 2828 0041 83       		.byte	-125
 2829 0042 2C       		.byte	44
 2830 0043 1A       		.byte	26
 2831 0044 1B       		.byte	27
 2832 0045 6E       		.byte	110
 2833 0046 5A       		.byte	90
 2834 0047 A0       		.byte	-96
 2835 0048 52       		.byte	82
 2836 0049 3B       		.byte	59
 2837 004a D6       		.byte	-42
 2838 004b B3       		.byte	-77
 2839 004c 29       		.byte	41
 2840 004d E3       		.byte	-29
 2841 004e 2F       		.byte	47
 2842 004f 84       		.byte	-124
 2843 0050 53       		.byte	83
 2844 0051 D1       		.byte	-47
 2845 0052 00       		.byte	0
 2846 0053 ED       		.byte	-19
 2847 0054 20       		.byte	32
 2848 0055 FC       		.byte	-4
 2849 0056 B1       		.byte	-79
 2850 0057 5B       		.byte	91
 2851 0058 6A       		.byte	106
 2852 0059 CB       		.byte	-53
 2853 005a BE       		.byte	-66
 2854 005b 39       		.byte	57
 2855 005c 4A       		.byte	74
 2856 005d 4C       		.byte	76
 2857 005e 58       		.byte	88
 2858 005f CF       		.byte	-49
 2859 0060 D0       		.byte	-48
 2860 0061 EF       		.byte	-17
 2861 0062 AA       		.byte	-86
 2862 0063 FB       		.byte	-5
 2863 0064 43       		.byte	67
 2864 0065 4D       		.byte	77
 2865 0066 33       		.byte	51
 2866 0067 85       		.byte	-123
 2867 0068 45       		.byte	69
 2868 0069 F9       		.byte	-7
 2869 006a 02       		.byte	2
 2870 006b 7F       		.byte	127
 2871 006c 50       		.byte	80
 2872 006d 3C       		.byte	60
 2873 006e 9F       		.byte	-97
 2874 006f A8       		.byte	-88
 2875 0070 51       		.byte	81
 2876 0071 A3       		.byte	-93
 2877 0072 40       		.byte	64
 2878 0073 8F       		.byte	-113
 2879 0074 92       		.byte	-110
 2880 0075 9D       		.byte	-99
 2881 0076 38       		.byte	56
 2882 0077 F5       		.byte	-11
 2883 0078 BC       		.byte	-68
 2884 0079 B6       		.byte	-74
 2885 007a DA       		.byte	-38
 2886 007b 21       		.byte	33
 2887 007c 10       		.byte	16
 2888 007d FF       		.byte	-1
 2889 007e F3       		.byte	-13
 2890 007f D2       		.byte	-46
 2891 0080 CD       		.byte	-51
 2892 0081 0C       		.byte	12
 2893 0082 13       		.byte	19
 2894 0083 EC       		.byte	-20
 2895 0084 5F       		.byte	95
 2896 0085 97       		.byte	-105
 2897 0086 44       		.byte	68
 2898 0087 17       		.byte	23
 2899 0088 C4       		.byte	-60
 2900 0089 A7       		.byte	-89
 2901 008a 7E       		.byte	126
 2902 008b 3D       		.byte	61
 2903 008c 64       		.byte	100
 2904 008d 5D       		.byte	93
 2905 008e 19       		.byte	25
 2906 008f 73       		.byte	115
 2907 0090 60       		.byte	96
 2908 0091 81       		.byte	-127
 2909 0092 4F       		.byte	79
 2910 0093 DC       		.byte	-36
 2911 0094 22       		.byte	34
 2912 0095 2A       		.byte	42
 2913 0096 90       		.byte	-112
 2914 0097 88       		.byte	-120
 2915 0098 46       		.byte	70
 2916 0099 EE       		.byte	-18
 2917 009a B8       		.byte	-72
 2918 009b 14       		.byte	20
 2919 009c DE       		.byte	-34
 2920 009d 5E       		.byte	94
 2921 009e 0B       		.byte	11
 2922 009f DB       		.byte	-37
 2923 00a0 E0       		.byte	-32
 2924 00a1 32       		.byte	50
 2925 00a2 3A       		.byte	58
 2926 00a3 0A       		.byte	10
 2927 00a4 49       		.byte	73
 2928 00a5 06       		.byte	6
 2929 00a6 24       		.byte	36
 2930 00a7 5C       		.byte	92
 2931 00a8 C2       		.byte	-62
 2932 00a9 D3       		.byte	-45
 2933 00aa AC       		.byte	-84
 2934 00ab 62       		.byte	98
 2935 00ac 91       		.byte	-111
 2936 00ad 95       		.byte	-107
 2937 00ae E4       		.byte	-28
 2938 00af 79       		.byte	121
 2939 00b0 E7       		.byte	-25
 2940 00b1 C8       		.byte	-56
 2941 00b2 37       		.byte	55
 2942 00b3 6D       		.byte	109
 2943 00b4 8D       		.byte	-115
 2944 00b5 D5       		.byte	-43
 2945 00b6 4E       		.byte	78
 2946 00b7 A9       		.byte	-87
 2947 00b8 6C       		.byte	108
 2948 00b9 56       		.byte	86
 2949 00ba F4       		.byte	-12
 2950 00bb EA       		.byte	-22
 2951 00bc 65       		.byte	101
 2952 00bd 7A       		.byte	122
 2953 00be AE       		.byte	-82
 2954 00bf 08       		.byte	8
 2955 00c0 BA       		.byte	-70
 2956 00c1 78       		.byte	120
 2957 00c2 25       		.byte	37
 2958 00c3 2E       		.byte	46
 2959 00c4 1C       		.byte	28
 2960 00c5 A6       		.byte	-90
 2961 00c6 B4       		.byte	-76
 2962 00c7 C6       		.byte	-58
 2963 00c8 E8       		.byte	-24
 2964 00c9 DD       		.byte	-35
 2965 00ca 74       		.byte	116
 2966 00cb 1F       		.byte	31
 2967 00cc 4B       		.byte	75
 2968 00cd BD       		.byte	-67
 2969 00ce 8B       		.byte	-117
 2970 00cf 8A       		.byte	-118
 2971 00d0 70       		.byte	112
 2972 00d1 3E       		.byte	62
 2973 00d2 B5       		.byte	-75
 2974 00d3 66       		.byte	102
 2975 00d4 48       		.byte	72
 2976 00d5 03       		.byte	3
 2977 00d6 F6       		.byte	-10
 2978 00d7 0E       		.byte	14
 2979 00d8 61       		.byte	97
 2980 00d9 35       		.byte	53
 2981 00da 57       		.byte	87
 2982 00db B9       		.byte	-71
 2983 00dc 86       		.byte	-122
 2984 00dd C1       		.byte	-63
 2985 00de 1D       		.byte	29
 2986 00df 9E       		.byte	-98
 2987 00e0 E1       		.byte	-31
 2988 00e1 F8       		.byte	-8
 2989 00e2 98       		.byte	-104
 2990 00e3 11       		.byte	17
 2991 00e4 69       		.byte	105
 2992 00e5 D9       		.byte	-39
 2993 00e6 8E       		.byte	-114
 2994 00e7 94       		.byte	-108
 2995 00e8 9B       		.byte	-101
 2996 00e9 1E       		.byte	30
 2997 00ea 87       		.byte	-121
 2998 00eb E9       		.byte	-23
 2999 00ec CE       		.byte	-50
 3000 00ed 55       		.byte	85
 3001 00ee 28       		.byte	40
 3002 00ef DF       		.byte	-33
 3003 00f0 8C       		.byte	-116
 3004 00f1 A1       		.byte	-95
 3005 00f2 89       		.byte	-119
 3006 00f3 0D       		.byte	13
 3007 00f4 BF       		.byte	-65
 3008 00f5 E6       		.byte	-26
 3009 00f6 42       		.byte	66
 3010 00f7 68       		.byte	104
 3011 00f8 41       		.byte	65
 3012 00f9 99       		.byte	-103
 3013 00fa 2D       		.byte	45
 3014 00fb 0F       		.byte	15
 3015 00fc B0       		.byte	-80
 3016 00fd 54       		.byte	84
 3017 00fe BB       		.byte	-69
 3018 00ff 16       		.byte	22
 3019              		.section	.rodata.FT0,"a",%progbits
 3020              		.align	2
 3021              		.set	.LANCHOR6,. + 0
 3024              	FT0:
 3025 0000 C66363A5 		.word	-1520213050
 3026 0004 F87C7C84 		.word	-2072216328
 3027 0008 EE777799 		.word	-1720223762
 3028 000c F67B7B8D 		.word	-1921287178
 3029 0010 FFF2F20D 		.word	234025727
 3030 0014 D66B6BBD 		.word	-1117033514
 3031 0018 DE6F6FB1 		.word	-1318096930
 3032 001c 91C5C554 		.word	1422247313
 3033 0020 60303050 		.word	1345335392
 3034 0024 02010103 		.word	50397442
 3035 0028 CE6767A9 		.word	-1452841010
 3036 002c 562B2B7D 		.word	2099981142
 3037 0030 E7FEFE19 		.word	436141799
 3038 0034 B5D7D762 		.word	1658312629
 3039 0038 4DABABE6 		.word	-424957107
 3040 003c EC76769A 		.word	-1703512340
 3041 0040 8FCACA45 		.word	1170918031
 3042 0044 1F82829D 		.word	-1652391393
 3043 0048 89C9C940 		.word	1086966153
 3044 004c FA7D7D87 		.word	-2021818886
 3045 0050 EFFAFA15 		.word	368769775
 3046 0054 B25959EB 		.word	-346465870
 3047 0058 8E4747C9 		.word	-918075506
 3048 005c FBF0F00B 		.word	200339707
 3049 0060 41ADADEC 		.word	-324162239
 3050 0064 B3D4D467 		.word	1742001331
 3051 0068 5FA2A2FD 		.word	-39673249
 3052 006c 45AFAFEA 		.word	-357585083
 3053 0070 239C9CBF 		.word	-1080255453
 3054 0074 53A4A4F7 		.word	-140204973
 3055 0078 E4727296 		.word	-1770884380
 3056 007c 9BC0C05B 		.word	1539358875
 3057 0080 75B7B7C2 		.word	-1028147339
 3058 0084 E1FDFD1C 		.word	486407649
 3059 0088 3D9393AE 		.word	-1366060227
 3060 008c 4C26266A 		.word	1780885068
 3061 0090 6C36365A 		.word	1513502316
 3062 0094 7E3F3F41 		.word	1094664062
 3063 0098 F5F7F702 		.word	49805301
 3064 009c 83CCCC4F 		.word	1338821763
 3065 00a0 6834345C 		.word	1546925160
 3066 00a4 51A5A5F4 		.word	-190470831
 3067 00a8 D1E5E534 		.word	887481809
 3068 00ac F9F1F108 		.word	150073849
 3069 00b0 E2717193 		.word	-1821281822
 3070 00b4 ABD8D873 		.word	1943591083
 3071 00b8 62313153 		.word	1395732834
 3072 00bc 2A15153F 		.word	1058346282
 3073 00c0 0804040C 		.word	201589768
 3074 00c4 95C7C752 		.word	1388824469
 3075 00c8 46232365 		.word	1696801606
 3076 00cc 9DC3C35E 		.word	1589887901
 3077 00d0 30181828 		.word	672667696
 3078 00d4 379696A1 		.word	-1583966665
 3079 00d8 0A05050F 		.word	251987210
 3080 00dc 2F9A9AB5 		.word	-1248159185
 3081 00e0 0E070709 		.word	151455502
 3082 00e4 24121236 		.word	907153956
 3083 00e8 1B80809B 		.word	-1686077413
 3084 00ec DFE2E23D 		.word	1038279391
 3085 00f0 CDEBEB26 		.word	652995533
 3086 00f4 4E272769 		.word	1764173646
 3087 00f8 7FB2B2CD 		.word	-843926913
 3088 00fc EA75759F 		.word	-1619692054
 3089 0100 1209091B 		.word	453576978
 3090 0104 1D83839E 		.word	-1635548387
 3091 0108 582C2C74 		.word	1949051992
 3092 010c 341A1A2E 		.word	773462580
 3093 0110 361B1B2D 		.word	756751158
 3094 0114 DC6E6EB2 		.word	-1301385508
 3095 0118 B45A5AEE 		.word	-296068428
 3096 011c 5BA0A0FB 		.word	-73359269
 3097 0120 A45252F6 		.word	-162377052
 3098 0124 763B3B4D 		.word	1295727478
 3099 0128 B7D6D661 		.word	1641469623
 3100 012c 7DB3B3CE 		.word	-827083907
 3101 0130 5229297B 		.word	2066295122
 3102 0134 DDE3E33E 		.word	1055122397
 3103 0138 5E2F2F71 		.word	1898917726
 3104 013c 13848497 		.word	-1752923117
 3105 0140 A65353F5 		.word	-179088474
 3106 0144 B9D1D168 		.word	1758581177
 3107 0148 00000000 		.word	0
 3108 014c C1EDED2C 		.word	753790401
 3109 0150 40202060 		.word	1612718144
 3110 0154 E3FCFC1F 		.word	536673507
 3111 0158 79B1B1C8 		.word	-927878791
 3112 015c B65B5BED 		.word	-312779850
 3113 0160 D46A6ABE 		.word	-1100322092
 3114 0164 8DCBCB46 		.word	1187761037
 3115 0168 67BEBED9 		.word	-641810841
 3116 016c 7239394B 		.word	1262041458
 3117 0170 944A4ADE 		.word	-565556588
 3118 0174 984C4CD4 		.word	-733197160
 3119 0178 B05858E8 		.word	-396863312
 3120 017c 85CFCF4A 		.word	1255133061
 3121 0180 BBD0D06B 		.word	1808847035
 3122 0184 C5EFEF2A 		.word	720367557
 3123 0188 4FAAAAE5 		.word	-441800113
 3124 018c EDFBFB16 		.word	385612781
 3125 0190 864343C5 		.word	-985447546
 3126 0194 9A4D4DD7 		.word	-682799718
 3127 0198 66333355 		.word	1429418854
 3128 019c 11858594 		.word	-1803188975
 3129 01a0 8A4545CF 		.word	-817543798
 3130 01a4 E9F9F910 		.word	284817897
 3131 01a8 04020206 		.word	100794884
 3132 01ac FE7F7F81 		.word	-2122350594
 3133 01b0 A05050F0 		.word	-263171936
 3134 01b4 783C3C44 		.word	1144798328
 3135 01b8 259F9FBA 		.word	-1163944155
 3136 01bc 4BA8A8E3 		.word	-475486133
 3137 01c0 A25151F3 		.word	-212774494
 3138 01c4 5DA3A3FE 		.word	-22830243
 3139 01c8 804040C0 		.word	-1069531008
 3140 01cc 058F8F8A 		.word	-1970303227
 3141 01d0 3F9292AD 		.word	-1382903233
 3142 01d4 219D9DBC 		.word	-1130521311
 3143 01d8 70383848 		.word	1211644016
 3144 01dc F1F5F504 		.word	83228145
 3145 01e0 63BCBCDF 		.word	-541279133
 3146 01e4 77B6B6C1 		.word	-1044990345
 3147 01e8 AFDADA75 		.word	1977277103
 3148 01ec 42212163 		.word	1663115586
 3149 01f0 20101030 		.word	806359072
 3150 01f4 E5FFFF1A 		.word	452984805
 3151 01f8 FDF3F30E 		.word	250868733
 3152 01fc BFD2D26D 		.word	1842533055
 3153 0200 81CDCD4C 		.word	1288555905
 3154 0204 180C0C14 		.word	336333848
 3155 0208 26131335 		.word	890442534
 3156 020c C3ECEC2F 		.word	804056259
 3157 0210 BE5F5FE1 		.word	-513843266
 3158 0214 359797A2 		.word	-1567123659
 3159 0218 884444CC 		.word	-867941240
 3160 021c 2E171739 		.word	957814574
 3161 0220 93C4C457 		.word	1472513171
 3162 0224 55A7A7F2 		.word	-223893675
 3163 0228 FC7E7E82 		.word	-2105639172
 3164 022c 7A3D3D47 		.word	1195195770
 3165 0230 C86464AC 		.word	-1402706744
 3166 0234 BA5D5DE7 		.word	-413311558
 3167 0238 3219192B 		.word	723065138
 3168 023c E6737395 		.word	-1787595802
 3169 0240 C06060A0 		.word	-1604296512
 3170 0244 19818198 		.word	-1736343271
 3171 0248 9E4F4FD1 		.word	-783331426
 3172 024c A3DCDC7F 		.word	2145180835
 3173 0250 44222266 		.word	1713513028
 3174 0254 542A2A7E 		.word	2116692564
 3175 0258 3B9090AB 		.word	-1416589253
 3176 025c 0B888883 		.word	-2088204277
 3177 0260 8C4646CA 		.word	-901364084
 3178 0264 C7EEEE29 		.word	703524551
 3179 0268 6BB8B8D3 		.word	-742868885
 3180 026c 2814143C 		.word	1007948840
 3181 0270 A7DEDE79 		.word	2044649127
 3182 0274 BC5E5EE2 		.word	-497131844
 3183 0278 160B0B1D 		.word	487262998
 3184 027c ADDBDB76 		.word	1994120109
 3185 0280 DBE0E03B 		.word	1004593371
 3186 0284 64323256 		.word	1446130276
 3187 0288 743A3A4E 		.word	1312438900
 3188 028c 140A0A1E 		.word	503974420
 3189 0290 924949DB 		.word	-615954030
 3190 0294 0C06060A 		.word	168166924
 3191 0298 4824246C 		.word	1814307912
 3192 029c B85C5CE4 		.word	-463709000
 3193 02a0 9FC2C25D 		.word	1573044895
 3194 02a4 BDD3D36E 		.word	1859376061
 3195 02a8 43ACACEF 		.word	-273896381
 3196 02ac C46262A6 		.word	-1503501628
 3197 02b0 399191A8 		.word	-1466855111
 3198 02b4 319595A4 		.word	-1533700815
 3199 02b8 D3E4E437 		.word	937747667
 3200 02bc F279798B 		.word	-1954973198
 3201 02c0 D5E7E732 		.word	854058965
 3202 02c4 8BC8C843 		.word	1137232011
 3203 02c8 6E373759 		.word	1496790894
 3204 02cc DA6D6DB7 		.word	-1217565222
 3205 02d0 018D8D8C 		.word	-1936880383
 3206 02d4 B1D5D564 		.word	1691735473
 3207 02d8 9C4E4ED2 		.word	-766620004
 3208 02dc 49A9A9E0 		.word	-525751991
 3209 02e0 D86C6CB4 		.word	-1267962664
 3210 02e4 AC5656FA 		.word	-95005012
 3211 02e8 F3F4F407 		.word	133494003
 3212 02ec CFEAEA25 		.word	636152527
 3213 02f0 CA6565AF 		.word	-1352309302
 3214 02f4 F47A7A8E 		.word	-1904575756
 3215 02f8 47AEAEE9 		.word	-374428089
 3216 02fc 10080818 		.word	403179536
 3217 0300 6FBABAD5 		.word	-709182865
 3218 0304 F0787888 		.word	-2005370640
 3219 0308 4A25256F 		.word	1864705354
 3220 030c 5C2E2E72 		.word	1915629148
 3221 0310 381C1C24 		.word	605822008
 3222 0314 57A6A6F1 		.word	-240736681
 3223 0318 73B4B4C7 		.word	-944458637
 3224 031c 97C6C651 		.word	1371981463
 3225 0320 CBE8E823 		.word	602466507
 3226 0324 A1DDDD7C 		.word	2094914977
 3227 0328 E874749C 		.word	-1670089496
 3228 032c 3E1F1F21 		.word	555687742
 3229 0330 964B4BDD 		.word	-582268010
 3230 0334 61BDBDDC 		.word	-591544991
 3231 0338 0D8B8B86 		.word	-2037675251
 3232 033c 0F8A8A85 		.word	-2054518257
 3233 0340 E0707090 		.word	-1871679264
 3234 0344 7C3E3E42 		.word	1111375484
 3235 0348 71B5B5C4 		.word	-994724495
 3236 034c CC6666AA 		.word	-1436129588
 3237 0350 904848D8 		.word	-666351472
 3238 0354 06030305 		.word	84083462
 3239 0358 F7F6F601 		.word	32962295
 3240 035c 1C0E0E12 		.word	302911004
 3241 0360 C26161A3 		.word	-1553899070
 3242 0364 6A35355F 		.word	1597322602
 3243 0368 AE5757F9 		.word	-111716434
 3244 036c 69B9B9D0 		.word	-793134743
 3245 0370 17868691 		.word	-1853454825
 3246 0374 99C1C158 		.word	1489093017
 3247 0378 3A1D1D27 		.word	656219450
 3248 037c 279E9EB9 		.word	-1180787161
 3249 0380 D9E1E138 		.word	954327513
 3250 0384 EBF8F813 		.word	335083755
 3251 0388 2B9898B3 		.word	-1281845205
 3252 038c 22111133 		.word	856756514
 3253 0390 D26969BB 		.word	-1150719534
 3254 0394 A9D9D970 		.word	1893325225
 3255 0398 078E8E89 		.word	-1987146233
 3256 039c 339494A7 		.word	-1483434957
 3257 03a0 2D9B9BB6 		.word	-1231316179
 3258 03a4 3C1E1E22 		.word	572399164
 3259 03a8 15878792 		.word	-1836611819
 3260 03ac C9E9E920 		.word	552200649
 3261 03b0 87CECE49 		.word	1238290055
 3262 03b4 AA5555FF 		.word	-11184726
 3263 03b8 50282878 		.word	2015897680
 3264 03bc A5DFDF7A 		.word	2061492133
 3265 03c0 038C8C8F 		.word	-1886614525
 3266 03c4 59A1A1F8 		.word	-123625127
 3267 03c8 09898980 		.word	-2138470135
 3268 03cc 1A0D0D17 		.word	386731290
 3269 03d0 65BFBFDA 		.word	-624967835
 3270 03d4 D7E6E631 		.word	837215959
 3271 03d8 844242C6 		.word	-968736124
 3272 03dc D06868B8 		.word	-1201116976
 3273 03e0 824141C3 		.word	-1019133566
 3274 03e4 299999B0 		.word	-1332111063
 3275 03e8 5A2D2D77 		.word	1999449434
 3276 03ec 1E0F0F11 		.word	286199582
 3277 03f0 7BB0B0CB 		.word	-877612933
 3278 03f4 A85454FC 		.word	-61582168
 3279 03f8 6DBBBBD6 		.word	-692339859
 3280 03fc 2C16163A 		.word	974525996
 3281              		.section	.rodata.FT1,"a",%progbits
 3282              		.align	2
 3283              		.set	.LANCHOR8,. + 0
 3286              	FT1:
 3287 0000 A5C66363 		.word	1667483301
 3288 0004 84F87C7C 		.word	2088564868
 3289 0008 99EE7777 		.word	2004348569
 3290 000c 8DF67B7B 		.word	2071721613
 3291 0010 0DFFF2F2 		.word	-218956019
 3292 0014 BDD66B6B 		.word	1802229437
 3293 0018 B1DE6F6F 		.word	1869602481
 3294 001c 5491C5C5 		.word	-976907948
 3295 0020 50603030 		.word	808476752
 3296 0024 03020101 		.word	16843267
 3297 0028 A9CE6767 		.word	1734856361
 3298 002c 7D562B2B 		.word	724260477
 3299 0030 19E7FEFE 		.word	-16849127
 3300 0034 62B5D7D7 		.word	-673729182
 3301 0038 E64DABAB 		.word	-1414836762
 3302 003c 9AEC7676 		.word	1987505306
 3303 0040 458FCACA 		.word	-892694715
 3304 0044 9D1F8282 		.word	-2105401443
 3305 0048 4089C9C9 		.word	-909539008
 3306 004c 87FA7D7D 		.word	2105408135
 3307 0050 15EFFAFA 		.word	-84218091
 3308 0054 EBB25959 		.word	1499050731
 3309 0058 C98E4747 		.word	1195871945
 3310 005c 0BFBF0F0 		.word	-252642549
 3311 0060 EC41ADAD 		.word	-1381154324
 3312 0064 67B3D4D4 		.word	-724257945
 3313 0068 FD5FA2A2 		.word	-1566416899
 3314 006c EA45AFAF 		.word	-1347467798
 3315 0070 BF239C9C 		.word	-1667488833
 3316 0074 F753A4A4 		.word	-1532734473
 3317 0078 96E47272 		.word	1920132246
 3318 007c 5B9BC0C0 		.word	-1061119141
 3319 0080 C275B7B7 		.word	-1212713534
 3320 0084 1CE1FDFD 		.word	-33693412
 3321 0088 AE3D9393 		.word	-1819066962
 3322 008c 6A4C2626 		.word	640044138
 3323 0090 5A6C3636 		.word	909536346
 3324 0094 417E3F3F 		.word	1061125697
 3325 0098 02F5F7F7 		.word	-134744830
 3326 009c 4F83CCCC 		.word	-859012273
 3327 00a0 5C683434 		.word	875849820
 3328 00a4 F451A5A5 		.word	-1515892236
 3329 00a8 34D1E5E5 		.word	-437923532
 3330 00ac 08F9F1F1 		.word	-235800312
 3331 00b0 93E27171 		.word	1903288979
 3332 00b4 73ABD8D8 		.word	-656888973
 3333 00b8 53623131 		.word	825320019
 3334 00bc 3F2A1515 		.word	353708607
 3335 00c0 0C080404 		.word	67373068
 3336 00c4 5295C7C7 		.word	-943221422
 3337 00c8 65462323 		.word	589514341
 3338 00cc 5E9DC3C3 		.word	-1010590370
 3339 00d0 28301818 		.word	404238376
 3340 00d4 A1379696 		.word	-1768540255
 3341 00d8 0F0A0505 		.word	84216335
 3342 00dc B52F9A9A 		.word	-1701171275
 3343 00e0 090E0707 		.word	117902857
 3344 00e4 36241212 		.word	303178806
 3345 00e8 9B1B8080 		.word	-2139087973
 3346 00ec 3DDFE2E2 		.word	-488448195
 3347 00f0 26CDEBEB 		.word	-336868058
 3348 00f4 694E2727 		.word	656887401
 3349 00f8 CD7FB2B2 		.word	-1296924723
 3350 00fc 9FEA7575 		.word	1970662047
 3351 0100 1B120909 		.word	151589403
 3352 0104 9E1D8383 		.word	-2088559202
 3353 0108 74582C2C 		.word	741103732
 3354 010c 2E341A1A 		.word	437924910
 3355 0110 2D361B1B 		.word	454768173
 3356 0114 B2DC6E6E 		.word	1852759218
 3357 0118 EEB45A5A 		.word	1515893998
 3358 011c FB5BA0A0 		.word	-1600103429
 3359 0120 F6A45252 		.word	1381147894
 3360 0124 4D763B3B 		.word	993752653
 3361 0128 61B7D6D6 		.word	-690571423
 3362 012c CE7DB3B3 		.word	-1280082482
 3363 0130 7B522929 		.word	690573947
 3364 0134 3EDDE3E3 		.word	-471605954
 3365 0138 715E2F2F 		.word	791633521
 3366 013c 97138484 		.word	-2071719017
 3367 0140 F5A65353 		.word	1397991157
 3368 0144 68B9D1D1 		.word	-774784664
 3369 0148 00000000 		.word	0
 3370 014c 2CC1EDED 		.word	-303185620
 3371 0150 60402020 		.word	538984544
 3372 0154 1FE3FCFC 		.word	-50535649
 3373 0158 C879B1B1 		.word	-1313769016
 3374 015c EDB65B5B 		.word	1532737261
 3375 0160 BED46A6A 		.word	1785386174
 3376 0164 468DCBCB 		.word	-875852474
 3377 0168 D967BEBE 		.word	-1094817831
 3378 016c 4B723939 		.word	960066123
 3379 0170 DE944A4A 		.word	1246401758
 3380 0174 D4984C4C 		.word	1280088276
 3381 0178 E8B05858 		.word	1482207464
 3382 017c 4A85CFCF 		.word	-808483510
 3383 0180 6BBBD0D0 		.word	-791626901
 3384 0184 2AC5EFEF 		.word	-269499094
 3385 0188 E54FAAAA 		.word	-1431679003
 3386 018c 16EDFBFB 		.word	-67375850
 3387 0190 C5864343 		.word	1128498885
 3388 0194 D79A4D4D 		.word	1296931543
 3389 0198 55663333 		.word	859006549
 3390 019c 94118585 		.word	-2054876780
 3391 01a0 CF8A4545 		.word	1162185423
 3392 01a4 10E9F9F9 		.word	-101062384
 3393 01a8 06040202 		.word	33686534
 3394 01ac 81FE7F7F 		.word	2139094657
 3395 01b0 F0A05050 		.word	1347461360
 3396 01b4 44783C3C 		.word	1010595908
 3397 01b8 BA259F9F 		.word	-1616960070
 3398 01bc E34BA8A8 		.word	-1465365533
 3399 01c0 F3A25151 		.word	1364304627
 3400 01c4 FE5DA3A3 		.word	-1549574658
 3401 01c8 C0804040 		.word	1077969088
 3402 01cc 8A058F8F 		.word	-1886452342
 3403 01d0 AD3F9292 		.word	-1835909203
 3404 01d4 BC219D9D 		.word	-1650646596
 3405 01d8 48703838 		.word	943222856
 3406 01dc 04F1F5F5 		.word	-168431356
 3407 01e0 DF63BCBC 		.word	-1128504353
 3408 01e4 C177B6B6 		.word	-1229555775
 3409 01e8 75AFDADA 		.word	-623202443
 3410 01ec 63422121 		.word	555827811
 3411 01f0 30201010 		.word	269492272
 3412 01f4 1AE5FFFF 		.word	-6886
 3413 01f8 0EFDF3F3 		.word	-202113778
 3414 01fc 6DBFD2D2 		.word	-757940371
 3415 0200 4C81CDCD 		.word	-842170036
 3416 0204 14180C0C 		.word	202119188
 3417 0208 35261313 		.word	320022069
 3418 020c 2FC3ECEC 		.word	-320027857
 3419 0210 E1BE5F5F 		.word	1600110305
 3420 0214 A2359797 		.word	-1751698014
 3421 0218 CC884444 		.word	1145342156
 3422 021c 392E1717 		.word	387395129
 3423 0220 5793C4C4 		.word	-993750185
 3424 0224 F255A7A7 		.word	-1482205710
 3425 0228 82FC7E7E 		.word	2122251394
 3426 022c 477A3D3D 		.word	1027439175
 3427 0230 ACC86464 		.word	1684326572
 3428 0234 E7BA5D5D 		.word	1566423783
 3429 0238 2B321919 		.word	421081643
 3430 023c 95E67373 		.word	1936975509
 3431 0240 A0C06060 		.word	1616953504
 3432 0244 98198181 		.word	-2122245736
 3433 0248 D19E4F4F 		.word	1330618065
 3434 024c 7FA3DCDC 		.word	-589520001
 3435 0250 66442222 		.word	572671078
 3436 0254 7E542A2A 		.word	707417214
 3437 0258 AB3B9090 		.word	-1869595733
 3438 025c 830B8888 		.word	-2004350077
 3439 0260 CA8C4646 		.word	1179028682
 3440 0264 29C7EEEE 		.word	-286341335
 3441 0268 D36BB8B8 		.word	-1195873325
 3442 026c 3C281414 		.word	336865340
 3443 0270 79A7DEDE 		.word	-555833479
 3444 0274 E2BC5E5E 		.word	1583267042
 3445 0278 1D160B0B 		.word	185275933
 3446 027c 76ADDBDB 		.word	-606360202
 3447 0280 3BDBE0E0 		.word	-522134725
 3448 0284 56643232 		.word	842163286
 3449 0288 4E743A3A 		.word	976909390
 3450 028c 1E140A0A 		.word	168432670
 3451 0290 DB924949 		.word	1229558491
 3452 0294 0A0C0606 		.word	101059594
 3453 0298 6C482424 		.word	606357612
 3454 029c E4B85C5C 		.word	1549580516
 3455 02a0 5D9FC2C2 		.word	-1027432611
 3456 02a4 6EBDD3D3 		.word	-741098130
 3457 02a8 EF43ACAC 		.word	-1397996561
 3458 02ac A6C46262 		.word	1650640038
 3459 02b0 A8399191 		.word	-1852753496
 3460 02b4 A4319595 		.word	-1785384540
 3461 02b8 37D3E4E4 		.word	-454765769
 3462 02bc 8BF27979 		.word	2038035083
 3463 02c0 32D5E7E7 		.word	-404237006
 3464 02c4 438BC8C8 		.word	-926381245
 3465 02c8 596E3737 		.word	926379609
 3466 02cc B7DA6D6D 		.word	1835915959
 3467 02d0 8C018D8D 		.word	-1920138868
 3468 02d4 64B1D5D5 		.word	-707415708
 3469 02d8 D29C4E4E 		.word	1313774802
 3470 02dc E049A9A9 		.word	-1448523296
 3471 02e0 B4D86C6C 		.word	1819072692
 3472 02e4 FAAC5656 		.word	1448520954
 3473 02e8 07F3F4F4 		.word	-185273593
 3474 02ec 25CFEAEA 		.word	-353710299
 3475 02f0 AFCA6565 		.word	1701169839
 3476 02f4 8EF47A7A 		.word	2054878350
 3477 02f8 E947AEAE 		.word	-1364310039
 3478 02fc 18100808 		.word	134746136
 3479 0300 D56FBABA 		.word	-1162186795
 3480 0304 88F07878 		.word	2021191816
 3481 0308 6F4A2525 		.word	623200879
 3482 030c 725C2E2E 		.word	774790258
 3483 0310 24381C1C 		.word	471611428
 3484 0314 F157A6A6 		.word	-1499047951
 3485 0318 C773B4B4 		.word	-1263242297
 3486 031c 5197C6C6 		.word	-960063663
 3487 0320 23CBE8E8 		.word	-387396829
 3488 0324 7CA1DDDD 		.word	-572677764
 3489 0328 9CE87474 		.word	1953818780
 3490 032c 213E1F1F 		.word	522141217
 3491 0330 DD964B4B 		.word	1263245021
 3492 0334 DC61BDBD 		.word	-1111662116
 3493 0338 860D8B8B 		.word	-1953821306
 3494 033c 850F8A8A 		.word	-1970663547
 3495 0340 90E07070 		.word	1886445712
 3496 0344 427C3E3E 		.word	1044282434
 3497 0348 C471B5B5 		.word	-1246400060
 3498 034c AACC6666 		.word	1718013098
 3499 0350 D8904848 		.word	1212715224
 3500 0354 05060303 		.word	50529797
 3501 0358 01F7F6F6 		.word	-151587071
 3502 035c 121C0E0E 		.word	235805714
 3503 0360 A3C26161 		.word	1633796771
 3504 0364 5F6A3535 		.word	892693087
 3505 0368 F9AE5757 		.word	1465364217
 3506 036c D069B9B9 		.word	-1179031088
 3507 0370 91178686 		.word	-2038032495
 3508 0374 5899C1C1 		.word	-1044276904
 3509 0378 273A1D1D 		.word	488454695
 3510 037c B9279E9E 		.word	-1633802311
 3511 0380 38D9E1E1 		.word	-505292488
 3512 0384 13EBF8F8 		.word	-117904621
 3513 0388 B32B9898 		.word	-1734857805
 3514 038c 33221111 		.word	286335539
 3515 0390 BBD26969 		.word	1768542907
 3516 0394 70A9D9D9 		.word	-640046736
 3517 0398 89078E8E 		.word	-1903294583
 3518 039c A7339494 		.word	-1802226777
 3519 03a0 B62D9B9B 		.word	-1684329034
 3520 03a4 223C1E1E 		.word	505297954
 3521 03a8 92158787 		.word	-2021190254
 3522 03ac 20C9E9E9 		.word	-370554592
 3523 03b0 4987CECE 		.word	-825325751
 3524 03b4 FFAA5555 		.word	1431677695
 3525 03b8 78502828 		.word	673730680
 3526 03bc 7AA5DFDF 		.word	-538991238
 3527 03c0 8F038C8C 		.word	-1936981105
 3528 03c4 F859A1A1 		.word	-1583261192
 3529 03c8 80098989 		.word	-1987507840
 3530 03cc 171A0D0D 		.word	218962455
 3531 03d0 DA65BFBF 		.word	-1077975590
 3532 03d4 31D7E6E6 		.word	-421079247
 3533 03d8 C6844242 		.word	1111655622
 3534 03dc B8D06868 		.word	1751699640
 3535 03e0 C3824141 		.word	1094812355
 3536 03e4 B0299999 		.word	-1718015568
 3537 03e8 775A2D2D 		.word	757946999
 3538 03ec 111E0F0F 		.word	252648977
 3539 03f0 CB7BB0B0 		.word	-1330611253
 3540 03f4 FCA85454 		.word	1414834428
 3541 03f8 D66DBBBB 		.word	-1145344554
 3542 03fc 3A2C1616 		.word	370551866
 3543              		.section	.rodata.FT2,"a",%progbits
 3544              		.align	2
 3545              		.set	.LANCHOR9,. + 0
 3548              	FT2:
 3549 0000 63A5C663 		.word	1673962851
 3550 0004 7C84F87C 		.word	2096661628
 3551 0008 7799EE77 		.word	2012125559
 3552 000c 7B8DF67B 		.word	2079755643
 3553 0010 F20DFFF2 		.word	-218165774
 3554 0014 6BBDD66B 		.word	1809235307
 3555 0018 6FB1DE6F 		.word	1876865391
 3556 001c C55491C5 		.word	-980331323
 3557 0020 30506030 		.word	811618352
 3558 0024 01030201 		.word	16909057
 3559 0028 67A9CE67 		.word	1741597031
 3560 002c 2B7D562B 		.word	727088427
 3561 0030 FE19E7FE 		.word	-18408962
 3562 0034 D762B5D7 		.word	-675978537
 3563 0038 ABE64DAB 		.word	-1420958037
 3564 003c 769AEC76 		.word	1995217526
 3565 0040 CA458FCA 		.word	-896580150
 3566 0044 829D1F82 		.word	-2111857278
 3567 0048 C94089C9 		.word	-913751863
 3568 004c 7D87FA7D 		.word	2113570685
 3569 0050 FA15EFFA 		.word	-84994566
 3570 0054 59EBB259 		.word	1504897881
 3571 0058 47C98E47 		.word	1200539975
 3572 005c F00BFBF0 		.word	-251982864
 3573 0060 ADEC41AD 		.word	-1388188499
 3574 0064 D467B3D4 		.word	-726439980
 3575 0068 A2FD5FA2 		.word	-1570767454
 3576 006c AFEA45AF 		.word	-1354372433
 3577 0070 9CBF239C 		.word	-1675378788
 3578 0074 A4F753A4 		.word	-1538000988
 3579 0078 7296E472 		.word	1927583346
 3580 007c C05B9BC0 		.word	-1063560256
 3581 0080 B7C275B7 		.word	-1217019209
 3582 0084 FD1CE1FD 		.word	-35578627
 3583 0088 93AE3D93 		.word	-1824674157
 3584 008c 266A4C26 		.word	642542118
 3585 0090 365A6C36 		.word	913070646
 3586 0094 3F417E3F 		.word	1065238847
 3587 0098 F702F5F7 		.word	-134937865
 3588 009c CC4F83CC 		.word	-863809588
 3589 00a0 345C6834 		.word	879254580
 3590 00a4 A5F451A5 		.word	-1521355611
 3591 00a8 E534D1E5 		.word	-439274267
 3592 00ac F108F9F1 		.word	-235337487
 3593 00b0 7193E271 		.word	1910674289
 3594 00b4 D873ABD8 		.word	-659852328
 3595 00b8 31536231 		.word	828527409
 3596 00bc 153F2A15 		.word	355090197
 3597 00c0 040C0804 		.word	67636228
 3598 00c4 C75295C7 		.word	-946515257
 3599 00c8 23654623 		.word	591815971
 3600 00cc C35E9DC3 		.word	-1013096765
 3601 00d0 18283018 		.word	405809176
 3602 00d4 96A13796 		.word	-1774739050
 3603 00d8 050F0A05 		.word	84545285
 3604 00dc 9AB52F9A 		.word	-1708149350
 3605 00e0 07090E07 		.word	118360327
 3606 00e4 12362412 		.word	304363026
 3607 00e8 809B1B80 		.word	-2145674368
 3608 00ec E23DDFE2 		.word	-488686110
 3609 00f0 EB26CDEB 		.word	-338876693
 3610 00f4 27694E27 		.word	659450151
 3611 00f8 B2CD7FB2 		.word	-1300247118
 3612 00fc 759FEA75 		.word	1978310517
 3613 0100 091B1209 		.word	152181513
 3614 0104 839E1D83 		.word	-2095210877
 3615 0108 2C74582C 		.word	743994412
 3616 010c 1A2E341A 		.word	439627290
 3617 0110 1B2D361B 		.word	456535323
 3618 0114 6EB2DC6E 		.word	1859957358
 3619 0118 5AEEB45A 		.word	1521806938
 3620 011c A0FB5BA0 		.word	-1604584544
 3621 0120 52F6A452 		.word	1386542674
 3622 0124 3B4D763B 		.word	997608763
 3623 0128 D661B7D6 		.word	-692624938
 3624 012c B3CE7DB3 		.word	-1283600717
 3625 0130 297B5229 		.word	693271337
 3626 0134 E33EDDE3 		.word	-472039709
 3627 0138 2F715E2F 		.word	794718511
 3628 013c 84971384 		.word	-2079090812
 3629 0140 53F5A653 		.word	1403450707
 3630 0144 D168B9D1 		.word	-776378159
 3631 0148 00000000 		.word	0
 3632 014c ED2CC1ED 		.word	-306107155
 3633 0150 20604020 		.word	541089824
 3634 0154 FC1FE3FC 		.word	-52224004
 3635 0158 B1C879B1 		.word	-1317418831
 3636 015c 5BEDB65B 		.word	1538714971
 3637 0160 6ABED46A 		.word	1792327274
 3638 0164 CB468DCB 		.word	-879933749
 3639 0168 BED967BE 		.word	-1100490306
 3640 016c 394B7239 		.word	963791673
 3641 0170 4ADE944A 		.word	1251270218
 3642 0174 4CD4984C 		.word	1285084236
 3643 0178 58E8B058 		.word	1487988824
 3644 017c CF4A85CF 		.word	-813348145
 3645 0180 D06BBBD0 		.word	-793023536
 3646 0184 EF2AC5EF 		.word	-272291089
 3647 0188 AAE54FAA 		.word	-1437604438
 3648 018c FB16EDFB 		.word	-68348165
 3649 0190 43C58643 		.word	1132905795
 3650 0194 4DD79A4D 		.word	1301993293
 3651 0198 33556633 		.word	862344499
 3652 019c 85941185 		.word	-2062445435
 3653 01a0 45CF8A45 		.word	1166724933
 3654 01a4 F910E9F9 		.word	-102166279
 3655 01a8 02060402 		.word	33818114
 3656 01ac 7F81FE7F 		.word	2147385727
 3657 01b0 50F0A050 		.word	1352724560
 3658 01b4 3C44783C 		.word	1014514748
 3659 01b8 9FBA259F 		.word	-1624917345
 3660 01bc A8E34BA8 		.word	-1471421528
 3661 01c0 51F3A251 		.word	1369633617
 3662 01c4 A3FE5DA3 		.word	-1554121053
 3663 01c8 40C08040 		.word	1082179648
 3664 01cc 8F8A058F 		.word	-1895462257
 3665 01d0 92AD3F92 		.word	-1841320558
 3666 01d4 9DBC219D 		.word	-1658733411
 3667 01d8 38487038 		.word	946882616
 3668 01dc F504F1F5 		.word	-168753931
 3669 01e0 BCDF63BC 		.word	-1134305348
 3670 01e4 B6C177B6 		.word	-1233665610
 3671 01e8 DA75AFDA 		.word	-626035238
 3672 01ec 21634221 		.word	557998881
 3673 01f0 10302010 		.word	270544912
 3674 01f4 FF1AE5FF 		.word	-1762561
 3675 01f8 F30EFDF3 		.word	-201519373
 3676 01fc D26DBFD2 		.word	-759206446
 3677 0200 CD4C81CD 		.word	-847164211
 3678 0204 0C14180C 		.word	202904588
 3679 0208 13352613 		.word	321271059
 3680 020c EC2FC3EC 		.word	-322752532
 3681 0210 5FE1BE5F 		.word	1606345055
 3682 0214 97A23597 		.word	-1758092649
 3683 0218 44CC8844 		.word	1149815876
 3684 021c 17392E17 		.word	388905239
 3685 0220 C45793C4 		.word	-996976700
 3686 0224 A7F255A7 		.word	-1487539545
 3687 0228 7E82FC7E 		.word	2130477694
 3688 022c 3D477A3D 		.word	1031423805
 3689 0230 64ACC864 		.word	1690872932
 3690 0234 5DE7BA5D 		.word	1572530013
 3691 0238 192B3219 		.word	422718233
 3692 023c 7395E673 		.word	1944491379
 3693 0240 60A0C060 		.word	1623236704
 3694 0244 81981981 		.word	-2129028991
 3695 0248 4FD19E4F 		.word	1335808335
 3696 024c DC7FA3DC 		.word	-593264676
 3697 0250 22664422 		.word	574907938
 3698 0254 2A7E542A 		.word	710180394
 3699 0258 90AB3B90 		.word	-1875137648
 3700 025c 88830B88 		.word	-2012511352
 3701 0260 46CA8C46 		.word	1183631942
 3702 0264 EE29C7EE 		.word	-288937490
 3703 0268 B8D36BB8 		.word	-1200893000
 3704 026c 143C2814 		.word	338181140
 3705 0270 DE79A7DE 		.word	-559449634
 3706 0274 5EE2BC5E 		.word	1589437022
 3707 0278 0B1D160B 		.word	185998603
 3708 027c DB76ADDB 		.word	-609388837
 3709 0280 E03BDBE0 		.word	-522503200
 3710 0284 32566432 		.word	845436466
 3711 0288 3A4E743A 		.word	980700730
 3712 028c 0A1E140A 		.word	169090570
 3713 0290 49DB9249 		.word	1234361161
 3714 0294 060A0C06 		.word	101452294
 3715 0298 246C4824 		.word	608726052
 3716 029c 5CE4B85C 		.word	1555620956
 3717 02a0 C25D9FC2 		.word	-1029743166
 3718 02a4 D36EBDD3 		.word	-742560045
 3719 02a8 ACEF43AC 		.word	-1404833876
 3720 02ac 62A6C462 		.word	1657054818
 3721 02b0 91A83991 		.word	-1858492271
 3722 02b4 95A43195 		.word	-1791908715
 3723 02b8 E437D3E4 		.word	-455919644
 3724 02bc 798BF279 		.word	2045938553
 3725 02c0 E732D5E7 		.word	-405458201
 3726 02c4 C8438BC8 		.word	-930397240
 3727 02c8 37596E37 		.word	929978679
 3728 02cc 6DB7DA6D 		.word	1843050349
 3729 02d0 8D8C018D 		.word	-1929278323
 3730 02d4 D564B1D5 		.word	-709794603
 3731 02d8 4ED29C4E 		.word	1318900302
 3732 02dc A9E049A9 		.word	-1454776151
 3733 02e0 6CB4D86C 		.word	1826141292
 3734 02e4 56FAAC56 		.word	1454176854
 3735 02e8 F407F3F4 		.word	-185399308
 3736 02ec EA25CFEA 		.word	-355523094
 3737 02f0 65AFCA65 		.word	1707781989
 3738 02f4 7A8EF47A 		.word	2062847610
 3739 02f8 AEE947AE 		.word	-1371018834
 3740 02fc 08181008 		.word	135272456
 3741 0300 BAD56FBA 		.word	-1167075910
 3742 0304 7888F078 		.word	2029029496
 3743 0308 256F4A25 		.word	625635109
 3744 030c 2E725C2E 		.word	777810478
 3745 0310 1C24381C 		.word	473441308
 3746 0314 A6F157A6 		.word	-1504185946
 3747 0318 B4C773B4 		.word	-1267480652
 3748 031c C65197C6 		.word	-963161658
 3749 0320 E823CBE8 		.word	-389340184
 3750 0324 DD7CA1DD 		.word	-576619299
 3751 0328 749CE874 		.word	1961401460
 3752 032c 1F213E1F 		.word	524165407
 3753 0330 4BDD964B 		.word	1268178251
 3754 0334 BDDC61BD 		.word	-1117659971
 3755 0338 8B860D8B 		.word	-1962047861
 3756 033c 8A850F8A 		.word	-1978694262
 3757 0340 7090E070 		.word	1893765232
 3758 0344 3E427C3E 		.word	1048330814
 3759 0348 B5C471B5 		.word	-1250835275
 3760 034c 66AACC66 		.word	1724688998
 3761 0350 48D89048 		.word	1217452104
 3762 0354 03050603 		.word	50726147
 3763 0358 F601F7F6 		.word	-151584266
 3764 035c 0E121C0E 		.word	236720654
 3765 0360 61A3C261 		.word	1640145761
 3766 0364 355F6A35 		.word	896163637
 3767 0368 57F9AE57 		.word	1471084887
 3768 036c B9D069B9 		.word	-1184247623
 3769 0370 86911786 		.word	-2045275770
 3770 0374 C15899C1 		.word	-1046914879
 3771 0378 1D273A1D 		.word	490350365
 3772 037c 9EB9279E 		.word	-1641563746
 3773 0380 E138D9E1 		.word	-505857823
 3774 0384 F813EBF8 		.word	-118811656
 3775 0388 98B32B98 		.word	-1741966440
 3776 038c 11332211 		.word	287453969
 3777 0390 69BBD269 		.word	1775418217
 3778 0394 D970A9D9 		.word	-643206951
 3779 0398 8E89078E 		.word	-1912108658
 3780 039c 94A73394 		.word	-1808554092
 3781 03a0 9BB62D9B 		.word	-1691502949
 3782 03a4 1E223C1E 		.word	507257374
 3783 03a8 87921587 		.word	-2028629369
 3784 03ac E920C9E9 		.word	-372694807
 3785 03b0 CE4987CE 		.word	-829994546
 3786 03b4 55FFAA55 		.word	1437269845
 3787 03b8 28785028 		.word	676362280
 3788 03bc DF7AA5DF 		.word	-542803233
 3789 03c0 8C8F038C 		.word	-1945923700
 3790 03c4 A1F859A1 		.word	-1587939167
 3791 03c8 89800989 		.word	-1995865975
 3792 03cc 0D171A0D 		.word	219813645
 3793 03d0 BFDA65BF 		.word	-1083843905
 3794 03d4 E631D7E6 		.word	-422104602
 3795 03d8 42C68442 		.word	1115997762
 3796 03dc 68B8D068 		.word	1758509160
 3797 03e0 41C38241 		.word	1099088705
 3798 03e4 99B02999 		.word	-1725321063
 3799 03e8 2D775A2D 		.word	760903469
 3800 03ec 0F111E0F 		.word	253628687
 3801 03f0 B0CB7BB0 		.word	-1334064208
 3802 03f4 54FCA854 		.word	1420360788
 3803 03f8 BBD66DBB 		.word	-1150429509
 3804 03fc 163A2C16 		.word	371997206
 3805              		.section	.rodata.FT3,"a",%progbits
 3806              		.align	2
 3807              		.set	.LANCHOR7,. + 0
 3810              	FT3:
 3811 0000 6363A5C6 		.word	-962239645
 3812 0004 7C7C84F8 		.word	-125535108
 3813 0008 777799EE 		.word	-291932297
 3814 000c 7B7B8DF6 		.word	-158499973
 3815 0010 F2F20DFF 		.word	-15863054
 3816 0014 6B6BBDD6 		.word	-692229269
 3817 0018 6F6FB1DE 		.word	-558796945
 3818 001c C5C55491 		.word	-1856715323
 3819 0020 30305060 		.word	1615867952
 3820 0024 01010302 		.word	33751297
 3821 0028 6767A9CE 		.word	-827758745
 3822 002c 2B2B7D56 		.word	1451043627
 3823 0030 FEFE19E7 		.word	-417726722
 3824 0034 D7D762B5 		.word	-1251813417
 3825 0038 ABABE64D 		.word	1306962859
 3826 003c 76769AEC 		.word	-325421450
 3827 0040 CACA458F 		.word	-1891251510
 3828 0044 82829D1F 		.word	530416258
 3829 0048 C9C94089 		.word	-1992242743
 3830 004c 7D7D87FA 		.word	-91783811
 3831 0050 FAFA15EF 		.word	-283772166
 3832 0054 5959EBB2 		.word	-1293199015
 3833 0058 4747C98E 		.word	-1899411641
 3834 005c F0F00BFB 		.word	-83103504
 3835 0060 ADADEC41 		.word	1106029997
 3836 0064 D4D467B3 		.word	-1285040940
 3837 0068 A2A2FD5F 		.word	1610457762
 3838 006c AFAFEA45 		.word	1173008303
 3839 0070 9C9CBF23 		.word	599760028
 3840 0074 A4A4F753 		.word	1408738468
 3841 0078 727296E4 		.word	-459902350
 3842 007c C0C05B9B 		.word	-1688485696
 3843 0080 B7B7C275 		.word	1975695287
 3844 0084 FDFD1CE1 		.word	-518193667
 3845 0088 9393AE3D 		.word	1034851219
 3846 008c 26266A4C 		.word	1282024998
 3847 0090 36365A6C 		.word	1817851446
 3848 0094 3F3F417E 		.word	2118205247
 3849 0098 F7F702F5 		.word	-184354825
 3850 009c CCCC4F83 		.word	-2091922228
 3851 00a0 34345C68 		.word	1750873140
 3852 00a4 A5A5F451 		.word	1374987685
 3853 00a8 E5E534D1 		.word	-785062427
 3854 00ac F1F108F9 		.word	-116854287
 3855 00b0 717193E2 		.word	-493653647
 3856 00b4 D8D873AB 		.word	-1418471208
 3857 00b8 31315362 		.word	1649619249
 3858 00bc 15153F2A 		.word	708777237
 3859 00c0 04040C08 		.word	135005188
 3860 00c4 C7C75295 		.word	-1789737017
 3861 00c8 23236546 		.word	1181033251
 3862 00cc C3C35E9D 		.word	-1654733885
 3863 00d0 18182830 		.word	807933976
 3864 00d4 9696A137 		.word	933336726
 3865 00d8 05050F0A 		.word	168756485
 3866 00dc 9A9AB52F 		.word	800430746
 3867 00e0 0707090E 		.word	235472647
 3868 00e4 12123624 		.word	607523346
 3869 00e8 80809B1B 		.word	463175808
 3870 00ec E2E23DDF 		.word	-549592350
 3871 00f0 EBEB26CD 		.word	-853087253
 3872 00f4 2727694E 		.word	1315514151
 3873 00f8 B2B2CD7F 		.word	2144187058
 3874 00fc 75759FEA 		.word	-358648459
 3875 0100 09091B12 		.word	303761673
 3876 0104 83839E1D 		.word	496927619
 3877 0108 2C2C7458 		.word	1484008492
 3878 010c 1A1A2E34 		.word	875436570
 3879 0110 1B1B2D36 		.word	908925723
 3880 0114 6E6EB2DC 		.word	-592286098
 3881 0118 5A5AEEB4 		.word	-1259447718
 3882 011c A0A0FB5B 		.word	1543217312
 3883 0120 5252F6A4 		.word	-1527360942
 3884 0124 3B3B4D76 		.word	1984772923
 3885 0128 D6D661B7 		.word	-1218324778
 3886 012c B3B3CE7D 		.word	2110698419
 3887 0130 29297B52 		.word	1383803177
 3888 0134 E3E33EDD 		.word	-583080989
 3889 0138 2F2F715E 		.word	1584475951
 3890 013c 84849713 		.word	328696964
 3891 0140 5353F5A6 		.word	-1493871789
 3892 0144 D1D168B9 		.word	-1184312879
 3893 0148 00000000 		.word	0
 3894 014c EDED2CC1 		.word	-1054020115
 3895 0150 20206040 		.word	1080041504
 3896 0154 FCFC1FE3 		.word	-484442884
 3897 0158 B1B1C879 		.word	2043195825
 3898 015c 5B5BEDB6 		.word	-1225958565
 3899 0160 6A6ABED4 		.word	-725718422
 3900 0164 CBCB468D 		.word	-1924740149
 3901 0168 BEBED967 		.word	1742323390
 3902 016c 39394B72 		.word	1917532473
 3903 0170 4A4ADE94 		.word	-1797371318
 3904 0174 4C4CD498 		.word	-1730917300
 3905 0178 5858E8B0 		.word	-1326950312
 3906 017c CFCF4A85 		.word	-2058694705
 3907 0180 D0D06BBB 		.word	-1150562096
 3908 0184 EFEF2AC5 		.word	-987041809
 3909 0188 AAAAE54F 		.word	1340451498
 3910 018c FBFB16ED 		.word	-317260805
 3911 0190 4343C586 		.word	-2033892541
 3912 0194 4D4DD79A 		.word	-1697166003
 3913 0198 33335566 		.word	1716859699
 3914 019c 85859411 		.word	294946181
 3915 01a0 4545CF8A 		.word	-1966127803
 3916 01a4 F9F910E9 		.word	-384763399
 3917 01a8 02020604 		.word	67502594
 3918 01ac 7F7F81FE 		.word	-25067649
 3919 01b0 5050F0A0 		.word	-1594863536
 3920 01b4 3C3C4478 		.word	2017737788
 3921 01b8 9F9FBA25 		.word	632987551
 3922 01bc A8A8E34B 		.word	1273211048
 3923 01c0 5151F3A2 		.word	-1561112239
 3924 01c4 A3A3FE5D 		.word	1576969123
 3925 01c8 4040C080 		.word	-2134884288
 3926 01cc 8F8F8A05 		.word	92966799
 3927 01d0 9292AD3F 		.word	1068339858
 3928 01d4 9D9DBC21 		.word	566009245
 3929 01d8 38384870 		.word	1883781176
 3930 01dc F5F504F1 		.word	-251333131
 3931 01e0 BCBCDF63 		.word	1675607228
 3932 01e4 B6B6C177 		.word	2009183926
 3933 01e8 DADA75AF 		.word	-1351230758
 3934 01ec 21216342 		.word	1113792801
 3935 01f0 10103020 		.word	540020752
 3936 01f4 FFFF1AE5 		.word	-451215361
 3937 01f8 F3F30EFD 		.word	-49351693
 3938 01fc D2D26DBF 		.word	-1083321646
 3939 0200 CDCD4C81 		.word	-2125673011
 3940 0204 0C0C1418 		.word	403966988
 3941 0208 13133526 		.word	641012499
 3942 020c ECEC2FC3 		.word	-1020269332
 3943 0210 5F5FE1BE 		.word	-1092526241
 3944 0214 9797A235 		.word	899848087
 3945 0218 4444CC88 		.word	-1999879100
 3946 021c 1717392E 		.word	775493399
 3947 0220 C4C45793 		.word	-1822964540
 3948 0224 A7A7F255 		.word	1441965991
 3949 0228 7E7E82FC 		.word	-58556802
 3950 022c 3D3D477A 		.word	2051489085
 3951 0230 6464ACC8 		.word	-928226204
 3952 0234 5D5DE7BA 		.word	-1159242403
 3953 0238 19192B32 		.word	841685273
 3954 023c 737395E6 		.word	-426413197
 3955 0240 6060A0C0 		.word	-1063231392
 3956 0244 81819819 		.word	429425025
 3957 0248 4F4FD19E 		.word	-1630449841
 3958 024c DCDC7FA3 		.word	-1551901476
 3959 0250 22226644 		.word	1147544098
 3960 0254 2A2A7E54 		.word	1417554474
 3961 0258 9090AB3B 		.word	1001099408
 3962 025c 8888830B 		.word	193169544
 3963 0260 4646CA8C 		.word	-1932900794
 3964 0264 EEEE29C7 		.word	-953553170
 3965 0268 B8B8D36B 		.word	1809037496
 3966 026c 14143C28 		.word	675025940
 3967 0270 DEDE79A7 		.word	-1485185314
 3968 0274 5E5EE2BC 		.word	-1126015394
 3969 0278 0B0B1D16 		.word	371002123
 3970 027c DBDB76AD 		.word	-1384719397
 3971 0280 E0E03BDB 		.word	-616832800
 3972 0284 32325664 		.word	1683370546
 3973 0288 3A3A4E74 		.word	1951283770
 3974 028c 0A0A1E14 		.word	337512970
 3975 0290 4949DB92 		.word	-1831122615
 3976 0294 06060A0C 		.word	201983494
 3977 0298 24246C48 		.word	1215046692
 3978 029c 5C5CE4B8 		.word	-1192993700
 3979 02a0 C2C25D9F 		.word	-1621245246
 3980 02a4 D3D36EBD 		.word	-1116810285
 3981 02a8 ACACEF43 		.word	1139780780
 3982 02ac 6262A6C4 		.word	-995728798
 3983 02b0 9191A839 		.word	967348625
 3984 02b4 9595A431 		.word	832869781
 3985 02b8 E4E437D3 		.word	-751311644
 3986 02bc 79798BF2 		.word	-225740423
 3987 02c0 E7E732D5 		.word	-718084121
 3988 02c4 C8C8438B 		.word	-1958491960
 3989 02c8 3737596E 		.word	1851340599
 3990 02cc 6D6DB7DA 		.word	-625513107
 3991 02d0 8D8D8C01 		.word	25988493
 3992 02d4 D5D564B1 		.word	-1318791723
 3993 02d8 4E4ED29C 		.word	-1663938994
 3994 02dc A9A9E049 		.word	1239460265
 3995 02e0 6C6CB4D8 		.word	-659264404
 3996 02e4 5656FAAC 		.word	-1392880042
 3997 02e8 F4F407F3 		.word	-217582348
 3998 02ec EAEA25CF 		.word	-819598614
 3999 02f0 6565AFCA 		.word	-894474907
 4000 02f4 7A7A8EF4 		.word	-191989126
 4001 02f8 AEAEE947 		.word	1206496942
 4002 02fc 08081810 		.word	270010376
 4003 0300 BABAD56F 		.word	1876277946
 4004 0304 787888F0 		.word	-259491720
 4005 0308 25256F4A 		.word	1248797989
 4006 030c 2E2E725C 		.word	1550986798
 4007 0310 1C1C2438 		.word	941890588
 4008 0314 A6A6F157 		.word	1475454630
 4009 0318 B4B4C773 		.word	1942467764
 4010 031c C6C65197 		.word	-1756248378
 4011 0320 E8E823CB 		.word	-886839064
 4012 0324 DDDD7CA1 		.word	-1585652259
 4013 0328 74749CE8 		.word	-392399756
 4014 032c 1F1F213E 		.word	1042358047
 4015 0330 4B4BDD96 		.word	-1763882165
 4016 0334 BDBDDC61 		.word	1641856445
 4017 0338 8B8B860D 		.word	226921355
 4018 033c 8A8A850F 		.word	260409994
 4019 0340 707090E0 		.word	-527404944
 4020 0344 3E3E427C 		.word	2084716094
 4021 0348 B5B5C471 		.word	1908716981
 4022 034c 6666AACC 		.word	-861247898
 4023 0350 4848D890 		.word	-1864873912
 4024 0354 03030506 		.word	100991747
 4025 0358 F6F601F7 		.word	-150866186
 4026 035c 0E0E121C 		.word	470945294
 4027 0360 6161A3C2 		.word	-1029480095
 4028 0364 35355F6A 		.word	1784624437
 4029 0368 5757F9AE 		.word	-1359390889
 4030 036c B9B9D069 		.word	1775286713
 4031 0370 86869117 		.word	395413126
 4032 0374 C1C15899 		.word	-1722236479
 4033 0378 1D1D273A 		.word	975641885
 4034 037c 9E9EB927 		.word	666476190
 4035 0380 E1E138D9 		.word	-650583583
 4036 0384 F8F813EB 		.word	-351012616
 4037 0388 9898B32B 		.word	733190296
 4038 038c 11113322 		.word	573772049
 4039 0390 6969BBD2 		.word	-759469719
 4040 0394 D9D970A9 		.word	-1452221991
 4041 0398 8E8E8907 		.word	126455438
 4042 039c 9494A733 		.word	866620564
 4043 03a0 9B9BB62D 		.word	766942107
 4044 03a4 1E1E223C 		.word	1008868894
 4045 03a8 87879215 		.word	361924487
 4046 03ac E9E920C9 		.word	-920589847
 4047 03b0 CECE4987 		.word	-2025206066
 4048 03b4 5555FFAA 		.word	-1426107051
 4049 03b8 28287850 		.word	1350051880
 4050 03bc DFDF7AA5 		.word	-1518673953
 4051 03c0 8C8C8F03 		.word	59739276
 4052 03c4 A1A1F859 		.word	1509466529
 4053 03c8 89898009 		.word	159418761
 4054 03cc 0D0D171A 		.word	437718285
 4055 03d0 BFBFDA65 		.word	1708834751
 4056 03d4 E6E631D7 		.word	-684595482
 4057 03d8 4242C684 		.word	-2067381694
 4058 03dc 6868B8D0 		.word	-793221016
 4059 03e0 4141C382 		.word	-2101132991
 4060 03e4 9999B029 		.word	699439513
 4061 03e8 2D2D775A 		.word	1517759789
 4062 03ec 0F0F111E 		.word	504434447
 4063 03f0 B0B0CB7B 		.word	2076946608
 4064 03f4 5454FCA8 		.word	-1459858348
 4065 03f8 BBBBD66D 		.word	1842789307
 4066 03fc 16163A2C 		.word	742004246
 4067              		.section	.rodata.RCON,"a",%progbits
 4068              		.align	2
 4069              		.set	.LANCHOR0,. + 0
 4072              	RCON:
 4073 0000 01000000 		.word	1
 4074 0004 02000000 		.word	2
 4075 0008 04000000 		.word	4
 4076 000c 08000000 		.word	8
 4077 0010 10000000 		.word	16
 4078 0014 20000000 		.word	32
 4079 0018 40000000 		.word	64
 4080 001c 80000000 		.word	128
 4081 0020 1B000000 		.word	27
 4082 0024 36000000 		.word	54
 4083              		.section	.rodata.RSb,"a",%progbits
 4084              		.set	.LANCHOR10,. + 0
 4087              	RSb:
 4088 0000 52       		.byte	82
 4089 0001 09       		.byte	9
 4090 0002 6A       		.byte	106
 4091 0003 D5       		.byte	-43
 4092 0004 30       		.byte	48
 4093 0005 36       		.byte	54
 4094 0006 A5       		.byte	-91
 4095 0007 38       		.byte	56
 4096 0008 BF       		.byte	-65
 4097 0009 40       		.byte	64
 4098 000a A3       		.byte	-93
 4099 000b 9E       		.byte	-98
 4100 000c 81       		.byte	-127
 4101 000d F3       		.byte	-13
 4102 000e D7       		.byte	-41
 4103 000f FB       		.byte	-5
 4104 0010 7C       		.byte	124
 4105 0011 E3       		.byte	-29
 4106 0012 39       		.byte	57
 4107 0013 82       		.byte	-126
 4108 0014 9B       		.byte	-101
 4109 0015 2F       		.byte	47
 4110 0016 FF       		.byte	-1
 4111 0017 87       		.byte	-121
 4112 0018 34       		.byte	52
 4113 0019 8E       		.byte	-114
 4114 001a 43       		.byte	67
 4115 001b 44       		.byte	68
 4116 001c C4       		.byte	-60
 4117 001d DE       		.byte	-34
 4118 001e E9       		.byte	-23
 4119 001f CB       		.byte	-53
 4120 0020 54       		.byte	84
 4121 0021 7B       		.byte	123
 4122 0022 94       		.byte	-108
 4123 0023 32       		.byte	50
 4124 0024 A6       		.byte	-90
 4125 0025 C2       		.byte	-62
 4126 0026 23       		.byte	35
 4127 0027 3D       		.byte	61
 4128 0028 EE       		.byte	-18
 4129 0029 4C       		.byte	76
 4130 002a 95       		.byte	-107
 4131 002b 0B       		.byte	11
 4132 002c 42       		.byte	66
 4133 002d FA       		.byte	-6
 4134 002e C3       		.byte	-61
 4135 002f 4E       		.byte	78
 4136 0030 08       		.byte	8
 4137 0031 2E       		.byte	46
 4138 0032 A1       		.byte	-95
 4139 0033 66       		.byte	102
 4140 0034 28       		.byte	40
 4141 0035 D9       		.byte	-39
 4142 0036 24       		.byte	36
 4143 0037 B2       		.byte	-78
 4144 0038 76       		.byte	118
 4145 0039 5B       		.byte	91
 4146 003a A2       		.byte	-94
 4147 003b 49       		.byte	73
 4148 003c 6D       		.byte	109
 4149 003d 8B       		.byte	-117
 4150 003e D1       		.byte	-47
 4151 003f 25       		.byte	37
 4152 0040 72       		.byte	114
 4153 0041 F8       		.byte	-8
 4154 0042 F6       		.byte	-10
 4155 0043 64       		.byte	100
 4156 0044 86       		.byte	-122
 4157 0045 68       		.byte	104
 4158 0046 98       		.byte	-104
 4159 0047 16       		.byte	22
 4160 0048 D4       		.byte	-44
 4161 0049 A4       		.byte	-92
 4162 004a 5C       		.byte	92
 4163 004b CC       		.byte	-52
 4164 004c 5D       		.byte	93
 4165 004d 65       		.byte	101
 4166 004e B6       		.byte	-74
 4167 004f 92       		.byte	-110
 4168 0050 6C       		.byte	108
 4169 0051 70       		.byte	112
 4170 0052 48       		.byte	72
 4171 0053 50       		.byte	80
 4172 0054 FD       		.byte	-3
 4173 0055 ED       		.byte	-19
 4174 0056 B9       		.byte	-71
 4175 0057 DA       		.byte	-38
 4176 0058 5E       		.byte	94
 4177 0059 15       		.byte	21
 4178 005a 46       		.byte	70
 4179 005b 57       		.byte	87
 4180 005c A7       		.byte	-89
 4181 005d 8D       		.byte	-115
 4182 005e 9D       		.byte	-99
 4183 005f 84       		.byte	-124
 4184 0060 90       		.byte	-112
 4185 0061 D8       		.byte	-40
 4186 0062 AB       		.byte	-85
 4187 0063 00       		.byte	0
 4188 0064 8C       		.byte	-116
 4189 0065 BC       		.byte	-68
 4190 0066 D3       		.byte	-45
 4191 0067 0A       		.byte	10
 4192 0068 F7       		.byte	-9
 4193 0069 E4       		.byte	-28
 4194 006a 58       		.byte	88
 4195 006b 05       		.byte	5
 4196 006c B8       		.byte	-72
 4197 006d B3       		.byte	-77
 4198 006e 45       		.byte	69
 4199 006f 06       		.byte	6
 4200 0070 D0       		.byte	-48
 4201 0071 2C       		.byte	44
 4202 0072 1E       		.byte	30
 4203 0073 8F       		.byte	-113
 4204 0074 CA       		.byte	-54
 4205 0075 3F       		.byte	63
 4206 0076 0F       		.byte	15
 4207 0077 02       		.byte	2
 4208 0078 C1       		.byte	-63
 4209 0079 AF       		.byte	-81
 4210 007a BD       		.byte	-67
 4211 007b 03       		.byte	3
 4212 007c 01       		.byte	1
 4213 007d 13       		.byte	19
 4214 007e 8A       		.byte	-118
 4215 007f 6B       		.byte	107
 4216 0080 3A       		.byte	58
 4217 0081 91       		.byte	-111
 4218 0082 11       		.byte	17
 4219 0083 41       		.byte	65
 4220 0084 4F       		.byte	79
 4221 0085 67       		.byte	103
 4222 0086 DC       		.byte	-36
 4223 0087 EA       		.byte	-22
 4224 0088 97       		.byte	-105
 4225 0089 F2       		.byte	-14
 4226 008a CF       		.byte	-49
 4227 008b CE       		.byte	-50
 4228 008c F0       		.byte	-16
 4229 008d B4       		.byte	-76
 4230 008e E6       		.byte	-26
 4231 008f 73       		.byte	115
 4232 0090 96       		.byte	-106
 4233 0091 AC       		.byte	-84
 4234 0092 74       		.byte	116
 4235 0093 22       		.byte	34
 4236 0094 E7       		.byte	-25
 4237 0095 AD       		.byte	-83
 4238 0096 35       		.byte	53
 4239 0097 85       		.byte	-123
 4240 0098 E2       		.byte	-30
 4241 0099 F9       		.byte	-7
 4242 009a 37       		.byte	55
 4243 009b E8       		.byte	-24
 4244 009c 1C       		.byte	28
 4245 009d 75       		.byte	117
 4246 009e DF       		.byte	-33
 4247 009f 6E       		.byte	110
 4248 00a0 47       		.byte	71
 4249 00a1 F1       		.byte	-15
 4250 00a2 1A       		.byte	26
 4251 00a3 71       		.byte	113
 4252 00a4 1D       		.byte	29
 4253 00a5 29       		.byte	41
 4254 00a6 C5       		.byte	-59
 4255 00a7 89       		.byte	-119
 4256 00a8 6F       		.byte	111
 4257 00a9 B7       		.byte	-73
 4258 00aa 62       		.byte	98
 4259 00ab 0E       		.byte	14
 4260 00ac AA       		.byte	-86
 4261 00ad 18       		.byte	24
 4262 00ae BE       		.byte	-66
 4263 00af 1B       		.byte	27
 4264 00b0 FC       		.byte	-4
 4265 00b1 56       		.byte	86
 4266 00b2 3E       		.byte	62
 4267 00b3 4B       		.byte	75
 4268 00b4 C6       		.byte	-58
 4269 00b5 D2       		.byte	-46
 4270 00b6 79       		.byte	121
 4271 00b7 20       		.byte	32
 4272 00b8 9A       		.byte	-102
 4273 00b9 DB       		.byte	-37
 4274 00ba C0       		.byte	-64
 4275 00bb FE       		.byte	-2
 4276 00bc 78       		.byte	120
 4277 00bd CD       		.byte	-51
 4278 00be 5A       		.byte	90
 4279 00bf F4       		.byte	-12
 4280 00c0 1F       		.byte	31
 4281 00c1 DD       		.byte	-35
 4282 00c2 A8       		.byte	-88
 4283 00c3 33       		.byte	51
 4284 00c4 88       		.byte	-120
 4285 00c5 07       		.byte	7
 4286 00c6 C7       		.byte	-57
 4287 00c7 31       		.byte	49
 4288 00c8 B1       		.byte	-79
 4289 00c9 12       		.byte	18
 4290 00ca 10       		.byte	16
 4291 00cb 59       		.byte	89
 4292 00cc 27       		.byte	39
 4293 00cd 80       		.byte	-128
 4294 00ce EC       		.byte	-20
 4295 00cf 5F       		.byte	95
 4296 00d0 60       		.byte	96
 4297 00d1 51       		.byte	81
 4298 00d2 7F       		.byte	127
 4299 00d3 A9       		.byte	-87
 4300 00d4 19       		.byte	25
 4301 00d5 B5       		.byte	-75
 4302 00d6 4A       		.byte	74
 4303 00d7 0D       		.byte	13
 4304 00d8 2D       		.byte	45
 4305 00d9 E5       		.byte	-27
 4306 00da 7A       		.byte	122
 4307 00db 9F       		.byte	-97
 4308 00dc 93       		.byte	-109
 4309 00dd C9       		.byte	-55
 4310 00de 9C       		.byte	-100
 4311 00df EF       		.byte	-17
 4312 00e0 A0       		.byte	-96
 4313 00e1 E0       		.byte	-32
 4314 00e2 3B       		.byte	59
 4315 00e3 4D       		.byte	77
 4316 00e4 AE       		.byte	-82
 4317 00e5 2A       		.byte	42
 4318 00e6 F5       		.byte	-11
 4319 00e7 B0       		.byte	-80
 4320 00e8 C8       		.byte	-56
 4321 00e9 EB       		.byte	-21
 4322 00ea BB       		.byte	-69
 4323 00eb 3C       		.byte	60
 4324 00ec 83       		.byte	-125
 4325 00ed 53       		.byte	83
 4326 00ee 99       		.byte	-103
 4327 00ef 61       		.byte	97
 4328 00f0 17       		.byte	23
 4329 00f1 2B       		.byte	43
 4330 00f2 04       		.byte	4
 4331 00f3 7E       		.byte	126
 4332 00f4 BA       		.byte	-70
 4333 00f5 77       		.byte	119
 4334 00f6 D6       		.byte	-42
 4335 00f7 26       		.byte	38
 4336 00f8 E1       		.byte	-31
 4337 00f9 69       		.byte	105
 4338 00fa 14       		.byte	20
 4339 00fb 63       		.byte	99
 4340 00fc 55       		.byte	85
 4341 00fd 21       		.byte	33
 4342 00fe 0C       		.byte	12
 4343 00ff 7D       		.byte	125
 4344              		.section	.rodata.RT0,"a",%progbits
 4345              		.align	2
 4346              		.set	.LANCHOR2,. + 0
 4349              	RT0:
 4350 0000 51F4A750 		.word	1353184337
 4351 0004 7E416553 		.word	1399144830
 4352 0008 1A17A4C3 		.word	-1012656358
 4353 000c 3A275E96 		.word	-1772214470
 4354 0010 3BAB6BCB 		.word	-882136261
 4355 0014 1F9D45F1 		.word	-247096033
 4356 0018 ACFA58AB 		.word	-1420232020
 4357 001c 4BE30393 		.word	-1828461749
 4358 0020 2030FA55 		.word	1442459680
 4359 0024 AD766DF6 		.word	-160598355
 4360 0028 88CC7691 		.word	-1854485368
 4361 002c F5024C25 		.word	625738485
 4362 0030 4FE5D7FC 		.word	-52959921
 4363 0034 C52ACBD7 		.word	-674551099
 4364 0038 26354480 		.word	-2143013594
 4365 003c B562A38F 		.word	-1885117771
 4366 0040 DEB15A49 		.word	1230680542
 4367 0044 25BA1B67 		.word	1729870373
 4368 0048 45EA0E98 		.word	-1743852987
 4369 004c 5DFEC0E1 		.word	-507445667
 4370 0050 C32F7502 		.word	41234371
 4371 0054 814CF012 		.word	317738113
 4372 0058 8D4697A3 		.word	-1550367091
 4373 005c 6BD3F9C6 		.word	-956705941
 4374 0060 038F5FE7 		.word	-413167869
 4375 0064 15929C95 		.word	-1784901099
 4376 0068 BF6D7AEB 		.word	-344298049
 4377 006c 955259DA 		.word	-631680363
 4378 0070 D4BE832D 		.word	763608788
 4379 0074 587421D3 		.word	-752782248
 4380 0078 49E06929 		.word	694804553
 4381 007c 8EC9C844 		.word	1154009486
 4382 0080 75C2896A 		.word	1787413109
 4383 0084 F48E7978 		.word	2021232372
 4384 0088 99583E6B 		.word	1799248025
 4385 008c 27B971DD 		.word	-579749593
 4386 0090 BEE14FB6 		.word	-1236278850
 4387 0094 F088AD17 		.word	397248752
 4388 0098 C920AC66 		.word	1722556617
 4389 009c 7DCE3AB4 		.word	-1271214467
 4390 00a0 63DF4A18 		.word	407560035
 4391 00a4 E51A3182 		.word	-2110711067
 4392 00a8 97513360 		.word	1613975959
 4393 00ac 62537F45 		.word	1165972322
 4394 00b0 B16477E0 		.word	-529046351
 4395 00b4 BB6BAE84 		.word	-2068943941
 4396 00b8 FE81A01C 		.word	480281086
 4397 00bc F9082B94 		.word	-1809118983
 4398 00c0 70486858 		.word	1483229296
 4399 00c4 8F45FD19 		.word	436028815
 4400 00c8 94DE6C87 		.word	-2022908268
 4401 00cc 527BF8B7 		.word	-1208452270
 4402 00d0 AB73D323 		.word	601060267
 4403 00d4 724B02E2 		.word	-503166094
 4404 00d8 E31F8F57 		.word	1468997603
 4405 00dc 6655AB2A 		.word	715871590
 4406 00e0 B2EB2807 		.word	120122290
 4407 00e4 2FB5C203 		.word	63092015
 4408 00e8 86C57B9A 		.word	-1703164538
 4409 00ec D33708A5 		.word	-1526188077
 4410 00f0 302887F2 		.word	-226023376
 4411 00f4 23BFA5B2 		.word	-1297760477
 4412 00f8 02036ABA 		.word	-1167457534
 4413 00fc ED16825C 		.word	1552029421
 4414 0100 8ACF1C2B 		.word	723308426
 4415 0104 A779B492 		.word	-1833666137
 4416 0108 F307F2F0 		.word	-252573709
 4417 010c 4E69E2A1 		.word	-1578997426
 4418 0110 65DAF4CD 		.word	-839591323
 4419 0114 0605BED5 		.word	-708967162
 4420 0118 D134621F 		.word	526529745
 4421 011c C4A6FE8A 		.word	-1963022652
 4422 0120 342E539D 		.word	-1655493068
 4423 0124 A2F355A0 		.word	-1604979806
 4424 0128 058AE132 		.word	853641733
 4425 012c A4F6EB75 		.word	1978398372
 4426 0130 0B83EC39 		.word	971801355
 4427 0134 4060EFAA 		.word	-1427152832
 4428 0138 5E719F06 		.word	111112542
 4429 013c BD6E1051 		.word	1360031421
 4430 0140 3E218AF9 		.word	-108388034
 4431 0144 96DD063D 		.word	1023860118
 4432 0148 DD3E05AE 		.word	-1375387939
 4433 014c 4DE6BD46 		.word	1186850381
 4434 0150 91548DB5 		.word	-1249028975
 4435 0154 71C45D05 		.word	90031217
 4436 0158 0406D46F 		.word	1876166148
 4437 015c 605015FF 		.word	-15380384
 4438 0160 1998FB24 		.word	620468249
 4439 0164 D6BDE997 		.word	-1746289194
 4440 0168 894043CC 		.word	-868007799
 4441 016c 67D99E77 		.word	2006899047
 4442 0170 B0E842BD 		.word	-1119688528
 4443 0174 07898B88 		.word	-2004121337
 4444 0178 E7195B38 		.word	945494503
 4445 017c 79C8EEDB 		.word	-605108103
 4446 0180 A17C0A47 		.word	1191869601
 4447 0184 7C420FE9 		.word	-384875908
 4448 0188 F8841EC9 		.word	-920746760
 4449 018c 00000000 		.word	0
 4450 0190 09808683 		.word	-2088337399
 4451 0194 322BED48 		.word	1223502642
 4452 0198 1E1170AC 		.word	-1401941730
 4453 019c 6C5A724E 		.word	1316117100
 4454 01a0 FD0EFFFB 		.word	-67170563
 4455 01a4 0F853856 		.word	1446544655
 4456 01a8 3DAED51E 		.word	517320253
 4457 01ac 362D3927 		.word	658058550
 4458 01b0 0A0FD964 		.word	1691946762
 4459 01b4 685CA621 		.word	564550760
 4460 01b8 9B5B54D1 		.word	-783000677
 4461 01bc 24362E3A 		.word	976107044
 4462 01c0 0C0A67B1 		.word	-1318647284
 4463 01c4 9357E70F 		.word	266819475
 4464 01c8 B4EE96D2 		.word	-761860428
 4465 01cc 1B9B919E 		.word	-1634624741
 4466 01d0 80C0C54F 		.word	1338359936
 4467 01d4 61DC20A2 		.word	-1574904735
 4468 01d8 5A774B69 		.word	1766553434
 4469 01dc 1C121A16 		.word	370807324
 4470 01e0 E293BA0A 		.word	179999714
 4471 01e4 C0A02AE5 		.word	-450191168
 4472 01e8 3C22E043 		.word	1138762300
 4473 01ec 121B171D 		.word	488053522
 4474 01f0 0E090D0B 		.word	185403662
 4475 01f4 F28BC7AD 		.word	-1379431438
 4476 01f8 2DB6A8B9 		.word	-1180125651
 4477 01fc 141EA9C8 		.word	-928440812
 4478 0200 57F11985 		.word	-2061897385
 4479 0204 AF75074C 		.word	1275557295
 4480 0208 EE99DDBB 		.word	-1143105042
 4481 020c A37F60FD 		.word	-44007517
 4482 0210 F701269F 		.word	-1624899081
 4483 0214 5C72F5BC 		.word	-1124765092
 4484 0218 44663BC5 		.word	-985962940
 4485 021c 5BFB7E34 		.word	880737115
 4486 0220 8B432976 		.word	1982415755
 4487 0224 CB23C6DC 		.word	-590994485
 4488 0228 B6EDFC68 		.word	1761406390
 4489 022c B8E4F163 		.word	1676797112
 4490 0230 D731DCCA 		.word	-891538985
 4491 0234 42638510 		.word	277177154
 4492 0238 13972240 		.word	1076008723
 4493 023c 84C61120 		.word	538035844
 4494 0240 854A247D 		.word	2099530373
 4495 0244 D2BB3DF8 		.word	-130171950
 4496 0248 AEF93211 		.word	288553390
 4497 024c C729A16D 		.word	1839278535
 4498 0250 1D9E2F4B 		.word	1261411869
 4499 0254 DCB230F3 		.word	-214912292
 4500 0258 0D8652EC 		.word	-330136051
 4501 025c 77C1E3D0 		.word	-790380169
 4502 0260 2BB3166C 		.word	1813426987
 4503 0264 A970B999 		.word	-1715900247
 4504 0268 119448FA 		.word	-95906799
 4505 026c 47E96422 		.word	577038663
 4506 0270 A8FC8CC4 		.word	-997393240
 4507 0274 A0F03F1A 		.word	440397984
 4508 0278 567D2CD8 		.word	-668172970
 4509 027c 223390EF 		.word	-275762398
 4510 0280 87494EC7 		.word	-951170681
 4511 0284 D938D1C1 		.word	-1043253031
 4512 0288 8CCAA2FE 		.word	-22885748
 4513 028c 98D40B36 		.word	906744984
 4514 0290 A6F581CF 		.word	-813566554
 4515 0294 A57ADE28 		.word	685669029
 4516 0298 DAB78E26 		.word	646887386
 4517 029c 3FADBFA4 		.word	-1530942145
 4518 02a0 2C3A9DE4 		.word	-459458004
 4519 02a4 5078920D 		.word	227702864
 4520 02a8 6A5FCC9B 		.word	-1681105046
 4521 02ac 547E4662 		.word	1648787028
 4522 02b0 F68D13C2 		.word	-1038905866
 4523 02b4 90D8B8E8 		.word	-390539120
 4524 02b8 2E39F75E 		.word	1593260334
 4525 02bc 82C3AFF5 		.word	-173030526
 4526 02c0 9F5D80BE 		.word	-1098883681
 4527 02c4 69D0937C 		.word	2090061929
 4528 02c8 6FD52DA9 		.word	-1456614033
 4529 02cc CF2512B3 		.word	-1290656305
 4530 02d0 C8AC993B 		.word	999926984
 4531 02d4 10187DA7 		.word	-1484974064
 4532 02d8 E89C636E 		.word	1852021992
 4533 02dc DB3BBB7B 		.word	2075868123
 4534 02e0 CD267809 		.word	158869197
 4535 02e4 6E5918F4 		.word	-199730834
 4536 02e8 EC9AB701 		.word	28809964
 4537 02ec 834F9AA8 		.word	-1466282109
 4538 02f0 E6956E65 		.word	1701746150
 4539 02f4 AAFFE67E 		.word	2129067946
 4540 02f8 21BCCF08 		.word	147831841
 4541 02fc EF15E8E6 		.word	-420997649
 4542 0300 BAE79BD9 		.word	-644094022
 4543 0304 4A6F36CE 		.word	-835293366
 4544 0308 EA9F09D4 		.word	-737566742
 4545 030c 29B07CD6 		.word	-696471511
 4546 0310 31A4B2AF 		.word	-1347247055
 4547 0314 2A3F2331 		.word	824393514
 4548 0318 C6A59430 		.word	815048134
 4549 031c 35A266C0 		.word	-1067015627
 4550 0320 744EBC37 		.word	935087732
 4551 0324 FC82CAA6 		.word	-1496677636
 4552 0328 E090D0B0 		.word	-1328508704
 4553 032c 33A7D815 		.word	366520115
 4554 0330 F104984A 		.word	1251476721
 4555 0334 41ECDAF7 		.word	-136647615
 4556 0338 7FCD500E 		.word	240176511
 4557 033c 1791F62F 		.word	804688151
 4558 0340 764DD68D 		.word	-1915335306
 4559 0344 43EFB04D 		.word	1303441219
 4560 0348 CCAA4D54 		.word	1414376140
 4561 034c E49604DF 		.word	-553347356
 4562 0350 9ED1B5E3 		.word	-474623586
 4563 0354 4C6A881B 		.word	461924940
 4564 0358 C12C1FB8 		.word	-1205916479
 4565 035c 4665517F 		.word	2136040774
 4566 0360 9D5EEA04 		.word	82468509
 4567 0364 018C355D 		.word	1563790337
 4568 0368 FA877473 		.word	1937016826
 4569 036c FB0B412E 		.word	776014843
 4570 0370 B3671D5A 		.word	1511876531
 4571 0374 92DBD252 		.word	1389550482
 4572 0378 E9105633 		.word	861278441
 4573 037c 6DD64713 		.word	323475053
 4574 0380 9AD7618C 		.word	-1939744870
 4575 0384 37A10C7A 		.word	2047648055
 4576 0388 59F8148E 		.word	-1911228327
 4577 038c EB133C89 		.word	-1992551445
 4578 0390 CEA927EE 		.word	-299390514
 4579 0394 B761C935 		.word	902390199
 4580 0398 E11CE5ED 		.word	-303751967
 4581 039c 7A47B13C 		.word	1018251130
 4582 03a0 9CD2DF59 		.word	1507840668
 4583 03a4 55F2733F 		.word	1064563285
 4584 03a8 1814CE79 		.word	2043548696
 4585 03ac 73C737BF 		.word	-1086863501
 4586 03b0 53F7CDEA 		.word	-355600557
 4587 03b4 5FFDAA5B 		.word	1537932639
 4588 03b8 DF3D6F14 		.word	342834655
 4589 03bc 7844DB86 		.word	-2032450440
 4590 03c0 CAAFF381 		.word	-2114736182
 4591 03c4 B968C43E 		.word	1053059257
 4592 03c8 3824342C 		.word	741614648
 4593 03cc C2A3405F 		.word	1598071746
 4594 03d0 161DC372 		.word	1925389590
 4595 03d4 BCE2250C 		.word	203809468
 4596 03d8 283C498B 		.word	-1958134744
 4597 03dc FF0D9541 		.word	1100287487
 4598 03e0 39A80171 		.word	1895934009
 4599 03e4 080CB3DE 		.word	-558691320
 4600 03e8 D8B4E49C 		.word	-1662733096
 4601 03ec 6456C190 		.word	-1866377628
 4602 03f0 7BCB8461 		.word	1636092795
 4603 03f4 D532B670 		.word	1890988757
 4604 03f8 486C5C74 		.word	1952214088
 4605 03fc D0B85742 		.word	1113045200
 4606              		.section	.rodata.RT1,"a",%progbits
 4607              		.align	2
 4608              		.set	.LANCHOR4,. + 0
 4611              	RT1:
 4612 0000 5051F4A7 		.word	-1477160624
 4613 0004 537E4165 		.word	1698790995
 4614 0008 C31A17A4 		.word	-1541989693
 4615 000c 963A275E 		.word	1579629206
 4616 0010 CB3BAB6B 		.word	1806384075
 4617 0014 F11F9D45 		.word	1167925233
 4618 0018 ABACFA58 		.word	1492823211
 4619 001c 934BE303 		.word	65227667
 4620 0020 552030FA 		.word	-97509291
 4621 0024 F6AD766D 		.word	1836494326
 4622 0028 9188CC76 		.word	1993115793
 4623 002c 25F5024C 		.word	1275262245
 4624 0030 FC4FE5D7 		.word	-672837636
 4625 0034 D7C52ACB 		.word	-886389289
 4626 0038 80263544 		.word	1144333952
 4627 003c 8FB562A3 		.word	-1553812081
 4628 0040 49DEB15A 		.word	1521606217
 4629 0044 6725BA1B 		.word	465184103
 4630 0048 9845EA0E 		.word	250234264
 4631 004c E15DFEC0 		.word	-1057071647
 4632 0050 02C32F75 		.word	1966064386
 4633 0054 12814CF0 		.word	-263421678
 4634 0058 A38D4697 		.word	-1756983901
 4635 005c C66BD3F9 		.word	-103584826
 4636 0060 E7038F5F 		.word	1603208167
 4637 0064 9515929C 		.word	-1668147819
 4638 0068 EBBF6D7A 		.word	2054012907
 4639 006c DA955259 		.word	1498584538
 4640 0070 2DD4BE83 		.word	-2084645843
 4641 0074 D3587421 		.word	561273043
 4642 0078 2949E069 		.word	1776306473
 4643 007c 448EC9C8 		.word	-926314940
 4644 0080 6A75C289 		.word	-1983744662
 4645 0084 78F48E79 		.word	2039411832
 4646 0088 6B99583E 		.word	1045993835
 4647 008c DD27B971 		.word	1907959773
 4648 0090 B6BEE14F 		.word	1340194486
 4649 0094 17F088AD 		.word	-1383534569
 4650 0098 66C920AC 		.word	-1407137434
 4651 009c B47DCE3A 		.word	986611124
 4652 00a0 1863DF4A 		.word	1256153880
 4653 00a4 82E51A31 		.word	823846274
 4654 00a8 60975133 		.word	860985184
 4655 00ac 4562537F 		.word	2136171077
 4656 00b0 E0B16477 		.word	2003087840
 4657 00b4 84BB6BAE 		.word	-1368671356
 4658 00b8 1CFE81A0 		.word	-1602093540
 4659 00bc 94F9082B 		.word	722008468
 4660 00c0 58704868 		.word	1749577816
 4661 00c4 198F45FD 		.word	-45773031
 4662 00c8 8794DE6C 		.word	1826526343
 4663 00cc B7527BF8 		.word	-126135625
 4664 00d0 23AB73D3 		.word	-747394269
 4665 00d4 E2724B02 		.word	38499042
 4666 00d8 57E31F8F 		.word	-1893735593
 4667 00dc 2A6655AB 		.word	-1420466646
 4668 00e0 07B2EB28 		.word	686535175
 4669 00e4 032FB5C2 		.word	-1028313341
 4670 00e8 9A86C57B 		.word	2076542618
 4671 00ec A5D33708 		.word	137876389
 4672 00f0 F2302887 		.word	-2027409166
 4673 00f4 B223BFA5 		.word	-1514200142
 4674 00f8 BA02036A 		.word	1778582202
 4675 00fc 5CED1682 		.word	-2112426660
 4676 0100 2B8ACF1C 		.word	483363371
 4677 0104 92A779B4 		.word	-1267095662
 4678 0108 F0F307F2 		.word	-234359824
 4679 010c A14E69E2 		.word	-496415071
 4680 0110 CD65DAF4 		.word	-187013683
 4681 0114 D50605BE 		.word	-1106966827
 4682 0118 1FD13462 		.word	1647628575
 4683 011c 8AC4A6FE 		.word	-22625142
 4684 0120 9D342E53 		.word	1395537053
 4685 0124 A0A2F355 		.word	1442030240
 4686 0128 32058AE1 		.word	-511048398
 4687 012c 75A4F6EB 		.word	-336157579
 4688 0130 390B83EC 		.word	-326956231
 4689 0134 AA4060EF 		.word	-278904662
 4690 0138 065E719F 		.word	-1619960314
 4691 013c 51BD6E10 		.word	275692881
 4692 0140 F93E218A 		.word	-1977532679
 4693 0144 3D96DD06 		.word	115185213
 4694 0148 AEDD3E05 		.word	88006062
 4695 014c 464DE6BD 		.word	-1108980410
 4696 0150 B591548D 		.word	-1923837515
 4697 0154 0571C45D 		.word	1573155077
 4698 0158 6F0406D4 		.word	-737803153
 4699 015c FF605015 		.word	357589247
 4700 0160 241998FB 		.word	-73918172
 4701 0164 97D6BDE9 		.word	-373434729
 4702 0168 CC894043 		.word	1128303052
 4703 016c 7767D99E 		.word	-1629919369
 4704 0170 BDB0E842 		.word	1122545853
 4705 0174 8807898B 		.word	-1953953912
 4706 0178 38E7195B 		.word	1528424248
 4707 017c DB79C8EE 		.word	-288851493
 4708 0180 47A17C0A 		.word	175939911
 4709 0184 E97C420F 		.word	256015593
 4710 0188 C9F8841E 		.word	512030921
 4711 018c 00000000 		.word	0
 4712 0190 83098086 		.word	-2038429309
 4713 0194 48322BED 		.word	-315936184
 4714 0198 AC1E1170 		.word	1880170156
 4715 019c 4E6C5A72 		.word	1918528590
 4716 01a0 FBFD0EFF 		.word	-15794693
 4717 01a4 560F8538 		.word	948244310
 4718 01a8 1E3DAED5 		.word	-710001378
 4719 01ac 27362D39 		.word	959264295
 4720 01b0 640A0FD9 		.word	-653325724
 4721 01b4 21685CA6 		.word	-1503893471
 4722 01b8 D19B5B54 		.word	1415289809
 4723 01bc 3A24362E 		.word	775300154
 4724 01c0 B10C0A67 		.word	1728711857
 4725 01c4 0F9357E7 		.word	-413691121
 4726 01c8 D2B4EE96 		.word	-1762741038
 4727 01cc 9E1B9B91 		.word	-1852105826
 4728 01d0 4F80C0C5 		.word	-977239985
 4729 01d4 A261DC20 		.word	551313826
 4730 01d8 695A774B 		.word	1266113129
 4731 01dc 161C121A 		.word	437394454
 4732 01e0 0AE293BA 		.word	-1164713462
 4733 01e4 E5C0A02A 		.word	715178213
 4734 01e8 433C22E0 		.word	-534627261
 4735 01ec 1D121B17 		.word	387650077
 4736 01f0 0B0E090D 		.word	218697227
 4737 01f4 ADF28BC7 		.word	-947129683
 4738 01f8 B92DB6A8 		.word	-1464455751
 4739 01fc C8141EA9 		.word	-1457646392
 4740 0200 8557F119 		.word	435246981
 4741 0204 4CAF7507 		.word	125153100
 4742 0208 BBEE99DD 		.word	-577114437
 4743 020c FDA37F60 		.word	1618977789
 4744 0210 9FF70126 		.word	637663135
 4745 0214 BC5C72F5 		.word	-177054532
 4746 0218 C544663B 		.word	996558021
 4747 021c 345BFB7E 		.word	2130402100
 4748 0220 768B4329 		.word	692292470
 4749 0224 DCCB23C6 		.word	-970732580
 4750 0228 68B6EDFC 		.word	-51530136
 4751 022c 63B8E4F1 		.word	-236668829
 4752 0230 CAD731DC 		.word	-600713270
 4753 0234 10426385 		.word	-2057092592
 4754 0238 40139722 		.word	580326208
 4755 023c 2084C611 		.word	298222624
 4756 0240 7D854A24 		.word	608863613
 4757 0244 F8D2BB3D 		.word	1035719416
 4758 0248 11AEF932 		.word	855223825
 4759 024c 6DC729A1 		.word	-1591097491
 4760 0250 4B1D9E2F 		.word	798891339
 4761 0254 F3DCB230 		.word	817028339
 4762 0258 EC0D8652 		.word	1384517100
 4763 025c D077C1E3 		.word	-473860144
 4764 0260 6C2BB316 		.word	380840812
 4765 0264 99A970B9 		.word	-1183798887
 4766 0268 FA119448 		.word	1217663482
 4767 026c 2247E964 		.word	1693009698
 4768 0270 C4A8FC8C 		.word	-1929598780
 4769 0274 1AA0F03F 		.word	1072734234
 4770 0278 D8567D2C 		.word	746411736
 4771 027c EF223390 		.word	-1875696913
 4772 0280 C787494E 		.word	1313441735
 4773 0284 C1D938D1 		.word	-784803391
 4774 0288 FE8CCAA2 		.word	-1563783938
 4775 028c 3698D40B 		.word	198481974
 4776 0290 CFA6F581 		.word	-2114607409
 4777 0294 28A57ADE 		.word	-562387672
 4778 0298 26DAB78E 		.word	-1900553690
 4779 029c A43FADBF 		.word	-1079165020
 4780 02a0 E42C3A9D 		.word	-1657131804
 4781 02a4 0D507892 		.word	-1837608947
 4782 02a8 9B6A5FCC 		.word	-866162021
 4783 02ac 62547E46 		.word	1182684258
 4784 02b0 C2F68D13 		.word	328070850
 4785 02b4 E890D8B8 		.word	-1193766680
 4786 02b8 5E2E39F7 		.word	-147247522
 4787 02bc F582C3AF 		.word	-1346141451
 4788 02c0 BE9F5D80 		.word	-2141347906
 4789 02c4 7C69D093 		.word	-1815058052
 4790 02c8 A96FD52D 		.word	768962473
 4791 02cc B3CF2512 		.word	304467891
 4792 02d0 3BC8AC99 		.word	-1716729797
 4793 02d4 A710187D 		.word	2098729127
 4794 02d8 6EE89C63 		.word	1671227502
 4795 02dc 7BDB3BBB 		.word	-1153705093
 4796 02e0 09CD2678 		.word	2015808777
 4797 02e4 F46E5918 		.word	408514292
 4798 02e8 01EC9AB7 		.word	-1214583807
 4799 02ec A8834F9A 		.word	-1706064984
 4800 02f0 65E6956E 		.word	1855317605
 4801 02f4 7EAAFFE6 		.word	-419452290
 4802 02f8 0821BCCF 		.word	-809754360
 4803 02fc E6EF15E8 		.word	-401215514
 4804 0300 D9BAE79B 		.word	-1679312167
 4805 0304 CE4A6F36 		.word	913263310
 4806 0308 D4EA9F09 		.word	161475284
 4807 030c D629B07C 		.word	2091919830
 4808 0310 AF31A4B2 		.word	-1297862225
 4809 0314 312A3F23 		.word	591342129
 4810 0318 30C6A594 		.word	-1801075152
 4811 031c C035A266 		.word	1721906624
 4812 0320 37744EBC 		.word	-1135709129
 4813 0324 A6FC82CA 		.word	-897385306
 4814 0328 B0E090D0 		.word	-795811664
 4815 032c 1533A7D8 		.word	-660131051
 4816 0330 4AF10498 		.word	-1744506550
 4817 0334 F741ECDA 		.word	-622050825
 4818 0338 0E7FCD50 		.word	1355644686
 4819 033c 2F1791F6 		.word	-158263505
 4820 0340 8D764DD6 		.word	-699566451
 4821 0344 4D43EFB0 		.word	-1326496947
 4822 0348 54CCAA4D 		.word	1303039060
 4823 034c DFE49604 		.word	76997855
 4824 0350 E39ED1B5 		.word	-1244553501
 4825 0354 1B4C6A88 		.word	-2006299621
 4826 0358 B8C12C1F 		.word	523026872
 4827 035c 7F466551 		.word	1365591679
 4828 0360 049D5EEA 		.word	-362898172
 4829 0364 5D018C35 		.word	898367837
 4830 0368 73FA8774 		.word	1955068531
 4831 036c 2EFB0B41 		.word	1091304238
 4832 0370 5AB3671D 		.word	493335386
 4833 0374 5292DBD2 		.word	-757362094
 4834 0378 33E91056 		.word	1443948851
 4835 037c 136DD647 		.word	1205234963
 4836 0380 8C9AD761 		.word	1641519756
 4837 0384 7A37A10C 		.word	211892090
 4838 0388 8E59F814 		.word	351820174
 4839 038c 89EB133C 		.word	1007938441
 4840 0390 EECEA927 		.word	665439982
 4841 0394 35B761C9 		.word	-916342987
 4842 0398 EDE11CE5 		.word	-451091987
 4843 039c 3C7A47B1 		.word	-1320715716
 4844 03a0 599CD2DF 		.word	-539845543
 4845 03a4 3F55F273 		.word	1945261375
 4846 03a8 791814CE 		.word	-837543815
 4847 03ac BF73C737 		.word	935818175
 4848 03b0 EA53F7CD 		.word	-839429142
 4849 03b4 5B5FFDAA 		.word	-1426235557
 4850 03b8 14DF3D6F 		.word	1866325780
 4851 03bc 867844DB 		.word	-616269690
 4852 03c0 81CAAFF3 		.word	-206583167
 4853 03c4 3EB968C4 		.word	-999769794
 4854 03c8 2C382434 		.word	874788908
 4855 03cc 5FC2A340 		.word	1084473951
 4856 03d0 72161DC3 		.word	-1021503886
 4857 03d4 0CBCE225 		.word	635616268
 4858 03d8 8B283C49 		.word	1228679307
 4859 03dc 41FF0D95 		.word	-1794244799
 4860 03e0 7139A801 		.word	27801969
 4861 03e4 DE080CB3 		.word	-1291056930
 4862 03e8 9CD8B4E4 		.word	-457910116
 4863 03ec 906456C1 		.word	-1051302768
 4864 03f0 617BCB84 		.word	-2067039391
 4865 03f4 70D532B6 		.word	-1238182544
 4866 03f8 74486C5C 		.word	1550600308
 4867 03fc 42D0B857 		.word	1471729730
 4868              		.section	.rodata.RT2,"a",%progbits
 4869              		.align	2
 4870              		.set	.LANCHOR5,. + 0
 4873              	RT2:
 4874 0000 A75051F4 		.word	-195997529
 4875 0004 65537E41 		.word	1098797925
 4876 0008 A4C31A17 		.word	387629988
 4877 000c 5E963A27 		.word	658151006
 4878 0010 6BCB3BAB 		.word	-1422144661
 4879 0014 45F11F9D 		.word	-1658851003
 4880 0018 58ABACFA 		.word	-89347240
 4881 001c 03934BE3 		.word	-481586429
 4882 0020 FA552030 		.word	807425530
 4883 0024 6DF6AD76 		.word	1991112301
 4884 0028 769188CC 		.word	-863465098
 4885 002c 4C25F502 		.word	49620300
 4886 0030 D7FC4FE5 		.word	-447742761
 4887 0034 CBD7C52A 		.word	717608907
 4888 0038 44802635 		.word	891715652
 4889 003c A38FB562 		.word	1656065955
 4890 0040 5A49DEB1 		.word	-1310832294
 4891 0044 1B6725BA 		.word	-1171953893
 4892 0048 0E9845EA 		.word	-364537842
 4893 004c C0E15DFE 		.word	-27401792
 4894 0050 7502C32F 		.word	801309301
 4895 0054 F012814C 		.word	1283527408
 4896 0058 97A38D46 		.word	1183687575
 4897 005c F9C66BD3 		.word	-747911431
 4898 0060 5FE7038F 		.word	-1895569569
 4899 0064 9C951592 		.word	-1844079204
 4900 0068 7AEBBF6D 		.word	1841294202
 4901 006c 59DA9552 		.word	1385552473
 4902 0070 832DD4BE 		.word	-1093390973
 4903 0074 21D35874 		.word	1951978273
 4904 0078 692949E0 		.word	-532076183
 4905 007c C8448EC9 		.word	-913423160
 4906 0080 896A75C2 		.word	-1032492407
 4907 0084 7978F48E 		.word	-1896580999
 4908 0088 3E6B9958 		.word	1486449470
 4909 008c 71DD27B9 		.word	-1188569743
 4910 0090 4FB6BEE1 		.word	-507595185
 4911 0094 AD17F088 		.word	-1997531219
 4912 0098 AC66C920 		.word	550069932
 4913 009c 3AB47DCE 		.word	-830622662
 4914 00a0 4A1863DF 		.word	-547153846
 4915 00a4 3182E51A 		.word	451248689
 4916 00a8 33609751 		.word	1368875059
 4917 00ac 7F456253 		.word	1398949247
 4918 00b0 77E0B164 		.word	1689378935
 4919 00b4 AE84BB6B 		.word	1807451310
 4920 00b8 A01CFE81 		.word	-2114052960
 4921 00bc 2B94F908 		.word	150574123
 4922 00c0 68587048 		.word	1215322216
 4923 00c4 FD198F45 		.word	1167006205
 4924 00c8 6C8794DE 		.word	-560691348
 4925 00cc F8B7527B 		.word	2069018616
 4926 00d0 D323AB73 		.word	1940595667
 4927 00d4 02E2724B 		.word	1265820162
 4928 00d8 8F57E31F 		.word	534992783
 4929 00dc AB2A6655 		.word	1432758955
 4930 00e0 2807B2EB 		.word	-340654296
 4931 00e4 C2032FB5 		.word	-1255210046
 4932 00e8 7B9A86C5 		.word	-981034373
 4933 00ec 08A5D337 		.word	936617224
 4934 00f0 87F23028 		.word	674296455
 4935 00f4 A5B223BF 		.word	-1088179547
 4936 00f8 6ABA0203 		.word	50510442
 4937 00fc 825CED16 		.word	384654466
 4938 0100 1C2B8ACF 		.word	-813028580
 4939 0104 B492A779 		.word	2041025204
 4940 0108 F2F0F307 		.word	133427442
 4941 010c E2A14E69 		.word	1766760930
 4942 0110 F4CD65DA 		.word	-630862348
 4943 0114 BED50605 		.word	84334014
 4944 0118 621FD134 		.word	886120290
 4945 011c FE8AC4A6 		.word	-1497068802
 4946 0120 539D342E 		.word	775200083
 4947 0124 55A0A2F3 		.word	-207445931
 4948 0128 E132058A 		.word	-1979370783
 4949 012c EB75A4F6 		.word	-156994069
 4950 0130 EC390B83 		.word	-2096416276
 4951 0134 EFAA4060 		.word	1614850799
 4952 0138 9F065E71 		.word	1901987487
 4953 013c 1051BD6E 		.word	1857900816
 4954 0140 8AF93E21 		.word	557775242
 4955 0144 063D96DD 		.word	-577356538
 4956 0148 05AEDD3E 		.word	1054715397
 4957 014c BD464DE6 		.word	-431143235
 4958 0150 8DB59154 		.word	1418835341
 4959 0154 5D0571C4 		.word	-999226019
 4960 0158 D46F0406 		.word	100954068
 4961 015c 15FF6050 		.word	1348534037
 4962 0160 FB241998 		.word	-1743182597
 4963 0164 E997D6BD 		.word	-1110009879
 4964 0168 43CC8940 		.word	1082772547
 4965 016c 9E7767D9 		.word	-647530594
 4966 0170 42BDB0E8 		.word	-391070398
 4967 0174 8B880789 		.word	-1995994997
 4968 0178 5B38E719 		.word	434583643
 4969 017c EEDB79C8 		.word	-931537938
 4970 0180 0A47A17C 		.word	2090944266
 4971 0184 0FE97C42 		.word	1115482383
 4972 0188 1EC9F884 		.word	-2064070370
 4973 018c 00000000 		.word	0
 4974 0190 86830980 		.word	-2146860154
 4975 0194 ED48322B 		.word	724715757
 4976 0198 70AC1E11 		.word	287222896
 4977 019c 724E6C5A 		.word	1517047410
 4978 01a0 FFFBFD0E 		.word	251526143
 4979 01a4 38560F85 		.word	-2062592456
 4980 01a8 D51E3DAE 		.word	-1371726123
 4981 01ac 3927362D 		.word	758523705
 4982 01b0 D9640A0F 		.word	252339417
 4983 01b4 A621685C 		.word	1550328230
 4984 01b8 54D19B5B 		.word	1536938324
 4985 01bc 2E3A2436 		.word	908343854
 4986 01c0 67B10C0A 		.word	168604007
 4987 01c4 E70F9357 		.word	1469255655
 4988 01c8 96D2B4EE 		.word	-290139498
 4989 01cc 919E1B9B 		.word	-1692688751
 4990 01d0 C54F80C0 		.word	-1065332795
 4991 01d4 20A261DC 		.word	-597581280
 4992 01d8 4B695A77 		.word	2002413899
 4993 01dc 1A161C12 		.word	303830554
 4994 01e0 BA0AE293 		.word	-1813902662
 4995 01e4 2AE5C0A0 		.word	-1597971158
 4996 01e8 E0433C22 		.word	574374880
 4997 01ec 171D121B 		.word	454171927
 4998 01f0 0D0B0E09 		.word	151915277
 4999 01f4 C7ADF28B 		.word	-1947030073
 5000 01f8 A8B92DB6 		.word	-1238517336
 5001 01fc A9C8141E 		.word	504678569
 5002 0200 198557F1 		.word	-245922535
 5003 0204 074CAF75 		.word	1974422535
 5004 0208 DDBBEE99 		.word	-1712407587
 5005 020c 60FDA37F 		.word	2141453664
 5006 0210 269FF701 		.word	33005350
 5007 0214 F5BC5C72 		.word	1918680309
 5008 0218 3BC54466 		.word	1715782971
 5009 021c 7E345BFB 		.word	-77908866
 5010 0220 29768B43 		.word	1133213225
 5011 0224 C6DCCB23 		.word	600562886
 5012 0228 FC68B6ED 		.word	-306812676
 5013 022c F163B8E4 		.word	-457677839
 5014 0230 DCCAD731 		.word	836225756
 5015 0234 85104263 		.word	1665273989
 5016 0238 22401397 		.word	-1760346078
 5017 023c 112084C6 		.word	-964419567
 5018 0240 247D854A 		.word	1250262308
 5019 0244 3DF8D2BB 		.word	-1143801795
 5020 0248 3211AEF9 		.word	-106032846
 5021 024c A16DC729 		.word	700935585
 5022 0250 2F4B1D9E 		.word	-1642247377
 5023 0254 30F3DCB2 		.word	-1294142672
 5024 0258 52EC0D86 		.word	-2045907886
 5025 025c E3D077C1 		.word	-1049112349
 5026 0260 166C2BB3 		.word	-1288999914
 5027 0264 B999A970 		.word	1890163129
 5028 0268 48FA1194 		.word	-1810761144
 5029 026c 642247E9 		.word	-381214108
 5030 0270 8CC4A8FC 		.word	-56048500
 5031 0274 3F1AA0F0 		.word	-257942977
 5032 0278 2CD8567D 		.word	2102843436
 5033 027c 90EF2233 		.word	857927568
 5034 0280 4EC78749 		.word	1233635150
 5035 0284 D1C1D938 		.word	953795025
 5036 0288 A2FE8CCA 		.word	-896729438
 5037 028c 0B3698D4 		.word	-728222197
 5038 0290 81CFA6F5 		.word	-173617279
 5039 0294 DE28A57A 		.word	2057644254
 5040 0298 8E26DAB7 		.word	-1210440050
 5041 029c BFA43FAD 		.word	-1388337985
 5042 02a0 9DE42C3A 		.word	976020637
 5043 02a4 920D5078 		.word	2018512274
 5044 02a8 CC9B6A5F 		.word	1600822220
 5045 02ac 4662547E 		.word	2119459398
 5046 02b0 13C2F68D 		.word	-1913208301
 5047 02b4 B8E890D8 		.word	-661591880
 5048 02b8 F75E2E39 		.word	959340279
 5049 02bc AFF582C3 		.word	-1014827601
 5050 02c0 80BE9F5D 		.word	1570750080
 5051 02c4 937C69D0 		.word	-798393197
 5052 02c8 2DA96FD5 		.word	-714102483
 5053 02cc 12B3CF25 		.word	634368786
 5054 02d0 993BC8AC 		.word	-1396163687
 5055 02d4 7DA71018 		.word	403744637
 5056 02d8 636EE89C 		.word	-1662488989
 5057 02dc BB7BDB3B 		.word	1004239803
 5058 02e0 7809CD26 		.word	650971512
 5059 02e4 18F46E59 		.word	1500443672
 5060 02e8 B701EC9A 		.word	-1695809097
 5061 02ec 9AA8834F 		.word	1334028442
 5062 02f0 6E65E695 		.word	-1780062866
 5063 02f4 E67EAAFF 		.word	-5603610
 5064 02f8 CF0821BC 		.word	-1138685745
 5065 02fc E8E6EF15 		.word	368043752
 5066 0300 9BD9BAE7 		.word	-407184997
 5067 0304 36CE4A6F 		.word	1867173430
 5068 0308 09D4EA9F 		.word	-1612000247
 5069 030c 7CD629B0 		.word	-1339435396
 5070 0310 B2AF31A4 		.word	-1540247630
 5071 0314 23312A3F 		.word	1059729699
 5072 0318 9430C6A5 		.word	-1513738092
 5073 031c 66C035A2 		.word	-1573535642
 5074 0320 BC37744E 		.word	1316239292
 5075 0324 CAA6FC82 		.word	-2097371446
 5076 0328 D0B0E090 		.word	-1864322864
 5077 032c D81533A7 		.word	-1489824296
 5078 0330 984AF104 		.word	82922136
 5079 0334 DAF741EC 		.word	-331221030
 5080 0338 500E7FCD 		.word	-847311280
 5081 033c F62F1791 		.word	-1860751370
 5082 0340 D68D764D 		.word	1299615190
 5083 0344 B04D43EF 		.word	-280801872
 5084 0348 4D54CCAA 		.word	-1429449651
 5085 034c 04DFE496 		.word	-1763385596
 5086 0350 B5E39ED1 		.word	-778116171
 5087 0354 881B4C6A 		.word	1783372680
 5088 0358 1FB8C12C 		.word	750893087
 5089 035c 517F4665 		.word	1699118929
 5090 0360 EA049D5E 		.word	1587348714
 5091 0364 355D018C 		.word	-1946067659
 5092 0368 7473FA87 		.word	-2013629580
 5093 036c 412EFB0B 		.word	201010753
 5094 0370 1D5AB367 		.word	1739807261
 5095 0374 D25292DB 		.word	-611167534
 5096 0378 5633E910 		.word	283718486
 5097 037c 47136DD6 		.word	-697494713
 5098 0380 618C9AD7 		.word	-677737375
 5099 0384 0C7A37A1 		.word	-1590199796
 5100 0388 148E59F8 		.word	-128348652
 5101 038c 3C89EB13 		.word	334203196
 5102 0390 27EECEA9 		.word	-1446056409
 5103 0394 C935B761 		.word	1639396809
 5104 0398 E5EDE11C 		.word	484568549
 5105 039c B13C7A47 		.word	1199193265
 5106 03a0 DF599CD2 		.word	-761505313
 5107 03a4 733F55F2 		.word	-229294221
 5108 03a8 CE791814 		.word	337148366
 5109 03ac 37BF73C7 		.word	-948715721
 5110 03b0 CDEA53F7 		.word	-145495347
 5111 03b4 AA5B5FFD 		.word	-44082262
 5112 03b8 6F14DF3D 		.word	1038029935
 5113 03bc DB867844 		.word	1148749531
 5114 03c0 F381CAAF 		.word	-1345682957
 5115 03c4 C43EB968 		.word	1756970692
 5116 03c8 342C3824 		.word	607661108
 5117 03cc 405FC2A3 		.word	-1547542720
 5118 03d0 C372161D 		.word	488010435
 5119 03d4 250CBCE2 		.word	-490992603
 5120 03d8 498B283C 		.word	1009290057
 5121 03dc 9541FF0D 		.word	234832277
 5122 03e0 017139A8 		.word	-1472630527
 5123 03e4 B3DE080C 		.word	201907891
 5124 03e8 E49CD8B4 		.word	-1260872476
 5125 03ec C1906456 		.word	1449431233
 5126 03f0 84617BCB 		.word	-881106556
 5127 03f4 B670D532 		.word	852848822
 5128 03f8 5C74486C 		.word	1816687708
 5129 03fc 5742D0B8 		.word	-1194311081
 5130              		.section	.rodata.RT3,"a",%progbits
 5131              		.align	2
 5132              		.set	.LANCHOR3,. + 0
 5135              	RT3:
 5136 0000 F4A75051 		.word	1364240372
 5137 0004 4165537E 		.word	2119394625
 5138 0008 17A4C31A 		.word	449029143
 5139 000c 275E963A 		.word	982933031
 5140 0010 AB6BCB3B 		.word	1003187115
 5141 0014 9D45F11F 		.word	535905693
 5142 0018 FA58ABAC 		.word	-1398056710
 5143 001c E303934B 		.word	1267925987
 5144 0020 30FA5520 		.word	542505520
 5145 0024 766DF6AD 		.word	-1376359050
 5146 0028 CC769188 		.word	-2003732788
 5147 002c 024C25F5 		.word	-182105086
 5148 0030 E5D7FC4F 		.word	1341970405
 5149 0034 2ACBD7C5 		.word	-975713494
 5150 0038 35448026 		.word	645940277
 5151 003c 62A38FB5 		.word	-1248877726
 5152 0040 B15A49DE 		.word	-565617999
 5153 0044 BA1B6725 		.word	627514298
 5154 0048 EA0E9845 		.word	1167593194
 5155 004c FEC0E15D 		.word	1575076094
 5156 0050 2F7502C3 		.word	-1023249105
 5157 0054 4CF01281 		.word	-2129465268
 5158 0058 4697A38D 		.word	-1918658746
 5159 005c D3F9C66B 		.word	1808202195
 5160 0060 8F5FE703 		.word	65494927
 5161 0064 929C9515 		.word	362126482
 5162 0068 6D7AEBBF 		.word	-1075086739
 5163 006c 5259DA95 		.word	-1780852398
 5164 0070 BE832DD4 		.word	-735214658
 5165 0074 7421D358 		.word	1490231668
 5166 0078 E0692949 		.word	1227450848
 5167 007c C9C8448E 		.word	-1908094775
 5168 0080 C2896A75 		.word	1969916354
 5169 0084 8E7978F4 		.word	-193431154
 5170 0088 583E6B99 		.word	-1721024936
 5171 008c B971DD27 		.word	668823993
 5172 0090 E14FB6BE 		.word	-1095348255
 5173 0094 88AD17F0 		.word	-266883704
 5174 0098 20AC66C9 		.word	-916018144
 5175 009c CE3AB47D 		.word	2108963534
 5176 00a0 DF4A1863 		.word	1662536415
 5177 00a4 1A3182E5 		.word	-444452582
 5178 00a8 51336097 		.word	-1755303087
 5179 00ac 537F4562 		.word	1648721747
 5180 00b0 6477E0B1 		.word	-1310689436
 5181 00b4 6BAE84BB 		.word	-1148932501
 5182 00b8 81A01CFE 		.word	-31678335
 5183 00bc 082B94F9 		.word	-107730168
 5184 00c0 48685870 		.word	1884842056
 5185 00c4 45FD198F 		.word	-1894122171
 5186 00c8 DE6C8794 		.word	-1803064098
 5187 00cc 7BF8B752 		.word	1387788411
 5188 00d0 73D323AB 		.word	-1423715469
 5189 00d4 4B02E272 		.word	1927414347
 5190 00d8 1F8F57E3 		.word	-480800993
 5191 00dc 55AB2A66 		.word	1714072405
 5192 00e0 EB2807B2 		.word	-1308153621
 5193 00e4 B5C2032F 		.word	788775605
 5194 00e8 C57B9A86 		.word	-2036696123
 5195 00ec 3708A5D3 		.word	-744159177
 5196 00f0 2887F230 		.word	821200680
 5197 00f4 BFA5B223 		.word	598910399
 5198 00f8 036ABA02 		.word	45771267
 5199 00fc 16825CED 		.word	-312704490
 5200 0100 CF1C2B8A 		.word	-1976886065
 5201 0104 79B492A7 		.word	-1483557767
 5202 0108 07F2F0F3 		.word	-202313209
 5203 010c 69E2A14E 		.word	1319232105
 5204 0110 DAF4CD65 		.word	1707996378
 5205 0114 05BED506 		.word	114671109
 5206 0118 34621FD1 		.word	-786472396
 5207 011c A6FE8AC4 		.word	-997523802
 5208 0120 2E539D34 		.word	882725678
 5209 0124 F355A0A2 		.word	-1566550541
 5210 0128 8AE13205 		.word	87220618
 5211 012c F6EB75A4 		.word	-1535775754
 5212 0130 83EC390B 		.word	188345475
 5213 0134 60EFAA40 		.word	1084944224
 5214 0138 719F065E 		.word	1577492337
 5215 013c 6E1051BD 		.word	-1118760850
 5216 0140 218AF93E 		.word	1056541217
 5217 0144 DD063D96 		.word	-1774385443
 5218 0148 3E05AEDD 		.word	-575797954
 5219 014c E6BD464D 		.word	1296481766
 5220 0150 548DB591 		.word	-1850372780
 5221 0154 C45D0571 		.word	1896177092
 5222 0158 06D46F04 		.word	74437638
 5223 015c 5015FF60 		.word	1627329872
 5224 0160 98FB2419 		.word	421854104
 5225 0164 BDE997D6 		.word	-694687299
 5226 0168 4043CC89 		.word	-1983102144
 5227 016c D99E7767 		.word	1735892697
 5228 0170 E842BDB0 		.word	-1329773848
 5229 0174 898B8807 		.word	126389129
 5230 0178 195B38E7 		.word	-415737063
 5231 017c C8EEDB79 		.word	2044456648
 5232 0180 7C0A47A1 		.word	-1589179780
 5233 0184 420FE97C 		.word	2095648578
 5234 0188 841EC9F8 		.word	-121037180
 5235 018c 00000000 		.word	0
 5236 0190 80868309 		.word	159614592
 5237 0194 2BED4832 		.word	843640107
 5238 0198 1170AC1E 		.word	514617361
 5239 019c 5A724E6C 		.word	1817080410
 5240 01a0 0EFFFBFD 		.word	-33816818
 5241 01a4 8538560F 		.word	257308805
 5242 01a8 AED51E3D 		.word	1025430958
 5243 01ac 2D392736 		.word	908540205
 5244 01b0 0FD9640A 		.word	174381327
 5245 01b4 5CA62168 		.word	1747035740
 5246 01b8 5B54D19B 		.word	-1680780197
 5247 01bc 362E3A24 		.word	607792694
 5248 01c0 0A67B10C 		.word	212952842
 5249 01c4 57E70F93 		.word	-1827674281
 5250 01c8 EE96D2B4 		.word	-1261267218
 5251 01cc 9B919E1B 		.word	463376795
 5252 01d0 C0C54F80 		.word	-2142255680
 5253 01d4 DC20A261 		.word	1638015196
 5254 01d8 774B695A 		.word	1516850039
 5255 01dc 121A161C 		.word	471210514
 5256 01e0 93BA0AE2 		.word	-502613357
 5257 01e4 A02AE5C0 		.word	-1058723168
 5258 01e8 22E0433C 		.word	1011081250
 5259 01ec 1B171D12 		.word	303896347
 5260 01f0 090D0B0E 		.word	235605257
 5261 01f4 8BC7ADF2 		.word	-223492213
 5262 01f8 B6A8B92D 		.word	767142070
 5263 01fc 1EA9C814 		.word	348694814
 5264 0200 F1198557 		.word	1468340721
 5265 0204 75074CAF 		.word	-1353971851
 5266 0208 99DDBBEE 		.word	-289677927
 5267 020c 7F60FDA3 		.word	-1543675777
 5268 0210 01269FF7 		.word	-140564991
 5269 0214 72F5BC5C 		.word	1555887474
 5270 0218 663BC544 		.word	1153776486
 5271 021c FB7E345B 		.word	1530167035
 5272 0220 4329768B 		.word	-1955190461
 5273 0224 23C6DCCB 		.word	-874723805
 5274 0228 EDFC68B6 		.word	-1234633491
 5275 022c E4F163B8 		.word	-1201409564
 5276 0230 31DCCAD7 		.word	-674571215
 5277 0234 63851042 		.word	1108378979
 5278 0238 97224013 		.word	322970263
 5279 023c C6112084 		.word	-2078273082
 5280 0240 4A247D85 		.word	-2055396278
 5281 0244 BB3DF8D2 		.word	-755483205
 5282 0248 F93211AE 		.word	-1374604551
 5283 024c 29A16DC7 		.word	-949116631
 5284 0250 9E2F4B1D 		.word	491466654
 5285 0254 B230F3DC 		.word	-588042062
 5286 0258 8652EC0D 		.word	233591430
 5287 025c C1E3D077 		.word	2010178497
 5288 0260 B3166C2B 		.word	728503987
 5289 0264 70B999A9 		.word	-1449543312
 5290 0268 9448FA11 		.word	301615252
 5291 026c E9642247 		.word	1193436393
 5292 0270 FC8CC4A8 		.word	-1463513860
 5293 0274 F03F1AA0 		.word	-1608892432
 5294 0278 7D2CD856 		.word	1457007741
 5295 027c 3390EF22 		.word	586125363
 5296 0280 494EC787 		.word	-2016981431
 5297 0284 38D1C1D9 		.word	-641609416
 5298 0288 CAA2FE8C 		.word	-1929469238
 5299 028c D40B3698 		.word	-1741288492
 5300 0290 F581CFA6 		.word	-1496350219
 5301 0294 7ADE28A5 		.word	-1524048262
 5302 0298 B78E26DA 		.word	-635007305
 5303 029c ADBFA43F 		.word	1067761581
 5304 02a0 3A9DE42C 		.word	753179962
 5305 02a4 78920D50 		.word	1343066744
 5306 02a8 5FCC9B6A 		.word	1788595295
 5307 02ac 7E466254 		.word	1415726718
 5308 02b0 8D13C2F6 		.word	-155053171
 5309 02b4 D8B8E890 		.word	-1863796520
 5310 02b8 39F75E2E 		.word	777975609
 5311 02bc C3AFF582 		.word	-2097827901
 5312 02c0 5D80BE9F 		.word	-1614905251
 5313 02c4 D0937C69 		.word	1769771984
 5314 02c8 D52DA96F 		.word	1873358293
 5315 02cc 2512B3CF 		.word	-810347995
 5316 02d0 AC993BC8 		.word	-935618132
 5317 02d4 187DA710 		.word	279411992
 5318 02d8 9C636EE8 		.word	-395418724
 5319 02dc 3BBB7BDB 		.word	-612648133
 5320 02e0 267809CD 		.word	-855017434
 5321 02e4 5918F46E 		.word	1861490777
 5322 02e8 9AB701EC 		.word	-335431782
 5323 02ec 4F9AA883 		.word	-2086102449
 5324 02f0 956E65E6 		.word	-429560171
 5325 02f4 FFE67EAA 		.word	-1434523905
 5326 02f8 BCCF0821 		.word	554225596
 5327 02fc 15E8E6EF 		.word	-270079979
 5328 0300 E79BD9BA 		.word	-1160143897
 5329 0304 6F36CE4A 		.word	1255028335
 5330 0308 9F09D4EA 		.word	-355202657
 5331 030c B07CD629 		.word	701922480
 5332 0310 A4B2AF31 		.word	833598116
 5333 0314 3F23312A 		.word	707863359
 5334 0318 A59430C6 		.word	-969894747
 5335 031c A266C035 		.word	901801634
 5336 0320 4EBC3774 		.word	1949809742
 5337 0324 82CAA6FC 		.word	-56178046
 5338 0328 90D0B0E0 		.word	-525283184
 5339 032c A7D81533 		.word	857069735
 5340 0330 04984AF1 		.word	-246769660
 5341 0334 ECDAF741 		.word	1106762476
 5342 0338 CD500E7F 		.word	2131644621
 5343 033c 91F62F17 		.word	389019281
 5344 0340 4DD68D76 		.word	1989006925
 5345 0344 EFB04D43 		.word	1129165039
 5346 0348 AA4D54CC 		.word	-866890326
 5347 034c 9604DFE4 		.word	-455146346
 5348 0350 D1B5E39E 		.word	-1629243951
 5349 0354 6A881B4C 		.word	1276872810
 5350 0358 2C1FB8C1 		.word	-1044898004
 5351 035c 65517F46 		.word	1182749029
 5352 0360 5EEA049D 		.word	-1660622242
 5353 0364 8C355D01 		.word	22885772
 5354 0368 877473FA 		.word	-93096825
 5355 036c 0B412EFB 		.word	-80854773
 5356 0370 671D5AB3 		.word	-1285939865
 5357 0374 DBD25292 		.word	-1840065829
 5358 0378 105633E9 		.word	-382511600
 5359 037c D647136D 		.word	1829980118
 5360 0380 D7618C9A 		.word	-1702075945
 5361 0384 A10C7A37 		.word	930745505
 5362 0388 F8148E59 		.word	1502483704
 5363 038c 133C89EB 		.word	-343327725
 5364 0390 A927EECE 		.word	-823253079
 5365 0394 61C935B7 		.word	-1221211807
 5366 0398 1CE5EDE1 		.word	-504503012
 5367 039c 47B13C7A 		.word	2050797895
 5368 03a0 D2DF599C 		.word	-1671831598
 5369 03a4 F2733F55 		.word	1430221810
 5370 03a8 14CE7918 		.word	410635796
 5371 03ac C737BF73 		.word	1941911495
 5372 03b0 F7CDEA53 		.word	1407897079
 5373 03b4 FDAA5B5F 		.word	1599843069
 5374 03b8 3D6F14DF 		.word	-552308931
 5375 03bc 44DB8678 		.word	2022103876
 5376 03c0 AFF381CA 		.word	-897453137
 5377 03c4 68C43EB9 		.word	-1187068824
 5378 03c8 24342C38 		.word	942421028
 5379 03cc A3405FC2 		.word	-1033944925
 5380 03d0 1DC37216 		.word	376619805
 5381 03d4 E2250CBC 		.word	-1140054558
 5382 03d8 3C498B28 		.word	680216892
 5383 03dc 0D9541FF 		.word	-12479219
 5384 03e0 A8017139 		.word	963707304
 5385 03e4 0CB3DE08 		.word	148812556
 5386 03e8 B4E49CD8 		.word	-660806476
 5387 03ec 56C19064 		.word	1687208278
 5388 03f0 CB84617B 		.word	2069988555
 5389 03f4 32B670D5 		.word	-714033614
 5390 03f8 6C5C7448 		.word	1215585388
 5391 03fc B85742D0 		.word	-800958536
 5392              		.section	.rodata.aes_test_cbc_dec,"a",%progbits
 5393              		.set	.LANCHOR14,. + 0
 5396              	aes_test_cbc_dec:
 5397 0000 FA       		.byte	-6
 5398 0001 CA       		.byte	-54
 5399 0002 37       		.byte	55
 5400 0003 E0       		.byte	-32
 5401 0004 B0       		.byte	-80
 5402 0005 C8       		.byte	-56
 5403 0006 53       		.byte	83
 5404 0007 73       		.byte	115
 5405 0008 DF       		.byte	-33
 5406 0009 70       		.byte	112
 5407 000a 6E       		.byte	110
 5408 000b 73       		.byte	115
 5409 000c F7       		.byte	-9
 5410 000d C9       		.byte	-55
 5411 000e AF       		.byte	-81
 5412 000f 86       		.byte	-122
 5413 0010 5D       		.byte	93
 5414 0011 F6       		.byte	-10
 5415 0012 78       		.byte	120
 5416 0013 DD       		.byte	-35
 5417 0014 17       		.byte	23
 5418 0015 BA       		.byte	-70
 5419 0016 4E       		.byte	78
 5420 0017 75       		.byte	117
 5421 0018 B6       		.byte	-74
 5422 0019 17       		.byte	23
 5423 001a 68       		.byte	104
 5424 001b C6       		.byte	-58
 5425 001c AD       		.byte	-83
 5426 001d EF       		.byte	-17
 5427 001e 7C       		.byte	124
 5428 001f 7B       		.byte	123
 5429 0020 48       		.byte	72
 5430 0021 04       		.byte	4
 5431 0022 E1       		.byte	-31
 5432 0023 81       		.byte	-127
 5433 0024 8F       		.byte	-113
 5434 0025 E6       		.byte	-26
 5435 0026 29       		.byte	41
 5436 0027 75       		.byte	117
 5437 0028 19       		.byte	25
 5438 0029 A3       		.byte	-93
 5439 002a E8       		.byte	-24
 5440 002b 8C       		.byte	-116
 5441 002c 57       		.byte	87
 5442 002d 31       		.byte	49
 5443 002e 04       		.byte	4
 5444 002f 13       		.byte	19
 5445              		.section	.rodata.aes_test_cbc_enc,"a",%progbits
 5446              		.set	.LANCHOR15,. + 0
 5449              	aes_test_cbc_enc:
 5450 0000 8A       		.byte	-118
 5451 0001 05       		.byte	5
 5452 0002 FC       		.byte	-4
 5453 0003 5E       		.byte	94
 5454 0004 09       		.byte	9
 5455 0005 5A       		.byte	90
 5456 0006 F4       		.byte	-12
 5457 0007 84       		.byte	-124
 5458 0008 8A       		.byte	-118
 5459 0009 08       		.byte	8
 5460 000a D3       		.byte	-45
 5461 000b 28       		.byte	40
 5462 000c D3       		.byte	-45
 5463 000d 68       		.byte	104
 5464 000e 8E       		.byte	-114
 5465 000f 3D       		.byte	61
 5466 0010 7B       		.byte	123
 5467 0011 D9       		.byte	-39
 5468 0012 66       		.byte	102
 5469 0013 D5       		.byte	-43
 5470 0014 3A       		.byte	58
 5471 0015 D8       		.byte	-40
 5472 0016 C1       		.byte	-63
 5473 0017 BB       		.byte	-69
 5474 0018 85       		.byte	-123
 5475 0019 D2       		.byte	-46
 5476 001a AD       		.byte	-83
 5477 001b FA       		.byte	-6
 5478 001c E8       		.byte	-24
 5479 001d 7B       		.byte	123
 5480 001e B1       		.byte	-79
 5481 001f 04       		.byte	4
 5482 0020 FE       		.byte	-2
 5483 0021 3C       		.byte	60
 5484 0022 53       		.byte	83
 5485 0023 65       		.byte	101
 5486 0024 3E       		.byte	62
 5487 0025 2F       		.byte	47
 5488 0026 45       		.byte	69
 5489 0027 B5       		.byte	-75
 5490 0028 6F       		.byte	111
 5491 0029 CD       		.byte	-51
 5492 002a 88       		.byte	-120
 5493 002b B2       		.byte	-78
 5494 002c CC       		.byte	-52
 5495 002d 89       		.byte	-119
 5496 002e 8F       		.byte	-113
 5497 002f F0       		.byte	-16
 5498              		.section	.rodata.aes_test_cfb128_ct,"a",%progbits
 5499              		.set	.LANCHOR18,. + 0
 5502              	aes_test_cfb128_ct:
 5503 0000 3B       		.byte	59
 5504 0001 3F       		.byte	63
 5505 0002 D9       		.byte	-39
 5506 0003 2E       		.byte	46
 5507 0004 B7       		.byte	-73
 5508 0005 2D       		.byte	45
 5509 0006 AD       		.byte	-83
 5510 0007 20       		.byte	32
 5511 0008 33       		.byte	51
 5512 0009 34       		.byte	52
 5513 000a 49       		.byte	73
 5514 000b F8       		.byte	-8
 5515 000c E8       		.byte	-24
 5516 000d 3C       		.byte	60
 5517 000e FB       		.byte	-5
 5518 000f 4A       		.byte	74
 5519 0010 C8       		.byte	-56
 5520 0011 A6       		.byte	-90
 5521 0012 45       		.byte	69
 5522 0013 37       		.byte	55
 5523 0014 A0       		.byte	-96
 5524 0015 B3       		.byte	-77
 5525 0016 A9       		.byte	-87
 5526 0017 3F       		.byte	63
 5527 0018 CD       		.byte	-51
 5528 0019 E3       		.byte	-29
 5529 001a CD       		.byte	-51
 5530 001b AD       		.byte	-83
 5531 001c 9F       		.byte	-97
 5532 001d 1C       		.byte	28
 5533 001e E5       		.byte	-27
 5534 001f 8B       		.byte	-117
 5535 0020 26       		.byte	38
 5536 0021 75       		.byte	117
 5537 0022 1F       		.byte	31
 5538 0023 67       		.byte	103
 5539 0024 A3       		.byte	-93
 5540 0025 CB       		.byte	-53
 5541 0026 B1       		.byte	-79
 5542 0027 40       		.byte	64
 5543 0028 B1       		.byte	-79
 5544 0029 80       		.byte	-128
 5545 002a 8C       		.byte	-116
 5546 002b F1       		.byte	-15
 5547 002c 87       		.byte	-121
 5548 002d A4       		.byte	-92
 5549 002e F4       		.byte	-12
 5550 002f DF       		.byte	-33
 5551 0030 C0       		.byte	-64
 5552 0031 4B       		.byte	75
 5553 0032 05       		.byte	5
 5554 0033 35       		.byte	53
 5555 0034 7C       		.byte	124
 5556 0035 5D       		.byte	93
 5557 0036 1C       		.byte	28
 5558 0037 0E       		.byte	14
 5559 0038 EA       		.byte	-22
 5560 0039 C4       		.byte	-60
 5561 003a C6       		.byte	-58
 5562 003b 6F       		.byte	111
 5563 003c 9F       		.byte	-97
 5564 003d F7       		.byte	-9
 5565 003e F2       		.byte	-14
 5566 003f E6       		.byte	-26
 5567 0040 CD       		.byte	-51
 5568 0041 C8       		.byte	-56
 5569 0042 0D       		.byte	13
 5570 0043 6F       		.byte	111
 5571 0044 DD       		.byte	-35
 5572 0045 F1       		.byte	-15
 5573 0046 8C       		.byte	-116
 5574 0047 AB       		.byte	-85
 5575 0048 34       		.byte	52
 5576 0049 C2       		.byte	-62
 5577 004a 59       		.byte	89
 5578 004b 09       		.byte	9
 5579 004c C9       		.byte	-55
 5580 004d 9A       		.byte	-102
 5581 004e 41       		.byte	65
 5582 004f 74       		.byte	116
 5583 0050 67       		.byte	103
 5584 0051 CE       		.byte	-50
 5585 0052 7F       		.byte	127
 5586 0053 7F       		.byte	127
 5587 0054 81       		.byte	-127
 5588 0055 17       		.byte	23
 5589 0056 36       		.byte	54
 5590 0057 21       		.byte	33
 5591 0058 96       		.byte	-106
 5592 0059 1A       		.byte	26
 5593 005a 2B       		.byte	43
 5594 005b 70       		.byte	112
 5595 005c 17       		.byte	23
 5596 005d 1D       		.byte	29
 5597 005e 3D       		.byte	61
 5598 005f 7A       		.byte	122
 5599 0060 2E       		.byte	46
 5600 0061 1E       		.byte	30
 5601 0062 8A       		.byte	-118
 5602 0063 1D       		.byte	29
 5603 0064 D5       		.byte	-43
 5604 0065 9B       		.byte	-101
 5605 0066 88       		.byte	-120
 5606 0067 B1       		.byte	-79
 5607 0068 C8       		.byte	-56
 5608 0069 E6       		.byte	-26
 5609 006a 0F       		.byte	15
 5610 006b ED       		.byte	-19
 5611 006c 1E       		.byte	30
 5612 006d FA       		.byte	-6
 5613 006e C4       		.byte	-60
 5614 006f C9       		.byte	-55
 5615 0070 C0       		.byte	-64
 5616 0071 5F       		.byte	95
 5617 0072 9F       		.byte	-97
 5618 0073 9C       		.byte	-100
 5619 0074 A9       		.byte	-87
 5620 0075 83       		.byte	-125
 5621 0076 4F       		.byte	79
 5622 0077 A0       		.byte	-96
 5623 0078 42       		.byte	66
 5624 0079 AE       		.byte	-82
 5625 007a 8F       		.byte	-113
 5626 007b BA       		.byte	-70
 5627 007c 58       		.byte	88
 5628 007d 4B       		.byte	75
 5629 007e 09       		.byte	9
 5630 007f FF       		.byte	-1
 5631 0080 DC       		.byte	-36
 5632 0081 7E       		.byte	126
 5633 0082 84       		.byte	-124
 5634 0083 BF       		.byte	-65
 5635 0084 DA       		.byte	-38
 5636 0085 79       		.byte	121
 5637 0086 16       		.byte	22
 5638 0087 4B       		.byte	75
 5639 0088 7E       		.byte	126
 5640 0089 CD       		.byte	-51
 5641 008a 84       		.byte	-124
 5642 008b 86       		.byte	-122
 5643 008c 98       		.byte	-104
 5644 008d 5D       		.byte	93
 5645 008e 38       		.byte	56
 5646 008f 60       		.byte	96
 5647 0090 39       		.byte	57
 5648 0091 FF       		.byte	-1
 5649 0092 ED       		.byte	-19
 5650 0093 14       		.byte	20
 5651 0094 3B       		.byte	59
 5652 0095 28       		.byte	40
 5653 0096 B1       		.byte	-79
 5654 0097 C8       		.byte	-56
 5655 0098 32       		.byte	50
 5656 0099 11       		.byte	17
 5657 009a 3C       		.byte	60
 5658 009b 63       		.byte	99
 5659 009c 31       		.byte	49
 5660 009d E5       		.byte	-27
 5661 009e 40       		.byte	64
 5662 009f 7B       		.byte	123
 5663 00a0 DF       		.byte	-33
 5664 00a1 10       		.byte	16
 5665 00a2 13       		.byte	19
 5666 00a3 24       		.byte	36
 5667 00a4 15       		.byte	21
 5668 00a5 E5       		.byte	-27
 5669 00a6 4B       		.byte	75
 5670 00a7 92       		.byte	-110
 5671 00a8 A1       		.byte	-95
 5672 00a9 3E       		.byte	62
 5673 00aa D0       		.byte	-48
 5674 00ab A8       		.byte	-88
 5675 00ac 26       		.byte	38
 5676 00ad 7A       		.byte	122
 5677 00ae E2       		.byte	-30
 5678 00af F9       		.byte	-7
 5679 00b0 75       		.byte	117
 5680 00b1 A3       		.byte	-93
 5681 00b2 85       		.byte	-123
 5682 00b3 74       		.byte	116
 5683 00b4 1A       		.byte	26
 5684 00b5 B9       		.byte	-71
 5685 00b6 CE       		.byte	-50
 5686 00b7 F8       		.byte	-8
 5687 00b8 20       		.byte	32
 5688 00b9 31       		.byte	49
 5689 00ba 62       		.byte	98
 5690 00bb 3D       		.byte	61
 5691 00bc 55       		.byte	85
 5692 00bd B1       		.byte	-79
 5693 00be E4       		.byte	-28
 5694 00bf 71       		.byte	113
 5695              		.section	.rodata.aes_test_cfb128_iv,"a",%progbits
 5696              		.set	.LANCHOR16,. + 0
 5699              	aes_test_cfb128_iv:
 5700 0000 00       		.byte	0
 5701 0001 01       		.byte	1
 5702 0002 02       		.byte	2
 5703 0003 03       		.byte	3
 5704 0004 04       		.byte	4
 5705 0005 05       		.byte	5
 5706 0006 06       		.byte	6
 5707 0007 07       		.byte	7
 5708 0008 08       		.byte	8
 5709 0009 09       		.byte	9
 5710 000a 0A       		.byte	10
 5711 000b 0B       		.byte	11
 5712 000c 0C       		.byte	12
 5713 000d 0D       		.byte	13
 5714 000e 0E       		.byte	14
 5715 000f 0F       		.byte	15
 5716              		.section	.rodata.aes_test_cfb128_key,"a",%progbits
 5717              		.set	.LANCHOR17,. + 0
 5720              	aes_test_cfb128_key:
 5721 0000 2B       		.byte	43
 5722 0001 7E       		.byte	126
 5723 0002 15       		.byte	21
 5724 0003 16       		.byte	22
 5725 0004 28       		.byte	40
 5726 0005 AE       		.byte	-82
 5727 0006 D2       		.byte	-46
 5728 0007 A6       		.byte	-90
 5729 0008 AB       		.byte	-85
 5730 0009 F7       		.byte	-9
 5731 000a 15       		.byte	21
 5732 000b 88       		.byte	-120
 5733 000c 09       		.byte	9
 5734 000d CF       		.byte	-49
 5735 000e 4F       		.byte	79
 5736 000f 3C       		.byte	60
 5737 0010 00000000 		.space	16
 5737      00000000 
 5737      00000000 
 5737      00000000 
 5738 0020 8E       		.byte	-114
 5739 0021 73       		.byte	115
 5740 0022 B0       		.byte	-80
 5741 0023 F7       		.byte	-9
 5742 0024 DA       		.byte	-38
 5743 0025 0E       		.byte	14
 5744 0026 64       		.byte	100
 5745 0027 52       		.byte	82
 5746 0028 C8       		.byte	-56
 5747 0029 10       		.byte	16
 5748 002a F3       		.byte	-13
 5749 002b 2B       		.byte	43
 5750 002c 80       		.byte	-128
 5751 002d 90       		.byte	-112
 5752 002e 79       		.byte	121
 5753 002f E5       		.byte	-27
 5754 0030 62       		.byte	98
 5755 0031 F8       		.byte	-8
 5756 0032 EA       		.byte	-22
 5757 0033 D2       		.byte	-46
 5758 0034 52       		.byte	82
 5759 0035 2C       		.byte	44
 5760 0036 6B       		.byte	107
 5761 0037 7B       		.byte	123
 5762 0038 00000000 		.space	8
 5762      00000000 
 5763 0040 60       		.byte	96
 5764 0041 3D       		.byte	61
 5765 0042 EB       		.byte	-21
 5766 0043 10       		.byte	16
 5767 0044 15       		.byte	21
 5768 0045 CA       		.byte	-54
 5769 0046 71       		.byte	113
 5770 0047 BE       		.byte	-66
 5771 0048 2B       		.byte	43
 5772 0049 73       		.byte	115
 5773 004a AE       		.byte	-82
 5774 004b F0       		.byte	-16
 5775 004c 85       		.byte	-123
 5776 004d 7D       		.byte	125
 5777 004e 77       		.byte	119
 5778 004f 81       		.byte	-127
 5779 0050 1F       		.byte	31
 5780 0051 35       		.byte	53
 5781 0052 2C       		.byte	44
 5782 0053 07       		.byte	7
 5783 0054 3B       		.byte	59
 5784 0055 61       		.byte	97
 5785 0056 08       		.byte	8
 5786 0057 D7       		.byte	-41
 5787 0058 2D       		.byte	45
 5788 0059 98       		.byte	-104
 5789 005a 10       		.byte	16
 5790 005b A3       		.byte	-93
 5791 005c 09       		.byte	9
 5792 005d 14       		.byte	20
 5793 005e DF       		.byte	-33
 5794 005f F4       		.byte	-12
 5795              		.section	.rodata.aes_test_cfb128_pt,"a",%progbits
 5796              		.set	.LANCHOR11,. + 0
 5799              	aes_test_cfb128_pt:
 5800 0000 6B       		.byte	107
 5801 0001 C1       		.byte	-63
 5802 0002 BE       		.byte	-66
 5803 0003 E2       		.byte	-30
 5804 0004 2E       		.byte	46
 5805 0005 40       		.byte	64
 5806 0006 9F       		.byte	-97
 5807 0007 96       		.byte	-106
 5808 0008 E9       		.byte	-23
 5809 0009 3D       		.byte	61
 5810 000a 7E       		.byte	126
 5811 000b 11       		.byte	17
 5812 000c 73       		.byte	115
 5813 000d 93       		.byte	-109
 5814 000e 17       		.byte	23
 5815 000f 2A       		.byte	42
 5816 0010 AE       		.byte	-82
 5817 0011 2D       		.byte	45
 5818 0012 8A       		.byte	-118
 5819 0013 57       		.byte	87
 5820 0014 1E       		.byte	30
 5821 0015 03       		.byte	3
 5822 0016 AC       		.byte	-84
 5823 0017 9C       		.byte	-100
 5824 0018 9E       		.byte	-98
 5825 0019 B7       		.byte	-73
 5826 001a 6F       		.byte	111
 5827 001b AC       		.byte	-84
 5828 001c 45       		.byte	69
 5829 001d AF       		.byte	-81
 5830 001e 8E       		.byte	-114
 5831 001f 51       		.byte	81
 5832 0020 30       		.byte	48
 5833 0021 C8       		.byte	-56
 5834 0022 1C       		.byte	28
 5835 0023 46       		.byte	70
 5836 0024 A3       		.byte	-93
 5837 0025 5C       		.byte	92
 5838 0026 E4       		.byte	-28
 5839 0027 11       		.byte	17
 5840 0028 E5       		.byte	-27
 5841 0029 FB       		.byte	-5
 5842 002a C1       		.byte	-63
 5843 002b 19       		.byte	25
 5844 002c 1A       		.byte	26
 5845 002d 0A       		.byte	10
 5846 002e 52       		.byte	82
 5847 002f EF       		.byte	-17
 5848 0030 F6       		.byte	-10
 5849 0031 9F       		.byte	-97
 5850 0032 24       		.byte	36
 5851 0033 45       		.byte	69
 5852 0034 DF       		.byte	-33
 5853 0035 4F       		.byte	79
 5854 0036 9B       		.byte	-101
 5855 0037 17       		.byte	23
 5856 0038 AD       		.byte	-83
 5857 0039 2B       		.byte	43
 5858 003a 41       		.byte	65
 5859 003b 7B       		.byte	123
 5860 003c E6       		.byte	-26
 5861 003d 6C       		.byte	108
 5862 003e 37       		.byte	55
 5863 003f 10       		.byte	16
 5864              		.section	.rodata.aes_test_ctr_ct,"a",%progbits
 5865              		.set	.LANCHOR22,. + 0
 5868              	aes_test_ctr_ct:
 5869 0000 E4       		.byte	-28
 5870 0001 09       		.byte	9
 5871 0002 5D       		.byte	93
 5872 0003 4F       		.byte	79
 5873 0004 B7       		.byte	-73
 5874 0005 A7       		.byte	-89
 5875 0006 B3       		.byte	-77
 5876 0007 79       		.byte	121
 5877 0008 2D       		.byte	45
 5878 0009 61       		.byte	97
 5879 000a 75       		.byte	117
 5880 000b A3       		.byte	-93
 5881 000c 26       		.byte	38
 5882 000d 13       		.byte	19
 5883 000e 11       		.byte	17
 5884 000f B8       		.byte	-72
 5885 0010 00000000 		.space	32
 5885      00000000 
 5885      00000000 
 5885      00000000 
 5885      00000000 
 5886 0030 51       		.byte	81
 5887 0031 04       		.byte	4
 5888 0032 A1       		.byte	-95
 5889 0033 06       		.byte	6
 5890 0034 16       		.byte	22
 5891 0035 8A       		.byte	-118
 5892 0036 72       		.byte	114
 5893 0037 D9       		.byte	-39
 5894 0038 79       		.byte	121
 5895 0039 0D       		.byte	13
 5896 003a 41       		.byte	65
 5897 003b EE       		.byte	-18
 5898 003c 8E       		.byte	-114
 5899 003d DA       		.byte	-38
 5900 003e D3       		.byte	-45
 5901 003f 88       		.byte	-120
 5902 0040 EB       		.byte	-21
 5903 0041 2E       		.byte	46
 5904 0042 1E       		.byte	30
 5905 0043 FC       		.byte	-4
 5906 0044 46       		.byte	70
 5907 0045 DA       		.byte	-38
 5908 0046 57       		.byte	87
 5909 0047 C8       		.byte	-56
 5910 0048 FC       		.byte	-4
 5911 0049 E6       		.byte	-26
 5912 004a 30       		.byte	48
 5913 004b DF       		.byte	-33
 5914 004c 91       		.byte	-111
 5915 004d 41       		.byte	65
 5916 004e BE       		.byte	-66
 5917 004f 28       		.byte	40
 5918 0050 00000000 		.space	16
 5918      00000000 
 5918      00000000 
 5918      00000000 
 5919 0060 C1       		.byte	-63
 5920 0061 CF       		.byte	-49
 5921 0062 48       		.byte	72
 5922 0063 A8       		.byte	-88
 5923 0064 9F       		.byte	-97
 5924 0065 2F       		.byte	47
 5925 0066 FD       		.byte	-3
 5926 0067 D9       		.byte	-39
 5927 0068 CF       		.byte	-49
 5928 0069 46       		.byte	70
 5929 006a 52       		.byte	82
 5930 006b E9       		.byte	-23
 5931 006c EF       		.byte	-17
 5932 006d DB       		.byte	-37
 5933 006e 72       		.byte	114
 5934 006f D7       		.byte	-41
 5935 0070 45       		.byte	69
 5936 0071 40       		.byte	64
 5937 0072 A4       		.byte	-92
 5938 0073 2B       		.byte	43
 5939 0074 DE       		.byte	-34
 5940 0075 6D       		.byte	109
 5941 0076 78       		.byte	120
 5942 0077 36       		.byte	54
 5943 0078 D5       		.byte	-43
 5944 0079 9A       		.byte	-102
 5945 007a 5C       		.byte	92
 5946 007b EA       		.byte	-22
 5947 007c AE       		.byte	-82
 5948 007d F3       		.byte	-13
 5949 007e 10       		.byte	16
 5950 007f 53       		.byte	83
 5951 0080 25       		.byte	37
 5952 0081 B2       		.byte	-78
 5953 0082 07       		.byte	7
 5954 0083 2F       		.byte	47
 5955 0084 00000000 		.space	12
 5955      00000000 
 5955      00000000 
 5956              		.section	.rodata.aes_test_ctr_key,"a",%progbits
 5957              		.set	.LANCHOR20,. + 0
 5960              	aes_test_ctr_key:
 5961 0000 AE       		.byte	-82
 5962 0001 68       		.byte	104
 5963 0002 52       		.byte	82
 5964 0003 F8       		.byte	-8
 5965 0004 12       		.byte	18
 5966 0005 10       		.byte	16
 5967 0006 67       		.byte	103
 5968 0007 CC       		.byte	-52
 5969 0008 4B       		.byte	75
 5970 0009 F7       		.byte	-9
 5971 000a A5       		.byte	-91
 5972 000b 76       		.byte	118
 5973 000c 55       		.byte	85
 5974 000d 77       		.byte	119
 5975 000e F3       		.byte	-13
 5976 000f 9E       		.byte	-98
 5977 0010 7E       		.byte	126
 5978 0011 24       		.byte	36
 5979 0012 06       		.byte	6
 5980 0013 78       		.byte	120
 5981 0014 17       		.byte	23
 5982 0015 FA       		.byte	-6
 5983 0016 E0       		.byte	-32
 5984 0017 D7       		.byte	-41
 5985 0018 43       		.byte	67
 5986 0019 D6       		.byte	-42
 5987 001a CE       		.byte	-50
 5988 001b 1F       		.byte	31
 5989 001c 32       		.byte	50
 5990 001d 53       		.byte	83
 5991 001e 91       		.byte	-111
 5992 001f 63       		.byte	99
 5993 0020 76       		.byte	118
 5994 0021 91       		.byte	-111
 5995 0022 BE       		.byte	-66
 5996 0023 03       		.byte	3
 5997 0024 5E       		.byte	94
 5998 0025 50       		.byte	80
 5999 0026 20       		.byte	32
 6000 0027 A8       		.byte	-88
 6001 0028 AC       		.byte	-84
 6002 0029 6E       		.byte	110
 6003 002a 61       		.byte	97
 6004 002b 85       		.byte	-123
 6005 002c 29       		.byte	41
 6006 002d F9       		.byte	-7
 6007 002e A0       		.byte	-96
 6008 002f DC       		.byte	-36
 6009              		.section	.rodata.aes_test_ctr_len,"a",%progbits
 6010              		.align	2
 6011              		.set	.LANCHOR21,. + 0
 6014              	aes_test_ctr_len:
 6015 0000 10000000 		.word	16
 6016 0004 20000000 		.word	32
 6017 0008 24000000 		.word	36
 6018              		.section	.rodata.aes_test_ctr_nonce_counter,"a",%progbits
 6019              		.set	.LANCHOR19,. + 0
 6022              	aes_test_ctr_nonce_counter:
 6023 0000 00       		.byte	0
 6024 0001 00       		.byte	0
 6025 0002 00       		.byte	0
 6026 0003 30       		.byte	48
 6027 0004 00       		.byte	0
 6028 0005 00       		.byte	0
 6029 0006 00       		.byte	0
 6030 0007 00       		.byte	0
 6031 0008 00       		.byte	0
 6032 0009 00       		.byte	0
 6033 000a 00       		.byte	0
 6034 000b 00       		.byte	0
 6035 000c 00       		.byte	0
 6036 000d 00       		.byte	0
 6037 000e 00       		.byte	0
 6038 000f 01       		.byte	1
 6039 0010 00       		.byte	0
 6040 0011 6C       		.byte	108
 6041 0012 B6       		.byte	-74
 6042 0013 DB       		.byte	-37
 6043 0014 C0       		.byte	-64
 6044 0015 54       		.byte	84
 6045 0016 3B       		.byte	59
 6046 0017 59       		.byte	89
 6047 0018 DA       		.byte	-38
 6048 0019 48       		.byte	72
 6049 001a D9       		.byte	-39
 6050 001b 0B       		.byte	11
 6051 001c 00       		.byte	0
 6052 001d 00       		.byte	0
 6053 001e 00       		.byte	0
 6054 001f 01       		.byte	1
 6055 0020 00       		.byte	0
 6056 0021 E0       		.byte	-32
 6057 0022 01       		.byte	1
 6058 0023 7B       		.byte	123
 6059 0024 27       		.byte	39
 6060 0025 77       		.byte	119
 6061 0026 7F       		.byte	127
 6062 0027 3F       		.byte	63
 6063 0028 4A       		.byte	74
 6064 0029 17       		.byte	23
 6065 002a 86       		.byte	-122
 6066 002b F0       		.byte	-16
 6067 002c 00       		.byte	0
 6068 002d 00       		.byte	0
 6069 002e 00       		.byte	0
 6070 002f 01       		.byte	1
 6071              		.section	.rodata.aes_test_ctr_pt,"a",%progbits
 6072              		.set	.LANCHOR23,. + 0
 6075              	aes_test_ctr_pt:
 6076 0000 53       		.byte	83
 6077 0001 69       		.byte	105
 6078 0002 6E       		.byte	110
 6079 0003 67       		.byte	103
 6080 0004 6C       		.byte	108
 6081 0005 65       		.byte	101
 6082 0006 20       		.byte	32
 6083 0007 62       		.byte	98
 6084 0008 6C       		.byte	108
 6085 0009 6F       		.byte	111
 6086 000a 63       		.byte	99
 6087 000b 6B       		.byte	107
 6088 000c 20       		.byte	32
 6089 000d 6D       		.byte	109
 6090 000e 73       		.byte	115
 6091 000f 67       		.byte	103
 6092 0010 00000000 		.space	32
 6092      00000000 
 6092      00000000 
 6092      00000000 
 6092      00000000 
 6093 0030 00       		.byte	0
 6094 0031 01       		.byte	1
 6095 0032 02       		.byte	2
 6096 0033 03       		.byte	3
 6097 0034 04       		.byte	4
 6098 0035 05       		.byte	5
 6099 0036 06       		.byte	6
 6100 0037 07       		.byte	7
 6101 0038 08       		.byte	8
 6102 0039 09       		.byte	9
 6103 003a 0A       		.byte	10
 6104 003b 0B       		.byte	11
 6105 003c 0C       		.byte	12
 6106 003d 0D       		.byte	13
 6107 003e 0E       		.byte	14
 6108 003f 0F       		.byte	15
 6109 0040 10       		.byte	16
 6110 0041 11       		.byte	17
 6111 0042 12       		.byte	18
 6112 0043 13       		.byte	19
 6113 0044 14       		.byte	20
 6114 0045 15       		.byte	21
 6115 0046 16       		.byte	22
 6116 0047 17       		.byte	23
 6117 0048 18       		.byte	24
 6118 0049 19       		.byte	25
 6119 004a 1A       		.byte	26
 6120 004b 1B       		.byte	27
 6121 004c 1C       		.byte	28
 6122 004d 1D       		.byte	29
 6123 004e 1E       		.byte	30
 6124 004f 1F       		.byte	31
 6125 0050 00000000 		.space	16
 6125      00000000 
 6125      00000000 
 6125      00000000 
 6126 0060 00       		.byte	0
 6127 0061 01       		.byte	1
 6128 0062 02       		.byte	2
 6129 0063 03       		.byte	3
 6130 0064 04       		.byte	4
 6131 0065 05       		.byte	5
 6132 0066 06       		.byte	6
 6133 0067 07       		.byte	7
 6134 0068 08       		.byte	8
 6135 0069 09       		.byte	9
 6136 006a 0A       		.byte	10
 6137 006b 0B       		.byte	11
 6138 006c 0C       		.byte	12
 6139 006d 0D       		.byte	13
 6140 006e 0E       		.byte	14
 6141 006f 0F       		.byte	15
 6142 0070 10       		.byte	16
 6143 0071 11       		.byte	17
 6144 0072 12       		.byte	18
 6145 0073 13       		.byte	19
 6146 0074 14       		.byte	20
 6147 0075 15       		.byte	21
 6148 0076 16       		.byte	22
 6149 0077 17       		.byte	23
 6150 0078 18       		.byte	24
 6151 0079 19       		.byte	25
 6152 007a 1A       		.byte	26
 6153 007b 1B       		.byte	27
 6154 007c 1C       		.byte	28
 6155 007d 1D       		.byte	29
 6156 007e 1E       		.byte	30
 6157 007f 1F       		.byte	31
 6158 0080 20       		.byte	32
 6159 0081 21       		.byte	33
 6160 0082 22       		.byte	34
 6161 0083 23       		.byte	35
 6162 0084 00000000 		.space	12
 6162      00000000 
 6162      00000000 
 6163              		.section	.rodata.aes_test_ecb_dec,"a",%progbits
 6164              		.set	.LANCHOR12,. + 0
 6167              	aes_test_ecb_dec:
 6168 0000 44       		.byte	68
 6169 0001 41       		.byte	65
 6170 0002 6A       		.byte	106
 6171 0003 C2       		.byte	-62
 6172 0004 D1       		.byte	-47
 6173 0005 F5       		.byte	-11
 6174 0006 3C       		.byte	60
 6175 0007 58       		.byte	88
 6176 0008 33       		.byte	51
 6177 0009 03       		.byte	3
 6178 000a 91       		.byte	-111
 6179 000b 7E       		.byte	126
 6180 000c 6B       		.byte	107
 6181 000d E9       		.byte	-23
 6182 000e EB       		.byte	-21
 6183 000f E0       		.byte	-32
 6184 0010 48       		.byte	72
 6185 0011 E3       		.byte	-29
 6186 0012 1E       		.byte	30
 6187 0013 9E       		.byte	-98
 6188 0014 25       		.byte	37
 6189 0015 67       		.byte	103
 6190 0016 18       		.byte	24
 6191 0017 F2       		.byte	-14
 6192 0018 92       		.byte	-110
 6193 0019 29       		.byte	41
 6194 001a 31       		.byte	49
 6195 001b 9C       		.byte	-100
 6196 001c 19       		.byte	25
 6197 001d F1       		.byte	-15
 6198 001e 5B       		.byte	91
 6199 001f A4       		.byte	-92
 6200 0020 05       		.byte	5
 6201 0021 8C       		.byte	-116
 6202 0022 CF       		.byte	-49
 6203 0023 FD       		.byte	-3
 6204 0024 BB       		.byte	-69
 6205 0025 CB       		.byte	-53
 6206 0026 38       		.byte	56
 6207 0027 2D       		.byte	45
 6208 0028 1F       		.byte	31
 6209 0029 6F       		.byte	111
 6210 002a 56       		.byte	86
 6211 002b 58       		.byte	88
 6212 002c 5D       		.byte	93
 6213 002d 8A       		.byte	-118
 6214 002e 4A       		.byte	74
 6215 002f DE       		.byte	-34
 6216              		.section	.rodata.aes_test_ecb_enc,"a",%progbits
 6217              		.set	.LANCHOR13,. + 0
 6220              	aes_test_ecb_enc:
 6221 0000 C3       		.byte	-61
 6222 0001 4C       		.byte	76
 6223 0002 05       		.byte	5
 6224 0003 2C       		.byte	44
 6225 0004 C0       		.byte	-64
 6226 0005 DA       		.byte	-38
 6227 0006 8D       		.byte	-115
 6228 0007 73       		.byte	115
 6229 0008 45       		.byte	69
 6230 0009 1A       		.byte	26
 6231 000a FE       		.byte	-2
 6232 000b 5F       		.byte	95
 6233 000c 03       		.byte	3
 6234 000d BE       		.byte	-66
 6235 000e 29       		.byte	41
 6236 000f 7F       		.byte	127
 6237 0010 F3       		.byte	-13
 6238 0011 F6       		.byte	-10
 6239 0012 75       		.byte	117
 6240 0013 2A       		.byte	42
 6241 0014 E8       		.byte	-24
 6242 0015 D7       		.byte	-41
 6243 0016 83       		.byte	-125
 6244 0017 11       		.byte	17
 6245 0018 38       		.byte	56
 6246 0019 F0       		.byte	-16
 6247 001a 41       		.byte	65
 6248 001b 56       		.byte	86
 6249 001c 06       		.byte	6
 6250 001d 31       		.byte	49
 6251 001e B1       		.byte	-79
 6252 001f 14       		.byte	20
 6253 0020 8B       		.byte	-117
 6254 0021 79       		.byte	121
 6255 0022 EE       		.byte	-18
 6256 0023 CC       		.byte	-52
 6257 0024 93       		.byte	-109
 6258 0025 A0       		.byte	-96
 6259 0026 EE       		.byte	-18
 6260 0027 5D       		.byte	93
 6261 0028 FF       		.byte	-1
 6262 0029 30       		.byte	48
 6263 002a B4       		.byte	-76
 6264 002b EA       		.byte	-22
 6265 002c 21       		.byte	33
 6266 002d 63       		.byte	99
 6267 002e 6D       		.byte	109
 6268 002f A4       		.byte	-92
 6269              		.section	.rodata.mbedtls_aes_self_test.str1.1,"aMS",%progbits,1
 6270              	.LC0:
 6271 0000 64656300 		.ascii	"dec\000"
 6272              	.LC1:
 6273 0004 656E6300 		.ascii	"enc\000"
 6274              	.LC2:
 6275 0008 20204145 		.ascii	"  AES-ECB-%3d (%s): \000"
 6275      532D4543 
 6275      422D2533 
 6275      64202825 
 6275      73293A20 
 6276              	.LC3:
 6277 001d 736B6970 		.ascii	"skipped\000"
 6277      70656400 
 6278              	.LC4:
 6279 0025 70617373 		.ascii	"passed\000"
 6279      656400
 6280              	.LC5:
 6281 002c 20204145 		.ascii	"  AES-CBC-%3d (%s): \000"
 6281      532D4342 
 6281      432D2533 
 6281      64202825 
 6281      73293A20 
 6282              	.LC6:
 6283 0041 20204145 		.ascii	"  AES-CFB128-%3d (%s): \000"
 6283      532D4346 
 6283      42313238 
 6283      2D253364 
 6283      20282573 
 6284              	.LC7:
 6285 0059 20204145 		.ascii	"  AES-CTR-128 (%s): \000"
 6285      532D4354 
 6285      522D3132 
 6285      38202825 
 6285      73293A20 
 6286              	.LC8:
 6287 006e 6661696C 		.ascii	"failed\000"
 6287      656400
 6288              		.text
 6289              	.Letext0:
 6290              		.file 2 "c:\\program files (x86)\\gnu tools arm embedded\\6 2017-q2-update\\arm-none-eabi\\include
 6291              		.file 3 "c:\\program files (x86)\\gnu tools arm embedded\\6 2017-q2-update\\lib\\gcc\\arm-none-eab
 6292              		.file 4 "c:\\program files (x86)\\gnu tools arm embedded\\6 2017-q2-update\\arm-none-eabi\\include
 6293              		.file 5 "c:\\program files (x86)\\gnu tools arm embedded\\6 2017-q2-update\\arm-none-eabi\\include
 6294              		.file 6 "c:\\program files (x86)\\gnu tools arm embedded\\6 2017-q2-update\\arm-none-eabi\\include
 6295              		.file 7 "c:\\program files (x86)\\gnu tools arm embedded\\6 2017-q2-update\\arm-none-eabi\\include
 6296              		.file 8 "D:\\Work\\DeviceTester\\amazon-freertos\\lib\\third_party\\mbedtls\\include/mbedtls/aes.h
 6297              		.file 9 "c:\\program files (x86)\\gnu tools arm embedded\\6 2017-q2-update\\arm-none-eabi\\include
 6298              		.file 10 "c:\\program files (x86)\\gnu tools arm embedded\\6 2017-q2-update\\arm-none-eabi\\includ
 6299              		.file 11 "c:\\program files (x86)\\gnu tools arm embedded\\6 2017-q2-update\\arm-none-eabi\\includ
 6300              		.file 12 "c:\\program files (x86)\\gnu tools arm embedded\\6 2017-q2-update\\arm-none-eabi\\includ
 6301              		.file 13 "<built-in>"
 6302              		.file 14 "D:\\Work\\DeviceTester\\amazon-freertos\\lib\\third_party\\mbedtls\\include/mbedtls/plat
DEFINED SYMBOLS
                            *ABS*:00000000 aes.c
C:\Users\a5089698\AppData\Local\Temp\ccy2CG2q.s:17     .text.mbedtls_aes_init:00000000 $a
C:\Users\a5089698\AppData\Local\Temp\ccy2CG2q.s:23     .text.mbedtls_aes_init:00000000 mbedtls_aes_init
C:\Users\a5089698\AppData\Local\Temp\ccy2CG2q.s:41     .text.mbedtls_aes_free:00000000 $a
C:\Users\a5089698\AppData\Local\Temp\ccy2CG2q.s:47     .text.mbedtls_aes_free:00000000 mbedtls_aes_free
C:\Users\a5089698\AppData\Local\Temp\ccy2CG2q.s:66     .text.mbedtls_aes_setkey_enc:00000000 $a
C:\Users\a5089698\AppData\Local\Temp\ccy2CG2q.s:72     .text.mbedtls_aes_setkey_enc:00000000 mbedtls_aes_setkey_enc
C:\Users\a5089698\AppData\Local\Temp\ccy2CG2q.s:405    .text.mbedtls_aes_setkey_enc:0000029c $d
C:\Users\a5089698\AppData\Local\Temp\ccy2CG2q.s:411    .text.mbedtls_aes_setkey_dec:00000000 $a
C:\Users\a5089698\AppData\Local\Temp\ccy2CG2q.s:417    .text.mbedtls_aes_setkey_dec:00000000 mbedtls_aes_setkey_dec
C:\Users\a5089698\AppData\Local\Temp\ccy2CG2q.s:588    .text.mbedtls_aes_setkey_dec:00000134 $d
C:\Users\a5089698\AppData\Local\Temp\ccy2CG2q.s:597    .text.mbedtls_internal_aes_encrypt:00000000 $a
C:\Users\a5089698\AppData\Local\Temp\ccy2CG2q.s:603    .text.mbedtls_internal_aes_encrypt:00000000 mbedtls_internal_aes_encrypt
C:\Users\a5089698\AppData\Local\Temp\ccy2CG2q.s:1060   .text.mbedtls_internal_aes_encrypt:00000494 $d
C:\Users\a5089698\AppData\Local\Temp\ccy2CG2q.s:1069   .text.mbedtls_internal_aes_decrypt:00000000 $a
C:\Users\a5089698\AppData\Local\Temp\ccy2CG2q.s:1075   .text.mbedtls_internal_aes_decrypt:00000000 mbedtls_internal_aes_decrypt
C:\Users\a5089698\AppData\Local\Temp\ccy2CG2q.s:1533   .text.mbedtls_internal_aes_decrypt:00000494 $d
C:\Users\a5089698\AppData\Local\Temp\ccy2CG2q.s:1542   .text.mbedtls_aes_crypt_ecb:00000000 $a
C:\Users\a5089698\AppData\Local\Temp\ccy2CG2q.s:1548   .text.mbedtls_aes_crypt_ecb:00000000 mbedtls_aes_crypt_ecb
C:\Users\a5089698\AppData\Local\Temp\ccy2CG2q.s:1579   .text.mbedtls_aes_crypt_cbc:00000000 $a
C:\Users\a5089698\AppData\Local\Temp\ccy2CG2q.s:1585   .text.mbedtls_aes_crypt_cbc:00000000 mbedtls_aes_crypt_cbc
C:\Users\a5089698\AppData\Local\Temp\ccy2CG2q.s:1738   .text.mbedtls_aes_crypt_cfb128:00000000 $a
C:\Users\a5089698\AppData\Local\Temp\ccy2CG2q.s:1744   .text.mbedtls_aes_crypt_cfb128:00000000 mbedtls_aes_crypt_cfb128
C:\Users\a5089698\AppData\Local\Temp\ccy2CG2q.s:1857   .text.mbedtls_aes_crypt_cfb8:00000000 $a
C:\Users\a5089698\AppData\Local\Temp\ccy2CG2q.s:1863   .text.mbedtls_aes_crypt_cfb8:00000000 mbedtls_aes_crypt_cfb8
C:\Users\a5089698\AppData\Local\Temp\ccy2CG2q.s:1953   .text.mbedtls_aes_crypt_ctr:00000000 $a
C:\Users\a5089698\AppData\Local\Temp\ccy2CG2q.s:1959   .text.mbedtls_aes_crypt_ctr:00000000 mbedtls_aes_crypt_ctr
C:\Users\a5089698\AppData\Local\Temp\ccy2CG2q.s:2064   .text.mbedtls_aes_self_test:00000000 $a
C:\Users\a5089698\AppData\Local\Temp\ccy2CG2q.s:2070   .text.mbedtls_aes_self_test:00000000 mbedtls_aes_self_test
C:\Users\a5089698\AppData\Local\Temp\ccy2CG2q.s:2733   .text.mbedtls_aes_self_test:00000570 $d
C:\Users\a5089698\AppData\Local\Temp\ccy2CG2q.s:2762   .rodata.FSb:00000000 FSb
C:\Users\a5089698\AppData\Local\Temp\ccy2CG2q.s:3020   .rodata.FT0:00000000 $d
C:\Users\a5089698\AppData\Local\Temp\ccy2CG2q.s:3024   .rodata.FT0:00000000 FT0
C:\Users\a5089698\AppData\Local\Temp\ccy2CG2q.s:3282   .rodata.FT1:00000000 $d
C:\Users\a5089698\AppData\Local\Temp\ccy2CG2q.s:3286   .rodata.FT1:00000000 FT1
C:\Users\a5089698\AppData\Local\Temp\ccy2CG2q.s:3544   .rodata.FT2:00000000 $d
C:\Users\a5089698\AppData\Local\Temp\ccy2CG2q.s:3548   .rodata.FT2:00000000 FT2
C:\Users\a5089698\AppData\Local\Temp\ccy2CG2q.s:3806   .rodata.FT3:00000000 $d
C:\Users\a5089698\AppData\Local\Temp\ccy2CG2q.s:3810   .rodata.FT3:00000000 FT3
C:\Users\a5089698\AppData\Local\Temp\ccy2CG2q.s:4068   .rodata.RCON:00000000 $d
C:\Users\a5089698\AppData\Local\Temp\ccy2CG2q.s:4072   .rodata.RCON:00000000 RCON
C:\Users\a5089698\AppData\Local\Temp\ccy2CG2q.s:4087   .rodata.RSb:00000000 RSb
C:\Users\a5089698\AppData\Local\Temp\ccy2CG2q.s:4345   .rodata.RT0:00000000 $d
C:\Users\a5089698\AppData\Local\Temp\ccy2CG2q.s:4349   .rodata.RT0:00000000 RT0
C:\Users\a5089698\AppData\Local\Temp\ccy2CG2q.s:4607   .rodata.RT1:00000000 $d
C:\Users\a5089698\AppData\Local\Temp\ccy2CG2q.s:4611   .rodata.RT1:00000000 RT1
C:\Users\a5089698\AppData\Local\Temp\ccy2CG2q.s:4869   .rodata.RT2:00000000 $d
C:\Users\a5089698\AppData\Local\Temp\ccy2CG2q.s:4873   .rodata.RT2:00000000 RT2
C:\Users\a5089698\AppData\Local\Temp\ccy2CG2q.s:5131   .rodata.RT3:00000000 $d
C:\Users\a5089698\AppData\Local\Temp\ccy2CG2q.s:5135   .rodata.RT3:00000000 RT3
C:\Users\a5089698\AppData\Local\Temp\ccy2CG2q.s:5396   .rodata.aes_test_cbc_dec:00000000 aes_test_cbc_dec
C:\Users\a5089698\AppData\Local\Temp\ccy2CG2q.s:5449   .rodata.aes_test_cbc_enc:00000000 aes_test_cbc_enc
C:\Users\a5089698\AppData\Local\Temp\ccy2CG2q.s:5502   .rodata.aes_test_cfb128_ct:00000000 aes_test_cfb128_ct
C:\Users\a5089698\AppData\Local\Temp\ccy2CG2q.s:5699   .rodata.aes_test_cfb128_iv:00000000 aes_test_cfb128_iv
C:\Users\a5089698\AppData\Local\Temp\ccy2CG2q.s:5720   .rodata.aes_test_cfb128_key:00000000 aes_test_cfb128_key
C:\Users\a5089698\AppData\Local\Temp\ccy2CG2q.s:5737   .rodata.aes_test_cfb128_key:00000010 $d
C:\Users\a5089698\AppData\Local\Temp\ccy2CG2q.s:5799   .rodata.aes_test_cfb128_pt:00000000 aes_test_cfb128_pt
C:\Users\a5089698\AppData\Local\Temp\ccy2CG2q.s:5868   .rodata.aes_test_ctr_ct:00000000 aes_test_ctr_ct
C:\Users\a5089698\AppData\Local\Temp\ccy2CG2q.s:5885   .rodata.aes_test_ctr_ct:00000010 $d
C:\Users\a5089698\AppData\Local\Temp\ccy2CG2q.s:5960   .rodata.aes_test_ctr_key:00000000 aes_test_ctr_key
C:\Users\a5089698\AppData\Local\Temp\ccy2CG2q.s:6010   .rodata.aes_test_ctr_len:00000000 $d
C:\Users\a5089698\AppData\Local\Temp\ccy2CG2q.s:6014   .rodata.aes_test_ctr_len:00000000 aes_test_ctr_len
C:\Users\a5089698\AppData\Local\Temp\ccy2CG2q.s:6022   .rodata.aes_test_ctr_nonce_counter:00000000 aes_test_ctr_nonce_counter
C:\Users\a5089698\AppData\Local\Temp\ccy2CG2q.s:6075   .rodata.aes_test_ctr_pt:00000000 aes_test_ctr_pt
C:\Users\a5089698\AppData\Local\Temp\ccy2CG2q.s:6092   .rodata.aes_test_ctr_pt:00000010 $d
C:\Users\a5089698\AppData\Local\Temp\ccy2CG2q.s:6167   .rodata.aes_test_ecb_dec:00000000 aes_test_ecb_dec
C:\Users\a5089698\AppData\Local\Temp\ccy2CG2q.s:6220   .rodata.aes_test_ecb_enc:00000000 aes_test_ecb_enc
                     .debug_frame:00000010 $d

UNDEFINED SYMBOLS
memset
mbedtls_platform_zeroize
memcpy
printf
memcmp
puts
putchar
