   1              		.cpu cortex-a9
   2              		.eabi_attribute 28, 1
   3              		.eabi_attribute 20, 1
   4              		.eabi_attribute 21, 1
   5              		.eabi_attribute 23, 3
   6              		.eabi_attribute 24, 1
   7              		.eabi_attribute 25, 1
   8              		.eabi_attribute 26, 1
   9              		.eabi_attribute 30, 4
  10              		.eabi_attribute 34, 0
  11              		.eabi_attribute 18, 4
  12              		.file	"asn1write.c"
  13              		.text
  14              	.Ltext0:
  15              		.cfi_sections	.debug_frame
  16              		.section	.text.mbedtls_asn1_write_len,"ax",%progbits
  17              		.align	2
  18              		.global	mbedtls_asn1_write_len
  19              		.syntax unified
  20              		.arm
  21              		.fpu neon
  23              	mbedtls_asn1_write_len:
  24              	.LFB1:
  25              		.file 1 "D:/Work/DeviceTester/amazon-freertos/lib/third_party/mbedtls/library/asn1write.c"
   1:D:/Work/DeviceTester/amazon-freertos/lib/third_party/mbedtls/library\asn1write.c **** /*
   2:D:/Work/DeviceTester/amazon-freertos/lib/third_party/mbedtls/library\asn1write.c ****  * ASN.1 buffer writing functionality
   3:D:/Work/DeviceTester/amazon-freertos/lib/third_party/mbedtls/library\asn1write.c ****  *
   4:D:/Work/DeviceTester/amazon-freertos/lib/third_party/mbedtls/library\asn1write.c ****  *  Copyright (C) 2006-2015, ARM Limited, All Rights Reserved
   5:D:/Work/DeviceTester/amazon-freertos/lib/third_party/mbedtls/library\asn1write.c ****  *  SPDX-License-Identifier: Apache-2.0
   6:D:/Work/DeviceTester/amazon-freertos/lib/third_party/mbedtls/library\asn1write.c ****  *
   7:D:/Work/DeviceTester/amazon-freertos/lib/third_party/mbedtls/library\asn1write.c ****  *  Licensed under the Apache License, Version 2.0 (the "License"); you may
   8:D:/Work/DeviceTester/amazon-freertos/lib/third_party/mbedtls/library\asn1write.c ****  *  not use this file except in compliance with the License.
   9:D:/Work/DeviceTester/amazon-freertos/lib/third_party/mbedtls/library\asn1write.c ****  *  You may obtain a copy of the License at
  10:D:/Work/DeviceTester/amazon-freertos/lib/third_party/mbedtls/library\asn1write.c ****  *
  11:D:/Work/DeviceTester/amazon-freertos/lib/third_party/mbedtls/library\asn1write.c ****  *  http://www.apache.org/licenses/LICENSE-2.0
  12:D:/Work/DeviceTester/amazon-freertos/lib/third_party/mbedtls/library\asn1write.c ****  *
  13:D:/Work/DeviceTester/amazon-freertos/lib/third_party/mbedtls/library\asn1write.c ****  *  Unless required by applicable law or agreed to in writing, software
  14:D:/Work/DeviceTester/amazon-freertos/lib/third_party/mbedtls/library\asn1write.c ****  *  distributed under the License is distributed on an "AS IS" BASIS, WITHOUT
  15:D:/Work/DeviceTester/amazon-freertos/lib/third_party/mbedtls/library\asn1write.c ****  *  WARRANTIES OR CONDITIONS OF ANY KIND, either express or implied.
  16:D:/Work/DeviceTester/amazon-freertos/lib/third_party/mbedtls/library\asn1write.c ****  *  See the License for the specific language governing permissions and
  17:D:/Work/DeviceTester/amazon-freertos/lib/third_party/mbedtls/library\asn1write.c ****  *  limitations under the License.
  18:D:/Work/DeviceTester/amazon-freertos/lib/third_party/mbedtls/library\asn1write.c ****  *
  19:D:/Work/DeviceTester/amazon-freertos/lib/third_party/mbedtls/library\asn1write.c ****  *  This file is part of mbed TLS (https://tls.mbed.org)
  20:D:/Work/DeviceTester/amazon-freertos/lib/third_party/mbedtls/library\asn1write.c ****  */
  21:D:/Work/DeviceTester/amazon-freertos/lib/third_party/mbedtls/library\asn1write.c **** 
  22:D:/Work/DeviceTester/amazon-freertos/lib/third_party/mbedtls/library\asn1write.c **** #if !defined(MBEDTLS_CONFIG_FILE)
  23:D:/Work/DeviceTester/amazon-freertos/lib/third_party/mbedtls/library\asn1write.c **** #include "mbedtls/config.h"
  24:D:/Work/DeviceTester/amazon-freertos/lib/third_party/mbedtls/library\asn1write.c **** #else
  25:D:/Work/DeviceTester/amazon-freertos/lib/third_party/mbedtls/library\asn1write.c **** #include MBEDTLS_CONFIG_FILE
  26:D:/Work/DeviceTester/amazon-freertos/lib/third_party/mbedtls/library\asn1write.c **** #endif
  27:D:/Work/DeviceTester/amazon-freertos/lib/third_party/mbedtls/library\asn1write.c **** 
  28:D:/Work/DeviceTester/amazon-freertos/lib/third_party/mbedtls/library\asn1write.c **** #if defined(MBEDTLS_ASN1_WRITE_C)
  29:D:/Work/DeviceTester/amazon-freertos/lib/third_party/mbedtls/library\asn1write.c **** 
  30:D:/Work/DeviceTester/amazon-freertos/lib/third_party/mbedtls/library\asn1write.c **** #include "mbedtls/asn1write.h"
  31:D:/Work/DeviceTester/amazon-freertos/lib/third_party/mbedtls/library\asn1write.c **** 
  32:D:/Work/DeviceTester/amazon-freertos/lib/third_party/mbedtls/library\asn1write.c **** #include <string.h>
  33:D:/Work/DeviceTester/amazon-freertos/lib/third_party/mbedtls/library\asn1write.c **** 
  34:D:/Work/DeviceTester/amazon-freertos/lib/third_party/mbedtls/library\asn1write.c **** #if defined(MBEDTLS_PLATFORM_C)
  35:D:/Work/DeviceTester/amazon-freertos/lib/third_party/mbedtls/library\asn1write.c **** #include "mbedtls/platform.h"
  36:D:/Work/DeviceTester/amazon-freertos/lib/third_party/mbedtls/library\asn1write.c **** #else
  37:D:/Work/DeviceTester/amazon-freertos/lib/third_party/mbedtls/library\asn1write.c **** #include <stdlib.h>
  38:D:/Work/DeviceTester/amazon-freertos/lib/third_party/mbedtls/library\asn1write.c **** #define mbedtls_calloc    calloc
  39:D:/Work/DeviceTester/amazon-freertos/lib/third_party/mbedtls/library\asn1write.c **** #define mbedtls_free       free
  40:D:/Work/DeviceTester/amazon-freertos/lib/third_party/mbedtls/library\asn1write.c **** #endif
  41:D:/Work/DeviceTester/amazon-freertos/lib/third_party/mbedtls/library\asn1write.c **** 
  42:D:/Work/DeviceTester/amazon-freertos/lib/third_party/mbedtls/library\asn1write.c **** int mbedtls_asn1_write_len( unsigned char **p, unsigned char *start, size_t len )
  43:D:/Work/DeviceTester/amazon-freertos/lib/third_party/mbedtls/library\asn1write.c **** {
  26              		.loc 1 43 0
  27              		.cfi_startproc
  28              		@ args = 0, pretend = 0, frame = 0
  29              		@ frame_needed = 0, uses_anonymous_args = 0
  30              		@ link register save eliminated.
  31              	.LVL0:
  32 0000 003090E5 		ldr	r3, [r0]
  44:D:/Work/DeviceTester/amazon-freertos/lib/third_party/mbedtls/library\asn1write.c ****     if( len < 0x80 )
  33              		.loc 1 44 0
  34 0004 7F0052E3 		cmp	r2, #127
  45:D:/Work/DeviceTester/amazon-freertos/lib/third_party/mbedtls/library\asn1write.c ****     {
  46:D:/Work/DeviceTester/amazon-freertos/lib/third_party/mbedtls/library\asn1write.c ****         if( *p - start < 1 )
  35              		.loc 1 46 0
  36 0008 011043E0 		sub	r1, r3, r1
  37              	.LVL1:
  44:D:/Work/DeviceTester/amazon-freertos/lib/third_party/mbedtls/library\asn1write.c ****     if( len < 0x80 )
  38              		.loc 1 44 0
  39 000c 0600008A 		bhi	.L2
  40              		.loc 1 46 0
  41 0010 000051E3 		cmp	r1, #0
  42 0014 580000DA 		ble	.L11
  47:D:/Work/DeviceTester/amazon-freertos/lib/third_party/mbedtls/library\asn1write.c ****             return( MBEDTLS_ERR_ASN1_BUF_TOO_SMALL );
  48:D:/Work/DeviceTester/amazon-freertos/lib/third_party/mbedtls/library\asn1write.c **** 
  49:D:/Work/DeviceTester/amazon-freertos/lib/third_party/mbedtls/library\asn1write.c ****         *--(*p) = (unsigned char) len;
  43              		.loc 1 49 0
  44 0018 011043E2 		sub	r1, r3, #1
  45 001c 001080E5 		str	r1, [r0]
  50:D:/Work/DeviceTester/amazon-freertos/lib/third_party/mbedtls/library\asn1write.c ****         return( 1 );
  46              		.loc 1 50 0
  47 0020 0100A0E3 		mov	r0, #1
  48              	.LVL2:
  49:D:/Work/DeviceTester/amazon-freertos/lib/third_party/mbedtls/library\asn1write.c ****         return( 1 );
  49              		.loc 1 49 0
  50 0024 012043E5 		strb	r2, [r3, #-1]
  51              		.loc 1 50 0
  52 0028 1EFF2FE1 		bx	lr
  53              	.LVL3:
  54              	.L2:
  51:D:/Work/DeviceTester/amazon-freertos/lib/third_party/mbedtls/library\asn1write.c ****     }
  52:D:/Work/DeviceTester/amazon-freertos/lib/third_party/mbedtls/library\asn1write.c **** 
  53:D:/Work/DeviceTester/amazon-freertos/lib/third_party/mbedtls/library\asn1write.c ****     if( len <= 0xFF )
  55              		.loc 1 53 0
  56 002c FF0052E3 		cmp	r2, #255
  57 0030 0B00008A 		bhi	.L4
  54:D:/Work/DeviceTester/amazon-freertos/lib/third_party/mbedtls/library\asn1write.c ****     {
  55:D:/Work/DeviceTester/amazon-freertos/lib/third_party/mbedtls/library\asn1write.c ****         if( *p - start < 2 )
  58              		.loc 1 55 0
  59 0034 010051E3 		cmp	r1, #1
  60 0038 4F0000DA 		ble	.L11
  56:D:/Work/DeviceTester/amazon-freertos/lib/third_party/mbedtls/library\asn1write.c ****             return( MBEDTLS_ERR_ASN1_BUF_TOO_SMALL );
  57:D:/Work/DeviceTester/amazon-freertos/lib/third_party/mbedtls/library\asn1write.c **** 
  58:D:/Work/DeviceTester/amazon-freertos/lib/third_party/mbedtls/library\asn1write.c ****         *--(*p) = (unsigned char) len;
  61              		.loc 1 58 0
  62 003c 011043E2 		sub	r1, r3, #1
  63 0040 001080E5 		str	r1, [r0]
  64 0044 012043E5 		strb	r2, [r3, #-1]
  59:D:/Work/DeviceTester/amazon-freertos/lib/third_party/mbedtls/library\asn1write.c ****         *--(*p) = 0x81;
  65              		.loc 1 59 0
  66 0048 003090E5 		ldr	r3, [r0]
  67 004c 012043E2 		sub	r2, r3, #1
  68              	.LVL4:
  69 0050 002080E5 		str	r2, [r0]
  70 0054 7E20E0E3 		mvn	r2, #126
  71 0058 012043E5 		strb	r2, [r3, #-1]
  60:D:/Work/DeviceTester/amazon-freertos/lib/third_party/mbedtls/library\asn1write.c ****         return( 2 );
  72              		.loc 1 60 0
  73 005c 0200A0E3 		mov	r0, #2
  74              	.LVL5:
  75 0060 1EFF2FE1 		bx	lr
  76              	.LVL6:
  77              	.L4:
  78              	.LBB4:
  79              	.LBB5:
  61:D:/Work/DeviceTester/amazon-freertos/lib/third_party/mbedtls/library\asn1write.c ****     }
  62:D:/Work/DeviceTester/amazon-freertos/lib/third_party/mbedtls/library\asn1write.c **** 
  63:D:/Work/DeviceTester/amazon-freertos/lib/third_party/mbedtls/library\asn1write.c ****     if( len <= 0xFFFF )
  80              		.loc 1 63 0
  81 0064 010852E3 		cmp	r2, #65536
  82 0068 1000002A 		bcs	.L5
  64:D:/Work/DeviceTester/amazon-freertos/lib/third_party/mbedtls/library\asn1write.c ****     {
  65:D:/Work/DeviceTester/amazon-freertos/lib/third_party/mbedtls/library\asn1write.c ****         if( *p - start < 3 )
  83              		.loc 1 65 0
  84 006c 020051E3 		cmp	r1, #2
  85 0070 410000DA 		ble	.L11
  66:D:/Work/DeviceTester/amazon-freertos/lib/third_party/mbedtls/library\asn1write.c ****             return( MBEDTLS_ERR_ASN1_BUF_TOO_SMALL );
  67:D:/Work/DeviceTester/amazon-freertos/lib/third_party/mbedtls/library\asn1write.c **** 
  68:D:/Work/DeviceTester/amazon-freertos/lib/third_party/mbedtls/library\asn1write.c ****         *--(*p) = ( len       ) & 0xFF;
  86              		.loc 1 68 0
  87 0074 011043E2 		sub	r1, r3, #1
  88              	.LVL7:
  89 0078 001080E5 		str	r1, [r0]
  90 007c 012043E5 		strb	r2, [r3, #-1]
  69:D:/Work/DeviceTester/amazon-freertos/lib/third_party/mbedtls/library\asn1write.c ****         *--(*p) = ( len >>  8 ) & 0xFF;
  91              		.loc 1 69 0
  92 0080 2224A0E1 		lsr	r2, r2, #8
  93              	.LVL8:
  94 0084 003090E5 		ldr	r3, [r0]
  95              	.LVL9:
  96 0088 011043E2 		sub	r1, r3, #1
  97              	.LVL10:
  98 008c 001080E5 		str	r1, [r0]
  99 0090 012043E5 		strb	r2, [r3, #-1]
  70:D:/Work/DeviceTester/amazon-freertos/lib/third_party/mbedtls/library\asn1write.c ****         *--(*p) = 0x82;
 100              		.loc 1 70 0
 101 0094 003090E5 		ldr	r3, [r0]
 102 0098 012043E2 		sub	r2, r3, #1
 103 009c 002080E5 		str	r2, [r0]
 104 00a0 7D20E0E3 		mvn	r2, #125
 105 00a4 012043E5 		strb	r2, [r3, #-1]
  71:D:/Work/DeviceTester/amazon-freertos/lib/third_party/mbedtls/library\asn1write.c ****         return( 3 );
 106              		.loc 1 71 0
 107 00a8 0300A0E3 		mov	r0, #3
 108              	.LVL11:
 109 00ac 1EFF2FE1 		bx	lr
 110              	.LVL12:
 111              	.L5:
  72:D:/Work/DeviceTester/amazon-freertos/lib/third_party/mbedtls/library\asn1write.c ****     }
  73:D:/Work/DeviceTester/amazon-freertos/lib/third_party/mbedtls/library\asn1write.c **** 
  74:D:/Work/DeviceTester/amazon-freertos/lib/third_party/mbedtls/library\asn1write.c ****     if( len <= 0xFFFFFF )
 112              		.loc 1 74 0
 113 00b0 010452E3 		cmp	r2, #16777216
 114 00b4 1500002A 		bcs	.L6
  75:D:/Work/DeviceTester/amazon-freertos/lib/third_party/mbedtls/library\asn1write.c ****     {
  76:D:/Work/DeviceTester/amazon-freertos/lib/third_party/mbedtls/library\asn1write.c ****         if( *p - start < 4 )
 115              		.loc 1 76 0
 116 00b8 030051E3 		cmp	r1, #3
 117 00bc 2E0000DA 		ble	.L11
  77:D:/Work/DeviceTester/amazon-freertos/lib/third_party/mbedtls/library\asn1write.c ****             return( MBEDTLS_ERR_ASN1_BUF_TOO_SMALL );
  78:D:/Work/DeviceTester/amazon-freertos/lib/third_party/mbedtls/library\asn1write.c **** 
  79:D:/Work/DeviceTester/amazon-freertos/lib/third_party/mbedtls/library\asn1write.c ****         *--(*p) = ( len       ) & 0xFF;
 118              		.loc 1 79 0
 119 00c0 011043E2 		sub	r1, r3, #1
 120              	.LVL13:
 121 00c4 001080E5 		str	r1, [r0]
 122 00c8 012043E5 		strb	r2, [r3, #-1]
  80:D:/Work/DeviceTester/amazon-freertos/lib/third_party/mbedtls/library\asn1write.c ****         *--(*p) = ( len >>  8 ) & 0xFF;
 123              		.loc 1 80 0
 124 00cc 003090E5 		ldr	r3, [r0]
 125              	.LVL14:
 126 00d0 011043E2 		sub	r1, r3, #1
 127              	.LVL15:
 128 00d4 001080E5 		str	r1, [r0]
 129 00d8 2214A0E1 		lsr	r1, r2, #8
  81:D:/Work/DeviceTester/amazon-freertos/lib/third_party/mbedtls/library\asn1write.c ****         *--(*p) = ( len >> 16 ) & 0xFF;
 130              		.loc 1 81 0
 131 00dc 2228A0E1 		lsr	r2, r2, #16
 132              	.LVL16:
  80:D:/Work/DeviceTester/amazon-freertos/lib/third_party/mbedtls/library\asn1write.c ****         *--(*p) = ( len >>  8 ) & 0xFF;
 133              		.loc 1 80 0
 134 00e0 011043E5 		strb	r1, [r3, #-1]
 135              		.loc 1 81 0
 136 00e4 003090E5 		ldr	r3, [r0]
 137 00e8 011043E2 		sub	r1, r3, #1
 138 00ec 001080E5 		str	r1, [r0]
 139 00f0 012043E5 		strb	r2, [r3, #-1]
  82:D:/Work/DeviceTester/amazon-freertos/lib/third_party/mbedtls/library\asn1write.c ****         *--(*p) = 0x83;
 140              		.loc 1 82 0
 141 00f4 003090E5 		ldr	r3, [r0]
 142 00f8 012043E2 		sub	r2, r3, #1
 143 00fc 002080E5 		str	r2, [r0]
 144 0100 7C20E0E3 		mvn	r2, #124
 145 0104 012043E5 		strb	r2, [r3, #-1]
  83:D:/Work/DeviceTester/amazon-freertos/lib/third_party/mbedtls/library\asn1write.c ****         return( 4 );
 146              		.loc 1 83 0
 147 0108 0400A0E3 		mov	r0, #4
 148              	.LVL17:
 149 010c 1EFF2FE1 		bx	lr
 150              	.LVL18:
 151              	.L6:
  84:D:/Work/DeviceTester/amazon-freertos/lib/third_party/mbedtls/library\asn1write.c ****     }
  85:D:/Work/DeviceTester/amazon-freertos/lib/third_party/mbedtls/library\asn1write.c **** 
  86:D:/Work/DeviceTester/amazon-freertos/lib/third_party/mbedtls/library\asn1write.c **** #if SIZE_MAX > 0xFFFFFFFF
  87:D:/Work/DeviceTester/amazon-freertos/lib/third_party/mbedtls/library\asn1write.c ****     if( len <= 0xFFFFFFFF )
  88:D:/Work/DeviceTester/amazon-freertos/lib/third_party/mbedtls/library\asn1write.c **** #endif
  89:D:/Work/DeviceTester/amazon-freertos/lib/third_party/mbedtls/library\asn1write.c ****     {
  90:D:/Work/DeviceTester/amazon-freertos/lib/third_party/mbedtls/library\asn1write.c ****         if( *p - start < 5 )
 152              		.loc 1 90 0
 153 0110 040051E3 		cmp	r1, #4
 154 0114 180000DA 		ble	.L11
  91:D:/Work/DeviceTester/amazon-freertos/lib/third_party/mbedtls/library\asn1write.c ****             return( MBEDTLS_ERR_ASN1_BUF_TOO_SMALL );
  92:D:/Work/DeviceTester/amazon-freertos/lib/third_party/mbedtls/library\asn1write.c **** 
  93:D:/Work/DeviceTester/amazon-freertos/lib/third_party/mbedtls/library\asn1write.c ****         *--(*p) = ( len       ) & 0xFF;
 155              		.loc 1 93 0
 156 0118 011043E2 		sub	r1, r3, #1
 157              	.LVL19:
 158 011c 001080E5 		str	r1, [r0]
 159 0120 012043E5 		strb	r2, [r3, #-1]
  94:D:/Work/DeviceTester/amazon-freertos/lib/third_party/mbedtls/library\asn1write.c ****         *--(*p) = ( len >>  8 ) & 0xFF;
 160              		.loc 1 94 0
 161 0124 003090E5 		ldr	r3, [r0]
 162              	.LVL20:
 163 0128 011043E2 		sub	r1, r3, #1
 164              	.LVL21:
 165 012c 001080E5 		str	r1, [r0]
 166 0130 2214A0E1 		lsr	r1, r2, #8
 167 0134 011043E5 		strb	r1, [r3, #-1]
  95:D:/Work/DeviceTester/amazon-freertos/lib/third_party/mbedtls/library\asn1write.c ****         *--(*p) = ( len >> 16 ) & 0xFF;
 168              		.loc 1 95 0
 169 0138 003090E5 		ldr	r3, [r0]
 170 013c 011043E2 		sub	r1, r3, #1
 171 0140 001080E5 		str	r1, [r0]
 172 0144 2218A0E1 		lsr	r1, r2, #16
  96:D:/Work/DeviceTester/amazon-freertos/lib/third_party/mbedtls/library\asn1write.c ****         *--(*p) = ( len >> 24 ) & 0xFF;
 173              		.loc 1 96 0
 174 0148 222CA0E1 		lsr	r2, r2, #24
 175              	.LVL22:
  95:D:/Work/DeviceTester/amazon-freertos/lib/third_party/mbedtls/library\asn1write.c ****         *--(*p) = ( len >> 16 ) & 0xFF;
 176              		.loc 1 95 0
 177 014c 011043E5 		strb	r1, [r3, #-1]
 178              		.loc 1 96 0
 179 0150 003090E5 		ldr	r3, [r0]
 180 0154 011043E2 		sub	r1, r3, #1
 181 0158 001080E5 		str	r1, [r0]
 182 015c 012043E5 		strb	r2, [r3, #-1]
  97:D:/Work/DeviceTester/amazon-freertos/lib/third_party/mbedtls/library\asn1write.c ****         *--(*p) = 0x84;
 183              		.loc 1 97 0
 184 0160 003090E5 		ldr	r3, [r0]
 185 0164 012043E2 		sub	r2, r3, #1
 186 0168 002080E5 		str	r2, [r0]
 187 016c 7B20E0E3 		mvn	r2, #123
 188 0170 012043E5 		strb	r2, [r3, #-1]
  98:D:/Work/DeviceTester/amazon-freertos/lib/third_party/mbedtls/library\asn1write.c ****         return( 5 );
 189              		.loc 1 98 0
 190 0174 0500A0E3 		mov	r0, #5
 191              	.LVL23:
 192 0178 1EFF2FE1 		bx	lr
 193              	.LVL24:
 194              	.L11:
 195              	.LBE5:
 196              	.LBE4:
  47:D:/Work/DeviceTester/amazon-freertos/lib/third_party/mbedtls/library\asn1write.c **** 
 197              		.loc 1 47 0
 198 017c 6B00E0E3 		mvn	r0, #107
 199              	.LVL25:
  99:D:/Work/DeviceTester/amazon-freertos/lib/third_party/mbedtls/library\asn1write.c ****     }
 100:D:/Work/DeviceTester/amazon-freertos/lib/third_party/mbedtls/library\asn1write.c **** 
 101:D:/Work/DeviceTester/amazon-freertos/lib/third_party/mbedtls/library\asn1write.c **** #if SIZE_MAX > 0xFFFFFFFF
 102:D:/Work/DeviceTester/amazon-freertos/lib/third_party/mbedtls/library\asn1write.c ****     return( MBEDTLS_ERR_ASN1_INVALID_LENGTH );
 103:D:/Work/DeviceTester/amazon-freertos/lib/third_party/mbedtls/library\asn1write.c **** #endif
 104:D:/Work/DeviceTester/amazon-freertos/lib/third_party/mbedtls/library\asn1write.c **** }
 200              		.loc 1 104 0
 201 0180 1EFF2FE1 		bx	lr
 202              		.cfi_endproc
 203              	.LFE1:
 205              		.section	.text.mbedtls_asn1_write_tag,"ax",%progbits
 206              		.align	2
 207              		.global	mbedtls_asn1_write_tag
 208              		.syntax unified
 209              		.arm
 210              		.fpu neon
 212              	mbedtls_asn1_write_tag:
 213              	.LFB2:
 105:D:/Work/DeviceTester/amazon-freertos/lib/third_party/mbedtls/library\asn1write.c **** 
 106:D:/Work/DeviceTester/amazon-freertos/lib/third_party/mbedtls/library\asn1write.c **** int mbedtls_asn1_write_tag( unsigned char **p, unsigned char *start, unsigned char tag )
 107:D:/Work/DeviceTester/amazon-freertos/lib/third_party/mbedtls/library\asn1write.c **** {
 214              		.loc 1 107 0
 215              		.cfi_startproc
 216              		@ args = 0, pretend = 0, frame = 0
 217              		@ frame_needed = 0, uses_anonymous_args = 0
 218              		@ link register save eliminated.
 219              	.LVL26:
 108:D:/Work/DeviceTester/amazon-freertos/lib/third_party/mbedtls/library\asn1write.c ****     if( *p - start < 1 )
 220              		.loc 1 108 0
 221 0000 003090E5 		ldr	r3, [r0]
 222 0004 011043E0 		sub	r1, r3, r1
 223              	.LVL27:
 224 0008 000051E3 		cmp	r1, #0
 109:D:/Work/DeviceTester/amazon-freertos/lib/third_party/mbedtls/library\asn1write.c ****         return( MBEDTLS_ERR_ASN1_BUF_TOO_SMALL );
 110:D:/Work/DeviceTester/amazon-freertos/lib/third_party/mbedtls/library\asn1write.c **** 
 111:D:/Work/DeviceTester/amazon-freertos/lib/third_party/mbedtls/library\asn1write.c ****     *--(*p) = tag;
 225              		.loc 1 111 0
 226 000c 011043C2 		subgt	r1, r3, #1
 227 0010 001080C5 		strgt	r1, [r0]
 112:D:/Work/DeviceTester/amazon-freertos/lib/third_party/mbedtls/library\asn1write.c **** 
 113:D:/Work/DeviceTester/amazon-freertos/lib/third_party/mbedtls/library\asn1write.c ****     return( 1 );
 228              		.loc 1 113 0
 229 0014 0100A0C3 		movgt	r0, #1
 230              	.LVL28:
 111:D:/Work/DeviceTester/amazon-freertos/lib/third_party/mbedtls/library\asn1write.c **** 
 231              		.loc 1 111 0
 232 0018 012043C5 		strbgt	r2, [r3, #-1]
 109:D:/Work/DeviceTester/amazon-freertos/lib/third_party/mbedtls/library\asn1write.c ****         return( MBEDTLS_ERR_ASN1_BUF_TOO_SMALL );
 233              		.loc 1 109 0
 234 001c 6B00E0D3 		mvnle	r0, #107
 114:D:/Work/DeviceTester/amazon-freertos/lib/third_party/mbedtls/library\asn1write.c **** }
 235              		.loc 1 114 0
 236 0020 1EFF2FE1 		bx	lr
 237              		.cfi_endproc
 238              	.LFE2:
 240              		.section	.text.mbedtls_asn1_write_raw_buffer,"ax",%progbits
 241              		.align	2
 242              		.global	mbedtls_asn1_write_raw_buffer
 243              		.syntax unified
 244              		.arm
 245              		.fpu neon
 247              	mbedtls_asn1_write_raw_buffer:
 248              	.LFB3:
 115:D:/Work/DeviceTester/amazon-freertos/lib/third_party/mbedtls/library\asn1write.c **** 
 116:D:/Work/DeviceTester/amazon-freertos/lib/third_party/mbedtls/library\asn1write.c **** int mbedtls_asn1_write_raw_buffer( unsigned char **p, unsigned char *start,
 117:D:/Work/DeviceTester/amazon-freertos/lib/third_party/mbedtls/library\asn1write.c ****                            const unsigned char *buf, size_t size )
 118:D:/Work/DeviceTester/amazon-freertos/lib/third_party/mbedtls/library\asn1write.c **** {
 249              		.loc 1 118 0
 250              		.cfi_startproc
 251              		@ args = 0, pretend = 0, frame = 0
 252              		@ frame_needed = 0, uses_anonymous_args = 0
 253              	.LVL29:
 119:D:/Work/DeviceTester/amazon-freertos/lib/third_party/mbedtls/library\asn1write.c ****     size_t len = 0;
 120:D:/Work/DeviceTester/amazon-freertos/lib/third_party/mbedtls/library\asn1write.c **** 
 121:D:/Work/DeviceTester/amazon-freertos/lib/third_party/mbedtls/library\asn1write.c ****     if( *p < start || (size_t)( *p - start ) < size )
 254              		.loc 1 121 0
 255 0000 00C090E5 		ldr	ip, [r0]
 256 0004 01005CE1 		cmp	ip, r1
 257 0008 0C00003A 		bcc	.L17
 118:D:/Work/DeviceTester/amazon-freertos/lib/third_party/mbedtls/library\asn1write.c ****     size_t len = 0;
 258              		.loc 1 118 0 discriminator 1
 259 000c 10402DE9 		push	{r4, lr}
 260              		.cfi_def_cfa_offset 8
 261              		.cfi_offset 4, -8
 262              		.cfi_offset 14, -4
 263              		.loc 1 121 0 discriminator 1
 264 0010 01E04CE0 		sub	lr, ip, r1
 265 0014 03005EE1 		cmp	lr, r3
 266 0018 0A00003A 		bcc	.L18
 267 001c 0340A0E1 		mov	r4, r3
 268 0020 0030A0E1 		mov	r3, r0
 269              	.LVL30:
 122:D:/Work/DeviceTester/amazon-freertos/lib/third_party/mbedtls/library\asn1write.c ****         return( MBEDTLS_ERR_ASN1_BUF_TOO_SMALL );
 123:D:/Work/DeviceTester/amazon-freertos/lib/third_party/mbedtls/library\asn1write.c **** 
 124:D:/Work/DeviceTester/amazon-freertos/lib/third_party/mbedtls/library\asn1write.c ****     len = size;
 125:D:/Work/DeviceTester/amazon-freertos/lib/third_party/mbedtls/library\asn1write.c ****     (*p) -= len;
 270              		.loc 1 125 0
 271 0024 04004CE0 		sub	r0, ip, r4
 272              	.LVL31:
 273 0028 0210A0E1 		mov	r1, r2
 274              	.LVL32:
 275 002c 000083E5 		str	r0, [r3]
 126:D:/Work/DeviceTester/amazon-freertos/lib/third_party/mbedtls/library\asn1write.c ****     memcpy( *p, buf, len );
 276              		.loc 1 126 0
 277 0030 0420A0E1 		mov	r2, r4
 278              	.LVL33:
 279 0034 FEFFFFEB 		bl	memcpy
 280              	.LVL34:
 127:D:/Work/DeviceTester/amazon-freertos/lib/third_party/mbedtls/library\asn1write.c **** 
 128:D:/Work/DeviceTester/amazon-freertos/lib/third_party/mbedtls/library\asn1write.c ****     return( (int) len );
 281              		.loc 1 128 0
 282 0038 0400A0E1 		mov	r0, r4
 283 003c 1080BDE8 		pop	{r4, pc}
 284              	.LVL35:
 285              	.L17:
 286              		.cfi_def_cfa_offset 0
 287              		.cfi_restore 4
 288              		.cfi_restore 14
 122:D:/Work/DeviceTester/amazon-freertos/lib/third_party/mbedtls/library\asn1write.c **** 
 289              		.loc 1 122 0
 290 0040 6B00E0E3 		mvn	r0, #107
 291              	.LVL36:
 292 0044 1EFF2FE1 		bx	lr
 293              	.LVL37:
 294              	.L18:
 295              		.cfi_def_cfa_offset 8
 296              		.cfi_offset 4, -8
 297              		.cfi_offset 14, -4
 298 0048 6B00E0E3 		mvn	r0, #107
 299              	.LVL38:
 129:D:/Work/DeviceTester/amazon-freertos/lib/third_party/mbedtls/library\asn1write.c **** }
 300              		.loc 1 129 0
 301 004c 1080BDE8 		pop	{r4, pc}
 302              		.cfi_endproc
 303              	.LFE3:
 305              		.section	.text.mbedtls_asn1_write_mpi,"ax",%progbits
 306              		.align	2
 307              		.global	mbedtls_asn1_write_mpi
 308              		.syntax unified
 309              		.arm
 310              		.fpu neon
 312              	mbedtls_asn1_write_mpi:
 313              	.LFB4:
 130:D:/Work/DeviceTester/amazon-freertos/lib/third_party/mbedtls/library\asn1write.c **** 
 131:D:/Work/DeviceTester/amazon-freertos/lib/third_party/mbedtls/library\asn1write.c **** #if defined(MBEDTLS_BIGNUM_C)
 132:D:/Work/DeviceTester/amazon-freertos/lib/third_party/mbedtls/library\asn1write.c **** int mbedtls_asn1_write_mpi( unsigned char **p, unsigned char *start, const mbedtls_mpi *X )
 133:D:/Work/DeviceTester/amazon-freertos/lib/third_party/mbedtls/library\asn1write.c **** {
 314              		.loc 1 133 0
 315              		.cfi_startproc
 316              		@ args = 0, pretend = 0, frame = 0
 317              		@ frame_needed = 0, uses_anonymous_args = 0
 318              	.LVL39:
 319 0000 F0412DE9 		push	{r4, r5, r6, r7, r8, lr}
 320              		.cfi_def_cfa_offset 24
 321              		.cfi_offset 4, -24
 322              		.cfi_offset 5, -20
 323              		.cfi_offset 6, -16
 324              		.cfi_offset 7, -12
 325              		.cfi_offset 8, -8
 326              		.cfi_offset 14, -4
 327              		.loc 1 133 0
 328 0004 0050A0E1 		mov	r5, r0
 134:D:/Work/DeviceTester/amazon-freertos/lib/third_party/mbedtls/library\asn1write.c ****     int ret;
 135:D:/Work/DeviceTester/amazon-freertos/lib/third_party/mbedtls/library\asn1write.c ****     size_t len = 0;
 136:D:/Work/DeviceTester/amazon-freertos/lib/third_party/mbedtls/library\asn1write.c **** 
 137:D:/Work/DeviceTester/amazon-freertos/lib/third_party/mbedtls/library\asn1write.c ****     // Write the MPI
 138:D:/Work/DeviceTester/amazon-freertos/lib/third_party/mbedtls/library\asn1write.c ****     //
 139:D:/Work/DeviceTester/amazon-freertos/lib/third_party/mbedtls/library\asn1write.c ****     len = mbedtls_mpi_size( X );
 329              		.loc 1 139 0
 330 0008 0200A0E1 		mov	r0, r2
 331              	.LVL40:
 133:D:/Work/DeviceTester/amazon-freertos/lib/third_party/mbedtls/library\asn1write.c ****     int ret;
 332              		.loc 1 133 0
 333 000c 0160A0E1 		mov	r6, r1
 334 0010 0270A0E1 		mov	r7, r2
 335              		.loc 1 139 0
 336 0014 FEFFFFEB 		bl	mbedtls_mpi_size
 337              	.LVL41:
 140:D:/Work/DeviceTester/amazon-freertos/lib/third_party/mbedtls/library\asn1write.c **** 
 141:D:/Work/DeviceTester/amazon-freertos/lib/third_party/mbedtls/library\asn1write.c ****     if( *p < start || (size_t)( *p - start ) < len )
 338              		.loc 1 141 0
 339 0018 001095E5 		ldr	r1, [r5]
 340 001c 060051E1 		cmp	r1, r6
 341 0020 0100002A 		bcs	.L24
 342              	.LVL42:
 343              	.L26:
 142:D:/Work/DeviceTester/amazon-freertos/lib/third_party/mbedtls/library\asn1write.c ****         return( MBEDTLS_ERR_ASN1_BUF_TOO_SMALL );
 344              		.loc 1 142 0
 345 0024 6B00E0E3 		mvn	r0, #107
 346 0028 F081BDE8 		pop	{r4, r5, r6, r7, r8, pc}
 347              	.LVL43:
 348              	.L24:
 141:D:/Work/DeviceTester/amazon-freertos/lib/third_party/mbedtls/library\asn1write.c ****         return( MBEDTLS_ERR_ASN1_BUF_TOO_SMALL );
 349              		.loc 1 141 0 discriminator 1
 350 002c 063041E0 		sub	r3, r1, r6
 351 0030 0040A0E1 		mov	r4, r0
 352 0034 030050E1 		cmp	r0, r3
 353 0038 F9FFFF8A 		bhi	.L26
 143:D:/Work/DeviceTester/amazon-freertos/lib/third_party/mbedtls/library\asn1write.c **** 
 144:D:/Work/DeviceTester/amazon-freertos/lib/third_party/mbedtls/library\asn1write.c ****     (*p) -= len;
 354              		.loc 1 144 0
 355 003c 001041E0 		sub	r1, r1, r0
 145:D:/Work/DeviceTester/amazon-freertos/lib/third_party/mbedtls/library\asn1write.c ****     MBEDTLS_MPI_CHK( mbedtls_mpi_write_binary( X, *p, len ) );
 356              		.loc 1 145 0
 357 0040 0020A0E1 		mov	r2, r0
 144:D:/Work/DeviceTester/amazon-freertos/lib/third_party/mbedtls/library\asn1write.c ****     MBEDTLS_MPI_CHK( mbedtls_mpi_write_binary( X, *p, len ) );
 358              		.loc 1 144 0
 359 0044 001085E5 		str	r1, [r5]
 360              		.loc 1 145 0
 361 0048 0700A0E1 		mov	r0, r7
 362              	.LVL44:
 363 004c FEFFFFEB 		bl	mbedtls_mpi_write_binary
 364              	.LVL45:
 365 0050 000050E3 		cmp	r0, #0
 366 0054 F081BD18 		popne	{r4, r5, r6, r7, r8, pc}
 146:D:/Work/DeviceTester/amazon-freertos/lib/third_party/mbedtls/library\asn1write.c **** 
 147:D:/Work/DeviceTester/amazon-freertos/lib/third_party/mbedtls/library\asn1write.c ****     // DER format assumes 2s complement for numbers, so the leftmost bit
 148:D:/Work/DeviceTester/amazon-freertos/lib/third_party/mbedtls/library\asn1write.c ****     // should be 0 for positive numbers and 1 for negative numbers.
 149:D:/Work/DeviceTester/amazon-freertos/lib/third_party/mbedtls/library\asn1write.c ****     //
 150:D:/Work/DeviceTester/amazon-freertos/lib/third_party/mbedtls/library\asn1write.c ****     if( X->s ==1 && **p & 0x80 )
 367              		.loc 1 150 0
 368 0058 003097E5 		ldr	r3, [r7]
 369 005c 010053E3 		cmp	r3, #1
 370 0060 0A00001A 		bne	.L27
 371              		.loc 1 150 0 is_stmt 0 discriminator 1
 372 0064 003095E5 		ldr	r3, [r5]
 373 0068 D020D3E1 		ldrsb	r2, [r3]
 374 006c 000052E3 		cmp	r2, #0
 375 0070 060000AA 		bge	.L27
 151:D:/Work/DeviceTester/amazon-freertos/lib/third_party/mbedtls/library\asn1write.c ****     {
 152:D:/Work/DeviceTester/amazon-freertos/lib/third_party/mbedtls/library\asn1write.c ****         if( *p - start < 1 )
 376              		.loc 1 152 0 is_stmt 1
 377 0074 062043E0 		sub	r2, r3, r6
 378 0078 000052E3 		cmp	r2, #0
 379 007c E8FFFFDA 		ble	.L26
 153:D:/Work/DeviceTester/amazon-freertos/lib/third_party/mbedtls/library\asn1write.c ****             return( MBEDTLS_ERR_ASN1_BUF_TOO_SMALL );
 154:D:/Work/DeviceTester/amazon-freertos/lib/third_party/mbedtls/library\asn1write.c **** 
 155:D:/Work/DeviceTester/amazon-freertos/lib/third_party/mbedtls/library\asn1write.c ****         *--(*p) = 0x00;
 156:D:/Work/DeviceTester/amazon-freertos/lib/third_party/mbedtls/library\asn1write.c ****         len += 1;
 380              		.loc 1 156 0
 381 0080 014084E2 		add	r4, r4, #1
 382              	.LVL46:
 155:D:/Work/DeviceTester/amazon-freertos/lib/third_party/mbedtls/library\asn1write.c ****         len += 1;
 383              		.loc 1 155 0
 384 0084 012043E2 		sub	r2, r3, #1
 385 0088 002085E5 		str	r2, [r5]
 386 008c 010043E5 		strb	r0, [r3, #-1]
 387              	.LVL47:
 388              	.L27:
 157:D:/Work/DeviceTester/amazon-freertos/lib/third_party/mbedtls/library\asn1write.c ****     }
 158:D:/Work/DeviceTester/amazon-freertos/lib/third_party/mbedtls/library\asn1write.c **** 
 159:D:/Work/DeviceTester/amazon-freertos/lib/third_party/mbedtls/library\asn1write.c ****     MBEDTLS_ASN1_CHK_ADD( len, mbedtls_asn1_write_len( p, start, len ) );
 389              		.loc 1 159 0
 390 0090 0420A0E1 		mov	r2, r4
 391 0094 0610A0E1 		mov	r1, r6
 392 0098 0500A0E1 		mov	r0, r5
 393              	.LVL48:
 394 009c FEFFFFEB 		bl	mbedtls_asn1_write_len
 395              	.LVL49:
 396 00a0 000050E3 		cmp	r0, #0
 397 00a4 F081BDB8 		poplt	{r4, r5, r6, r7, r8, pc}
 398              		.loc 1 159 0 is_stmt 0 discriminator 2
 399 00a8 044080E0 		add	r4, r0, r4
 400              	.LVL50:
 160:D:/Work/DeviceTester/amazon-freertos/lib/third_party/mbedtls/library\asn1write.c ****     MBEDTLS_ASN1_CHK_ADD( len, mbedtls_asn1_write_tag( p, start, MBEDTLS_ASN1_INTEGER ) );
 401              		.loc 1 160 0 is_stmt 1 discriminator 2
 402 00ac 0220A0E3 		mov	r2, #2
 403 00b0 0610A0E1 		mov	r1, r6
 404 00b4 0500A0E1 		mov	r0, r5
 405              	.LVL51:
 406 00b8 FEFFFFEB 		bl	mbedtls_asn1_write_tag
 407              	.LVL52:
 408 00bc 000050E3 		cmp	r0, #0
 409 00c0 040080A0 		addge	r0, r0, r4
 410              	.LVL53:
 161:D:/Work/DeviceTester/amazon-freertos/lib/third_party/mbedtls/library\asn1write.c **** 
 162:D:/Work/DeviceTester/amazon-freertos/lib/third_party/mbedtls/library\asn1write.c ****     ret = (int) len;
 163:D:/Work/DeviceTester/amazon-freertos/lib/third_party/mbedtls/library\asn1write.c **** 
 164:D:/Work/DeviceTester/amazon-freertos/lib/third_party/mbedtls/library\asn1write.c **** cleanup:
 165:D:/Work/DeviceTester/amazon-freertos/lib/third_party/mbedtls/library\asn1write.c ****     return( ret );
 166:D:/Work/DeviceTester/amazon-freertos/lib/third_party/mbedtls/library\asn1write.c **** }
 411              		.loc 1 166 0 discriminator 2
 412 00c4 F081BDE8 		pop	{r4, r5, r6, r7, r8, pc}
 413              		.cfi_endproc
 414              	.LFE4:
 416              		.section	.text.mbedtls_asn1_write_null,"ax",%progbits
 417              		.align	2
 418              		.global	mbedtls_asn1_write_null
 419              		.syntax unified
 420              		.arm
 421              		.fpu neon
 423              	mbedtls_asn1_write_null:
 424              	.LFB5:
 167:D:/Work/DeviceTester/amazon-freertos/lib/third_party/mbedtls/library\asn1write.c **** #endif /* MBEDTLS_BIGNUM_C */
 168:D:/Work/DeviceTester/amazon-freertos/lib/third_party/mbedtls/library\asn1write.c **** 
 169:D:/Work/DeviceTester/amazon-freertos/lib/third_party/mbedtls/library\asn1write.c **** int mbedtls_asn1_write_null( unsigned char **p, unsigned char *start )
 170:D:/Work/DeviceTester/amazon-freertos/lib/third_party/mbedtls/library\asn1write.c **** {
 425              		.loc 1 170 0
 426              		.cfi_startproc
 427              		@ args = 0, pretend = 0, frame = 0
 428              		@ frame_needed = 0, uses_anonymous_args = 0
 429              	.LVL54:
 430 0000 70402DE9 		push	{r4, r5, r6, lr}
 431              		.cfi_def_cfa_offset 16
 432              		.cfi_offset 4, -16
 433              		.cfi_offset 5, -12
 434              		.cfi_offset 6, -8
 435              		.cfi_offset 14, -4
 171:D:/Work/DeviceTester/amazon-freertos/lib/third_party/mbedtls/library\asn1write.c ****     int ret;
 172:D:/Work/DeviceTester/amazon-freertos/lib/third_party/mbedtls/library\asn1write.c ****     size_t len = 0;
 173:D:/Work/DeviceTester/amazon-freertos/lib/third_party/mbedtls/library\asn1write.c **** 
 174:D:/Work/DeviceTester/amazon-freertos/lib/third_party/mbedtls/library\asn1write.c ****     // Write NULL
 175:D:/Work/DeviceTester/amazon-freertos/lib/third_party/mbedtls/library\asn1write.c ****     //
 176:D:/Work/DeviceTester/amazon-freertos/lib/third_party/mbedtls/library\asn1write.c ****     MBEDTLS_ASN1_CHK_ADD( len, mbedtls_asn1_write_len( p, start, 0) );
 436              		.loc 1 176 0
 437 0004 0020A0E3 		mov	r2, #0
 170:D:/Work/DeviceTester/amazon-freertos/lib/third_party/mbedtls/library\asn1write.c ****     int ret;
 438              		.loc 1 170 0
 439 0008 0050A0E1 		mov	r5, r0
 440 000c 0160A0E1 		mov	r6, r1
 441              		.loc 1 176 0
 442 0010 FEFFFFEB 		bl	mbedtls_asn1_write_len
 443              	.LVL55:
 444 0014 000050E3 		cmp	r0, #0
 445 0018 7080BDB8 		poplt	{r4, r5, r6, pc}
 446              		.loc 1 176 0 is_stmt 0 discriminator 2
 447 001c 0040A0E1 		mov	r4, r0
 448              	.LVL56:
 177:D:/Work/DeviceTester/amazon-freertos/lib/third_party/mbedtls/library\asn1write.c ****     MBEDTLS_ASN1_CHK_ADD( len, mbedtls_asn1_write_tag( p, start, MBEDTLS_ASN1_NULL ) );
 449              		.loc 1 177 0 is_stmt 1 discriminator 2
 450 0020 0520A0E3 		mov	r2, #5
 451 0024 0610A0E1 		mov	r1, r6
 452 0028 0500A0E1 		mov	r0, r5
 453              	.LVL57:
 454 002c FEFFFFEB 		bl	mbedtls_asn1_write_tag
 455              	.LVL58:
 456 0030 000050E3 		cmp	r0, #0
 457              	.LVL59:
 458 0034 040080A0 		addge	r0, r0, r4
 459              	.LVL60:
 178:D:/Work/DeviceTester/amazon-freertos/lib/third_party/mbedtls/library\asn1write.c **** 
 179:D:/Work/DeviceTester/amazon-freertos/lib/third_party/mbedtls/library\asn1write.c ****     return( (int) len );
 180:D:/Work/DeviceTester/amazon-freertos/lib/third_party/mbedtls/library\asn1write.c **** }
 460              		.loc 1 180 0 discriminator 2
 461 0038 7080BDE8 		pop	{r4, r5, r6, pc}
 462              		.cfi_endproc
 463              	.LFE5:
 465              		.section	.text.mbedtls_asn1_write_oid,"ax",%progbits
 466              		.align	2
 467              		.global	mbedtls_asn1_write_oid
 468              		.syntax unified
 469              		.arm
 470              		.fpu neon
 472              	mbedtls_asn1_write_oid:
 473              	.LFB6:
 181:D:/Work/DeviceTester/amazon-freertos/lib/third_party/mbedtls/library\asn1write.c **** 
 182:D:/Work/DeviceTester/amazon-freertos/lib/third_party/mbedtls/library\asn1write.c **** int mbedtls_asn1_write_oid( unsigned char **p, unsigned char *start,
 183:D:/Work/DeviceTester/amazon-freertos/lib/third_party/mbedtls/library\asn1write.c ****                     const char *oid, size_t oid_len )
 184:D:/Work/DeviceTester/amazon-freertos/lib/third_party/mbedtls/library\asn1write.c **** {
 474              		.loc 1 184 0
 475              		.cfi_startproc
 476              		@ args = 0, pretend = 0, frame = 0
 477              		@ frame_needed = 0, uses_anonymous_args = 0
 478              	.LVL61:
 479 0000 70402DE9 		push	{r4, r5, r6, lr}
 480              		.cfi_def_cfa_offset 16
 481              		.cfi_offset 4, -16
 482              		.cfi_offset 5, -12
 483              		.cfi_offset 6, -8
 484              		.cfi_offset 14, -4
 485              		.loc 1 184 0
 486 0004 0050A0E1 		mov	r5, r0
 487 0008 0160A0E1 		mov	r6, r1
 185:D:/Work/DeviceTester/amazon-freertos/lib/third_party/mbedtls/library\asn1write.c ****     int ret;
 186:D:/Work/DeviceTester/amazon-freertos/lib/third_party/mbedtls/library\asn1write.c ****     size_t len = 0;
 187:D:/Work/DeviceTester/amazon-freertos/lib/third_party/mbedtls/library\asn1write.c **** 
 188:D:/Work/DeviceTester/amazon-freertos/lib/third_party/mbedtls/library\asn1write.c ****     MBEDTLS_ASN1_CHK_ADD( len, mbedtls_asn1_write_raw_buffer( p, start,
 488              		.loc 1 188 0
 489 000c FEFFFFEB 		bl	mbedtls_asn1_write_raw_buffer
 490              	.LVL62:
 491 0010 000050E3 		cmp	r0, #0
 492 0014 7080BDB8 		poplt	{r4, r5, r6, pc}
 189:D:/Work/DeviceTester/amazon-freertos/lib/third_party/mbedtls/library\asn1write.c ****                                   (const unsigned char *) oid, oid_len ) );
 190:D:/Work/DeviceTester/amazon-freertos/lib/third_party/mbedtls/library\asn1write.c ****     MBEDTLS_ASN1_CHK_ADD( len , mbedtls_asn1_write_len( p, start, len ) );
 493              		.loc 1 190 0 discriminator 2
 494 0018 0020A0E1 		mov	r2, r0
 188:D:/Work/DeviceTester/amazon-freertos/lib/third_party/mbedtls/library\asn1write.c ****                                   (const unsigned char *) oid, oid_len ) );
 495              		.loc 1 188 0 discriminator 2
 496 001c 0040A0E1 		mov	r4, r0
 497              	.LVL63:
 498              		.loc 1 190 0 discriminator 2
 499 0020 0610A0E1 		mov	r1, r6
 500 0024 0500A0E1 		mov	r0, r5
 501              	.LVL64:
 502 0028 FEFFFFEB 		bl	mbedtls_asn1_write_len
 503              	.LVL65:
 504 002c 000050E3 		cmp	r0, #0
 505 0030 7080BDB8 		poplt	{r4, r5, r6, pc}
 506 0034 044080E0 		add	r4, r0, r4
 507              	.LVL66:
 191:D:/Work/DeviceTester/amazon-freertos/lib/third_party/mbedtls/library\asn1write.c ****     MBEDTLS_ASN1_CHK_ADD( len , mbedtls_asn1_write_tag( p, start, MBEDTLS_ASN1_OID ) );
 508              		.loc 1 191 0 discriminator 2
 509 0038 0620A0E3 		mov	r2, #6
 510 003c 0610A0E1 		mov	r1, r6
 511 0040 0500A0E1 		mov	r0, r5
 512              	.LVL67:
 513 0044 FEFFFFEB 		bl	mbedtls_asn1_write_tag
 514              	.LVL68:
 515 0048 000050E3 		cmp	r0, #0
 516              	.LVL69:
 517 004c 040080A0 		addge	r0, r0, r4
 518              	.LVL70:
 192:D:/Work/DeviceTester/amazon-freertos/lib/third_party/mbedtls/library\asn1write.c **** 
 193:D:/Work/DeviceTester/amazon-freertos/lib/third_party/mbedtls/library\asn1write.c ****     return( (int) len );
 194:D:/Work/DeviceTester/amazon-freertos/lib/third_party/mbedtls/library\asn1write.c **** }
 519              		.loc 1 194 0 discriminator 2
 520 0050 7080BDE8 		pop	{r4, r5, r6, pc}
 521              		.cfi_endproc
 522              	.LFE6:
 524              		.section	.text.mbedtls_asn1_write_algorithm_identifier,"ax",%progbits
 525              		.align	2
 526              		.global	mbedtls_asn1_write_algorithm_identifier
 527              		.syntax unified
 528              		.arm
 529              		.fpu neon
 531              	mbedtls_asn1_write_algorithm_identifier:
 532              	.LFB7:
 195:D:/Work/DeviceTester/amazon-freertos/lib/third_party/mbedtls/library\asn1write.c **** 
 196:D:/Work/DeviceTester/amazon-freertos/lib/third_party/mbedtls/library\asn1write.c **** int mbedtls_asn1_write_algorithm_identifier( unsigned char **p, unsigned char *start,
 197:D:/Work/DeviceTester/amazon-freertos/lib/third_party/mbedtls/library\asn1write.c ****                                      const char *oid, size_t oid_len,
 198:D:/Work/DeviceTester/amazon-freertos/lib/third_party/mbedtls/library\asn1write.c ****                                      size_t par_len )
 199:D:/Work/DeviceTester/amazon-freertos/lib/third_party/mbedtls/library\asn1write.c **** {
 533              		.loc 1 199 0
 534              		.cfi_startproc
 535              		@ args = 4, pretend = 0, frame = 0
 536              		@ frame_needed = 0, uses_anonymous_args = 0
 537              	.LVL71:
 538 0000 F0412DE9 		push	{r4, r5, r6, r7, r8, lr}
 539              		.cfi_def_cfa_offset 24
 540              		.cfi_offset 4, -24
 541              		.cfi_offset 5, -20
 542              		.cfi_offset 6, -16
 543              		.cfi_offset 7, -12
 544              		.cfi_offset 8, -8
 545              		.cfi_offset 14, -4
 546              		.loc 1 199 0
 547 0004 0050A0E1 		mov	r5, r0
 548 0008 18409DE5 		ldr	r4, [sp, #24]
 549 000c 0160A0E1 		mov	r6, r1
 550 0010 0270A0E1 		mov	r7, r2
 551 0014 0380A0E1 		mov	r8, r3
 200:D:/Work/DeviceTester/amazon-freertos/lib/third_party/mbedtls/library\asn1write.c ****     int ret;
 201:D:/Work/DeviceTester/amazon-freertos/lib/third_party/mbedtls/library\asn1write.c ****     size_t len = 0;
 202:D:/Work/DeviceTester/amazon-freertos/lib/third_party/mbedtls/library\asn1write.c **** 
 203:D:/Work/DeviceTester/amazon-freertos/lib/third_party/mbedtls/library\asn1write.c ****     if( par_len == 0 )
 552              		.loc 1 203 0
 553 0018 000054E3 		cmp	r4, #0
 554 001c 0300001A 		bne	.L36
 204:D:/Work/DeviceTester/amazon-freertos/lib/third_party/mbedtls/library\asn1write.c ****         MBEDTLS_ASN1_CHK_ADD( len, mbedtls_asn1_write_null( p, start ) );
 555              		.loc 1 204 0
 556 0020 FEFFFFEB 		bl	mbedtls_asn1_write_null
 557              	.LVL72:
 558 0024 000050E3 		cmp	r0, #0
 559 0028 F081BDB8 		poplt	{r4, r5, r6, r7, r8, pc}
 560              		.loc 1 204 0 is_stmt 0 discriminator 2
 561 002c 0040A0E1 		mov	r4, r0
 562              	.LVL73:
 563              	.L36:
 205:D:/Work/DeviceTester/amazon-freertos/lib/third_party/mbedtls/library\asn1write.c ****     else
 206:D:/Work/DeviceTester/amazon-freertos/lib/third_party/mbedtls/library\asn1write.c ****         len += par_len;
 207:D:/Work/DeviceTester/amazon-freertos/lib/third_party/mbedtls/library\asn1write.c **** 
 208:D:/Work/DeviceTester/amazon-freertos/lib/third_party/mbedtls/library\asn1write.c ****     MBEDTLS_ASN1_CHK_ADD( len, mbedtls_asn1_write_oid( p, start, oid, oid_len ) );
 564              		.loc 1 208 0 is_stmt 1
 565 0030 0830A0E1 		mov	r3, r8
 566 0034 0720A0E1 		mov	r2, r7
 567 0038 0610A0E1 		mov	r1, r6
 568 003c 0500A0E1 		mov	r0, r5
 569 0040 FEFFFFEB 		bl	mbedtls_asn1_write_oid
 570              	.LVL74:
 571 0044 000050E3 		cmp	r0, #0
 572 0048 F081BDB8 		poplt	{r4, r5, r6, r7, r8, pc}
 573              		.loc 1 208 0 is_stmt 0 discriminator 2
 574 004c 044080E0 		add	r4, r0, r4
 575              	.LVL75:
 209:D:/Work/DeviceTester/amazon-freertos/lib/third_party/mbedtls/library\asn1write.c **** 
 210:D:/Work/DeviceTester/amazon-freertos/lib/third_party/mbedtls/library\asn1write.c ****     MBEDTLS_ASN1_CHK_ADD( len, mbedtls_asn1_write_len( p, start, len ) );
 576              		.loc 1 210 0 is_stmt 1 discriminator 2
 577 0050 0610A0E1 		mov	r1, r6
 578 0054 0420A0E1 		mov	r2, r4
 579 0058 0500A0E1 		mov	r0, r5
 580              	.LVL76:
 581 005c FEFFFFEB 		bl	mbedtls_asn1_write_len
 582              	.LVL77:
 583 0060 000050E3 		cmp	r0, #0
 584 0064 F081BDB8 		poplt	{r4, r5, r6, r7, r8, pc}
 585 0068 044080E0 		add	r4, r0, r4
 586              	.LVL78:
 211:D:/Work/DeviceTester/amazon-freertos/lib/third_party/mbedtls/library\asn1write.c ****     MBEDTLS_ASN1_CHK_ADD( len, mbedtls_asn1_write_tag( p, start,
 587              		.loc 1 211 0 discriminator 2
 588 006c 3020A0E3 		mov	r2, #48
 589 0070 0610A0E1 		mov	r1, r6
 590 0074 0500A0E1 		mov	r0, r5
 591              	.LVL79:
 592 0078 FEFFFFEB 		bl	mbedtls_asn1_write_tag
 593              	.LVL80:
 594 007c 000050E3 		cmp	r0, #0
 595              	.LVL81:
 596 0080 040080A0 		addge	r0, r0, r4
 597              	.LVL82:
 212:D:/Work/DeviceTester/amazon-freertos/lib/third_party/mbedtls/library\asn1write.c ****                                        MBEDTLS_ASN1_CONSTRUCTED | MBEDTLS_ASN1_SEQUENCE ) );
 213:D:/Work/DeviceTester/amazon-freertos/lib/third_party/mbedtls/library\asn1write.c **** 
 214:D:/Work/DeviceTester/amazon-freertos/lib/third_party/mbedtls/library\asn1write.c ****     return( (int) len );
 215:D:/Work/DeviceTester/amazon-freertos/lib/third_party/mbedtls/library\asn1write.c **** }
 598              		.loc 1 215 0 discriminator 2
 599 0084 F081BDE8 		pop	{r4, r5, r6, r7, r8, pc}
 600              		.cfi_endproc
 601              	.LFE7:
 603              		.section	.text.mbedtls_asn1_write_bool,"ax",%progbits
 604              		.align	2
 605              		.global	mbedtls_asn1_write_bool
 606              		.syntax unified
 607              		.arm
 608              		.fpu neon
 610              	mbedtls_asn1_write_bool:
 611              	.LFB8:
 216:D:/Work/DeviceTester/amazon-freertos/lib/third_party/mbedtls/library\asn1write.c **** 
 217:D:/Work/DeviceTester/amazon-freertos/lib/third_party/mbedtls/library\asn1write.c **** int mbedtls_asn1_write_bool( unsigned char **p, unsigned char *start, int boolean )
 218:D:/Work/DeviceTester/amazon-freertos/lib/third_party/mbedtls/library\asn1write.c **** {
 612              		.loc 1 218 0
 613              		.cfi_startproc
 614              		@ args = 0, pretend = 0, frame = 0
 615              		@ frame_needed = 0, uses_anonymous_args = 0
 616              	.LVL83:
 219:D:/Work/DeviceTester/amazon-freertos/lib/third_party/mbedtls/library\asn1write.c ****     int ret;
 220:D:/Work/DeviceTester/amazon-freertos/lib/third_party/mbedtls/library\asn1write.c ****     size_t len = 0;
 221:D:/Work/DeviceTester/amazon-freertos/lib/third_party/mbedtls/library\asn1write.c **** 
 222:D:/Work/DeviceTester/amazon-freertos/lib/third_party/mbedtls/library\asn1write.c ****     if( *p - start < 1 )
 617              		.loc 1 222 0
 618 0000 003090E5 		ldr	r3, [r0]
 218:D:/Work/DeviceTester/amazon-freertos/lib/third_party/mbedtls/library\asn1write.c ****     int ret;
 619              		.loc 1 218 0
 620 0004 70402DE9 		push	{r4, r5, r6, lr}
 621              		.cfi_def_cfa_offset 16
 622              		.cfi_offset 4, -16
 623              		.cfi_offset 5, -12
 624              		.cfi_offset 6, -8
 625              		.cfi_offset 14, -4
 626              		.loc 1 222 0
 627 0008 01E043E0 		sub	lr, r3, r1
 628 000c 00005EE3 		cmp	lr, #0
 629 0010 130000DA 		ble	.L41
 223:D:/Work/DeviceTester/amazon-freertos/lib/third_party/mbedtls/library\asn1write.c ****         return( MBEDTLS_ERR_ASN1_BUF_TOO_SMALL );
 224:D:/Work/DeviceTester/amazon-freertos/lib/third_party/mbedtls/library\asn1write.c **** 
 225:D:/Work/DeviceTester/amazon-freertos/lib/third_party/mbedtls/library\asn1write.c ****     *--(*p) = (boolean) ? 255 : 0;
 630              		.loc 1 225 0
 631 0014 002092E2 		adds	r2, r2, #0
 632 0018 01C043E2 		sub	ip, r3, #1
 633 001c 0120A013 		movne	r2, #1
 634              	.LVL84:
 635 0020 00C080E5 		str	ip, [r0]
 636 0024 002062E2 		rsb	r2, r2, #0
 637 0028 0040A0E1 		mov	r4, r0
 638 002c 012043E5 		strb	r2, [r3, #-1]
 639              	.LVL85:
 226:D:/Work/DeviceTester/amazon-freertos/lib/third_party/mbedtls/library\asn1write.c ****     len++;
 227:D:/Work/DeviceTester/amazon-freertos/lib/third_party/mbedtls/library\asn1write.c **** 
 228:D:/Work/DeviceTester/amazon-freertos/lib/third_party/mbedtls/library\asn1write.c ****     MBEDTLS_ASN1_CHK_ADD( len, mbedtls_asn1_write_len( p, start, len ) );
 640              		.loc 1 228 0
 641 0030 0120A0E3 		mov	r2, #1
 642 0034 0150A0E1 		mov	r5, r1
 643 0038 FEFFFFEB 		bl	mbedtls_asn1_write_len
 644              	.LVL86:
 645 003c 000050E3 		cmp	r0, #0
 646 0040 7080BDB8 		poplt	{r4, r5, r6, pc}
 647              		.loc 1 228 0 is_stmt 0 discriminator 2
 648 0044 016080E2 		add	r6, r0, #1
 649              	.LVL87:
 229:D:/Work/DeviceTester/amazon-freertos/lib/third_party/mbedtls/library\asn1write.c ****     MBEDTLS_ASN1_CHK_ADD( len, mbedtls_asn1_write_tag( p, start, MBEDTLS_ASN1_BOOLEAN ) );
 650              		.loc 1 229 0 is_stmt 1 discriminator 2
 651 0048 0120A0E3 		mov	r2, #1
 652 004c 0510A0E1 		mov	r1, r5
 653 0050 0400A0E1 		mov	r0, r4
 654              	.LVL88:
 655 0054 FEFFFFEB 		bl	mbedtls_asn1_write_tag
 656              	.LVL89:
 657 0058 000050E3 		cmp	r0, #0
 658              	.LVL90:
 659 005c 060080A0 		addge	r0, r0, r6
 660              	.LVL91:
 230:D:/Work/DeviceTester/amazon-freertos/lib/third_party/mbedtls/library\asn1write.c **** 
 231:D:/Work/DeviceTester/amazon-freertos/lib/third_party/mbedtls/library\asn1write.c ****     return( (int) len );
 661              		.loc 1 231 0 discriminator 2
 662 0060 7080BDE8 		pop	{r4, r5, r6, pc}
 663              	.LVL92:
 664              	.L41:
 223:D:/Work/DeviceTester/amazon-freertos/lib/third_party/mbedtls/library\asn1write.c **** 
 665              		.loc 1 223 0
 666 0064 6B00E0E3 		mvn	r0, #107
 667              	.LVL93:
 232:D:/Work/DeviceTester/amazon-freertos/lib/third_party/mbedtls/library\asn1write.c **** }
 668              		.loc 1 232 0
 669 0068 7080BDE8 		pop	{r4, r5, r6, pc}
 670              		.cfi_endproc
 671              	.LFE8:
 673              		.section	.text.mbedtls_asn1_write_int,"ax",%progbits
 674              		.align	2
 675              		.global	mbedtls_asn1_write_int
 676              		.syntax unified
 677              		.arm
 678              		.fpu neon
 680              	mbedtls_asn1_write_int:
 681              	.LFB9:
 233:D:/Work/DeviceTester/amazon-freertos/lib/third_party/mbedtls/library\asn1write.c **** 
 234:D:/Work/DeviceTester/amazon-freertos/lib/third_party/mbedtls/library\asn1write.c **** int mbedtls_asn1_write_int( unsigned char **p, unsigned char *start, int val )
 235:D:/Work/DeviceTester/amazon-freertos/lib/third_party/mbedtls/library\asn1write.c **** {
 682              		.loc 1 235 0
 683              		.cfi_startproc
 684              		@ args = 0, pretend = 0, frame = 0
 685              		@ frame_needed = 0, uses_anonymous_args = 0
 686              	.LVL94:
 236:D:/Work/DeviceTester/amazon-freertos/lib/third_party/mbedtls/library\asn1write.c ****     int ret;
 237:D:/Work/DeviceTester/amazon-freertos/lib/third_party/mbedtls/library\asn1write.c ****     size_t len = 0;
 238:D:/Work/DeviceTester/amazon-freertos/lib/third_party/mbedtls/library\asn1write.c **** 
 239:D:/Work/DeviceTester/amazon-freertos/lib/third_party/mbedtls/library\asn1write.c ****     if( *p - start < 1 )
 687              		.loc 1 239 0
 688 0000 003090E5 		ldr	r3, [r0]
 689 0004 01C043E0 		sub	ip, r3, r1
 690 0008 00005CE3 		cmp	ip, #0
 691 000c 030000CA 		bgt	.L44
 240:D:/Work/DeviceTester/amazon-freertos/lib/third_party/mbedtls/library\asn1write.c ****         return( MBEDTLS_ERR_ASN1_BUF_TOO_SMALL );
 692              		.loc 1 240 0
 693 0010 6B00E0E3 		mvn	r0, #107
 694              	.LVL95:
 241:D:/Work/DeviceTester/amazon-freertos/lib/third_party/mbedtls/library\asn1write.c **** 
 242:D:/Work/DeviceTester/amazon-freertos/lib/third_party/mbedtls/library\asn1write.c ****     len += 1;
 243:D:/Work/DeviceTester/amazon-freertos/lib/third_party/mbedtls/library\asn1write.c ****     *--(*p) = val;
 244:D:/Work/DeviceTester/amazon-freertos/lib/third_party/mbedtls/library\asn1write.c **** 
 245:D:/Work/DeviceTester/amazon-freertos/lib/third_party/mbedtls/library\asn1write.c ****     if( val > 0 && **p & 0x80 )
 246:D:/Work/DeviceTester/amazon-freertos/lib/third_party/mbedtls/library\asn1write.c ****     {
 247:D:/Work/DeviceTester/amazon-freertos/lib/third_party/mbedtls/library\asn1write.c ****         if( *p - start < 1 )
 248:D:/Work/DeviceTester/amazon-freertos/lib/third_party/mbedtls/library\asn1write.c ****             return( MBEDTLS_ERR_ASN1_BUF_TOO_SMALL );
 249:D:/Work/DeviceTester/amazon-freertos/lib/third_party/mbedtls/library\asn1write.c **** 
 250:D:/Work/DeviceTester/amazon-freertos/lib/third_party/mbedtls/library\asn1write.c ****         *--(*p) = 0x00;
 251:D:/Work/DeviceTester/amazon-freertos/lib/third_party/mbedtls/library\asn1write.c ****         len += 1;
 252:D:/Work/DeviceTester/amazon-freertos/lib/third_party/mbedtls/library\asn1write.c ****     }
 253:D:/Work/DeviceTester/amazon-freertos/lib/third_party/mbedtls/library\asn1write.c **** 
 254:D:/Work/DeviceTester/amazon-freertos/lib/third_party/mbedtls/library\asn1write.c ****     MBEDTLS_ASN1_CHK_ADD( len, mbedtls_asn1_write_len( p, start, len ) );
 255:D:/Work/DeviceTester/amazon-freertos/lib/third_party/mbedtls/library\asn1write.c ****     MBEDTLS_ASN1_CHK_ADD( len, mbedtls_asn1_write_tag( p, start, MBEDTLS_ASN1_INTEGER ) );
 256:D:/Work/DeviceTester/amazon-freertos/lib/third_party/mbedtls/library\asn1write.c **** 
 257:D:/Work/DeviceTester/amazon-freertos/lib/third_party/mbedtls/library\asn1write.c ****     return( (int) len );
 258:D:/Work/DeviceTester/amazon-freertos/lib/third_party/mbedtls/library\asn1write.c **** }
 695              		.loc 1 258 0
 696 0014 1EFF2FE1 		bx	lr
 697              	.LVL96:
 698              	.L47:
 699              		.cfi_def_cfa_offset 16
 700              		.cfi_offset 4, -16
 701              		.cfi_offset 5, -12
 702              		.cfi_offset 6, -8
 703              		.cfi_offset 14, -4
 240:D:/Work/DeviceTester/amazon-freertos/lib/third_party/mbedtls/library\asn1write.c ****         return( MBEDTLS_ERR_ASN1_BUF_TOO_SMALL );
 704              		.loc 1 240 0
 705 0018 6B00E0E3 		mvn	r0, #107
 706              	.LVL97:
 707 001c 7080BDE8 		pop	{r4, r5, r6, pc}
 708              	.LVL98:
 709              	.L44:
 710              		.cfi_def_cfa_offset 0
 711              		.cfi_restore 4
 712              		.cfi_restore 5
 713              		.cfi_restore 6
 714              		.cfi_restore 14
 245:D:/Work/DeviceTester/amazon-freertos/lib/third_party/mbedtls/library\asn1write.c ****     {
 715              		.loc 1 245 0
 716 0020 000052E3 		cmp	r2, #0
 243:D:/Work/DeviceTester/amazon-freertos/lib/third_party/mbedtls/library\asn1write.c **** 
 717              		.loc 1 243 0
 718 0024 01C043E2 		sub	ip, r3, #1
 235:D:/Work/DeviceTester/amazon-freertos/lib/third_party/mbedtls/library\asn1write.c ****     int ret;
 719              		.loc 1 235 0
 720 0028 70402DE9 		push	{r4, r5, r6, lr}
 721              		.cfi_def_cfa_offset 16
 722              		.cfi_offset 4, -16
 723              		.cfi_offset 5, -12
 724              		.cfi_offset 6, -8
 725              		.cfi_offset 14, -4
 243:D:/Work/DeviceTester/amazon-freertos/lib/third_party/mbedtls/library\asn1write.c **** 
 726              		.loc 1 243 0
 727 002c 00C080E5 		str	ip, [r0]
 728 0030 012043E5 		strb	r2, [r3, #-1]
 245:D:/Work/DeviceTester/amazon-freertos/lib/third_party/mbedtls/library\asn1write.c ****     {
 729              		.loc 1 245 0
 730 0034 190000DA 		ble	.L49
 245:D:/Work/DeviceTester/amazon-freertos/lib/third_party/mbedtls/library\asn1write.c ****     {
 731              		.loc 1 245 0 is_stmt 0 discriminator 1
 732 0038 003090E5 		ldr	r3, [r0]
 733 003c D020D3E1 		ldrsb	r2, [r3]
 734              	.LVL99:
 735 0040 000052E3 		cmp	r2, #0
 736 0044 150000AA 		bge	.L49
 247:D:/Work/DeviceTester/amazon-freertos/lib/third_party/mbedtls/library\asn1write.c ****             return( MBEDTLS_ERR_ASN1_BUF_TOO_SMALL );
 737              		.loc 1 247 0 is_stmt 1
 738 0048 012043E0 		sub	r2, r3, r1
 739 004c 000052E3 		cmp	r2, #0
 740 0050 F0FFFFDA 		ble	.L47
 250:D:/Work/DeviceTester/amazon-freertos/lib/third_party/mbedtls/library\asn1write.c ****         len += 1;
 741              		.loc 1 250 0
 742 0054 012043E2 		sub	r2, r3, #1
 251:D:/Work/DeviceTester/amazon-freertos/lib/third_party/mbedtls/library\asn1write.c ****     }
 743              		.loc 1 251 0
 744 0058 0250A0E3 		mov	r5, #2
 250:D:/Work/DeviceTester/amazon-freertos/lib/third_party/mbedtls/library\asn1write.c ****         len += 1;
 745              		.loc 1 250 0
 746 005c 002080E5 		str	r2, [r0]
 747 0060 0020A0E3 		mov	r2, #0
 748 0064 012043E5 		strb	r2, [r3, #-1]
 749              	.LVL100:
 750              	.L46:
 254:D:/Work/DeviceTester/amazon-freertos/lib/third_party/mbedtls/library\asn1write.c ****     MBEDTLS_ASN1_CHK_ADD( len, mbedtls_asn1_write_tag( p, start, MBEDTLS_ASN1_INTEGER ) );
 751              		.loc 1 254 0
 752 0068 0520A0E1 		mov	r2, r5
 753 006c 0160A0E1 		mov	r6, r1
 754 0070 0040A0E1 		mov	r4, r0
 755              	.LVL101:
 756 0074 FEFFFFEB 		bl	mbedtls_asn1_write_len
 757              	.LVL102:
 758 0078 000050E3 		cmp	r0, #0
 759 007c 7080BDB8 		poplt	{r4, r5, r6, pc}
 254:D:/Work/DeviceTester/amazon-freertos/lib/third_party/mbedtls/library\asn1write.c ****     MBEDTLS_ASN1_CHK_ADD( len, mbedtls_asn1_write_tag( p, start, MBEDTLS_ASN1_INTEGER ) );
 760              		.loc 1 254 0 is_stmt 0 discriminator 2
 761 0080 055080E0 		add	r5, r0, r5
 762              	.LVL103:
 255:D:/Work/DeviceTester/amazon-freertos/lib/third_party/mbedtls/library\asn1write.c **** 
 763              		.loc 1 255 0 is_stmt 1 discriminator 2
 764 0084 0220A0E3 		mov	r2, #2
 765 0088 0610A0E1 		mov	r1, r6
 766 008c 0400A0E1 		mov	r0, r4
 767              	.LVL104:
 768 0090 FEFFFFEB 		bl	mbedtls_asn1_write_tag
 769              	.LVL105:
 770 0094 000050E3 		cmp	r0, #0
 771              	.LVL106:
 772 0098 050080A0 		addge	r0, r0, r5
 773              	.LVL107:
 774              		.loc 1 258 0 discriminator 2
 775 009c 7080BDE8 		pop	{r4, r5, r6, pc}
 776              	.LVL108:
 777              	.L49:
 242:D:/Work/DeviceTester/amazon-freertos/lib/third_party/mbedtls/library\asn1write.c ****     *--(*p) = val;
 778              		.loc 1 242 0
 779 00a0 0150A0E3 		mov	r5, #1
 780 00a4 EFFFFFEA 		b	.L46
 781              		.cfi_endproc
 782              	.LFE9:
 784              		.section	.text.mbedtls_asn1_write_printable_string,"ax",%progbits
 785              		.align	2
 786              		.global	mbedtls_asn1_write_printable_string
 787              		.syntax unified
 788              		.arm
 789              		.fpu neon
 791              	mbedtls_asn1_write_printable_string:
 792              	.LFB10:
 259:D:/Work/DeviceTester/amazon-freertos/lib/third_party/mbedtls/library\asn1write.c **** 
 260:D:/Work/DeviceTester/amazon-freertos/lib/third_party/mbedtls/library\asn1write.c **** int mbedtls_asn1_write_printable_string( unsigned char **p, unsigned char *start,
 261:D:/Work/DeviceTester/amazon-freertos/lib/third_party/mbedtls/library\asn1write.c ****                                  const char *text, size_t text_len )
 262:D:/Work/DeviceTester/amazon-freertos/lib/third_party/mbedtls/library\asn1write.c **** {
 793              		.loc 1 262 0
 794              		.cfi_startproc
 795              		@ args = 0, pretend = 0, frame = 0
 796              		@ frame_needed = 0, uses_anonymous_args = 0
 797              	.LVL109:
 798 0000 70402DE9 		push	{r4, r5, r6, lr}
 799              		.cfi_def_cfa_offset 16
 800              		.cfi_offset 4, -16
 801              		.cfi_offset 5, -12
 802              		.cfi_offset 6, -8
 803              		.cfi_offset 14, -4
 804              		.loc 1 262 0
 805 0004 0050A0E1 		mov	r5, r0
 806 0008 0160A0E1 		mov	r6, r1
 263:D:/Work/DeviceTester/amazon-freertos/lib/third_party/mbedtls/library\asn1write.c ****     int ret;
 264:D:/Work/DeviceTester/amazon-freertos/lib/third_party/mbedtls/library\asn1write.c ****     size_t len = 0;
 265:D:/Work/DeviceTester/amazon-freertos/lib/third_party/mbedtls/library\asn1write.c **** 
 266:D:/Work/DeviceTester/amazon-freertos/lib/third_party/mbedtls/library\asn1write.c ****     MBEDTLS_ASN1_CHK_ADD( len, mbedtls_asn1_write_raw_buffer( p, start,
 807              		.loc 1 266 0
 808 000c FEFFFFEB 		bl	mbedtls_asn1_write_raw_buffer
 809              	.LVL110:
 810 0010 000050E3 		cmp	r0, #0
 811 0014 7080BDB8 		poplt	{r4, r5, r6, pc}
 267:D:/Work/DeviceTester/amazon-freertos/lib/third_party/mbedtls/library\asn1write.c ****                   (const unsigned char *) text, text_len ) );
 268:D:/Work/DeviceTester/amazon-freertos/lib/third_party/mbedtls/library\asn1write.c **** 
 269:D:/Work/DeviceTester/amazon-freertos/lib/third_party/mbedtls/library\asn1write.c ****     MBEDTLS_ASN1_CHK_ADD( len, mbedtls_asn1_write_len( p, start, len ) );
 812              		.loc 1 269 0 discriminator 2
 813 0018 0020A0E1 		mov	r2, r0
 266:D:/Work/DeviceTester/amazon-freertos/lib/third_party/mbedtls/library\asn1write.c ****                   (const unsigned char *) text, text_len ) );
 814              		.loc 1 266 0 discriminator 2
 815 001c 0040A0E1 		mov	r4, r0
 816              	.LVL111:
 817              		.loc 1 269 0 discriminator 2
 818 0020 0610A0E1 		mov	r1, r6
 819 0024 0500A0E1 		mov	r0, r5
 820              	.LVL112:
 821 0028 FEFFFFEB 		bl	mbedtls_asn1_write_len
 822              	.LVL113:
 823 002c 000050E3 		cmp	r0, #0
 824 0030 7080BDB8 		poplt	{r4, r5, r6, pc}
 825 0034 044080E0 		add	r4, r0, r4
 826              	.LVL114:
 270:D:/Work/DeviceTester/amazon-freertos/lib/third_party/mbedtls/library\asn1write.c ****     MBEDTLS_ASN1_CHK_ADD( len, mbedtls_asn1_write_tag( p, start, MBEDTLS_ASN1_PRINTABLE_STRING ) );
 827              		.loc 1 270 0 discriminator 2
 828 0038 1320A0E3 		mov	r2, #19
 829 003c 0610A0E1 		mov	r1, r6
 830 0040 0500A0E1 		mov	r0, r5
 831              	.LVL115:
 832 0044 FEFFFFEB 		bl	mbedtls_asn1_write_tag
 833              	.LVL116:
 834 0048 000050E3 		cmp	r0, #0
 835              	.LVL117:
 836 004c 040080A0 		addge	r0, r0, r4
 837              	.LVL118:
 271:D:/Work/DeviceTester/amazon-freertos/lib/third_party/mbedtls/library\asn1write.c **** 
 272:D:/Work/DeviceTester/amazon-freertos/lib/third_party/mbedtls/library\asn1write.c ****     return( (int) len );
 273:D:/Work/DeviceTester/amazon-freertos/lib/third_party/mbedtls/library\asn1write.c **** }
 838              		.loc 1 273 0 discriminator 2
 839 0050 7080BDE8 		pop	{r4, r5, r6, pc}
 840              		.cfi_endproc
 841              	.LFE10:
 843              		.section	.text.mbedtls_asn1_write_ia5_string,"ax",%progbits
 844              		.align	2
 845              		.global	mbedtls_asn1_write_ia5_string
 846              		.syntax unified
 847              		.arm
 848              		.fpu neon
 850              	mbedtls_asn1_write_ia5_string:
 851              	.LFB11:
 274:D:/Work/DeviceTester/amazon-freertos/lib/third_party/mbedtls/library\asn1write.c **** 
 275:D:/Work/DeviceTester/amazon-freertos/lib/third_party/mbedtls/library\asn1write.c **** int mbedtls_asn1_write_ia5_string( unsigned char **p, unsigned char *start,
 276:D:/Work/DeviceTester/amazon-freertos/lib/third_party/mbedtls/library\asn1write.c ****                            const char *text, size_t text_len )
 277:D:/Work/DeviceTester/amazon-freertos/lib/third_party/mbedtls/library\asn1write.c **** {
 852              		.loc 1 277 0
 853              		.cfi_startproc
 854              		@ args = 0, pretend = 0, frame = 0
 855              		@ frame_needed = 0, uses_anonymous_args = 0
 856              	.LVL119:
 857 0000 70402DE9 		push	{r4, r5, r6, lr}
 858              		.cfi_def_cfa_offset 16
 859              		.cfi_offset 4, -16
 860              		.cfi_offset 5, -12
 861              		.cfi_offset 6, -8
 862              		.cfi_offset 14, -4
 863              		.loc 1 277 0
 864 0004 0050A0E1 		mov	r5, r0
 865 0008 0160A0E1 		mov	r6, r1
 278:D:/Work/DeviceTester/amazon-freertos/lib/third_party/mbedtls/library\asn1write.c ****     int ret;
 279:D:/Work/DeviceTester/amazon-freertos/lib/third_party/mbedtls/library\asn1write.c ****     size_t len = 0;
 280:D:/Work/DeviceTester/amazon-freertos/lib/third_party/mbedtls/library\asn1write.c **** 
 281:D:/Work/DeviceTester/amazon-freertos/lib/third_party/mbedtls/library\asn1write.c ****     MBEDTLS_ASN1_CHK_ADD( len, mbedtls_asn1_write_raw_buffer( p, start,
 866              		.loc 1 281 0
 867 000c FEFFFFEB 		bl	mbedtls_asn1_write_raw_buffer
 868              	.LVL120:
 869 0010 000050E3 		cmp	r0, #0
 870 0014 7080BDB8 		poplt	{r4, r5, r6, pc}
 282:D:/Work/DeviceTester/amazon-freertos/lib/third_party/mbedtls/library\asn1write.c ****                   (const unsigned char *) text, text_len ) );
 283:D:/Work/DeviceTester/amazon-freertos/lib/third_party/mbedtls/library\asn1write.c **** 
 284:D:/Work/DeviceTester/amazon-freertos/lib/third_party/mbedtls/library\asn1write.c ****     MBEDTLS_ASN1_CHK_ADD( len, mbedtls_asn1_write_len( p, start, len ) );
 871              		.loc 1 284 0 discriminator 2
 872 0018 0020A0E1 		mov	r2, r0
 281:D:/Work/DeviceTester/amazon-freertos/lib/third_party/mbedtls/library\asn1write.c ****                   (const unsigned char *) text, text_len ) );
 873              		.loc 1 281 0 discriminator 2
 874 001c 0040A0E1 		mov	r4, r0
 875              	.LVL121:
 876              		.loc 1 284 0 discriminator 2
 877 0020 0610A0E1 		mov	r1, r6
 878 0024 0500A0E1 		mov	r0, r5
 879              	.LVL122:
 880 0028 FEFFFFEB 		bl	mbedtls_asn1_write_len
 881              	.LVL123:
 882 002c 000050E3 		cmp	r0, #0
 883 0030 7080BDB8 		poplt	{r4, r5, r6, pc}
 884 0034 044080E0 		add	r4, r0, r4
 885              	.LVL124:
 285:D:/Work/DeviceTester/amazon-freertos/lib/third_party/mbedtls/library\asn1write.c ****     MBEDTLS_ASN1_CHK_ADD( len, mbedtls_asn1_write_tag( p, start, MBEDTLS_ASN1_IA5_STRING ) );
 886              		.loc 1 285 0 discriminator 2
 887 0038 1620A0E3 		mov	r2, #22
 888 003c 0610A0E1 		mov	r1, r6
 889 0040 0500A0E1 		mov	r0, r5
 890              	.LVL125:
 891 0044 FEFFFFEB 		bl	mbedtls_asn1_write_tag
 892              	.LVL126:
 893 0048 000050E3 		cmp	r0, #0
 894              	.LVL127:
 895 004c 040080A0 		addge	r0, r0, r4
 896              	.LVL128:
 286:D:/Work/DeviceTester/amazon-freertos/lib/third_party/mbedtls/library\asn1write.c **** 
 287:D:/Work/DeviceTester/amazon-freertos/lib/third_party/mbedtls/library\asn1write.c ****     return( (int) len );
 288:D:/Work/DeviceTester/amazon-freertos/lib/third_party/mbedtls/library\asn1write.c **** }
 897              		.loc 1 288 0 discriminator 2
 898 0050 7080BDE8 		pop	{r4, r5, r6, pc}
 899              		.cfi_endproc
 900              	.LFE11:
 902              		.section	.text.mbedtls_asn1_write_bitstring,"ax",%progbits
 903              		.align	2
 904              		.global	mbedtls_asn1_write_bitstring
 905              		.syntax unified
 906              		.arm
 907              		.fpu neon
 909              	mbedtls_asn1_write_bitstring:
 910              	.LFB12:
 289:D:/Work/DeviceTester/amazon-freertos/lib/third_party/mbedtls/library\asn1write.c **** 
 290:D:/Work/DeviceTester/amazon-freertos/lib/third_party/mbedtls/library\asn1write.c **** int mbedtls_asn1_write_bitstring( unsigned char **p, unsigned char *start,
 291:D:/Work/DeviceTester/amazon-freertos/lib/third_party/mbedtls/library\asn1write.c ****                           const unsigned char *buf, size_t bits )
 292:D:/Work/DeviceTester/amazon-freertos/lib/third_party/mbedtls/library\asn1write.c **** {
 911              		.loc 1 292 0
 912              		.cfi_startproc
 913              		@ args = 0, pretend = 0, frame = 0
 914              		@ frame_needed = 0, uses_anonymous_args = 0
 915              	.LVL129:
 293:D:/Work/DeviceTester/amazon-freertos/lib/third_party/mbedtls/library\asn1write.c ****     int ret;
 294:D:/Work/DeviceTester/amazon-freertos/lib/third_party/mbedtls/library\asn1write.c ****     size_t len = 0, size;
 295:D:/Work/DeviceTester/amazon-freertos/lib/third_party/mbedtls/library\asn1write.c **** 
 296:D:/Work/DeviceTester/amazon-freertos/lib/third_party/mbedtls/library\asn1write.c ****     size = ( bits / 8 ) + ( ( bits % 8 ) ? 1 : 0 );
 297:D:/Work/DeviceTester/amazon-freertos/lib/third_party/mbedtls/library\asn1write.c **** 
 298:D:/Work/DeviceTester/amazon-freertos/lib/third_party/mbedtls/library\asn1write.c ****     // Calculate byte length
 299:D:/Work/DeviceTester/amazon-freertos/lib/third_party/mbedtls/library\asn1write.c ****     //
 300:D:/Work/DeviceTester/amazon-freertos/lib/third_party/mbedtls/library\asn1write.c ****     if( *p < start || (size_t)( *p - start ) < size + 1 )
 916              		.loc 1 300 0
 917 0000 00C090E5 		ldr	ip, [r0]
 292:D:/Work/DeviceTester/amazon-freertos/lib/third_party/mbedtls/library\asn1write.c ****     int ret;
 918              		.loc 1 292 0
 919 0004 F0412DE9 		push	{r4, r5, r6, r7, r8, lr}
 920              		.cfi_def_cfa_offset 24
 921              		.cfi_offset 4, -24
 922              		.cfi_offset 5, -20
 923              		.cfi_offset 6, -16
 924              		.cfi_offset 7, -12
 925              		.cfi_offset 8, -8
 926              		.cfi_offset 14, -4
 296:D:/Work/DeviceTester/amazon-freertos/lib/third_party/mbedtls/library\asn1write.c **** 
 927              		.loc 1 296 0
 928 0008 078013E2 		ands	r8, r3, #7
 929 000c 0180A013 		movne	r8, #1
 930              		.loc 1 300 0
 931 0010 01005CE1 		cmp	ip, r1
 296:D:/Work/DeviceTester/amazon-freertos/lib/third_party/mbedtls/library\asn1write.c **** 
 932              		.loc 1 296 0
 933 0014 A38188E0 		add	r8, r8, r3, lsr #3
 934              	.LVL130:
 935              		.loc 1 300 0
 936 0018 1F00003A 		bcc	.L62
 937              		.loc 1 300 0 is_stmt 0 discriminator 1
 938 001c 015088E2 		add	r5, r8, #1
 939 0020 01E04CE0 		sub	lr, ip, r1
 940 0024 05005EE1 		cmp	lr, r5
 941 0028 1B00003A 		bcc	.L62
 942 002c 0040A0E1 		mov	r4, r0
 943              	.LVL131:
 944 0030 0360A0E1 		mov	r6, r3
 301:D:/Work/DeviceTester/amazon-freertos/lib/third_party/mbedtls/library\asn1write.c ****         return( MBEDTLS_ERR_ASN1_BUF_TOO_SMALL );
 302:D:/Work/DeviceTester/amazon-freertos/lib/third_party/mbedtls/library\asn1write.c **** 
 303:D:/Work/DeviceTester/amazon-freertos/lib/third_party/mbedtls/library\asn1write.c ****     len = size + 1;
 304:D:/Work/DeviceTester/amazon-freertos/lib/third_party/mbedtls/library\asn1write.c ****     (*p) -= size;
 945              		.loc 1 304 0 is_stmt 1
 946 0034 08004CE0 		sub	r0, ip, r8
 947              	.LVL132:
 948 0038 0230A0E1 		mov	r3, r2
 949              	.LVL133:
 950 003c 0170A0E1 		mov	r7, r1
 305:D:/Work/DeviceTester/amazon-freertos/lib/third_party/mbedtls/library\asn1write.c ****     memcpy( *p, buf, size );
 951              		.loc 1 305 0
 952 0040 0820A0E1 		mov	r2, r8
 953              	.LVL134:
 954 0044 0310A0E1 		mov	r1, r3
 955              	.LVL135:
 304:D:/Work/DeviceTester/amazon-freertos/lib/third_party/mbedtls/library\asn1write.c ****     memcpy( *p, buf, size );
 956              		.loc 1 304 0
 957 0048 000084E5 		str	r0, [r4]
 958              		.loc 1 305 0
 959 004c FEFFFFEB 		bl	memcpy
 960              	.LVL136:
 306:D:/Work/DeviceTester/amazon-freertos/lib/third_party/mbedtls/library\asn1write.c **** 
 307:D:/Work/DeviceTester/amazon-freertos/lib/third_party/mbedtls/library\asn1write.c ****     // Write unused bits
 308:D:/Work/DeviceTester/amazon-freertos/lib/third_party/mbedtls/library\asn1write.c ****     //
 309:D:/Work/DeviceTester/amazon-freertos/lib/third_party/mbedtls/library\asn1write.c ****     *--(*p) = (unsigned char) (size * 8 - bits);
 961              		.loc 1 309 0
 962 0050 002094E5 		ldr	r2, [r4]
 310:D:/Work/DeviceTester/amazon-freertos/lib/third_party/mbedtls/library\asn1write.c **** 
 311:D:/Work/DeviceTester/amazon-freertos/lib/third_party/mbedtls/library\asn1write.c ****     MBEDTLS_ASN1_CHK_ADD( len, mbedtls_asn1_write_len( p, start, len ) );
 963              		.loc 1 311 0
 964 0054 0710A0E1 		mov	r1, r7
 965 0058 0400A0E1 		mov	r0, r4
 309:D:/Work/DeviceTester/amazon-freertos/lib/third_party/mbedtls/library\asn1write.c **** 
 966              		.loc 1 309 0
 967 005c 013042E2 		sub	r3, r2, #1
 968 0060 003084E5 		str	r3, [r4]
 969 0064 883166E0 		rsb	r3, r6, r8, lsl #3
 970 0068 013042E5 		strb	r3, [r2, #-1]
 971              		.loc 1 311 0
 972 006c 0520A0E1 		mov	r2, r5
 973 0070 FEFFFFEB 		bl	mbedtls_asn1_write_len
 974              	.LVL137:
 975 0074 000050E3 		cmp	r0, #0
 976 0078 F081BDB8 		poplt	{r4, r5, r6, r7, r8, pc}
 977              		.loc 1 311 0 is_stmt 0 discriminator 2
 978 007c 055080E0 		add	r5, r0, r5
 979              	.LVL138:
 312:D:/Work/DeviceTester/amazon-freertos/lib/third_party/mbedtls/library\asn1write.c ****     MBEDTLS_ASN1_CHK_ADD( len, mbedtls_asn1_write_tag( p, start, MBEDTLS_ASN1_BIT_STRING ) );
 980              		.loc 1 312 0 is_stmt 1 discriminator 2
 981 0080 0320A0E3 		mov	r2, #3
 982 0084 0710A0E1 		mov	r1, r7
 983 0088 0400A0E1 		mov	r0, r4
 984              	.LVL139:
 985 008c FEFFFFEB 		bl	mbedtls_asn1_write_tag
 986              	.LVL140:
 987 0090 000050E3 		cmp	r0, #0
 988              	.LVL141:
 989 0094 050080A0 		addge	r0, r0, r5
 990              	.LVL142:
 313:D:/Work/DeviceTester/amazon-freertos/lib/third_party/mbedtls/library\asn1write.c **** 
 314:D:/Work/DeviceTester/amazon-freertos/lib/third_party/mbedtls/library\asn1write.c ****     return( (int) len );
 991              		.loc 1 314 0 discriminator 2
 992 0098 F081BDE8 		pop	{r4, r5, r6, r7, r8, pc}
 993              	.LVL143:
 994              	.L62:
 301:D:/Work/DeviceTester/amazon-freertos/lib/third_party/mbedtls/library\asn1write.c **** 
 995              		.loc 1 301 0
 996 009c 6B00E0E3 		mvn	r0, #107
 997              	.LVL144:
 315:D:/Work/DeviceTester/amazon-freertos/lib/third_party/mbedtls/library\asn1write.c **** }
 998              		.loc 1 315 0
 999 00a0 F081BDE8 		pop	{r4, r5, r6, r7, r8, pc}
 1000              		.cfi_endproc
 1001              	.LFE12:
 1003              		.section	.text.mbedtls_asn1_write_octet_string,"ax",%progbits
 1004              		.align	2
 1005              		.global	mbedtls_asn1_write_octet_string
 1006              		.syntax unified
 1007              		.arm
 1008              		.fpu neon
 1010              	mbedtls_asn1_write_octet_string:
 1011              	.LFB13:
 316:D:/Work/DeviceTester/amazon-freertos/lib/third_party/mbedtls/library\asn1write.c **** 
 317:D:/Work/DeviceTester/amazon-freertos/lib/third_party/mbedtls/library\asn1write.c **** int mbedtls_asn1_write_octet_string( unsigned char **p, unsigned char *start,
 318:D:/Work/DeviceTester/amazon-freertos/lib/third_party/mbedtls/library\asn1write.c ****                              const unsigned char *buf, size_t size )
 319:D:/Work/DeviceTester/amazon-freertos/lib/third_party/mbedtls/library\asn1write.c **** {
 1012              		.loc 1 319 0
 1013              		.cfi_startproc
 1014              		@ args = 0, pretend = 0, frame = 0
 1015              		@ frame_needed = 0, uses_anonymous_args = 0
 1016              	.LVL145:
 1017 0000 70402DE9 		push	{r4, r5, r6, lr}
 1018              		.cfi_def_cfa_offset 16
 1019              		.cfi_offset 4, -16
 1020              		.cfi_offset 5, -12
 1021              		.cfi_offset 6, -8
 1022              		.cfi_offset 14, -4
 1023              		.loc 1 319 0
 1024 0004 0050A0E1 		mov	r5, r0
 1025 0008 0160A0E1 		mov	r6, r1
 320:D:/Work/DeviceTester/amazon-freertos/lib/third_party/mbedtls/library\asn1write.c ****     int ret;
 321:D:/Work/DeviceTester/amazon-freertos/lib/third_party/mbedtls/library\asn1write.c ****     size_t len = 0;
 322:D:/Work/DeviceTester/amazon-freertos/lib/third_party/mbedtls/library\asn1write.c **** 
 323:D:/Work/DeviceTester/amazon-freertos/lib/third_party/mbedtls/library\asn1write.c ****     MBEDTLS_ASN1_CHK_ADD( len, mbedtls_asn1_write_raw_buffer( p, start, buf, size ) );
 1026              		.loc 1 323 0
 1027 000c FEFFFFEB 		bl	mbedtls_asn1_write_raw_buffer
 1028              	.LVL146:
 1029 0010 000050E3 		cmp	r0, #0
 1030 0014 7080BDB8 		poplt	{r4, r5, r6, pc}
 324:D:/Work/DeviceTester/amazon-freertos/lib/third_party/mbedtls/library\asn1write.c **** 
 325:D:/Work/DeviceTester/amazon-freertos/lib/third_party/mbedtls/library\asn1write.c ****     MBEDTLS_ASN1_CHK_ADD( len, mbedtls_asn1_write_len( p, start, len ) );
 1031              		.loc 1 325 0 discriminator 2
 1032 0018 0020A0E1 		mov	r2, r0
 323:D:/Work/DeviceTester/amazon-freertos/lib/third_party/mbedtls/library\asn1write.c **** 
 1033              		.loc 1 323 0 discriminator 2
 1034 001c 0040A0E1 		mov	r4, r0
 1035              	.LVL147:
 1036              		.loc 1 325 0 discriminator 2
 1037 0020 0610A0E1 		mov	r1, r6
 1038 0024 0500A0E1 		mov	r0, r5
 1039              	.LVL148:
 1040 0028 FEFFFFEB 		bl	mbedtls_asn1_write_len
 1041              	.LVL149:
 1042 002c 000050E3 		cmp	r0, #0
 1043 0030 7080BDB8 		poplt	{r4, r5, r6, pc}
 1044 0034 044080E0 		add	r4, r0, r4
 1045              	.LVL150:
 326:D:/Work/DeviceTester/amazon-freertos/lib/third_party/mbedtls/library\asn1write.c ****     MBEDTLS_ASN1_CHK_ADD( len, mbedtls_asn1_write_tag( p, start, MBEDTLS_ASN1_OCTET_STRING ) );
 1046              		.loc 1 326 0 discriminator 2
 1047 0038 0420A0E3 		mov	r2, #4
 1048 003c 0610A0E1 		mov	r1, r6
 1049 0040 0500A0E1 		mov	r0, r5
 1050              	.LVL151:
 1051 0044 FEFFFFEB 		bl	mbedtls_asn1_write_tag
 1052              	.LVL152:
 1053 0048 000050E3 		cmp	r0, #0
 1054              	.LVL153:
 1055 004c 040080A0 		addge	r0, r0, r4
 1056              	.LVL154:
 327:D:/Work/DeviceTester/amazon-freertos/lib/third_party/mbedtls/library\asn1write.c **** 
 328:D:/Work/DeviceTester/amazon-freertos/lib/third_party/mbedtls/library\asn1write.c ****     return( (int) len );
 329:D:/Work/DeviceTester/amazon-freertos/lib/third_party/mbedtls/library\asn1write.c **** }
 1057              		.loc 1 329 0 discriminator 2
 1058 0050 7080BDE8 		pop	{r4, r5, r6, pc}
 1059              		.cfi_endproc
 1060              	.LFE13:
 1062              		.section	.text.mbedtls_asn1_store_named_data,"ax",%progbits
 1063              		.align	2
 1064              		.global	mbedtls_asn1_store_named_data
 1065              		.syntax unified
 1066              		.arm
 1067              		.fpu neon
 1069              	mbedtls_asn1_store_named_data:
 1070              	.LFB14:
 330:D:/Work/DeviceTester/amazon-freertos/lib/third_party/mbedtls/library\asn1write.c **** 
 331:D:/Work/DeviceTester/amazon-freertos/lib/third_party/mbedtls/library\asn1write.c **** mbedtls_asn1_named_data *mbedtls_asn1_store_named_data( mbedtls_asn1_named_data **head,
 332:D:/Work/DeviceTester/amazon-freertos/lib/third_party/mbedtls/library\asn1write.c ****                                         const char *oid, size_t oid_len,
 333:D:/Work/DeviceTester/amazon-freertos/lib/third_party/mbedtls/library\asn1write.c ****                                         const unsigned char *val,
 334:D:/Work/DeviceTester/amazon-freertos/lib/third_party/mbedtls/library\asn1write.c ****                                         size_t val_len )
 335:D:/Work/DeviceTester/amazon-freertos/lib/third_party/mbedtls/library\asn1write.c **** {
 1071              		.loc 1 335 0
 1072              		.cfi_startproc
 1073              		@ args = 4, pretend = 0, frame = 0
 1074              		@ frame_needed = 0, uses_anonymous_args = 0
 1075              	.LVL155:
 1076 0000 F0472DE9 		push	{r4, r5, r6, r7, r8, r9, r10, lr}
 1077              		.cfi_def_cfa_offset 32
 1078              		.cfi_offset 4, -32
 1079              		.cfi_offset 5, -28
 1080              		.cfi_offset 6, -24
 1081              		.cfi_offset 7, -20
 1082              		.cfi_offset 8, -16
 1083              		.cfi_offset 9, -12
 1084              		.cfi_offset 10, -8
 1085              		.cfi_offset 14, -4
 1086              		.loc 1 335 0
 1087 0004 0070A0E1 		mov	r7, r0
 336:D:/Work/DeviceTester/amazon-freertos/lib/third_party/mbedtls/library\asn1write.c ****     mbedtls_asn1_named_data *cur;
 337:D:/Work/DeviceTester/amazon-freertos/lib/third_party/mbedtls/library\asn1write.c **** 
 338:D:/Work/DeviceTester/amazon-freertos/lib/third_party/mbedtls/library\asn1write.c ****     if( ( cur = mbedtls_asn1_find_named_data( *head, oid, oid_len ) ) == NULL )
 1088              		.loc 1 338 0
 1089 0008 000090E5 		ldr	r0, [r0]
 1090              	.LVL156:
 335:D:/Work/DeviceTester/amazon-freertos/lib/third_party/mbedtls/library\asn1write.c ****     mbedtls_asn1_named_data *cur;
 1091              		.loc 1 335 0
 1092 000c 01A0A0E1 		mov	r10, r1
 1093 0010 0280A0E1 		mov	r8, r2
 1094 0014 0390A0E1 		mov	r9, r3
 1095 0018 20609DE5 		ldr	r6, [sp, #32]
 1096              		.loc 1 338 0
 1097 001c FEFFFFEB 		bl	mbedtls_asn1_find_named_data
 1098              	.LVL157:
 1099 0020 005050E2 		subs	r5, r0, #0
 1100 0024 2900001A 		bne	.L68
 339:D:/Work/DeviceTester/amazon-freertos/lib/third_party/mbedtls/library\asn1write.c ****     {
 340:D:/Work/DeviceTester/amazon-freertos/lib/third_party/mbedtls/library\asn1write.c ****         // Add new entry if not present yet based on OID
 341:D:/Work/DeviceTester/amazon-freertos/lib/third_party/mbedtls/library\asn1write.c ****         //
 342:D:/Work/DeviceTester/amazon-freertos/lib/third_party/mbedtls/library\asn1write.c ****         cur = (mbedtls_asn1_named_data*)mbedtls_calloc( 1,
 1101              		.loc 1 342 0
 1102 0028 2010A0E3 		mov	r1, #32
 1103 002c 0100A0E3 		mov	r0, #1
 1104              	.LVL158:
 1105 0030 FEFFFFEB 		bl	mbedtls_calloc
 1106              	.LVL159:
 343:D:/Work/DeviceTester/amazon-freertos/lib/third_party/mbedtls/library\asn1write.c ****                                             sizeof(mbedtls_asn1_named_data) );
 344:D:/Work/DeviceTester/amazon-freertos/lib/third_party/mbedtls/library\asn1write.c ****         if( cur == NULL )
 1107              		.loc 1 344 0
 1108 0034 004050E2 		subs	r4, r0, #0
 1109 0038 0200001A 		bne	.L69
 1110              	.LVL160:
 1111              	.L74:
 345:D:/Work/DeviceTester/amazon-freertos/lib/third_party/mbedtls/library\asn1write.c ****             return( NULL );
 1112              		.loc 1 345 0
 1113 003c 0050A0E3 		mov	r5, #0
 1114              	.L67:
 346:D:/Work/DeviceTester/amazon-freertos/lib/third_party/mbedtls/library\asn1write.c **** 
 347:D:/Work/DeviceTester/amazon-freertos/lib/third_party/mbedtls/library\asn1write.c ****         cur->oid.len = oid_len;
 348:D:/Work/DeviceTester/amazon-freertos/lib/third_party/mbedtls/library\asn1write.c ****         cur->oid.p = mbedtls_calloc( 1, oid_len );
 349:D:/Work/DeviceTester/amazon-freertos/lib/third_party/mbedtls/library\asn1write.c ****         if( cur->oid.p == NULL )
 350:D:/Work/DeviceTester/amazon-freertos/lib/third_party/mbedtls/library\asn1write.c ****         {
 351:D:/Work/DeviceTester/amazon-freertos/lib/third_party/mbedtls/library\asn1write.c ****             mbedtls_free( cur );
 352:D:/Work/DeviceTester/amazon-freertos/lib/third_party/mbedtls/library\asn1write.c ****             return( NULL );
 353:D:/Work/DeviceTester/amazon-freertos/lib/third_party/mbedtls/library\asn1write.c ****         }
 354:D:/Work/DeviceTester/amazon-freertos/lib/third_party/mbedtls/library\asn1write.c **** 
 355:D:/Work/DeviceTester/amazon-freertos/lib/third_party/mbedtls/library\asn1write.c ****         memcpy( cur->oid.p, oid, oid_len );
 356:D:/Work/DeviceTester/amazon-freertos/lib/third_party/mbedtls/library\asn1write.c **** 
 357:D:/Work/DeviceTester/amazon-freertos/lib/third_party/mbedtls/library\asn1write.c ****         cur->val.len = val_len;
 358:D:/Work/DeviceTester/amazon-freertos/lib/third_party/mbedtls/library\asn1write.c ****         cur->val.p = mbedtls_calloc( 1, val_len );
 359:D:/Work/DeviceTester/amazon-freertos/lib/third_party/mbedtls/library\asn1write.c ****         if( cur->val.p == NULL )
 360:D:/Work/DeviceTester/amazon-freertos/lib/third_party/mbedtls/library\asn1write.c ****         {
 361:D:/Work/DeviceTester/amazon-freertos/lib/third_party/mbedtls/library\asn1write.c ****             mbedtls_free( cur->oid.p );
 362:D:/Work/DeviceTester/amazon-freertos/lib/third_party/mbedtls/library\asn1write.c ****             mbedtls_free( cur );
 363:D:/Work/DeviceTester/amazon-freertos/lib/third_party/mbedtls/library\asn1write.c ****             return( NULL );
 364:D:/Work/DeviceTester/amazon-freertos/lib/third_party/mbedtls/library\asn1write.c ****         }
 365:D:/Work/DeviceTester/amazon-freertos/lib/third_party/mbedtls/library\asn1write.c **** 
 366:D:/Work/DeviceTester/amazon-freertos/lib/third_party/mbedtls/library\asn1write.c ****         cur->next = *head;
 367:D:/Work/DeviceTester/amazon-freertos/lib/third_party/mbedtls/library\asn1write.c ****         *head = cur;
 368:D:/Work/DeviceTester/amazon-freertos/lib/third_party/mbedtls/library\asn1write.c ****     }
 369:D:/Work/DeviceTester/amazon-freertos/lib/third_party/mbedtls/library\asn1write.c ****     else if( cur->val.len < val_len )
 370:D:/Work/DeviceTester/amazon-freertos/lib/third_party/mbedtls/library\asn1write.c ****     {
 371:D:/Work/DeviceTester/amazon-freertos/lib/third_party/mbedtls/library\asn1write.c ****         /*
 372:D:/Work/DeviceTester/amazon-freertos/lib/third_party/mbedtls/library\asn1write.c ****          * Enlarge existing value buffer if needed
 373:D:/Work/DeviceTester/amazon-freertos/lib/third_party/mbedtls/library\asn1write.c ****          * Preserve old data until the allocation succeeded, to leave list in
 374:D:/Work/DeviceTester/amazon-freertos/lib/third_party/mbedtls/library\asn1write.c ****          * a consistent state in case allocation fails.
 375:D:/Work/DeviceTester/amazon-freertos/lib/third_party/mbedtls/library\asn1write.c ****          */
 376:D:/Work/DeviceTester/amazon-freertos/lib/third_party/mbedtls/library\asn1write.c ****         void *p = mbedtls_calloc( 1, val_len );
 377:D:/Work/DeviceTester/amazon-freertos/lib/third_party/mbedtls/library\asn1write.c ****         if( p == NULL )
 378:D:/Work/DeviceTester/amazon-freertos/lib/third_party/mbedtls/library\asn1write.c ****             return( NULL );
 379:D:/Work/DeviceTester/amazon-freertos/lib/third_party/mbedtls/library\asn1write.c **** 
 380:D:/Work/DeviceTester/amazon-freertos/lib/third_party/mbedtls/library\asn1write.c ****         mbedtls_free( cur->val.p );
 381:D:/Work/DeviceTester/amazon-freertos/lib/third_party/mbedtls/library\asn1write.c ****         cur->val.p = p;
 382:D:/Work/DeviceTester/amazon-freertos/lib/third_party/mbedtls/library\asn1write.c ****         cur->val.len = val_len;
 383:D:/Work/DeviceTester/amazon-freertos/lib/third_party/mbedtls/library\asn1write.c ****     }
 384:D:/Work/DeviceTester/amazon-freertos/lib/third_party/mbedtls/library\asn1write.c **** 
 385:D:/Work/DeviceTester/amazon-freertos/lib/third_party/mbedtls/library\asn1write.c ****     if( val != NULL )
 386:D:/Work/DeviceTester/amazon-freertos/lib/third_party/mbedtls/library\asn1write.c ****         memcpy( cur->val.p, val, val_len );
 387:D:/Work/DeviceTester/amazon-freertos/lib/third_party/mbedtls/library\asn1write.c **** 
 388:D:/Work/DeviceTester/amazon-freertos/lib/third_party/mbedtls/library\asn1write.c ****     return( cur );
 389:D:/Work/DeviceTester/amazon-freertos/lib/third_party/mbedtls/library\asn1write.c **** }
 1115              		.loc 1 389 0
 1116 0040 0500A0E1 		mov	r0, r5
 1117 0044 F087BDE8 		pop	{r4, r5, r6, r7, r8, r9, r10, pc}
 1118              	.LVL161:
 1119              	.L69:
 347:D:/Work/DeviceTester/amazon-freertos/lib/third_party/mbedtls/library\asn1write.c ****         cur->oid.p = mbedtls_calloc( 1, oid_len );
 1120              		.loc 1 347 0
 1121 0048 048084E5 		str	r8, [r4, #4]
 348:D:/Work/DeviceTester/amazon-freertos/lib/third_party/mbedtls/library\asn1write.c ****         if( cur->oid.p == NULL )
 1122              		.loc 1 348 0
 1123 004c 0810A0E1 		mov	r1, r8
 1124 0050 0100A0E3 		mov	r0, #1
 1125              	.LVL162:
 1126 0054 FEFFFFEB 		bl	mbedtls_calloc
 1127              	.LVL163:
 349:D:/Work/DeviceTester/amazon-freertos/lib/third_party/mbedtls/library\asn1write.c ****         {
 1128              		.loc 1 349 0
 1129 0058 000050E3 		cmp	r0, #0
 348:D:/Work/DeviceTester/amazon-freertos/lib/third_party/mbedtls/library\asn1write.c ****         if( cur->oid.p == NULL )
 1130              		.loc 1 348 0
 1131 005c 080084E5 		str	r0, [r4, #8]
 349:D:/Work/DeviceTester/amazon-freertos/lib/third_party/mbedtls/library\asn1write.c ****         {
 1132              		.loc 1 349 0
 1133 0060 0200001A 		bne	.L71
 1134              	.L82:
 362:D:/Work/DeviceTester/amazon-freertos/lib/third_party/mbedtls/library\asn1write.c ****             return( NULL );
 1135              		.loc 1 362 0
 1136 0064 0400A0E1 		mov	r0, r4
 1137 0068 FEFFFFEB 		bl	mbedtls_free
 1138              	.LVL164:
 363:D:/Work/DeviceTester/amazon-freertos/lib/third_party/mbedtls/library\asn1write.c ****         }
 1139              		.loc 1 363 0
 1140 006c F3FFFFEA 		b	.L67
 1141              	.L71:
 355:D:/Work/DeviceTester/amazon-freertos/lib/third_party/mbedtls/library\asn1write.c **** 
 1142              		.loc 1 355 0
 1143 0070 0820A0E1 		mov	r2, r8
 1144 0074 0A10A0E1 		mov	r1, r10
 1145 0078 FEFFFFEB 		bl	memcpy
 1146              	.LVL165:
 357:D:/Work/DeviceTester/amazon-freertos/lib/third_party/mbedtls/library\asn1write.c ****         cur->val.p = mbedtls_calloc( 1, val_len );
 1147              		.loc 1 357 0
 1148 007c 106084E5 		str	r6, [r4, #16]
 358:D:/Work/DeviceTester/amazon-freertos/lib/third_party/mbedtls/library\asn1write.c ****         if( cur->val.p == NULL )
 1149              		.loc 1 358 0
 1150 0080 0610A0E1 		mov	r1, r6
 1151 0084 0100A0E3 		mov	r0, #1
 1152 0088 FEFFFFEB 		bl	mbedtls_calloc
 1153              	.LVL166:
 359:D:/Work/DeviceTester/amazon-freertos/lib/third_party/mbedtls/library\asn1write.c ****         {
 1154              		.loc 1 359 0
 1155 008c 000050E3 		cmp	r0, #0
 358:D:/Work/DeviceTester/amazon-freertos/lib/third_party/mbedtls/library\asn1write.c ****         if( cur->val.p == NULL )
 1156              		.loc 1 358 0
 1157 0090 140084E5 		str	r0, [r4, #20]
 359:D:/Work/DeviceTester/amazon-freertos/lib/third_party/mbedtls/library\asn1write.c ****         {
 1158              		.loc 1 359 0
 1159 0094 0200001A 		bne	.L72
 361:D:/Work/DeviceTester/amazon-freertos/lib/third_party/mbedtls/library\asn1write.c ****             mbedtls_free( cur );
 1160              		.loc 1 361 0
 1161 0098 080094E5 		ldr	r0, [r4, #8]
 1162 009c FEFFFFEB 		bl	mbedtls_free
 1163              	.LVL167:
 1164 00a0 EFFFFFEA 		b	.L82
 1165              	.L72:
 366:D:/Work/DeviceTester/amazon-freertos/lib/third_party/mbedtls/library\asn1write.c ****         *head = cur;
 1166              		.loc 1 366 0
 1167 00a4 003097E5 		ldr	r3, [r7]
 1168 00a8 0450A0E1 		mov	r5, r4
 1169 00ac 183084E5 		str	r3, [r4, #24]
 367:D:/Work/DeviceTester/amazon-freertos/lib/third_party/mbedtls/library\asn1write.c ****     }
 1170              		.loc 1 367 0
 1171 00b0 004087E5 		str	r4, [r7]
 1172              	.LVL168:
 1173              	.L73:
 385:D:/Work/DeviceTester/amazon-freertos/lib/third_party/mbedtls/library\asn1write.c ****         memcpy( cur->val.p, val, val_len );
 1174              		.loc 1 385 0
 1175 00b4 000059E3 		cmp	r9, #0
 1176 00b8 E0FFFF0A 		beq	.L67
 386:D:/Work/DeviceTester/amazon-freertos/lib/third_party/mbedtls/library\asn1write.c **** 
 1177              		.loc 1 386 0
 1178 00bc 0620A0E1 		mov	r2, r6
 1179 00c0 0910A0E1 		mov	r1, r9
 1180 00c4 140095E5 		ldr	r0, [r5, #20]
 1181 00c8 FEFFFFEB 		bl	memcpy
 1182              	.LVL169:
 1183 00cc DBFFFFEA 		b	.L67
 1184              	.LVL170:
 1185              	.L68:
 369:D:/Work/DeviceTester/amazon-freertos/lib/third_party/mbedtls/library\asn1write.c ****     {
 1186              		.loc 1 369 0
 1187 00d0 103095E5 		ldr	r3, [r5, #16]
 1188 00d4 030056E1 		cmp	r6, r3
 1189 00d8 F5FFFF9A 		bls	.L73
 1190              	.LBB6:
 376:D:/Work/DeviceTester/amazon-freertos/lib/third_party/mbedtls/library\asn1write.c ****         if( p == NULL )
 1191              		.loc 1 376 0
 1192 00dc 0610A0E1 		mov	r1, r6
 1193 00e0 0100A0E3 		mov	r0, #1
 1194              	.LVL171:
 1195 00e4 FEFFFFEB 		bl	mbedtls_calloc
 1196              	.LVL172:
 377:D:/Work/DeviceTester/amazon-freertos/lib/third_party/mbedtls/library\asn1write.c ****             return( NULL );
 1197              		.loc 1 377 0
 1198 00e8 004050E2 		subs	r4, r0, #0
 1199 00ec D2FFFF0A 		beq	.L74
 380:D:/Work/DeviceTester/amazon-freertos/lib/third_party/mbedtls/library\asn1write.c ****         cur->val.p = p;
 1200              		.loc 1 380 0
 1201 00f0 140095E5 		ldr	r0, [r5, #20]
 1202              	.LVL173:
 1203 00f4 FEFFFFEB 		bl	mbedtls_free
 1204              	.LVL174:
 381:D:/Work/DeviceTester/amazon-freertos/lib/third_party/mbedtls/library\asn1write.c ****         cur->val.len = val_len;
 1205              		.loc 1 381 0
 1206 00f8 144085E5 		str	r4, [r5, #20]
 382:D:/Work/DeviceTester/amazon-freertos/lib/third_party/mbedtls/library\asn1write.c ****     }
 1207              		.loc 1 382 0
 1208 00fc 106085E5 		str	r6, [r5, #16]
 1209 0100 EBFFFFEA 		b	.L73
 1210              	.LBE6:
 1211              		.cfi_endproc
 1212              	.LFE14:
 1214              		.text
 1215              	.Letext0:
 1216              		.file 2 "c:\\program files (x86)\\gnu tools arm embedded\\6 2017-q2-update\\arm-none-eabi\\include
 1217              		.file 3 "c:\\program files (x86)\\gnu tools arm embedded\\6 2017-q2-update\\lib\\gcc\\arm-none-eab
 1218              		.file 4 "c:\\program files (x86)\\gnu tools arm embedded\\6 2017-q2-update\\arm-none-eabi\\include
 1219              		.file 5 "D:\\Work\\DeviceTester\\amazon-freertos\\lib\\third_party\\mbedtls\\include/mbedtls/bignu
 1220              		.file 6 "D:\\Work\\DeviceTester\\amazon-freertos\\lib\\third_party\\mbedtls\\include/mbedtls/asn1.
 1221              		.file 7 "c:\\program files (x86)\\gnu tools arm embedded\\6 2017-q2-update\\arm-none-eabi\\include
 1222              		.file 8 "c:\\program files (x86)\\gnu tools arm embedded\\6 2017-q2-update\\arm-none-eabi\\include
 1223              		.file 9 "c:\\program files (x86)\\gnu tools arm embedded\\6 2017-q2-update\\arm-none-eabi\\include
 1224              		.file 10 "c:\\program files (x86)\\gnu tools arm embedded\\6 2017-q2-update\\arm-none-eabi\\includ
 1225              		.file 11 "c:\\program files (x86)\\gnu tools arm embedded\\6 2017-q2-update\\arm-none-eabi\\includ
 1226              		.file 12 "D:\\Work\\DeviceTester\\amazon-freertos\\lib\\third_party\\mbedtls\\include/mbedtls/plat