   1              		.cpu cortex-a9
   2              		.eabi_attribute 28, 1
   3              		.eabi_attribute 20, 1
   4              		.eabi_attribute 21, 1
   5              		.eabi_attribute 23, 3
   6              		.eabi_attribute 24, 1
   7              		.eabi_attribute 25, 1
   8              		.eabi_attribute 26, 1
   9              		.eabi_attribute 30, 4
  10              		.eabi_attribute 34, 0
  11              		.eabi_attribute 18, 4
  12              		.file	"ctr_drbg.c"
  13              		.text
  14              	.Ltext0:
  15              		.cfi_sections	.debug_frame
  16              		.section	.text.ctr_drbg_self_test_entropy,"ax",%progbits
  17              		.align	2
  18              		.syntax unified
  19              		.arm
  20              		.fpu neon
  22              	ctr_drbg_self_test_entropy:
  23              	.LFB14:
  24              		.file 1 "D:/Work/DeviceTester/amazon-freertos/lib/third_party/mbedtls/library/ctr_drbg.c"
   1:D:/Work/DeviceTester/amazon-freertos/lib/third_party/mbedtls/library\ctr_drbg.c **** /*
   2:D:/Work/DeviceTester/amazon-freertos/lib/third_party/mbedtls/library\ctr_drbg.c ****  *  CTR_DRBG implementation based on AES-256 (NIST SP 800-90)
   3:D:/Work/DeviceTester/amazon-freertos/lib/third_party/mbedtls/library\ctr_drbg.c ****  *
   4:D:/Work/DeviceTester/amazon-freertos/lib/third_party/mbedtls/library\ctr_drbg.c ****  *  Copyright (C) 2006-2015, ARM Limited, All Rights Reserved
   5:D:/Work/DeviceTester/amazon-freertos/lib/third_party/mbedtls/library\ctr_drbg.c ****  *  SPDX-License-Identifier: Apache-2.0
   6:D:/Work/DeviceTester/amazon-freertos/lib/third_party/mbedtls/library\ctr_drbg.c ****  *
   7:D:/Work/DeviceTester/amazon-freertos/lib/third_party/mbedtls/library\ctr_drbg.c ****  *  Licensed under the Apache License, Version 2.0 (the "License"); you may
   8:D:/Work/DeviceTester/amazon-freertos/lib/third_party/mbedtls/library\ctr_drbg.c ****  *  not use this file except in compliance with the License.
   9:D:/Work/DeviceTester/amazon-freertos/lib/third_party/mbedtls/library\ctr_drbg.c ****  *  You may obtain a copy of the License at
  10:D:/Work/DeviceTester/amazon-freertos/lib/third_party/mbedtls/library\ctr_drbg.c ****  *
  11:D:/Work/DeviceTester/amazon-freertos/lib/third_party/mbedtls/library\ctr_drbg.c ****  *  http://www.apache.org/licenses/LICENSE-2.0
  12:D:/Work/DeviceTester/amazon-freertos/lib/third_party/mbedtls/library\ctr_drbg.c ****  *
  13:D:/Work/DeviceTester/amazon-freertos/lib/third_party/mbedtls/library\ctr_drbg.c ****  *  Unless required by applicable law or agreed to in writing, software
  14:D:/Work/DeviceTester/amazon-freertos/lib/third_party/mbedtls/library\ctr_drbg.c ****  *  distributed under the License is distributed on an "AS IS" BASIS, WITHOUT
  15:D:/Work/DeviceTester/amazon-freertos/lib/third_party/mbedtls/library\ctr_drbg.c ****  *  WARRANTIES OR CONDITIONS OF ANY KIND, either express or implied.
  16:D:/Work/DeviceTester/amazon-freertos/lib/third_party/mbedtls/library\ctr_drbg.c ****  *  See the License for the specific language governing permissions and
  17:D:/Work/DeviceTester/amazon-freertos/lib/third_party/mbedtls/library\ctr_drbg.c ****  *  limitations under the License.
  18:D:/Work/DeviceTester/amazon-freertos/lib/third_party/mbedtls/library\ctr_drbg.c ****  *
  19:D:/Work/DeviceTester/amazon-freertos/lib/third_party/mbedtls/library\ctr_drbg.c ****  *  This file is part of mbed TLS (https://tls.mbed.org)
  20:D:/Work/DeviceTester/amazon-freertos/lib/third_party/mbedtls/library\ctr_drbg.c ****  */
  21:D:/Work/DeviceTester/amazon-freertos/lib/third_party/mbedtls/library\ctr_drbg.c **** /*
  22:D:/Work/DeviceTester/amazon-freertos/lib/third_party/mbedtls/library\ctr_drbg.c ****  *  The NIST SP 800-90 DRBGs are described in the following publication.
  23:D:/Work/DeviceTester/amazon-freertos/lib/third_party/mbedtls/library\ctr_drbg.c ****  *
  24:D:/Work/DeviceTester/amazon-freertos/lib/third_party/mbedtls/library\ctr_drbg.c ****  *  http://csrc.nist.gov/publications/nistpubs/800-90/SP800-90revised_March2007.pdf
  25:D:/Work/DeviceTester/amazon-freertos/lib/third_party/mbedtls/library\ctr_drbg.c ****  */
  26:D:/Work/DeviceTester/amazon-freertos/lib/third_party/mbedtls/library\ctr_drbg.c **** 
  27:D:/Work/DeviceTester/amazon-freertos/lib/third_party/mbedtls/library\ctr_drbg.c **** #if !defined(MBEDTLS_CONFIG_FILE)
  28:D:/Work/DeviceTester/amazon-freertos/lib/third_party/mbedtls/library\ctr_drbg.c **** #include "mbedtls/config.h"
  29:D:/Work/DeviceTester/amazon-freertos/lib/third_party/mbedtls/library\ctr_drbg.c **** #else
  30:D:/Work/DeviceTester/amazon-freertos/lib/third_party/mbedtls/library\ctr_drbg.c **** #include MBEDTLS_CONFIG_FILE
  31:D:/Work/DeviceTester/amazon-freertos/lib/third_party/mbedtls/library\ctr_drbg.c **** #endif
  32:D:/Work/DeviceTester/amazon-freertos/lib/third_party/mbedtls/library\ctr_drbg.c **** 
  33:D:/Work/DeviceTester/amazon-freertos/lib/third_party/mbedtls/library\ctr_drbg.c **** #if defined(MBEDTLS_CTR_DRBG_C)
  34:D:/Work/DeviceTester/amazon-freertos/lib/third_party/mbedtls/library\ctr_drbg.c **** 
  35:D:/Work/DeviceTester/amazon-freertos/lib/third_party/mbedtls/library\ctr_drbg.c **** #include "mbedtls/ctr_drbg.h"
  36:D:/Work/DeviceTester/amazon-freertos/lib/third_party/mbedtls/library\ctr_drbg.c **** #include "mbedtls/platform_util.h"
  37:D:/Work/DeviceTester/amazon-freertos/lib/third_party/mbedtls/library\ctr_drbg.c **** 
  38:D:/Work/DeviceTester/amazon-freertos/lib/third_party/mbedtls/library\ctr_drbg.c **** #include <string.h>
  39:D:/Work/DeviceTester/amazon-freertos/lib/third_party/mbedtls/library\ctr_drbg.c **** 
  40:D:/Work/DeviceTester/amazon-freertos/lib/third_party/mbedtls/library\ctr_drbg.c **** #if defined(MBEDTLS_FS_IO)
  41:D:/Work/DeviceTester/amazon-freertos/lib/third_party/mbedtls/library\ctr_drbg.c **** #include <stdio.h>
  42:D:/Work/DeviceTester/amazon-freertos/lib/third_party/mbedtls/library\ctr_drbg.c **** #endif
  43:D:/Work/DeviceTester/amazon-freertos/lib/third_party/mbedtls/library\ctr_drbg.c **** 
  44:D:/Work/DeviceTester/amazon-freertos/lib/third_party/mbedtls/library\ctr_drbg.c **** #if defined(MBEDTLS_SELF_TEST)
  45:D:/Work/DeviceTester/amazon-freertos/lib/third_party/mbedtls/library\ctr_drbg.c **** #if defined(MBEDTLS_PLATFORM_C)
  46:D:/Work/DeviceTester/amazon-freertos/lib/third_party/mbedtls/library\ctr_drbg.c **** #include "mbedtls/platform.h"
  47:D:/Work/DeviceTester/amazon-freertos/lib/third_party/mbedtls/library\ctr_drbg.c **** #else
  48:D:/Work/DeviceTester/amazon-freertos/lib/third_party/mbedtls/library\ctr_drbg.c **** #include <stdio.h>
  49:D:/Work/DeviceTester/amazon-freertos/lib/third_party/mbedtls/library\ctr_drbg.c **** #define mbedtls_printf printf
  50:D:/Work/DeviceTester/amazon-freertos/lib/third_party/mbedtls/library\ctr_drbg.c **** #endif /* MBEDTLS_PLATFORM_C */
  51:D:/Work/DeviceTester/amazon-freertos/lib/third_party/mbedtls/library\ctr_drbg.c **** #endif /* MBEDTLS_SELF_TEST */
  52:D:/Work/DeviceTester/amazon-freertos/lib/third_party/mbedtls/library\ctr_drbg.c **** 
  53:D:/Work/DeviceTester/amazon-freertos/lib/third_party/mbedtls/library\ctr_drbg.c **** /*
  54:D:/Work/DeviceTester/amazon-freertos/lib/third_party/mbedtls/library\ctr_drbg.c ****  * CTR_DRBG context initialization
  55:D:/Work/DeviceTester/amazon-freertos/lib/third_party/mbedtls/library\ctr_drbg.c ****  */
  56:D:/Work/DeviceTester/amazon-freertos/lib/third_party/mbedtls/library\ctr_drbg.c **** void mbedtls_ctr_drbg_init( mbedtls_ctr_drbg_context *ctx )
  57:D:/Work/DeviceTester/amazon-freertos/lib/third_party/mbedtls/library\ctr_drbg.c **** {
  58:D:/Work/DeviceTester/amazon-freertos/lib/third_party/mbedtls/library\ctr_drbg.c ****     memset( ctx, 0, sizeof( mbedtls_ctr_drbg_context ) );
  59:D:/Work/DeviceTester/amazon-freertos/lib/third_party/mbedtls/library\ctr_drbg.c **** 
  60:D:/Work/DeviceTester/amazon-freertos/lib/third_party/mbedtls/library\ctr_drbg.c **** #if defined(MBEDTLS_THREADING_C)
  61:D:/Work/DeviceTester/amazon-freertos/lib/third_party/mbedtls/library\ctr_drbg.c ****     mbedtls_mutex_init( &ctx->mutex );
  62:D:/Work/DeviceTester/amazon-freertos/lib/third_party/mbedtls/library\ctr_drbg.c **** #endif
  63:D:/Work/DeviceTester/amazon-freertos/lib/third_party/mbedtls/library\ctr_drbg.c **** }
  64:D:/Work/DeviceTester/amazon-freertos/lib/third_party/mbedtls/library\ctr_drbg.c **** 
  65:D:/Work/DeviceTester/amazon-freertos/lib/third_party/mbedtls/library\ctr_drbg.c **** /*
  66:D:/Work/DeviceTester/amazon-freertos/lib/third_party/mbedtls/library\ctr_drbg.c ****  * Non-public function wrapped by mbedtls_ctr_drbg_seed(). Necessary to allow
  67:D:/Work/DeviceTester/amazon-freertos/lib/third_party/mbedtls/library\ctr_drbg.c ****  * NIST tests to succeed (which require known length fixed entropy)
  68:D:/Work/DeviceTester/amazon-freertos/lib/third_party/mbedtls/library\ctr_drbg.c ****  */
  69:D:/Work/DeviceTester/amazon-freertos/lib/third_party/mbedtls/library\ctr_drbg.c **** int mbedtls_ctr_drbg_seed_entropy_len(
  70:D:/Work/DeviceTester/amazon-freertos/lib/third_party/mbedtls/library\ctr_drbg.c ****                    mbedtls_ctr_drbg_context *ctx,
  71:D:/Work/DeviceTester/amazon-freertos/lib/third_party/mbedtls/library\ctr_drbg.c ****                    int (*f_entropy)(void *, unsigned char *, size_t),
  72:D:/Work/DeviceTester/amazon-freertos/lib/third_party/mbedtls/library\ctr_drbg.c ****                    void *p_entropy,
  73:D:/Work/DeviceTester/amazon-freertos/lib/third_party/mbedtls/library\ctr_drbg.c ****                    const unsigned char *custom,
  74:D:/Work/DeviceTester/amazon-freertos/lib/third_party/mbedtls/library\ctr_drbg.c ****                    size_t len,
  75:D:/Work/DeviceTester/amazon-freertos/lib/third_party/mbedtls/library\ctr_drbg.c ****                    size_t entropy_len )
  76:D:/Work/DeviceTester/amazon-freertos/lib/third_party/mbedtls/library\ctr_drbg.c **** {
  77:D:/Work/DeviceTester/amazon-freertos/lib/third_party/mbedtls/library\ctr_drbg.c ****     int ret;
  78:D:/Work/DeviceTester/amazon-freertos/lib/third_party/mbedtls/library\ctr_drbg.c ****     unsigned char key[MBEDTLS_CTR_DRBG_KEYSIZE];
  79:D:/Work/DeviceTester/amazon-freertos/lib/third_party/mbedtls/library\ctr_drbg.c **** 
  80:D:/Work/DeviceTester/amazon-freertos/lib/third_party/mbedtls/library\ctr_drbg.c ****     memset( key, 0, MBEDTLS_CTR_DRBG_KEYSIZE );
  81:D:/Work/DeviceTester/amazon-freertos/lib/third_party/mbedtls/library\ctr_drbg.c **** 
  82:D:/Work/DeviceTester/amazon-freertos/lib/third_party/mbedtls/library\ctr_drbg.c ****     mbedtls_aes_init( &ctx->aes_ctx );
  83:D:/Work/DeviceTester/amazon-freertos/lib/third_party/mbedtls/library\ctr_drbg.c **** 
  84:D:/Work/DeviceTester/amazon-freertos/lib/third_party/mbedtls/library\ctr_drbg.c ****     ctx->f_entropy = f_entropy;
  85:D:/Work/DeviceTester/amazon-freertos/lib/third_party/mbedtls/library\ctr_drbg.c ****     ctx->p_entropy = p_entropy;
  86:D:/Work/DeviceTester/amazon-freertos/lib/third_party/mbedtls/library\ctr_drbg.c **** 
  87:D:/Work/DeviceTester/amazon-freertos/lib/third_party/mbedtls/library\ctr_drbg.c ****     ctx->entropy_len = entropy_len;
  88:D:/Work/DeviceTester/amazon-freertos/lib/third_party/mbedtls/library\ctr_drbg.c ****     ctx->reseed_interval = MBEDTLS_CTR_DRBG_RESEED_INTERVAL;
  89:D:/Work/DeviceTester/amazon-freertos/lib/third_party/mbedtls/library\ctr_drbg.c **** 
  90:D:/Work/DeviceTester/amazon-freertos/lib/third_party/mbedtls/library\ctr_drbg.c ****     /*
  91:D:/Work/DeviceTester/amazon-freertos/lib/third_party/mbedtls/library\ctr_drbg.c ****      * Initialize with an empty key
  92:D:/Work/DeviceTester/amazon-freertos/lib/third_party/mbedtls/library\ctr_drbg.c ****      */
  93:D:/Work/DeviceTester/amazon-freertos/lib/third_party/mbedtls/library\ctr_drbg.c ****     if( ( ret = mbedtls_aes_setkey_enc( &ctx->aes_ctx, key, MBEDTLS_CTR_DRBG_KEYBITS ) ) != 0 )
  94:D:/Work/DeviceTester/amazon-freertos/lib/third_party/mbedtls/library\ctr_drbg.c ****     {
  95:D:/Work/DeviceTester/amazon-freertos/lib/third_party/mbedtls/library\ctr_drbg.c ****         return( ret );
  96:D:/Work/DeviceTester/amazon-freertos/lib/third_party/mbedtls/library\ctr_drbg.c ****     }
  97:D:/Work/DeviceTester/amazon-freertos/lib/third_party/mbedtls/library\ctr_drbg.c **** 
  98:D:/Work/DeviceTester/amazon-freertos/lib/third_party/mbedtls/library\ctr_drbg.c ****     if( ( ret = mbedtls_ctr_drbg_reseed( ctx, custom, len ) ) != 0 )
  99:D:/Work/DeviceTester/amazon-freertos/lib/third_party/mbedtls/library\ctr_drbg.c ****     {
 100:D:/Work/DeviceTester/amazon-freertos/lib/third_party/mbedtls/library\ctr_drbg.c ****         return( ret );
 101:D:/Work/DeviceTester/amazon-freertos/lib/third_party/mbedtls/library\ctr_drbg.c ****     }
 102:D:/Work/DeviceTester/amazon-freertos/lib/third_party/mbedtls/library\ctr_drbg.c ****     return( 0 );
 103:D:/Work/DeviceTester/amazon-freertos/lib/third_party/mbedtls/library\ctr_drbg.c **** }
 104:D:/Work/DeviceTester/amazon-freertos/lib/third_party/mbedtls/library\ctr_drbg.c **** 
 105:D:/Work/DeviceTester/amazon-freertos/lib/third_party/mbedtls/library\ctr_drbg.c **** int mbedtls_ctr_drbg_seed( mbedtls_ctr_drbg_context *ctx,
 106:D:/Work/DeviceTester/amazon-freertos/lib/third_party/mbedtls/library\ctr_drbg.c ****                    int (*f_entropy)(void *, unsigned char *, size_t),
 107:D:/Work/DeviceTester/amazon-freertos/lib/third_party/mbedtls/library\ctr_drbg.c ****                    void *p_entropy,
 108:D:/Work/DeviceTester/amazon-freertos/lib/third_party/mbedtls/library\ctr_drbg.c ****                    const unsigned char *custom,
 109:D:/Work/DeviceTester/amazon-freertos/lib/third_party/mbedtls/library\ctr_drbg.c ****                    size_t len )
 110:D:/Work/DeviceTester/amazon-freertos/lib/third_party/mbedtls/library\ctr_drbg.c **** {
 111:D:/Work/DeviceTester/amazon-freertos/lib/third_party/mbedtls/library\ctr_drbg.c ****     return( mbedtls_ctr_drbg_seed_entropy_len( ctx, f_entropy, p_entropy, custom, len,
 112:D:/Work/DeviceTester/amazon-freertos/lib/third_party/mbedtls/library\ctr_drbg.c ****                                        MBEDTLS_CTR_DRBG_ENTROPY_LEN ) );
 113:D:/Work/DeviceTester/amazon-freertos/lib/third_party/mbedtls/library\ctr_drbg.c **** }
 114:D:/Work/DeviceTester/amazon-freertos/lib/third_party/mbedtls/library\ctr_drbg.c **** 
 115:D:/Work/DeviceTester/amazon-freertos/lib/third_party/mbedtls/library\ctr_drbg.c **** void mbedtls_ctr_drbg_free( mbedtls_ctr_drbg_context *ctx )
 116:D:/Work/DeviceTester/amazon-freertos/lib/third_party/mbedtls/library\ctr_drbg.c **** {
 117:D:/Work/DeviceTester/amazon-freertos/lib/third_party/mbedtls/library\ctr_drbg.c ****     if( ctx == NULL )
 118:D:/Work/DeviceTester/amazon-freertos/lib/third_party/mbedtls/library\ctr_drbg.c ****         return;
 119:D:/Work/DeviceTester/amazon-freertos/lib/third_party/mbedtls/library\ctr_drbg.c **** 
 120:D:/Work/DeviceTester/amazon-freertos/lib/third_party/mbedtls/library\ctr_drbg.c **** #if defined(MBEDTLS_THREADING_C)
 121:D:/Work/DeviceTester/amazon-freertos/lib/third_party/mbedtls/library\ctr_drbg.c ****     mbedtls_mutex_free( &ctx->mutex );
 122:D:/Work/DeviceTester/amazon-freertos/lib/third_party/mbedtls/library\ctr_drbg.c **** #endif
 123:D:/Work/DeviceTester/amazon-freertos/lib/third_party/mbedtls/library\ctr_drbg.c ****     mbedtls_aes_free( &ctx->aes_ctx );
 124:D:/Work/DeviceTester/amazon-freertos/lib/third_party/mbedtls/library\ctr_drbg.c ****     mbedtls_platform_zeroize( ctx, sizeof( mbedtls_ctr_drbg_context ) );
 125:D:/Work/DeviceTester/amazon-freertos/lib/third_party/mbedtls/library\ctr_drbg.c **** }
 126:D:/Work/DeviceTester/amazon-freertos/lib/third_party/mbedtls/library\ctr_drbg.c **** 
 127:D:/Work/DeviceTester/amazon-freertos/lib/third_party/mbedtls/library\ctr_drbg.c **** void mbedtls_ctr_drbg_set_prediction_resistance( mbedtls_ctr_drbg_context *ctx, int resistance )
 128:D:/Work/DeviceTester/amazon-freertos/lib/third_party/mbedtls/library\ctr_drbg.c **** {
 129:D:/Work/DeviceTester/amazon-freertos/lib/third_party/mbedtls/library\ctr_drbg.c ****     ctx->prediction_resistance = resistance;
 130:D:/Work/DeviceTester/amazon-freertos/lib/third_party/mbedtls/library\ctr_drbg.c **** }
 131:D:/Work/DeviceTester/amazon-freertos/lib/third_party/mbedtls/library\ctr_drbg.c **** 
 132:D:/Work/DeviceTester/amazon-freertos/lib/third_party/mbedtls/library\ctr_drbg.c **** void mbedtls_ctr_drbg_set_entropy_len( mbedtls_ctr_drbg_context *ctx, size_t len )
 133:D:/Work/DeviceTester/amazon-freertos/lib/third_party/mbedtls/library\ctr_drbg.c **** {
 134:D:/Work/DeviceTester/amazon-freertos/lib/third_party/mbedtls/library\ctr_drbg.c ****     ctx->entropy_len = len;
 135:D:/Work/DeviceTester/amazon-freertos/lib/third_party/mbedtls/library\ctr_drbg.c **** }
 136:D:/Work/DeviceTester/amazon-freertos/lib/third_party/mbedtls/library\ctr_drbg.c **** 
 137:D:/Work/DeviceTester/amazon-freertos/lib/third_party/mbedtls/library\ctr_drbg.c **** void mbedtls_ctr_drbg_set_reseed_interval( mbedtls_ctr_drbg_context *ctx, int interval )
 138:D:/Work/DeviceTester/amazon-freertos/lib/third_party/mbedtls/library\ctr_drbg.c **** {
 139:D:/Work/DeviceTester/amazon-freertos/lib/third_party/mbedtls/library\ctr_drbg.c ****     ctx->reseed_interval = interval;
 140:D:/Work/DeviceTester/amazon-freertos/lib/third_party/mbedtls/library\ctr_drbg.c **** }
 141:D:/Work/DeviceTester/amazon-freertos/lib/third_party/mbedtls/library\ctr_drbg.c **** 
 142:D:/Work/DeviceTester/amazon-freertos/lib/third_party/mbedtls/library\ctr_drbg.c **** static int block_cipher_df( unsigned char *output,
 143:D:/Work/DeviceTester/amazon-freertos/lib/third_party/mbedtls/library\ctr_drbg.c ****                             const unsigned char *data, size_t data_len )
 144:D:/Work/DeviceTester/amazon-freertos/lib/third_party/mbedtls/library\ctr_drbg.c **** {
 145:D:/Work/DeviceTester/amazon-freertos/lib/third_party/mbedtls/library\ctr_drbg.c ****     unsigned char buf[MBEDTLS_CTR_DRBG_MAX_SEED_INPUT + MBEDTLS_CTR_DRBG_BLOCKSIZE + 16];
 146:D:/Work/DeviceTester/amazon-freertos/lib/third_party/mbedtls/library\ctr_drbg.c ****     unsigned char tmp[MBEDTLS_CTR_DRBG_SEEDLEN];
 147:D:/Work/DeviceTester/amazon-freertos/lib/third_party/mbedtls/library\ctr_drbg.c ****     unsigned char key[MBEDTLS_CTR_DRBG_KEYSIZE];
 148:D:/Work/DeviceTester/amazon-freertos/lib/third_party/mbedtls/library\ctr_drbg.c ****     unsigned char chain[MBEDTLS_CTR_DRBG_BLOCKSIZE];
 149:D:/Work/DeviceTester/amazon-freertos/lib/third_party/mbedtls/library\ctr_drbg.c ****     unsigned char *p, *iv;
 150:D:/Work/DeviceTester/amazon-freertos/lib/third_party/mbedtls/library\ctr_drbg.c ****     mbedtls_aes_context aes_ctx;
 151:D:/Work/DeviceTester/amazon-freertos/lib/third_party/mbedtls/library\ctr_drbg.c ****     int ret = 0;
 152:D:/Work/DeviceTester/amazon-freertos/lib/third_party/mbedtls/library\ctr_drbg.c **** 
 153:D:/Work/DeviceTester/amazon-freertos/lib/third_party/mbedtls/library\ctr_drbg.c ****     int i, j;
 154:D:/Work/DeviceTester/amazon-freertos/lib/third_party/mbedtls/library\ctr_drbg.c ****     size_t buf_len, use_len;
 155:D:/Work/DeviceTester/amazon-freertos/lib/third_party/mbedtls/library\ctr_drbg.c **** 
 156:D:/Work/DeviceTester/amazon-freertos/lib/third_party/mbedtls/library\ctr_drbg.c ****     if( data_len > MBEDTLS_CTR_DRBG_MAX_SEED_INPUT )
 157:D:/Work/DeviceTester/amazon-freertos/lib/third_party/mbedtls/library\ctr_drbg.c ****         return( MBEDTLS_ERR_CTR_DRBG_INPUT_TOO_BIG );
 158:D:/Work/DeviceTester/amazon-freertos/lib/third_party/mbedtls/library\ctr_drbg.c **** 
 159:D:/Work/DeviceTester/amazon-freertos/lib/third_party/mbedtls/library\ctr_drbg.c ****     memset( buf, 0, MBEDTLS_CTR_DRBG_MAX_SEED_INPUT + MBEDTLS_CTR_DRBG_BLOCKSIZE + 16 );
 160:D:/Work/DeviceTester/amazon-freertos/lib/third_party/mbedtls/library\ctr_drbg.c ****     mbedtls_aes_init( &aes_ctx );
 161:D:/Work/DeviceTester/amazon-freertos/lib/third_party/mbedtls/library\ctr_drbg.c **** 
 162:D:/Work/DeviceTester/amazon-freertos/lib/third_party/mbedtls/library\ctr_drbg.c ****     /*
 163:D:/Work/DeviceTester/amazon-freertos/lib/third_party/mbedtls/library\ctr_drbg.c ****      * Construct IV (16 bytes) and S in buffer
 164:D:/Work/DeviceTester/amazon-freertos/lib/third_party/mbedtls/library\ctr_drbg.c ****      * IV = Counter (in 32-bits) padded to 16 with zeroes
 165:D:/Work/DeviceTester/amazon-freertos/lib/third_party/mbedtls/library\ctr_drbg.c ****      * S = Length input string (in 32-bits) || Length of output (in 32-bits) ||
 166:D:/Work/DeviceTester/amazon-freertos/lib/third_party/mbedtls/library\ctr_drbg.c ****      *     data || 0x80
 167:D:/Work/DeviceTester/amazon-freertos/lib/third_party/mbedtls/library\ctr_drbg.c ****      *     (Total is padded to a multiple of 16-bytes with zeroes)
 168:D:/Work/DeviceTester/amazon-freertos/lib/third_party/mbedtls/library\ctr_drbg.c ****      */
 169:D:/Work/DeviceTester/amazon-freertos/lib/third_party/mbedtls/library\ctr_drbg.c ****     p = buf + MBEDTLS_CTR_DRBG_BLOCKSIZE;
 170:D:/Work/DeviceTester/amazon-freertos/lib/third_party/mbedtls/library\ctr_drbg.c ****     *p++ = ( data_len >> 24 ) & 0xff;
 171:D:/Work/DeviceTester/amazon-freertos/lib/third_party/mbedtls/library\ctr_drbg.c ****     *p++ = ( data_len >> 16 ) & 0xff;
 172:D:/Work/DeviceTester/amazon-freertos/lib/third_party/mbedtls/library\ctr_drbg.c ****     *p++ = ( data_len >> 8  ) & 0xff;
 173:D:/Work/DeviceTester/amazon-freertos/lib/third_party/mbedtls/library\ctr_drbg.c ****     *p++ = ( data_len       ) & 0xff;
 174:D:/Work/DeviceTester/amazon-freertos/lib/third_party/mbedtls/library\ctr_drbg.c ****     p += 3;
 175:D:/Work/DeviceTester/amazon-freertos/lib/third_party/mbedtls/library\ctr_drbg.c ****     *p++ = MBEDTLS_CTR_DRBG_SEEDLEN;
 176:D:/Work/DeviceTester/amazon-freertos/lib/third_party/mbedtls/library\ctr_drbg.c ****     memcpy( p, data, data_len );
 177:D:/Work/DeviceTester/amazon-freertos/lib/third_party/mbedtls/library\ctr_drbg.c ****     p[data_len] = 0x80;
 178:D:/Work/DeviceTester/amazon-freertos/lib/third_party/mbedtls/library\ctr_drbg.c **** 
 179:D:/Work/DeviceTester/amazon-freertos/lib/third_party/mbedtls/library\ctr_drbg.c ****     buf_len = MBEDTLS_CTR_DRBG_BLOCKSIZE + 8 + data_len + 1;
 180:D:/Work/DeviceTester/amazon-freertos/lib/third_party/mbedtls/library\ctr_drbg.c **** 
 181:D:/Work/DeviceTester/amazon-freertos/lib/third_party/mbedtls/library\ctr_drbg.c ****     for( i = 0; i < MBEDTLS_CTR_DRBG_KEYSIZE; i++ )
 182:D:/Work/DeviceTester/amazon-freertos/lib/third_party/mbedtls/library\ctr_drbg.c ****         key[i] = i;
 183:D:/Work/DeviceTester/amazon-freertos/lib/third_party/mbedtls/library\ctr_drbg.c **** 
 184:D:/Work/DeviceTester/amazon-freertos/lib/third_party/mbedtls/library\ctr_drbg.c ****     if( ( ret = mbedtls_aes_setkey_enc( &aes_ctx, key, MBEDTLS_CTR_DRBG_KEYBITS ) ) != 0 )
 185:D:/Work/DeviceTester/amazon-freertos/lib/third_party/mbedtls/library\ctr_drbg.c ****     {
 186:D:/Work/DeviceTester/amazon-freertos/lib/third_party/mbedtls/library\ctr_drbg.c ****         goto exit;
 187:D:/Work/DeviceTester/amazon-freertos/lib/third_party/mbedtls/library\ctr_drbg.c ****     }
 188:D:/Work/DeviceTester/amazon-freertos/lib/third_party/mbedtls/library\ctr_drbg.c **** 
 189:D:/Work/DeviceTester/amazon-freertos/lib/third_party/mbedtls/library\ctr_drbg.c ****     /*
 190:D:/Work/DeviceTester/amazon-freertos/lib/third_party/mbedtls/library\ctr_drbg.c ****      * Reduce data to MBEDTLS_CTR_DRBG_SEEDLEN bytes of data
 191:D:/Work/DeviceTester/amazon-freertos/lib/third_party/mbedtls/library\ctr_drbg.c ****      */
 192:D:/Work/DeviceTester/amazon-freertos/lib/third_party/mbedtls/library\ctr_drbg.c ****     for( j = 0; j < MBEDTLS_CTR_DRBG_SEEDLEN; j += MBEDTLS_CTR_DRBG_BLOCKSIZE )
 193:D:/Work/DeviceTester/amazon-freertos/lib/third_party/mbedtls/library\ctr_drbg.c ****     {
 194:D:/Work/DeviceTester/amazon-freertos/lib/third_party/mbedtls/library\ctr_drbg.c ****         p = buf;
 195:D:/Work/DeviceTester/amazon-freertos/lib/third_party/mbedtls/library\ctr_drbg.c ****         memset( chain, 0, MBEDTLS_CTR_DRBG_BLOCKSIZE );
 196:D:/Work/DeviceTester/amazon-freertos/lib/third_party/mbedtls/library\ctr_drbg.c ****         use_len = buf_len;
 197:D:/Work/DeviceTester/amazon-freertos/lib/third_party/mbedtls/library\ctr_drbg.c **** 
 198:D:/Work/DeviceTester/amazon-freertos/lib/third_party/mbedtls/library\ctr_drbg.c ****         while( use_len > 0 )
 199:D:/Work/DeviceTester/amazon-freertos/lib/third_party/mbedtls/library\ctr_drbg.c ****         {
 200:D:/Work/DeviceTester/amazon-freertos/lib/third_party/mbedtls/library\ctr_drbg.c ****             for( i = 0; i < MBEDTLS_CTR_DRBG_BLOCKSIZE; i++ )
 201:D:/Work/DeviceTester/amazon-freertos/lib/third_party/mbedtls/library\ctr_drbg.c ****                 chain[i] ^= p[i];
 202:D:/Work/DeviceTester/amazon-freertos/lib/third_party/mbedtls/library\ctr_drbg.c ****             p += MBEDTLS_CTR_DRBG_BLOCKSIZE;
 203:D:/Work/DeviceTester/amazon-freertos/lib/third_party/mbedtls/library\ctr_drbg.c ****             use_len -= ( use_len >= MBEDTLS_CTR_DRBG_BLOCKSIZE ) ?
 204:D:/Work/DeviceTester/amazon-freertos/lib/third_party/mbedtls/library\ctr_drbg.c ****                        MBEDTLS_CTR_DRBG_BLOCKSIZE : use_len;
 205:D:/Work/DeviceTester/amazon-freertos/lib/third_party/mbedtls/library\ctr_drbg.c **** 
 206:D:/Work/DeviceTester/amazon-freertos/lib/third_party/mbedtls/library\ctr_drbg.c ****             if( ( ret = mbedtls_aes_crypt_ecb( &aes_ctx, MBEDTLS_AES_ENCRYPT, chain, chain ) ) != 0
 207:D:/Work/DeviceTester/amazon-freertos/lib/third_party/mbedtls/library\ctr_drbg.c ****             {
 208:D:/Work/DeviceTester/amazon-freertos/lib/third_party/mbedtls/library\ctr_drbg.c ****                 goto exit;
 209:D:/Work/DeviceTester/amazon-freertos/lib/third_party/mbedtls/library\ctr_drbg.c ****             }
 210:D:/Work/DeviceTester/amazon-freertos/lib/third_party/mbedtls/library\ctr_drbg.c ****         }
 211:D:/Work/DeviceTester/amazon-freertos/lib/third_party/mbedtls/library\ctr_drbg.c **** 
 212:D:/Work/DeviceTester/amazon-freertos/lib/third_party/mbedtls/library\ctr_drbg.c ****         memcpy( tmp + j, chain, MBEDTLS_CTR_DRBG_BLOCKSIZE );
 213:D:/Work/DeviceTester/amazon-freertos/lib/third_party/mbedtls/library\ctr_drbg.c **** 
 214:D:/Work/DeviceTester/amazon-freertos/lib/third_party/mbedtls/library\ctr_drbg.c ****         /*
 215:D:/Work/DeviceTester/amazon-freertos/lib/third_party/mbedtls/library\ctr_drbg.c ****          * Update IV
 216:D:/Work/DeviceTester/amazon-freertos/lib/third_party/mbedtls/library\ctr_drbg.c ****          */
 217:D:/Work/DeviceTester/amazon-freertos/lib/third_party/mbedtls/library\ctr_drbg.c ****         buf[3]++;
 218:D:/Work/DeviceTester/amazon-freertos/lib/third_party/mbedtls/library\ctr_drbg.c ****     }
 219:D:/Work/DeviceTester/amazon-freertos/lib/third_party/mbedtls/library\ctr_drbg.c **** 
 220:D:/Work/DeviceTester/amazon-freertos/lib/third_party/mbedtls/library\ctr_drbg.c ****     /*
 221:D:/Work/DeviceTester/amazon-freertos/lib/third_party/mbedtls/library\ctr_drbg.c ****      * Do final encryption with reduced data
 222:D:/Work/DeviceTester/amazon-freertos/lib/third_party/mbedtls/library\ctr_drbg.c ****      */
 223:D:/Work/DeviceTester/amazon-freertos/lib/third_party/mbedtls/library\ctr_drbg.c ****     if( ( ret = mbedtls_aes_setkey_enc( &aes_ctx, tmp, MBEDTLS_CTR_DRBG_KEYBITS ) ) != 0 )
 224:D:/Work/DeviceTester/amazon-freertos/lib/third_party/mbedtls/library\ctr_drbg.c ****     {
 225:D:/Work/DeviceTester/amazon-freertos/lib/third_party/mbedtls/library\ctr_drbg.c ****         goto exit;
 226:D:/Work/DeviceTester/amazon-freertos/lib/third_party/mbedtls/library\ctr_drbg.c ****     }
 227:D:/Work/DeviceTester/amazon-freertos/lib/third_party/mbedtls/library\ctr_drbg.c ****     iv = tmp + MBEDTLS_CTR_DRBG_KEYSIZE;
 228:D:/Work/DeviceTester/amazon-freertos/lib/third_party/mbedtls/library\ctr_drbg.c ****     p = output;
 229:D:/Work/DeviceTester/amazon-freertos/lib/third_party/mbedtls/library\ctr_drbg.c **** 
 230:D:/Work/DeviceTester/amazon-freertos/lib/third_party/mbedtls/library\ctr_drbg.c ****     for( j = 0; j < MBEDTLS_CTR_DRBG_SEEDLEN; j += MBEDTLS_CTR_DRBG_BLOCKSIZE )
 231:D:/Work/DeviceTester/amazon-freertos/lib/third_party/mbedtls/library\ctr_drbg.c ****     {
 232:D:/Work/DeviceTester/amazon-freertos/lib/third_party/mbedtls/library\ctr_drbg.c ****         if( ( ret = mbedtls_aes_crypt_ecb( &aes_ctx, MBEDTLS_AES_ENCRYPT, iv, iv ) ) != 0 )
 233:D:/Work/DeviceTester/amazon-freertos/lib/third_party/mbedtls/library\ctr_drbg.c ****         {
 234:D:/Work/DeviceTester/amazon-freertos/lib/third_party/mbedtls/library\ctr_drbg.c ****             goto exit;
 235:D:/Work/DeviceTester/amazon-freertos/lib/third_party/mbedtls/library\ctr_drbg.c ****         }
 236:D:/Work/DeviceTester/amazon-freertos/lib/third_party/mbedtls/library\ctr_drbg.c ****         memcpy( p, iv, MBEDTLS_CTR_DRBG_BLOCKSIZE );
 237:D:/Work/DeviceTester/amazon-freertos/lib/third_party/mbedtls/library\ctr_drbg.c ****         p += MBEDTLS_CTR_DRBG_BLOCKSIZE;
 238:D:/Work/DeviceTester/amazon-freertos/lib/third_party/mbedtls/library\ctr_drbg.c ****     }
 239:D:/Work/DeviceTester/amazon-freertos/lib/third_party/mbedtls/library\ctr_drbg.c **** exit:
 240:D:/Work/DeviceTester/amazon-freertos/lib/third_party/mbedtls/library\ctr_drbg.c ****     mbedtls_aes_free( &aes_ctx );
 241:D:/Work/DeviceTester/amazon-freertos/lib/third_party/mbedtls/library\ctr_drbg.c ****     /*
 242:D:/Work/DeviceTester/amazon-freertos/lib/third_party/mbedtls/library\ctr_drbg.c ****     * tidy up the stack
 243:D:/Work/DeviceTester/amazon-freertos/lib/third_party/mbedtls/library\ctr_drbg.c ****     */
 244:D:/Work/DeviceTester/amazon-freertos/lib/third_party/mbedtls/library\ctr_drbg.c ****     mbedtls_platform_zeroize( buf, sizeof( buf ) );
 245:D:/Work/DeviceTester/amazon-freertos/lib/third_party/mbedtls/library\ctr_drbg.c ****     mbedtls_platform_zeroize( tmp, sizeof( tmp ) );
 246:D:/Work/DeviceTester/amazon-freertos/lib/third_party/mbedtls/library\ctr_drbg.c ****     mbedtls_platform_zeroize( key, sizeof( key ) );
 247:D:/Work/DeviceTester/amazon-freertos/lib/third_party/mbedtls/library\ctr_drbg.c ****     mbedtls_platform_zeroize( chain, sizeof( chain ) );
 248:D:/Work/DeviceTester/amazon-freertos/lib/third_party/mbedtls/library\ctr_drbg.c ****     if( 0 != ret )
 249:D:/Work/DeviceTester/amazon-freertos/lib/third_party/mbedtls/library\ctr_drbg.c ****     {
 250:D:/Work/DeviceTester/amazon-freertos/lib/third_party/mbedtls/library\ctr_drbg.c ****         /*
 251:D:/Work/DeviceTester/amazon-freertos/lib/third_party/mbedtls/library\ctr_drbg.c ****         * wipe partial seed from memory
 252:D:/Work/DeviceTester/amazon-freertos/lib/third_party/mbedtls/library\ctr_drbg.c ****         */
 253:D:/Work/DeviceTester/amazon-freertos/lib/third_party/mbedtls/library\ctr_drbg.c ****         mbedtls_platform_zeroize( output, MBEDTLS_CTR_DRBG_SEEDLEN );
 254:D:/Work/DeviceTester/amazon-freertos/lib/third_party/mbedtls/library\ctr_drbg.c ****     }
 255:D:/Work/DeviceTester/amazon-freertos/lib/third_party/mbedtls/library\ctr_drbg.c **** 
 256:D:/Work/DeviceTester/amazon-freertos/lib/third_party/mbedtls/library\ctr_drbg.c ****     return( ret );
 257:D:/Work/DeviceTester/amazon-freertos/lib/third_party/mbedtls/library\ctr_drbg.c **** }
 258:D:/Work/DeviceTester/amazon-freertos/lib/third_party/mbedtls/library\ctr_drbg.c **** 
 259:D:/Work/DeviceTester/amazon-freertos/lib/third_party/mbedtls/library\ctr_drbg.c **** static int ctr_drbg_update_internal( mbedtls_ctr_drbg_context *ctx,
 260:D:/Work/DeviceTester/amazon-freertos/lib/third_party/mbedtls/library\ctr_drbg.c ****                               const unsigned char data[MBEDTLS_CTR_DRBG_SEEDLEN] )
 261:D:/Work/DeviceTester/amazon-freertos/lib/third_party/mbedtls/library\ctr_drbg.c **** {
 262:D:/Work/DeviceTester/amazon-freertos/lib/third_party/mbedtls/library\ctr_drbg.c ****     unsigned char tmp[MBEDTLS_CTR_DRBG_SEEDLEN];
 263:D:/Work/DeviceTester/amazon-freertos/lib/third_party/mbedtls/library\ctr_drbg.c ****     unsigned char *p = tmp;
 264:D:/Work/DeviceTester/amazon-freertos/lib/third_party/mbedtls/library\ctr_drbg.c ****     int i, j;
 265:D:/Work/DeviceTester/amazon-freertos/lib/third_party/mbedtls/library\ctr_drbg.c ****     int ret = 0;
 266:D:/Work/DeviceTester/amazon-freertos/lib/third_party/mbedtls/library\ctr_drbg.c **** 
 267:D:/Work/DeviceTester/amazon-freertos/lib/third_party/mbedtls/library\ctr_drbg.c ****     memset( tmp, 0, MBEDTLS_CTR_DRBG_SEEDLEN );
 268:D:/Work/DeviceTester/amazon-freertos/lib/third_party/mbedtls/library\ctr_drbg.c **** 
 269:D:/Work/DeviceTester/amazon-freertos/lib/third_party/mbedtls/library\ctr_drbg.c ****     for( j = 0; j < MBEDTLS_CTR_DRBG_SEEDLEN; j += MBEDTLS_CTR_DRBG_BLOCKSIZE )
 270:D:/Work/DeviceTester/amazon-freertos/lib/third_party/mbedtls/library\ctr_drbg.c ****     {
 271:D:/Work/DeviceTester/amazon-freertos/lib/third_party/mbedtls/library\ctr_drbg.c ****         /*
 272:D:/Work/DeviceTester/amazon-freertos/lib/third_party/mbedtls/library\ctr_drbg.c ****          * Increase counter
 273:D:/Work/DeviceTester/amazon-freertos/lib/third_party/mbedtls/library\ctr_drbg.c ****          */
 274:D:/Work/DeviceTester/amazon-freertos/lib/third_party/mbedtls/library\ctr_drbg.c ****         for( i = MBEDTLS_CTR_DRBG_BLOCKSIZE; i > 0; i-- )
 275:D:/Work/DeviceTester/amazon-freertos/lib/third_party/mbedtls/library\ctr_drbg.c ****             if( ++ctx->counter[i - 1] != 0 )
 276:D:/Work/DeviceTester/amazon-freertos/lib/third_party/mbedtls/library\ctr_drbg.c ****                 break;
 277:D:/Work/DeviceTester/amazon-freertos/lib/third_party/mbedtls/library\ctr_drbg.c **** 
 278:D:/Work/DeviceTester/amazon-freertos/lib/third_party/mbedtls/library\ctr_drbg.c ****         /*
 279:D:/Work/DeviceTester/amazon-freertos/lib/third_party/mbedtls/library\ctr_drbg.c ****          * Crypt counter block
 280:D:/Work/DeviceTester/amazon-freertos/lib/third_party/mbedtls/library\ctr_drbg.c ****          */
 281:D:/Work/DeviceTester/amazon-freertos/lib/third_party/mbedtls/library\ctr_drbg.c ****         if( ( ret = mbedtls_aes_crypt_ecb( &ctx->aes_ctx, MBEDTLS_AES_ENCRYPT, ctx->counter, p ) ) 
 282:D:/Work/DeviceTester/amazon-freertos/lib/third_party/mbedtls/library\ctr_drbg.c ****         {
 283:D:/Work/DeviceTester/amazon-freertos/lib/third_party/mbedtls/library\ctr_drbg.c ****             return( ret );
 284:D:/Work/DeviceTester/amazon-freertos/lib/third_party/mbedtls/library\ctr_drbg.c ****         }
 285:D:/Work/DeviceTester/amazon-freertos/lib/third_party/mbedtls/library\ctr_drbg.c **** 
 286:D:/Work/DeviceTester/amazon-freertos/lib/third_party/mbedtls/library\ctr_drbg.c ****         p += MBEDTLS_CTR_DRBG_BLOCKSIZE;
 287:D:/Work/DeviceTester/amazon-freertos/lib/third_party/mbedtls/library\ctr_drbg.c ****     }
 288:D:/Work/DeviceTester/amazon-freertos/lib/third_party/mbedtls/library\ctr_drbg.c **** 
 289:D:/Work/DeviceTester/amazon-freertos/lib/third_party/mbedtls/library\ctr_drbg.c ****     for( i = 0; i < MBEDTLS_CTR_DRBG_SEEDLEN; i++ )
 290:D:/Work/DeviceTester/amazon-freertos/lib/third_party/mbedtls/library\ctr_drbg.c ****         tmp[i] ^= data[i];
 291:D:/Work/DeviceTester/amazon-freertos/lib/third_party/mbedtls/library\ctr_drbg.c **** 
 292:D:/Work/DeviceTester/amazon-freertos/lib/third_party/mbedtls/library\ctr_drbg.c ****     /*
 293:D:/Work/DeviceTester/amazon-freertos/lib/third_party/mbedtls/library\ctr_drbg.c ****      * Update key and counter
 294:D:/Work/DeviceTester/amazon-freertos/lib/third_party/mbedtls/library\ctr_drbg.c ****      */
 295:D:/Work/DeviceTester/amazon-freertos/lib/third_party/mbedtls/library\ctr_drbg.c ****     if( ( ret = mbedtls_aes_setkey_enc( &ctx->aes_ctx, tmp, MBEDTLS_CTR_DRBG_KEYBITS ) ) != 0 )
 296:D:/Work/DeviceTester/amazon-freertos/lib/third_party/mbedtls/library\ctr_drbg.c ****     {
 297:D:/Work/DeviceTester/amazon-freertos/lib/third_party/mbedtls/library\ctr_drbg.c ****         return( ret );
 298:D:/Work/DeviceTester/amazon-freertos/lib/third_party/mbedtls/library\ctr_drbg.c ****     }
 299:D:/Work/DeviceTester/amazon-freertos/lib/third_party/mbedtls/library\ctr_drbg.c ****     memcpy( ctx->counter, tmp + MBEDTLS_CTR_DRBG_KEYSIZE, MBEDTLS_CTR_DRBG_BLOCKSIZE );
 300:D:/Work/DeviceTester/amazon-freertos/lib/third_party/mbedtls/library\ctr_drbg.c **** 
 301:D:/Work/DeviceTester/amazon-freertos/lib/third_party/mbedtls/library\ctr_drbg.c ****     return( 0 );
 302:D:/Work/DeviceTester/amazon-freertos/lib/third_party/mbedtls/library\ctr_drbg.c **** }
 303:D:/Work/DeviceTester/amazon-freertos/lib/third_party/mbedtls/library\ctr_drbg.c **** 
 304:D:/Work/DeviceTester/amazon-freertos/lib/third_party/mbedtls/library\ctr_drbg.c **** void mbedtls_ctr_drbg_update( mbedtls_ctr_drbg_context *ctx,
 305:D:/Work/DeviceTester/amazon-freertos/lib/third_party/mbedtls/library\ctr_drbg.c ****                       const unsigned char *additional, size_t add_len )
 306:D:/Work/DeviceTester/amazon-freertos/lib/third_party/mbedtls/library\ctr_drbg.c **** {
 307:D:/Work/DeviceTester/amazon-freertos/lib/third_party/mbedtls/library\ctr_drbg.c ****     unsigned char add_input[MBEDTLS_CTR_DRBG_SEEDLEN];
 308:D:/Work/DeviceTester/amazon-freertos/lib/third_party/mbedtls/library\ctr_drbg.c **** 
 309:D:/Work/DeviceTester/amazon-freertos/lib/third_party/mbedtls/library\ctr_drbg.c ****     if( add_len > 0 )
 310:D:/Work/DeviceTester/amazon-freertos/lib/third_party/mbedtls/library\ctr_drbg.c ****     {
 311:D:/Work/DeviceTester/amazon-freertos/lib/third_party/mbedtls/library\ctr_drbg.c ****         /* MAX_INPUT would be more logical here, but we have to match
 312:D:/Work/DeviceTester/amazon-freertos/lib/third_party/mbedtls/library\ctr_drbg.c ****          * block_cipher_df()'s limits since we can't propagate errors */
 313:D:/Work/DeviceTester/amazon-freertos/lib/third_party/mbedtls/library\ctr_drbg.c ****         if( add_len > MBEDTLS_CTR_DRBG_MAX_SEED_INPUT )
 314:D:/Work/DeviceTester/amazon-freertos/lib/third_party/mbedtls/library\ctr_drbg.c ****             add_len = MBEDTLS_CTR_DRBG_MAX_SEED_INPUT;
 315:D:/Work/DeviceTester/amazon-freertos/lib/third_party/mbedtls/library\ctr_drbg.c **** 
 316:D:/Work/DeviceTester/amazon-freertos/lib/third_party/mbedtls/library\ctr_drbg.c ****         block_cipher_df( add_input, additional, add_len );
 317:D:/Work/DeviceTester/amazon-freertos/lib/third_party/mbedtls/library\ctr_drbg.c ****         ctr_drbg_update_internal( ctx, add_input );
 318:D:/Work/DeviceTester/amazon-freertos/lib/third_party/mbedtls/library\ctr_drbg.c ****     }
 319:D:/Work/DeviceTester/amazon-freertos/lib/third_party/mbedtls/library\ctr_drbg.c **** }
 320:D:/Work/DeviceTester/amazon-freertos/lib/third_party/mbedtls/library\ctr_drbg.c **** 
 321:D:/Work/DeviceTester/amazon-freertos/lib/third_party/mbedtls/library\ctr_drbg.c **** int mbedtls_ctr_drbg_reseed( mbedtls_ctr_drbg_context *ctx,
 322:D:/Work/DeviceTester/amazon-freertos/lib/third_party/mbedtls/library\ctr_drbg.c ****                      const unsigned char *additional, size_t len )
 323:D:/Work/DeviceTester/amazon-freertos/lib/third_party/mbedtls/library\ctr_drbg.c **** {
 324:D:/Work/DeviceTester/amazon-freertos/lib/third_party/mbedtls/library\ctr_drbg.c ****     unsigned char seed[MBEDTLS_CTR_DRBG_MAX_SEED_INPUT];
 325:D:/Work/DeviceTester/amazon-freertos/lib/third_party/mbedtls/library\ctr_drbg.c ****     size_t seedlen = 0;
 326:D:/Work/DeviceTester/amazon-freertos/lib/third_party/mbedtls/library\ctr_drbg.c ****     int ret;
 327:D:/Work/DeviceTester/amazon-freertos/lib/third_party/mbedtls/library\ctr_drbg.c **** 
 328:D:/Work/DeviceTester/amazon-freertos/lib/third_party/mbedtls/library\ctr_drbg.c ****     if( ctx->entropy_len > MBEDTLS_CTR_DRBG_MAX_SEED_INPUT ||
 329:D:/Work/DeviceTester/amazon-freertos/lib/third_party/mbedtls/library\ctr_drbg.c ****         len > MBEDTLS_CTR_DRBG_MAX_SEED_INPUT - ctx->entropy_len )
 330:D:/Work/DeviceTester/amazon-freertos/lib/third_party/mbedtls/library\ctr_drbg.c ****         return( MBEDTLS_ERR_CTR_DRBG_INPUT_TOO_BIG );
 331:D:/Work/DeviceTester/amazon-freertos/lib/third_party/mbedtls/library\ctr_drbg.c **** 
 332:D:/Work/DeviceTester/amazon-freertos/lib/third_party/mbedtls/library\ctr_drbg.c ****     memset( seed, 0, MBEDTLS_CTR_DRBG_MAX_SEED_INPUT );
 333:D:/Work/DeviceTester/amazon-freertos/lib/third_party/mbedtls/library\ctr_drbg.c **** 
 334:D:/Work/DeviceTester/amazon-freertos/lib/third_party/mbedtls/library\ctr_drbg.c ****     /*
 335:D:/Work/DeviceTester/amazon-freertos/lib/third_party/mbedtls/library\ctr_drbg.c ****      * Gather entropy_len bytes of entropy to seed state
 336:D:/Work/DeviceTester/amazon-freertos/lib/third_party/mbedtls/library\ctr_drbg.c ****      */
 337:D:/Work/DeviceTester/amazon-freertos/lib/third_party/mbedtls/library\ctr_drbg.c ****     if( 0 != ctx->f_entropy( ctx->p_entropy, seed,
 338:D:/Work/DeviceTester/amazon-freertos/lib/third_party/mbedtls/library\ctr_drbg.c ****                              ctx->entropy_len ) )
 339:D:/Work/DeviceTester/amazon-freertos/lib/third_party/mbedtls/library\ctr_drbg.c ****     {
 340:D:/Work/DeviceTester/amazon-freertos/lib/third_party/mbedtls/library\ctr_drbg.c ****         return( MBEDTLS_ERR_CTR_DRBG_ENTROPY_SOURCE_FAILED );
 341:D:/Work/DeviceTester/amazon-freertos/lib/third_party/mbedtls/library\ctr_drbg.c ****     }
 342:D:/Work/DeviceTester/amazon-freertos/lib/third_party/mbedtls/library\ctr_drbg.c **** 
 343:D:/Work/DeviceTester/amazon-freertos/lib/third_party/mbedtls/library\ctr_drbg.c ****     seedlen += ctx->entropy_len;
 344:D:/Work/DeviceTester/amazon-freertos/lib/third_party/mbedtls/library\ctr_drbg.c **** 
 345:D:/Work/DeviceTester/amazon-freertos/lib/third_party/mbedtls/library\ctr_drbg.c ****     /*
 346:D:/Work/DeviceTester/amazon-freertos/lib/third_party/mbedtls/library\ctr_drbg.c ****      * Add additional data
 347:D:/Work/DeviceTester/amazon-freertos/lib/third_party/mbedtls/library\ctr_drbg.c ****      */
 348:D:/Work/DeviceTester/amazon-freertos/lib/third_party/mbedtls/library\ctr_drbg.c ****     if( additional && len )
 349:D:/Work/DeviceTester/amazon-freertos/lib/third_party/mbedtls/library\ctr_drbg.c ****     {
 350:D:/Work/DeviceTester/amazon-freertos/lib/third_party/mbedtls/library\ctr_drbg.c ****         memcpy( seed + seedlen, additional, len );
 351:D:/Work/DeviceTester/amazon-freertos/lib/third_party/mbedtls/library\ctr_drbg.c ****         seedlen += len;
 352:D:/Work/DeviceTester/amazon-freertos/lib/third_party/mbedtls/library\ctr_drbg.c ****     }
 353:D:/Work/DeviceTester/amazon-freertos/lib/third_party/mbedtls/library\ctr_drbg.c **** 
 354:D:/Work/DeviceTester/amazon-freertos/lib/third_party/mbedtls/library\ctr_drbg.c ****     /*
 355:D:/Work/DeviceTester/amazon-freertos/lib/third_party/mbedtls/library\ctr_drbg.c ****      * Reduce to 384 bits
 356:D:/Work/DeviceTester/amazon-freertos/lib/third_party/mbedtls/library\ctr_drbg.c ****      */
 357:D:/Work/DeviceTester/amazon-freertos/lib/third_party/mbedtls/library\ctr_drbg.c ****     if( ( ret = block_cipher_df( seed, seed, seedlen ) ) != 0 )
 358:D:/Work/DeviceTester/amazon-freertos/lib/third_party/mbedtls/library\ctr_drbg.c ****     {
 359:D:/Work/DeviceTester/amazon-freertos/lib/third_party/mbedtls/library\ctr_drbg.c ****         return( ret );
 360:D:/Work/DeviceTester/amazon-freertos/lib/third_party/mbedtls/library\ctr_drbg.c ****     }
 361:D:/Work/DeviceTester/amazon-freertos/lib/third_party/mbedtls/library\ctr_drbg.c **** 
 362:D:/Work/DeviceTester/amazon-freertos/lib/third_party/mbedtls/library\ctr_drbg.c ****     /*
 363:D:/Work/DeviceTester/amazon-freertos/lib/third_party/mbedtls/library\ctr_drbg.c ****      * Update state
 364:D:/Work/DeviceTester/amazon-freertos/lib/third_party/mbedtls/library\ctr_drbg.c ****      */
 365:D:/Work/DeviceTester/amazon-freertos/lib/third_party/mbedtls/library\ctr_drbg.c ****     if( ( ret = ctr_drbg_update_internal( ctx, seed ) ) != 0 )
 366:D:/Work/DeviceTester/amazon-freertos/lib/third_party/mbedtls/library\ctr_drbg.c ****     {
 367:D:/Work/DeviceTester/amazon-freertos/lib/third_party/mbedtls/library\ctr_drbg.c ****         return( ret );
 368:D:/Work/DeviceTester/amazon-freertos/lib/third_party/mbedtls/library\ctr_drbg.c ****     }
 369:D:/Work/DeviceTester/amazon-freertos/lib/third_party/mbedtls/library\ctr_drbg.c ****     ctx->reseed_counter = 1;
 370:D:/Work/DeviceTester/amazon-freertos/lib/third_party/mbedtls/library\ctr_drbg.c **** 
 371:D:/Work/DeviceTester/amazon-freertos/lib/third_party/mbedtls/library\ctr_drbg.c ****     return( 0 );
 372:D:/Work/DeviceTester/amazon-freertos/lib/third_party/mbedtls/library\ctr_drbg.c **** }
 373:D:/Work/DeviceTester/amazon-freertos/lib/third_party/mbedtls/library\ctr_drbg.c **** 
 374:D:/Work/DeviceTester/amazon-freertos/lib/third_party/mbedtls/library\ctr_drbg.c **** int mbedtls_ctr_drbg_random_with_add( void *p_rng,
 375:D:/Work/DeviceTester/amazon-freertos/lib/third_party/mbedtls/library\ctr_drbg.c ****                               unsigned char *output, size_t output_len,
 376:D:/Work/DeviceTester/amazon-freertos/lib/third_party/mbedtls/library\ctr_drbg.c ****                               const unsigned char *additional, size_t add_len )
 377:D:/Work/DeviceTester/amazon-freertos/lib/third_party/mbedtls/library\ctr_drbg.c **** {
 378:D:/Work/DeviceTester/amazon-freertos/lib/third_party/mbedtls/library\ctr_drbg.c ****     int ret = 0;
 379:D:/Work/DeviceTester/amazon-freertos/lib/third_party/mbedtls/library\ctr_drbg.c ****     mbedtls_ctr_drbg_context *ctx = (mbedtls_ctr_drbg_context *) p_rng;
 380:D:/Work/DeviceTester/amazon-freertos/lib/third_party/mbedtls/library\ctr_drbg.c ****     unsigned char add_input[MBEDTLS_CTR_DRBG_SEEDLEN];
 381:D:/Work/DeviceTester/amazon-freertos/lib/third_party/mbedtls/library\ctr_drbg.c ****     unsigned char *p = output;
 382:D:/Work/DeviceTester/amazon-freertos/lib/third_party/mbedtls/library\ctr_drbg.c ****     unsigned char tmp[MBEDTLS_CTR_DRBG_BLOCKSIZE];
 383:D:/Work/DeviceTester/amazon-freertos/lib/third_party/mbedtls/library\ctr_drbg.c ****     int i;
 384:D:/Work/DeviceTester/amazon-freertos/lib/third_party/mbedtls/library\ctr_drbg.c ****     size_t use_len;
 385:D:/Work/DeviceTester/amazon-freertos/lib/third_party/mbedtls/library\ctr_drbg.c **** 
 386:D:/Work/DeviceTester/amazon-freertos/lib/third_party/mbedtls/library\ctr_drbg.c ****     if( output_len > MBEDTLS_CTR_DRBG_MAX_REQUEST )
 387:D:/Work/DeviceTester/amazon-freertos/lib/third_party/mbedtls/library\ctr_drbg.c ****         return( MBEDTLS_ERR_CTR_DRBG_REQUEST_TOO_BIG );
 388:D:/Work/DeviceTester/amazon-freertos/lib/third_party/mbedtls/library\ctr_drbg.c **** 
 389:D:/Work/DeviceTester/amazon-freertos/lib/third_party/mbedtls/library\ctr_drbg.c ****     if( add_len > MBEDTLS_CTR_DRBG_MAX_INPUT )
 390:D:/Work/DeviceTester/amazon-freertos/lib/third_party/mbedtls/library\ctr_drbg.c ****         return( MBEDTLS_ERR_CTR_DRBG_INPUT_TOO_BIG );
 391:D:/Work/DeviceTester/amazon-freertos/lib/third_party/mbedtls/library\ctr_drbg.c **** 
 392:D:/Work/DeviceTester/amazon-freertos/lib/third_party/mbedtls/library\ctr_drbg.c ****     memset( add_input, 0, MBEDTLS_CTR_DRBG_SEEDLEN );
 393:D:/Work/DeviceTester/amazon-freertos/lib/third_party/mbedtls/library\ctr_drbg.c **** 
 394:D:/Work/DeviceTester/amazon-freertos/lib/third_party/mbedtls/library\ctr_drbg.c ****     if( ctx->reseed_counter > ctx->reseed_interval ||
 395:D:/Work/DeviceTester/amazon-freertos/lib/third_party/mbedtls/library\ctr_drbg.c ****         ctx->prediction_resistance )
 396:D:/Work/DeviceTester/amazon-freertos/lib/third_party/mbedtls/library\ctr_drbg.c ****     {
 397:D:/Work/DeviceTester/amazon-freertos/lib/third_party/mbedtls/library\ctr_drbg.c ****         if( ( ret = mbedtls_ctr_drbg_reseed( ctx, additional, add_len ) ) != 0 )
 398:D:/Work/DeviceTester/amazon-freertos/lib/third_party/mbedtls/library\ctr_drbg.c ****         {
 399:D:/Work/DeviceTester/amazon-freertos/lib/third_party/mbedtls/library\ctr_drbg.c ****             return( ret );
 400:D:/Work/DeviceTester/amazon-freertos/lib/third_party/mbedtls/library\ctr_drbg.c ****         }
 401:D:/Work/DeviceTester/amazon-freertos/lib/third_party/mbedtls/library\ctr_drbg.c ****         add_len = 0;
 402:D:/Work/DeviceTester/amazon-freertos/lib/third_party/mbedtls/library\ctr_drbg.c ****     }
 403:D:/Work/DeviceTester/amazon-freertos/lib/third_party/mbedtls/library\ctr_drbg.c **** 
 404:D:/Work/DeviceTester/amazon-freertos/lib/third_party/mbedtls/library\ctr_drbg.c ****     if( add_len > 0 )
 405:D:/Work/DeviceTester/amazon-freertos/lib/third_party/mbedtls/library\ctr_drbg.c ****     {
 406:D:/Work/DeviceTester/amazon-freertos/lib/third_party/mbedtls/library\ctr_drbg.c ****         if( ( ret = block_cipher_df( add_input, additional, add_len ) ) != 0 )
 407:D:/Work/DeviceTester/amazon-freertos/lib/third_party/mbedtls/library\ctr_drbg.c ****         {
 408:D:/Work/DeviceTester/amazon-freertos/lib/third_party/mbedtls/library\ctr_drbg.c ****             return( ret );
 409:D:/Work/DeviceTester/amazon-freertos/lib/third_party/mbedtls/library\ctr_drbg.c ****         }
 410:D:/Work/DeviceTester/amazon-freertos/lib/third_party/mbedtls/library\ctr_drbg.c ****         if( ( ret = ctr_drbg_update_internal( ctx, add_input ) ) != 0 )
 411:D:/Work/DeviceTester/amazon-freertos/lib/third_party/mbedtls/library\ctr_drbg.c ****         {
 412:D:/Work/DeviceTester/amazon-freertos/lib/third_party/mbedtls/library\ctr_drbg.c ****             return( ret );
 413:D:/Work/DeviceTester/amazon-freertos/lib/third_party/mbedtls/library\ctr_drbg.c ****         }
 414:D:/Work/DeviceTester/amazon-freertos/lib/third_party/mbedtls/library\ctr_drbg.c ****     }
 415:D:/Work/DeviceTester/amazon-freertos/lib/third_party/mbedtls/library\ctr_drbg.c **** 
 416:D:/Work/DeviceTester/amazon-freertos/lib/third_party/mbedtls/library\ctr_drbg.c ****     while( output_len > 0 )
 417:D:/Work/DeviceTester/amazon-freertos/lib/third_party/mbedtls/library\ctr_drbg.c ****     {
 418:D:/Work/DeviceTester/amazon-freertos/lib/third_party/mbedtls/library\ctr_drbg.c ****         /*
 419:D:/Work/DeviceTester/amazon-freertos/lib/third_party/mbedtls/library\ctr_drbg.c ****          * Increase counter
 420:D:/Work/DeviceTester/amazon-freertos/lib/third_party/mbedtls/library\ctr_drbg.c ****          */
 421:D:/Work/DeviceTester/amazon-freertos/lib/third_party/mbedtls/library\ctr_drbg.c ****         for( i = MBEDTLS_CTR_DRBG_BLOCKSIZE; i > 0; i-- )
 422:D:/Work/DeviceTester/amazon-freertos/lib/third_party/mbedtls/library\ctr_drbg.c ****             if( ++ctx->counter[i - 1] != 0 )
 423:D:/Work/DeviceTester/amazon-freertos/lib/third_party/mbedtls/library\ctr_drbg.c ****                 break;
 424:D:/Work/DeviceTester/amazon-freertos/lib/third_party/mbedtls/library\ctr_drbg.c **** 
 425:D:/Work/DeviceTester/amazon-freertos/lib/third_party/mbedtls/library\ctr_drbg.c ****         /*
 426:D:/Work/DeviceTester/amazon-freertos/lib/third_party/mbedtls/library\ctr_drbg.c ****          * Crypt counter block
 427:D:/Work/DeviceTester/amazon-freertos/lib/third_party/mbedtls/library\ctr_drbg.c ****          */
 428:D:/Work/DeviceTester/amazon-freertos/lib/third_party/mbedtls/library\ctr_drbg.c ****         if( ( ret = mbedtls_aes_crypt_ecb( &ctx->aes_ctx, MBEDTLS_AES_ENCRYPT, ctx->counter, tmp ) 
 429:D:/Work/DeviceTester/amazon-freertos/lib/third_party/mbedtls/library\ctr_drbg.c ****         {
 430:D:/Work/DeviceTester/amazon-freertos/lib/third_party/mbedtls/library\ctr_drbg.c ****             return( ret );
 431:D:/Work/DeviceTester/amazon-freertos/lib/third_party/mbedtls/library\ctr_drbg.c ****         }
 432:D:/Work/DeviceTester/amazon-freertos/lib/third_party/mbedtls/library\ctr_drbg.c **** 
 433:D:/Work/DeviceTester/amazon-freertos/lib/third_party/mbedtls/library\ctr_drbg.c ****         use_len = ( output_len > MBEDTLS_CTR_DRBG_BLOCKSIZE ) ? MBEDTLS_CTR_DRBG_BLOCKSIZE :
 434:D:/Work/DeviceTester/amazon-freertos/lib/third_party/mbedtls/library\ctr_drbg.c ****                                                        output_len;
 435:D:/Work/DeviceTester/amazon-freertos/lib/third_party/mbedtls/library\ctr_drbg.c ****         /*
 436:D:/Work/DeviceTester/amazon-freertos/lib/third_party/mbedtls/library\ctr_drbg.c ****          * Copy random block to destination
 437:D:/Work/DeviceTester/amazon-freertos/lib/third_party/mbedtls/library\ctr_drbg.c ****          */
 438:D:/Work/DeviceTester/amazon-freertos/lib/third_party/mbedtls/library\ctr_drbg.c ****         memcpy( p, tmp, use_len );
 439:D:/Work/DeviceTester/amazon-freertos/lib/third_party/mbedtls/library\ctr_drbg.c ****         p += use_len;
 440:D:/Work/DeviceTester/amazon-freertos/lib/third_party/mbedtls/library\ctr_drbg.c ****         output_len -= use_len;
 441:D:/Work/DeviceTester/amazon-freertos/lib/third_party/mbedtls/library\ctr_drbg.c ****     }
 442:D:/Work/DeviceTester/amazon-freertos/lib/third_party/mbedtls/library\ctr_drbg.c **** 
 443:D:/Work/DeviceTester/amazon-freertos/lib/third_party/mbedtls/library\ctr_drbg.c ****     if( ( ret = ctr_drbg_update_internal( ctx, add_input ) ) != 0 )
 444:D:/Work/DeviceTester/amazon-freertos/lib/third_party/mbedtls/library\ctr_drbg.c ****     {
 445:D:/Work/DeviceTester/amazon-freertos/lib/third_party/mbedtls/library\ctr_drbg.c ****         return( ret );
 446:D:/Work/DeviceTester/amazon-freertos/lib/third_party/mbedtls/library\ctr_drbg.c ****     }
 447:D:/Work/DeviceTester/amazon-freertos/lib/third_party/mbedtls/library\ctr_drbg.c **** 
 448:D:/Work/DeviceTester/amazon-freertos/lib/third_party/mbedtls/library\ctr_drbg.c ****     ctx->reseed_counter++;
 449:D:/Work/DeviceTester/amazon-freertos/lib/third_party/mbedtls/library\ctr_drbg.c **** 
 450:D:/Work/DeviceTester/amazon-freertos/lib/third_party/mbedtls/library\ctr_drbg.c ****     return( 0 );
 451:D:/Work/DeviceTester/amazon-freertos/lib/third_party/mbedtls/library\ctr_drbg.c **** }
 452:D:/Work/DeviceTester/amazon-freertos/lib/third_party/mbedtls/library\ctr_drbg.c **** 
 453:D:/Work/DeviceTester/amazon-freertos/lib/third_party/mbedtls/library\ctr_drbg.c **** int mbedtls_ctr_drbg_random( void *p_rng, unsigned char *output, size_t output_len )
 454:D:/Work/DeviceTester/amazon-freertos/lib/third_party/mbedtls/library\ctr_drbg.c **** {
 455:D:/Work/DeviceTester/amazon-freertos/lib/third_party/mbedtls/library\ctr_drbg.c ****     int ret;
 456:D:/Work/DeviceTester/amazon-freertos/lib/third_party/mbedtls/library\ctr_drbg.c ****     mbedtls_ctr_drbg_context *ctx = (mbedtls_ctr_drbg_context *) p_rng;
 457:D:/Work/DeviceTester/amazon-freertos/lib/third_party/mbedtls/library\ctr_drbg.c **** 
 458:D:/Work/DeviceTester/amazon-freertos/lib/third_party/mbedtls/library\ctr_drbg.c **** #if defined(MBEDTLS_THREADING_C)
 459:D:/Work/DeviceTester/amazon-freertos/lib/third_party/mbedtls/library\ctr_drbg.c ****     if( ( ret = mbedtls_mutex_lock( &ctx->mutex ) ) != 0 )
 460:D:/Work/DeviceTester/amazon-freertos/lib/third_party/mbedtls/library\ctr_drbg.c ****         return( ret );
 461:D:/Work/DeviceTester/amazon-freertos/lib/third_party/mbedtls/library\ctr_drbg.c **** #endif
 462:D:/Work/DeviceTester/amazon-freertos/lib/third_party/mbedtls/library\ctr_drbg.c **** 
 463:D:/Work/DeviceTester/amazon-freertos/lib/third_party/mbedtls/library\ctr_drbg.c ****     ret = mbedtls_ctr_drbg_random_with_add( ctx, output, output_len, NULL, 0 );
 464:D:/Work/DeviceTester/amazon-freertos/lib/third_party/mbedtls/library\ctr_drbg.c **** 
 465:D:/Work/DeviceTester/amazon-freertos/lib/third_party/mbedtls/library\ctr_drbg.c **** #if defined(MBEDTLS_THREADING_C)
 466:D:/Work/DeviceTester/amazon-freertos/lib/third_party/mbedtls/library\ctr_drbg.c ****     if( mbedtls_mutex_unlock( &ctx->mutex ) != 0 )
 467:D:/Work/DeviceTester/amazon-freertos/lib/third_party/mbedtls/library\ctr_drbg.c ****         return( MBEDTLS_ERR_THREADING_MUTEX_ERROR );
 468:D:/Work/DeviceTester/amazon-freertos/lib/third_party/mbedtls/library\ctr_drbg.c **** #endif
 469:D:/Work/DeviceTester/amazon-freertos/lib/third_party/mbedtls/library\ctr_drbg.c **** 
 470:D:/Work/DeviceTester/amazon-freertos/lib/third_party/mbedtls/library\ctr_drbg.c ****     return( ret );
 471:D:/Work/DeviceTester/amazon-freertos/lib/third_party/mbedtls/library\ctr_drbg.c **** }
 472:D:/Work/DeviceTester/amazon-freertos/lib/third_party/mbedtls/library\ctr_drbg.c **** 
 473:D:/Work/DeviceTester/amazon-freertos/lib/third_party/mbedtls/library\ctr_drbg.c **** #if defined(MBEDTLS_FS_IO)
 474:D:/Work/DeviceTester/amazon-freertos/lib/third_party/mbedtls/library\ctr_drbg.c **** int mbedtls_ctr_drbg_write_seed_file( mbedtls_ctr_drbg_context *ctx, const char *path )
 475:D:/Work/DeviceTester/amazon-freertos/lib/third_party/mbedtls/library\ctr_drbg.c **** {
 476:D:/Work/DeviceTester/amazon-freertos/lib/third_party/mbedtls/library\ctr_drbg.c ****     int ret = MBEDTLS_ERR_CTR_DRBG_FILE_IO_ERROR;
 477:D:/Work/DeviceTester/amazon-freertos/lib/third_party/mbedtls/library\ctr_drbg.c ****     FILE *f;
 478:D:/Work/DeviceTester/amazon-freertos/lib/third_party/mbedtls/library\ctr_drbg.c ****     unsigned char buf[ MBEDTLS_CTR_DRBG_MAX_INPUT ];
 479:D:/Work/DeviceTester/amazon-freertos/lib/third_party/mbedtls/library\ctr_drbg.c **** 
 480:D:/Work/DeviceTester/amazon-freertos/lib/third_party/mbedtls/library\ctr_drbg.c ****     if( ( f = fopen( path, "wb" ) ) == NULL )
 481:D:/Work/DeviceTester/amazon-freertos/lib/third_party/mbedtls/library\ctr_drbg.c ****         return( MBEDTLS_ERR_CTR_DRBG_FILE_IO_ERROR );
 482:D:/Work/DeviceTester/amazon-freertos/lib/third_party/mbedtls/library\ctr_drbg.c **** 
 483:D:/Work/DeviceTester/amazon-freertos/lib/third_party/mbedtls/library\ctr_drbg.c ****     if( ( ret = mbedtls_ctr_drbg_random( ctx, buf, MBEDTLS_CTR_DRBG_MAX_INPUT ) ) != 0 )
 484:D:/Work/DeviceTester/amazon-freertos/lib/third_party/mbedtls/library\ctr_drbg.c ****         goto exit;
 485:D:/Work/DeviceTester/amazon-freertos/lib/third_party/mbedtls/library\ctr_drbg.c **** 
 486:D:/Work/DeviceTester/amazon-freertos/lib/third_party/mbedtls/library\ctr_drbg.c ****     if( fwrite( buf, 1, MBEDTLS_CTR_DRBG_MAX_INPUT, f ) != MBEDTLS_CTR_DRBG_MAX_INPUT )
 487:D:/Work/DeviceTester/amazon-freertos/lib/third_party/mbedtls/library\ctr_drbg.c ****         ret = MBEDTLS_ERR_CTR_DRBG_FILE_IO_ERROR;
 488:D:/Work/DeviceTester/amazon-freertos/lib/third_party/mbedtls/library\ctr_drbg.c ****     else
 489:D:/Work/DeviceTester/amazon-freertos/lib/third_party/mbedtls/library\ctr_drbg.c ****         ret = 0;
 490:D:/Work/DeviceTester/amazon-freertos/lib/third_party/mbedtls/library\ctr_drbg.c **** 
 491:D:/Work/DeviceTester/amazon-freertos/lib/third_party/mbedtls/library\ctr_drbg.c **** exit:
 492:D:/Work/DeviceTester/amazon-freertos/lib/third_party/mbedtls/library\ctr_drbg.c ****     mbedtls_platform_zeroize( buf, sizeof( buf ) );
 493:D:/Work/DeviceTester/amazon-freertos/lib/third_party/mbedtls/library\ctr_drbg.c **** 
 494:D:/Work/DeviceTester/amazon-freertos/lib/third_party/mbedtls/library\ctr_drbg.c ****     fclose( f );
 495:D:/Work/DeviceTester/amazon-freertos/lib/third_party/mbedtls/library\ctr_drbg.c ****     return( ret );
 496:D:/Work/DeviceTester/amazon-freertos/lib/third_party/mbedtls/library\ctr_drbg.c **** }
 497:D:/Work/DeviceTester/amazon-freertos/lib/third_party/mbedtls/library\ctr_drbg.c **** 
 498:D:/Work/DeviceTester/amazon-freertos/lib/third_party/mbedtls/library\ctr_drbg.c **** int mbedtls_ctr_drbg_update_seed_file( mbedtls_ctr_drbg_context *ctx, const char *path )
 499:D:/Work/DeviceTester/amazon-freertos/lib/third_party/mbedtls/library\ctr_drbg.c **** {
 500:D:/Work/DeviceTester/amazon-freertos/lib/third_party/mbedtls/library\ctr_drbg.c ****     int ret = 0;
 501:D:/Work/DeviceTester/amazon-freertos/lib/third_party/mbedtls/library\ctr_drbg.c ****     FILE *f;
 502:D:/Work/DeviceTester/amazon-freertos/lib/third_party/mbedtls/library\ctr_drbg.c ****     size_t n;
 503:D:/Work/DeviceTester/amazon-freertos/lib/third_party/mbedtls/library\ctr_drbg.c ****     unsigned char buf[ MBEDTLS_CTR_DRBG_MAX_INPUT ];
 504:D:/Work/DeviceTester/amazon-freertos/lib/third_party/mbedtls/library\ctr_drbg.c **** 
 505:D:/Work/DeviceTester/amazon-freertos/lib/third_party/mbedtls/library\ctr_drbg.c ****     if( ( f = fopen( path, "rb" ) ) == NULL )
 506:D:/Work/DeviceTester/amazon-freertos/lib/third_party/mbedtls/library\ctr_drbg.c ****         return( MBEDTLS_ERR_CTR_DRBG_FILE_IO_ERROR );
 507:D:/Work/DeviceTester/amazon-freertos/lib/third_party/mbedtls/library\ctr_drbg.c **** 
 508:D:/Work/DeviceTester/amazon-freertos/lib/third_party/mbedtls/library\ctr_drbg.c ****     fseek( f, 0, SEEK_END );
 509:D:/Work/DeviceTester/amazon-freertos/lib/third_party/mbedtls/library\ctr_drbg.c ****     n = (size_t) ftell( f );
 510:D:/Work/DeviceTester/amazon-freertos/lib/third_party/mbedtls/library\ctr_drbg.c ****     fseek( f, 0, SEEK_SET );
 511:D:/Work/DeviceTester/amazon-freertos/lib/third_party/mbedtls/library\ctr_drbg.c **** 
 512:D:/Work/DeviceTester/amazon-freertos/lib/third_party/mbedtls/library\ctr_drbg.c ****     if( n > MBEDTLS_CTR_DRBG_MAX_INPUT )
 513:D:/Work/DeviceTester/amazon-freertos/lib/third_party/mbedtls/library\ctr_drbg.c ****     {
 514:D:/Work/DeviceTester/amazon-freertos/lib/third_party/mbedtls/library\ctr_drbg.c ****         fclose( f );
 515:D:/Work/DeviceTester/amazon-freertos/lib/third_party/mbedtls/library\ctr_drbg.c ****         return( MBEDTLS_ERR_CTR_DRBG_INPUT_TOO_BIG );
 516:D:/Work/DeviceTester/amazon-freertos/lib/third_party/mbedtls/library\ctr_drbg.c ****     }
 517:D:/Work/DeviceTester/amazon-freertos/lib/third_party/mbedtls/library\ctr_drbg.c **** 
 518:D:/Work/DeviceTester/amazon-freertos/lib/third_party/mbedtls/library\ctr_drbg.c ****     if( fread( buf, 1, n, f ) != n )
 519:D:/Work/DeviceTester/amazon-freertos/lib/third_party/mbedtls/library\ctr_drbg.c ****         ret = MBEDTLS_ERR_CTR_DRBG_FILE_IO_ERROR;
 520:D:/Work/DeviceTester/amazon-freertos/lib/third_party/mbedtls/library\ctr_drbg.c ****     else
 521:D:/Work/DeviceTester/amazon-freertos/lib/third_party/mbedtls/library\ctr_drbg.c ****         mbedtls_ctr_drbg_update( ctx, buf, n );
 522:D:/Work/DeviceTester/amazon-freertos/lib/third_party/mbedtls/library\ctr_drbg.c **** 
 523:D:/Work/DeviceTester/amazon-freertos/lib/third_party/mbedtls/library\ctr_drbg.c ****     fclose( f );
 524:D:/Work/DeviceTester/amazon-freertos/lib/third_party/mbedtls/library\ctr_drbg.c **** 
 525:D:/Work/DeviceTester/amazon-freertos/lib/third_party/mbedtls/library\ctr_drbg.c ****     mbedtls_platform_zeroize( buf, sizeof( buf ) );
 526:D:/Work/DeviceTester/amazon-freertos/lib/third_party/mbedtls/library\ctr_drbg.c **** 
 527:D:/Work/DeviceTester/amazon-freertos/lib/third_party/mbedtls/library\ctr_drbg.c ****     if( ret != 0 )
 528:D:/Work/DeviceTester/amazon-freertos/lib/third_party/mbedtls/library\ctr_drbg.c ****         return( ret );
 529:D:/Work/DeviceTester/amazon-freertos/lib/third_party/mbedtls/library\ctr_drbg.c **** 
 530:D:/Work/DeviceTester/amazon-freertos/lib/third_party/mbedtls/library\ctr_drbg.c ****     return( mbedtls_ctr_drbg_write_seed_file( ctx, path ) );
 531:D:/Work/DeviceTester/amazon-freertos/lib/third_party/mbedtls/library\ctr_drbg.c **** }
 532:D:/Work/DeviceTester/amazon-freertos/lib/third_party/mbedtls/library\ctr_drbg.c **** #endif /* MBEDTLS_FS_IO */
 533:D:/Work/DeviceTester/amazon-freertos/lib/third_party/mbedtls/library\ctr_drbg.c **** 
 534:D:/Work/DeviceTester/amazon-freertos/lib/third_party/mbedtls/library\ctr_drbg.c **** #if defined(MBEDTLS_SELF_TEST)
 535:D:/Work/DeviceTester/amazon-freertos/lib/third_party/mbedtls/library\ctr_drbg.c **** 
 536:D:/Work/DeviceTester/amazon-freertos/lib/third_party/mbedtls/library\ctr_drbg.c **** static const unsigned char entropy_source_pr[96] =
 537:D:/Work/DeviceTester/amazon-freertos/lib/third_party/mbedtls/library\ctr_drbg.c ****     { 0xc1, 0x80, 0x81, 0xa6, 0x5d, 0x44, 0x02, 0x16,
 538:D:/Work/DeviceTester/amazon-freertos/lib/third_party/mbedtls/library\ctr_drbg.c ****       0x19, 0xb3, 0xf1, 0x80, 0xb1, 0xc9, 0x20, 0x02,
 539:D:/Work/DeviceTester/amazon-freertos/lib/third_party/mbedtls/library\ctr_drbg.c ****       0x6a, 0x54, 0x6f, 0x0c, 0x70, 0x81, 0x49, 0x8b,
 540:D:/Work/DeviceTester/amazon-freertos/lib/third_party/mbedtls/library\ctr_drbg.c ****       0x6e, 0xa6, 0x62, 0x52, 0x6d, 0x51, 0xb1, 0xcb,
 541:D:/Work/DeviceTester/amazon-freertos/lib/third_party/mbedtls/library\ctr_drbg.c ****       0x58, 0x3b, 0xfa, 0xd5, 0x37, 0x5f, 0xfb, 0xc9,
 542:D:/Work/DeviceTester/amazon-freertos/lib/third_party/mbedtls/library\ctr_drbg.c ****       0xff, 0x46, 0xd2, 0x19, 0xc7, 0x22, 0x3e, 0x95,
 543:D:/Work/DeviceTester/amazon-freertos/lib/third_party/mbedtls/library\ctr_drbg.c ****       0x45, 0x9d, 0x82, 0xe1, 0xe7, 0x22, 0x9f, 0x63,
 544:D:/Work/DeviceTester/amazon-freertos/lib/third_party/mbedtls/library\ctr_drbg.c ****       0x31, 0x69, 0xd2, 0x6b, 0x57, 0x47, 0x4f, 0xa3,
 545:D:/Work/DeviceTester/amazon-freertos/lib/third_party/mbedtls/library\ctr_drbg.c ****       0x37, 0xc9, 0x98, 0x1c, 0x0b, 0xfb, 0x91, 0x31,
 546:D:/Work/DeviceTester/amazon-freertos/lib/third_party/mbedtls/library\ctr_drbg.c ****       0x4d, 0x55, 0xb9, 0xe9, 0x1c, 0x5a, 0x5e, 0xe4,
 547:D:/Work/DeviceTester/amazon-freertos/lib/third_party/mbedtls/library\ctr_drbg.c ****       0x93, 0x92, 0xcf, 0xc5, 0x23, 0x12, 0xd5, 0x56,
 548:D:/Work/DeviceTester/amazon-freertos/lib/third_party/mbedtls/library\ctr_drbg.c ****       0x2c, 0x4a, 0x6e, 0xff, 0xdc, 0x10, 0xd0, 0x68 };
 549:D:/Work/DeviceTester/amazon-freertos/lib/third_party/mbedtls/library\ctr_drbg.c **** 
 550:D:/Work/DeviceTester/amazon-freertos/lib/third_party/mbedtls/library\ctr_drbg.c **** static const unsigned char entropy_source_nopr[64] =
 551:D:/Work/DeviceTester/amazon-freertos/lib/third_party/mbedtls/library\ctr_drbg.c ****     { 0x5a, 0x19, 0x4d, 0x5e, 0x2b, 0x31, 0x58, 0x14,
 552:D:/Work/DeviceTester/amazon-freertos/lib/third_party/mbedtls/library\ctr_drbg.c ****       0x54, 0xde, 0xf6, 0x75, 0xfb, 0x79, 0x58, 0xfe,
 553:D:/Work/DeviceTester/amazon-freertos/lib/third_party/mbedtls/library\ctr_drbg.c ****       0xc7, 0xdb, 0x87, 0x3e, 0x56, 0x89, 0xfc, 0x9d,
 554:D:/Work/DeviceTester/amazon-freertos/lib/third_party/mbedtls/library\ctr_drbg.c ****       0x03, 0x21, 0x7c, 0x68, 0xd8, 0x03, 0x38, 0x20,
 555:D:/Work/DeviceTester/amazon-freertos/lib/third_party/mbedtls/library\ctr_drbg.c ****       0xf9, 0xe6, 0x5e, 0x04, 0xd8, 0x56, 0xf3, 0xa9,
 556:D:/Work/DeviceTester/amazon-freertos/lib/third_party/mbedtls/library\ctr_drbg.c ****       0xc4, 0x4a, 0x4c, 0xbd, 0xc1, 0xd0, 0x08, 0x46,
 557:D:/Work/DeviceTester/amazon-freertos/lib/third_party/mbedtls/library\ctr_drbg.c ****       0xf5, 0x98, 0x3d, 0x77, 0x1c, 0x1b, 0x13, 0x7e,
 558:D:/Work/DeviceTester/amazon-freertos/lib/third_party/mbedtls/library\ctr_drbg.c ****       0x4e, 0x0f, 0x9d, 0x8e, 0xf4, 0x09, 0xf9, 0x2e };
 559:D:/Work/DeviceTester/amazon-freertos/lib/third_party/mbedtls/library\ctr_drbg.c **** 
 560:D:/Work/DeviceTester/amazon-freertos/lib/third_party/mbedtls/library\ctr_drbg.c **** static const unsigned char nonce_pers_pr[16] =
 561:D:/Work/DeviceTester/amazon-freertos/lib/third_party/mbedtls/library\ctr_drbg.c ****     { 0xd2, 0x54, 0xfc, 0xff, 0x02, 0x1e, 0x69, 0xd2,
 562:D:/Work/DeviceTester/amazon-freertos/lib/third_party/mbedtls/library\ctr_drbg.c ****       0x29, 0xc9, 0xcf, 0xad, 0x85, 0xfa, 0x48, 0x6c };
 563:D:/Work/DeviceTester/amazon-freertos/lib/third_party/mbedtls/library\ctr_drbg.c **** 
 564:D:/Work/DeviceTester/amazon-freertos/lib/third_party/mbedtls/library\ctr_drbg.c **** static const unsigned char nonce_pers_nopr[16] =
 565:D:/Work/DeviceTester/amazon-freertos/lib/third_party/mbedtls/library\ctr_drbg.c ****     { 0x1b, 0x54, 0xb8, 0xff, 0x06, 0x42, 0xbf, 0xf5,
 566:D:/Work/DeviceTester/amazon-freertos/lib/third_party/mbedtls/library\ctr_drbg.c ****       0x21, 0xf1, 0x5c, 0x1c, 0x0b, 0x66, 0x5f, 0x3f };
 567:D:/Work/DeviceTester/amazon-freertos/lib/third_party/mbedtls/library\ctr_drbg.c **** 
 568:D:/Work/DeviceTester/amazon-freertos/lib/third_party/mbedtls/library\ctr_drbg.c **** static const unsigned char result_pr[16] =
 569:D:/Work/DeviceTester/amazon-freertos/lib/third_party/mbedtls/library\ctr_drbg.c ****     { 0x34, 0x01, 0x16, 0x56, 0xb4, 0x29, 0x00, 0x8f,
 570:D:/Work/DeviceTester/amazon-freertos/lib/third_party/mbedtls/library\ctr_drbg.c ****       0x35, 0x63, 0xec, 0xb5, 0xf2, 0x59, 0x07, 0x23 };
 571:D:/Work/DeviceTester/amazon-freertos/lib/third_party/mbedtls/library\ctr_drbg.c **** 
 572:D:/Work/DeviceTester/amazon-freertos/lib/third_party/mbedtls/library\ctr_drbg.c **** static const unsigned char result_nopr[16] =
 573:D:/Work/DeviceTester/amazon-freertos/lib/third_party/mbedtls/library\ctr_drbg.c ****     { 0xa0, 0x54, 0x30, 0x3d, 0x8a, 0x7e, 0xa9, 0x88,
 574:D:/Work/DeviceTester/amazon-freertos/lib/third_party/mbedtls/library\ctr_drbg.c ****       0x9d, 0x90, 0x3e, 0x07, 0x7c, 0x6f, 0x21, 0x8f };
 575:D:/Work/DeviceTester/amazon-freertos/lib/third_party/mbedtls/library\ctr_drbg.c **** 
 576:D:/Work/DeviceTester/amazon-freertos/lib/third_party/mbedtls/library\ctr_drbg.c **** static size_t test_offset;
 577:D:/Work/DeviceTester/amazon-freertos/lib/third_party/mbedtls/library\ctr_drbg.c **** static int ctr_drbg_self_test_entropy( void *data, unsigned char *buf,
 578:D:/Work/DeviceTester/amazon-freertos/lib/third_party/mbedtls/library\ctr_drbg.c ****                                        size_t len )
 579:D:/Work/DeviceTester/amazon-freertos/lib/third_party/mbedtls/library\ctr_drbg.c **** {
  25              		.loc 1 579 0
  26              		.cfi_startproc
  27              		@ args = 0, pretend = 0, frame = 0
  28              		@ frame_needed = 0, uses_anonymous_args = 0
  29              	.LVL0:
  30 0000 70402DE9 		push	{r4, r5, r6, lr}
  31              		.cfi_def_cfa_offset 16
  32              		.cfi_offset 4, -16
  33              		.cfi_offset 5, -12
  34              		.cfi_offset 6, -8
  35              		.cfi_offset 14, -4
  36              		.loc 1 579 0
  37 0004 0130A0E1 		mov	r3, r1
 580:D:/Work/DeviceTester/amazon-freertos/lib/third_party/mbedtls/library\ctr_drbg.c ****     const unsigned char *p = data;
 581:D:/Work/DeviceTester/amazon-freertos/lib/third_party/mbedtls/library\ctr_drbg.c ****     memcpy( buf, p + test_offset, len );
  38              		.loc 1 581 0
  39 0008 20509FE5 		ldr	r5, .L3
 579:D:/Work/DeviceTester/amazon-freertos/lib/third_party/mbedtls/library\ctr_drbg.c ****     const unsigned char *p = data;
  40              		.loc 1 579 0
  41 000c 0260A0E1 		mov	r6, r2
  42              		.loc 1 581 0
  43 0010 004095E5 		ldr	r4, [r5]
  44 0014 041080E0 		add	r1, r0, r4
  45              	.LVL1:
  46 0018 0300A0E1 		mov	r0, r3
  47              	.LVL2:
 582:D:/Work/DeviceTester/amazon-freertos/lib/third_party/mbedtls/library\ctr_drbg.c ****     test_offset += len;
  48              		.loc 1 582 0
  49 001c 064084E0 		add	r4, r4, r6
 581:D:/Work/DeviceTester/amazon-freertos/lib/third_party/mbedtls/library\ctr_drbg.c ****     test_offset += len;
  50              		.loc 1 581 0
  51 0020 FEFFFFEB 		bl	memcpy
  52              	.LVL3:
  53              		.loc 1 582 0
  54 0024 004085E5 		str	r4, [r5]
 583:D:/Work/DeviceTester/amazon-freertos/lib/third_party/mbedtls/library\ctr_drbg.c ****     return( 0 );
 584:D:/Work/DeviceTester/amazon-freertos/lib/third_party/mbedtls/library\ctr_drbg.c **** }
  55              		.loc 1 584 0
  56 0028 0000A0E3 		mov	r0, #0
  57 002c 7080BDE8 		pop	{r4, r5, r6, pc}
  58              	.L4:
  59              		.align	2
  60              	.L3:
  61 0030 00000000 		.word	.LANCHOR0
  62              		.cfi_endproc
  63              	.LFE14:
  65              		.section	.text.block_cipher_df,"ax",%progbits
  66              		.align	2
  67              		.syntax unified
  68              		.arm
  69              		.fpu neon
  71              	block_cipher_df:
  72              	.LFB8:
 144:D:/Work/DeviceTester/amazon-freertos/lib/third_party/mbedtls/library\ctr_drbg.c ****     unsigned char buf[MBEDTLS_CTR_DRBG_MAX_SEED_INPUT + MBEDTLS_CTR_DRBG_BLOCKSIZE + 16];
  73              		.loc 1 144 0
  74              		.cfi_startproc
  75              		@ args = 0, pretend = 0, frame = 792
  76              		@ frame_needed = 0, uses_anonymous_args = 0
  77              	.LVL4:
 156:D:/Work/DeviceTester/amazon-freertos/lib/third_party/mbedtls/library\ctr_drbg.c ****         return( MBEDTLS_ERR_CTR_DRBG_INPUT_TOO_BIG );
  78              		.loc 1 156 0
  79 0000 060D52E3 		cmp	r2, #384
 144:D:/Work/DeviceTester/amazon-freertos/lib/third_party/mbedtls/library\ctr_drbg.c ****     unsigned char buf[MBEDTLS_CTR_DRBG_MAX_SEED_INPUT + MBEDTLS_CTR_DRBG_BLOCKSIZE + 16];
  80              		.loc 1 144 0
  81 0004 F04F2DE9 		push	{r4, r5, r6, r7, r8, r9, r10, fp, lr}
  82              		.cfi_def_cfa_offset 36
  83              		.cfi_offset 4, -36
  84              		.cfi_offset 5, -32
  85              		.cfi_offset 6, -28
  86              		.cfi_offset 7, -24
  87              		.cfi_offset 8, -20
  88              		.cfi_offset 9, -16
  89              		.cfi_offset 10, -12
  90              		.cfi_offset 11, -8
  91              		.cfi_offset 14, -4
 157:D:/Work/DeviceTester/amazon-freertos/lib/third_party/mbedtls/library\ctr_drbg.c **** 
  92              		.loc 1 157 0
  93 0008 3760E083 		mvnhi	r6, #55
 144:D:/Work/DeviceTester/amazon-freertos/lib/third_party/mbedtls/library\ctr_drbg.c ****     unsigned char buf[MBEDTLS_CTR_DRBG_MAX_SEED_INPUT + MBEDTLS_CTR_DRBG_BLOCKSIZE + 16];
  94              		.loc 1 144 0
  95 000c C7DF4DE2 		sub	sp, sp, #796
  96              		.cfi_def_cfa_offset 832
 156:D:/Work/DeviceTester/amazon-freertos/lib/third_party/mbedtls/library\ctr_drbg.c ****         return( MBEDTLS_ERR_CTR_DRBG_INPUT_TOO_BIG );
  97              		.loc 1 156 0
  98 0010 7500008A 		bhi	.L5
  99 0014 0250A0E1 		mov	r5, r2
 100 0018 0160A0E1 		mov	r6, r1
 159:D:/Work/DeviceTester/amazon-freertos/lib/third_party/mbedtls/library\ctr_drbg.c ****     mbedtls_aes_init( &aes_ctx );
 101              		.loc 1 159 0
 102 001c 1A2EA0E3 		mov	r2, #416
 103              	.LVL5:
 104 0020 0010A0E3 		mov	r1, #0
 105              	.LVL6:
 106 0024 0070A0E1 		mov	r7, r0
 107 0028 5E0F8DE2 		add	r0, sp, #376
 108              	.LVL7:
 109 002c FEFFFFEB 		bl	memset
 110              	.LVL8:
 160:D:/Work/DeviceTester/amazon-freertos/lib/third_party/mbedtls/library\ctr_drbg.c **** 
 111              		.loc 1 160 0
 112 0030 60008DE2 		add	r0, sp, #96
 170:D:/Work/DeviceTester/amazon-freertos/lib/third_party/mbedtls/library\ctr_drbg.c ****     *p++ = ( data_len >> 16 ) & 0xff;
 113              		.loc 1 170 0
 114 0034 0040A0E3 		mov	r4, #0
 160:D:/Work/DeviceTester/amazon-freertos/lib/third_party/mbedtls/library\ctr_drbg.c **** 
 115              		.loc 1 160 0
 116 0038 FEFFFFEB 		bl	mbedtls_aes_init
 117              	.LVL9:
 172:D:/Work/DeviceTester/amazon-freertos/lib/third_party/mbedtls/library\ctr_drbg.c ****     *p++ = ( data_len       ) & 0xff;
 118              		.loc 1 172 0
 119 003c 2534A0E1 		lsr	r3, r5, #8
 176:D:/Work/DeviceTester/amazon-freertos/lib/third_party/mbedtls/library\ctr_drbg.c ****     p[data_len] = 0x80;
 120              		.loc 1 176 0
 121 0040 0520A0E1 		mov	r2, r5
 122 0044 0610A0E1 		mov	r1, r6
 170:D:/Work/DeviceTester/amazon-freertos/lib/third_party/mbedtls/library\ctr_drbg.c ****     *p++ = ( data_len >> 16 ) & 0xff;
 123              		.loc 1 170 0
 124 0048 8841CDE5 		strb	r4, [sp, #392]
 125              	.LVL10:
 172:D:/Work/DeviceTester/amazon-freertos/lib/third_party/mbedtls/library\ctr_drbg.c ****     *p++ = ( data_len       ) & 0xff;
 126              		.loc 1 172 0
 127 004c 8A31CDE5 		strb	r3, [sp, #394]
 176:D:/Work/DeviceTester/amazon-freertos/lib/third_party/mbedtls/library\ctr_drbg.c ****     p[data_len] = 0x80;
 128              		.loc 1 176 0
 129 0050 190E8DE2 		add	r0, sp, #400
 175:D:/Work/DeviceTester/amazon-freertos/lib/third_party/mbedtls/library\ctr_drbg.c ****     memcpy( p, data, data_len );
 130              		.loc 1 175 0
 131 0054 3030A0E3 		mov	r3, #48
 171:D:/Work/DeviceTester/amazon-freertos/lib/third_party/mbedtls/library\ctr_drbg.c ****     *p++ = ( data_len >> 8  ) & 0xff;
 132              		.loc 1 171 0
 133 0058 8941CDE5 		strb	r4, [sp, #393]
 134              	.LVL11:
 175:D:/Work/DeviceTester/amazon-freertos/lib/third_party/mbedtls/library\ctr_drbg.c ****     memcpy( p, data, data_len );
 135              		.loc 1 175 0
 136 005c 8F31CDE5 		strb	r3, [sp, #399]
 182:D:/Work/DeviceTester/amazon-freertos/lib/third_party/mbedtls/library\ctr_drbg.c **** 
 137              		.loc 1 182 0
 138 0060 10808DE2 		add	r8, sp, #16
 173:D:/Work/DeviceTester/amazon-freertos/lib/third_party/mbedtls/library\ctr_drbg.c ****     p += 3;
 139              		.loc 1 173 0
 140 0064 8B51CDE5 		strb	r5, [sp, #395]
 141              	.LVL12:
 176:D:/Work/DeviceTester/amazon-freertos/lib/third_party/mbedtls/library\ctr_drbg.c ****     p[data_len] = 0x80;
 142              		.loc 1 176 0
 143 0068 FEFFFFEB 		bl	memcpy
 144              	.LVL13:
 177:D:/Work/DeviceTester/amazon-freertos/lib/third_party/mbedtls/library\ctr_drbg.c **** 
 145              		.loc 1 177 0
 146 006c C63F8DE2 		add	r3, sp, #792
 147 0070 7F20E0E3 		mvn	r2, #127
 148 0074 053083E0 		add	r3, r3, r5
 149 0078 882143E5 		strb	r2, [r3, #-392]
 150              	.LVL14:
 181:D:/Work/DeviceTester/amazon-freertos/lib/third_party/mbedtls/library\ctr_drbg.c ****         key[i] = i;
 151              		.loc 1 181 0
 152 007c 0430A0E1 		mov	r3, r4
 153              	.LVL15:
 154              	.L7:
 182:D:/Work/DeviceTester/amazon-freertos/lib/third_party/mbedtls/library\ctr_drbg.c **** 
 155              		.loc 1 182 0 discriminator 3
 156 0080 0830C3E7 		strb	r3, [r3, r8]
 181:D:/Work/DeviceTester/amazon-freertos/lib/third_party/mbedtls/library\ctr_drbg.c ****         key[i] = i;
 157              		.loc 1 181 0 discriminator 3
 158 0084 013083E2 		add	r3, r3, #1
 159              	.LVL16:
 160 0088 200053E3 		cmp	r3, #32
 161 008c FBFFFF1A 		bne	.L7
 184:D:/Work/DeviceTester/amazon-freertos/lib/third_party/mbedtls/library\ctr_drbg.c ****     {
 162              		.loc 1 184 0
 163 0090 012CA0E3 		mov	r2, #256
 164 0094 0810A0E1 		mov	r1, r8
 165 0098 60008DE2 		add	r0, sp, #96
 166 009c FEFFFFEB 		bl	mbedtls_aes_setkey_enc
 167              	.LVL17:
 168 00a0 006050E2 		subs	r6, r0, #0
 169              	.LVL18:
 170 00a4 3D00001A 		bne	.L8
 179:D:/Work/DeviceTester/amazon-freertos/lib/third_party/mbedtls/library\ctr_drbg.c **** 
 171              		.loc 1 179 0
 172 00a8 195085E2 		add	r5, r5, #25
 173              	.LVL19:
 174 00ac 0690A0E1 		mov	r9, r6
 195:D:/Work/DeviceTester/amazon-freertos/lib/third_party/mbedtls/library\ctr_drbg.c ****         use_len = buf_len;
 175              		.loc 1 195 0
 176 00b0 0D40A0E1 		mov	r4, sp
 177              	.LVL20:
 178              	.L12:
 179 00b4 1020A0E3 		mov	r2, #16
 180 00b8 0010A0E3 		mov	r1, #0
 181 00bc 0400A0E1 		mov	r0, r4
 196:D:/Work/DeviceTester/amazon-freertos/lib/third_party/mbedtls/library\ctr_drbg.c **** 
 182              		.loc 1 196 0
 183 00c0 05A0A0E1 		mov	r10, r5
 195:D:/Work/DeviceTester/amazon-freertos/lib/third_party/mbedtls/library\ctr_drbg.c ****         use_len = buf_len;
 184              		.loc 1 195 0
 185 00c4 FEFFFFEB 		bl	memset
 186              	.LVL21:
 187 00c8 5E3F8DE2 		add	r3, sp, #376
 188              	.LVL22:
 189 00cc 013043E2 		sub	r3, r3, #1
 190              	.LVL23:
 191              	.L9:
 192 00d0 012044E2 		sub	r2, r4, #1
 193 00d4 10B083E2 		add	fp, r3, #16
 194              	.LVL24:
 195              	.L10:
 201:D:/Work/DeviceTester/amazon-freertos/lib/third_party/mbedtls/library\ctr_drbg.c ****             p += MBEDTLS_CTR_DRBG_BLOCKSIZE;
 196              		.loc 1 201 0 discriminator 3
 197 00d8 0100F3E5 		ldrb	r0, [r3, #1]!	@ zero_extendqisi2
 198              	.LVL25:
 199 00dc 0110D2E5 		ldrb	r1, [r2, #1]	@ zero_extendqisi2
 200:D:/Work/DeviceTester/amazon-freertos/lib/third_party/mbedtls/library\ctr_drbg.c ****                 chain[i] ^= p[i];
 200              		.loc 1 200 0 discriminator 3
 201 00e0 03005BE1 		cmp	fp, r3
 201:D:/Work/DeviceTester/amazon-freertos/lib/third_party/mbedtls/library\ctr_drbg.c ****             p += MBEDTLS_CTR_DRBG_BLOCKSIZE;
 202              		.loc 1 201 0 discriminator 3
 203 00e4 001021E0 		eor	r1, r1, r0
 204 00e8 0110E2E5 		strb	r1, [r2, #1]!
 205              	.LVL26:
 200:D:/Work/DeviceTester/amazon-freertos/lib/third_party/mbedtls/library\ctr_drbg.c ****                 chain[i] ^= p[i];
 206              		.loc 1 200 0 discriminator 3
 207 00ec F9FFFF1A 		bne	.L10
 208              	.LVL27:
 203:D:/Work/DeviceTester/amazon-freertos/lib/third_party/mbedtls/library\ctr_drbg.c ****                        MBEDTLS_CTR_DRBG_BLOCKSIZE : use_len;
 209              		.loc 1 203 0
 210 00f0 10005AE3 		cmp	r10, #16
 206:D:/Work/DeviceTester/amazon-freertos/lib/third_party/mbedtls/library\ctr_drbg.c ****             {
 211              		.loc 1 206 0
 212 00f4 0430A0E1 		mov	r3, r4
 213              	.LVL28:
 214 00f8 0420A0E1 		mov	r2, r4
 215              	.LVL29:
 216 00fc 0110A0E3 		mov	r1, #1
 217 0100 60008DE2 		add	r0, sp, #96
 203:D:/Work/DeviceTester/amazon-freertos/lib/third_party/mbedtls/library\ctr_drbg.c ****                        MBEDTLS_CTR_DRBG_BLOCKSIZE : use_len;
 218              		.loc 1 203 0
 219 0104 0AA04A90 		subls	r10, r10, r10
 220              	.LVL30:
 221 0108 10A04A82 		subhi	r10, r10, #16
 222              	.LVL31:
 206:D:/Work/DeviceTester/amazon-freertos/lib/third_party/mbedtls/library\ctr_drbg.c ****             {
 223              		.loc 1 206 0
 224 010c FEFFFFEB 		bl	mbedtls_aes_crypt_ecb
 225              	.LVL32:
 226 0110 006050E2 		subs	r6, r0, #0
 227 0114 2100001A 		bne	.L8
 228              	.LVL33:
 198:D:/Work/DeviceTester/amazon-freertos/lib/third_party/mbedtls/library\ctr_drbg.c ****         {
 229              		.loc 1 198 0
 230 0118 00005AE3 		cmp	r10, #0
 231 011c 0B30A0E1 		mov	r3, fp
 232 0120 EAFFFF1A 		bne	.L9
 233              	.LVL34:
 212:D:/Work/DeviceTester/amazon-freertos/lib/third_party/mbedtls/library\ctr_drbg.c **** 
 234              		.loc 1 212 0 discriminator 2
 235 0124 30308DE2 		add	r3, sp, #48
 236              	.LVL35:
 237 0128 03C089E0 		add	ip, r9, r3
 238 012c 0F0094E8 		ldm	r4, {r0, r1, r2, r3}
 239              	.LVL36:
 192:D:/Work/DeviceTester/amazon-freertos/lib/third_party/mbedtls/library\ctr_drbg.c ****     {
 240              		.loc 1 192 0 discriminator 2
 241 0130 109089E2 		add	r9, r9, #16
 242              	.LVL37:
 243 0134 300059E3 		cmp	r9, #48
 212:D:/Work/DeviceTester/amazon-freertos/lib/third_party/mbedtls/library\ctr_drbg.c **** 
 244              		.loc 1 212 0 discriminator 2
 245 0138 0F008CE8 		stm	ip, {r0, r1, r2, r3}
 217:D:/Work/DeviceTester/amazon-freertos/lib/third_party/mbedtls/library\ctr_drbg.c ****     }
 246              		.loc 1 217 0 discriminator 2
 247 013c 7B31DDE5 		ldrb	r3, [sp, #379]	@ zero_extendqisi2
 248 0140 013083E2 		add	r3, r3, #1
 249 0144 7B31CDE5 		strb	r3, [sp, #379]
 192:D:/Work/DeviceTester/amazon-freertos/lib/third_party/mbedtls/library\ctr_drbg.c ****     {
 250              		.loc 1 192 0 discriminator 2
 251 0148 D9FFFF1A 		bne	.L12
 223:D:/Work/DeviceTester/amazon-freertos/lib/third_party/mbedtls/library\ctr_drbg.c ****     {
 252              		.loc 1 223 0
 253 014c 012CA0E3 		mov	r2, #256
 254 0150 30108DE2 		add	r1, sp, #48
 255 0154 60008DE2 		add	r0, sp, #96
 256 0158 FEFFFFEB 		bl	mbedtls_aes_setkey_enc
 257              	.LVL38:
 258 015c 006050E2 		subs	r6, r0, #0
 259 0160 0E00001A 		bne	.L8
 260 0164 309087E2 		add	r9, r7, #48
 261              	.LVL39:
 262 0168 0740A0E1 		mov	r4, r7
 232:D:/Work/DeviceTester/amazon-freertos/lib/third_party/mbedtls/library\ctr_drbg.c ****         {
 263              		.loc 1 232 0
 264 016c 50508DE2 		add	r5, sp, #80
 265              	.LVL40:
 266              	.L13:
 267 0170 0530A0E1 		mov	r3, r5
 268 0174 0520A0E1 		mov	r2, r5
 269 0178 0110A0E3 		mov	r1, #1
 270 017c 60008DE2 		add	r0, sp, #96
 271 0180 FEFFFFEB 		bl	mbedtls_aes_crypt_ecb
 272              	.LVL41:
 273 0184 006050E2 		subs	r6, r0, #0
 274 0188 0400001A 		bne	.L8
 236:D:/Work/DeviceTester/amazon-freertos/lib/third_party/mbedtls/library\ctr_drbg.c ****         p += MBEDTLS_CTR_DRBG_BLOCKSIZE;
 275              		.loc 1 236 0 discriminator 2
 276 018c 0F0095E8 		ldm	r5, {r0, r1, r2, r3}
 277              	.LVL42:
 278 0190 0F0084E8 		stm	r4, {r0, r1, r2, r3}
 237:D:/Work/DeviceTester/amazon-freertos/lib/third_party/mbedtls/library\ctr_drbg.c ****     }
 279              		.loc 1 237 0 discriminator 2
 280 0194 104084E2 		add	r4, r4, #16
 281              	.LVL43:
 230:D:/Work/DeviceTester/amazon-freertos/lib/third_party/mbedtls/library\ctr_drbg.c ****     {
 282              		.loc 1 230 0 discriminator 2
 283 0198 040059E1 		cmp	r9, r4
 284 019c F3FFFF1A 		bne	.L13
 285              	.LVL44:
 286              	.L8:
 240:D:/Work/DeviceTester/amazon-freertos/lib/third_party/mbedtls/library\ctr_drbg.c ****     /*
 287              		.loc 1 240 0
 288 01a0 60008DE2 		add	r0, sp, #96
 289 01a4 FEFFFFEB 		bl	mbedtls_aes_free
 290              	.LVL45:
 244:D:/Work/DeviceTester/amazon-freertos/lib/third_party/mbedtls/library\ctr_drbg.c ****     mbedtls_platform_zeroize( tmp, sizeof( tmp ) );
 291              		.loc 1 244 0
 292 01a8 1A1EA0E3 		mov	r1, #416
 293 01ac 5E0F8DE2 		add	r0, sp, #376
 294 01b0 FEFFFFEB 		bl	mbedtls_platform_zeroize
 295              	.LVL46:
 245:D:/Work/DeviceTester/amazon-freertos/lib/third_party/mbedtls/library\ctr_drbg.c ****     mbedtls_platform_zeroize( key, sizeof( key ) );
 296              		.loc 1 245 0
 297 01b4 3010A0E3 		mov	r1, #48
 298 01b8 01008DE0 		add	r0, sp, r1
 299 01bc FEFFFFEB 		bl	mbedtls_platform_zeroize
 300              	.LVL47:
 246:D:/Work/DeviceTester/amazon-freertos/lib/third_party/mbedtls/library\ctr_drbg.c ****     mbedtls_platform_zeroize( chain, sizeof( chain ) );
 301              		.loc 1 246 0
 302 01c0 2010A0E3 		mov	r1, #32
 303 01c4 0800A0E1 		mov	r0, r8
 304 01c8 FEFFFFEB 		bl	mbedtls_platform_zeroize
 305              	.LVL48:
 247:D:/Work/DeviceTester/amazon-freertos/lib/third_party/mbedtls/library\ctr_drbg.c ****     if( 0 != ret )
 306              		.loc 1 247 0
 307 01cc 1010A0E3 		mov	r1, #16
 308 01d0 0D00A0E1 		mov	r0, sp
 309 01d4 FEFFFFEB 		bl	mbedtls_platform_zeroize
 310              	.LVL49:
 248:D:/Work/DeviceTester/amazon-freertos/lib/third_party/mbedtls/library\ctr_drbg.c ****     {
 311              		.loc 1 248 0
 312 01d8 000056E3 		cmp	r6, #0
 313 01dc 0200000A 		beq	.L5
 253:D:/Work/DeviceTester/amazon-freertos/lib/third_party/mbedtls/library\ctr_drbg.c ****     }
 314              		.loc 1 253 0
 315 01e0 3010A0E3 		mov	r1, #48
 316 01e4 0700A0E1 		mov	r0, r7
 317 01e8 FEFFFFEB 		bl	mbedtls_platform_zeroize
 318              	.LVL50:
 319              	.L5:
 257:D:/Work/DeviceTester/amazon-freertos/lib/third_party/mbedtls/library\ctr_drbg.c **** 
 320              		.loc 1 257 0
 321 01ec 0600A0E1 		mov	r0, r6
 322 01f0 C7DF8DE2 		add	sp, sp, #796
 323              		.cfi_def_cfa_offset 36
 324              		@ sp needed
 325 01f4 F08FBDE8 		pop	{r4, r5, r6, r7, r8, r9, r10, fp, pc}
 326              		.cfi_endproc
 327              	.LFE8:
 329              		.section	.text.ctr_drbg_update_internal,"ax",%progbits
 330              		.align	2
 331              		.syntax unified
 332              		.arm
 333              		.fpu neon
 335              	ctr_drbg_update_internal:
 336              	.LFB9:
 261:D:/Work/DeviceTester/amazon-freertos/lib/third_party/mbedtls/library\ctr_drbg.c ****     unsigned char tmp[MBEDTLS_CTR_DRBG_SEEDLEN];
 337              		.loc 1 261 0
 338              		.cfi_startproc
 339              		@ args = 0, pretend = 0, frame = 48
 340              		@ frame_needed = 0, uses_anonymous_args = 0
 341              	.LVL51:
 342 0000 F0412DE9 		push	{r4, r5, r6, r7, r8, lr}
 343              		.cfi_def_cfa_offset 24
 344              		.cfi_offset 4, -24
 345              		.cfi_offset 5, -20
 346              		.cfi_offset 6, -16
 347              		.cfi_offset 7, -12
 348              		.cfi_offset 8, -8
 349              		.cfi_offset 14, -4
 350 0004 0040A0E1 		mov	r4, r0
 351 0008 30D04DE2 		sub	sp, sp, #48
 352              		.cfi_def_cfa_offset 72
 353              	.LVL52:
 269:D:/Work/DeviceTester/amazon-freertos/lib/third_party/mbedtls/library\ctr_drbg.c ****     {
 354              		.loc 1 269 0
 355 000c 0060A0E3 		mov	r6, #0
 281:D:/Work/DeviceTester/amazon-freertos/lib/third_party/mbedtls/library\ctr_drbg.c ****         {
 356              		.loc 1 281 0
 357 0010 207084E2 		add	r7, r4, #32
 261:D:/Work/DeviceTester/amazon-freertos/lib/third_party/mbedtls/library\ctr_drbg.c ****     unsigned char tmp[MBEDTLS_CTR_DRBG_SEEDLEN];
 358              		.loc 1 261 0
 359 0014 0150A0E1 		mov	r5, r1
 267:D:/Work/DeviceTester/amazon-freertos/lib/third_party/mbedtls/library\ctr_drbg.c **** 
 360              		.loc 1 267 0
 361 0018 3020A0E3 		mov	r2, #48
 362 001c 0010A0E3 		mov	r1, #0
 363              	.LVL53:
 364 0020 0D00A0E1 		mov	r0, sp
 365              	.LVL54:
 366 0024 FEFFFFEB 		bl	memset
 367              	.LVL55:
 368              	.L24:
 369 0028 06308DE0 		add	r3, sp, r6
 370              	.LVL56:
 371 002c 0F0084E2 		add	r0, r4, #15
 261:D:/Work/DeviceTester/amazon-freertos/lib/third_party/mbedtls/library\ctr_drbg.c ****     unsigned char tmp[MBEDTLS_CTR_DRBG_SEEDLEN];
 372              		.loc 1 261 0
 373 0030 1010A0E3 		mov	r1, #16
 374              	.LVL57:
 375              	.L25:
 275:D:/Work/DeviceTester/amazon-freertos/lib/third_party/mbedtls/library\ctr_drbg.c ****                 break;
 376              		.loc 1 275 0
 377 0034 0020D0E5 		ldrb	r2, [r0]	@ zero_extendqisi2
 274:D:/Work/DeviceTester/amazon-freertos/lib/third_party/mbedtls/library\ctr_drbg.c ****             if( ++ctx->counter[i - 1] != 0 )
 378              		.loc 1 274 0
 379 0038 011051E2 		subs	r1, r1, #1
 380              	.LVL58:
 381 003c 01C0A013 		movne	ip, #1
 382 0040 00C0A003 		moveq	ip, #0
 275:D:/Work/DeviceTester/amazon-freertos/lib/third_party/mbedtls/library\ctr_drbg.c ****                 break;
 383              		.loc 1 275 0
 384 0044 012082E2 		add	r2, r2, #1
 385 0048 7220EFE6 		uxtb	r2, r2
 386 004c 012040E4 		strb	r2, [r0], #-1
 387              	.LVL59:
 274:D:/Work/DeviceTester/amazon-freertos/lib/third_party/mbedtls/library\ctr_drbg.c ****             if( ++ctx->counter[i - 1] != 0 )
 388              		.loc 1 274 0
 389 0050 000052E3 		cmp	r2, #0
 390 0054 0020A013 		movne	r2, #0
 391 0058 01200C02 		andeq	r2, ip, #1
 392 005c 000052E3 		cmp	r2, #0
 393 0060 F3FFFF1A 		bne	.L25
 281:D:/Work/DeviceTester/amazon-freertos/lib/third_party/mbedtls/library\ctr_drbg.c ****         {
 394              		.loc 1 281 0
 395 0064 0420A0E1 		mov	r2, r4
 396 0068 0110A0E3 		mov	r1, #1
 397 006c 0700A0E1 		mov	r0, r7
 398 0070 FEFFFFEB 		bl	mbedtls_aes_crypt_ecb
 399              	.LVL60:
 400 0074 008050E2 		subs	r8, r0, #0
 401 0078 1500001A 		bne	.L23
 402              	.LVL61:
 269:D:/Work/DeviceTester/amazon-freertos/lib/third_party/mbedtls/library\ctr_drbg.c ****     {
 403              		.loc 1 269 0 discriminator 2
 404 007c 106086E2 		add	r6, r6, #16
 405              	.LVL62:
 406 0080 300056E3 		cmp	r6, #48
 407 0084 E7FFFF1A 		bne	.L24
 408 0088 013045E2 		sub	r3, r5, #1
 409 008c 01204DE2 		sub	r2, sp, #1
 410 0090 2F5085E2 		add	r5, r5, #47
 411              	.LVL63:
 412              	.L28:
 290:D:/Work/DeviceTester/amazon-freertos/lib/third_party/mbedtls/library\ctr_drbg.c **** 
 413              		.loc 1 290 0 discriminator 3
 414 0094 0100F3E5 		ldrb	r0, [r3, #1]!	@ zero_extendqisi2
 415 0098 0110D2E5 		ldrb	r1, [r2, #1]	@ zero_extendqisi2
 289:D:/Work/DeviceTester/amazon-freertos/lib/third_party/mbedtls/library\ctr_drbg.c ****         tmp[i] ^= data[i];
 416              		.loc 1 289 0 discriminator 3
 417 009c 030055E1 		cmp	r5, r3
 290:D:/Work/DeviceTester/amazon-freertos/lib/third_party/mbedtls/library\ctr_drbg.c **** 
 418              		.loc 1 290 0 discriminator 3
 419 00a0 001021E0 		eor	r1, r1, r0
 420 00a4 0110E2E5 		strb	r1, [r2, #1]!
 421              	.LVL64:
 289:D:/Work/DeviceTester/amazon-freertos/lib/third_party/mbedtls/library\ctr_drbg.c ****         tmp[i] ^= data[i];
 422              		.loc 1 289 0 discriminator 3
 423 00a8 F9FFFF1A 		bne	.L28
 295:D:/Work/DeviceTester/amazon-freertos/lib/third_party/mbedtls/library\ctr_drbg.c ****     {
 424              		.loc 1 295 0
 425 00ac 012CA0E3 		mov	r2, #256
 426              	.LVL65:
 427 00b0 0D10A0E1 		mov	r1, sp
 428 00b4 0700A0E1 		mov	r0, r7
 429 00b8 FEFFFFEB 		bl	mbedtls_aes_setkey_enc
 430              	.LVL66:
 431 00bc 008050E2 		subs	r8, r0, #0
 432 00c0 0300001A 		bne	.L23
 299:D:/Work/DeviceTester/amazon-freertos/lib/third_party/mbedtls/library\ctr_drbg.c **** 
 433              		.loc 1 299 0
 434 00c4 1020A0E3 		mov	r2, #16
 435 00c8 20108DE2 		add	r1, sp, #32
 436 00cc 0400A0E1 		mov	r0, r4
 437              	.LVL67:
 438 00d0 FEFFFFEB 		bl	memcpy
 439              	.LVL68:
 440              	.L23:
 302:D:/Work/DeviceTester/amazon-freertos/lib/third_party/mbedtls/library\ctr_drbg.c **** 
 441              		.loc 1 302 0
 442 00d4 0800A0E1 		mov	r0, r8
 443 00d8 30D08DE2 		add	sp, sp, #48
 444              		.cfi_def_cfa_offset 24
 445              		@ sp needed
 446 00dc F081BDE8 		pop	{r4, r5, r6, r7, r8, pc}
 447              		.cfi_endproc
 448              	.LFE9:
 450              		.section	.text.mbedtls_ctr_drbg_init,"ax",%progbits
 451              		.align	2
 452              		.global	mbedtls_ctr_drbg_init
 453              		.syntax unified
 454              		.arm
 455              		.fpu neon
 457              	mbedtls_ctr_drbg_init:
 458              	.LFB1:
  57:D:/Work/DeviceTester/amazon-freertos/lib/third_party/mbedtls/library\ctr_drbg.c ****     memset( ctx, 0, sizeof( mbedtls_ctr_drbg_context ) );
 459              		.loc 1 57 0
 460              		.cfi_startproc
 461              		@ args = 0, pretend = 0, frame = 0
 462              		@ frame_needed = 0, uses_anonymous_args = 0
 463              	.LVL69:
 464 0000 10402DE9 		push	{r4, lr}
 465              		.cfi_def_cfa_offset 8
 466              		.cfi_offset 4, -8
 467              		.cfi_offset 14, -4
  58:D:/Work/DeviceTester/amazon-freertos/lib/third_party/mbedtls/library\ctr_drbg.c **** 
 468              		.loc 1 58 0
 469 0004 522FA0E3 		mov	r2, #328
 470 0008 0010A0E3 		mov	r1, #0
  57:D:/Work/DeviceTester/amazon-freertos/lib/third_party/mbedtls/library\ctr_drbg.c ****     memset( ctx, 0, sizeof( mbedtls_ctr_drbg_context ) );
 471              		.loc 1 57 0
 472 000c 0040A0E1 		mov	r4, r0
  58:D:/Work/DeviceTester/amazon-freertos/lib/third_party/mbedtls/library\ctr_drbg.c **** 
 473              		.loc 1 58 0
 474 0010 FEFFFFEB 		bl	memset
 475              	.LVL70:
  61:D:/Work/DeviceTester/amazon-freertos/lib/third_party/mbedtls/library\ctr_drbg.c **** #endif
 476              		.loc 1 61 0
 477 0014 0C309FE5 		ldr	r3, .L36
 478 0018 050D84E2 		add	r0, r4, #320
  63:D:/Work/DeviceTester/amazon-freertos/lib/third_party/mbedtls/library\ctr_drbg.c **** 
 479              		.loc 1 63 0
 480 001c 1040BDE8 		pop	{r4, lr}
 481              		.cfi_restore 14
 482              		.cfi_restore 4
 483              		.cfi_def_cfa_offset 0
 484              	.LVL71:
  61:D:/Work/DeviceTester/amazon-freertos/lib/third_party/mbedtls/library\ctr_drbg.c **** #endif
 485              		.loc 1 61 0
 486 0020 003093E5 		ldr	r3, [r3]
 487 0024 13FF2FE1 		bx	r3	@ indirect register sibling call
 488              	.LVL72:
 489              	.L37:
 490              		.align	2
 491              	.L36:
 492 0028 00000000 		.word	mbedtls_mutex_init
 493              		.cfi_endproc
 494              	.LFE1:
 496              		.section	.text.mbedtls_ctr_drbg_free,"ax",%progbits
 497              		.align	2
 498              		.global	mbedtls_ctr_drbg_free
 499              		.syntax unified
 500              		.arm
 501              		.fpu neon
 503              	mbedtls_ctr_drbg_free:
 504              	.LFB4:
 116:D:/Work/DeviceTester/amazon-freertos/lib/third_party/mbedtls/library\ctr_drbg.c ****     if( ctx == NULL )
 505              		.loc 1 116 0
 506              		.cfi_startproc
 507              		@ args = 0, pretend = 0, frame = 0
 508              		@ frame_needed = 0, uses_anonymous_args = 0
 509              	.LVL73:
 510 0000 10402DE9 		push	{r4, lr}
 511              		.cfi_def_cfa_offset 8
 512              		.cfi_offset 4, -8
 513              		.cfi_offset 14, -4
 117:D:/Work/DeviceTester/amazon-freertos/lib/third_party/mbedtls/library\ctr_drbg.c ****         return;
 514              		.loc 1 117 0
 515 0004 004050E2 		subs	r4, r0, #0
 516 0008 1080BD08 		popeq	{r4, pc}
 121:D:/Work/DeviceTester/amazon-freertos/lib/third_party/mbedtls/library\ctr_drbg.c **** #endif
 517              		.loc 1 121 0
 518 000c 050D84E2 		add	r0, r4, #320
 519              	.LVL74:
 520 0010 1C309FE5 		ldr	r3, .L41
 521 0014 003093E5 		ldr	r3, [r3]
 522 0018 33FF2FE1 		blx	r3
 523              	.LVL75:
 123:D:/Work/DeviceTester/amazon-freertos/lib/third_party/mbedtls/library\ctr_drbg.c ****     mbedtls_platform_zeroize( ctx, sizeof( mbedtls_ctr_drbg_context ) );
 524              		.loc 1 123 0
 525 001c 200084E2 		add	r0, r4, #32
 526 0020 FEFFFFEB 		bl	mbedtls_aes_free
 527              	.LVL76:
 124:D:/Work/DeviceTester/amazon-freertos/lib/third_party/mbedtls/library\ctr_drbg.c **** }
 528              		.loc 1 124 0
 529 0024 0400A0E1 		mov	r0, r4
 530 0028 521FA0E3 		mov	r1, #328
 125:D:/Work/DeviceTester/amazon-freertos/lib/third_party/mbedtls/library\ctr_drbg.c **** 
 531              		.loc 1 125 0
 532 002c 1040BDE8 		pop	{r4, lr}
 533              		.cfi_restore 14
 534              		.cfi_restore 4
 535              		.cfi_def_cfa_offset 0
 536              	.LVL77:
 124:D:/Work/DeviceTester/amazon-freertos/lib/third_party/mbedtls/library\ctr_drbg.c **** }
 537              		.loc 1 124 0
 538 0030 FEFFFFEA 		b	mbedtls_platform_zeroize
 539              	.LVL78:
 540              	.L42:
 541              		.align	2
 542              	.L41:
 543 0034 00000000 		.word	mbedtls_mutex_free
 544              		.cfi_endproc
 545              	.LFE4:
 547              		.section	.text.mbedtls_ctr_drbg_set_prediction_resistance,"ax",%progbits
 548              		.align	2
 549              		.global	mbedtls_ctr_drbg_set_prediction_resistance
 550              		.syntax unified
 551              		.arm
 552              		.fpu neon
 554              	mbedtls_ctr_drbg_set_prediction_resistance:
 555              	.LFB5:
 128:D:/Work/DeviceTester/amazon-freertos/lib/third_party/mbedtls/library\ctr_drbg.c ****     ctx->prediction_resistance = resistance;
 556              		.loc 1 128 0
 557              		.cfi_startproc
 558              		@ args = 0, pretend = 0, frame = 0
 559              		@ frame_needed = 0, uses_anonymous_args = 0
 560              		@ link register save eliminated.
 561              	.LVL79:
 129:D:/Work/DeviceTester/amazon-freertos/lib/third_party/mbedtls/library\ctr_drbg.c **** }
 562              		.loc 1 129 0
 563 0000 141080E5 		str	r1, [r0, #20]
 564 0004 1EFF2FE1 		bx	lr
 565              		.cfi_endproc
 566              	.LFE5:
 568              		.section	.text.mbedtls_ctr_drbg_set_entropy_len,"ax",%progbits
 569              		.align	2
 570              		.global	mbedtls_ctr_drbg_set_entropy_len
 571              		.syntax unified
 572              		.arm
 573              		.fpu neon
 575              	mbedtls_ctr_drbg_set_entropy_len:
 576              	.LFB6:
 133:D:/Work/DeviceTester/amazon-freertos/lib/third_party/mbedtls/library\ctr_drbg.c ****     ctx->entropy_len = len;
 577              		.loc 1 133 0
 578              		.cfi_startproc
 579              		@ args = 0, pretend = 0, frame = 0
 580              		@ frame_needed = 0, uses_anonymous_args = 0
 581              		@ link register save eliminated.
 582              	.LVL80:
 134:D:/Work/DeviceTester/amazon-freertos/lib/third_party/mbedtls/library\ctr_drbg.c **** }
 583              		.loc 1 134 0
 584 0000 181080E5 		str	r1, [r0, #24]
 585 0004 1EFF2FE1 		bx	lr
 586              		.cfi_endproc
 587              	.LFE6:
 589              		.section	.text.mbedtls_ctr_drbg_set_reseed_interval,"ax",%progbits
 590              		.align	2
 591              		.global	mbedtls_ctr_drbg_set_reseed_interval
 592              		.syntax unified
 593              		.arm
 594              		.fpu neon
 596              	mbedtls_ctr_drbg_set_reseed_interval:
 597              	.LFB7:
 138:D:/Work/DeviceTester/amazon-freertos/lib/third_party/mbedtls/library\ctr_drbg.c ****     ctx->reseed_interval = interval;
 598              		.loc 1 138 0
 599              		.cfi_startproc
 600              		@ args = 0, pretend = 0, frame = 0
 601              		@ frame_needed = 0, uses_anonymous_args = 0
 602              		@ link register save eliminated.
 603              	.LVL81:
 139:D:/Work/DeviceTester/amazon-freertos/lib/third_party/mbedtls/library\ctr_drbg.c **** }
 604              		.loc 1 139 0
 605 0000 1C1080E5 		str	r1, [r0, #28]
 606 0004 1EFF2FE1 		bx	lr
 607              		.cfi_endproc
 608              	.LFE7:
 610              		.section	.text.mbedtls_ctr_drbg_update,"ax",%progbits
 611              		.align	2
 612              		.global	mbedtls_ctr_drbg_update
 613              		.syntax unified
 614              		.arm
 615              		.fpu neon
 617              	mbedtls_ctr_drbg_update:
 618              	.LFB10:
 306:D:/Work/DeviceTester/amazon-freertos/lib/third_party/mbedtls/library\ctr_drbg.c ****     unsigned char add_input[MBEDTLS_CTR_DRBG_SEEDLEN];
 619              		.loc 1 306 0
 620              		.cfi_startproc
 621              		@ args = 0, pretend = 0, frame = 48
 622              		@ frame_needed = 0, uses_anonymous_args = 0
 623              	.LVL82:
 309:D:/Work/DeviceTester/amazon-freertos/lib/third_party/mbedtls/library\ctr_drbg.c ****     {
 624              		.loc 1 309 0
 625 0000 000052E3 		cmp	r2, #0
 626 0004 1EFF2F01 		bxeq	lr
 306:D:/Work/DeviceTester/amazon-freertos/lib/third_party/mbedtls/library\ctr_drbg.c ****     unsigned char add_input[MBEDTLS_CTR_DRBG_SEEDLEN];
 627              		.loc 1 306 0
 628 0008 10402DE9 		push	{r4, lr}
 629              		.cfi_def_cfa_offset 8
 630              		.cfi_offset 4, -8
 631              		.cfi_offset 14, -4
 316:D:/Work/DeviceTester/amazon-freertos/lib/third_party/mbedtls/library\ctr_drbg.c ****         ctr_drbg_update_internal( ctx, add_input );
 632              		.loc 1 316 0
 633 000c 060D52E3 		cmp	r2, #384
 306:D:/Work/DeviceTester/amazon-freertos/lib/third_party/mbedtls/library\ctr_drbg.c ****     unsigned char add_input[MBEDTLS_CTR_DRBG_SEEDLEN];
 634              		.loc 1 306 0
 635 0010 30D04DE2 		sub	sp, sp, #48
 636              		.cfi_def_cfa_offset 56
 637 0014 0040A0E1 		mov	r4, r0
 638              	.LVL83:
 316:D:/Work/DeviceTester/amazon-freertos/lib/third_party/mbedtls/library\ctr_drbg.c ****         ctr_drbg_update_internal( ctx, add_input );
 639              		.loc 1 316 0
 640 0018 062DA023 		movcs	r2, #384
 641              	.LVL84:
 642 001c 0D00A0E1 		mov	r0, sp
 643              	.LVL85:
 644 0020 FEFFFFEB 		bl	block_cipher_df
 645              	.LVL86:
 317:D:/Work/DeviceTester/amazon-freertos/lib/third_party/mbedtls/library\ctr_drbg.c ****     }
 646              		.loc 1 317 0
 647 0024 0D10A0E1 		mov	r1, sp
 648 0028 0400A0E1 		mov	r0, r4
 649 002c FEFFFFEB 		bl	ctr_drbg_update_internal
 650              	.LVL87:
 319:D:/Work/DeviceTester/amazon-freertos/lib/third_party/mbedtls/library\ctr_drbg.c **** 
 651              		.loc 1 319 0
 652 0030 30D08DE2 		add	sp, sp, #48
 653              		.cfi_def_cfa_offset 8
 654              		@ sp needed
 655 0034 1080BDE8 		pop	{r4, pc}
 656              		.cfi_endproc
 657              	.LFE10:
 659              		.section	.text.mbedtls_ctr_drbg_reseed,"ax",%progbits
 660              		.align	2
 661              		.global	mbedtls_ctr_drbg_reseed
 662              		.syntax unified
 663              		.arm
 664              		.fpu neon
 666              	mbedtls_ctr_drbg_reseed:
 667              	.LFB11:
 323:D:/Work/DeviceTester/amazon-freertos/lib/third_party/mbedtls/library\ctr_drbg.c ****     unsigned char seed[MBEDTLS_CTR_DRBG_MAX_SEED_INPUT];
 668              		.loc 1 323 0
 669              		.cfi_startproc
 670              		@ args = 0, pretend = 0, frame = 384
 671              		@ frame_needed = 0, uses_anonymous_args = 0
 672              	.LVL88:
 673 0000 F0402DE9 		push	{r4, r5, r6, r7, lr}
 674              		.cfi_def_cfa_offset 20
 675              		.cfi_offset 4, -20
 676              		.cfi_offset 5, -16
 677              		.cfi_offset 6, -12
 678              		.cfi_offset 7, -8
 679              		.cfi_offset 14, -4
 680 0004 61DF4DE2 		sub	sp, sp, #388
 681              		.cfi_def_cfa_offset 408
 328:D:/Work/DeviceTester/amazon-freertos/lib/third_party/mbedtls/library\ctr_drbg.c ****         len > MBEDTLS_CTR_DRBG_MAX_SEED_INPUT - ctx->entropy_len )
 682              		.loc 1 328 0
 683 0008 186090E5 		ldr	r6, [r0, #24]
 684 000c 060D56E3 		cmp	r6, #384
 685 0010 2800008A 		bhi	.L59
 329:D:/Work/DeviceTester/amazon-freertos/lib/third_party/mbedtls/library\ctr_drbg.c ****         return( MBEDTLS_ERR_CTR_DRBG_INPUT_TOO_BIG );
 686              		.loc 1 329 0 discriminator 1
 687 0014 063D66E2 		rsb	r3, r6, #384
 328:D:/Work/DeviceTester/amazon-freertos/lib/third_party/mbedtls/library\ctr_drbg.c ****         len > MBEDTLS_CTR_DRBG_MAX_SEED_INPUT - ctx->entropy_len )
 688              		.loc 1 328 0 discriminator 1
 689 0018 020053E1 		cmp	r3, r2
 690 001c 2500003A 		bcc	.L59
 691 0020 0040A0E1 		mov	r4, r0
 692 0024 0250A0E1 		mov	r5, r2
 693 0028 0170A0E1 		mov	r7, r1
 332:D:/Work/DeviceTester/amazon-freertos/lib/third_party/mbedtls/library\ctr_drbg.c **** 
 694              		.loc 1 332 0
 695 002c 062DA0E3 		mov	r2, #384
 696              	.LVL89:
 697 0030 0010A0E3 		mov	r1, #0
 698              	.LVL90:
 699 0034 0D00A0E1 		mov	r0, sp
 700              	.LVL91:
 701 0038 FEFFFFEB 		bl	memset
 702              	.LVL92:
 337:D:/Work/DeviceTester/amazon-freertos/lib/third_party/mbedtls/library\ctr_drbg.c ****                              ctx->entropy_len ) )
 703              		.loc 1 337 0
 704 003c 383194E5 		ldr	r3, [r4, #312]
 705 0040 0620A0E1 		mov	r2, r6
 706 0044 0D10A0E1 		mov	r1, sp
 707 0048 3C0194E5 		ldr	r0, [r4, #316]
 708 004c 33FF2FE1 		blx	r3
 709              	.LVL93:
 710 0050 000050E3 		cmp	r0, #0
 340:D:/Work/DeviceTester/amazon-freertos/lib/third_party/mbedtls/library\ctr_drbg.c ****     }
 711              		.loc 1 340 0
 712 0054 3300E013 		mvnne	r0, #51
 337:D:/Work/DeviceTester/amazon-freertos/lib/third_party/mbedtls/library\ctr_drbg.c ****                              ctx->entropy_len ) )
 713              		.loc 1 337 0
 714 0058 1400001A 		bne	.L55
 348:D:/Work/DeviceTester/amazon-freertos/lib/third_party/mbedtls/library\ctr_drbg.c ****     {
 715              		.loc 1 348 0
 716 005c 000057E3 		cmp	r7, #0
 717 0060 00005513 		cmpne	r5, #0
 343:D:/Work/DeviceTester/amazon-freertos/lib/third_party/mbedtls/library\ctr_drbg.c **** 
 718              		.loc 1 343 0
 719 0064 186094E5 		ldr	r6, [r4, #24]
 720              	.LVL94:
 348:D:/Work/DeviceTester/amazon-freertos/lib/third_party/mbedtls/library\ctr_drbg.c ****     {
 721              		.loc 1 348 0
 722 0068 0400000A 		beq	.L57
 350:D:/Work/DeviceTester/amazon-freertos/lib/third_party/mbedtls/library\ctr_drbg.c ****         seedlen += len;
 723              		.loc 1 350 0
 724 006c 06008DE0 		add	r0, sp, r6
 351:D:/Work/DeviceTester/amazon-freertos/lib/third_party/mbedtls/library\ctr_drbg.c ****     }
 725              		.loc 1 351 0
 726 0070 056086E0 		add	r6, r6, r5
 727              	.LVL95:
 350:D:/Work/DeviceTester/amazon-freertos/lib/third_party/mbedtls/library\ctr_drbg.c ****         seedlen += len;
 728              		.loc 1 350 0
 729 0074 0520A0E1 		mov	r2, r5
 730 0078 0710A0E1 		mov	r1, r7
 731 007c FEFFFFEB 		bl	memcpy
 732              	.LVL96:
 733              	.L57:
 357:D:/Work/DeviceTester/amazon-freertos/lib/third_party/mbedtls/library\ctr_drbg.c ****     {
 734              		.loc 1 357 0
 735 0080 0620A0E1 		mov	r2, r6
 736 0084 0D10A0E1 		mov	r1, sp
 737 0088 0D00A0E1 		mov	r0, sp
 738 008c FEFFFFEB 		bl	block_cipher_df
 739              	.LVL97:
 740 0090 000050E3 		cmp	r0, #0
 741 0094 0500001A 		bne	.L55
 365:D:/Work/DeviceTester/amazon-freertos/lib/third_party/mbedtls/library\ctr_drbg.c ****     {
 742              		.loc 1 365 0
 743 0098 0D10A0E1 		mov	r1, sp
 744 009c 0400A0E1 		mov	r0, r4
 745              	.LVL98:
 746 00a0 FEFFFFEB 		bl	ctr_drbg_update_internal
 747              	.LVL99:
 748 00a4 000050E3 		cmp	r0, #0
 369:D:/Work/DeviceTester/amazon-freertos/lib/third_party/mbedtls/library\ctr_drbg.c **** 
 749              		.loc 1 369 0
 750 00a8 0130A003 		moveq	r3, #1
 751 00ac 10308405 		streq	r3, [r4, #16]
 752              	.LVL100:
 753              	.L55:
 372:D:/Work/DeviceTester/amazon-freertos/lib/third_party/mbedtls/library\ctr_drbg.c **** 
 754              		.loc 1 372 0
 755 00b0 61DF8DE2 		add	sp, sp, #388
 756              		.cfi_remember_state
 757              		.cfi_def_cfa_offset 20
 758              		@ sp needed
 759 00b4 F080BDE8 		pop	{r4, r5, r6, r7, pc}
 760              	.LVL101:
 761              	.L59:
 762              		.cfi_restore_state
 330:D:/Work/DeviceTester/amazon-freertos/lib/third_party/mbedtls/library\ctr_drbg.c **** 
 763              		.loc 1 330 0
 764 00b8 3700E0E3 		mvn	r0, #55
 765              	.LVL102:
 766 00bc FBFFFFEA 		b	.L55
 767              		.cfi_endproc
 768              	.LFE11:
 770              		.section	.text.mbedtls_ctr_drbg_seed_entropy_len,"ax",%progbits
 771              		.align	2
 772              		.global	mbedtls_ctr_drbg_seed_entropy_len
 773              		.syntax unified
 774              		.arm
 775              		.fpu neon
 777              	mbedtls_ctr_drbg_seed_entropy_len:
 778              	.LFB2:
  76:D:/Work/DeviceTester/amazon-freertos/lib/third_party/mbedtls/library\ctr_drbg.c ****     int ret;
 779              		.loc 1 76 0
 780              		.cfi_startproc
 781              		@ args = 8, pretend = 0, frame = 32
 782              		@ frame_needed = 0, uses_anonymous_args = 0
 783              	.LVL103:
 784 0000 F0412DE9 		push	{r4, r5, r6, r7, r8, lr}
 785              		.cfi_def_cfa_offset 24
 786              		.cfi_offset 4, -24
 787              		.cfi_offset 5, -20
 788              		.cfi_offset 6, -16
 789              		.cfi_offset 7, -12
 790              		.cfi_offset 8, -8
 791              		.cfi_offset 14, -4
 792 0004 0040A0E1 		mov	r4, r0
 793 0008 20D04DE2 		sub	sp, sp, #32
 794              		.cfi_def_cfa_offset 56
  76:D:/Work/DeviceTester/amazon-freertos/lib/third_party/mbedtls/library\ctr_drbg.c ****     int ret;
 795              		.loc 1 76 0
 796 000c 0180A0E1 		mov	r8, r1
 797 0010 0270A0E1 		mov	r7, r2
  80:D:/Work/DeviceTester/amazon-freertos/lib/third_party/mbedtls/library\ctr_drbg.c **** 
 798              		.loc 1 80 0
 799 0014 0010A0E3 		mov	r1, #0
 800              	.LVL104:
 801 0018 2020A0E3 		mov	r2, #32
 802              	.LVL105:
  82:D:/Work/DeviceTester/amazon-freertos/lib/third_party/mbedtls/library\ctr_drbg.c **** 
 803              		.loc 1 82 0
 804 001c 205084E2 		add	r5, r4, #32
  80:D:/Work/DeviceTester/amazon-freertos/lib/third_party/mbedtls/library\ctr_drbg.c **** 
 805              		.loc 1 80 0
 806 0020 0D00A0E1 		mov	r0, sp
 807              	.LVL106:
  76:D:/Work/DeviceTester/amazon-freertos/lib/third_party/mbedtls/library\ctr_drbg.c ****     int ret;
 808              		.loc 1 76 0
 809 0024 0360A0E1 		mov	r6, r3
  80:D:/Work/DeviceTester/amazon-freertos/lib/third_party/mbedtls/library\ctr_drbg.c **** 
 810              		.loc 1 80 0
 811 0028 FEFFFFEB 		bl	memset
 812              	.LVL107:
  82:D:/Work/DeviceTester/amazon-freertos/lib/third_party/mbedtls/library\ctr_drbg.c **** 
 813              		.loc 1 82 0
 814 002c 0500A0E1 		mov	r0, r5
 815 0030 FEFFFFEB 		bl	mbedtls_aes_init
 816              	.LVL108:
  87:D:/Work/DeviceTester/amazon-freertos/lib/third_party/mbedtls/library\ctr_drbg.c ****     ctx->reseed_interval = MBEDTLS_CTR_DRBG_RESEED_INTERVAL;
 817              		.loc 1 87 0
 818 0034 3C309DE5 		ldr	r3, [sp, #60]
  93:D:/Work/DeviceTester/amazon-freertos/lib/third_party/mbedtls/library\ctr_drbg.c ****     {
 819              		.loc 1 93 0
 820 0038 012CA0E3 		mov	r2, #256
  84:D:/Work/DeviceTester/amazon-freertos/lib/third_party/mbedtls/library\ctr_drbg.c ****     ctx->p_entropy = p_entropy;
 821              		.loc 1 84 0
 822 003c 388184E5 		str	r8, [r4, #312]
  93:D:/Work/DeviceTester/amazon-freertos/lib/third_party/mbedtls/library\ctr_drbg.c ****     {
 823              		.loc 1 93 0
 824 0040 0D10A0E1 		mov	r1, sp
  85:D:/Work/DeviceTester/amazon-freertos/lib/third_party/mbedtls/library\ctr_drbg.c **** 
 825              		.loc 1 85 0
 826 0044 3C7184E5 		str	r7, [r4, #316]
  93:D:/Work/DeviceTester/amazon-freertos/lib/third_party/mbedtls/library\ctr_drbg.c ****     {
 827              		.loc 1 93 0
 828 0048 0500A0E1 		mov	r0, r5
  87:D:/Work/DeviceTester/amazon-freertos/lib/third_party/mbedtls/library\ctr_drbg.c ****     ctx->reseed_interval = MBEDTLS_CTR_DRBG_RESEED_INTERVAL;
 829              		.loc 1 87 0
 830 004c 183084E5 		str	r3, [r4, #24]
  88:D:/Work/DeviceTester/amazon-freertos/lib/third_party/mbedtls/library\ctr_drbg.c **** 
 831              		.loc 1 88 0
 832 0050 103702E3 		movw	r3, #10000
 833 0054 1C3084E5 		str	r3, [r4, #28]
  93:D:/Work/DeviceTester/amazon-freertos/lib/third_party/mbedtls/library\ctr_drbg.c ****     {
 834              		.loc 1 93 0
 835 0058 FEFFFFEB 		bl	mbedtls_aes_setkey_enc
 836              	.LVL109:
 837 005c 000050E3 		cmp	r0, #0
 838 0060 0300001A 		bne	.L65
 839              	.LVL110:
 840              	.LBB6:
 841              	.LBB7:
  98:D:/Work/DeviceTester/amazon-freertos/lib/third_party/mbedtls/library\ctr_drbg.c ****     {
 842              		.loc 1 98 0
 843 0064 38209DE5 		ldr	r2, [sp, #56]
 844 0068 0610A0E1 		mov	r1, r6
 845 006c 0400A0E1 		mov	r0, r4
 846              	.LVL111:
 847 0070 FEFFFFEB 		bl	mbedtls_ctr_drbg_reseed
 848              	.LVL112:
 849              	.L65:
 850              	.LBE7:
 851              	.LBE6:
 103:D:/Work/DeviceTester/amazon-freertos/lib/third_party/mbedtls/library\ctr_drbg.c **** 
 852              		.loc 1 103 0
 853 0074 20D08DE2 		add	sp, sp, #32
 854              		.cfi_def_cfa_offset 24
 855              		@ sp needed
 856 0078 F081BDE8 		pop	{r4, r5, r6, r7, r8, pc}
 857              		.cfi_endproc
 858              	.LFE2:
 860              		.section	.text.mbedtls_ctr_drbg_seed,"ax",%progbits
 861              		.align	2
 862              		.global	mbedtls_ctr_drbg_seed
 863              		.syntax unified
 864              		.arm
 865              		.fpu neon
 867              	mbedtls_ctr_drbg_seed:
 868              	.LFB3:
 110:D:/Work/DeviceTester/amazon-freertos/lib/third_party/mbedtls/library\ctr_drbg.c ****     return( mbedtls_ctr_drbg_seed_entropy_len( ctx, f_entropy, p_entropy, custom, len,
 869              		.loc 1 110 0
 870              		.cfi_startproc
 871              		@ args = 4, pretend = 0, frame = 0
 872              		@ frame_needed = 0, uses_anonymous_args = 0
 873              	.LVL113:
 874 0000 07402DE9 		push	{r0, r1, r2, lr}
 875              		.cfi_def_cfa_offset 16
 876              		.cfi_offset 14, -4
 111:D:/Work/DeviceTester/amazon-freertos/lib/third_party/mbedtls/library\ctr_drbg.c ****                                        MBEDTLS_CTR_DRBG_ENTROPY_LEN ) );
 877              		.loc 1 111 0
 878 0004 20C0A0E3 		mov	ip, #32
 879 0008 04C08DE5 		str	ip, [sp, #4]
 880 000c 10C09DE5 		ldr	ip, [sp, #16]
 881 0010 00C08DE5 		str	ip, [sp]
 882 0014 FEFFFFEB 		bl	mbedtls_ctr_drbg_seed_entropy_len
 883              	.LVL114:
 113:D:/Work/DeviceTester/amazon-freertos/lib/third_party/mbedtls/library\ctr_drbg.c **** 
 884              		.loc 1 113 0
 885 0018 0CD08DE2 		add	sp, sp, #12
 886              		.cfi_def_cfa_offset 4
 887              		@ sp needed
 888 001c 04F09DE4 		ldr	pc, [sp], #4
 889              		.cfi_endproc
 890              	.LFE3:
 892              		.section	.text.mbedtls_ctr_drbg_random_with_add,"ax",%progbits
 893              		.align	2
 894              		.global	mbedtls_ctr_drbg_random_with_add
 895              		.syntax unified
 896              		.arm
 897              		.fpu neon
 899              	mbedtls_ctr_drbg_random_with_add:
 900              	.LFB12:
 377:D:/Work/DeviceTester/amazon-freertos/lib/third_party/mbedtls/library\ctr_drbg.c ****     int ret = 0;
 901              		.loc 1 377 0
 902              		.cfi_startproc
 903              		@ args = 4, pretend = 0, frame = 64
 904              		@ frame_needed = 0, uses_anonymous_args = 0
 905              	.LVL115:
 386:D:/Work/DeviceTester/amazon-freertos/lib/third_party/mbedtls/library\ctr_drbg.c ****         return( MBEDTLS_ERR_CTR_DRBG_REQUEST_TOO_BIG );
 906              		.loc 1 386 0
 907 0000 010B52E3 		cmp	r2, #1024
 377:D:/Work/DeviceTester/amazon-freertos/lib/third_party/mbedtls/library\ctr_drbg.c ****     int ret = 0;
 908              		.loc 1 377 0
 909 0004 F0412DE9 		push	{r4, r5, r6, r7, r8, lr}
 910              		.cfi_def_cfa_offset 24
 911              		.cfi_offset 4, -24
 912              		.cfi_offset 5, -20
 913              		.cfi_offset 6, -16
 914              		.cfi_offset 7, -12
 915              		.cfi_offset 8, -8
 916              		.cfi_offset 14, -4
 917 0008 40D04DE2 		sub	sp, sp, #64
 918              		.cfi_def_cfa_offset 88
 387:D:/Work/DeviceTester/amazon-freertos/lib/third_party/mbedtls/library\ctr_drbg.c **** 
 919              		.loc 1 387 0
 920 000c 3500E083 		mvnhi	r0, #53
 921              	.LVL116:
 377:D:/Work/DeviceTester/amazon-freertos/lib/third_party/mbedtls/library\ctr_drbg.c ****     int ret = 0;
 922              		.loc 1 377 0
 923 0010 58609DE5 		ldr	r6, [sp, #88]
 386:D:/Work/DeviceTester/amazon-freertos/lib/third_party/mbedtls/library\ctr_drbg.c ****         return( MBEDTLS_ERR_CTR_DRBG_REQUEST_TOO_BIG );
 924              		.loc 1 386 0
 925 0014 4C00008A 		bhi	.L70
 389:D:/Work/DeviceTester/amazon-freertos/lib/third_party/mbedtls/library\ctr_drbg.c ****         return( MBEDTLS_ERR_CTR_DRBG_INPUT_TOO_BIG );
 926              		.loc 1 389 0
 927 0018 010C56E3 		cmp	r6, #256
 390:D:/Work/DeviceTester/amazon-freertos/lib/third_party/mbedtls/library\ctr_drbg.c **** 
 928              		.loc 1 390 0
 929 001c 3700E083 		mvnhi	r0, #55
 389:D:/Work/DeviceTester/amazon-freertos/lib/third_party/mbedtls/library\ctr_drbg.c ****         return( MBEDTLS_ERR_CTR_DRBG_INPUT_TOO_BIG );
 930              		.loc 1 389 0
 931 0020 4900008A 		bhi	.L70
 932 0024 0040A0E1 		mov	r4, r0
 933 0028 0170A0E1 		mov	r7, r1
 934 002c 0250A0E1 		mov	r5, r2
 392:D:/Work/DeviceTester/amazon-freertos/lib/third_party/mbedtls/library\ctr_drbg.c **** 
 935              		.loc 1 392 0
 936 0030 0010A0E3 		mov	r1, #0
 937              	.LVL117:
 938 0034 3020A0E3 		mov	r2, #48
 939              	.LVL118:
 940 0038 10008DE2 		add	r0, sp, #16
 941 003c 0380A0E1 		mov	r8, r3
 942 0040 FEFFFFEB 		bl	memset
 943              	.LVL119:
 394:D:/Work/DeviceTester/amazon-freertos/lib/third_party/mbedtls/library\ctr_drbg.c ****         ctx->prediction_resistance )
 944              		.loc 1 394 0
 945 0044 102094E5 		ldr	r2, [r4, #16]
 946 0048 1C3094E5 		ldr	r3, [r4, #28]
 947 004c 030052E1 		cmp	r2, r3
 948 0050 020000CA 		bgt	.L72
 394:D:/Work/DeviceTester/amazon-freertos/lib/third_party/mbedtls/library\ctr_drbg.c ****         ctx->prediction_resistance )
 949              		.loc 1 394 0 is_stmt 0 discriminator 1
 950 0054 143094E5 		ldr	r3, [r4, #20]
 951 0058 000053E3 		cmp	r3, #0
 952 005c 2700000A 		beq	.L73
 953              	.L72:
 397:D:/Work/DeviceTester/amazon-freertos/lib/third_party/mbedtls/library\ctr_drbg.c ****         {
 954              		.loc 1 397 0 is_stmt 1
 955 0060 0620A0E1 		mov	r2, r6
 956 0064 0810A0E1 		mov	r1, r8
 957 0068 0400A0E1 		mov	r0, r4
 958 006c FEFFFFEB 		bl	mbedtls_ctr_drbg_reseed
 959              	.LVL120:
 960              	.L85:
 961 0070 000050E3 		cmp	r0, #0
 962 0074 3400001A 		bne	.L70
 963              	.LVL121:
 964              	.L75:
 428:D:/Work/DeviceTester/amazon-freertos/lib/third_party/mbedtls/library\ctr_drbg.c ****         {
 965              		.loc 1 428 0
 966 0078 206084E2 		add	r6, r4, #32
 967              	.LVL122:
 968              	.L74:
 416:D:/Work/DeviceTester/amazon-freertos/lib/third_party/mbedtls/library\ctr_drbg.c ****     {
 969              		.loc 1 416 0
 970 007c 000055E3 		cmp	r5, #0
 971 0080 2A00000A 		beq	.L77
 972 0084 0F1084E2 		add	r1, r4, #15
 973 0088 1020A0E3 		mov	r2, #16
 974              	.L76:
 975              	.LVL123:
 422:D:/Work/DeviceTester/amazon-freertos/lib/third_party/mbedtls/library\ctr_drbg.c ****                 break;
 976              		.loc 1 422 0
 977 008c 0030D1E5 		ldrb	r3, [r1]	@ zero_extendqisi2
 421:D:/Work/DeviceTester/amazon-freertos/lib/third_party/mbedtls/library\ctr_drbg.c ****             if( ++ctx->counter[i - 1] != 0 )
 978              		.loc 1 421 0
 979 0090 012052E2 		subs	r2, r2, #1
 980              	.LVL124:
 981 0094 0100A013 		movne	r0, #1
 982 0098 0000A003 		moveq	r0, #0
 422:D:/Work/DeviceTester/amazon-freertos/lib/third_party/mbedtls/library\ctr_drbg.c ****                 break;
 983              		.loc 1 422 0
 984 009c 013083E2 		add	r3, r3, #1
 985 00a0 7330EFE6 		uxtb	r3, r3
 986 00a4 013041E4 		strb	r3, [r1], #-1
 987              	.LVL125:
 421:D:/Work/DeviceTester/amazon-freertos/lib/third_party/mbedtls/library\ctr_drbg.c ****             if( ++ctx->counter[i - 1] != 0 )
 988              		.loc 1 421 0
 989 00a8 000053E3 		cmp	r3, #0
 990 00ac 0030A013 		movne	r3, #0
 991 00b0 01300002 		andeq	r3, r0, #1
 992 00b4 000053E3 		cmp	r3, #0
 993 00b8 F3FFFF1A 		bne	.L76
 428:D:/Work/DeviceTester/amazon-freertos/lib/third_party/mbedtls/library\ctr_drbg.c ****         {
 994              		.loc 1 428 0
 995 00bc 0D30A0E1 		mov	r3, sp
 996 00c0 0420A0E1 		mov	r2, r4
 997 00c4 0110A0E3 		mov	r1, #1
 998 00c8 0600A0E1 		mov	r0, r6
 999 00cc FEFFFFEB 		bl	mbedtls_aes_crypt_ecb
 1000              	.LVL126:
 1001 00d0 000050E3 		cmp	r0, #0
 1002 00d4 1C00001A 		bne	.L70
 433:D:/Work/DeviceTester/amazon-freertos/lib/third_party/mbedtls/library\ctr_drbg.c ****                                                        output_len;
 1003              		.loc 1 433 0
 1004 00d8 100055E3 		cmp	r5, #16
 438:D:/Work/DeviceTester/amazon-freertos/lib/third_party/mbedtls/library\ctr_drbg.c ****         p += use_len;
 1005              		.loc 1 438 0
 1006 00dc 0700A0E1 		mov	r0, r7
 1007              	.LVL127:
 433:D:/Work/DeviceTester/amazon-freertos/lib/third_party/mbedtls/library\ctr_drbg.c ****                                                        output_len;
 1008              		.loc 1 433 0
 1009 00e0 0580A031 		movcc	r8, r5
 1010 00e4 1080A023 		movcs	r8, #16
 1011              	.LVL128:
 438:D:/Work/DeviceTester/amazon-freertos/lib/third_party/mbedtls/library\ctr_drbg.c ****         p += use_len;
 1012              		.loc 1 438 0
 1013 00e8 0820A0E1 		mov	r2, r8
 1014 00ec 0D10A0E1 		mov	r1, sp
 1015 00f0 FEFFFFEB 		bl	memcpy
 1016              	.LVL129:
 439:D:/Work/DeviceTester/amazon-freertos/lib/third_party/mbedtls/library\ctr_drbg.c ****         output_len -= use_len;
 1017              		.loc 1 439 0
 1018 00f4 087087E0 		add	r7, r7, r8
 1019              	.LVL130:
 440:D:/Work/DeviceTester/amazon-freertos/lib/third_party/mbedtls/library\ctr_drbg.c ****     }
 1020              		.loc 1 440 0
 1021 00f8 085045E0 		sub	r5, r5, r8
 1022              	.LVL131:
 1023 00fc DEFFFFEA 		b	.L74
 1024              	.LVL132:
 1025              	.L73:
 404:D:/Work/DeviceTester/amazon-freertos/lib/third_party/mbedtls/library\ctr_drbg.c ****     {
 1026              		.loc 1 404 0
 1027 0100 000056E3 		cmp	r6, #0
 1028 0104 DBFFFF0A 		beq	.L75
 406:D:/Work/DeviceTester/amazon-freertos/lib/third_party/mbedtls/library\ctr_drbg.c ****         {
 1029              		.loc 1 406 0
 1030 0108 0620A0E1 		mov	r2, r6
 1031 010c 0810A0E1 		mov	r1, r8
 1032 0110 10008DE2 		add	r0, sp, #16
 1033 0114 FEFFFFEB 		bl	block_cipher_df
 1034              	.LVL133:
 1035 0118 000050E3 		cmp	r0, #0
 1036 011c 0A00001A 		bne	.L70
 410:D:/Work/DeviceTester/amazon-freertos/lib/third_party/mbedtls/library\ctr_drbg.c ****         {
 1037              		.loc 1 410 0
 1038 0120 10108DE2 		add	r1, sp, #16
 1039 0124 0400A0E1 		mov	r0, r4
 1040              	.LVL134:
 1041 0128 FEFFFFEB 		bl	ctr_drbg_update_internal
 1042              	.LVL135:
 1043 012c CFFFFFEA 		b	.L85
 1044              	.LVL136:
 1045              	.L77:
 443:D:/Work/DeviceTester/amazon-freertos/lib/third_party/mbedtls/library\ctr_drbg.c ****     {
 1046              		.loc 1 443 0
 1047 0130 10108DE2 		add	r1, sp, #16
 1048 0134 0400A0E1 		mov	r0, r4
 1049 0138 FEFFFFEB 		bl	ctr_drbg_update_internal
 1050              	.LVL137:
 1051 013c 000050E3 		cmp	r0, #0
 448:D:/Work/DeviceTester/amazon-freertos/lib/third_party/mbedtls/library\ctr_drbg.c **** 
 1052              		.loc 1 448 0
 1053 0140 10309405 		ldreq	r3, [r4, #16]
 1054 0144 01308302 		addeq	r3, r3, #1
 1055 0148 10308405 		streq	r3, [r4, #16]
 1056              	.LVL138:
 1057              	.L70:
 451:D:/Work/DeviceTester/amazon-freertos/lib/third_party/mbedtls/library\ctr_drbg.c **** 
 1058              		.loc 1 451 0
 1059 014c 40D08DE2 		add	sp, sp, #64
 1060              		.cfi_def_cfa_offset 24
 1061              		@ sp needed
 1062 0150 F081BDE8 		pop	{r4, r5, r6, r7, r8, pc}
 1063              		.cfi_endproc
 1064              	.LFE12:
 1066              		.section	.text.mbedtls_ctr_drbg_random,"ax",%progbits
 1067              		.align	2
 1068              		.global	mbedtls_ctr_drbg_random
 1069              		.syntax unified
 1070              		.arm
 1071              		.fpu neon
 1073              	mbedtls_ctr_drbg_random:
 1074              	.LFB13:
 454:D:/Work/DeviceTester/amazon-freertos/lib/third_party/mbedtls/library\ctr_drbg.c ****     int ret;
 1075              		.loc 1 454 0
 1076              		.cfi_startproc
 1077              		@ args = 0, pretend = 0, frame = 0
 1078              		@ frame_needed = 0, uses_anonymous_args = 0
 1079              	.LVL139:
 459:D:/Work/DeviceTester/amazon-freertos/lib/third_party/mbedtls/library\ctr_drbg.c ****         return( ret );
 1080              		.loc 1 459 0
 1081 0000 64309FE5 		ldr	r3, .L90
 454:D:/Work/DeviceTester/amazon-freertos/lib/third_party/mbedtls/library\ctr_drbg.c ****     int ret;
 1082              		.loc 1 454 0
 1083 0004 F3412DE9 		push	{r0, r1, r4, r5, r6, r7, r8, lr}
 1084              		.cfi_def_cfa_offset 32
 1085              		.cfi_offset 4, -24
 1086              		.cfi_offset 5, -20
 1087              		.cfi_offset 6, -16
 1088              		.cfi_offset 7, -12
 1089              		.cfi_offset 8, -8
 1090              		.cfi_offset 14, -4
 459:D:/Work/DeviceTester/amazon-freertos/lib/third_party/mbedtls/library\ctr_drbg.c ****         return( ret );
 1091              		.loc 1 459 0
 1092 0008 055D80E2 		add	r5, r0, #320
 454:D:/Work/DeviceTester/amazon-freertos/lib/third_party/mbedtls/library\ctr_drbg.c ****     int ret;
 1093              		.loc 1 454 0
 1094 000c 0060A0E1 		mov	r6, r0
 459:D:/Work/DeviceTester/amazon-freertos/lib/third_party/mbedtls/library\ctr_drbg.c ****         return( ret );
 1095              		.loc 1 459 0
 1096 0010 0500A0E1 		mov	r0, r5
 1097              	.LVL140:
 454:D:/Work/DeviceTester/amazon-freertos/lib/third_party/mbedtls/library\ctr_drbg.c ****     int ret;
 1098              		.loc 1 454 0
 1099 0014 0170A0E1 		mov	r7, r1
 1100 0018 0280A0E1 		mov	r8, r2
 459:D:/Work/DeviceTester/amazon-freertos/lib/third_party/mbedtls/library\ctr_drbg.c ****         return( ret );
 1101              		.loc 1 459 0
 1102 001c 003093E5 		ldr	r3, [r3]
 1103 0020 33FF2FE1 		blx	r3
 1104              	.LVL141:
 1105 0024 004050E2 		subs	r4, r0, #0
 1106 0028 0C00001A 		bne	.L86
 463:D:/Work/DeviceTester/amazon-freertos/lib/third_party/mbedtls/library\ctr_drbg.c **** 
 1107              		.loc 1 463 0
 1108 002c 0430A0E1 		mov	r3, r4
 1109 0030 00408DE5 		str	r4, [sp]
 1110 0034 0820A0E1 		mov	r2, r8
 1111 0038 0710A0E1 		mov	r1, r7
 1112 003c 0600A0E1 		mov	r0, r6
 1113              	.LVL142:
 1114 0040 FEFFFFEB 		bl	mbedtls_ctr_drbg_random_with_add
 1115              	.LVL143:
 466:D:/Work/DeviceTester/amazon-freertos/lib/third_party/mbedtls/library\ctr_drbg.c ****         return( MBEDTLS_ERR_THREADING_MUTEX_ERROR );
 1116              		.loc 1 466 0
 1117 0044 24309FE5 		ldr	r3, .L90+4
 463:D:/Work/DeviceTester/amazon-freertos/lib/third_party/mbedtls/library\ctr_drbg.c **** 
 1118              		.loc 1 463 0
 1119 0048 0040A0E1 		mov	r4, r0
 1120              	.LVL144:
 466:D:/Work/DeviceTester/amazon-freertos/lib/third_party/mbedtls/library\ctr_drbg.c ****         return( MBEDTLS_ERR_THREADING_MUTEX_ERROR );
 1121              		.loc 1 466 0
 1122 004c 0500A0E1 		mov	r0, r5
 1123              	.LVL145:
 1124 0050 003093E5 		ldr	r3, [r3]
 1125 0054 33FF2FE1 		blx	r3
 1126              	.LVL146:
 1127 0058 000050E3 		cmp	r0, #0
 467:D:/Work/DeviceTester/amazon-freertos/lib/third_party/mbedtls/library\ctr_drbg.c **** #endif
 1128              		.loc 1 467 0
 1129 005c 1D40E013 		mvnne	r4, #29
 1130              	.LVL147:
 1131              	.L86:
 471:D:/Work/DeviceTester/amazon-freertos/lib/third_party/mbedtls/library\ctr_drbg.c **** 
 1132              		.loc 1 471 0
 1133 0060 0400A0E1 		mov	r0, r4
 1134 0064 08D08DE2 		add	sp, sp, #8
 1135              		.cfi_def_cfa_offset 24
 1136              		@ sp needed
 1137 0068 F081BDE8 		pop	{r4, r5, r6, r7, r8, pc}
 1138              	.LVL148:
 1139              	.L91:
 1140              		.align	2
 1141              	.L90:
 1142 006c 00000000 		.word	mbedtls_mutex_lock
 1143 0070 00000000 		.word	mbedtls_mutex_unlock
 1144              		.cfi_endproc
 1145              	.LFE13:
 1147              		.section	.text.mbedtls_ctr_drbg_self_test,"ax",%progbits
 1148              		.align	2
 1149              		.global	mbedtls_ctr_drbg_self_test
 1150              		.syntax unified
 1151              		.arm
 1152              		.fpu neon
 1154              	mbedtls_ctr_drbg_self_test:
 1155              	.LFB15:
 585:D:/Work/DeviceTester/amazon-freertos/lib/third_party/mbedtls/library\ctr_drbg.c **** 
 586:D:/Work/DeviceTester/amazon-freertos/lib/third_party/mbedtls/library\ctr_drbg.c **** #define CHK( c )    if( (c) != 0 )                          \
 587:D:/Work/DeviceTester/amazon-freertos/lib/third_party/mbedtls/library\ctr_drbg.c ****                     {                                       \
 588:D:/Work/DeviceTester/amazon-freertos/lib/third_party/mbedtls/library\ctr_drbg.c ****                         if( verbose != 0 )                  \
 589:D:/Work/DeviceTester/amazon-freertos/lib/third_party/mbedtls/library\ctr_drbg.c ****                             mbedtls_printf( "failed\n" );  \
 590:D:/Work/DeviceTester/amazon-freertos/lib/third_party/mbedtls/library\ctr_drbg.c ****                         return( 1 );                        \
 591:D:/Work/DeviceTester/amazon-freertos/lib/third_party/mbedtls/library\ctr_drbg.c ****                     }
 592:D:/Work/DeviceTester/amazon-freertos/lib/third_party/mbedtls/library\ctr_drbg.c **** 
 593:D:/Work/DeviceTester/amazon-freertos/lib/third_party/mbedtls/library\ctr_drbg.c **** /*
 594:D:/Work/DeviceTester/amazon-freertos/lib/third_party/mbedtls/library\ctr_drbg.c ****  * Checkup routine
 595:D:/Work/DeviceTester/amazon-freertos/lib/third_party/mbedtls/library\ctr_drbg.c ****  */
 596:D:/Work/DeviceTester/amazon-freertos/lib/third_party/mbedtls/library\ctr_drbg.c **** int mbedtls_ctr_drbg_self_test( int verbose )
 597:D:/Work/DeviceTester/amazon-freertos/lib/third_party/mbedtls/library\ctr_drbg.c **** {
 1156              		.loc 1 597 0
 1157              		.cfi_startproc
 1158              		@ args = 0, pretend = 0, frame = 344
 1159              		@ frame_needed = 0, uses_anonymous_args = 0
 1160              	.LVL149:
 1161 0000 70402DE9 		push	{r4, r5, r6, lr}
 1162              		.cfi_def_cfa_offset 16
 1163              		.cfi_offset 4, -16
 1164              		.cfi_offset 5, -12
 1165              		.cfi_offset 6, -8
 1166              		.cfi_offset 14, -4
 1167 0004 16DE4DE2 		sub	sp, sp, #352
 1168              		.cfi_def_cfa_offset 368
 1169              		.loc 1 597 0
 1170 0008 0040A0E1 		mov	r4, r0
 598:D:/Work/DeviceTester/amazon-freertos/lib/third_party/mbedtls/library\ctr_drbg.c ****     mbedtls_ctr_drbg_context ctx;
 599:D:/Work/DeviceTester/amazon-freertos/lib/third_party/mbedtls/library\ctr_drbg.c ****     unsigned char buf[16];
 600:D:/Work/DeviceTester/amazon-freertos/lib/third_party/mbedtls/library\ctr_drbg.c **** 
 601:D:/Work/DeviceTester/amazon-freertos/lib/third_party/mbedtls/library\ctr_drbg.c ****     mbedtls_ctr_drbg_init( &ctx );
 1171              		.loc 1 601 0
 1172 000c 18008DE2 		add	r0, sp, #24
 1173              	.LVL150:
 1174 0010 FEFFFFEB 		bl	mbedtls_ctr_drbg_init
 1175              	.LVL151:
 602:D:/Work/DeviceTester/amazon-freertos/lib/third_party/mbedtls/library\ctr_drbg.c **** 
 603:D:/Work/DeviceTester/amazon-freertos/lib/third_party/mbedtls/library\ctr_drbg.c ****     /*
 604:D:/Work/DeviceTester/amazon-freertos/lib/third_party/mbedtls/library\ctr_drbg.c ****      * Based on a NIST CTR_DRBG test vector (PR = True)
 605:D:/Work/DeviceTester/amazon-freertos/lib/third_party/mbedtls/library\ctr_drbg.c ****      */
 606:D:/Work/DeviceTester/amazon-freertos/lib/third_party/mbedtls/library\ctr_drbg.c ****     if( verbose != 0 )
 1176              		.loc 1 606 0
 1177 0014 000054E3 		cmp	r4, #0
 1178 0018 0100000A 		beq	.L93
 607:D:/Work/DeviceTester/amazon-freertos/lib/third_party/mbedtls/library\ctr_drbg.c ****         mbedtls_printf( "  CTR_DRBG (PR = TRUE) : " );
 1179              		.loc 1 607 0
 1180 001c 88019FE5 		ldr	r0, .L109
 1181 0020 FEFFFFEB 		bl	printf
 1182              	.LVL152:
 1183              	.L93:
 608:D:/Work/DeviceTester/amazon-freertos/lib/third_party/mbedtls/library\ctr_drbg.c **** 
 609:D:/Work/DeviceTester/amazon-freertos/lib/third_party/mbedtls/library\ctr_drbg.c ****     test_offset = 0;
 1184              		.loc 1 609 0
 1185 0024 84519FE5 		ldr	r5, .L109+4
 1186 0028 0030A0E3 		mov	r3, #0
 610:D:/Work/DeviceTester/amazon-freertos/lib/third_party/mbedtls/library\ctr_drbg.c ****     CHK( mbedtls_ctr_drbg_seed_entropy_len( &ctx, ctr_drbg_self_test_entropy,
 1187              		.loc 1 610 0
 1188 002c 1060A0E3 		mov	r6, #16
 1189 0030 7C219FE5 		ldr	r2, .L109+8
 1190 0034 7C119FE5 		ldr	r1, .L109+12
 1191 0038 18008DE2 		add	r0, sp, #24
 609:D:/Work/DeviceTester/amazon-freertos/lib/third_party/mbedtls/library\ctr_drbg.c ****     CHK( mbedtls_ctr_drbg_seed_entropy_len( &ctx, ctr_drbg_self_test_entropy,
 1192              		.loc 1 609 0
 1193 003c 003085E5 		str	r3, [r5]
 1194              		.loc 1 610 0
 1195 0040 2030A0E3 		mov	r3, #32
 1196 0044 04308DE5 		str	r3, [sp, #4]
 1197 0048 00608DE5 		str	r6, [sp]
 1198 004c 68319FE5 		ldr	r3, .L109+16
 1199 0050 FEFFFFEB 		bl	mbedtls_ctr_drbg_seed_entropy_len
 1200              	.LVL153:
 1201 0054 000050E3 		cmp	r0, #0
 1202 0058 0500000A 		beq	.L94
 1203              	.L96:
 1204              		.loc 1 610 0 is_stmt 0 discriminator 1
 1205 005c 000054E3 		cmp	r4, #0
 1206 0060 0100000A 		beq	.L98
 1207              		.loc 1 610 0 discriminator 2
 1208 0064 54019FE5 		ldr	r0, .L109+20
 1209 0068 FEFFFFEB 		bl	puts
 1210              	.LVL154:
 1211              	.L98:
 1212              		.loc 1 610 0
 1213 006c 0140A0E3 		mov	r4, #1
 1214              	.LVL155:
 1215 0070 4A0000EA 		b	.L95
 1216              	.LVL156:
 1217              	.L94:
 1218              	.LBB8:
 1219              	.LBB9:
 129:D:/Work/DeviceTester/amazon-freertos/lib/third_party/mbedtls/library\ctr_drbg.c **** }
 1220              		.loc 1 129 0 is_stmt 1
 1221 0074 0130A0E3 		mov	r3, #1
 1222              	.LBE9:
 1223              	.LBE8:
 611:D:/Work/DeviceTester/amazon-freertos/lib/third_party/mbedtls/library\ctr_drbg.c ****                                 (void *) entropy_source_pr, nonce_pers_pr, 16, 32 ) );
 612:D:/Work/DeviceTester/amazon-freertos/lib/third_party/mbedtls/library\ctr_drbg.c ****     mbedtls_ctr_drbg_set_prediction_resistance( &ctx, MBEDTLS_CTR_DRBG_PR_ON );
 613:D:/Work/DeviceTester/amazon-freertos/lib/third_party/mbedtls/library\ctr_drbg.c ****     CHK( mbedtls_ctr_drbg_random( &ctx, buf, MBEDTLS_CTR_DRBG_BLOCKSIZE ) );
 1224              		.loc 1 613 0
 1225 0078 0620A0E1 		mov	r2, r6
 1226 007c 08108DE2 		add	r1, sp, #8
 1227 0080 18008DE2 		add	r0, sp, #24
 1228              	.LVL157:
 1229              	.LBB11:
 1230              	.LBB10:
 129:D:/Work/DeviceTester/amazon-freertos/lib/third_party/mbedtls/library\ctr_drbg.c **** }
 1231              		.loc 1 129 0
 1232 0084 2C308DE5 		str	r3, [sp, #44]
 1233              	.LVL158:
 1234              	.LBE10:
 1235              	.LBE11:
 1236              		.loc 1 613 0
 1237 0088 FEFFFFEB 		bl	mbedtls_ctr_drbg_random
 1238              	.LVL159:
 1239 008c 000050E3 		cmp	r0, #0
 1240 0090 F1FFFF1A 		bne	.L96
 614:D:/Work/DeviceTester/amazon-freertos/lib/third_party/mbedtls/library\ctr_drbg.c ****     CHK( mbedtls_ctr_drbg_random( &ctx, buf, MBEDTLS_CTR_DRBG_BLOCKSIZE ) );
 1241              		.loc 1 614 0
 1242 0094 0620A0E1 		mov	r2, r6
 1243 0098 08108DE2 		add	r1, sp, #8
 1244 009c 18008DE2 		add	r0, sp, #24
 1245 00a0 FEFFFFEB 		bl	mbedtls_ctr_drbg_random
 1246              	.LVL160:
 1247 00a4 000050E3 		cmp	r0, #0
 1248 00a8 EBFFFF1A 		bne	.L96
 615:D:/Work/DeviceTester/amazon-freertos/lib/third_party/mbedtls/library\ctr_drbg.c ****     CHK( memcmp( buf, result_pr, MBEDTLS_CTR_DRBG_BLOCKSIZE ) );
 1249              		.loc 1 615 0
 1250 00ac 0620A0E1 		mov	r2, r6
 1251 00b0 0C119FE5 		ldr	r1, .L109+24
 1252 00b4 08008DE2 		add	r0, sp, #8
 1253 00b8 FEFFFFEB 		bl	memcmp
 1254              	.LVL161:
 1255 00bc 000050E3 		cmp	r0, #0
 1256 00c0 E5FFFF1A 		bne	.L96
 616:D:/Work/DeviceTester/amazon-freertos/lib/third_party/mbedtls/library\ctr_drbg.c **** 
 617:D:/Work/DeviceTester/amazon-freertos/lib/third_party/mbedtls/library\ctr_drbg.c ****     mbedtls_ctr_drbg_free( &ctx );
 1257              		.loc 1 617 0
 1258 00c4 18008DE2 		add	r0, sp, #24
 1259 00c8 FEFFFFEB 		bl	mbedtls_ctr_drbg_free
 1260              	.LVL162:
 618:D:/Work/DeviceTester/amazon-freertos/lib/third_party/mbedtls/library\ctr_drbg.c **** 
 619:D:/Work/DeviceTester/amazon-freertos/lib/third_party/mbedtls/library\ctr_drbg.c ****     if( verbose != 0 )
 1261              		.loc 1 619 0
 1262 00cc 000054E3 		cmp	r4, #0
 1263 00d0 0300000A 		beq	.L97
 620:D:/Work/DeviceTester/amazon-freertos/lib/third_party/mbedtls/library\ctr_drbg.c ****         mbedtls_printf( "passed\n" );
 1264              		.loc 1 620 0
 1265 00d4 EC009FE5 		ldr	r0, .L109+28
 1266 00d8 FEFFFFEB 		bl	puts
 1267              	.LVL163:
 621:D:/Work/DeviceTester/amazon-freertos/lib/third_party/mbedtls/library\ctr_drbg.c **** 
 622:D:/Work/DeviceTester/amazon-freertos/lib/third_party/mbedtls/library\ctr_drbg.c ****     /*
 623:D:/Work/DeviceTester/amazon-freertos/lib/third_party/mbedtls/library\ctr_drbg.c ****      * Based on a NIST CTR_DRBG test vector (PR = FALSE)
 624:D:/Work/DeviceTester/amazon-freertos/lib/third_party/mbedtls/library\ctr_drbg.c ****      */
 625:D:/Work/DeviceTester/amazon-freertos/lib/third_party/mbedtls/library\ctr_drbg.c ****     if( verbose != 0 )
 626:D:/Work/DeviceTester/amazon-freertos/lib/third_party/mbedtls/library\ctr_drbg.c ****         mbedtls_printf( "  CTR_DRBG (PR = FALSE): " );
 1268              		.loc 1 626 0
 1269 00dc E8009FE5 		ldr	r0, .L109+32
 1270 00e0 FEFFFFEB 		bl	printf
 1271              	.LVL164:
 1272              	.L97:
 627:D:/Work/DeviceTester/amazon-freertos/lib/third_party/mbedtls/library\ctr_drbg.c **** 
 628:D:/Work/DeviceTester/amazon-freertos/lib/third_party/mbedtls/library\ctr_drbg.c ****     mbedtls_ctr_drbg_init( &ctx );
 1273              		.loc 1 628 0
 1274 00e4 18008DE2 		add	r0, sp, #24
 1275 00e8 FEFFFFEB 		bl	mbedtls_ctr_drbg_init
 1276              	.LVL165:
 629:D:/Work/DeviceTester/amazon-freertos/lib/third_party/mbedtls/library\ctr_drbg.c **** 
 630:D:/Work/DeviceTester/amazon-freertos/lib/third_party/mbedtls/library\ctr_drbg.c ****     test_offset = 0;
 1277              		.loc 1 630 0
 1278 00ec 0030A0E3 		mov	r3, #0
 631:D:/Work/DeviceTester/amazon-freertos/lib/third_party/mbedtls/library\ctr_drbg.c ****     CHK( mbedtls_ctr_drbg_seed_entropy_len( &ctx, ctr_drbg_self_test_entropy,
 1279              		.loc 1 631 0
 1280 00f0 D8209FE5 		ldr	r2, .L109+36
 630:D:/Work/DeviceTester/amazon-freertos/lib/third_party/mbedtls/library\ctr_drbg.c ****     CHK( mbedtls_ctr_drbg_seed_entropy_len( &ctx, ctr_drbg_self_test_entropy,
 1281              		.loc 1 630 0
 1282 00f4 003085E5 		str	r3, [r5]
 1283              		.loc 1 631 0
 1284 00f8 2030A0E3 		mov	r3, #32
 1285 00fc 1050A0E3 		mov	r5, #16
 1286 0100 04308DE5 		str	r3, [sp, #4]
 1287 0104 00508DE5 		str	r5, [sp]
 1288 0108 18008DE2 		add	r0, sp, #24
 1289 010c C0309FE5 		ldr	r3, .L109+40
 1290 0110 A0109FE5 		ldr	r1, .L109+12
 1291 0114 FEFFFFEB 		bl	mbedtls_ctr_drbg_seed_entropy_len
 1292              	.LVL166:
 1293 0118 000050E3 		cmp	r0, #0
 1294 011c CEFFFF1A 		bne	.L96
 632:D:/Work/DeviceTester/amazon-freertos/lib/third_party/mbedtls/library\ctr_drbg.c ****                             (void *) entropy_source_nopr, nonce_pers_nopr, 16, 32 ) );
 633:D:/Work/DeviceTester/amazon-freertos/lib/third_party/mbedtls/library\ctr_drbg.c ****     CHK( mbedtls_ctr_drbg_random( &ctx, buf, 16 ) );
 1295              		.loc 1 633 0
 1296 0120 0520A0E1 		mov	r2, r5
 1297 0124 08108DE2 		add	r1, sp, #8
 1298 0128 18008DE2 		add	r0, sp, #24
 1299 012c FEFFFFEB 		bl	mbedtls_ctr_drbg_random
 1300              	.LVL167:
 1301 0130 002050E2 		subs	r2, r0, #0
 1302 0134 C8FFFF1A 		bne	.L96
 634:D:/Work/DeviceTester/amazon-freertos/lib/third_party/mbedtls/library\ctr_drbg.c ****     CHK( mbedtls_ctr_drbg_reseed( &ctx, NULL, 0 ) );
 1303              		.loc 1 634 0
 1304 0138 0210A0E1 		mov	r1, r2
 1305 013c 18008DE2 		add	r0, sp, #24
 1306 0140 FEFFFFEB 		bl	mbedtls_ctr_drbg_reseed
 1307              	.LVL168:
 1308 0144 000050E3 		cmp	r0, #0
 1309 0148 C3FFFF1A 		bne	.L96
 635:D:/Work/DeviceTester/amazon-freertos/lib/third_party/mbedtls/library\ctr_drbg.c ****     CHK( mbedtls_ctr_drbg_random( &ctx, buf, 16 ) );
 1310              		.loc 1 635 0
 1311 014c 0520A0E1 		mov	r2, r5
 1312 0150 08108DE2 		add	r1, sp, #8
 1313 0154 18008DE2 		add	r0, sp, #24
 1314 0158 FEFFFFEB 		bl	mbedtls_ctr_drbg_random
 1315              	.LVL169:
 1316 015c 000050E3 		cmp	r0, #0
 1317 0160 BDFFFF1A 		bne	.L96
 636:D:/Work/DeviceTester/amazon-freertos/lib/third_party/mbedtls/library\ctr_drbg.c ****     CHK( memcmp( buf, result_nopr, 16 ) );
 1318              		.loc 1 636 0
 1319 0164 0520A0E1 		mov	r2, r5
 1320 0168 68109FE5 		ldr	r1, .L109+44
 1321 016c 08008DE2 		add	r0, sp, #8
 1322 0170 FEFFFFEB 		bl	memcmp
 1323              	.LVL170:
 1324 0174 005050E2 		subs	r5, r0, #0
 1325 0178 B7FFFF1A 		bne	.L96
 637:D:/Work/DeviceTester/amazon-freertos/lib/third_party/mbedtls/library\ctr_drbg.c **** 
 638:D:/Work/DeviceTester/amazon-freertos/lib/third_party/mbedtls/library\ctr_drbg.c ****     mbedtls_ctr_drbg_free( &ctx );
 1326              		.loc 1 638 0
 1327 017c 18008DE2 		add	r0, sp, #24
 1328 0180 FEFFFFEB 		bl	mbedtls_ctr_drbg_free
 1329              	.LVL171:
 639:D:/Work/DeviceTester/amazon-freertos/lib/third_party/mbedtls/library\ctr_drbg.c **** 
 640:D:/Work/DeviceTester/amazon-freertos/lib/third_party/mbedtls/library\ctr_drbg.c ****     if( verbose != 0 )
 1330              		.loc 1 640 0
 1331 0184 000054E3 		cmp	r4, #0
 1332 0188 0400000A 		beq	.L95
 641:D:/Work/DeviceTester/amazon-freertos/lib/third_party/mbedtls/library\ctr_drbg.c ****         mbedtls_printf( "passed\n" );
 1333              		.loc 1 641 0
 1334 018c 34009FE5 		ldr	r0, .L109+28
 642:D:/Work/DeviceTester/amazon-freertos/lib/third_party/mbedtls/library\ctr_drbg.c **** 
 643:D:/Work/DeviceTester/amazon-freertos/lib/third_party/mbedtls/library\ctr_drbg.c ****     if( verbose != 0 )
 644:D:/Work/DeviceTester/amazon-freertos/lib/third_party/mbedtls/library\ctr_drbg.c ****             mbedtls_printf( "\n" );
 645:D:/Work/DeviceTester/amazon-freertos/lib/third_party/mbedtls/library\ctr_drbg.c **** 
 646:D:/Work/DeviceTester/amazon-freertos/lib/third_party/mbedtls/library\ctr_drbg.c ****     return( 0 );
 1335              		.loc 1 646 0
 1336 0190 0540A0E1 		mov	r4, r5
 1337              	.LVL172:
 641:D:/Work/DeviceTester/amazon-freertos/lib/third_party/mbedtls/library\ctr_drbg.c ****         mbedtls_printf( "passed\n" );
 1338              		.loc 1 641 0
 1339 0194 FEFFFFEB 		bl	puts
 1340              	.LVL173:
 644:D:/Work/DeviceTester/amazon-freertos/lib/third_party/mbedtls/library\ctr_drbg.c **** 
 1341              		.loc 1 644 0
 1342 0198 0A00A0E3 		mov	r0, #10
 1343 019c FEFFFFEB 		bl	putchar
 1344              	.LVL174:
 1345              	.L95:
 647:D:/Work/DeviceTester/amazon-freertos/lib/third_party/mbedtls/library\ctr_drbg.c **** }
 1346              		.loc 1 647 0
 1347 01a0 0400A0E1 		mov	r0, r4
 1348 01a4 16DE8DE2 		add	sp, sp, #352
 1349              		.cfi_def_cfa_offset 16
 1350              		@ sp needed
 1351 01a8 7080BDE8 		pop	{r4, r5, r6, pc}
 1352              	.L110:
 1353              		.align	2
 1354              	.L109:
 1355 01ac 00000000 		.word	.LC0
 1356 01b0 00000000 		.word	.LANCHOR0
 1357 01b4 00000000 		.word	.LANCHOR2
 1358 01b8 00000000 		.word	ctr_drbg_self_test_entropy
 1359 01bc 00000000 		.word	.LANCHOR1
 1360 01c0 1A000000 		.word	.LC1
 1361 01c4 00000000 		.word	.LANCHOR3
 1362 01c8 21000000 		.word	.LC2
 1363 01cc 28000000 		.word	.LC3
 1364 01d0 00000000 		.word	.LANCHOR5
 1365 01d4 00000000 		.word	.LANCHOR4
 1366 01d8 00000000 		.word	.LANCHOR6
 1367              		.cfi_endproc
 1368              	.LFE15:
 1370              		.section	.bss.test_offset,"aw",%nobits
 1371              		.align	2
 1372              		.set	.LANCHOR0,. + 0
 1375              	test_offset:
 1376 0000 00000000 		.space	4
 1377              		.section	.rodata.entropy_source_nopr,"a",%progbits
 1378              		.set	.LANCHOR5,. + 0
 1381              	entropy_source_nopr:
 1382 0000 5A       		.byte	90
 1383 0001 19       		.byte	25
 1384 0002 4D       		.byte	77
 1385 0003 5E       		.byte	94
 1386 0004 2B       		.byte	43
 1387 0005 31       		.byte	49
 1388 0006 58       		.byte	88
 1389 0007 14       		.byte	20
 1390 0008 54       		.byte	84
 1391 0009 DE       		.byte	-34
 1392 000a F6       		.byte	-10
 1393 000b 75       		.byte	117
 1394 000c FB       		.byte	-5
 1395 000d 79       		.byte	121
 1396 000e 58       		.byte	88
 1397 000f FE       		.byte	-2
 1398 0010 C7       		.byte	-57
 1399 0011 DB       		.byte	-37
 1400 0012 87       		.byte	-121
 1401 0013 3E       		.byte	62
 1402 0014 56       		.byte	86
 1403 0015 89       		.byte	-119
 1404 0016 FC       		.byte	-4
 1405 0017 9D       		.byte	-99
 1406 0018 03       		.byte	3
 1407 0019 21       		.byte	33
 1408 001a 7C       		.byte	124
 1409 001b 68       		.byte	104
 1410 001c D8       		.byte	-40
 1411 001d 03       		.byte	3
 1412 001e 38       		.byte	56
 1413 001f 20       		.byte	32
 1414 0020 F9       		.byte	-7
 1415 0021 E6       		.byte	-26
 1416 0022 5E       		.byte	94
 1417 0023 04       		.byte	4
 1418 0024 D8       		.byte	-40
 1419 0025 56       		.byte	86
 1420 0026 F3       		.byte	-13
 1421 0027 A9       		.byte	-87
 1422 0028 C4       		.byte	-60
 1423 0029 4A       		.byte	74
 1424 002a 4C       		.byte	76
 1425 002b BD       		.byte	-67
 1426 002c C1       		.byte	-63
 1427 002d D0       		.byte	-48
 1428 002e 08       		.byte	8
 1429 002f 46       		.byte	70
 1430 0030 F5       		.byte	-11
 1431 0031 98       		.byte	-104
 1432 0032 3D       		.byte	61
 1433 0033 77       		.byte	119
 1434 0034 1C       		.byte	28
 1435 0035 1B       		.byte	27
 1436 0036 13       		.byte	19
 1437 0037 7E       		.byte	126
 1438 0038 4E       		.byte	78
 1439 0039 0F       		.byte	15
 1440 003a 9D       		.byte	-99
 1441 003b 8E       		.byte	-114
 1442 003c F4       		.byte	-12
 1443 003d 09       		.byte	9
 1444 003e F9       		.byte	-7
 1445 003f 2E       		.byte	46
 1446              		.section	.rodata.entropy_source_pr,"a",%progbits
 1447              		.set	.LANCHOR2,. + 0
 1450              	entropy_source_pr:
 1451 0000 C1       		.byte	-63
 1452 0001 80       		.byte	-128
 1453 0002 81       		.byte	-127
 1454 0003 A6       		.byte	-90
 1455 0004 5D       		.byte	93
 1456 0005 44       		.byte	68
 1457 0006 02       		.byte	2
 1458 0007 16       		.byte	22
 1459 0008 19       		.byte	25
 1460 0009 B3       		.byte	-77
 1461 000a F1       		.byte	-15
 1462 000b 80       		.byte	-128
 1463 000c B1       		.byte	-79
 1464 000d C9       		.byte	-55
 1465 000e 20       		.byte	32
 1466 000f 02       		.byte	2
 1467 0010 6A       		.byte	106
 1468 0011 54       		.byte	84
 1469 0012 6F       		.byte	111
 1470 0013 0C       		.byte	12
 1471 0014 70       		.byte	112
 1472 0015 81       		.byte	-127
 1473 0016 49       		.byte	73
 1474 0017 8B       		.byte	-117
 1475 0018 6E       		.byte	110
 1476 0019 A6       		.byte	-90
 1477 001a 62       		.byte	98
 1478 001b 52       		.byte	82
 1479 001c 6D       		.byte	109
 1480 001d 51       		.byte	81
 1481 001e B1       		.byte	-79
 1482 001f CB       		.byte	-53
 1483 0020 58       		.byte	88
 1484 0021 3B       		.byte	59
 1485 0022 FA       		.byte	-6
 1486 0023 D5       		.byte	-43
 1487 0024 37       		.byte	55
 1488 0025 5F       		.byte	95
 1489 0026 FB       		.byte	-5
 1490 0027 C9       		.byte	-55
 1491 0028 FF       		.byte	-1
 1492 0029 46       		.byte	70
 1493 002a D2       		.byte	-46
 1494 002b 19       		.byte	25
 1495 002c C7       		.byte	-57
 1496 002d 22       		.byte	34
 1497 002e 3E       		.byte	62
 1498 002f 95       		.byte	-107
 1499 0030 45       		.byte	69
 1500 0031 9D       		.byte	-99
 1501 0032 82       		.byte	-126
 1502 0033 E1       		.byte	-31
 1503 0034 E7       		.byte	-25
 1504 0035 22       		.byte	34
 1505 0036 9F       		.byte	-97
 1506 0037 63       		.byte	99
 1507 0038 31       		.byte	49
 1508 0039 69       		.byte	105
 1509 003a D2       		.byte	-46
 1510 003b 6B       		.byte	107
 1511 003c 57       		.byte	87
 1512 003d 47       		.byte	71
 1513 003e 4F       		.byte	79
 1514 003f A3       		.byte	-93
 1515 0040 37       		.byte	55
 1516 0041 C9       		.byte	-55
 1517 0042 98       		.byte	-104
 1518 0043 1C       		.byte	28
 1519 0044 0B       		.byte	11
 1520 0045 FB       		.byte	-5
 1521 0046 91       		.byte	-111
 1522 0047 31       		.byte	49
 1523 0048 4D       		.byte	77
 1524 0049 55       		.byte	85
 1525 004a B9       		.byte	-71
 1526 004b E9       		.byte	-23
 1527 004c 1C       		.byte	28
 1528 004d 5A       		.byte	90
 1529 004e 5E       		.byte	94
 1530 004f E4       		.byte	-28
 1531 0050 93       		.byte	-109
 1532 0051 92       		.byte	-110
 1533 0052 CF       		.byte	-49
 1534 0053 C5       		.byte	-59
 1535 0054 23       		.byte	35
 1536 0055 12       		.byte	18
 1537 0056 D5       		.byte	-43
 1538 0057 56       		.byte	86
 1539 0058 2C       		.byte	44
 1540 0059 4A       		.byte	74
 1541 005a 6E       		.byte	110
 1542 005b FF       		.byte	-1
 1543 005c DC       		.byte	-36
 1544 005d 10       		.byte	16
 1545 005e D0       		.byte	-48
 1546 005f 68       		.byte	104
 1547              		.section	.rodata.mbedtls_ctr_drbg_self_test.str1.1,"aMS",%progbits,1
 1548              	.LC0:
 1549 0000 20204354 		.ascii	"  CTR_DRBG (PR = TRUE) : \000"
 1549      525F4452 
 1549      42472028 
 1549      5052203D 
 1549      20545255 
 1550              	.LC1:
 1551 001a 6661696C 		.ascii	"failed\000"
 1551      656400
 1552              	.LC2:
 1553 0021 70617373 		.ascii	"passed\000"
 1553      656400
 1554              	.LC3:
 1555 0028 20204354 		.ascii	"  CTR_DRBG (PR = FALSE): \000"
 1555      525F4452 
 1555      42472028 
 1555      5052203D 
 1555      2046414C 
 1556              		.section	.rodata.nonce_pers_nopr,"a",%progbits
 1557              		.set	.LANCHOR4,. + 0
 1560              	nonce_pers_nopr:
 1561 0000 1B       		.byte	27
 1562 0001 54       		.byte	84
 1563 0002 B8       		.byte	-72
 1564 0003 FF       		.byte	-1
 1565 0004 06       		.byte	6
 1566 0005 42       		.byte	66
 1567 0006 BF       		.byte	-65
 1568 0007 F5       		.byte	-11
 1569 0008 21       		.byte	33
 1570 0009 F1       		.byte	-15
 1571 000a 5C       		.byte	92
 1572 000b 1C       		.byte	28
 1573 000c 0B       		.byte	11
 1574 000d 66       		.byte	102
 1575 000e 5F       		.byte	95
 1576 000f 3F       		.byte	63
 1577              		.section	.rodata.nonce_pers_pr,"a",%progbits
 1578              		.set	.LANCHOR1,. + 0
 1581              	nonce_pers_pr:
 1582 0000 D2       		.byte	-46
 1583 0001 54       		.byte	84
 1584 0002 FC       		.byte	-4
 1585 0003 FF       		.byte	-1
 1586 0004 02       		.byte	2
 1587 0005 1E       		.byte	30
 1588 0006 69       		.byte	105
 1589 0007 D2       		.byte	-46
 1590 0008 29       		.byte	41
 1591 0009 C9       		.byte	-55
 1592 000a CF       		.byte	-49
 1593 000b AD       		.byte	-83
 1594 000c 85       		.byte	-123
 1595 000d FA       		.byte	-6
 1596 000e 48       		.byte	72
 1597 000f 6C       		.byte	108
 1598              		.section	.rodata.result_nopr,"a",%progbits
 1599              		.set	.LANCHOR6,. + 0
 1602              	result_nopr:
 1603 0000 A0       		.byte	-96
 1604 0001 54       		.byte	84
 1605 0002 30       		.byte	48
 1606 0003 3D       		.byte	61
 1607 0004 8A       		.byte	-118
 1608 0005 7E       		.byte	126
 1609 0006 A9       		.byte	-87
 1610 0007 88       		.byte	-120
 1611 0008 9D       		.byte	-99
 1612 0009 90       		.byte	-112
 1613 000a 3E       		.byte	62
 1614 000b 07       		.byte	7
 1615 000c 7C       		.byte	124
 1616 000d 6F       		.byte	111
 1617 000e 21       		.byte	33
 1618 000f 8F       		.byte	-113
 1619              		.section	.rodata.result_pr,"a",%progbits
 1620              		.set	.LANCHOR3,. + 0
 1623              	result_pr:
 1624 0000 34       		.byte	52
 1625 0001 01       		.byte	1
 1626 0002 16       		.byte	22
 1627 0003 56       		.byte	86
 1628 0004 B4       		.byte	-76
 1629 0005 29       		.byte	41
 1630 0006 00       		.byte	0
 1631 0007 8F       		.byte	-113
 1632 0008 35       		.byte	53
 1633 0009 63       		.byte	99
 1634 000a EC       		.byte	-20
 1635 000b B5       		.byte	-75
 1636 000c F2       		.byte	-14
 1637 000d 59       		.byte	89
 1638 000e 07       		.byte	7
 1639 000f 23       		.byte	35
 1640              		.text
 1641              	.Letext0:
 1642              		.file 2 "c:\\program files (x86)\\gnu tools arm embedded\\6 2017-q2-update\\arm-none-eabi\\include
 1643              		.file 3 "c:\\program files (x86)\\gnu tools arm embedded\\6 2017-q2-update\\lib\\gcc\\arm-none-eab
 1644              		.file 4 "c:\\program files (x86)\\gnu tools arm embedded\\6 2017-q2-update\\arm-none-eabi\\include
 1645              		.file 5 "D:\\Work\\DeviceTester\\amazon-freertos\\lib\\third_party\\mbedtls\\include/mbedtls/aes.h
 1646              		.file 6 "c:\\program files (x86)\\gnu tools arm embedded\\6 2017-q2-update\\arm-none-eabi\\include
 1647              		.file 7 "c:\\program files (x86)\\gnu tools arm embedded\\6 2017-q2-update\\arm-none-eabi\\include
 1648              		.file 8 "c:\\program files (x86)\\gnu tools arm embedded\\6 2017-q2-update\\arm-none-eabi\\include
 1649              		.file 9 "c:\\program files (x86)\\gnu tools arm embedded\\6 2017-q2-update\\arm-none-eabi\\include
 1650              		.file 10 "c:\\program files (x86)\\gnu tools arm embedded\\6 2017-q2-update\\arm-none-eabi\\includ
 1651              		.file 11 "c:\\program files (x86)\\gnu tools arm embedded\\6 2017-q2-update\\arm-none-eabi\\includ
 1652              		.file 12 "D:\\Work\\DeviceTester\\amazon-freertos\\lib\\third_party\\unity\\src/unity_internals.h"
 1653              		.file 13 "D:\\Work\\DeviceTester\\amazon-freertos\\lib\\include/queue.h"
 1654              		.file 14 "D:\\Work\\DeviceTester\\amazon-freertos\\lib\\include/semphr.h"
 1655              		.file 15 "D:\\Work\\DeviceTester\\amazon-freertos\\lib\\include\\private/threading_alt.h"
 1656              		.file 16 "D:\\Work\\DeviceTester\\amazon-freertos\\lib\\third_party\\mbedtls\\include/mbedtls/thre
 1657              		.file 17 "D:\\Work\\DeviceTester\\amazon-freertos\\lib\\third_party\\mbedtls\\include/mbedtls/ctr_
 1658              		.file 18 "c:\\program files (x86)\\gnu tools arm embedded\\6 2017-q2-update\\arm-none-eabi\\includ
 1659              		.file 19 "c:\\program files (x86)\\gnu tools arm embedded\\6 2017-q2-update\\arm-none-eabi\\includ
 1660              		.file 20 "c:\\program files (x86)\\gnu tools arm embedded\\6 2017-q2-update\\arm-none-eabi\\includ
 1661              		.file 21 "<built-in>"
 1662              		.file 22 "D:\\Work\\DeviceTester\\amazon-freertos\\lib\\third_party\\mbedtls\\include/mbedtls/plat