   1              		.cpu cortex-a9
   2              		.eabi_attribute 28, 1
   3              		.eabi_attribute 20, 1
   4              		.eabi_attribute 21, 1
   5              		.eabi_attribute 23, 3
   6              		.eabi_attribute 24, 1
   7              		.eabi_attribute 25, 1
   8              		.eabi_attribute 26, 1
   9              		.eabi_attribute 30, 4
  10              		.eabi_attribute 34, 0
  11              		.eabi_attribute 18, 4
  12              		.file	"ecdh.c"
  13              		.text
  14              	.Ltext0:
  15              		.cfi_sections	.debug_frame
  16              		.section	.text.mbedtls_ecdh_gen_public,"ax",%progbits
  17              		.align	2
  18              		.global	mbedtls_ecdh_gen_public
  19              		.syntax unified
  20              		.arm
  21              		.fpu neon
  23              	mbedtls_ecdh_gen_public:
  24              	.LFB0:
  25              		.file 1 "D:/Work/DeviceTester/amazon-freertos/lib/third_party/mbedtls/library/ecdh.c"
   1:D:/Work/DeviceTester/amazon-freertos/lib/third_party/mbedtls/library\ecdh.c **** /*
   2:D:/Work/DeviceTester/amazon-freertos/lib/third_party/mbedtls/library\ecdh.c ****  *  Elliptic curve Diffie-Hellman
   3:D:/Work/DeviceTester/amazon-freertos/lib/third_party/mbedtls/library\ecdh.c ****  *
   4:D:/Work/DeviceTester/amazon-freertos/lib/third_party/mbedtls/library\ecdh.c ****  *  Copyright (C) 2006-2015, ARM Limited, All Rights Reserved
   5:D:/Work/DeviceTester/amazon-freertos/lib/third_party/mbedtls/library\ecdh.c ****  *  SPDX-License-Identifier: Apache-2.0
   6:D:/Work/DeviceTester/amazon-freertos/lib/third_party/mbedtls/library\ecdh.c ****  *
   7:D:/Work/DeviceTester/amazon-freertos/lib/third_party/mbedtls/library\ecdh.c ****  *  Licensed under the Apache License, Version 2.0 (the "License"); you may
   8:D:/Work/DeviceTester/amazon-freertos/lib/third_party/mbedtls/library\ecdh.c ****  *  not use this file except in compliance with the License.
   9:D:/Work/DeviceTester/amazon-freertos/lib/third_party/mbedtls/library\ecdh.c ****  *  You may obtain a copy of the License at
  10:D:/Work/DeviceTester/amazon-freertos/lib/third_party/mbedtls/library\ecdh.c ****  *
  11:D:/Work/DeviceTester/amazon-freertos/lib/third_party/mbedtls/library\ecdh.c ****  *  http://www.apache.org/licenses/LICENSE-2.0
  12:D:/Work/DeviceTester/amazon-freertos/lib/third_party/mbedtls/library\ecdh.c ****  *
  13:D:/Work/DeviceTester/amazon-freertos/lib/third_party/mbedtls/library\ecdh.c ****  *  Unless required by applicable law or agreed to in writing, software
  14:D:/Work/DeviceTester/amazon-freertos/lib/third_party/mbedtls/library\ecdh.c ****  *  distributed under the License is distributed on an "AS IS" BASIS, WITHOUT
  15:D:/Work/DeviceTester/amazon-freertos/lib/third_party/mbedtls/library\ecdh.c ****  *  WARRANTIES OR CONDITIONS OF ANY KIND, either express or implied.
  16:D:/Work/DeviceTester/amazon-freertos/lib/third_party/mbedtls/library\ecdh.c ****  *  See the License for the specific language governing permissions and
  17:D:/Work/DeviceTester/amazon-freertos/lib/third_party/mbedtls/library\ecdh.c ****  *  limitations under the License.
  18:D:/Work/DeviceTester/amazon-freertos/lib/third_party/mbedtls/library\ecdh.c ****  *
  19:D:/Work/DeviceTester/amazon-freertos/lib/third_party/mbedtls/library\ecdh.c ****  *  This file is part of mbed TLS (https://tls.mbed.org)
  20:D:/Work/DeviceTester/amazon-freertos/lib/third_party/mbedtls/library\ecdh.c ****  */
  21:D:/Work/DeviceTester/amazon-freertos/lib/third_party/mbedtls/library\ecdh.c **** 
  22:D:/Work/DeviceTester/amazon-freertos/lib/third_party/mbedtls/library\ecdh.c **** /*
  23:D:/Work/DeviceTester/amazon-freertos/lib/third_party/mbedtls/library\ecdh.c ****  * References:
  24:D:/Work/DeviceTester/amazon-freertos/lib/third_party/mbedtls/library\ecdh.c ****  *
  25:D:/Work/DeviceTester/amazon-freertos/lib/third_party/mbedtls/library\ecdh.c ****  * SEC1 http://www.secg.org/index.php?action=secg,docs_secg
  26:D:/Work/DeviceTester/amazon-freertos/lib/third_party/mbedtls/library\ecdh.c ****  * RFC 4492
  27:D:/Work/DeviceTester/amazon-freertos/lib/third_party/mbedtls/library\ecdh.c ****  */
  28:D:/Work/DeviceTester/amazon-freertos/lib/third_party/mbedtls/library\ecdh.c **** 
  29:D:/Work/DeviceTester/amazon-freertos/lib/third_party/mbedtls/library\ecdh.c **** #if !defined(MBEDTLS_CONFIG_FILE)
  30:D:/Work/DeviceTester/amazon-freertos/lib/third_party/mbedtls/library\ecdh.c **** #include "mbedtls/config.h"
  31:D:/Work/DeviceTester/amazon-freertos/lib/third_party/mbedtls/library\ecdh.c **** #else
  32:D:/Work/DeviceTester/amazon-freertos/lib/third_party/mbedtls/library\ecdh.c **** #include MBEDTLS_CONFIG_FILE
  33:D:/Work/DeviceTester/amazon-freertos/lib/third_party/mbedtls/library\ecdh.c **** #endif
  34:D:/Work/DeviceTester/amazon-freertos/lib/third_party/mbedtls/library\ecdh.c **** 
  35:D:/Work/DeviceTester/amazon-freertos/lib/third_party/mbedtls/library\ecdh.c **** #if defined(MBEDTLS_ECDH_C)
  36:D:/Work/DeviceTester/amazon-freertos/lib/third_party/mbedtls/library\ecdh.c **** 
  37:D:/Work/DeviceTester/amazon-freertos/lib/third_party/mbedtls/library\ecdh.c **** #include "mbedtls/ecdh.h"
  38:D:/Work/DeviceTester/amazon-freertos/lib/third_party/mbedtls/library\ecdh.c **** 
  39:D:/Work/DeviceTester/amazon-freertos/lib/third_party/mbedtls/library\ecdh.c **** #include <string.h>
  40:D:/Work/DeviceTester/amazon-freertos/lib/third_party/mbedtls/library\ecdh.c **** 
  41:D:/Work/DeviceTester/amazon-freertos/lib/third_party/mbedtls/library\ecdh.c **** #if !defined(MBEDTLS_ECDH_GEN_PUBLIC_ALT)
  42:D:/Work/DeviceTester/amazon-freertos/lib/third_party/mbedtls/library\ecdh.c **** /*
  43:D:/Work/DeviceTester/amazon-freertos/lib/third_party/mbedtls/library\ecdh.c ****  * Generate public key: simple wrapper around mbedtls_ecp_gen_keypair
  44:D:/Work/DeviceTester/amazon-freertos/lib/third_party/mbedtls/library\ecdh.c ****  */
  45:D:/Work/DeviceTester/amazon-freertos/lib/third_party/mbedtls/library\ecdh.c **** int mbedtls_ecdh_gen_public( mbedtls_ecp_group *grp, mbedtls_mpi *d, mbedtls_ecp_point *Q,
  46:D:/Work/DeviceTester/amazon-freertos/lib/third_party/mbedtls/library\ecdh.c ****                      int (*f_rng)(void *, unsigned char *, size_t),
  47:D:/Work/DeviceTester/amazon-freertos/lib/third_party/mbedtls/library\ecdh.c ****                      void *p_rng )
  48:D:/Work/DeviceTester/amazon-freertos/lib/third_party/mbedtls/library\ecdh.c **** {
  26              		.loc 1 48 0
  27              		.cfi_startproc
  28              		@ args = 4, pretend = 0, frame = 0
  29              		@ frame_needed = 0, uses_anonymous_args = 0
  30              		@ link register save eliminated.
  31              	.LVL0:
  49:D:/Work/DeviceTester/amazon-freertos/lib/third_party/mbedtls/library\ecdh.c ****     return mbedtls_ecp_gen_keypair( grp, d, Q, f_rng, p_rng );
  32              		.loc 1 49 0
  33 0000 FEFFFFEA 		b	mbedtls_ecp_gen_keypair
  34              	.LVL1:
  35              		.cfi_endproc
  36              	.LFE0:
  38              		.section	.text.mbedtls_ecdh_compute_shared,"ax",%progbits
  39              		.align	2
  40              		.global	mbedtls_ecdh_compute_shared
  41              		.syntax unified
  42              		.arm
  43              		.fpu neon
  45              	mbedtls_ecdh_compute_shared:
  46              	.LFB1:
  50:D:/Work/DeviceTester/amazon-freertos/lib/third_party/mbedtls/library\ecdh.c **** }
  51:D:/Work/DeviceTester/amazon-freertos/lib/third_party/mbedtls/library\ecdh.c **** #endif /* MBEDTLS_ECDH_GEN_PUBLIC_ALT */
  52:D:/Work/DeviceTester/amazon-freertos/lib/third_party/mbedtls/library\ecdh.c **** 
  53:D:/Work/DeviceTester/amazon-freertos/lib/third_party/mbedtls/library\ecdh.c **** #if !defined(MBEDTLS_ECDH_COMPUTE_SHARED_ALT)
  54:D:/Work/DeviceTester/amazon-freertos/lib/third_party/mbedtls/library\ecdh.c **** /*
  55:D:/Work/DeviceTester/amazon-freertos/lib/third_party/mbedtls/library\ecdh.c ****  * Compute shared secret (SEC1 3.3.1)
  56:D:/Work/DeviceTester/amazon-freertos/lib/third_party/mbedtls/library\ecdh.c ****  */
  57:D:/Work/DeviceTester/amazon-freertos/lib/third_party/mbedtls/library\ecdh.c **** int mbedtls_ecdh_compute_shared( mbedtls_ecp_group *grp, mbedtls_mpi *z,
  58:D:/Work/DeviceTester/amazon-freertos/lib/third_party/mbedtls/library\ecdh.c ****                          const mbedtls_ecp_point *Q, const mbedtls_mpi *d,
  59:D:/Work/DeviceTester/amazon-freertos/lib/third_party/mbedtls/library\ecdh.c ****                          int (*f_rng)(void *, unsigned char *, size_t),
  60:D:/Work/DeviceTester/amazon-freertos/lib/third_party/mbedtls/library\ecdh.c ****                          void *p_rng )
  61:D:/Work/DeviceTester/amazon-freertos/lib/third_party/mbedtls/library\ecdh.c **** {
  47              		.loc 1 61 0
  48              		.cfi_startproc
  49              		@ args = 8, pretend = 0, frame = 40
  50              		@ frame_needed = 0, uses_anonymous_args = 0
  51              	.LVL2:
  52 0000 F0412DE9 		push	{r4, r5, r6, r7, r8, lr}
  53              		.cfi_def_cfa_offset 24
  54              		.cfi_offset 4, -24
  55              		.cfi_offset 5, -20
  56              		.cfi_offset 6, -16
  57              		.cfi_offset 7, -12
  58              		.cfi_offset 8, -8
  59              		.cfi_offset 14, -4
  60 0004 30D04DE2 		sub	sp, sp, #48
  61              		.cfi_def_cfa_offset 72
  62              		.loc 1 61 0
  63 0008 0260A0E1 		mov	r6, r2
  64 000c 0050A0E1 		mov	r5, r0
  62:D:/Work/DeviceTester/amazon-freertos/lib/third_party/mbedtls/library\ecdh.c ****     int ret;
  63:D:/Work/DeviceTester/amazon-freertos/lib/third_party/mbedtls/library\ecdh.c ****     mbedtls_ecp_point P;
  64:D:/Work/DeviceTester/amazon-freertos/lib/third_party/mbedtls/library\ecdh.c **** 
  65:D:/Work/DeviceTester/amazon-freertos/lib/third_party/mbedtls/library\ecdh.c ****     mbedtls_ecp_point_init( &P );
  65              		.loc 1 65 0
  66 0010 0C008DE2 		add	r0, sp, #12
  67              	.LVL3:
  61:D:/Work/DeviceTester/amazon-freertos/lib/third_party/mbedtls/library\ecdh.c ****     int ret;
  68              		.loc 1 61 0
  69 0014 0170A0E1 		mov	r7, r1
  70 0018 0380A0E1 		mov	r8, r3
  71              		.loc 1 65 0
  72 001c FEFFFFEB 		bl	mbedtls_ecp_point_init
  73              	.LVL4:
  66:D:/Work/DeviceTester/amazon-freertos/lib/third_party/mbedtls/library\ecdh.c **** 
  67:D:/Work/DeviceTester/amazon-freertos/lib/third_party/mbedtls/library\ecdh.c ****     /*
  68:D:/Work/DeviceTester/amazon-freertos/lib/third_party/mbedtls/library\ecdh.c ****      * Make sure Q is a valid pubkey before using it
  69:D:/Work/DeviceTester/amazon-freertos/lib/third_party/mbedtls/library\ecdh.c ****      */
  70:D:/Work/DeviceTester/amazon-freertos/lib/third_party/mbedtls/library\ecdh.c ****     MBEDTLS_MPI_CHK( mbedtls_ecp_check_pubkey( grp, Q ) );
  74              		.loc 1 70 0
  75 0020 0610A0E1 		mov	r1, r6
  76 0024 0500A0E1 		mov	r0, r5
  77 0028 FEFFFFEB 		bl	mbedtls_ecp_check_pubkey
  78              	.LVL5:
  79 002c 004050E2 		subs	r4, r0, #0
  80 0030 1300001A 		bne	.L3
  71:D:/Work/DeviceTester/amazon-freertos/lib/third_party/mbedtls/library\ecdh.c **** 
  72:D:/Work/DeviceTester/amazon-freertos/lib/third_party/mbedtls/library\ecdh.c ****     MBEDTLS_MPI_CHK( mbedtls_ecp_mul( grp, &P, d, Q, f_rng, p_rng ) );
  81              		.loc 1 72 0
  82 0034 4C309DE5 		ldr	r3, [sp, #76]
  83 0038 0820A0E1 		mov	r2, r8
  84 003c 0C108DE2 		add	r1, sp, #12
  85 0040 0500A0E1 		mov	r0, r5
  86              	.LVL6:
  87 0044 04308DE5 		str	r3, [sp, #4]
  88 0048 48309DE5 		ldr	r3, [sp, #72]
  89 004c 00308DE5 		str	r3, [sp]
  90 0050 0630A0E1 		mov	r3, r6
  91 0054 FEFFFFEB 		bl	mbedtls_ecp_mul
  92              	.LVL7:
  93 0058 004050E2 		subs	r4, r0, #0
  94 005c 0800001A 		bne	.L3
  73:D:/Work/DeviceTester/amazon-freertos/lib/third_party/mbedtls/library\ecdh.c **** 
  74:D:/Work/DeviceTester/amazon-freertos/lib/third_party/mbedtls/library\ecdh.c ****     if( mbedtls_ecp_is_zero( &P ) )
  95              		.loc 1 74 0
  96 0060 0C008DE2 		add	r0, sp, #12
  97              	.LVL8:
  98 0064 FEFFFFEB 		bl	mbedtls_ecp_is_zero
  99              	.LVL9:
 100 0068 000050E3 		cmp	r0, #0
  75:D:/Work/DeviceTester/amazon-freertos/lib/third_party/mbedtls/library\ecdh.c ****     {
  76:D:/Work/DeviceTester/amazon-freertos/lib/third_party/mbedtls/library\ecdh.c ****         ret = MBEDTLS_ERR_ECP_BAD_INPUT_DATA;
 101              		.loc 1 76 0
 102 006c 24409F15 		ldrne	r4, .L6
 103              	.LVL10:
  74:D:/Work/DeviceTester/amazon-freertos/lib/third_party/mbedtls/library\ecdh.c ****     {
 104              		.loc 1 74 0
 105 0070 0300001A 		bne	.L3
  77:D:/Work/DeviceTester/amazon-freertos/lib/third_party/mbedtls/library\ecdh.c ****         goto cleanup;
  78:D:/Work/DeviceTester/amazon-freertos/lib/third_party/mbedtls/library\ecdh.c ****     }
  79:D:/Work/DeviceTester/amazon-freertos/lib/third_party/mbedtls/library\ecdh.c **** 
  80:D:/Work/DeviceTester/amazon-freertos/lib/third_party/mbedtls/library\ecdh.c ****     MBEDTLS_MPI_CHK( mbedtls_mpi_copy( z, &P.X ) );
 106              		.loc 1 80 0
 107 0074 0C108DE2 		add	r1, sp, #12
 108 0078 0700A0E1 		mov	r0, r7
 109 007c FEFFFFEB 		bl	mbedtls_mpi_copy
 110              	.LVL11:
 111 0080 0040A0E1 		mov	r4, r0
 112              	.LVL12:
 113              	.L3:
  81:D:/Work/DeviceTester/amazon-freertos/lib/third_party/mbedtls/library\ecdh.c **** 
  82:D:/Work/DeviceTester/amazon-freertos/lib/third_party/mbedtls/library\ecdh.c **** cleanup:
  83:D:/Work/DeviceTester/amazon-freertos/lib/third_party/mbedtls/library\ecdh.c ****     mbedtls_ecp_point_free( &P );
 114              		.loc 1 83 0
 115 0084 0C008DE2 		add	r0, sp, #12
 116 0088 FEFFFFEB 		bl	mbedtls_ecp_point_free
 117              	.LVL13:
  84:D:/Work/DeviceTester/amazon-freertos/lib/third_party/mbedtls/library\ecdh.c **** 
  85:D:/Work/DeviceTester/amazon-freertos/lib/third_party/mbedtls/library\ecdh.c ****     return( ret );
  86:D:/Work/DeviceTester/amazon-freertos/lib/third_party/mbedtls/library\ecdh.c **** }
 118              		.loc 1 86 0
 119 008c 0400A0E1 		mov	r0, r4
 120 0090 30D08DE2 		add	sp, sp, #48
 121              		.cfi_def_cfa_offset 24
 122              		@ sp needed
 123 0094 F081BDE8 		pop	{r4, r5, r6, r7, r8, pc}
 124              	.LVL14:
 125              	.L7:
 126              		.align	2
 127              	.L6:
 128 0098 80B0FFFF 		.word	-20352
 129              		.cfi_endproc
 130              	.LFE1:
 132              		.section	.text.mbedtls_ecdh_init,"ax",%progbits
 133              		.align	2
 134              		.global	mbedtls_ecdh_init
 135              		.syntax unified
 136              		.arm
 137              		.fpu neon
 139              	mbedtls_ecdh_init:
 140              	.LFB2:
  87:D:/Work/DeviceTester/amazon-freertos/lib/third_party/mbedtls/library\ecdh.c **** #endif /* MBEDTLS_ECDH_COMPUTE_SHARED_ALT */
  88:D:/Work/DeviceTester/amazon-freertos/lib/third_party/mbedtls/library\ecdh.c **** 
  89:D:/Work/DeviceTester/amazon-freertos/lib/third_party/mbedtls/library\ecdh.c **** /*
  90:D:/Work/DeviceTester/amazon-freertos/lib/third_party/mbedtls/library\ecdh.c ****  * Initialize context
  91:D:/Work/DeviceTester/amazon-freertos/lib/third_party/mbedtls/library\ecdh.c ****  */
  92:D:/Work/DeviceTester/amazon-freertos/lib/third_party/mbedtls/library\ecdh.c **** void mbedtls_ecdh_init( mbedtls_ecdh_context *ctx )
  93:D:/Work/DeviceTester/amazon-freertos/lib/third_party/mbedtls/library\ecdh.c **** {
 141              		.loc 1 93 0
 142              		.cfi_startproc
 143              		@ args = 0, pretend = 0, frame = 0
 144              		@ frame_needed = 0, uses_anonymous_args = 0
 145              		@ link register save eliminated.
 146              	.LVL15:
  94:D:/Work/DeviceTester/amazon-freertos/lib/third_party/mbedtls/library\ecdh.c ****     memset( ctx, 0, sizeof( mbedtls_ecdh_context ) );
 147              		.loc 1 94 0
 148 0000 4D2FA0E3 		mov	r2, #308
 149 0004 0010A0E3 		mov	r1, #0
 150 0008 FEFFFFEA 		b	memset
 151              	.LVL16:
 152              		.cfi_endproc
 153              	.LFE2:
 155              		.section	.text.mbedtls_ecdh_free,"ax",%progbits
 156              		.align	2
 157              		.global	mbedtls_ecdh_free
 158              		.syntax unified
 159              		.arm
 160              		.fpu neon
 162              	mbedtls_ecdh_free:
 163              	.LFB3:
  95:D:/Work/DeviceTester/amazon-freertos/lib/third_party/mbedtls/library\ecdh.c **** }
  96:D:/Work/DeviceTester/amazon-freertos/lib/third_party/mbedtls/library\ecdh.c **** 
  97:D:/Work/DeviceTester/amazon-freertos/lib/third_party/mbedtls/library\ecdh.c **** /*
  98:D:/Work/DeviceTester/amazon-freertos/lib/third_party/mbedtls/library\ecdh.c ****  * Free context
  99:D:/Work/DeviceTester/amazon-freertos/lib/third_party/mbedtls/library\ecdh.c ****  */
 100:D:/Work/DeviceTester/amazon-freertos/lib/third_party/mbedtls/library\ecdh.c **** void mbedtls_ecdh_free( mbedtls_ecdh_context *ctx )
 101:D:/Work/DeviceTester/amazon-freertos/lib/third_party/mbedtls/library\ecdh.c **** {
 164              		.loc 1 101 0
 165              		.cfi_startproc
 166              		@ args = 0, pretend = 0, frame = 0
 167              		@ frame_needed = 0, uses_anonymous_args = 0
 168              	.LVL17:
 169 0000 10402DE9 		push	{r4, lr}
 170              		.cfi_def_cfa_offset 8
 171              		.cfi_offset 4, -8
 172              		.cfi_offset 14, -4
 102:D:/Work/DeviceTester/amazon-freertos/lib/third_party/mbedtls/library\ecdh.c ****     if( ctx == NULL )
 173              		.loc 1 102 0
 174 0004 004050E2 		subs	r4, r0, #0
 175 0008 1080BD08 		popeq	{r4, pc}
 103:D:/Work/DeviceTester/amazon-freertos/lib/third_party/mbedtls/library\ecdh.c ****         return;
 104:D:/Work/DeviceTester/amazon-freertos/lib/third_party/mbedtls/library\ecdh.c **** 
 105:D:/Work/DeviceTester/amazon-freertos/lib/third_party/mbedtls/library\ecdh.c ****     mbedtls_ecp_group_free( &ctx->grp );
 176              		.loc 1 105 0
 177 000c FEFFFFEB 		bl	mbedtls_ecp_group_free
 178              	.LVL18:
 106:D:/Work/DeviceTester/amazon-freertos/lib/third_party/mbedtls/library\ecdh.c ****     mbedtls_ecp_point_free( &ctx->Q   );
 179              		.loc 1 106 0
 180 0010 880084E2 		add	r0, r4, #136
 181 0014 FEFFFFEB 		bl	mbedtls_ecp_point_free
 182              	.LVL19:
 107:D:/Work/DeviceTester/amazon-freertos/lib/third_party/mbedtls/library\ecdh.c ****     mbedtls_ecp_point_free( &ctx->Qp  );
 183              		.loc 1 107 0
 184 0018 AC0084E2 		add	r0, r4, #172
 185 001c FEFFFFEB 		bl	mbedtls_ecp_point_free
 186              	.LVL20:
 108:D:/Work/DeviceTester/amazon-freertos/lib/third_party/mbedtls/library\ecdh.c ****     mbedtls_ecp_point_free( &ctx->Vi  );
 187              		.loc 1 108 0
 188 0020 E00084E2 		add	r0, r4, #224
 189 0024 FEFFFFEB 		bl	mbedtls_ecp_point_free
 190              	.LVL21:
 109:D:/Work/DeviceTester/amazon-freertos/lib/third_party/mbedtls/library\ecdh.c ****     mbedtls_ecp_point_free( &ctx->Vf  );
 191              		.loc 1 109 0
 192 0028 410F84E2 		add	r0, r4, #260
 193 002c FEFFFFEB 		bl	mbedtls_ecp_point_free
 194              	.LVL22:
 110:D:/Work/DeviceTester/amazon-freertos/lib/third_party/mbedtls/library\ecdh.c ****     mbedtls_mpi_free( &ctx->d  );
 195              		.loc 1 110 0
 196 0030 7C0084E2 		add	r0, r4, #124
 197 0034 FEFFFFEB 		bl	mbedtls_mpi_free
 198              	.LVL23:
 111:D:/Work/DeviceTester/amazon-freertos/lib/third_party/mbedtls/library\ecdh.c ****     mbedtls_mpi_free( &ctx->z  );
 199              		.loc 1 111 0
 200 0038 D00084E2 		add	r0, r4, #208
 201 003c FEFFFFEB 		bl	mbedtls_mpi_free
 202              	.LVL24:
 112:D:/Work/DeviceTester/amazon-freertos/lib/third_party/mbedtls/library\ecdh.c ****     mbedtls_mpi_free( &ctx->_d );
 203              		.loc 1 112 0
 204 0040 4A0F84E2 		add	r0, r4, #296
 113:D:/Work/DeviceTester/amazon-freertos/lib/third_party/mbedtls/library\ecdh.c **** }
 205              		.loc 1 113 0
 206 0044 1040BDE8 		pop	{r4, lr}
 207              		.cfi_restore 14
 208              		.cfi_restore 4
 209              		.cfi_def_cfa_offset 0
 210              	.LVL25:
 112:D:/Work/DeviceTester/amazon-freertos/lib/third_party/mbedtls/library\ecdh.c ****     mbedtls_mpi_free( &ctx->_d );
 211              		.loc 1 112 0
 212 0048 FEFFFFEA 		b	mbedtls_mpi_free
 213              	.LVL26:
 214              		.cfi_endproc
 215              	.LFE3:
 217              		.section	.text.mbedtls_ecdh_make_params,"ax",%progbits
 218              		.align	2
 219              		.global	mbedtls_ecdh_make_params
 220              		.syntax unified
 221              		.arm
 222              		.fpu neon
 224              	mbedtls_ecdh_make_params:
 225              	.LFB4:
 114:D:/Work/DeviceTester/amazon-freertos/lib/third_party/mbedtls/library\ecdh.c **** 
 115:D:/Work/DeviceTester/amazon-freertos/lib/third_party/mbedtls/library\ecdh.c **** /*
 116:D:/Work/DeviceTester/amazon-freertos/lib/third_party/mbedtls/library\ecdh.c ****  * Setup and write the ServerKeyExhange parameters (RFC 4492)
 117:D:/Work/DeviceTester/amazon-freertos/lib/third_party/mbedtls/library\ecdh.c ****  *      struct {
 118:D:/Work/DeviceTester/amazon-freertos/lib/third_party/mbedtls/library\ecdh.c ****  *          ECParameters    curve_params;
 119:D:/Work/DeviceTester/amazon-freertos/lib/third_party/mbedtls/library\ecdh.c ****  *          ECPoint         public;
 120:D:/Work/DeviceTester/amazon-freertos/lib/third_party/mbedtls/library\ecdh.c ****  *      } ServerECDHParams;
 121:D:/Work/DeviceTester/amazon-freertos/lib/third_party/mbedtls/library\ecdh.c ****  */
 122:D:/Work/DeviceTester/amazon-freertos/lib/third_party/mbedtls/library\ecdh.c **** int mbedtls_ecdh_make_params( mbedtls_ecdh_context *ctx, size_t *olen,
 123:D:/Work/DeviceTester/amazon-freertos/lib/third_party/mbedtls/library\ecdh.c ****                       unsigned char *buf, size_t blen,
 124:D:/Work/DeviceTester/amazon-freertos/lib/third_party/mbedtls/library\ecdh.c ****                       int (*f_rng)(void *, unsigned char *, size_t),
 125:D:/Work/DeviceTester/amazon-freertos/lib/third_party/mbedtls/library\ecdh.c ****                       void *p_rng )
 126:D:/Work/DeviceTester/amazon-freertos/lib/third_party/mbedtls/library\ecdh.c **** {
 226              		.loc 1 126 0
 227              		.cfi_startproc
 228              		@ args = 8, pretend = 0, frame = 8
 229              		@ frame_needed = 0, uses_anonymous_args = 0
 230              	.LVL27:
 231 0000 FF412DE9 		push	{r0, r1, r2, r3, r4, r5, r6, r7, r8, lr}
 232              		.cfi_def_cfa_offset 40
 233              		.cfi_offset 4, -24
 234              		.cfi_offset 5, -20
 235              		.cfi_offset 6, -16
 236              		.cfi_offset 7, -12
 237              		.cfi_offset 8, -8
 238              		.cfi_offset 14, -4
 127:D:/Work/DeviceTester/amazon-freertos/lib/third_party/mbedtls/library\ecdh.c ****     int ret;
 128:D:/Work/DeviceTester/amazon-freertos/lib/third_party/mbedtls/library\ecdh.c ****     size_t grp_len, pt_len;
 129:D:/Work/DeviceTester/amazon-freertos/lib/third_party/mbedtls/library\ecdh.c **** 
 130:D:/Work/DeviceTester/amazon-freertos/lib/third_party/mbedtls/library\ecdh.c ****     if( ctx == NULL || ctx->grp.pbits == 0 )
 239              		.loc 1 130 0
 240 0004 004050E2 		subs	r4, r0, #0
 241 0008 2600000A 		beq	.L15
 242              		.loc 1 130 0 is_stmt 0 discriminator 1
 243 000c 58C094E5 		ldr	ip, [r4, #88]
 244 0010 00005CE3 		cmp	ip, #0
 245 0014 2300000A 		beq	.L15
 246 0018 0360A0E1 		mov	r6, r3
 247              	.LBB6:
 248              	.LBB7:
  49:D:/Work/DeviceTester/amazon-freertos/lib/third_party/mbedtls/library\ecdh.c **** }
 249              		.loc 1 49 0 is_stmt 1
 250 001c 2C309DE5 		ldr	r3, [sp, #44]
 251              	.LVL28:
 252              	.LBE7:
 253              	.LBE6:
 131:D:/Work/DeviceTester/amazon-freertos/lib/third_party/mbedtls/library\ecdh.c ****         return( MBEDTLS_ERR_ECP_BAD_INPUT_DATA );
 132:D:/Work/DeviceTester/amazon-freertos/lib/third_party/mbedtls/library\ecdh.c **** 
 133:D:/Work/DeviceTester/amazon-freertos/lib/third_party/mbedtls/library\ecdh.c ****     if( ( ret = mbedtls_ecdh_gen_public( &ctx->grp, &ctx->d, &ctx->Q, f_rng, p_rng ) )
 254              		.loc 1 133 0
 255 0020 888084E2 		add	r8, r4, #136
 256              	.LVL29:
 257 0024 0250A0E1 		mov	r5, r2
 258 0028 0170A0E1 		mov	r7, r1
 259              	.LBB9:
 260              	.LBB8:
  49:D:/Work/DeviceTester/amazon-freertos/lib/third_party/mbedtls/library\ecdh.c **** }
 261              		.loc 1 49 0
 262 002c 0820A0E1 		mov	r2, r8
 263              	.LVL30:
 264 0030 00308DE5 		str	r3, [sp]
 265 0034 7C1084E2 		add	r1, r4, #124
 266              	.LVL31:
 267 0038 28309DE5 		ldr	r3, [sp, #40]
 268              	.LVL32:
 269 003c FEFFFFEB 		bl	mbedtls_ecp_gen_keypair
 270              	.LVL33:
 271              	.LBE8:
 272              	.LBE9:
 273              		.loc 1 133 0
 274 0040 000050E3 		cmp	r0, #0
 275 0044 1500001A 		bne	.L12
 134:D:/Work/DeviceTester/amazon-freertos/lib/third_party/mbedtls/library\ecdh.c ****                 != 0 )
 135:D:/Work/DeviceTester/amazon-freertos/lib/third_party/mbedtls/library\ecdh.c ****         return( ret );
 136:D:/Work/DeviceTester/amazon-freertos/lib/third_party/mbedtls/library\ecdh.c **** 
 137:D:/Work/DeviceTester/amazon-freertos/lib/third_party/mbedtls/library\ecdh.c ****     if( ( ret = mbedtls_ecp_tls_write_group( &ctx->grp, &grp_len, buf, blen ) )
 276              		.loc 1 137 0
 277 0048 0630A0E1 		mov	r3, r6
 278 004c 0520A0E1 		mov	r2, r5
 279 0050 08108DE2 		add	r1, sp, #8
 280 0054 0400A0E1 		mov	r0, r4
 281 0058 FEFFFFEB 		bl	mbedtls_ecp_tls_write_group
 282              	.LVL34:
 283 005c 000050E3 		cmp	r0, #0
 284 0060 0E00001A 		bne	.L12
 138:D:/Work/DeviceTester/amazon-freertos/lib/third_party/mbedtls/library\ecdh.c ****                 != 0 )
 139:D:/Work/DeviceTester/amazon-freertos/lib/third_party/mbedtls/library\ecdh.c ****         return( ret );
 140:D:/Work/DeviceTester/amazon-freertos/lib/third_party/mbedtls/library\ecdh.c **** 
 141:D:/Work/DeviceTester/amazon-freertos/lib/third_party/mbedtls/library\ecdh.c ****     buf += grp_len;
 285              		.loc 1 141 0
 286 0064 08209DE5 		ldr	r2, [sp, #8]
 287              	.LVL35:
 142:D:/Work/DeviceTester/amazon-freertos/lib/third_party/mbedtls/library\ecdh.c ****     blen -= grp_len;
 143:D:/Work/DeviceTester/amazon-freertos/lib/third_party/mbedtls/library\ecdh.c **** 
 144:D:/Work/DeviceTester/amazon-freertos/lib/third_party/mbedtls/library\ecdh.c ****     if( ( ret = mbedtls_ecp_tls_write_point( &ctx->grp, &ctx->Q, ctx->point_format,
 288              		.loc 1 144 0
 289 0068 0C308DE2 		add	r3, sp, #12
 290 006c 0810A0E1 		mov	r1, r8
 291 0070 0400A0E1 		mov	r0, r4
 292              	.LVL36:
 142:D:/Work/DeviceTester/amazon-freertos/lib/third_party/mbedtls/library\ecdh.c ****     blen -= grp_len;
 293              		.loc 1 142 0
 294 0074 026046E0 		sub	r6, r6, r2
 295              	.LVL37:
 141:D:/Work/DeviceTester/amazon-freertos/lib/third_party/mbedtls/library\ecdh.c ****     blen -= grp_len;
 296              		.loc 1 141 0
 297 0078 025085E0 		add	r5, r5, r2
 298              	.LVL38:
 299              		.loc 1 144 0
 300 007c 04608DE5 		str	r6, [sp, #4]
 301 0080 00508DE5 		str	r5, [sp]
 302 0084 DC2094E5 		ldr	r2, [r4, #220]
 303 0088 FEFFFFEB 		bl	mbedtls_ecp_tls_write_point
 304              	.LVL39:
 305 008c 000050E3 		cmp	r0, #0
 145:D:/Work/DeviceTester/amazon-freertos/lib/third_party/mbedtls/library\ecdh.c ****                                      &pt_len, buf, blen ) ) != 0 )
 146:D:/Work/DeviceTester/amazon-freertos/lib/third_party/mbedtls/library\ecdh.c ****         return( ret );
 147:D:/Work/DeviceTester/amazon-freertos/lib/third_party/mbedtls/library\ecdh.c **** 
 148:D:/Work/DeviceTester/amazon-freertos/lib/third_party/mbedtls/library\ecdh.c ****     *olen = grp_len + pt_len;
 306              		.loc 1 148 0
 307 0090 0C209D05 		ldreq	r2, [sp, #12]
 308 0094 08309D05 		ldreq	r3, [sp, #8]
 309 0098 02308300 		addeq	r3, r3, r2
 310 009c 00308705 		streq	r3, [r7]
 311              	.LVL40:
 312              	.L12:
 149:D:/Work/DeviceTester/amazon-freertos/lib/third_party/mbedtls/library\ecdh.c ****     return( 0 );
 150:D:/Work/DeviceTester/amazon-freertos/lib/third_party/mbedtls/library\ecdh.c **** }
 313              		.loc 1 150 0
 314 00a0 10D08DE2 		add	sp, sp, #16
 315              		.cfi_remember_state
 316              		.cfi_def_cfa_offset 24
 317              		@ sp needed
 318 00a4 F081BDE8 		pop	{r4, r5, r6, r7, r8, pc}
 319              	.LVL41:
 320              	.L15:
 321              		.cfi_restore_state
 131:D:/Work/DeviceTester/amazon-freertos/lib/third_party/mbedtls/library\ecdh.c **** 
 322              		.loc 1 131 0
 323 00a8 00009FE5 		ldr	r0, .L17
 324              	.LVL42:
 325 00ac FBFFFFEA 		b	.L12
 326              	.L18:
 327              		.align	2
 328              	.L17:
 329 00b0 80B0FFFF 		.word	-20352
 330              		.cfi_endproc
 331              	.LFE4:
 333              		.section	.text.mbedtls_ecdh_read_params,"ax",%progbits
 334              		.align	2
 335              		.global	mbedtls_ecdh_read_params
 336              		.syntax unified
 337              		.arm
 338              		.fpu neon
 340              	mbedtls_ecdh_read_params:
 341              	.LFB5:
 151:D:/Work/DeviceTester/amazon-freertos/lib/third_party/mbedtls/library\ecdh.c **** 
 152:D:/Work/DeviceTester/amazon-freertos/lib/third_party/mbedtls/library\ecdh.c **** /*
 153:D:/Work/DeviceTester/amazon-freertos/lib/third_party/mbedtls/library\ecdh.c ****  * Read the ServerKeyExhange parameters (RFC 4492)
 154:D:/Work/DeviceTester/amazon-freertos/lib/third_party/mbedtls/library\ecdh.c ****  *      struct {
 155:D:/Work/DeviceTester/amazon-freertos/lib/third_party/mbedtls/library\ecdh.c ****  *          ECParameters    curve_params;
 156:D:/Work/DeviceTester/amazon-freertos/lib/third_party/mbedtls/library\ecdh.c ****  *          ECPoint         public;
 157:D:/Work/DeviceTester/amazon-freertos/lib/third_party/mbedtls/library\ecdh.c ****  *      } ServerECDHParams;
 158:D:/Work/DeviceTester/amazon-freertos/lib/third_party/mbedtls/library\ecdh.c ****  */
 159:D:/Work/DeviceTester/amazon-freertos/lib/third_party/mbedtls/library\ecdh.c **** int mbedtls_ecdh_read_params( mbedtls_ecdh_context *ctx,
 160:D:/Work/DeviceTester/amazon-freertos/lib/third_party/mbedtls/library\ecdh.c ****                       const unsigned char **buf, const unsigned char *end )
 161:D:/Work/DeviceTester/amazon-freertos/lib/third_party/mbedtls/library\ecdh.c **** {
 342              		.loc 1 161 0
 343              		.cfi_startproc
 344              		@ args = 0, pretend = 0, frame = 0
 345              		@ frame_needed = 0, uses_anonymous_args = 0
 346              	.LVL43:
 347 0000 70402DE9 		push	{r4, r5, r6, lr}
 348              		.cfi_def_cfa_offset 16
 349              		.cfi_offset 4, -16
 350              		.cfi_offset 5, -12
 351              		.cfi_offset 6, -8
 352              		.cfi_offset 14, -4
 353              		.loc 1 161 0
 354 0004 0260A0E1 		mov	r6, r2
 162:D:/Work/DeviceTester/amazon-freertos/lib/third_party/mbedtls/library\ecdh.c ****     int ret;
 163:D:/Work/DeviceTester/amazon-freertos/lib/third_party/mbedtls/library\ecdh.c **** 
 164:D:/Work/DeviceTester/amazon-freertos/lib/third_party/mbedtls/library\ecdh.c ****     if( ( ret = mbedtls_ecp_tls_read_group( &ctx->grp, buf, end - *buf ) ) != 0 )
 355              		.loc 1 164 0
 356 0008 002091E5 		ldr	r2, [r1]
 357              	.LVL44:
 161:D:/Work/DeviceTester/amazon-freertos/lib/third_party/mbedtls/library\ecdh.c ****     int ret;
 358              		.loc 1 161 0
 359 000c 0050A0E1 		mov	r5, r0
 360 0010 0140A0E1 		mov	r4, r1
 361              		.loc 1 164 0
 362 0014 022046E0 		sub	r2, r6, r2
 363 0018 FEFFFFEB 		bl	mbedtls_ecp_tls_read_group
 364              	.LVL45:
 365 001c 000050E3 		cmp	r0, #0
 366 0020 7080BD18 		popne	{r4, r5, r6, pc}
 165:D:/Work/DeviceTester/amazon-freertos/lib/third_party/mbedtls/library\ecdh.c ****         return( ret );
 166:D:/Work/DeviceTester/amazon-freertos/lib/third_party/mbedtls/library\ecdh.c **** 
 167:D:/Work/DeviceTester/amazon-freertos/lib/third_party/mbedtls/library\ecdh.c ****     if( ( ret = mbedtls_ecp_tls_read_point( &ctx->grp, &ctx->Qp, buf, end - *buf ) )
 367              		.loc 1 167 0
 368 0024 003094E5 		ldr	r3, [r4]
 369 0028 0420A0E1 		mov	r2, r4
 370 002c AC1085E2 		add	r1, r5, #172
 371 0030 0500A0E1 		mov	r0, r5
 372              	.LVL46:
 373 0034 033046E0 		sub	r3, r6, r3
 168:D:/Work/DeviceTester/amazon-freertos/lib/third_party/mbedtls/library\ecdh.c ****                 != 0 )
 169:D:/Work/DeviceTester/amazon-freertos/lib/third_party/mbedtls/library\ecdh.c ****         return( ret );
 170:D:/Work/DeviceTester/amazon-freertos/lib/third_party/mbedtls/library\ecdh.c **** 
 171:D:/Work/DeviceTester/amazon-freertos/lib/third_party/mbedtls/library\ecdh.c ****     return( 0 );
 172:D:/Work/DeviceTester/amazon-freertos/lib/third_party/mbedtls/library\ecdh.c **** }
 374              		.loc 1 172 0
 375 0038 7040BDE8 		pop	{r4, r5, r6, lr}
 376              		.cfi_restore 14
 377              		.cfi_restore 6
 378              		.cfi_restore 5
 379              		.cfi_restore 4
 380              		.cfi_def_cfa_offset 0
 381              	.LVL47:
 167:D:/Work/DeviceTester/amazon-freertos/lib/third_party/mbedtls/library\ecdh.c ****                 != 0 )
 382              		.loc 1 167 0
 383 003c FEFFFFEA 		b	mbedtls_ecp_tls_read_point
 384              	.LVL48:
 385              		.cfi_endproc
 386              	.LFE5:
 388              		.section	.text.mbedtls_ecdh_get_params,"ax",%progbits
 389              		.align	2
 390              		.global	mbedtls_ecdh_get_params
 391              		.syntax unified
 392              		.arm
 393              		.fpu neon
 395              	mbedtls_ecdh_get_params:
 396              	.LFB6:
 173:D:/Work/DeviceTester/amazon-freertos/lib/third_party/mbedtls/library\ecdh.c **** 
 174:D:/Work/DeviceTester/amazon-freertos/lib/third_party/mbedtls/library\ecdh.c **** /*
 175:D:/Work/DeviceTester/amazon-freertos/lib/third_party/mbedtls/library\ecdh.c ****  * Get parameters from a keypair
 176:D:/Work/DeviceTester/amazon-freertos/lib/third_party/mbedtls/library\ecdh.c ****  */
 177:D:/Work/DeviceTester/amazon-freertos/lib/third_party/mbedtls/library\ecdh.c **** int mbedtls_ecdh_get_params( mbedtls_ecdh_context *ctx, const mbedtls_ecp_keypair *key,
 178:D:/Work/DeviceTester/amazon-freertos/lib/third_party/mbedtls/library\ecdh.c ****                      mbedtls_ecdh_side side )
 179:D:/Work/DeviceTester/amazon-freertos/lib/third_party/mbedtls/library\ecdh.c **** {
 397              		.loc 1 179 0
 398              		.cfi_startproc
 399              		@ args = 0, pretend = 0, frame = 0
 400              		@ frame_needed = 0, uses_anonymous_args = 0
 401              	.LVL49:
 402 0000 70402DE9 		push	{r4, r5, r6, lr}
 403              		.cfi_def_cfa_offset 16
 404              		.cfi_offset 4, -16
 405              		.cfi_offset 5, -12
 406              		.cfi_offset 6, -8
 407              		.cfi_offset 14, -4
 408              		.loc 1 179 0
 409 0004 0040A0E1 		mov	r4, r0
 410 0008 0150A0E1 		mov	r5, r1
 411 000c 0260A0E1 		mov	r6, r2
 180:D:/Work/DeviceTester/amazon-freertos/lib/third_party/mbedtls/library\ecdh.c ****     int ret;
 181:D:/Work/DeviceTester/amazon-freertos/lib/third_party/mbedtls/library\ecdh.c **** 
 182:D:/Work/DeviceTester/amazon-freertos/lib/third_party/mbedtls/library\ecdh.c ****     if( ( ret = mbedtls_ecp_group_copy( &ctx->grp, &key->grp ) ) != 0 )
 412              		.loc 1 182 0
 413 0010 FEFFFFEB 		bl	mbedtls_ecp_group_copy
 414              	.LVL50:
 415 0014 000050E3 		cmp	r0, #0
 416 0018 7080BD18 		popne	{r4, r5, r6, pc}
 183:D:/Work/DeviceTester/amazon-freertos/lib/third_party/mbedtls/library\ecdh.c ****         return( ret );
 184:D:/Work/DeviceTester/amazon-freertos/lib/third_party/mbedtls/library\ecdh.c **** 
 185:D:/Work/DeviceTester/amazon-freertos/lib/third_party/mbedtls/library\ecdh.c ****     /* If it's not our key, just import the public part as Qp */
 186:D:/Work/DeviceTester/amazon-freertos/lib/third_party/mbedtls/library\ecdh.c ****     if( side == MBEDTLS_ECDH_THEIRS )
 417              		.loc 1 186 0
 418 001c 010056E3 		cmp	r6, #1
 419 0020 0300001A 		bne	.L24
 187:D:/Work/DeviceTester/amazon-freertos/lib/third_party/mbedtls/library\ecdh.c ****         return( mbedtls_ecp_copy( &ctx->Qp, &key->Q ) );
 420              		.loc 1 187 0
 421 0024 881085E2 		add	r1, r5, #136
 422 0028 AC0084E2 		add	r0, r4, #172
 423              	.LVL51:
 188:D:/Work/DeviceTester/amazon-freertos/lib/third_party/mbedtls/library\ecdh.c **** 
 189:D:/Work/DeviceTester/amazon-freertos/lib/third_party/mbedtls/library\ecdh.c ****     /* Our key: import public (as Q) and private parts */
 190:D:/Work/DeviceTester/amazon-freertos/lib/third_party/mbedtls/library\ecdh.c ****     if( side != MBEDTLS_ECDH_OURS )
 191:D:/Work/DeviceTester/amazon-freertos/lib/third_party/mbedtls/library\ecdh.c ****         return( MBEDTLS_ERR_ECP_BAD_INPUT_DATA );
 192:D:/Work/DeviceTester/amazon-freertos/lib/third_party/mbedtls/library\ecdh.c **** 
 193:D:/Work/DeviceTester/amazon-freertos/lib/third_party/mbedtls/library\ecdh.c ****     if( ( ret = mbedtls_ecp_copy( &ctx->Q, &key->Q ) ) != 0 ||
 194:D:/Work/DeviceTester/amazon-freertos/lib/third_party/mbedtls/library\ecdh.c ****         ( ret = mbedtls_mpi_copy( &ctx->d, &key->d ) ) != 0 )
 195:D:/Work/DeviceTester/amazon-freertos/lib/third_party/mbedtls/library\ecdh.c ****         return( ret );
 196:D:/Work/DeviceTester/amazon-freertos/lib/third_party/mbedtls/library\ecdh.c **** 
 197:D:/Work/DeviceTester/amazon-freertos/lib/third_party/mbedtls/library\ecdh.c ****     return( 0 );
 198:D:/Work/DeviceTester/amazon-freertos/lib/third_party/mbedtls/library\ecdh.c **** }
 424              		.loc 1 198 0
 425 002c 7040BDE8 		pop	{r4, r5, r6, lr}
 426              		.cfi_remember_state
 427              		.cfi_restore 14
 428              		.cfi_restore 6
 429              		.cfi_restore 5
 430              		.cfi_restore 4
 431              		.cfi_def_cfa_offset 0
 432              	.LVL52:
 187:D:/Work/DeviceTester/amazon-freertos/lib/third_party/mbedtls/library\ecdh.c ****         return( mbedtls_ecp_copy( &ctx->Qp, &key->Q ) );
 433              		.loc 1 187 0
 434 0030 FEFFFFEA 		b	mbedtls_ecp_copy
 435              	.LVL53:
 436              	.L24:
 437              		.cfi_restore_state
 190:D:/Work/DeviceTester/amazon-freertos/lib/third_party/mbedtls/library\ecdh.c ****         return( MBEDTLS_ERR_ECP_BAD_INPUT_DATA );
 438              		.loc 1 190 0
 439 0034 000056E3 		cmp	r6, #0
 440 0038 0800001A 		bne	.L25
 193:D:/Work/DeviceTester/amazon-freertos/lib/third_party/mbedtls/library\ecdh.c ****         ( ret = mbedtls_mpi_copy( &ctx->d, &key->d ) ) != 0 )
 441              		.loc 1 193 0
 442 003c 881085E2 		add	r1, r5, #136
 443 0040 880084E2 		add	r0, r4, #136
 444              	.LVL54:
 445 0044 FEFFFFEB 		bl	mbedtls_ecp_copy
 446              	.LVL55:
 447 0048 000050E3 		cmp	r0, #0
 448 004c 7080BD18 		popne	{r4, r5, r6, pc}
 193:D:/Work/DeviceTester/amazon-freertos/lib/third_party/mbedtls/library\ecdh.c ****         ( ret = mbedtls_mpi_copy( &ctx->d, &key->d ) ) != 0 )
 449              		.loc 1 193 0 is_stmt 0 discriminator 1
 450 0050 7C1085E2 		add	r1, r5, #124
 451 0054 7C0084E2 		add	r0, r4, #124
 452              	.LVL56:
 453              		.loc 1 198 0 is_stmt 1 discriminator 1
 454 0058 7040BDE8 		pop	{r4, r5, r6, lr}
 455              		.cfi_remember_state
 456              		.cfi_restore 14
 457              		.cfi_restore 6
 458              		.cfi_restore 5
 459              		.cfi_restore 4
 460              		.cfi_def_cfa_offset 0
 461              	.LVL57:
 193:D:/Work/DeviceTester/amazon-freertos/lib/third_party/mbedtls/library\ecdh.c ****         ( ret = mbedtls_mpi_copy( &ctx->d, &key->d ) ) != 0 )
 462              		.loc 1 193 0 discriminator 1
 463 005c FEFFFFEA 		b	mbedtls_mpi_copy
 464              	.LVL58:
 465              	.L25:
 466              		.cfi_restore_state
 191:D:/Work/DeviceTester/amazon-freertos/lib/third_party/mbedtls/library\ecdh.c **** 
 467              		.loc 1 191 0
 468 0060 00009FE5 		ldr	r0, .L27
 469              	.LVL59:
 470              		.loc 1 198 0
 471 0064 7080BDE8 		pop	{r4, r5, r6, pc}
 472              	.L28:
 473              		.align	2
 474              	.L27:
 475 0068 80B0FFFF 		.word	-20352
 476              		.cfi_endproc
 477              	.LFE6:
 479              		.section	.text.mbedtls_ecdh_make_public,"ax",%progbits
 480              		.align	2
 481              		.global	mbedtls_ecdh_make_public
 482              		.syntax unified
 483              		.arm
 484              		.fpu neon
 486              	mbedtls_ecdh_make_public:
 487              	.LFB7:
 199:D:/Work/DeviceTester/amazon-freertos/lib/third_party/mbedtls/library\ecdh.c **** 
 200:D:/Work/DeviceTester/amazon-freertos/lib/third_party/mbedtls/library\ecdh.c **** /*
 201:D:/Work/DeviceTester/amazon-freertos/lib/third_party/mbedtls/library\ecdh.c ****  * Setup and export the client public value
 202:D:/Work/DeviceTester/amazon-freertos/lib/third_party/mbedtls/library\ecdh.c ****  */
 203:D:/Work/DeviceTester/amazon-freertos/lib/third_party/mbedtls/library\ecdh.c **** int mbedtls_ecdh_make_public( mbedtls_ecdh_context *ctx, size_t *olen,
 204:D:/Work/DeviceTester/amazon-freertos/lib/third_party/mbedtls/library\ecdh.c ****                       unsigned char *buf, size_t blen,
 205:D:/Work/DeviceTester/amazon-freertos/lib/third_party/mbedtls/library\ecdh.c ****                       int (*f_rng)(void *, unsigned char *, size_t),
 206:D:/Work/DeviceTester/amazon-freertos/lib/third_party/mbedtls/library\ecdh.c ****                       void *p_rng )
 207:D:/Work/DeviceTester/amazon-freertos/lib/third_party/mbedtls/library\ecdh.c **** {
 488              		.loc 1 207 0
 489              		.cfi_startproc
 490              		@ args = 8, pretend = 0, frame = 0
 491              		@ frame_needed = 0, uses_anonymous_args = 0
 492              	.LVL60:
 493 0000 F3412DE9 		push	{r0, r1, r4, r5, r6, r7, r8, lr}
 494              		.cfi_def_cfa_offset 32
 495              		.cfi_offset 4, -24
 496              		.cfi_offset 5, -20
 497              		.cfi_offset 6, -16
 498              		.cfi_offset 7, -12
 499              		.cfi_offset 8, -8
 500              		.cfi_offset 14, -4
 208:D:/Work/DeviceTester/amazon-freertos/lib/third_party/mbedtls/library\ecdh.c ****     int ret;
 209:D:/Work/DeviceTester/amazon-freertos/lib/third_party/mbedtls/library\ecdh.c **** 
 210:D:/Work/DeviceTester/amazon-freertos/lib/third_party/mbedtls/library\ecdh.c ****     if( ctx == NULL || ctx->grp.pbits == 0 )
 501              		.loc 1 210 0
 502 0004 004050E2 		subs	r4, r0, #0
 207:D:/Work/DeviceTester/amazon-freertos/lib/third_party/mbedtls/library\ecdh.c ****     int ret;
 503              		.loc 1 207 0
 504 0008 20C09DE5 		ldr	ip, [sp, #32]
 505 000c 24E09DE5 		ldr	lr, [sp, #36]
 506              		.loc 1 210 0
 507 0010 1600000A 		beq	.L32
 508              		.loc 1 210 0 is_stmt 0 discriminator 1
 509 0014 585094E5 		ldr	r5, [r4, #88]
 510 0018 000055E3 		cmp	r5, #0
 511 001c 1300000A 		beq	.L32
 211:D:/Work/DeviceTester/amazon-freertos/lib/third_party/mbedtls/library\ecdh.c ****         return( MBEDTLS_ERR_ECP_BAD_INPUT_DATA );
 212:D:/Work/DeviceTester/amazon-freertos/lib/third_party/mbedtls/library\ecdh.c **** 
 213:D:/Work/DeviceTester/amazon-freertos/lib/third_party/mbedtls/library\ecdh.c ****     if( ( ret = mbedtls_ecdh_gen_public( &ctx->grp, &ctx->d, &ctx->Q, f_rng, p_rng ) )
 512              		.loc 1 213 0 is_stmt 1
 513 0020 888084E2 		add	r8, r4, #136
 514              	.LVL61:
 515 0024 0370A0E1 		mov	r7, r3
 516 0028 0260A0E1 		mov	r6, r2
 517 002c 0150A0E1 		mov	r5, r1
 518              	.LBB10:
 519              	.LBB11:
  49:D:/Work/DeviceTester/amazon-freertos/lib/third_party/mbedtls/library\ecdh.c **** }
 520              		.loc 1 49 0
 521 0030 00E08DE5 		str	lr, [sp]
 522 0034 0C30A0E1 		mov	r3, ip
 523              	.LVL62:
 524 0038 0820A0E1 		mov	r2, r8
 525              	.LVL63:
 526 003c 7C1084E2 		add	r1, r4, #124
 527              	.LVL64:
 528 0040 FEFFFFEB 		bl	mbedtls_ecp_gen_keypair
 529              	.LVL65:
 530              	.LBE11:
 531              	.LBE10:
 532              		.loc 1 213 0
 533 0044 000050E3 		cmp	r0, #0
 534 0048 0900001A 		bne	.L29
 214:D:/Work/DeviceTester/amazon-freertos/lib/third_party/mbedtls/library\ecdh.c ****                 != 0 )
 215:D:/Work/DeviceTester/amazon-freertos/lib/third_party/mbedtls/library\ecdh.c ****         return( ret );
 216:D:/Work/DeviceTester/amazon-freertos/lib/third_party/mbedtls/library\ecdh.c **** 
 217:D:/Work/DeviceTester/amazon-freertos/lib/third_party/mbedtls/library\ecdh.c ****     return mbedtls_ecp_tls_write_point( &ctx->grp, &ctx->Q, ctx->point_format,
 535              		.loc 1 217 0
 536 004c 24708DE5 		str	r7, [sp, #36]
 537 0050 0530A0E1 		mov	r3, r5
 538 0054 20608DE5 		str	r6, [sp, #32]
 539 0058 0810A0E1 		mov	r1, r8
 540 005c DC2094E5 		ldr	r2, [r4, #220]
 541 0060 0400A0E1 		mov	r0, r4
 218:D:/Work/DeviceTester/amazon-freertos/lib/third_party/mbedtls/library\ecdh.c ****                                 olen, buf, blen );
 219:D:/Work/DeviceTester/amazon-freertos/lib/third_party/mbedtls/library\ecdh.c **** }
 542              		.loc 1 219 0
 543 0064 08D08DE2 		add	sp, sp, #8
 544              		.cfi_remember_state
 545              		.cfi_def_cfa_offset 24
 546              		@ sp needed
 547 0068 F041BDE8 		pop	{r4, r5, r6, r7, r8, lr}
 548              		.cfi_restore 14
 549              		.cfi_restore 8
 550              		.cfi_restore 7
 551              		.cfi_restore 6
 552              		.cfi_restore 5
 553              		.cfi_restore 4
 554              		.cfi_def_cfa_offset 0
 555              	.LVL66:
 217:D:/Work/DeviceTester/amazon-freertos/lib/third_party/mbedtls/library\ecdh.c ****                                 olen, buf, blen );
 556              		.loc 1 217 0
 557 006c FEFFFFEA 		b	mbedtls_ecp_tls_write_point
 558              	.LVL67:
 559              	.L32:
 560              		.cfi_restore_state
 211:D:/Work/DeviceTester/amazon-freertos/lib/third_party/mbedtls/library\ecdh.c **** 
 561              		.loc 1 211 0
 562 0070 04009FE5 		ldr	r0, .L34
 563              	.LVL68:
 564              	.L29:
 565              		.loc 1 219 0
 566 0074 08D08DE2 		add	sp, sp, #8
 567              		.cfi_def_cfa_offset 24
 568              		@ sp needed
 569 0078 F081BDE8 		pop	{r4, r5, r6, r7, r8, pc}
 570              	.LVL69:
 571              	.L35:
 572              		.align	2
 573              	.L34:
 574 007c 80B0FFFF 		.word	-20352
 575              		.cfi_endproc
 576              	.LFE7:
 578              		.section	.text.mbedtls_ecdh_read_public,"ax",%progbits
 579              		.align	2
 580              		.global	mbedtls_ecdh_read_public
 581              		.syntax unified
 582              		.arm
 583              		.fpu neon
 585              	mbedtls_ecdh_read_public:
 586              	.LFB8:
 220:D:/Work/DeviceTester/amazon-freertos/lib/third_party/mbedtls/library\ecdh.c **** 
 221:D:/Work/DeviceTester/amazon-freertos/lib/third_party/mbedtls/library\ecdh.c **** /*
 222:D:/Work/DeviceTester/amazon-freertos/lib/third_party/mbedtls/library\ecdh.c ****  * Parse and import the client's public value
 223:D:/Work/DeviceTester/amazon-freertos/lib/third_party/mbedtls/library\ecdh.c ****  */
 224:D:/Work/DeviceTester/amazon-freertos/lib/third_party/mbedtls/library\ecdh.c **** int mbedtls_ecdh_read_public( mbedtls_ecdh_context *ctx,
 225:D:/Work/DeviceTester/amazon-freertos/lib/third_party/mbedtls/library\ecdh.c ****                       const unsigned char *buf, size_t blen )
 226:D:/Work/DeviceTester/amazon-freertos/lib/third_party/mbedtls/library\ecdh.c **** {
 587              		.loc 1 226 0
 588              		.cfi_startproc
 589              		@ args = 0, pretend = 0, frame = 8
 590              		@ frame_needed = 0, uses_anonymous_args = 0
 591              	.LVL70:
 227:D:/Work/DeviceTester/amazon-freertos/lib/third_party/mbedtls/library\ecdh.c ****     int ret;
 228:D:/Work/DeviceTester/amazon-freertos/lib/third_party/mbedtls/library\ecdh.c ****     const unsigned char *p = buf;
 229:D:/Work/DeviceTester/amazon-freertos/lib/third_party/mbedtls/library\ecdh.c **** 
 230:D:/Work/DeviceTester/amazon-freertos/lib/third_party/mbedtls/library\ecdh.c ****     if( ctx == NULL )
 592              		.loc 1 230 0
 593 0000 00C050E2 		subs	ip, r0, #0
 226:D:/Work/DeviceTester/amazon-freertos/lib/third_party/mbedtls/library\ecdh.c ****     int ret;
 594              		.loc 1 226 0
 595 0004 37402DE9 		push	{r0, r1, r2, r4, r5, lr}
 596              		.cfi_def_cfa_offset 24
 597              		.cfi_offset 4, -12
 598              		.cfi_offset 5, -8
 599              		.cfi_offset 14, -4
 228:D:/Work/DeviceTester/amazon-freertos/lib/third_party/mbedtls/library\ecdh.c **** 
 600              		.loc 1 228 0
 601 0008 04108DE5 		str	r1, [sp, #4]
 602              		.loc 1 230 0
 603 000c 0200001A 		bne	.L37
 604              	.LVL71:
 605              	.L39:
 231:D:/Work/DeviceTester/amazon-freertos/lib/third_party/mbedtls/library\ecdh.c ****         return( MBEDTLS_ERR_ECP_BAD_INPUT_DATA );
 606              		.loc 1 231 0
 607 0010 38009FE5 		ldr	r0, .L41
 608              	.L36:
 232:D:/Work/DeviceTester/amazon-freertos/lib/third_party/mbedtls/library\ecdh.c **** 
 233:D:/Work/DeviceTester/amazon-freertos/lib/third_party/mbedtls/library\ecdh.c ****     if( ( ret = mbedtls_ecp_tls_read_point( &ctx->grp, &ctx->Qp, &p, blen ) ) != 0 )
 234:D:/Work/DeviceTester/amazon-freertos/lib/third_party/mbedtls/library\ecdh.c ****         return( ret );
 235:D:/Work/DeviceTester/amazon-freertos/lib/third_party/mbedtls/library\ecdh.c **** 
 236:D:/Work/DeviceTester/amazon-freertos/lib/third_party/mbedtls/library\ecdh.c ****     if( (size_t)( p - buf ) != blen )
 237:D:/Work/DeviceTester/amazon-freertos/lib/third_party/mbedtls/library\ecdh.c ****         return( MBEDTLS_ERR_ECP_BAD_INPUT_DATA );
 238:D:/Work/DeviceTester/amazon-freertos/lib/third_party/mbedtls/library\ecdh.c **** 
 239:D:/Work/DeviceTester/amazon-freertos/lib/third_party/mbedtls/library\ecdh.c ****     return( 0 );
 240:D:/Work/DeviceTester/amazon-freertos/lib/third_party/mbedtls/library\ecdh.c **** }
 609              		.loc 1 240 0
 610 0014 0CD08DE2 		add	sp, sp, #12
 611              		.cfi_remember_state
 612              		.cfi_def_cfa_offset 12
 613              		@ sp needed
 614 0018 3080BDE8 		pop	{r4, r5, pc}
 615              	.LVL72:
 616              	.L37:
 617              		.cfi_restore_state
 233:D:/Work/DeviceTester/amazon-freertos/lib/third_party/mbedtls/library\ecdh.c ****         return( ret );
 618              		.loc 1 233 0
 619 001c 0230A0E1 		mov	r3, r2
 620 0020 0240A0E1 		mov	r4, r2
 621 0024 0150A0E1 		mov	r5, r1
 622 0028 04208DE2 		add	r2, sp, #4
 623              	.LVL73:
 624 002c AC108CE2 		add	r1, ip, #172
 625              	.LVL74:
 626 0030 FEFFFFEB 		bl	mbedtls_ecp_tls_read_point
 627              	.LVL75:
 628 0034 000050E3 		cmp	r0, #0
 629 0038 F5FFFF1A 		bne	.L36
 236:D:/Work/DeviceTester/amazon-freertos/lib/third_party/mbedtls/library\ecdh.c ****         return( MBEDTLS_ERR_ECP_BAD_INPUT_DATA );
 630              		.loc 1 236 0
 631 003c 04109DE5 		ldr	r1, [sp, #4]
 632 0040 051041E0 		sub	r1, r1, r5
 633 0044 010054E1 		cmp	r4, r1
 634 0048 F1FFFF0A 		beq	.L36
 635 004c EFFFFFEA 		b	.L39
 636              	.L42:
 637              		.align	2
 638              	.L41:
 639 0050 80B0FFFF 		.word	-20352
 640              		.cfi_endproc
 641              	.LFE8:
 643              		.section	.text.mbedtls_ecdh_calc_secret,"ax",%progbits
 644              		.align	2
 645              		.global	mbedtls_ecdh_calc_secret
 646              		.syntax unified
 647              		.arm
 648              		.fpu neon
 650              	mbedtls_ecdh_calc_secret:
 651              	.LFB9:
 241:D:/Work/DeviceTester/amazon-freertos/lib/third_party/mbedtls/library\ecdh.c **** 
 242:D:/Work/DeviceTester/amazon-freertos/lib/third_party/mbedtls/library\ecdh.c **** /*
 243:D:/Work/DeviceTester/amazon-freertos/lib/third_party/mbedtls/library\ecdh.c ****  * Derive and export the shared secret
 244:D:/Work/DeviceTester/amazon-freertos/lib/third_party/mbedtls/library\ecdh.c ****  */
 245:D:/Work/DeviceTester/amazon-freertos/lib/third_party/mbedtls/library\ecdh.c **** int mbedtls_ecdh_calc_secret( mbedtls_ecdh_context *ctx, size_t *olen,
 246:D:/Work/DeviceTester/amazon-freertos/lib/third_party/mbedtls/library\ecdh.c ****                       unsigned char *buf, size_t blen,
 247:D:/Work/DeviceTester/amazon-freertos/lib/third_party/mbedtls/library\ecdh.c ****                       int (*f_rng)(void *, unsigned char *, size_t),
 248:D:/Work/DeviceTester/amazon-freertos/lib/third_party/mbedtls/library\ecdh.c ****                       void *p_rng )
 249:D:/Work/DeviceTester/amazon-freertos/lib/third_party/mbedtls/library\ecdh.c **** {
 652              		.loc 1 249 0
 653              		.cfi_startproc
 654              		@ args = 8, pretend = 0, frame = 0
 655              		@ frame_needed = 0, uses_anonymous_args = 0
 656              	.LVL76:
 657 0000 F3412DE9 		push	{r0, r1, r4, r5, r6, r7, r8, lr}
 658              		.cfi_def_cfa_offset 32
 659              		.cfi_offset 4, -24
 660              		.cfi_offset 5, -20
 661              		.cfi_offset 6, -16
 662              		.cfi_offset 7, -12
 663              		.cfi_offset 8, -8
 664              		.cfi_offset 14, -4
 250:D:/Work/DeviceTester/amazon-freertos/lib/third_party/mbedtls/library\ecdh.c ****     int ret;
 251:D:/Work/DeviceTester/amazon-freertos/lib/third_party/mbedtls/library\ecdh.c **** 
 252:D:/Work/DeviceTester/amazon-freertos/lib/third_party/mbedtls/library\ecdh.c ****     if( ctx == NULL )
 665              		.loc 1 252 0
 666 0004 004050E2 		subs	r4, r0, #0
 249:D:/Work/DeviceTester/amazon-freertos/lib/third_party/mbedtls/library\ecdh.c ****     int ret;
 667              		.loc 1 249 0
 668 0008 20C09DE5 		ldr	ip, [sp, #32]
 669 000c 24E09DE5 		ldr	lr, [sp, #36]
 670              		.loc 1 252 0
 671 0010 0200001A 		bne	.L44
 672              	.LVL77:
 673              	.L46:
 253:D:/Work/DeviceTester/amazon-freertos/lib/third_party/mbedtls/library\ecdh.c ****         return( MBEDTLS_ERR_ECP_BAD_INPUT_DATA );
 674              		.loc 1 253 0
 675 0014 68009FE5 		ldr	r0, .L48
 676              	.L43:
 254:D:/Work/DeviceTester/amazon-freertos/lib/third_party/mbedtls/library\ecdh.c **** 
 255:D:/Work/DeviceTester/amazon-freertos/lib/third_party/mbedtls/library\ecdh.c ****     if( ( ret = mbedtls_ecdh_compute_shared( &ctx->grp, &ctx->z, &ctx->Qp, &ctx->d,
 256:D:/Work/DeviceTester/amazon-freertos/lib/third_party/mbedtls/library\ecdh.c ****                                      f_rng, p_rng ) ) != 0 )
 257:D:/Work/DeviceTester/amazon-freertos/lib/third_party/mbedtls/library\ecdh.c ****     {
 258:D:/Work/DeviceTester/amazon-freertos/lib/third_party/mbedtls/library\ecdh.c ****         return( ret );
 259:D:/Work/DeviceTester/amazon-freertos/lib/third_party/mbedtls/library\ecdh.c ****     }
 260:D:/Work/DeviceTester/amazon-freertos/lib/third_party/mbedtls/library\ecdh.c **** 
 261:D:/Work/DeviceTester/amazon-freertos/lib/third_party/mbedtls/library\ecdh.c ****     if( mbedtls_mpi_size( &ctx->z ) > blen )
 262:D:/Work/DeviceTester/amazon-freertos/lib/third_party/mbedtls/library\ecdh.c ****         return( MBEDTLS_ERR_ECP_BAD_INPUT_DATA );
 263:D:/Work/DeviceTester/amazon-freertos/lib/third_party/mbedtls/library\ecdh.c **** 
 264:D:/Work/DeviceTester/amazon-freertos/lib/third_party/mbedtls/library\ecdh.c ****     *olen = ctx->grp.pbits / 8 + ( ( ctx->grp.pbits % 8 ) != 0 );
 265:D:/Work/DeviceTester/amazon-freertos/lib/third_party/mbedtls/library\ecdh.c ****     return mbedtls_mpi_write_binary( &ctx->z, buf, *olen );
 266:D:/Work/DeviceTester/amazon-freertos/lib/third_party/mbedtls/library\ecdh.c **** }
 677              		.loc 1 266 0
 678 0018 08D08DE2 		add	sp, sp, #8
 679              		.cfi_remember_state
 680              		.cfi_def_cfa_offset 24
 681              		@ sp needed
 682 001c F081BDE8 		pop	{r4, r5, r6, r7, r8, pc}
 683              	.LVL78:
 684              	.L44:
 685              		.cfi_restore_state
 255:D:/Work/DeviceTester/amazon-freertos/lib/third_party/mbedtls/library\ecdh.c ****                                      f_rng, p_rng ) ) != 0 )
 686              		.loc 1 255 0
 687 0020 D05084E2 		add	r5, r4, #208
 688 0024 0380A0E1 		mov	r8, r3
 689 0028 0260A0E1 		mov	r6, r2
 690 002c 0170A0E1 		mov	r7, r1
 691 0030 00508DE8 		stm	sp, {ip, lr}
 692 0034 7C3084E2 		add	r3, r4, #124
 693              	.LVL79:
 694 0038 AC2084E2 		add	r2, r4, #172
 695              	.LVL80:
 696 003c 0510A0E1 		mov	r1, r5
 697              	.LVL81:
 698 0040 FEFFFFEB 		bl	mbedtls_ecdh_compute_shared
 699              	.LVL82:
 700 0044 000050E3 		cmp	r0, #0
 701 0048 F2FFFF1A 		bne	.L43
 261:D:/Work/DeviceTester/amazon-freertos/lib/third_party/mbedtls/library\ecdh.c ****         return( MBEDTLS_ERR_ECP_BAD_INPUT_DATA );
 702              		.loc 1 261 0
 703 004c 0500A0E1 		mov	r0, r5
 704              	.LVL83:
 705 0050 FEFFFFEB 		bl	mbedtls_mpi_size
 706              	.LVL84:
 707 0054 080050E1 		cmp	r0, r8
 708 0058 EDFFFF8A 		bhi	.L46
 264:D:/Work/DeviceTester/amazon-freertos/lib/third_party/mbedtls/library\ecdh.c ****     return mbedtls_mpi_write_binary( &ctx->z, buf, *olen );
 709              		.loc 1 264 0
 710 005c 582094E5 		ldr	r2, [r4, #88]
 265:D:/Work/DeviceTester/amazon-freertos/lib/third_party/mbedtls/library\ecdh.c **** }
 711              		.loc 1 265 0
 712 0060 0610A0E1 		mov	r1, r6
 713 0064 0500A0E1 		mov	r0, r5
 264:D:/Work/DeviceTester/amazon-freertos/lib/third_party/mbedtls/library\ecdh.c ****     return mbedtls_mpi_write_binary( &ctx->z, buf, *olen );
 714              		.loc 1 264 0
 715 0068 073012E2 		ands	r3, r2, #7
 716 006c 0130A013 		movne	r3, #1
 717 0070 A22183E0 		add	r2, r3, r2, lsr #3
 718 0074 002087E5 		str	r2, [r7]
 719              		.loc 1 266 0
 720 0078 08D08DE2 		add	sp, sp, #8
 721              		.cfi_def_cfa_offset 24
 722              		@ sp needed
 723 007c F041BDE8 		pop	{r4, r5, r6, r7, r8, lr}
 724              		.cfi_restore 14
 725              		.cfi_restore 8
 726              		.cfi_restore 7
 727              		.cfi_restore 6
 728              		.cfi_restore 5
 729              		.cfi_restore 4
 730              		.cfi_def_cfa_offset 0
 731              	.LVL85:
 265:D:/Work/DeviceTester/amazon-freertos/lib/third_party/mbedtls/library\ecdh.c **** }
 732              		.loc 1 265 0
 733 0080 FEFFFFEA 		b	mbedtls_mpi_write_binary
 734              	.LVL86:
 735              	.L49:
 736              		.align	2
 737              	.L48:
 738 0084 80B0FFFF 		.word	-20352
 739              		.cfi_endproc
 740              	.LFE9:
 742              		.text
 743              	.Letext0:
 744              		.file 2 "c:\\program files (x86)\\gnu tools arm embedded\\6 2017-q2-update\\arm-none-eabi\\include
 745              		.file 3 "c:\\program files (x86)\\gnu tools arm embedded\\6 2017-q2-update\\lib\\gcc\\arm-none-eab
 746              		.file 4 "c:\\program files (x86)\\gnu tools arm embedded\\6 2017-q2-update\\arm-none-eabi\\include
 747              		.file 5 "D:\\Work\\DeviceTester\\amazon-freertos\\lib\\third_party\\mbedtls\\include/mbedtls/bignu
 748              		.file 6 "D:\\Work\\DeviceTester\\amazon-freertos\\lib\\third_party\\mbedtls\\include/mbedtls/ecp.h
 749              		.file 7 "D:\\Work\\DeviceTester\\amazon-freertos\\lib\\third_party\\mbedtls\\include/mbedtls/ecdh.
 750              		.file 8 "c:\\program files (x86)\\gnu tools arm embedded\\6 2017-q2-update\\arm-none-eabi\\include
 751              		.file 9 "c:\\program files (x86)\\gnu tools arm embedded\\6 2017-q2-update\\arm-none-eabi\\include
 752              		.file 10 "c:\\program files (x86)\\gnu tools arm embedded\\6 2017-q2-update\\arm-none-eabi\\includ