   1              		.cpu cortex-a9
   2              		.eabi_attribute 28, 1
   3              		.eabi_attribute 20, 1
   4              		.eabi_attribute 21, 1
   5              		.eabi_attribute 23, 3
   6              		.eabi_attribute 24, 1
   7              		.eabi_attribute 25, 1
   8              		.eabi_attribute 26, 1
   9              		.eabi_attribute 30, 4
  10              		.eabi_attribute 34, 0
  11              		.eabi_attribute 18, 4
  12              		.file	"ecdsa.c"
  13              		.text
  14              	.Ltext0:
  15              		.cfi_sections	.debug_frame
  16              		.section	.text.derive_mpi,"ax",%progbits
  17              		.align	2
  18              		.syntax unified
  19              		.arm
  20              		.fpu neon
  22              	derive_mpi:
  23              	.LFB0:
  24              		.file 1 "D:/Work/DeviceTester/amazon-freertos/lib/third_party/mbedtls/library/ecdsa.c"
   1:D:/Work/DeviceTester/amazon-freertos/lib/third_party/mbedtls/library\ecdsa.c **** /*
   2:D:/Work/DeviceTester/amazon-freertos/lib/third_party/mbedtls/library\ecdsa.c ****  *  Elliptic curve DSA
   3:D:/Work/DeviceTester/amazon-freertos/lib/third_party/mbedtls/library\ecdsa.c ****  *
   4:D:/Work/DeviceTester/amazon-freertos/lib/third_party/mbedtls/library\ecdsa.c ****  *  Copyright (C) 2006-2015, ARM Limited, All Rights Reserved
   5:D:/Work/DeviceTester/amazon-freertos/lib/third_party/mbedtls/library\ecdsa.c ****  *  SPDX-License-Identifier: Apache-2.0
   6:D:/Work/DeviceTester/amazon-freertos/lib/third_party/mbedtls/library\ecdsa.c ****  *
   7:D:/Work/DeviceTester/amazon-freertos/lib/third_party/mbedtls/library\ecdsa.c ****  *  Licensed under the Apache License, Version 2.0 (the "License"); you may
   8:D:/Work/DeviceTester/amazon-freertos/lib/third_party/mbedtls/library\ecdsa.c ****  *  not use this file except in compliance with the License.
   9:D:/Work/DeviceTester/amazon-freertos/lib/third_party/mbedtls/library\ecdsa.c ****  *  You may obtain a copy of the License at
  10:D:/Work/DeviceTester/amazon-freertos/lib/third_party/mbedtls/library\ecdsa.c ****  *
  11:D:/Work/DeviceTester/amazon-freertos/lib/third_party/mbedtls/library\ecdsa.c ****  *  http://www.apache.org/licenses/LICENSE-2.0
  12:D:/Work/DeviceTester/amazon-freertos/lib/third_party/mbedtls/library\ecdsa.c ****  *
  13:D:/Work/DeviceTester/amazon-freertos/lib/third_party/mbedtls/library\ecdsa.c ****  *  Unless required by applicable law or agreed to in writing, software
  14:D:/Work/DeviceTester/amazon-freertos/lib/third_party/mbedtls/library\ecdsa.c ****  *  distributed under the License is distributed on an "AS IS" BASIS, WITHOUT
  15:D:/Work/DeviceTester/amazon-freertos/lib/third_party/mbedtls/library\ecdsa.c ****  *  WARRANTIES OR CONDITIONS OF ANY KIND, either express or implied.
  16:D:/Work/DeviceTester/amazon-freertos/lib/third_party/mbedtls/library\ecdsa.c ****  *  See the License for the specific language governing permissions and
  17:D:/Work/DeviceTester/amazon-freertos/lib/third_party/mbedtls/library\ecdsa.c ****  *  limitations under the License.
  18:D:/Work/DeviceTester/amazon-freertos/lib/third_party/mbedtls/library\ecdsa.c ****  *
  19:D:/Work/DeviceTester/amazon-freertos/lib/third_party/mbedtls/library\ecdsa.c ****  *  This file is part of mbed TLS (https://tls.mbed.org)
  20:D:/Work/DeviceTester/amazon-freertos/lib/third_party/mbedtls/library\ecdsa.c ****  */
  21:D:/Work/DeviceTester/amazon-freertos/lib/third_party/mbedtls/library\ecdsa.c **** 
  22:D:/Work/DeviceTester/amazon-freertos/lib/third_party/mbedtls/library\ecdsa.c **** /*
  23:D:/Work/DeviceTester/amazon-freertos/lib/third_party/mbedtls/library\ecdsa.c ****  * References:
  24:D:/Work/DeviceTester/amazon-freertos/lib/third_party/mbedtls/library\ecdsa.c ****  *
  25:D:/Work/DeviceTester/amazon-freertos/lib/third_party/mbedtls/library\ecdsa.c ****  * SEC1 http://www.secg.org/index.php?action=secg,docs_secg
  26:D:/Work/DeviceTester/amazon-freertos/lib/third_party/mbedtls/library\ecdsa.c ****  */
  27:D:/Work/DeviceTester/amazon-freertos/lib/third_party/mbedtls/library\ecdsa.c **** 
  28:D:/Work/DeviceTester/amazon-freertos/lib/third_party/mbedtls/library\ecdsa.c **** #if !defined(MBEDTLS_CONFIG_FILE)
  29:D:/Work/DeviceTester/amazon-freertos/lib/third_party/mbedtls/library\ecdsa.c **** #include "mbedtls/config.h"
  30:D:/Work/DeviceTester/amazon-freertos/lib/third_party/mbedtls/library\ecdsa.c **** #else
  31:D:/Work/DeviceTester/amazon-freertos/lib/third_party/mbedtls/library\ecdsa.c **** #include MBEDTLS_CONFIG_FILE
  32:D:/Work/DeviceTester/amazon-freertos/lib/third_party/mbedtls/library\ecdsa.c **** #endif
  33:D:/Work/DeviceTester/amazon-freertos/lib/third_party/mbedtls/library\ecdsa.c **** 
  34:D:/Work/DeviceTester/amazon-freertos/lib/third_party/mbedtls/library\ecdsa.c **** #if defined(MBEDTLS_ECDSA_C)
  35:D:/Work/DeviceTester/amazon-freertos/lib/third_party/mbedtls/library\ecdsa.c **** 
  36:D:/Work/DeviceTester/amazon-freertos/lib/third_party/mbedtls/library\ecdsa.c **** #include "mbedtls/ecdsa.h"
  37:D:/Work/DeviceTester/amazon-freertos/lib/third_party/mbedtls/library\ecdsa.c **** #include "mbedtls/asn1write.h"
  38:D:/Work/DeviceTester/amazon-freertos/lib/third_party/mbedtls/library\ecdsa.c **** 
  39:D:/Work/DeviceTester/amazon-freertos/lib/third_party/mbedtls/library\ecdsa.c **** #include <string.h>
  40:D:/Work/DeviceTester/amazon-freertos/lib/third_party/mbedtls/library\ecdsa.c **** 
  41:D:/Work/DeviceTester/amazon-freertos/lib/third_party/mbedtls/library\ecdsa.c **** #if defined(MBEDTLS_ECDSA_DETERMINISTIC)
  42:D:/Work/DeviceTester/amazon-freertos/lib/third_party/mbedtls/library\ecdsa.c **** #include "mbedtls/hmac_drbg.h"
  43:D:/Work/DeviceTester/amazon-freertos/lib/third_party/mbedtls/library\ecdsa.c **** #endif
  44:D:/Work/DeviceTester/amazon-freertos/lib/third_party/mbedtls/library\ecdsa.c **** 
  45:D:/Work/DeviceTester/amazon-freertos/lib/third_party/mbedtls/library\ecdsa.c **** /*
  46:D:/Work/DeviceTester/amazon-freertos/lib/third_party/mbedtls/library\ecdsa.c ****  * Derive a suitable integer for group grp from a buffer of length len
  47:D:/Work/DeviceTester/amazon-freertos/lib/third_party/mbedtls/library\ecdsa.c ****  * SEC1 4.1.3 step 5 aka SEC1 4.1.4 step 3
  48:D:/Work/DeviceTester/amazon-freertos/lib/third_party/mbedtls/library\ecdsa.c ****  */
  49:D:/Work/DeviceTester/amazon-freertos/lib/third_party/mbedtls/library\ecdsa.c **** static int derive_mpi( const mbedtls_ecp_group *grp, mbedtls_mpi *x,
  50:D:/Work/DeviceTester/amazon-freertos/lib/third_party/mbedtls/library\ecdsa.c ****                        const unsigned char *buf, size_t blen )
  51:D:/Work/DeviceTester/amazon-freertos/lib/third_party/mbedtls/library\ecdsa.c **** {
  25              		.loc 1 51 0
  26              		.cfi_startproc
  27              		@ args = 0, pretend = 0, frame = 0
  28              		@ frame_needed = 0, uses_anonymous_args = 0
  29              	.LVL0:
  30 0000 F0412DE9 		push	{r4, r5, r6, r7, r8, lr}
  31              		.cfi_def_cfa_offset 24
  32              		.cfi_offset 4, -24
  33              		.cfi_offset 5, -20
  34              		.cfi_offset 6, -16
  35              		.cfi_offset 7, -12
  36              		.cfi_offset 8, -8
  37              		.cfi_offset 14, -4
  38              		.loc 1 51 0
  39 0004 0160A0E1 		mov	r6, r1
  52:D:/Work/DeviceTester/amazon-freertos/lib/third_party/mbedtls/library\ecdsa.c ****     int ret;
  53:D:/Work/DeviceTester/amazon-freertos/lib/third_party/mbedtls/library\ecdsa.c ****     size_t n_size = ( grp->nbits + 7 ) / 8;
  40              		.loc 1 53 0
  41 0008 5C4090E5 		ldr	r4, [r0, #92]
  51:D:/Work/DeviceTester/amazon-freertos/lib/third_party/mbedtls/library\ecdsa.c ****     int ret;
  42              		.loc 1 51 0
  43 000c 0210A0E1 		mov	r1, r2
  44              	.LVL1:
  45 0010 0050A0E1 		mov	r5, r0
  54:D:/Work/DeviceTester/amazon-freertos/lib/third_party/mbedtls/library\ecdsa.c ****     size_t use_size = blen > n_size ? n_size : blen;
  55:D:/Work/DeviceTester/amazon-freertos/lib/third_party/mbedtls/library\ecdsa.c **** 
  56:D:/Work/DeviceTester/amazon-freertos/lib/third_party/mbedtls/library\ecdsa.c ****     MBEDTLS_MPI_CHK( mbedtls_mpi_read_binary( x, buf, use_size ) );
  46              		.loc 1 56 0
  47 0014 0600A0E1 		mov	r0, r6
  48              	.LVL2:
  53:D:/Work/DeviceTester/amazon-freertos/lib/third_party/mbedtls/library\ecdsa.c ****     size_t use_size = blen > n_size ? n_size : blen;
  49              		.loc 1 53 0
  50 0018 074084E2 		add	r4, r4, #7
  51 001c A441A0E1 		lsr	r4, r4, #3
  54:D:/Work/DeviceTester/amazon-freertos/lib/third_party/mbedtls/library\ecdsa.c ****     size_t use_size = blen > n_size ? n_size : blen;
  52              		.loc 1 54 0
  53 0020 030054E1 		cmp	r4, r3
  54 0024 0340A021 		movcs	r4, r3
  55              	.LVL3:
  56              		.loc 1 56 0
  57 0028 0420A0E1 		mov	r2, r4
  58              	.LVL4:
  59 002c FEFFFFEB 		bl	mbedtls_mpi_read_binary
  60              	.LVL5:
  61 0030 007050E2 		subs	r7, r0, #0
  62 0034 0900001A 		bne	.L1
  57:D:/Work/DeviceTester/amazon-freertos/lib/third_party/mbedtls/library\ecdsa.c ****     if( use_size * 8 > grp->nbits )
  63              		.loc 1 57 0
  64 0038 5C1095E5 		ldr	r1, [r5, #92]
  65 003c 8441A0E1 		lsl	r4, r4, #3
  66              	.LVL6:
  67 0040 010054E1 		cmp	r4, r1
  68 0044 0700008A 		bhi	.L3
  69              	.LVL7:
  70              	.L5:
  58:D:/Work/DeviceTester/amazon-freertos/lib/third_party/mbedtls/library\ecdsa.c ****         MBEDTLS_MPI_CHK( mbedtls_mpi_shift_r( x, use_size * 8 - grp->nbits ) );
  59:D:/Work/DeviceTester/amazon-freertos/lib/third_party/mbedtls/library\ecdsa.c **** 
  60:D:/Work/DeviceTester/amazon-freertos/lib/third_party/mbedtls/library\ecdsa.c ****     /* While at it, reduce modulo N */
  61:D:/Work/DeviceTester/amazon-freertos/lib/third_party/mbedtls/library\ecdsa.c ****     if( mbedtls_mpi_cmp_mpi( x, &grp->N ) >= 0 )
  71              		.loc 1 61 0
  72 0048 4C5085E2 		add	r5, r5, #76
  73              	.LVL8:
  74 004c 0600A0E1 		mov	r0, r6
  75 0050 0510A0E1 		mov	r1, r5
  76 0054 FEFFFFEB 		bl	mbedtls_mpi_cmp_mpi
  77              	.LVL9:
  78 0058 000050E3 		cmp	r0, #0
  79 005c 080000AA 		bge	.L4
  80              	.LVL10:
  81              	.L1:
  62:D:/Work/DeviceTester/amazon-freertos/lib/third_party/mbedtls/library\ecdsa.c ****         MBEDTLS_MPI_CHK( mbedtls_mpi_sub_mpi( x, x, &grp->N ) );
  63:D:/Work/DeviceTester/amazon-freertos/lib/third_party/mbedtls/library\ecdsa.c **** 
  64:D:/Work/DeviceTester/amazon-freertos/lib/third_party/mbedtls/library\ecdsa.c **** cleanup:
  65:D:/Work/DeviceTester/amazon-freertos/lib/third_party/mbedtls/library\ecdsa.c ****     return( ret );
  66:D:/Work/DeviceTester/amazon-freertos/lib/third_party/mbedtls/library\ecdsa.c **** }
  82              		.loc 1 66 0
  83 0060 0700A0E1 		mov	r0, r7
  84 0064 F081BDE8 		pop	{r4, r5, r6, r7, r8, pc}
  85              	.LVL11:
  86              	.L3:
  58:D:/Work/DeviceTester/amazon-freertos/lib/third_party/mbedtls/library\ecdsa.c ****         MBEDTLS_MPI_CHK( mbedtls_mpi_shift_r( x, use_size * 8 - grp->nbits ) );
  87              		.loc 1 58 0
  88 0068 011044E0 		sub	r1, r4, r1
  89 006c 0600A0E1 		mov	r0, r6
  90              	.LVL12:
  91 0070 FEFFFFEB 		bl	mbedtls_mpi_shift_r
  92              	.LVL13:
  93 0074 000050E3 		cmp	r0, #0
  94 0078 F2FFFF0A 		beq	.L5
  95              	.L2:
  96 007c 0070A0E1 		mov	r7, r0
  65:D:/Work/DeviceTester/amazon-freertos/lib/third_party/mbedtls/library\ecdsa.c **** }
  97              		.loc 1 65 0
  98 0080 F6FFFFEA 		b	.L1
  99              	.LVL14:
 100              	.L4:
  62:D:/Work/DeviceTester/amazon-freertos/lib/third_party/mbedtls/library\ecdsa.c ****         MBEDTLS_MPI_CHK( mbedtls_mpi_sub_mpi( x, x, &grp->N ) );
 101              		.loc 1 62 0
 102 0084 0520A0E1 		mov	r2, r5
 103 0088 0610A0E1 		mov	r1, r6
 104 008c 0600A0E1 		mov	r0, r6
 105              		.loc 1 66 0
 106 0090 F041BDE8 		pop	{r4, r5, r6, r7, r8, lr}
 107              		.cfi_restore 14
 108              		.cfi_restore 8
 109              		.cfi_restore 7
 110              		.cfi_restore 6
 111              		.cfi_restore 5
 112              		.cfi_restore 4
 113              		.cfi_def_cfa_offset 0
 114              	.LVL15:
  62:D:/Work/DeviceTester/amazon-freertos/lib/third_party/mbedtls/library\ecdsa.c ****         MBEDTLS_MPI_CHK( mbedtls_mpi_sub_mpi( x, x, &grp->N ) );
 115              		.loc 1 62 0
 116 0094 FEFFFFEA 		b	mbedtls_mpi_sub_mpi
 117              	.LVL16:
 118              		.cfi_endproc
 119              	.LFE0:
 121              		.section	.text.mbedtls_ecdsa_sign,"ax",%progbits
 122              		.align	2
 123              		.global	mbedtls_ecdsa_sign
 124              		.syntax unified
 125              		.arm
 126              		.fpu neon
 128              	mbedtls_ecdsa_sign:
 129              	.LFB1:
  67:D:/Work/DeviceTester/amazon-freertos/lib/third_party/mbedtls/library\ecdsa.c **** 
  68:D:/Work/DeviceTester/amazon-freertos/lib/third_party/mbedtls/library\ecdsa.c **** #if !defined(MBEDTLS_ECDSA_SIGN_ALT)
  69:D:/Work/DeviceTester/amazon-freertos/lib/third_party/mbedtls/library\ecdsa.c **** /*
  70:D:/Work/DeviceTester/amazon-freertos/lib/third_party/mbedtls/library\ecdsa.c ****  * Compute ECDSA signature of a hashed message (SEC1 4.1.3)
  71:D:/Work/DeviceTester/amazon-freertos/lib/third_party/mbedtls/library\ecdsa.c ****  * Obviously, compared to SEC1 4.1.3, we skip step 4 (hash message)
  72:D:/Work/DeviceTester/amazon-freertos/lib/third_party/mbedtls/library\ecdsa.c ****  */
  73:D:/Work/DeviceTester/amazon-freertos/lib/third_party/mbedtls/library\ecdsa.c **** int mbedtls_ecdsa_sign( mbedtls_ecp_group *grp, mbedtls_mpi *r, mbedtls_mpi *s,
  74:D:/Work/DeviceTester/amazon-freertos/lib/third_party/mbedtls/library\ecdsa.c ****                 const mbedtls_mpi *d, const unsigned char *buf, size_t blen,
  75:D:/Work/DeviceTester/amazon-freertos/lib/third_party/mbedtls/library\ecdsa.c ****                 int (*f_rng)(void *, unsigned char *, size_t), void *p_rng )
  76:D:/Work/DeviceTester/amazon-freertos/lib/third_party/mbedtls/library\ecdsa.c **** {
 130              		.loc 1 76 0
 131              		.cfi_startproc
 132              		@ args = 16, pretend = 0, frame = 88
 133              		@ frame_needed = 0, uses_anonymous_args = 0
 134              	.LVL17:
  77:D:/Work/DeviceTester/amazon-freertos/lib/third_party/mbedtls/library\ecdsa.c ****     int ret, key_tries, sign_tries, blind_tries;
  78:D:/Work/DeviceTester/amazon-freertos/lib/third_party/mbedtls/library\ecdsa.c ****     mbedtls_ecp_point R;
  79:D:/Work/DeviceTester/amazon-freertos/lib/third_party/mbedtls/library\ecdsa.c ****     mbedtls_mpi k, e, t;
  80:D:/Work/DeviceTester/amazon-freertos/lib/third_party/mbedtls/library\ecdsa.c **** 
  81:D:/Work/DeviceTester/amazon-freertos/lib/third_party/mbedtls/library\ecdsa.c ****     /* Fail cleanly on curves such as Curve25519 that can't be used for ECDSA */
  82:D:/Work/DeviceTester/amazon-freertos/lib/third_party/mbedtls/library\ecdsa.c ****     if( grp->N.p == NULL )
 135              		.loc 1 82 0
 136 0000 54C090E5 		ldr	ip, [r0, #84]
  76:D:/Work/DeviceTester/amazon-freertos/lib/third_party/mbedtls/library\ecdsa.c ****     int ret, key_tries, sign_tries, blind_tries;
 137              		.loc 1 76 0
 138 0004 F04F2DE9 		push	{r4, r5, r6, r7, r8, r9, r10, fp, lr}
 139              		.cfi_def_cfa_offset 36
 140              		.cfi_offset 4, -36
 141              		.cfi_offset 5, -32
 142              		.cfi_offset 6, -28
 143              		.cfi_offset 7, -24
 144              		.cfi_offset 8, -20
 145              		.cfi_offset 9, -16
 146              		.cfi_offset 10, -12
 147              		.cfi_offset 11, -8
 148              		.cfi_offset 14, -4
 149 0008 64D04DE2 		sub	sp, sp, #100
 150              		.cfi_def_cfa_offset 136
 151              		.loc 1 82 0
 152 000c 00005CE3 		cmp	ip, #0
  83:D:/Work/DeviceTester/amazon-freertos/lib/third_party/mbedtls/library\ecdsa.c ****         return( MBEDTLS_ERR_ECP_BAD_INPUT_DATA );
 153              		.loc 1 83 0
 154 0010 74B29F05 		ldreq	fp, .L26
  82:D:/Work/DeviceTester/amazon-freertos/lib/third_party/mbedtls/library\ecdsa.c ****         return( MBEDTLS_ERR_ECP_BAD_INPUT_DATA );
 155              		.loc 1 82 0
 156 0014 0900000A 		beq	.L8
 157 0018 0C108DE5 		str	r1, [sp, #12]
 158 001c 0070A0E1 		mov	r7, r0
  84:D:/Work/DeviceTester/amazon-freertos/lib/third_party/mbedtls/library\ecdsa.c **** 
  85:D:/Work/DeviceTester/amazon-freertos/lib/third_party/mbedtls/library\ecdsa.c ****     /* Make sure d is in range 1..n-1 */
  86:D:/Work/DeviceTester/amazon-freertos/lib/third_party/mbedtls/library\ecdsa.c ****     if( mbedtls_mpi_cmp_int( d, 1 ) < 0 || mbedtls_mpi_cmp_mpi( d, &grp->N ) >= 0 )
 159              		.loc 1 86 0
 160 0020 0110A0E3 		mov	r1, #1
 161              	.LVL18:
 162 0024 0300A0E1 		mov	r0, r3
 163              	.LVL19:
 164 0028 03A0A0E1 		mov	r10, r3
 165 002c 0240A0E1 		mov	r4, r2
 166 0030 FEFFFFEB 		bl	mbedtls_mpi_cmp_int
 167              	.LVL20:
 168 0034 000050E3 		cmp	r0, #0
 169 0038 030000AA 		bge	.L10
 170              	.L11:
  87:D:/Work/DeviceTester/amazon-freertos/lib/third_party/mbedtls/library\ecdsa.c ****         return( MBEDTLS_ERR_ECP_INVALID_KEY );
 171              		.loc 1 87 0
 172 003c 4CB29FE5 		ldr	fp, .L26+4
 173              	.LVL21:
 174              	.L8:
  88:D:/Work/DeviceTester/amazon-freertos/lib/third_party/mbedtls/library\ecdsa.c **** 
  89:D:/Work/DeviceTester/amazon-freertos/lib/third_party/mbedtls/library\ecdsa.c ****     mbedtls_ecp_point_init( &R );
  90:D:/Work/DeviceTester/amazon-freertos/lib/third_party/mbedtls/library\ecdsa.c ****     mbedtls_mpi_init( &k ); mbedtls_mpi_init( &e ); mbedtls_mpi_init( &t );
  91:D:/Work/DeviceTester/amazon-freertos/lib/third_party/mbedtls/library\ecdsa.c **** 
  92:D:/Work/DeviceTester/amazon-freertos/lib/third_party/mbedtls/library\ecdsa.c ****     sign_tries = 0;
  93:D:/Work/DeviceTester/amazon-freertos/lib/third_party/mbedtls/library\ecdsa.c ****     do
  94:D:/Work/DeviceTester/amazon-freertos/lib/third_party/mbedtls/library\ecdsa.c ****     {
  95:D:/Work/DeviceTester/amazon-freertos/lib/third_party/mbedtls/library\ecdsa.c ****         /*
  96:D:/Work/DeviceTester/amazon-freertos/lib/third_party/mbedtls/library\ecdsa.c ****          * Steps 1-3: generate a suitable ephemeral keypair
  97:D:/Work/DeviceTester/amazon-freertos/lib/third_party/mbedtls/library\ecdsa.c ****          * and set r = xR mod n
  98:D:/Work/DeviceTester/amazon-freertos/lib/third_party/mbedtls/library\ecdsa.c ****          */
  99:D:/Work/DeviceTester/amazon-freertos/lib/third_party/mbedtls/library\ecdsa.c ****         key_tries = 0;
 100:D:/Work/DeviceTester/amazon-freertos/lib/third_party/mbedtls/library\ecdsa.c ****         do
 101:D:/Work/DeviceTester/amazon-freertos/lib/third_party/mbedtls/library\ecdsa.c ****         {
 102:D:/Work/DeviceTester/amazon-freertos/lib/third_party/mbedtls/library\ecdsa.c ****             MBEDTLS_MPI_CHK( mbedtls_ecp_gen_keypair( grp, &k, &R, f_rng, p_rng ) );
 103:D:/Work/DeviceTester/amazon-freertos/lib/third_party/mbedtls/library\ecdsa.c ****             MBEDTLS_MPI_CHK( mbedtls_mpi_mod_mpi( r, &R.X, &grp->N ) );
 104:D:/Work/DeviceTester/amazon-freertos/lib/third_party/mbedtls/library\ecdsa.c **** 
 105:D:/Work/DeviceTester/amazon-freertos/lib/third_party/mbedtls/library\ecdsa.c ****             if( key_tries++ > 10 )
 106:D:/Work/DeviceTester/amazon-freertos/lib/third_party/mbedtls/library\ecdsa.c ****             {
 107:D:/Work/DeviceTester/amazon-freertos/lib/third_party/mbedtls/library\ecdsa.c ****                 ret = MBEDTLS_ERR_ECP_RANDOM_FAILED;
 108:D:/Work/DeviceTester/amazon-freertos/lib/third_party/mbedtls/library\ecdsa.c ****                 goto cleanup;
 109:D:/Work/DeviceTester/amazon-freertos/lib/third_party/mbedtls/library\ecdsa.c ****             }
 110:D:/Work/DeviceTester/amazon-freertos/lib/third_party/mbedtls/library\ecdsa.c ****         }
 111:D:/Work/DeviceTester/amazon-freertos/lib/third_party/mbedtls/library\ecdsa.c ****         while( mbedtls_mpi_cmp_int( r, 0 ) == 0 );
 112:D:/Work/DeviceTester/amazon-freertos/lib/third_party/mbedtls/library\ecdsa.c **** 
 113:D:/Work/DeviceTester/amazon-freertos/lib/third_party/mbedtls/library\ecdsa.c ****         /*
 114:D:/Work/DeviceTester/amazon-freertos/lib/third_party/mbedtls/library\ecdsa.c ****          * Step 5: derive MPI from hashed message
 115:D:/Work/DeviceTester/amazon-freertos/lib/third_party/mbedtls/library\ecdsa.c ****          */
 116:D:/Work/DeviceTester/amazon-freertos/lib/third_party/mbedtls/library\ecdsa.c ****         MBEDTLS_MPI_CHK( derive_mpi( grp, &e, buf, blen ) );
 117:D:/Work/DeviceTester/amazon-freertos/lib/third_party/mbedtls/library\ecdsa.c **** 
 118:D:/Work/DeviceTester/amazon-freertos/lib/third_party/mbedtls/library\ecdsa.c ****         /*
 119:D:/Work/DeviceTester/amazon-freertos/lib/third_party/mbedtls/library\ecdsa.c ****          * Generate a random value to blind inv_mod in next step,
 120:D:/Work/DeviceTester/amazon-freertos/lib/third_party/mbedtls/library\ecdsa.c ****          * avoiding a potential timing leak.
 121:D:/Work/DeviceTester/amazon-freertos/lib/third_party/mbedtls/library\ecdsa.c ****          */
 122:D:/Work/DeviceTester/amazon-freertos/lib/third_party/mbedtls/library\ecdsa.c ****         blind_tries = 0;
 123:D:/Work/DeviceTester/amazon-freertos/lib/third_party/mbedtls/library\ecdsa.c ****         do
 124:D:/Work/DeviceTester/amazon-freertos/lib/third_party/mbedtls/library\ecdsa.c ****         {
 125:D:/Work/DeviceTester/amazon-freertos/lib/third_party/mbedtls/library\ecdsa.c ****             size_t n_size = ( grp->nbits + 7 ) / 8;
 126:D:/Work/DeviceTester/amazon-freertos/lib/third_party/mbedtls/library\ecdsa.c ****             MBEDTLS_MPI_CHK( mbedtls_mpi_fill_random( &t, n_size, f_rng, p_rng ) );
 127:D:/Work/DeviceTester/amazon-freertos/lib/third_party/mbedtls/library\ecdsa.c ****             MBEDTLS_MPI_CHK( mbedtls_mpi_shift_r( &t, 8 * n_size - grp->nbits ) );
 128:D:/Work/DeviceTester/amazon-freertos/lib/third_party/mbedtls/library\ecdsa.c **** 
 129:D:/Work/DeviceTester/amazon-freertos/lib/third_party/mbedtls/library\ecdsa.c ****             /* See mbedtls_ecp_gen_keypair() */
 130:D:/Work/DeviceTester/amazon-freertos/lib/third_party/mbedtls/library\ecdsa.c ****             if( ++blind_tries > 30 )
 131:D:/Work/DeviceTester/amazon-freertos/lib/third_party/mbedtls/library\ecdsa.c ****                 return( MBEDTLS_ERR_ECP_RANDOM_FAILED );
 132:D:/Work/DeviceTester/amazon-freertos/lib/third_party/mbedtls/library\ecdsa.c ****         }
 133:D:/Work/DeviceTester/amazon-freertos/lib/third_party/mbedtls/library\ecdsa.c ****         while( mbedtls_mpi_cmp_int( &t, 1 ) < 0 ||
 134:D:/Work/DeviceTester/amazon-freertos/lib/third_party/mbedtls/library\ecdsa.c ****                mbedtls_mpi_cmp_mpi( &t, &grp->N ) >= 0 );
 135:D:/Work/DeviceTester/amazon-freertos/lib/third_party/mbedtls/library\ecdsa.c **** 
 136:D:/Work/DeviceTester/amazon-freertos/lib/third_party/mbedtls/library\ecdsa.c ****         /*
 137:D:/Work/DeviceTester/amazon-freertos/lib/third_party/mbedtls/library\ecdsa.c ****          * Step 6: compute s = (e + r * d) / k = t (e + rd) / (kt) mod n
 138:D:/Work/DeviceTester/amazon-freertos/lib/third_party/mbedtls/library\ecdsa.c ****          */
 139:D:/Work/DeviceTester/amazon-freertos/lib/third_party/mbedtls/library\ecdsa.c ****         MBEDTLS_MPI_CHK( mbedtls_mpi_mul_mpi( s, r, d ) );
 140:D:/Work/DeviceTester/amazon-freertos/lib/third_party/mbedtls/library\ecdsa.c ****         MBEDTLS_MPI_CHK( mbedtls_mpi_add_mpi( &e, &e, s ) );
 141:D:/Work/DeviceTester/amazon-freertos/lib/third_party/mbedtls/library\ecdsa.c ****         MBEDTLS_MPI_CHK( mbedtls_mpi_mul_mpi( &e, &e, &t ) );
 142:D:/Work/DeviceTester/amazon-freertos/lib/third_party/mbedtls/library\ecdsa.c ****         MBEDTLS_MPI_CHK( mbedtls_mpi_mul_mpi( &k, &k, &t ) );
 143:D:/Work/DeviceTester/amazon-freertos/lib/third_party/mbedtls/library\ecdsa.c ****         MBEDTLS_MPI_CHK( mbedtls_mpi_inv_mod( s, &k, &grp->N ) );
 144:D:/Work/DeviceTester/amazon-freertos/lib/third_party/mbedtls/library\ecdsa.c ****         MBEDTLS_MPI_CHK( mbedtls_mpi_mul_mpi( s, s, &e ) );
 145:D:/Work/DeviceTester/amazon-freertos/lib/third_party/mbedtls/library\ecdsa.c ****         MBEDTLS_MPI_CHK( mbedtls_mpi_mod_mpi( s, s, &grp->N ) );
 146:D:/Work/DeviceTester/amazon-freertos/lib/third_party/mbedtls/library\ecdsa.c **** 
 147:D:/Work/DeviceTester/amazon-freertos/lib/third_party/mbedtls/library\ecdsa.c ****         if( sign_tries++ > 10 )
 148:D:/Work/DeviceTester/amazon-freertos/lib/third_party/mbedtls/library\ecdsa.c ****         {
 149:D:/Work/DeviceTester/amazon-freertos/lib/third_party/mbedtls/library\ecdsa.c ****             ret = MBEDTLS_ERR_ECP_RANDOM_FAILED;
 150:D:/Work/DeviceTester/amazon-freertos/lib/third_party/mbedtls/library\ecdsa.c ****             goto cleanup;
 151:D:/Work/DeviceTester/amazon-freertos/lib/third_party/mbedtls/library\ecdsa.c ****         }
 152:D:/Work/DeviceTester/amazon-freertos/lib/third_party/mbedtls/library\ecdsa.c ****     }
 153:D:/Work/DeviceTester/amazon-freertos/lib/third_party/mbedtls/library\ecdsa.c ****     while( mbedtls_mpi_cmp_int( s, 0 ) == 0 );
 154:D:/Work/DeviceTester/amazon-freertos/lib/third_party/mbedtls/library\ecdsa.c **** 
 155:D:/Work/DeviceTester/amazon-freertos/lib/third_party/mbedtls/library\ecdsa.c **** cleanup:
 156:D:/Work/DeviceTester/amazon-freertos/lib/third_party/mbedtls/library\ecdsa.c ****     mbedtls_ecp_point_free( &R );
 157:D:/Work/DeviceTester/amazon-freertos/lib/third_party/mbedtls/library\ecdsa.c ****     mbedtls_mpi_free( &k ); mbedtls_mpi_free( &e ); mbedtls_mpi_free( &t );
 158:D:/Work/DeviceTester/amazon-freertos/lib/third_party/mbedtls/library\ecdsa.c **** 
 159:D:/Work/DeviceTester/amazon-freertos/lib/third_party/mbedtls/library\ecdsa.c ****     return( ret );
 160:D:/Work/DeviceTester/amazon-freertos/lib/third_party/mbedtls/library\ecdsa.c **** }
 175              		.loc 1 160 0
 176 0040 0B00A0E1 		mov	r0, fp
 177 0044 64D08DE2 		add	sp, sp, #100
 178              		.cfi_remember_state
 179              		.cfi_def_cfa_offset 36
 180              		@ sp needed
 181 0048 F08FBDE8 		pop	{r4, r5, r6, r7, r8, r9, r10, fp, pc}
 182              	.LVL22:
 183              	.L10:
 184              		.cfi_restore_state
  86:D:/Work/DeviceTester/amazon-freertos/lib/third_party/mbedtls/library\ecdsa.c ****         return( MBEDTLS_ERR_ECP_INVALID_KEY );
 185              		.loc 1 86 0 discriminator 1
 186 004c 4C9087E2 		add	r9, r7, #76
 187 0050 0A00A0E1 		mov	r0, r10
 188 0054 0910A0E1 		mov	r1, r9
 189 0058 FEFFFFEB 		bl	mbedtls_mpi_cmp_mpi
 190              	.LVL23:
 191 005c 000050E3 		cmp	r0, #0
 192 0060 F5FFFFAA 		bge	.L11
  89:D:/Work/DeviceTester/amazon-freertos/lib/third_party/mbedtls/library\ecdsa.c ****     mbedtls_mpi_init( &k ); mbedtls_mpi_init( &e ); mbedtls_mpi_init( &t );
 193              		.loc 1 89 0
 194 0064 3C008DE2 		add	r0, sp, #60
  90:D:/Work/DeviceTester/amazon-freertos/lib/third_party/mbedtls/library\ecdsa.c **** 
 195              		.loc 1 90 0
 196 0068 18608DE2 		add	r6, sp, #24
  89:D:/Work/DeviceTester/amazon-freertos/lib/third_party/mbedtls/library\ecdsa.c ****     mbedtls_mpi_init( &k ); mbedtls_mpi_init( &e ); mbedtls_mpi_init( &t );
 197              		.loc 1 89 0
 198 006c FEFFFFEB 		bl	mbedtls_ecp_point_init
 199              	.LVL24:
  90:D:/Work/DeviceTester/amazon-freertos/lib/third_party/mbedtls/library\ecdsa.c **** 
 200              		.loc 1 90 0
 201 0070 24508DE2 		add	r5, sp, #36
 202 0074 0600A0E1 		mov	r0, r6
 203 0078 FEFFFFEB 		bl	mbedtls_mpi_init
 204              	.LVL25:
 205 007c 0500A0E1 		mov	r0, r5
 206 0080 FEFFFFEB 		bl	mbedtls_mpi_init
 207              	.LVL26:
 208 0084 30008DE2 		add	r0, sp, #48
 209 0088 FEFFFFEB 		bl	mbedtls_mpi_init
 210              	.LVL27:
 211 008c 0C30A0E3 		mov	r3, #12
 212 0090 14308DE5 		str	r3, [sp, #20]
 213              	.LVL28:
 214              	.L16:
 215 0094 0C80A0E3 		mov	r8, #12
 216              	.LVL29:
 217              	.L13:
 102:D:/Work/DeviceTester/amazon-freertos/lib/third_party/mbedtls/library\ecdsa.c ****             MBEDTLS_MPI_CHK( mbedtls_mpi_mod_mpi( r, &R.X, &grp->N ) );
 218              		.loc 1 102 0
 219 0098 94309DE5 		ldr	r3, [sp, #148]
 220 009c 3C208DE2 		add	r2, sp, #60
 221 00a0 0610A0E1 		mov	r1, r6
 222 00a4 0700A0E1 		mov	r0, r7
 223 00a8 00308DE5 		str	r3, [sp]
 224 00ac 90309DE5 		ldr	r3, [sp, #144]
 225 00b0 FEFFFFEB 		bl	mbedtls_ecp_gen_keypair
 226              	.LVL30:
 227 00b4 00B050E2 		subs	fp, r0, #0
 228 00b8 6600001A 		bne	.L12
 103:D:/Work/DeviceTester/amazon-freertos/lib/third_party/mbedtls/library\ecdsa.c **** 
 229              		.loc 1 103 0
 230 00bc 0920A0E1 		mov	r2, r9
 231 00c0 3C108DE2 		add	r1, sp, #60
 232 00c4 0C009DE5 		ldr	r0, [sp, #12]
 233              	.LVL31:
 234 00c8 FEFFFFEB 		bl	mbedtls_mpi_mod_mpi
 235              	.LVL32:
 236 00cc 00B050E2 		subs	fp, r0, #0
 237 00d0 6000001A 		bne	.L12
 238              	.LVL33:
 105:D:/Work/DeviceTester/amazon-freertos/lib/third_party/mbedtls/library\ecdsa.c ****             {
 239              		.loc 1 105 0
 240 00d4 018058E2 		subs	r8, r8, #1
 241              	.LVL34:
 242 00d8 6700000A 		beq	.L20
 111:D:/Work/DeviceTester/amazon-freertos/lib/third_party/mbedtls/library\ecdsa.c **** 
 243              		.loc 1 111 0
 244 00dc 0B10A0E1 		mov	r1, fp
 245 00e0 0C009DE5 		ldr	r0, [sp, #12]
 246              	.LVL35:
 247 00e4 FEFFFFEB 		bl	mbedtls_mpi_cmp_int
 248              	.LVL36:
 249 00e8 000050E3 		cmp	r0, #0
 250 00ec E9FFFF0A 		beq	.L13
 116:D:/Work/DeviceTester/amazon-freertos/lib/third_party/mbedtls/library\ecdsa.c **** 
 251              		.loc 1 116 0
 252 00f0 8C309DE5 		ldr	r3, [sp, #140]
 253 00f4 0510A0E1 		mov	r1, r5
 254 00f8 88209DE5 		ldr	r2, [sp, #136]
 255 00fc 0700A0E1 		mov	r0, r7
 256 0100 FEFFFFEB 		bl	derive_mpi
 257              	.LVL37:
 258 0104 00B050E2 		subs	fp, r0, #0
 259 0108 5200001A 		bne	.L12
 260 010c 1F30A0E3 		mov	r3, #31
 261 0110 10308DE5 		str	r3, [sp, #16]
 262              	.LVL38:
 263              	.L14:
 264              	.LBB4:
 125:D:/Work/DeviceTester/amazon-freertos/lib/third_party/mbedtls/library\ecdsa.c ****             MBEDTLS_MPI_CHK( mbedtls_mpi_fill_random( &t, n_size, f_rng, p_rng ) );
 265              		.loc 1 125 0
 266 0114 5C8097E5 		ldr	r8, [r7, #92]
 126:D:/Work/DeviceTester/amazon-freertos/lib/third_party/mbedtls/library\ecdsa.c ****             MBEDTLS_MPI_CHK( mbedtls_mpi_shift_r( &t, 8 * n_size - grp->nbits ) );
 267              		.loc 1 126 0
 268 0118 30008DE2 		add	r0, sp, #48
 269 011c 94309DE5 		ldr	r3, [sp, #148]
 270 0120 90209DE5 		ldr	r2, [sp, #144]
 125:D:/Work/DeviceTester/amazon-freertos/lib/third_party/mbedtls/library\ecdsa.c ****             MBEDTLS_MPI_CHK( mbedtls_mpi_fill_random( &t, n_size, f_rng, p_rng ) );
 271              		.loc 1 125 0
 272 0124 078088E2 		add	r8, r8, #7
 273              	.LVL39:
 126:D:/Work/DeviceTester/amazon-freertos/lib/third_party/mbedtls/library\ecdsa.c ****             MBEDTLS_MPI_CHK( mbedtls_mpi_shift_r( &t, 8 * n_size - grp->nbits ) );
 274              		.loc 1 126 0
 275 0128 A811A0E1 		lsr	r1, r8, #3
 276              	.LVL40:
 277 012c FEFFFFEB 		bl	mbedtls_mpi_fill_random
 278              	.LVL41:
 279 0130 00B050E2 		subs	fp, r0, #0
 280 0134 4700001A 		bne	.L12
 127:D:/Work/DeviceTester/amazon-freertos/lib/third_party/mbedtls/library\ecdsa.c **** 
 281              		.loc 1 127 0
 282 0138 5C1097E5 		ldr	r1, [r7, #92]
 283 013c 0780C8E3 		bic	r8, r8, #7
 284              	.LVL42:
 285 0140 30008DE2 		add	r0, sp, #48
 286              	.LVL43:
 287 0144 011048E0 		sub	r1, r8, r1
 288 0148 FEFFFFEB 		bl	mbedtls_mpi_shift_r
 289              	.LVL44:
 290 014c 00B050E2 		subs	fp, r0, #0
 291 0150 4000001A 		bne	.L12
 292              	.LVL45:
 130:D:/Work/DeviceTester/amazon-freertos/lib/third_party/mbedtls/library\ecdsa.c ****                 return( MBEDTLS_ERR_ECP_RANDOM_FAILED );
 293              		.loc 1 130 0
 294 0154 10309DE5 		ldr	r3, [sp, #16]
 295 0158 013053E2 		subs	r3, r3, #1
 296 015c 10308DE5 		str	r3, [sp, #16]
 297              	.LVL46:
 298 0160 4700000A 		beq	.L19
 299              	.LBE4:
 133:D:/Work/DeviceTester/amazon-freertos/lib/third_party/mbedtls/library\ecdsa.c ****                mbedtls_mpi_cmp_mpi( &t, &grp->N ) >= 0 );
 300              		.loc 1 133 0
 301 0164 0110A0E3 		mov	r1, #1
 302 0168 30008DE2 		add	r0, sp, #48
 303              	.LVL47:
 304 016c FEFFFFEB 		bl	mbedtls_mpi_cmp_int
 305              	.LVL48:
 134:D:/Work/DeviceTester/amazon-freertos/lib/third_party/mbedtls/library\ecdsa.c **** 
 306              		.loc 1 134 0
 307 0170 000050E3 		cmp	r0, #0
 308 0174 E6FFFFBA 		blt	.L14
 134:D:/Work/DeviceTester/amazon-freertos/lib/third_party/mbedtls/library\ecdsa.c **** 
 309              		.loc 1 134 0 is_stmt 0 discriminator 1
 310 0178 0910A0E1 		mov	r1, r9
 311 017c 30008DE2 		add	r0, sp, #48
 312 0180 FEFFFFEB 		bl	mbedtls_mpi_cmp_mpi
 313              	.LVL49:
 133:D:/Work/DeviceTester/amazon-freertos/lib/third_party/mbedtls/library\ecdsa.c ****                mbedtls_mpi_cmp_mpi( &t, &grp->N ) >= 0 );
 314              		.loc 1 133 0 is_stmt 1 discriminator 1
 315 0184 000050E3 		cmp	r0, #0
 316 0188 E1FFFFAA 		bge	.L14
 139:D:/Work/DeviceTester/amazon-freertos/lib/third_party/mbedtls/library\ecdsa.c ****         MBEDTLS_MPI_CHK( mbedtls_mpi_add_mpi( &e, &e, s ) );
 317              		.loc 1 139 0
 318 018c 0A20A0E1 		mov	r2, r10
 319 0190 0C109DE5 		ldr	r1, [sp, #12]
 320 0194 0400A0E1 		mov	r0, r4
 321 0198 FEFFFFEB 		bl	mbedtls_mpi_mul_mpi
 322              	.LVL50:
 323 019c 00B050E2 		subs	fp, r0, #0
 324 01a0 2C00001A 		bne	.L12
 140:D:/Work/DeviceTester/amazon-freertos/lib/third_party/mbedtls/library\ecdsa.c ****         MBEDTLS_MPI_CHK( mbedtls_mpi_mul_mpi( &e, &e, &t ) );
 325              		.loc 1 140 0
 326 01a4 0420A0E1 		mov	r2, r4
 327 01a8 0510A0E1 		mov	r1, r5
 328 01ac 0500A0E1 		mov	r0, r5
 329              	.LVL51:
 330 01b0 FEFFFFEB 		bl	mbedtls_mpi_add_mpi
 331              	.LVL52:
 332 01b4 00B050E2 		subs	fp, r0, #0
 333 01b8 2600001A 		bne	.L12
 141:D:/Work/DeviceTester/amazon-freertos/lib/third_party/mbedtls/library\ecdsa.c ****         MBEDTLS_MPI_CHK( mbedtls_mpi_mul_mpi( &k, &k, &t ) );
 334              		.loc 1 141 0
 335 01bc 30208DE2 		add	r2, sp, #48
 336 01c0 0510A0E1 		mov	r1, r5
 337 01c4 0500A0E1 		mov	r0, r5
 338              	.LVL53:
 339 01c8 FEFFFFEB 		bl	mbedtls_mpi_mul_mpi
 340              	.LVL54:
 341 01cc 00B050E2 		subs	fp, r0, #0
 342 01d0 2000001A 		bne	.L12
 142:D:/Work/DeviceTester/amazon-freertos/lib/third_party/mbedtls/library\ecdsa.c ****         MBEDTLS_MPI_CHK( mbedtls_mpi_inv_mod( s, &k, &grp->N ) );
 343              		.loc 1 142 0
 344 01d4 30208DE2 		add	r2, sp, #48
 345 01d8 0610A0E1 		mov	r1, r6
 346 01dc 0600A0E1 		mov	r0, r6
 347              	.LVL55:
 348 01e0 FEFFFFEB 		bl	mbedtls_mpi_mul_mpi
 349              	.LVL56:
 350 01e4 00B050E2 		subs	fp, r0, #0
 351 01e8 1A00001A 		bne	.L12
 143:D:/Work/DeviceTester/amazon-freertos/lib/third_party/mbedtls/library\ecdsa.c ****         MBEDTLS_MPI_CHK( mbedtls_mpi_mul_mpi( s, s, &e ) );
 352              		.loc 1 143 0
 353 01ec 0920A0E1 		mov	r2, r9
 354 01f0 0610A0E1 		mov	r1, r6
 355 01f4 0400A0E1 		mov	r0, r4
 356              	.LVL57:
 357 01f8 FEFFFFEB 		bl	mbedtls_mpi_inv_mod
 358              	.LVL58:
 359 01fc 00B050E2 		subs	fp, r0, #0
 360 0200 1400001A 		bne	.L12
 144:D:/Work/DeviceTester/amazon-freertos/lib/third_party/mbedtls/library\ecdsa.c ****         MBEDTLS_MPI_CHK( mbedtls_mpi_mod_mpi( s, s, &grp->N ) );
 361              		.loc 1 144 0
 362 0204 0520A0E1 		mov	r2, r5
 363 0208 0410A0E1 		mov	r1, r4
 364 020c 0400A0E1 		mov	r0, r4
 365              	.LVL59:
 366 0210 FEFFFFEB 		bl	mbedtls_mpi_mul_mpi
 367              	.LVL60:
 368 0214 00B050E2 		subs	fp, r0, #0
 369 0218 0E00001A 		bne	.L12
 145:D:/Work/DeviceTester/amazon-freertos/lib/third_party/mbedtls/library\ecdsa.c **** 
 370              		.loc 1 145 0
 371 021c 0920A0E1 		mov	r2, r9
 372 0220 0410A0E1 		mov	r1, r4
 373 0224 0400A0E1 		mov	r0, r4
 374              	.LVL61:
 375 0228 FEFFFFEB 		bl	mbedtls_mpi_mod_mpi
 376              	.LVL62:
 377 022c 00B050E2 		subs	fp, r0, #0
 378 0230 0800001A 		bne	.L12
 379              	.LVL63:
 147:D:/Work/DeviceTester/amazon-freertos/lib/third_party/mbedtls/library\ecdsa.c ****         {
 380              		.loc 1 147 0
 381 0234 14309DE5 		ldr	r3, [sp, #20]
 382 0238 013053E2 		subs	r3, r3, #1
 383 023c 14308DE5 		str	r3, [sp, #20]
 384              	.LVL64:
 385 0240 0D00000A 		beq	.L20
 153:D:/Work/DeviceTester/amazon-freertos/lib/third_party/mbedtls/library\ecdsa.c **** 
 386              		.loc 1 153 0
 387 0244 0B10A0E1 		mov	r1, fp
 388 0248 0400A0E1 		mov	r0, r4
 389              	.LVL65:
 390 024c FEFFFFEB 		bl	mbedtls_mpi_cmp_int
 391              	.LVL66:
 392 0250 000050E3 		cmp	r0, #0
 393 0254 8EFFFF0A 		beq	.L16
 394              	.LVL67:
 395              	.L12:
 156:D:/Work/DeviceTester/amazon-freertos/lib/third_party/mbedtls/library\ecdsa.c ****     mbedtls_mpi_free( &k ); mbedtls_mpi_free( &e ); mbedtls_mpi_free( &t );
 396              		.loc 1 156 0
 397 0258 3C008DE2 		add	r0, sp, #60
 398 025c FEFFFFEB 		bl	mbedtls_ecp_point_free
 399              	.LVL68:
 157:D:/Work/DeviceTester/amazon-freertos/lib/third_party/mbedtls/library\ecdsa.c **** 
 400              		.loc 1 157 0
 401 0260 0600A0E1 		mov	r0, r6
 402 0264 FEFFFFEB 		bl	mbedtls_mpi_free
 403              	.LVL69:
 404 0268 24008DE2 		add	r0, sp, #36
 405 026c FEFFFFEB 		bl	mbedtls_mpi_free
 406              	.LVL70:
 407 0270 30008DE2 		add	r0, sp, #48
 408 0274 FEFFFFEB 		bl	mbedtls_mpi_free
 409              	.LVL71:
 159:D:/Work/DeviceTester/amazon-freertos/lib/third_party/mbedtls/library\ecdsa.c **** }
 410              		.loc 1 159 0
 411 0278 70FFFFEA 		b	.L8
 412              	.LVL72:
 413              	.L20:
 149:D:/Work/DeviceTester/amazon-freertos/lib/third_party/mbedtls/library\ecdsa.c ****             goto cleanup;
 414              		.loc 1 149 0
 415 027c 10B09FE5 		ldr	fp, .L26+8
 416 0280 F4FFFFEA 		b	.L12
 417              	.LVL73:
 418              	.L19:
 419              	.LBB5:
 131:D:/Work/DeviceTester/amazon-freertos/lib/third_party/mbedtls/library\ecdsa.c ****         }
 420              		.loc 1 131 0
 421 0284 08B09FE5 		ldr	fp, .L26+8
 422 0288 6CFFFFEA 		b	.L8
 423              	.L27:
 424              		.align	2
 425              	.L26:
 426 028c 80B0FFFF 		.word	-20352
 427 0290 80B3FFFF 		.word	-19584
 428 0294 00B3FFFF 		.word	-19712
 429              	.LBE5:
 430              		.cfi_endproc
 431              	.LFE1:
 433              		.section	.text.mbedtls_ecdsa_verify,"ax",%progbits
 434              		.align	2
 435              		.global	mbedtls_ecdsa_verify
 436              		.syntax unified
 437              		.arm
 438              		.fpu neon
 440              	mbedtls_ecdsa_verify:
 441              	.LFB2:
 161:D:/Work/DeviceTester/amazon-freertos/lib/third_party/mbedtls/library\ecdsa.c **** #endif /* MBEDTLS_ECDSA_SIGN_ALT */
 162:D:/Work/DeviceTester/amazon-freertos/lib/third_party/mbedtls/library\ecdsa.c **** 
 163:D:/Work/DeviceTester/amazon-freertos/lib/third_party/mbedtls/library\ecdsa.c **** #if defined(MBEDTLS_ECDSA_DETERMINISTIC)
 164:D:/Work/DeviceTester/amazon-freertos/lib/third_party/mbedtls/library\ecdsa.c **** /*
 165:D:/Work/DeviceTester/amazon-freertos/lib/third_party/mbedtls/library\ecdsa.c ****  * Deterministic signature wrapper
 166:D:/Work/DeviceTester/amazon-freertos/lib/third_party/mbedtls/library\ecdsa.c ****  */
 167:D:/Work/DeviceTester/amazon-freertos/lib/third_party/mbedtls/library\ecdsa.c **** int mbedtls_ecdsa_sign_det( mbedtls_ecp_group *grp, mbedtls_mpi *r, mbedtls_mpi *s,
 168:D:/Work/DeviceTester/amazon-freertos/lib/third_party/mbedtls/library\ecdsa.c ****                     const mbedtls_mpi *d, const unsigned char *buf, size_t blen,
 169:D:/Work/DeviceTester/amazon-freertos/lib/third_party/mbedtls/library\ecdsa.c ****                     mbedtls_md_type_t md_alg )
 170:D:/Work/DeviceTester/amazon-freertos/lib/third_party/mbedtls/library\ecdsa.c **** {
 171:D:/Work/DeviceTester/amazon-freertos/lib/third_party/mbedtls/library\ecdsa.c ****     int ret;
 172:D:/Work/DeviceTester/amazon-freertos/lib/third_party/mbedtls/library\ecdsa.c ****     mbedtls_hmac_drbg_context rng_ctx;
 173:D:/Work/DeviceTester/amazon-freertos/lib/third_party/mbedtls/library\ecdsa.c ****     unsigned char data[2 * MBEDTLS_ECP_MAX_BYTES];
 174:D:/Work/DeviceTester/amazon-freertos/lib/third_party/mbedtls/library\ecdsa.c ****     size_t grp_len = ( grp->nbits + 7 ) / 8;
 175:D:/Work/DeviceTester/amazon-freertos/lib/third_party/mbedtls/library\ecdsa.c ****     const mbedtls_md_info_t *md_info;
 176:D:/Work/DeviceTester/amazon-freertos/lib/third_party/mbedtls/library\ecdsa.c ****     mbedtls_mpi h;
 177:D:/Work/DeviceTester/amazon-freertos/lib/third_party/mbedtls/library\ecdsa.c **** 
 178:D:/Work/DeviceTester/amazon-freertos/lib/third_party/mbedtls/library\ecdsa.c ****     if( ( md_info = mbedtls_md_info_from_type( md_alg ) ) == NULL )
 179:D:/Work/DeviceTester/amazon-freertos/lib/third_party/mbedtls/library\ecdsa.c ****         return( MBEDTLS_ERR_ECP_BAD_INPUT_DATA );
 180:D:/Work/DeviceTester/amazon-freertos/lib/third_party/mbedtls/library\ecdsa.c **** 
 181:D:/Work/DeviceTester/amazon-freertos/lib/third_party/mbedtls/library\ecdsa.c ****     mbedtls_mpi_init( &h );
 182:D:/Work/DeviceTester/amazon-freertos/lib/third_party/mbedtls/library\ecdsa.c ****     mbedtls_hmac_drbg_init( &rng_ctx );
 183:D:/Work/DeviceTester/amazon-freertos/lib/third_party/mbedtls/library\ecdsa.c **** 
 184:D:/Work/DeviceTester/amazon-freertos/lib/third_party/mbedtls/library\ecdsa.c ****     /* Use private key and message hash (reduced) to initialize HMAC_DRBG */
 185:D:/Work/DeviceTester/amazon-freertos/lib/third_party/mbedtls/library\ecdsa.c ****     MBEDTLS_MPI_CHK( mbedtls_mpi_write_binary( d, data, grp_len ) );
 186:D:/Work/DeviceTester/amazon-freertos/lib/third_party/mbedtls/library\ecdsa.c ****     MBEDTLS_MPI_CHK( derive_mpi( grp, &h, buf, blen ) );
 187:D:/Work/DeviceTester/amazon-freertos/lib/third_party/mbedtls/library\ecdsa.c ****     MBEDTLS_MPI_CHK( mbedtls_mpi_write_binary( &h, data + grp_len, grp_len ) );
 188:D:/Work/DeviceTester/amazon-freertos/lib/third_party/mbedtls/library\ecdsa.c ****     mbedtls_hmac_drbg_seed_buf( &rng_ctx, md_info, data, 2 * grp_len );
 189:D:/Work/DeviceTester/amazon-freertos/lib/third_party/mbedtls/library\ecdsa.c **** 
 190:D:/Work/DeviceTester/amazon-freertos/lib/third_party/mbedtls/library\ecdsa.c ****     ret = mbedtls_ecdsa_sign( grp, r, s, d, buf, blen,
 191:D:/Work/DeviceTester/amazon-freertos/lib/third_party/mbedtls/library\ecdsa.c ****                       mbedtls_hmac_drbg_random, &rng_ctx );
 192:D:/Work/DeviceTester/amazon-freertos/lib/third_party/mbedtls/library\ecdsa.c **** 
 193:D:/Work/DeviceTester/amazon-freertos/lib/third_party/mbedtls/library\ecdsa.c **** cleanup:
 194:D:/Work/DeviceTester/amazon-freertos/lib/third_party/mbedtls/library\ecdsa.c ****     mbedtls_hmac_drbg_free( &rng_ctx );
 195:D:/Work/DeviceTester/amazon-freertos/lib/third_party/mbedtls/library\ecdsa.c ****     mbedtls_mpi_free( &h );
 196:D:/Work/DeviceTester/amazon-freertos/lib/third_party/mbedtls/library\ecdsa.c **** 
 197:D:/Work/DeviceTester/amazon-freertos/lib/third_party/mbedtls/library\ecdsa.c ****     return( ret );
 198:D:/Work/DeviceTester/amazon-freertos/lib/third_party/mbedtls/library\ecdsa.c **** }
 199:D:/Work/DeviceTester/amazon-freertos/lib/third_party/mbedtls/library\ecdsa.c **** #endif /* MBEDTLS_ECDSA_DETERMINISTIC */
 200:D:/Work/DeviceTester/amazon-freertos/lib/third_party/mbedtls/library\ecdsa.c **** 
 201:D:/Work/DeviceTester/amazon-freertos/lib/third_party/mbedtls/library\ecdsa.c **** #if !defined(MBEDTLS_ECDSA_VERIFY_ALT)
 202:D:/Work/DeviceTester/amazon-freertos/lib/third_party/mbedtls/library\ecdsa.c **** /*
 203:D:/Work/DeviceTester/amazon-freertos/lib/third_party/mbedtls/library\ecdsa.c ****  * Verify ECDSA signature of hashed message (SEC1 4.1.4)
 204:D:/Work/DeviceTester/amazon-freertos/lib/third_party/mbedtls/library\ecdsa.c ****  * Obviously, compared to SEC1 4.1.3, we skip step 2 (hash message)
 205:D:/Work/DeviceTester/amazon-freertos/lib/third_party/mbedtls/library\ecdsa.c ****  */
 206:D:/Work/DeviceTester/amazon-freertos/lib/third_party/mbedtls/library\ecdsa.c **** int mbedtls_ecdsa_verify( mbedtls_ecp_group *grp,
 207:D:/Work/DeviceTester/amazon-freertos/lib/third_party/mbedtls/library\ecdsa.c ****                   const unsigned char *buf, size_t blen,
 208:D:/Work/DeviceTester/amazon-freertos/lib/third_party/mbedtls/library\ecdsa.c ****                   const mbedtls_ecp_point *Q, const mbedtls_mpi *r, const mbedtls_mpi *s)
 209:D:/Work/DeviceTester/amazon-freertos/lib/third_party/mbedtls/library\ecdsa.c **** {
 442              		.loc 1 209 0
 443              		.cfi_startproc
 444              		@ args = 8, pretend = 0, frame = 88
 445              		@ frame_needed = 0, uses_anonymous_args = 0
 446              	.LVL74:
 447 0000 F0432DE9 		push	{r4, r5, r6, r7, r8, r9, lr}
 448              		.cfi_def_cfa_offset 28
 449              		.cfi_offset 4, -28
 450              		.cfi_offset 5, -24
 451              		.cfi_offset 6, -20
 452              		.cfi_offset 7, -16
 453              		.cfi_offset 8, -12
 454              		.cfi_offset 9, -8
 455              		.cfi_offset 14, -4
 456 0004 64D04DE2 		sub	sp, sp, #100
 457              		.cfi_def_cfa_offset 128
 458              		.loc 1 209 0
 459 0008 0060A0E1 		mov	r6, r0
 210:D:/Work/DeviceTester/amazon-freertos/lib/third_party/mbedtls/library\ecdsa.c ****     int ret;
 211:D:/Work/DeviceTester/amazon-freertos/lib/third_party/mbedtls/library\ecdsa.c ****     mbedtls_mpi e, s_inv, u1, u2;
 212:D:/Work/DeviceTester/amazon-freertos/lib/third_party/mbedtls/library\ecdsa.c ****     mbedtls_ecp_point R;
 213:D:/Work/DeviceTester/amazon-freertos/lib/third_party/mbedtls/library\ecdsa.c **** 
 214:D:/Work/DeviceTester/amazon-freertos/lib/third_party/mbedtls/library\ecdsa.c ****     mbedtls_ecp_point_init( &R );
 460              		.loc 1 214 0
 461 000c 3C008DE2 		add	r0, sp, #60
 462              	.LVL75:
 209:D:/Work/DeviceTester/amazon-freertos/lib/third_party/mbedtls/library\ecdsa.c ****     int ret;
 463              		.loc 1 209 0
 464 0010 0380A0E1 		mov	r8, r3
 465 0014 0170A0E1 		mov	r7, r1
 466 0018 0290A0E1 		mov	r9, r2
 467              		.loc 1 214 0
 468 001c FEFFFFEB 		bl	mbedtls_ecp_point_init
 469              	.LVL76:
 215:D:/Work/DeviceTester/amazon-freertos/lib/third_party/mbedtls/library\ecdsa.c ****     mbedtls_mpi_init( &e ); mbedtls_mpi_init( &s_inv ); mbedtls_mpi_init( &u1 ); mbedtls_mpi_init( 
 470              		.loc 1 215 0
 471 0020 0C008DE2 		add	r0, sp, #12
 472 0024 FEFFFFEB 		bl	mbedtls_mpi_init
 473              	.LVL77:
 474 0028 18008DE2 		add	r0, sp, #24
 475 002c FEFFFFEB 		bl	mbedtls_mpi_init
 476              	.LVL78:
 477 0030 24008DE2 		add	r0, sp, #36
 478 0034 FEFFFFEB 		bl	mbedtls_mpi_init
 479              	.LVL79:
 480 0038 30008DE2 		add	r0, sp, #48
 481 003c FEFFFFEB 		bl	mbedtls_mpi_init
 482              	.LVL80:
 216:D:/Work/DeviceTester/amazon-freertos/lib/third_party/mbedtls/library\ecdsa.c **** 
 217:D:/Work/DeviceTester/amazon-freertos/lib/third_party/mbedtls/library\ecdsa.c ****     /* Fail cleanly on curves such as Curve25519 that can't be used for ECDSA */
 218:D:/Work/DeviceTester/amazon-freertos/lib/third_party/mbedtls/library\ecdsa.c ****     if( grp->N.p == NULL )
 483              		.loc 1 218 0
 484 0040 543096E5 		ldr	r3, [r6, #84]
 485 0044 000053E3 		cmp	r3, #0
 219:D:/Work/DeviceTester/amazon-freertos/lib/third_party/mbedtls/library\ecdsa.c ****         return( MBEDTLS_ERR_ECP_BAD_INPUT_DATA );
 486              		.loc 1 219 0
 487 0048 94419F05 		ldreq	r4, .L37
 218:D:/Work/DeviceTester/amazon-freertos/lib/third_party/mbedtls/library\ecdsa.c ****         return( MBEDTLS_ERR_ECP_BAD_INPUT_DATA );
 488              		.loc 1 218 0
 489 004c 6100000A 		beq	.L28
 220:D:/Work/DeviceTester/amazon-freertos/lib/third_party/mbedtls/library\ecdsa.c **** 
 221:D:/Work/DeviceTester/amazon-freertos/lib/third_party/mbedtls/library\ecdsa.c ****     /*
 222:D:/Work/DeviceTester/amazon-freertos/lib/third_party/mbedtls/library\ecdsa.c ****      * Step 1: make sure r and s are in range 1..n-1
 223:D:/Work/DeviceTester/amazon-freertos/lib/third_party/mbedtls/library\ecdsa.c ****      */
 224:D:/Work/DeviceTester/amazon-freertos/lib/third_party/mbedtls/library\ecdsa.c ****     if( mbedtls_mpi_cmp_int( r, 1 ) < 0 || mbedtls_mpi_cmp_mpi( r, &grp->N ) >= 0 ||
 490              		.loc 1 224 0
 491 0050 0110A0E3 		mov	r1, #1
 492 0054 80009DE5 		ldr	r0, [sp, #128]
 493 0058 FEFFFFEB 		bl	mbedtls_mpi_cmp_int
 494              	.LVL81:
 495 005c 000050E3 		cmp	r0, #0
 496 0060 510000BA 		blt	.L30
 497              		.loc 1 224 0 is_stmt 0 discriminator 1
 498 0064 4C5086E2 		add	r5, r6, #76
 499 0068 80009DE5 		ldr	r0, [sp, #128]
 500 006c 0510A0E1 		mov	r1, r5
 501 0070 FEFFFFEB 		bl	mbedtls_mpi_cmp_mpi
 502              	.LVL82:
 503 0074 000050E3 		cmp	r0, #0
 504 0078 4B0000AA 		bge	.L30
 225:D:/Work/DeviceTester/amazon-freertos/lib/third_party/mbedtls/library\ecdsa.c ****         mbedtls_mpi_cmp_int( s, 1 ) < 0 || mbedtls_mpi_cmp_mpi( s, &grp->N ) >= 0 )
 505              		.loc 1 225 0 is_stmt 1 discriminator 2
 506 007c 0110A0E3 		mov	r1, #1
 507 0080 84009DE5 		ldr	r0, [sp, #132]
 508 0084 FEFFFFEB 		bl	mbedtls_mpi_cmp_int
 509              	.LVL83:
 224:D:/Work/DeviceTester/amazon-freertos/lib/third_party/mbedtls/library\ecdsa.c ****         mbedtls_mpi_cmp_int( s, 1 ) < 0 || mbedtls_mpi_cmp_mpi( s, &grp->N ) >= 0 )
 510              		.loc 1 224 0 discriminator 2
 511 0088 000050E3 		cmp	r0, #0
 512 008c 460000BA 		blt	.L30
 513              		.loc 1 225 0
 514 0090 0510A0E1 		mov	r1, r5
 515 0094 84009DE5 		ldr	r0, [sp, #132]
 516 0098 FEFFFFEB 		bl	mbedtls_mpi_cmp_mpi
 517              	.LVL84:
 518 009c 000050E3 		cmp	r0, #0
 519 00a0 410000AA 		bge	.L30
 226:D:/Work/DeviceTester/amazon-freertos/lib/third_party/mbedtls/library\ecdsa.c ****     {
 227:D:/Work/DeviceTester/amazon-freertos/lib/third_party/mbedtls/library\ecdsa.c ****         ret = MBEDTLS_ERR_ECP_VERIFY_FAILED;
 228:D:/Work/DeviceTester/amazon-freertos/lib/third_party/mbedtls/library\ecdsa.c ****         goto cleanup;
 229:D:/Work/DeviceTester/amazon-freertos/lib/third_party/mbedtls/library\ecdsa.c ****     }
 230:D:/Work/DeviceTester/amazon-freertos/lib/third_party/mbedtls/library\ecdsa.c **** 
 231:D:/Work/DeviceTester/amazon-freertos/lib/third_party/mbedtls/library\ecdsa.c ****     /*
 232:D:/Work/DeviceTester/amazon-freertos/lib/third_party/mbedtls/library\ecdsa.c ****      * Additional precaution: make sure Q is valid
 233:D:/Work/DeviceTester/amazon-freertos/lib/third_party/mbedtls/library\ecdsa.c ****      */
 234:D:/Work/DeviceTester/amazon-freertos/lib/third_party/mbedtls/library\ecdsa.c ****     MBEDTLS_MPI_CHK( mbedtls_ecp_check_pubkey( grp, Q ) );
 520              		.loc 1 234 0
 521 00a4 0810A0E1 		mov	r1, r8
 522 00a8 0600A0E1 		mov	r0, r6
 523 00ac FEFFFFEB 		bl	mbedtls_ecp_check_pubkey
 524              	.LVL85:
 525 00b0 004050E2 		subs	r4, r0, #0
 526 00b4 3D00001A 		bne	.L31
 235:D:/Work/DeviceTester/amazon-freertos/lib/third_party/mbedtls/library\ecdsa.c **** 
 236:D:/Work/DeviceTester/amazon-freertos/lib/third_party/mbedtls/library\ecdsa.c ****     /*
 237:D:/Work/DeviceTester/amazon-freertos/lib/third_party/mbedtls/library\ecdsa.c ****      * Step 3: derive MPI from hashed message
 238:D:/Work/DeviceTester/amazon-freertos/lib/third_party/mbedtls/library\ecdsa.c ****      */
 239:D:/Work/DeviceTester/amazon-freertos/lib/third_party/mbedtls/library\ecdsa.c ****     MBEDTLS_MPI_CHK( derive_mpi( grp, &e, buf, blen ) );
 527              		.loc 1 239 0
 528 00b8 0930A0E1 		mov	r3, r9
 529 00bc 0720A0E1 		mov	r2, r7
 530 00c0 0C108DE2 		add	r1, sp, #12
 531 00c4 0600A0E1 		mov	r0, r6
 532              	.LVL86:
 533 00c8 FEFFFFEB 		bl	derive_mpi
 534              	.LVL87:
 535 00cc 004050E2 		subs	r4, r0, #0
 536 00d0 3600001A 		bne	.L31
 240:D:/Work/DeviceTester/amazon-freertos/lib/third_party/mbedtls/library\ecdsa.c **** 
 241:D:/Work/DeviceTester/amazon-freertos/lib/third_party/mbedtls/library\ecdsa.c ****     /*
 242:D:/Work/DeviceTester/amazon-freertos/lib/third_party/mbedtls/library\ecdsa.c ****      * Step 4: u1 = e / s mod n, u2 = r / s mod n
 243:D:/Work/DeviceTester/amazon-freertos/lib/third_party/mbedtls/library\ecdsa.c ****      */
 244:D:/Work/DeviceTester/amazon-freertos/lib/third_party/mbedtls/library\ecdsa.c ****     MBEDTLS_MPI_CHK( mbedtls_mpi_inv_mod( &s_inv, s, &grp->N ) );
 537              		.loc 1 244 0
 538 00d4 0520A0E1 		mov	r2, r5
 539 00d8 84109DE5 		ldr	r1, [sp, #132]
 540 00dc 18008DE2 		add	r0, sp, #24
 541              	.LVL88:
 542 00e0 FEFFFFEB 		bl	mbedtls_mpi_inv_mod
 543              	.LVL89:
 544 00e4 004050E2 		subs	r4, r0, #0
 545 00e8 3000001A 		bne	.L31
 245:D:/Work/DeviceTester/amazon-freertos/lib/third_party/mbedtls/library\ecdsa.c **** 
 246:D:/Work/DeviceTester/amazon-freertos/lib/third_party/mbedtls/library\ecdsa.c ****     MBEDTLS_MPI_CHK( mbedtls_mpi_mul_mpi( &u1, &e, &s_inv ) );
 546              		.loc 1 246 0
 547 00ec 18208DE2 		add	r2, sp, #24
 548 00f0 0C108DE2 		add	r1, sp, #12
 549 00f4 24008DE2 		add	r0, sp, #36
 550              	.LVL90:
 551 00f8 FEFFFFEB 		bl	mbedtls_mpi_mul_mpi
 552              	.LVL91:
 553 00fc 004050E2 		subs	r4, r0, #0
 554 0100 2A00001A 		bne	.L31
 247:D:/Work/DeviceTester/amazon-freertos/lib/third_party/mbedtls/library\ecdsa.c ****     MBEDTLS_MPI_CHK( mbedtls_mpi_mod_mpi( &u1, &u1, &grp->N ) );
 555              		.loc 1 247 0
 556 0104 24108DE2 		add	r1, sp, #36
 557 0108 0520A0E1 		mov	r2, r5
 558 010c 0100A0E1 		mov	r0, r1
 559              	.LVL92:
 560 0110 FEFFFFEB 		bl	mbedtls_mpi_mod_mpi
 561              	.LVL93:
 562 0114 004050E2 		subs	r4, r0, #0
 563 0118 2400001A 		bne	.L31
 248:D:/Work/DeviceTester/amazon-freertos/lib/third_party/mbedtls/library\ecdsa.c **** 
 249:D:/Work/DeviceTester/amazon-freertos/lib/third_party/mbedtls/library\ecdsa.c ****     MBEDTLS_MPI_CHK( mbedtls_mpi_mul_mpi( &u2, r, &s_inv ) );
 564              		.loc 1 249 0
 565 011c 30708DE2 		add	r7, sp, #48
 566              	.LVL94:
 567 0120 18208DE2 		add	r2, sp, #24
 568 0124 80109DE5 		ldr	r1, [sp, #128]
 569 0128 0700A0E1 		mov	r0, r7
 570              	.LVL95:
 571 012c FEFFFFEB 		bl	mbedtls_mpi_mul_mpi
 572              	.LVL96:
 573 0130 004050E2 		subs	r4, r0, #0
 574 0134 1D00001A 		bne	.L31
 250:D:/Work/DeviceTester/amazon-freertos/lib/third_party/mbedtls/library\ecdsa.c ****     MBEDTLS_MPI_CHK( mbedtls_mpi_mod_mpi( &u2, &u2, &grp->N ) );
 575              		.loc 1 250 0
 576 0138 0520A0E1 		mov	r2, r5
 577 013c 0710A0E1 		mov	r1, r7
 578 0140 0700A0E1 		mov	r0, r7
 579              	.LVL97:
 580 0144 FEFFFFEB 		bl	mbedtls_mpi_mod_mpi
 581              	.LVL98:
 582 0148 004050E2 		subs	r4, r0, #0
 583 014c 1700001A 		bne	.L31
 251:D:/Work/DeviceTester/amazon-freertos/lib/third_party/mbedtls/library\ecdsa.c **** 
 252:D:/Work/DeviceTester/amazon-freertos/lib/third_party/mbedtls/library\ecdsa.c ****     /*
 253:D:/Work/DeviceTester/amazon-freertos/lib/third_party/mbedtls/library\ecdsa.c ****      * Step 5: R = u1 G + u2 Q
 254:D:/Work/DeviceTester/amazon-freertos/lib/third_party/mbedtls/library\ecdsa.c ****      *
 255:D:/Work/DeviceTester/amazon-freertos/lib/third_party/mbedtls/library\ecdsa.c ****      * Since we're not using any secret data, no need to pass a RNG to
 256:D:/Work/DeviceTester/amazon-freertos/lib/third_party/mbedtls/library\ecdsa.c ****      * mbedtls_ecp_mul() for countermesures.
 257:D:/Work/DeviceTester/amazon-freertos/lib/third_party/mbedtls/library\ecdsa.c ****      */
 258:D:/Work/DeviceTester/amazon-freertos/lib/third_party/mbedtls/library\ecdsa.c ****     MBEDTLS_MPI_CHK( mbedtls_ecp_muladd( grp, &R, &u1, &grp->G, &u2, Q ) );
 584              		.loc 1 258 0
 585 0150 80018DE8 		stm	sp, {r7, r8}
 586 0154 283086E2 		add	r3, r6, #40
 587 0158 24208DE2 		add	r2, sp, #36
 588 015c 3C108DE2 		add	r1, sp, #60
 589 0160 0600A0E1 		mov	r0, r6
 590              	.LVL99:
 591 0164 FEFFFFEB 		bl	mbedtls_ecp_muladd
 592              	.LVL100:
 593 0168 004050E2 		subs	r4, r0, #0
 594 016c 0F00001A 		bne	.L31
 259:D:/Work/DeviceTester/amazon-freertos/lib/third_party/mbedtls/library\ecdsa.c **** 
 260:D:/Work/DeviceTester/amazon-freertos/lib/third_party/mbedtls/library\ecdsa.c ****     if( mbedtls_ecp_is_zero( &R ) )
 595              		.loc 1 260 0
 596 0170 3C008DE2 		add	r0, sp, #60
 597              	.LVL101:
 598 0174 FEFFFFEB 		bl	mbedtls_ecp_is_zero
 599              	.LVL102:
 600 0178 000050E3 		cmp	r0, #0
 601 017c 0A00001A 		bne	.L30
 261:D:/Work/DeviceTester/amazon-freertos/lib/third_party/mbedtls/library\ecdsa.c ****     {
 262:D:/Work/DeviceTester/amazon-freertos/lib/third_party/mbedtls/library\ecdsa.c ****         ret = MBEDTLS_ERR_ECP_VERIFY_FAILED;
 263:D:/Work/DeviceTester/amazon-freertos/lib/third_party/mbedtls/library\ecdsa.c ****         goto cleanup;
 264:D:/Work/DeviceTester/amazon-freertos/lib/third_party/mbedtls/library\ecdsa.c ****     }
 265:D:/Work/DeviceTester/amazon-freertos/lib/third_party/mbedtls/library\ecdsa.c **** 
 266:D:/Work/DeviceTester/amazon-freertos/lib/third_party/mbedtls/library\ecdsa.c ****     /*
 267:D:/Work/DeviceTester/amazon-freertos/lib/third_party/mbedtls/library\ecdsa.c ****      * Step 6: convert xR to an integer (no-op)
 268:D:/Work/DeviceTester/amazon-freertos/lib/third_party/mbedtls/library\ecdsa.c ****      * Step 7: reduce xR mod n (gives v)
 269:D:/Work/DeviceTester/amazon-freertos/lib/third_party/mbedtls/library\ecdsa.c ****      */
 270:D:/Work/DeviceTester/amazon-freertos/lib/third_party/mbedtls/library\ecdsa.c ****     MBEDTLS_MPI_CHK( mbedtls_mpi_mod_mpi( &R.X, &R.X, &grp->N ) );
 602              		.loc 1 270 0
 603 0180 3C108DE2 		add	r1, sp, #60
 604 0184 0520A0E1 		mov	r2, r5
 605 0188 0100A0E1 		mov	r0, r1
 606 018c FEFFFFEB 		bl	mbedtls_mpi_mod_mpi
 607              	.LVL103:
 608 0190 004050E2 		subs	r4, r0, #0
 609 0194 0500001A 		bne	.L31
 271:D:/Work/DeviceTester/amazon-freertos/lib/third_party/mbedtls/library\ecdsa.c **** 
 272:D:/Work/DeviceTester/amazon-freertos/lib/third_party/mbedtls/library\ecdsa.c ****     /*
 273:D:/Work/DeviceTester/amazon-freertos/lib/third_party/mbedtls/library\ecdsa.c ****      * Step 8: check if v (that is, R.X) is equal to r
 274:D:/Work/DeviceTester/amazon-freertos/lib/third_party/mbedtls/library\ecdsa.c ****      */
 275:D:/Work/DeviceTester/amazon-freertos/lib/third_party/mbedtls/library\ecdsa.c ****     if( mbedtls_mpi_cmp_mpi( &R.X, r ) != 0 )
 610              		.loc 1 275 0
 611 0198 80109DE5 		ldr	r1, [sp, #128]
 612 019c 3C008DE2 		add	r0, sp, #60
 613              	.LVL104:
 614 01a0 FEFFFFEB 		bl	mbedtls_mpi_cmp_mpi
 615              	.LVL105:
 616 01a4 004050E2 		subs	r4, r0, #0
 617              	.LVL106:
 618 01a8 0000000A 		beq	.L31
 619              	.L30:
 620              	.LVL107:
 276:D:/Work/DeviceTester/amazon-freertos/lib/third_party/mbedtls/library\ecdsa.c ****     {
 277:D:/Work/DeviceTester/amazon-freertos/lib/third_party/mbedtls/library\ecdsa.c ****         ret = MBEDTLS_ERR_ECP_VERIFY_FAILED;
 621              		.loc 1 277 0
 622 01ac 34409FE5 		ldr	r4, .L37+4
 623              	.LVL108:
 624              	.L31:
 278:D:/Work/DeviceTester/amazon-freertos/lib/third_party/mbedtls/library\ecdsa.c ****         goto cleanup;
 279:D:/Work/DeviceTester/amazon-freertos/lib/third_party/mbedtls/library\ecdsa.c ****     }
 280:D:/Work/DeviceTester/amazon-freertos/lib/third_party/mbedtls/library\ecdsa.c **** 
 281:D:/Work/DeviceTester/amazon-freertos/lib/third_party/mbedtls/library\ecdsa.c **** cleanup:
 282:D:/Work/DeviceTester/amazon-freertos/lib/third_party/mbedtls/library\ecdsa.c ****     mbedtls_ecp_point_free( &R );
 625              		.loc 1 282 0
 626 01b0 3C008DE2 		add	r0, sp, #60
 627 01b4 FEFFFFEB 		bl	mbedtls_ecp_point_free
 628              	.LVL109:
 283:D:/Work/DeviceTester/amazon-freertos/lib/third_party/mbedtls/library\ecdsa.c ****     mbedtls_mpi_free( &e ); mbedtls_mpi_free( &s_inv ); mbedtls_mpi_free( &u1 ); mbedtls_mpi_free( 
 629              		.loc 1 283 0
 630 01b8 0C008DE2 		add	r0, sp, #12
 631 01bc FEFFFFEB 		bl	mbedtls_mpi_free
 632              	.LVL110:
 633 01c0 18008DE2 		add	r0, sp, #24
 634 01c4 FEFFFFEB 		bl	mbedtls_mpi_free
 635              	.LVL111:
 636 01c8 24008DE2 		add	r0, sp, #36
 637 01cc FEFFFFEB 		bl	mbedtls_mpi_free
 638              	.LVL112:
 639 01d0 30008DE2 		add	r0, sp, #48
 640 01d4 FEFFFFEB 		bl	mbedtls_mpi_free
 641              	.LVL113:
 642              	.L28:
 284:D:/Work/DeviceTester/amazon-freertos/lib/third_party/mbedtls/library\ecdsa.c **** 
 285:D:/Work/DeviceTester/amazon-freertos/lib/third_party/mbedtls/library\ecdsa.c ****     return( ret );
 286:D:/Work/DeviceTester/amazon-freertos/lib/third_party/mbedtls/library\ecdsa.c **** }
 643              		.loc 1 286 0
 644 01d8 0400A0E1 		mov	r0, r4
 645 01dc 64D08DE2 		add	sp, sp, #100
 646              		.cfi_def_cfa_offset 28
 647              		@ sp needed
 648 01e0 F083BDE8 		pop	{r4, r5, r6, r7, r8, r9, pc}
 649              	.LVL114:
 650              	.L38:
 651              		.align	2
 652              	.L37:
 653 01e4 80B0FFFF 		.word	-20352
 654 01e8 00B2FFFF 		.word	-19968
 655              		.cfi_endproc
 656              	.LFE2:
 658              		.section	.text.mbedtls_ecdsa_write_signature,"ax",%progbits
 659              		.align	2
 660              		.global	mbedtls_ecdsa_write_signature
 661              		.syntax unified
 662              		.arm
 663              		.fpu neon
 665              	mbedtls_ecdsa_write_signature:
 666              	.LFB4:
 287:D:/Work/DeviceTester/amazon-freertos/lib/third_party/mbedtls/library\ecdsa.c **** #endif /* MBEDTLS_ECDSA_VERIFY_ALT */
 288:D:/Work/DeviceTester/amazon-freertos/lib/third_party/mbedtls/library\ecdsa.c **** 
 289:D:/Work/DeviceTester/amazon-freertos/lib/third_party/mbedtls/library\ecdsa.c **** /*
 290:D:/Work/DeviceTester/amazon-freertos/lib/third_party/mbedtls/library\ecdsa.c ****  * Convert a signature (given by context) to ASN.1
 291:D:/Work/DeviceTester/amazon-freertos/lib/third_party/mbedtls/library\ecdsa.c ****  */
 292:D:/Work/DeviceTester/amazon-freertos/lib/third_party/mbedtls/library\ecdsa.c **** static int ecdsa_signature_to_asn1( const mbedtls_mpi *r, const mbedtls_mpi *s,
 293:D:/Work/DeviceTester/amazon-freertos/lib/third_party/mbedtls/library\ecdsa.c ****                                     unsigned char *sig, size_t *slen )
 294:D:/Work/DeviceTester/amazon-freertos/lib/third_party/mbedtls/library\ecdsa.c **** {
 295:D:/Work/DeviceTester/amazon-freertos/lib/third_party/mbedtls/library\ecdsa.c ****     int ret;
 296:D:/Work/DeviceTester/amazon-freertos/lib/third_party/mbedtls/library\ecdsa.c ****     unsigned char buf[MBEDTLS_ECDSA_MAX_LEN];
 297:D:/Work/DeviceTester/amazon-freertos/lib/third_party/mbedtls/library\ecdsa.c ****     unsigned char *p = buf + sizeof( buf );
 298:D:/Work/DeviceTester/amazon-freertos/lib/third_party/mbedtls/library\ecdsa.c ****     size_t len = 0;
 299:D:/Work/DeviceTester/amazon-freertos/lib/third_party/mbedtls/library\ecdsa.c **** 
 300:D:/Work/DeviceTester/amazon-freertos/lib/third_party/mbedtls/library\ecdsa.c ****     MBEDTLS_ASN1_CHK_ADD( len, mbedtls_asn1_write_mpi( &p, buf, s ) );
 301:D:/Work/DeviceTester/amazon-freertos/lib/third_party/mbedtls/library\ecdsa.c ****     MBEDTLS_ASN1_CHK_ADD( len, mbedtls_asn1_write_mpi( &p, buf, r ) );
 302:D:/Work/DeviceTester/amazon-freertos/lib/third_party/mbedtls/library\ecdsa.c **** 
 303:D:/Work/DeviceTester/amazon-freertos/lib/third_party/mbedtls/library\ecdsa.c ****     MBEDTLS_ASN1_CHK_ADD( len, mbedtls_asn1_write_len( &p, buf, len ) );
 304:D:/Work/DeviceTester/amazon-freertos/lib/third_party/mbedtls/library\ecdsa.c ****     MBEDTLS_ASN1_CHK_ADD( len, mbedtls_asn1_write_tag( &p, buf,
 305:D:/Work/DeviceTester/amazon-freertos/lib/third_party/mbedtls/library\ecdsa.c ****                                        MBEDTLS_ASN1_CONSTRUCTED | MBEDTLS_ASN1_SEQUENCE ) );
 306:D:/Work/DeviceTester/amazon-freertos/lib/third_party/mbedtls/library\ecdsa.c **** 
 307:D:/Work/DeviceTester/amazon-freertos/lib/third_party/mbedtls/library\ecdsa.c ****     memcpy( sig, p, len );
 308:D:/Work/DeviceTester/amazon-freertos/lib/third_party/mbedtls/library\ecdsa.c ****     *slen = len;
 309:D:/Work/DeviceTester/amazon-freertos/lib/third_party/mbedtls/library\ecdsa.c **** 
 310:D:/Work/DeviceTester/amazon-freertos/lib/third_party/mbedtls/library\ecdsa.c ****     return( 0 );
 311:D:/Work/DeviceTester/amazon-freertos/lib/third_party/mbedtls/library\ecdsa.c **** }
 312:D:/Work/DeviceTester/amazon-freertos/lib/third_party/mbedtls/library\ecdsa.c **** 
 313:D:/Work/DeviceTester/amazon-freertos/lib/third_party/mbedtls/library\ecdsa.c **** /*
 314:D:/Work/DeviceTester/amazon-freertos/lib/third_party/mbedtls/library\ecdsa.c ****  * Compute and write signature
 315:D:/Work/DeviceTester/amazon-freertos/lib/third_party/mbedtls/library\ecdsa.c ****  */
 316:D:/Work/DeviceTester/amazon-freertos/lib/third_party/mbedtls/library\ecdsa.c **** int mbedtls_ecdsa_write_signature( mbedtls_ecdsa_context *ctx, mbedtls_md_type_t md_alg,
 317:D:/Work/DeviceTester/amazon-freertos/lib/third_party/mbedtls/library\ecdsa.c ****                            const unsigned char *hash, size_t hlen,
 318:D:/Work/DeviceTester/amazon-freertos/lib/third_party/mbedtls/library\ecdsa.c ****                            unsigned char *sig, size_t *slen,
 319:D:/Work/DeviceTester/amazon-freertos/lib/third_party/mbedtls/library\ecdsa.c ****                            int (*f_rng)(void *, unsigned char *, size_t),
 320:D:/Work/DeviceTester/amazon-freertos/lib/third_party/mbedtls/library\ecdsa.c ****                            void *p_rng )
 321:D:/Work/DeviceTester/amazon-freertos/lib/third_party/mbedtls/library\ecdsa.c **** {
 667              		.loc 1 321 0
 668              		.cfi_startproc
 669              		@ args = 16, pretend = 0, frame = 176
 670              		@ frame_needed = 0, uses_anonymous_args = 0
 671              	.LVL115:
 672 0000 F0402DE9 		push	{r4, r5, r6, r7, lr}
 673              		.cfi_def_cfa_offset 20
 674              		.cfi_offset 4, -20
 675              		.cfi_offset 5, -16
 676              		.cfi_offset 6, -12
 677              		.cfi_offset 7, -8
 678              		.cfi_offset 14, -4
 679 0004 C4D04DE2 		sub	sp, sp, #196
 680              		.cfi_def_cfa_offset 216
 681              		.loc 1 321 0
 682 0008 0040A0E1 		mov	r4, r0
 322:D:/Work/DeviceTester/amazon-freertos/lib/third_party/mbedtls/library\ecdsa.c ****     int ret;
 323:D:/Work/DeviceTester/amazon-freertos/lib/third_party/mbedtls/library\ecdsa.c ****     mbedtls_mpi r, s;
 324:D:/Work/DeviceTester/amazon-freertos/lib/third_party/mbedtls/library\ecdsa.c **** 
 325:D:/Work/DeviceTester/amazon-freertos/lib/third_party/mbedtls/library\ecdsa.c ****     mbedtls_mpi_init( &r );
 683              		.loc 1 325 0
 684 000c 18008DE2 		add	r0, sp, #24
 685              	.LVL116:
 321:D:/Work/DeviceTester/amazon-freertos/lib/third_party/mbedtls/library\ecdsa.c ****     int ret;
 686              		.loc 1 321 0
 687 0010 0250A0E1 		mov	r5, r2
 688 0014 0360A0E1 		mov	r6, r3
 689              		.loc 1 325 0
 690 0018 FEFFFFEB 		bl	mbedtls_mpi_init
 691              	.LVL117:
 326:D:/Work/DeviceTester/amazon-freertos/lib/third_party/mbedtls/library\ecdsa.c ****     mbedtls_mpi_init( &s );
 692              		.loc 1 326 0
 693 001c 24008DE2 		add	r0, sp, #36
 694 0020 FEFFFFEB 		bl	mbedtls_mpi_init
 695              	.LVL118:
 327:D:/Work/DeviceTester/amazon-freertos/lib/third_party/mbedtls/library\ecdsa.c **** 
 328:D:/Work/DeviceTester/amazon-freertos/lib/third_party/mbedtls/library\ecdsa.c **** #if defined(MBEDTLS_ECDSA_DETERMINISTIC)
 329:D:/Work/DeviceTester/amazon-freertos/lib/third_party/mbedtls/library\ecdsa.c ****     (void) f_rng;
 330:D:/Work/DeviceTester/amazon-freertos/lib/third_party/mbedtls/library\ecdsa.c ****     (void) p_rng;
 331:D:/Work/DeviceTester/amazon-freertos/lib/third_party/mbedtls/library\ecdsa.c **** 
 332:D:/Work/DeviceTester/amazon-freertos/lib/third_party/mbedtls/library\ecdsa.c ****     MBEDTLS_MPI_CHK( mbedtls_ecdsa_sign_det( &ctx->grp, &r, &s, &ctx->d,
 333:D:/Work/DeviceTester/amazon-freertos/lib/third_party/mbedtls/library\ecdsa.c ****                              hash, hlen, md_alg ) );
 334:D:/Work/DeviceTester/amazon-freertos/lib/third_party/mbedtls/library\ecdsa.c **** #else
 335:D:/Work/DeviceTester/amazon-freertos/lib/third_party/mbedtls/library\ecdsa.c ****     (void) md_alg;
 336:D:/Work/DeviceTester/amazon-freertos/lib/third_party/mbedtls/library\ecdsa.c **** 
 337:D:/Work/DeviceTester/amazon-freertos/lib/third_party/mbedtls/library\ecdsa.c ****     MBEDTLS_MPI_CHK( mbedtls_ecdsa_sign( &ctx->grp, &r, &s, &ctx->d,
 696              		.loc 1 337 0
 697 0024 E4309DE5 		ldr	r3, [sp, #228]
 698 0028 24208DE2 		add	r2, sp, #36
 699 002c 60008DE8 		stm	sp, {r5, r6}
 700 0030 18108DE2 		add	r1, sp, #24
 701 0034 0400A0E1 		mov	r0, r4
 702 0038 0C308DE5 		str	r3, [sp, #12]
 703 003c E0309DE5 		ldr	r3, [sp, #224]
 704 0040 08308DE5 		str	r3, [sp, #8]
 705 0044 7C3084E2 		add	r3, r4, #124
 706 0048 FEFFFFEB 		bl	mbedtls_ecdsa_sign
 707              	.LVL119:
 708 004c 007050E2 		subs	r7, r0, #0
 709 0050 2500001A 		bne	.L40
 710              	.LVL120:
 711              	.LBB8:
 712              	.LBB9:
 297:D:/Work/DeviceTester/amazon-freertos/lib/third_party/mbedtls/library\ecdsa.c ****     size_t len = 0;
 713              		.loc 1 297 0
 714 0054 C0508DE2 		add	r5, sp, #192
 715              	.LVL121:
 716 0058 BD308DE2 		add	r3, sp, #189
 717 005c AC3025E5 		str	r3, [r5, #-172]!
 718              	.LVL122:
 300:D:/Work/DeviceTester/amazon-freertos/lib/third_party/mbedtls/library\ecdsa.c ****     MBEDTLS_ASN1_CHK_ADD( len, mbedtls_asn1_write_mpi( &p, buf, r ) );
 719              		.loc 1 300 0
 720 0060 24208DE2 		add	r2, sp, #36
 721              	.LVL123:
 722 0064 30108DE2 		add	r1, sp, #48
 723 0068 0500A0E1 		mov	r0, r5
 724              	.LVL124:
 725 006c FEFFFFEB 		bl	mbedtls_asn1_write_mpi
 726              	.LVL125:
 727 0070 004050E2 		subs	r4, r0, #0
 728              	.LVL126:
 729 0074 1B0000BA 		blt	.L41
 730              	.LVL127:
 301:D:/Work/DeviceTester/amazon-freertos/lib/third_party/mbedtls/library\ecdsa.c **** 
 731              		.loc 1 301 0
 732 0078 18208DE2 		add	r2, sp, #24
 733              	.LVL128:
 734 007c 30108DE2 		add	r1, sp, #48
 735 0080 0500A0E1 		mov	r0, r5
 736              	.LVL129:
 737 0084 FEFFFFEB 		bl	mbedtls_asn1_write_mpi
 738              	.LVL130:
 739 0088 000050E3 		cmp	r0, #0
 740 008c 1D0000BA 		blt	.L43
 741 0090 006084E0 		add	r6, r4, r0
 742              	.LVL131:
 303:D:/Work/DeviceTester/amazon-freertos/lib/third_party/mbedtls/library\ecdsa.c ****     MBEDTLS_ASN1_CHK_ADD( len, mbedtls_asn1_write_tag( &p, buf,
 743              		.loc 1 303 0
 744 0094 30108DE2 		add	r1, sp, #48
 745 0098 0620A0E1 		mov	r2, r6
 746 009c 0500A0E1 		mov	r0, r5
 747              	.LVL132:
 748 00a0 FEFFFFEB 		bl	mbedtls_asn1_write_len
 749              	.LVL133:
 750 00a4 004050E2 		subs	r4, r0, #0
 751 00a8 0E0000BA 		blt	.L41
 752              	.LVL134:
 304:D:/Work/DeviceTester/amazon-freertos/lib/third_party/mbedtls/library\ecdsa.c ****                                        MBEDTLS_ASN1_CONSTRUCTED | MBEDTLS_ASN1_SEQUENCE ) );
 753              		.loc 1 304 0
 754 00ac 3020A0E3 		mov	r2, #48
 755 00b0 0500A0E1 		mov	r0, r5
 756              	.LVL135:
 757 00b4 02108DE0 		add	r1, sp, r2
 758 00b8 FEFFFFEB 		bl	mbedtls_asn1_write_tag
 759              	.LVL136:
 760 00bc 000050E3 		cmp	r0, #0
 761 00c0 100000BA 		blt	.L43
 303:D:/Work/DeviceTester/amazon-freertos/lib/third_party/mbedtls/library\ecdsa.c ****     MBEDTLS_ASN1_CHK_ADD( len, mbedtls_asn1_write_tag( &p, buf,
 762              		.loc 1 303 0
 763 00c4 064084E0 		add	r4, r4, r6
 764              	.LVL137:
 307:D:/Work/DeviceTester/amazon-freertos/lib/third_party/mbedtls/library\ecdsa.c ****     *slen = len;
 765              		.loc 1 307 0
 766 00c8 14109DE5 		ldr	r1, [sp, #20]
 304:D:/Work/DeviceTester/amazon-freertos/lib/third_party/mbedtls/library\ecdsa.c ****                                        MBEDTLS_ASN1_CONSTRUCTED | MBEDTLS_ASN1_SEQUENCE ) );
 767              		.loc 1 304 0
 768 00cc 044080E0 		add	r4, r0, r4
 769              	.LVL138:
 307:D:/Work/DeviceTester/amazon-freertos/lib/third_party/mbedtls/library\ecdsa.c ****     *slen = len;
 770              		.loc 1 307 0
 771 00d0 D8009DE5 		ldr	r0, [sp, #216]
 772              	.LVL139:
 773 00d4 0420A0E1 		mov	r2, r4
 774 00d8 FEFFFFEB 		bl	memcpy
 775              	.LVL140:
 308:D:/Work/DeviceTester/amazon-freertos/lib/third_party/mbedtls/library\ecdsa.c **** 
 776              		.loc 1 308 0
 777 00dc DC309DE5 		ldr	r3, [sp, #220]
 778 00e0 004083E5 		str	r4, [r3]
 310:D:/Work/DeviceTester/amazon-freertos/lib/third_party/mbedtls/library\ecdsa.c **** }
 779              		.loc 1 310 0
 780 00e4 0740A0E1 		mov	r4, r7
 781              	.LVL141:
 782              	.L41:
 783              	.LBE9:
 784              	.LBE8:
 338:D:/Work/DeviceTester/amazon-freertos/lib/third_party/mbedtls/library\ecdsa.c ****                          hash, hlen, f_rng, p_rng ) );
 339:D:/Work/DeviceTester/amazon-freertos/lib/third_party/mbedtls/library\ecdsa.c **** #endif
 340:D:/Work/DeviceTester/amazon-freertos/lib/third_party/mbedtls/library\ecdsa.c **** 
 341:D:/Work/DeviceTester/amazon-freertos/lib/third_party/mbedtls/library\ecdsa.c ****     MBEDTLS_MPI_CHK( ecdsa_signature_to_asn1( &r, &s, sig, slen ) );
 785              		.loc 1 341 0
 786 00e8 0470A0E1 		mov	r7, r4
 787              	.L40:
 788              	.LVL142:
 342:D:/Work/DeviceTester/amazon-freertos/lib/third_party/mbedtls/library\ecdsa.c **** 
 343:D:/Work/DeviceTester/amazon-freertos/lib/third_party/mbedtls/library\ecdsa.c **** cleanup:
 344:D:/Work/DeviceTester/amazon-freertos/lib/third_party/mbedtls/library\ecdsa.c ****     mbedtls_mpi_free( &r );
 789              		.loc 1 344 0
 790 00ec 18008DE2 		add	r0, sp, #24
 791 00f0 FEFFFFEB 		bl	mbedtls_mpi_free
 792              	.LVL143:
 345:D:/Work/DeviceTester/amazon-freertos/lib/third_party/mbedtls/library\ecdsa.c ****     mbedtls_mpi_free( &s );
 793              		.loc 1 345 0
 794 00f4 24008DE2 		add	r0, sp, #36
 795 00f8 FEFFFFEB 		bl	mbedtls_mpi_free
 796              	.LVL144:
 346:D:/Work/DeviceTester/amazon-freertos/lib/third_party/mbedtls/library\ecdsa.c **** 
 347:D:/Work/DeviceTester/amazon-freertos/lib/third_party/mbedtls/library\ecdsa.c ****     return( ret );
 348:D:/Work/DeviceTester/amazon-freertos/lib/third_party/mbedtls/library\ecdsa.c **** }
 797              		.loc 1 348 0
 798 00fc 0700A0E1 		mov	r0, r7
 799 0100 C4D08DE2 		add	sp, sp, #196
 800              		.cfi_remember_state
 801              		.cfi_def_cfa_offset 20
 802              		@ sp needed
 803 0104 F080BDE8 		pop	{r4, r5, r6, r7, pc}
 804              	.LVL145:
 805              	.L43:
 806              		.cfi_restore_state
 807              	.LBB11:
 808              	.LBB10:
 304:D:/Work/DeviceTester/amazon-freertos/lib/third_party/mbedtls/library\ecdsa.c ****                                        MBEDTLS_ASN1_CONSTRUCTED | MBEDTLS_ASN1_SEQUENCE ) );
 809              		.loc 1 304 0
 810 0108 0040A0E1 		mov	r4, r0
 811 010c F5FFFFEA 		b	.L41
 812              	.LBE10:
 813              	.LBE11:
 814              		.cfi_endproc
 815              	.LFE4:
 817              		.section	.text.mbedtls_ecdsa_read_signature,"ax",%progbits
 818              		.align	2
 819              		.global	mbedtls_ecdsa_read_signature
 820              		.syntax unified
 821              		.arm
 822              		.fpu neon
 824              	mbedtls_ecdsa_read_signature:
 825              	.LFB5:
 349:D:/Work/DeviceTester/amazon-freertos/lib/third_party/mbedtls/library\ecdsa.c **** 
 350:D:/Work/DeviceTester/amazon-freertos/lib/third_party/mbedtls/library\ecdsa.c **** #if ! defined(MBEDTLS_DEPRECATED_REMOVED) && \
 351:D:/Work/DeviceTester/amazon-freertos/lib/third_party/mbedtls/library\ecdsa.c ****     defined(MBEDTLS_ECDSA_DETERMINISTIC)
 352:D:/Work/DeviceTester/amazon-freertos/lib/third_party/mbedtls/library\ecdsa.c **** int mbedtls_ecdsa_write_signature_det( mbedtls_ecdsa_context *ctx,
 353:D:/Work/DeviceTester/amazon-freertos/lib/third_party/mbedtls/library\ecdsa.c ****                                const unsigned char *hash, size_t hlen,
 354:D:/Work/DeviceTester/amazon-freertos/lib/third_party/mbedtls/library\ecdsa.c ****                                unsigned char *sig, size_t *slen,
 355:D:/Work/DeviceTester/amazon-freertos/lib/third_party/mbedtls/library\ecdsa.c ****                                mbedtls_md_type_t md_alg )
 356:D:/Work/DeviceTester/amazon-freertos/lib/third_party/mbedtls/library\ecdsa.c **** {
 357:D:/Work/DeviceTester/amazon-freertos/lib/third_party/mbedtls/library\ecdsa.c ****     return( mbedtls_ecdsa_write_signature( ctx, md_alg, hash, hlen, sig, slen,
 358:D:/Work/DeviceTester/amazon-freertos/lib/third_party/mbedtls/library\ecdsa.c ****                                    NULL, NULL ) );
 359:D:/Work/DeviceTester/amazon-freertos/lib/third_party/mbedtls/library\ecdsa.c **** }
 360:D:/Work/DeviceTester/amazon-freertos/lib/third_party/mbedtls/library\ecdsa.c **** #endif
 361:D:/Work/DeviceTester/amazon-freertos/lib/third_party/mbedtls/library\ecdsa.c **** 
 362:D:/Work/DeviceTester/amazon-freertos/lib/third_party/mbedtls/library\ecdsa.c **** /*
 363:D:/Work/DeviceTester/amazon-freertos/lib/third_party/mbedtls/library\ecdsa.c ****  * Read and check signature
 364:D:/Work/DeviceTester/amazon-freertos/lib/third_party/mbedtls/library\ecdsa.c ****  */
 365:D:/Work/DeviceTester/amazon-freertos/lib/third_party/mbedtls/library\ecdsa.c **** int mbedtls_ecdsa_read_signature( mbedtls_ecdsa_context *ctx,
 366:D:/Work/DeviceTester/amazon-freertos/lib/third_party/mbedtls/library\ecdsa.c ****                           const unsigned char *hash, size_t hlen,
 367:D:/Work/DeviceTester/amazon-freertos/lib/third_party/mbedtls/library\ecdsa.c ****                           const unsigned char *sig, size_t slen )
 368:D:/Work/DeviceTester/amazon-freertos/lib/third_party/mbedtls/library\ecdsa.c **** {
 826              		.loc 1 368 0
 827              		.cfi_startproc
 828              		@ args = 4, pretend = 0, frame = 32
 829              		@ frame_needed = 0, uses_anonymous_args = 0
 830              	.LVL146:
 831 0000 F0432DE9 		push	{r4, r5, r6, r7, r8, r9, lr}
 832              		.cfi_def_cfa_offset 28
 833              		.cfi_offset 4, -28
 834              		.cfi_offset 5, -24
 835              		.cfi_offset 6, -20
 836              		.cfi_offset 7, -16
 837              		.cfi_offset 8, -12
 838              		.cfi_offset 9, -8
 839              		.cfi_offset 14, -4
 840 0004 2CD04DE2 		sub	sp, sp, #44
 841              		.cfi_def_cfa_offset 72
 369:D:/Work/DeviceTester/amazon-freertos/lib/third_party/mbedtls/library\ecdsa.c ****     int ret;
 370:D:/Work/DeviceTester/amazon-freertos/lib/third_party/mbedtls/library\ecdsa.c ****     unsigned char *p = (unsigned char *) sig;
 371:D:/Work/DeviceTester/amazon-freertos/lib/third_party/mbedtls/library\ecdsa.c ****     const unsigned char *end = sig + slen;
 842              		.loc 1 371 0
 843 0008 48509DE5 		ldr	r5, [sp, #72]
 372:D:/Work/DeviceTester/amazon-freertos/lib/third_party/mbedtls/library\ecdsa.c ****     size_t len;
 373:D:/Work/DeviceTester/amazon-freertos/lib/third_party/mbedtls/library\ecdsa.c ****     mbedtls_mpi r, s;
 374:D:/Work/DeviceTester/amazon-freertos/lib/third_party/mbedtls/library\ecdsa.c **** 
 375:D:/Work/DeviceTester/amazon-freertos/lib/third_party/mbedtls/library\ecdsa.c ****     mbedtls_mpi_init( &r );
 844              		.loc 1 375 0
 845 000c 10708DE2 		add	r7, sp, #16
 368:D:/Work/DeviceTester/amazon-freertos/lib/third_party/mbedtls/library\ecdsa.c ****     int ret;
 846              		.loc 1 368 0
 847 0010 0040A0E1 		mov	r4, r0
 376:D:/Work/DeviceTester/amazon-freertos/lib/third_party/mbedtls/library\ecdsa.c ****     mbedtls_mpi_init( &s );
 848              		.loc 1 376 0
 849 0014 1C608DE2 		add	r6, sp, #28
 375:D:/Work/DeviceTester/amazon-freertos/lib/third_party/mbedtls/library\ecdsa.c ****     mbedtls_mpi_init( &s );
 850              		.loc 1 375 0
 851 0018 0700A0E1 		mov	r0, r7
 852              	.LVL147:
 368:D:/Work/DeviceTester/amazon-freertos/lib/third_party/mbedtls/library\ecdsa.c ****     int ret;
 853              		.loc 1 368 0
 854 001c 0180A0E1 		mov	r8, r1
 371:D:/Work/DeviceTester/amazon-freertos/lib/third_party/mbedtls/library\ecdsa.c ****     size_t len;
 855              		.loc 1 371 0
 856 0020 055083E0 		add	r5, r3, r5
 857              	.LVL148:
 368:D:/Work/DeviceTester/amazon-freertos/lib/third_party/mbedtls/library\ecdsa.c ****     int ret;
 858              		.loc 1 368 0
 859 0024 0290A0E1 		mov	r9, r2
 370:D:/Work/DeviceTester/amazon-freertos/lib/third_party/mbedtls/library\ecdsa.c ****     const unsigned char *end = sig + slen;
 860              		.loc 1 370 0
 861 0028 08308DE5 		str	r3, [sp, #8]
 375:D:/Work/DeviceTester/amazon-freertos/lib/third_party/mbedtls/library\ecdsa.c ****     mbedtls_mpi_init( &s );
 862              		.loc 1 375 0
 863 002c FEFFFFEB 		bl	mbedtls_mpi_init
 864              	.LVL149:
 865              		.loc 1 376 0
 866 0030 0600A0E1 		mov	r0, r6
 867 0034 FEFFFFEB 		bl	mbedtls_mpi_init
 868              	.LVL150:
 377:D:/Work/DeviceTester/amazon-freertos/lib/third_party/mbedtls/library\ecdsa.c **** 
 378:D:/Work/DeviceTester/amazon-freertos/lib/third_party/mbedtls/library\ecdsa.c ****     if( ( ret = mbedtls_asn1_get_tag( &p, end, &len,
 869              		.loc 1 378 0
 870 0038 3030A0E3 		mov	r3, #48
 871 003c 0C208DE2 		add	r2, sp, #12
 872 0040 0510A0E1 		mov	r1, r5
 873 0044 08008DE2 		add	r0, sp, #8
 874 0048 FEFFFFEB 		bl	mbedtls_asn1_get_tag
 875              	.LVL151:
 876 004c 000050E3 		cmp	r0, #0
 877 0050 0800000A 		beq	.L46
 878              	.LVL152:
 879              	.L48:
 379:D:/Work/DeviceTester/amazon-freertos/lib/third_party/mbedtls/library\ecdsa.c ****                     MBEDTLS_ASN1_CONSTRUCTED | MBEDTLS_ASN1_SEQUENCE ) ) != 0 )
 380:D:/Work/DeviceTester/amazon-freertos/lib/third_party/mbedtls/library\ecdsa.c ****     {
 381:D:/Work/DeviceTester/amazon-freertos/lib/third_party/mbedtls/library\ecdsa.c ****         ret += MBEDTLS_ERR_ECP_BAD_INPUT_DATA;
 382:D:/Work/DeviceTester/amazon-freertos/lib/third_party/mbedtls/library\ecdsa.c ****         goto cleanup;
 383:D:/Work/DeviceTester/amazon-freertos/lib/third_party/mbedtls/library\ecdsa.c ****     }
 384:D:/Work/DeviceTester/amazon-freertos/lib/third_party/mbedtls/library\ecdsa.c **** 
 385:D:/Work/DeviceTester/amazon-freertos/lib/third_party/mbedtls/library\ecdsa.c ****     if( p + len != end )
 386:D:/Work/DeviceTester/amazon-freertos/lib/third_party/mbedtls/library\ecdsa.c ****     {
 387:D:/Work/DeviceTester/amazon-freertos/lib/third_party/mbedtls/library\ecdsa.c ****         ret = MBEDTLS_ERR_ECP_BAD_INPUT_DATA +
 388:D:/Work/DeviceTester/amazon-freertos/lib/third_party/mbedtls/library\ecdsa.c ****               MBEDTLS_ERR_ASN1_LENGTH_MISMATCH;
 389:D:/Work/DeviceTester/amazon-freertos/lib/third_party/mbedtls/library\ecdsa.c ****         goto cleanup;
 390:D:/Work/DeviceTester/amazon-freertos/lib/third_party/mbedtls/library\ecdsa.c ****     }
 391:D:/Work/DeviceTester/amazon-freertos/lib/third_party/mbedtls/library\ecdsa.c **** 
 392:D:/Work/DeviceTester/amazon-freertos/lib/third_party/mbedtls/library\ecdsa.c ****     if( ( ret = mbedtls_asn1_get_mpi( &p, end, &r ) ) != 0 ||
 393:D:/Work/DeviceTester/amazon-freertos/lib/third_party/mbedtls/library\ecdsa.c ****         ( ret = mbedtls_asn1_get_mpi( &p, end, &s ) ) != 0 )
 394:D:/Work/DeviceTester/amazon-freertos/lib/third_party/mbedtls/library\ecdsa.c ****     {
 395:D:/Work/DeviceTester/amazon-freertos/lib/third_party/mbedtls/library\ecdsa.c ****         ret += MBEDTLS_ERR_ECP_BAD_INPUT_DATA;
 880              		.loc 1 395 0
 881 0054 4F4C40E2 		sub	r4, r0, #20224
 882 0058 804044E2 		sub	r4, r4, #128
 883              	.LVL153:
 884              	.L47:
 396:D:/Work/DeviceTester/amazon-freertos/lib/third_party/mbedtls/library\ecdsa.c ****         goto cleanup;
 397:D:/Work/DeviceTester/amazon-freertos/lib/third_party/mbedtls/library\ecdsa.c ****     }
 398:D:/Work/DeviceTester/amazon-freertos/lib/third_party/mbedtls/library\ecdsa.c **** 
 399:D:/Work/DeviceTester/amazon-freertos/lib/third_party/mbedtls/library\ecdsa.c ****     if( ( ret = mbedtls_ecdsa_verify( &ctx->grp, hash, hlen,
 400:D:/Work/DeviceTester/amazon-freertos/lib/third_party/mbedtls/library\ecdsa.c ****                               &ctx->Q, &r, &s ) ) != 0 )
 401:D:/Work/DeviceTester/amazon-freertos/lib/third_party/mbedtls/library\ecdsa.c ****         goto cleanup;
 402:D:/Work/DeviceTester/amazon-freertos/lib/third_party/mbedtls/library\ecdsa.c **** 
 403:D:/Work/DeviceTester/amazon-freertos/lib/third_party/mbedtls/library\ecdsa.c ****     /* At this point we know that the buffer starts with a valid signature.
 404:D:/Work/DeviceTester/amazon-freertos/lib/third_party/mbedtls/library\ecdsa.c ****      * Return 0 if the buffer just contains the signature, and a specific
 405:D:/Work/DeviceTester/amazon-freertos/lib/third_party/mbedtls/library\ecdsa.c ****      * error code if the valid signature is followed by more data. */
 406:D:/Work/DeviceTester/amazon-freertos/lib/third_party/mbedtls/library\ecdsa.c ****     if( p != end )
 407:D:/Work/DeviceTester/amazon-freertos/lib/third_party/mbedtls/library\ecdsa.c ****         ret = MBEDTLS_ERR_ECP_SIG_LEN_MISMATCH;
 408:D:/Work/DeviceTester/amazon-freertos/lib/third_party/mbedtls/library\ecdsa.c **** 
 409:D:/Work/DeviceTester/amazon-freertos/lib/third_party/mbedtls/library\ecdsa.c **** cleanup:
 410:D:/Work/DeviceTester/amazon-freertos/lib/third_party/mbedtls/library\ecdsa.c ****     mbedtls_mpi_free( &r );
 885              		.loc 1 410 0
 886 005c 0700A0E1 		mov	r0, r7
 887 0060 FEFFFFEB 		bl	mbedtls_mpi_free
 888              	.LVL154:
 411:D:/Work/DeviceTester/amazon-freertos/lib/third_party/mbedtls/library\ecdsa.c ****     mbedtls_mpi_free( &s );
 889              		.loc 1 411 0
 890 0064 0600A0E1 		mov	r0, r6
 891 0068 FEFFFFEB 		bl	mbedtls_mpi_free
 892              	.LVL155:
 412:D:/Work/DeviceTester/amazon-freertos/lib/third_party/mbedtls/library\ecdsa.c **** 
 413:D:/Work/DeviceTester/amazon-freertos/lib/third_party/mbedtls/library\ecdsa.c ****     return( ret );
 414:D:/Work/DeviceTester/amazon-freertos/lib/third_party/mbedtls/library\ecdsa.c **** }
 893              		.loc 1 414 0
 894 006c 0400A0E1 		mov	r0, r4
 895 0070 2CD08DE2 		add	sp, sp, #44
 896              		.cfi_remember_state
 897              		.cfi_def_cfa_offset 28
 898              		@ sp needed
 899 0074 F083BDE8 		pop	{r4, r5, r6, r7, r8, r9, pc}
 900              	.LVL156:
 901              	.L46:
 902              		.cfi_restore_state
 385:D:/Work/DeviceTester/amazon-freertos/lib/third_party/mbedtls/library\ecdsa.c ****     {
 903              		.loc 1 385 0
 904 0078 0C209DE5 		ldr	r2, [sp, #12]
 905 007c 08309DE5 		ldr	r3, [sp, #8]
 906 0080 023083E0 		add	r3, r3, r2
 907 0084 030055E1 		cmp	r5, r3
 387:D:/Work/DeviceTester/amazon-freertos/lib/third_party/mbedtls/library\ecdsa.c ****               MBEDTLS_ERR_ASN1_LENGTH_MISMATCH;
 908              		.loc 1 387 0
 909 0088 68409F15 		ldrne	r4, .L52
 910              	.LVL157:
 385:D:/Work/DeviceTester/amazon-freertos/lib/third_party/mbedtls/library\ecdsa.c ****     {
 911              		.loc 1 385 0
 912 008c F2FFFF1A 		bne	.L47
 392:D:/Work/DeviceTester/amazon-freertos/lib/third_party/mbedtls/library\ecdsa.c ****         ( ret = mbedtls_asn1_get_mpi( &p, end, &s ) ) != 0 )
 913              		.loc 1 392 0
 914 0090 0720A0E1 		mov	r2, r7
 915 0094 0510A0E1 		mov	r1, r5
 916 0098 08008DE2 		add	r0, sp, #8
 917              	.LVL158:
 918 009c FEFFFFEB 		bl	mbedtls_asn1_get_mpi
 919              	.LVL159:
 920 00a0 000050E3 		cmp	r0, #0
 921 00a4 EAFFFF1A 		bne	.L48
 392:D:/Work/DeviceTester/amazon-freertos/lib/third_party/mbedtls/library\ecdsa.c ****         ( ret = mbedtls_asn1_get_mpi( &p, end, &s ) ) != 0 )
 922              		.loc 1 392 0 is_stmt 0 discriminator 1
 923 00a8 0620A0E1 		mov	r2, r6
 924 00ac 0510A0E1 		mov	r1, r5
 925 00b0 08008DE2 		add	r0, sp, #8
 926              	.LVL160:
 927 00b4 FEFFFFEB 		bl	mbedtls_asn1_get_mpi
 928              	.LVL161:
 929 00b8 000050E3 		cmp	r0, #0
 930 00bc E4FFFF1A 		bne	.L48
 399:D:/Work/DeviceTester/amazon-freertos/lib/third_party/mbedtls/library\ecdsa.c ****                               &ctx->Q, &r, &s ) ) != 0 )
 931              		.loc 1 399 0 is_stmt 1
 932 00c0 883084E2 		add	r3, r4, #136
 933 00c4 0400A0E1 		mov	r0, r4
 934              	.LVL162:
 935 00c8 04608DE5 		str	r6, [sp, #4]
 936 00cc 0920A0E1 		mov	r2, r9
 937 00d0 00708DE5 		str	r7, [sp]
 938 00d4 0810A0E1 		mov	r1, r8
 939 00d8 FEFFFFEB 		bl	mbedtls_ecdsa_verify
 940              	.LVL163:
 941 00dc 004050E2 		subs	r4, r0, #0
 942 00e0 DDFFFF1A 		bne	.L47
 407:D:/Work/DeviceTester/amazon-freertos/lib/third_party/mbedtls/library\ecdsa.c **** 
 943              		.loc 1 407 0
 944 00e4 08209DE5 		ldr	r2, [sp, #8]
 945 00e8 0C309FE5 		ldr	r3, .L52+4
 946 00ec 020055E1 		cmp	r5, r2
 947 00f0 0340A011 		movne	r4, r3
 948 00f4 D8FFFFEA 		b	.L47
 949              	.L53:
 950              		.align	2
 951              	.L52:
 952 00f8 1AB0FFFF 		.word	-20454
 953 00fc 00B4FFFF 		.word	-19456
 954              		.cfi_endproc
 955              	.LFE5:
 957              		.section	.text.mbedtls_ecdsa_genkey,"ax",%progbits
 958              		.align	2
 959              		.global	mbedtls_ecdsa_genkey
 960              		.syntax unified
 961              		.arm
 962              		.fpu neon
 964              	mbedtls_ecdsa_genkey:
 965              	.LFB6:
 415:D:/Work/DeviceTester/amazon-freertos/lib/third_party/mbedtls/library\ecdsa.c **** 
 416:D:/Work/DeviceTester/amazon-freertos/lib/third_party/mbedtls/library\ecdsa.c **** #if !defined(MBEDTLS_ECDSA_GENKEY_ALT)
 417:D:/Work/DeviceTester/amazon-freertos/lib/third_party/mbedtls/library\ecdsa.c **** /*
 418:D:/Work/DeviceTester/amazon-freertos/lib/third_party/mbedtls/library\ecdsa.c ****  * Generate key pair
 419:D:/Work/DeviceTester/amazon-freertos/lib/third_party/mbedtls/library\ecdsa.c ****  */
 420:D:/Work/DeviceTester/amazon-freertos/lib/third_party/mbedtls/library\ecdsa.c **** int mbedtls_ecdsa_genkey( mbedtls_ecdsa_context *ctx, mbedtls_ecp_group_id gid,
 421:D:/Work/DeviceTester/amazon-freertos/lib/third_party/mbedtls/library\ecdsa.c ****                   int (*f_rng)(void *, unsigned char *, size_t), void *p_rng )
 422:D:/Work/DeviceTester/amazon-freertos/lib/third_party/mbedtls/library\ecdsa.c **** {
 966              		.loc 1 422 0
 967              		.cfi_startproc
 968              		@ args = 0, pretend = 0, frame = 0
 969              		@ frame_needed = 0, uses_anonymous_args = 0
 970              	.LVL164:
 971 0000 73402DE9 		push	{r0, r1, r4, r5, r6, lr}
 972              		.cfi_def_cfa_offset 24
 973              		.cfi_offset 4, -16
 974              		.cfi_offset 5, -12
 975              		.cfi_offset 6, -8
 976              		.cfi_offset 14, -4
 977              		.loc 1 422 0
 978 0004 0040A0E1 		mov	r4, r0
 979 0008 0250A0E1 		mov	r5, r2
 980 000c 0360A0E1 		mov	r6, r3
 423:D:/Work/DeviceTester/amazon-freertos/lib/third_party/mbedtls/library\ecdsa.c ****     return( mbedtls_ecp_group_load( &ctx->grp, gid ) ||
 981              		.loc 1 423 0
 982 0010 FEFFFFEB 		bl	mbedtls_ecp_group_load
 983              	.LVL165:
 984 0014 000050E3 		cmp	r0, #0
 985 0018 0100A013 		movne	r0, #1
 986 001c 0700001A 		bne	.L54
 424:D:/Work/DeviceTester/amazon-freertos/lib/third_party/mbedtls/library\ecdsa.c ****             mbedtls_ecp_gen_keypair( &ctx->grp, &ctx->d, &ctx->Q, f_rng, p_rng ) );
 987              		.loc 1 424 0 discriminator 2
 988 0020 00608DE5 		str	r6, [sp]
 989 0024 0530A0E1 		mov	r3, r5
 990 0028 882084E2 		add	r2, r4, #136
 991 002c 7C1084E2 		add	r1, r4, #124
 992 0030 0400A0E1 		mov	r0, r4
 993 0034 FEFFFFEB 		bl	mbedtls_ecp_gen_keypair
 994              	.LVL166:
 423:D:/Work/DeviceTester/amazon-freertos/lib/third_party/mbedtls/library\ecdsa.c ****     return( mbedtls_ecp_group_load( &ctx->grp, gid ) ||
 995              		.loc 1 423 0 discriminator 2
 996 0038 000090E2 		adds	r0, r0, #0
 997 003c 0100A013 		movne	r0, #1
 998              	.L54:
 425:D:/Work/DeviceTester/amazon-freertos/lib/third_party/mbedtls/library\ecdsa.c **** }
 999              		.loc 1 425 0
 1000 0040 08D08DE2 		add	sp, sp, #8
 1001              		.cfi_def_cfa_offset 16
 1002              		@ sp needed
 1003 0044 7080BDE8 		pop	{r4, r5, r6, pc}
 1004              		.cfi_endproc
 1005              	.LFE6:
 1007              		.section	.text.mbedtls_ecdsa_from_keypair,"ax",%progbits
 1008              		.align	2
 1009              		.global	mbedtls_ecdsa_from_keypair
 1010              		.syntax unified
 1011              		.arm
 1012              		.fpu neon
 1014              	mbedtls_ecdsa_from_keypair:
 1015              	.LFB7:
 426:D:/Work/DeviceTester/amazon-freertos/lib/third_party/mbedtls/library\ecdsa.c **** #endif /* MBEDTLS_ECDSA_GENKEY_ALT */
 427:D:/Work/DeviceTester/amazon-freertos/lib/third_party/mbedtls/library\ecdsa.c **** 
 428:D:/Work/DeviceTester/amazon-freertos/lib/third_party/mbedtls/library\ecdsa.c **** /*
 429:D:/Work/DeviceTester/amazon-freertos/lib/third_party/mbedtls/library\ecdsa.c ****  * Set context from an mbedtls_ecp_keypair
 430:D:/Work/DeviceTester/amazon-freertos/lib/third_party/mbedtls/library\ecdsa.c ****  */
 431:D:/Work/DeviceTester/amazon-freertos/lib/third_party/mbedtls/library\ecdsa.c **** int mbedtls_ecdsa_from_keypair( mbedtls_ecdsa_context *ctx, const mbedtls_ecp_keypair *key )
 432:D:/Work/DeviceTester/amazon-freertos/lib/third_party/mbedtls/library\ecdsa.c **** {
 1016              		.loc 1 432 0
 1017              		.cfi_startproc
 1018              		@ args = 0, pretend = 0, frame = 0
 1019              		@ frame_needed = 0, uses_anonymous_args = 0
 1020              	.LVL167:
 1021 0000 70402DE9 		push	{r4, r5, r6, lr}
 1022              		.cfi_def_cfa_offset 16
 1023              		.cfi_offset 4, -16
 1024              		.cfi_offset 5, -12
 1025              		.cfi_offset 6, -8
 1026              		.cfi_offset 14, -4
 1027              		.loc 1 432 0
 1028 0004 0050A0E1 		mov	r5, r0
 1029 0008 0160A0E1 		mov	r6, r1
 433:D:/Work/DeviceTester/amazon-freertos/lib/third_party/mbedtls/library\ecdsa.c ****     int ret;
 434:D:/Work/DeviceTester/amazon-freertos/lib/third_party/mbedtls/library\ecdsa.c **** 
 435:D:/Work/DeviceTester/amazon-freertos/lib/third_party/mbedtls/library\ecdsa.c ****     if( ( ret = mbedtls_ecp_group_copy( &ctx->grp, &key->grp ) ) != 0 ||
 1030              		.loc 1 435 0
 1031 000c FEFFFFEB 		bl	mbedtls_ecp_group_copy
 1032              	.LVL168:
 1033 0010 004050E2 		subs	r4, r0, #0
 1034 0014 0900001A 		bne	.L59
 1035              		.loc 1 435 0 is_stmt 0 discriminator 1
 1036 0018 7C1086E2 		add	r1, r6, #124
 1037 001c 7C0085E2 		add	r0, r5, #124
 1038              	.LVL169:
 1039 0020 FEFFFFEB 		bl	mbedtls_mpi_copy
 1040              	.LVL170:
 1041 0024 004050E2 		subs	r4, r0, #0
 1042 0028 0400001A 		bne	.L59
 436:D:/Work/DeviceTester/amazon-freertos/lib/third_party/mbedtls/library\ecdsa.c ****         ( ret = mbedtls_mpi_copy( &ctx->d, &key->d ) ) != 0 ||
 1043              		.loc 1 436 0 is_stmt 1
 1044 002c 881086E2 		add	r1, r6, #136
 1045 0030 880085E2 		add	r0, r5, #136
 1046              	.LVL171:
 1047 0034 FEFFFFEB 		bl	mbedtls_ecp_copy
 1048              	.LVL172:
 1049 0038 004050E2 		subs	r4, r0, #0
 1050 003c 0100000A 		beq	.L58
 1051              	.L59:
 1052              	.LVL173:
 1053              	.LBB12:
 1054              	.LBB13:
 437:D:/Work/DeviceTester/amazon-freertos/lib/third_party/mbedtls/library\ecdsa.c ****         ( ret = mbedtls_ecp_copy( &ctx->Q, &key->Q ) ) != 0 )
 438:D:/Work/DeviceTester/amazon-freertos/lib/third_party/mbedtls/library\ecdsa.c ****     {
 439:D:/Work/DeviceTester/amazon-freertos/lib/third_party/mbedtls/library\ecdsa.c ****         mbedtls_ecdsa_free( ctx );
 440:D:/Work/DeviceTester/amazon-freertos/lib/third_party/mbedtls/library\ecdsa.c ****     }
 441:D:/Work/DeviceTester/amazon-freertos/lib/third_party/mbedtls/library\ecdsa.c **** 
 442:D:/Work/DeviceTester/amazon-freertos/lib/third_party/mbedtls/library\ecdsa.c ****     return( ret );
 443:D:/Work/DeviceTester/amazon-freertos/lib/third_party/mbedtls/library\ecdsa.c **** }
 444:D:/Work/DeviceTester/amazon-freertos/lib/third_party/mbedtls/library\ecdsa.c **** 
 445:D:/Work/DeviceTester/amazon-freertos/lib/third_party/mbedtls/library\ecdsa.c **** /*
 446:D:/Work/DeviceTester/amazon-freertos/lib/third_party/mbedtls/library\ecdsa.c ****  * Initialize context
 447:D:/Work/DeviceTester/amazon-freertos/lib/third_party/mbedtls/library\ecdsa.c ****  */
 448:D:/Work/DeviceTester/amazon-freertos/lib/third_party/mbedtls/library\ecdsa.c **** void mbedtls_ecdsa_init( mbedtls_ecdsa_context *ctx )
 449:D:/Work/DeviceTester/amazon-freertos/lib/third_party/mbedtls/library\ecdsa.c **** {
 450:D:/Work/DeviceTester/amazon-freertos/lib/third_party/mbedtls/library\ecdsa.c ****     mbedtls_ecp_keypair_init( ctx );
 451:D:/Work/DeviceTester/amazon-freertos/lib/third_party/mbedtls/library\ecdsa.c **** }
 452:D:/Work/DeviceTester/amazon-freertos/lib/third_party/mbedtls/library\ecdsa.c **** 
 453:D:/Work/DeviceTester/amazon-freertos/lib/third_party/mbedtls/library\ecdsa.c **** /*
 454:D:/Work/DeviceTester/amazon-freertos/lib/third_party/mbedtls/library\ecdsa.c ****  * Free context
 455:D:/Work/DeviceTester/amazon-freertos/lib/third_party/mbedtls/library\ecdsa.c ****  */
 456:D:/Work/DeviceTester/amazon-freertos/lib/third_party/mbedtls/library\ecdsa.c **** void mbedtls_ecdsa_free( mbedtls_ecdsa_context *ctx )
 457:D:/Work/DeviceTester/amazon-freertos/lib/third_party/mbedtls/library\ecdsa.c **** {
 458:D:/Work/DeviceTester/amazon-freertos/lib/third_party/mbedtls/library\ecdsa.c ****     mbedtls_ecp_keypair_free( ctx );
 1055              		.loc 1 458 0
 1056 0040 0500A0E1 		mov	r0, r5
 1057              	.LVL174:
 1058 0044 FEFFFFEB 		bl	mbedtls_ecp_keypair_free
 1059              	.LVL175:
 1060              	.L58:
 1061              	.LBE13:
 1062              	.LBE12:
 443:D:/Work/DeviceTester/amazon-freertos/lib/third_party/mbedtls/library\ecdsa.c **** 
 1063              		.loc 1 443 0
 1064 0048 0400A0E1 		mov	r0, r4
 1065 004c 7080BDE8 		pop	{r4, r5, r6, pc}
 1066              		.cfi_endproc
 1067              	.LFE7:
 1069              		.section	.text.mbedtls_ecdsa_init,"ax",%progbits
 1070              		.align	2
 1071              		.global	mbedtls_ecdsa_init
 1072              		.syntax unified
 1073              		.arm
 1074              		.fpu neon
 1076              	mbedtls_ecdsa_init:
 1077              	.LFB8:
 449:D:/Work/DeviceTester/amazon-freertos/lib/third_party/mbedtls/library\ecdsa.c ****     mbedtls_ecp_keypair_init( ctx );
 1078              		.loc 1 449 0
 1079              		.cfi_startproc
 1080              		@ args = 0, pretend = 0, frame = 0
 1081              		@ frame_needed = 0, uses_anonymous_args = 0
 1082              		@ link register save eliminated.
 1083              	.LVL176:
 450:D:/Work/DeviceTester/amazon-freertos/lib/third_party/mbedtls/library\ecdsa.c **** }
 1084              		.loc 1 450 0
 1085 0000 FEFFFFEA 		b	mbedtls_ecp_keypair_init
 1086              	.LVL177:
 1087              		.cfi_endproc
 1088              	.LFE8:
 1090              		.section	.text.mbedtls_ecdsa_free,"ax",%progbits
 1091              		.align	2
 1092              		.global	mbedtls_ecdsa_free
 1093              		.syntax unified
 1094              		.arm
 1095              		.fpu neon
 1097              	mbedtls_ecdsa_free:
 1098              	.LFB9:
 457:D:/Work/DeviceTester/amazon-freertos/lib/third_party/mbedtls/library\ecdsa.c ****     mbedtls_ecp_keypair_free( ctx );
 1099              		.loc 1 457 0
 1100              		.cfi_startproc
 1101              		@ args = 0, pretend = 0, frame = 0
 1102              		@ frame_needed = 0, uses_anonymous_args = 0
 1103              		@ link register save eliminated.
 1104              	.LVL178:
 1105              		.loc 1 458 0
 1106 0000 FEFFFFEA 		b	mbedtls_ecp_keypair_free
 1107              	.LVL179:
 1108              		.cfi_endproc
 1109              	.LFE9:
 1111              		.text
 1112              	.Letext0:
 1113              		.file 2 "c:\\program files (x86)\\gnu tools arm embedded\\6 2017-q2-update\\arm-none-eabi\\include
 1114              		.file 3 "c:\\program files (x86)\\gnu tools arm embedded\\6 2017-q2-update\\lib\\gcc\\arm-none-eab
 1115              		.file 4 "c:\\program files (x86)\\gnu tools arm embedded\\6 2017-q2-update\\arm-none-eabi\\include
 1116              		.file 5 "D:\\Work\\DeviceTester\\amazon-freertos\\lib\\third_party\\mbedtls\\include/mbedtls/bignu
 1117              		.file 6 "D:\\Work\\DeviceTester\\amazon-freertos\\lib\\third_party\\mbedtls\\include/mbedtls/ecp.h
 1118              		.file 7 "D:\\Work\\DeviceTester\\amazon-freertos\\lib\\third_party\\mbedtls\\include/mbedtls/md.h"
 1119              		.file 8 "D:\\Work\\DeviceTester\\amazon-freertos\\lib\\third_party\\mbedtls\\include/mbedtls/ecdsa
 1120              		.file 9 "c:\\program files (x86)\\gnu tools arm embedded\\6 2017-q2-update\\arm-none-eabi\\include
 1121              		.file 10 "c:\\program files (x86)\\gnu tools arm embedded\\6 2017-q2-update\\arm-none-eabi\\includ
 1122              		.file 11 "c:\\program files (x86)\\gnu tools arm embedded\\6 2017-q2-update\\arm-none-eabi\\includ
 1123              		.file 12 "D:\\Work\\DeviceTester\\amazon-freertos\\lib\\third_party\\mbedtls\\include/mbedtls/asn1
 1124              		.file 13 "D:\\Work\\DeviceTester\\amazon-freertos\\lib\\third_party\\mbedtls\\include/mbedtls/asn1