   1              		.cpu cortex-a9
   2              		.eabi_attribute 28, 1
   3              		.eabi_attribute 20, 1
   4              		.eabi_attribute 21, 1
   5              		.eabi_attribute 23, 3
   6              		.eabi_attribute 24, 1
   7              		.eabi_attribute 25, 1
   8              		.eabi_attribute 26, 1
   9              		.eabi_attribute 30, 4
  10              		.eabi_attribute 34, 0
  11              		.eabi_attribute 18, 4
  12              		.file	"gcm.c"
  13              		.text
  14              	.Ltext0:
  15              		.cfi_sections	.debug_frame
  16              		.section	.text.gcm_mult,"ax",%progbits
  17              		.align	2
  18              		.syntax unified
  19              		.arm
  20              		.fpu neon
  22              	gcm_mult:
  23              	.LFB11:
  24              		.file 1 "D:/Work/DeviceTester/amazon-freertos/lib/third_party/mbedtls/library/gcm.c"
   1:D:/Work/DeviceTester/amazon-freertos/lib/third_party/mbedtls/library\gcm.c **** /*
   2:D:/Work/DeviceTester/amazon-freertos/lib/third_party/mbedtls/library\gcm.c ****  *  NIST SP800-38D compliant GCM implementation
   3:D:/Work/DeviceTester/amazon-freertos/lib/third_party/mbedtls/library\gcm.c ****  *
   4:D:/Work/DeviceTester/amazon-freertos/lib/third_party/mbedtls/library\gcm.c ****  *  Copyright (C) 2006-2015, ARM Limited, All Rights Reserved
   5:D:/Work/DeviceTester/amazon-freertos/lib/third_party/mbedtls/library\gcm.c ****  *  SPDX-License-Identifier: Apache-2.0
   6:D:/Work/DeviceTester/amazon-freertos/lib/third_party/mbedtls/library\gcm.c ****  *
   7:D:/Work/DeviceTester/amazon-freertos/lib/third_party/mbedtls/library\gcm.c ****  *  Licensed under the Apache License, Version 2.0 (the "License"); you may
   8:D:/Work/DeviceTester/amazon-freertos/lib/third_party/mbedtls/library\gcm.c ****  *  not use this file except in compliance with the License.
   9:D:/Work/DeviceTester/amazon-freertos/lib/third_party/mbedtls/library\gcm.c ****  *  You may obtain a copy of the License at
  10:D:/Work/DeviceTester/amazon-freertos/lib/third_party/mbedtls/library\gcm.c ****  *
  11:D:/Work/DeviceTester/amazon-freertos/lib/third_party/mbedtls/library\gcm.c ****  *  http://www.apache.org/licenses/LICENSE-2.0
  12:D:/Work/DeviceTester/amazon-freertos/lib/third_party/mbedtls/library\gcm.c ****  *
  13:D:/Work/DeviceTester/amazon-freertos/lib/third_party/mbedtls/library\gcm.c ****  *  Unless required by applicable law or agreed to in writing, software
  14:D:/Work/DeviceTester/amazon-freertos/lib/third_party/mbedtls/library\gcm.c ****  *  distributed under the License is distributed on an "AS IS" BASIS, WITHOUT
  15:D:/Work/DeviceTester/amazon-freertos/lib/third_party/mbedtls/library\gcm.c ****  *  WARRANTIES OR CONDITIONS OF ANY KIND, either express or implied.
  16:D:/Work/DeviceTester/amazon-freertos/lib/third_party/mbedtls/library\gcm.c ****  *  See the License for the specific language governing permissions and
  17:D:/Work/DeviceTester/amazon-freertos/lib/third_party/mbedtls/library\gcm.c ****  *  limitations under the License.
  18:D:/Work/DeviceTester/amazon-freertos/lib/third_party/mbedtls/library\gcm.c ****  *
  19:D:/Work/DeviceTester/amazon-freertos/lib/third_party/mbedtls/library\gcm.c ****  *  This file is part of mbed TLS (https://tls.mbed.org)
  20:D:/Work/DeviceTester/amazon-freertos/lib/third_party/mbedtls/library\gcm.c ****  */
  21:D:/Work/DeviceTester/amazon-freertos/lib/third_party/mbedtls/library\gcm.c **** 
  22:D:/Work/DeviceTester/amazon-freertos/lib/third_party/mbedtls/library\gcm.c **** /*
  23:D:/Work/DeviceTester/amazon-freertos/lib/third_party/mbedtls/library\gcm.c ****  * http://csrc.nist.gov/publications/nistpubs/800-38D/SP-800-38D.pdf
  24:D:/Work/DeviceTester/amazon-freertos/lib/third_party/mbedtls/library\gcm.c ****  *
  25:D:/Work/DeviceTester/amazon-freertos/lib/third_party/mbedtls/library\gcm.c ****  * See also:
  26:D:/Work/DeviceTester/amazon-freertos/lib/third_party/mbedtls/library\gcm.c ****  * [MGV] http://csrc.nist.gov/groups/ST/toolkit/BCM/documents/proposedmodes/gcm/gcm-revised-spec.pd
  27:D:/Work/DeviceTester/amazon-freertos/lib/third_party/mbedtls/library\gcm.c ****  *
  28:D:/Work/DeviceTester/amazon-freertos/lib/third_party/mbedtls/library\gcm.c ****  * We use the algorithm described as Shoup's method with 4-bit tables in
  29:D:/Work/DeviceTester/amazon-freertos/lib/third_party/mbedtls/library\gcm.c ****  * [MGV] 4.1, pp. 12-13, to enhance speed without using too much memory.
  30:D:/Work/DeviceTester/amazon-freertos/lib/third_party/mbedtls/library\gcm.c ****  */
  31:D:/Work/DeviceTester/amazon-freertos/lib/third_party/mbedtls/library\gcm.c **** 
  32:D:/Work/DeviceTester/amazon-freertos/lib/third_party/mbedtls/library\gcm.c **** #if !defined(MBEDTLS_CONFIG_FILE)
  33:D:/Work/DeviceTester/amazon-freertos/lib/third_party/mbedtls/library\gcm.c **** #include "mbedtls/config.h"
  34:D:/Work/DeviceTester/amazon-freertos/lib/third_party/mbedtls/library\gcm.c **** #else
  35:D:/Work/DeviceTester/amazon-freertos/lib/third_party/mbedtls/library\gcm.c **** #include MBEDTLS_CONFIG_FILE
  36:D:/Work/DeviceTester/amazon-freertos/lib/third_party/mbedtls/library\gcm.c **** #endif
  37:D:/Work/DeviceTester/amazon-freertos/lib/third_party/mbedtls/library\gcm.c **** 
  38:D:/Work/DeviceTester/amazon-freertos/lib/third_party/mbedtls/library\gcm.c **** #if defined(MBEDTLS_GCM_C)
  39:D:/Work/DeviceTester/amazon-freertos/lib/third_party/mbedtls/library\gcm.c **** 
  40:D:/Work/DeviceTester/amazon-freertos/lib/third_party/mbedtls/library\gcm.c **** #include "mbedtls/gcm.h"
  41:D:/Work/DeviceTester/amazon-freertos/lib/third_party/mbedtls/library\gcm.c **** #include "mbedtls/platform_util.h"
  42:D:/Work/DeviceTester/amazon-freertos/lib/third_party/mbedtls/library\gcm.c **** 
  43:D:/Work/DeviceTester/amazon-freertos/lib/third_party/mbedtls/library\gcm.c **** #include <string.h>
  44:D:/Work/DeviceTester/amazon-freertos/lib/third_party/mbedtls/library\gcm.c **** 
  45:D:/Work/DeviceTester/amazon-freertos/lib/third_party/mbedtls/library\gcm.c **** #if defined(MBEDTLS_AESNI_C)
  46:D:/Work/DeviceTester/amazon-freertos/lib/third_party/mbedtls/library\gcm.c **** #include "mbedtls/aesni.h"
  47:D:/Work/DeviceTester/amazon-freertos/lib/third_party/mbedtls/library\gcm.c **** #endif
  48:D:/Work/DeviceTester/amazon-freertos/lib/third_party/mbedtls/library\gcm.c **** 
  49:D:/Work/DeviceTester/amazon-freertos/lib/third_party/mbedtls/library\gcm.c **** #if defined(MBEDTLS_SELF_TEST) && defined(MBEDTLS_AES_C)
  50:D:/Work/DeviceTester/amazon-freertos/lib/third_party/mbedtls/library\gcm.c **** #include "mbedtls/aes.h"
  51:D:/Work/DeviceTester/amazon-freertos/lib/third_party/mbedtls/library\gcm.c **** #if defined(MBEDTLS_PLATFORM_C)
  52:D:/Work/DeviceTester/amazon-freertos/lib/third_party/mbedtls/library\gcm.c **** #include "mbedtls/platform.h"
  53:D:/Work/DeviceTester/amazon-freertos/lib/third_party/mbedtls/library\gcm.c **** #else
  54:D:/Work/DeviceTester/amazon-freertos/lib/third_party/mbedtls/library\gcm.c **** #include <stdio.h>
  55:D:/Work/DeviceTester/amazon-freertos/lib/third_party/mbedtls/library\gcm.c **** #define mbedtls_printf printf
  56:D:/Work/DeviceTester/amazon-freertos/lib/third_party/mbedtls/library\gcm.c **** #endif /* MBEDTLS_PLATFORM_C */
  57:D:/Work/DeviceTester/amazon-freertos/lib/third_party/mbedtls/library\gcm.c **** #endif /* MBEDTLS_SELF_TEST && MBEDTLS_AES_C */
  58:D:/Work/DeviceTester/amazon-freertos/lib/third_party/mbedtls/library\gcm.c **** 
  59:D:/Work/DeviceTester/amazon-freertos/lib/third_party/mbedtls/library\gcm.c **** #if !defined(MBEDTLS_GCM_ALT)
  60:D:/Work/DeviceTester/amazon-freertos/lib/third_party/mbedtls/library\gcm.c **** 
  61:D:/Work/DeviceTester/amazon-freertos/lib/third_party/mbedtls/library\gcm.c **** /*
  62:D:/Work/DeviceTester/amazon-freertos/lib/third_party/mbedtls/library\gcm.c ****  * 32-bit integer manipulation macros (big endian)
  63:D:/Work/DeviceTester/amazon-freertos/lib/third_party/mbedtls/library\gcm.c ****  */
  64:D:/Work/DeviceTester/amazon-freertos/lib/third_party/mbedtls/library\gcm.c **** #ifndef GET_UINT32_BE
  65:D:/Work/DeviceTester/amazon-freertos/lib/third_party/mbedtls/library\gcm.c **** #define GET_UINT32_BE(n,b,i)                            \
  66:D:/Work/DeviceTester/amazon-freertos/lib/third_party/mbedtls/library\gcm.c **** {                                                       \
  67:D:/Work/DeviceTester/amazon-freertos/lib/third_party/mbedtls/library\gcm.c ****     (n) = ( (uint32_t) (b)[(i)    ] << 24 )             \
  68:D:/Work/DeviceTester/amazon-freertos/lib/third_party/mbedtls/library\gcm.c ****         | ( (uint32_t) (b)[(i) + 1] << 16 )             \
  69:D:/Work/DeviceTester/amazon-freertos/lib/third_party/mbedtls/library\gcm.c ****         | ( (uint32_t) (b)[(i) + 2] <<  8 )             \
  70:D:/Work/DeviceTester/amazon-freertos/lib/third_party/mbedtls/library\gcm.c ****         | ( (uint32_t) (b)[(i) + 3]       );            \
  71:D:/Work/DeviceTester/amazon-freertos/lib/third_party/mbedtls/library\gcm.c **** }
  72:D:/Work/DeviceTester/amazon-freertos/lib/third_party/mbedtls/library\gcm.c **** #endif
  73:D:/Work/DeviceTester/amazon-freertos/lib/third_party/mbedtls/library\gcm.c **** 
  74:D:/Work/DeviceTester/amazon-freertos/lib/third_party/mbedtls/library\gcm.c **** #ifndef PUT_UINT32_BE
  75:D:/Work/DeviceTester/amazon-freertos/lib/third_party/mbedtls/library\gcm.c **** #define PUT_UINT32_BE(n,b,i)                            \
  76:D:/Work/DeviceTester/amazon-freertos/lib/third_party/mbedtls/library\gcm.c **** {                                                       \
  77:D:/Work/DeviceTester/amazon-freertos/lib/third_party/mbedtls/library\gcm.c ****     (b)[(i)    ] = (unsigned char) ( (n) >> 24 );       \
  78:D:/Work/DeviceTester/amazon-freertos/lib/third_party/mbedtls/library\gcm.c ****     (b)[(i) + 1] = (unsigned char) ( (n) >> 16 );       \
  79:D:/Work/DeviceTester/amazon-freertos/lib/third_party/mbedtls/library\gcm.c ****     (b)[(i) + 2] = (unsigned char) ( (n) >>  8 );       \
  80:D:/Work/DeviceTester/amazon-freertos/lib/third_party/mbedtls/library\gcm.c ****     (b)[(i) + 3] = (unsigned char) ( (n)       );       \
  81:D:/Work/DeviceTester/amazon-freertos/lib/third_party/mbedtls/library\gcm.c **** }
  82:D:/Work/DeviceTester/amazon-freertos/lib/third_party/mbedtls/library\gcm.c **** #endif
  83:D:/Work/DeviceTester/amazon-freertos/lib/third_party/mbedtls/library\gcm.c **** 
  84:D:/Work/DeviceTester/amazon-freertos/lib/third_party/mbedtls/library\gcm.c **** /*
  85:D:/Work/DeviceTester/amazon-freertos/lib/third_party/mbedtls/library\gcm.c ****  * Initialize a context
  86:D:/Work/DeviceTester/amazon-freertos/lib/third_party/mbedtls/library\gcm.c ****  */
  87:D:/Work/DeviceTester/amazon-freertos/lib/third_party/mbedtls/library\gcm.c **** void mbedtls_gcm_init( mbedtls_gcm_context *ctx )
  88:D:/Work/DeviceTester/amazon-freertos/lib/third_party/mbedtls/library\gcm.c **** {
  89:D:/Work/DeviceTester/amazon-freertos/lib/third_party/mbedtls/library\gcm.c ****     memset( ctx, 0, sizeof( mbedtls_gcm_context ) );
  90:D:/Work/DeviceTester/amazon-freertos/lib/third_party/mbedtls/library\gcm.c **** }
  91:D:/Work/DeviceTester/amazon-freertos/lib/third_party/mbedtls/library\gcm.c **** 
  92:D:/Work/DeviceTester/amazon-freertos/lib/third_party/mbedtls/library\gcm.c **** /*
  93:D:/Work/DeviceTester/amazon-freertos/lib/third_party/mbedtls/library\gcm.c ****  * Precompute small multiples of H, that is set
  94:D:/Work/DeviceTester/amazon-freertos/lib/third_party/mbedtls/library\gcm.c ****  *      HH[i] || HL[i] = H times i,
  95:D:/Work/DeviceTester/amazon-freertos/lib/third_party/mbedtls/library\gcm.c ****  * where i is seen as a field element as in [MGV], ie high-order bits
  96:D:/Work/DeviceTester/amazon-freertos/lib/third_party/mbedtls/library\gcm.c ****  * correspond to low powers of P. The result is stored in the same way, that
  97:D:/Work/DeviceTester/amazon-freertos/lib/third_party/mbedtls/library\gcm.c ****  * is the high-order bit of HH corresponds to P^0 and the low-order bit of HL
  98:D:/Work/DeviceTester/amazon-freertos/lib/third_party/mbedtls/library\gcm.c ****  * corresponds to P^127.
  99:D:/Work/DeviceTester/amazon-freertos/lib/third_party/mbedtls/library\gcm.c ****  */
 100:D:/Work/DeviceTester/amazon-freertos/lib/third_party/mbedtls/library\gcm.c **** static int gcm_gen_table( mbedtls_gcm_context *ctx )
 101:D:/Work/DeviceTester/amazon-freertos/lib/third_party/mbedtls/library\gcm.c **** {
 102:D:/Work/DeviceTester/amazon-freertos/lib/third_party/mbedtls/library\gcm.c ****     int ret, i, j;
 103:D:/Work/DeviceTester/amazon-freertos/lib/third_party/mbedtls/library\gcm.c ****     uint64_t hi, lo;
 104:D:/Work/DeviceTester/amazon-freertos/lib/third_party/mbedtls/library\gcm.c ****     uint64_t vl, vh;
 105:D:/Work/DeviceTester/amazon-freertos/lib/third_party/mbedtls/library\gcm.c ****     unsigned char h[16];
 106:D:/Work/DeviceTester/amazon-freertos/lib/third_party/mbedtls/library\gcm.c ****     size_t olen = 0;
 107:D:/Work/DeviceTester/amazon-freertos/lib/third_party/mbedtls/library\gcm.c **** 
 108:D:/Work/DeviceTester/amazon-freertos/lib/third_party/mbedtls/library\gcm.c ****     memset( h, 0, 16 );
 109:D:/Work/DeviceTester/amazon-freertos/lib/third_party/mbedtls/library\gcm.c ****     if( ( ret = mbedtls_cipher_update( &ctx->cipher_ctx, h, 16, h, &olen ) ) != 0 )
 110:D:/Work/DeviceTester/amazon-freertos/lib/third_party/mbedtls/library\gcm.c ****         return( ret );
 111:D:/Work/DeviceTester/amazon-freertos/lib/third_party/mbedtls/library\gcm.c **** 
 112:D:/Work/DeviceTester/amazon-freertos/lib/third_party/mbedtls/library\gcm.c ****     /* pack h as two 64-bits ints, big-endian */
 113:D:/Work/DeviceTester/amazon-freertos/lib/third_party/mbedtls/library\gcm.c ****     GET_UINT32_BE( hi, h,  0  );
 114:D:/Work/DeviceTester/amazon-freertos/lib/third_party/mbedtls/library\gcm.c ****     GET_UINT32_BE( lo, h,  4  );
 115:D:/Work/DeviceTester/amazon-freertos/lib/third_party/mbedtls/library\gcm.c ****     vh = (uint64_t) hi << 32 | lo;
 116:D:/Work/DeviceTester/amazon-freertos/lib/third_party/mbedtls/library\gcm.c **** 
 117:D:/Work/DeviceTester/amazon-freertos/lib/third_party/mbedtls/library\gcm.c ****     GET_UINT32_BE( hi, h,  8  );
 118:D:/Work/DeviceTester/amazon-freertos/lib/third_party/mbedtls/library\gcm.c ****     GET_UINT32_BE( lo, h,  12 );
 119:D:/Work/DeviceTester/amazon-freertos/lib/third_party/mbedtls/library\gcm.c ****     vl = (uint64_t) hi << 32 | lo;
 120:D:/Work/DeviceTester/amazon-freertos/lib/third_party/mbedtls/library\gcm.c **** 
 121:D:/Work/DeviceTester/amazon-freertos/lib/third_party/mbedtls/library\gcm.c ****     /* 8 = 1000 corresponds to 1 in GF(2^128) */
 122:D:/Work/DeviceTester/amazon-freertos/lib/third_party/mbedtls/library\gcm.c ****     ctx->HL[8] = vl;
 123:D:/Work/DeviceTester/amazon-freertos/lib/third_party/mbedtls/library\gcm.c ****     ctx->HH[8] = vh;
 124:D:/Work/DeviceTester/amazon-freertos/lib/third_party/mbedtls/library\gcm.c **** 
 125:D:/Work/DeviceTester/amazon-freertos/lib/third_party/mbedtls/library\gcm.c **** #if defined(MBEDTLS_AESNI_C) && defined(MBEDTLS_HAVE_X86_64)
 126:D:/Work/DeviceTester/amazon-freertos/lib/third_party/mbedtls/library\gcm.c ****     /* With CLMUL support, we need only h, not the rest of the table */
 127:D:/Work/DeviceTester/amazon-freertos/lib/third_party/mbedtls/library\gcm.c ****     if( mbedtls_aesni_has_support( MBEDTLS_AESNI_CLMUL ) )
 128:D:/Work/DeviceTester/amazon-freertos/lib/third_party/mbedtls/library\gcm.c ****         return( 0 );
 129:D:/Work/DeviceTester/amazon-freertos/lib/third_party/mbedtls/library\gcm.c **** #endif
 130:D:/Work/DeviceTester/amazon-freertos/lib/third_party/mbedtls/library\gcm.c **** 
 131:D:/Work/DeviceTester/amazon-freertos/lib/third_party/mbedtls/library\gcm.c ****     /* 0 corresponds to 0 in GF(2^128) */
 132:D:/Work/DeviceTester/amazon-freertos/lib/third_party/mbedtls/library\gcm.c ****     ctx->HH[0] = 0;
 133:D:/Work/DeviceTester/amazon-freertos/lib/third_party/mbedtls/library\gcm.c ****     ctx->HL[0] = 0;
 134:D:/Work/DeviceTester/amazon-freertos/lib/third_party/mbedtls/library\gcm.c **** 
 135:D:/Work/DeviceTester/amazon-freertos/lib/third_party/mbedtls/library\gcm.c ****     for( i = 4; i > 0; i >>= 1 )
 136:D:/Work/DeviceTester/amazon-freertos/lib/third_party/mbedtls/library\gcm.c ****     {
 137:D:/Work/DeviceTester/amazon-freertos/lib/third_party/mbedtls/library\gcm.c ****         uint32_t T = ( vl & 1 ) * 0xe1000000U;
 138:D:/Work/DeviceTester/amazon-freertos/lib/third_party/mbedtls/library\gcm.c ****         vl  = ( vh << 63 ) | ( vl >> 1 );
 139:D:/Work/DeviceTester/amazon-freertos/lib/third_party/mbedtls/library\gcm.c ****         vh  = ( vh >> 1 ) ^ ( (uint64_t) T << 32);
 140:D:/Work/DeviceTester/amazon-freertos/lib/third_party/mbedtls/library\gcm.c **** 
 141:D:/Work/DeviceTester/amazon-freertos/lib/third_party/mbedtls/library\gcm.c ****         ctx->HL[i] = vl;
 142:D:/Work/DeviceTester/amazon-freertos/lib/third_party/mbedtls/library\gcm.c ****         ctx->HH[i] = vh;
 143:D:/Work/DeviceTester/amazon-freertos/lib/third_party/mbedtls/library\gcm.c ****     }
 144:D:/Work/DeviceTester/amazon-freertos/lib/third_party/mbedtls/library\gcm.c **** 
 145:D:/Work/DeviceTester/amazon-freertos/lib/third_party/mbedtls/library\gcm.c ****     for( i = 2; i <= 8; i *= 2 )
 146:D:/Work/DeviceTester/amazon-freertos/lib/third_party/mbedtls/library\gcm.c ****     {
 147:D:/Work/DeviceTester/amazon-freertos/lib/third_party/mbedtls/library\gcm.c ****         uint64_t *HiL = ctx->HL + i, *HiH = ctx->HH + i;
 148:D:/Work/DeviceTester/amazon-freertos/lib/third_party/mbedtls/library\gcm.c ****         vh = *HiH;
 149:D:/Work/DeviceTester/amazon-freertos/lib/third_party/mbedtls/library\gcm.c ****         vl = *HiL;
 150:D:/Work/DeviceTester/amazon-freertos/lib/third_party/mbedtls/library\gcm.c ****         for( j = 1; j < i; j++ )
 151:D:/Work/DeviceTester/amazon-freertos/lib/third_party/mbedtls/library\gcm.c ****         {
 152:D:/Work/DeviceTester/amazon-freertos/lib/third_party/mbedtls/library\gcm.c ****             HiH[j] = vh ^ ctx->HH[j];
 153:D:/Work/DeviceTester/amazon-freertos/lib/third_party/mbedtls/library\gcm.c ****             HiL[j] = vl ^ ctx->HL[j];
 154:D:/Work/DeviceTester/amazon-freertos/lib/third_party/mbedtls/library\gcm.c ****         }
 155:D:/Work/DeviceTester/amazon-freertos/lib/third_party/mbedtls/library\gcm.c ****     }
 156:D:/Work/DeviceTester/amazon-freertos/lib/third_party/mbedtls/library\gcm.c **** 
 157:D:/Work/DeviceTester/amazon-freertos/lib/third_party/mbedtls/library\gcm.c ****     return( 0 );
 158:D:/Work/DeviceTester/amazon-freertos/lib/third_party/mbedtls/library\gcm.c **** }
 159:D:/Work/DeviceTester/amazon-freertos/lib/third_party/mbedtls/library\gcm.c **** 
 160:D:/Work/DeviceTester/amazon-freertos/lib/third_party/mbedtls/library\gcm.c **** int mbedtls_gcm_setkey( mbedtls_gcm_context *ctx,
 161:D:/Work/DeviceTester/amazon-freertos/lib/third_party/mbedtls/library\gcm.c ****                         mbedtls_cipher_id_t cipher,
 162:D:/Work/DeviceTester/amazon-freertos/lib/third_party/mbedtls/library\gcm.c ****                         const unsigned char *key,
 163:D:/Work/DeviceTester/amazon-freertos/lib/third_party/mbedtls/library\gcm.c ****                         unsigned int keybits )
 164:D:/Work/DeviceTester/amazon-freertos/lib/third_party/mbedtls/library\gcm.c **** {
 165:D:/Work/DeviceTester/amazon-freertos/lib/third_party/mbedtls/library\gcm.c ****     int ret;
 166:D:/Work/DeviceTester/amazon-freertos/lib/third_party/mbedtls/library\gcm.c ****     const mbedtls_cipher_info_t *cipher_info;
 167:D:/Work/DeviceTester/amazon-freertos/lib/third_party/mbedtls/library\gcm.c **** 
 168:D:/Work/DeviceTester/amazon-freertos/lib/third_party/mbedtls/library\gcm.c ****     cipher_info = mbedtls_cipher_info_from_values( cipher, keybits, MBEDTLS_MODE_ECB );
 169:D:/Work/DeviceTester/amazon-freertos/lib/third_party/mbedtls/library\gcm.c ****     if( cipher_info == NULL )
 170:D:/Work/DeviceTester/amazon-freertos/lib/third_party/mbedtls/library\gcm.c ****         return( MBEDTLS_ERR_GCM_BAD_INPUT );
 171:D:/Work/DeviceTester/amazon-freertos/lib/third_party/mbedtls/library\gcm.c **** 
 172:D:/Work/DeviceTester/amazon-freertos/lib/third_party/mbedtls/library\gcm.c ****     if( cipher_info->block_size != 16 )
 173:D:/Work/DeviceTester/amazon-freertos/lib/third_party/mbedtls/library\gcm.c ****         return( MBEDTLS_ERR_GCM_BAD_INPUT );
 174:D:/Work/DeviceTester/amazon-freertos/lib/third_party/mbedtls/library\gcm.c **** 
 175:D:/Work/DeviceTester/amazon-freertos/lib/third_party/mbedtls/library\gcm.c ****     mbedtls_cipher_free( &ctx->cipher_ctx );
 176:D:/Work/DeviceTester/amazon-freertos/lib/third_party/mbedtls/library\gcm.c **** 
 177:D:/Work/DeviceTester/amazon-freertos/lib/third_party/mbedtls/library\gcm.c ****     if( ( ret = mbedtls_cipher_setup( &ctx->cipher_ctx, cipher_info ) ) != 0 )
 178:D:/Work/DeviceTester/amazon-freertos/lib/third_party/mbedtls/library\gcm.c ****         return( ret );
 179:D:/Work/DeviceTester/amazon-freertos/lib/third_party/mbedtls/library\gcm.c **** 
 180:D:/Work/DeviceTester/amazon-freertos/lib/third_party/mbedtls/library\gcm.c ****     if( ( ret = mbedtls_cipher_setkey( &ctx->cipher_ctx, key, keybits,
 181:D:/Work/DeviceTester/amazon-freertos/lib/third_party/mbedtls/library\gcm.c ****                                MBEDTLS_ENCRYPT ) ) != 0 )
 182:D:/Work/DeviceTester/amazon-freertos/lib/third_party/mbedtls/library\gcm.c ****     {
 183:D:/Work/DeviceTester/amazon-freertos/lib/third_party/mbedtls/library\gcm.c ****         return( ret );
 184:D:/Work/DeviceTester/amazon-freertos/lib/third_party/mbedtls/library\gcm.c ****     }
 185:D:/Work/DeviceTester/amazon-freertos/lib/third_party/mbedtls/library\gcm.c **** 
 186:D:/Work/DeviceTester/amazon-freertos/lib/third_party/mbedtls/library\gcm.c ****     if( ( ret = gcm_gen_table( ctx ) ) != 0 )
 187:D:/Work/DeviceTester/amazon-freertos/lib/third_party/mbedtls/library\gcm.c ****         return( ret );
 188:D:/Work/DeviceTester/amazon-freertos/lib/third_party/mbedtls/library\gcm.c **** 
 189:D:/Work/DeviceTester/amazon-freertos/lib/third_party/mbedtls/library\gcm.c ****     return( 0 );
 190:D:/Work/DeviceTester/amazon-freertos/lib/third_party/mbedtls/library\gcm.c **** }
 191:D:/Work/DeviceTester/amazon-freertos/lib/third_party/mbedtls/library\gcm.c **** 
 192:D:/Work/DeviceTester/amazon-freertos/lib/third_party/mbedtls/library\gcm.c **** /*
 193:D:/Work/DeviceTester/amazon-freertos/lib/third_party/mbedtls/library\gcm.c ****  * Shoup's method for multiplication use this table with
 194:D:/Work/DeviceTester/amazon-freertos/lib/third_party/mbedtls/library\gcm.c ****  *      last4[x] = x times P^128
 195:D:/Work/DeviceTester/amazon-freertos/lib/third_party/mbedtls/library\gcm.c ****  * where x and last4[x] are seen as elements of GF(2^128) as in [MGV]
 196:D:/Work/DeviceTester/amazon-freertos/lib/third_party/mbedtls/library\gcm.c ****  */
 197:D:/Work/DeviceTester/amazon-freertos/lib/third_party/mbedtls/library\gcm.c **** static const uint64_t last4[16] =
 198:D:/Work/DeviceTester/amazon-freertos/lib/third_party/mbedtls/library\gcm.c **** {
 199:D:/Work/DeviceTester/amazon-freertos/lib/third_party/mbedtls/library\gcm.c ****     0x0000, 0x1c20, 0x3840, 0x2460,
 200:D:/Work/DeviceTester/amazon-freertos/lib/third_party/mbedtls/library\gcm.c ****     0x7080, 0x6ca0, 0x48c0, 0x54e0,
 201:D:/Work/DeviceTester/amazon-freertos/lib/third_party/mbedtls/library\gcm.c ****     0xe100, 0xfd20, 0xd940, 0xc560,
 202:D:/Work/DeviceTester/amazon-freertos/lib/third_party/mbedtls/library\gcm.c ****     0x9180, 0x8da0, 0xa9c0, 0xb5e0
 203:D:/Work/DeviceTester/amazon-freertos/lib/third_party/mbedtls/library\gcm.c **** };
 204:D:/Work/DeviceTester/amazon-freertos/lib/third_party/mbedtls/library\gcm.c **** 
 205:D:/Work/DeviceTester/amazon-freertos/lib/third_party/mbedtls/library\gcm.c **** /*
 206:D:/Work/DeviceTester/amazon-freertos/lib/third_party/mbedtls/library\gcm.c ****  * Sets output to x times H using the precomputed tables.
 207:D:/Work/DeviceTester/amazon-freertos/lib/third_party/mbedtls/library\gcm.c ****  * x and output are seen as elements of GF(2^128) as in [MGV].
 208:D:/Work/DeviceTester/amazon-freertos/lib/third_party/mbedtls/library\gcm.c ****  */
 209:D:/Work/DeviceTester/amazon-freertos/lib/third_party/mbedtls/library\gcm.c **** static void gcm_mult( mbedtls_gcm_context *ctx, const unsigned char x[16],
 210:D:/Work/DeviceTester/amazon-freertos/lib/third_party/mbedtls/library\gcm.c ****                       unsigned char output[16] )
 211:D:/Work/DeviceTester/amazon-freertos/lib/third_party/mbedtls/library\gcm.c **** {
  25              		.loc 1 211 0
  26              		.cfi_startproc
  27              		@ args = 0, pretend = 0, frame = 24
  28              		@ frame_needed = 0, uses_anonymous_args = 0
  29              	.LVL0:
  30 0000 F04F2DE9 		push	{r4, r5, r6, r7, r8, r9, r10, fp, lr}
  31              		.cfi_def_cfa_offset 36
  32              		.cfi_offset 4, -36
  33              		.cfi_offset 5, -32
  34              		.cfi_offset 6, -28
  35              		.cfi_offset 7, -24
  36              		.cfi_offset 8, -20
  37              		.cfi_offset 9, -16
  38              		.cfi_offset 10, -12
  39              		.cfi_offset 11, -8
  40              		.cfi_offset 14, -4
  41 0004 0130A0E1 		mov	r3, r1
 212:D:/Work/DeviceTester/amazon-freertos/lib/third_party/mbedtls/library\gcm.c ****     int i = 0;
 213:D:/Work/DeviceTester/amazon-freertos/lib/third_party/mbedtls/library\gcm.c ****     unsigned char lo, hi, rem;
 214:D:/Work/DeviceTester/amazon-freertos/lib/third_party/mbedtls/library\gcm.c ****     uint64_t zh, zl;
 215:D:/Work/DeviceTester/amazon-freertos/lib/third_party/mbedtls/library\gcm.c **** 
 216:D:/Work/DeviceTester/amazon-freertos/lib/third_party/mbedtls/library\gcm.c **** #if defined(MBEDTLS_AESNI_C) && defined(MBEDTLS_HAVE_X86_64)
 217:D:/Work/DeviceTester/amazon-freertos/lib/third_party/mbedtls/library\gcm.c ****     if( mbedtls_aesni_has_support( MBEDTLS_AESNI_CLMUL ) ) {
 218:D:/Work/DeviceTester/amazon-freertos/lib/third_party/mbedtls/library\gcm.c ****         unsigned char h[16];
 219:D:/Work/DeviceTester/amazon-freertos/lib/third_party/mbedtls/library\gcm.c **** 
 220:D:/Work/DeviceTester/amazon-freertos/lib/third_party/mbedtls/library\gcm.c ****         PUT_UINT32_BE( ctx->HH[8] >> 32, h,  0 );
 221:D:/Work/DeviceTester/amazon-freertos/lib/third_party/mbedtls/library\gcm.c ****         PUT_UINT32_BE( ctx->HH[8],       h,  4 );
 222:D:/Work/DeviceTester/amazon-freertos/lib/third_party/mbedtls/library\gcm.c ****         PUT_UINT32_BE( ctx->HL[8] >> 32, h,  8 );
 223:D:/Work/DeviceTester/amazon-freertos/lib/third_party/mbedtls/library\gcm.c ****         PUT_UINT32_BE( ctx->HL[8],       h, 12 );
 224:D:/Work/DeviceTester/amazon-freertos/lib/third_party/mbedtls/library\gcm.c **** 
 225:D:/Work/DeviceTester/amazon-freertos/lib/third_party/mbedtls/library\gcm.c ****         mbedtls_aesni_gcm_mult( output, x, h );
 226:D:/Work/DeviceTester/amazon-freertos/lib/third_party/mbedtls/library\gcm.c ****         return;
 227:D:/Work/DeviceTester/amazon-freertos/lib/third_party/mbedtls/library\gcm.c ****     }
 228:D:/Work/DeviceTester/amazon-freertos/lib/third_party/mbedtls/library\gcm.c **** #endif /* MBEDTLS_AESNI_C && MBEDTLS_HAVE_X86_64 */
 229:D:/Work/DeviceTester/amazon-freertos/lib/third_party/mbedtls/library\gcm.c **** 
 230:D:/Work/DeviceTester/amazon-freertos/lib/third_party/mbedtls/library\gcm.c ****     lo = x[15] & 0xf;
  42              		.loc 1 230 0
  43 0008 0F10D1E5 		ldrb	r1, [r1, #15]	@ zero_extendqisi2
  44              	.LVL1:
 211:D:/Work/DeviceTester/amazon-freertos/lib/third_party/mbedtls/library\gcm.c ****     int i = 0;
  45              		.loc 1 211 0
  46 000c 00E0A0E1 		mov	lr, r0
  47              	.LVL2:
  48 0010 1CD04DE2 		sub	sp, sp, #28
  49              		.cfi_def_cfa_offset 64
  50 0014 10C083E2 		add	ip, r3, #16
 231:D:/Work/DeviceTester/amazon-freertos/lib/third_party/mbedtls/library\gcm.c **** 
 232:D:/Work/DeviceTester/amazon-freertos/lib/third_party/mbedtls/library\gcm.c ****     zh = ctx->HH[lo];
 233:D:/Work/DeviceTester/amazon-freertos/lib/third_party/mbedtls/library\gcm.c ****     zl = ctx->HL[lo];
 234:D:/Work/DeviceTester/amazon-freertos/lib/third_party/mbedtls/library\gcm.c **** 
 235:D:/Work/DeviceTester/amazon-freertos/lib/third_party/mbedtls/library\gcm.c ****     for( i = 15; i >= 0; i-- )
 236:D:/Work/DeviceTester/amazon-freertos/lib/third_party/mbedtls/library\gcm.c ****     {
 237:D:/Work/DeviceTester/amazon-freertos/lib/third_party/mbedtls/library\gcm.c ****         lo = x[i] & 0xf;
 238:D:/Work/DeviceTester/amazon-freertos/lib/third_party/mbedtls/library\gcm.c ****         hi = x[i] >> 4;
 239:D:/Work/DeviceTester/amazon-freertos/lib/third_party/mbedtls/library\gcm.c **** 
 240:D:/Work/DeviceTester/amazon-freertos/lib/third_party/mbedtls/library\gcm.c ****         if( i != 15 )
 241:D:/Work/DeviceTester/amazon-freertos/lib/third_party/mbedtls/library\gcm.c ****         {
 242:D:/Work/DeviceTester/amazon-freertos/lib/third_party/mbedtls/library\gcm.c ****             rem = (unsigned char) zl & 0xf;
 243:D:/Work/DeviceTester/amazon-freertos/lib/third_party/mbedtls/library\gcm.c ****             zl = ( zh << 60 ) | ( zl >> 4 );
 244:D:/Work/DeviceTester/amazon-freertos/lib/third_party/mbedtls/library\gcm.c ****             zh = ( zh >> 4 );
 245:D:/Work/DeviceTester/amazon-freertos/lib/third_party/mbedtls/library\gcm.c ****             zh ^= (uint64_t) last4[rem] << 48;
  51              		.loc 1 245 0
  52 0018 A4A19FE5 		ldr	r10, .L9
  53 001c 0F1001E2 		and	r1, r1, #15
  54 0020 811180E0 		add	r1, r0, r1, lsl #3
 232:D:/Work/DeviceTester/amazon-freertos/lib/third_party/mbedtls/library\gcm.c ****     zl = ctx->HL[lo];
  55              		.loc 1 232 0
  56 0024 D04CC1E1 		ldrd	r4, [r1, #192]
  57              	.LVL3:
 233:D:/Work/DeviceTester/amazon-freertos/lib/third_party/mbedtls/library\gcm.c **** 
  58              		.loc 1 233 0
  59 0028 D004C1E1 		ldrd	r0, [r1, #64]
  60              	.LVL4:
  61              	.L3:
 237:D:/Work/DeviceTester/amazon-freertos/lib/third_party/mbedtls/library\gcm.c ****         hi = x[i] >> 4;
  62              		.loc 1 237 0
  63 002c 01607CE5 		ldrb	r6, [ip, #-1]!	@ zero_extendqisi2
  64 0030 0FB006E2 		and	fp, r6, #15
  65              	.LVL5:
 238:D:/Work/DeviceTester/amazon-freertos/lib/third_party/mbedtls/library\gcm.c **** 
  66              		.loc 1 238 0
  67 0034 2662A0E1 		lsr	r6, r6, #4
  68 0038 14608DE5 		str	r6, [sp, #20]
  69              	.LVL6:
 240:D:/Work/DeviceTester/amazon-freertos/lib/third_party/mbedtls/library\gcm.c ****         {
  70              		.loc 1 240 0
  71 003c 03604CE0 		sub	r6, ip, r3
  72 0040 0F0056E3 		cmp	r6, #15
  73 0044 1B00000A 		beq	.L2
  74              	.LVL7:
 243:D:/Work/DeviceTester/amazon-freertos/lib/third_party/mbedtls/library\gcm.c ****             zh = ( zh >> 4 );
  75              		.loc 1 243 0
  76 0048 2062A0E1 		lsr	r6, r0, #4
  77              		.loc 1 245 0
  78 004c 0F0000E2 		and	r0, r0, #15
  79              	.LVL8:
  80 0050 80019AE7 		ldr	r0, [r10, r0, lsl #3]
 243:D:/Work/DeviceTester/amazon-freertos/lib/third_party/mbedtls/library\gcm.c ****             zh = ( zh >> 4 );
  81              		.loc 1 243 0
  82 0054 2172A0E1 		lsr	r7, r1, #4
  83 0058 016E86E1 		orr	r6, r6, r1, lsl #28
  84 005c 049EA0E1 		lsl	r9, r4, #28
  85 0060 8B118EE0 		add	r1, lr, fp, lsl #3
 244:D:/Work/DeviceTester/amazon-freertos/lib/third_party/mbedtls/library\gcm.c ****             zh ^= (uint64_t) last4[rem] << 48;
  86              		.loc 1 244 0
  87 0064 2442A0E1 		lsr	r4, r4, #4
  88              	.LVL9:
  89              		.loc 1 245 0
  90 0068 0008A0E1 		lsl	r0, r0, #16
 243:D:/Work/DeviceTester/amazon-freertos/lib/third_party/mbedtls/library\gcm.c ****             zh = ( zh >> 4 );
  91              		.loc 1 243 0
  92 006c 0080A0E3 		mov	r8, #0
  93 0070 068088E1 		orr	r8, r8, r6
 244:D:/Work/DeviceTester/amazon-freertos/lib/third_party/mbedtls/library\gcm.c ****             zh ^= (uint64_t) last4[rem] << 48;
  94              		.loc 1 244 0
  95 0074 054E84E1 		orr	r4, r4, r5, lsl #28
 243:D:/Work/DeviceTester/amazon-freertos/lib/third_party/mbedtls/library\gcm.c ****             zh = ( zh >> 4 );
  96              		.loc 1 243 0
  97 0078 079089E1 		orr	r9, r9, r7
  98              	.LVL10:
  99 007c D06CC1E1 		ldrd	r6, [r1, #192]
 100              		.loc 1 245 0
 101 0080 04008DE5 		str	r0, [sp, #4]
 244:D:/Work/DeviceTester/amazon-freertos/lib/third_party/mbedtls/library\gcm.c ****             zh ^= (uint64_t) last4[rem] << 48;
 102              		.loc 1 244 0
 103 0084 2552A0E1 		lsr	r5, r5, #4
 104              		.loc 1 245 0
 105 0088 0000A0E3 		mov	r0, #0
 106 008c 00008DE5 		str	r0, [sp]
 107 0090 064024E0 		eor	r4, r4, r6
 108 0094 075025E0 		eor	r5, r5, r7
 246:D:/Work/DeviceTester/amazon-freertos/lib/third_party/mbedtls/library\gcm.c ****             zh ^= ctx->HH[lo];
 109              		.loc 1 246 0
 110 0098 D060CDE1 		ldrd	r6, [sp]
 247:D:/Work/DeviceTester/amazon-freertos/lib/third_party/mbedtls/library\gcm.c ****             zl ^= ctx->HL[lo];
 111              		.loc 1 247 0
 112 009c D004C1E1 		ldrd	r0, [r1, #64]
 246:D:/Work/DeviceTester/amazon-freertos/lib/third_party/mbedtls/library\gcm.c ****             zh ^= ctx->HH[lo];
 113              		.loc 1 246 0
 114 00a0 046026E0 		eor	r6, r6, r4
 115 00a4 057027E0 		eor	r7, r7, r5
 116 00a8 0640A0E1 		mov	r4, r6
 117 00ac 0750A0E1 		mov	r5, r7
 118              	.LVL11:
 119              		.loc 1 247 0
 120 00b0 080020E0 		eor	r0, r0, r8
 121 00b4 091021E0 		eor	r1, r1, r9
 122              	.LVL12:
 123              	.L2:
 248:D:/Work/DeviceTester/amazon-freertos/lib/third_party/mbedtls/library\gcm.c **** 
 249:D:/Work/DeviceTester/amazon-freertos/lib/third_party/mbedtls/library\gcm.c ****         }
 250:D:/Work/DeviceTester/amazon-freertos/lib/third_party/mbedtls/library\gcm.c **** 
 251:D:/Work/DeviceTester/amazon-freertos/lib/third_party/mbedtls/library\gcm.c ****         rem = (unsigned char) zl & 0xf;
 252:D:/Work/DeviceTester/amazon-freertos/lib/third_party/mbedtls/library\gcm.c ****         zl = ( zh << 60 ) | ( zl >> 4 );
 124              		.loc 1 252 0 discriminator 2
 125 00b8 2062A0E1 		lsr	r6, r0, #4
 126 00bc 0080A0E3 		mov	r8, #0
 253:D:/Work/DeviceTester/amazon-freertos/lib/third_party/mbedtls/library\gcm.c ****         zh = ( zh >> 4 );
 254:D:/Work/DeviceTester/amazon-freertos/lib/third_party/mbedtls/library\gcm.c ****         zh ^= (uint64_t) last4[rem] << 48;
 127              		.loc 1 254 0 discriminator 2
 128 00c0 0F0000E2 		and	r0, r0, #15
 129              	.LVL13:
 252:D:/Work/DeviceTester/amazon-freertos/lib/third_party/mbedtls/library\gcm.c ****         zh = ( zh >> 4 );
 130              		.loc 1 252 0 discriminator 2
 131 00c4 2172A0E1 		lsr	r7, r1, #4
 132 00c8 016E86E1 		orr	r6, r6, r1, lsl #28
 133              		.loc 1 254 0 discriminator 2
 134 00cc 80019AE7 		ldr	r0, [r10, r0, lsl #3]
 252:D:/Work/DeviceTester/amazon-freertos/lib/third_party/mbedtls/library\gcm.c ****         zh = ( zh >> 4 );
 135              		.loc 1 252 0 discriminator 2
 136 00d0 049EA0E1 		lsl	r9, r4, #28
 253:D:/Work/DeviceTester/amazon-freertos/lib/third_party/mbedtls/library\gcm.c ****         zh = ( zh >> 4 );
 137              		.loc 1 253 0 discriminator 2
 138 00d4 2442A0E1 		lsr	r4, r4, #4
 139              	.LVL14:
 252:D:/Work/DeviceTester/amazon-freertos/lib/third_party/mbedtls/library\gcm.c ****         zh = ( zh >> 4 );
 140              		.loc 1 252 0 discriminator 2
 141 00d8 068088E1 		orr	r8, r8, r6
 142 00dc 14609DE5 		ldr	r6, [sp, #20]
 143              		.loc 1 254 0 discriminator 2
 144 00e0 0008A0E1 		lsl	r0, r0, #16
 252:D:/Work/DeviceTester/amazon-freertos/lib/third_party/mbedtls/library\gcm.c ****         zh = ( zh >> 4 );
 145              		.loc 1 252 0 discriminator 2
 146 00e4 079089E1 		orr	r9, r9, r7
 147              	.LVL15:
 253:D:/Work/DeviceTester/amazon-freertos/lib/third_party/mbedtls/library\gcm.c ****         zh = ( zh >> 4 );
 148              		.loc 1 253 0 discriminator 2
 149 00e8 054E84E1 		orr	r4, r4, r5, lsl #28
 150 00ec 2552A0E1 		lsr	r5, r5, #4
 151              		.loc 1 254 0 discriminator 2
 152 00f0 0C008DE5 		str	r0, [sp, #12]
 153 00f4 86118EE0 		add	r1, lr, r6, lsl #3
 154 00f8 0000A0E3 		mov	r0, #0
 155 00fc 08008DE5 		str	r0, [sp, #8]
 235:D:/Work/DeviceTester/amazon-freertos/lib/third_party/mbedtls/library\gcm.c ****     {
 156              		.loc 1 235 0 discriminator 2
 157 0100 0C0053E1 		cmp	r3, ip
 158 0104 D06CC1E1 		ldrd	r6, [r1, #192]
 255:D:/Work/DeviceTester/amazon-freertos/lib/third_party/mbedtls/library\gcm.c ****         zh ^= ctx->HH[hi];
 256:D:/Work/DeviceTester/amazon-freertos/lib/third_party/mbedtls/library\gcm.c ****         zl ^= ctx->HL[hi];
 159              		.loc 1 256 0 discriminator 2
 160 0108 D004C1E1 		ldrd	r0, [r1, #64]
 161 010c 064024E0 		eor	r4, r4, r6
 162 0110 075025E0 		eor	r5, r5, r7
 255:D:/Work/DeviceTester/amazon-freertos/lib/third_party/mbedtls/library\gcm.c ****         zh ^= ctx->HH[hi];
 163              		.loc 1 255 0 discriminator 2
 164 0114 D860CDE1 		ldrd	r6, [sp, #8]
 165              		.loc 1 256 0 discriminator 2
 166 0118 080020E0 		eor	r0, r0, r8
 167 011c 091021E0 		eor	r1, r1, r9
 255:D:/Work/DeviceTester/amazon-freertos/lib/third_party/mbedtls/library\gcm.c ****         zh ^= ctx->HH[hi];
 168              		.loc 1 255 0 discriminator 2
 169 0120 046026E0 		eor	r6, r6, r4
 170 0124 057027E0 		eor	r7, r7, r5
 171 0128 0640A0E1 		mov	r4, r6
 172 012c 0750A0E1 		mov	r5, r7
 173              	.LVL16:
 235:D:/Work/DeviceTester/amazon-freertos/lib/third_party/mbedtls/library\gcm.c ****     {
 174              		.loc 1 235 0 discriminator 2
 175 0130 BDFFFF1A 		bne	.L3
 257:D:/Work/DeviceTester/amazon-freertos/lib/third_party/mbedtls/library\gcm.c ****     }
 258:D:/Work/DeviceTester/amazon-freertos/lib/third_party/mbedtls/library\gcm.c **** 
 259:D:/Work/DeviceTester/amazon-freertos/lib/third_party/mbedtls/library\gcm.c ****     PUT_UINT32_BE( zh >> 32, output, 0 );
 260:D:/Work/DeviceTester/amazon-freertos/lib/third_party/mbedtls/library\gcm.c ****     PUT_UINT32_BE( zh, output, 4 );
 176              		.loc 1 260 0
 177 0134 266CA0E1 		lsr	r6, r6, #24
 259:D:/Work/DeviceTester/amazon-freertos/lib/third_party/mbedtls/library\gcm.c ****     PUT_UINT32_BE( zh, output, 4 );
 178              		.loc 1 259 0
 179 0138 273CA0E1 		lsr	r3, r7, #24
 180              	.LVL17:
 181              		.loc 1 260 0
 182 013c 0740C2E5 		strb	r4, [r2, #7]
 183 0140 076486E1 		orr	r6, r6, r7, lsl #8
 259:D:/Work/DeviceTester/amazon-freertos/lib/third_party/mbedtls/library\gcm.c ****     PUT_UINT32_BE( zh, output, 4 );
 184              		.loc 1 259 0
 185 0144 0030C2E5 		strb	r3, [r2]
 186 0148 2738A0E1 		lsr	r3, r7, #16
 187 014c 0370C2E5 		strb	r7, [r2, #3]
 188              		.loc 1 260 0
 189 0150 0460C2E5 		strb	r6, [r2, #4]
 190 0154 2468A0E1 		lsr	r6, r4, #16
 259:D:/Work/DeviceTester/amazon-freertos/lib/third_party/mbedtls/library\gcm.c ****     PUT_UINT32_BE( zh, output, 4 );
 191              		.loc 1 259 0
 192 0158 0130C2E5 		strb	r3, [r2, #1]
 193 015c 2734A0E1 		lsr	r3, r7, #8
 194              		.loc 1 260 0
 195 0160 056886E1 		orr	r6, r6, r5, lsl #16
 261:D:/Work/DeviceTester/amazon-freertos/lib/third_party/mbedtls/library\gcm.c ****     PUT_UINT32_BE( zl >> 32, output, 8 );
 196              		.loc 1 261 0
 197 0164 0B10C2E5 		strb	r1, [r2, #11]
 259:D:/Work/DeviceTester/amazon-freertos/lib/third_party/mbedtls/library\gcm.c ****     PUT_UINT32_BE( zh, output, 4 );
 198              		.loc 1 259 0
 199 0168 0230C2E5 		strb	r3, [r2, #2]
 200              		.loc 1 261 0
 201 016c 213CA0E1 		lsr	r3, r1, #24
 260:D:/Work/DeviceTester/amazon-freertos/lib/third_party/mbedtls/library\gcm.c ****     PUT_UINT32_BE( zl >> 32, output, 8 );
 202              		.loc 1 260 0
 203 0170 0560C2E5 		strb	r6, [r2, #5]
 204 0174 2464A0E1 		lsr	r6, r4, #8
 262:D:/Work/DeviceTester/amazon-freertos/lib/third_party/mbedtls/library\gcm.c ****     PUT_UINT32_BE( zl, output, 12 );
 205              		.loc 1 262 0
 206 0178 204CA0E1 		lsr	r4, r0, #24
 207              	.LVL18:
 261:D:/Work/DeviceTester/amazon-freertos/lib/third_party/mbedtls/library\gcm.c ****     PUT_UINT32_BE( zl >> 32, output, 8 );
 208              		.loc 1 261 0
 209 017c 0830C2E5 		strb	r3, [r2, #8]
 210 0180 2138A0E1 		lsr	r3, r1, #16
 260:D:/Work/DeviceTester/amazon-freertos/lib/third_party/mbedtls/library\gcm.c ****     PUT_UINT32_BE( zl >> 32, output, 8 );
 211              		.loc 1 260 0
 212 0184 056C86E1 		orr	r6, r6, r5, lsl #24
 213              		.loc 1 262 0
 214 0188 014484E1 		orr	r4, r4, r1, lsl #8
 215 018c 0F00C2E5 		strb	r0, [r2, #15]
 261:D:/Work/DeviceTester/amazon-freertos/lib/third_party/mbedtls/library\gcm.c ****     PUT_UINT32_BE( zl >> 32, output, 8 );
 216              		.loc 1 261 0
 217 0190 0930C2E5 		strb	r3, [r2, #9]
 218 0194 2134A0E1 		lsr	r3, r1, #8
 219              		.loc 1 262 0
 220 0198 0C40C2E5 		strb	r4, [r2, #12]
 221 019c 2048A0E1 		lsr	r4, r0, #16
 260:D:/Work/DeviceTester/amazon-freertos/lib/third_party/mbedtls/library\gcm.c ****     PUT_UINT32_BE( zl >> 32, output, 8 );
 222              		.loc 1 260 0
 223 01a0 0660C2E5 		strb	r6, [r2, #6]
 224              		.loc 1 262 0
 225 01a4 014884E1 		orr	r4, r4, r1, lsl #16
 261:D:/Work/DeviceTester/amazon-freertos/lib/third_party/mbedtls/library\gcm.c ****     PUT_UINT32_BE( zl >> 32, output, 8 );
 226              		.loc 1 261 0
 227 01a8 0A30C2E5 		strb	r3, [r2, #10]
 228              		.loc 1 262 0
 229 01ac 0D40C2E5 		strb	r4, [r2, #13]
 230 01b0 2044A0E1 		lsr	r4, r0, #8
 231 01b4 014C84E1 		orr	r4, r4, r1, lsl #24
 232 01b8 0E40C2E5 		strb	r4, [r2, #14]
 263:D:/Work/DeviceTester/amazon-freertos/lib/third_party/mbedtls/library\gcm.c **** }
 233              		.loc 1 263 0
 234 01bc 1CD08DE2 		add	sp, sp, #28
 235              		.cfi_def_cfa_offset 36
 236              		@ sp needed
 237 01c0 F08FBDE8 		pop	{r4, r5, r6, r7, r8, r9, r10, fp, pc}
 238              	.LVL19:
 239              	.L10:
 240              		.align	2
 241              	.L9:
 242 01c4 00000000 		.word	.LANCHOR0
 243              		.cfi_endproc
 244              	.LFE11:
 246              		.section	.text.mbedtls_gcm_init,"ax",%progbits
 247              		.align	2
 248              		.global	mbedtls_gcm_init
 249              		.syntax unified
 250              		.arm
 251              		.fpu neon
 253              	mbedtls_gcm_init:
 254              	.LFB8:
  88:D:/Work/DeviceTester/amazon-freertos/lib/third_party/mbedtls/library\gcm.c ****     memset( ctx, 0, sizeof( mbedtls_gcm_context ) );
 255              		.loc 1 88 0
 256              		.cfi_startproc
 257              		@ args = 0, pretend = 0, frame = 0
 258              		@ frame_needed = 0, uses_anonymous_args = 0
 259              		@ link register save eliminated.
 260              	.LVL20:
  89:D:/Work/DeviceTester/amazon-freertos/lib/third_party/mbedtls/library\gcm.c **** }
 261              		.loc 1 89 0
 262 0000 622FA0E3 		mov	r2, #392
 263 0004 0010A0E3 		mov	r1, #0
 264 0008 FEFFFFEA 		b	memset
 265              	.LVL21:
 266              		.cfi_endproc
 267              	.LFE8:
 269              		.section	.text.mbedtls_gcm_setkey,"ax",%progbits
 270              		.align	2
 271              		.global	mbedtls_gcm_setkey
 272              		.syntax unified
 273              		.arm
 274              		.fpu neon
 276              	mbedtls_gcm_setkey:
 277              	.LFB10:
 164:D:/Work/DeviceTester/amazon-freertos/lib/third_party/mbedtls/library\gcm.c ****     int ret;
 278              		.loc 1 164 0
 279              		.cfi_startproc
 280              		@ args = 0, pretend = 0, frame = 48
 281              		@ frame_needed = 0, uses_anonymous_args = 0
 282              	.LVL22:
 283 0000 F04F2DE9 		push	{r4, r5, r6, r7, r8, r9, r10, fp, lr}
 284              		.cfi_def_cfa_offset 36
 285              		.cfi_offset 4, -36
 286              		.cfi_offset 5, -32
 287              		.cfi_offset 6, -28
 288              		.cfi_offset 7, -24
 289              		.cfi_offset 8, -20
 290              		.cfi_offset 9, -16
 291              		.cfi_offset 10, -12
 292              		.cfi_offset 11, -8
 293              		.cfi_offset 14, -4
 294 0004 00A0A0E1 		mov	r10, r0
 295 0008 3CD04DE2 		sub	sp, sp, #60
 296              		.cfi_def_cfa_offset 96
 164:D:/Work/DeviceTester/amazon-freertos/lib/third_party/mbedtls/library\gcm.c ****     int ret;
 297              		.loc 1 164 0
 298 000c 0100A0E1 		mov	r0, r1
 299              	.LVL23:
 300 0010 0290A0E1 		mov	r9, r2
 168:D:/Work/DeviceTester/amazon-freertos/lib/third_party/mbedtls/library\gcm.c ****     if( cipher_info == NULL )
 301              		.loc 1 168 0
 302 0014 0310A0E1 		mov	r1, r3
 303              	.LVL24:
 304 0018 0120A0E3 		mov	r2, #1
 305              	.LVL25:
 164:D:/Work/DeviceTester/amazon-freertos/lib/third_party/mbedtls/library\gcm.c ****     int ret;
 306              		.loc 1 164 0
 307 001c 0370A0E1 		mov	r7, r3
 168:D:/Work/DeviceTester/amazon-freertos/lib/third_party/mbedtls/library\gcm.c ****     if( cipher_info == NULL )
 308              		.loc 1 168 0
 309 0020 FEFFFFEB 		bl	mbedtls_cipher_info_from_values
 310              	.LVL26:
 169:D:/Work/DeviceTester/amazon-freertos/lib/third_party/mbedtls/library\gcm.c ****         return( MBEDTLS_ERR_GCM_BAD_INPUT );
 311              		.loc 1 169 0
 312 0024 008050E2 		subs	r8, r0, #0
 313 0028 6B00000A 		beq	.L20
 172:D:/Work/DeviceTester/amazon-freertos/lib/third_party/mbedtls/library\gcm.c ****         return( MBEDTLS_ERR_GCM_BAD_INPUT );
 314              		.loc 1 172 0
 315 002c 146098E5 		ldr	r6, [r8, #20]
 316 0030 100056E3 		cmp	r6, #16
 317 0034 6800001A 		bne	.L20
 175:D:/Work/DeviceTester/amazon-freertos/lib/third_party/mbedtls/library\gcm.c **** 
 318              		.loc 1 175 0
 319 0038 0A00A0E1 		mov	r0, r10
 320              	.LVL27:
 321 003c FEFFFFEB 		bl	mbedtls_cipher_free
 322              	.LVL28:
 177:D:/Work/DeviceTester/amazon-freertos/lib/third_party/mbedtls/library\gcm.c ****         return( ret );
 323              		.loc 1 177 0
 324 0040 0810A0E1 		mov	r1, r8
 325 0044 0A00A0E1 		mov	r0, r10
 326 0048 FEFFFFEB 		bl	mbedtls_cipher_setup
 327              	.LVL29:
 328 004c 00B050E2 		subs	fp, r0, #0
 329 0050 5E00001A 		bne	.L12
 180:D:/Work/DeviceTester/amazon-freertos/lib/third_party/mbedtls/library\gcm.c ****                                MBEDTLS_ENCRYPT ) ) != 0 )
 330              		.loc 1 180 0
 331 0054 0130A0E3 		mov	r3, #1
 332 0058 0720A0E1 		mov	r2, r7
 333 005c 0910A0E1 		mov	r1, r9
 334 0060 0A00A0E1 		mov	r0, r10
 335              	.LVL30:
 336 0064 FEFFFFEB 		bl	mbedtls_cipher_setkey
 337              	.LVL31:
 338 0068 00B050E2 		subs	fp, r0, #0
 339 006c 5700001A 		bne	.L12
 340              	.LVL32:
 341              	.LBB8:
 342              	.LBB9:
 343              	.LBB10:
 344              	.LBB11:
 108:D:/Work/DeviceTester/amazon-freertos/lib/third_party/mbedtls/library\gcm.c ****     if( ( ret = mbedtls_cipher_update( &ctx->cipher_ctx, h, 16, h, &olen ) ) != 0 )
 345              		.loc 1 108 0
 346 0070 0B10A0E1 		mov	r1, fp
 347 0074 0620A0E1 		mov	r2, r6
 348 0078 28008DE2 		add	r0, sp, #40
 349              	.LVL33:
 106:D:/Work/DeviceTester/amazon-freertos/lib/third_party/mbedtls/library\gcm.c **** 
 350              		.loc 1 106 0
 351 007c 24B08DE5 		str	fp, [sp, #36]
 108:D:/Work/DeviceTester/amazon-freertos/lib/third_party/mbedtls/library\gcm.c ****     if( ( ret = mbedtls_cipher_update( &ctx->cipher_ctx, h, 16, h, &olen ) ) != 0 )
 352              		.loc 1 108 0
 353 0080 FEFFFFEB 		bl	memset
 354              	.LVL34:
 109:D:/Work/DeviceTester/amazon-freertos/lib/third_party/mbedtls/library\gcm.c ****         return( ret );
 355              		.loc 1 109 0
 356 0084 24308DE2 		add	r3, sp, #36
 357 0088 0620A0E1 		mov	r2, r6
 358 008c 00308DE5 		str	r3, [sp]
 359 0090 28308DE2 		add	r3, sp, #40
 360 0094 0310A0E1 		mov	r1, r3
 361 0098 0A00A0E1 		mov	r0, r10
 362 009c FEFFFFEB 		bl	mbedtls_cipher_update
 363              	.LVL35:
 364 00a0 00B050E2 		subs	fp, r0, #0
 365              	.LVL36:
 366 00a4 4900001A 		bne	.L12
 367              	.LVL37:
 368 00a8 2C109DE5 		ldr	r1, [sp, #44]
 369              	.LBB12:
 137:D:/Work/DeviceTester/amazon-freertos/lib/third_party/mbedtls/library\gcm.c ****         vl  = ( vh << 63 ) | ( vl >> 1 );
 370              		.loc 1 137 0
 371 00ac E184A0E3 		mov	r8, #-520093696
 372              	.LVL38:
 373 00b0 34C09DE5 		ldr	ip, [sp, #52]
 374              	.LBE12:
 115:D:/Work/DeviceTester/amazon-freertos/lib/third_party/mbedtls/library\gcm.c **** 
 375              		.loc 1 115 0
 376 00b4 28009DE5 		ldr	r0, [sp, #40]
 377              	.LVL39:
 119:D:/Work/DeviceTester/amazon-freertos/lib/third_party/mbedtls/library\gcm.c **** 
 378              		.loc 1 119 0
 379 00b8 30E09DE5 		ldr	lr, [sp, #48]
 380 00bc 311FBFE6 		rev	r1, r1
 381              	.LVL40:
 382 00c0 3CCFBFE6 		rev	ip, ip
 132:D:/Work/DeviceTester/amazon-freertos/lib/third_party/mbedtls/library\gcm.c ****     ctx->HL[0] = 0;
 383              		.loc 1 132 0
 384 00c4 1000C0F2 		vmov.i32	d16, #0  @ di
 115:D:/Work/DeviceTester/amazon-freertos/lib/third_party/mbedtls/library\gcm.c **** 
 385              		.loc 1 115 0
 386 00c8 303FBFE6 		rev	r3, r0
 387 00cc 01208BE1 		orr	r2, fp, r1
 388              	.LVL41:
 119:D:/Work/DeviceTester/amazon-freertos/lib/third_party/mbedtls/library\gcm.c **** 
 389              		.loc 1 119 0
 390 00d0 0C008BE1 		orr	r0, fp, ip
 391 00d4 3E1FBFE6 		rev	r1, lr
 392              	.LVL42:
 133:D:/Work/DeviceTester/amazon-freertos/lib/third_party/mbedtls/library\gcm.c **** 
 393              		.loc 1 133 0
 394 00d8 03C0A0E3 		mov	ip, #3
 395              	.LVL43:
 135:D:/Work/DeviceTester/amazon-freertos/lib/third_party/mbedtls/library\gcm.c ****     {
 396              		.loc 1 135 0
 397 00dc 04E0A0E3 		mov	lr, #4
 398              	.LVL44:
 122:D:/Work/DeviceTester/amazon-freertos/lib/third_party/mbedtls/library\gcm.c ****     ctx->HH[8] = vh;
 399              		.loc 1 122 0
 400 00e0 F008CAE1 		strd	r0, [r10, #128]
 123:D:/Work/DeviceTester/amazon-freertos/lib/third_party/mbedtls/library\gcm.c **** 
 401              		.loc 1 123 0
 402 00e4 00218AE5 		str	r2, [r10, #256]
 403 00e8 04318AE5 		str	r3, [r10, #260]
 132:D:/Work/DeviceTester/amazon-freertos/lib/third_party/mbedtls/library\gcm.c ****     ctx->HL[0] = 0;
 404              		.loc 1 132 0
 405 00ec 300BCAED 		vstr.64	d16, [r10, #192]	@ int
 133:D:/Work/DeviceTester/amazon-freertos/lib/third_party/mbedtls/library\gcm.c **** 
 406              		.loc 1 133 0
 407 00f0 100BCAED 		vstr.64	d16, [r10, #64]	@ int
 408              	.LVL45:
 409              	.L15:
 410              	.LBB13:
 137:D:/Work/DeviceTester/amazon-freertos/lib/third_party/mbedtls/library\gcm.c ****         vl  = ( vh << 63 ) | ( vl >> 1 );
 411              		.loc 1 137 0
 412 00f4 019000E2 		and	r9, r0, #1
 413              	.LVL46:
 138:D:/Work/DeviceTester/amazon-freertos/lib/third_party/mbedtls/library\gcm.c ****         vh  = ( vh >> 1 ) ^ ( (uint64_t) T << 32);
 414              		.loc 1 138 0
 415 00f8 827FA0E1 		lsl	r7, r2, #31
 139:D:/Work/DeviceTester/amazon-freertos/lib/third_party/mbedtls/library\gcm.c **** 
 416              		.loc 1 139 0
 417 00fc 980905E0 		mul	r5, r8, r9
 418              	.LVL47:
 138:D:/Work/DeviceTester/amazon-freertos/lib/third_party/mbedtls/library\gcm.c ****         vh  = ( vh >> 1 ) ^ ( (uint64_t) T << 32);
 419              		.loc 1 138 0
 420 0100 A110B0E1 		movs	r1, r1, lsr #1
 421 0104 6000A0E1 		mov	r0, r0, rrx
 422              	.LVL48:
 423 0108 0060A0E3 		mov	r6, #0
 139:D:/Work/DeviceTester/amazon-freertos/lib/third_party/mbedtls/library\gcm.c **** 
 424              		.loc 1 139 0
 425 010c A330B0E1 		movs	r3, r3, lsr #1
 426 0110 6220A0E1 		mov	r2, r2, rrx
 427              	.LVL49:
 138:D:/Work/DeviceTester/amazon-freertos/lib/third_party/mbedtls/library\gcm.c ****         vh  = ( vh >> 1 ) ^ ( (uint64_t) T << 32);
 428              		.loc 1 138 0
 429 0114 060080E1 		orr	r0, r0, r6
 430 0118 8E618AE0 		add	r6, r10, lr, lsl #3
 139:D:/Work/DeviceTester/amazon-freertos/lib/third_party/mbedtls/library\gcm.c **** 
 431              		.loc 1 139 0
 432 011c 0040A0E3 		mov	r4, #0
 433              	.LBE13:
 135:D:/Work/DeviceTester/amazon-freertos/lib/third_party/mbedtls/library\gcm.c ****     {
 434              		.loc 1 135 0
 435 0120 CEE0A0E1 		asr	lr, lr, #1
 436              	.LVL50:
 437 0124 01C05CE2 		subs	ip, ip, #1
 438              	.LBB14:
 138:D:/Work/DeviceTester/amazon-freertos/lib/third_party/mbedtls/library\gcm.c ****         vh  = ( vh >> 1 ) ^ ( (uint64_t) T << 32);
 439              		.loc 1 138 0
 440 0128 071081E1 		orr	r1, r1, r7
 441              	.LVL51:
 139:D:/Work/DeviceTester/amazon-freertos/lib/third_party/mbedtls/library\gcm.c **** 
 442              		.loc 1 139 0
 443 012c 042022E0 		eor	r2, r2, r4
 444 0130 053023E0 		eor	r3, r3, r5
 445              	.LVL52:
 141:D:/Work/DeviceTester/amazon-freertos/lib/third_party/mbedtls/library\gcm.c ****         ctx->HH[i] = vh;
 446              		.loc 1 141 0
 447 0134 F004C6E1 		strd	r0, [r6, #64]
 142:D:/Work/DeviceTester/amazon-freertos/lib/third_party/mbedtls/library\gcm.c ****     }
 448              		.loc 1 142 0
 449 0138 F02CC6E1 		strd	r2, [r6, #192]
 450              	.LBE14:
 135:D:/Work/DeviceTester/amazon-freertos/lib/third_party/mbedtls/library\gcm.c ****     {
 451              		.loc 1 135 0
 452 013c ECFFFF1A 		bne	.L15
 453 0140 0340A0E3 		mov	r4, #3
 454 0144 02C0A0E3 		mov	ip, #2
 455              	.LBB15:
 147:D:/Work/DeviceTester/amazon-freertos/lib/third_party/mbedtls/library\gcm.c ****         vh = *HiH;
 456              		.loc 1 147 0
 457 0148 C0608AE2 		add	r6, r10, #192
 458 014c 40308AE2 		add	r3, r10, #64
 459 0150 1C308DE5 		str	r3, [sp, #28]
 460              	.LVL53:
 461              	.L17:
 462 0154 1C309DE5 		ldr	r3, [sp, #28]
 463 0158 8C51A0E1 		lsl	r5, ip, #3
 464 015c 48008AE2 		add	r0, r10, #72
 465 0160 051083E0 		add	r1, r3, r5
 466              	.LVL54:
 467 0164 053086E0 		add	r3, r6, r5
 468              	.LVL55:
 148:D:/Work/DeviceTester/amazon-freertos/lib/third_party/mbedtls/library\gcm.c ****         vl = *HiL;
 469              		.loc 1 148 0
 470 0168 D080C3E1 		ldrd	r8, [r3]
 471 016c 08E083E2 		add	lr, r3, #8
 472 0170 055083E0 		add	r5, r3, r5
 473 0174 F880CDE1 		strd	r8, [sp, #8]
 474              	.LVL56:
 149:D:/Work/DeviceTester/amazon-freertos/lib/third_party/mbedtls/library\gcm.c ****         for( j = 1; j < i; j++ )
 475              		.loc 1 149 0
 476 0178 D080C1E1 		ldrd	r8, [r1]
 477              	.LVL57:
 478 017c F081CDE1 		strd	r8, [sp, #16]
 479              	.LVL58:
 480              	.L16:
 152:D:/Work/DeviceTester/amazon-freertos/lib/third_party/mbedtls/library\gcm.c ****             HiL[j] = vl ^ ctx->HL[j];
 481              		.loc 1 152 0
 482 0180 D028C0E1 		ldrd	r2, [r0, #128]
 153:D:/Work/DeviceTester/amazon-freertos/lib/third_party/mbedtls/library\gcm.c ****         }
 483              		.loc 1 153 0
 484 0184 080080E2 		add	r0, r0, #8
 152:D:/Work/DeviceTester/amazon-freertos/lib/third_party/mbedtls/library\gcm.c ****             HiL[j] = vl ^ ctx->HL[j];
 485              		.loc 1 152 0
 486 0188 D880CDE1 		ldrd	r8, [sp, #8]
 487 018c 028028E0 		eor	r8, r8, r2
 488 0190 039029E0 		eor	r9, r9, r3
 489 0194 0820A0E1 		mov	r2, r8
 490 0198 0930A0E1 		mov	r3, r9
 491 019c F820CEE0 		strd	r2, [lr], #8
 150:D:/Work/DeviceTester/amazon-freertos/lib/third_party/mbedtls/library\gcm.c ****         {
 492              		.loc 1 150 0
 493 01a0 05005EE1 		cmp	lr, r5
 153:D:/Work/DeviceTester/amazon-freertos/lib/third_party/mbedtls/library\gcm.c ****         }
 494              		.loc 1 153 0
 495 01a4 D82040E1 		ldrd	r2, [r0, #-8]
 496 01a8 D081CDE1 		ldrd	r8, [sp, #16]
 497 01ac 028028E0 		eor	r8, r8, r2
 498 01b0 039029E0 		eor	r9, r9, r3
 499 01b4 0820A0E1 		mov	r2, r8
 500 01b8 0930A0E1 		mov	r3, r9
 501 01bc F820E1E1 		strd	r2, [r1, #8]!
 150:D:/Work/DeviceTester/amazon-freertos/lib/third_party/mbedtls/library\gcm.c ****         {
 502              		.loc 1 150 0
 503 01c0 EEFFFF1A 		bne	.L16
 504              	.LBE15:
 145:D:/Work/DeviceTester/amazon-freertos/lib/third_party/mbedtls/library\gcm.c ****     {
 505              		.loc 1 145 0
 506 01c4 014054E2 		subs	r4, r4, #1
 507 01c8 8CC0A0E1 		lsl	ip, ip, #1
 508              	.LVL59:
 509 01cc E0FFFF1A 		bne	.L17
 510              	.LVL60:
 511              	.L12:
 512              	.LBE11:
 513              	.LBE10:
 514              	.LBE9:
 515              	.LBE8:
 190:D:/Work/DeviceTester/amazon-freertos/lib/third_party/mbedtls/library\gcm.c **** 
 516              		.loc 1 190 0
 517 01d0 0B00A0E1 		mov	r0, fp
 518 01d4 3CD08DE2 		add	sp, sp, #60
 519              		.cfi_remember_state
 520              		.cfi_def_cfa_offset 36
 521              		@ sp needed
 522 01d8 F08FBDE8 		pop	{r4, r5, r6, r7, r8, r9, r10, fp, pc}
 523              	.LVL61:
 524              	.L20:
 525              		.cfi_restore_state
 170:D:/Work/DeviceTester/amazon-freertos/lib/third_party/mbedtls/library\gcm.c **** 
 526              		.loc 1 170 0
 527 01dc 13B0E0E3 		mvn	fp, #19
 528 01e0 FAFFFFEA 		b	.L12
 529              		.cfi_endproc
 530              	.LFE10:
 532              		.section	.text.mbedtls_gcm_starts,"ax",%progbits
 533              		.align	2
 534              		.global	mbedtls_gcm_starts
 535              		.syntax unified
 536              		.arm
 537              		.fpu neon
 539              	mbedtls_gcm_starts:
 540              	.LFB12:
 264:D:/Work/DeviceTester/amazon-freertos/lib/third_party/mbedtls/library\gcm.c **** 
 265:D:/Work/DeviceTester/amazon-freertos/lib/third_party/mbedtls/library\gcm.c **** int mbedtls_gcm_starts( mbedtls_gcm_context *ctx,
 266:D:/Work/DeviceTester/amazon-freertos/lib/third_party/mbedtls/library\gcm.c ****                 int mode,
 267:D:/Work/DeviceTester/amazon-freertos/lib/third_party/mbedtls/library\gcm.c ****                 const unsigned char *iv,
 268:D:/Work/DeviceTester/amazon-freertos/lib/third_party/mbedtls/library\gcm.c ****                 size_t iv_len,
 269:D:/Work/DeviceTester/amazon-freertos/lib/third_party/mbedtls/library\gcm.c ****                 const unsigned char *add,
 270:D:/Work/DeviceTester/amazon-freertos/lib/third_party/mbedtls/library\gcm.c ****                 size_t add_len )
 271:D:/Work/DeviceTester/amazon-freertos/lib/third_party/mbedtls/library\gcm.c **** {
 541              		.loc 1 271 0
 542              		.cfi_startproc
 543              		@ args = 8, pretend = 0, frame = 32
 544              		@ frame_needed = 0, uses_anonymous_args = 0
 545              	.LVL62:
 546 0000 F04F2DE9 		push	{r4, r5, r6, r7, r8, r9, r10, fp, lr}
 547              		.cfi_def_cfa_offset 36
 548              		.cfi_offset 4, -36
 549              		.cfi_offset 5, -32
 550              		.cfi_offset 6, -28
 551              		.cfi_offset 7, -24
 552              		.cfi_offset 8, -20
 553              		.cfi_offset 9, -16
 554              		.cfi_offset 10, -12
 555              		.cfi_offset 11, -8
 556              		.cfi_offset 14, -4
 272:D:/Work/DeviceTester/amazon-freertos/lib/third_party/mbedtls/library\gcm.c ****     int ret;
 273:D:/Work/DeviceTester/amazon-freertos/lib/third_party/mbedtls/library\gcm.c ****     unsigned char work_buf[16];
 274:D:/Work/DeviceTester/amazon-freertos/lib/third_party/mbedtls/library\gcm.c ****     size_t i;
 275:D:/Work/DeviceTester/amazon-freertos/lib/third_party/mbedtls/library\gcm.c ****     const unsigned char *p;
 276:D:/Work/DeviceTester/amazon-freertos/lib/third_party/mbedtls/library\gcm.c ****     size_t use_len, olen = 0;
 277:D:/Work/DeviceTester/amazon-freertos/lib/third_party/mbedtls/library\gcm.c **** 
 278:D:/Work/DeviceTester/amazon-freertos/lib/third_party/mbedtls/library\gcm.c ****     /* IV and AD are limited to 2^64 bits, so 2^61 bytes */
 279:D:/Work/DeviceTester/amazon-freertos/lib/third_party/mbedtls/library\gcm.c ****     /* IV is not allowed to be zero length */
 280:D:/Work/DeviceTester/amazon-freertos/lib/third_party/mbedtls/library\gcm.c ****     if( iv_len == 0 ||
 557              		.loc 1 280 0
 558 0004 005053E2 		subs	r5, r3, #0
 271:D:/Work/DeviceTester/amazon-freertos/lib/third_party/mbedtls/library\gcm.c ****     int ret;
 559              		.loc 1 271 0
 560 0008 2CD04DE2 		sub	sp, sp, #44
 561              		.cfi_def_cfa_offset 80
 276:D:/Work/DeviceTester/amazon-freertos/lib/third_party/mbedtls/library\gcm.c **** 
 562              		.loc 1 276 0
 563 000c 0090A0E3 		mov	r9, #0
 281:D:/Work/DeviceTester/amazon-freertos/lib/third_party/mbedtls/library\gcm.c ****       ( (uint64_t) iv_len  ) >> 61 != 0 ||
 282:D:/Work/DeviceTester/amazon-freertos/lib/third_party/mbedtls/library\gcm.c ****       ( (uint64_t) add_len ) >> 61 != 0 )
 283:D:/Work/DeviceTester/amazon-freertos/lib/third_party/mbedtls/library\gcm.c ****     {
 284:D:/Work/DeviceTester/amazon-freertos/lib/third_party/mbedtls/library\gcm.c ****         return( MBEDTLS_ERR_GCM_BAD_INPUT );
 564              		.loc 1 284 0
 565 0010 1350E003 		mvneq	r5, #19
 271:D:/Work/DeviceTester/amazon-freertos/lib/third_party/mbedtls/library\gcm.c ****     int ret;
 566              		.loc 1 271 0
 567 0014 54709DE5 		ldr	r7, [sp, #84]
 276:D:/Work/DeviceTester/amazon-freertos/lib/third_party/mbedtls/library\gcm.c **** 
 568              		.loc 1 276 0
 569 0018 14908DE5 		str	r9, [sp, #20]
 280:D:/Work/DeviceTester/amazon-freertos/lib/third_party/mbedtls/library\gcm.c ****       ( (uint64_t) iv_len  ) >> 61 != 0 ||
 570              		.loc 1 280 0
 571 001c 2300000A 		beq	.L25
 572 0020 0040A0E1 		mov	r4, r0
 285:D:/Work/DeviceTester/amazon-freertos/lib/third_party/mbedtls/library\gcm.c ****     }
 286:D:/Work/DeviceTester/amazon-freertos/lib/third_party/mbedtls/library\gcm.c **** 
 287:D:/Work/DeviceTester/amazon-freertos/lib/third_party/mbedtls/library\gcm.c ****     memset( ctx->y, 0x00, sizeof(ctx->y) );
 573              		.loc 1 287 0 discriminator 1
 574 0024 166E80E2 		add	r6, r0, #352
 575 0028 01B0A0E1 		mov	fp, r1
 576 002c 0280A0E1 		mov	r8, r2
 577 0030 0910A0E1 		mov	r1, r9
 578              	.LVL63:
 579 0034 1020A0E3 		mov	r2, #16
 580              	.LVL64:
 581 0038 0600A0E1 		mov	r0, r6
 582              	.LVL65:
 288:D:/Work/DeviceTester/amazon-freertos/lib/third_party/mbedtls/library\gcm.c ****     memset( ctx->buf, 0x00, sizeof(ctx->buf) );
 583              		.loc 1 288 0 discriminator 1
 584 003c 17AE84E2 		add	r10, r4, #368
 287:D:/Work/DeviceTester/amazon-freertos/lib/third_party/mbedtls/library\gcm.c ****     memset( ctx->buf, 0x00, sizeof(ctx->buf) );
 585              		.loc 1 287 0 discriminator 1
 586 0040 FEFFFFEB 		bl	memset
 587              	.LVL66:
 588              		.loc 1 288 0 discriminator 1
 589 0044 1020A0E3 		mov	r2, #16
 590 0048 0910A0E1 		mov	r1, r9
 591 004c 0A00A0E1 		mov	r0, r10
 592 0050 FEFFFFEB 		bl	memset
 593              	.LVL67:
 289:D:/Work/DeviceTester/amazon-freertos/lib/third_party/mbedtls/library\gcm.c **** 
 290:D:/Work/DeviceTester/amazon-freertos/lib/third_party/mbedtls/library\gcm.c ****     ctx->mode = mode;
 291:D:/Work/DeviceTester/amazon-freertos/lib/third_party/mbedtls/library\gcm.c ****     ctx->len = 0;
 594              		.loc 1 291 0 discriminator 1
 595 0054 1000C0F2 		vmov.i32	d16, #0  @ di
 292:D:/Work/DeviceTester/amazon-freertos/lib/third_party/mbedtls/library\gcm.c ****     ctx->add_len = 0;
 293:D:/Work/DeviceTester/amazon-freertos/lib/third_party/mbedtls/library\gcm.c **** 
 294:D:/Work/DeviceTester/amazon-freertos/lib/third_party/mbedtls/library\gcm.c ****     if( iv_len == 12 )
 596              		.loc 1 294 0 discriminator 1
 597 0058 0C0055E3 		cmp	r5, #12
 290:D:/Work/DeviceTester/amazon-freertos/lib/third_party/mbedtls/library\gcm.c ****     ctx->len = 0;
 598              		.loc 1 290 0 discriminator 1
 599 005c 80B184E5 		str	fp, [r4, #384]
 291:D:/Work/DeviceTester/amazon-freertos/lib/third_party/mbedtls/library\gcm.c ****     ctx->add_len = 0;
 600              		.loc 1 291 0 discriminator 1
 601 0060 500BC4ED 		vstr.64	d16, [r4, #320]	@ int
 292:D:/Work/DeviceTester/amazon-freertos/lib/third_party/mbedtls/library\gcm.c ****     ctx->add_len = 0;
 602              		.loc 1 292 0 discriminator 1
 603 0064 520BC4ED 		vstr.64	d16, [r4, #328]	@ int
 604              		.loc 1 294 0 discriminator 1
 605 0068 1300001A 		bne	.L27
 295:D:/Work/DeviceTester/amazon-freertos/lib/third_party/mbedtls/library\gcm.c ****     {
 296:D:/Work/DeviceTester/amazon-freertos/lib/third_party/mbedtls/library\gcm.c ****         memcpy( ctx->y, iv, iv_len );
 606              		.loc 1 296 0
 607 006c 0520A0E1 		mov	r2, r5
 608 0070 0810A0E1 		mov	r1, r8
 609 0074 0600A0E1 		mov	r0, r6
 610 0078 FEFFFFEB 		bl	memcpy
 611              	.LVL68:
 297:D:/Work/DeviceTester/amazon-freertos/lib/third_party/mbedtls/library\gcm.c ****         ctx->y[15] = 1;
 612              		.loc 1 297 0
 613 007c 0130A0E3 		mov	r3, #1
 614 0080 6F31C4E5 		strb	r3, [r4, #367]
 615              	.LVL69:
 616              	.L28:
 298:D:/Work/DeviceTester/amazon-freertos/lib/third_party/mbedtls/library\gcm.c ****     }
 299:D:/Work/DeviceTester/amazon-freertos/lib/third_party/mbedtls/library\gcm.c ****     else
 300:D:/Work/DeviceTester/amazon-freertos/lib/third_party/mbedtls/library\gcm.c ****     {
 301:D:/Work/DeviceTester/amazon-freertos/lib/third_party/mbedtls/library\gcm.c ****         memset( work_buf, 0x00, 16 );
 302:D:/Work/DeviceTester/amazon-freertos/lib/third_party/mbedtls/library\gcm.c ****         PUT_UINT32_BE( iv_len * 8, work_buf, 12 );
 303:D:/Work/DeviceTester/amazon-freertos/lib/third_party/mbedtls/library\gcm.c **** 
 304:D:/Work/DeviceTester/amazon-freertos/lib/third_party/mbedtls/library\gcm.c ****         p = iv;
 305:D:/Work/DeviceTester/amazon-freertos/lib/third_party/mbedtls/library\gcm.c ****         while( iv_len > 0 )
 306:D:/Work/DeviceTester/amazon-freertos/lib/third_party/mbedtls/library\gcm.c ****         {
 307:D:/Work/DeviceTester/amazon-freertos/lib/third_party/mbedtls/library\gcm.c ****             use_len = ( iv_len < 16 ) ? iv_len : 16;
 308:D:/Work/DeviceTester/amazon-freertos/lib/third_party/mbedtls/library\gcm.c **** 
 309:D:/Work/DeviceTester/amazon-freertos/lib/third_party/mbedtls/library\gcm.c ****             for( i = 0; i < use_len; i++ )
 310:D:/Work/DeviceTester/amazon-freertos/lib/third_party/mbedtls/library\gcm.c ****                 ctx->y[i] ^= p[i];
 311:D:/Work/DeviceTester/amazon-freertos/lib/third_party/mbedtls/library\gcm.c **** 
 312:D:/Work/DeviceTester/amazon-freertos/lib/third_party/mbedtls/library\gcm.c ****             gcm_mult( ctx, ctx->y, ctx->y );
 313:D:/Work/DeviceTester/amazon-freertos/lib/third_party/mbedtls/library\gcm.c **** 
 314:D:/Work/DeviceTester/amazon-freertos/lib/third_party/mbedtls/library\gcm.c ****             iv_len -= use_len;
 315:D:/Work/DeviceTester/amazon-freertos/lib/third_party/mbedtls/library\gcm.c ****             p += use_len;
 316:D:/Work/DeviceTester/amazon-freertos/lib/third_party/mbedtls/library\gcm.c ****         }
 317:D:/Work/DeviceTester/amazon-freertos/lib/third_party/mbedtls/library\gcm.c **** 
 318:D:/Work/DeviceTester/amazon-freertos/lib/third_party/mbedtls/library\gcm.c ****         for( i = 0; i < 16; i++ )
 319:D:/Work/DeviceTester/amazon-freertos/lib/third_party/mbedtls/library\gcm.c ****             ctx->y[i] ^= work_buf[i];
 320:D:/Work/DeviceTester/amazon-freertos/lib/third_party/mbedtls/library\gcm.c **** 
 321:D:/Work/DeviceTester/amazon-freertos/lib/third_party/mbedtls/library\gcm.c ****         gcm_mult( ctx, ctx->y, ctx->y );
 322:D:/Work/DeviceTester/amazon-freertos/lib/third_party/mbedtls/library\gcm.c ****     }
 323:D:/Work/DeviceTester/amazon-freertos/lib/third_party/mbedtls/library\gcm.c **** 
 324:D:/Work/DeviceTester/amazon-freertos/lib/third_party/mbedtls/library\gcm.c ****     if( ( ret = mbedtls_cipher_update( &ctx->cipher_ctx, ctx->y, 16, ctx->base_ectr,
 617              		.loc 1 324 0
 618 0084 14308DE2 		add	r3, sp, #20
 619 0088 1020A0E3 		mov	r2, #16
 620 008c 00308DE5 		str	r3, [sp]
 621 0090 0610A0E1 		mov	r1, r6
 622 0094 153E84E2 		add	r3, r4, #336
 623 0098 0400A0E1 		mov	r0, r4
 624 009c FEFFFFEB 		bl	mbedtls_cipher_update
 625              	.LVL70:
 626 00a0 005050E2 		subs	r5, r0, #0
 282:D:/Work/DeviceTester/amazon-freertos/lib/third_party/mbedtls/library\gcm.c ****     {
 627              		.loc 1 282 0
 628 00a4 48718405 		streq	r7, [r4, #328]
 629 00a8 4C518405 		streq	r5, [r4, #332]
 630              		.loc 1 324 0
 631 00ac 4300000A 		beq	.L32
 632              	.LVL71:
 633              	.L25:
 325:D:/Work/DeviceTester/amazon-freertos/lib/third_party/mbedtls/library\gcm.c ****                              &olen ) ) != 0 )
 326:D:/Work/DeviceTester/amazon-freertos/lib/third_party/mbedtls/library\gcm.c ****     {
 327:D:/Work/DeviceTester/amazon-freertos/lib/third_party/mbedtls/library\gcm.c ****         return( ret );
 328:D:/Work/DeviceTester/amazon-freertos/lib/third_party/mbedtls/library\gcm.c ****     }
 329:D:/Work/DeviceTester/amazon-freertos/lib/third_party/mbedtls/library\gcm.c **** 
 330:D:/Work/DeviceTester/amazon-freertos/lib/third_party/mbedtls/library\gcm.c ****     ctx->add_len = add_len;
 331:D:/Work/DeviceTester/amazon-freertos/lib/third_party/mbedtls/library\gcm.c ****     p = add;
 332:D:/Work/DeviceTester/amazon-freertos/lib/third_party/mbedtls/library\gcm.c ****     while( add_len > 0 )
 333:D:/Work/DeviceTester/amazon-freertos/lib/third_party/mbedtls/library\gcm.c ****     {
 334:D:/Work/DeviceTester/amazon-freertos/lib/third_party/mbedtls/library\gcm.c ****         use_len = ( add_len < 16 ) ? add_len : 16;
 335:D:/Work/DeviceTester/amazon-freertos/lib/third_party/mbedtls/library\gcm.c **** 
 336:D:/Work/DeviceTester/amazon-freertos/lib/third_party/mbedtls/library\gcm.c ****         for( i = 0; i < use_len; i++ )
 337:D:/Work/DeviceTester/amazon-freertos/lib/third_party/mbedtls/library\gcm.c ****             ctx->buf[i] ^= p[i];
 338:D:/Work/DeviceTester/amazon-freertos/lib/third_party/mbedtls/library\gcm.c **** 
 339:D:/Work/DeviceTester/amazon-freertos/lib/third_party/mbedtls/library\gcm.c ****         gcm_mult( ctx, ctx->buf, ctx->buf );
 340:D:/Work/DeviceTester/amazon-freertos/lib/third_party/mbedtls/library\gcm.c **** 
 341:D:/Work/DeviceTester/amazon-freertos/lib/third_party/mbedtls/library\gcm.c ****         add_len -= use_len;
 342:D:/Work/DeviceTester/amazon-freertos/lib/third_party/mbedtls/library\gcm.c ****         p += use_len;
 343:D:/Work/DeviceTester/amazon-freertos/lib/third_party/mbedtls/library\gcm.c ****     }
 344:D:/Work/DeviceTester/amazon-freertos/lib/third_party/mbedtls/library\gcm.c **** 
 345:D:/Work/DeviceTester/amazon-freertos/lib/third_party/mbedtls/library\gcm.c ****     return( 0 );
 346:D:/Work/DeviceTester/amazon-freertos/lib/third_party/mbedtls/library\gcm.c **** }
 634              		.loc 1 346 0
 635 00b0 0500A0E1 		mov	r0, r5
 636 00b4 2CD08DE2 		add	sp, sp, #44
 637              		.cfi_remember_state
 638              		.cfi_def_cfa_offset 36
 639              		@ sp needed
 640 00b8 F08FBDE8 		pop	{r4, r5, r6, r7, r8, r9, r10, fp, pc}
 641              	.LVL72:
 642              	.L27:
 643              		.cfi_restore_state
 301:D:/Work/DeviceTester/amazon-freertos/lib/third_party/mbedtls/library\gcm.c ****         PUT_UINT32_BE( iv_len * 8, work_buf, 12 );
 644              		.loc 1 301 0
 645 00bc 18B08DE2 		add	fp, sp, #24
 646              	.LVL73:
 647 00c0 1020A0E3 		mov	r2, #16
 648 00c4 0910A0E1 		mov	r1, r9
 649 00c8 0B00A0E1 		mov	r0, fp
 650 00cc FEFFFFEB 		bl	memset
 651              	.LVL74:
 302:D:/Work/DeviceTester/amazon-freertos/lib/third_party/mbedtls/library\gcm.c **** 
 652              		.loc 1 302 0
 653 00d0 8531A0E1 		lsl	r3, r5, #3
 654 00d4 232CA0E1 		lsr	r2, r3, #24
 655 00d8 2730CDE5 		strb	r3, [sp, #39]
 656              	.LVL75:
 657 00dc 2420CDE5 		strb	r2, [sp, #36]
 658 00e0 2328A0E1 		lsr	r2, r3, #16
 659 00e4 2520CDE5 		strb	r2, [sp, #37]
 660 00e8 2324A0E1 		lsr	r2, r3, #8
 661 00ec 2620CDE5 		strb	r2, [sp, #38]
 662              	.LVL76:
 663              	.L30:
 307:D:/Work/DeviceTester/amazon-freertos/lib/third_party/mbedtls/library\gcm.c **** 
 664              		.loc 1 307 0
 665 00f0 100055E3 		cmp	r5, #16
 666 00f4 0820A0E1 		mov	r2, r8
 667 00f8 0530A031 		movcc	r3, r5
 668 00fc 1030A023 		movcs	r3, #16
 669              	.LVL77:
 670 0100 0690A0E1 		mov	r9, r6
 671 0104 038088E0 		add	r8, r8, r3
 672              	.LVL78:
 673 0108 0610A0E1 		mov	r1, r6
 674              	.LVL79:
 675              	.L29:
 310:D:/Work/DeviceTester/amazon-freertos/lib/third_party/mbedtls/library\gcm.c **** 
 676              		.loc 1 310 0 discriminator 3
 677 010c 0100D2E4 		ldrb	r0, [r2], #1	@ zero_extendqisi2
 678 0110 00C0D1E5 		ldrb	ip, [r1]	@ zero_extendqisi2
 309:D:/Work/DeviceTester/amazon-freertos/lib/third_party/mbedtls/library\gcm.c ****                 ctx->y[i] ^= p[i];
 679              		.loc 1 309 0 discriminator 3
 680 0114 020058E1 		cmp	r8, r2
 310:D:/Work/DeviceTester/amazon-freertos/lib/third_party/mbedtls/library\gcm.c **** 
 681              		.loc 1 310 0 discriminator 3
 682 0118 0C0020E0 		eor	r0, r0, ip
 683 011c 0100C1E4 		strb	r0, [r1], #1
 309:D:/Work/DeviceTester/amazon-freertos/lib/third_party/mbedtls/library\gcm.c ****                 ctx->y[i] ^= p[i];
 684              		.loc 1 309 0 discriminator 3
 685 0120 F9FFFF1A 		bne	.L29
 312:D:/Work/DeviceTester/amazon-freertos/lib/third_party/mbedtls/library\gcm.c **** 
 686              		.loc 1 312 0
 687 0124 0620A0E1 		mov	r2, r6
 688 0128 0610A0E1 		mov	r1, r6
 689 012c 0400A0E1 		mov	r0, r4
 690 0130 0C308DE5 		str	r3, [sp, #12]
 691 0134 FEFFFFEB 		bl	gcm_mult
 692              	.LVL80:
 305:D:/Work/DeviceTester/amazon-freertos/lib/third_party/mbedtls/library\gcm.c ****         {
 693              		.loc 1 305 0
 694 0138 0C309DE5 		ldr	r3, [sp, #12]
 695 013c 035055E0 		subs	r5, r5, r3
 696              	.LVL81:
 697 0140 EAFFFF1A 		bne	.L30
 698              	.LVL82:
 699              	.L31:
 319:D:/Work/DeviceTester/amazon-freertos/lib/third_party/mbedtls/library\gcm.c **** 
 700              		.loc 1 319 0 discriminator 3
 701 0144 0030D9E5 		ldrb	r3, [r9]	@ zero_extendqisi2
 702 0148 0520DBE7 		ldrb	r2, [fp, r5]	@ zero_extendqisi2
 318:D:/Work/DeviceTester/amazon-freertos/lib/third_party/mbedtls/library\gcm.c ****             ctx->y[i] ^= work_buf[i];
 703              		.loc 1 318 0 discriminator 3
 704 014c 015085E2 		add	r5, r5, #1
 705              	.LVL83:
 706 0150 100055E3 		cmp	r5, #16
 319:D:/Work/DeviceTester/amazon-freertos/lib/third_party/mbedtls/library\gcm.c **** 
 707              		.loc 1 319 0 discriminator 3
 708 0154 023023E0 		eor	r3, r3, r2
 709 0158 0130C9E4 		strb	r3, [r9], #1
 318:D:/Work/DeviceTester/amazon-freertos/lib/third_party/mbedtls/library\gcm.c ****             ctx->y[i] ^= work_buf[i];
 710              		.loc 1 318 0 discriminator 3
 711 015c F8FFFF1A 		bne	.L31
 321:D:/Work/DeviceTester/amazon-freertos/lib/third_party/mbedtls/library\gcm.c ****     }
 712              		.loc 1 321 0
 713 0160 0620A0E1 		mov	r2, r6
 714 0164 0610A0E1 		mov	r1, r6
 715 0168 0400A0E1 		mov	r0, r4
 716 016c FEFFFFEB 		bl	gcm_mult
 717              	.LVL84:
 718 0170 C3FFFFEA 		b	.L28
 719              	.LVL85:
 720              	.L34:
 721 0174 50309DE5 		ldr	r3, [sp, #80]
 334:D:/Work/DeviceTester/amazon-freertos/lib/third_party/mbedtls/library\gcm.c **** 
 722              		.loc 1 334 0
 723 0178 100057E3 		cmp	r7, #16
 724 017c 0760A031 		movcc	r6, r7
 725 0180 1060A023 		movcs	r6, #16
 726              	.LVL86:
 727 0184 172E84E2 		add	r2, r4, #368
 728 0188 061083E0 		add	r1, r3, r6
 729 018c 50108DE5 		str	r1, [sp, #80]
 730              	.LVL87:
 731              	.L33:
 337:D:/Work/DeviceTester/amazon-freertos/lib/third_party/mbedtls/library\gcm.c **** 
 732              		.loc 1 337 0 discriminator 3
 733 0190 0110D3E4 		ldrb	r1, [r3], #1	@ zero_extendqisi2
 734 0194 0000D2E5 		ldrb	r0, [r2]	@ zero_extendqisi2
 735 0198 001021E0 		eor	r1, r1, r0
 736 019c 0110C2E4 		strb	r1, [r2], #1
 336:D:/Work/DeviceTester/amazon-freertos/lib/third_party/mbedtls/library\gcm.c ****             ctx->buf[i] ^= p[i];
 737              		.loc 1 336 0 discriminator 3
 738 01a0 50109DE5 		ldr	r1, [sp, #80]
 739 01a4 030051E1 		cmp	r1, r3
 740 01a8 F8FFFF1A 		bne	.L33
 341:D:/Work/DeviceTester/amazon-freertos/lib/third_party/mbedtls/library\gcm.c ****         p += use_len;
 741              		.loc 1 341 0
 742 01ac 067047E0 		sub	r7, r7, r6
 743              	.LVL88:
 339:D:/Work/DeviceTester/amazon-freertos/lib/third_party/mbedtls/library\gcm.c **** 
 744              		.loc 1 339 0
 745 01b0 0A20A0E1 		mov	r2, r10
 746 01b4 0A10A0E1 		mov	r1, r10
 747 01b8 0400A0E1 		mov	r0, r4
 748 01bc FEFFFFEB 		bl	gcm_mult
 749              	.LVL89:
 750              	.L32:
 332:D:/Work/DeviceTester/amazon-freertos/lib/third_party/mbedtls/library\gcm.c ****     {
 751              		.loc 1 332 0
 752 01c0 000057E3 		cmp	r7, #0
 753 01c4 EAFFFF1A 		bne	.L34
 754 01c8 B8FFFFEA 		b	.L25
 755              		.cfi_endproc
 756              	.LFE12:
 758              		.section	.text.mbedtls_gcm_update,"ax",%progbits
 759              		.align	2
 760              		.global	mbedtls_gcm_update
 761              		.syntax unified
 762              		.arm
 763              		.fpu neon
 765              	mbedtls_gcm_update:
 766              	.LFB13:
 347:D:/Work/DeviceTester/amazon-freertos/lib/third_party/mbedtls/library\gcm.c **** 
 348:D:/Work/DeviceTester/amazon-freertos/lib/third_party/mbedtls/library\gcm.c **** int mbedtls_gcm_update( mbedtls_gcm_context *ctx,
 349:D:/Work/DeviceTester/amazon-freertos/lib/third_party/mbedtls/library\gcm.c ****                 size_t length,
 350:D:/Work/DeviceTester/amazon-freertos/lib/third_party/mbedtls/library\gcm.c ****                 const unsigned char *input,
 351:D:/Work/DeviceTester/amazon-freertos/lib/third_party/mbedtls/library\gcm.c ****                 unsigned char *output )
 352:D:/Work/DeviceTester/amazon-freertos/lib/third_party/mbedtls/library\gcm.c **** {
 767              		.loc 1 352 0
 768              		.cfi_startproc
 769              		@ args = 0, pretend = 0, frame = 24
 770              		@ frame_needed = 0, uses_anonymous_args = 0
 771              	.LVL90:
 772 0000 F04F2DE9 		push	{r4, r5, r6, r7, r8, r9, r10, fp, lr}
 773              		.cfi_def_cfa_offset 36
 774              		.cfi_offset 4, -36
 775              		.cfi_offset 5, -32
 776              		.cfi_offset 6, -28
 777              		.cfi_offset 7, -24
 778              		.cfi_offset 8, -20
 779              		.cfi_offset 9, -16
 780              		.cfi_offset 10, -12
 781              		.cfi_offset 11, -8
 782              		.cfi_offset 14, -4
 783 0004 0370A0E1 		mov	r7, r3
 784              	.LVL91:
 353:D:/Work/DeviceTester/amazon-freertos/lib/third_party/mbedtls/library\gcm.c ****     int ret;
 354:D:/Work/DeviceTester/amazon-freertos/lib/third_party/mbedtls/library\gcm.c ****     unsigned char ectr[16];
 355:D:/Work/DeviceTester/amazon-freertos/lib/third_party/mbedtls/library\gcm.c ****     size_t i;
 356:D:/Work/DeviceTester/amazon-freertos/lib/third_party/mbedtls/library\gcm.c ****     const unsigned char *p;
 357:D:/Work/DeviceTester/amazon-freertos/lib/third_party/mbedtls/library\gcm.c ****     unsigned char *out_p = output;
 358:D:/Work/DeviceTester/amazon-freertos/lib/third_party/mbedtls/library\gcm.c ****     size_t use_len, olen = 0;
 359:D:/Work/DeviceTester/amazon-freertos/lib/third_party/mbedtls/library\gcm.c **** 
 360:D:/Work/DeviceTester/amazon-freertos/lib/third_party/mbedtls/library\gcm.c ****     if( output > input && (size_t) ( output - input ) < length )
 785              		.loc 1 360 0
 786 0008 020057E1 		cmp	r7, r2
 352:D:/Work/DeviceTester/amazon-freertos/lib/third_party/mbedtls/library\gcm.c ****     int ret;
 787              		.loc 1 352 0
 788 000c 24D04DE2 		sub	sp, sp, #36
 789              		.cfi_def_cfa_offset 72
 358:D:/Work/DeviceTester/amazon-freertos/lib/third_party/mbedtls/library\gcm.c **** 
 790              		.loc 1 358 0
 791 0010 0030A0E3 		mov	r3, #0
 792              	.LVL92:
 352:D:/Work/DeviceTester/amazon-freertos/lib/third_party/mbedtls/library\gcm.c ****     int ret;
 793              		.loc 1 352 0
 794 0014 0040A0E1 		mov	r4, r0
 795 0018 0150A0E1 		mov	r5, r1
 796 001c 0260A0E1 		mov	r6, r2
 358:D:/Work/DeviceTester/amazon-freertos/lib/third_party/mbedtls/library\gcm.c **** 
 797              		.loc 1 358 0
 798 0020 0C308DE5 		str	r3, [sp, #12]
 799              		.loc 1 360 0
 800 0024 0200009A 		bls	.L42
 801              		.loc 1 360 0 is_stmt 0 discriminator 1
 802 0028 023047E0 		sub	r3, r7, r2
 803 002c 010053E1 		cmp	r3, r1
 804 0030 4E00003A 		bcc	.L51
 805              	.L42:
 361:D:/Work/DeviceTester/amazon-freertos/lib/third_party/mbedtls/library\gcm.c ****         return( MBEDTLS_ERR_GCM_BAD_INPUT );
 362:D:/Work/DeviceTester/amazon-freertos/lib/third_party/mbedtls/library\gcm.c **** 
 363:D:/Work/DeviceTester/amazon-freertos/lib/third_party/mbedtls/library\gcm.c ****     /* Total length is restricted to 2^39 - 256 bits, ie 2^36 - 2^5 bytes
 364:D:/Work/DeviceTester/amazon-freertos/lib/third_party/mbedtls/library\gcm.c ****      * Also check for possible overflow */
 365:D:/Work/DeviceTester/amazon-freertos/lib/third_party/mbedtls/library\gcm.c ****     if( ctx->len + length < ctx->len ||
 806              		.loc 1 365 0 is_stmt 1
 807 0034 059D84E2 		add	r9, r4, #320
 808 0038 D080C9E1 		ldrd	r8, [r9]
 809 003c 0F10A0E3 		mov	r1, #15
 810              	.LVL93:
 811 0040 1F00E0E3 		mvn	r0, #31
 812              	.LVL94:
 813 0044 052098E0 		adds	r2, r8, r5
 814              	.LVL95:
 815 0048 0030A9E2 		adc	r3, r9, #0
 816 004c 010053E1 		cmp	r3, r1
 817 0050 00005201 		cmpeq	r2, r0
 818 0054 0110A083 		movhi	r1, #1
 819 0058 0010A093 		movls	r1, #0
 820 005c 030059E1 		cmp	r9, r3
 821 0060 02005801 		cmpeq	r8, r2
 822 0064 01108183 		orrhi	r1, r1, #1
 823 0068 000051E3 		cmp	r1, #0
 824 006c 3F00001A 		bne	.L51
 825 0070 6FA100E3 		movw	r10, #367
 366:D:/Work/DeviceTester/amazon-freertos/lib/third_party/mbedtls/library\gcm.c ****         (uint64_t) ctx->len + length > 0xFFFFFFFE0ull )
 367:D:/Work/DeviceTester/amazon-freertos/lib/third_party/mbedtls/library\gcm.c ****     {
 368:D:/Work/DeviceTester/amazon-freertos/lib/third_party/mbedtls/library\gcm.c ****         return( MBEDTLS_ERR_GCM_BAD_INPUT );
 369:D:/Work/DeviceTester/amazon-freertos/lib/third_party/mbedtls/library\gcm.c ****     }
 370:D:/Work/DeviceTester/amazon-freertos/lib/third_party/mbedtls/library\gcm.c **** 
 371:D:/Work/DeviceTester/amazon-freertos/lib/third_party/mbedtls/library\gcm.c ****     ctx->len += length;
 372:D:/Work/DeviceTester/amazon-freertos/lib/third_party/mbedtls/library\gcm.c **** 
 373:D:/Work/DeviceTester/amazon-freertos/lib/third_party/mbedtls/library\gcm.c ****     p = input;
 374:D:/Work/DeviceTester/amazon-freertos/lib/third_party/mbedtls/library\gcm.c ****     while( length > 0 )
 375:D:/Work/DeviceTester/amazon-freertos/lib/third_party/mbedtls/library\gcm.c ****     {
 376:D:/Work/DeviceTester/amazon-freertos/lib/third_party/mbedtls/library\gcm.c ****         use_len = ( length < 16 ) ? length : 16;
 377:D:/Work/DeviceTester/amazon-freertos/lib/third_party/mbedtls/library\gcm.c **** 
 378:D:/Work/DeviceTester/amazon-freertos/lib/third_party/mbedtls/library\gcm.c ****         for( i = 16; i > 12; i-- )
 379:D:/Work/DeviceTester/amazon-freertos/lib/third_party/mbedtls/library\gcm.c ****             if( ++ctx->y[i - 1] != 0 )
 380:D:/Work/DeviceTester/amazon-freertos/lib/third_party/mbedtls/library\gcm.c ****                 break;
 381:D:/Work/DeviceTester/amazon-freertos/lib/third_party/mbedtls/library\gcm.c **** 
 382:D:/Work/DeviceTester/amazon-freertos/lib/third_party/mbedtls/library\gcm.c ****         if( ( ret = mbedtls_cipher_update( &ctx->cipher_ctx, ctx->y, 16, ectr,
 826              		.loc 1 382 0
 827 0074 10908DE2 		add	r9, sp, #16
 828 0078 16BE84E2 		add	fp, r4, #352
 371:D:/Work/DeviceTester/amazon-freertos/lib/third_party/mbedtls/library\gcm.c **** 
 829              		.loc 1 371 0
 830 007c 402184E5 		str	r2, [r4, #320]
 831 0080 443184E5 		str	r3, [r4, #324]
 832              	.LVL96:
 833              	.L44:
 374:D:/Work/DeviceTester/amazon-freertos/lib/third_party/mbedtls/library\gcm.c ****     {
 834              		.loc 1 374 0
 835 0084 000055E3 		cmp	r5, #0
 836 0088 0200001A 		bne	.L49
 383:D:/Work/DeviceTester/amazon-freertos/lib/third_party/mbedtls/library\gcm.c ****                                    &olen ) ) != 0 )
 384:D:/Work/DeviceTester/amazon-freertos/lib/third_party/mbedtls/library\gcm.c ****         {
 385:D:/Work/DeviceTester/amazon-freertos/lib/third_party/mbedtls/library\gcm.c ****             return( ret );
 386:D:/Work/DeviceTester/amazon-freertos/lib/third_party/mbedtls/library\gcm.c ****         }
 387:D:/Work/DeviceTester/amazon-freertos/lib/third_party/mbedtls/library\gcm.c **** 
 388:D:/Work/DeviceTester/amazon-freertos/lib/third_party/mbedtls/library\gcm.c ****         for( i = 0; i < use_len; i++ )
 389:D:/Work/DeviceTester/amazon-freertos/lib/third_party/mbedtls/library\gcm.c ****         {
 390:D:/Work/DeviceTester/amazon-freertos/lib/third_party/mbedtls/library\gcm.c ****             if( ctx->mode == MBEDTLS_GCM_DECRYPT )
 391:D:/Work/DeviceTester/amazon-freertos/lib/third_party/mbedtls/library\gcm.c ****                 ctx->buf[i] ^= p[i];
 392:D:/Work/DeviceTester/amazon-freertos/lib/third_party/mbedtls/library\gcm.c ****             out_p[i] = ectr[i] ^ p[i];
 393:D:/Work/DeviceTester/amazon-freertos/lib/third_party/mbedtls/library\gcm.c ****             if( ctx->mode == MBEDTLS_GCM_ENCRYPT )
 394:D:/Work/DeviceTester/amazon-freertos/lib/third_party/mbedtls/library\gcm.c ****                 ctx->buf[i] ^= out_p[i];
 395:D:/Work/DeviceTester/amazon-freertos/lib/third_party/mbedtls/library\gcm.c ****         }
 396:D:/Work/DeviceTester/amazon-freertos/lib/third_party/mbedtls/library\gcm.c **** 
 397:D:/Work/DeviceTester/amazon-freertos/lib/third_party/mbedtls/library\gcm.c ****         gcm_mult( ctx, ctx->buf, ctx->buf );
 398:D:/Work/DeviceTester/amazon-freertos/lib/third_party/mbedtls/library\gcm.c **** 
 399:D:/Work/DeviceTester/amazon-freertos/lib/third_party/mbedtls/library\gcm.c ****         length -= use_len;
 400:D:/Work/DeviceTester/amazon-freertos/lib/third_party/mbedtls/library\gcm.c ****         p += use_len;
 401:D:/Work/DeviceTester/amazon-freertos/lib/third_party/mbedtls/library\gcm.c ****         out_p += use_len;
 402:D:/Work/DeviceTester/amazon-freertos/lib/third_party/mbedtls/library\gcm.c ****     }
 403:D:/Work/DeviceTester/amazon-freertos/lib/third_party/mbedtls/library\gcm.c **** 
 404:D:/Work/DeviceTester/amazon-freertos/lib/third_party/mbedtls/library\gcm.c ****     return( 0 );
 837              		.loc 1 404 0
 838 008c 0500A0E1 		mov	r0, r5
 839              	.LVL97:
 840              	.L41:
 405:D:/Work/DeviceTester/amazon-freertos/lib/third_party/mbedtls/library\gcm.c **** }
 841              		.loc 1 405 0
 842 0090 24D08DE2 		add	sp, sp, #36
 843              		.cfi_remember_state
 844              		.cfi_def_cfa_offset 36
 845              		@ sp needed
 846 0094 F08FBDE8 		pop	{r4, r5, r6, r7, r8, r9, r10, fp, pc}
 847              	.LVL98:
 848              	.L49:
 849              		.cfi_restore_state
 376:D:/Work/DeviceTester/amazon-freertos/lib/third_party/mbedtls/library\gcm.c **** 
 850              		.loc 1 376 0
 851 0098 100055E3 		cmp	r5, #16
 852 009c 0A1084E0 		add	r1, r4, r10
 853 00a0 0580A031 		movcc	r8, r5
 854 00a4 1080A023 		movcs	r8, #16
 855              	.LVL99:
 378:D:/Work/DeviceTester/amazon-freertos/lib/third_party/mbedtls/library\gcm.c ****             if( ++ctx->y[i - 1] != 0 )
 856              		.loc 1 378 0
 857 00a8 1020A0E3 		mov	r2, #16
 858              	.LVL100:
 859              	.L45:
 379:D:/Work/DeviceTester/amazon-freertos/lib/third_party/mbedtls/library\gcm.c ****                 break;
 860              		.loc 1 379 0
 861 00ac 0030D1E5 		ldrb	r3, [r1]	@ zero_extendqisi2
 862 00b0 012042E2 		sub	r2, r2, #1
 863              	.LVL101:
 378:D:/Work/DeviceTester/amazon-freertos/lib/third_party/mbedtls/library\gcm.c ****             if( ++ctx->y[i - 1] != 0 )
 864              		.loc 1 378 0
 865 00b4 0C0052E3 		cmp	r2, #12
 866 00b8 0000A093 		movls	r0, #0
 867 00bc 0100A083 		movhi	r0, #1
 379:D:/Work/DeviceTester/amazon-freertos/lib/third_party/mbedtls/library\gcm.c ****                 break;
 868              		.loc 1 379 0
 869 00c0 013083E2 		add	r3, r3, #1
 870 00c4 7330EFE6 		uxtb	r3, r3
 378:D:/Work/DeviceTester/amazon-freertos/lib/third_party/mbedtls/library\gcm.c ****             if( ++ctx->y[i - 1] != 0 )
 871              		.loc 1 378 0
 872 00c8 000053E3 		cmp	r3, #0
 379:D:/Work/DeviceTester/amazon-freertos/lib/third_party/mbedtls/library\gcm.c ****                 break;
 873              		.loc 1 379 0
 874 00cc 013041E4 		strb	r3, [r1], #-1
 875              	.LVL102:
 378:D:/Work/DeviceTester/amazon-freertos/lib/third_party/mbedtls/library\gcm.c ****             if( ++ctx->y[i - 1] != 0 )
 876              		.loc 1 378 0
 877 00d0 0000A013 		movne	r0, #0
 878 00d4 000050E3 		cmp	r0, #0
 879 00d8 F3FFFF1A 		bne	.L45
 382:D:/Work/DeviceTester/amazon-freertos/lib/third_party/mbedtls/library\gcm.c ****                                    &olen ) ) != 0 )
 880              		.loc 1 382 0
 881 00dc 0C308DE2 		add	r3, sp, #12
 882 00e0 1020A0E3 		mov	r2, #16
 883              	.LVL103:
 884 00e4 00308DE5 		str	r3, [sp]
 885 00e8 0B10A0E1 		mov	r1, fp
 886 00ec 0930A0E1 		mov	r3, r9
 887 00f0 0400A0E1 		mov	r0, r4
 888 00f4 FEFFFFEB 		bl	mbedtls_cipher_update
 889              	.LVL104:
 890 00f8 000050E3 		cmp	r0, #0
 891 00fc E3FFFF1A 		bne	.L41
 892 0100 173E84E2 		add	r3, r4, #368
 893 0104 0320A0E1 		mov	r2, r3
 894              	.LVL105:
 895              	.L48:
 390:D:/Work/DeviceTester/amazon-freertos/lib/third_party/mbedtls/library\gcm.c ****                 ctx->buf[i] ^= p[i];
 896              		.loc 1 390 0
 897 0108 801194E5 		ldr	r1, [r4, #384]
 898 010c 013083E2 		add	r3, r3, #1
 899 0110 000051E3 		cmp	r1, #0
 391:D:/Work/DeviceTester/amazon-freertos/lib/third_party/mbedtls/library\gcm.c ****             out_p[i] = ectr[i] ^ p[i];
 900              		.loc 1 391 0
 901 0114 01105305 		ldrbeq	r1, [r3, #-1]	@ zero_extendqisi2
 902 0118 00C0D607 		ldrbeq	ip, [r6, r0]	@ zero_extendqisi2
 903 011c 0C102100 		eoreq	r1, r1, ip
 904 0120 01104305 		strbeq	r1, [r3, #-1]
 392:D:/Work/DeviceTester/amazon-freertos/lib/third_party/mbedtls/library\gcm.c ****             if( ctx->mode == MBEDTLS_GCM_ENCRYPT )
 905              		.loc 1 392 0
 906 0124 0010D9E7 		ldrb	r1, [r9, r0]	@ zero_extendqisi2
 907 0128 00C0D6E7 		ldrb	ip, [r6, r0]	@ zero_extendqisi2
 908 012c 0C1021E0 		eor	r1, r1, ip
 909 0130 0010C7E7 		strb	r1, [r7, r0]
 388:D:/Work/DeviceTester/amazon-freertos/lib/third_party/mbedtls/library\gcm.c ****         {
 910              		.loc 1 388 0
 911 0134 010080E2 		add	r0, r0, #1
 912              	.LVL106:
 393:D:/Work/DeviceTester/amazon-freertos/lib/third_party/mbedtls/library\gcm.c ****                 ctx->buf[i] ^= out_p[i];
 913              		.loc 1 393 0
 914 0138 80C194E5 		ldr	ip, [r4, #384]
 915 013c 01005CE3 		cmp	ip, #1
 394:D:/Work/DeviceTester/amazon-freertos/lib/third_party/mbedtls/library\gcm.c ****         }
 916              		.loc 1 394 0
 917 0140 01C05305 		ldrbeq	ip, [r3, #-1]	@ zero_extendqisi2
 918 0144 0C102100 		eoreq	r1, r1, ip
 919 0148 01104305 		strbeq	r1, [r3, #-1]
 388:D:/Work/DeviceTester/amazon-freertos/lib/third_party/mbedtls/library\gcm.c ****         {
 920              		.loc 1 388 0
 921 014c 000058E1 		cmp	r8, r0
 922 0150 ECFFFF1A 		bne	.L48
 397:D:/Work/DeviceTester/amazon-freertos/lib/third_party/mbedtls/library\gcm.c **** 
 923              		.loc 1 397 0
 924 0154 0210A0E1 		mov	r1, r2
 925 0158 0400A0E1 		mov	r0, r4
 926              	.LVL107:
 927 015c FEFFFFEB 		bl	gcm_mult
 928              	.LVL108:
 399:D:/Work/DeviceTester/amazon-freertos/lib/third_party/mbedtls/library\gcm.c ****         p += use_len;
 929              		.loc 1 399 0
 930 0160 085045E0 		sub	r5, r5, r8
 931              	.LVL109:
 400:D:/Work/DeviceTester/amazon-freertos/lib/third_party/mbedtls/library\gcm.c ****         out_p += use_len;
 932              		.loc 1 400 0
 933 0164 086086E0 		add	r6, r6, r8
 934              	.LVL110:
 401:D:/Work/DeviceTester/amazon-freertos/lib/third_party/mbedtls/library\gcm.c ****     }
 935              		.loc 1 401 0
 936 0168 087087E0 		add	r7, r7, r8
 937              	.LVL111:
 938 016c C4FFFFEA 		b	.L44
 939              	.LVL112:
 940              	.L51:
 361:D:/Work/DeviceTester/amazon-freertos/lib/third_party/mbedtls/library\gcm.c **** 
 941              		.loc 1 361 0
 942 0170 1300E0E3 		mvn	r0, #19
 943 0174 C5FFFFEA 		b	.L41
 944              		.cfi_endproc
 945              	.LFE13:
 947              		.section	.text.mbedtls_gcm_finish,"ax",%progbits
 948              		.align	2
 949              		.global	mbedtls_gcm_finish
 950              		.syntax unified
 951              		.arm
 952              		.fpu neon
 954              	mbedtls_gcm_finish:
 955              	.LFB14:
 406:D:/Work/DeviceTester/amazon-freertos/lib/third_party/mbedtls/library\gcm.c **** 
 407:D:/Work/DeviceTester/amazon-freertos/lib/third_party/mbedtls/library\gcm.c **** int mbedtls_gcm_finish( mbedtls_gcm_context *ctx,
 408:D:/Work/DeviceTester/amazon-freertos/lib/third_party/mbedtls/library\gcm.c ****                 unsigned char *tag,
 409:D:/Work/DeviceTester/amazon-freertos/lib/third_party/mbedtls/library\gcm.c ****                 size_t tag_len )
 410:D:/Work/DeviceTester/amazon-freertos/lib/third_party/mbedtls/library\gcm.c **** {
 956              		.loc 1 410 0
 957              		.cfi_startproc
 958              		@ args = 0, pretend = 0, frame = 16
 959              		@ frame_needed = 0, uses_anonymous_args = 0
 960              	.LVL113:
 411:D:/Work/DeviceTester/amazon-freertos/lib/third_party/mbedtls/library\gcm.c ****     unsigned char work_buf[16];
 412:D:/Work/DeviceTester/amazon-freertos/lib/third_party/mbedtls/library\gcm.c ****     size_t i;
 413:D:/Work/DeviceTester/amazon-freertos/lib/third_party/mbedtls/library\gcm.c ****     uint64_t orig_len = ctx->len * 8;
 961              		.loc 1 413 0
 962 0000 500BD0ED 		vldr.64	d16, [r0, #320]	@ int
 410:D:/Work/DeviceTester/amazon-freertos/lib/third_party/mbedtls/library\gcm.c ****     unsigned char work_buf[16];
 963              		.loc 1 410 0
 964 0004 FF472DE9 		push	{r0, r1, r2, r3, r4, r5, r6, r7, r8, r9, r10, lr}
 965              		.cfi_def_cfa_offset 48
 966              		.cfi_offset 4, -32
 967              		.cfi_offset 5, -28
 968              		.cfi_offset 6, -24
 969              		.cfi_offset 7, -20
 970              		.cfi_offset 8, -16
 971              		.cfi_offset 9, -12
 972              		.cfi_offset 10, -8
 973              		.cfi_offset 14, -4
 414:D:/Work/DeviceTester/amazon-freertos/lib/third_party/mbedtls/library\gcm.c ****     uint64_t orig_add_len = ctx->add_len * 8;
 415:D:/Work/DeviceTester/amazon-freertos/lib/third_party/mbedtls/library\gcm.c **** 
 416:D:/Work/DeviceTester/amazon-freertos/lib/third_party/mbedtls/library\gcm.c ****     if( tag_len > 16 || tag_len < 4 )
 974              		.loc 1 416 0
 975 0008 043042E2 		sub	r3, r2, #4
 976 000c 0C0053E3 		cmp	r3, #12
 413:D:/Work/DeviceTester/amazon-freertos/lib/third_party/mbedtls/library\gcm.c ****     uint64_t orig_add_len = ctx->add_len * 8;
 977              		.loc 1 413 0
 978 0010 B015C3F2 		vshl.u64	d17, d16, #3
 979              	.LVL114:
 414:D:/Work/DeviceTester/amazon-freertos/lib/third_party/mbedtls/library\gcm.c ****     uint64_t orig_add_len = ctx->add_len * 8;
 980              		.loc 1 414 0
 981 0014 520BD0ED 		vldr.64	d16, [r0, #328]	@ int
 982              	.LVL115:
 417:D:/Work/DeviceTester/amazon-freertos/lib/third_party/mbedtls/library\gcm.c ****         return( MBEDTLS_ERR_GCM_BAD_INPUT );
 983              		.loc 1 417 0
 984 0018 1300E083 		mvnhi	r0, #19
 985              	.LVL116:
 416:D:/Work/DeviceTester/amazon-freertos/lib/third_party/mbedtls/library\gcm.c ****         return( MBEDTLS_ERR_GCM_BAD_INPUT );
 986              		.loc 1 416 0
 987 001c 0D00008A 		bhi	.L55
 988 0020 314B55EC 		vmov	r4, r5, d17	@ int
 989 0024 0180A0E1 		mov	r8, r1
 990 0028 B015C3F2 		vshl.u64	d17, d16, #3
 991              	.LVL117:
 418:D:/Work/DeviceTester/amazon-freertos/lib/third_party/mbedtls/library\gcm.c **** 
 419:D:/Work/DeviceTester/amazon-freertos/lib/third_party/mbedtls/library\gcm.c ****     memcpy( tag, ctx->base_ectr, tag_len );
 992              		.loc 1 419 0
 993 002c 151E80E2 		add	r1, r0, #336
 994              	.LVL118:
 995 0030 0090A0E1 		mov	r9, r0
 996 0034 0800A0E1 		mov	r0, r8
 997 0038 02A0A0E1 		mov	r10, r2
 998 003c 316B57EC 		vmov	r6, r7, d17	@ int
 999 0040 FEFFFFEB 		bl	memcpy
 1000              	.LVL119:
 420:D:/Work/DeviceTester/amazon-freertos/lib/third_party/mbedtls/library\gcm.c **** 
 421:D:/Work/DeviceTester/amazon-freertos/lib/third_party/mbedtls/library\gcm.c ****     if( orig_len || orig_add_len )
 1001              		.loc 1 421 0
 1002 0044 062084E1 		orr	r2, r4, r6
 1003 0048 073085E1 		orr	r3, r5, r7
 1004 004c 033092E1 		orrs	r3, r2, r3
 1005 0050 0200001A 		bne	.L57
 1006              	.LVL120:
 1007              	.L60:
 422:D:/Work/DeviceTester/amazon-freertos/lib/third_party/mbedtls/library\gcm.c ****     {
 423:D:/Work/DeviceTester/amazon-freertos/lib/third_party/mbedtls/library\gcm.c ****         memset( work_buf, 0x00, 16 );
 424:D:/Work/DeviceTester/amazon-freertos/lib/third_party/mbedtls/library\gcm.c **** 
 425:D:/Work/DeviceTester/amazon-freertos/lib/third_party/mbedtls/library\gcm.c ****         PUT_UINT32_BE( ( orig_add_len >> 32 ), work_buf, 0  );
 426:D:/Work/DeviceTester/amazon-freertos/lib/third_party/mbedtls/library\gcm.c ****         PUT_UINT32_BE( ( orig_add_len       ), work_buf, 4  );
 427:D:/Work/DeviceTester/amazon-freertos/lib/third_party/mbedtls/library\gcm.c ****         PUT_UINT32_BE( ( orig_len     >> 32 ), work_buf, 8  );
 428:D:/Work/DeviceTester/amazon-freertos/lib/third_party/mbedtls/library\gcm.c ****         PUT_UINT32_BE( ( orig_len           ), work_buf, 12 );
 429:D:/Work/DeviceTester/amazon-freertos/lib/third_party/mbedtls/library\gcm.c **** 
 430:D:/Work/DeviceTester/amazon-freertos/lib/third_party/mbedtls/library\gcm.c ****         for( i = 0; i < 16; i++ )
 431:D:/Work/DeviceTester/amazon-freertos/lib/third_party/mbedtls/library\gcm.c ****             ctx->buf[i] ^= work_buf[i];
 432:D:/Work/DeviceTester/amazon-freertos/lib/third_party/mbedtls/library\gcm.c **** 
 433:D:/Work/DeviceTester/amazon-freertos/lib/third_party/mbedtls/library\gcm.c ****         gcm_mult( ctx, ctx->buf, ctx->buf );
 434:D:/Work/DeviceTester/amazon-freertos/lib/third_party/mbedtls/library\gcm.c **** 
 435:D:/Work/DeviceTester/amazon-freertos/lib/third_party/mbedtls/library\gcm.c ****         for( i = 0; i < tag_len; i++ )
 436:D:/Work/DeviceTester/amazon-freertos/lib/third_party/mbedtls/library\gcm.c ****             tag[i] ^= ctx->buf[i];
 437:D:/Work/DeviceTester/amazon-freertos/lib/third_party/mbedtls/library\gcm.c ****     }
 438:D:/Work/DeviceTester/amazon-freertos/lib/third_party/mbedtls/library\gcm.c **** 
 439:D:/Work/DeviceTester/amazon-freertos/lib/third_party/mbedtls/library\gcm.c ****     return( 0 );
 1008              		.loc 1 439 0
 1009 0054 0000A0E3 		mov	r0, #0
 1010              	.LVL121:
 1011              	.L55:
 440:D:/Work/DeviceTester/amazon-freertos/lib/third_party/mbedtls/library\gcm.c **** }
 1012              		.loc 1 440 0
 1013 0058 10D08DE2 		add	sp, sp, #16
 1014              		.cfi_remember_state
 1015              		.cfi_def_cfa_offset 32
 1016              		@ sp needed
 1017 005c F087BDE8 		pop	{r4, r5, r6, r7, r8, r9, r10, pc}
 1018              	.LVL122:
 1019              	.L57:
 1020              		.cfi_restore_state
 423:D:/Work/DeviceTester/amazon-freertos/lib/third_party/mbedtls/library\gcm.c **** 
 1021              		.loc 1 423 0
 1022 0060 1020A0E3 		mov	r2, #16
 1023 0064 0010A0E3 		mov	r1, #0
 1024 0068 0D00A0E1 		mov	r0, sp
 1025 006c FEFFFFEB 		bl	memset
 1026              	.LVL123:
 426:D:/Work/DeviceTester/amazon-freertos/lib/third_party/mbedtls/library\gcm.c ****         PUT_UINT32_BE( ( orig_len     >> 32 ), work_buf, 8  );
 1027              		.loc 1 426 0
 1028 0070 262CA0E1 		lsr	r2, r6, #24
 425:D:/Work/DeviceTester/amazon-freertos/lib/third_party/mbedtls/library\gcm.c ****         PUT_UINT32_BE( ( orig_add_len       ), work_buf, 4  );
 1029              		.loc 1 425 0
 1030 0074 273CA0E1 		lsr	r3, r7, #24
 428:D:/Work/DeviceTester/amazon-freertos/lib/third_party/mbedtls/library\gcm.c **** 
 1031              		.loc 1 428 0
 1032 0078 0F40CDE5 		strb	r4, [sp, #15]
 1033              	.LVL124:
 426:D:/Work/DeviceTester/amazon-freertos/lib/third_party/mbedtls/library\gcm.c ****         PUT_UINT32_BE( ( orig_len     >> 32 ), work_buf, 8  );
 1034              		.loc 1 426 0
 1035 007c 072482E1 		orr	r2, r2, r7, lsl #8
 425:D:/Work/DeviceTester/amazon-freertos/lib/third_party/mbedtls/library\gcm.c ****         PUT_UINT32_BE( ( orig_add_len       ), work_buf, 4  );
 1036              		.loc 1 425 0
 1037 0080 0030CDE5 		strb	r3, [sp]
 1038 0084 2738A0E1 		lsr	r3, r7, #16
 1039 0088 0370CDE5 		strb	r7, [sp, #3]
 426:D:/Work/DeviceTester/amazon-freertos/lib/third_party/mbedtls/library\gcm.c ****         PUT_UINT32_BE( ( orig_len     >> 32 ), work_buf, 8  );
 1040              		.loc 1 426 0
 1041 008c 0420CDE5 		strb	r2, [sp, #4]
 1042 0090 2628A0E1 		lsr	r2, r6, #16
 425:D:/Work/DeviceTester/amazon-freertos/lib/third_party/mbedtls/library\gcm.c ****         PUT_UINT32_BE( ( orig_add_len       ), work_buf, 4  );
 1043              		.loc 1 425 0
 1044 0094 0130CDE5 		strb	r3, [sp, #1]
 1045 0098 2734A0E1 		lsr	r3, r7, #8
 426:D:/Work/DeviceTester/amazon-freertos/lib/third_party/mbedtls/library\gcm.c ****         PUT_UINT32_BE( ( orig_len     >> 32 ), work_buf, 8  );
 1046              		.loc 1 426 0
 1047 009c 072882E1 		orr	r2, r2, r7, lsl #16
 1048 00a0 0760CDE5 		strb	r6, [sp, #7]
 425:D:/Work/DeviceTester/amazon-freertos/lib/third_party/mbedtls/library\gcm.c ****         PUT_UINT32_BE( ( orig_add_len       ), work_buf, 4  );
 1049              		.loc 1 425 0
 1050 00a4 0230CDE5 		strb	r3, [sp, #2]
 427:D:/Work/DeviceTester/amazon-freertos/lib/third_party/mbedtls/library\gcm.c ****         PUT_UINT32_BE( ( orig_len           ), work_buf, 12 );
 1051              		.loc 1 427 0
 1052 00a8 253CA0E1 		lsr	r3, r5, #24
 426:D:/Work/DeviceTester/amazon-freertos/lib/third_party/mbedtls/library\gcm.c ****         PUT_UINT32_BE( ( orig_len     >> 32 ), work_buf, 8  );
 1053              		.loc 1 426 0
 1054 00ac 0520CDE5 		strb	r2, [sp, #5]
 1055 00b0 2624A0E1 		lsr	r2, r6, #8
 427:D:/Work/DeviceTester/amazon-freertos/lib/third_party/mbedtls/library\gcm.c ****         PUT_UINT32_BE( ( orig_len           ), work_buf, 12 );
 1056              		.loc 1 427 0
 1057 00b4 0830CDE5 		strb	r3, [sp, #8]
 1058 00b8 2538A0E1 		lsr	r3, r5, #16
 426:D:/Work/DeviceTester/amazon-freertos/lib/third_party/mbedtls/library\gcm.c ****         PUT_UINT32_BE( ( orig_len     >> 32 ), work_buf, 8  );
 1059              		.loc 1 426 0
 1060 00bc 072C82E1 		orr	r2, r2, r7, lsl #24
 427:D:/Work/DeviceTester/amazon-freertos/lib/third_party/mbedtls/library\gcm.c ****         PUT_UINT32_BE( ( orig_len           ), work_buf, 12 );
 1061              		.loc 1 427 0
 1062 00c0 0B50CDE5 		strb	r5, [sp, #11]
 1063 00c4 0930CDE5 		strb	r3, [sp, #9]
 1064 00c8 2534A0E1 		lsr	r3, r5, #8
 426:D:/Work/DeviceTester/amazon-freertos/lib/third_party/mbedtls/library\gcm.c ****         PUT_UINT32_BE( ( orig_len     >> 32 ), work_buf, 8  );
 1065              		.loc 1 426 0
 1066 00cc 0620CDE5 		strb	r2, [sp, #6]
 428:D:/Work/DeviceTester/amazon-freertos/lib/third_party/mbedtls/library\gcm.c **** 
 1067              		.loc 1 428 0
 1068 00d0 242CA0E1 		lsr	r2, r4, #24
 427:D:/Work/DeviceTester/amazon-freertos/lib/third_party/mbedtls/library\gcm.c ****         PUT_UINT32_BE( ( orig_len           ), work_buf, 12 );
 1069              		.loc 1 427 0
 1070 00d4 0A30CDE5 		strb	r3, [sp, #10]
 430:D:/Work/DeviceTester/amazon-freertos/lib/third_party/mbedtls/library\gcm.c ****             ctx->buf[i] ^= work_buf[i];
 1071              		.loc 1 430 0
 1072 00d8 0030A0E3 		mov	r3, #0
 428:D:/Work/DeviceTester/amazon-freertos/lib/third_party/mbedtls/library\gcm.c **** 
 1073              		.loc 1 428 0
 1074 00dc 052482E1 		orr	r2, r2, r5, lsl #8
 1075 00e0 0C20CDE5 		strb	r2, [sp, #12]
 1076 00e4 2428A0E1 		lsr	r2, r4, #16
 1077 00e8 052882E1 		orr	r2, r2, r5, lsl #16
 1078 00ec 0D20CDE5 		strb	r2, [sp, #13]
 1079 00f0 2424A0E1 		lsr	r2, r4, #8
 1080 00f4 174E89E2 		add	r4, r9, #368
 1081              	.LVL125:
 1082 00f8 052C82E1 		orr	r2, r2, r5, lsl #24
 1083 00fc 0E20CDE5 		strb	r2, [sp, #14]
 1084 0100 0420A0E1 		mov	r2, r4
 1085              	.LVL126:
 1086              	.L58:
 431:D:/Work/DeviceTester/amazon-freertos/lib/third_party/mbedtls/library\gcm.c **** 
 1087              		.loc 1 431 0 discriminator 3
 1088 0104 0010D2E5 		ldrb	r1, [r2]	@ zero_extendqisi2
 1089 0108 0300DDE7 		ldrb	r0, [sp, r3]	@ zero_extendqisi2
 430:D:/Work/DeviceTester/amazon-freertos/lib/third_party/mbedtls/library\gcm.c ****             ctx->buf[i] ^= work_buf[i];
 1090              		.loc 1 430 0 discriminator 3
 1091 010c 013083E2 		add	r3, r3, #1
 1092              	.LVL127:
 1093 0110 100053E3 		cmp	r3, #16
 431:D:/Work/DeviceTester/amazon-freertos/lib/third_party/mbedtls/library\gcm.c **** 
 1094              		.loc 1 431 0 discriminator 3
 1095 0114 001021E0 		eor	r1, r1, r0
 1096 0118 0110C2E4 		strb	r1, [r2], #1
 430:D:/Work/DeviceTester/amazon-freertos/lib/third_party/mbedtls/library\gcm.c ****             ctx->buf[i] ^= work_buf[i];
 1097              		.loc 1 430 0 discriminator 3
 1098 011c F8FFFF1A 		bne	.L58
 433:D:/Work/DeviceTester/amazon-freertos/lib/third_party/mbedtls/library\gcm.c **** 
 1099              		.loc 1 433 0
 1100 0120 0410A0E1 		mov	r1, r4
 1101 0124 0420A0E1 		mov	r2, r4
 1102 0128 0900A0E1 		mov	r0, r9
 1103 012c 0AA088E0 		add	r10, r8, r10
 1104              	.LVL128:
 1105 0130 FEFFFFEB 		bl	gcm_mult
 1106              	.LVL129:
 1107 0134 0810A0E1 		mov	r1, r8
 1108              	.LVL130:
 1109              	.L59:
 436:D:/Work/DeviceTester/amazon-freertos/lib/third_party/mbedtls/library\gcm.c ****     }
 1110              		.loc 1 436 0 discriminator 3
 1111 0138 0130D4E4 		ldrb	r3, [r4], #1	@ zero_extendqisi2
 1112 013c 0020D1E5 		ldrb	r2, [r1]	@ zero_extendqisi2
 1113 0140 023023E0 		eor	r3, r3, r2
 1114 0144 0130C1E4 		strb	r3, [r1], #1
 1115              	.LVL131:
 435:D:/Work/DeviceTester/amazon-freertos/lib/third_party/mbedtls/library\gcm.c ****             tag[i] ^= ctx->buf[i];
 1116              		.loc 1 435 0 discriminator 3
 1117 0148 0A0051E1 		cmp	r1, r10
 1118 014c F9FFFF1A 		bne	.L59
 1119 0150 BFFFFFEA 		b	.L60
 1120              		.cfi_endproc
 1121              	.LFE14:
 1123              		.section	.text.mbedtls_gcm_crypt_and_tag,"ax",%progbits
 1124              		.align	2
 1125              		.global	mbedtls_gcm_crypt_and_tag
 1126              		.syntax unified
 1127              		.arm
 1128              		.fpu neon
 1130              	mbedtls_gcm_crypt_and_tag:
 1131              	.LFB15:
 441:D:/Work/DeviceTester/amazon-freertos/lib/third_party/mbedtls/library\gcm.c **** 
 442:D:/Work/DeviceTester/amazon-freertos/lib/third_party/mbedtls/library\gcm.c **** int mbedtls_gcm_crypt_and_tag( mbedtls_gcm_context *ctx,
 443:D:/Work/DeviceTester/amazon-freertos/lib/third_party/mbedtls/library\gcm.c ****                        int mode,
 444:D:/Work/DeviceTester/amazon-freertos/lib/third_party/mbedtls/library\gcm.c ****                        size_t length,
 445:D:/Work/DeviceTester/amazon-freertos/lib/third_party/mbedtls/library\gcm.c ****                        const unsigned char *iv,
 446:D:/Work/DeviceTester/amazon-freertos/lib/third_party/mbedtls/library\gcm.c ****                        size_t iv_len,
 447:D:/Work/DeviceTester/amazon-freertos/lib/third_party/mbedtls/library\gcm.c ****                        const unsigned char *add,
 448:D:/Work/DeviceTester/amazon-freertos/lib/third_party/mbedtls/library\gcm.c ****                        size_t add_len,
 449:D:/Work/DeviceTester/amazon-freertos/lib/third_party/mbedtls/library\gcm.c ****                        const unsigned char *input,
 450:D:/Work/DeviceTester/amazon-freertos/lib/third_party/mbedtls/library\gcm.c ****                        unsigned char *output,
 451:D:/Work/DeviceTester/amazon-freertos/lib/third_party/mbedtls/library\gcm.c ****                        size_t tag_len,
 452:D:/Work/DeviceTester/amazon-freertos/lib/third_party/mbedtls/library\gcm.c ****                        unsigned char *tag )
 453:D:/Work/DeviceTester/amazon-freertos/lib/third_party/mbedtls/library\gcm.c **** {
 1132              		.loc 1 453 0
 1133              		.cfi_startproc
 1134              		@ args = 28, pretend = 0, frame = 0
 1135              		@ frame_needed = 0, uses_anonymous_args = 0
 1136              	.LVL132:
 1137 0000 F7432DE9 		push	{r0, r1, r2, r4, r5, r6, r7, r8, r9, lr}
 1138              		.cfi_def_cfa_offset 40
 1139              		.cfi_offset 4, -28
 1140              		.cfi_offset 5, -24
 1141              		.cfi_offset 6, -20
 1142              		.cfi_offset 7, -16
 1143              		.cfi_offset 8, -12
 1144              		.cfi_offset 9, -8
 1145              		.cfi_offset 14, -4
 1146              		.loc 1 453 0
 1147 0004 0270A0E1 		mov	r7, r2
 1148 0008 0320A0E1 		mov	r2, r3
 1149              	.LVL133:
 454:D:/Work/DeviceTester/amazon-freertos/lib/third_party/mbedtls/library\gcm.c ****     int ret;
 455:D:/Work/DeviceTester/amazon-freertos/lib/third_party/mbedtls/library\gcm.c **** 
 456:D:/Work/DeviceTester/amazon-freertos/lib/third_party/mbedtls/library\gcm.c ****     if( ( ret = mbedtls_gcm_starts( ctx, mode, iv, iv_len, add, add_len ) ) != 0 )
 1150              		.loc 1 456 0
 1151 000c 30309DE5 		ldr	r3, [sp, #48]
 1152              	.LVL134:
 453:D:/Work/DeviceTester/amazon-freertos/lib/third_party/mbedtls/library\gcm.c ****     int ret;
 1153              		.loc 1 453 0
 1154 0010 0040A0E1 		mov	r4, r0
 1155 0014 34809DE5 		ldr	r8, [sp, #52]
 1156              		.loc 1 456 0
 1157 0018 04308DE5 		str	r3, [sp, #4]
 1158 001c 2C309DE5 		ldr	r3, [sp, #44]
 453:D:/Work/DeviceTester/amazon-freertos/lib/third_party/mbedtls/library\gcm.c ****     int ret;
 1159              		.loc 1 453 0
 1160 0020 38909DE5 		ldr	r9, [sp, #56]
 1161 0024 3C609DE5 		ldr	r6, [sp, #60]
 1162              		.loc 1 456 0
 1163 0028 00308DE5 		str	r3, [sp]
 1164 002c 28309DE5 		ldr	r3, [sp, #40]
 453:D:/Work/DeviceTester/amazon-freertos/lib/third_party/mbedtls/library\gcm.c ****     int ret;
 1165              		.loc 1 453 0
 1166 0030 40509DE5 		ldr	r5, [sp, #64]
 1167              		.loc 1 456 0
 1168 0034 FEFFFFEB 		bl	mbedtls_gcm_starts
 1169              	.LVL135:
 1170 0038 000050E3 		cmp	r0, #0
 1171 003c 0C00001A 		bne	.L65
 457:D:/Work/DeviceTester/amazon-freertos/lib/third_party/mbedtls/library\gcm.c ****         return( ret );
 458:D:/Work/DeviceTester/amazon-freertos/lib/third_party/mbedtls/library\gcm.c **** 
 459:D:/Work/DeviceTester/amazon-freertos/lib/third_party/mbedtls/library\gcm.c ****     if( ( ret = mbedtls_gcm_update( ctx, length, input, output ) ) != 0 )
 1172              		.loc 1 459 0
 1173 0040 0930A0E1 		mov	r3, r9
 1174 0044 0820A0E1 		mov	r2, r8
 1175 0048 0710A0E1 		mov	r1, r7
 1176 004c 0400A0E1 		mov	r0, r4
 1177              	.LVL136:
 1178 0050 FEFFFFEB 		bl	mbedtls_gcm_update
 1179              	.LVL137:
 1180 0054 000050E3 		cmp	r0, #0
 1181 0058 0500001A 		bne	.L65
 1182              	.LVL138:
 1183              	.LBB18:
 1184              	.LBB19:
 460:D:/Work/DeviceTester/amazon-freertos/lib/third_party/mbedtls/library\gcm.c ****         return( ret );
 461:D:/Work/DeviceTester/amazon-freertos/lib/third_party/mbedtls/library\gcm.c **** 
 462:D:/Work/DeviceTester/amazon-freertos/lib/third_party/mbedtls/library\gcm.c ****     if( ( ret = mbedtls_gcm_finish( ctx, tag, tag_len ) ) != 0 )
 1185              		.loc 1 462 0
 1186 005c 0620A0E1 		mov	r2, r6
 1187 0060 0510A0E1 		mov	r1, r5
 1188 0064 0400A0E1 		mov	r0, r4
 1189              	.LVL139:
 1190              	.LBE19:
 1191              	.LBE18:
 463:D:/Work/DeviceTester/amazon-freertos/lib/third_party/mbedtls/library\gcm.c ****         return( ret );
 464:D:/Work/DeviceTester/amazon-freertos/lib/third_party/mbedtls/library\gcm.c **** 
 465:D:/Work/DeviceTester/amazon-freertos/lib/third_party/mbedtls/library\gcm.c ****     return( 0 );
 466:D:/Work/DeviceTester/amazon-freertos/lib/third_party/mbedtls/library\gcm.c **** }
 1192              		.loc 1 466 0
 1193 0068 0CD08DE2 		add	sp, sp, #12
 1194              		.cfi_remember_state
 1195              		.cfi_def_cfa_offset 28
 1196              		@ sp needed
 1197 006c F043BDE8 		pop	{r4, r5, r6, r7, r8, r9, lr}
 1198              		.cfi_restore 14
 1199              		.cfi_restore 9
 1200              		.cfi_restore 8
 1201              		.cfi_restore 7
 1202              		.cfi_restore 6
 1203              		.cfi_restore 5
 1204              		.cfi_restore 4
 1205              		.cfi_def_cfa_offset 0
 1206              	.LVL140:
 1207              	.LBB21:
 1208              	.LBB20:
 462:D:/Work/DeviceTester/amazon-freertos/lib/third_party/mbedtls/library\gcm.c ****         return( ret );
 1209              		.loc 1 462 0
 1210 0070 FEFFFFEA 		b	mbedtls_gcm_finish
 1211              	.LVL141:
 1212              	.L65:
 1213              		.cfi_restore_state
 1214              	.LBE20:
 1215              	.LBE21:
 1216              		.loc 1 466 0
 1217 0074 0CD08DE2 		add	sp, sp, #12
 1218              		.cfi_def_cfa_offset 28
 1219              		@ sp needed
 1220 0078 F083BDE8 		pop	{r4, r5, r6, r7, r8, r9, pc}
 1221              		.cfi_endproc
 1222              	.LFE15:
 1224              		.section	.text.mbedtls_gcm_auth_decrypt,"ax",%progbits
 1225              		.align	2
 1226              		.global	mbedtls_gcm_auth_decrypt
 1227              		.syntax unified
 1228              		.arm
 1229              		.fpu neon
 1231              	mbedtls_gcm_auth_decrypt:
 1232              	.LFB16:
 467:D:/Work/DeviceTester/amazon-freertos/lib/third_party/mbedtls/library\gcm.c **** 
 468:D:/Work/DeviceTester/amazon-freertos/lib/third_party/mbedtls/library\gcm.c **** int mbedtls_gcm_auth_decrypt( mbedtls_gcm_context *ctx,
 469:D:/Work/DeviceTester/amazon-freertos/lib/third_party/mbedtls/library\gcm.c ****                       size_t length,
 470:D:/Work/DeviceTester/amazon-freertos/lib/third_party/mbedtls/library\gcm.c ****                       const unsigned char *iv,
 471:D:/Work/DeviceTester/amazon-freertos/lib/third_party/mbedtls/library\gcm.c ****                       size_t iv_len,
 472:D:/Work/DeviceTester/amazon-freertos/lib/third_party/mbedtls/library\gcm.c ****                       const unsigned char *add,
 473:D:/Work/DeviceTester/amazon-freertos/lib/third_party/mbedtls/library\gcm.c ****                       size_t add_len,
 474:D:/Work/DeviceTester/amazon-freertos/lib/third_party/mbedtls/library\gcm.c ****                       const unsigned char *tag,
 475:D:/Work/DeviceTester/amazon-freertos/lib/third_party/mbedtls/library\gcm.c ****                       size_t tag_len,
 476:D:/Work/DeviceTester/amazon-freertos/lib/third_party/mbedtls/library\gcm.c ****                       const unsigned char *input,
 477:D:/Work/DeviceTester/amazon-freertos/lib/third_party/mbedtls/library\gcm.c ****                       unsigned char *output )
 478:D:/Work/DeviceTester/amazon-freertos/lib/third_party/mbedtls/library\gcm.c **** {
 1233              		.loc 1 478 0
 1234              		.cfi_startproc
 1235              		@ args = 24, pretend = 0, frame = 16
 1236              		@ frame_needed = 0, uses_anonymous_args = 0
 1237              	.LVL142:
 1238 0000 F0412DE9 		push	{r4, r5, r6, r7, r8, lr}
 1239              		.cfi_def_cfa_offset 24
 1240              		.cfi_offset 4, -24
 1241              		.cfi_offset 5, -20
 1242              		.cfi_offset 6, -16
 1243              		.cfi_offset 7, -12
 1244              		.cfi_offset 8, -8
 1245              		.cfi_offset 14, -4
 1246 0004 30D04DE2 		sub	sp, sp, #48
 1247              		.cfi_def_cfa_offset 72
 1248              		.loc 1 478 0
 1249 0008 0150A0E1 		mov	r5, r1
 479:D:/Work/DeviceTester/amazon-freertos/lib/third_party/mbedtls/library\gcm.c ****     int ret;
 480:D:/Work/DeviceTester/amazon-freertos/lib/third_party/mbedtls/library\gcm.c ****     unsigned char check_tag[16];
 481:D:/Work/DeviceTester/amazon-freertos/lib/third_party/mbedtls/library\gcm.c ****     size_t i;
 482:D:/Work/DeviceTester/amazon-freertos/lib/third_party/mbedtls/library\gcm.c ****     int diff;
 483:D:/Work/DeviceTester/amazon-freertos/lib/third_party/mbedtls/library\gcm.c **** 
 484:D:/Work/DeviceTester/amazon-freertos/lib/third_party/mbedtls/library\gcm.c ****     if( ( ret = mbedtls_gcm_crypt_and_tag( ctx, MBEDTLS_GCM_DECRYPT, length,
 1250              		.loc 1 484 0
 1251 000c 58109DE5 		ldr	r1, [sp, #88]
 1252              	.LVL143:
 1253 0010 20708DE2 		add	r7, sp, #32
 478:D:/Work/DeviceTester/amazon-freertos/lib/third_party/mbedtls/library\gcm.c ****     int ret;
 1254              		.loc 1 478 0
 1255 0014 54609DE5 		ldr	r6, [sp, #84]
 1256              		.loc 1 484 0
 1257 0018 0C108DE5 		str	r1, [sp, #12]
 1258 001c 4C109DE5 		ldr	r1, [sp, #76]
 478:D:/Work/DeviceTester/amazon-freertos/lib/third_party/mbedtls/library\gcm.c ****     int ret;
 1259              		.loc 1 478 0
 1260 0020 5C409DE5 		ldr	r4, [sp, #92]
 1261              		.loc 1 484 0
 1262 0024 00308DE5 		str	r3, [sp]
 1263 0028 0230A0E1 		mov	r3, r2
 1264              	.LVL144:
 1265 002c 08108DE5 		str	r1, [sp, #8]
 1266 0030 0520A0E1 		mov	r2, r5
 1267              	.LVL145:
 1268 0034 48109DE5 		ldr	r1, [sp, #72]
 1269 0038 18708DE5 		str	r7, [sp, #24]
 1270 003c 14608DE5 		str	r6, [sp, #20]
 1271 0040 04108DE5 		str	r1, [sp, #4]
 1272 0044 0010A0E3 		mov	r1, #0
 1273 0048 10408DE5 		str	r4, [sp, #16]
 478:D:/Work/DeviceTester/amazon-freertos/lib/third_party/mbedtls/library\gcm.c ****     int ret;
 1274              		.loc 1 478 0
 1275 004c 50809DE5 		ldr	r8, [sp, #80]
 1276              		.loc 1 484 0
 1277 0050 FEFFFFEB 		bl	mbedtls_gcm_crypt_and_tag
 1278              	.LVL146:
 1279 0054 000050E3 		cmp	r0, #0
 1280 0058 0030A001 		moveq	r3, r0
 1281 005c 0600000A 		beq	.L70
 1282              	.LVL147:
 1283              	.L68:
 485:D:/Work/DeviceTester/amazon-freertos/lib/third_party/mbedtls/library\gcm.c ****                                    iv, iv_len, add, add_len,
 486:D:/Work/DeviceTester/amazon-freertos/lib/third_party/mbedtls/library\gcm.c ****                                    input, output, tag_len, check_tag ) ) != 0 )
 487:D:/Work/DeviceTester/amazon-freertos/lib/third_party/mbedtls/library\gcm.c ****     {
 488:D:/Work/DeviceTester/amazon-freertos/lib/third_party/mbedtls/library\gcm.c ****         return( ret );
 489:D:/Work/DeviceTester/amazon-freertos/lib/third_party/mbedtls/library\gcm.c ****     }
 490:D:/Work/DeviceTester/amazon-freertos/lib/third_party/mbedtls/library\gcm.c **** 
 491:D:/Work/DeviceTester/amazon-freertos/lib/third_party/mbedtls/library\gcm.c ****     /* Check tag in "constant-time" */
 492:D:/Work/DeviceTester/amazon-freertos/lib/third_party/mbedtls/library\gcm.c ****     for( diff = 0, i = 0; i < tag_len; i++ )
 493:D:/Work/DeviceTester/amazon-freertos/lib/third_party/mbedtls/library\gcm.c ****         diff |= tag[i] ^ check_tag[i];
 494:D:/Work/DeviceTester/amazon-freertos/lib/third_party/mbedtls/library\gcm.c **** 
 495:D:/Work/DeviceTester/amazon-freertos/lib/third_party/mbedtls/library\gcm.c ****     if( diff != 0 )
 496:D:/Work/DeviceTester/amazon-freertos/lib/third_party/mbedtls/library\gcm.c ****     {
 497:D:/Work/DeviceTester/amazon-freertos/lib/third_party/mbedtls/library\gcm.c ****         mbedtls_platform_zeroize( output, length );
 498:D:/Work/DeviceTester/amazon-freertos/lib/third_party/mbedtls/library\gcm.c ****         return( MBEDTLS_ERR_GCM_AUTH_FAILED );
 499:D:/Work/DeviceTester/amazon-freertos/lib/third_party/mbedtls/library\gcm.c ****     }
 500:D:/Work/DeviceTester/amazon-freertos/lib/third_party/mbedtls/library\gcm.c **** 
 501:D:/Work/DeviceTester/amazon-freertos/lib/third_party/mbedtls/library\gcm.c ****     return( 0 );
 502:D:/Work/DeviceTester/amazon-freertos/lib/third_party/mbedtls/library\gcm.c **** }
 1284              		.loc 1 502 0
 1285 0060 30D08DE2 		add	sp, sp, #48
 1286              		.cfi_remember_state
 1287              		.cfi_def_cfa_offset 24
 1288              		@ sp needed
 1289 0064 F081BDE8 		pop	{r4, r5, r6, r7, r8, pc}
 1290              	.LVL148:
 1291              	.L71:
 1292              		.cfi_restore_state
 493:D:/Work/DeviceTester/amazon-freertos/lib/third_party/mbedtls/library\gcm.c **** 
 1293              		.loc 1 493 0 discriminator 3
 1294 0068 0320D8E7 		ldrb	r2, [r8, r3]	@ zero_extendqisi2
 1295 006c 0310D7E7 		ldrb	r1, [r7, r3]	@ zero_extendqisi2
 492:D:/Work/DeviceTester/amazon-freertos/lib/third_party/mbedtls/library\gcm.c ****         diff |= tag[i] ^ check_tag[i];
 1296              		.loc 1 492 0 discriminator 3
 1297 0070 013083E2 		add	r3, r3, #1
 1298              	.LVL149:
 493:D:/Work/DeviceTester/amazon-freertos/lib/third_party/mbedtls/library\gcm.c **** 
 1299              		.loc 1 493 0 discriminator 3
 1300 0074 012022E0 		eor	r2, r2, r1
 1301 0078 020080E1 		orr	r0, r0, r2
 1302              	.LVL150:
 1303              	.L70:
 492:D:/Work/DeviceTester/amazon-freertos/lib/third_party/mbedtls/library\gcm.c ****         diff |= tag[i] ^ check_tag[i];
 1304              		.loc 1 492 0 discriminator 1
 1305 007c 060053E1 		cmp	r3, r6
 1306 0080 F8FFFF1A 		bne	.L71
 495:D:/Work/DeviceTester/amazon-freertos/lib/third_party/mbedtls/library\gcm.c ****     {
 1307              		.loc 1 495 0
 1308 0084 000050E3 		cmp	r0, #0
 1309 0088 F4FFFF0A 		beq	.L68
 497:D:/Work/DeviceTester/amazon-freertos/lib/third_party/mbedtls/library\gcm.c ****         return( MBEDTLS_ERR_GCM_AUTH_FAILED );
 1310              		.loc 1 497 0
 1311 008c 0400A0E1 		mov	r0, r4
 1312              	.LVL151:
 1313 0090 0510A0E1 		mov	r1, r5
 1314 0094 FEFFFFEB 		bl	mbedtls_platform_zeroize
 1315              	.LVL152:
 498:D:/Work/DeviceTester/amazon-freertos/lib/third_party/mbedtls/library\gcm.c ****     }
 1316              		.loc 1 498 0
 1317 0098 1100E0E3 		mvn	r0, #17
 1318 009c EFFFFFEA 		b	.L68
 1319              		.cfi_endproc
 1320              	.LFE16:
 1322              		.section	.text.mbedtls_gcm_free,"ax",%progbits
 1323              		.align	2
 1324              		.global	mbedtls_gcm_free
 1325              		.syntax unified
 1326              		.arm
 1327              		.fpu neon
 1329              	mbedtls_gcm_free:
 1330              	.LFB17:
 503:D:/Work/DeviceTester/amazon-freertos/lib/third_party/mbedtls/library\gcm.c **** 
 504:D:/Work/DeviceTester/amazon-freertos/lib/third_party/mbedtls/library\gcm.c **** void mbedtls_gcm_free( mbedtls_gcm_context *ctx )
 505:D:/Work/DeviceTester/amazon-freertos/lib/third_party/mbedtls/library\gcm.c **** {
 1331              		.loc 1 505 0
 1332              		.cfi_startproc
 1333              		@ args = 0, pretend = 0, frame = 0
 1334              		@ frame_needed = 0, uses_anonymous_args = 0
 1335              	.LVL153:
 1336 0000 10402DE9 		push	{r4, lr}
 1337              		.cfi_def_cfa_offset 8
 1338              		.cfi_offset 4, -8
 1339              		.cfi_offset 14, -4
 1340              		.loc 1 505 0
 1341 0004 0040A0E1 		mov	r4, r0
 506:D:/Work/DeviceTester/amazon-freertos/lib/third_party/mbedtls/library\gcm.c ****     mbedtls_cipher_free( &ctx->cipher_ctx );
 1342              		.loc 1 506 0
 1343 0008 FEFFFFEB 		bl	mbedtls_cipher_free
 1344              	.LVL154:
 507:D:/Work/DeviceTester/amazon-freertos/lib/third_party/mbedtls/library\gcm.c ****     mbedtls_platform_zeroize( ctx, sizeof( mbedtls_gcm_context ) );
 1345              		.loc 1 507 0
 1346 000c 0400A0E1 		mov	r0, r4
 1347 0010 621FA0E3 		mov	r1, #392
 508:D:/Work/DeviceTester/amazon-freertos/lib/third_party/mbedtls/library\gcm.c **** }
 1348              		.loc 1 508 0
 1349 0014 1040BDE8 		pop	{r4, lr}
 1350              		.cfi_restore 14
 1351              		.cfi_restore 4
 1352              		.cfi_def_cfa_offset 0
 1353              	.LVL155:
 507:D:/Work/DeviceTester/amazon-freertos/lib/third_party/mbedtls/library\gcm.c ****     mbedtls_platform_zeroize( ctx, sizeof( mbedtls_gcm_context ) );
 1354              		.loc 1 507 0
 1355 0018 FEFFFFEA 		b	mbedtls_platform_zeroize
 1356              	.LVL156:
 1357              		.cfi_endproc
 1358              	.LFE17:
 1360              		.section	.text.mbedtls_gcm_self_test,"ax",%progbits
 1361              		.align	2
 1362              		.global	mbedtls_gcm_self_test
 1363              		.syntax unified
 1364              		.arm
 1365              		.fpu neon
 1367              	mbedtls_gcm_self_test:
 1368              	.LFB18:
 509:D:/Work/DeviceTester/amazon-freertos/lib/third_party/mbedtls/library\gcm.c **** 
 510:D:/Work/DeviceTester/amazon-freertos/lib/third_party/mbedtls/library\gcm.c **** #endif /* !MBEDTLS_GCM_ALT */
 511:D:/Work/DeviceTester/amazon-freertos/lib/third_party/mbedtls/library\gcm.c **** 
 512:D:/Work/DeviceTester/amazon-freertos/lib/third_party/mbedtls/library\gcm.c **** #if defined(MBEDTLS_SELF_TEST) && defined(MBEDTLS_AES_C)
 513:D:/Work/DeviceTester/amazon-freertos/lib/third_party/mbedtls/library\gcm.c **** /*
 514:D:/Work/DeviceTester/amazon-freertos/lib/third_party/mbedtls/library\gcm.c ****  * AES-GCM test vectors from:
 515:D:/Work/DeviceTester/amazon-freertos/lib/third_party/mbedtls/library\gcm.c ****  *
 516:D:/Work/DeviceTester/amazon-freertos/lib/third_party/mbedtls/library\gcm.c ****  * http://csrc.nist.gov/groups/STM/cavp/documents/mac/gcmtestvectors.zip
 517:D:/Work/DeviceTester/amazon-freertos/lib/third_party/mbedtls/library\gcm.c ****  */
 518:D:/Work/DeviceTester/amazon-freertos/lib/third_party/mbedtls/library\gcm.c **** #define MAX_TESTS   6
 519:D:/Work/DeviceTester/amazon-freertos/lib/third_party/mbedtls/library\gcm.c **** 
 520:D:/Work/DeviceTester/amazon-freertos/lib/third_party/mbedtls/library\gcm.c **** static const int key_index[MAX_TESTS] =
 521:D:/Work/DeviceTester/amazon-freertos/lib/third_party/mbedtls/library\gcm.c ****     { 0, 0, 1, 1, 1, 1 };
 522:D:/Work/DeviceTester/amazon-freertos/lib/third_party/mbedtls/library\gcm.c **** 
 523:D:/Work/DeviceTester/amazon-freertos/lib/third_party/mbedtls/library\gcm.c **** static const unsigned char key[MAX_TESTS][32] =
 524:D:/Work/DeviceTester/amazon-freertos/lib/third_party/mbedtls/library\gcm.c **** {
 525:D:/Work/DeviceTester/amazon-freertos/lib/third_party/mbedtls/library\gcm.c ****     { 0x00, 0x00, 0x00, 0x00, 0x00, 0x00, 0x00, 0x00,
 526:D:/Work/DeviceTester/amazon-freertos/lib/third_party/mbedtls/library\gcm.c ****       0x00, 0x00, 0x00, 0x00, 0x00, 0x00, 0x00, 0x00,
 527:D:/Work/DeviceTester/amazon-freertos/lib/third_party/mbedtls/library\gcm.c ****       0x00, 0x00, 0x00, 0x00, 0x00, 0x00, 0x00, 0x00,
 528:D:/Work/DeviceTester/amazon-freertos/lib/third_party/mbedtls/library\gcm.c ****       0x00, 0x00, 0x00, 0x00, 0x00, 0x00, 0x00, 0x00 },
 529:D:/Work/DeviceTester/amazon-freertos/lib/third_party/mbedtls/library\gcm.c ****     { 0xfe, 0xff, 0xe9, 0x92, 0x86, 0x65, 0x73, 0x1c,
 530:D:/Work/DeviceTester/amazon-freertos/lib/third_party/mbedtls/library\gcm.c ****       0x6d, 0x6a, 0x8f, 0x94, 0x67, 0x30, 0x83, 0x08,
 531:D:/Work/DeviceTester/amazon-freertos/lib/third_party/mbedtls/library\gcm.c ****       0xfe, 0xff, 0xe9, 0x92, 0x86, 0x65, 0x73, 0x1c,
 532:D:/Work/DeviceTester/amazon-freertos/lib/third_party/mbedtls/library\gcm.c ****       0x6d, 0x6a, 0x8f, 0x94, 0x67, 0x30, 0x83, 0x08 },
 533:D:/Work/DeviceTester/amazon-freertos/lib/third_party/mbedtls/library\gcm.c **** };
 534:D:/Work/DeviceTester/amazon-freertos/lib/third_party/mbedtls/library\gcm.c **** 
 535:D:/Work/DeviceTester/amazon-freertos/lib/third_party/mbedtls/library\gcm.c **** static const size_t iv_len[MAX_TESTS] =
 536:D:/Work/DeviceTester/amazon-freertos/lib/third_party/mbedtls/library\gcm.c ****     { 12, 12, 12, 12, 8, 60 };
 537:D:/Work/DeviceTester/amazon-freertos/lib/third_party/mbedtls/library\gcm.c **** 
 538:D:/Work/DeviceTester/amazon-freertos/lib/third_party/mbedtls/library\gcm.c **** static const int iv_index[MAX_TESTS] =
 539:D:/Work/DeviceTester/amazon-freertos/lib/third_party/mbedtls/library\gcm.c ****     { 0, 0, 1, 1, 1, 2 };
 540:D:/Work/DeviceTester/amazon-freertos/lib/third_party/mbedtls/library\gcm.c **** 
 541:D:/Work/DeviceTester/amazon-freertos/lib/third_party/mbedtls/library\gcm.c **** static const unsigned char iv[MAX_TESTS][64] =
 542:D:/Work/DeviceTester/amazon-freertos/lib/third_party/mbedtls/library\gcm.c **** {
 543:D:/Work/DeviceTester/amazon-freertos/lib/third_party/mbedtls/library\gcm.c ****     { 0x00, 0x00, 0x00, 0x00, 0x00, 0x00, 0x00, 0x00,
 544:D:/Work/DeviceTester/amazon-freertos/lib/third_party/mbedtls/library\gcm.c ****       0x00, 0x00, 0x00, 0x00 },
 545:D:/Work/DeviceTester/amazon-freertos/lib/third_party/mbedtls/library\gcm.c ****     { 0xca, 0xfe, 0xba, 0xbe, 0xfa, 0xce, 0xdb, 0xad,
 546:D:/Work/DeviceTester/amazon-freertos/lib/third_party/mbedtls/library\gcm.c ****       0xde, 0xca, 0xf8, 0x88 },
 547:D:/Work/DeviceTester/amazon-freertos/lib/third_party/mbedtls/library\gcm.c ****     { 0x93, 0x13, 0x22, 0x5d, 0xf8, 0x84, 0x06, 0xe5,
 548:D:/Work/DeviceTester/amazon-freertos/lib/third_party/mbedtls/library\gcm.c ****       0x55, 0x90, 0x9c, 0x5a, 0xff, 0x52, 0x69, 0xaa,
 549:D:/Work/DeviceTester/amazon-freertos/lib/third_party/mbedtls/library\gcm.c ****       0x6a, 0x7a, 0x95, 0x38, 0x53, 0x4f, 0x7d, 0xa1,
 550:D:/Work/DeviceTester/amazon-freertos/lib/third_party/mbedtls/library\gcm.c ****       0xe4, 0xc3, 0x03, 0xd2, 0xa3, 0x18, 0xa7, 0x28,
 551:D:/Work/DeviceTester/amazon-freertos/lib/third_party/mbedtls/library\gcm.c ****       0xc3, 0xc0, 0xc9, 0x51, 0x56, 0x80, 0x95, 0x39,
 552:D:/Work/DeviceTester/amazon-freertos/lib/third_party/mbedtls/library\gcm.c ****       0xfc, 0xf0, 0xe2, 0x42, 0x9a, 0x6b, 0x52, 0x54,
 553:D:/Work/DeviceTester/amazon-freertos/lib/third_party/mbedtls/library\gcm.c ****       0x16, 0xae, 0xdb, 0xf5, 0xa0, 0xde, 0x6a, 0x57,
 554:D:/Work/DeviceTester/amazon-freertos/lib/third_party/mbedtls/library\gcm.c ****       0xa6, 0x37, 0xb3, 0x9b },
 555:D:/Work/DeviceTester/amazon-freertos/lib/third_party/mbedtls/library\gcm.c **** };
 556:D:/Work/DeviceTester/amazon-freertos/lib/third_party/mbedtls/library\gcm.c **** 
 557:D:/Work/DeviceTester/amazon-freertos/lib/third_party/mbedtls/library\gcm.c **** static const size_t add_len[MAX_TESTS] =
 558:D:/Work/DeviceTester/amazon-freertos/lib/third_party/mbedtls/library\gcm.c ****     { 0, 0, 0, 20, 20, 20 };
 559:D:/Work/DeviceTester/amazon-freertos/lib/third_party/mbedtls/library\gcm.c **** 
 560:D:/Work/DeviceTester/amazon-freertos/lib/third_party/mbedtls/library\gcm.c **** static const int add_index[MAX_TESTS] =
 561:D:/Work/DeviceTester/amazon-freertos/lib/third_party/mbedtls/library\gcm.c ****     { 0, 0, 0, 1, 1, 1 };
 562:D:/Work/DeviceTester/amazon-freertos/lib/third_party/mbedtls/library\gcm.c **** 
 563:D:/Work/DeviceTester/amazon-freertos/lib/third_party/mbedtls/library\gcm.c **** static const unsigned char additional[MAX_TESTS][64] =
 564:D:/Work/DeviceTester/amazon-freertos/lib/third_party/mbedtls/library\gcm.c **** {
 565:D:/Work/DeviceTester/amazon-freertos/lib/third_party/mbedtls/library\gcm.c ****     { 0x00 },
 566:D:/Work/DeviceTester/amazon-freertos/lib/third_party/mbedtls/library\gcm.c ****     { 0xfe, 0xed, 0xfa, 0xce, 0xde, 0xad, 0xbe, 0xef,
 567:D:/Work/DeviceTester/amazon-freertos/lib/third_party/mbedtls/library\gcm.c ****       0xfe, 0xed, 0xfa, 0xce, 0xde, 0xad, 0xbe, 0xef,
 568:D:/Work/DeviceTester/amazon-freertos/lib/third_party/mbedtls/library\gcm.c ****       0xab, 0xad, 0xda, 0xd2 },
 569:D:/Work/DeviceTester/amazon-freertos/lib/third_party/mbedtls/library\gcm.c **** };
 570:D:/Work/DeviceTester/amazon-freertos/lib/third_party/mbedtls/library\gcm.c **** 
 571:D:/Work/DeviceTester/amazon-freertos/lib/third_party/mbedtls/library\gcm.c **** static const size_t pt_len[MAX_TESTS] =
 572:D:/Work/DeviceTester/amazon-freertos/lib/third_party/mbedtls/library\gcm.c ****     { 0, 16, 64, 60, 60, 60 };
 573:D:/Work/DeviceTester/amazon-freertos/lib/third_party/mbedtls/library\gcm.c **** 
 574:D:/Work/DeviceTester/amazon-freertos/lib/third_party/mbedtls/library\gcm.c **** static const int pt_index[MAX_TESTS] =
 575:D:/Work/DeviceTester/amazon-freertos/lib/third_party/mbedtls/library\gcm.c ****     { 0, 0, 1, 1, 1, 1 };
 576:D:/Work/DeviceTester/amazon-freertos/lib/third_party/mbedtls/library\gcm.c **** 
 577:D:/Work/DeviceTester/amazon-freertos/lib/third_party/mbedtls/library\gcm.c **** static const unsigned char pt[MAX_TESTS][64] =
 578:D:/Work/DeviceTester/amazon-freertos/lib/third_party/mbedtls/library\gcm.c **** {
 579:D:/Work/DeviceTester/amazon-freertos/lib/third_party/mbedtls/library\gcm.c ****     { 0x00, 0x00, 0x00, 0x00, 0x00, 0x00, 0x00, 0x00,
 580:D:/Work/DeviceTester/amazon-freertos/lib/third_party/mbedtls/library\gcm.c ****       0x00, 0x00, 0x00, 0x00, 0x00, 0x00, 0x00, 0x00 },
 581:D:/Work/DeviceTester/amazon-freertos/lib/third_party/mbedtls/library\gcm.c ****     { 0xd9, 0x31, 0x32, 0x25, 0xf8, 0x84, 0x06, 0xe5,
 582:D:/Work/DeviceTester/amazon-freertos/lib/third_party/mbedtls/library\gcm.c ****       0xa5, 0x59, 0x09, 0xc5, 0xaf, 0xf5, 0x26, 0x9a,
 583:D:/Work/DeviceTester/amazon-freertos/lib/third_party/mbedtls/library\gcm.c ****       0x86, 0xa7, 0xa9, 0x53, 0x15, 0x34, 0xf7, 0xda,
 584:D:/Work/DeviceTester/amazon-freertos/lib/third_party/mbedtls/library\gcm.c ****       0x2e, 0x4c, 0x30, 0x3d, 0x8a, 0x31, 0x8a, 0x72,
 585:D:/Work/DeviceTester/amazon-freertos/lib/third_party/mbedtls/library\gcm.c ****       0x1c, 0x3c, 0x0c, 0x95, 0x95, 0x68, 0x09, 0x53,
 586:D:/Work/DeviceTester/amazon-freertos/lib/third_party/mbedtls/library\gcm.c ****       0x2f, 0xcf, 0x0e, 0x24, 0x49, 0xa6, 0xb5, 0x25,
 587:D:/Work/DeviceTester/amazon-freertos/lib/third_party/mbedtls/library\gcm.c ****       0xb1, 0x6a, 0xed, 0xf5, 0xaa, 0x0d, 0xe6, 0x57,
 588:D:/Work/DeviceTester/amazon-freertos/lib/third_party/mbedtls/library\gcm.c ****       0xba, 0x63, 0x7b, 0x39, 0x1a, 0xaf, 0xd2, 0x55 },
 589:D:/Work/DeviceTester/amazon-freertos/lib/third_party/mbedtls/library\gcm.c **** };
 590:D:/Work/DeviceTester/amazon-freertos/lib/third_party/mbedtls/library\gcm.c **** 
 591:D:/Work/DeviceTester/amazon-freertos/lib/third_party/mbedtls/library\gcm.c **** static const unsigned char ct[MAX_TESTS * 3][64] =
 592:D:/Work/DeviceTester/amazon-freertos/lib/third_party/mbedtls/library\gcm.c **** {
 593:D:/Work/DeviceTester/amazon-freertos/lib/third_party/mbedtls/library\gcm.c ****     { 0x00 },
 594:D:/Work/DeviceTester/amazon-freertos/lib/third_party/mbedtls/library\gcm.c ****     { 0x03, 0x88, 0xda, 0xce, 0x60, 0xb6, 0xa3, 0x92,
 595:D:/Work/DeviceTester/amazon-freertos/lib/third_party/mbedtls/library\gcm.c ****       0xf3, 0x28, 0xc2, 0xb9, 0x71, 0xb2, 0xfe, 0x78 },
 596:D:/Work/DeviceTester/amazon-freertos/lib/third_party/mbedtls/library\gcm.c ****     { 0x42, 0x83, 0x1e, 0xc2, 0x21, 0x77, 0x74, 0x24,
 597:D:/Work/DeviceTester/amazon-freertos/lib/third_party/mbedtls/library\gcm.c ****       0x4b, 0x72, 0x21, 0xb7, 0x84, 0xd0, 0xd4, 0x9c,
 598:D:/Work/DeviceTester/amazon-freertos/lib/third_party/mbedtls/library\gcm.c ****       0xe3, 0xaa, 0x21, 0x2f, 0x2c, 0x02, 0xa4, 0xe0,
 599:D:/Work/DeviceTester/amazon-freertos/lib/third_party/mbedtls/library\gcm.c ****       0x35, 0xc1, 0x7e, 0x23, 0x29, 0xac, 0xa1, 0x2e,
 600:D:/Work/DeviceTester/amazon-freertos/lib/third_party/mbedtls/library\gcm.c ****       0x21, 0xd5, 0x14, 0xb2, 0x54, 0x66, 0x93, 0x1c,
 601:D:/Work/DeviceTester/amazon-freertos/lib/third_party/mbedtls/library\gcm.c ****       0x7d, 0x8f, 0x6a, 0x5a, 0xac, 0x84, 0xaa, 0x05,
 602:D:/Work/DeviceTester/amazon-freertos/lib/third_party/mbedtls/library\gcm.c ****       0x1b, 0xa3, 0x0b, 0x39, 0x6a, 0x0a, 0xac, 0x97,
 603:D:/Work/DeviceTester/amazon-freertos/lib/third_party/mbedtls/library\gcm.c ****       0x3d, 0x58, 0xe0, 0x91, 0x47, 0x3f, 0x59, 0x85 },
 604:D:/Work/DeviceTester/amazon-freertos/lib/third_party/mbedtls/library\gcm.c ****     { 0x42, 0x83, 0x1e, 0xc2, 0x21, 0x77, 0x74, 0x24,
 605:D:/Work/DeviceTester/amazon-freertos/lib/third_party/mbedtls/library\gcm.c ****       0x4b, 0x72, 0x21, 0xb7, 0x84, 0xd0, 0xd4, 0x9c,
 606:D:/Work/DeviceTester/amazon-freertos/lib/third_party/mbedtls/library\gcm.c ****       0xe3, 0xaa, 0x21, 0x2f, 0x2c, 0x02, 0xa4, 0xe0,
 607:D:/Work/DeviceTester/amazon-freertos/lib/third_party/mbedtls/library\gcm.c ****       0x35, 0xc1, 0x7e, 0x23, 0x29, 0xac, 0xa1, 0x2e,
 608:D:/Work/DeviceTester/amazon-freertos/lib/third_party/mbedtls/library\gcm.c ****       0x21, 0xd5, 0x14, 0xb2, 0x54, 0x66, 0x93, 0x1c,
 609:D:/Work/DeviceTester/amazon-freertos/lib/third_party/mbedtls/library\gcm.c ****       0x7d, 0x8f, 0x6a, 0x5a, 0xac, 0x84, 0xaa, 0x05,
 610:D:/Work/DeviceTester/amazon-freertos/lib/third_party/mbedtls/library\gcm.c ****       0x1b, 0xa3, 0x0b, 0x39, 0x6a, 0x0a, 0xac, 0x97,
 611:D:/Work/DeviceTester/amazon-freertos/lib/third_party/mbedtls/library\gcm.c ****       0x3d, 0x58, 0xe0, 0x91 },
 612:D:/Work/DeviceTester/amazon-freertos/lib/third_party/mbedtls/library\gcm.c ****     { 0x61, 0x35, 0x3b, 0x4c, 0x28, 0x06, 0x93, 0x4a,
 613:D:/Work/DeviceTester/amazon-freertos/lib/third_party/mbedtls/library\gcm.c ****       0x77, 0x7f, 0xf5, 0x1f, 0xa2, 0x2a, 0x47, 0x55,
 614:D:/Work/DeviceTester/amazon-freertos/lib/third_party/mbedtls/library\gcm.c ****       0x69, 0x9b, 0x2a, 0x71, 0x4f, 0xcd, 0xc6, 0xf8,
 615:D:/Work/DeviceTester/amazon-freertos/lib/third_party/mbedtls/library\gcm.c ****       0x37, 0x66, 0xe5, 0xf9, 0x7b, 0x6c, 0x74, 0x23,
 616:D:/Work/DeviceTester/amazon-freertos/lib/third_party/mbedtls/library\gcm.c ****       0x73, 0x80, 0x69, 0x00, 0xe4, 0x9f, 0x24, 0xb2,
 617:D:/Work/DeviceTester/amazon-freertos/lib/third_party/mbedtls/library\gcm.c ****       0x2b, 0x09, 0x75, 0x44, 0xd4, 0x89, 0x6b, 0x42,
 618:D:/Work/DeviceTester/amazon-freertos/lib/third_party/mbedtls/library\gcm.c ****       0x49, 0x89, 0xb5, 0xe1, 0xeb, 0xac, 0x0f, 0x07,
 619:D:/Work/DeviceTester/amazon-freertos/lib/third_party/mbedtls/library\gcm.c ****       0xc2, 0x3f, 0x45, 0x98 },
 620:D:/Work/DeviceTester/amazon-freertos/lib/third_party/mbedtls/library\gcm.c ****     { 0x8c, 0xe2, 0x49, 0x98, 0x62, 0x56, 0x15, 0xb6,
 621:D:/Work/DeviceTester/amazon-freertos/lib/third_party/mbedtls/library\gcm.c ****       0x03, 0xa0, 0x33, 0xac, 0xa1, 0x3f, 0xb8, 0x94,
 622:D:/Work/DeviceTester/amazon-freertos/lib/third_party/mbedtls/library\gcm.c ****       0xbe, 0x91, 0x12, 0xa5, 0xc3, 0xa2, 0x11, 0xa8,
 623:D:/Work/DeviceTester/amazon-freertos/lib/third_party/mbedtls/library\gcm.c ****       0xba, 0x26, 0x2a, 0x3c, 0xca, 0x7e, 0x2c, 0xa7,
 624:D:/Work/DeviceTester/amazon-freertos/lib/third_party/mbedtls/library\gcm.c ****       0x01, 0xe4, 0xa9, 0xa4, 0xfb, 0xa4, 0x3c, 0x90,
 625:D:/Work/DeviceTester/amazon-freertos/lib/third_party/mbedtls/library\gcm.c ****       0xcc, 0xdc, 0xb2, 0x81, 0xd4, 0x8c, 0x7c, 0x6f,
 626:D:/Work/DeviceTester/amazon-freertos/lib/third_party/mbedtls/library\gcm.c ****       0xd6, 0x28, 0x75, 0xd2, 0xac, 0xa4, 0x17, 0x03,
 627:D:/Work/DeviceTester/amazon-freertos/lib/third_party/mbedtls/library\gcm.c ****       0x4c, 0x34, 0xae, 0xe5 },
 628:D:/Work/DeviceTester/amazon-freertos/lib/third_party/mbedtls/library\gcm.c ****     { 0x00 },
 629:D:/Work/DeviceTester/amazon-freertos/lib/third_party/mbedtls/library\gcm.c ****     { 0x98, 0xe7, 0x24, 0x7c, 0x07, 0xf0, 0xfe, 0x41,
 630:D:/Work/DeviceTester/amazon-freertos/lib/third_party/mbedtls/library\gcm.c ****       0x1c, 0x26, 0x7e, 0x43, 0x84, 0xb0, 0xf6, 0x00 },
 631:D:/Work/DeviceTester/amazon-freertos/lib/third_party/mbedtls/library\gcm.c ****     { 0x39, 0x80, 0xca, 0x0b, 0x3c, 0x00, 0xe8, 0x41,
 632:D:/Work/DeviceTester/amazon-freertos/lib/third_party/mbedtls/library\gcm.c ****       0xeb, 0x06, 0xfa, 0xc4, 0x87, 0x2a, 0x27, 0x57,
 633:D:/Work/DeviceTester/amazon-freertos/lib/third_party/mbedtls/library\gcm.c ****       0x85, 0x9e, 0x1c, 0xea, 0xa6, 0xef, 0xd9, 0x84,
 634:D:/Work/DeviceTester/amazon-freertos/lib/third_party/mbedtls/library\gcm.c ****       0x62, 0x85, 0x93, 0xb4, 0x0c, 0xa1, 0xe1, 0x9c,
 635:D:/Work/DeviceTester/amazon-freertos/lib/third_party/mbedtls/library\gcm.c ****       0x7d, 0x77, 0x3d, 0x00, 0xc1, 0x44, 0xc5, 0x25,
 636:D:/Work/DeviceTester/amazon-freertos/lib/third_party/mbedtls/library\gcm.c ****       0xac, 0x61, 0x9d, 0x18, 0xc8, 0x4a, 0x3f, 0x47,
 637:D:/Work/DeviceTester/amazon-freertos/lib/third_party/mbedtls/library\gcm.c ****       0x18, 0xe2, 0x44, 0x8b, 0x2f, 0xe3, 0x24, 0xd9,
 638:D:/Work/DeviceTester/amazon-freertos/lib/third_party/mbedtls/library\gcm.c ****       0xcc, 0xda, 0x27, 0x10, 0xac, 0xad, 0xe2, 0x56 },
 639:D:/Work/DeviceTester/amazon-freertos/lib/third_party/mbedtls/library\gcm.c ****     { 0x39, 0x80, 0xca, 0x0b, 0x3c, 0x00, 0xe8, 0x41,
 640:D:/Work/DeviceTester/amazon-freertos/lib/third_party/mbedtls/library\gcm.c ****       0xeb, 0x06, 0xfa, 0xc4, 0x87, 0x2a, 0x27, 0x57,
 641:D:/Work/DeviceTester/amazon-freertos/lib/third_party/mbedtls/library\gcm.c ****       0x85, 0x9e, 0x1c, 0xea, 0xa6, 0xef, 0xd9, 0x84,
 642:D:/Work/DeviceTester/amazon-freertos/lib/third_party/mbedtls/library\gcm.c ****       0x62, 0x85, 0x93, 0xb4, 0x0c, 0xa1, 0xe1, 0x9c,
 643:D:/Work/DeviceTester/amazon-freertos/lib/third_party/mbedtls/library\gcm.c ****       0x7d, 0x77, 0x3d, 0x00, 0xc1, 0x44, 0xc5, 0x25,
 644:D:/Work/DeviceTester/amazon-freertos/lib/third_party/mbedtls/library\gcm.c ****       0xac, 0x61, 0x9d, 0x18, 0xc8, 0x4a, 0x3f, 0x47,
 645:D:/Work/DeviceTester/amazon-freertos/lib/third_party/mbedtls/library\gcm.c ****       0x18, 0xe2, 0x44, 0x8b, 0x2f, 0xe3, 0x24, 0xd9,
 646:D:/Work/DeviceTester/amazon-freertos/lib/third_party/mbedtls/library\gcm.c ****       0xcc, 0xda, 0x27, 0x10 },
 647:D:/Work/DeviceTester/amazon-freertos/lib/third_party/mbedtls/library\gcm.c ****     { 0x0f, 0x10, 0xf5, 0x99, 0xae, 0x14, 0xa1, 0x54,
 648:D:/Work/DeviceTester/amazon-freertos/lib/third_party/mbedtls/library\gcm.c ****       0xed, 0x24, 0xb3, 0x6e, 0x25, 0x32, 0x4d, 0xb8,
 649:D:/Work/DeviceTester/amazon-freertos/lib/third_party/mbedtls/library\gcm.c ****       0xc5, 0x66, 0x63, 0x2e, 0xf2, 0xbb, 0xb3, 0x4f,
 650:D:/Work/DeviceTester/amazon-freertos/lib/third_party/mbedtls/library\gcm.c ****       0x83, 0x47, 0x28, 0x0f, 0xc4, 0x50, 0x70, 0x57,
 651:D:/Work/DeviceTester/amazon-freertos/lib/third_party/mbedtls/library\gcm.c ****       0xfd, 0xdc, 0x29, 0xdf, 0x9a, 0x47, 0x1f, 0x75,
 652:D:/Work/DeviceTester/amazon-freertos/lib/third_party/mbedtls/library\gcm.c ****       0xc6, 0x65, 0x41, 0xd4, 0xd4, 0xda, 0xd1, 0xc9,
 653:D:/Work/DeviceTester/amazon-freertos/lib/third_party/mbedtls/library\gcm.c ****       0xe9, 0x3a, 0x19, 0xa5, 0x8e, 0x8b, 0x47, 0x3f,
 654:D:/Work/DeviceTester/amazon-freertos/lib/third_party/mbedtls/library\gcm.c ****       0xa0, 0xf0, 0x62, 0xf7 },
 655:D:/Work/DeviceTester/amazon-freertos/lib/third_party/mbedtls/library\gcm.c ****     { 0xd2, 0x7e, 0x88, 0x68, 0x1c, 0xe3, 0x24, 0x3c,
 656:D:/Work/DeviceTester/amazon-freertos/lib/third_party/mbedtls/library\gcm.c ****       0x48, 0x30, 0x16, 0x5a, 0x8f, 0xdc, 0xf9, 0xff,
 657:D:/Work/DeviceTester/amazon-freertos/lib/third_party/mbedtls/library\gcm.c ****       0x1d, 0xe9, 0xa1, 0xd8, 0xe6, 0xb4, 0x47, 0xef,
 658:D:/Work/DeviceTester/amazon-freertos/lib/third_party/mbedtls/library\gcm.c ****       0x6e, 0xf7, 0xb7, 0x98, 0x28, 0x66, 0x6e, 0x45,
 659:D:/Work/DeviceTester/amazon-freertos/lib/third_party/mbedtls/library\gcm.c ****       0x81, 0xe7, 0x90, 0x12, 0xaf, 0x34, 0xdd, 0xd9,
 660:D:/Work/DeviceTester/amazon-freertos/lib/third_party/mbedtls/library\gcm.c ****       0xe2, 0xf0, 0x37, 0x58, 0x9b, 0x29, 0x2d, 0xb3,
 661:D:/Work/DeviceTester/amazon-freertos/lib/third_party/mbedtls/library\gcm.c ****       0xe6, 0x7c, 0x03, 0x67, 0x45, 0xfa, 0x22, 0xe7,
 662:D:/Work/DeviceTester/amazon-freertos/lib/third_party/mbedtls/library\gcm.c ****       0xe9, 0xb7, 0x37, 0x3b },
 663:D:/Work/DeviceTester/amazon-freertos/lib/third_party/mbedtls/library\gcm.c ****     { 0x00 },
 664:D:/Work/DeviceTester/amazon-freertos/lib/third_party/mbedtls/library\gcm.c ****     { 0xce, 0xa7, 0x40, 0x3d, 0x4d, 0x60, 0x6b, 0x6e,
 665:D:/Work/DeviceTester/amazon-freertos/lib/third_party/mbedtls/library\gcm.c ****       0x07, 0x4e, 0xc5, 0xd3, 0xba, 0xf3, 0x9d, 0x18 },
 666:D:/Work/DeviceTester/amazon-freertos/lib/third_party/mbedtls/library\gcm.c ****     { 0x52, 0x2d, 0xc1, 0xf0, 0x99, 0x56, 0x7d, 0x07,
 667:D:/Work/DeviceTester/amazon-freertos/lib/third_party/mbedtls/library\gcm.c ****       0xf4, 0x7f, 0x37, 0xa3, 0x2a, 0x84, 0x42, 0x7d,
 668:D:/Work/DeviceTester/amazon-freertos/lib/third_party/mbedtls/library\gcm.c ****       0x64, 0x3a, 0x8c, 0xdc, 0xbf, 0xe5, 0xc0, 0xc9,
 669:D:/Work/DeviceTester/amazon-freertos/lib/third_party/mbedtls/library\gcm.c ****       0x75, 0x98, 0xa2, 0xbd, 0x25, 0x55, 0xd1, 0xaa,
 670:D:/Work/DeviceTester/amazon-freertos/lib/third_party/mbedtls/library\gcm.c ****       0x8c, 0xb0, 0x8e, 0x48, 0x59, 0x0d, 0xbb, 0x3d,
 671:D:/Work/DeviceTester/amazon-freertos/lib/third_party/mbedtls/library\gcm.c ****       0xa7, 0xb0, 0x8b, 0x10, 0x56, 0x82, 0x88, 0x38,
 672:D:/Work/DeviceTester/amazon-freertos/lib/third_party/mbedtls/library\gcm.c ****       0xc5, 0xf6, 0x1e, 0x63, 0x93, 0xba, 0x7a, 0x0a,
 673:D:/Work/DeviceTester/amazon-freertos/lib/third_party/mbedtls/library\gcm.c ****       0xbc, 0xc9, 0xf6, 0x62, 0x89, 0x80, 0x15, 0xad },
 674:D:/Work/DeviceTester/amazon-freertos/lib/third_party/mbedtls/library\gcm.c ****     { 0x52, 0x2d, 0xc1, 0xf0, 0x99, 0x56, 0x7d, 0x07,
 675:D:/Work/DeviceTester/amazon-freertos/lib/third_party/mbedtls/library\gcm.c ****       0xf4, 0x7f, 0x37, 0xa3, 0x2a, 0x84, 0x42, 0x7d,
 676:D:/Work/DeviceTester/amazon-freertos/lib/third_party/mbedtls/library\gcm.c ****       0x64, 0x3a, 0x8c, 0xdc, 0xbf, 0xe5, 0xc0, 0xc9,
 677:D:/Work/DeviceTester/amazon-freertos/lib/third_party/mbedtls/library\gcm.c ****       0x75, 0x98, 0xa2, 0xbd, 0x25, 0x55, 0xd1, 0xaa,
 678:D:/Work/DeviceTester/amazon-freertos/lib/third_party/mbedtls/library\gcm.c ****       0x8c, 0xb0, 0x8e, 0x48, 0x59, 0x0d, 0xbb, 0x3d,
 679:D:/Work/DeviceTester/amazon-freertos/lib/third_party/mbedtls/library\gcm.c ****       0xa7, 0xb0, 0x8b, 0x10, 0x56, 0x82, 0x88, 0x38,
 680:D:/Work/DeviceTester/amazon-freertos/lib/third_party/mbedtls/library\gcm.c ****       0xc5, 0xf6, 0x1e, 0x63, 0x93, 0xba, 0x7a, 0x0a,
 681:D:/Work/DeviceTester/amazon-freertos/lib/third_party/mbedtls/library\gcm.c ****       0xbc, 0xc9, 0xf6, 0x62 },
 682:D:/Work/DeviceTester/amazon-freertos/lib/third_party/mbedtls/library\gcm.c ****     { 0xc3, 0x76, 0x2d, 0xf1, 0xca, 0x78, 0x7d, 0x32,
 683:D:/Work/DeviceTester/amazon-freertos/lib/third_party/mbedtls/library\gcm.c ****       0xae, 0x47, 0xc1, 0x3b, 0xf1, 0x98, 0x44, 0xcb,
 684:D:/Work/DeviceTester/amazon-freertos/lib/third_party/mbedtls/library\gcm.c ****       0xaf, 0x1a, 0xe1, 0x4d, 0x0b, 0x97, 0x6a, 0xfa,
 685:D:/Work/DeviceTester/amazon-freertos/lib/third_party/mbedtls/library\gcm.c ****       0xc5, 0x2f, 0xf7, 0xd7, 0x9b, 0xba, 0x9d, 0xe0,
 686:D:/Work/DeviceTester/amazon-freertos/lib/third_party/mbedtls/library\gcm.c ****       0xfe, 0xb5, 0x82, 0xd3, 0x39, 0x34, 0xa4, 0xf0,
 687:D:/Work/DeviceTester/amazon-freertos/lib/third_party/mbedtls/library\gcm.c ****       0x95, 0x4c, 0xc2, 0x36, 0x3b, 0xc7, 0x3f, 0x78,
 688:D:/Work/DeviceTester/amazon-freertos/lib/third_party/mbedtls/library\gcm.c ****       0x62, 0xac, 0x43, 0x0e, 0x64, 0xab, 0xe4, 0x99,
 689:D:/Work/DeviceTester/amazon-freertos/lib/third_party/mbedtls/library\gcm.c ****       0xf4, 0x7c, 0x9b, 0x1f },
 690:D:/Work/DeviceTester/amazon-freertos/lib/third_party/mbedtls/library\gcm.c ****     { 0x5a, 0x8d, 0xef, 0x2f, 0x0c, 0x9e, 0x53, 0xf1,
 691:D:/Work/DeviceTester/amazon-freertos/lib/third_party/mbedtls/library\gcm.c ****       0xf7, 0x5d, 0x78, 0x53, 0x65, 0x9e, 0x2a, 0x20,
 692:D:/Work/DeviceTester/amazon-freertos/lib/third_party/mbedtls/library\gcm.c ****       0xee, 0xb2, 0xb2, 0x2a, 0xaf, 0xde, 0x64, 0x19,
 693:D:/Work/DeviceTester/amazon-freertos/lib/third_party/mbedtls/library\gcm.c ****       0xa0, 0x58, 0xab, 0x4f, 0x6f, 0x74, 0x6b, 0xf4,
 694:D:/Work/DeviceTester/amazon-freertos/lib/third_party/mbedtls/library\gcm.c ****       0x0f, 0xc0, 0xc3, 0xb7, 0x80, 0xf2, 0x44, 0x45,
 695:D:/Work/DeviceTester/amazon-freertos/lib/third_party/mbedtls/library\gcm.c ****       0x2d, 0xa3, 0xeb, 0xf1, 0xc5, 0xd8, 0x2c, 0xde,
 696:D:/Work/DeviceTester/amazon-freertos/lib/third_party/mbedtls/library\gcm.c ****       0xa2, 0x41, 0x89, 0x97, 0x20, 0x0e, 0xf8, 0x2e,
 697:D:/Work/DeviceTester/amazon-freertos/lib/third_party/mbedtls/library\gcm.c ****       0x44, 0xae, 0x7e, 0x3f },
 698:D:/Work/DeviceTester/amazon-freertos/lib/third_party/mbedtls/library\gcm.c **** };
 699:D:/Work/DeviceTester/amazon-freertos/lib/third_party/mbedtls/library\gcm.c **** 
 700:D:/Work/DeviceTester/amazon-freertos/lib/third_party/mbedtls/library\gcm.c **** static const unsigned char tag[MAX_TESTS * 3][16] =
 701:D:/Work/DeviceTester/amazon-freertos/lib/third_party/mbedtls/library\gcm.c **** {
 702:D:/Work/DeviceTester/amazon-freertos/lib/third_party/mbedtls/library\gcm.c ****     { 0x58, 0xe2, 0xfc, 0xce, 0xfa, 0x7e, 0x30, 0x61,
 703:D:/Work/DeviceTester/amazon-freertos/lib/third_party/mbedtls/library\gcm.c ****       0x36, 0x7f, 0x1d, 0x57, 0xa4, 0xe7, 0x45, 0x5a },
 704:D:/Work/DeviceTester/amazon-freertos/lib/third_party/mbedtls/library\gcm.c ****     { 0xab, 0x6e, 0x47, 0xd4, 0x2c, 0xec, 0x13, 0xbd,
 705:D:/Work/DeviceTester/amazon-freertos/lib/third_party/mbedtls/library\gcm.c ****       0xf5, 0x3a, 0x67, 0xb2, 0x12, 0x57, 0xbd, 0xdf },
 706:D:/Work/DeviceTester/amazon-freertos/lib/third_party/mbedtls/library\gcm.c ****     { 0x4d, 0x5c, 0x2a, 0xf3, 0x27, 0xcd, 0x64, 0xa6,
 707:D:/Work/DeviceTester/amazon-freertos/lib/third_party/mbedtls/library\gcm.c ****       0x2c, 0xf3, 0x5a, 0xbd, 0x2b, 0xa6, 0xfa, 0xb4 },
 708:D:/Work/DeviceTester/amazon-freertos/lib/third_party/mbedtls/library\gcm.c ****     { 0x5b, 0xc9, 0x4f, 0xbc, 0x32, 0x21, 0xa5, 0xdb,
 709:D:/Work/DeviceTester/amazon-freertos/lib/third_party/mbedtls/library\gcm.c ****       0x94, 0xfa, 0xe9, 0x5a, 0xe7, 0x12, 0x1a, 0x47 },
 710:D:/Work/DeviceTester/amazon-freertos/lib/third_party/mbedtls/library\gcm.c ****     { 0x36, 0x12, 0xd2, 0xe7, 0x9e, 0x3b, 0x07, 0x85,
 711:D:/Work/DeviceTester/amazon-freertos/lib/third_party/mbedtls/library\gcm.c ****       0x56, 0x1b, 0xe1, 0x4a, 0xac, 0xa2, 0xfc, 0xcb },
 712:D:/Work/DeviceTester/amazon-freertos/lib/third_party/mbedtls/library\gcm.c ****     { 0x61, 0x9c, 0xc5, 0xae, 0xff, 0xfe, 0x0b, 0xfa,
 713:D:/Work/DeviceTester/amazon-freertos/lib/third_party/mbedtls/library\gcm.c ****       0x46, 0x2a, 0xf4, 0x3c, 0x16, 0x99, 0xd0, 0x50 },
 714:D:/Work/DeviceTester/amazon-freertos/lib/third_party/mbedtls/library\gcm.c ****     { 0xcd, 0x33, 0xb2, 0x8a, 0xc7, 0x73, 0xf7, 0x4b,
 715:D:/Work/DeviceTester/amazon-freertos/lib/third_party/mbedtls/library\gcm.c ****       0xa0, 0x0e, 0xd1, 0xf3, 0x12, 0x57, 0x24, 0x35 },
 716:D:/Work/DeviceTester/amazon-freertos/lib/third_party/mbedtls/library\gcm.c ****     { 0x2f, 0xf5, 0x8d, 0x80, 0x03, 0x39, 0x27, 0xab,
 717:D:/Work/DeviceTester/amazon-freertos/lib/third_party/mbedtls/library\gcm.c ****       0x8e, 0xf4, 0xd4, 0x58, 0x75, 0x14, 0xf0, 0xfb },
 718:D:/Work/DeviceTester/amazon-freertos/lib/third_party/mbedtls/library\gcm.c ****     { 0x99, 0x24, 0xa7, 0xc8, 0x58, 0x73, 0x36, 0xbf,
 719:D:/Work/DeviceTester/amazon-freertos/lib/third_party/mbedtls/library\gcm.c ****       0xb1, 0x18, 0x02, 0x4d, 0xb8, 0x67, 0x4a, 0x14 },
 720:D:/Work/DeviceTester/amazon-freertos/lib/third_party/mbedtls/library\gcm.c ****     { 0x25, 0x19, 0x49, 0x8e, 0x80, 0xf1, 0x47, 0x8f,
 721:D:/Work/DeviceTester/amazon-freertos/lib/third_party/mbedtls/library\gcm.c ****       0x37, 0xba, 0x55, 0xbd, 0x6d, 0x27, 0x61, 0x8c },
 722:D:/Work/DeviceTester/amazon-freertos/lib/third_party/mbedtls/library\gcm.c ****     { 0x65, 0xdc, 0xc5, 0x7f, 0xcf, 0x62, 0x3a, 0x24,
 723:D:/Work/DeviceTester/amazon-freertos/lib/third_party/mbedtls/library\gcm.c ****       0x09, 0x4f, 0xcc, 0xa4, 0x0d, 0x35, 0x33, 0xf8 },
 724:D:/Work/DeviceTester/amazon-freertos/lib/third_party/mbedtls/library\gcm.c ****     { 0xdc, 0xf5, 0x66, 0xff, 0x29, 0x1c, 0x25, 0xbb,
 725:D:/Work/DeviceTester/amazon-freertos/lib/third_party/mbedtls/library\gcm.c ****       0xb8, 0x56, 0x8f, 0xc3, 0xd3, 0x76, 0xa6, 0xd9 },
 726:D:/Work/DeviceTester/amazon-freertos/lib/third_party/mbedtls/library\gcm.c ****     { 0x53, 0x0f, 0x8a, 0xfb, 0xc7, 0x45, 0x36, 0xb9,
 727:D:/Work/DeviceTester/amazon-freertos/lib/third_party/mbedtls/library\gcm.c ****       0xa9, 0x63, 0xb4, 0xf1, 0xc4, 0xcb, 0x73, 0x8b },
 728:D:/Work/DeviceTester/amazon-freertos/lib/third_party/mbedtls/library\gcm.c ****     { 0xd0, 0xd1, 0xc8, 0xa7, 0x99, 0x99, 0x6b, 0xf0,
 729:D:/Work/DeviceTester/amazon-freertos/lib/third_party/mbedtls/library\gcm.c ****       0x26, 0x5b, 0x98, 0xb5, 0xd4, 0x8a, 0xb9, 0x19 },
 730:D:/Work/DeviceTester/amazon-freertos/lib/third_party/mbedtls/library\gcm.c ****     { 0xb0, 0x94, 0xda, 0xc5, 0xd9, 0x34, 0x71, 0xbd,
 731:D:/Work/DeviceTester/amazon-freertos/lib/third_party/mbedtls/library\gcm.c ****       0xec, 0x1a, 0x50, 0x22, 0x70, 0xe3, 0xcc, 0x6c },
 732:D:/Work/DeviceTester/amazon-freertos/lib/third_party/mbedtls/library\gcm.c ****     { 0x76, 0xfc, 0x6e, 0xce, 0x0f, 0x4e, 0x17, 0x68,
 733:D:/Work/DeviceTester/amazon-freertos/lib/third_party/mbedtls/library\gcm.c ****       0xcd, 0xdf, 0x88, 0x53, 0xbb, 0x2d, 0x55, 0x1b },
 734:D:/Work/DeviceTester/amazon-freertos/lib/third_party/mbedtls/library\gcm.c ****     { 0x3a, 0x33, 0x7d, 0xbf, 0x46, 0xa7, 0x92, 0xc4,
 735:D:/Work/DeviceTester/amazon-freertos/lib/third_party/mbedtls/library\gcm.c ****       0x5e, 0x45, 0x49, 0x13, 0xfe, 0x2e, 0xa8, 0xf2 },
 736:D:/Work/DeviceTester/amazon-freertos/lib/third_party/mbedtls/library\gcm.c ****     { 0xa4, 0x4a, 0x82, 0x66, 0xee, 0x1c, 0x8e, 0xb0,
 737:D:/Work/DeviceTester/amazon-freertos/lib/third_party/mbedtls/library\gcm.c ****       0xc8, 0xb5, 0xd4, 0xcf, 0x5a, 0xe9, 0xf1, 0x9a },
 738:D:/Work/DeviceTester/amazon-freertos/lib/third_party/mbedtls/library\gcm.c **** };
 739:D:/Work/DeviceTester/amazon-freertos/lib/third_party/mbedtls/library\gcm.c **** 
 740:D:/Work/DeviceTester/amazon-freertos/lib/third_party/mbedtls/library\gcm.c **** int mbedtls_gcm_self_test( int verbose )
 741:D:/Work/DeviceTester/amazon-freertos/lib/third_party/mbedtls/library\gcm.c **** {
 1369              		.loc 1 741 0
 1370              		.cfi_startproc
 1371              		@ args = 0, pretend = 0, frame = 512
 1372              		@ frame_needed = 0, uses_anonymous_args = 0
 1373              	.LVL157:
 1374 0000 F04F2DE9 		push	{r4, r5, r6, r7, r8, r9, r10, fp, lr}
 1375              		.cfi_def_cfa_offset 36
 1376              		.cfi_offset 4, -36
 1377              		.cfi_offset 5, -32
 1378              		.cfi_offset 6, -28
 1379              		.cfi_offset 7, -24
 1380              		.cfi_offset 8, -20
 1381              		.cfi_offset 9, -16
 1382              		.cfi_offset 10, -12
 1383              		.cfi_offset 11, -8
 1384              		.cfi_offset 14, -4
 1385 0004 0050A0E1 		mov	r5, r0
 1386 0008 8060A0E3 		mov	r6, #128
 1387 000c 89DF4DE2 		sub	sp, sp, #548
 1388              		.cfi_def_cfa_offset 584
 1389              		.loc 1 741 0
 1390 0010 0030A0E3 		mov	r3, #0
 1391 0014 2C308DE5 		str	r3, [sp, #44]
 1392              	.LVL158:
 1393              	.L99:
 1394 0018 6C359FE5 		ldr	r3, .L138
 1395              	.LBB22:
 742:D:/Work/DeviceTester/amazon-freertos/lib/third_party/mbedtls/library\gcm.c ****     mbedtls_gcm_context ctx;
 743:D:/Work/DeviceTester/amazon-freertos/lib/third_party/mbedtls/library\gcm.c ****     unsigned char buf[64];
 744:D:/Work/DeviceTester/amazon-freertos/lib/third_party/mbedtls/library\gcm.c ****     unsigned char tag_buf[16];
 745:D:/Work/DeviceTester/amazon-freertos/lib/third_party/mbedtls/library\gcm.c ****     int i, j, ret;
 746:D:/Work/DeviceTester/amazon-freertos/lib/third_party/mbedtls/library\gcm.c ****     mbedtls_cipher_id_t cipher = MBEDTLS_CIPHER_ID_AES;
 747:D:/Work/DeviceTester/amazon-freertos/lib/third_party/mbedtls/library\gcm.c **** 
 748:D:/Work/DeviceTester/amazon-freertos/lib/third_party/mbedtls/library\gcm.c ****     for( j = 0; j < 3; j++ )
 749:D:/Work/DeviceTester/amazon-freertos/lib/third_party/mbedtls/library\gcm.c ****     {
 750:D:/Work/DeviceTester/amazon-freertos/lib/third_party/mbedtls/library\gcm.c ****         int key_len = 128 + 64 * j;
 751:D:/Work/DeviceTester/amazon-freertos/lib/third_party/mbedtls/library\gcm.c **** 
 752:D:/Work/DeviceTester/amazon-freertos/lib/third_party/mbedtls/library\gcm.c ****         for( i = 0; i < MAX_TESTS; i++ )
 1396              		.loc 1 752 0
 1397 001c 0070A0E3 		mov	r7, #0
 1398 0020 2C209DE5 		ldr	r2, [sp, #44]
 1399 0024 023383E0 		add	r3, r3, r2, lsl #6
 1400 0028 203083E2 		add	r3, r3, #32
 1401 002c 30308DE5 		str	r3, [sp, #48]
 1402              	.LVL159:
 1403              	.L98:
 753:D:/Work/DeviceTester/amazon-freertos/lib/third_party/mbedtls/library\gcm.c ****         {
 754:D:/Work/DeviceTester/amazon-freertos/lib/third_party/mbedtls/library\gcm.c ****             mbedtls_gcm_init( &ctx );
 1404              		.loc 1 754 0
 1405 0030 98008DE2 		add	r0, sp, #152
 1406 0034 FEFFFFEB 		bl	mbedtls_gcm_init
 1407              	.LVL160:
 755:D:/Work/DeviceTester/amazon-freertos/lib/third_party/mbedtls/library\gcm.c **** 
 756:D:/Work/DeviceTester/amazon-freertos/lib/third_party/mbedtls/library\gcm.c ****             if( verbose != 0 )
 1408              		.loc 1 756 0
 1409 0038 000055E3 		cmp	r5, #0
 1410 003c 0400000A 		beq	.L79
 757:D:/Work/DeviceTester/amazon-freertos/lib/third_party/mbedtls/library\gcm.c ****                 mbedtls_printf( "  AES-GCM-%3d #%d (%s): ",
 1411              		.loc 1 757 0
 1412 0040 48359FE5 		ldr	r3, .L138+4
 1413 0044 0720A0E1 		mov	r2, r7
 1414 0048 0610A0E1 		mov	r1, r6
 1415 004c 40059FE5 		ldr	r0, .L138+8
 1416 0050 FEFFFFEB 		bl	printf
 1417              	.LVL161:
 1418              	.L79:
 758:D:/Work/DeviceTester/amazon-freertos/lib/third_party/mbedtls/library\gcm.c ****                                 key_len, i, "enc" );
 759:D:/Work/DeviceTester/amazon-freertos/lib/third_party/mbedtls/library\gcm.c **** 
 760:D:/Work/DeviceTester/amazon-freertos/lib/third_party/mbedtls/library\gcm.c ****             ret = mbedtls_gcm_setkey( &ctx, cipher, key[key_index[i]],
 1419              		.loc 1 760 0
 1420 0054 3C359FE5 		ldr	r3, .L138+12
 1421 0058 0210A0E3 		mov	r1, #2
 1422 005c 38259FE5 		ldr	r2, .L138+16
 1423 0060 98008DE2 		add	r0, sp, #152
 1424 0064 0741A0E1 		lsl	r4, r7, #2
 1425 0068 073193E7 		ldr	r3, [r3, r7, lsl #2]
 1426 006c 833282E0 		add	r3, r2, r3, lsl #5
 1427 0070 34308DE5 		str	r3, [sp, #52]
 1428 0074 0630A0E1 		mov	r3, r6
 1429 0078 34209DE5 		ldr	r2, [sp, #52]
 1430 007c FEFFFFEB 		bl	mbedtls_gcm_setkey
 1431              	.LVL162:
 761:D:/Work/DeviceTester/amazon-freertos/lib/third_party/mbedtls/library\gcm.c ****                                       key_len );
 762:D:/Work/DeviceTester/amazon-freertos/lib/third_party/mbedtls/library\gcm.c ****             /*
 763:D:/Work/DeviceTester/amazon-freertos/lib/third_party/mbedtls/library\gcm.c ****              * AES-192 is an optional feature that may be unavailable when
 764:D:/Work/DeviceTester/amazon-freertos/lib/third_party/mbedtls/library\gcm.c ****              * there is an alternative underlying implementation i.e. when
 765:D:/Work/DeviceTester/amazon-freertos/lib/third_party/mbedtls/library\gcm.c ****              * MBEDTLS_AES_ALT is defined.
 766:D:/Work/DeviceTester/amazon-freertos/lib/third_party/mbedtls/library\gcm.c ****              */
 767:D:/Work/DeviceTester/amazon-freertos/lib/third_party/mbedtls/library\gcm.c ****             if( ret == MBEDTLS_ERR_AES_FEATURE_UNAVAILABLE && key_len == 192 )
 1432              		.loc 1 767 0
 1433 0080 C00056E3 		cmp	r6, #192
 1434 0084 23007003 		cmneq	r0, #35
 760:D:/Work/DeviceTester/amazon-freertos/lib/third_party/mbedtls/library\gcm.c ****                                       key_len );
 1435              		.loc 1 760 0
 1436 0088 0010A0E1 		mov	r1, r0
 1437              	.LVL163:
 1438              		.loc 1 767 0
 1439 008c 0F00001A 		bne	.L80
 768:D:/Work/DeviceTester/amazon-freertos/lib/third_party/mbedtls/library\gcm.c ****             {
 769:D:/Work/DeviceTester/amazon-freertos/lib/third_party/mbedtls/library\gcm.c ****                 mbedtls_printf( "skipped\n" );
 1440              		.loc 1 769 0
 1441 0090 08059FE5 		ldr	r0, .L138+20
 1442              	.LVL164:
 1443 0094 FEFFFFEB 		bl	puts
 1444              	.LVL165:
 1445              	.L81:
 1446 0098 2C309DE5 		ldr	r3, [sp, #44]
 1447 009c 406086E2 		add	r6, r6, #64
 1448              	.LVL166:
 1449 00a0 063083E2 		add	r3, r3, #6
 1450              	.LBE22:
 748:D:/Work/DeviceTester/amazon-freertos/lib/third_party/mbedtls/library\gcm.c ****     {
 1451              		.loc 1 748 0 discriminator 2
 1452 00a4 120053E3 		cmp	r3, #18
 1453 00a8 2C308DE5 		str	r3, [sp, #44]
 1454 00ac D9FFFF1A 		bne	.L99
 770:D:/Work/DeviceTester/amazon-freertos/lib/third_party/mbedtls/library\gcm.c ****                 break;
 771:D:/Work/DeviceTester/amazon-freertos/lib/third_party/mbedtls/library\gcm.c ****             }
 772:D:/Work/DeviceTester/amazon-freertos/lib/third_party/mbedtls/library\gcm.c ****             else if( ret != 0 )
 773:D:/Work/DeviceTester/amazon-freertos/lib/third_party/mbedtls/library\gcm.c ****             {
 774:D:/Work/DeviceTester/amazon-freertos/lib/third_party/mbedtls/library\gcm.c ****                 goto exit;
 775:D:/Work/DeviceTester/amazon-freertos/lib/third_party/mbedtls/library\gcm.c ****             }
 776:D:/Work/DeviceTester/amazon-freertos/lib/third_party/mbedtls/library\gcm.c **** 
 777:D:/Work/DeviceTester/amazon-freertos/lib/third_party/mbedtls/library\gcm.c ****             ret = mbedtls_gcm_crypt_and_tag( &ctx, MBEDTLS_GCM_ENCRYPT,
 778:D:/Work/DeviceTester/amazon-freertos/lib/third_party/mbedtls/library\gcm.c ****                                         pt_len[i],
 779:D:/Work/DeviceTester/amazon-freertos/lib/third_party/mbedtls/library\gcm.c ****                                         iv[iv_index[i]], iv_len[i],
 780:D:/Work/DeviceTester/amazon-freertos/lib/third_party/mbedtls/library\gcm.c ****                                         additional[add_index[i]], add_len[i],
 781:D:/Work/DeviceTester/amazon-freertos/lib/third_party/mbedtls/library\gcm.c ****                                         pt[pt_index[i]], buf, 16, tag_buf );
 782:D:/Work/DeviceTester/amazon-freertos/lib/third_party/mbedtls/library\gcm.c ****             if( ret != 0 )
 783:D:/Work/DeviceTester/amazon-freertos/lib/third_party/mbedtls/library\gcm.c ****                 goto exit;
 784:D:/Work/DeviceTester/amazon-freertos/lib/third_party/mbedtls/library\gcm.c **** 
 785:D:/Work/DeviceTester/amazon-freertos/lib/third_party/mbedtls/library\gcm.c ****             if ( memcmp( buf, ct[j * 6 + i], pt_len[i] ) != 0 ||
 786:D:/Work/DeviceTester/amazon-freertos/lib/third_party/mbedtls/library\gcm.c ****                  memcmp( tag_buf, tag[j * 6 + i], 16 ) != 0 )
 787:D:/Work/DeviceTester/amazon-freertos/lib/third_party/mbedtls/library\gcm.c ****             {
 788:D:/Work/DeviceTester/amazon-freertos/lib/third_party/mbedtls/library\gcm.c ****                 ret = 1;
 789:D:/Work/DeviceTester/amazon-freertos/lib/third_party/mbedtls/library\gcm.c ****                 goto exit;
 790:D:/Work/DeviceTester/amazon-freertos/lib/third_party/mbedtls/library\gcm.c ****             }
 791:D:/Work/DeviceTester/amazon-freertos/lib/third_party/mbedtls/library\gcm.c **** 
 792:D:/Work/DeviceTester/amazon-freertos/lib/third_party/mbedtls/library\gcm.c ****             mbedtls_gcm_free( &ctx );
 793:D:/Work/DeviceTester/amazon-freertos/lib/third_party/mbedtls/library\gcm.c **** 
 794:D:/Work/DeviceTester/amazon-freertos/lib/third_party/mbedtls/library\gcm.c ****             if( verbose != 0 )
 795:D:/Work/DeviceTester/amazon-freertos/lib/third_party/mbedtls/library\gcm.c ****                 mbedtls_printf( "passed\n" );
 796:D:/Work/DeviceTester/amazon-freertos/lib/third_party/mbedtls/library\gcm.c **** 
 797:D:/Work/DeviceTester/amazon-freertos/lib/third_party/mbedtls/library\gcm.c ****             mbedtls_gcm_init( &ctx );
 798:D:/Work/DeviceTester/amazon-freertos/lib/third_party/mbedtls/library\gcm.c **** 
 799:D:/Work/DeviceTester/amazon-freertos/lib/third_party/mbedtls/library\gcm.c ****             if( verbose != 0 )
 800:D:/Work/DeviceTester/amazon-freertos/lib/third_party/mbedtls/library\gcm.c ****                 mbedtls_printf( "  AES-GCM-%3d #%d (%s): ",
 801:D:/Work/DeviceTester/amazon-freertos/lib/third_party/mbedtls/library\gcm.c ****                                 key_len, i, "dec" );
 802:D:/Work/DeviceTester/amazon-freertos/lib/third_party/mbedtls/library\gcm.c **** 
 803:D:/Work/DeviceTester/amazon-freertos/lib/third_party/mbedtls/library\gcm.c ****             ret = mbedtls_gcm_setkey( &ctx, cipher, key[key_index[i]],
 804:D:/Work/DeviceTester/amazon-freertos/lib/third_party/mbedtls/library\gcm.c ****                                       key_len );
 805:D:/Work/DeviceTester/amazon-freertos/lib/third_party/mbedtls/library\gcm.c ****             if( ret != 0 )
 806:D:/Work/DeviceTester/amazon-freertos/lib/third_party/mbedtls/library\gcm.c ****                 goto exit;
 807:D:/Work/DeviceTester/amazon-freertos/lib/third_party/mbedtls/library\gcm.c **** 
 808:D:/Work/DeviceTester/amazon-freertos/lib/third_party/mbedtls/library\gcm.c ****             ret = mbedtls_gcm_crypt_and_tag( &ctx, MBEDTLS_GCM_DECRYPT,
 809:D:/Work/DeviceTester/amazon-freertos/lib/third_party/mbedtls/library\gcm.c ****                                         pt_len[i],
 810:D:/Work/DeviceTester/amazon-freertos/lib/third_party/mbedtls/library\gcm.c ****                                         iv[iv_index[i]], iv_len[i],
 811:D:/Work/DeviceTester/amazon-freertos/lib/third_party/mbedtls/library\gcm.c ****                                         additional[add_index[i]], add_len[i],
 812:D:/Work/DeviceTester/amazon-freertos/lib/third_party/mbedtls/library\gcm.c ****                                         ct[j * 6 + i], buf, 16, tag_buf );
 813:D:/Work/DeviceTester/amazon-freertos/lib/third_party/mbedtls/library\gcm.c **** 
 814:D:/Work/DeviceTester/amazon-freertos/lib/third_party/mbedtls/library\gcm.c ****             if( ret != 0 )
 815:D:/Work/DeviceTester/amazon-freertos/lib/third_party/mbedtls/library\gcm.c ****                 goto exit;
 816:D:/Work/DeviceTester/amazon-freertos/lib/third_party/mbedtls/library\gcm.c **** 
 817:D:/Work/DeviceTester/amazon-freertos/lib/third_party/mbedtls/library\gcm.c ****             if( memcmp( buf, pt[pt_index[i]], pt_len[i] ) != 0 ||
 818:D:/Work/DeviceTester/amazon-freertos/lib/third_party/mbedtls/library\gcm.c ****                 memcmp( tag_buf, tag[j * 6 + i], 16 ) != 0 )
 819:D:/Work/DeviceTester/amazon-freertos/lib/third_party/mbedtls/library\gcm.c ****             {
 820:D:/Work/DeviceTester/amazon-freertos/lib/third_party/mbedtls/library\gcm.c ****                 ret = 1;
 821:D:/Work/DeviceTester/amazon-freertos/lib/third_party/mbedtls/library\gcm.c ****                 goto exit;
 822:D:/Work/DeviceTester/amazon-freertos/lib/third_party/mbedtls/library\gcm.c ****             }
 823:D:/Work/DeviceTester/amazon-freertos/lib/third_party/mbedtls/library\gcm.c **** 
 824:D:/Work/DeviceTester/amazon-freertos/lib/third_party/mbedtls/library\gcm.c ****             mbedtls_gcm_free( &ctx );
 825:D:/Work/DeviceTester/amazon-freertos/lib/third_party/mbedtls/library\gcm.c **** 
 826:D:/Work/DeviceTester/amazon-freertos/lib/third_party/mbedtls/library\gcm.c ****             if( verbose != 0 )
 827:D:/Work/DeviceTester/amazon-freertos/lib/third_party/mbedtls/library\gcm.c ****                 mbedtls_printf( "passed\n" );
 828:D:/Work/DeviceTester/amazon-freertos/lib/third_party/mbedtls/library\gcm.c **** 
 829:D:/Work/DeviceTester/amazon-freertos/lib/third_party/mbedtls/library\gcm.c ****             mbedtls_gcm_init( &ctx );
 830:D:/Work/DeviceTester/amazon-freertos/lib/third_party/mbedtls/library\gcm.c **** 
 831:D:/Work/DeviceTester/amazon-freertos/lib/third_party/mbedtls/library\gcm.c ****             if( verbose != 0 )
 832:D:/Work/DeviceTester/amazon-freertos/lib/third_party/mbedtls/library\gcm.c ****                 mbedtls_printf( "  AES-GCM-%3d #%d split (%s): ",
 833:D:/Work/DeviceTester/amazon-freertos/lib/third_party/mbedtls/library\gcm.c ****                                 key_len, i, "enc" );
 834:D:/Work/DeviceTester/amazon-freertos/lib/third_party/mbedtls/library\gcm.c **** 
 835:D:/Work/DeviceTester/amazon-freertos/lib/third_party/mbedtls/library\gcm.c ****             ret = mbedtls_gcm_setkey( &ctx, cipher, key[key_index[i]],
 836:D:/Work/DeviceTester/amazon-freertos/lib/third_party/mbedtls/library\gcm.c ****                                       key_len );
 837:D:/Work/DeviceTester/amazon-freertos/lib/third_party/mbedtls/library\gcm.c ****             if( ret != 0 )
 838:D:/Work/DeviceTester/amazon-freertos/lib/third_party/mbedtls/library\gcm.c ****                 goto exit;
 839:D:/Work/DeviceTester/amazon-freertos/lib/third_party/mbedtls/library\gcm.c **** 
 840:D:/Work/DeviceTester/amazon-freertos/lib/third_party/mbedtls/library\gcm.c ****             ret = mbedtls_gcm_starts( &ctx, MBEDTLS_GCM_ENCRYPT,
 841:D:/Work/DeviceTester/amazon-freertos/lib/third_party/mbedtls/library\gcm.c ****                                       iv[iv_index[i]], iv_len[i],
 842:D:/Work/DeviceTester/amazon-freertos/lib/third_party/mbedtls/library\gcm.c ****                                       additional[add_index[i]], add_len[i] );
 843:D:/Work/DeviceTester/amazon-freertos/lib/third_party/mbedtls/library\gcm.c ****             if( ret != 0 )
 844:D:/Work/DeviceTester/amazon-freertos/lib/third_party/mbedtls/library\gcm.c ****                 goto exit;
 845:D:/Work/DeviceTester/amazon-freertos/lib/third_party/mbedtls/library\gcm.c **** 
 846:D:/Work/DeviceTester/amazon-freertos/lib/third_party/mbedtls/library\gcm.c ****             if( pt_len[i] > 32 )
 847:D:/Work/DeviceTester/amazon-freertos/lib/third_party/mbedtls/library\gcm.c ****             {
 848:D:/Work/DeviceTester/amazon-freertos/lib/third_party/mbedtls/library\gcm.c ****                 size_t rest_len = pt_len[i] - 32;
 849:D:/Work/DeviceTester/amazon-freertos/lib/third_party/mbedtls/library\gcm.c ****                 ret = mbedtls_gcm_update( &ctx, 32, pt[pt_index[i]], buf );
 850:D:/Work/DeviceTester/amazon-freertos/lib/third_party/mbedtls/library\gcm.c ****                 if( ret != 0 )
 851:D:/Work/DeviceTester/amazon-freertos/lib/third_party/mbedtls/library\gcm.c ****                     goto exit;
 852:D:/Work/DeviceTester/amazon-freertos/lib/third_party/mbedtls/library\gcm.c **** 
 853:D:/Work/DeviceTester/amazon-freertos/lib/third_party/mbedtls/library\gcm.c ****                 ret = mbedtls_gcm_update( &ctx, rest_len, pt[pt_index[i]] + 32,
 854:D:/Work/DeviceTester/amazon-freertos/lib/third_party/mbedtls/library\gcm.c ****                                   buf + 32 );
 855:D:/Work/DeviceTester/amazon-freertos/lib/third_party/mbedtls/library\gcm.c ****                 if( ret != 0 )
 856:D:/Work/DeviceTester/amazon-freertos/lib/third_party/mbedtls/library\gcm.c ****                     goto exit;
 857:D:/Work/DeviceTester/amazon-freertos/lib/third_party/mbedtls/library\gcm.c ****             }
 858:D:/Work/DeviceTester/amazon-freertos/lib/third_party/mbedtls/library\gcm.c ****             else
 859:D:/Work/DeviceTester/amazon-freertos/lib/third_party/mbedtls/library\gcm.c ****             {
 860:D:/Work/DeviceTester/amazon-freertos/lib/third_party/mbedtls/library\gcm.c ****                 ret = mbedtls_gcm_update( &ctx, pt_len[i], pt[pt_index[i]], buf );
 861:D:/Work/DeviceTester/amazon-freertos/lib/third_party/mbedtls/library\gcm.c ****                 if( ret != 0 )
 862:D:/Work/DeviceTester/amazon-freertos/lib/third_party/mbedtls/library\gcm.c ****                     goto exit;
 863:D:/Work/DeviceTester/amazon-freertos/lib/third_party/mbedtls/library\gcm.c ****             }
 864:D:/Work/DeviceTester/amazon-freertos/lib/third_party/mbedtls/library\gcm.c **** 
 865:D:/Work/DeviceTester/amazon-freertos/lib/third_party/mbedtls/library\gcm.c ****             ret = mbedtls_gcm_finish( &ctx, tag_buf, 16 );
 866:D:/Work/DeviceTester/amazon-freertos/lib/third_party/mbedtls/library\gcm.c ****             if( ret != 0 )
 867:D:/Work/DeviceTester/amazon-freertos/lib/third_party/mbedtls/library\gcm.c ****                 goto exit;
 868:D:/Work/DeviceTester/amazon-freertos/lib/third_party/mbedtls/library\gcm.c **** 
 869:D:/Work/DeviceTester/amazon-freertos/lib/third_party/mbedtls/library\gcm.c ****             if( memcmp( buf, ct[j * 6 + i], pt_len[i] ) != 0 ||
 870:D:/Work/DeviceTester/amazon-freertos/lib/third_party/mbedtls/library\gcm.c ****                 memcmp( tag_buf, tag[j * 6 + i], 16 ) != 0 )
 871:D:/Work/DeviceTester/amazon-freertos/lib/third_party/mbedtls/library\gcm.c ****             {
 872:D:/Work/DeviceTester/amazon-freertos/lib/third_party/mbedtls/library\gcm.c ****                 ret = 1;
 873:D:/Work/DeviceTester/amazon-freertos/lib/third_party/mbedtls/library\gcm.c ****                 goto exit;
 874:D:/Work/DeviceTester/amazon-freertos/lib/third_party/mbedtls/library\gcm.c ****             }
 875:D:/Work/DeviceTester/amazon-freertos/lib/third_party/mbedtls/library\gcm.c **** 
 876:D:/Work/DeviceTester/amazon-freertos/lib/third_party/mbedtls/library\gcm.c ****             mbedtls_gcm_free( &ctx );
 877:D:/Work/DeviceTester/amazon-freertos/lib/third_party/mbedtls/library\gcm.c **** 
 878:D:/Work/DeviceTester/amazon-freertos/lib/third_party/mbedtls/library\gcm.c ****             if( verbose != 0 )
 879:D:/Work/DeviceTester/amazon-freertos/lib/third_party/mbedtls/library\gcm.c ****                 mbedtls_printf( "passed\n" );
 880:D:/Work/DeviceTester/amazon-freertos/lib/third_party/mbedtls/library\gcm.c **** 
 881:D:/Work/DeviceTester/amazon-freertos/lib/third_party/mbedtls/library\gcm.c ****             mbedtls_gcm_init( &ctx );
 882:D:/Work/DeviceTester/amazon-freertos/lib/third_party/mbedtls/library\gcm.c **** 
 883:D:/Work/DeviceTester/amazon-freertos/lib/third_party/mbedtls/library\gcm.c ****             if( verbose != 0 )
 884:D:/Work/DeviceTester/amazon-freertos/lib/third_party/mbedtls/library\gcm.c ****                 mbedtls_printf( "  AES-GCM-%3d #%d split (%s): ",
 885:D:/Work/DeviceTester/amazon-freertos/lib/third_party/mbedtls/library\gcm.c ****                                 key_len, i, "dec" );
 886:D:/Work/DeviceTester/amazon-freertos/lib/third_party/mbedtls/library\gcm.c **** 
 887:D:/Work/DeviceTester/amazon-freertos/lib/third_party/mbedtls/library\gcm.c ****             ret = mbedtls_gcm_setkey( &ctx, cipher, key[key_index[i]],
 888:D:/Work/DeviceTester/amazon-freertos/lib/third_party/mbedtls/library\gcm.c ****                                       key_len );
 889:D:/Work/DeviceTester/amazon-freertos/lib/third_party/mbedtls/library\gcm.c ****             if( ret != 0 )
 890:D:/Work/DeviceTester/amazon-freertos/lib/third_party/mbedtls/library\gcm.c ****                 goto exit;
 891:D:/Work/DeviceTester/amazon-freertos/lib/third_party/mbedtls/library\gcm.c **** 
 892:D:/Work/DeviceTester/amazon-freertos/lib/third_party/mbedtls/library\gcm.c ****             ret = mbedtls_gcm_starts( &ctx, MBEDTLS_GCM_DECRYPT,
 893:D:/Work/DeviceTester/amazon-freertos/lib/third_party/mbedtls/library\gcm.c ****                               iv[iv_index[i]], iv_len[i],
 894:D:/Work/DeviceTester/amazon-freertos/lib/third_party/mbedtls/library\gcm.c ****                               additional[add_index[i]], add_len[i] );
 895:D:/Work/DeviceTester/amazon-freertos/lib/third_party/mbedtls/library\gcm.c ****             if( ret != 0 )
 896:D:/Work/DeviceTester/amazon-freertos/lib/third_party/mbedtls/library\gcm.c ****                 goto exit;
 897:D:/Work/DeviceTester/amazon-freertos/lib/third_party/mbedtls/library\gcm.c **** 
 898:D:/Work/DeviceTester/amazon-freertos/lib/third_party/mbedtls/library\gcm.c ****             if( pt_len[i] > 32 )
 899:D:/Work/DeviceTester/amazon-freertos/lib/third_party/mbedtls/library\gcm.c ****             {
 900:D:/Work/DeviceTester/amazon-freertos/lib/third_party/mbedtls/library\gcm.c ****                 size_t rest_len = pt_len[i] - 32;
 901:D:/Work/DeviceTester/amazon-freertos/lib/third_party/mbedtls/library\gcm.c ****                 ret = mbedtls_gcm_update( &ctx, 32, ct[j * 6 + i], buf );
 902:D:/Work/DeviceTester/amazon-freertos/lib/third_party/mbedtls/library\gcm.c ****                 if( ret != 0 )
 903:D:/Work/DeviceTester/amazon-freertos/lib/third_party/mbedtls/library\gcm.c ****                     goto exit;
 904:D:/Work/DeviceTester/amazon-freertos/lib/third_party/mbedtls/library\gcm.c **** 
 905:D:/Work/DeviceTester/amazon-freertos/lib/third_party/mbedtls/library\gcm.c ****                 ret = mbedtls_gcm_update( &ctx, rest_len, ct[j * 6 + i] + 32,
 906:D:/Work/DeviceTester/amazon-freertos/lib/third_party/mbedtls/library\gcm.c ****                                           buf + 32 );
 907:D:/Work/DeviceTester/amazon-freertos/lib/third_party/mbedtls/library\gcm.c ****                 if( ret != 0 )
 908:D:/Work/DeviceTester/amazon-freertos/lib/third_party/mbedtls/library\gcm.c ****                     goto exit;
 909:D:/Work/DeviceTester/amazon-freertos/lib/third_party/mbedtls/library\gcm.c ****             }
 910:D:/Work/DeviceTester/amazon-freertos/lib/third_party/mbedtls/library\gcm.c ****             else
 911:D:/Work/DeviceTester/amazon-freertos/lib/third_party/mbedtls/library\gcm.c ****             {
 912:D:/Work/DeviceTester/amazon-freertos/lib/third_party/mbedtls/library\gcm.c ****                 ret = mbedtls_gcm_update( &ctx, pt_len[i], ct[j * 6 + i],
 913:D:/Work/DeviceTester/amazon-freertos/lib/third_party/mbedtls/library\gcm.c ****                                           buf );
 914:D:/Work/DeviceTester/amazon-freertos/lib/third_party/mbedtls/library\gcm.c ****                 if( ret != 0 )
 915:D:/Work/DeviceTester/amazon-freertos/lib/third_party/mbedtls/library\gcm.c ****                     goto exit;
 916:D:/Work/DeviceTester/amazon-freertos/lib/third_party/mbedtls/library\gcm.c ****             }
 917:D:/Work/DeviceTester/amazon-freertos/lib/third_party/mbedtls/library\gcm.c **** 
 918:D:/Work/DeviceTester/amazon-freertos/lib/third_party/mbedtls/library\gcm.c ****             ret = mbedtls_gcm_finish( &ctx, tag_buf, 16 );
 919:D:/Work/DeviceTester/amazon-freertos/lib/third_party/mbedtls/library\gcm.c ****             if( ret != 0 )
 920:D:/Work/DeviceTester/amazon-freertos/lib/third_party/mbedtls/library\gcm.c ****                 goto exit;
 921:D:/Work/DeviceTester/amazon-freertos/lib/third_party/mbedtls/library\gcm.c **** 
 922:D:/Work/DeviceTester/amazon-freertos/lib/third_party/mbedtls/library\gcm.c ****             if( memcmp( buf, pt[pt_index[i]], pt_len[i] ) != 0 ||
 923:D:/Work/DeviceTester/amazon-freertos/lib/third_party/mbedtls/library\gcm.c ****                 memcmp( tag_buf, tag[j * 6 + i], 16 ) != 0 )
 924:D:/Work/DeviceTester/amazon-freertos/lib/third_party/mbedtls/library\gcm.c ****             {
 925:D:/Work/DeviceTester/amazon-freertos/lib/third_party/mbedtls/library\gcm.c ****                 ret = 1;
 926:D:/Work/DeviceTester/amazon-freertos/lib/third_party/mbedtls/library\gcm.c ****                 goto exit;
 927:D:/Work/DeviceTester/amazon-freertos/lib/third_party/mbedtls/library\gcm.c ****             }
 928:D:/Work/DeviceTester/amazon-freertos/lib/third_party/mbedtls/library\gcm.c **** 
 929:D:/Work/DeviceTester/amazon-freertos/lib/third_party/mbedtls/library\gcm.c ****             mbedtls_gcm_free( &ctx );
 930:D:/Work/DeviceTester/amazon-freertos/lib/third_party/mbedtls/library\gcm.c **** 
 931:D:/Work/DeviceTester/amazon-freertos/lib/third_party/mbedtls/library\gcm.c ****             if( verbose != 0 )
 932:D:/Work/DeviceTester/amazon-freertos/lib/third_party/mbedtls/library\gcm.c ****                 mbedtls_printf( "passed\n" );
 933:D:/Work/DeviceTester/amazon-freertos/lib/third_party/mbedtls/library\gcm.c ****         }
 934:D:/Work/DeviceTester/amazon-freertos/lib/third_party/mbedtls/library\gcm.c ****     }
 935:D:/Work/DeviceTester/amazon-freertos/lib/third_party/mbedtls/library\gcm.c **** 
 936:D:/Work/DeviceTester/amazon-freertos/lib/third_party/mbedtls/library\gcm.c ****     if( verbose != 0 )
 1455              		.loc 1 936 0
 1456 00b0 000055E3 		cmp	r5, #0
 1457 00b4 0200000A 		beq	.L112
 937:D:/Work/DeviceTester/amazon-freertos/lib/third_party/mbedtls/library\gcm.c ****         mbedtls_printf( "\n" );
 1458              		.loc 1 937 0
 1459 00b8 0050A0E3 		mov	r5, #0
 1460              	.LVL167:
 1461 00bc 0A00A0E3 		mov	r0, #10
 1462 00c0 FEFFFFEB 		bl	putchar
 1463              	.LVL168:
 1464              	.L112:
 938:D:/Work/DeviceTester/amazon-freertos/lib/third_party/mbedtls/library\gcm.c **** 
 939:D:/Work/DeviceTester/amazon-freertos/lib/third_party/mbedtls/library\gcm.c ****     ret = 0;
 940:D:/Work/DeviceTester/amazon-freertos/lib/third_party/mbedtls/library\gcm.c **** 
 941:D:/Work/DeviceTester/amazon-freertos/lib/third_party/mbedtls/library\gcm.c **** exit:
 942:D:/Work/DeviceTester/amazon-freertos/lib/third_party/mbedtls/library\gcm.c ****     if( ret != 0 )
 943:D:/Work/DeviceTester/amazon-freertos/lib/third_party/mbedtls/library\gcm.c ****     {
 944:D:/Work/DeviceTester/amazon-freertos/lib/third_party/mbedtls/library\gcm.c ****         if( verbose != 0 )
 945:D:/Work/DeviceTester/amazon-freertos/lib/third_party/mbedtls/library\gcm.c ****             mbedtls_printf( "failed\n" );
 946:D:/Work/DeviceTester/amazon-freertos/lib/third_party/mbedtls/library\gcm.c ****         mbedtls_gcm_free( &ctx );
 947:D:/Work/DeviceTester/amazon-freertos/lib/third_party/mbedtls/library\gcm.c ****     }
 948:D:/Work/DeviceTester/amazon-freertos/lib/third_party/mbedtls/library\gcm.c **** 
 949:D:/Work/DeviceTester/amazon-freertos/lib/third_party/mbedtls/library\gcm.c ****     return( ret );
 950:D:/Work/DeviceTester/amazon-freertos/lib/third_party/mbedtls/library\gcm.c **** }
 1465              		.loc 1 950 0
 1466 00c4 0500A0E1 		mov	r0, r5
 1467 00c8 89DF8DE2 		add	sp, sp, #548
 1468              		.cfi_remember_state
 1469              		.cfi_def_cfa_offset 36
 1470              		@ sp needed
 1471 00cc F08FBDE8 		pop	{r4, r5, r6, r7, r8, r9, r10, fp, pc}
 1472              	.LVL169:
 1473              	.L80:
 1474              		.cfi_restore_state
 1475              	.LBB25:
 772:D:/Work/DeviceTester/amazon-freertos/lib/third_party/mbedtls/library\gcm.c ****             {
 1476              		.loc 1 772 0
 1477 00d0 000050E3 		cmp	r0, #0
 1478 00d4 3400001A 		bne	.L82
 777:D:/Work/DeviceTester/amazon-freertos/lib/third_party/mbedtls/library\gcm.c ****                                         pt_len[i],
 1479              		.loc 1 777 0
 1480 00d8 C4349FE5 		ldr	r3, .L138+24
 1481 00dc 48908DE2 		add	r9, sp, #72
 1482 00e0 10A0A0E3 		mov	r10, #16
 1483 00e4 58B08DE2 		add	fp, sp, #88
 1484 00e8 0110A0E3 		mov	r1, #1
 1485 00ec 18908DE5 		str	r9, [sp, #24]
 1486 00f0 038094E7 		ldr	r8, [r4, r3]
 1487 00f4 98008DE2 		add	r0, sp, #152
 1488              	.LVL170:
 779:D:/Work/DeviceTester/amazon-freertos/lib/third_party/mbedtls/library\gcm.c ****                                         additional[add_index[i]], add_len[i],
 1489              		.loc 1 779 0
 1490 00f8 A8349FE5 		ldr	r3, .L138+28
 777:D:/Work/DeviceTester/amazon-freertos/lib/third_party/mbedtls/library\gcm.c ****                                         pt_len[i],
 1491              		.loc 1 777 0
 1492 00fc 14A08DE5 		str	r10, [sp, #20]
 1493 0100 10B08DE5 		str	fp, [sp, #16]
 779:D:/Work/DeviceTester/amazon-freertos/lib/third_party/mbedtls/library\gcm.c ****                                         additional[add_index[i]], add_len[i],
 1494              		.loc 1 779 0
 1495 0104 032094E7 		ldr	r2, [r4, r3]
 1496 0108 9C349FE5 		ldr	r3, .L138+32
 1497 010c 023383E0 		add	r3, r3, r2, lsl #6
 1498 0110 38308DE5 		str	r3, [sp, #56]
 777:D:/Work/DeviceTester/amazon-freertos/lib/third_party/mbedtls/library\gcm.c ****                                         pt_len[i],
 1499              		.loc 1 777 0
 1500 0114 94349FE5 		ldr	r3, .L138+36
 1501 0118 033094E7 		ldr	r3, [r4, r3]
 1502 011c 3C308DE5 		str	r3, [sp, #60]
 780:D:/Work/DeviceTester/amazon-freertos/lib/third_party/mbedtls/library\gcm.c ****                                         pt[pt_index[i]], buf, 16, tag_buf );
 1503              		.loc 1 780 0
 1504 0120 8C349FE5 		ldr	r3, .L138+40
 1505 0124 032094E7 		ldr	r2, [r4, r3]
 1506 0128 88349FE5 		ldr	r3, .L138+44
 1507 012c 023383E0 		add	r3, r3, r2, lsl #6
 1508 0130 40308DE5 		str	r3, [sp, #64]
 777:D:/Work/DeviceTester/amazon-freertos/lib/third_party/mbedtls/library\gcm.c ****                                         pt_len[i],
 1509              		.loc 1 777 0
 1510 0134 80349FE5 		ldr	r3, .L138+48
 1511 0138 033094E7 		ldr	r3, [r4, r3]
 1512 013c 44308DE5 		str	r3, [sp, #68]
 781:D:/Work/DeviceTester/amazon-freertos/lib/third_party/mbedtls/library\gcm.c ****             if( ret != 0 )
 1513              		.loc 1 781 0
 1514 0140 78349FE5 		ldr	r3, .L138+52
 1515 0144 032094E7 		ldr	r2, [r4, r3]
 1516 0148 74349FE5 		ldr	r3, .L138+56
 1517 014c 023383E0 		add	r3, r3, r2, lsl #6
 777:D:/Work/DeviceTester/amazon-freertos/lib/third_party/mbedtls/library\gcm.c ****                                         pt_len[i],
 1518              		.loc 1 777 0
 1519 0150 0820A0E1 		mov	r2, r8
 781:D:/Work/DeviceTester/amazon-freertos/lib/third_party/mbedtls/library\gcm.c ****             if( ret != 0 )
 1520              		.loc 1 781 0
 1521 0154 24308DE5 		str	r3, [sp, #36]
 777:D:/Work/DeviceTester/amazon-freertos/lib/third_party/mbedtls/library\gcm.c ****                                         pt_len[i],
 1522              		.loc 1 777 0
 1523 0158 0C308DE5 		str	r3, [sp, #12]
 1524 015c 44309DE5 		ldr	r3, [sp, #68]
 1525 0160 08308DE5 		str	r3, [sp, #8]
 1526 0164 40309DE5 		ldr	r3, [sp, #64]
 1527 0168 04308DE5 		str	r3, [sp, #4]
 1528 016c 3C309DE5 		ldr	r3, [sp, #60]
 1529 0170 00308DE5 		str	r3, [sp]
 1530 0174 38309DE5 		ldr	r3, [sp, #56]
 1531 0178 FEFFFFEB 		bl	mbedtls_gcm_crypt_and_tag
 1532              	.LVL171:
 782:D:/Work/DeviceTester/amazon-freertos/lib/third_party/mbedtls/library\gcm.c ****                 goto exit;
 1533              		.loc 1 782 0
 1534 017c 001050E2 		subs	r1, r0, #0
 1535 0180 0900001A 		bne	.L82
 1536 0184 30309DE5 		ldr	r3, [sp, #48]
 785:D:/Work/DeviceTester/amazon-freertos/lib/third_party/mbedtls/library\gcm.c ****                  memcmp( tag_buf, tag[j * 6 + i], 16 ) != 0 )
 1537              		.loc 1 785 0
 1538 0188 0820A0E1 		mov	r2, r8
 1539 018c 0B00A0E1 		mov	r0, fp
 1540              	.LVL172:
 1541 0190 203043E2 		sub	r3, r3, #32
 1542 0194 0310A0E1 		mov	r1, r3
 1543              	.LVL173:
 1544 0198 28308DE5 		str	r3, [sp, #40]
 1545 019c FEFFFFEB 		bl	memcmp
 1546              	.LVL174:
 1547 01a0 000050E3 		cmp	r0, #0
 1548 01a4 0C00000A 		beq	.L83
 1549              	.L84:
 788:D:/Work/DeviceTester/amazon-freertos/lib/third_party/mbedtls/library\gcm.c ****                 goto exit;
 1550              		.loc 1 788 0
 1551 01a8 0110A0E3 		mov	r1, #1
 1552              	.L82:
 1553              	.LVL175:
 1554              	.LBE25:
 944:D:/Work/DeviceTester/amazon-freertos/lib/third_party/mbedtls/library\gcm.c ****             mbedtls_printf( "failed\n" );
 1555              		.loc 1 944 0
 1556 01ac 000055E3 		cmp	r5, #0
 1557 01b0 0300000A 		beq	.L102
 945:D:/Work/DeviceTester/amazon-freertos/lib/third_party/mbedtls/library\gcm.c ****         mbedtls_gcm_free( &ctx );
 1558              		.loc 1 945 0
 1559 01b4 0C049FE5 		ldr	r0, .L138+60
 1560 01b8 24108DE5 		str	r1, [sp, #36]
 1561 01bc FEFFFFEB 		bl	puts
 1562              	.LVL176:
 1563 01c0 24109DE5 		ldr	r1, [sp, #36]
 1564              	.LVL177:
 1565              	.L102:
 946:D:/Work/DeviceTester/amazon-freertos/lib/third_party/mbedtls/library\gcm.c ****     }
 1566              		.loc 1 946 0
 1567 01c4 98008DE2 		add	r0, sp, #152
 1568 01c8 24108DE5 		str	r1, [sp, #36]
 1569 01cc FEFFFFEB 		bl	mbedtls_gcm_free
 1570              	.LVL178:
 1571 01d0 24109DE5 		ldr	r1, [sp, #36]
 1572 01d4 0150A0E1 		mov	r5, r1
 1573              	.LVL179:
 949:D:/Work/DeviceTester/amazon-freertos/lib/third_party/mbedtls/library\gcm.c **** }
 1574              		.loc 1 949 0
 1575 01d8 B9FFFFEA 		b	.L112
 1576              	.LVL180:
 1577              	.L83:
 1578 01dc E8239FE5 		ldr	r2, .L138+64
 1579              	.LBB26:
 786:D:/Work/DeviceTester/amazon-freertos/lib/third_party/mbedtls/library\gcm.c ****             {
 1580              		.loc 1 786 0 discriminator 1
 1581 01e0 0900A0E1 		mov	r0, r9
 1582 01e4 2C309DE5 		ldr	r3, [sp, #44]
 1583 01e8 033087E0 		add	r3, r7, r3
 1584 01ec 03B282E0 		add	fp, r2, r3, lsl #4
 1585 01f0 0A20A0E1 		mov	r2, r10
 1586 01f4 0B10A0E1 		mov	r1, fp
 1587 01f8 FEFFFFEB 		bl	memcmp
 1588              	.LVL181:
 785:D:/Work/DeviceTester/amazon-freertos/lib/third_party/mbedtls/library\gcm.c ****                  memcmp( tag_buf, tag[j * 6 + i], 16 ) != 0 )
 1589              		.loc 1 785 0 discriminator 1
 1590 01fc 000050E3 		cmp	r0, #0
 1591 0200 E8FFFF1A 		bne	.L84
 792:D:/Work/DeviceTester/amazon-freertos/lib/third_party/mbedtls/library\gcm.c **** 
 1592              		.loc 1 792 0
 1593 0204 98008DE2 		add	r0, sp, #152
 1594 0208 FEFFFFEB 		bl	mbedtls_gcm_free
 1595              	.LVL182:
 794:D:/Work/DeviceTester/amazon-freertos/lib/third_party/mbedtls/library\gcm.c ****                 mbedtls_printf( "passed\n" );
 1596              		.loc 1 794 0
 1597 020c 000055E3 		cmp	r5, #0
 1598 0210 0100000A 		beq	.L85
 795:D:/Work/DeviceTester/amazon-freertos/lib/third_party/mbedtls/library\gcm.c **** 
 1599              		.loc 1 795 0
 1600 0214 B4039FE5 		ldr	r0, .L138+68
 1601 0218 FEFFFFEB 		bl	puts
 1602              	.LVL183:
 1603              	.L85:
 797:D:/Work/DeviceTester/amazon-freertos/lib/third_party/mbedtls/library\gcm.c **** 
 1604              		.loc 1 797 0
 1605 021c 98008DE2 		add	r0, sp, #152
 1606 0220 FEFFFFEB 		bl	mbedtls_gcm_init
 1607              	.LVL184:
 799:D:/Work/DeviceTester/amazon-freertos/lib/third_party/mbedtls/library\gcm.c ****                 mbedtls_printf( "  AES-GCM-%3d #%d (%s): ",
 1608              		.loc 1 799 0
 1609 0224 000055E3 		cmp	r5, #0
 1610 0228 0400000A 		beq	.L86
 800:D:/Work/DeviceTester/amazon-freertos/lib/third_party/mbedtls/library\gcm.c ****                                 key_len, i, "dec" );
 1611              		.loc 1 800 0
 1612 022c A0339FE5 		ldr	r3, .L138+72
 1613 0230 0720A0E1 		mov	r2, r7
 1614 0234 0610A0E1 		mov	r1, r6
 1615 0238 54039FE5 		ldr	r0, .L138+8
 1616 023c FEFFFFEB 		bl	printf
 1617              	.LVL185:
 1618              	.L86:
 803:D:/Work/DeviceTester/amazon-freertos/lib/third_party/mbedtls/library\gcm.c ****                                       key_len );
 1619              		.loc 1 803 0
 1620 0240 0210A0E3 		mov	r1, #2
 1621 0244 0630A0E1 		mov	r3, r6
 1622 0248 34209DE5 		ldr	r2, [sp, #52]
 1623 024c 98008DE2 		add	r0, sp, #152
 1624 0250 FEFFFFEB 		bl	mbedtls_gcm_setkey
 1625              	.LVL186:
 805:D:/Work/DeviceTester/amazon-freertos/lib/third_party/mbedtls/library\gcm.c ****                 goto exit;
 1626              		.loc 1 805 0
 1627 0254 001050E2 		subs	r1, r0, #0
 1628 0258 D3FFFF1A 		bne	.L82
 808:D:/Work/DeviceTester/amazon-freertos/lib/third_party/mbedtls/library\gcm.c ****                                         pt_len[i],
 1629              		.loc 1 808 0
 1630 025c 58308DE2 		add	r3, sp, #88
 1631 0260 48908DE2 		add	r9, sp, #72
 1632 0264 10308DE5 		str	r3, [sp, #16]
 1633 0268 10A0A0E3 		mov	r10, #16
 1634 026c 28309DE5 		ldr	r3, [sp, #40]
 1635 0270 0820A0E1 		mov	r2, r8
 1636 0274 18908DE5 		str	r9, [sp, #24]
 1637 0278 98008DE2 		add	r0, sp, #152
 1638              	.LVL187:
 1639 027c 14A08DE5 		str	r10, [sp, #20]
 1640 0280 0C308DE5 		str	r3, [sp, #12]
 1641 0284 44309DE5 		ldr	r3, [sp, #68]
 1642 0288 08308DE5 		str	r3, [sp, #8]
 1643 028c 40309DE5 		ldr	r3, [sp, #64]
 1644 0290 04308DE5 		str	r3, [sp, #4]
 1645 0294 3C309DE5 		ldr	r3, [sp, #60]
 1646 0298 00308DE5 		str	r3, [sp]
 1647 029c 38309DE5 		ldr	r3, [sp, #56]
 1648 02a0 FEFFFFEB 		bl	mbedtls_gcm_crypt_and_tag
 1649              	.LVL188:
 814:D:/Work/DeviceTester/amazon-freertos/lib/third_party/mbedtls/library\gcm.c ****                 goto exit;
 1650              		.loc 1 814 0
 1651 02a4 001050E2 		subs	r1, r0, #0
 1652 02a8 BFFFFF1A 		bne	.L82
 817:D:/Work/DeviceTester/amazon-freertos/lib/third_party/mbedtls/library\gcm.c ****                 memcmp( tag_buf, tag[j * 6 + i], 16 ) != 0 )
 1653              		.loc 1 817 0
 1654 02ac 0820A0E1 		mov	r2, r8
 1655 02b0 24109DE5 		ldr	r1, [sp, #36]
 1656 02b4 58008DE2 		add	r0, sp, #88
 1657              	.LVL189:
 1658 02b8 FEFFFFEB 		bl	memcmp
 1659              	.LVL190:
 1660 02bc 000050E3 		cmp	r0, #0
 1661 02c0 B8FFFF1A 		bne	.L84
 818:D:/Work/DeviceTester/amazon-freertos/lib/third_party/mbedtls/library\gcm.c ****             {
 1662              		.loc 1 818 0 discriminator 1
 1663 02c4 0A20A0E1 		mov	r2, r10
 1664 02c8 0B10A0E1 		mov	r1, fp
 1665 02cc 0900A0E1 		mov	r0, r9
 1666 02d0 FEFFFFEB 		bl	memcmp
 1667              	.LVL191:
 817:D:/Work/DeviceTester/amazon-freertos/lib/third_party/mbedtls/library\gcm.c ****                 memcmp( tag_buf, tag[j * 6 + i], 16 ) != 0 )
 1668              		.loc 1 817 0 discriminator 1
 1669 02d4 000050E3 		cmp	r0, #0
 1670 02d8 B2FFFF1A 		bne	.L84
 824:D:/Work/DeviceTester/amazon-freertos/lib/third_party/mbedtls/library\gcm.c **** 
 1671              		.loc 1 824 0
 1672 02dc 98008DE2 		add	r0, sp, #152
 1673 02e0 FEFFFFEB 		bl	mbedtls_gcm_free
 1674              	.LVL192:
 826:D:/Work/DeviceTester/amazon-freertos/lib/third_party/mbedtls/library\gcm.c ****                 mbedtls_printf( "passed\n" );
 1675              		.loc 1 826 0
 1676 02e4 000055E3 		cmp	r5, #0
 1677 02e8 0100000A 		beq	.L87
 827:D:/Work/DeviceTester/amazon-freertos/lib/third_party/mbedtls/library\gcm.c **** 
 1678              		.loc 1 827 0
 1679 02ec DC029FE5 		ldr	r0, .L138+68
 1680 02f0 FEFFFFEB 		bl	puts
 1681              	.LVL193:
 1682              	.L87:
 829:D:/Work/DeviceTester/amazon-freertos/lib/third_party/mbedtls/library\gcm.c **** 
 1683              		.loc 1 829 0
 1684 02f4 98008DE2 		add	r0, sp, #152
 1685 02f8 FEFFFFEB 		bl	mbedtls_gcm_init
 1686              	.LVL194:
 831:D:/Work/DeviceTester/amazon-freertos/lib/third_party/mbedtls/library\gcm.c ****                 mbedtls_printf( "  AES-GCM-%3d #%d split (%s): ",
 1687              		.loc 1 831 0
 1688 02fc 000055E3 		cmp	r5, #0
 1689 0300 0400000A 		beq	.L88
 832:D:/Work/DeviceTester/amazon-freertos/lib/third_party/mbedtls/library\gcm.c ****                                 key_len, i, "enc" );
 1690              		.loc 1 832 0
 1691 0304 84329FE5 		ldr	r3, .L138+4
 1692 0308 0720A0E1 		mov	r2, r7
 1693 030c 0610A0E1 		mov	r1, r6
 1694 0310 C0029FE5 		ldr	r0, .L138+76
 1695 0314 FEFFFFEB 		bl	printf
 1696              	.LVL195:
 1697              	.L88:
 835:D:/Work/DeviceTester/amazon-freertos/lib/third_party/mbedtls/library\gcm.c ****                                       key_len );
 1698              		.loc 1 835 0
 1699 0318 0210A0E3 		mov	r1, #2
 1700 031c 0630A0E1 		mov	r3, r6
 1701 0320 34209DE5 		ldr	r2, [sp, #52]
 1702 0324 98008DE2 		add	r0, sp, #152
 1703 0328 FEFFFFEB 		bl	mbedtls_gcm_setkey
 1704              	.LVL196:
 837:D:/Work/DeviceTester/amazon-freertos/lib/third_party/mbedtls/library\gcm.c ****                 goto exit;
 1705              		.loc 1 837 0
 1706 032c 001050E2 		subs	r1, r0, #0
 1707 0330 9DFFFF1A 		bne	.L82
 840:D:/Work/DeviceTester/amazon-freertos/lib/third_party/mbedtls/library\gcm.c ****                                       iv[iv_index[i]], iv_len[i],
 1708              		.loc 1 840 0
 1709 0334 44309DE5 		ldr	r3, [sp, #68]
 1710 0338 0110A0E3 		mov	r1, #1
 1711 033c 38209DE5 		ldr	r2, [sp, #56]
 1712 0340 98008DE2 		add	r0, sp, #152
 1713              	.LVL197:
 1714 0344 04308DE5 		str	r3, [sp, #4]
 1715 0348 40309DE5 		ldr	r3, [sp, #64]
 1716 034c 00308DE5 		str	r3, [sp]
 1717 0350 3C309DE5 		ldr	r3, [sp, #60]
 1718 0354 FEFFFFEB 		bl	mbedtls_gcm_starts
 1719              	.LVL198:
 843:D:/Work/DeviceTester/amazon-freertos/lib/third_party/mbedtls/library\gcm.c ****                 goto exit;
 1720              		.loc 1 843 0
 1721 0358 001050E2 		subs	r1, r0, #0
 1722 035c 92FFFF1A 		bne	.L82
 846:D:/Work/DeviceTester/amazon-freertos/lib/third_party/mbedtls/library\gcm.c ****             {
 1723              		.loc 1 846 0
 1724 0360 200058E3 		cmp	r8, #32
 1725 0364 8200009A 		bls	.L89
 1726              	.LBB23:
 849:D:/Work/DeviceTester/amazon-freertos/lib/third_party/mbedtls/library\gcm.c ****                 if( ret != 0 )
 1727              		.loc 1 849 0
 1728 0368 2010A0E3 		mov	r1, #32
 1729 036c 58308DE2 		add	r3, sp, #88
 1730 0370 24209DE5 		ldr	r2, [sp, #36]
 1731 0374 98008DE2 		add	r0, sp, #152
 1732              	.LVL199:
 1733 0378 FEFFFFEB 		bl	mbedtls_gcm_update
 1734              	.LVL200:
 850:D:/Work/DeviceTester/amazon-freertos/lib/third_party/mbedtls/library\gcm.c ****                     goto exit;
 1735              		.loc 1 850 0
 1736 037c 001050E2 		subs	r1, r0, #0
 848:D:/Work/DeviceTester/amazon-freertos/lib/third_party/mbedtls/library\gcm.c ****                 ret = mbedtls_gcm_update( &ctx, 32, pt[pt_index[i]], buf );
 1737              		.loc 1 848 0
 1738 0380 208048E2 		sub	r8, r8, #32
 1739              	.LVL201:
 850:D:/Work/DeviceTester/amazon-freertos/lib/third_party/mbedtls/library\gcm.c ****                     goto exit;
 1740              		.loc 1 850 0
 1741 0384 88FFFF1A 		bne	.L82
 853:D:/Work/DeviceTester/amazon-freertos/lib/third_party/mbedtls/library\gcm.c ****                                   buf + 32 );
 1742              		.loc 1 853 0
 1743 0388 24209DE5 		ldr	r2, [sp, #36]
 1744 038c 78308DE2 		add	r3, sp, #120
 1745 0390 202082E2 		add	r2, r2, #32
 1746              	.LVL202:
 1747              	.L136:
 1748 0394 0810A0E1 		mov	r1, r8
 1749 0398 98008DE2 		add	r0, sp, #152
 1750              	.LVL203:
 1751 039c FEFFFFEB 		bl	mbedtls_gcm_update
 1752              	.LVL204:
 855:D:/Work/DeviceTester/amazon-freertos/lib/third_party/mbedtls/library\gcm.c ****                     goto exit;
 1753              		.loc 1 855 0
 1754 03a0 001050E2 		subs	r1, r0, #0
 1755 03a4 80FFFF1A 		bne	.L82
 1756              	.LBE23:
 865:D:/Work/DeviceTester/amazon-freertos/lib/third_party/mbedtls/library\gcm.c ****             if( ret != 0 )
 1757              		.loc 1 865 0
 1758 03a8 48108DE2 		add	r1, sp, #72
 1759 03ac 1020A0E3 		mov	r2, #16
 1760 03b0 98008DE2 		add	r0, sp, #152
 1761              	.LVL205:
 1762 03b4 FEFFFFEB 		bl	mbedtls_gcm_finish
 1763              	.LVL206:
 866:D:/Work/DeviceTester/amazon-freertos/lib/third_party/mbedtls/library\gcm.c ****                 goto exit;
 1764              		.loc 1 866 0
 1765 03b8 001050E2 		subs	r1, r0, #0
 1766 03bc 7AFFFF1A 		bne	.L82
 869:D:/Work/DeviceTester/amazon-freertos/lib/third_party/mbedtls/library\gcm.c ****                 memcmp( tag_buf, tag[j * 6 + i], 16 ) != 0 )
 1767              		.loc 1 869 0
 1768 03c0 DC319FE5 		ldr	r3, .L138+24
 1769 03c4 58008DE2 		add	r0, sp, #88
 1770              	.LVL207:
 1771 03c8 28109DE5 		ldr	r1, [sp, #40]
 1772              	.LVL208:
 1773 03cc 038094E7 		ldr	r8, [r4, r3]
 1774 03d0 0820A0E1 		mov	r2, r8
 1775 03d4 FEFFFFEB 		bl	memcmp
 1776              	.LVL209:
 1777 03d8 000050E3 		cmp	r0, #0
 1778 03dc 71FFFF1A 		bne	.L84
 870:D:/Work/DeviceTester/amazon-freertos/lib/third_party/mbedtls/library\gcm.c ****             {
 1779              		.loc 1 870 0 discriminator 1
 1780 03e0 1020A0E3 		mov	r2, #16
 1781 03e4 0B10A0E1 		mov	r1, fp
 1782 03e8 48008DE2 		add	r0, sp, #72
 1783 03ec FEFFFFEB 		bl	memcmp
 1784              	.LVL210:
 869:D:/Work/DeviceTester/amazon-freertos/lib/third_party/mbedtls/library\gcm.c ****                 memcmp( tag_buf, tag[j * 6 + i], 16 ) != 0 )
 1785              		.loc 1 869 0 discriminator 1
 1786 03f0 000050E3 		cmp	r0, #0
 1787 03f4 6BFFFF1A 		bne	.L84
 876:D:/Work/DeviceTester/amazon-freertos/lib/third_party/mbedtls/library\gcm.c **** 
 1788              		.loc 1 876 0
 1789 03f8 98008DE2 		add	r0, sp, #152
 1790 03fc FEFFFFEB 		bl	mbedtls_gcm_free
 1791              	.LVL211:
 878:D:/Work/DeviceTester/amazon-freertos/lib/third_party/mbedtls/library\gcm.c ****                 mbedtls_printf( "passed\n" );
 1792              		.loc 1 878 0
 1793 0400 000055E3 		cmp	r5, #0
 1794 0404 0100000A 		beq	.L92
 879:D:/Work/DeviceTester/amazon-freertos/lib/third_party/mbedtls/library\gcm.c **** 
 1795              		.loc 1 879 0
 1796 0408 C0019FE5 		ldr	r0, .L138+68
 1797 040c FEFFFFEB 		bl	puts
 1798              	.LVL212:
 1799              	.L92:
 881:D:/Work/DeviceTester/amazon-freertos/lib/third_party/mbedtls/library\gcm.c **** 
 1800              		.loc 1 881 0
 1801 0410 98008DE2 		add	r0, sp, #152
 1802 0414 FEFFFFEB 		bl	mbedtls_gcm_init
 1803              	.LVL213:
 883:D:/Work/DeviceTester/amazon-freertos/lib/third_party/mbedtls/library\gcm.c ****                 mbedtls_printf( "  AES-GCM-%3d #%d split (%s): ",
 1804              		.loc 1 883 0
 1805 0418 000055E3 		cmp	r5, #0
 1806 041c 0400000A 		beq	.L93
 884:D:/Work/DeviceTester/amazon-freertos/lib/third_party/mbedtls/library\gcm.c ****                                 key_len, i, "dec" );
 1807              		.loc 1 884 0
 1808 0420 AC319FE5 		ldr	r3, .L138+72
 1809 0424 0720A0E1 		mov	r2, r7
 1810 0428 0610A0E1 		mov	r1, r6
 1811 042c A4019FE5 		ldr	r0, .L138+76
 1812 0430 FEFFFFEB 		bl	printf
 1813              	.LVL214:
 1814              	.L93:
 887:D:/Work/DeviceTester/amazon-freertos/lib/third_party/mbedtls/library\gcm.c ****                                       key_len );
 1815              		.loc 1 887 0
 1816 0434 5C319FE5 		ldr	r3, .L138+12
 1817 0438 98008DE2 		add	r0, sp, #152
 1818 043c 58119FE5 		ldr	r1, .L138+16
 1819 0440 032094E7 		ldr	r2, [r4, r3]
 1820 0444 0630A0E1 		mov	r3, r6
 1821 0448 822281E0 		add	r2, r1, r2, lsl #5
 1822 044c 0210A0E3 		mov	r1, #2
 1823 0450 FEFFFFEB 		bl	mbedtls_gcm_setkey
 1824              	.LVL215:
 889:D:/Work/DeviceTester/amazon-freertos/lib/third_party/mbedtls/library\gcm.c ****                 goto exit;
 1825              		.loc 1 889 0
 1826 0454 001050E2 		subs	r1, r0, #0
 1827 0458 53FFFF1A 		bne	.L82
 893:D:/Work/DeviceTester/amazon-freertos/lib/third_party/mbedtls/library\gcm.c ****                               additional[add_index[i]], add_len[i] );
 1828              		.loc 1 893 0
 1829 045c 44319FE5 		ldr	r3, .L138+28
 1830 0460 030094E7 		ldr	r0, [r4, r3]
 1831              	.LVL216:
 892:D:/Work/DeviceTester/amazon-freertos/lib/third_party/mbedtls/library\gcm.c ****                               iv[iv_index[i]], iv_len[i],
 1832              		.loc 1 892 0
 1833 0464 50319FE5 		ldr	r3, .L138+48
 1834 0468 033094E7 		ldr	r3, [r4, r3]
 1835 046c 04308DE5 		str	r3, [sp, #4]
 894:D:/Work/DeviceTester/amazon-freertos/lib/third_party/mbedtls/library\gcm.c ****             if( ret != 0 )
 1836              		.loc 1 894 0
 1837 0470 3C319FE5 		ldr	r3, .L138+40
 1838 0474 032094E7 		ldr	r2, [r4, r3]
 1839 0478 38319FE5 		ldr	r3, .L138+44
 1840 047c 023383E0 		add	r3, r3, r2, lsl #6
 892:D:/Work/DeviceTester/amazon-freertos/lib/third_party/mbedtls/library\gcm.c ****                               iv[iv_index[i]], iv_len[i],
 1841              		.loc 1 892 0
 1842 0480 24219FE5 		ldr	r2, .L138+32
 1843 0484 00308DE5 		str	r3, [sp]
 1844 0488 20319FE5 		ldr	r3, .L138+36
 1845 048c 002382E0 		add	r2, r2, r0, lsl #6
 1846 0490 98008DE2 		add	r0, sp, #152
 1847 0494 033094E7 		ldr	r3, [r4, r3]
 1848 0498 FEFFFFEB 		bl	mbedtls_gcm_starts
 1849              	.LVL217:
 895:D:/Work/DeviceTester/amazon-freertos/lib/third_party/mbedtls/library\gcm.c ****                 goto exit;
 1850              		.loc 1 895 0
 1851 049c 001050E2 		subs	r1, r0, #0
 1852 04a0 41FFFF1A 		bne	.L82
 898:D:/Work/DeviceTester/amazon-freertos/lib/third_party/mbedtls/library\gcm.c ****             {
 1853              		.loc 1 898 0
 1854 04a4 200058E3 		cmp	r8, #32
 1855 04a8 3400009A 		bls	.L94
 1856              	.LBB24:
 901:D:/Work/DeviceTester/amazon-freertos/lib/third_party/mbedtls/library\gcm.c ****                 if( ret != 0 )
 1857              		.loc 1 901 0
 1858 04ac 2010A0E3 		mov	r1, #32
 1859 04b0 58308DE2 		add	r3, sp, #88
 1860 04b4 28209DE5 		ldr	r2, [sp, #40]
 1861 04b8 98008DE2 		add	r0, sp, #152
 1862              	.LVL218:
 1863 04bc FEFFFFEB 		bl	mbedtls_gcm_update
 1864              	.LVL219:
 902:D:/Work/DeviceTester/amazon-freertos/lib/third_party/mbedtls/library\gcm.c ****                     goto exit;
 1865              		.loc 1 902 0
 1866 04c0 001050E2 		subs	r1, r0, #0
 900:D:/Work/DeviceTester/amazon-freertos/lib/third_party/mbedtls/library\gcm.c ****                 ret = mbedtls_gcm_update( &ctx, 32, ct[j * 6 + i], buf );
 1867              		.loc 1 900 0
 1868 04c4 208048E2 		sub	r8, r8, #32
 1869              	.LVL220:
 902:D:/Work/DeviceTester/amazon-freertos/lib/third_party/mbedtls/library\gcm.c ****                     goto exit;
 1870              		.loc 1 902 0
 1871 04c8 37FFFF1A 		bne	.L82
 905:D:/Work/DeviceTester/amazon-freertos/lib/third_party/mbedtls/library\gcm.c ****                                           buf + 32 );
 1872              		.loc 1 905 0
 1873 04cc 30209DE5 		ldr	r2, [sp, #48]
 1874 04d0 78308DE2 		add	r3, sp, #120
 1875              	.LVL221:
 1876              	.L137:
 1877 04d4 0810A0E1 		mov	r1, r8
 1878 04d8 98008DE2 		add	r0, sp, #152
 1879              	.LVL222:
 1880 04dc FEFFFFEB 		bl	mbedtls_gcm_update
 1881              	.LVL223:
 907:D:/Work/DeviceTester/amazon-freertos/lib/third_party/mbedtls/library\gcm.c ****                     goto exit;
 1882              		.loc 1 907 0
 1883 04e0 001050E2 		subs	r1, r0, #0
 1884 04e4 30FFFF1A 		bne	.L82
 1885              	.LBE24:
 918:D:/Work/DeviceTester/amazon-freertos/lib/third_party/mbedtls/library\gcm.c ****             if( ret != 0 )
 1886              		.loc 1 918 0
 1887 04e8 48108DE2 		add	r1, sp, #72
 1888 04ec 1020A0E3 		mov	r2, #16
 1889 04f0 98008DE2 		add	r0, sp, #152
 1890              	.LVL224:
 1891 04f4 FEFFFFEB 		bl	mbedtls_gcm_finish
 1892              	.LVL225:
 919:D:/Work/DeviceTester/amazon-freertos/lib/third_party/mbedtls/library\gcm.c ****                 goto exit;
 1893              		.loc 1 919 0
 1894 04f8 001050E2 		subs	r1, r0, #0
 1895 04fc 2AFFFF1A 		bne	.L82
 922:D:/Work/DeviceTester/amazon-freertos/lib/third_party/mbedtls/library\gcm.c ****                 memcmp( tag_buf, tag[j * 6 + i], 16 ) != 0 )
 1896              		.loc 1 922 0
 1897 0500 B8309FE5 		ldr	r3, .L138+52
 1898 0504 58008DE2 		add	r0, sp, #88
 1899              	.LVL226:
 1900 0508 031094E7 		ldr	r1, [r4, r3]
 1901              	.LVL227:
 1902 050c 90309FE5 		ldr	r3, .L138+24
 1903 0510 032094E7 		ldr	r2, [r4, r3]
 1904 0514 A8309FE5 		ldr	r3, .L138+56
 1905 0518 011383E0 		add	r1, r3, r1, lsl #6
 1906 051c FEFFFFEB 		bl	memcmp
 1907              	.LVL228:
 1908 0520 000050E3 		cmp	r0, #0
 1909 0524 1FFFFF1A 		bne	.L84
 923:D:/Work/DeviceTester/amazon-freertos/lib/third_party/mbedtls/library\gcm.c ****             {
 1910              		.loc 1 923 0 discriminator 1
 1911 0528 1020A0E3 		mov	r2, #16
 1912 052c 0B10A0E1 		mov	r1, fp
 1913 0530 48008DE2 		add	r0, sp, #72
 1914 0534 FEFFFFEB 		bl	memcmp
 1915              	.LVL229:
 922:D:/Work/DeviceTester/amazon-freertos/lib/third_party/mbedtls/library\gcm.c ****                 memcmp( tag_buf, tag[j * 6 + i], 16 ) != 0 )
 1916              		.loc 1 922 0 discriminator 1
 1917 0538 000050E3 		cmp	r0, #0
 1918 053c 19FFFF1A 		bne	.L84
 929:D:/Work/DeviceTester/amazon-freertos/lib/third_party/mbedtls/library\gcm.c **** 
 1919              		.loc 1 929 0
 1920 0540 98008DE2 		add	r0, sp, #152
 1921 0544 FEFFFFEB 		bl	mbedtls_gcm_free
 1922              	.LVL230:
 931:D:/Work/DeviceTester/amazon-freertos/lib/third_party/mbedtls/library\gcm.c ****                 mbedtls_printf( "passed\n" );
 1923              		.loc 1 931 0
 1924 0548 000055E3 		cmp	r5, #0
 1925 054c 0100000A 		beq	.L97
 932:D:/Work/DeviceTester/amazon-freertos/lib/third_party/mbedtls/library\gcm.c ****         }
 1926              		.loc 1 932 0
 1927 0550 78009FE5 		ldr	r0, .L138+68
 1928 0554 FEFFFFEB 		bl	puts
 1929              	.LVL231:
 1930              	.L97:
 1931 0558 30309DE5 		ldr	r3, [sp, #48]
 752:D:/Work/DeviceTester/amazon-freertos/lib/third_party/mbedtls/library\gcm.c ****         {
 1932              		.loc 1 752 0 discriminator 2
 1933 055c 017087E2 		add	r7, r7, #1
 1934              	.LVL232:
 1935 0560 060057E3 		cmp	r7, #6
 1936 0564 403083E2 		add	r3, r3, #64
 1937 0568 30308DE5 		str	r3, [sp, #48]
 1938 056c AFFEFF1A 		bne	.L98
 1939 0570 C8FEFFEA 		b	.L81
 1940              	.LVL233:
 1941              	.L89:
 860:D:/Work/DeviceTester/amazon-freertos/lib/third_party/mbedtls/library\gcm.c ****                 if( ret != 0 )
 1942              		.loc 1 860 0
 1943 0574 58308DE2 		add	r3, sp, #88
 1944 0578 24209DE5 		ldr	r2, [sp, #36]
 1945 057c 84FFFFEA 		b	.L136
 1946              	.L94:
 912:D:/Work/DeviceTester/amazon-freertos/lib/third_party/mbedtls/library\gcm.c ****                                           buf );
 1947              		.loc 1 912 0
 1948 0580 58308DE2 		add	r3, sp, #88
 1949 0584 28209DE5 		ldr	r2, [sp, #40]
 1950 0588 D1FFFFEA 		b	.L137
 1951              	.L139:
 1952              		.align	2
 1953              	.L138:
 1954 058c 00000000 		.word	.LANCHOR1
 1955 0590 00000000 		.word	.LC0
 1956 0594 04000000 		.word	.LC1
 1957 0598 00000000 		.word	key_index
 1958 059c 00000000 		.word	.LANCHOR2
 1959 05a0 1D000000 		.word	.LC2
 1960 05a4 00000000 		.word	.LANCHOR3
 1961 05a8 00000000 		.word	.LANCHOR5
 1962 05ac 00000000 		.word	.LANCHOR4
 1963 05b0 00000000 		.word	.LANCHOR6
 1964 05b4 00000000 		.word	.LANCHOR8
 1965 05b8 00000000 		.word	.LANCHOR7
 1966 05bc 00000000 		.word	.LANCHOR9
 1967 05c0 00000000 		.word	.LANCHOR11
 1968 05c4 00000000 		.word	.LANCHOR10
 1969 05c8 4F000000 		.word	.LC6
 1970 05cc 00000000 		.word	.LANCHOR12
 1971 05d0 25000000 		.word	.LC3
 1972 05d4 2C000000 		.word	.LC4
 1973 05d8 30000000 		.word	.LC5
 1974              	.LBE26:
 1975              		.cfi_endproc
 1976              	.LFE18:
 1978              		.set	key_index,pt_index
 1979              		.section	.rodata.add_index,"a",%progbits
 1980              		.align	2
 1981              		.set	.LANCHOR8,. + 0
 1984              	add_index:
 1985 0000 00000000 		.word	0
 1986 0004 00000000 		.word	0
 1987 0008 00000000 		.word	0
 1988 000c 01000000 		.word	1
 1989 0010 01000000 		.word	1
 1990 0014 01000000 		.word	1
 1991              		.section	.rodata.add_len,"a",%progbits
 1992              		.align	2
 1993              		.set	.LANCHOR9,. + 0
 1996              	add_len:
 1997 0000 00000000 		.word	0
 1998 0004 00000000 		.word	0
 1999 0008 00000000 		.word	0
 2000 000c 14000000 		.word	20
 2001 0010 14000000 		.word	20
 2002 0014 14000000 		.word	20
 2003              		.section	.rodata.additional,"a",%progbits
 2004              		.set	.LANCHOR7,. + 0
 2007              	additional:
 2008 0000 00       		.byte	0
 2009 0001 00000000 		.space	63
 2009      00000000 
 2009      00000000 
 2009      00000000 
 2009      00000000 
 2010 0040 FE       		.byte	-2
 2011 0041 ED       		.byte	-19
 2012 0042 FA       		.byte	-6
 2013 0043 CE       		.byte	-50
 2014 0044 DE       		.byte	-34
 2015 0045 AD       		.byte	-83
 2016 0046 BE       		.byte	-66
 2017 0047 EF       		.byte	-17
 2018 0048 FE       		.byte	-2
 2019 0049 ED       		.byte	-19
 2020 004a FA       		.byte	-6
 2021 004b CE       		.byte	-50
 2022 004c DE       		.byte	-34
 2023 004d AD       		.byte	-83
 2024 004e BE       		.byte	-66
 2025 004f EF       		.byte	-17
 2026 0050 AB       		.byte	-85
 2027 0051 AD       		.byte	-83
 2028 0052 DA       		.byte	-38
 2029 0053 D2       		.byte	-46
 2030 0054 00000000 		.space	44
 2030      00000000 
 2030      00000000 
 2030      00000000 
 2030      00000000 
 2031 0080 00000000 		.space	256
 2031      00000000 
 2031      00000000 
 2031      00000000 
 2031      00000000 
 2032              		.section	.rodata.ct,"a",%progbits
 2033              		.set	.LANCHOR1,. + 0
 2036              	ct:
 2037 0000 00       		.byte	0
 2038 0001 00000000 		.space	63
 2038      00000000 
 2038      00000000 
 2038      00000000 
 2038      00000000 
 2039 0040 03       		.byte	3
 2040 0041 88       		.byte	-120
 2041 0042 DA       		.byte	-38
 2042 0043 CE       		.byte	-50
 2043 0044 60       		.byte	96
 2044 0045 B6       		.byte	-74
 2045 0046 A3       		.byte	-93
 2046 0047 92       		.byte	-110
 2047 0048 F3       		.byte	-13
 2048 0049 28       		.byte	40
 2049 004a C2       		.byte	-62
 2050 004b B9       		.byte	-71
 2051 004c 71       		.byte	113
 2052 004d B2       		.byte	-78
 2053 004e FE       		.byte	-2
 2054 004f 78       		.byte	120
 2055 0050 00000000 		.space	48
 2055      00000000 
 2055      00000000 
 2055      00000000 
 2055      00000000 
 2056 0080 42       		.byte	66
 2057 0081 83       		.byte	-125
 2058 0082 1E       		.byte	30
 2059 0083 C2       		.byte	-62
 2060 0084 21       		.byte	33
 2061 0085 77       		.byte	119
 2062 0086 74       		.byte	116
 2063 0087 24       		.byte	36
 2064 0088 4B       		.byte	75
 2065 0089 72       		.byte	114
 2066 008a 21       		.byte	33
 2067 008b B7       		.byte	-73
 2068 008c 84       		.byte	-124
 2069 008d D0       		.byte	-48
 2070 008e D4       		.byte	-44
 2071 008f 9C       		.byte	-100
 2072 0090 E3       		.byte	-29
 2073 0091 AA       		.byte	-86
 2074 0092 21       		.byte	33
 2075 0093 2F       		.byte	47
 2076 0094 2C       		.byte	44
 2077 0095 02       		.byte	2
 2078 0096 A4       		.byte	-92
 2079 0097 E0       		.byte	-32
 2080 0098 35       		.byte	53
 2081 0099 C1       		.byte	-63
 2082 009a 7E       		.byte	126
 2083 009b 23       		.byte	35
 2084 009c 29       		.byte	41
 2085 009d AC       		.byte	-84
 2086 009e A1       		.byte	-95
 2087 009f 2E       		.byte	46
 2088 00a0 21       		.byte	33
 2089 00a1 D5       		.byte	-43
 2090 00a2 14       		.byte	20
 2091 00a3 B2       		.byte	-78
 2092 00a4 54       		.byte	84
 2093 00a5 66       		.byte	102
 2094 00a6 93       		.byte	-109
 2095 00a7 1C       		.byte	28
 2096 00a8 7D       		.byte	125
 2097 00a9 8F       		.byte	-113
 2098 00aa 6A       		.byte	106
 2099 00ab 5A       		.byte	90
 2100 00ac AC       		.byte	-84
 2101 00ad 84       		.byte	-124
 2102 00ae AA       		.byte	-86
 2103 00af 05       		.byte	5
 2104 00b0 1B       		.byte	27
 2105 00b1 A3       		.byte	-93
 2106 00b2 0B       		.byte	11
 2107 00b3 39       		.byte	57
 2108 00b4 6A       		.byte	106
 2109 00b5 0A       		.byte	10
 2110 00b6 AC       		.byte	-84
 2111 00b7 97       		.byte	-105
 2112 00b8 3D       		.byte	61
 2113 00b9 58       		.byte	88
 2114 00ba E0       		.byte	-32
 2115 00bb 91       		.byte	-111
 2116 00bc 47       		.byte	71
 2117 00bd 3F       		.byte	63
 2118 00be 59       		.byte	89
 2119 00bf 85       		.byte	-123
 2120 00c0 42       		.byte	66
 2121 00c1 83       		.byte	-125
 2122 00c2 1E       		.byte	30
 2123 00c3 C2       		.byte	-62
 2124 00c4 21       		.byte	33
 2125 00c5 77       		.byte	119
 2126 00c6 74       		.byte	116
 2127 00c7 24       		.byte	36
 2128 00c8 4B       		.byte	75
 2129 00c9 72       		.byte	114
 2130 00ca 21       		.byte	33
 2131 00cb B7       		.byte	-73
 2132 00cc 84       		.byte	-124
 2133 00cd D0       		.byte	-48
 2134 00ce D4       		.byte	-44
 2135 00cf 9C       		.byte	-100
 2136 00d0 E3       		.byte	-29
 2137 00d1 AA       		.byte	-86
 2138 00d2 21       		.byte	33
 2139 00d3 2F       		.byte	47
 2140 00d4 2C       		.byte	44
 2141 00d5 02       		.byte	2
 2142 00d6 A4       		.byte	-92
 2143 00d7 E0       		.byte	-32
 2144 00d8 35       		.byte	53
 2145 00d9 C1       		.byte	-63
 2146 00da 7E       		.byte	126
 2147 00db 23       		.byte	35
 2148 00dc 29       		.byte	41
 2149 00dd AC       		.byte	-84
 2150 00de A1       		.byte	-95
 2151 00df 2E       		.byte	46
 2152 00e0 21       		.byte	33
 2153 00e1 D5       		.byte	-43
 2154 00e2 14       		.byte	20
 2155 00e3 B2       		.byte	-78
 2156 00e4 54       		.byte	84
 2157 00e5 66       		.byte	102
 2158 00e6 93       		.byte	-109
 2159 00e7 1C       		.byte	28
 2160 00e8 7D       		.byte	125
 2161 00e9 8F       		.byte	-113
 2162 00ea 6A       		.byte	106
 2163 00eb 5A       		.byte	90
 2164 00ec AC       		.byte	-84
 2165 00ed 84       		.byte	-124
 2166 00ee AA       		.byte	-86
 2167 00ef 05       		.byte	5
 2168 00f0 1B       		.byte	27
 2169 00f1 A3       		.byte	-93
 2170 00f2 0B       		.byte	11
 2171 00f3 39       		.byte	57
 2172 00f4 6A       		.byte	106
 2173 00f5 0A       		.byte	10
 2174 00f6 AC       		.byte	-84
 2175 00f7 97       		.byte	-105
 2176 00f8 3D       		.byte	61
 2177 00f9 58       		.byte	88
 2178 00fa E0       		.byte	-32
 2179 00fb 91       		.byte	-111
 2180 00fc 00000000 		.space	4
 2181 0100 61       		.byte	97
 2182 0101 35       		.byte	53
 2183 0102 3B       		.byte	59
 2184 0103 4C       		.byte	76
 2185 0104 28       		.byte	40
 2186 0105 06       		.byte	6
 2187 0106 93       		.byte	-109
 2188 0107 4A       		.byte	74
 2189 0108 77       		.byte	119
 2190 0109 7F       		.byte	127
 2191 010a F5       		.byte	-11
 2192 010b 1F       		.byte	31
 2193 010c A2       		.byte	-94
 2194 010d 2A       		.byte	42
 2195 010e 47       		.byte	71
 2196 010f 55       		.byte	85
 2197 0110 69       		.byte	105
 2198 0111 9B       		.byte	-101
 2199 0112 2A       		.byte	42
 2200 0113 71       		.byte	113
 2201 0114 4F       		.byte	79
 2202 0115 CD       		.byte	-51
 2203 0116 C6       		.byte	-58
 2204 0117 F8       		.byte	-8
 2205 0118 37       		.byte	55
 2206 0119 66       		.byte	102
 2207 011a E5       		.byte	-27
 2208 011b F9       		.byte	-7
 2209 011c 7B       		.byte	123
 2210 011d 6C       		.byte	108
 2211 011e 74       		.byte	116
 2212 011f 23       		.byte	35
 2213 0120 73       		.byte	115
 2214 0121 80       		.byte	-128
 2215 0122 69       		.byte	105
 2216 0123 00       		.byte	0
 2217 0124 E4       		.byte	-28
 2218 0125 9F       		.byte	-97
 2219 0126 24       		.byte	36
 2220 0127 B2       		.byte	-78
 2221 0128 2B       		.byte	43
 2222 0129 09       		.byte	9
 2223 012a 75       		.byte	117
 2224 012b 44       		.byte	68
 2225 012c D4       		.byte	-44
 2226 012d 89       		.byte	-119
 2227 012e 6B       		.byte	107
 2228 012f 42       		.byte	66
 2229 0130 49       		.byte	73
 2230 0131 89       		.byte	-119
 2231 0132 B5       		.byte	-75
 2232 0133 E1       		.byte	-31
 2233 0134 EB       		.byte	-21
 2234 0135 AC       		.byte	-84
 2235 0136 0F       		.byte	15
 2236 0137 07       		.byte	7
 2237 0138 C2       		.byte	-62
 2238 0139 3F       		.byte	63
 2239 013a 45       		.byte	69
 2240 013b 98       		.byte	-104
 2241 013c 00000000 		.space	4
 2242 0140 8C       		.byte	-116
 2243 0141 E2       		.byte	-30
 2244 0142 49       		.byte	73
 2245 0143 98       		.byte	-104
 2246 0144 62       		.byte	98
 2247 0145 56       		.byte	86
 2248 0146 15       		.byte	21
 2249 0147 B6       		.byte	-74
 2250 0148 03       		.byte	3
 2251 0149 A0       		.byte	-96
 2252 014a 33       		.byte	51
 2253 014b AC       		.byte	-84
 2254 014c A1       		.byte	-95
 2255 014d 3F       		.byte	63
 2256 014e B8       		.byte	-72
 2257 014f 94       		.byte	-108
 2258 0150 BE       		.byte	-66
 2259 0151 91       		.byte	-111
 2260 0152 12       		.byte	18
 2261 0153 A5       		.byte	-91
 2262 0154 C3       		.byte	-61
 2263 0155 A2       		.byte	-94
 2264 0156 11       		.byte	17
 2265 0157 A8       		.byte	-88
 2266 0158 BA       		.byte	-70
 2267 0159 26       		.byte	38
 2268 015a 2A       		.byte	42
 2269 015b 3C       		.byte	60
 2270 015c CA       		.byte	-54
 2271 015d 7E       		.byte	126
 2272 015e 2C       		.byte	44
 2273 015f A7       		.byte	-89
 2274 0160 01       		.byte	1
 2275 0161 E4       		.byte	-28
 2276 0162 A9       		.byte	-87
 2277 0163 A4       		.byte	-92
 2278 0164 FB       		.byte	-5
 2279 0165 A4       		.byte	-92
 2280 0166 3C       		.byte	60
 2281 0167 90       		.byte	-112
 2282 0168 CC       		.byte	-52
 2283 0169 DC       		.byte	-36
 2284 016a B2       		.byte	-78
 2285 016b 81       		.byte	-127
 2286 016c D4       		.byte	-44
 2287 016d 8C       		.byte	-116
 2288 016e 7C       		.byte	124
 2289 016f 6F       		.byte	111
 2290 0170 D6       		.byte	-42
 2291 0171 28       		.byte	40
 2292 0172 75       		.byte	117
 2293 0173 D2       		.byte	-46
 2294 0174 AC       		.byte	-84
 2295 0175 A4       		.byte	-92
 2296 0176 17       		.byte	23
 2297 0177 03       		.byte	3
 2298 0178 4C       		.byte	76
 2299 0179 34       		.byte	52
 2300 017a AE       		.byte	-82
 2301 017b E5       		.byte	-27
 2302 017c 00000000 		.space	4
 2303 0180 00       		.byte	0
 2304 0181 00000000 		.space	63
 2304      00000000 
 2304      00000000 
 2304      00000000 
 2304      00000000 
 2305 01c0 98       		.byte	-104
 2306 01c1 E7       		.byte	-25
 2307 01c2 24       		.byte	36
 2308 01c3 7C       		.byte	124
 2309 01c4 07       		.byte	7
 2310 01c5 F0       		.byte	-16
 2311 01c6 FE       		.byte	-2
 2312 01c7 41       		.byte	65
 2313 01c8 1C       		.byte	28
 2314 01c9 26       		.byte	38
 2315 01ca 7E       		.byte	126
 2316 01cb 43       		.byte	67
 2317 01cc 84       		.byte	-124
 2318 01cd B0       		.byte	-80
 2319 01ce F6       		.byte	-10
 2320 01cf 00       		.byte	0
 2321 01d0 00000000 		.space	48
 2321      00000000 
 2321      00000000 
 2321      00000000 
 2321      00000000 
 2322 0200 39       		.byte	57
 2323 0201 80       		.byte	-128
 2324 0202 CA       		.byte	-54
 2325 0203 0B       		.byte	11
 2326 0204 3C       		.byte	60
 2327 0205 00       		.byte	0
 2328 0206 E8       		.byte	-24
 2329 0207 41       		.byte	65
 2330 0208 EB       		.byte	-21
 2331 0209 06       		.byte	6
 2332 020a FA       		.byte	-6
 2333 020b C4       		.byte	-60
 2334 020c 87       		.byte	-121
 2335 020d 2A       		.byte	42
 2336 020e 27       		.byte	39
 2337 020f 57       		.byte	87
 2338 0210 85       		.byte	-123
 2339 0211 9E       		.byte	-98
 2340 0212 1C       		.byte	28
 2341 0213 EA       		.byte	-22
 2342 0214 A6       		.byte	-90
 2343 0215 EF       		.byte	-17
 2344 0216 D9       		.byte	-39
 2345 0217 84       		.byte	-124
 2346 0218 62       		.byte	98
 2347 0219 85       		.byte	-123
 2348 021a 93       		.byte	-109
 2349 021b B4       		.byte	-76
 2350 021c 0C       		.byte	12
 2351 021d A1       		.byte	-95
 2352 021e E1       		.byte	-31
 2353 021f 9C       		.byte	-100
 2354 0220 7D       		.byte	125
 2355 0221 77       		.byte	119
 2356 0222 3D       		.byte	61
 2357 0223 00       		.byte	0
 2358 0224 C1       		.byte	-63
 2359 0225 44       		.byte	68
 2360 0226 C5       		.byte	-59
 2361 0227 25       		.byte	37
 2362 0228 AC       		.byte	-84
 2363 0229 61       		.byte	97
 2364 022a 9D       		.byte	-99
 2365 022b 18       		.byte	24
 2366 022c C8       		.byte	-56
 2367 022d 4A       		.byte	74
 2368 022e 3F       		.byte	63
 2369 022f 47       		.byte	71
 2370 0230 18       		.byte	24
 2371 0231 E2       		.byte	-30
 2372 0232 44       		.byte	68
 2373 0233 8B       		.byte	-117
 2374 0234 2F       		.byte	47
 2375 0235 E3       		.byte	-29
 2376 0236 24       		.byte	36
 2377 0237 D9       		.byte	-39
 2378 0238 CC       		.byte	-52
 2379 0239 DA       		.byte	-38
 2380 023a 27       		.byte	39
 2381 023b 10       		.byte	16
 2382 023c AC       		.byte	-84
 2383 023d AD       		.byte	-83
 2384 023e E2       		.byte	-30
 2385 023f 56       		.byte	86
 2386 0240 39       		.byte	57
 2387 0241 80       		.byte	-128
 2388 0242 CA       		.byte	-54
 2389 0243 0B       		.byte	11
 2390 0244 3C       		.byte	60
 2391 0245 00       		.byte	0
 2392 0246 E8       		.byte	-24
 2393 0247 41       		.byte	65
 2394 0248 EB       		.byte	-21
 2395 0249 06       		.byte	6
 2396 024a FA       		.byte	-6
 2397 024b C4       		.byte	-60
 2398 024c 87       		.byte	-121
 2399 024d 2A       		.byte	42
 2400 024e 27       		.byte	39
 2401 024f 57       		.byte	87
 2402 0250 85       		.byte	-123
 2403 0251 9E       		.byte	-98
 2404 0252 1C       		.byte	28
 2405 0253 EA       		.byte	-22
 2406 0254 A6       		.byte	-90
 2407 0255 EF       		.byte	-17
 2408 0256 D9       		.byte	-39
 2409 0257 84       		.byte	-124
 2410 0258 62       		.byte	98
 2411 0259 85       		.byte	-123
 2412 025a 93       		.byte	-109
 2413 025b B4       		.byte	-76
 2414 025c 0C       		.byte	12
 2415 025d A1       		.byte	-95
 2416 025e E1       		.byte	-31
 2417 025f 9C       		.byte	-100
 2418 0260 7D       		.byte	125
 2419 0261 77       		.byte	119
 2420 0262 3D       		.byte	61
 2421 0263 00       		.byte	0
 2422 0264 C1       		.byte	-63
 2423 0265 44       		.byte	68
 2424 0266 C5       		.byte	-59
 2425 0267 25       		.byte	37
 2426 0268 AC       		.byte	-84
 2427 0269 61       		.byte	97
 2428 026a 9D       		.byte	-99
 2429 026b 18       		.byte	24
 2430 026c C8       		.byte	-56
 2431 026d 4A       		.byte	74
 2432 026e 3F       		.byte	63
 2433 026f 47       		.byte	71
 2434 0270 18       		.byte	24
 2435 0271 E2       		.byte	-30
 2436 0272 44       		.byte	68
 2437 0273 8B       		.byte	-117
 2438 0274 2F       		.byte	47
 2439 0275 E3       		.byte	-29
 2440 0276 24       		.byte	36
 2441 0277 D9       		.byte	-39
 2442 0278 CC       		.byte	-52
 2443 0279 DA       		.byte	-38
 2444 027a 27       		.byte	39
 2445 027b 10       		.byte	16
 2446 027c 00000000 		.space	4
 2447 0280 0F       		.byte	15
 2448 0281 10       		.byte	16
 2449 0282 F5       		.byte	-11
 2450 0283 99       		.byte	-103
 2451 0284 AE       		.byte	-82
 2452 0285 14       		.byte	20
 2453 0286 A1       		.byte	-95
 2454 0287 54       		.byte	84
 2455 0288 ED       		.byte	-19
 2456 0289 24       		.byte	36
 2457 028a B3       		.byte	-77
 2458 028b 6E       		.byte	110
 2459 028c 25       		.byte	37
 2460 028d 32       		.byte	50
 2461 028e 4D       		.byte	77
 2462 028f B8       		.byte	-72
 2463 0290 C5       		.byte	-59
 2464 0291 66       		.byte	102
 2465 0292 63       		.byte	99
 2466 0293 2E       		.byte	46
 2467 0294 F2       		.byte	-14
 2468 0295 BB       		.byte	-69
 2469 0296 B3       		.byte	-77
 2470 0297 4F       		.byte	79
 2471 0298 83       		.byte	-125
 2472 0299 47       		.byte	71
 2473 029a 28       		.byte	40
 2474 029b 0F       		.byte	15
 2475 029c C4       		.byte	-60
 2476 029d 50       		.byte	80
 2477 029e 70       		.byte	112
 2478 029f 57       		.byte	87
 2479 02a0 FD       		.byte	-3
 2480 02a1 DC       		.byte	-36
 2481 02a2 29       		.byte	41
 2482 02a3 DF       		.byte	-33
 2483 02a4 9A       		.byte	-102
 2484 02a5 47       		.byte	71
 2485 02a6 1F       		.byte	31
 2486 02a7 75       		.byte	117
 2487 02a8 C6       		.byte	-58
 2488 02a9 65       		.byte	101
 2489 02aa 41       		.byte	65
 2490 02ab D4       		.byte	-44
 2491 02ac D4       		.byte	-44
 2492 02ad DA       		.byte	-38
 2493 02ae D1       		.byte	-47
 2494 02af C9       		.byte	-55
 2495 02b0 E9       		.byte	-23
 2496 02b1 3A       		.byte	58
 2497 02b2 19       		.byte	25
 2498 02b3 A5       		.byte	-91
 2499 02b4 8E       		.byte	-114
 2500 02b5 8B       		.byte	-117
 2501 02b6 47       		.byte	71
 2502 02b7 3F       		.byte	63
 2503 02b8 A0       		.byte	-96
 2504 02b9 F0       		.byte	-16
 2505 02ba 62       		.byte	98
 2506 02bb F7       		.byte	-9
 2507 02bc 00000000 		.space	4
 2508 02c0 D2       		.byte	-46
 2509 02c1 7E       		.byte	126
 2510 02c2 88       		.byte	-120
 2511 02c3 68       		.byte	104
 2512 02c4 1C       		.byte	28
 2513 02c5 E3       		.byte	-29
 2514 02c6 24       		.byte	36
 2515 02c7 3C       		.byte	60
 2516 02c8 48       		.byte	72
 2517 02c9 30       		.byte	48
 2518 02ca 16       		.byte	22
 2519 02cb 5A       		.byte	90
 2520 02cc 8F       		.byte	-113
 2521 02cd DC       		.byte	-36
 2522 02ce F9       		.byte	-7
 2523 02cf FF       		.byte	-1
 2524 02d0 1D       		.byte	29
 2525 02d1 E9       		.byte	-23
 2526 02d2 A1       		.byte	-95
 2527 02d3 D8       		.byte	-40
 2528 02d4 E6       		.byte	-26
 2529 02d5 B4       		.byte	-76
 2530 02d6 47       		.byte	71
 2531 02d7 EF       		.byte	-17
 2532 02d8 6E       		.byte	110
 2533 02d9 F7       		.byte	-9
 2534 02da B7       		.byte	-73
 2535 02db 98       		.byte	-104
 2536 02dc 28       		.byte	40
 2537 02dd 66       		.byte	102
 2538 02de 6E       		.byte	110
 2539 02df 45       		.byte	69
 2540 02e0 81       		.byte	-127
 2541 02e1 E7       		.byte	-25
 2542 02e2 90       		.byte	-112
 2543 02e3 12       		.byte	18
 2544 02e4 AF       		.byte	-81
 2545 02e5 34       		.byte	52
 2546 02e6 DD       		.byte	-35
 2547 02e7 D9       		.byte	-39
 2548 02e8 E2       		.byte	-30
 2549 02e9 F0       		.byte	-16
 2550 02ea 37       		.byte	55
 2551 02eb 58       		.byte	88
 2552 02ec 9B       		.byte	-101
 2553 02ed 29       		.byte	41
 2554 02ee 2D       		.byte	45
 2555 02ef B3       		.byte	-77
 2556 02f0 E6       		.byte	-26
 2557 02f1 7C       		.byte	124
 2558 02f2 03       		.byte	3
 2559 02f3 67       		.byte	103
 2560 02f4 45       		.byte	69
 2561 02f5 FA       		.byte	-6
 2562 02f6 22       		.byte	34
 2563 02f7 E7       		.byte	-25
 2564 02f8 E9       		.byte	-23
 2565 02f9 B7       		.byte	-73
 2566 02fa 37       		.byte	55
 2567 02fb 3B       		.byte	59
 2568 02fc 00000000 		.space	4
 2569 0300 00       		.byte	0
 2570 0301 00000000 		.space	63
 2570      00000000 
 2570      00000000 
 2570      00000000 
 2570      00000000 
 2571 0340 CE       		.byte	-50
 2572 0341 A7       		.byte	-89
 2573 0342 40       		.byte	64
 2574 0343 3D       		.byte	61
 2575 0344 4D       		.byte	77
 2576 0345 60       		.byte	96
 2577 0346 6B       		.byte	107
 2578 0347 6E       		.byte	110
 2579 0348 07       		.byte	7
 2580 0349 4E       		.byte	78
 2581 034a C5       		.byte	-59
 2582 034b D3       		.byte	-45
 2583 034c BA       		.byte	-70
 2584 034d F3       		.byte	-13
 2585 034e 9D       		.byte	-99
 2586 034f 18       		.byte	24
 2587 0350 00000000 		.space	48
 2587      00000000 
 2587      00000000 
 2587      00000000 
 2587      00000000 
 2588 0380 52       		.byte	82
 2589 0381 2D       		.byte	45
 2590 0382 C1       		.byte	-63
 2591 0383 F0       		.byte	-16
 2592 0384 99       		.byte	-103
 2593 0385 56       		.byte	86
 2594 0386 7D       		.byte	125
 2595 0387 07       		.byte	7
 2596 0388 F4       		.byte	-12
 2597 0389 7F       		.byte	127
 2598 038a 37       		.byte	55
 2599 038b A3       		.byte	-93
 2600 038c 2A       		.byte	42
 2601 038d 84       		.byte	-124
 2602 038e 42       		.byte	66
 2603 038f 7D       		.byte	125
 2604 0390 64       		.byte	100
 2605 0391 3A       		.byte	58
 2606 0392 8C       		.byte	-116
 2607 0393 DC       		.byte	-36
 2608 0394 BF       		.byte	-65
 2609 0395 E5       		.byte	-27
 2610 0396 C0       		.byte	-64
 2611 0397 C9       		.byte	-55
 2612 0398 75       		.byte	117
 2613 0399 98       		.byte	-104
 2614 039a A2       		.byte	-94
 2615 039b BD       		.byte	-67
 2616 039c 25       		.byte	37
 2617 039d 55       		.byte	85
 2618 039e D1       		.byte	-47
 2619 039f AA       		.byte	-86
 2620 03a0 8C       		.byte	-116
 2621 03a1 B0       		.byte	-80
 2622 03a2 8E       		.byte	-114
 2623 03a3 48       		.byte	72
 2624 03a4 59       		.byte	89
 2625 03a5 0D       		.byte	13
 2626 03a6 BB       		.byte	-69
 2627 03a7 3D       		.byte	61
 2628 03a8 A7       		.byte	-89
 2629 03a9 B0       		.byte	-80
 2630 03aa 8B       		.byte	-117
 2631 03ab 10       		.byte	16
 2632 03ac 56       		.byte	86
 2633 03ad 82       		.byte	-126
 2634 03ae 88       		.byte	-120
 2635 03af 38       		.byte	56
 2636 03b0 C5       		.byte	-59
 2637 03b1 F6       		.byte	-10
 2638 03b2 1E       		.byte	30
 2639 03b3 63       		.byte	99
 2640 03b4 93       		.byte	-109
 2641 03b5 BA       		.byte	-70
 2642 03b6 7A       		.byte	122
 2643 03b7 0A       		.byte	10
 2644 03b8 BC       		.byte	-68
 2645 03b9 C9       		.byte	-55
 2646 03ba F6       		.byte	-10
 2647 03bb 62       		.byte	98
 2648 03bc 89       		.byte	-119
 2649 03bd 80       		.byte	-128
 2650 03be 15       		.byte	21
 2651 03bf AD       		.byte	-83
 2652 03c0 52       		.byte	82
 2653 03c1 2D       		.byte	45
 2654 03c2 C1       		.byte	-63
 2655 03c3 F0       		.byte	-16
 2656 03c4 99       		.byte	-103
 2657 03c5 56       		.byte	86
 2658 03c6 7D       		.byte	125
 2659 03c7 07       		.byte	7
 2660 03c8 F4       		.byte	-12
 2661 03c9 7F       		.byte	127
 2662 03ca 37       		.byte	55
 2663 03cb A3       		.byte	-93
 2664 03cc 2A       		.byte	42
 2665 03cd 84       		.byte	-124
 2666 03ce 42       		.byte	66
 2667 03cf 7D       		.byte	125
 2668 03d0 64       		.byte	100
 2669 03d1 3A       		.byte	58
 2670 03d2 8C       		.byte	-116
 2671 03d3 DC       		.byte	-36
 2672 03d4 BF       		.byte	-65
 2673 03d5 E5       		.byte	-27
 2674 03d6 C0       		.byte	-64
 2675 03d7 C9       		.byte	-55
 2676 03d8 75       		.byte	117
 2677 03d9 98       		.byte	-104
 2678 03da A2       		.byte	-94
 2679 03db BD       		.byte	-67
 2680 03dc 25       		.byte	37
 2681 03dd 55       		.byte	85
 2682 03de D1       		.byte	-47
 2683 03df AA       		.byte	-86
 2684 03e0 8C       		.byte	-116
 2685 03e1 B0       		.byte	-80
 2686 03e2 8E       		.byte	-114
 2687 03e3 48       		.byte	72
 2688 03e4 59       		.byte	89
 2689 03e5 0D       		.byte	13
 2690 03e6 BB       		.byte	-69
 2691 03e7 3D       		.byte	61
 2692 03e8 A7       		.byte	-89
 2693 03e9 B0       		.byte	-80
 2694 03ea 8B       		.byte	-117
 2695 03eb 10       		.byte	16
 2696 03ec 56       		.byte	86
 2697 03ed 82       		.byte	-126
 2698 03ee 88       		.byte	-120
 2699 03ef 38       		.byte	56
 2700 03f0 C5       		.byte	-59
 2701 03f1 F6       		.byte	-10
 2702 03f2 1E       		.byte	30
 2703 03f3 63       		.byte	99
 2704 03f4 93       		.byte	-109
 2705 03f5 BA       		.byte	-70
 2706 03f6 7A       		.byte	122
 2707 03f7 0A       		.byte	10
 2708 03f8 BC       		.byte	-68
 2709 03f9 C9       		.byte	-55
 2710 03fa F6       		.byte	-10
 2711 03fb 62       		.byte	98
 2712 03fc 00000000 		.space	4
 2713 0400 C3       		.byte	-61
 2714 0401 76       		.byte	118
 2715 0402 2D       		.byte	45
 2716 0403 F1       		.byte	-15
 2717 0404 CA       		.byte	-54
 2718 0405 78       		.byte	120
 2719 0406 7D       		.byte	125
 2720 0407 32       		.byte	50
 2721 0408 AE       		.byte	-82
 2722 0409 47       		.byte	71
 2723 040a C1       		.byte	-63
 2724 040b 3B       		.byte	59
 2725 040c F1       		.byte	-15
 2726 040d 98       		.byte	-104
 2727 040e 44       		.byte	68
 2728 040f CB       		.byte	-53
 2729 0410 AF       		.byte	-81
 2730 0411 1A       		.byte	26
 2731 0412 E1       		.byte	-31
 2732 0413 4D       		.byte	77
 2733 0414 0B       		.byte	11
 2734 0415 97       		.byte	-105
 2735 0416 6A       		.byte	106
 2736 0417 FA       		.byte	-6
 2737 0418 C5       		.byte	-59
 2738 0419 2F       		.byte	47
 2739 041a F7       		.byte	-9
 2740 041b D7       		.byte	-41
 2741 041c 9B       		.byte	-101
 2742 041d BA       		.byte	-70
 2743 041e 9D       		.byte	-99
 2744 041f E0       		.byte	-32
 2745 0420 FE       		.byte	-2
 2746 0421 B5       		.byte	-75
 2747 0422 82       		.byte	-126
 2748 0423 D3       		.byte	-45
 2749 0424 39       		.byte	57
 2750 0425 34       		.byte	52
 2751 0426 A4       		.byte	-92
 2752 0427 F0       		.byte	-16
 2753 0428 95       		.byte	-107
 2754 0429 4C       		.byte	76
 2755 042a C2       		.byte	-62
 2756 042b 36       		.byte	54
 2757 042c 3B       		.byte	59
 2758 042d C7       		.byte	-57
 2759 042e 3F       		.byte	63
 2760 042f 78       		.byte	120
 2761 0430 62       		.byte	98
 2762 0431 AC       		.byte	-84
 2763 0432 43       		.byte	67
 2764 0433 0E       		.byte	14
 2765 0434 64       		.byte	100
 2766 0435 AB       		.byte	-85
 2767 0436 E4       		.byte	-28
 2768 0437 99       		.byte	-103
 2769 0438 F4       		.byte	-12
 2770 0439 7C       		.byte	124
 2771 043a 9B       		.byte	-101
 2772 043b 1F       		.byte	31
 2773 043c 00000000 		.space	4
 2774 0440 5A       		.byte	90
 2775 0441 8D       		.byte	-115
 2776 0442 EF       		.byte	-17
 2777 0443 2F       		.byte	47
 2778 0444 0C       		.byte	12
 2779 0445 9E       		.byte	-98
 2780 0446 53       		.byte	83
 2781 0447 F1       		.byte	-15
 2782 0448 F7       		.byte	-9
 2783 0449 5D       		.byte	93
 2784 044a 78       		.byte	120
 2785 044b 53       		.byte	83
 2786 044c 65       		.byte	101
 2787 044d 9E       		.byte	-98
 2788 044e 2A       		.byte	42
 2789 044f 20       		.byte	32
 2790 0450 EE       		.byte	-18
 2791 0451 B2       		.byte	-78
 2792 0452 B2       		.byte	-78
 2793 0453 2A       		.byte	42
 2794 0454 AF       		.byte	-81
 2795 0455 DE       		.byte	-34
 2796 0456 64       		.byte	100
 2797 0457 19       		.byte	25
 2798 0458 A0       		.byte	-96
 2799 0459 58       		.byte	88
 2800 045a AB       		.byte	-85
 2801 045b 4F       		.byte	79
 2802 045c 6F       		.byte	111
 2803 045d 74       		.byte	116
 2804 045e 6B       		.byte	107
 2805 045f F4       		.byte	-12
 2806 0460 0F       		.byte	15
 2807 0461 C0       		.byte	-64
 2808 0462 C3       		.byte	-61
 2809 0463 B7       		.byte	-73
 2810 0464 80       		.byte	-128
 2811 0465 F2       		.byte	-14
 2812 0466 44       		.byte	68
 2813 0467 45       		.byte	69
 2814 0468 2D       		.byte	45
 2815 0469 A3       		.byte	-93
 2816 046a EB       		.byte	-21
 2817 046b F1       		.byte	-15
 2818 046c C5       		.byte	-59
 2819 046d D8       		.byte	-40
 2820 046e 2C       		.byte	44
 2821 046f DE       		.byte	-34
 2822 0470 A2       		.byte	-94
 2823 0471 41       		.byte	65
 2824 0472 89       		.byte	-119
 2825 0473 97       		.byte	-105
 2826 0474 20       		.byte	32
 2827 0475 0E       		.byte	14
 2828 0476 F8       		.byte	-8
 2829 0477 2E       		.byte	46
 2830 0478 44       		.byte	68
 2831 0479 AE       		.byte	-82
 2832 047a 7E       		.byte	126
 2833 047b 3F       		.byte	63
 2834 047c 00000000 		.space	4
 2835              		.section	.rodata.iv,"a",%progbits
 2836              		.set	.LANCHOR4,. + 0
 2839              	iv:
 2840 0000 00       		.byte	0
 2841 0001 00       		.byte	0
 2842 0002 00       		.byte	0
 2843 0003 00       		.byte	0
 2844 0004 00       		.byte	0
 2845 0005 00       		.byte	0
 2846 0006 00       		.byte	0
 2847 0007 00       		.byte	0
 2848 0008 00       		.byte	0
 2849 0009 00       		.byte	0
 2850 000a 00       		.byte	0
 2851 000b 00       		.byte	0
 2852 000c 00000000 		.space	52
 2852      00000000 
 2852      00000000 
 2852      00000000 
 2852      00000000 
 2853 0040 CA       		.byte	-54
 2854 0041 FE       		.byte	-2
 2855 0042 BA       		.byte	-70
 2856 0043 BE       		.byte	-66
 2857 0044 FA       		.byte	-6
 2858 0045 CE       		.byte	-50
 2859 0046 DB       		.byte	-37
 2860 0047 AD       		.byte	-83
 2861 0048 DE       		.byte	-34
 2862 0049 CA       		.byte	-54
 2863 004a F8       		.byte	-8
 2864 004b 88       		.byte	-120
 2865 004c 00000000 		.space	52
 2865      00000000 
 2865      00000000 
 2865      00000000 
 2865      00000000 
 2866 0080 93       		.byte	-109
 2867 0081 13       		.byte	19
 2868 0082 22       		.byte	34
 2869 0083 5D       		.byte	93
 2870 0084 F8       		.byte	-8
 2871 0085 84       		.byte	-124
 2872 0086 06       		.byte	6
 2873 0087 E5       		.byte	-27
 2874 0088 55       		.byte	85
 2875 0089 90       		.byte	-112
 2876 008a 9C       		.byte	-100
 2877 008b 5A       		.byte	90
 2878 008c FF       		.byte	-1
 2879 008d 52       		.byte	82
 2880 008e 69       		.byte	105
 2881 008f AA       		.byte	-86
 2882 0090 6A       		.byte	106
 2883 0091 7A       		.byte	122
 2884 0092 95       		.byte	-107
 2885 0093 38       		.byte	56
 2886 0094 53       		.byte	83
 2887 0095 4F       		.byte	79
 2888 0096 7D       		.byte	125
 2889 0097 A1       		.byte	-95
 2890 0098 E4       		.byte	-28
 2891 0099 C3       		.byte	-61
 2892 009a 03       		.byte	3
 2893 009b D2       		.byte	-46
 2894 009c A3       		.byte	-93
 2895 009d 18       		.byte	24
 2896 009e A7       		.byte	-89
 2897 009f 28       		.byte	40
 2898 00a0 C3       		.byte	-61
 2899 00a1 C0       		.byte	-64
 2900 00a2 C9       		.byte	-55
 2901 00a3 51       		.byte	81
 2902 00a4 56       		.byte	86
 2903 00a5 80       		.byte	-128
 2904 00a6 95       		.byte	-107
 2905 00a7 39       		.byte	57
 2906 00a8 FC       		.byte	-4
 2907 00a9 F0       		.byte	-16
 2908 00aa E2       		.byte	-30
 2909 00ab 42       		.byte	66
 2910 00ac 9A       		.byte	-102
 2911 00ad 6B       		.byte	107
 2912 00ae 52       		.byte	82
 2913 00af 54       		.byte	84
 2914 00b0 16       		.byte	22
 2915 00b1 AE       		.byte	-82
 2916 00b2 DB       		.byte	-37
 2917 00b3 F5       		.byte	-11
 2918 00b4 A0       		.byte	-96
 2919 00b5 DE       		.byte	-34
 2920 00b6 6A       		.byte	106
 2921 00b7 57       		.byte	87
 2922 00b8 A6       		.byte	-90
 2923 00b9 37       		.byte	55
 2924 00ba B3       		.byte	-77
 2925 00bb 9B       		.byte	-101
 2926 00bc 00000000 		.space	4
 2927 00c0 00000000 		.space	192
 2927      00000000 
 2927      00000000 
 2927      00000000 
 2927      00000000 
 2928              		.section	.rodata.iv_index,"a",%progbits
 2929              		.align	2
 2930              		.set	.LANCHOR5,. + 0
 2933              	iv_index:
 2934 0000 00000000 		.word	0
 2935 0004 00000000 		.word	0
 2936 0008 01000000 		.word	1
 2937 000c 01000000 		.word	1
 2938 0010 01000000 		.word	1
 2939 0014 02000000 		.word	2
 2940              		.section	.rodata.iv_len,"a",%progbits
 2941              		.align	2
 2942              		.set	.LANCHOR6,. + 0
 2945              	iv_len:
 2946 0000 0C000000 		.word	12
 2947 0004 0C000000 		.word	12
 2948 0008 0C000000 		.word	12
 2949 000c 0C000000 		.word	12
 2950 0010 08000000 		.word	8
 2951 0014 3C000000 		.word	60
 2952              		.section	.rodata.key,"a",%progbits
 2953              		.set	.LANCHOR2,. + 0
 2956              	key:
 2957 0000 00       		.byte	0
 2958 0001 00       		.byte	0
 2959 0002 00       		.byte	0
 2960 0003 00       		.byte	0
 2961 0004 00       		.byte	0
 2962 0005 00       		.byte	0
 2963 0006 00       		.byte	0
 2964 0007 00       		.byte	0
 2965 0008 00       		.byte	0
 2966 0009 00       		.byte	0
 2967 000a 00       		.byte	0
 2968 000b 00       		.byte	0
 2969 000c 00       		.byte	0
 2970 000d 00       		.byte	0
 2971 000e 00       		.byte	0
 2972 000f 00       		.byte	0
 2973 0010 00       		.byte	0
 2974 0011 00       		.byte	0
 2975 0012 00       		.byte	0
 2976 0013 00       		.byte	0
 2977 0014 00       		.byte	0
 2978 0015 00       		.byte	0
 2979 0016 00       		.byte	0
 2980 0017 00       		.byte	0
 2981 0018 00       		.byte	0
 2982 0019 00       		.byte	0
 2983 001a 00       		.byte	0
 2984 001b 00       		.byte	0
 2985 001c 00       		.byte	0
 2986 001d 00       		.byte	0
 2987 001e 00       		.byte	0
 2988 001f 00       		.byte	0
 2989 0020 FE       		.byte	-2
 2990 0021 FF       		.byte	-1
 2991 0022 E9       		.byte	-23
 2992 0023 92       		.byte	-110
 2993 0024 86       		.byte	-122
 2994 0025 65       		.byte	101
 2995 0026 73       		.byte	115
 2996 0027 1C       		.byte	28
 2997 0028 6D       		.byte	109
 2998 0029 6A       		.byte	106
 2999 002a 8F       		.byte	-113
 3000 002b 94       		.byte	-108
 3001 002c 67       		.byte	103
 3002 002d 30       		.byte	48
 3003 002e 83       		.byte	-125
 3004 002f 08       		.byte	8
 3005 0030 FE       		.byte	-2
 3006 0031 FF       		.byte	-1
 3007 0032 E9       		.byte	-23
 3008 0033 92       		.byte	-110
 3009 0034 86       		.byte	-122
 3010 0035 65       		.byte	101
 3011 0036 73       		.byte	115
 3012 0037 1C       		.byte	28
 3013 0038 6D       		.byte	109
 3014 0039 6A       		.byte	106
 3015 003a 8F       		.byte	-113
 3016 003b 94       		.byte	-108
 3017 003c 67       		.byte	103
 3018 003d 30       		.byte	48
 3019 003e 83       		.byte	-125
 3020 003f 08       		.byte	8
 3021 0040 00000000 		.space	128
 3021      00000000 
 3021      00000000 
 3021      00000000 
 3021      00000000 
 3022              		.section	.rodata.last4,"a",%progbits
 3023              		.align	3
 3024              		.set	.LANCHOR0,. + 0
 3027              	last4:
 3028 0000 00000000 		.word	0
 3029 0004 00000000 		.word	0
 3030 0008 201C0000 		.word	7200
 3031 000c 00000000 		.word	0
 3032 0010 40380000 		.word	14400
 3033 0014 00000000 		.word	0
 3034 0018 60240000 		.word	9312
 3035 001c 00000000 		.word	0
 3036 0020 80700000 		.word	28800
 3037 0024 00000000 		.word	0
 3038 0028 A06C0000 		.word	27808
 3039 002c 00000000 		.word	0
 3040 0030 C0480000 		.word	18624
 3041 0034 00000000 		.word	0
 3042 0038 E0540000 		.word	21728
 3043 003c 00000000 		.word	0
 3044 0040 00E10000 		.word	57600
 3045 0044 00000000 		.word	0
 3046 0048 20FD0000 		.word	64800
 3047 004c 00000000 		.word	0
 3048 0050 40D90000 		.word	55616
 3049 0054 00000000 		.word	0
 3050 0058 60C50000 		.word	50528
 3051 005c 00000000 		.word	0
 3052 0060 80910000 		.word	37248
 3053 0064 00000000 		.word	0
 3054 0068 A08D0000 		.word	36256
 3055 006c 00000000 		.word	0
 3056 0070 C0A90000 		.word	43456
 3057 0074 00000000 		.word	0
 3058 0078 E0B50000 		.word	46560
 3059 007c 00000000 		.word	0
 3060              		.section	.rodata.mbedtls_gcm_self_test.str1.1,"aMS",%progbits,1
 3061              	.LC0:
 3062 0000 656E6300 		.ascii	"enc\000"
 3063              	.LC1:
 3064 0004 20204145 		.ascii	"  AES-GCM-%3d #%d (%s): \000"
 3064      532D4743 
 3064      4D2D2533 
 3064      64202325 
 3064      64202825 
 3065              	.LC2:
 3066 001d 736B6970 		.ascii	"skipped\000"
 3066      70656400 
 3067              	.LC3:
 3068 0025 70617373 		.ascii	"passed\000"
 3068      656400
 3069              	.LC4:
 3070 002c 64656300 		.ascii	"dec\000"
 3071              	.LC5:
 3072 0030 20204145 		.ascii	"  AES-GCM-%3d #%d split (%s): \000"
 3072      532D4743 
 3072      4D2D2533 
 3072      64202325 
 3072      64207370 
 3073              	.LC6:
 3074 004f 6661696C 		.ascii	"failed\000"
 3074      656400
 3075              		.section	.rodata.pt,"a",%progbits
 3076              		.set	.LANCHOR10,. + 0
 3079              	pt:
 3080 0000 00       		.byte	0
 3081 0001 00       		.byte	0
 3082 0002 00       		.byte	0
 3083 0003 00       		.byte	0
 3084 0004 00       		.byte	0
 3085 0005 00       		.byte	0
 3086 0006 00       		.byte	0
 3087 0007 00       		.byte	0
 3088 0008 00       		.byte	0
 3089 0009 00       		.byte	0
 3090 000a 00       		.byte	0
 3091 000b 00       		.byte	0
 3092 000c 00       		.byte	0
 3093 000d 00       		.byte	0
 3094 000e 00       		.byte	0
 3095 000f 00       		.byte	0
 3096 0010 00000000 		.space	48
 3096      00000000 
 3096      00000000 
 3096      00000000 
 3096      00000000 
 3097 0040 D9       		.byte	-39
 3098 0041 31       		.byte	49
 3099 0042 32       		.byte	50
 3100 0043 25       		.byte	37
 3101 0044 F8       		.byte	-8
 3102 0045 84       		.byte	-124
 3103 0046 06       		.byte	6
 3104 0047 E5       		.byte	-27
 3105 0048 A5       		.byte	-91
 3106 0049 59       		.byte	89
 3107 004a 09       		.byte	9
 3108 004b C5       		.byte	-59
 3109 004c AF       		.byte	-81
