   1              		.cpu cortex-a9
   2              		.eabi_attribute 28, 1
   3              		.eabi_attribute 20, 1
   4              		.eabi_attribute 21, 1
   5              		.eabi_attribute 23, 3
   6              		.eabi_attribute 24, 1
   7              		.eabi_attribute 25, 1
   8              		.eabi_attribute 26, 1
   9              		.eabi_attribute 30, 4
  10              		.eabi_attribute 34, 0
  11              		.eabi_attribute 18, 4
  12              		.file	"md.c"
  13              		.text
  14              	.Ltext0:
  15              		.cfi_sections	.debug_frame
  16              		.section	.text.mbedtls_md_list,"ax",%progbits
  17              		.align	2
  18              		.global	mbedtls_md_list
  19              		.syntax unified
  20              		.arm
  21              		.fpu neon
  23              	mbedtls_md_list:
  24              	.LFB1:
  25              		.file 1 "D:/Work/DeviceTester/amazon-freertos/lib/third_party/mbedtls/library/md.c"
   1:D:/Work/DeviceTester/amazon-freertos/lib/third_party/mbedtls/library\md.c **** /**
   2:D:/Work/DeviceTester/amazon-freertos/lib/third_party/mbedtls/library\md.c ****  * \file mbedtls_md.c
   3:D:/Work/DeviceTester/amazon-freertos/lib/third_party/mbedtls/library\md.c ****  *
   4:D:/Work/DeviceTester/amazon-freertos/lib/third_party/mbedtls/library\md.c ****  * \brief Generic message digest wrapper for mbed TLS
   5:D:/Work/DeviceTester/amazon-freertos/lib/third_party/mbedtls/library\md.c ****  *
   6:D:/Work/DeviceTester/amazon-freertos/lib/third_party/mbedtls/library\md.c ****  * \author Adriaan de Jong <dejong@fox-it.com>
   7:D:/Work/DeviceTester/amazon-freertos/lib/third_party/mbedtls/library\md.c ****  *
   8:D:/Work/DeviceTester/amazon-freertos/lib/third_party/mbedtls/library\md.c ****  *  Copyright (C) 2006-2015, ARM Limited, All Rights Reserved
   9:D:/Work/DeviceTester/amazon-freertos/lib/third_party/mbedtls/library\md.c ****  *  SPDX-License-Identifier: Apache-2.0
  10:D:/Work/DeviceTester/amazon-freertos/lib/third_party/mbedtls/library\md.c ****  *
  11:D:/Work/DeviceTester/amazon-freertos/lib/third_party/mbedtls/library\md.c ****  *  Licensed under the Apache License, Version 2.0 (the "License"); you may
  12:D:/Work/DeviceTester/amazon-freertos/lib/third_party/mbedtls/library\md.c ****  *  not use this file except in compliance with the License.
  13:D:/Work/DeviceTester/amazon-freertos/lib/third_party/mbedtls/library\md.c ****  *  You may obtain a copy of the License at
  14:D:/Work/DeviceTester/amazon-freertos/lib/third_party/mbedtls/library\md.c ****  *
  15:D:/Work/DeviceTester/amazon-freertos/lib/third_party/mbedtls/library\md.c ****  *  http://www.apache.org/licenses/LICENSE-2.0
  16:D:/Work/DeviceTester/amazon-freertos/lib/third_party/mbedtls/library\md.c ****  *
  17:D:/Work/DeviceTester/amazon-freertos/lib/third_party/mbedtls/library\md.c ****  *  Unless required by applicable law or agreed to in writing, software
  18:D:/Work/DeviceTester/amazon-freertos/lib/third_party/mbedtls/library\md.c ****  *  distributed under the License is distributed on an "AS IS" BASIS, WITHOUT
  19:D:/Work/DeviceTester/amazon-freertos/lib/third_party/mbedtls/library\md.c ****  *  WARRANTIES OR CONDITIONS OF ANY KIND, either express or implied.
  20:D:/Work/DeviceTester/amazon-freertos/lib/third_party/mbedtls/library\md.c ****  *  See the License for the specific language governing permissions and
  21:D:/Work/DeviceTester/amazon-freertos/lib/third_party/mbedtls/library\md.c ****  *  limitations under the License.
  22:D:/Work/DeviceTester/amazon-freertos/lib/third_party/mbedtls/library\md.c ****  *
  23:D:/Work/DeviceTester/amazon-freertos/lib/third_party/mbedtls/library\md.c ****  *  This file is part of mbed TLS (https://tls.mbed.org)
  24:D:/Work/DeviceTester/amazon-freertos/lib/third_party/mbedtls/library\md.c ****  */
  25:D:/Work/DeviceTester/amazon-freertos/lib/third_party/mbedtls/library\md.c **** 
  26:D:/Work/DeviceTester/amazon-freertos/lib/third_party/mbedtls/library\md.c **** #if !defined(MBEDTLS_CONFIG_FILE)
  27:D:/Work/DeviceTester/amazon-freertos/lib/third_party/mbedtls/library\md.c **** #include "mbedtls/config.h"
  28:D:/Work/DeviceTester/amazon-freertos/lib/third_party/mbedtls/library\md.c **** #else
  29:D:/Work/DeviceTester/amazon-freertos/lib/third_party/mbedtls/library\md.c **** #include MBEDTLS_CONFIG_FILE
  30:D:/Work/DeviceTester/amazon-freertos/lib/third_party/mbedtls/library\md.c **** #endif
  31:D:/Work/DeviceTester/amazon-freertos/lib/third_party/mbedtls/library\md.c **** 
  32:D:/Work/DeviceTester/amazon-freertos/lib/third_party/mbedtls/library\md.c **** #if defined(MBEDTLS_MD_C)
  33:D:/Work/DeviceTester/amazon-freertos/lib/third_party/mbedtls/library\md.c **** 
  34:D:/Work/DeviceTester/amazon-freertos/lib/third_party/mbedtls/library\md.c **** #include "mbedtls/md.h"
  35:D:/Work/DeviceTester/amazon-freertos/lib/third_party/mbedtls/library\md.c **** #include "mbedtls/md_internal.h"
  36:D:/Work/DeviceTester/amazon-freertos/lib/third_party/mbedtls/library\md.c **** #include "mbedtls/platform_util.h"
  37:D:/Work/DeviceTester/amazon-freertos/lib/third_party/mbedtls/library\md.c **** 
  38:D:/Work/DeviceTester/amazon-freertos/lib/third_party/mbedtls/library\md.c **** #if defined(MBEDTLS_PLATFORM_C)
  39:D:/Work/DeviceTester/amazon-freertos/lib/third_party/mbedtls/library\md.c **** #include "mbedtls/platform.h"
  40:D:/Work/DeviceTester/amazon-freertos/lib/third_party/mbedtls/library\md.c **** #else
  41:D:/Work/DeviceTester/amazon-freertos/lib/third_party/mbedtls/library\md.c **** #include <stdlib.h>
  42:D:/Work/DeviceTester/amazon-freertos/lib/third_party/mbedtls/library\md.c **** #define mbedtls_calloc    calloc
  43:D:/Work/DeviceTester/amazon-freertos/lib/third_party/mbedtls/library\md.c **** #define mbedtls_free       free
  44:D:/Work/DeviceTester/amazon-freertos/lib/third_party/mbedtls/library\md.c **** #endif
  45:D:/Work/DeviceTester/amazon-freertos/lib/third_party/mbedtls/library\md.c **** 
  46:D:/Work/DeviceTester/amazon-freertos/lib/third_party/mbedtls/library\md.c **** #include <string.h>
  47:D:/Work/DeviceTester/amazon-freertos/lib/third_party/mbedtls/library\md.c **** 
  48:D:/Work/DeviceTester/amazon-freertos/lib/third_party/mbedtls/library\md.c **** #if defined(MBEDTLS_FS_IO)
  49:D:/Work/DeviceTester/amazon-freertos/lib/third_party/mbedtls/library\md.c **** #include <stdio.h>
  50:D:/Work/DeviceTester/amazon-freertos/lib/third_party/mbedtls/library\md.c **** #endif
  51:D:/Work/DeviceTester/amazon-freertos/lib/third_party/mbedtls/library\md.c **** 
  52:D:/Work/DeviceTester/amazon-freertos/lib/third_party/mbedtls/library\md.c **** /*
  53:D:/Work/DeviceTester/amazon-freertos/lib/third_party/mbedtls/library\md.c ****  * Reminder: update profiles in x509_crt.c when adding a new hash!
  54:D:/Work/DeviceTester/amazon-freertos/lib/third_party/mbedtls/library\md.c ****  */
  55:D:/Work/DeviceTester/amazon-freertos/lib/third_party/mbedtls/library\md.c **** static const int supported_digests[] = {
  56:D:/Work/DeviceTester/amazon-freertos/lib/third_party/mbedtls/library\md.c **** 
  57:D:/Work/DeviceTester/amazon-freertos/lib/third_party/mbedtls/library\md.c **** #if defined(MBEDTLS_SHA512_C)
  58:D:/Work/DeviceTester/amazon-freertos/lib/third_party/mbedtls/library\md.c ****         MBEDTLS_MD_SHA512,
  59:D:/Work/DeviceTester/amazon-freertos/lib/third_party/mbedtls/library\md.c ****         MBEDTLS_MD_SHA384,
  60:D:/Work/DeviceTester/amazon-freertos/lib/third_party/mbedtls/library\md.c **** #endif
  61:D:/Work/DeviceTester/amazon-freertos/lib/third_party/mbedtls/library\md.c **** 
  62:D:/Work/DeviceTester/amazon-freertos/lib/third_party/mbedtls/library\md.c **** #if defined(MBEDTLS_SHA256_C)
  63:D:/Work/DeviceTester/amazon-freertos/lib/third_party/mbedtls/library\md.c ****         MBEDTLS_MD_SHA256,
  64:D:/Work/DeviceTester/amazon-freertos/lib/third_party/mbedtls/library\md.c ****         MBEDTLS_MD_SHA224,
  65:D:/Work/DeviceTester/amazon-freertos/lib/third_party/mbedtls/library\md.c **** #endif
  66:D:/Work/DeviceTester/amazon-freertos/lib/third_party/mbedtls/library\md.c **** 
  67:D:/Work/DeviceTester/amazon-freertos/lib/third_party/mbedtls/library\md.c **** #if defined(MBEDTLS_SHA1_C)
  68:D:/Work/DeviceTester/amazon-freertos/lib/third_party/mbedtls/library\md.c ****         MBEDTLS_MD_SHA1,
  69:D:/Work/DeviceTester/amazon-freertos/lib/third_party/mbedtls/library\md.c **** #endif
  70:D:/Work/DeviceTester/amazon-freertos/lib/third_party/mbedtls/library\md.c **** 
  71:D:/Work/DeviceTester/amazon-freertos/lib/third_party/mbedtls/library\md.c **** #if defined(MBEDTLS_RIPEMD160_C)
  72:D:/Work/DeviceTester/amazon-freertos/lib/third_party/mbedtls/library\md.c ****         MBEDTLS_MD_RIPEMD160,
  73:D:/Work/DeviceTester/amazon-freertos/lib/third_party/mbedtls/library\md.c **** #endif
  74:D:/Work/DeviceTester/amazon-freertos/lib/third_party/mbedtls/library\md.c **** 
  75:D:/Work/DeviceTester/amazon-freertos/lib/third_party/mbedtls/library\md.c **** #if defined(MBEDTLS_MD5_C)
  76:D:/Work/DeviceTester/amazon-freertos/lib/third_party/mbedtls/library\md.c ****         MBEDTLS_MD_MD5,
  77:D:/Work/DeviceTester/amazon-freertos/lib/third_party/mbedtls/library\md.c **** #endif
  78:D:/Work/DeviceTester/amazon-freertos/lib/third_party/mbedtls/library\md.c **** 
  79:D:/Work/DeviceTester/amazon-freertos/lib/third_party/mbedtls/library\md.c **** #if defined(MBEDTLS_MD4_C)
  80:D:/Work/DeviceTester/amazon-freertos/lib/third_party/mbedtls/library\md.c ****         MBEDTLS_MD_MD4,
  81:D:/Work/DeviceTester/amazon-freertos/lib/third_party/mbedtls/library\md.c **** #endif
  82:D:/Work/DeviceTester/amazon-freertos/lib/third_party/mbedtls/library\md.c **** 
  83:D:/Work/DeviceTester/amazon-freertos/lib/third_party/mbedtls/library\md.c **** #if defined(MBEDTLS_MD2_C)
  84:D:/Work/DeviceTester/amazon-freertos/lib/third_party/mbedtls/library\md.c ****         MBEDTLS_MD_MD2,
  85:D:/Work/DeviceTester/amazon-freertos/lib/third_party/mbedtls/library\md.c **** #endif
  86:D:/Work/DeviceTester/amazon-freertos/lib/third_party/mbedtls/library\md.c **** 
  87:D:/Work/DeviceTester/amazon-freertos/lib/third_party/mbedtls/library\md.c ****         MBEDTLS_MD_NONE
  88:D:/Work/DeviceTester/amazon-freertos/lib/third_party/mbedtls/library\md.c **** };
  89:D:/Work/DeviceTester/amazon-freertos/lib/third_party/mbedtls/library\md.c **** 
  90:D:/Work/DeviceTester/amazon-freertos/lib/third_party/mbedtls/library\md.c **** const int *mbedtls_md_list( void )
  91:D:/Work/DeviceTester/amazon-freertos/lib/third_party/mbedtls/library\md.c **** {
  26              		.loc 1 91 0
  27              		.cfi_startproc
  28              		@ args = 0, pretend = 0, frame = 0
  29              		@ frame_needed = 0, uses_anonymous_args = 0
  30              		@ link register save eliminated.
  92:D:/Work/DeviceTester/amazon-freertos/lib/third_party/mbedtls/library\md.c ****     return( supported_digests );
  93:D:/Work/DeviceTester/amazon-freertos/lib/third_party/mbedtls/library\md.c **** }
  31              		.loc 1 93 0
  32 0000 00009FE5 		ldr	r0, .L2
  33 0004 1EFF2FE1 		bx	lr
  34              	.L3:
  35              		.align	2
  36              	.L2:
  37 0008 00000000 		.word	.LANCHOR0
  38              		.cfi_endproc
  39              	.LFE1:
  41              		.section	.text.mbedtls_md_info_from_string,"ax",%progbits
  42              		.align	2
  43              		.global	mbedtls_md_info_from_string
  44              		.syntax unified
  45              		.arm
  46              		.fpu neon
  48              	mbedtls_md_info_from_string:
  49              	.LFB2:
  94:D:/Work/DeviceTester/amazon-freertos/lib/third_party/mbedtls/library\md.c **** 
  95:D:/Work/DeviceTester/amazon-freertos/lib/third_party/mbedtls/library\md.c **** const mbedtls_md_info_t *mbedtls_md_info_from_string( const char *md_name )
  96:D:/Work/DeviceTester/amazon-freertos/lib/third_party/mbedtls/library\md.c **** {
  50              		.loc 1 96 0
  51              		.cfi_startproc
  52              		@ args = 0, pretend = 0, frame = 0
  53              		@ frame_needed = 0, uses_anonymous_args = 0
  54              	.LVL0:
  97:D:/Work/DeviceTester/amazon-freertos/lib/third_party/mbedtls/library\md.c ****     if( NULL == md_name )
  55              		.loc 1 97 0
  56 0000 000050E3 		cmp	r0, #0
  57 0004 1EFF2F01 		bxeq	lr
  96:D:/Work/DeviceTester/amazon-freertos/lib/third_party/mbedtls/library\md.c ****     if( NULL == md_name )
  58              		.loc 1 96 0
  59 0008 10402DE9 		push	{r4, lr}
  60              		.cfi_def_cfa_offset 8
  61              		.cfi_offset 4, -8
  62              		.cfi_offset 14, -4
  98:D:/Work/DeviceTester/amazon-freertos/lib/third_party/mbedtls/library\md.c ****         return( NULL );
  99:D:/Work/DeviceTester/amazon-freertos/lib/third_party/mbedtls/library\md.c **** 
 100:D:/Work/DeviceTester/amazon-freertos/lib/third_party/mbedtls/library\md.c ****     /* Get the appropriate digest information */
 101:D:/Work/DeviceTester/amazon-freertos/lib/third_party/mbedtls/library\md.c **** #if defined(MBEDTLS_MD2_C)
 102:D:/Work/DeviceTester/amazon-freertos/lib/third_party/mbedtls/library\md.c ****     if( !strcmp( "MD2", md_name ) )
 103:D:/Work/DeviceTester/amazon-freertos/lib/third_party/mbedtls/library\md.c ****         return mbedtls_md_info_from_type( MBEDTLS_MD_MD2 );
 104:D:/Work/DeviceTester/amazon-freertos/lib/third_party/mbedtls/library\md.c **** #endif
 105:D:/Work/DeviceTester/amazon-freertos/lib/third_party/mbedtls/library\md.c **** #if defined(MBEDTLS_MD4_C)
 106:D:/Work/DeviceTester/amazon-freertos/lib/third_party/mbedtls/library\md.c ****     if( !strcmp( "MD4", md_name ) )
 107:D:/Work/DeviceTester/amazon-freertos/lib/third_party/mbedtls/library\md.c ****         return mbedtls_md_info_from_type( MBEDTLS_MD_MD4 );
 108:D:/Work/DeviceTester/amazon-freertos/lib/third_party/mbedtls/library\md.c **** #endif
 109:D:/Work/DeviceTester/amazon-freertos/lib/third_party/mbedtls/library\md.c **** #if defined(MBEDTLS_MD5_C)
 110:D:/Work/DeviceTester/amazon-freertos/lib/third_party/mbedtls/library\md.c ****     if( !strcmp( "MD5", md_name ) )
 111:D:/Work/DeviceTester/amazon-freertos/lib/third_party/mbedtls/library\md.c ****         return mbedtls_md_info_from_type( MBEDTLS_MD_MD5 );
 112:D:/Work/DeviceTester/amazon-freertos/lib/third_party/mbedtls/library\md.c **** #endif
 113:D:/Work/DeviceTester/amazon-freertos/lib/third_party/mbedtls/library\md.c **** #if defined(MBEDTLS_RIPEMD160_C)
 114:D:/Work/DeviceTester/amazon-freertos/lib/third_party/mbedtls/library\md.c ****     if( !strcmp( "RIPEMD160", md_name ) )
 115:D:/Work/DeviceTester/amazon-freertos/lib/third_party/mbedtls/library\md.c ****         return mbedtls_md_info_from_type( MBEDTLS_MD_RIPEMD160 );
 116:D:/Work/DeviceTester/amazon-freertos/lib/third_party/mbedtls/library\md.c **** #endif
 117:D:/Work/DeviceTester/amazon-freertos/lib/third_party/mbedtls/library\md.c **** #if defined(MBEDTLS_SHA1_C)
 118:D:/Work/DeviceTester/amazon-freertos/lib/third_party/mbedtls/library\md.c ****     if( !strcmp( "SHA1", md_name ) || !strcmp( "SHA", md_name ) )
  63              		.loc 1 118 0
  64 000c 0010A0E1 		mov	r1, r0
  65 0010 0040A0E1 		mov	r4, r0
  66 0014 5C009FE5 		ldr	r0, .L15
  67              	.LVL1:
  68 0018 FEFFFFEB 		bl	strcmp
  69              	.LVL2:
  70 001c 000050E3 		cmp	r0, #0
  71 0020 1000000A 		beq	.L8
  72              		.loc 1 118 0 is_stmt 0 discriminator 1
  73 0024 0410A0E1 		mov	r1, r4
  74 0028 4C009FE5 		ldr	r0, .L15+4
  75 002c FEFFFFEB 		bl	strcmp
  76              	.LVL3:
  77 0030 000050E3 		cmp	r0, #0
  78 0034 0B00000A 		beq	.L8
 119:D:/Work/DeviceTester/amazon-freertos/lib/third_party/mbedtls/library\md.c ****         return mbedtls_md_info_from_type( MBEDTLS_MD_SHA1 );
 120:D:/Work/DeviceTester/amazon-freertos/lib/third_party/mbedtls/library\md.c **** #endif
 121:D:/Work/DeviceTester/amazon-freertos/lib/third_party/mbedtls/library\md.c **** #if defined(MBEDTLS_SHA256_C)
 122:D:/Work/DeviceTester/amazon-freertos/lib/third_party/mbedtls/library\md.c ****     if( !strcmp( "SHA224", md_name ) )
  79              		.loc 1 122 0 is_stmt 1
  80 0038 0410A0E1 		mov	r1, r4
  81 003c 3C009FE5 		ldr	r0, .L15+8
  82 0040 FEFFFFEB 		bl	strcmp
  83              	.LVL4:
  84 0044 000050E3 		cmp	r0, #0
  85 0048 0800000A 		beq	.L9
 123:D:/Work/DeviceTester/amazon-freertos/lib/third_party/mbedtls/library\md.c ****         return mbedtls_md_info_from_type( MBEDTLS_MD_SHA224 );
 124:D:/Work/DeviceTester/amazon-freertos/lib/third_party/mbedtls/library\md.c ****     if( !strcmp( "SHA256", md_name ) )
  86              		.loc 1 124 0
  87 004c 0410A0E1 		mov	r1, r4
  88 0050 2C009FE5 		ldr	r0, .L15+12
  89 0054 FEFFFFEB 		bl	strcmp
  90              	.LVL5:
  91 0058 000050E3 		cmp	r0, #0
 125:D:/Work/DeviceTester/amazon-freertos/lib/third_party/mbedtls/library\md.c ****         return mbedtls_md_info_from_type( MBEDTLS_MD_SHA256 );
  92              		.loc 1 125 0
  93 005c 24009FE5 		ldr	r0, .L15+16
  94 0060 0000A013 		movne	r0, #0
  95 0064 1080BDE8 		pop	{r4, pc}
  96              	.L8:
 119:D:/Work/DeviceTester/amazon-freertos/lib/third_party/mbedtls/library\md.c ****         return mbedtls_md_info_from_type( MBEDTLS_MD_SHA1 );
  97              		.loc 1 119 0
  98 0068 1C009FE5 		ldr	r0, .L15+20
  99 006c 1080BDE8 		pop	{r4, pc}
 100              	.L9:
 123:D:/Work/DeviceTester/amazon-freertos/lib/third_party/mbedtls/library\md.c ****         return mbedtls_md_info_from_type( MBEDTLS_MD_SHA224 );
 101              		.loc 1 123 0
 102 0070 18009FE5 		ldr	r0, .L15+24
 126:D:/Work/DeviceTester/amazon-freertos/lib/third_party/mbedtls/library\md.c **** #endif
 127:D:/Work/DeviceTester/amazon-freertos/lib/third_party/mbedtls/library\md.c **** #if defined(MBEDTLS_SHA512_C)
 128:D:/Work/DeviceTester/amazon-freertos/lib/third_party/mbedtls/library\md.c ****     if( !strcmp( "SHA384", md_name ) )
 129:D:/Work/DeviceTester/amazon-freertos/lib/third_party/mbedtls/library\md.c ****         return mbedtls_md_info_from_type( MBEDTLS_MD_SHA384 );
 130:D:/Work/DeviceTester/amazon-freertos/lib/third_party/mbedtls/library\md.c ****     if( !strcmp( "SHA512", md_name ) )
 131:D:/Work/DeviceTester/amazon-freertos/lib/third_party/mbedtls/library\md.c ****         return mbedtls_md_info_from_type( MBEDTLS_MD_SHA512 );
 132:D:/Work/DeviceTester/amazon-freertos/lib/third_party/mbedtls/library\md.c **** #endif
 133:D:/Work/DeviceTester/amazon-freertos/lib/third_party/mbedtls/library\md.c ****     return( NULL );
 134:D:/Work/DeviceTester/amazon-freertos/lib/third_party/mbedtls/library\md.c **** }
 103              		.loc 1 134 0
 104 0074 1080BDE8 		pop	{r4, pc}
 105              	.L16:
 106              		.align	2
 107              	.L15:
 108 0078 00000000 		.word	.LC0
 109 007c 05000000 		.word	.LC1
 110 0080 09000000 		.word	.LC2
 111 0084 10000000 		.word	.LC3
 112 0088 00000000 		.word	mbedtls_sha256_info
 113 008c 00000000 		.word	mbedtls_sha1_info
 114 0090 00000000 		.word	mbedtls_sha224_info
 115              		.cfi_endproc
 116              	.LFE2:
 118              		.section	.text.mbedtls_md_info_from_type,"ax",%progbits
 119              		.align	2
 120              		.global	mbedtls_md_info_from_type
 121              		.syntax unified
 122              		.arm
 123              		.fpu neon
 125              	mbedtls_md_info_from_type:
 126              	.LFB3:
 135:D:/Work/DeviceTester/amazon-freertos/lib/third_party/mbedtls/library\md.c **** 
 136:D:/Work/DeviceTester/amazon-freertos/lib/third_party/mbedtls/library\md.c **** const mbedtls_md_info_t *mbedtls_md_info_from_type( mbedtls_md_type_t md_type )
 137:D:/Work/DeviceTester/amazon-freertos/lib/third_party/mbedtls/library\md.c **** {
 127              		.loc 1 137 0
 128              		.cfi_startproc
 129              		@ args = 0, pretend = 0, frame = 0
 130              		@ frame_needed = 0, uses_anonymous_args = 0
 131              		@ link register save eliminated.
 132              	.LVL6:
 133 0000 040040E2 		sub	r0, r0, #4
 134              	.LVL7:
 135 0004 7000EFE6 		uxtb	r0, r0
 136 0008 020050E3 		cmp	r0, #2
 137 000c 08309F95 		ldrls	r3, .L20
 138 0010 00019397 		ldrls	r0, [r3, r0, lsl #2]
 139              		.loc 1 137 0
 140 0014 0000A083 		movhi	r0, #0
 138:D:/Work/DeviceTester/amazon-freertos/lib/third_party/mbedtls/library\md.c ****     switch( md_type )
 139:D:/Work/DeviceTester/amazon-freertos/lib/third_party/mbedtls/library\md.c ****     {
 140:D:/Work/DeviceTester/amazon-freertos/lib/third_party/mbedtls/library\md.c **** #if defined(MBEDTLS_MD2_C)
 141:D:/Work/DeviceTester/amazon-freertos/lib/third_party/mbedtls/library\md.c ****         case MBEDTLS_MD_MD2:
 142:D:/Work/DeviceTester/amazon-freertos/lib/third_party/mbedtls/library\md.c ****             return( &mbedtls_md2_info );
 143:D:/Work/DeviceTester/amazon-freertos/lib/third_party/mbedtls/library\md.c **** #endif
 144:D:/Work/DeviceTester/amazon-freertos/lib/third_party/mbedtls/library\md.c **** #if defined(MBEDTLS_MD4_C)
 145:D:/Work/DeviceTester/amazon-freertos/lib/third_party/mbedtls/library\md.c ****         case MBEDTLS_MD_MD4:
 146:D:/Work/DeviceTester/amazon-freertos/lib/third_party/mbedtls/library\md.c ****             return( &mbedtls_md4_info );
 147:D:/Work/DeviceTester/amazon-freertos/lib/third_party/mbedtls/library\md.c **** #endif
 148:D:/Work/DeviceTester/amazon-freertos/lib/third_party/mbedtls/library\md.c **** #if defined(MBEDTLS_MD5_C)
 149:D:/Work/DeviceTester/amazon-freertos/lib/third_party/mbedtls/library\md.c ****         case MBEDTLS_MD_MD5:
 150:D:/Work/DeviceTester/amazon-freertos/lib/third_party/mbedtls/library\md.c ****             return( &mbedtls_md5_info );
 151:D:/Work/DeviceTester/amazon-freertos/lib/third_party/mbedtls/library\md.c **** #endif
 152:D:/Work/DeviceTester/amazon-freertos/lib/third_party/mbedtls/library\md.c **** #if defined(MBEDTLS_RIPEMD160_C)
 153:D:/Work/DeviceTester/amazon-freertos/lib/third_party/mbedtls/library\md.c ****         case MBEDTLS_MD_RIPEMD160:
 154:D:/Work/DeviceTester/amazon-freertos/lib/third_party/mbedtls/library\md.c ****             return( &mbedtls_ripemd160_info );
 155:D:/Work/DeviceTester/amazon-freertos/lib/third_party/mbedtls/library\md.c **** #endif
 156:D:/Work/DeviceTester/amazon-freertos/lib/third_party/mbedtls/library\md.c **** #if defined(MBEDTLS_SHA1_C)
 157:D:/Work/DeviceTester/amazon-freertos/lib/third_party/mbedtls/library\md.c ****         case MBEDTLS_MD_SHA1:
 158:D:/Work/DeviceTester/amazon-freertos/lib/third_party/mbedtls/library\md.c ****             return( &mbedtls_sha1_info );
 159:D:/Work/DeviceTester/amazon-freertos/lib/third_party/mbedtls/library\md.c **** #endif
 160:D:/Work/DeviceTester/amazon-freertos/lib/third_party/mbedtls/library\md.c **** #if defined(MBEDTLS_SHA256_C)
 161:D:/Work/DeviceTester/amazon-freertos/lib/third_party/mbedtls/library\md.c ****         case MBEDTLS_MD_SHA224:
 162:D:/Work/DeviceTester/amazon-freertos/lib/third_party/mbedtls/library\md.c ****             return( &mbedtls_sha224_info );
 163:D:/Work/DeviceTester/amazon-freertos/lib/third_party/mbedtls/library\md.c ****         case MBEDTLS_MD_SHA256:
 164:D:/Work/DeviceTester/amazon-freertos/lib/third_party/mbedtls/library\md.c ****             return( &mbedtls_sha256_info );
 165:D:/Work/DeviceTester/amazon-freertos/lib/third_party/mbedtls/library\md.c **** #endif
 166:D:/Work/DeviceTester/amazon-freertos/lib/third_party/mbedtls/library\md.c **** #if defined(MBEDTLS_SHA512_C)
 167:D:/Work/DeviceTester/amazon-freertos/lib/third_party/mbedtls/library\md.c ****         case MBEDTLS_MD_SHA384:
 168:D:/Work/DeviceTester/amazon-freertos/lib/third_party/mbedtls/library\md.c ****             return( &mbedtls_sha384_info );
 169:D:/Work/DeviceTester/amazon-freertos/lib/third_party/mbedtls/library\md.c ****         case MBEDTLS_MD_SHA512:
 170:D:/Work/DeviceTester/amazon-freertos/lib/third_party/mbedtls/library\md.c ****             return( &mbedtls_sha512_info );
 171:D:/Work/DeviceTester/amazon-freertos/lib/third_party/mbedtls/library\md.c **** #endif
 172:D:/Work/DeviceTester/amazon-freertos/lib/third_party/mbedtls/library\md.c ****         default:
 173:D:/Work/DeviceTester/amazon-freertos/lib/third_party/mbedtls/library\md.c ****             return( NULL );
 174:D:/Work/DeviceTester/amazon-freertos/lib/third_party/mbedtls/library\md.c ****     }
 175:D:/Work/DeviceTester/amazon-freertos/lib/third_party/mbedtls/library\md.c **** }
 141              		.loc 1 175 0
 142 0018 1EFF2FE1 		bx	lr
 143              	.L21:
 144              		.align	2
 145              	.L20:
 146 001c 00000000 		.word	.LANCHOR1
 147              		.cfi_endproc
 148              	.LFE3:
 150              		.section	.text.mbedtls_md_init,"ax",%progbits
 151              		.align	2
 152              		.global	mbedtls_md_init
 153              		.syntax unified
 154              		.arm
 155              		.fpu neon
 157              	mbedtls_md_init:
 158              	.LFB4:
 176:D:/Work/DeviceTester/amazon-freertos/lib/third_party/mbedtls/library\md.c **** 
 177:D:/Work/DeviceTester/amazon-freertos/lib/third_party/mbedtls/library\md.c **** void mbedtls_md_init( mbedtls_md_context_t *ctx )
 178:D:/Work/DeviceTester/amazon-freertos/lib/third_party/mbedtls/library\md.c **** {
 159              		.loc 1 178 0
 160              		.cfi_startproc
 161              		@ args = 0, pretend = 0, frame = 0
 162              		@ frame_needed = 0, uses_anonymous_args = 0
 163              		@ link register save eliminated.
 164              	.LVL8:
 179:D:/Work/DeviceTester/amazon-freertos/lib/third_party/mbedtls/library\md.c ****     memset( ctx, 0, sizeof( mbedtls_md_context_t ) );
 165              		.loc 1 179 0
 166 0000 0C20A0E3 		mov	r2, #12
 167 0004 0010A0E3 		mov	r1, #0
 168 0008 FEFFFFEA 		b	memset
 169              	.LVL9:
 170              		.cfi_endproc
 171              	.LFE4:
 173              		.section	.text.mbedtls_md_free,"ax",%progbits
 174              		.align	2
 175              		.global	mbedtls_md_free
 176              		.syntax unified
 177              		.arm
 178              		.fpu neon
 180              	mbedtls_md_free:
 181              	.LFB5:
 180:D:/Work/DeviceTester/amazon-freertos/lib/third_party/mbedtls/library\md.c **** }
 181:D:/Work/DeviceTester/amazon-freertos/lib/third_party/mbedtls/library\md.c **** 
 182:D:/Work/DeviceTester/amazon-freertos/lib/third_party/mbedtls/library\md.c **** void mbedtls_md_free( mbedtls_md_context_t *ctx )
 183:D:/Work/DeviceTester/amazon-freertos/lib/third_party/mbedtls/library\md.c **** {
 182              		.loc 1 183 0
 183              		.cfi_startproc
 184              		@ args = 0, pretend = 0, frame = 0
 185              		@ frame_needed = 0, uses_anonymous_args = 0
 186              	.LVL10:
 187 0000 10402DE9 		push	{r4, lr}
 188              		.cfi_def_cfa_offset 8
 189              		.cfi_offset 4, -8
 190              		.cfi_offset 14, -4
 184:D:/Work/DeviceTester/amazon-freertos/lib/third_party/mbedtls/library\md.c ****     if( ctx == NULL || ctx->md_info == NULL )
 191              		.loc 1 184 0
 192 0004 004050E2 		subs	r4, r0, #0
 193 0008 1080BD08 		popeq	{r4, pc}
 194              		.loc 1 184 0 is_stmt 0 discriminator 1
 195 000c 003094E5 		ldr	r3, [r4]
 196 0010 000053E3 		cmp	r3, #0
 197 0014 1080BD08 		popeq	{r4, pc}
 185:D:/Work/DeviceTester/amazon-freertos/lib/third_party/mbedtls/library\md.c ****         return;
 186:D:/Work/DeviceTester/amazon-freertos/lib/third_party/mbedtls/library\md.c **** 
 187:D:/Work/DeviceTester/amazon-freertos/lib/third_party/mbedtls/library\md.c ****     if( ctx->md_ctx != NULL )
 198              		.loc 1 187 0 is_stmt 1
 199 0018 040094E5 		ldr	r0, [r4, #4]
 200              	.LVL11:
 201 001c 000050E3 		cmp	r0, #0
 202 0020 0100000A 		beq	.L25
 188:D:/Work/DeviceTester/amazon-freertos/lib/third_party/mbedtls/library\md.c ****         ctx->md_info->ctx_free_func( ctx->md_ctx );
 203              		.loc 1 188 0
 204 0024 243093E5 		ldr	r3, [r3, #36]
 205 0028 33FF2FE1 		blx	r3
 206              	.LVL12:
 207              	.L25:
 189:D:/Work/DeviceTester/amazon-freertos/lib/third_party/mbedtls/library\md.c **** 
 190:D:/Work/DeviceTester/amazon-freertos/lib/third_party/mbedtls/library\md.c ****     if( ctx->hmac_ctx != NULL )
 208              		.loc 1 190 0
 209 002c 080094E5 		ldr	r0, [r4, #8]
 210 0030 000050E3 		cmp	r0, #0
 211 0034 0500000A 		beq	.L26
 191:D:/Work/DeviceTester/amazon-freertos/lib/third_party/mbedtls/library\md.c ****     {
 192:D:/Work/DeviceTester/amazon-freertos/lib/third_party/mbedtls/library\md.c ****         mbedtls_platform_zeroize( ctx->hmac_ctx,
 193:D:/Work/DeviceTester/amazon-freertos/lib/third_party/mbedtls/library\md.c ****                                   2 * ctx->md_info->block_size );
 212              		.loc 1 193 0
 213 0038 003094E5 		ldr	r3, [r4]
 214 003c 0C1093E5 		ldr	r1, [r3, #12]
 192:D:/Work/DeviceTester/amazon-freertos/lib/third_party/mbedtls/library\md.c ****                                   2 * ctx->md_info->block_size );
 215              		.loc 1 192 0
 216 0040 8110A0E1 		lsl	r1, r1, #1
 217 0044 FEFFFFEB 		bl	mbedtls_platform_zeroize
 218              	.LVL13:
 194:D:/Work/DeviceTester/amazon-freertos/lib/third_party/mbedtls/library\md.c ****         mbedtls_free( ctx->hmac_ctx );
 219              		.loc 1 194 0
 220 0048 080094E5 		ldr	r0, [r4, #8]
 221 004c FEFFFFEB 		bl	mbedtls_free
 222              	.LVL14:
 223              	.L26:
 195:D:/Work/DeviceTester/amazon-freertos/lib/third_party/mbedtls/library\md.c ****     }
 196:D:/Work/DeviceTester/amazon-freertos/lib/third_party/mbedtls/library\md.c **** 
 197:D:/Work/DeviceTester/amazon-freertos/lib/third_party/mbedtls/library\md.c ****     mbedtls_platform_zeroize( ctx, sizeof( mbedtls_md_context_t ) );
 224              		.loc 1 197 0
 225 0050 0400A0E1 		mov	r0, r4
 226 0054 0C10A0E3 		mov	r1, #12
 198:D:/Work/DeviceTester/amazon-freertos/lib/third_party/mbedtls/library\md.c **** }
 227              		.loc 1 198 0
 228 0058 1040BDE8 		pop	{r4, lr}
 229              		.cfi_restore 14
 230              		.cfi_restore 4
 231              		.cfi_def_cfa_offset 0
 232              	.LVL15:
 197:D:/Work/DeviceTester/amazon-freertos/lib/third_party/mbedtls/library\md.c **** }
 233              		.loc 1 197 0
 234 005c FEFFFFEA 		b	mbedtls_platform_zeroize
 235              	.LVL16:
 236              		.cfi_endproc
 237              	.LFE5:
 239              		.section	.text.mbedtls_md_clone,"ax",%progbits
 240              		.align	2
 241              		.global	mbedtls_md_clone
 242              		.syntax unified
 243              		.arm
 244              		.fpu neon
 246              	mbedtls_md_clone:
 247              	.LFB6:
 199:D:/Work/DeviceTester/amazon-freertos/lib/third_party/mbedtls/library\md.c **** 
 200:D:/Work/DeviceTester/amazon-freertos/lib/third_party/mbedtls/library\md.c **** int mbedtls_md_clone( mbedtls_md_context_t *dst,
 201:D:/Work/DeviceTester/amazon-freertos/lib/third_party/mbedtls/library\md.c ****                       const mbedtls_md_context_t *src )
 202:D:/Work/DeviceTester/amazon-freertos/lib/third_party/mbedtls/library\md.c **** {
 248              		.loc 1 202 0
 249              		.cfi_startproc
 250              		@ args = 0, pretend = 0, frame = 0
 251              		@ frame_needed = 0, uses_anonymous_args = 0
 252              	.LVL17:
 203:D:/Work/DeviceTester/amazon-freertos/lib/third_party/mbedtls/library\md.c ****     if( dst == NULL || dst->md_info == NULL ||
 253              		.loc 1 203 0
 254 0000 000050E3 		cmp	r0, #0
 255 0004 1100000A 		beq	.L43
 256              		.loc 1 203 0 is_stmt 0 discriminator 1
 257 0008 003090E5 		ldr	r3, [r0]
 258 000c 000053E3 		cmp	r3, #0
 259 0010 00005113 		cmpne	r1, #0
 260 0014 0D00000A 		beq	.L43
 204:D:/Work/DeviceTester/amazon-freertos/lib/third_party/mbedtls/library\md.c ****         src == NULL || src->md_info == NULL ||
 261              		.loc 1 204 0 is_stmt 1
 262 0018 002091E5 		ldr	r2, [r1]
 202:D:/Work/DeviceTester/amazon-freertos/lib/third_party/mbedtls/library\md.c ****     if( dst == NULL || dst->md_info == NULL ||
 263              		.loc 1 202 0
 264 001c 10402DE9 		push	{r4, lr}
 265              		.cfi_def_cfa_offset 8
 266              		.cfi_offset 4, -8
 267              		.cfi_offset 14, -4
 268              		.loc 1 204 0
 269 0020 024053E0 		subs	r4, r3, r2
 270 0024 0140A013 		movne	r4, #1
 271 0028 000052E3 		cmp	r2, #0
 272 002c 01408403 		orreq	r4, r4, #1
 273 0030 000054E3 		cmp	r4, #0
 274 0034 0700001A 		bne	.L44
 205:D:/Work/DeviceTester/amazon-freertos/lib/third_party/mbedtls/library\md.c ****         dst->md_info != src->md_info )
 206:D:/Work/DeviceTester/amazon-freertos/lib/third_party/mbedtls/library\md.c ****     {
 207:D:/Work/DeviceTester/amazon-freertos/lib/third_party/mbedtls/library\md.c ****         return( MBEDTLS_ERR_MD_BAD_INPUT_DATA );
 208:D:/Work/DeviceTester/amazon-freertos/lib/third_party/mbedtls/library\md.c ****     }
 209:D:/Work/DeviceTester/amazon-freertos/lib/third_party/mbedtls/library\md.c **** 
 210:D:/Work/DeviceTester/amazon-freertos/lib/third_party/mbedtls/library\md.c ****     dst->md_info->clone_func( dst->md_ctx, src->md_ctx );
 275              		.loc 1 210 0
 276 0038 283093E5 		ldr	r3, [r3, #40]
 277 003c 041091E5 		ldr	r1, [r1, #4]
 278              	.LVL18:
 279 0040 040090E5 		ldr	r0, [r0, #4]
 280              	.LVL19:
 281 0044 33FF2FE1 		blx	r3
 282              	.LVL20:
 211:D:/Work/DeviceTester/amazon-freertos/lib/third_party/mbedtls/library\md.c **** 
 212:D:/Work/DeviceTester/amazon-freertos/lib/third_party/mbedtls/library\md.c ****     return( 0 );
 283              		.loc 1 212 0
 284 0048 0400A0E1 		mov	r0, r4
 285 004c 1080BDE8 		pop	{r4, pc}
 286              	.LVL21:
 287              	.L43:
 288              		.cfi_def_cfa_offset 0
 289              		.cfi_restore 4
 290              		.cfi_restore 14
 207:D:/Work/DeviceTester/amazon-freertos/lib/third_party/mbedtls/library\md.c ****     }
 291              		.loc 1 207 0
 292 0050 08009FE5 		ldr	r0, .L49
 293              	.LVL22:
 294 0054 1EFF2FE1 		bx	lr
 295              	.LVL23:
 296              	.L44:
 297              		.cfi_def_cfa_offset 8
 298              		.cfi_offset 4, -8
 299              		.cfi_offset 14, -4
 300 0058 00009FE5 		ldr	r0, .L49
 301              	.LVL24:
 213:D:/Work/DeviceTester/amazon-freertos/lib/third_party/mbedtls/library\md.c **** }
 302              		.loc 1 213 0
 303 005c 1080BDE8 		pop	{r4, pc}
 304              	.L50:
 305              		.align	2
 306              	.L49:
 307 0060 00AFFFFF 		.word	-20736
 308              		.cfi_endproc
 309              	.LFE6:
 311              		.section	.text.mbedtls_md_setup,"ax",%progbits
 312              		.align	2
 313              		.global	mbedtls_md_setup
 314              		.syntax unified
 315              		.arm
 316              		.fpu neon
 318              	mbedtls_md_setup:
 319              	.LFB7:
 214:D:/Work/DeviceTester/amazon-freertos/lib/third_party/mbedtls/library\md.c **** 
 215:D:/Work/DeviceTester/amazon-freertos/lib/third_party/mbedtls/library\md.c **** #if ! defined(MBEDTLS_DEPRECATED_REMOVED)
 216:D:/Work/DeviceTester/amazon-freertos/lib/third_party/mbedtls/library\md.c **** int mbedtls_md_init_ctx( mbedtls_md_context_t *ctx, const mbedtls_md_info_t *md_info )
 217:D:/Work/DeviceTester/amazon-freertos/lib/third_party/mbedtls/library\md.c **** {
 218:D:/Work/DeviceTester/amazon-freertos/lib/third_party/mbedtls/library\md.c ****     return mbedtls_md_setup( ctx, md_info, 1 );
 219:D:/Work/DeviceTester/amazon-freertos/lib/third_party/mbedtls/library\md.c **** }
 220:D:/Work/DeviceTester/amazon-freertos/lib/third_party/mbedtls/library\md.c **** #endif
 221:D:/Work/DeviceTester/amazon-freertos/lib/third_party/mbedtls/library\md.c **** 
 222:D:/Work/DeviceTester/amazon-freertos/lib/third_party/mbedtls/library\md.c **** int mbedtls_md_setup( mbedtls_md_context_t *ctx, const mbedtls_md_info_t *md_info, int hmac )
 223:D:/Work/DeviceTester/amazon-freertos/lib/third_party/mbedtls/library\md.c **** {
 320              		.loc 1 223 0
 321              		.cfi_startproc
 322              		@ args = 0, pretend = 0, frame = 0
 323              		@ frame_needed = 0, uses_anonymous_args = 0
 324              	.LVL25:
 224:D:/Work/DeviceTester/amazon-freertos/lib/third_party/mbedtls/library\md.c ****     if( md_info == NULL || ctx == NULL )
 325              		.loc 1 224 0
 326 0000 000050E3 		cmp	r0, #0
 327 0004 00005113 		cmpne	r1, #0
 328 0008 1800000A 		beq	.L54
 223:D:/Work/DeviceTester/amazon-freertos/lib/third_party/mbedtls/library\md.c ****     if( md_info == NULL || ctx == NULL )
 329              		.loc 1 223 0
 330 000c 70402DE9 		push	{r4, r5, r6, lr}
 331              		.cfi_def_cfa_offset 16
 332              		.cfi_offset 4, -16
 333              		.cfi_offset 5, -12
 334              		.cfi_offset 6, -8
 335              		.cfi_offset 14, -4
 336 0010 0040A0E1 		mov	r4, r0
 225:D:/Work/DeviceTester/amazon-freertos/lib/third_party/mbedtls/library\md.c ****         return( MBEDTLS_ERR_MD_BAD_INPUT_DATA );
 226:D:/Work/DeviceTester/amazon-freertos/lib/third_party/mbedtls/library\md.c **** 
 227:D:/Work/DeviceTester/amazon-freertos/lib/third_party/mbedtls/library\md.c ****     if( ( ctx->md_ctx = md_info->ctx_alloc_func() ) == NULL )
 337              		.loc 1 227 0
 338 0014 203091E5 		ldr	r3, [r1, #32]
 339 0018 0150A0E1 		mov	r5, r1
 340 001c 0260A0E1 		mov	r6, r2
 341 0020 33FF2FE1 		blx	r3
 342              	.LVL26:
 343 0024 000050E3 		cmp	r0, #0
 344 0028 040084E5 		str	r0, [r4, #4]
 345 002c 0A00000A 		beq	.L55
 228:D:/Work/DeviceTester/amazon-freertos/lib/third_party/mbedtls/library\md.c ****         return( MBEDTLS_ERR_MD_ALLOC_FAILED );
 229:D:/Work/DeviceTester/amazon-freertos/lib/third_party/mbedtls/library\md.c **** 
 230:D:/Work/DeviceTester/amazon-freertos/lib/third_party/mbedtls/library\md.c ****     if( hmac != 0 )
 346              		.loc 1 230 0
 347 0030 000056E3 		cmp	r6, #0
 348 0034 0A00000A 		beq	.L53
 231:D:/Work/DeviceTester/amazon-freertos/lib/third_party/mbedtls/library\md.c ****     {
 232:D:/Work/DeviceTester/amazon-freertos/lib/third_party/mbedtls/library\md.c ****         ctx->hmac_ctx = mbedtls_calloc( 2, md_info->block_size );
 349              		.loc 1 232 0
 350 0038 0C1095E5 		ldr	r1, [r5, #12]
 351 003c 0200A0E3 		mov	r0, #2
 352 0040 FEFFFFEB 		bl	mbedtls_calloc
 353              	.LVL27:
 233:D:/Work/DeviceTester/amazon-freertos/lib/third_party/mbedtls/library\md.c ****         if( ctx->hmac_ctx == NULL )
 354              		.loc 1 233 0
 355 0044 000050E3 		cmp	r0, #0
 232:D:/Work/DeviceTester/amazon-freertos/lib/third_party/mbedtls/library\md.c ****         if( ctx->hmac_ctx == NULL )
 356              		.loc 1 232 0
 357 0048 080084E5 		str	r0, [r4, #8]
 358              		.loc 1 233 0
 359 004c 0400001A 		bne	.L53
 360              	.LVL28:
 361              	.LBB10:
 362              	.LBB11:
 234:D:/Work/DeviceTester/amazon-freertos/lib/third_party/mbedtls/library\md.c ****         {
 235:D:/Work/DeviceTester/amazon-freertos/lib/third_party/mbedtls/library\md.c ****             md_info->ctx_free_func( ctx->md_ctx );
 363              		.loc 1 235 0
 364 0050 243095E5 		ldr	r3, [r5, #36]
 365 0054 040094E5 		ldr	r0, [r4, #4]
 366 0058 33FF2FE1 		blx	r3
 367              	.LVL29:
 368              	.L55:
 369              	.LBE11:
 370              	.LBE10:
 228:D:/Work/DeviceTester/amazon-freertos/lib/third_party/mbedtls/library\md.c **** 
 371              		.loc 1 228 0
 372 005c 14009FE5 		ldr	r0, .L63
 236:D:/Work/DeviceTester/amazon-freertos/lib/third_party/mbedtls/library\md.c ****             return( MBEDTLS_ERR_MD_ALLOC_FAILED );
 237:D:/Work/DeviceTester/amazon-freertos/lib/third_party/mbedtls/library\md.c ****         }
 238:D:/Work/DeviceTester/amazon-freertos/lib/third_party/mbedtls/library\md.c ****     }
 239:D:/Work/DeviceTester/amazon-freertos/lib/third_party/mbedtls/library\md.c **** 
 240:D:/Work/DeviceTester/amazon-freertos/lib/third_party/mbedtls/library\md.c ****     ctx->md_info = md_info;
 241:D:/Work/DeviceTester/amazon-freertos/lib/third_party/mbedtls/library\md.c **** 
 242:D:/Work/DeviceTester/amazon-freertos/lib/third_party/mbedtls/library\md.c ****     return( 0 );
 243:D:/Work/DeviceTester/amazon-freertos/lib/third_party/mbedtls/library\md.c **** }
 373              		.loc 1 243 0
 374 0060 7080BDE8 		pop	{r4, r5, r6, pc}
 375              	.L53:
 240:D:/Work/DeviceTester/amazon-freertos/lib/third_party/mbedtls/library\md.c **** 
 376              		.loc 1 240 0
 377 0064 005084E5 		str	r5, [r4]
 242:D:/Work/DeviceTester/amazon-freertos/lib/third_party/mbedtls/library\md.c **** }
 378              		.loc 1 242 0
 379 0068 0000A0E3 		mov	r0, #0
 380 006c 7080BDE8 		pop	{r4, r5, r6, pc}
 381              	.LVL30:
 382              	.L54:
 383              		.cfi_def_cfa_offset 0
 384              		.cfi_restore 4
 385              		.cfi_restore 5
 386              		.cfi_restore 6
 387              		.cfi_restore 14
 225:D:/Work/DeviceTester/amazon-freertos/lib/third_party/mbedtls/library\md.c **** 
 388              		.loc 1 225 0
 389 0070 04009FE5 		ldr	r0, .L63+4
 390              	.LVL31:
 391 0074 1EFF2FE1 		bx	lr
 392              	.L64:
 393              		.align	2
 394              	.L63:
 395 0078 80AEFFFF 		.word	-20864
 396 007c 00AFFFFF 		.word	-20736
 397              		.cfi_endproc
 398              	.LFE7:
 400              		.section	.text.mbedtls_md_starts,"ax",%progbits
 401              		.align	2
 402              		.global	mbedtls_md_starts
 403              		.syntax unified
 404              		.arm
 405              		.fpu neon
 407              	mbedtls_md_starts:
 408              	.LFB8:
 244:D:/Work/DeviceTester/amazon-freertos/lib/third_party/mbedtls/library\md.c **** 
 245:D:/Work/DeviceTester/amazon-freertos/lib/third_party/mbedtls/library\md.c **** int mbedtls_md_starts( mbedtls_md_context_t *ctx )
 246:D:/Work/DeviceTester/amazon-freertos/lib/third_party/mbedtls/library\md.c **** {
 409              		.loc 1 246 0
 410              		.cfi_startproc
 411              		@ args = 0, pretend = 0, frame = 0
 412              		@ frame_needed = 0, uses_anonymous_args = 0
 413              		@ link register save eliminated.
 414              	.LVL32:
 247:D:/Work/DeviceTester/amazon-freertos/lib/third_party/mbedtls/library\md.c ****     if( ctx == NULL || ctx->md_info == NULL )
 415              		.loc 1 247 0
 416 0000 000050E3 		cmp	r0, #0
 417 0004 0500000A 		beq	.L68
 418              		.loc 1 247 0 is_stmt 0 discriminator 1
 419 0008 003090E5 		ldr	r3, [r0]
 420 000c 000053E3 		cmp	r3, #0
 421 0010 0200000A 		beq	.L68
 248:D:/Work/DeviceTester/amazon-freertos/lib/third_party/mbedtls/library\md.c ****         return( MBEDTLS_ERR_MD_BAD_INPUT_DATA );
 249:D:/Work/DeviceTester/amazon-freertos/lib/third_party/mbedtls/library\md.c **** 
 250:D:/Work/DeviceTester/amazon-freertos/lib/third_party/mbedtls/library\md.c ****     return( ctx->md_info->starts_func( ctx->md_ctx ) );
 422              		.loc 1 250 0 is_stmt 1
 423 0014 103093E5 		ldr	r3, [r3, #16]
 424 0018 040090E5 		ldr	r0, [r0, #4]
 425              	.LVL33:
 426 001c 13FF2FE1 		bx	r3
 427              	.LVL34:
 428              	.L68:
 248:D:/Work/DeviceTester/amazon-freertos/lib/third_party/mbedtls/library\md.c ****         return( MBEDTLS_ERR_MD_BAD_INPUT_DATA );
 429              		.loc 1 248 0
 430 0020 00009FE5 		ldr	r0, .L69
 431              	.LVL35:
 251:D:/Work/DeviceTester/amazon-freertos/lib/third_party/mbedtls/library\md.c **** }
 432              		.loc 1 251 0
 433 0024 1EFF2FE1 		bx	lr
 434              	.L70:
 435              		.align	2
 436              	.L69:
 437 0028 00AFFFFF 		.word	-20736
 438              		.cfi_endproc
 439              	.LFE8:
 441              		.section	.text.mbedtls_md_update,"ax",%progbits
 442              		.align	2
 443              		.global	mbedtls_md_update
 444              		.syntax unified
 445              		.arm
 446              		.fpu neon
 448              	mbedtls_md_update:
 449              	.LFB9:
 252:D:/Work/DeviceTester/amazon-freertos/lib/third_party/mbedtls/library\md.c **** 
 253:D:/Work/DeviceTester/amazon-freertos/lib/third_party/mbedtls/library\md.c **** int mbedtls_md_update( mbedtls_md_context_t *ctx, const unsigned char *input, size_t ilen )
 254:D:/Work/DeviceTester/amazon-freertos/lib/third_party/mbedtls/library\md.c **** {
 450              		.loc 1 254 0
 451              		.cfi_startproc
 452              		@ args = 0, pretend = 0, frame = 0
 453              		@ frame_needed = 0, uses_anonymous_args = 0
 454              		@ link register save eliminated.
 455              	.LVL36:
 255:D:/Work/DeviceTester/amazon-freertos/lib/third_party/mbedtls/library\md.c ****     if( ctx == NULL || ctx->md_info == NULL )
 456              		.loc 1 255 0
 457 0000 000050E3 		cmp	r0, #0
 458 0004 0500000A 		beq	.L74
 459              		.loc 1 255 0 is_stmt 0 discriminator 1
 460 0008 003090E5 		ldr	r3, [r0]
 461 000c 000053E3 		cmp	r3, #0
 462 0010 0200000A 		beq	.L74
 256:D:/Work/DeviceTester/amazon-freertos/lib/third_party/mbedtls/library\md.c ****         return( MBEDTLS_ERR_MD_BAD_INPUT_DATA );
 257:D:/Work/DeviceTester/amazon-freertos/lib/third_party/mbedtls/library\md.c **** 
 258:D:/Work/DeviceTester/amazon-freertos/lib/third_party/mbedtls/library\md.c ****     return( ctx->md_info->update_func( ctx->md_ctx, input, ilen ) );
 463              		.loc 1 258 0 is_stmt 1
 464 0014 143093E5 		ldr	r3, [r3, #20]
 465 0018 040090E5 		ldr	r0, [r0, #4]
 466              	.LVL37:
 467 001c 13FF2FE1 		bx	r3
 468              	.LVL38:
 469              	.L74:
 256:D:/Work/DeviceTester/amazon-freertos/lib/third_party/mbedtls/library\md.c ****         return( MBEDTLS_ERR_MD_BAD_INPUT_DATA );
 470              		.loc 1 256 0
 471 0020 00009FE5 		ldr	r0, .L75
 472              	.LVL39:
 259:D:/Work/DeviceTester/amazon-freertos/lib/third_party/mbedtls/library\md.c **** }
 473              		.loc 1 259 0
 474 0024 1EFF2FE1 		bx	lr
 475              	.L76:
 476              		.align	2
 477              	.L75:
 478 0028 00AFFFFF 		.word	-20736
 479              		.cfi_endproc
 480              	.LFE9:
 482              		.section	.text.mbedtls_md_finish,"ax",%progbits
 483              		.align	2
 484              		.global	mbedtls_md_finish
 485              		.syntax unified
 486              		.arm
 487              		.fpu neon
 489              	mbedtls_md_finish:
 490              	.LFB10:
 260:D:/Work/DeviceTester/amazon-freertos/lib/third_party/mbedtls/library\md.c **** 
 261:D:/Work/DeviceTester/amazon-freertos/lib/third_party/mbedtls/library\md.c **** int mbedtls_md_finish( mbedtls_md_context_t *ctx, unsigned char *output )
 262:D:/Work/DeviceTester/amazon-freertos/lib/third_party/mbedtls/library\md.c **** {
 491              		.loc 1 262 0
 492              		.cfi_startproc
 493              		@ args = 0, pretend = 0, frame = 0
 494              		@ frame_needed = 0, uses_anonymous_args = 0
 495              		@ link register save eliminated.
 496              	.LVL40:
 263:D:/Work/DeviceTester/amazon-freertos/lib/third_party/mbedtls/library\md.c ****     if( ctx == NULL || ctx->md_info == NULL )
 497              		.loc 1 263 0
 498 0000 000050E3 		cmp	r0, #0
 499 0004 0500000A 		beq	.L80
 500              		.loc 1 263 0 is_stmt 0 discriminator 1
 501 0008 003090E5 		ldr	r3, [r0]
 502 000c 000053E3 		cmp	r3, #0
 503 0010 0200000A 		beq	.L80
 264:D:/Work/DeviceTester/amazon-freertos/lib/third_party/mbedtls/library\md.c ****         return( MBEDTLS_ERR_MD_BAD_INPUT_DATA );
 265:D:/Work/DeviceTester/amazon-freertos/lib/third_party/mbedtls/library\md.c **** 
 266:D:/Work/DeviceTester/amazon-freertos/lib/third_party/mbedtls/library\md.c ****     return( ctx->md_info->finish_func( ctx->md_ctx, output ) );
 504              		.loc 1 266 0 is_stmt 1
 505 0014 183093E5 		ldr	r3, [r3, #24]
 506 0018 040090E5 		ldr	r0, [r0, #4]
 507              	.LVL41:
 508 001c 13FF2FE1 		bx	r3
 509              	.LVL42:
 510              	.L80:
 264:D:/Work/DeviceTester/amazon-freertos/lib/third_party/mbedtls/library\md.c ****         return( MBEDTLS_ERR_MD_BAD_INPUT_DATA );
 511              		.loc 1 264 0
 512 0020 00009FE5 		ldr	r0, .L81
 513              	.LVL43:
 267:D:/Work/DeviceTester/amazon-freertos/lib/third_party/mbedtls/library\md.c **** }
 514              		.loc 1 267 0
 515 0024 1EFF2FE1 		bx	lr
 516              	.L82:
 517              		.align	2
 518              	.L81:
 519 0028 00AFFFFF 		.word	-20736
 520              		.cfi_endproc
 521              	.LFE10:
 523              		.section	.text.mbedtls_md,"ax",%progbits
 524              		.align	2
 525              		.global	mbedtls_md
 526              		.syntax unified
 527              		.arm
 528              		.fpu neon
 530              	mbedtls_md:
 531              	.LFB11:
 268:D:/Work/DeviceTester/amazon-freertos/lib/third_party/mbedtls/library\md.c **** 
 269:D:/Work/DeviceTester/amazon-freertos/lib/third_party/mbedtls/library\md.c **** int mbedtls_md( const mbedtls_md_info_t *md_info, const unsigned char *input, size_t ilen,
 270:D:/Work/DeviceTester/amazon-freertos/lib/third_party/mbedtls/library\md.c ****             unsigned char *output )
 271:D:/Work/DeviceTester/amazon-freertos/lib/third_party/mbedtls/library\md.c **** {
 532              		.loc 1 271 0
 533              		.cfi_startproc
 534              		@ args = 0, pretend = 0, frame = 0
 535              		@ frame_needed = 0, uses_anonymous_args = 0
 536              	.LVL44:
 272:D:/Work/DeviceTester/amazon-freertos/lib/third_party/mbedtls/library\md.c ****     if( md_info == NULL )
 537              		.loc 1 272 0
 538 0000 000050E3 		cmp	r0, #0
 539 0004 0800000A 		beq	.L84
 271:D:/Work/DeviceTester/amazon-freertos/lib/third_party/mbedtls/library\md.c ****     if( md_info == NULL )
 540              		.loc 1 271 0
 541 0008 04E02DE5 		str	lr, [sp, #-4]!
 542              		.cfi_def_cfa_offset 4
 543              		.cfi_offset 14, -4
 544 000c 01C0A0E1 		mov	ip, r1
 273:D:/Work/DeviceTester/amazon-freertos/lib/third_party/mbedtls/library\md.c ****         return( MBEDTLS_ERR_MD_BAD_INPUT_DATA );
 274:D:/Work/DeviceTester/amazon-freertos/lib/third_party/mbedtls/library\md.c **** 
 275:D:/Work/DeviceTester/amazon-freertos/lib/third_party/mbedtls/library\md.c ****     return( md_info->digest_func( input, ilen, output ) );
 545              		.loc 1 275 0
 546 0010 1CE090E5 		ldr	lr, [r0, #28]
 547 0014 0210A0E1 		mov	r1, r2
 548              	.LVL45:
 549 0018 0C00A0E1 		mov	r0, ip
 550              	.LVL46:
 551 001c 0320A0E1 		mov	r2, r3
 552              	.LVL47:
 553 0020 0E30A0E1 		mov	r3, lr
 554              	.LVL48:
 276:D:/Work/DeviceTester/amazon-freertos/lib/third_party/mbedtls/library\md.c **** }
 555              		.loc 1 276 0
 556 0024 04E09DE4 		ldr	lr, [sp], #4
 557              		.cfi_restore 14
 558              		.cfi_def_cfa_offset 0
 275:D:/Work/DeviceTester/amazon-freertos/lib/third_party/mbedtls/library\md.c **** }
 559              		.loc 1 275 0
 560 0028 13FF2FE1 		bx	r3
 561              	.LVL49:
 562              	.L84:
 563              		.loc 1 276 0
 564 002c 00009FE5 		ldr	r0, .L88
 565              	.LVL50:
 566 0030 1EFF2FE1 		bx	lr
 567              	.L89:
 568              		.align	2
 569              	.L88:
 570 0034 00AFFFFF 		.word	-20736
 571              		.cfi_endproc
 572              	.LFE11:
 574              		.section	.text.mbedtls_md_hmac_starts,"ax",%progbits
 575              		.align	2
 576              		.global	mbedtls_md_hmac_starts
 577              		.syntax unified
 578              		.arm
 579              		.fpu neon
 581              	mbedtls_md_hmac_starts:
 582              	.LFB12:
 277:D:/Work/DeviceTester/amazon-freertos/lib/third_party/mbedtls/library\md.c **** 
 278:D:/Work/DeviceTester/amazon-freertos/lib/third_party/mbedtls/library\md.c **** #if defined(MBEDTLS_FS_IO)
 279:D:/Work/DeviceTester/amazon-freertos/lib/third_party/mbedtls/library\md.c **** int mbedtls_md_file( const mbedtls_md_info_t *md_info, const char *path, unsigned char *output )
 280:D:/Work/DeviceTester/amazon-freertos/lib/third_party/mbedtls/library\md.c **** {
 281:D:/Work/DeviceTester/amazon-freertos/lib/third_party/mbedtls/library\md.c ****     int ret;
 282:D:/Work/DeviceTester/amazon-freertos/lib/third_party/mbedtls/library\md.c ****     FILE *f;
 283:D:/Work/DeviceTester/amazon-freertos/lib/third_party/mbedtls/library\md.c ****     size_t n;
 284:D:/Work/DeviceTester/amazon-freertos/lib/third_party/mbedtls/library\md.c ****     mbedtls_md_context_t ctx;
 285:D:/Work/DeviceTester/amazon-freertos/lib/third_party/mbedtls/library\md.c ****     unsigned char buf[1024];
 286:D:/Work/DeviceTester/amazon-freertos/lib/third_party/mbedtls/library\md.c **** 
 287:D:/Work/DeviceTester/amazon-freertos/lib/third_party/mbedtls/library\md.c ****     if( md_info == NULL )
 288:D:/Work/DeviceTester/amazon-freertos/lib/third_party/mbedtls/library\md.c ****         return( MBEDTLS_ERR_MD_BAD_INPUT_DATA );
 289:D:/Work/DeviceTester/amazon-freertos/lib/third_party/mbedtls/library\md.c **** 
 290:D:/Work/DeviceTester/amazon-freertos/lib/third_party/mbedtls/library\md.c ****     if( ( f = fopen( path, "rb" ) ) == NULL )
 291:D:/Work/DeviceTester/amazon-freertos/lib/third_party/mbedtls/library\md.c ****         return( MBEDTLS_ERR_MD_FILE_IO_ERROR );
 292:D:/Work/DeviceTester/amazon-freertos/lib/third_party/mbedtls/library\md.c **** 
 293:D:/Work/DeviceTester/amazon-freertos/lib/third_party/mbedtls/library\md.c ****     mbedtls_md_init( &ctx );
 294:D:/Work/DeviceTester/amazon-freertos/lib/third_party/mbedtls/library\md.c **** 
 295:D:/Work/DeviceTester/amazon-freertos/lib/third_party/mbedtls/library\md.c ****     if( ( ret = mbedtls_md_setup( &ctx, md_info, 0 ) ) != 0 )
 296:D:/Work/DeviceTester/amazon-freertos/lib/third_party/mbedtls/library\md.c ****         goto cleanup;
 297:D:/Work/DeviceTester/amazon-freertos/lib/third_party/mbedtls/library\md.c **** 
 298:D:/Work/DeviceTester/amazon-freertos/lib/third_party/mbedtls/library\md.c ****     if( ( ret = md_info->starts_func( ctx.md_ctx ) ) != 0 )
 299:D:/Work/DeviceTester/amazon-freertos/lib/third_party/mbedtls/library\md.c ****         goto cleanup;
 300:D:/Work/DeviceTester/amazon-freertos/lib/third_party/mbedtls/library\md.c **** 
 301:D:/Work/DeviceTester/amazon-freertos/lib/third_party/mbedtls/library\md.c ****     while( ( n = fread( buf, 1, sizeof( buf ), f ) ) > 0 )
 302:D:/Work/DeviceTester/amazon-freertos/lib/third_party/mbedtls/library\md.c ****         if( ( ret = md_info->update_func( ctx.md_ctx, buf, n ) ) != 0 )
 303:D:/Work/DeviceTester/amazon-freertos/lib/third_party/mbedtls/library\md.c ****             goto cleanup;
 304:D:/Work/DeviceTester/amazon-freertos/lib/third_party/mbedtls/library\md.c **** 
 305:D:/Work/DeviceTester/amazon-freertos/lib/third_party/mbedtls/library\md.c ****     if( ferror( f ) != 0 )
 306:D:/Work/DeviceTester/amazon-freertos/lib/third_party/mbedtls/library\md.c ****         ret = MBEDTLS_ERR_MD_FILE_IO_ERROR;
 307:D:/Work/DeviceTester/amazon-freertos/lib/third_party/mbedtls/library\md.c ****     else
 308:D:/Work/DeviceTester/amazon-freertos/lib/third_party/mbedtls/library\md.c ****         ret = md_info->finish_func( ctx.md_ctx, output );
 309:D:/Work/DeviceTester/amazon-freertos/lib/third_party/mbedtls/library\md.c **** 
 310:D:/Work/DeviceTester/amazon-freertos/lib/third_party/mbedtls/library\md.c **** cleanup:
 311:D:/Work/DeviceTester/amazon-freertos/lib/third_party/mbedtls/library\md.c ****     mbedtls_platform_zeroize( buf, sizeof( buf ) );
 312:D:/Work/DeviceTester/amazon-freertos/lib/third_party/mbedtls/library\md.c ****     fclose( f );
 313:D:/Work/DeviceTester/amazon-freertos/lib/third_party/mbedtls/library\md.c ****     mbedtls_md_free( &ctx );
 314:D:/Work/DeviceTester/amazon-freertos/lib/third_party/mbedtls/library\md.c **** 
 315:D:/Work/DeviceTester/amazon-freertos/lib/third_party/mbedtls/library\md.c ****     return( ret );
 316:D:/Work/DeviceTester/amazon-freertos/lib/third_party/mbedtls/library\md.c **** }
 317:D:/Work/DeviceTester/amazon-freertos/lib/third_party/mbedtls/library\md.c **** #endif /* MBEDTLS_FS_IO */
 318:D:/Work/DeviceTester/amazon-freertos/lib/third_party/mbedtls/library\md.c **** 
 319:D:/Work/DeviceTester/amazon-freertos/lib/third_party/mbedtls/library\md.c **** int mbedtls_md_hmac_starts( mbedtls_md_context_t *ctx, const unsigned char *key, size_t keylen )
 320:D:/Work/DeviceTester/amazon-freertos/lib/third_party/mbedtls/library\md.c **** {
 583              		.loc 1 320 0
 584              		.cfi_startproc
 585              		@ args = 0, pretend = 0, frame = 32
 586              		@ frame_needed = 0, uses_anonymous_args = 0
 587              	.LVL51:
 588 0000 F0412DE9 		push	{r4, r5, r6, r7, r8, lr}
 589              		.cfi_def_cfa_offset 24
 590              		.cfi_offset 4, -24
 591              		.cfi_offset 5, -20
 592              		.cfi_offset 6, -16
 593              		.cfi_offset 7, -12
 594              		.cfi_offset 8, -8
 595              		.cfi_offset 14, -4
 321:D:/Work/DeviceTester/amazon-freertos/lib/third_party/mbedtls/library\md.c ****     int ret;
 322:D:/Work/DeviceTester/amazon-freertos/lib/third_party/mbedtls/library\md.c ****     unsigned char sum[MBEDTLS_MD_MAX_SIZE];
 323:D:/Work/DeviceTester/amazon-freertos/lib/third_party/mbedtls/library\md.c ****     unsigned char *ipad, *opad;
 324:D:/Work/DeviceTester/amazon-freertos/lib/third_party/mbedtls/library\md.c ****     size_t i;
 325:D:/Work/DeviceTester/amazon-freertos/lib/third_party/mbedtls/library\md.c **** 
 326:D:/Work/DeviceTester/amazon-freertos/lib/third_party/mbedtls/library\md.c ****     if( ctx == NULL || ctx->md_info == NULL || ctx->hmac_ctx == NULL )
 596              		.loc 1 326 0
 597 0004 004050E2 		subs	r4, r0, #0
 320:D:/Work/DeviceTester/amazon-freertos/lib/third_party/mbedtls/library\md.c ****     int ret;
 598              		.loc 1 320 0
 599 0008 20D04DE2 		sub	sp, sp, #32
 600              		.cfi_def_cfa_offset 56
 601              		.loc 1 326 0
 602 000c 4F00000A 		beq	.L98
 603              		.loc 1 326 0 is_stmt 0 discriminator 1
 604 0010 003094E5 		ldr	r3, [r4]
 605 0014 000053E3 		cmp	r3, #0
 606 0018 4C00000A 		beq	.L98
 607 001c 0270A0E1 		mov	r7, r2
 608              		.loc 1 326 0 discriminator 2
 609 0020 082094E5 		ldr	r2, [r4, #8]
 610              	.LVL52:
 611 0024 000052E3 		cmp	r2, #0
 612 0028 4800000A 		beq	.L98
 327:D:/Work/DeviceTester/amazon-freertos/lib/third_party/mbedtls/library\md.c ****         return( MBEDTLS_ERR_MD_BAD_INPUT_DATA );
 328:D:/Work/DeviceTester/amazon-freertos/lib/third_party/mbedtls/library\md.c **** 
 329:D:/Work/DeviceTester/amazon-freertos/lib/third_party/mbedtls/library\md.c ****     if( keylen > (size_t) ctx->md_info->block_size )
 613              		.loc 1 329 0 is_stmt 1
 614 002c 0C2093E5 		ldr	r2, [r3, #12]
 615 0030 0150A0E1 		mov	r5, r1
 616 0034 070052E1 		cmp	r2, r7
 617 0038 1600002A 		bcs	.L92
 330:D:/Work/DeviceTester/amazon-freertos/lib/third_party/mbedtls/library\md.c ****     {
 331:D:/Work/DeviceTester/amazon-freertos/lib/third_party/mbedtls/library\md.c ****         if( ( ret = ctx->md_info->starts_func( ctx->md_ctx ) ) != 0 )
 618              		.loc 1 331 0
 619 003c 103093E5 		ldr	r3, [r3, #16]
 620 0040 040094E5 		ldr	r0, [r4, #4]
 621              	.LVL53:
 622 0044 33FF2FE1 		blx	r3
 623              	.LVL54:
 624 0048 006050E2 		subs	r6, r0, #0
 625 004c 3000001A 		bne	.L93
 332:D:/Work/DeviceTester/amazon-freertos/lib/third_party/mbedtls/library\md.c ****             goto cleanup;
 333:D:/Work/DeviceTester/amazon-freertos/lib/third_party/mbedtls/library\md.c ****         if( ( ret = ctx->md_info->update_func( ctx->md_ctx, key, keylen ) ) != 0 )
 626              		.loc 1 333 0
 627 0050 003094E5 		ldr	r3, [r4]
 628 0054 0720A0E1 		mov	r2, r7
 629 0058 0510A0E1 		mov	r1, r5
 630 005c 040094E5 		ldr	r0, [r4, #4]
 631              	.LVL55:
 632 0060 143093E5 		ldr	r3, [r3, #20]
 633 0064 33FF2FE1 		blx	r3
 634              	.LVL56:
 635 0068 006050E2 		subs	r6, r0, #0
 636 006c 2800001A 		bne	.L93
 334:D:/Work/DeviceTester/amazon-freertos/lib/third_party/mbedtls/library\md.c ****             goto cleanup;
 335:D:/Work/DeviceTester/amazon-freertos/lib/third_party/mbedtls/library\md.c ****         if( ( ret = ctx->md_info->finish_func( ctx->md_ctx, sum ) ) != 0 )
 637              		.loc 1 335 0
 638 0070 003094E5 		ldr	r3, [r4]
 639 0074 0D10A0E1 		mov	r1, sp
 640 0078 040094E5 		ldr	r0, [r4, #4]
 641              	.LVL57:
 642 007c 183093E5 		ldr	r3, [r3, #24]
 643 0080 33FF2FE1 		blx	r3
 644              	.LVL58:
 645 0084 006050E2 		subs	r6, r0, #0
 646 0088 2100001A 		bne	.L93
 336:D:/Work/DeviceTester/amazon-freertos/lib/third_party/mbedtls/library\md.c ****             goto cleanup;
 337:D:/Work/DeviceTester/amazon-freertos/lib/third_party/mbedtls/library\md.c **** 
 338:D:/Work/DeviceTester/amazon-freertos/lib/third_party/mbedtls/library\md.c ****         keylen = ctx->md_info->size;
 647              		.loc 1 338 0
 648 008c 003094E5 		ldr	r3, [r4]
 339:D:/Work/DeviceTester/amazon-freertos/lib/third_party/mbedtls/library\md.c ****         key = sum;
 649              		.loc 1 339 0
 650 0090 0D50A0E1 		mov	r5, sp
 651              	.LVL59:
 338:D:/Work/DeviceTester/amazon-freertos/lib/third_party/mbedtls/library\md.c ****         key = sum;
 652              		.loc 1 338 0
 653 0094 087093E5 		ldr	r7, [r3, #8]
 654              	.LVL60:
 655              	.L92:
 340:D:/Work/DeviceTester/amazon-freertos/lib/third_party/mbedtls/library\md.c ****     }
 341:D:/Work/DeviceTester/amazon-freertos/lib/third_party/mbedtls/library\md.c **** 
 342:D:/Work/DeviceTester/amazon-freertos/lib/third_party/mbedtls/library\md.c ****     ipad = (unsigned char *) ctx->hmac_ctx;
 343:D:/Work/DeviceTester/amazon-freertos/lib/third_party/mbedtls/library\md.c ****     opad = (unsigned char *) ctx->hmac_ctx + ctx->md_info->block_size;
 656              		.loc 1 343 0
 657 0098 003094E5 		ldr	r3, [r4]
 344:D:/Work/DeviceTester/amazon-freertos/lib/third_party/mbedtls/library\md.c **** 
 345:D:/Work/DeviceTester/amazon-freertos/lib/third_party/mbedtls/library\md.c ****     memset( ipad, 0x36, ctx->md_info->block_size );
 658              		.loc 1 345 0
 659 009c 3610A0E3 		mov	r1, #54
 342:D:/Work/DeviceTester/amazon-freertos/lib/third_party/mbedtls/library\md.c ****     opad = (unsigned char *) ctx->hmac_ctx + ctx->md_info->block_size;
 660              		.loc 1 342 0
 661 00a0 088094E5 		ldr	r8, [r4, #8]
 662              	.LVL61:
 663 00a4 015045E2 		sub	r5, r5, #1
 664              	.LVL62:
 343:D:/Work/DeviceTester/amazon-freertos/lib/third_party/mbedtls/library\md.c **** 
 665              		.loc 1 343 0
 666 00a8 0C2093E5 		ldr	r2, [r3, #12]
 667              		.loc 1 345 0
 668 00ac 0800A0E1 		mov	r0, r8
 669 00b0 077088E0 		add	r7, r8, r7
 670              	.LVL63:
 343:D:/Work/DeviceTester/amazon-freertos/lib/third_party/mbedtls/library\md.c **** 
 671              		.loc 1 343 0
 672 00b4 026088E0 		add	r6, r8, r2
 673              	.LVL64:
 674              		.loc 1 345 0
 675 00b8 FEFFFFEB 		bl	memset
 676              	.LVL65:
 346:D:/Work/DeviceTester/amazon-freertos/lib/third_party/mbedtls/library\md.c ****     memset( opad, 0x5C, ctx->md_info->block_size );
 677              		.loc 1 346 0
 678 00bc 003094E5 		ldr	r3, [r4]
 679 00c0 5C10A0E3 		mov	r1, #92
 680 00c4 0600A0E1 		mov	r0, r6
 681 00c8 0C2093E5 		ldr	r2, [r3, #12]
 682 00cc FEFFFFEB 		bl	memset
 683              	.LVL66:
 684 00d0 0830A0E1 		mov	r3, r8
 685 00d4 010046E2 		sub	r0, r6, #1
 686              	.LVL67:
 687              	.L94:
 347:D:/Work/DeviceTester/amazon-freertos/lib/third_party/mbedtls/library\md.c **** 
 348:D:/Work/DeviceTester/amazon-freertos/lib/third_party/mbedtls/library\md.c ****     for( i = 0; i < keylen; i++ )
 688              		.loc 1 348 0 discriminator 1
 689 00d8 030057E1 		cmp	r7, r3
 690 00dc 1200001A 		bne	.L95
 349:D:/Work/DeviceTester/amazon-freertos/lib/third_party/mbedtls/library\md.c ****     {
 350:D:/Work/DeviceTester/amazon-freertos/lib/third_party/mbedtls/library\md.c ****         ipad[i] = (unsigned char)( ipad[i] ^ key[i] );
 351:D:/Work/DeviceTester/amazon-freertos/lib/third_party/mbedtls/library\md.c ****         opad[i] = (unsigned char)( opad[i] ^ key[i] );
 352:D:/Work/DeviceTester/amazon-freertos/lib/third_party/mbedtls/library\md.c ****     }
 353:D:/Work/DeviceTester/amazon-freertos/lib/third_party/mbedtls/library\md.c **** 
 354:D:/Work/DeviceTester/amazon-freertos/lib/third_party/mbedtls/library\md.c ****     if( ( ret = ctx->md_info->starts_func( ctx->md_ctx ) ) != 0 )
 691              		.loc 1 354 0
 692 00e0 003094E5 		ldr	r3, [r4]
 693 00e4 040094E5 		ldr	r0, [r4, #4]
 694 00e8 103093E5 		ldr	r3, [r3, #16]
 695 00ec 33FF2FE1 		blx	r3
 696              	.LVL68:
 697 00f0 006050E2 		subs	r6, r0, #0
 698              	.LVL69:
 699 00f4 0600001A 		bne	.L93
 355:D:/Work/DeviceTester/amazon-freertos/lib/third_party/mbedtls/library\md.c ****         goto cleanup;
 356:D:/Work/DeviceTester/amazon-freertos/lib/third_party/mbedtls/library\md.c ****     if( ( ret = ctx->md_info->update_func( ctx->md_ctx, ipad,
 700              		.loc 1 356 0
 701 00f8 003094E5 		ldr	r3, [r4]
 702 00fc 0810A0E1 		mov	r1, r8
 703 0100 040094E5 		ldr	r0, [r4, #4]
 704              	.LVL70:
 705 0104 145093E5 		ldr	r5, [r3, #20]
 706 0108 0C2093E5 		ldr	r2, [r3, #12]
 707 010c 35FF2FE1 		blx	r5
 708              	.LVL71:
 709 0110 0060A0E1 		mov	r6, r0
 710              	.LVL72:
 711              	.L93:
 357:D:/Work/DeviceTester/amazon-freertos/lib/third_party/mbedtls/library\md.c ****                                            ctx->md_info->block_size ) ) != 0 )
 358:D:/Work/DeviceTester/amazon-freertos/lib/third_party/mbedtls/library\md.c ****         goto cleanup;
 359:D:/Work/DeviceTester/amazon-freertos/lib/third_party/mbedtls/library\md.c **** 
 360:D:/Work/DeviceTester/amazon-freertos/lib/third_party/mbedtls/library\md.c **** cleanup:
 361:D:/Work/DeviceTester/amazon-freertos/lib/third_party/mbedtls/library\md.c ****     mbedtls_platform_zeroize( sum, sizeof( sum ) );
 712              		.loc 1 361 0
 713 0114 2010A0E3 		mov	r1, #32
 714 0118 0D00A0E1 		mov	r0, sp
 715              	.LVL73:
 716 011c FEFFFFEB 		bl	mbedtls_platform_zeroize
 717              	.LVL74:
 718              	.L90:
 362:D:/Work/DeviceTester/amazon-freertos/lib/third_party/mbedtls/library\md.c **** 
 363:D:/Work/DeviceTester/amazon-freertos/lib/third_party/mbedtls/library\md.c ****     return( ret );
 364:D:/Work/DeviceTester/amazon-freertos/lib/third_party/mbedtls/library\md.c **** }
 719              		.loc 1 364 0
 720 0120 0600A0E1 		mov	r0, r6
 721 0124 20D08DE2 		add	sp, sp, #32
 722              		.cfi_remember_state
 723              		.cfi_def_cfa_offset 24
 724              		@ sp needed
 725 0128 F081BDE8 		pop	{r4, r5, r6, r7, r8, pc}
 726              	.LVL75:
 727              	.L95:
 728              		.cfi_restore_state
 350:D:/Work/DeviceTester/amazon-freertos/lib/third_party/mbedtls/library\md.c ****         opad[i] = (unsigned char)( opad[i] ^ key[i] );
 729              		.loc 1 350 0 discriminator 3
 730 012c 0110D5E5 		ldrb	r1, [r5, #1]	@ zero_extendqisi2
 731 0130 0020D3E5 		ldrb	r2, [r3]	@ zero_extendqisi2
 732 0134 012022E0 		eor	r2, r2, r1
 733 0138 0120C3E4 		strb	r2, [r3], #1
 351:D:/Work/DeviceTester/amazon-freertos/lib/third_party/mbedtls/library\md.c ****     }
 734              		.loc 1 351 0 discriminator 3
 735 013c 0120D0E5 		ldrb	r2, [r0, #1]	@ zero_extendqisi2
 736 0140 0110F5E5 		ldrb	r1, [r5, #1]!	@ zero_extendqisi2
 737 0144 012022E0 		eor	r2, r2, r1
 738 0148 0120E0E5 		strb	r2, [r0, #1]!
 739 014c E1FFFFEA 		b	.L94
 740              	.LVL76:
 741              	.L98:
 327:D:/Work/DeviceTester/amazon-freertos/lib/third_party/mbedtls/library\md.c **** 
 742              		.loc 1 327 0
 743 0150 00609FE5 		ldr	r6, .L100
 744 0154 F1FFFFEA 		b	.L90
 745              	.L101:
 746              		.align	2
 747              	.L100:
 748 0158 00AFFFFF 		.word	-20736
 749              		.cfi_endproc
 750              	.LFE12:
 752              		.section	.text.mbedtls_md_hmac_update,"ax",%progbits
 753              		.align	2
 754              		.global	mbedtls_md_hmac_update
 755              		.syntax unified
 756              		.arm
 757              		.fpu neon
 759              	mbedtls_md_hmac_update:
 760              	.LFB13:
 365:D:/Work/DeviceTester/amazon-freertos/lib/third_party/mbedtls/library\md.c **** 
 366:D:/Work/DeviceTester/amazon-freertos/lib/third_party/mbedtls/library\md.c **** int mbedtls_md_hmac_update( mbedtls_md_context_t *ctx, const unsigned char *input, size_t ilen )
 367:D:/Work/DeviceTester/amazon-freertos/lib/third_party/mbedtls/library\md.c **** {
 761              		.loc 1 367 0
 762              		.cfi_startproc
 763              		@ args = 0, pretend = 0, frame = 0
 764              		@ frame_needed = 0, uses_anonymous_args = 0
 765              		@ link register save eliminated.
 766              	.LVL77:
 368:D:/Work/DeviceTester/amazon-freertos/lib/third_party/mbedtls/library\md.c ****     if( ctx == NULL || ctx->md_info == NULL || ctx->hmac_ctx == NULL )
 767              		.loc 1 368 0
 768 0000 000050E3 		cmp	r0, #0
 769 0004 0800000A 		beq	.L106
 770              		.loc 1 368 0 is_stmt 0 discriminator 1
 771 0008 003090E5 		ldr	r3, [r0]
 772 000c 000053E3 		cmp	r3, #0
 773 0010 0500000A 		beq	.L106
 774              		.loc 1 368 0 discriminator 2
 775 0014 08C090E5 		ldr	ip, [r0, #8]
 776 0018 00005CE3 		cmp	ip, #0
 777 001c 0200000A 		beq	.L106
 369:D:/Work/DeviceTester/amazon-freertos/lib/third_party/mbedtls/library\md.c ****         return( MBEDTLS_ERR_MD_BAD_INPUT_DATA );
 370:D:/Work/DeviceTester/amazon-freertos/lib/third_party/mbedtls/library\md.c **** 
 371:D:/Work/DeviceTester/amazon-freertos/lib/third_party/mbedtls/library\md.c ****     return( ctx->md_info->update_func( ctx->md_ctx, input, ilen ) );
 778              		.loc 1 371 0 is_stmt 1
 779 0020 143093E5 		ldr	r3, [r3, #20]
 780 0024 040090E5 		ldr	r0, [r0, #4]
 781              	.LVL78:
 782 0028 13FF2FE1 		bx	r3
 783              	.LVL79:
 784              	.L106:
 369:D:/Work/DeviceTester/amazon-freertos/lib/third_party/mbedtls/library\md.c ****         return( MBEDTLS_ERR_MD_BAD_INPUT_DATA );
 785              		.loc 1 369 0
 786 002c 00009FE5 		ldr	r0, .L107
 787              	.LVL80:
 372:D:/Work/DeviceTester/amazon-freertos/lib/third_party/mbedtls/library\md.c **** }
 788              		.loc 1 372 0
 789 0030 1EFF2FE1 		bx	lr
 790              	.L108:
 791              		.align	2
 792              	.L107:
 793 0034 00AFFFFF 		.word	-20736
 794              		.cfi_endproc
 795              	.LFE13:
 797              		.section	.text.mbedtls_md_hmac_finish,"ax",%progbits
 798              		.align	2
 799              		.global	mbedtls_md_hmac_finish
 800              		.syntax unified
 801              		.arm
 802              		.fpu neon
 804              	mbedtls_md_hmac_finish:
 805              	.LFB14:
 373:D:/Work/DeviceTester/amazon-freertos/lib/third_party/mbedtls/library\md.c **** 
 374:D:/Work/DeviceTester/amazon-freertos/lib/third_party/mbedtls/library\md.c **** int mbedtls_md_hmac_finish( mbedtls_md_context_t *ctx, unsigned char *output )
 375:D:/Work/DeviceTester/amazon-freertos/lib/third_party/mbedtls/library\md.c **** {
 806              		.loc 1 375 0
 807              		.cfi_startproc
 808              		@ args = 0, pretend = 0, frame = 32
 809              		@ frame_needed = 0, uses_anonymous_args = 0
 810              	.LVL81:
 811 0000 F0412DE9 		push	{r4, r5, r6, r7, r8, lr}
 812              		.cfi_def_cfa_offset 24
 813              		.cfi_offset 4, -24
 814              		.cfi_offset 5, -20
 815              		.cfi_offset 6, -16
 816              		.cfi_offset 7, -12
 817              		.cfi_offset 8, -8
 818              		.cfi_offset 14, -4
 376:D:/Work/DeviceTester/amazon-freertos/lib/third_party/mbedtls/library\md.c ****     int ret;
 377:D:/Work/DeviceTester/amazon-freertos/lib/third_party/mbedtls/library\md.c ****     unsigned char tmp[MBEDTLS_MD_MAX_SIZE];
 378:D:/Work/DeviceTester/amazon-freertos/lib/third_party/mbedtls/library\md.c ****     unsigned char *opad;
 379:D:/Work/DeviceTester/amazon-freertos/lib/third_party/mbedtls/library\md.c **** 
 380:D:/Work/DeviceTester/amazon-freertos/lib/third_party/mbedtls/library\md.c ****     if( ctx == NULL || ctx->md_info == NULL || ctx->hmac_ctx == NULL )
 819              		.loc 1 380 0
 820 0004 004050E2 		subs	r4, r0, #0
 375:D:/Work/DeviceTester/amazon-freertos/lib/third_party/mbedtls/library\md.c ****     int ret;
 821              		.loc 1 375 0
 822 0008 20D04DE2 		sub	sp, sp, #32
 823              		.cfi_def_cfa_offset 56
 824              		.loc 1 380 0
 825 000c 2A00000A 		beq	.L113
 826              		.loc 1 380 0 is_stmt 0 discriminator 1
 827 0010 003094E5 		ldr	r3, [r4]
 828 0014 000053E3 		cmp	r3, #0
 829 0018 2700000A 		beq	.L113
 830              		.loc 1 380 0 discriminator 2
 831 001c 086094E5 		ldr	r6, [r4, #8]
 832 0020 000056E3 		cmp	r6, #0
 833 0024 2400000A 		beq	.L113
 381:D:/Work/DeviceTester/amazon-freertos/lib/third_party/mbedtls/library\md.c ****         return( MBEDTLS_ERR_MD_BAD_INPUT_DATA );
 382:D:/Work/DeviceTester/amazon-freertos/lib/third_party/mbedtls/library\md.c **** 
 383:D:/Work/DeviceTester/amazon-freertos/lib/third_party/mbedtls/library\md.c ****     opad = (unsigned char *) ctx->hmac_ctx + ctx->md_info->block_size;
 834              		.loc 1 383 0 is_stmt 1
 835 0028 0C8093E5 		ldr	r8, [r3, #12]
 836              	.LVL82:
 837 002c 0150A0E1 		mov	r5, r1
 384:D:/Work/DeviceTester/amazon-freertos/lib/third_party/mbedtls/library\md.c **** 
 385:D:/Work/DeviceTester/amazon-freertos/lib/third_party/mbedtls/library\md.c ****     if( ( ret = ctx->md_info->finish_func( ctx->md_ctx, tmp ) ) != 0 )
 838              		.loc 1 385 0
 839 0030 183093E5 		ldr	r3, [r3, #24]
 840 0034 0D10A0E1 		mov	r1, sp
 841              	.LVL83:
 842 0038 040094E5 		ldr	r0, [r4, #4]
 843              	.LVL84:
 844 003c 33FF2FE1 		blx	r3
 845              	.LVL85:
 846 0040 000050E3 		cmp	r0, #0
 847 0044 1A00001A 		bne	.L109
 386:D:/Work/DeviceTester/amazon-freertos/lib/third_party/mbedtls/library\md.c ****         return( ret );
 387:D:/Work/DeviceTester/amazon-freertos/lib/third_party/mbedtls/library\md.c ****     if( ( ret = ctx->md_info->starts_func( ctx->md_ctx ) ) != 0 )
 848              		.loc 1 387 0
 849 0048 003094E5 		ldr	r3, [r4]
 850 004c 040094E5 		ldr	r0, [r4, #4]
 851              	.LVL86:
 852 0050 103093E5 		ldr	r3, [r3, #16]
 853 0054 33FF2FE1 		blx	r3
 854              	.LVL87:
 855 0058 000050E3 		cmp	r0, #0
 856 005c 1400001A 		bne	.L109
 388:D:/Work/DeviceTester/amazon-freertos/lib/third_party/mbedtls/library\md.c ****         return( ret );
 389:D:/Work/DeviceTester/amazon-freertos/lib/third_party/mbedtls/library\md.c ****     if( ( ret = ctx->md_info->update_func( ctx->md_ctx, opad,
 857              		.loc 1 389 0
 858 0060 003094E5 		ldr	r3, [r4]
 859 0064 081086E0 		add	r1, r6, r8
 860 0068 040094E5 		ldr	r0, [r4, #4]
 861              	.LVL88:
 862 006c 147093E5 		ldr	r7, [r3, #20]
 863 0070 0C2093E5 		ldr	r2, [r3, #12]
 864 0074 37FF2FE1 		blx	r7
 865              	.LVL89:
 866 0078 000050E3 		cmp	r0, #0
 867 007c 0C00001A 		bne	.L109
 390:D:/Work/DeviceTester/amazon-freertos/lib/third_party/mbedtls/library\md.c ****                                            ctx->md_info->block_size ) ) != 0 )
 391:D:/Work/DeviceTester/amazon-freertos/lib/third_party/mbedtls/library\md.c ****         return( ret );
 392:D:/Work/DeviceTester/amazon-freertos/lib/third_party/mbedtls/library\md.c ****     if( ( ret = ctx->md_info->update_func( ctx->md_ctx, tmp,
 868              		.loc 1 392 0
 869 0080 003094E5 		ldr	r3, [r4]
 870 0084 0D10A0E1 		mov	r1, sp
 871 0088 040094E5 		ldr	r0, [r4, #4]
 872              	.LVL90:
 873 008c 146093E5 		ldr	r6, [r3, #20]
 874              	.LVL91:
 875 0090 082093E5 		ldr	r2, [r3, #8]
 876 0094 36FF2FE1 		blx	r6
 877              	.LVL92:
 878 0098 000050E3 		cmp	r0, #0
 879 009c 0400001A 		bne	.L109
 393:D:/Work/DeviceTester/amazon-freertos/lib/third_party/mbedtls/library\md.c ****                                            ctx->md_info->size ) ) != 0 )
 394:D:/Work/DeviceTester/amazon-freertos/lib/third_party/mbedtls/library\md.c ****         return( ret );
 395:D:/Work/DeviceTester/amazon-freertos/lib/third_party/mbedtls/library\md.c ****     return( ctx->md_info->finish_func( ctx->md_ctx, output ) );
 880              		.loc 1 395 0
 881 00a0 003094E5 		ldr	r3, [r4]
 882 00a4 0510A0E1 		mov	r1, r5
 883 00a8 040094E5 		ldr	r0, [r4, #4]
 884              	.LVL93:
 885 00ac 183093E5 		ldr	r3, [r3, #24]
 886 00b0 33FF2FE1 		blx	r3
 887              	.LVL94:
 888              	.L109:
 396:D:/Work/DeviceTester/amazon-freertos/lib/third_party/mbedtls/library\md.c **** }
 889              		.loc 1 396 0
 890 00b4 20D08DE2 		add	sp, sp, #32
 891              		.cfi_remember_state
 892              		.cfi_def_cfa_offset 24
 893              		@ sp needed
 894 00b8 F081BDE8 		pop	{r4, r5, r6, r7, r8, pc}
 895              	.LVL95:
 896              	.L113:
 897              		.cfi_restore_state
 381:D:/Work/DeviceTester/amazon-freertos/lib/third_party/mbedtls/library\md.c **** 
 898              		.loc 1 381 0
 899 00bc 00009FE5 		ldr	r0, .L115
 900              	.LVL96:
 901 00c0 FBFFFFEA 		b	.L109
 902              	.L116:
 903              		.align	2
 904              	.L115:
 905 00c4 00AFFFFF 		.word	-20736
 906              		.cfi_endproc
 907              	.LFE14:
 909              		.section	.text.mbedtls_md_hmac_reset,"ax",%progbits
 910              		.align	2
 911              		.global	mbedtls_md_hmac_reset
 912              		.syntax unified
 913              		.arm
 914              		.fpu neon
 916              	mbedtls_md_hmac_reset:
 917              	.LFB15:
 397:D:/Work/DeviceTester/amazon-freertos/lib/third_party/mbedtls/library\md.c **** 
 398:D:/Work/DeviceTester/amazon-freertos/lib/third_party/mbedtls/library\md.c **** int mbedtls_md_hmac_reset( mbedtls_md_context_t *ctx )
 399:D:/Work/DeviceTester/amazon-freertos/lib/third_party/mbedtls/library\md.c **** {
 918              		.loc 1 399 0
 919              		.cfi_startproc
 920              		@ args = 0, pretend = 0, frame = 0
 921              		@ frame_needed = 0, uses_anonymous_args = 0
 922              	.LVL97:
 923 0000 70402DE9 		push	{r4, r5, r6, lr}
 924              		.cfi_def_cfa_offset 16
 925              		.cfi_offset 4, -16
 926              		.cfi_offset 5, -12
 927              		.cfi_offset 6, -8
 928              		.cfi_offset 14, -4
 400:D:/Work/DeviceTester/amazon-freertos/lib/third_party/mbedtls/library\md.c ****     int ret;
 401:D:/Work/DeviceTester/amazon-freertos/lib/third_party/mbedtls/library\md.c ****     unsigned char *ipad;
 402:D:/Work/DeviceTester/amazon-freertos/lib/third_party/mbedtls/library\md.c **** 
 403:D:/Work/DeviceTester/amazon-freertos/lib/third_party/mbedtls/library\md.c ****     if( ctx == NULL || ctx->md_info == NULL || ctx->hmac_ctx == NULL )
 929              		.loc 1 403 0
 930 0004 004050E2 		subs	r4, r0, #0
 931 0008 1200000A 		beq	.L121
 932              		.loc 1 403 0 is_stmt 0 discriminator 1
 933 000c 003094E5 		ldr	r3, [r4]
 934 0010 000053E3 		cmp	r3, #0
 935 0014 0F00000A 		beq	.L121
 936              		.loc 1 403 0 discriminator 2
 937 0018 085094E5 		ldr	r5, [r4, #8]
 938 001c 000055E3 		cmp	r5, #0
 939 0020 0C00000A 		beq	.L121
 940              	.LVL98:
 404:D:/Work/DeviceTester/amazon-freertos/lib/third_party/mbedtls/library\md.c ****         return( MBEDTLS_ERR_MD_BAD_INPUT_DATA );
 405:D:/Work/DeviceTester/amazon-freertos/lib/third_party/mbedtls/library\md.c **** 
 406:D:/Work/DeviceTester/amazon-freertos/lib/third_party/mbedtls/library\md.c ****     ipad = (unsigned char *) ctx->hmac_ctx;
 407:D:/Work/DeviceTester/amazon-freertos/lib/third_party/mbedtls/library\md.c **** 
 408:D:/Work/DeviceTester/amazon-freertos/lib/third_party/mbedtls/library\md.c ****     if( ( ret = ctx->md_info->starts_func( ctx->md_ctx ) ) != 0 )
 941              		.loc 1 408 0 is_stmt 1
 942 0024 103093E5 		ldr	r3, [r3, #16]
 943 0028 040094E5 		ldr	r0, [r4, #4]
 944              	.LVL99:
 945 002c 33FF2FE1 		blx	r3
 946              	.LVL100:
 947 0030 000050E3 		cmp	r0, #0
 948 0034 7080BD18 		popne	{r4, r5, r6, pc}
 409:D:/Work/DeviceTester/amazon-freertos/lib/third_party/mbedtls/library\md.c ****         return( ret );
 410:D:/Work/DeviceTester/amazon-freertos/lib/third_party/mbedtls/library\md.c ****     return( ctx->md_info->update_func( ctx->md_ctx, ipad,
 949              		.loc 1 410 0
 950 0038 003094E5 		ldr	r3, [r4]
 951 003c 0510A0E1 		mov	r1, r5
 952 0040 040094E5 		ldr	r0, [r4, #4]
 953              	.LVL101:
 954 0044 14E093E5 		ldr	lr, [r3, #20]
 955 0048 0C2093E5 		ldr	r2, [r3, #12]
 956 004c 0E30A0E1 		mov	r3, lr
 411:D:/Work/DeviceTester/amazon-freertos/lib/third_party/mbedtls/library\md.c ****                                        ctx->md_info->block_size ) );
 412:D:/Work/DeviceTester/amazon-freertos/lib/third_party/mbedtls/library\md.c **** }
 957              		.loc 1 412 0
 958 0050 7040BDE8 		pop	{r4, r5, r6, lr}
 959              		.cfi_remember_state
 960              		.cfi_restore 14
 961              		.cfi_restore 6
 962              		.cfi_restore 5
 963              		.cfi_restore 4
 964              		.cfi_def_cfa_offset 0
 965              	.LVL102:
 410:D:/Work/DeviceTester/amazon-freertos/lib/third_party/mbedtls/library\md.c ****                                        ctx->md_info->block_size ) );
 966              		.loc 1 410 0
 967 0054 13FF2FE1 		bx	r3
 968              	.LVL103:
 969              	.L121:
 970              		.cfi_restore_state
 404:D:/Work/DeviceTester/amazon-freertos/lib/third_party/mbedtls/library\md.c **** 
 971              		.loc 1 404 0
 972 0058 00009FE5 		ldr	r0, .L123
 973              	.LVL104:
 974              		.loc 1 412 0
 975 005c 7080BDE8 		pop	{r4, r5, r6, pc}
 976              	.L124:
 977              		.align	2
 978              	.L123:
 979 0060 00AFFFFF 		.word	-20736
 980              		.cfi_endproc
 981              	.LFE15:
 983              		.section	.text.mbedtls_md_hmac,"ax",%progbits
 984              		.align	2
 985              		.global	mbedtls_md_hmac
 986              		.syntax unified
 987              		.arm
 988              		.fpu neon
 990              	mbedtls_md_hmac:
 991              	.LFB16:
 413:D:/Work/DeviceTester/amazon-freertos/lib/third_party/mbedtls/library\md.c **** 
 414:D:/Work/DeviceTester/amazon-freertos/lib/third_party/mbedtls/library\md.c **** int mbedtls_md_hmac( const mbedtls_md_info_t *md_info,
 415:D:/Work/DeviceTester/amazon-freertos/lib/third_party/mbedtls/library\md.c ****                      const unsigned char *key, size_t keylen,
 416:D:/Work/DeviceTester/amazon-freertos/lib/third_party/mbedtls/library\md.c ****                      const unsigned char *input, size_t ilen,
 417:D:/Work/DeviceTester/amazon-freertos/lib/third_party/mbedtls/library\md.c ****                      unsigned char *output )
 418:D:/Work/DeviceTester/amazon-freertos/lib/third_party/mbedtls/library\md.c **** {
 992              		.loc 1 418 0
 993              		.cfi_startproc
 994              		@ args = 8, pretend = 0, frame = 16
 995              		@ frame_needed = 0, uses_anonymous_args = 0
 996              	.LVL105:
 997 0000 F0402DE9 		push	{r4, r5, r6, r7, lr}
 998              		.cfi_def_cfa_offset 20
 999              		.cfi_offset 4, -20
 1000              		.cfi_offset 5, -16
 1001              		.cfi_offset 6, -12
 1002              		.cfi_offset 7, -8
 1003              		.cfi_offset 14, -4
 419:D:/Work/DeviceTester/amazon-freertos/lib/third_party/mbedtls/library\md.c ****     mbedtls_md_context_t ctx;
 420:D:/Work/DeviceTester/amazon-freertos/lib/third_party/mbedtls/library\md.c ****     int ret;
 421:D:/Work/DeviceTester/amazon-freertos/lib/third_party/mbedtls/library\md.c **** 
 422:D:/Work/DeviceTester/amazon-freertos/lib/third_party/mbedtls/library\md.c ****     if( md_info == NULL )
 1004              		.loc 1 422 0
 1005 0004 004050E2 		subs	r4, r0, #0
 418:D:/Work/DeviceTester/amazon-freertos/lib/third_party/mbedtls/library\md.c ****     mbedtls_md_context_t ctx;
 1006              		.loc 1 418 0
 1007 0008 14D04DE2 		sub	sp, sp, #20
 1008              		.cfi_def_cfa_offset 40
 423:D:/Work/DeviceTester/amazon-freertos/lib/third_party/mbedtls/library\md.c ****         return( MBEDTLS_ERR_MD_BAD_INPUT_DATA );
 1009              		.loc 1 423 0
 1010 000c 80409F05 		ldreq	r4, .L130
 422:D:/Work/DeviceTester/amazon-freertos/lib/third_party/mbedtls/library\md.c ****         return( MBEDTLS_ERR_MD_BAD_INPUT_DATA );
 1011              		.loc 1 422 0
 1012 0010 1C00000A 		beq	.L125
 424:D:/Work/DeviceTester/amazon-freertos/lib/third_party/mbedtls/library\md.c **** 
 425:D:/Work/DeviceTester/amazon-freertos/lib/third_party/mbedtls/library\md.c ****     mbedtls_md_init( &ctx );
 1013              		.loc 1 425 0
 1014 0014 04008DE2 		add	r0, sp, #4
 1015              	.LVL106:
 1016 0018 0350A0E1 		mov	r5, r3
 1017 001c 0270A0E1 		mov	r7, r2
 1018 0020 0160A0E1 		mov	r6, r1
 1019 0024 FEFFFFEB 		bl	mbedtls_md_init
 1020              	.LVL107:
 426:D:/Work/DeviceTester/amazon-freertos/lib/third_party/mbedtls/library\md.c **** 
 427:D:/Work/DeviceTester/amazon-freertos/lib/third_party/mbedtls/library\md.c ****     if( ( ret = mbedtls_md_setup( &ctx, md_info, 1 ) ) != 0 )
 1021              		.loc 1 427 0
 1022 0028 0410A0E1 		mov	r1, r4
 1023 002c 0120A0E3 		mov	r2, #1
 1024 0030 04008DE2 		add	r0, sp, #4
 1025 0034 FEFFFFEB 		bl	mbedtls_md_setup
 1026              	.LVL108:
 1027 0038 004050E2 		subs	r4, r0, #0
 1028 003c 0F00001A 		bne	.L127
 428:D:/Work/DeviceTester/amazon-freertos/lib/third_party/mbedtls/library\md.c ****         goto cleanup;
 429:D:/Work/DeviceTester/amazon-freertos/lib/third_party/mbedtls/library\md.c **** 
 430:D:/Work/DeviceTester/amazon-freertos/lib/third_party/mbedtls/library\md.c ****     if( ( ret = mbedtls_md_hmac_starts( &ctx, key, keylen ) ) != 0 )
 1029              		.loc 1 430 0
 1030 0040 0720A0E1 		mov	r2, r7
 1031 0044 0610A0E1 		mov	r1, r6
 1032 0048 04008DE2 		add	r0, sp, #4
 1033              	.LVL109:
 1034 004c FEFFFFEB 		bl	mbedtls_md_hmac_starts
 1035              	.LVL110:
 1036 0050 004050E2 		subs	r4, r0, #0
 1037 0054 0900001A 		bne	.L127
 431:D:/Work/DeviceTester/amazon-freertos/lib/third_party/mbedtls/library\md.c ****         goto cleanup;
 432:D:/Work/DeviceTester/amazon-freertos/lib/third_party/mbedtls/library\md.c ****     if( ( ret = mbedtls_md_hmac_update( &ctx, input, ilen ) ) != 0 )
 1038              		.loc 1 432 0
 1039 0058 28209DE5 		ldr	r2, [sp, #40]
 1040 005c 0510A0E1 		mov	r1, r5
 1041 0060 04008DE2 		add	r0, sp, #4
 1042              	.LVL111:
 1043 0064 FEFFFFEB 		bl	mbedtls_md_hmac_update
 1044              	.LVL112:
 1045 0068 004050E2 		subs	r4, r0, #0
 1046 006c 0300001A 		bne	.L127
 433:D:/Work/DeviceTester/amazon-freertos/lib/third_party/mbedtls/library\md.c ****         goto cleanup;
 434:D:/Work/DeviceTester/amazon-freertos/lib/third_party/mbedtls/library\md.c ****     if( ( ret = mbedtls_md_hmac_finish( &ctx, output ) ) != 0 )
 1047              		.loc 1 434 0
 1048 0070 2C109DE5 		ldr	r1, [sp, #44]
 1049 0074 04008DE2 		add	r0, sp, #4
 1050              	.LVL113:
 1051 0078 FEFFFFEB 		bl	mbedtls_md_hmac_finish
 1052              	.LVL114:
 1053 007c 0040A0E1 		mov	r4, r0
 1054              	.LVL115:
 1055              	.L127:
 435:D:/Work/DeviceTester/amazon-freertos/lib/third_party/mbedtls/library\md.c ****         goto cleanup;
 436:D:/Work/DeviceTester/amazon-freertos/lib/third_party/mbedtls/library\md.c **** 
 437:D:/Work/DeviceTester/amazon-freertos/lib/third_party/mbedtls/library\md.c **** cleanup:
 438:D:/Work/DeviceTester/amazon-freertos/lib/third_party/mbedtls/library\md.c ****     mbedtls_md_free( &ctx );
 1056              		.loc 1 438 0
 1057 0080 04008DE2 		add	r0, sp, #4
 1058              	.LVL116:
 1059 0084 FEFFFFEB 		bl	mbedtls_md_free
 1060              	.LVL117:
 1061              	.L125:
 439:D:/Work/DeviceTester/amazon-freertos/lib/third_party/mbedtls/library\md.c **** 
 440:D:/Work/DeviceTester/amazon-freertos/lib/third_party/mbedtls/library\md.c ****     return( ret );
 441:D:/Work/DeviceTester/amazon-freertos/lib/third_party/mbedtls/library\md.c **** }
 1062              		.loc 1 441 0
 1063 0088 0400A0E1 		mov	r0, r4
 1064 008c 14D08DE2 		add	sp, sp, #20
 1065              		.cfi_def_cfa_offset 20
 1066              		@ sp needed
 1067 0090 F080BDE8 		pop	{r4, r5, r6, r7, pc}
 1068              	.L131:
 1069              		.align	2
 1070              	.L130:
 1071 0094 00AFFFFF 		.word	-20736
 1072              		.cfi_endproc
 1073              	.LFE16:
 1075              		.section	.text.mbedtls_md_process,"ax",%progbits
 1076              		.align	2
 1077              		.global	mbedtls_md_process
 1078              		.syntax unified
 1079              		.arm
 1080              		.fpu neon
 1082              	mbedtls_md_process:
 1083              	.LFB17:
 442:D:/Work/DeviceTester/amazon-freertos/lib/third_party/mbedtls/library\md.c **** 
 443:D:/Work/DeviceTester/amazon-freertos/lib/third_party/mbedtls/library\md.c **** int mbedtls_md_process( mbedtls_md_context_t *ctx, const unsigned char *data )
 444:D:/Work/DeviceTester/amazon-freertos/lib/third_party/mbedtls/library\md.c **** {
 1084              		.loc 1 444 0
 1085              		.cfi_startproc
 1086              		@ args = 0, pretend = 0, frame = 0
 1087              		@ frame_needed = 0, uses_anonymous_args = 0
 1088              		@ link register save eliminated.
 1089              	.LVL118:
 445:D:/Work/DeviceTester/amazon-freertos/lib/third_party/mbedtls/library\md.c ****     if( ctx == NULL || ctx->md_info == NULL )
 1090              		.loc 1 445 0
 1091 0000 000050E3 		cmp	r0, #0
 1092 0004 0500000A 		beq	.L135
 1093              		.loc 1 445 0 is_stmt 0 discriminator 1
 1094 0008 003090E5 		ldr	r3, [r0]
 1095 000c 000053E3 		cmp	r3, #0
 1096 0010 0200000A 		beq	.L135
 446:D:/Work/DeviceTester/amazon-freertos/lib/third_party/mbedtls/library\md.c ****         return( MBEDTLS_ERR_MD_BAD_INPUT_DATA );
 447:D:/Work/DeviceTester/amazon-freertos/lib/third_party/mbedtls/library\md.c **** 
 448:D:/Work/DeviceTester/amazon-freertos/lib/third_party/mbedtls/library\md.c ****     return( ctx->md_info->process_func( ctx->md_ctx, data ) );
 1097              		.loc 1 448 0 is_stmt 1
 1098 0014 2C3093E5 		ldr	r3, [r3, #44]
 1099 0018 040090E5 		ldr	r0, [r0, #4]
 1100              	.LVL119:
 1101 001c 13FF2FE1 		bx	r3
 1102              	.LVL120:
 1103              	.L135:
 446:D:/Work/DeviceTester/amazon-freertos/lib/third_party/mbedtls/library\md.c ****         return( MBEDTLS_ERR_MD_BAD_INPUT_DATA );
 1104              		.loc 1 446 0
 1105 0020 00009FE5 		ldr	r0, .L136
 1106              	.LVL121:
 449:D:/Work/DeviceTester/amazon-freertos/lib/third_party/mbedtls/library\md.c **** }
 1107              		.loc 1 449 0
 1108 0024 1EFF2FE1 		bx	lr
 1109              	.L137:
 1110              		.align	2
 1111              	.L136:
 1112 0028 00AFFFFF 		.word	-20736
 1113              		.cfi_endproc
 1114              	.LFE17:
 1116              		.section	.text.mbedtls_md_get_size,"ax",%progbits
 1117              		.align	2
 1118              		.global	mbedtls_md_get_size
 1119              		.syntax unified
 1120              		.arm
 1121              		.fpu neon
 1123              	mbedtls_md_get_size:
 1124              	.LFB18:
 450:D:/Work/DeviceTester/amazon-freertos/lib/third_party/mbedtls/library\md.c **** 
 451:D:/Work/DeviceTester/amazon-freertos/lib/third_party/mbedtls/library\md.c **** unsigned char mbedtls_md_get_size( const mbedtls_md_info_t *md_info )
 452:D:/Work/DeviceTester/amazon-freertos/lib/third_party/mbedtls/library\md.c **** {
 1125              		.loc 1 452 0
 1126              		.cfi_startproc
 1127              		@ args = 0, pretend = 0, frame = 0
 1128              		@ frame_needed = 0, uses_anonymous_args = 0
 1129              		@ link register save eliminated.
 1130              	.LVL122:
 453:D:/Work/DeviceTester/amazon-freertos/lib/third_party/mbedtls/library\md.c ****     if( md_info == NULL )
 1131              		.loc 1 453 0
 1132 0000 000050E3 		cmp	r0, #0
 454:D:/Work/DeviceTester/amazon-freertos/lib/third_party/mbedtls/library\md.c ****         return( 0 );
 455:D:/Work/DeviceTester/amazon-freertos/lib/third_party/mbedtls/library\md.c **** 
 456:D:/Work/DeviceTester/amazon-freertos/lib/third_party/mbedtls/library\md.c ****     return md_info->size;
 1133              		.loc 1 456 0
 1134 0004 08009015 		ldrne	r0, [r0, #8]
 1135              	.LVL123:
 457:D:/Work/DeviceTester/amazon-freertos/lib/third_party/mbedtls/library\md.c **** }
 1136              		.loc 1 457 0
 1137 0008 7000EFE6 		uxtb	r0, r0
 1138 000c 1EFF2FE1 		bx	lr
 1139              		.cfi_endproc
 1140              	.LFE18:
 1142              		.section	.text.mbedtls_md_get_type,"ax",%progbits
 1143              		.align	2
 1144              		.global	mbedtls_md_get_type
 1145              		.syntax unified
 1146              		.arm
 1147              		.fpu neon
 1149              	mbedtls_md_get_type:
 1150              	.LFB19:
 458:D:/Work/DeviceTester/amazon-freertos/lib/third_party/mbedtls/library\md.c **** 
 459:D:/Work/DeviceTester/amazon-freertos/lib/third_party/mbedtls/library\md.c **** mbedtls_md_type_t mbedtls_md_get_type( const mbedtls_md_info_t *md_info )
 460:D:/Work/DeviceTester/amazon-freertos/lib/third_party/mbedtls/library\md.c **** {
 1151              		.loc 1 460 0
 1152              		.cfi_startproc
 1153              		@ args = 0, pretend = 0, frame = 0
 1154              		@ frame_needed = 0, uses_anonymous_args = 0
 1155              		@ link register save eliminated.
 1156              	.LVL124:
 461:D:/Work/DeviceTester/amazon-freertos/lib/third_party/mbedtls/library\md.c ****     if( md_info == NULL )
 1157              		.loc 1 461 0
 1158 0000 000050E3 		cmp	r0, #0
 462:D:/Work/DeviceTester/amazon-freertos/lib/third_party/mbedtls/library\md.c ****         return( MBEDTLS_MD_NONE );
 463:D:/Work/DeviceTester/amazon-freertos/lib/third_party/mbedtls/library\md.c **** 
 464:D:/Work/DeviceTester/amazon-freertos/lib/third_party/mbedtls/library\md.c ****     return md_info->type;
 1159              		.loc 1 464 0
 1160 0004 0000D015 		ldrbne	r0, [r0]	@ zero_extendqisi2
 1161              	.LVL125:
 465:D:/Work/DeviceTester/amazon-freertos/lib/third_party/mbedtls/library\md.c **** }
 1162              		.loc 1 465 0
 1163 0008 1EFF2FE1 		bx	lr
 1164              		.cfi_endproc
 1165              	.LFE19:
 1167              		.section	.text.mbedtls_md_get_name,"ax",%progbits
 1168              		.align	2
 1169              		.global	mbedtls_md_get_name
 1170              		.syntax unified
 1171              		.arm
 1172              		.fpu neon
 1174              	mbedtls_md_get_name:
 1175              	.LFB20:
 466:D:/Work/DeviceTester/amazon-freertos/lib/third_party/mbedtls/library\md.c **** 
 467:D:/Work/DeviceTester/amazon-freertos/lib/third_party/mbedtls/library\md.c **** const char *mbedtls_md_get_name( const mbedtls_md_info_t *md_info )
 468:D:/Work/DeviceTester/amazon-freertos/lib/third_party/mbedtls/library\md.c **** {
 1176              		.loc 1 468 0
 1177              		.cfi_startproc
 1178              		@ args = 0, pretend = 0, frame = 0
 1179              		@ frame_needed = 0, uses_anonymous_args = 0
 1180              		@ link register save eliminated.
 1181              	.LVL126:
 469:D:/Work/DeviceTester/amazon-freertos/lib/third_party/mbedtls/library\md.c ****     if( md_info == NULL )
 1182              		.loc 1 469 0
 1183 0000 000050E3 		cmp	r0, #0
 470:D:/Work/DeviceTester/amazon-freertos/lib/third_party/mbedtls/library\md.c ****         return( NULL );
 471:D:/Work/DeviceTester/amazon-freertos/lib/third_party/mbedtls/library\md.c **** 
 472:D:/Work/DeviceTester/amazon-freertos/lib/third_party/mbedtls/library\md.c ****     return md_info->name;
 1184              		.loc 1 472 0
 1185 0004 04009015 		ldrne	r0, [r0, #4]
 1186              	.LVL127:
 473:D:/Work/DeviceTester/amazon-freertos/lib/third_party/mbedtls/library\md.c **** }
 1187              		.loc 1 473 0
 1188 0008 1EFF2FE1 		bx	lr
 1189              		.cfi_endproc
 1190              	.LFE20:
 1192              		.section	.rodata.CSWTCH.2,"a",%progbits
 1193              		.align	2
 1194              		.set	.LANCHOR1,. + 0
 1197              	CSWTCH.2:
 1198 0000 00000000 		.word	mbedtls_sha1_info
 1199 0004 00000000 		.word	mbedtls_sha224_info
 1200 0008 00000000 		.word	mbedtls_sha256_info
 1201              		.section	.rodata.mbedtls_md_info_from_string.str1.1,"aMS",%progbits,1
 1202              	.LC0:
 1203 0000 53484131 		.ascii	"SHA1\000"
 1203      00
 1204              	.LC1:
 1205 0005 53484100 		.ascii	"SHA\000"
 1206              	.LC2:
 1207 0009 53484132 		.ascii	"SHA224\000"
 1207      323400
 1208              	.LC3:
 1209 0010 53484132 		.ascii	"SHA256\000"
 1209      353600
 1210              		.section	.rodata.supported_digests,"a",%progbits
 1211              		.align	2
 1212              		.set	.LANCHOR0,. + 0
 1215              	supported_digests:
 1216 0000 06000000 		.word	6
 1217 0004 05000000 		.word	5
 1218 0008 04000000 		.word	4
 1219 000c 00000000 		.word	0
 1220              		.text
 1221              	.Letext0:
 1222              		.file 2 "c:\\program files (x86)\\gnu tools arm embedded\\6 2017-q2-update\\lib\\gcc\\arm-none-eab
 1223              		.file 3 "D:\\Work\\DeviceTester\\amazon-freertos\\lib\\third_party\\mbedtls\\include/mbedtls/md.h"
 1224              		.file 4 "D:\\Work\\DeviceTester\\amazon-freertos\\lib\\third_party\\mbedtls\\include/mbedtls/md_in
 1225              		.file 5 "c:\\program files (x86)\\gnu tools arm embedded\\6 2017-q2-update\\arm-none-eabi\\include
 1226              		.file 6 "c:\\program files (x86)\\gnu tools arm embedded\\6 2017-q2-update\\arm-none-eabi\\include
 1227              		.file 7 "c:\\program files (x86)\\gnu tools arm embedded\\6 2017-q2-update\\arm-none-eabi\\include
 1228              		.file 8 "c:\\program files (x86)\\gnu tools arm embedded\\6 2017-q2-update\\arm-none-eabi\\include
 1229              		.file 9 "c:\\program files (x86)\\gnu tools arm embedded\\6 2017-q2-update\\arm-none-eabi\\include
 1230              		.file 10 "c:\\program files (x86)\\gnu tools arm embedded\\6 2017-q2-update\\arm-none-eabi\\includ
 1231              		.file 11 "D:\\Work\\DeviceTester\\amazon-freertos\\lib\\third_party\\mbedtls\\include/mbedtls/plat
 1232              		.file 12 "D:\\Work\\DeviceTester\\amazon-freertos\\lib\\third_party\\mbedtls\\include/mbedtls/plat