   1              		.cpu cortex-a9
   2              		.eabi_attribute 28, 1
   3              		.eabi_attribute 20, 1
   4              		.eabi_attribute 21, 1
   5              		.eabi_attribute 23, 3
   6              		.eabi_attribute 24, 1
   7              		.eabi_attribute 25, 1
   8              		.eabi_attribute 26, 1
   9              		.eabi_attribute 30, 4
  10              		.eabi_attribute 34, 0
  11              		.eabi_attribute 18, 4
  12              		.file	"md_wrap.c"
  13              		.text
  14              	.Ltext0:
  15              		.cfi_sections	.debug_frame
  16              		.section	.text.sha1_process_wrap,"ax",%progbits
  17              		.align	2
  18              		.syntax unified
  19              		.arm
  20              		.fpu neon
  22              	sha1_process_wrap:
  23              	.LFB7:
  24              		.file 1 "D:/Work/DeviceTester/amazon-freertos/lib/third_party/mbedtls/library/md_wrap.c"
   1:D:/Work/DeviceTester/amazon-freertos/lib/third_party/mbedtls/library\md_wrap.c **** /**
   2:D:/Work/DeviceTester/amazon-freertos/lib/third_party/mbedtls/library\md_wrap.c ****  * \file md_wrap.c
   3:D:/Work/DeviceTester/amazon-freertos/lib/third_party/mbedtls/library\md_wrap.c ****  *
   4:D:/Work/DeviceTester/amazon-freertos/lib/third_party/mbedtls/library\md_wrap.c ****  * \brief Generic message digest wrapper for mbed TLS
   5:D:/Work/DeviceTester/amazon-freertos/lib/third_party/mbedtls/library\md_wrap.c ****  *
   6:D:/Work/DeviceTester/amazon-freertos/lib/third_party/mbedtls/library\md_wrap.c ****  * \author Adriaan de Jong <dejong@fox-it.com>
   7:D:/Work/DeviceTester/amazon-freertos/lib/third_party/mbedtls/library\md_wrap.c ****  *
   8:D:/Work/DeviceTester/amazon-freertos/lib/third_party/mbedtls/library\md_wrap.c ****  *  Copyright (C) 2006-2015, ARM Limited, All Rights Reserved
   9:D:/Work/DeviceTester/amazon-freertos/lib/third_party/mbedtls/library\md_wrap.c ****  *  SPDX-License-Identifier: Apache-2.0
  10:D:/Work/DeviceTester/amazon-freertos/lib/third_party/mbedtls/library\md_wrap.c ****  *
  11:D:/Work/DeviceTester/amazon-freertos/lib/third_party/mbedtls/library\md_wrap.c ****  *  Licensed under the Apache License, Version 2.0 (the "License"); you may
  12:D:/Work/DeviceTester/amazon-freertos/lib/third_party/mbedtls/library\md_wrap.c ****  *  not use this file except in compliance with the License.
  13:D:/Work/DeviceTester/amazon-freertos/lib/third_party/mbedtls/library\md_wrap.c ****  *  You may obtain a copy of the License at
  14:D:/Work/DeviceTester/amazon-freertos/lib/third_party/mbedtls/library\md_wrap.c ****  *
  15:D:/Work/DeviceTester/amazon-freertos/lib/third_party/mbedtls/library\md_wrap.c ****  *  http://www.apache.org/licenses/LICENSE-2.0
  16:D:/Work/DeviceTester/amazon-freertos/lib/third_party/mbedtls/library\md_wrap.c ****  *
  17:D:/Work/DeviceTester/amazon-freertos/lib/third_party/mbedtls/library\md_wrap.c ****  *  Unless required by applicable law or agreed to in writing, software
  18:D:/Work/DeviceTester/amazon-freertos/lib/third_party/mbedtls/library\md_wrap.c ****  *  distributed under the License is distributed on an "AS IS" BASIS, WITHOUT
  19:D:/Work/DeviceTester/amazon-freertos/lib/third_party/mbedtls/library\md_wrap.c ****  *  WARRANTIES OR CONDITIONS OF ANY KIND, either express or implied.
  20:D:/Work/DeviceTester/amazon-freertos/lib/third_party/mbedtls/library\md_wrap.c ****  *  See the License for the specific language governing permissions and
  21:D:/Work/DeviceTester/amazon-freertos/lib/third_party/mbedtls/library\md_wrap.c ****  *  limitations under the License.
  22:D:/Work/DeviceTester/amazon-freertos/lib/third_party/mbedtls/library\md_wrap.c ****  *
  23:D:/Work/DeviceTester/amazon-freertos/lib/third_party/mbedtls/library\md_wrap.c ****  *  This file is part of mbed TLS (https://tls.mbed.org)
  24:D:/Work/DeviceTester/amazon-freertos/lib/third_party/mbedtls/library\md_wrap.c ****  */
  25:D:/Work/DeviceTester/amazon-freertos/lib/third_party/mbedtls/library\md_wrap.c **** 
  26:D:/Work/DeviceTester/amazon-freertos/lib/third_party/mbedtls/library\md_wrap.c **** #if !defined(MBEDTLS_CONFIG_FILE)
  27:D:/Work/DeviceTester/amazon-freertos/lib/third_party/mbedtls/library\md_wrap.c **** #include "mbedtls/config.h"
  28:D:/Work/DeviceTester/amazon-freertos/lib/third_party/mbedtls/library\md_wrap.c **** #else
  29:D:/Work/DeviceTester/amazon-freertos/lib/third_party/mbedtls/library\md_wrap.c **** #include MBEDTLS_CONFIG_FILE
  30:D:/Work/DeviceTester/amazon-freertos/lib/third_party/mbedtls/library\md_wrap.c **** #endif
  31:D:/Work/DeviceTester/amazon-freertos/lib/third_party/mbedtls/library\md_wrap.c **** 
  32:D:/Work/DeviceTester/amazon-freertos/lib/third_party/mbedtls/library\md_wrap.c **** #if defined(MBEDTLS_MD_C)
  33:D:/Work/DeviceTester/amazon-freertos/lib/third_party/mbedtls/library\md_wrap.c **** 
  34:D:/Work/DeviceTester/amazon-freertos/lib/third_party/mbedtls/library\md_wrap.c **** #include "mbedtls/md_internal.h"
  35:D:/Work/DeviceTester/amazon-freertos/lib/third_party/mbedtls/library\md_wrap.c **** 
  36:D:/Work/DeviceTester/amazon-freertos/lib/third_party/mbedtls/library\md_wrap.c **** #if defined(MBEDTLS_MD2_C)
  37:D:/Work/DeviceTester/amazon-freertos/lib/third_party/mbedtls/library\md_wrap.c **** #include "mbedtls/md2.h"
  38:D:/Work/DeviceTester/amazon-freertos/lib/third_party/mbedtls/library\md_wrap.c **** #endif
  39:D:/Work/DeviceTester/amazon-freertos/lib/third_party/mbedtls/library\md_wrap.c **** 
  40:D:/Work/DeviceTester/amazon-freertos/lib/third_party/mbedtls/library\md_wrap.c **** #if defined(MBEDTLS_MD4_C)
  41:D:/Work/DeviceTester/amazon-freertos/lib/third_party/mbedtls/library\md_wrap.c **** #include "mbedtls/md4.h"
  42:D:/Work/DeviceTester/amazon-freertos/lib/third_party/mbedtls/library\md_wrap.c **** #endif
  43:D:/Work/DeviceTester/amazon-freertos/lib/third_party/mbedtls/library\md_wrap.c **** 
  44:D:/Work/DeviceTester/amazon-freertos/lib/third_party/mbedtls/library\md_wrap.c **** #if defined(MBEDTLS_MD5_C)
  45:D:/Work/DeviceTester/amazon-freertos/lib/third_party/mbedtls/library\md_wrap.c **** #include "mbedtls/md5.h"
  46:D:/Work/DeviceTester/amazon-freertos/lib/third_party/mbedtls/library\md_wrap.c **** #endif
  47:D:/Work/DeviceTester/amazon-freertos/lib/third_party/mbedtls/library\md_wrap.c **** 
  48:D:/Work/DeviceTester/amazon-freertos/lib/third_party/mbedtls/library\md_wrap.c **** #if defined(MBEDTLS_RIPEMD160_C)
  49:D:/Work/DeviceTester/amazon-freertos/lib/third_party/mbedtls/library\md_wrap.c **** #include "mbedtls/ripemd160.h"
  50:D:/Work/DeviceTester/amazon-freertos/lib/third_party/mbedtls/library\md_wrap.c **** #endif
  51:D:/Work/DeviceTester/amazon-freertos/lib/third_party/mbedtls/library\md_wrap.c **** 
  52:D:/Work/DeviceTester/amazon-freertos/lib/third_party/mbedtls/library\md_wrap.c **** #if defined(MBEDTLS_SHA1_C)
  53:D:/Work/DeviceTester/amazon-freertos/lib/third_party/mbedtls/library\md_wrap.c **** #include "mbedtls/sha1.h"
  54:D:/Work/DeviceTester/amazon-freertos/lib/third_party/mbedtls/library\md_wrap.c **** #endif
  55:D:/Work/DeviceTester/amazon-freertos/lib/third_party/mbedtls/library\md_wrap.c **** 
  56:D:/Work/DeviceTester/amazon-freertos/lib/third_party/mbedtls/library\md_wrap.c **** #if defined(MBEDTLS_SHA256_C)
  57:D:/Work/DeviceTester/amazon-freertos/lib/third_party/mbedtls/library\md_wrap.c **** #include "mbedtls/sha256.h"
  58:D:/Work/DeviceTester/amazon-freertos/lib/third_party/mbedtls/library\md_wrap.c **** #endif
  59:D:/Work/DeviceTester/amazon-freertos/lib/third_party/mbedtls/library\md_wrap.c **** 
  60:D:/Work/DeviceTester/amazon-freertos/lib/third_party/mbedtls/library\md_wrap.c **** #if defined(MBEDTLS_SHA512_C)
  61:D:/Work/DeviceTester/amazon-freertos/lib/third_party/mbedtls/library\md_wrap.c **** #include "mbedtls/sha512.h"
  62:D:/Work/DeviceTester/amazon-freertos/lib/third_party/mbedtls/library\md_wrap.c **** #endif
  63:D:/Work/DeviceTester/amazon-freertos/lib/third_party/mbedtls/library\md_wrap.c **** 
  64:D:/Work/DeviceTester/amazon-freertos/lib/third_party/mbedtls/library\md_wrap.c **** #if defined(MBEDTLS_PLATFORM_C)
  65:D:/Work/DeviceTester/amazon-freertos/lib/third_party/mbedtls/library\md_wrap.c **** #include "mbedtls/platform.h"
  66:D:/Work/DeviceTester/amazon-freertos/lib/third_party/mbedtls/library\md_wrap.c **** #else
  67:D:/Work/DeviceTester/amazon-freertos/lib/third_party/mbedtls/library\md_wrap.c **** #include <stdlib.h>
  68:D:/Work/DeviceTester/amazon-freertos/lib/third_party/mbedtls/library\md_wrap.c **** #define mbedtls_calloc    calloc
  69:D:/Work/DeviceTester/amazon-freertos/lib/third_party/mbedtls/library\md_wrap.c **** #define mbedtls_free       free
  70:D:/Work/DeviceTester/amazon-freertos/lib/third_party/mbedtls/library\md_wrap.c **** #endif
  71:D:/Work/DeviceTester/amazon-freertos/lib/third_party/mbedtls/library\md_wrap.c **** 
  72:D:/Work/DeviceTester/amazon-freertos/lib/third_party/mbedtls/library\md_wrap.c **** #if defined(MBEDTLS_MD2_C)
  73:D:/Work/DeviceTester/amazon-freertos/lib/third_party/mbedtls/library\md_wrap.c **** 
  74:D:/Work/DeviceTester/amazon-freertos/lib/third_party/mbedtls/library\md_wrap.c **** static int md2_starts_wrap( void *ctx )
  75:D:/Work/DeviceTester/amazon-freertos/lib/third_party/mbedtls/library\md_wrap.c **** {
  76:D:/Work/DeviceTester/amazon-freertos/lib/third_party/mbedtls/library\md_wrap.c ****     return( mbedtls_md2_starts_ret( (mbedtls_md2_context *) ctx ) );
  77:D:/Work/DeviceTester/amazon-freertos/lib/third_party/mbedtls/library\md_wrap.c **** }
  78:D:/Work/DeviceTester/amazon-freertos/lib/third_party/mbedtls/library\md_wrap.c **** 
  79:D:/Work/DeviceTester/amazon-freertos/lib/third_party/mbedtls/library\md_wrap.c **** static int md2_update_wrap( void *ctx, const unsigned char *input,
  80:D:/Work/DeviceTester/amazon-freertos/lib/third_party/mbedtls/library\md_wrap.c ****                              size_t ilen )
  81:D:/Work/DeviceTester/amazon-freertos/lib/third_party/mbedtls/library\md_wrap.c **** {
  82:D:/Work/DeviceTester/amazon-freertos/lib/third_party/mbedtls/library\md_wrap.c ****     return( mbedtls_md2_update_ret( (mbedtls_md2_context *) ctx, input, ilen ) );
  83:D:/Work/DeviceTester/amazon-freertos/lib/third_party/mbedtls/library\md_wrap.c **** }
  84:D:/Work/DeviceTester/amazon-freertos/lib/third_party/mbedtls/library\md_wrap.c **** 
  85:D:/Work/DeviceTester/amazon-freertos/lib/third_party/mbedtls/library\md_wrap.c **** static int md2_finish_wrap( void *ctx, unsigned char *output )
  86:D:/Work/DeviceTester/amazon-freertos/lib/third_party/mbedtls/library\md_wrap.c **** {
  87:D:/Work/DeviceTester/amazon-freertos/lib/third_party/mbedtls/library\md_wrap.c ****     return( mbedtls_md2_finish_ret( (mbedtls_md2_context *) ctx, output ) );
  88:D:/Work/DeviceTester/amazon-freertos/lib/third_party/mbedtls/library\md_wrap.c **** }
  89:D:/Work/DeviceTester/amazon-freertos/lib/third_party/mbedtls/library\md_wrap.c **** 
  90:D:/Work/DeviceTester/amazon-freertos/lib/third_party/mbedtls/library\md_wrap.c **** static void *md2_ctx_alloc( void )
  91:D:/Work/DeviceTester/amazon-freertos/lib/third_party/mbedtls/library\md_wrap.c **** {
  92:D:/Work/DeviceTester/amazon-freertos/lib/third_party/mbedtls/library\md_wrap.c ****     void *ctx = mbedtls_calloc( 1, sizeof( mbedtls_md2_context ) );
  93:D:/Work/DeviceTester/amazon-freertos/lib/third_party/mbedtls/library\md_wrap.c **** 
  94:D:/Work/DeviceTester/amazon-freertos/lib/third_party/mbedtls/library\md_wrap.c ****     if( ctx != NULL )
  95:D:/Work/DeviceTester/amazon-freertos/lib/third_party/mbedtls/library\md_wrap.c ****         mbedtls_md2_init( (mbedtls_md2_context *) ctx );
  96:D:/Work/DeviceTester/amazon-freertos/lib/third_party/mbedtls/library\md_wrap.c **** 
  97:D:/Work/DeviceTester/amazon-freertos/lib/third_party/mbedtls/library\md_wrap.c ****     return( ctx );
  98:D:/Work/DeviceTester/amazon-freertos/lib/third_party/mbedtls/library\md_wrap.c **** }
  99:D:/Work/DeviceTester/amazon-freertos/lib/third_party/mbedtls/library\md_wrap.c **** 
 100:D:/Work/DeviceTester/amazon-freertos/lib/third_party/mbedtls/library\md_wrap.c **** static void md2_ctx_free( void *ctx )
 101:D:/Work/DeviceTester/amazon-freertos/lib/third_party/mbedtls/library\md_wrap.c **** {
 102:D:/Work/DeviceTester/amazon-freertos/lib/third_party/mbedtls/library\md_wrap.c ****     mbedtls_md2_free( (mbedtls_md2_context *) ctx );
 103:D:/Work/DeviceTester/amazon-freertos/lib/third_party/mbedtls/library\md_wrap.c ****     mbedtls_free( ctx );
 104:D:/Work/DeviceTester/amazon-freertos/lib/third_party/mbedtls/library\md_wrap.c **** }
 105:D:/Work/DeviceTester/amazon-freertos/lib/third_party/mbedtls/library\md_wrap.c **** 
 106:D:/Work/DeviceTester/amazon-freertos/lib/third_party/mbedtls/library\md_wrap.c **** static void md2_clone_wrap( void *dst, const void *src )
 107:D:/Work/DeviceTester/amazon-freertos/lib/third_party/mbedtls/library\md_wrap.c **** {
 108:D:/Work/DeviceTester/amazon-freertos/lib/third_party/mbedtls/library\md_wrap.c ****     mbedtls_md2_clone( (mbedtls_md2_context *) dst,
 109:D:/Work/DeviceTester/amazon-freertos/lib/third_party/mbedtls/library\md_wrap.c ****                  (const mbedtls_md2_context *) src );
 110:D:/Work/DeviceTester/amazon-freertos/lib/third_party/mbedtls/library\md_wrap.c **** }
 111:D:/Work/DeviceTester/amazon-freertos/lib/third_party/mbedtls/library\md_wrap.c **** 
 112:D:/Work/DeviceTester/amazon-freertos/lib/third_party/mbedtls/library\md_wrap.c **** static int md2_process_wrap( void *ctx, const unsigned char *data )
 113:D:/Work/DeviceTester/amazon-freertos/lib/third_party/mbedtls/library\md_wrap.c **** {
 114:D:/Work/DeviceTester/amazon-freertos/lib/third_party/mbedtls/library\md_wrap.c ****     ((void) data);
 115:D:/Work/DeviceTester/amazon-freertos/lib/third_party/mbedtls/library\md_wrap.c **** 
 116:D:/Work/DeviceTester/amazon-freertos/lib/third_party/mbedtls/library\md_wrap.c ****     return( mbedtls_internal_md2_process( (mbedtls_md2_context *) ctx ) );
 117:D:/Work/DeviceTester/amazon-freertos/lib/third_party/mbedtls/library\md_wrap.c **** }
 118:D:/Work/DeviceTester/amazon-freertos/lib/third_party/mbedtls/library\md_wrap.c **** 
 119:D:/Work/DeviceTester/amazon-freertos/lib/third_party/mbedtls/library\md_wrap.c **** const mbedtls_md_info_t mbedtls_md2_info = {
 120:D:/Work/DeviceTester/amazon-freertos/lib/third_party/mbedtls/library\md_wrap.c ****     MBEDTLS_MD_MD2,
 121:D:/Work/DeviceTester/amazon-freertos/lib/third_party/mbedtls/library\md_wrap.c ****     "MD2",
 122:D:/Work/DeviceTester/amazon-freertos/lib/third_party/mbedtls/library\md_wrap.c ****     16,
 123:D:/Work/DeviceTester/amazon-freertos/lib/third_party/mbedtls/library\md_wrap.c ****     16,
 124:D:/Work/DeviceTester/amazon-freertos/lib/third_party/mbedtls/library\md_wrap.c ****     md2_starts_wrap,
 125:D:/Work/DeviceTester/amazon-freertos/lib/third_party/mbedtls/library\md_wrap.c ****     md2_update_wrap,
 126:D:/Work/DeviceTester/amazon-freertos/lib/third_party/mbedtls/library\md_wrap.c ****     md2_finish_wrap,
 127:D:/Work/DeviceTester/amazon-freertos/lib/third_party/mbedtls/library\md_wrap.c ****     mbedtls_md2_ret,
 128:D:/Work/DeviceTester/amazon-freertos/lib/third_party/mbedtls/library\md_wrap.c ****     md2_ctx_alloc,
 129:D:/Work/DeviceTester/amazon-freertos/lib/third_party/mbedtls/library\md_wrap.c ****     md2_ctx_free,
 130:D:/Work/DeviceTester/amazon-freertos/lib/third_party/mbedtls/library\md_wrap.c ****     md2_clone_wrap,
 131:D:/Work/DeviceTester/amazon-freertos/lib/third_party/mbedtls/library\md_wrap.c ****     md2_process_wrap,
 132:D:/Work/DeviceTester/amazon-freertos/lib/third_party/mbedtls/library\md_wrap.c **** };
 133:D:/Work/DeviceTester/amazon-freertos/lib/third_party/mbedtls/library\md_wrap.c **** 
 134:D:/Work/DeviceTester/amazon-freertos/lib/third_party/mbedtls/library\md_wrap.c **** #endif /* MBEDTLS_MD2_C */
 135:D:/Work/DeviceTester/amazon-freertos/lib/third_party/mbedtls/library\md_wrap.c **** 
 136:D:/Work/DeviceTester/amazon-freertos/lib/third_party/mbedtls/library\md_wrap.c **** #if defined(MBEDTLS_MD4_C)
 137:D:/Work/DeviceTester/amazon-freertos/lib/third_party/mbedtls/library\md_wrap.c **** 
 138:D:/Work/DeviceTester/amazon-freertos/lib/third_party/mbedtls/library\md_wrap.c **** static int md4_starts_wrap( void *ctx )
 139:D:/Work/DeviceTester/amazon-freertos/lib/third_party/mbedtls/library\md_wrap.c **** {
 140:D:/Work/DeviceTester/amazon-freertos/lib/third_party/mbedtls/library\md_wrap.c ****     return( mbedtls_md4_starts_ret( (mbedtls_md4_context *) ctx ) );
 141:D:/Work/DeviceTester/amazon-freertos/lib/third_party/mbedtls/library\md_wrap.c **** }
 142:D:/Work/DeviceTester/amazon-freertos/lib/third_party/mbedtls/library\md_wrap.c **** 
 143:D:/Work/DeviceTester/amazon-freertos/lib/third_party/mbedtls/library\md_wrap.c **** static int md4_update_wrap( void *ctx, const unsigned char *input,
 144:D:/Work/DeviceTester/amazon-freertos/lib/third_party/mbedtls/library\md_wrap.c ****                              size_t ilen )
 145:D:/Work/DeviceTester/amazon-freertos/lib/third_party/mbedtls/library\md_wrap.c **** {
 146:D:/Work/DeviceTester/amazon-freertos/lib/third_party/mbedtls/library\md_wrap.c ****     return( mbedtls_md4_update_ret( (mbedtls_md4_context *) ctx, input, ilen ) );
 147:D:/Work/DeviceTester/amazon-freertos/lib/third_party/mbedtls/library\md_wrap.c **** }
 148:D:/Work/DeviceTester/amazon-freertos/lib/third_party/mbedtls/library\md_wrap.c **** 
 149:D:/Work/DeviceTester/amazon-freertos/lib/third_party/mbedtls/library\md_wrap.c **** static int md4_finish_wrap( void *ctx, unsigned char *output )
 150:D:/Work/DeviceTester/amazon-freertos/lib/third_party/mbedtls/library\md_wrap.c **** {
 151:D:/Work/DeviceTester/amazon-freertos/lib/third_party/mbedtls/library\md_wrap.c ****     return( mbedtls_md4_finish_ret( (mbedtls_md4_context *) ctx, output ) );
 152:D:/Work/DeviceTester/amazon-freertos/lib/third_party/mbedtls/library\md_wrap.c **** }
 153:D:/Work/DeviceTester/amazon-freertos/lib/third_party/mbedtls/library\md_wrap.c **** 
 154:D:/Work/DeviceTester/amazon-freertos/lib/third_party/mbedtls/library\md_wrap.c **** static void *md4_ctx_alloc( void )
 155:D:/Work/DeviceTester/amazon-freertos/lib/third_party/mbedtls/library\md_wrap.c **** {
 156:D:/Work/DeviceTester/amazon-freertos/lib/third_party/mbedtls/library\md_wrap.c ****     void *ctx = mbedtls_calloc( 1, sizeof( mbedtls_md4_context ) );
 157:D:/Work/DeviceTester/amazon-freertos/lib/third_party/mbedtls/library\md_wrap.c **** 
 158:D:/Work/DeviceTester/amazon-freertos/lib/third_party/mbedtls/library\md_wrap.c ****     if( ctx != NULL )
 159:D:/Work/DeviceTester/amazon-freertos/lib/third_party/mbedtls/library\md_wrap.c ****         mbedtls_md4_init( (mbedtls_md4_context *) ctx );
 160:D:/Work/DeviceTester/amazon-freertos/lib/third_party/mbedtls/library\md_wrap.c **** 
 161:D:/Work/DeviceTester/amazon-freertos/lib/third_party/mbedtls/library\md_wrap.c ****     return( ctx );
 162:D:/Work/DeviceTester/amazon-freertos/lib/third_party/mbedtls/library\md_wrap.c **** }
 163:D:/Work/DeviceTester/amazon-freertos/lib/third_party/mbedtls/library\md_wrap.c **** 
 164:D:/Work/DeviceTester/amazon-freertos/lib/third_party/mbedtls/library\md_wrap.c **** static void md4_ctx_free( void *ctx )
 165:D:/Work/DeviceTester/amazon-freertos/lib/third_party/mbedtls/library\md_wrap.c **** {
 166:D:/Work/DeviceTester/amazon-freertos/lib/third_party/mbedtls/library\md_wrap.c ****     mbedtls_md4_free( (mbedtls_md4_context *) ctx );
 167:D:/Work/DeviceTester/amazon-freertos/lib/third_party/mbedtls/library\md_wrap.c ****     mbedtls_free( ctx );
 168:D:/Work/DeviceTester/amazon-freertos/lib/third_party/mbedtls/library\md_wrap.c **** }
 169:D:/Work/DeviceTester/amazon-freertos/lib/third_party/mbedtls/library\md_wrap.c **** 
 170:D:/Work/DeviceTester/amazon-freertos/lib/third_party/mbedtls/library\md_wrap.c **** static void md4_clone_wrap( void *dst, const void *src )
 171:D:/Work/DeviceTester/amazon-freertos/lib/third_party/mbedtls/library\md_wrap.c **** {
 172:D:/Work/DeviceTester/amazon-freertos/lib/third_party/mbedtls/library\md_wrap.c ****     mbedtls_md4_clone( (mbedtls_md4_context *) dst,
 173:D:/Work/DeviceTester/amazon-freertos/lib/third_party/mbedtls/library\md_wrap.c ****                        (const mbedtls_md4_context *) src );
 174:D:/Work/DeviceTester/amazon-freertos/lib/third_party/mbedtls/library\md_wrap.c **** }
 175:D:/Work/DeviceTester/amazon-freertos/lib/third_party/mbedtls/library\md_wrap.c **** 
 176:D:/Work/DeviceTester/amazon-freertos/lib/third_party/mbedtls/library\md_wrap.c **** static int md4_process_wrap( void *ctx, const unsigned char *data )
 177:D:/Work/DeviceTester/amazon-freertos/lib/third_party/mbedtls/library\md_wrap.c **** {
 178:D:/Work/DeviceTester/amazon-freertos/lib/third_party/mbedtls/library\md_wrap.c ****     return( mbedtls_internal_md4_process( (mbedtls_md4_context *) ctx, data ) );
 179:D:/Work/DeviceTester/amazon-freertos/lib/third_party/mbedtls/library\md_wrap.c **** }
 180:D:/Work/DeviceTester/amazon-freertos/lib/third_party/mbedtls/library\md_wrap.c **** 
 181:D:/Work/DeviceTester/amazon-freertos/lib/third_party/mbedtls/library\md_wrap.c **** const mbedtls_md_info_t mbedtls_md4_info = {
 182:D:/Work/DeviceTester/amazon-freertos/lib/third_party/mbedtls/library\md_wrap.c ****     MBEDTLS_MD_MD4,
 183:D:/Work/DeviceTester/amazon-freertos/lib/third_party/mbedtls/library\md_wrap.c ****     "MD4",
 184:D:/Work/DeviceTester/amazon-freertos/lib/third_party/mbedtls/library\md_wrap.c ****     16,
 185:D:/Work/DeviceTester/amazon-freertos/lib/third_party/mbedtls/library\md_wrap.c ****     64,
 186:D:/Work/DeviceTester/amazon-freertos/lib/third_party/mbedtls/library\md_wrap.c ****     md4_starts_wrap,
 187:D:/Work/DeviceTester/amazon-freertos/lib/third_party/mbedtls/library\md_wrap.c ****     md4_update_wrap,
 188:D:/Work/DeviceTester/amazon-freertos/lib/third_party/mbedtls/library\md_wrap.c ****     md4_finish_wrap,
 189:D:/Work/DeviceTester/amazon-freertos/lib/third_party/mbedtls/library\md_wrap.c ****     mbedtls_md4_ret,
 190:D:/Work/DeviceTester/amazon-freertos/lib/third_party/mbedtls/library\md_wrap.c ****     md4_ctx_alloc,
 191:D:/Work/DeviceTester/amazon-freertos/lib/third_party/mbedtls/library\md_wrap.c ****     md4_ctx_free,
 192:D:/Work/DeviceTester/amazon-freertos/lib/third_party/mbedtls/library\md_wrap.c ****     md4_clone_wrap,
 193:D:/Work/DeviceTester/amazon-freertos/lib/third_party/mbedtls/library\md_wrap.c ****     md4_process_wrap,
 194:D:/Work/DeviceTester/amazon-freertos/lib/third_party/mbedtls/library\md_wrap.c **** };
 195:D:/Work/DeviceTester/amazon-freertos/lib/third_party/mbedtls/library\md_wrap.c **** 
 196:D:/Work/DeviceTester/amazon-freertos/lib/third_party/mbedtls/library\md_wrap.c **** #endif /* MBEDTLS_MD4_C */
 197:D:/Work/DeviceTester/amazon-freertos/lib/third_party/mbedtls/library\md_wrap.c **** 
 198:D:/Work/DeviceTester/amazon-freertos/lib/third_party/mbedtls/library\md_wrap.c **** #if defined(MBEDTLS_MD5_C)
 199:D:/Work/DeviceTester/amazon-freertos/lib/third_party/mbedtls/library\md_wrap.c **** 
 200:D:/Work/DeviceTester/amazon-freertos/lib/third_party/mbedtls/library\md_wrap.c **** static int md5_starts_wrap( void *ctx )
 201:D:/Work/DeviceTester/amazon-freertos/lib/third_party/mbedtls/library\md_wrap.c **** {
 202:D:/Work/DeviceTester/amazon-freertos/lib/third_party/mbedtls/library\md_wrap.c ****     return( mbedtls_md5_starts_ret( (mbedtls_md5_context *) ctx ) );
 203:D:/Work/DeviceTester/amazon-freertos/lib/third_party/mbedtls/library\md_wrap.c **** }
 204:D:/Work/DeviceTester/amazon-freertos/lib/third_party/mbedtls/library\md_wrap.c **** 
 205:D:/Work/DeviceTester/amazon-freertos/lib/third_party/mbedtls/library\md_wrap.c **** static int md5_update_wrap( void *ctx, const unsigned char *input,
 206:D:/Work/DeviceTester/amazon-freertos/lib/third_party/mbedtls/library\md_wrap.c ****                              size_t ilen )
 207:D:/Work/DeviceTester/amazon-freertos/lib/third_party/mbedtls/library\md_wrap.c **** {
 208:D:/Work/DeviceTester/amazon-freertos/lib/third_party/mbedtls/library\md_wrap.c ****     return( mbedtls_md5_update_ret( (mbedtls_md5_context *) ctx, input, ilen ) );
 209:D:/Work/DeviceTester/amazon-freertos/lib/third_party/mbedtls/library\md_wrap.c **** }
 210:D:/Work/DeviceTester/amazon-freertos/lib/third_party/mbedtls/library\md_wrap.c **** 
 211:D:/Work/DeviceTester/amazon-freertos/lib/third_party/mbedtls/library\md_wrap.c **** static int md5_finish_wrap( void *ctx, unsigned char *output )
 212:D:/Work/DeviceTester/amazon-freertos/lib/third_party/mbedtls/library\md_wrap.c **** {
 213:D:/Work/DeviceTester/amazon-freertos/lib/third_party/mbedtls/library\md_wrap.c ****     return( mbedtls_md5_finish_ret( (mbedtls_md5_context *) ctx, output ) );
 214:D:/Work/DeviceTester/amazon-freertos/lib/third_party/mbedtls/library\md_wrap.c **** }
 215:D:/Work/DeviceTester/amazon-freertos/lib/third_party/mbedtls/library\md_wrap.c **** 
 216:D:/Work/DeviceTester/amazon-freertos/lib/third_party/mbedtls/library\md_wrap.c **** static void *md5_ctx_alloc( void )
 217:D:/Work/DeviceTester/amazon-freertos/lib/third_party/mbedtls/library\md_wrap.c **** {
 218:D:/Work/DeviceTester/amazon-freertos/lib/third_party/mbedtls/library\md_wrap.c ****     void *ctx = mbedtls_calloc( 1, sizeof( mbedtls_md5_context ) );
 219:D:/Work/DeviceTester/amazon-freertos/lib/third_party/mbedtls/library\md_wrap.c **** 
 220:D:/Work/DeviceTester/amazon-freertos/lib/third_party/mbedtls/library\md_wrap.c ****     if( ctx != NULL )
 221:D:/Work/DeviceTester/amazon-freertos/lib/third_party/mbedtls/library\md_wrap.c ****         mbedtls_md5_init( (mbedtls_md5_context *) ctx );
 222:D:/Work/DeviceTester/amazon-freertos/lib/third_party/mbedtls/library\md_wrap.c **** 
 223:D:/Work/DeviceTester/amazon-freertos/lib/third_party/mbedtls/library\md_wrap.c ****     return( ctx );
 224:D:/Work/DeviceTester/amazon-freertos/lib/third_party/mbedtls/library\md_wrap.c **** }
 225:D:/Work/DeviceTester/amazon-freertos/lib/third_party/mbedtls/library\md_wrap.c **** 
 226:D:/Work/DeviceTester/amazon-freertos/lib/third_party/mbedtls/library\md_wrap.c **** static void md5_ctx_free( void *ctx )
 227:D:/Work/DeviceTester/amazon-freertos/lib/third_party/mbedtls/library\md_wrap.c **** {
 228:D:/Work/DeviceTester/amazon-freertos/lib/third_party/mbedtls/library\md_wrap.c ****     mbedtls_md5_free( (mbedtls_md5_context *) ctx );
 229:D:/Work/DeviceTester/amazon-freertos/lib/third_party/mbedtls/library\md_wrap.c ****     mbedtls_free( ctx );
 230:D:/Work/DeviceTester/amazon-freertos/lib/third_party/mbedtls/library\md_wrap.c **** }
 231:D:/Work/DeviceTester/amazon-freertos/lib/third_party/mbedtls/library\md_wrap.c **** 
 232:D:/Work/DeviceTester/amazon-freertos/lib/third_party/mbedtls/library\md_wrap.c **** static void md5_clone_wrap( void *dst, const void *src )
 233:D:/Work/DeviceTester/amazon-freertos/lib/third_party/mbedtls/library\md_wrap.c **** {
 234:D:/Work/DeviceTester/amazon-freertos/lib/third_party/mbedtls/library\md_wrap.c ****     mbedtls_md5_clone( (mbedtls_md5_context *) dst,
 235:D:/Work/DeviceTester/amazon-freertos/lib/third_party/mbedtls/library\md_wrap.c ****                        (const mbedtls_md5_context *) src );
 236:D:/Work/DeviceTester/amazon-freertos/lib/third_party/mbedtls/library\md_wrap.c **** }
 237:D:/Work/DeviceTester/amazon-freertos/lib/third_party/mbedtls/library\md_wrap.c **** 
 238:D:/Work/DeviceTester/amazon-freertos/lib/third_party/mbedtls/library\md_wrap.c **** static int md5_process_wrap( void *ctx, const unsigned char *data )
 239:D:/Work/DeviceTester/amazon-freertos/lib/third_party/mbedtls/library\md_wrap.c **** {
 240:D:/Work/DeviceTester/amazon-freertos/lib/third_party/mbedtls/library\md_wrap.c ****     return( mbedtls_internal_md5_process( (mbedtls_md5_context *) ctx, data ) );
 241:D:/Work/DeviceTester/amazon-freertos/lib/third_party/mbedtls/library\md_wrap.c **** }
 242:D:/Work/DeviceTester/amazon-freertos/lib/third_party/mbedtls/library\md_wrap.c **** 
 243:D:/Work/DeviceTester/amazon-freertos/lib/third_party/mbedtls/library\md_wrap.c **** const mbedtls_md_info_t mbedtls_md5_info = {
 244:D:/Work/DeviceTester/amazon-freertos/lib/third_party/mbedtls/library\md_wrap.c ****     MBEDTLS_MD_MD5,
 245:D:/Work/DeviceTester/amazon-freertos/lib/third_party/mbedtls/library\md_wrap.c ****     "MD5",
 246:D:/Work/DeviceTester/amazon-freertos/lib/third_party/mbedtls/library\md_wrap.c ****     16,
 247:D:/Work/DeviceTester/amazon-freertos/lib/third_party/mbedtls/library\md_wrap.c ****     64,
 248:D:/Work/DeviceTester/amazon-freertos/lib/third_party/mbedtls/library\md_wrap.c ****     md5_starts_wrap,
 249:D:/Work/DeviceTester/amazon-freertos/lib/third_party/mbedtls/library\md_wrap.c ****     md5_update_wrap,
 250:D:/Work/DeviceTester/amazon-freertos/lib/third_party/mbedtls/library\md_wrap.c ****     md5_finish_wrap,
 251:D:/Work/DeviceTester/amazon-freertos/lib/third_party/mbedtls/library\md_wrap.c ****     mbedtls_md5_ret,
 252:D:/Work/DeviceTester/amazon-freertos/lib/third_party/mbedtls/library\md_wrap.c ****     md5_ctx_alloc,
 253:D:/Work/DeviceTester/amazon-freertos/lib/third_party/mbedtls/library\md_wrap.c ****     md5_ctx_free,
 254:D:/Work/DeviceTester/amazon-freertos/lib/third_party/mbedtls/library\md_wrap.c ****     md5_clone_wrap,
 255:D:/Work/DeviceTester/amazon-freertos/lib/third_party/mbedtls/library\md_wrap.c ****     md5_process_wrap,
 256:D:/Work/DeviceTester/amazon-freertos/lib/third_party/mbedtls/library\md_wrap.c **** };
 257:D:/Work/DeviceTester/amazon-freertos/lib/third_party/mbedtls/library\md_wrap.c **** 
 258:D:/Work/DeviceTester/amazon-freertos/lib/third_party/mbedtls/library\md_wrap.c **** #endif /* MBEDTLS_MD5_C */
 259:D:/Work/DeviceTester/amazon-freertos/lib/third_party/mbedtls/library\md_wrap.c **** 
 260:D:/Work/DeviceTester/amazon-freertos/lib/third_party/mbedtls/library\md_wrap.c **** #if defined(MBEDTLS_RIPEMD160_C)
 261:D:/Work/DeviceTester/amazon-freertos/lib/third_party/mbedtls/library\md_wrap.c **** 
 262:D:/Work/DeviceTester/amazon-freertos/lib/third_party/mbedtls/library\md_wrap.c **** static int ripemd160_starts_wrap( void *ctx )
 263:D:/Work/DeviceTester/amazon-freertos/lib/third_party/mbedtls/library\md_wrap.c **** {
 264:D:/Work/DeviceTester/amazon-freertos/lib/third_party/mbedtls/library\md_wrap.c ****     return( mbedtls_ripemd160_starts_ret( (mbedtls_ripemd160_context *) ctx ) );
 265:D:/Work/DeviceTester/amazon-freertos/lib/third_party/mbedtls/library\md_wrap.c **** }
 266:D:/Work/DeviceTester/amazon-freertos/lib/third_party/mbedtls/library\md_wrap.c **** 
 267:D:/Work/DeviceTester/amazon-freertos/lib/third_party/mbedtls/library\md_wrap.c **** static int ripemd160_update_wrap( void *ctx, const unsigned char *input,
 268:D:/Work/DeviceTester/amazon-freertos/lib/third_party/mbedtls/library\md_wrap.c ****                                    size_t ilen )
 269:D:/Work/DeviceTester/amazon-freertos/lib/third_party/mbedtls/library\md_wrap.c **** {
 270:D:/Work/DeviceTester/amazon-freertos/lib/third_party/mbedtls/library\md_wrap.c ****     return( mbedtls_ripemd160_update_ret( (mbedtls_ripemd160_context *) ctx,
 271:D:/Work/DeviceTester/amazon-freertos/lib/third_party/mbedtls/library\md_wrap.c ****                                           input, ilen ) );
 272:D:/Work/DeviceTester/amazon-freertos/lib/third_party/mbedtls/library\md_wrap.c **** }
 273:D:/Work/DeviceTester/amazon-freertos/lib/third_party/mbedtls/library\md_wrap.c **** 
 274:D:/Work/DeviceTester/amazon-freertos/lib/third_party/mbedtls/library\md_wrap.c **** static int ripemd160_finish_wrap( void *ctx, unsigned char *output )
 275:D:/Work/DeviceTester/amazon-freertos/lib/third_party/mbedtls/library\md_wrap.c **** {
 276:D:/Work/DeviceTester/amazon-freertos/lib/third_party/mbedtls/library\md_wrap.c ****     return( mbedtls_ripemd160_finish_ret( (mbedtls_ripemd160_context *) ctx,
 277:D:/Work/DeviceTester/amazon-freertos/lib/third_party/mbedtls/library\md_wrap.c ****                                           output ) );
 278:D:/Work/DeviceTester/amazon-freertos/lib/third_party/mbedtls/library\md_wrap.c **** }
 279:D:/Work/DeviceTester/amazon-freertos/lib/third_party/mbedtls/library\md_wrap.c **** 
 280:D:/Work/DeviceTester/amazon-freertos/lib/third_party/mbedtls/library\md_wrap.c **** static void *ripemd160_ctx_alloc( void )
 281:D:/Work/DeviceTester/amazon-freertos/lib/third_party/mbedtls/library\md_wrap.c **** {
 282:D:/Work/DeviceTester/amazon-freertos/lib/third_party/mbedtls/library\md_wrap.c ****     void *ctx = mbedtls_calloc( 1, sizeof( mbedtls_ripemd160_context ) );
 283:D:/Work/DeviceTester/amazon-freertos/lib/third_party/mbedtls/library\md_wrap.c **** 
 284:D:/Work/DeviceTester/amazon-freertos/lib/third_party/mbedtls/library\md_wrap.c ****     if( ctx != NULL )
 285:D:/Work/DeviceTester/amazon-freertos/lib/third_party/mbedtls/library\md_wrap.c ****         mbedtls_ripemd160_init( (mbedtls_ripemd160_context *) ctx );
 286:D:/Work/DeviceTester/amazon-freertos/lib/third_party/mbedtls/library\md_wrap.c **** 
 287:D:/Work/DeviceTester/amazon-freertos/lib/third_party/mbedtls/library\md_wrap.c ****     return( ctx );
 288:D:/Work/DeviceTester/amazon-freertos/lib/third_party/mbedtls/library\md_wrap.c **** }
 289:D:/Work/DeviceTester/amazon-freertos/lib/third_party/mbedtls/library\md_wrap.c **** 
 290:D:/Work/DeviceTester/amazon-freertos/lib/third_party/mbedtls/library\md_wrap.c **** static void ripemd160_ctx_free( void *ctx )
 291:D:/Work/DeviceTester/amazon-freertos/lib/third_party/mbedtls/library\md_wrap.c **** {
 292:D:/Work/DeviceTester/amazon-freertos/lib/third_party/mbedtls/library\md_wrap.c ****     mbedtls_ripemd160_free( (mbedtls_ripemd160_context *) ctx );
 293:D:/Work/DeviceTester/amazon-freertos/lib/third_party/mbedtls/library\md_wrap.c ****     mbedtls_free( ctx );
 294:D:/Work/DeviceTester/amazon-freertos/lib/third_party/mbedtls/library\md_wrap.c **** }
 295:D:/Work/DeviceTester/amazon-freertos/lib/third_party/mbedtls/library\md_wrap.c **** 
 296:D:/Work/DeviceTester/amazon-freertos/lib/third_party/mbedtls/library\md_wrap.c **** static void ripemd160_clone_wrap( void *dst, const void *src )
 297:D:/Work/DeviceTester/amazon-freertos/lib/third_party/mbedtls/library\md_wrap.c **** {
 298:D:/Work/DeviceTester/amazon-freertos/lib/third_party/mbedtls/library\md_wrap.c ****     mbedtls_ripemd160_clone( (mbedtls_ripemd160_context *) dst,
 299:D:/Work/DeviceTester/amazon-freertos/lib/third_party/mbedtls/library\md_wrap.c ****                        (const mbedtls_ripemd160_context *) src );
 300:D:/Work/DeviceTester/amazon-freertos/lib/third_party/mbedtls/library\md_wrap.c **** }
 301:D:/Work/DeviceTester/amazon-freertos/lib/third_party/mbedtls/library\md_wrap.c **** 
 302:D:/Work/DeviceTester/amazon-freertos/lib/third_party/mbedtls/library\md_wrap.c **** static int ripemd160_process_wrap( void *ctx, const unsigned char *data )
 303:D:/Work/DeviceTester/amazon-freertos/lib/third_party/mbedtls/library\md_wrap.c **** {
 304:D:/Work/DeviceTester/amazon-freertos/lib/third_party/mbedtls/library\md_wrap.c ****     return( mbedtls_internal_ripemd160_process(
 305:D:/Work/DeviceTester/amazon-freertos/lib/third_party/mbedtls/library\md_wrap.c ****                                 (mbedtls_ripemd160_context *) ctx, data ) );
 306:D:/Work/DeviceTester/amazon-freertos/lib/third_party/mbedtls/library\md_wrap.c **** }
 307:D:/Work/DeviceTester/amazon-freertos/lib/third_party/mbedtls/library\md_wrap.c **** 
 308:D:/Work/DeviceTester/amazon-freertos/lib/third_party/mbedtls/library\md_wrap.c **** const mbedtls_md_info_t mbedtls_ripemd160_info = {
 309:D:/Work/DeviceTester/amazon-freertos/lib/third_party/mbedtls/library\md_wrap.c ****     MBEDTLS_MD_RIPEMD160,
 310:D:/Work/DeviceTester/amazon-freertos/lib/third_party/mbedtls/library\md_wrap.c ****     "RIPEMD160",
 311:D:/Work/DeviceTester/amazon-freertos/lib/third_party/mbedtls/library\md_wrap.c ****     20,
 312:D:/Work/DeviceTester/amazon-freertos/lib/third_party/mbedtls/library\md_wrap.c ****     64,
 313:D:/Work/DeviceTester/amazon-freertos/lib/third_party/mbedtls/library\md_wrap.c ****     ripemd160_starts_wrap,
 314:D:/Work/DeviceTester/amazon-freertos/lib/third_party/mbedtls/library\md_wrap.c ****     ripemd160_update_wrap,
 315:D:/Work/DeviceTester/amazon-freertos/lib/third_party/mbedtls/library\md_wrap.c ****     ripemd160_finish_wrap,
 316:D:/Work/DeviceTester/amazon-freertos/lib/third_party/mbedtls/library\md_wrap.c ****     mbedtls_ripemd160_ret,
 317:D:/Work/DeviceTester/amazon-freertos/lib/third_party/mbedtls/library\md_wrap.c ****     ripemd160_ctx_alloc,
 318:D:/Work/DeviceTester/amazon-freertos/lib/third_party/mbedtls/library\md_wrap.c ****     ripemd160_ctx_free,
 319:D:/Work/DeviceTester/amazon-freertos/lib/third_party/mbedtls/library\md_wrap.c ****     ripemd160_clone_wrap,
 320:D:/Work/DeviceTester/amazon-freertos/lib/third_party/mbedtls/library\md_wrap.c ****     ripemd160_process_wrap,
 321:D:/Work/DeviceTester/amazon-freertos/lib/third_party/mbedtls/library\md_wrap.c **** };
 322:D:/Work/DeviceTester/amazon-freertos/lib/third_party/mbedtls/library\md_wrap.c **** 
 323:D:/Work/DeviceTester/amazon-freertos/lib/third_party/mbedtls/library\md_wrap.c **** #endif /* MBEDTLS_RIPEMD160_C */
 324:D:/Work/DeviceTester/amazon-freertos/lib/third_party/mbedtls/library\md_wrap.c **** 
 325:D:/Work/DeviceTester/amazon-freertos/lib/third_party/mbedtls/library\md_wrap.c **** #if defined(MBEDTLS_SHA1_C)
 326:D:/Work/DeviceTester/amazon-freertos/lib/third_party/mbedtls/library\md_wrap.c **** 
 327:D:/Work/DeviceTester/amazon-freertos/lib/third_party/mbedtls/library\md_wrap.c **** static int sha1_starts_wrap( void *ctx )
 328:D:/Work/DeviceTester/amazon-freertos/lib/third_party/mbedtls/library\md_wrap.c **** {
 329:D:/Work/DeviceTester/amazon-freertos/lib/third_party/mbedtls/library\md_wrap.c ****     return( mbedtls_sha1_starts_ret( (mbedtls_sha1_context *) ctx ) );
 330:D:/Work/DeviceTester/amazon-freertos/lib/third_party/mbedtls/library\md_wrap.c **** }
 331:D:/Work/DeviceTester/amazon-freertos/lib/third_party/mbedtls/library\md_wrap.c **** 
 332:D:/Work/DeviceTester/amazon-freertos/lib/third_party/mbedtls/library\md_wrap.c **** static int sha1_update_wrap( void *ctx, const unsigned char *input,
 333:D:/Work/DeviceTester/amazon-freertos/lib/third_party/mbedtls/library\md_wrap.c ****                               size_t ilen )
 334:D:/Work/DeviceTester/amazon-freertos/lib/third_party/mbedtls/library\md_wrap.c **** {
 335:D:/Work/DeviceTester/amazon-freertos/lib/third_party/mbedtls/library\md_wrap.c ****     return( mbedtls_sha1_update_ret( (mbedtls_sha1_context *) ctx,
 336:D:/Work/DeviceTester/amazon-freertos/lib/third_party/mbedtls/library\md_wrap.c ****                                      input, ilen ) );
 337:D:/Work/DeviceTester/amazon-freertos/lib/third_party/mbedtls/library\md_wrap.c **** }
 338:D:/Work/DeviceTester/amazon-freertos/lib/third_party/mbedtls/library\md_wrap.c **** 
 339:D:/Work/DeviceTester/amazon-freertos/lib/third_party/mbedtls/library\md_wrap.c **** static int sha1_finish_wrap( void *ctx, unsigned char *output )
 340:D:/Work/DeviceTester/amazon-freertos/lib/third_party/mbedtls/library\md_wrap.c **** {
 341:D:/Work/DeviceTester/amazon-freertos/lib/third_party/mbedtls/library\md_wrap.c ****     return( mbedtls_sha1_finish_ret( (mbedtls_sha1_context *) ctx, output ) );
 342:D:/Work/DeviceTester/amazon-freertos/lib/third_party/mbedtls/library\md_wrap.c **** }
 343:D:/Work/DeviceTester/amazon-freertos/lib/third_party/mbedtls/library\md_wrap.c **** 
 344:D:/Work/DeviceTester/amazon-freertos/lib/third_party/mbedtls/library\md_wrap.c **** static void *sha1_ctx_alloc( void )
 345:D:/Work/DeviceTester/amazon-freertos/lib/third_party/mbedtls/library\md_wrap.c **** {
 346:D:/Work/DeviceTester/amazon-freertos/lib/third_party/mbedtls/library\md_wrap.c ****     void *ctx = mbedtls_calloc( 1, sizeof( mbedtls_sha1_context ) );
 347:D:/Work/DeviceTester/amazon-freertos/lib/third_party/mbedtls/library\md_wrap.c **** 
 348:D:/Work/DeviceTester/amazon-freertos/lib/third_party/mbedtls/library\md_wrap.c ****     if( ctx != NULL )
 349:D:/Work/DeviceTester/amazon-freertos/lib/third_party/mbedtls/library\md_wrap.c ****         mbedtls_sha1_init( (mbedtls_sha1_context *) ctx );
 350:D:/Work/DeviceTester/amazon-freertos/lib/third_party/mbedtls/library\md_wrap.c **** 
 351:D:/Work/DeviceTester/amazon-freertos/lib/third_party/mbedtls/library\md_wrap.c ****     return( ctx );
 352:D:/Work/DeviceTester/amazon-freertos/lib/third_party/mbedtls/library\md_wrap.c **** }
 353:D:/Work/DeviceTester/amazon-freertos/lib/third_party/mbedtls/library\md_wrap.c **** 
 354:D:/Work/DeviceTester/amazon-freertos/lib/third_party/mbedtls/library\md_wrap.c **** static void sha1_clone_wrap( void *dst, const void *src )
 355:D:/Work/DeviceTester/amazon-freertos/lib/third_party/mbedtls/library\md_wrap.c **** {
 356:D:/Work/DeviceTester/amazon-freertos/lib/third_party/mbedtls/library\md_wrap.c ****     mbedtls_sha1_clone( (mbedtls_sha1_context *) dst,
 357:D:/Work/DeviceTester/amazon-freertos/lib/third_party/mbedtls/library\md_wrap.c ****                   (const mbedtls_sha1_context *) src );
 358:D:/Work/DeviceTester/amazon-freertos/lib/third_party/mbedtls/library\md_wrap.c **** }
 359:D:/Work/DeviceTester/amazon-freertos/lib/third_party/mbedtls/library\md_wrap.c **** 
 360:D:/Work/DeviceTester/amazon-freertos/lib/third_party/mbedtls/library\md_wrap.c **** static void sha1_ctx_free( void *ctx )
 361:D:/Work/DeviceTester/amazon-freertos/lib/third_party/mbedtls/library\md_wrap.c **** {
 362:D:/Work/DeviceTester/amazon-freertos/lib/third_party/mbedtls/library\md_wrap.c ****     mbedtls_sha1_free( (mbedtls_sha1_context *) ctx );
 363:D:/Work/DeviceTester/amazon-freertos/lib/third_party/mbedtls/library\md_wrap.c ****     mbedtls_free( ctx );
 364:D:/Work/DeviceTester/amazon-freertos/lib/third_party/mbedtls/library\md_wrap.c **** }
 365:D:/Work/DeviceTester/amazon-freertos/lib/third_party/mbedtls/library\md_wrap.c **** 
 366:D:/Work/DeviceTester/amazon-freertos/lib/third_party/mbedtls/library\md_wrap.c **** static int sha1_process_wrap( void *ctx, const unsigned char *data )
 367:D:/Work/DeviceTester/amazon-freertos/lib/third_party/mbedtls/library\md_wrap.c **** {
  25              		.loc 1 367 0
  26              		.cfi_startproc
  27              		@ args = 0, pretend = 0, frame = 0
  28              		@ frame_needed = 0, uses_anonymous_args = 0
  29              		@ link register save eliminated.
  30              	.LVL0:
 368:D:/Work/DeviceTester/amazon-freertos/lib/third_party/mbedtls/library\md_wrap.c ****     return( mbedtls_internal_sha1_process( (mbedtls_sha1_context *) ctx,
  31              		.loc 1 368 0
  32 0000 FEFFFFEA 		b	mbedtls_internal_sha1_process
  33              	.LVL1:
  34              		.cfi_endproc
  35              	.LFE7:
  37              		.section	.text.sha1_clone_wrap,"ax",%progbits
  38              		.align	2
  39              		.syntax unified
  40              		.arm
  41              		.fpu neon
  43              	sha1_clone_wrap:
  44              	.LFB5:
 355:D:/Work/DeviceTester/amazon-freertos/lib/third_party/mbedtls/library\md_wrap.c ****     mbedtls_sha1_clone( (mbedtls_sha1_context *) dst,
  45              		.loc 1 355 0
  46              		.cfi_startproc
  47              		@ args = 0, pretend = 0, frame = 0
  48              		@ frame_needed = 0, uses_anonymous_args = 0
  49              		@ link register save eliminated.
  50              	.LVL2:
 356:D:/Work/DeviceTester/amazon-freertos/lib/third_party/mbedtls/library\md_wrap.c ****                   (const mbedtls_sha1_context *) src );
  51              		.loc 1 356 0
  52 0000 FEFFFFEA 		b	mbedtls_sha1_clone
  53              	.LVL3:
  54              		.cfi_endproc
  55              	.LFE5:
  57              		.section	.text.sha1_ctx_free,"ax",%progbits
  58              		.align	2
  59              		.syntax unified
  60              		.arm
  61              		.fpu neon
  63              	sha1_ctx_free:
  64              	.LFB6:
 361:D:/Work/DeviceTester/amazon-freertos/lib/third_party/mbedtls/library\md_wrap.c ****     mbedtls_sha1_free( (mbedtls_sha1_context *) ctx );
  65              		.loc 1 361 0
  66              		.cfi_startproc
  67              		@ args = 0, pretend = 0, frame = 0
  68              		@ frame_needed = 0, uses_anonymous_args = 0
  69              	.LVL4:
  70 0000 10402DE9 		push	{r4, lr}
  71              		.cfi_def_cfa_offset 8
  72              		.cfi_offset 4, -8
  73              		.cfi_offset 14, -4
 361:D:/Work/DeviceTester/amazon-freertos/lib/third_party/mbedtls/library\md_wrap.c ****     mbedtls_sha1_free( (mbedtls_sha1_context *) ctx );
  74              		.loc 1 361 0
  75 0004 0040A0E1 		mov	r4, r0
 362:D:/Work/DeviceTester/amazon-freertos/lib/third_party/mbedtls/library\md_wrap.c ****     mbedtls_free( ctx );
  76              		.loc 1 362 0
  77 0008 FEFFFFEB 		bl	mbedtls_sha1_free
  78              	.LVL5:
 363:D:/Work/DeviceTester/amazon-freertos/lib/third_party/mbedtls/library\md_wrap.c **** }
  79              		.loc 1 363 0
  80 000c 0400A0E1 		mov	r0, r4
 364:D:/Work/DeviceTester/amazon-freertos/lib/third_party/mbedtls/library\md_wrap.c **** 
  81              		.loc 1 364 0
  82 0010 1040BDE8 		pop	{r4, lr}
  83              		.cfi_restore 14
  84              		.cfi_restore 4
  85              		.cfi_def_cfa_offset 0
  86              	.LVL6:
 363:D:/Work/DeviceTester/amazon-freertos/lib/third_party/mbedtls/library\md_wrap.c **** }
  87              		.loc 1 363 0
  88 0014 FEFFFFEA 		b	mbedtls_free
  89              	.LVL7:
  90              		.cfi_endproc
  91              	.LFE6:
  93              		.section	.text.sha1_ctx_alloc,"ax",%progbits
  94              		.align	2
  95              		.syntax unified
  96              		.arm
  97              		.fpu neon
  99              	sha1_ctx_alloc:
 100              	.LFB4:
 345:D:/Work/DeviceTester/amazon-freertos/lib/third_party/mbedtls/library\md_wrap.c ****     void *ctx = mbedtls_calloc( 1, sizeof( mbedtls_sha1_context ) );
 101              		.loc 1 345 0
 102              		.cfi_startproc
 103              		@ args = 0, pretend = 0, frame = 0
 104              		@ frame_needed = 0, uses_anonymous_args = 0
 105 0000 10402DE9 		push	{r4, lr}
 106              		.cfi_def_cfa_offset 8
 107              		.cfi_offset 4, -8
 108              		.cfi_offset 14, -4
 346:D:/Work/DeviceTester/amazon-freertos/lib/third_party/mbedtls/library\md_wrap.c **** 
 109              		.loc 1 346 0
 110 0004 5C10A0E3 		mov	r1, #92
 111 0008 0100A0E3 		mov	r0, #1
 112 000c FEFFFFEB 		bl	mbedtls_calloc
 113              	.LVL8:
 348:D:/Work/DeviceTester/amazon-freertos/lib/third_party/mbedtls/library\md_wrap.c ****         mbedtls_sha1_init( (mbedtls_sha1_context *) ctx );
 114              		.loc 1 348 0
 115 0010 004050E2 		subs	r4, r0, #0
 116 0014 0000000A 		beq	.L5
 349:D:/Work/DeviceTester/amazon-freertos/lib/third_party/mbedtls/library\md_wrap.c **** 
 117              		.loc 1 349 0
 118 0018 FEFFFFEB 		bl	mbedtls_sha1_init
 119              	.LVL9:
 120              	.L5:
 352:D:/Work/DeviceTester/amazon-freertos/lib/third_party/mbedtls/library\md_wrap.c **** 
 121              		.loc 1 352 0
 122 001c 0400A0E1 		mov	r0, r4
 123 0020 1080BDE8 		pop	{r4, pc}
 124              		.cfi_endproc
 125              	.LFE4:
 127              		.section	.text.sha1_finish_wrap,"ax",%progbits
 128              		.align	2
 129              		.syntax unified
 130              		.arm
 131              		.fpu neon
 133              	sha1_finish_wrap:
 134              	.LFB3:
 340:D:/Work/DeviceTester/amazon-freertos/lib/third_party/mbedtls/library\md_wrap.c ****     return( mbedtls_sha1_finish_ret( (mbedtls_sha1_context *) ctx, output ) );
 135              		.loc 1 340 0
 136              		.cfi_startproc
 137              		@ args = 0, pretend = 0, frame = 0
 138              		@ frame_needed = 0, uses_anonymous_args = 0
 139              		@ link register save eliminated.
 140              	.LVL10:
 341:D:/Work/DeviceTester/amazon-freertos/lib/third_party/mbedtls/library\md_wrap.c **** }
 141              		.loc 1 341 0
 142 0000 FEFFFFEA 		b	mbedtls_sha1_finish_ret
 143              	.LVL11:
 144              		.cfi_endproc
 145              	.LFE3:
 147              		.section	.text.sha1_update_wrap,"ax",%progbits
 148              		.align	2
 149              		.syntax unified
 150              		.arm
 151              		.fpu neon
 153              	sha1_update_wrap:
 154              	.LFB2:
 334:D:/Work/DeviceTester/amazon-freertos/lib/third_party/mbedtls/library\md_wrap.c ****     return( mbedtls_sha1_update_ret( (mbedtls_sha1_context *) ctx,
 155              		.loc 1 334 0
 156              		.cfi_startproc
 157              		@ args = 0, pretend = 0, frame = 0
 158              		@ frame_needed = 0, uses_anonymous_args = 0
 159              		@ link register save eliminated.
 160              	.LVL12:
 335:D:/Work/DeviceTester/amazon-freertos/lib/third_party/mbedtls/library\md_wrap.c ****                                      input, ilen ) );
 161              		.loc 1 335 0
 162 0000 FEFFFFEA 		b	mbedtls_sha1_update_ret
 163              	.LVL13:
 164              		.cfi_endproc
 165              	.LFE2:
 167              		.section	.text.sha1_starts_wrap,"ax",%progbits
 168              		.align	2
 169              		.syntax unified
 170              		.arm
 171              		.fpu neon
 173              	sha1_starts_wrap:
 174              	.LFB1:
 328:D:/Work/DeviceTester/amazon-freertos/lib/third_party/mbedtls/library\md_wrap.c ****     return( mbedtls_sha1_starts_ret( (mbedtls_sha1_context *) ctx ) );
 175              		.loc 1 328 0
 176              		.cfi_startproc
 177              		@ args = 0, pretend = 0, frame = 0
 178              		@ frame_needed = 0, uses_anonymous_args = 0
 179              		@ link register save eliminated.
 180              	.LVL14:
 329:D:/Work/DeviceTester/amazon-freertos/lib/third_party/mbedtls/library\md_wrap.c **** }
 181              		.loc 1 329 0
 182 0000 FEFFFFEA 		b	mbedtls_sha1_starts_ret
 183              	.LVL15:
 184              		.cfi_endproc
 185              	.LFE1:
 187              		.section	.text.sha224_process_wrap,"ax",%progbits
 188              		.align	2
 189              		.syntax unified
 190              		.arm
 191              		.fpu neon
 193              	sha224_process_wrap:
 194              	.LFB15:
 369:D:/Work/DeviceTester/amazon-freertos/lib/third_party/mbedtls/library\md_wrap.c ****                                            data ) );
 370:D:/Work/DeviceTester/amazon-freertos/lib/third_party/mbedtls/library\md_wrap.c **** }
 371:D:/Work/DeviceTester/amazon-freertos/lib/third_party/mbedtls/library\md_wrap.c **** 
 372:D:/Work/DeviceTester/amazon-freertos/lib/third_party/mbedtls/library\md_wrap.c **** const mbedtls_md_info_t mbedtls_sha1_info = {
 373:D:/Work/DeviceTester/amazon-freertos/lib/third_party/mbedtls/library\md_wrap.c ****     MBEDTLS_MD_SHA1,
 374:D:/Work/DeviceTester/amazon-freertos/lib/third_party/mbedtls/library\md_wrap.c ****     "SHA1",
 375:D:/Work/DeviceTester/amazon-freertos/lib/third_party/mbedtls/library\md_wrap.c ****     20,
 376:D:/Work/DeviceTester/amazon-freertos/lib/third_party/mbedtls/library\md_wrap.c ****     64,
 377:D:/Work/DeviceTester/amazon-freertos/lib/third_party/mbedtls/library\md_wrap.c ****     sha1_starts_wrap,
 378:D:/Work/DeviceTester/amazon-freertos/lib/third_party/mbedtls/library\md_wrap.c ****     sha1_update_wrap,
 379:D:/Work/DeviceTester/amazon-freertos/lib/third_party/mbedtls/library\md_wrap.c ****     sha1_finish_wrap,
 380:D:/Work/DeviceTester/amazon-freertos/lib/third_party/mbedtls/library\md_wrap.c ****     mbedtls_sha1_ret,
 381:D:/Work/DeviceTester/amazon-freertos/lib/third_party/mbedtls/library\md_wrap.c ****     sha1_ctx_alloc,
 382:D:/Work/DeviceTester/amazon-freertos/lib/third_party/mbedtls/library\md_wrap.c ****     sha1_ctx_free,
 383:D:/Work/DeviceTester/amazon-freertos/lib/third_party/mbedtls/library\md_wrap.c ****     sha1_clone_wrap,
 384:D:/Work/DeviceTester/amazon-freertos/lib/third_party/mbedtls/library\md_wrap.c ****     sha1_process_wrap,
 385:D:/Work/DeviceTester/amazon-freertos/lib/third_party/mbedtls/library\md_wrap.c **** };
 386:D:/Work/DeviceTester/amazon-freertos/lib/third_party/mbedtls/library\md_wrap.c **** 
 387:D:/Work/DeviceTester/amazon-freertos/lib/third_party/mbedtls/library\md_wrap.c **** #endif /* MBEDTLS_SHA1_C */
 388:D:/Work/DeviceTester/amazon-freertos/lib/third_party/mbedtls/library\md_wrap.c **** 
 389:D:/Work/DeviceTester/amazon-freertos/lib/third_party/mbedtls/library\md_wrap.c **** /*
 390:D:/Work/DeviceTester/amazon-freertos/lib/third_party/mbedtls/library\md_wrap.c ****  * Wrappers for generic message digests
 391:D:/Work/DeviceTester/amazon-freertos/lib/third_party/mbedtls/library\md_wrap.c ****  */
 392:D:/Work/DeviceTester/amazon-freertos/lib/third_party/mbedtls/library\md_wrap.c **** #if defined(MBEDTLS_SHA256_C)
 393:D:/Work/DeviceTester/amazon-freertos/lib/third_party/mbedtls/library\md_wrap.c **** 
 394:D:/Work/DeviceTester/amazon-freertos/lib/third_party/mbedtls/library\md_wrap.c **** static int sha224_starts_wrap( void *ctx )
 395:D:/Work/DeviceTester/amazon-freertos/lib/third_party/mbedtls/library\md_wrap.c **** {
 396:D:/Work/DeviceTester/amazon-freertos/lib/third_party/mbedtls/library\md_wrap.c ****     return( mbedtls_sha256_starts_ret( (mbedtls_sha256_context *) ctx, 1 ) );
 397:D:/Work/DeviceTester/amazon-freertos/lib/third_party/mbedtls/library\md_wrap.c **** }
 398:D:/Work/DeviceTester/amazon-freertos/lib/third_party/mbedtls/library\md_wrap.c **** 
 399:D:/Work/DeviceTester/amazon-freertos/lib/third_party/mbedtls/library\md_wrap.c **** static int sha224_update_wrap( void *ctx, const unsigned char *input,
 400:D:/Work/DeviceTester/amazon-freertos/lib/third_party/mbedtls/library\md_wrap.c ****                                 size_t ilen )
 401:D:/Work/DeviceTester/amazon-freertos/lib/third_party/mbedtls/library\md_wrap.c **** {
 402:D:/Work/DeviceTester/amazon-freertos/lib/third_party/mbedtls/library\md_wrap.c ****     return( mbedtls_sha256_update_ret( (mbedtls_sha256_context *) ctx,
 403:D:/Work/DeviceTester/amazon-freertos/lib/third_party/mbedtls/library\md_wrap.c ****                                        input, ilen ) );
 404:D:/Work/DeviceTester/amazon-freertos/lib/third_party/mbedtls/library\md_wrap.c **** }
 405:D:/Work/DeviceTester/amazon-freertos/lib/third_party/mbedtls/library\md_wrap.c **** 
 406:D:/Work/DeviceTester/amazon-freertos/lib/third_party/mbedtls/library\md_wrap.c **** static int sha224_finish_wrap( void *ctx, unsigned char *output )
 407:D:/Work/DeviceTester/amazon-freertos/lib/third_party/mbedtls/library\md_wrap.c **** {
 408:D:/Work/DeviceTester/amazon-freertos/lib/third_party/mbedtls/library\md_wrap.c ****     return( mbedtls_sha256_finish_ret( (mbedtls_sha256_context *) ctx,
 409:D:/Work/DeviceTester/amazon-freertos/lib/third_party/mbedtls/library\md_wrap.c ****                                        output ) );
 410:D:/Work/DeviceTester/amazon-freertos/lib/third_party/mbedtls/library\md_wrap.c **** }
 411:D:/Work/DeviceTester/amazon-freertos/lib/third_party/mbedtls/library\md_wrap.c **** 
 412:D:/Work/DeviceTester/amazon-freertos/lib/third_party/mbedtls/library\md_wrap.c **** static int sha224_wrap( const unsigned char *input, size_t ilen,
 413:D:/Work/DeviceTester/amazon-freertos/lib/third_party/mbedtls/library\md_wrap.c ****                         unsigned char *output )
 414:D:/Work/DeviceTester/amazon-freertos/lib/third_party/mbedtls/library\md_wrap.c **** {
 415:D:/Work/DeviceTester/amazon-freertos/lib/third_party/mbedtls/library\md_wrap.c ****     return( mbedtls_sha256_ret( input, ilen, output, 1 ) );
 416:D:/Work/DeviceTester/amazon-freertos/lib/third_party/mbedtls/library\md_wrap.c **** }
 417:D:/Work/DeviceTester/amazon-freertos/lib/third_party/mbedtls/library\md_wrap.c **** 
 418:D:/Work/DeviceTester/amazon-freertos/lib/third_party/mbedtls/library\md_wrap.c **** static void *sha224_ctx_alloc( void )
 419:D:/Work/DeviceTester/amazon-freertos/lib/third_party/mbedtls/library\md_wrap.c **** {
 420:D:/Work/DeviceTester/amazon-freertos/lib/third_party/mbedtls/library\md_wrap.c ****     void *ctx = mbedtls_calloc( 1, sizeof( mbedtls_sha256_context ) );
 421:D:/Work/DeviceTester/amazon-freertos/lib/third_party/mbedtls/library\md_wrap.c **** 
 422:D:/Work/DeviceTester/amazon-freertos/lib/third_party/mbedtls/library\md_wrap.c ****     if( ctx != NULL )
 423:D:/Work/DeviceTester/amazon-freertos/lib/third_party/mbedtls/library\md_wrap.c ****         mbedtls_sha256_init( (mbedtls_sha256_context *) ctx );
 424:D:/Work/DeviceTester/amazon-freertos/lib/third_party/mbedtls/library\md_wrap.c **** 
 425:D:/Work/DeviceTester/amazon-freertos/lib/third_party/mbedtls/library\md_wrap.c ****     return( ctx );
 426:D:/Work/DeviceTester/amazon-freertos/lib/third_party/mbedtls/library\md_wrap.c **** }
 427:D:/Work/DeviceTester/amazon-freertos/lib/third_party/mbedtls/library\md_wrap.c **** 
 428:D:/Work/DeviceTester/amazon-freertos/lib/third_party/mbedtls/library\md_wrap.c **** static void sha224_ctx_free( void *ctx )
 429:D:/Work/DeviceTester/amazon-freertos/lib/third_party/mbedtls/library\md_wrap.c **** {
 430:D:/Work/DeviceTester/amazon-freertos/lib/third_party/mbedtls/library\md_wrap.c ****     mbedtls_sha256_free( (mbedtls_sha256_context *) ctx );
 431:D:/Work/DeviceTester/amazon-freertos/lib/third_party/mbedtls/library\md_wrap.c ****     mbedtls_free( ctx );
 432:D:/Work/DeviceTester/amazon-freertos/lib/third_party/mbedtls/library\md_wrap.c **** }
 433:D:/Work/DeviceTester/amazon-freertos/lib/third_party/mbedtls/library\md_wrap.c **** 
 434:D:/Work/DeviceTester/amazon-freertos/lib/third_party/mbedtls/library\md_wrap.c **** static void sha224_clone_wrap( void *dst, const void *src )
 435:D:/Work/DeviceTester/amazon-freertos/lib/third_party/mbedtls/library\md_wrap.c **** {
 436:D:/Work/DeviceTester/amazon-freertos/lib/third_party/mbedtls/library\md_wrap.c ****     mbedtls_sha256_clone( (mbedtls_sha256_context *) dst,
 437:D:/Work/DeviceTester/amazon-freertos/lib/third_party/mbedtls/library\md_wrap.c ****                     (const mbedtls_sha256_context *) src );
 438:D:/Work/DeviceTester/amazon-freertos/lib/third_party/mbedtls/library\md_wrap.c **** }
 439:D:/Work/DeviceTester/amazon-freertos/lib/third_party/mbedtls/library\md_wrap.c **** 
 440:D:/Work/DeviceTester/amazon-freertos/lib/third_party/mbedtls/library\md_wrap.c **** static int sha224_process_wrap( void *ctx, const unsigned char *data )
 441:D:/Work/DeviceTester/amazon-freertos/lib/third_party/mbedtls/library\md_wrap.c **** {
 195              		.loc 1 441 0
 196              		.cfi_startproc
 197              		@ args = 0, pretend = 0, frame = 0
 198              		@ frame_needed = 0, uses_anonymous_args = 0
 199              		@ link register save eliminated.
 200              	.LVL16:
 442:D:/Work/DeviceTester/amazon-freertos/lib/third_party/mbedtls/library\md_wrap.c ****     return( mbedtls_internal_sha256_process( (mbedtls_sha256_context *) ctx,
 201              		.loc 1 442 0
 202 0000 FEFFFFEA 		b	mbedtls_internal_sha256_process
 203              	.LVL17:
 204              		.cfi_endproc
 205              	.LFE15:
 207              		.section	.text.sha224_clone_wrap,"ax",%progbits
 208              		.align	2
 209              		.syntax unified
 210              		.arm
 211              		.fpu neon
 213              	sha224_clone_wrap:
 214              	.LFB14:
 435:D:/Work/DeviceTester/amazon-freertos/lib/third_party/mbedtls/library\md_wrap.c ****     mbedtls_sha256_clone( (mbedtls_sha256_context *) dst,
 215              		.loc 1 435 0
 216              		.cfi_startproc
 217              		@ args = 0, pretend = 0, frame = 0
 218              		@ frame_needed = 0, uses_anonymous_args = 0
 219              		@ link register save eliminated.
 220              	.LVL18:
 436:D:/Work/DeviceTester/amazon-freertos/lib/third_party/mbedtls/library\md_wrap.c ****                     (const mbedtls_sha256_context *) src );
 221              		.loc 1 436 0
 222 0000 FEFFFFEA 		b	mbedtls_sha256_clone
 223              	.LVL19:
 224              		.cfi_endproc
 225              	.LFE14:
 227              		.section	.text.sha224_ctx_free,"ax",%progbits
 228              		.align	2
 229              		.syntax unified
 230              		.arm
 231              		.fpu neon
 233              	sha224_ctx_free:
 234              	.LFB13:
 429:D:/Work/DeviceTester/amazon-freertos/lib/third_party/mbedtls/library\md_wrap.c ****     mbedtls_sha256_free( (mbedtls_sha256_context *) ctx );
 235              		.loc 1 429 0
 236              		.cfi_startproc
 237              		@ args = 0, pretend = 0, frame = 0
 238              		@ frame_needed = 0, uses_anonymous_args = 0
 239              	.LVL20:
 240 0000 10402DE9 		push	{r4, lr}
 241              		.cfi_def_cfa_offset 8
 242              		.cfi_offset 4, -8
 243              		.cfi_offset 14, -4
 429:D:/Work/DeviceTester/amazon-freertos/lib/third_party/mbedtls/library\md_wrap.c ****     mbedtls_sha256_free( (mbedtls_sha256_context *) ctx );
 244              		.loc 1 429 0
 245 0004 0040A0E1 		mov	r4, r0
 430:D:/Work/DeviceTester/amazon-freertos/lib/third_party/mbedtls/library\md_wrap.c ****     mbedtls_free( ctx );
 246              		.loc 1 430 0
 247 0008 FEFFFFEB 		bl	mbedtls_sha256_free
 248              	.LVL21:
 431:D:/Work/DeviceTester/amazon-freertos/lib/third_party/mbedtls/library\md_wrap.c **** }
 249              		.loc 1 431 0
 250 000c 0400A0E1 		mov	r0, r4
 432:D:/Work/DeviceTester/amazon-freertos/lib/third_party/mbedtls/library\md_wrap.c **** 
 251              		.loc 1 432 0
 252 0010 1040BDE8 		pop	{r4, lr}
 253              		.cfi_restore 14
 254              		.cfi_restore 4
 255              		.cfi_def_cfa_offset 0
 256              	.LVL22:
 431:D:/Work/DeviceTester/amazon-freertos/lib/third_party/mbedtls/library\md_wrap.c **** }
 257              		.loc 1 431 0
 258 0014 FEFFFFEA 		b	mbedtls_free
 259              	.LVL23:
 260              		.cfi_endproc
 261              	.LFE13:
 263              		.section	.text.sha224_ctx_alloc,"ax",%progbits
 264              		.align	2
 265              		.syntax unified
 266              		.arm
 267              		.fpu neon
 269              	sha224_ctx_alloc:
 270              	.LFB12:
 419:D:/Work/DeviceTester/amazon-freertos/lib/third_party/mbedtls/library\md_wrap.c ****     void *ctx = mbedtls_calloc( 1, sizeof( mbedtls_sha256_context ) );
 271              		.loc 1 419 0
 272              		.cfi_startproc
 273              		@ args = 0, pretend = 0, frame = 0
 274              		@ frame_needed = 0, uses_anonymous_args = 0
 275 0000 10402DE9 		push	{r4, lr}
 276              		.cfi_def_cfa_offset 8
 277              		.cfi_offset 4, -8
 278              		.cfi_offset 14, -4
 420:D:/Work/DeviceTester/amazon-freertos/lib/third_party/mbedtls/library\md_wrap.c **** 
 279              		.loc 1 420 0
 280 0004 6C10A0E3 		mov	r1, #108
 281 0008 0100A0E3 		mov	r0, #1
 282 000c FEFFFFEB 		bl	mbedtls_calloc
 283              	.LVL24:
 422:D:/Work/DeviceTester/amazon-freertos/lib/third_party/mbedtls/library\md_wrap.c ****         mbedtls_sha256_init( (mbedtls_sha256_context *) ctx );
 284              		.loc 1 422 0
 285 0010 004050E2 		subs	r4, r0, #0
 286 0014 0000000A 		beq	.L18
 423:D:/Work/DeviceTester/amazon-freertos/lib/third_party/mbedtls/library\md_wrap.c **** 
 287              		.loc 1 423 0
 288 0018 FEFFFFEB 		bl	mbedtls_sha256_init
 289              	.LVL25:
 290              	.L18:
 426:D:/Work/DeviceTester/amazon-freertos/lib/third_party/mbedtls/library\md_wrap.c **** 
 291              		.loc 1 426 0
 292 001c 0400A0E1 		mov	r0, r4
 293 0020 1080BDE8 		pop	{r4, pc}
 294              		.cfi_endproc
 295              	.LFE12:
 297              		.section	.text.sha224_wrap,"ax",%progbits
 298              		.align	2
 299              		.syntax unified
 300              		.arm
 301              		.fpu neon
 303              	sha224_wrap:
 304              	.LFB11:
 414:D:/Work/DeviceTester/amazon-freertos/lib/third_party/mbedtls/library\md_wrap.c ****     return( mbedtls_sha256_ret( input, ilen, output, 1 ) );
 305              		.loc 1 414 0
 306              		.cfi_startproc
 307              		@ args = 0, pretend = 0, frame = 0
 308              		@ frame_needed = 0, uses_anonymous_args = 0
 309              		@ link register save eliminated.
 310              	.LVL26:
 415:D:/Work/DeviceTester/amazon-freertos/lib/third_party/mbedtls/library\md_wrap.c **** }
 311              		.loc 1 415 0
 312 0000 0130A0E3 		mov	r3, #1
 313 0004 FEFFFFEA 		b	mbedtls_sha256_ret
 314              	.LVL27:
 315              		.cfi_endproc
 316              	.LFE11:
 318              		.section	.text.sha256_wrap,"ax",%progbits
 319              		.align	2
 320              		.syntax unified
 321              		.arm
 322              		.fpu neon
 324              	sha256_wrap:
 325              	.LFB17:
 443:D:/Work/DeviceTester/amazon-freertos/lib/third_party/mbedtls/library\md_wrap.c ****                                              data ) );
 444:D:/Work/DeviceTester/amazon-freertos/lib/third_party/mbedtls/library\md_wrap.c **** }
 445:D:/Work/DeviceTester/amazon-freertos/lib/third_party/mbedtls/library\md_wrap.c **** 
 446:D:/Work/DeviceTester/amazon-freertos/lib/third_party/mbedtls/library\md_wrap.c **** const mbedtls_md_info_t mbedtls_sha224_info = {
 447:D:/Work/DeviceTester/amazon-freertos/lib/third_party/mbedtls/library\md_wrap.c ****     MBEDTLS_MD_SHA224,
 448:D:/Work/DeviceTester/amazon-freertos/lib/third_party/mbedtls/library\md_wrap.c ****     "SHA224",
 449:D:/Work/DeviceTester/amazon-freertos/lib/third_party/mbedtls/library\md_wrap.c ****     28,
 450:D:/Work/DeviceTester/amazon-freertos/lib/third_party/mbedtls/library\md_wrap.c ****     64,
 451:D:/Work/DeviceTester/amazon-freertos/lib/third_party/mbedtls/library\md_wrap.c ****     sha224_starts_wrap,
 452:D:/Work/DeviceTester/amazon-freertos/lib/third_party/mbedtls/library\md_wrap.c ****     sha224_update_wrap,
 453:D:/Work/DeviceTester/amazon-freertos/lib/third_party/mbedtls/library\md_wrap.c ****     sha224_finish_wrap,
 454:D:/Work/DeviceTester/amazon-freertos/lib/third_party/mbedtls/library\md_wrap.c ****     sha224_wrap,
 455:D:/Work/DeviceTester/amazon-freertos/lib/third_party/mbedtls/library\md_wrap.c ****     sha224_ctx_alloc,
 456:D:/Work/DeviceTester/amazon-freertos/lib/third_party/mbedtls/library\md_wrap.c ****     sha224_ctx_free,
 457:D:/Work/DeviceTester/amazon-freertos/lib/third_party/mbedtls/library\md_wrap.c ****     sha224_clone_wrap,
 458:D:/Work/DeviceTester/amazon-freertos/lib/third_party/mbedtls/library\md_wrap.c ****     sha224_process_wrap,
 459:D:/Work/DeviceTester/amazon-freertos/lib/third_party/mbedtls/library\md_wrap.c **** };
 460:D:/Work/DeviceTester/amazon-freertos/lib/third_party/mbedtls/library\md_wrap.c **** 
 461:D:/Work/DeviceTester/amazon-freertos/lib/third_party/mbedtls/library\md_wrap.c **** static int sha256_starts_wrap( void *ctx )
 462:D:/Work/DeviceTester/amazon-freertos/lib/third_party/mbedtls/library\md_wrap.c **** {
 463:D:/Work/DeviceTester/amazon-freertos/lib/third_party/mbedtls/library\md_wrap.c ****     return( mbedtls_sha256_starts_ret( (mbedtls_sha256_context *) ctx, 0 ) );
 464:D:/Work/DeviceTester/amazon-freertos/lib/third_party/mbedtls/library\md_wrap.c **** }
 465:D:/Work/DeviceTester/amazon-freertos/lib/third_party/mbedtls/library\md_wrap.c **** 
 466:D:/Work/DeviceTester/amazon-freertos/lib/third_party/mbedtls/library\md_wrap.c **** static int sha256_wrap( const unsigned char *input, size_t ilen,
 467:D:/Work/DeviceTester/amazon-freertos/lib/third_party/mbedtls/library\md_wrap.c ****                         unsigned char *output )
 468:D:/Work/DeviceTester/amazon-freertos/lib/third_party/mbedtls/library\md_wrap.c **** {
 326              		.loc 1 468 0
 327              		.cfi_startproc
 328              		@ args = 0, pretend = 0, frame = 0
 329              		@ frame_needed = 0, uses_anonymous_args = 0
 330              		@ link register save eliminated.
 331              	.LVL28:
 469:D:/Work/DeviceTester/amazon-freertos/lib/third_party/mbedtls/library\md_wrap.c ****     return( mbedtls_sha256_ret( input, ilen, output, 0 ) );
 332              		.loc 1 469 0
 333 0000 0030A0E3 		mov	r3, #0
 334 0004 FEFFFFEA 		b	mbedtls_sha256_ret
 335              	.LVL29:
 336              		.cfi_endproc
 337              	.LFE17:
 339              		.section	.text.sha224_finish_wrap,"ax",%progbits
 340              		.align	2
 341              		.syntax unified
 342              		.arm
 343              		.fpu neon
 345              	sha224_finish_wrap:
 346              	.LFB10:
 407:D:/Work/DeviceTester/amazon-freertos/lib/third_party/mbedtls/library\md_wrap.c ****     return( mbedtls_sha256_finish_ret( (mbedtls_sha256_context *) ctx,
 347              		.loc 1 407 0
 348              		.cfi_startproc
 349              		@ args = 0, pretend = 0, frame = 0
 350              		@ frame_needed = 0, uses_anonymous_args = 0
 351              		@ link register save eliminated.
 352              	.LVL30:
 408:D:/Work/DeviceTester/amazon-freertos/lib/third_party/mbedtls/library\md_wrap.c ****                                        output ) );
 353              		.loc 1 408 0
 354 0000 FEFFFFEA 		b	mbedtls_sha256_finish_ret
 355              	.LVL31:
 356              		.cfi_endproc
 357              	.LFE10:
 359              		.section	.text.sha224_update_wrap,"ax",%progbits
 360              		.align	2
 361              		.syntax unified
 362              		.arm
 363              		.fpu neon
 365              	sha224_update_wrap:
 366              	.LFB9:
 401:D:/Work/DeviceTester/amazon-freertos/lib/third_party/mbedtls/library\md_wrap.c ****     return( mbedtls_sha256_update_ret( (mbedtls_sha256_context *) ctx,
 367              		.loc 1 401 0
 368              		.cfi_startproc
 369              		@ args = 0, pretend = 0, frame = 0
 370              		@ frame_needed = 0, uses_anonymous_args = 0
 371              		@ link register save eliminated.
 372              	.LVL32:
 402:D:/Work/DeviceTester/amazon-freertos/lib/third_party/mbedtls/library\md_wrap.c ****                                        input, ilen ) );
 373              		.loc 1 402 0
 374 0000 FEFFFFEA 		b	mbedtls_sha256_update_ret
 375              	.LVL33:
 376              		.cfi_endproc
 377              	.LFE9:
 379              		.section	.text.sha224_starts_wrap,"ax",%progbits
 380              		.align	2
 381              		.syntax unified
 382              		.arm
 383              		.fpu neon
 385              	sha224_starts_wrap:
 386              	.LFB8:
 395:D:/Work/DeviceTester/amazon-freertos/lib/third_party/mbedtls/library\md_wrap.c ****     return( mbedtls_sha256_starts_ret( (mbedtls_sha256_context *) ctx, 1 ) );
 387              		.loc 1 395 0
 388              		.cfi_startproc
 389              		@ args = 0, pretend = 0, frame = 0
 390              		@ frame_needed = 0, uses_anonymous_args = 0
 391              		@ link register save eliminated.
 392              	.LVL34:
 396:D:/Work/DeviceTester/amazon-freertos/lib/third_party/mbedtls/library\md_wrap.c **** }
 393              		.loc 1 396 0
 394 0000 0110A0E3 		mov	r1, #1
 395 0004 FEFFFFEA 		b	mbedtls_sha256_starts_ret
 396              	.LVL35:
 397              		.cfi_endproc
 398              	.LFE8:
 400              		.section	.text.sha256_starts_wrap,"ax",%progbits
 401              		.align	2
 402              		.syntax unified
 403              		.arm
 404              		.fpu neon
 406              	sha256_starts_wrap:
 407              	.LFB16:
 462:D:/Work/DeviceTester/amazon-freertos/lib/third_party/mbedtls/library\md_wrap.c ****     return( mbedtls_sha256_starts_ret( (mbedtls_sha256_context *) ctx, 0 ) );
 408              		.loc 1 462 0
 409              		.cfi_startproc
 410              		@ args = 0, pretend = 0, frame = 0
 411              		@ frame_needed = 0, uses_anonymous_args = 0
 412              		@ link register save eliminated.
 413              	.LVL36:
 463:D:/Work/DeviceTester/amazon-freertos/lib/third_party/mbedtls/library\md_wrap.c **** }
 414              		.loc 1 463 0
 415 0000 0010A0E3 		mov	r1, #0
 416 0004 FEFFFFEA 		b	mbedtls_sha256_starts_ret
 417              	.LVL37:
 418              		.cfi_endproc
 419              	.LFE16:
 421              		.global	mbedtls_sha256_info
 422              		.global	mbedtls_sha224_info
 423              		.global	mbedtls_sha1_info
 424              		.section	.rodata.mbedtls_sha1_info,"a",%progbits
 425              		.align	2
 428              	mbedtls_sha1_info:
 429 0000 04       		.byte	4
 430 0001 000000   		.space	3
 431 0004 0E000000 		.word	.LC2
 432 0008 14000000 		.word	20
 433 000c 40000000 		.word	64
 434 0010 00000000 		.word	sha1_starts_wrap
 435 0014 00000000 		.word	sha1_update_wrap
 436 0018 00000000 		.word	sha1_finish_wrap
 437 001c 00000000 		.word	mbedtls_sha1_ret
 438 0020 00000000 		.word	sha1_ctx_alloc
 439 0024 00000000 		.word	sha1_ctx_free
 440 0028 00000000 		.word	sha1_clone_wrap
 441 002c 00000000 		.word	sha1_process_wrap
 442              		.section	.rodata.mbedtls_sha224_info,"a",%progbits
 443              		.align	2
 446              	mbedtls_sha224_info:
 447 0000 05       		.byte	5
 448 0001 000000   		.space	3
 449 0004 07000000 		.word	.LC1
 450 0008 1C000000 		.word	28
 451 000c 40000000 		.word	64
 452 0010 00000000 		.word	sha224_starts_wrap
 453 0014 00000000 		.word	sha224_update_wrap
 454 0018 00000000 		.word	sha224_finish_wrap
 455 001c 00000000 		.word	sha224_wrap
 456 0020 00000000 		.word	sha224_ctx_alloc
 457 0024 00000000 		.word	sha224_ctx_free
 458 0028 00000000 		.word	sha224_clone_wrap
 459 002c 00000000 		.word	sha224_process_wrap
 460              		.section	.rodata.mbedtls_sha256_info,"a",%progbits
 461              		.align	2
 464              	mbedtls_sha256_info:
 465 0000 06       		.byte	6
 466 0001 000000   		.space	3
 467 0004 00000000 		.word	.LC0
 468 0008 20000000 		.word	32
 469 000c 40000000 		.word	64
 470 0010 00000000 		.word	sha256_starts_wrap
 471 0014 00000000 		.word	sha224_update_wrap
 472 0018 00000000 		.word	sha224_finish_wrap
 473 001c 00000000 		.word	sha256_wrap
 474 0020 00000000 		.word	sha224_ctx_alloc
 475 0024 00000000 		.word	sha224_ctx_free
 476 0028 00000000 		.word	sha224_clone_wrap
 477 002c 00000000 		.word	sha224_process_wrap
 478              		.section	.rodata.str1.1,"aMS",%progbits,1
 479              	.LC0:
 480 0000 53484132 		.ascii	"SHA256\000"
 480      353600
 481              	.LC1:
 482 0007 53484132 		.ascii	"SHA224\000"
 482      323400
 483              	.LC2:
 484 000e 53484131 		.ascii	"SHA1\000"
 484      00
 485              		.text
 486              	.Letext0:
 487              		.file 2 "c:\\program files (x86)\\gnu tools arm embedded\\6 2017-q2-update\\arm-none-eabi\\include
 488              		.file 3 "c:\\program files (x86)\\gnu tools arm embedded\\6 2017-q2-update\\lib\\gcc\\arm-none-eab
 489              		.file 4 "D:\\Work\\DeviceTester\\amazon-freertos\\lib\\third_party\\mbedtls\\include/mbedtls/md.h"
 490              		.file 5 "D:\\Work\\DeviceTester\\amazon-freertos\\lib\\third_party\\mbedtls\\include/mbedtls/md_in
 491              		.file 6 "c:\\program files (x86)\\gnu tools arm embedded\\6 2017-q2-update\\arm-none-eabi\\include
 492              		.file 7 "D:\\Work\\DeviceTester\\amazon-freertos\\lib\\third_party\\mbedtls\\include/mbedtls/sha1.
 493              		.file 8 "D:\\Work\\DeviceTester\\amazon-freertos\\lib\\third_party\\mbedtls\\include/mbedtls/sha25
 494              		.file 9 "c:\\program files (x86)\\gnu tools arm embedded\\6 2017-q2-update\\arm-none-eabi\\include
 495              		.file 10 "c:\\program files (x86)\\gnu tools arm embedded\\6 2017-q2-update\\arm-none-eabi\\includ
 496              		.file 11 "c:\\program files (x86)\\gnu tools arm embedded\\6 2017-q2-update\\arm-none-eabi\\includ
 497              		.file 12 "c:\\program files (x86)\\gnu tools arm embedded\\6 2017-q2-update\\arm-none-eabi\\includ
 498              		.file 13 "c:\\program files (x86)\\gnu tools arm embedded\\6 2017-q2-update\\arm-none-eabi\\includ
 499              		.file 14 "D:\\Work\\DeviceTester\\amazon-freertos\\lib\\third_party\\mbedtls\\include/mbedtls/plat