   1              		.cpu cortex-a9
   2              		.eabi_attribute 28, 1
   3              		.eabi_attribute 20, 1
   4              		.eabi_attribute 21, 1
   5              		.eabi_attribute 23, 3
   6              		.eabi_attribute 24, 1
   7              		.eabi_attribute 25, 1
   8              		.eabi_attribute 26, 1
   9              		.eabi_attribute 30, 4
  10              		.eabi_attribute 34, 0
  11              		.eabi_attribute 18, 4
  12              		.file	"pk_wrap.c"
  13              		.text
  14              	.Ltext0:
  15              		.cfi_sections	.debug_frame
  16              		.section	.text.rsa_can_do,"ax",%progbits
  17              		.align	2
  18              		.syntax unified
  19              		.arm
  20              		.fpu neon
  22              	rsa_can_do:
  23              	.LFB4:
  24              		.file 1 "D:/Work/DeviceTester/amazon-freertos/lib/third_party/mbedtls/library/pk_wrap.c"
   1:D:/Work/DeviceTester/amazon-freertos/lib/third_party/mbedtls/library\pk_wrap.c **** /*
   2:D:/Work/DeviceTester/amazon-freertos/lib/third_party/mbedtls/library\pk_wrap.c ****  *  Public Key abstraction layer: wrapper functions
   3:D:/Work/DeviceTester/amazon-freertos/lib/third_party/mbedtls/library\pk_wrap.c ****  *
   4:D:/Work/DeviceTester/amazon-freertos/lib/third_party/mbedtls/library\pk_wrap.c ****  *  Copyright (C) 2006-2015, ARM Limited, All Rights Reserved
   5:D:/Work/DeviceTester/amazon-freertos/lib/third_party/mbedtls/library\pk_wrap.c ****  *  SPDX-License-Identifier: Apache-2.0
   6:D:/Work/DeviceTester/amazon-freertos/lib/third_party/mbedtls/library\pk_wrap.c ****  *
   7:D:/Work/DeviceTester/amazon-freertos/lib/third_party/mbedtls/library\pk_wrap.c ****  *  Licensed under the Apache License, Version 2.0 (the "License"); you may
   8:D:/Work/DeviceTester/amazon-freertos/lib/third_party/mbedtls/library\pk_wrap.c ****  *  not use this file except in compliance with the License.
   9:D:/Work/DeviceTester/amazon-freertos/lib/third_party/mbedtls/library\pk_wrap.c ****  *  You may obtain a copy of the License at
  10:D:/Work/DeviceTester/amazon-freertos/lib/third_party/mbedtls/library\pk_wrap.c ****  *
  11:D:/Work/DeviceTester/amazon-freertos/lib/third_party/mbedtls/library\pk_wrap.c ****  *  http://www.apache.org/licenses/LICENSE-2.0
  12:D:/Work/DeviceTester/amazon-freertos/lib/third_party/mbedtls/library\pk_wrap.c ****  *
  13:D:/Work/DeviceTester/amazon-freertos/lib/third_party/mbedtls/library\pk_wrap.c ****  *  Unless required by applicable law or agreed to in writing, software
  14:D:/Work/DeviceTester/amazon-freertos/lib/third_party/mbedtls/library\pk_wrap.c ****  *  distributed under the License is distributed on an "AS IS" BASIS, WITHOUT
  15:D:/Work/DeviceTester/amazon-freertos/lib/third_party/mbedtls/library\pk_wrap.c ****  *  WARRANTIES OR CONDITIONS OF ANY KIND, either express or implied.
  16:D:/Work/DeviceTester/amazon-freertos/lib/third_party/mbedtls/library\pk_wrap.c ****  *  See the License for the specific language governing permissions and
  17:D:/Work/DeviceTester/amazon-freertos/lib/third_party/mbedtls/library\pk_wrap.c ****  *  limitations under the License.
  18:D:/Work/DeviceTester/amazon-freertos/lib/third_party/mbedtls/library\pk_wrap.c ****  *
  19:D:/Work/DeviceTester/amazon-freertos/lib/third_party/mbedtls/library\pk_wrap.c ****  *  This file is part of mbed TLS (https://tls.mbed.org)
  20:D:/Work/DeviceTester/amazon-freertos/lib/third_party/mbedtls/library\pk_wrap.c ****  */
  21:D:/Work/DeviceTester/amazon-freertos/lib/third_party/mbedtls/library\pk_wrap.c **** 
  22:D:/Work/DeviceTester/amazon-freertos/lib/third_party/mbedtls/library\pk_wrap.c **** #if !defined(MBEDTLS_CONFIG_FILE)
  23:D:/Work/DeviceTester/amazon-freertos/lib/third_party/mbedtls/library\pk_wrap.c **** #include "mbedtls/config.h"
  24:D:/Work/DeviceTester/amazon-freertos/lib/third_party/mbedtls/library\pk_wrap.c **** #else
  25:D:/Work/DeviceTester/amazon-freertos/lib/third_party/mbedtls/library\pk_wrap.c **** #include MBEDTLS_CONFIG_FILE
  26:D:/Work/DeviceTester/amazon-freertos/lib/third_party/mbedtls/library\pk_wrap.c **** #endif
  27:D:/Work/DeviceTester/amazon-freertos/lib/third_party/mbedtls/library\pk_wrap.c **** 
  28:D:/Work/DeviceTester/amazon-freertos/lib/third_party/mbedtls/library\pk_wrap.c **** #if defined(MBEDTLS_PK_C)
  29:D:/Work/DeviceTester/amazon-freertos/lib/third_party/mbedtls/library\pk_wrap.c **** #include "mbedtls/pk_internal.h"
  30:D:/Work/DeviceTester/amazon-freertos/lib/third_party/mbedtls/library\pk_wrap.c **** 
  31:D:/Work/DeviceTester/amazon-freertos/lib/third_party/mbedtls/library\pk_wrap.c **** /* Even if RSA not activated, for the sake of RSA-alt */
  32:D:/Work/DeviceTester/amazon-freertos/lib/third_party/mbedtls/library\pk_wrap.c **** #include "mbedtls/rsa.h"
  33:D:/Work/DeviceTester/amazon-freertos/lib/third_party/mbedtls/library\pk_wrap.c **** 
  34:D:/Work/DeviceTester/amazon-freertos/lib/third_party/mbedtls/library\pk_wrap.c **** #include <string.h>
  35:D:/Work/DeviceTester/amazon-freertos/lib/third_party/mbedtls/library\pk_wrap.c **** 
  36:D:/Work/DeviceTester/amazon-freertos/lib/third_party/mbedtls/library\pk_wrap.c **** #if defined(MBEDTLS_ECP_C)
  37:D:/Work/DeviceTester/amazon-freertos/lib/third_party/mbedtls/library\pk_wrap.c **** #include "mbedtls/ecp.h"
  38:D:/Work/DeviceTester/amazon-freertos/lib/third_party/mbedtls/library\pk_wrap.c **** #endif
  39:D:/Work/DeviceTester/amazon-freertos/lib/third_party/mbedtls/library\pk_wrap.c **** 
  40:D:/Work/DeviceTester/amazon-freertos/lib/third_party/mbedtls/library\pk_wrap.c **** #if defined(MBEDTLS_ECDSA_C)
  41:D:/Work/DeviceTester/amazon-freertos/lib/third_party/mbedtls/library\pk_wrap.c **** #include "mbedtls/ecdsa.h"
  42:D:/Work/DeviceTester/amazon-freertos/lib/third_party/mbedtls/library\pk_wrap.c **** #endif
  43:D:/Work/DeviceTester/amazon-freertos/lib/third_party/mbedtls/library\pk_wrap.c **** 
  44:D:/Work/DeviceTester/amazon-freertos/lib/third_party/mbedtls/library\pk_wrap.c **** #if defined(MBEDTLS_PK_RSA_ALT_SUPPORT)
  45:D:/Work/DeviceTester/amazon-freertos/lib/third_party/mbedtls/library\pk_wrap.c **** #include "mbedtls/platform_util.h"
  46:D:/Work/DeviceTester/amazon-freertos/lib/third_party/mbedtls/library\pk_wrap.c **** #endif
  47:D:/Work/DeviceTester/amazon-freertos/lib/third_party/mbedtls/library\pk_wrap.c **** 
  48:D:/Work/DeviceTester/amazon-freertos/lib/third_party/mbedtls/library\pk_wrap.c **** #if defined(MBEDTLS_PLATFORM_C)
  49:D:/Work/DeviceTester/amazon-freertos/lib/third_party/mbedtls/library\pk_wrap.c **** #include "mbedtls/platform.h"
  50:D:/Work/DeviceTester/amazon-freertos/lib/third_party/mbedtls/library\pk_wrap.c **** #else
  51:D:/Work/DeviceTester/amazon-freertos/lib/third_party/mbedtls/library\pk_wrap.c **** #include <stdlib.h>
  52:D:/Work/DeviceTester/amazon-freertos/lib/third_party/mbedtls/library\pk_wrap.c **** #define mbedtls_calloc    calloc
  53:D:/Work/DeviceTester/amazon-freertos/lib/third_party/mbedtls/library\pk_wrap.c **** #define mbedtls_free       free
  54:D:/Work/DeviceTester/amazon-freertos/lib/third_party/mbedtls/library\pk_wrap.c **** #endif
  55:D:/Work/DeviceTester/amazon-freertos/lib/third_party/mbedtls/library\pk_wrap.c **** 
  56:D:/Work/DeviceTester/amazon-freertos/lib/third_party/mbedtls/library\pk_wrap.c **** #include <limits.h>
  57:D:/Work/DeviceTester/amazon-freertos/lib/third_party/mbedtls/library\pk_wrap.c **** #include <stdint.h>
  58:D:/Work/DeviceTester/amazon-freertos/lib/third_party/mbedtls/library\pk_wrap.c **** 
  59:D:/Work/DeviceTester/amazon-freertos/lib/third_party/mbedtls/library\pk_wrap.c **** #if defined(MBEDTLS_RSA_C)
  60:D:/Work/DeviceTester/amazon-freertos/lib/third_party/mbedtls/library\pk_wrap.c **** static int rsa_can_do( mbedtls_pk_type_t type )
  61:D:/Work/DeviceTester/amazon-freertos/lib/third_party/mbedtls/library\pk_wrap.c **** {
  25              		.loc 1 61 0
  26              		.cfi_startproc
  27              		@ args = 0, pretend = 0, frame = 0
  28              		@ frame_needed = 0, uses_anonymous_args = 0
  29              		@ link register save eliminated.
  30              	.LVL0:
  62:D:/Work/DeviceTester/amazon-freertos/lib/third_party/mbedtls/library\pk_wrap.c ****     return( type == MBEDTLS_PK_RSA ||
  63:D:/Work/DeviceTester/amazon-freertos/lib/third_party/mbedtls/library\pk_wrap.c ****             type == MBEDTLS_PK_RSASSA_PSS );
  64:D:/Work/DeviceTester/amazon-freertos/lib/third_party/mbedtls/library\pk_wrap.c **** }
  31              		.loc 1 64 0
  32 0000 060050E3 		cmp	r0, #6
  33 0004 01005013 		cmpne	r0, #1
  34 0008 0100A003 		moveq	r0, #1
  35              	.LVL1:
  36 000c 0000A013 		movne	r0, #0
  37 0010 1EFF2FE1 		bx	lr
  38              		.cfi_endproc
  39              	.LFE4:
  41              		.section	.text.rsa_debug,"ax",%progbits
  42              		.align	2
  43              		.syntax unified
  44              		.arm
  45              		.fpu neon
  47              	rsa_debug:
  48              	.LFB13:
  65:D:/Work/DeviceTester/amazon-freertos/lib/third_party/mbedtls/library\pk_wrap.c **** 
  66:D:/Work/DeviceTester/amazon-freertos/lib/third_party/mbedtls/library\pk_wrap.c **** static size_t rsa_get_bitlen( const void *ctx )
  67:D:/Work/DeviceTester/amazon-freertos/lib/third_party/mbedtls/library\pk_wrap.c **** {
  68:D:/Work/DeviceTester/amazon-freertos/lib/third_party/mbedtls/library\pk_wrap.c ****     const mbedtls_rsa_context * rsa = (const mbedtls_rsa_context *) ctx;
  69:D:/Work/DeviceTester/amazon-freertos/lib/third_party/mbedtls/library\pk_wrap.c ****     return( 8 * mbedtls_rsa_get_len( rsa ) );
  70:D:/Work/DeviceTester/amazon-freertos/lib/third_party/mbedtls/library\pk_wrap.c **** }
  71:D:/Work/DeviceTester/amazon-freertos/lib/third_party/mbedtls/library\pk_wrap.c **** 
  72:D:/Work/DeviceTester/amazon-freertos/lib/third_party/mbedtls/library\pk_wrap.c **** static int rsa_verify_wrap( void *ctx, mbedtls_md_type_t md_alg,
  73:D:/Work/DeviceTester/amazon-freertos/lib/third_party/mbedtls/library\pk_wrap.c ****                    const unsigned char *hash, size_t hash_len,
  74:D:/Work/DeviceTester/amazon-freertos/lib/third_party/mbedtls/library\pk_wrap.c ****                    const unsigned char *sig, size_t sig_len )
  75:D:/Work/DeviceTester/amazon-freertos/lib/third_party/mbedtls/library\pk_wrap.c **** {
  76:D:/Work/DeviceTester/amazon-freertos/lib/third_party/mbedtls/library\pk_wrap.c ****     int ret;
  77:D:/Work/DeviceTester/amazon-freertos/lib/third_party/mbedtls/library\pk_wrap.c ****     mbedtls_rsa_context * rsa = (mbedtls_rsa_context *) ctx;
  78:D:/Work/DeviceTester/amazon-freertos/lib/third_party/mbedtls/library\pk_wrap.c ****     size_t rsa_len = mbedtls_rsa_get_len( rsa );
  79:D:/Work/DeviceTester/amazon-freertos/lib/third_party/mbedtls/library\pk_wrap.c **** 
  80:D:/Work/DeviceTester/amazon-freertos/lib/third_party/mbedtls/library\pk_wrap.c **** #if SIZE_MAX > UINT_MAX
  81:D:/Work/DeviceTester/amazon-freertos/lib/third_party/mbedtls/library\pk_wrap.c ****     if( md_alg == MBEDTLS_MD_NONE && UINT_MAX < hash_len )
  82:D:/Work/DeviceTester/amazon-freertos/lib/third_party/mbedtls/library\pk_wrap.c ****         return( MBEDTLS_ERR_PK_BAD_INPUT_DATA );
  83:D:/Work/DeviceTester/amazon-freertos/lib/third_party/mbedtls/library\pk_wrap.c **** #endif /* SIZE_MAX > UINT_MAX */
  84:D:/Work/DeviceTester/amazon-freertos/lib/third_party/mbedtls/library\pk_wrap.c **** 
  85:D:/Work/DeviceTester/amazon-freertos/lib/third_party/mbedtls/library\pk_wrap.c ****     if( sig_len < rsa_len )
  86:D:/Work/DeviceTester/amazon-freertos/lib/third_party/mbedtls/library\pk_wrap.c ****         return( MBEDTLS_ERR_RSA_VERIFY_FAILED );
  87:D:/Work/DeviceTester/amazon-freertos/lib/third_party/mbedtls/library\pk_wrap.c **** 
  88:D:/Work/DeviceTester/amazon-freertos/lib/third_party/mbedtls/library\pk_wrap.c ****     if( ( ret = mbedtls_rsa_pkcs1_verify( rsa, NULL, NULL,
  89:D:/Work/DeviceTester/amazon-freertos/lib/third_party/mbedtls/library\pk_wrap.c ****                                   MBEDTLS_RSA_PUBLIC, md_alg,
  90:D:/Work/DeviceTester/amazon-freertos/lib/third_party/mbedtls/library\pk_wrap.c ****                                   (unsigned int) hash_len, hash, sig ) ) != 0 )
  91:D:/Work/DeviceTester/amazon-freertos/lib/third_party/mbedtls/library\pk_wrap.c ****         return( ret );
  92:D:/Work/DeviceTester/amazon-freertos/lib/third_party/mbedtls/library\pk_wrap.c **** 
  93:D:/Work/DeviceTester/amazon-freertos/lib/third_party/mbedtls/library\pk_wrap.c ****     /* The buffer contains a valid signature followed by extra data.
  94:D:/Work/DeviceTester/amazon-freertos/lib/third_party/mbedtls/library\pk_wrap.c ****      * We have a special error code for that so that so that callers can
  95:D:/Work/DeviceTester/amazon-freertos/lib/third_party/mbedtls/library\pk_wrap.c ****      * use mbedtls_pk_verify() to check "Does the buffer start with a
  96:D:/Work/DeviceTester/amazon-freertos/lib/third_party/mbedtls/library\pk_wrap.c ****      * valid signature?" and not just "Does the buffer contain a valid
  97:D:/Work/DeviceTester/amazon-freertos/lib/third_party/mbedtls/library\pk_wrap.c ****      * signature?". */
  98:D:/Work/DeviceTester/amazon-freertos/lib/third_party/mbedtls/library\pk_wrap.c ****     if( sig_len > rsa_len )
  99:D:/Work/DeviceTester/amazon-freertos/lib/third_party/mbedtls/library\pk_wrap.c ****         return( MBEDTLS_ERR_PK_SIG_LEN_MISMATCH );
 100:D:/Work/DeviceTester/amazon-freertos/lib/third_party/mbedtls/library\pk_wrap.c **** 
 101:D:/Work/DeviceTester/amazon-freertos/lib/third_party/mbedtls/library\pk_wrap.c ****     return( 0 );
 102:D:/Work/DeviceTester/amazon-freertos/lib/third_party/mbedtls/library\pk_wrap.c **** }
 103:D:/Work/DeviceTester/amazon-freertos/lib/third_party/mbedtls/library\pk_wrap.c **** 
 104:D:/Work/DeviceTester/amazon-freertos/lib/third_party/mbedtls/library\pk_wrap.c **** static int rsa_sign_wrap( void *ctx, mbedtls_md_type_t md_alg,
 105:D:/Work/DeviceTester/amazon-freertos/lib/third_party/mbedtls/library\pk_wrap.c ****                    const unsigned char *hash, size_t hash_len,
 106:D:/Work/DeviceTester/amazon-freertos/lib/third_party/mbedtls/library\pk_wrap.c ****                    unsigned char *sig, size_t *sig_len,
 107:D:/Work/DeviceTester/amazon-freertos/lib/third_party/mbedtls/library\pk_wrap.c ****                    int (*f_rng)(void *, unsigned char *, size_t), void *p_rng )
 108:D:/Work/DeviceTester/amazon-freertos/lib/third_party/mbedtls/library\pk_wrap.c **** {
 109:D:/Work/DeviceTester/amazon-freertos/lib/third_party/mbedtls/library\pk_wrap.c ****     mbedtls_rsa_context * rsa = (mbedtls_rsa_context *) ctx;
 110:D:/Work/DeviceTester/amazon-freertos/lib/third_party/mbedtls/library\pk_wrap.c **** 
 111:D:/Work/DeviceTester/amazon-freertos/lib/third_party/mbedtls/library\pk_wrap.c **** #if SIZE_MAX > UINT_MAX
 112:D:/Work/DeviceTester/amazon-freertos/lib/third_party/mbedtls/library\pk_wrap.c ****     if( md_alg == MBEDTLS_MD_NONE && UINT_MAX < hash_len )
 113:D:/Work/DeviceTester/amazon-freertos/lib/third_party/mbedtls/library\pk_wrap.c ****         return( MBEDTLS_ERR_PK_BAD_INPUT_DATA );
 114:D:/Work/DeviceTester/amazon-freertos/lib/third_party/mbedtls/library\pk_wrap.c **** #endif /* SIZE_MAX > UINT_MAX */
 115:D:/Work/DeviceTester/amazon-freertos/lib/third_party/mbedtls/library\pk_wrap.c **** 
 116:D:/Work/DeviceTester/amazon-freertos/lib/third_party/mbedtls/library\pk_wrap.c ****     *sig_len = mbedtls_rsa_get_len( rsa );
 117:D:/Work/DeviceTester/amazon-freertos/lib/third_party/mbedtls/library\pk_wrap.c **** 
 118:D:/Work/DeviceTester/amazon-freertos/lib/third_party/mbedtls/library\pk_wrap.c ****     return( mbedtls_rsa_pkcs1_sign( rsa, f_rng, p_rng, MBEDTLS_RSA_PRIVATE,
 119:D:/Work/DeviceTester/amazon-freertos/lib/third_party/mbedtls/library\pk_wrap.c ****                 md_alg, (unsigned int) hash_len, hash, sig ) );
 120:D:/Work/DeviceTester/amazon-freertos/lib/third_party/mbedtls/library\pk_wrap.c **** }
 121:D:/Work/DeviceTester/amazon-freertos/lib/third_party/mbedtls/library\pk_wrap.c **** 
 122:D:/Work/DeviceTester/amazon-freertos/lib/third_party/mbedtls/library\pk_wrap.c **** static int rsa_decrypt_wrap( void *ctx,
 123:D:/Work/DeviceTester/amazon-freertos/lib/third_party/mbedtls/library\pk_wrap.c ****                     const unsigned char *input, size_t ilen,
 124:D:/Work/DeviceTester/amazon-freertos/lib/third_party/mbedtls/library\pk_wrap.c ****                     unsigned char *output, size_t *olen, size_t osize,
 125:D:/Work/DeviceTester/amazon-freertos/lib/third_party/mbedtls/library\pk_wrap.c ****                     int (*f_rng)(void *, unsigned char *, size_t), void *p_rng )
 126:D:/Work/DeviceTester/amazon-freertos/lib/third_party/mbedtls/library\pk_wrap.c **** {
 127:D:/Work/DeviceTester/amazon-freertos/lib/third_party/mbedtls/library\pk_wrap.c ****     mbedtls_rsa_context * rsa = (mbedtls_rsa_context *) ctx;
 128:D:/Work/DeviceTester/amazon-freertos/lib/third_party/mbedtls/library\pk_wrap.c **** 
 129:D:/Work/DeviceTester/amazon-freertos/lib/third_party/mbedtls/library\pk_wrap.c ****     if( ilen != mbedtls_rsa_get_len( rsa ) )
 130:D:/Work/DeviceTester/amazon-freertos/lib/third_party/mbedtls/library\pk_wrap.c ****         return( MBEDTLS_ERR_RSA_BAD_INPUT_DATA );
 131:D:/Work/DeviceTester/amazon-freertos/lib/third_party/mbedtls/library\pk_wrap.c **** 
 132:D:/Work/DeviceTester/amazon-freertos/lib/third_party/mbedtls/library\pk_wrap.c ****     return( mbedtls_rsa_pkcs1_decrypt( rsa, f_rng, p_rng,
 133:D:/Work/DeviceTester/amazon-freertos/lib/third_party/mbedtls/library\pk_wrap.c ****                 MBEDTLS_RSA_PRIVATE, olen, input, output, osize ) );
 134:D:/Work/DeviceTester/amazon-freertos/lib/third_party/mbedtls/library\pk_wrap.c **** }
 135:D:/Work/DeviceTester/amazon-freertos/lib/third_party/mbedtls/library\pk_wrap.c **** 
 136:D:/Work/DeviceTester/amazon-freertos/lib/third_party/mbedtls/library\pk_wrap.c **** static int rsa_encrypt_wrap( void *ctx,
 137:D:/Work/DeviceTester/amazon-freertos/lib/third_party/mbedtls/library\pk_wrap.c ****                     const unsigned char *input, size_t ilen,
 138:D:/Work/DeviceTester/amazon-freertos/lib/third_party/mbedtls/library\pk_wrap.c ****                     unsigned char *output, size_t *olen, size_t osize,
 139:D:/Work/DeviceTester/amazon-freertos/lib/third_party/mbedtls/library\pk_wrap.c ****                     int (*f_rng)(void *, unsigned char *, size_t), void *p_rng )
 140:D:/Work/DeviceTester/amazon-freertos/lib/third_party/mbedtls/library\pk_wrap.c **** {
 141:D:/Work/DeviceTester/amazon-freertos/lib/third_party/mbedtls/library\pk_wrap.c ****     mbedtls_rsa_context * rsa = (mbedtls_rsa_context *) ctx;
 142:D:/Work/DeviceTester/amazon-freertos/lib/third_party/mbedtls/library\pk_wrap.c ****     *olen = mbedtls_rsa_get_len( rsa );
 143:D:/Work/DeviceTester/amazon-freertos/lib/third_party/mbedtls/library\pk_wrap.c **** 
 144:D:/Work/DeviceTester/amazon-freertos/lib/third_party/mbedtls/library\pk_wrap.c ****     if( *olen > osize )
 145:D:/Work/DeviceTester/amazon-freertos/lib/third_party/mbedtls/library\pk_wrap.c ****         return( MBEDTLS_ERR_RSA_OUTPUT_TOO_LARGE );
 146:D:/Work/DeviceTester/amazon-freertos/lib/third_party/mbedtls/library\pk_wrap.c **** 
 147:D:/Work/DeviceTester/amazon-freertos/lib/third_party/mbedtls/library\pk_wrap.c ****     return( mbedtls_rsa_pkcs1_encrypt( rsa, f_rng, p_rng, MBEDTLS_RSA_PUBLIC,
 148:D:/Work/DeviceTester/amazon-freertos/lib/third_party/mbedtls/library\pk_wrap.c ****                                        ilen, input, output ) );
 149:D:/Work/DeviceTester/amazon-freertos/lib/third_party/mbedtls/library\pk_wrap.c **** }
 150:D:/Work/DeviceTester/amazon-freertos/lib/third_party/mbedtls/library\pk_wrap.c **** 
 151:D:/Work/DeviceTester/amazon-freertos/lib/third_party/mbedtls/library\pk_wrap.c **** static int rsa_check_pair_wrap( const void *pub, const void *prv )
 152:D:/Work/DeviceTester/amazon-freertos/lib/third_party/mbedtls/library\pk_wrap.c **** {
 153:D:/Work/DeviceTester/amazon-freertos/lib/third_party/mbedtls/library\pk_wrap.c ****     return( mbedtls_rsa_check_pub_priv( (const mbedtls_rsa_context *) pub,
 154:D:/Work/DeviceTester/amazon-freertos/lib/third_party/mbedtls/library\pk_wrap.c ****                                 (const mbedtls_rsa_context *) prv ) );
 155:D:/Work/DeviceTester/amazon-freertos/lib/third_party/mbedtls/library\pk_wrap.c **** }
 156:D:/Work/DeviceTester/amazon-freertos/lib/third_party/mbedtls/library\pk_wrap.c **** 
 157:D:/Work/DeviceTester/amazon-freertos/lib/third_party/mbedtls/library\pk_wrap.c **** static void *rsa_alloc_wrap( void )
 158:D:/Work/DeviceTester/amazon-freertos/lib/third_party/mbedtls/library\pk_wrap.c **** {
 159:D:/Work/DeviceTester/amazon-freertos/lib/third_party/mbedtls/library\pk_wrap.c ****     void *ctx = mbedtls_calloc( 1, sizeof( mbedtls_rsa_context ) );
 160:D:/Work/DeviceTester/amazon-freertos/lib/third_party/mbedtls/library\pk_wrap.c **** 
 161:D:/Work/DeviceTester/amazon-freertos/lib/third_party/mbedtls/library\pk_wrap.c ****     if( ctx != NULL )
 162:D:/Work/DeviceTester/amazon-freertos/lib/third_party/mbedtls/library\pk_wrap.c ****         mbedtls_rsa_init( (mbedtls_rsa_context *) ctx, 0, 0 );
 163:D:/Work/DeviceTester/amazon-freertos/lib/third_party/mbedtls/library\pk_wrap.c **** 
 164:D:/Work/DeviceTester/amazon-freertos/lib/third_party/mbedtls/library\pk_wrap.c ****     return( ctx );
 165:D:/Work/DeviceTester/amazon-freertos/lib/third_party/mbedtls/library\pk_wrap.c **** }
 166:D:/Work/DeviceTester/amazon-freertos/lib/third_party/mbedtls/library\pk_wrap.c **** 
 167:D:/Work/DeviceTester/amazon-freertos/lib/third_party/mbedtls/library\pk_wrap.c **** static void rsa_free_wrap( void *ctx )
 168:D:/Work/DeviceTester/amazon-freertos/lib/third_party/mbedtls/library\pk_wrap.c **** {
 169:D:/Work/DeviceTester/amazon-freertos/lib/third_party/mbedtls/library\pk_wrap.c ****     mbedtls_rsa_free( (mbedtls_rsa_context *) ctx );
 170:D:/Work/DeviceTester/amazon-freertos/lib/third_party/mbedtls/library\pk_wrap.c ****     mbedtls_free( ctx );
 171:D:/Work/DeviceTester/amazon-freertos/lib/third_party/mbedtls/library\pk_wrap.c **** }
 172:D:/Work/DeviceTester/amazon-freertos/lib/third_party/mbedtls/library\pk_wrap.c **** 
 173:D:/Work/DeviceTester/amazon-freertos/lib/third_party/mbedtls/library\pk_wrap.c **** static void rsa_debug( const void *ctx, mbedtls_pk_debug_item *items )
 174:D:/Work/DeviceTester/amazon-freertos/lib/third_party/mbedtls/library\pk_wrap.c **** {
  49              		.loc 1 174 0
  50              		.cfi_startproc
  51              		@ args = 0, pretend = 0, frame = 0
  52              		@ frame_needed = 0, uses_anonymous_args = 0
  53              		@ link register save eliminated.
  54              	.LVL2:
 175:D:/Work/DeviceTester/amazon-freertos/lib/third_party/mbedtls/library\pk_wrap.c ****     items->type = MBEDTLS_PK_DEBUG_MPI;
  55              		.loc 1 175 0
  56 0000 0130A0E3 		mov	r3, #1
 176:D:/Work/DeviceTester/amazon-freertos/lib/third_party/mbedtls/library\pk_wrap.c ****     items->name = "rsa.N";
  57              		.loc 1 176 0
  58 0004 24209FE5 		ldr	r2, .L3
 175:D:/Work/DeviceTester/amazon-freertos/lib/third_party/mbedtls/library\pk_wrap.c ****     items->type = MBEDTLS_PK_DEBUG_MPI;
  59              		.loc 1 175 0
  60 0008 0030C1E5 		strb	r3, [r1]
 177:D:/Work/DeviceTester/amazon-freertos/lib/third_party/mbedtls/library\pk_wrap.c ****     items->value = &( ((mbedtls_rsa_context *) ctx)->N );
 178:D:/Work/DeviceTester/amazon-freertos/lib/third_party/mbedtls/library\pk_wrap.c **** 
 179:D:/Work/DeviceTester/amazon-freertos/lib/third_party/mbedtls/library\pk_wrap.c ****     items++;
 180:D:/Work/DeviceTester/amazon-freertos/lib/third_party/mbedtls/library\pk_wrap.c **** 
 181:D:/Work/DeviceTester/amazon-freertos/lib/third_party/mbedtls/library\pk_wrap.c ****     items->type = MBEDTLS_PK_DEBUG_MPI;
  61              		.loc 1 181 0
  62 000c 0C30C1E5 		strb	r3, [r1, #12]
 182:D:/Work/DeviceTester/amazon-freertos/lib/third_party/mbedtls/library\pk_wrap.c ****     items->name = "rsa.E";
  63              		.loc 1 182 0
  64 0010 1C309FE5 		ldr	r3, .L3+4
 176:D:/Work/DeviceTester/amazon-freertos/lib/third_party/mbedtls/library\pk_wrap.c ****     items->name = "rsa.N";
  65              		.loc 1 176 0
  66 0014 042081E5 		str	r2, [r1, #4]
 177:D:/Work/DeviceTester/amazon-freertos/lib/third_party/mbedtls/library\pk_wrap.c ****     items->value = &( ((mbedtls_rsa_context *) ctx)->N );
  67              		.loc 1 177 0
  68 0018 082080E2 		add	r2, r0, #8
 183:D:/Work/DeviceTester/amazon-freertos/lib/third_party/mbedtls/library\pk_wrap.c ****     items->value = &( ((mbedtls_rsa_context *) ctx)->E );
  69              		.loc 1 183 0
  70 001c 140080E2 		add	r0, r0, #20
  71              	.LVL3:
 177:D:/Work/DeviceTester/amazon-freertos/lib/third_party/mbedtls/library\pk_wrap.c ****     items->value = &( ((mbedtls_rsa_context *) ctx)->N );
  72              		.loc 1 177 0
  73 0020 082081E5 		str	r2, [r1, #8]
  74              	.LVL4:
 182:D:/Work/DeviceTester/amazon-freertos/lib/third_party/mbedtls/library\pk_wrap.c ****     items->name = "rsa.E";
  75              		.loc 1 182 0
  76 0024 103081E5 		str	r3, [r1, #16]
  77              		.loc 1 183 0
  78 0028 140081E5 		str	r0, [r1, #20]
  79 002c 1EFF2FE1 		bx	lr
  80              	.L4:
  81              		.align	2
  82              	.L3:
  83 0030 00000000 		.word	.LC0
  84 0034 06000000 		.word	.LC1
  85              		.cfi_endproc
  86              	.LFE13:
  88              		.section	.text.eckey_can_do,"ax",%progbits
  89              		.align	2
  90              		.syntax unified
  91              		.arm
  92              		.fpu neon
  94              	eckey_can_do:
  95              	.LFB14:
 184:D:/Work/DeviceTester/amazon-freertos/lib/third_party/mbedtls/library\pk_wrap.c **** }
 185:D:/Work/DeviceTester/amazon-freertos/lib/third_party/mbedtls/library\pk_wrap.c **** 
 186:D:/Work/DeviceTester/amazon-freertos/lib/third_party/mbedtls/library\pk_wrap.c **** const mbedtls_pk_info_t mbedtls_rsa_info = {
 187:D:/Work/DeviceTester/amazon-freertos/lib/third_party/mbedtls/library\pk_wrap.c ****     MBEDTLS_PK_RSA,
 188:D:/Work/DeviceTester/amazon-freertos/lib/third_party/mbedtls/library\pk_wrap.c ****     "RSA",
 189:D:/Work/DeviceTester/amazon-freertos/lib/third_party/mbedtls/library\pk_wrap.c ****     rsa_get_bitlen,
 190:D:/Work/DeviceTester/amazon-freertos/lib/third_party/mbedtls/library\pk_wrap.c ****     rsa_can_do,
 191:D:/Work/DeviceTester/amazon-freertos/lib/third_party/mbedtls/library\pk_wrap.c ****     rsa_verify_wrap,
 192:D:/Work/DeviceTester/amazon-freertos/lib/third_party/mbedtls/library\pk_wrap.c ****     rsa_sign_wrap,
 193:D:/Work/DeviceTester/amazon-freertos/lib/third_party/mbedtls/library\pk_wrap.c ****     rsa_decrypt_wrap,
 194:D:/Work/DeviceTester/amazon-freertos/lib/third_party/mbedtls/library\pk_wrap.c ****     rsa_encrypt_wrap,
 195:D:/Work/DeviceTester/amazon-freertos/lib/third_party/mbedtls/library\pk_wrap.c ****     rsa_check_pair_wrap,
 196:D:/Work/DeviceTester/amazon-freertos/lib/third_party/mbedtls/library\pk_wrap.c ****     rsa_alloc_wrap,
 197:D:/Work/DeviceTester/amazon-freertos/lib/third_party/mbedtls/library\pk_wrap.c ****     rsa_free_wrap,
 198:D:/Work/DeviceTester/amazon-freertos/lib/third_party/mbedtls/library\pk_wrap.c ****     rsa_debug,
 199:D:/Work/DeviceTester/amazon-freertos/lib/third_party/mbedtls/library\pk_wrap.c **** };
 200:D:/Work/DeviceTester/amazon-freertos/lib/third_party/mbedtls/library\pk_wrap.c **** #endif /* MBEDTLS_RSA_C */
 201:D:/Work/DeviceTester/amazon-freertos/lib/third_party/mbedtls/library\pk_wrap.c **** 
 202:D:/Work/DeviceTester/amazon-freertos/lib/third_party/mbedtls/library\pk_wrap.c **** #if defined(MBEDTLS_ECP_C)
 203:D:/Work/DeviceTester/amazon-freertos/lib/third_party/mbedtls/library\pk_wrap.c **** /*
 204:D:/Work/DeviceTester/amazon-freertos/lib/third_party/mbedtls/library\pk_wrap.c ****  * Generic EC key
 205:D:/Work/DeviceTester/amazon-freertos/lib/third_party/mbedtls/library\pk_wrap.c ****  */
 206:D:/Work/DeviceTester/amazon-freertos/lib/third_party/mbedtls/library\pk_wrap.c **** static int eckey_can_do( mbedtls_pk_type_t type )
 207:D:/Work/DeviceTester/amazon-freertos/lib/third_party/mbedtls/library\pk_wrap.c **** {
  96              		.loc 1 207 0
  97              		.cfi_startproc
  98              		@ args = 0, pretend = 0, frame = 0
  99              		@ frame_needed = 0, uses_anonymous_args = 0
 100              		@ link register save eliminated.
 101              	.LVL5:
 208:D:/Work/DeviceTester/amazon-freertos/lib/third_party/mbedtls/library\pk_wrap.c ****     return( type == MBEDTLS_PK_ECKEY ||
 209:D:/Work/DeviceTester/amazon-freertos/lib/third_party/mbedtls/library\pk_wrap.c ****             type == MBEDTLS_PK_ECKEY_DH ||
 102              		.loc 1 209 0
 103 0000 020040E2 		sub	r0, r0, #2
 104              	.LVL6:
 210:D:/Work/DeviceTester/amazon-freertos/lib/third_party/mbedtls/library\pk_wrap.c ****             type == MBEDTLS_PK_ECDSA );
 211:D:/Work/DeviceTester/amazon-freertos/lib/third_party/mbedtls/library\pk_wrap.c **** }
 105              		.loc 1 211 0
 106 0004 020050E3 		cmp	r0, #2
 107 0008 0000A083 		movhi	r0, #0
 108 000c 0100A093 		movls	r0, #1
 109 0010 1EFF2FE1 		bx	lr
 110              		.cfi_endproc
 111              	.LFE14:
 113              		.section	.text.eckey_get_bitlen,"ax",%progbits
 114              		.align	2
 115              		.syntax unified
 116              		.arm
 117              		.fpu neon
 119              	eckey_get_bitlen:
 120              	.LFB15:
 212:D:/Work/DeviceTester/amazon-freertos/lib/third_party/mbedtls/library\pk_wrap.c **** 
 213:D:/Work/DeviceTester/amazon-freertos/lib/third_party/mbedtls/library\pk_wrap.c **** static size_t eckey_get_bitlen( const void *ctx )
 214:D:/Work/DeviceTester/amazon-freertos/lib/third_party/mbedtls/library\pk_wrap.c **** {
 121              		.loc 1 214 0
 122              		.cfi_startproc
 123              		@ args = 0, pretend = 0, frame = 0
 124              		@ frame_needed = 0, uses_anonymous_args = 0
 125              		@ link register save eliminated.
 126              	.LVL7:
 215:D:/Work/DeviceTester/amazon-freertos/lib/third_party/mbedtls/library\pk_wrap.c ****     return( ((mbedtls_ecp_keypair *) ctx)->grp.pbits );
 216:D:/Work/DeviceTester/amazon-freertos/lib/third_party/mbedtls/library\pk_wrap.c **** }
 127              		.loc 1 216 0
 128 0000 580090E5 		ldr	r0, [r0, #88]
 129              	.LVL8:
 130 0004 1EFF2FE1 		bx	lr
 131              		.cfi_endproc
 132              	.LFE15:
 134              		.section	.text.eckey_debug,"ax",%progbits
 135              		.align	2
 136              		.syntax unified
 137              		.arm
 138              		.fpu neon
 140              	eckey_debug:
 141              	.LFB21:
 217:D:/Work/DeviceTester/amazon-freertos/lib/third_party/mbedtls/library\pk_wrap.c **** 
 218:D:/Work/DeviceTester/amazon-freertos/lib/third_party/mbedtls/library\pk_wrap.c **** #if defined(MBEDTLS_ECDSA_C)
 219:D:/Work/DeviceTester/amazon-freertos/lib/third_party/mbedtls/library\pk_wrap.c **** /* Forward declarations */
 220:D:/Work/DeviceTester/amazon-freertos/lib/third_party/mbedtls/library\pk_wrap.c **** static int ecdsa_verify_wrap( void *ctx, mbedtls_md_type_t md_alg,
 221:D:/Work/DeviceTester/amazon-freertos/lib/third_party/mbedtls/library\pk_wrap.c ****                        const unsigned char *hash, size_t hash_len,
 222:D:/Work/DeviceTester/amazon-freertos/lib/third_party/mbedtls/library\pk_wrap.c ****                        const unsigned char *sig, size_t sig_len );
 223:D:/Work/DeviceTester/amazon-freertos/lib/third_party/mbedtls/library\pk_wrap.c **** 
 224:D:/Work/DeviceTester/amazon-freertos/lib/third_party/mbedtls/library\pk_wrap.c **** static int ecdsa_sign_wrap( void *ctx, mbedtls_md_type_t md_alg,
 225:D:/Work/DeviceTester/amazon-freertos/lib/third_party/mbedtls/library\pk_wrap.c ****                    const unsigned char *hash, size_t hash_len,
 226:D:/Work/DeviceTester/amazon-freertos/lib/third_party/mbedtls/library\pk_wrap.c ****                    unsigned char *sig, size_t *sig_len,
 227:D:/Work/DeviceTester/amazon-freertos/lib/third_party/mbedtls/library\pk_wrap.c ****                    int (*f_rng)(void *, unsigned char *, size_t), void *p_rng );
 228:D:/Work/DeviceTester/amazon-freertos/lib/third_party/mbedtls/library\pk_wrap.c **** 
 229:D:/Work/DeviceTester/amazon-freertos/lib/third_party/mbedtls/library\pk_wrap.c **** static int eckey_verify_wrap( void *ctx, mbedtls_md_type_t md_alg,
 230:D:/Work/DeviceTester/amazon-freertos/lib/third_party/mbedtls/library\pk_wrap.c ****                        const unsigned char *hash, size_t hash_len,
 231:D:/Work/DeviceTester/amazon-freertos/lib/third_party/mbedtls/library\pk_wrap.c ****                        const unsigned char *sig, size_t sig_len )
 232:D:/Work/DeviceTester/amazon-freertos/lib/third_party/mbedtls/library\pk_wrap.c **** {
 233:D:/Work/DeviceTester/amazon-freertos/lib/third_party/mbedtls/library\pk_wrap.c ****     int ret;
 234:D:/Work/DeviceTester/amazon-freertos/lib/third_party/mbedtls/library\pk_wrap.c ****     mbedtls_ecdsa_context ecdsa;
 235:D:/Work/DeviceTester/amazon-freertos/lib/third_party/mbedtls/library\pk_wrap.c **** 
 236:D:/Work/DeviceTester/amazon-freertos/lib/third_party/mbedtls/library\pk_wrap.c ****     mbedtls_ecdsa_init( &ecdsa );
 237:D:/Work/DeviceTester/amazon-freertos/lib/third_party/mbedtls/library\pk_wrap.c **** 
 238:D:/Work/DeviceTester/amazon-freertos/lib/third_party/mbedtls/library\pk_wrap.c ****     if( ( ret = mbedtls_ecdsa_from_keypair( &ecdsa, ctx ) ) == 0 )
 239:D:/Work/DeviceTester/amazon-freertos/lib/third_party/mbedtls/library\pk_wrap.c ****         ret = ecdsa_verify_wrap( &ecdsa, md_alg, hash, hash_len, sig, sig_len );
 240:D:/Work/DeviceTester/amazon-freertos/lib/third_party/mbedtls/library\pk_wrap.c **** 
 241:D:/Work/DeviceTester/amazon-freertos/lib/third_party/mbedtls/library\pk_wrap.c ****     mbedtls_ecdsa_free( &ecdsa );
 242:D:/Work/DeviceTester/amazon-freertos/lib/third_party/mbedtls/library\pk_wrap.c **** 
 243:D:/Work/DeviceTester/amazon-freertos/lib/third_party/mbedtls/library\pk_wrap.c ****     return( ret );
 244:D:/Work/DeviceTester/amazon-freertos/lib/third_party/mbedtls/library\pk_wrap.c **** }
 245:D:/Work/DeviceTester/amazon-freertos/lib/third_party/mbedtls/library\pk_wrap.c **** 
 246:D:/Work/DeviceTester/amazon-freertos/lib/third_party/mbedtls/library\pk_wrap.c **** static int eckey_sign_wrap( void *ctx, mbedtls_md_type_t md_alg,
 247:D:/Work/DeviceTester/amazon-freertos/lib/third_party/mbedtls/library\pk_wrap.c ****                    const unsigned char *hash, size_t hash_len,
 248:D:/Work/DeviceTester/amazon-freertos/lib/third_party/mbedtls/library\pk_wrap.c ****                    unsigned char *sig, size_t *sig_len,
 249:D:/Work/DeviceTester/amazon-freertos/lib/third_party/mbedtls/library\pk_wrap.c ****                    int (*f_rng)(void *, unsigned char *, size_t), void *p_rng )
 250:D:/Work/DeviceTester/amazon-freertos/lib/third_party/mbedtls/library\pk_wrap.c **** {
 251:D:/Work/DeviceTester/amazon-freertos/lib/third_party/mbedtls/library\pk_wrap.c ****     int ret;
 252:D:/Work/DeviceTester/amazon-freertos/lib/third_party/mbedtls/library\pk_wrap.c ****     mbedtls_ecdsa_context ecdsa;
 253:D:/Work/DeviceTester/amazon-freertos/lib/third_party/mbedtls/library\pk_wrap.c **** 
 254:D:/Work/DeviceTester/amazon-freertos/lib/third_party/mbedtls/library\pk_wrap.c ****     mbedtls_ecdsa_init( &ecdsa );
 255:D:/Work/DeviceTester/amazon-freertos/lib/third_party/mbedtls/library\pk_wrap.c **** 
 256:D:/Work/DeviceTester/amazon-freertos/lib/third_party/mbedtls/library\pk_wrap.c ****     if( ( ret = mbedtls_ecdsa_from_keypair( &ecdsa, ctx ) ) == 0 )
 257:D:/Work/DeviceTester/amazon-freertos/lib/third_party/mbedtls/library\pk_wrap.c ****         ret = ecdsa_sign_wrap( &ecdsa, md_alg, hash, hash_len, sig, sig_len,
 258:D:/Work/DeviceTester/amazon-freertos/lib/third_party/mbedtls/library\pk_wrap.c ****                                f_rng, p_rng );
 259:D:/Work/DeviceTester/amazon-freertos/lib/third_party/mbedtls/library\pk_wrap.c **** 
 260:D:/Work/DeviceTester/amazon-freertos/lib/third_party/mbedtls/library\pk_wrap.c ****     mbedtls_ecdsa_free( &ecdsa );
 261:D:/Work/DeviceTester/amazon-freertos/lib/third_party/mbedtls/library\pk_wrap.c **** 
 262:D:/Work/DeviceTester/amazon-freertos/lib/third_party/mbedtls/library\pk_wrap.c ****     return( ret );
 263:D:/Work/DeviceTester/amazon-freertos/lib/third_party/mbedtls/library\pk_wrap.c **** }
 264:D:/Work/DeviceTester/amazon-freertos/lib/third_party/mbedtls/library\pk_wrap.c **** 
 265:D:/Work/DeviceTester/amazon-freertos/lib/third_party/mbedtls/library\pk_wrap.c **** #endif /* MBEDTLS_ECDSA_C */
 266:D:/Work/DeviceTester/amazon-freertos/lib/third_party/mbedtls/library\pk_wrap.c **** 
 267:D:/Work/DeviceTester/amazon-freertos/lib/third_party/mbedtls/library\pk_wrap.c **** static int eckey_check_pair( const void *pub, const void *prv )
 268:D:/Work/DeviceTester/amazon-freertos/lib/third_party/mbedtls/library\pk_wrap.c **** {
 269:D:/Work/DeviceTester/amazon-freertos/lib/third_party/mbedtls/library\pk_wrap.c ****     return( mbedtls_ecp_check_pub_priv( (const mbedtls_ecp_keypair *) pub,
 270:D:/Work/DeviceTester/amazon-freertos/lib/third_party/mbedtls/library\pk_wrap.c ****                                 (const mbedtls_ecp_keypair *) prv ) );
 271:D:/Work/DeviceTester/amazon-freertos/lib/third_party/mbedtls/library\pk_wrap.c **** }
 272:D:/Work/DeviceTester/amazon-freertos/lib/third_party/mbedtls/library\pk_wrap.c **** 
 273:D:/Work/DeviceTester/amazon-freertos/lib/third_party/mbedtls/library\pk_wrap.c **** static void *eckey_alloc_wrap( void )
 274:D:/Work/DeviceTester/amazon-freertos/lib/third_party/mbedtls/library\pk_wrap.c **** {
 275:D:/Work/DeviceTester/amazon-freertos/lib/third_party/mbedtls/library\pk_wrap.c ****     void *ctx = mbedtls_calloc( 1, sizeof( mbedtls_ecp_keypair ) );
 276:D:/Work/DeviceTester/amazon-freertos/lib/third_party/mbedtls/library\pk_wrap.c **** 
 277:D:/Work/DeviceTester/amazon-freertos/lib/third_party/mbedtls/library\pk_wrap.c ****     if( ctx != NULL )
 278:D:/Work/DeviceTester/amazon-freertos/lib/third_party/mbedtls/library\pk_wrap.c ****         mbedtls_ecp_keypair_init( ctx );
 279:D:/Work/DeviceTester/amazon-freertos/lib/third_party/mbedtls/library\pk_wrap.c **** 
 280:D:/Work/DeviceTester/amazon-freertos/lib/third_party/mbedtls/library\pk_wrap.c ****     return( ctx );
 281:D:/Work/DeviceTester/amazon-freertos/lib/third_party/mbedtls/library\pk_wrap.c **** }
 282:D:/Work/DeviceTester/amazon-freertos/lib/third_party/mbedtls/library\pk_wrap.c **** 
 283:D:/Work/DeviceTester/amazon-freertos/lib/third_party/mbedtls/library\pk_wrap.c **** static void eckey_free_wrap( void *ctx )
 284:D:/Work/DeviceTester/amazon-freertos/lib/third_party/mbedtls/library\pk_wrap.c **** {
 285:D:/Work/DeviceTester/amazon-freertos/lib/third_party/mbedtls/library\pk_wrap.c ****     mbedtls_ecp_keypair_free( (mbedtls_ecp_keypair *) ctx );
 286:D:/Work/DeviceTester/amazon-freertos/lib/third_party/mbedtls/library\pk_wrap.c ****     mbedtls_free( ctx );
 287:D:/Work/DeviceTester/amazon-freertos/lib/third_party/mbedtls/library\pk_wrap.c **** }
 288:D:/Work/DeviceTester/amazon-freertos/lib/third_party/mbedtls/library\pk_wrap.c **** 
 289:D:/Work/DeviceTester/amazon-freertos/lib/third_party/mbedtls/library\pk_wrap.c **** static void eckey_debug( const void *ctx, mbedtls_pk_debug_item *items )
 290:D:/Work/DeviceTester/amazon-freertos/lib/third_party/mbedtls/library\pk_wrap.c **** {
 142              		.loc 1 290 0
 143              		.cfi_startproc
 144              		@ args = 0, pretend = 0, frame = 0
 145              		@ frame_needed = 0, uses_anonymous_args = 0
 146              		@ link register save eliminated.
 147              	.LVL9:
 291:D:/Work/DeviceTester/amazon-freertos/lib/third_party/mbedtls/library\pk_wrap.c ****     items->type = MBEDTLS_PK_DEBUG_ECP;
 148              		.loc 1 291 0
 149 0000 0230A0E3 		mov	r3, #2
 292:D:/Work/DeviceTester/amazon-freertos/lib/third_party/mbedtls/library\pk_wrap.c ****     items->name = "eckey.Q";
 293:D:/Work/DeviceTester/amazon-freertos/lib/third_party/mbedtls/library\pk_wrap.c ****     items->value = &( ((mbedtls_ecp_keypair *) ctx)->Q );
 150              		.loc 1 293 0
 151 0004 880080E2 		add	r0, r0, #136
 152              	.LVL10:
 291:D:/Work/DeviceTester/amazon-freertos/lib/third_party/mbedtls/library\pk_wrap.c ****     items->type = MBEDTLS_PK_DEBUG_ECP;
 153              		.loc 1 291 0
 154 0008 0030C1E5 		strb	r3, [r1]
 292:D:/Work/DeviceTester/amazon-freertos/lib/third_party/mbedtls/library\pk_wrap.c ****     items->name = "eckey.Q";
 155              		.loc 1 292 0
 156 000c 08309FE5 		ldr	r3, .L8
 157              		.loc 1 293 0
 158 0010 080081E5 		str	r0, [r1, #8]
 292:D:/Work/DeviceTester/amazon-freertos/lib/third_party/mbedtls/library\pk_wrap.c ****     items->name = "eckey.Q";
 159              		.loc 1 292 0
 160 0014 043081E5 		str	r3, [r1, #4]
 161              		.loc 1 293 0
 162 0018 1EFF2FE1 		bx	lr
 163              	.L9:
 164              		.align	2
 165              	.L8:
 166 001c 00000000 		.word	.LC2
 167              		.cfi_endproc
 168              	.LFE21:
 170              		.section	.text.eckeydh_can_do,"ax",%progbits
 171              		.align	2
 172              		.syntax unified
 173              		.arm
 174              		.fpu neon
 176              	eckeydh_can_do:
 177              	.LFB22:
 294:D:/Work/DeviceTester/amazon-freertos/lib/third_party/mbedtls/library\pk_wrap.c **** }
 295:D:/Work/DeviceTester/amazon-freertos/lib/third_party/mbedtls/library\pk_wrap.c **** 
 296:D:/Work/DeviceTester/amazon-freertos/lib/third_party/mbedtls/library\pk_wrap.c **** const mbedtls_pk_info_t mbedtls_eckey_info = {
 297:D:/Work/DeviceTester/amazon-freertos/lib/third_party/mbedtls/library\pk_wrap.c ****     MBEDTLS_PK_ECKEY,
 298:D:/Work/DeviceTester/amazon-freertos/lib/third_party/mbedtls/library\pk_wrap.c ****     "EC",
 299:D:/Work/DeviceTester/amazon-freertos/lib/third_party/mbedtls/library\pk_wrap.c ****     eckey_get_bitlen,
 300:D:/Work/DeviceTester/amazon-freertos/lib/third_party/mbedtls/library\pk_wrap.c ****     eckey_can_do,
 301:D:/Work/DeviceTester/amazon-freertos/lib/third_party/mbedtls/library\pk_wrap.c **** #if defined(MBEDTLS_ECDSA_C)
 302:D:/Work/DeviceTester/amazon-freertos/lib/third_party/mbedtls/library\pk_wrap.c ****     eckey_verify_wrap,
 303:D:/Work/DeviceTester/amazon-freertos/lib/third_party/mbedtls/library\pk_wrap.c ****     eckey_sign_wrap,
 304:D:/Work/DeviceTester/amazon-freertos/lib/third_party/mbedtls/library\pk_wrap.c **** #else
 305:D:/Work/DeviceTester/amazon-freertos/lib/third_party/mbedtls/library\pk_wrap.c ****     NULL,
 306:D:/Work/DeviceTester/amazon-freertos/lib/third_party/mbedtls/library\pk_wrap.c ****     NULL,
 307:D:/Work/DeviceTester/amazon-freertos/lib/third_party/mbedtls/library\pk_wrap.c **** #endif
 308:D:/Work/DeviceTester/amazon-freertos/lib/third_party/mbedtls/library\pk_wrap.c ****     NULL,
 309:D:/Work/DeviceTester/amazon-freertos/lib/third_party/mbedtls/library\pk_wrap.c ****     NULL,
 310:D:/Work/DeviceTester/amazon-freertos/lib/third_party/mbedtls/library\pk_wrap.c ****     eckey_check_pair,
 311:D:/Work/DeviceTester/amazon-freertos/lib/third_party/mbedtls/library\pk_wrap.c ****     eckey_alloc_wrap,
 312:D:/Work/DeviceTester/amazon-freertos/lib/third_party/mbedtls/library\pk_wrap.c ****     eckey_free_wrap,
 313:D:/Work/DeviceTester/amazon-freertos/lib/third_party/mbedtls/library\pk_wrap.c ****     eckey_debug,
 314:D:/Work/DeviceTester/amazon-freertos/lib/third_party/mbedtls/library\pk_wrap.c **** };
 315:D:/Work/DeviceTester/amazon-freertos/lib/third_party/mbedtls/library\pk_wrap.c **** 
 316:D:/Work/DeviceTester/amazon-freertos/lib/third_party/mbedtls/library\pk_wrap.c **** /*
 317:D:/Work/DeviceTester/amazon-freertos/lib/third_party/mbedtls/library\pk_wrap.c ****  * EC key restricted to ECDH
 318:D:/Work/DeviceTester/amazon-freertos/lib/third_party/mbedtls/library\pk_wrap.c ****  */
 319:D:/Work/DeviceTester/amazon-freertos/lib/third_party/mbedtls/library\pk_wrap.c **** static int eckeydh_can_do( mbedtls_pk_type_t type )
 320:D:/Work/DeviceTester/amazon-freertos/lib/third_party/mbedtls/library\pk_wrap.c **** {
 178              		.loc 1 320 0
 179              		.cfi_startproc
 180              		@ args = 0, pretend = 0, frame = 0
 181              		@ frame_needed = 0, uses_anonymous_args = 0
 182              		@ link register save eliminated.
 183              	.LVL11:
 321:D:/Work/DeviceTester/amazon-freertos/lib/third_party/mbedtls/library\pk_wrap.c ****     return( type == MBEDTLS_PK_ECKEY ||
 184              		.loc 1 321 0
 185 0000 020040E2 		sub	r0, r0, #2
 186              	.LVL12:
 322:D:/Work/DeviceTester/amazon-freertos/lib/third_party/mbedtls/library\pk_wrap.c ****             type == MBEDTLS_PK_ECKEY_DH );
 323:D:/Work/DeviceTester/amazon-freertos/lib/third_party/mbedtls/library\pk_wrap.c **** }
 187              		.loc 1 323 0
 188 0004 010050E3 		cmp	r0, #1
 189 0008 0000A083 		movhi	r0, #0
 190 000c 0100A093 		movls	r0, #1
 191 0010 1EFF2FE1 		bx	lr
 192              		.cfi_endproc
 193              	.LFE22:
 195              		.section	.text.ecdsa_can_do,"ax",%progbits
 196              		.align	2
 197              		.syntax unified
 198              		.arm
 199              		.fpu neon
 201              	ecdsa_can_do:
 202              	.LFB23:
 324:D:/Work/DeviceTester/amazon-freertos/lib/third_party/mbedtls/library\pk_wrap.c **** 
 325:D:/Work/DeviceTester/amazon-freertos/lib/third_party/mbedtls/library\pk_wrap.c **** const mbedtls_pk_info_t mbedtls_eckeydh_info = {
 326:D:/Work/DeviceTester/amazon-freertos/lib/third_party/mbedtls/library\pk_wrap.c ****     MBEDTLS_PK_ECKEY_DH,
 327:D:/Work/DeviceTester/amazon-freertos/lib/third_party/mbedtls/library\pk_wrap.c ****     "EC_DH",
 328:D:/Work/DeviceTester/amazon-freertos/lib/third_party/mbedtls/library\pk_wrap.c ****     eckey_get_bitlen,         /* Same underlying key structure */
 329:D:/Work/DeviceTester/amazon-freertos/lib/third_party/mbedtls/library\pk_wrap.c ****     eckeydh_can_do,
 330:D:/Work/DeviceTester/amazon-freertos/lib/third_party/mbedtls/library\pk_wrap.c ****     NULL,
 331:D:/Work/DeviceTester/amazon-freertos/lib/third_party/mbedtls/library\pk_wrap.c ****     NULL,
 332:D:/Work/DeviceTester/amazon-freertos/lib/third_party/mbedtls/library\pk_wrap.c ****     NULL,
 333:D:/Work/DeviceTester/amazon-freertos/lib/third_party/mbedtls/library\pk_wrap.c ****     NULL,
 334:D:/Work/DeviceTester/amazon-freertos/lib/third_party/mbedtls/library\pk_wrap.c ****     eckey_check_pair,
 335:D:/Work/DeviceTester/amazon-freertos/lib/third_party/mbedtls/library\pk_wrap.c ****     eckey_alloc_wrap,       /* Same underlying key structure */
 336:D:/Work/DeviceTester/amazon-freertos/lib/third_party/mbedtls/library\pk_wrap.c ****     eckey_free_wrap,        /* Same underlying key structure */
 337:D:/Work/DeviceTester/amazon-freertos/lib/third_party/mbedtls/library\pk_wrap.c ****     eckey_debug,            /* Same underlying key structure */
 338:D:/Work/DeviceTester/amazon-freertos/lib/third_party/mbedtls/library\pk_wrap.c **** };
 339:D:/Work/DeviceTester/amazon-freertos/lib/third_party/mbedtls/library\pk_wrap.c **** #endif /* MBEDTLS_ECP_C */
 340:D:/Work/DeviceTester/amazon-freertos/lib/third_party/mbedtls/library\pk_wrap.c **** 
 341:D:/Work/DeviceTester/amazon-freertos/lib/third_party/mbedtls/library\pk_wrap.c **** #if defined(MBEDTLS_ECDSA_C)
 342:D:/Work/DeviceTester/amazon-freertos/lib/third_party/mbedtls/library\pk_wrap.c **** static int ecdsa_can_do( mbedtls_pk_type_t type )
 343:D:/Work/DeviceTester/amazon-freertos/lib/third_party/mbedtls/library\pk_wrap.c **** {
 203              		.loc 1 343 0
 204              		.cfi_startproc
 205              		@ args = 0, pretend = 0, frame = 0
 206              		@ frame_needed = 0, uses_anonymous_args = 0
 207              		@ link register save eliminated.
 208              	.LVL13:
 344:D:/Work/DeviceTester/amazon-freertos/lib/third_party/mbedtls/library\pk_wrap.c ****     return( type == MBEDTLS_PK_ECDSA );
 345:D:/Work/DeviceTester/amazon-freertos/lib/third_party/mbedtls/library\pk_wrap.c **** }
 209              		.loc 1 345 0
 210 0000 040040E2 		sub	r0, r0, #4
 211              	.LVL14:
 212 0004 100F6FE1 		clz	r0, r0
 213 0008 A002A0E1 		lsr	r0, r0, #5
 214 000c 1EFF2FE1 		bx	lr
 215              		.cfi_endproc
 216              	.LFE23:
 218              		.section	.text.rsa_alt_can_do,"ax",%progbits
 219              		.align	2
 220              		.syntax unified
 221              		.arm
 222              		.fpu neon
 224              	rsa_alt_can_do:
 225              	.LFB28:
 346:D:/Work/DeviceTester/amazon-freertos/lib/third_party/mbedtls/library\pk_wrap.c **** 
 347:D:/Work/DeviceTester/amazon-freertos/lib/third_party/mbedtls/library\pk_wrap.c **** static int ecdsa_verify_wrap( void *ctx, mbedtls_md_type_t md_alg,
 348:D:/Work/DeviceTester/amazon-freertos/lib/third_party/mbedtls/library\pk_wrap.c ****                        const unsigned char *hash, size_t hash_len,
 349:D:/Work/DeviceTester/amazon-freertos/lib/third_party/mbedtls/library\pk_wrap.c ****                        const unsigned char *sig, size_t sig_len )
 350:D:/Work/DeviceTester/amazon-freertos/lib/third_party/mbedtls/library\pk_wrap.c **** {
 351:D:/Work/DeviceTester/amazon-freertos/lib/third_party/mbedtls/library\pk_wrap.c ****     int ret;
 352:D:/Work/DeviceTester/amazon-freertos/lib/third_party/mbedtls/library\pk_wrap.c ****     ((void) md_alg);
 353:D:/Work/DeviceTester/amazon-freertos/lib/third_party/mbedtls/library\pk_wrap.c **** 
 354:D:/Work/DeviceTester/amazon-freertos/lib/third_party/mbedtls/library\pk_wrap.c ****     ret = mbedtls_ecdsa_read_signature( (mbedtls_ecdsa_context *) ctx,
 355:D:/Work/DeviceTester/amazon-freertos/lib/third_party/mbedtls/library\pk_wrap.c ****                                 hash, hash_len, sig, sig_len );
 356:D:/Work/DeviceTester/amazon-freertos/lib/third_party/mbedtls/library\pk_wrap.c **** 
 357:D:/Work/DeviceTester/amazon-freertos/lib/third_party/mbedtls/library\pk_wrap.c ****     if( ret == MBEDTLS_ERR_ECP_SIG_LEN_MISMATCH )
 358:D:/Work/DeviceTester/amazon-freertos/lib/third_party/mbedtls/library\pk_wrap.c ****         return( MBEDTLS_ERR_PK_SIG_LEN_MISMATCH );
 359:D:/Work/DeviceTester/amazon-freertos/lib/third_party/mbedtls/library\pk_wrap.c **** 
 360:D:/Work/DeviceTester/amazon-freertos/lib/third_party/mbedtls/library\pk_wrap.c ****     return( ret );
 361:D:/Work/DeviceTester/amazon-freertos/lib/third_party/mbedtls/library\pk_wrap.c **** }
 362:D:/Work/DeviceTester/amazon-freertos/lib/third_party/mbedtls/library\pk_wrap.c **** 
 363:D:/Work/DeviceTester/amazon-freertos/lib/third_party/mbedtls/library\pk_wrap.c **** static int ecdsa_sign_wrap( void *ctx, mbedtls_md_type_t md_alg,
 364:D:/Work/DeviceTester/amazon-freertos/lib/third_party/mbedtls/library\pk_wrap.c ****                    const unsigned char *hash, size_t hash_len,
 365:D:/Work/DeviceTester/amazon-freertos/lib/third_party/mbedtls/library\pk_wrap.c ****                    unsigned char *sig, size_t *sig_len,
 366:D:/Work/DeviceTester/amazon-freertos/lib/third_party/mbedtls/library\pk_wrap.c ****                    int (*f_rng)(void *, unsigned char *, size_t), void *p_rng )
 367:D:/Work/DeviceTester/amazon-freertos/lib/third_party/mbedtls/library\pk_wrap.c **** {
 368:D:/Work/DeviceTester/amazon-freertos/lib/third_party/mbedtls/library\pk_wrap.c ****     return( mbedtls_ecdsa_write_signature( (mbedtls_ecdsa_context *) ctx,
 369:D:/Work/DeviceTester/amazon-freertos/lib/third_party/mbedtls/library\pk_wrap.c ****                 md_alg, hash, hash_len, sig, sig_len, f_rng, p_rng ) );
 370:D:/Work/DeviceTester/amazon-freertos/lib/third_party/mbedtls/library\pk_wrap.c **** }
 371:D:/Work/DeviceTester/amazon-freertos/lib/third_party/mbedtls/library\pk_wrap.c **** 
 372:D:/Work/DeviceTester/amazon-freertos/lib/third_party/mbedtls/library\pk_wrap.c **** static void *ecdsa_alloc_wrap( void )
 373:D:/Work/DeviceTester/amazon-freertos/lib/third_party/mbedtls/library\pk_wrap.c **** {
 374:D:/Work/DeviceTester/amazon-freertos/lib/third_party/mbedtls/library\pk_wrap.c ****     void *ctx = mbedtls_calloc( 1, sizeof( mbedtls_ecdsa_context ) );
 375:D:/Work/DeviceTester/amazon-freertos/lib/third_party/mbedtls/library\pk_wrap.c **** 
 376:D:/Work/DeviceTester/amazon-freertos/lib/third_party/mbedtls/library\pk_wrap.c ****     if( ctx != NULL )
 377:D:/Work/DeviceTester/amazon-freertos/lib/third_party/mbedtls/library\pk_wrap.c ****         mbedtls_ecdsa_init( (mbedtls_ecdsa_context *) ctx );
 378:D:/Work/DeviceTester/amazon-freertos/lib/third_party/mbedtls/library\pk_wrap.c **** 
 379:D:/Work/DeviceTester/amazon-freertos/lib/third_party/mbedtls/library\pk_wrap.c ****     return( ctx );
 380:D:/Work/DeviceTester/amazon-freertos/lib/third_party/mbedtls/library\pk_wrap.c **** }
 381:D:/Work/DeviceTester/amazon-freertos/lib/third_party/mbedtls/library\pk_wrap.c **** 
 382:D:/Work/DeviceTester/amazon-freertos/lib/third_party/mbedtls/library\pk_wrap.c **** static void ecdsa_free_wrap( void *ctx )
 383:D:/Work/DeviceTester/amazon-freertos/lib/third_party/mbedtls/library\pk_wrap.c **** {
 384:D:/Work/DeviceTester/amazon-freertos/lib/third_party/mbedtls/library\pk_wrap.c ****     mbedtls_ecdsa_free( (mbedtls_ecdsa_context *) ctx );
 385:D:/Work/DeviceTester/amazon-freertos/lib/third_party/mbedtls/library\pk_wrap.c ****     mbedtls_free( ctx );
 386:D:/Work/DeviceTester/amazon-freertos/lib/third_party/mbedtls/library\pk_wrap.c **** }
 387:D:/Work/DeviceTester/amazon-freertos/lib/third_party/mbedtls/library\pk_wrap.c **** 
 388:D:/Work/DeviceTester/amazon-freertos/lib/third_party/mbedtls/library\pk_wrap.c **** const mbedtls_pk_info_t mbedtls_ecdsa_info = {
 389:D:/Work/DeviceTester/amazon-freertos/lib/third_party/mbedtls/library\pk_wrap.c ****     MBEDTLS_PK_ECDSA,
 390:D:/Work/DeviceTester/amazon-freertos/lib/third_party/mbedtls/library\pk_wrap.c ****     "ECDSA",
 391:D:/Work/DeviceTester/amazon-freertos/lib/third_party/mbedtls/library\pk_wrap.c ****     eckey_get_bitlen,     /* Compatible key structures */
 392:D:/Work/DeviceTester/amazon-freertos/lib/third_party/mbedtls/library\pk_wrap.c ****     ecdsa_can_do,
 393:D:/Work/DeviceTester/amazon-freertos/lib/third_party/mbedtls/library\pk_wrap.c ****     ecdsa_verify_wrap,
 394:D:/Work/DeviceTester/amazon-freertos/lib/third_party/mbedtls/library\pk_wrap.c ****     ecdsa_sign_wrap,
 395:D:/Work/DeviceTester/amazon-freertos/lib/third_party/mbedtls/library\pk_wrap.c ****     NULL,
 396:D:/Work/DeviceTester/amazon-freertos/lib/third_party/mbedtls/library\pk_wrap.c ****     NULL,
 397:D:/Work/DeviceTester/amazon-freertos/lib/third_party/mbedtls/library\pk_wrap.c ****     eckey_check_pair,   /* Compatible key structures */
 398:D:/Work/DeviceTester/amazon-freertos/lib/third_party/mbedtls/library\pk_wrap.c ****     ecdsa_alloc_wrap,
 399:D:/Work/DeviceTester/amazon-freertos/lib/third_party/mbedtls/library\pk_wrap.c ****     ecdsa_free_wrap,
 400:D:/Work/DeviceTester/amazon-freertos/lib/third_party/mbedtls/library\pk_wrap.c ****     eckey_debug,        /* Compatible key structures */
 401:D:/Work/DeviceTester/amazon-freertos/lib/third_party/mbedtls/library\pk_wrap.c **** };
 402:D:/Work/DeviceTester/amazon-freertos/lib/third_party/mbedtls/library\pk_wrap.c **** #endif /* MBEDTLS_ECDSA_C */
 403:D:/Work/DeviceTester/amazon-freertos/lib/third_party/mbedtls/library\pk_wrap.c **** 
 404:D:/Work/DeviceTester/amazon-freertos/lib/third_party/mbedtls/library\pk_wrap.c **** #if defined(MBEDTLS_PK_RSA_ALT_SUPPORT)
 405:D:/Work/DeviceTester/amazon-freertos/lib/third_party/mbedtls/library\pk_wrap.c **** /*
 406:D:/Work/DeviceTester/amazon-freertos/lib/third_party/mbedtls/library\pk_wrap.c ****  * Support for alternative RSA-private implementations
 407:D:/Work/DeviceTester/amazon-freertos/lib/third_party/mbedtls/library\pk_wrap.c ****  */
 408:D:/Work/DeviceTester/amazon-freertos/lib/third_party/mbedtls/library\pk_wrap.c **** 
 409:D:/Work/DeviceTester/amazon-freertos/lib/third_party/mbedtls/library\pk_wrap.c **** static int rsa_alt_can_do( mbedtls_pk_type_t type )
 410:D:/Work/DeviceTester/amazon-freertos/lib/third_party/mbedtls/library\pk_wrap.c **** {
 226              		.loc 1 410 0
 227              		.cfi_startproc
 228              		@ args = 0, pretend = 0, frame = 0
 229              		@ frame_needed = 0, uses_anonymous_args = 0
 230              		@ link register save eliminated.
 231              	.LVL15:
 411:D:/Work/DeviceTester/amazon-freertos/lib/third_party/mbedtls/library\pk_wrap.c ****     return( type == MBEDTLS_PK_RSA );
 412:D:/Work/DeviceTester/amazon-freertos/lib/third_party/mbedtls/library\pk_wrap.c **** }
 232              		.loc 1 412 0
 233 0000 010040E2 		sub	r0, r0, #1
 234              	.LVL16:
 235 0004 100F6FE1 		clz	r0, r0
 236 0008 A002A0E1 		lsr	r0, r0, #5
 237 000c 1EFF2FE1 		bx	lr
 238              		.cfi_endproc
 239              	.LFE28:
 241              		.section	.text.rsa_alt_get_bitlen,"ax",%progbits
 242              		.align	2
 243              		.syntax unified
 244              		.arm
 245              		.fpu neon
 247              	rsa_alt_get_bitlen:
 248              	.LFB29:
 413:D:/Work/DeviceTester/amazon-freertos/lib/third_party/mbedtls/library\pk_wrap.c **** 
 414:D:/Work/DeviceTester/amazon-freertos/lib/third_party/mbedtls/library\pk_wrap.c **** static size_t rsa_alt_get_bitlen( const void *ctx )
 415:D:/Work/DeviceTester/amazon-freertos/lib/third_party/mbedtls/library\pk_wrap.c **** {
 249              		.loc 1 415 0
 250              		.cfi_startproc
 251              		@ args = 0, pretend = 0, frame = 0
 252              		@ frame_needed = 0, uses_anonymous_args = 0
 253              	.LVL17:
 416:D:/Work/DeviceTester/amazon-freertos/lib/third_party/mbedtls/library\pk_wrap.c ****     const mbedtls_rsa_alt_context *rsa_alt = (const mbedtls_rsa_alt_context *) ctx;
 417:D:/Work/DeviceTester/amazon-freertos/lib/third_party/mbedtls/library\pk_wrap.c **** 
 418:D:/Work/DeviceTester/amazon-freertos/lib/third_party/mbedtls/library\pk_wrap.c ****     return( 8 * rsa_alt->key_len_func( rsa_alt->key ) );
 254              		.loc 1 418 0
 255 0000 0C3090E5 		ldr	r3, [r0, #12]
 415:D:/Work/DeviceTester/amazon-freertos/lib/third_party/mbedtls/library\pk_wrap.c ****     const mbedtls_rsa_alt_context *rsa_alt = (const mbedtls_rsa_alt_context *) ctx;
 256              		.loc 1 415 0
 257 0004 10402DE9 		push	{r4, lr}
 258              		.cfi_def_cfa_offset 8
 259              		.cfi_offset 4, -8
 260              		.cfi_offset 14, -4
 261              		.loc 1 418 0
 262 0008 000090E5 		ldr	r0, [r0]
 263              	.LVL18:
 264 000c 33FF2FE1 		blx	r3
 265              	.LVL19:
 419:D:/Work/DeviceTester/amazon-freertos/lib/third_party/mbedtls/library\pk_wrap.c **** }
 266              		.loc 1 419 0
 267 0010 8001A0E1 		lsl	r0, r0, #3
 268 0014 1080BDE8 		pop	{r4, pc}
 269              		.cfi_endproc
 270              	.LFE29:
 272              		.section	.text.rsa_alt_sign_wrap,"ax",%progbits
 273              		.align	2
 274              		.syntax unified
 275              		.arm
 276              		.fpu neon
 278              	rsa_alt_sign_wrap:
 279              	.LFB30:
 420:D:/Work/DeviceTester/amazon-freertos/lib/third_party/mbedtls/library\pk_wrap.c **** 
 421:D:/Work/DeviceTester/amazon-freertos/lib/third_party/mbedtls/library\pk_wrap.c **** static int rsa_alt_sign_wrap( void *ctx, mbedtls_md_type_t md_alg,
 422:D:/Work/DeviceTester/amazon-freertos/lib/third_party/mbedtls/library\pk_wrap.c ****                    const unsigned char *hash, size_t hash_len,
 423:D:/Work/DeviceTester/amazon-freertos/lib/third_party/mbedtls/library\pk_wrap.c ****                    unsigned char *sig, size_t *sig_len,
 424:D:/Work/DeviceTester/amazon-freertos/lib/third_party/mbedtls/library\pk_wrap.c ****                    int (*f_rng)(void *, unsigned char *, size_t), void *p_rng )
 425:D:/Work/DeviceTester/amazon-freertos/lib/third_party/mbedtls/library\pk_wrap.c **** {
 280              		.loc 1 425 0
 281              		.cfi_startproc
 282              		@ args = 16, pretend = 0, frame = 0
 283              		@ frame_needed = 0, uses_anonymous_args = 0
 284              	.LVL20:
 285 0000 F14F2DE9 		push	{r0, r4, r5, r6, r7, r8, r9, r10, fp, lr}
 286              		.cfi_def_cfa_offset 40
 287              		.cfi_offset 4, -36
 288              		.cfi_offset 5, -32
 289              		.cfi_offset 6, -28
 290              		.cfi_offset 7, -24
 291              		.cfi_offset 8, -20
 292              		.cfi_offset 9, -16
 293              		.cfi_offset 10, -12
 294              		.cfi_offset 11, -8
 295              		.cfi_offset 14, -4
 296              		.loc 1 425 0
 297 0004 0040A0E1 		mov	r4, r0
 298 0008 0380A0E1 		mov	r8, r3
 426:D:/Work/DeviceTester/amazon-freertos/lib/third_party/mbedtls/library\pk_wrap.c ****     mbedtls_rsa_alt_context *rsa_alt = (mbedtls_rsa_alt_context *) ctx;
 427:D:/Work/DeviceTester/amazon-freertos/lib/third_party/mbedtls/library\pk_wrap.c **** 
 428:D:/Work/DeviceTester/amazon-freertos/lib/third_party/mbedtls/library\pk_wrap.c **** #if SIZE_MAX > UINT_MAX
 429:D:/Work/DeviceTester/amazon-freertos/lib/third_party/mbedtls/library\pk_wrap.c ****     if( UINT_MAX < hash_len )
 430:D:/Work/DeviceTester/amazon-freertos/lib/third_party/mbedtls/library\pk_wrap.c ****         return( MBEDTLS_ERR_PK_BAD_INPUT_DATA );
 431:D:/Work/DeviceTester/amazon-freertos/lib/third_party/mbedtls/library\pk_wrap.c **** #endif /* SIZE_MAX > UINT_MAX */
 432:D:/Work/DeviceTester/amazon-freertos/lib/third_party/mbedtls/library\pk_wrap.c **** 
 433:D:/Work/DeviceTester/amazon-freertos/lib/third_party/mbedtls/library\pk_wrap.c ****     *sig_len = rsa_alt->key_len_func( rsa_alt->key );
 299              		.loc 1 433 0
 300 000c 0C3090E5 		ldr	r3, [r0, #12]
 301              	.LVL21:
 425:D:/Work/DeviceTester/amazon-freertos/lib/third_party/mbedtls/library\pk_wrap.c ****     mbedtls_rsa_alt_context *rsa_alt = (mbedtls_rsa_alt_context *) ctx;
 302              		.loc 1 425 0
 303 0010 0170A0E1 		mov	r7, r1
 304 0014 0290A0E1 		mov	r9, r2
 305              		.loc 1 433 0
 306 0018 000090E5 		ldr	r0, [r0]
 307              	.LVL22:
 425:D:/Work/DeviceTester/amazon-freertos/lib/third_party/mbedtls/library\pk_wrap.c ****     mbedtls_rsa_alt_context *rsa_alt = (mbedtls_rsa_alt_context *) ctx;
 308              		.loc 1 425 0
 309 001c 28A09DE5 		ldr	r10, [sp, #40]
 310 0020 2CB09DE5 		ldr	fp, [sp, #44]
 311 0024 30509DE5 		ldr	r5, [sp, #48]
 312 0028 34609DE5 		ldr	r6, [sp, #52]
 313              		.loc 1 433 0
 314 002c 33FF2FE1 		blx	r3
 315              	.LVL23:
 434:D:/Work/DeviceTester/amazon-freertos/lib/third_party/mbedtls/library\pk_wrap.c **** 
 435:D:/Work/DeviceTester/amazon-freertos/lib/third_party/mbedtls/library\pk_wrap.c ****     return( rsa_alt->sign_func( rsa_alt->key, f_rng, p_rng, MBEDTLS_RSA_PRIVATE,
 316              		.loc 1 435 0
 317 0030 08E094E5 		ldr	lr, [r4, #8]
 318 0034 0130A0E3 		mov	r3, #1
 433:D:/Work/DeviceTester/amazon-freertos/lib/third_party/mbedtls/library\pk_wrap.c **** 
 319              		.loc 1 433 0
 320 0038 00008BE5 		str	r0, [fp]
 321              		.loc 1 435 0
 322 003c 0620A0E1 		mov	r2, r6
 323 0040 34A08DE5 		str	r10, [sp, #52]
 324              	.LVL24:
 325 0044 0510A0E1 		mov	r1, r5
 326 0048 30908DE5 		str	r9, [sp, #48]
 327              	.LVL25:
 328 004c 0EC0A0E1 		mov	ip, lr
 329 0050 2C808DE5 		str	r8, [sp, #44]
 330 0054 28708DE5 		str	r7, [sp, #40]
 331 0058 000094E5 		ldr	r0, [r4]
 436:D:/Work/DeviceTester/amazon-freertos/lib/third_party/mbedtls/library\pk_wrap.c ****                 md_alg, (unsigned int) hash_len, hash, sig ) );
 437:D:/Work/DeviceTester/amazon-freertos/lib/third_party/mbedtls/library\pk_wrap.c **** }
 332              		.loc 1 437 0
 333 005c 04D08DE2 		add	sp, sp, #4
 334              		.cfi_def_cfa_offset 36
 335              		@ sp needed
 336 0060 F04FBDE8 		pop	{r4, r5, r6, r7, r8, r9, r10, fp, lr}
 337              		.cfi_restore 14
 338              		.cfi_restore 11
 339              		.cfi_restore 10
 340              		.cfi_restore 9
 341              		.cfi_restore 8
 342              		.cfi_restore 7
 343              		.cfi_restore 6
 344              		.cfi_restore 5
 345              		.cfi_restore 4
 346              		.cfi_def_cfa_offset 0
 347              	.LVL26:
 435:D:/Work/DeviceTester/amazon-freertos/lib/third_party/mbedtls/library\pk_wrap.c ****                 md_alg, (unsigned int) hash_len, hash, sig ) );
 348              		.loc 1 435 0
 349 0064 1CFF2FE1 		bx	ip
 350              	.LVL27:
 351              		.cfi_endproc
 352              	.LFE30:
 354              		.section	.text.rsa_alt_decrypt_wrap,"ax",%progbits
 355              		.align	2
 356              		.syntax unified
 357              		.arm
 358              		.fpu neon
 360              	rsa_alt_decrypt_wrap:
 361              	.LFB31:
 438:D:/Work/DeviceTester/amazon-freertos/lib/third_party/mbedtls/library\pk_wrap.c **** 
 439:D:/Work/DeviceTester/amazon-freertos/lib/third_party/mbedtls/library\pk_wrap.c **** static int rsa_alt_decrypt_wrap( void *ctx,
 440:D:/Work/DeviceTester/amazon-freertos/lib/third_party/mbedtls/library\pk_wrap.c ****                     const unsigned char *input, size_t ilen,
 441:D:/Work/DeviceTester/amazon-freertos/lib/third_party/mbedtls/library\pk_wrap.c ****                     unsigned char *output, size_t *olen, size_t osize,
 442:D:/Work/DeviceTester/amazon-freertos/lib/third_party/mbedtls/library\pk_wrap.c ****                     int (*f_rng)(void *, unsigned char *, size_t), void *p_rng )
 443:D:/Work/DeviceTester/amazon-freertos/lib/third_party/mbedtls/library\pk_wrap.c **** {
 362              		.loc 1 443 0
 363              		.cfi_startproc
 364              		@ args = 16, pretend = 0, frame = 0
 365              		@ frame_needed = 0, uses_anonymous_args = 0
 366              	.LVL28:
 367 0000 F0472DE9 		push	{r4, r5, r6, r7, r8, r9, r10, lr}
 368              		.cfi_def_cfa_offset 32
 369              		.cfi_offset 4, -32
 370              		.cfi_offset 5, -28
 371              		.cfi_offset 6, -24
 372              		.cfi_offset 7, -20
 373              		.cfi_offset 8, -16
 374              		.cfi_offset 9, -12
 375              		.cfi_offset 10, -8
 376              		.cfi_offset 14, -4
 377              		.loc 1 443 0
 378 0004 0290A0E1 		mov	r9, r2
 379 0008 0040A0E1 		mov	r4, r0
 380 000c 0370A0E1 		mov	r7, r3
 381 0010 0160A0E1 		mov	r6, r1
 444:D:/Work/DeviceTester/amazon-freertos/lib/third_party/mbedtls/library\pk_wrap.c ****     mbedtls_rsa_alt_context *rsa_alt = (mbedtls_rsa_alt_context *) ctx;
 445:D:/Work/DeviceTester/amazon-freertos/lib/third_party/mbedtls/library\pk_wrap.c **** 
 446:D:/Work/DeviceTester/amazon-freertos/lib/third_party/mbedtls/library\pk_wrap.c ****     ((void) f_rng);
 447:D:/Work/DeviceTester/amazon-freertos/lib/third_party/mbedtls/library\pk_wrap.c ****     ((void) p_rng);
 448:D:/Work/DeviceTester/amazon-freertos/lib/third_party/mbedtls/library\pk_wrap.c **** 
 449:D:/Work/DeviceTester/amazon-freertos/lib/third_party/mbedtls/library\pk_wrap.c ****     if( ilen != rsa_alt->key_len_func( rsa_alt->key ) )
 382              		.loc 1 449 0
 383 0014 0C3090E5 		ldr	r3, [r0, #12]
 384              	.LVL29:
 385 0018 000090E5 		ldr	r0, [r0]
 386              	.LVL30:
 443:D:/Work/DeviceTester/amazon-freertos/lib/third_party/mbedtls/library\pk_wrap.c ****     mbedtls_rsa_alt_context *rsa_alt = (mbedtls_rsa_alt_context *) ctx;
 387              		.loc 1 443 0
 388 001c 20509DE5 		ldr	r5, [sp, #32]
 389 0020 24809DE5 		ldr	r8, [sp, #36]
 390              		.loc 1 449 0
 391 0024 33FF2FE1 		blx	r3
 392              	.LVL31:
 393 0028 090050E1 		cmp	r0, r9
 394 002c 0900001A 		bne	.L18
 450:D:/Work/DeviceTester/amazon-freertos/lib/third_party/mbedtls/library\pk_wrap.c ****         return( MBEDTLS_ERR_RSA_BAD_INPUT_DATA );
 451:D:/Work/DeviceTester/amazon-freertos/lib/third_party/mbedtls/library\pk_wrap.c **** 
 452:D:/Work/DeviceTester/amazon-freertos/lib/third_party/mbedtls/library\pk_wrap.c ****     return( rsa_alt->decrypt_func( rsa_alt->key,
 395              		.loc 1 452 0
 396 0030 04E094E5 		ldr	lr, [r4, #4]
 397 0034 0630A0E1 		mov	r3, r6
 398 0038 24808DE5 		str	r8, [sp, #36]
 399 003c 0520A0E1 		mov	r2, r5
 400 0040 20708DE5 		str	r7, [sp, #32]
 401 0044 0110A0E3 		mov	r1, #1
 402 0048 000094E5 		ldr	r0, [r4]
 403 004c 0EC0A0E1 		mov	ip, lr
 453:D:/Work/DeviceTester/amazon-freertos/lib/third_party/mbedtls/library\pk_wrap.c ****                 MBEDTLS_RSA_PRIVATE, olen, input, output, osize ) );
 454:D:/Work/DeviceTester/amazon-freertos/lib/third_party/mbedtls/library\pk_wrap.c **** }
 404              		.loc 1 454 0
 405 0050 F047BDE8 		pop	{r4, r5, r6, r7, r8, r9, r10, lr}
 406              		.cfi_remember_state
 407              		.cfi_restore 14
 408              		.cfi_restore 10
 409              		.cfi_restore 9
 410              		.cfi_restore 8
 411              		.cfi_restore 7
 412              		.cfi_restore 6
 413              		.cfi_restore 5
 414              		.cfi_restore 4
 415              		.cfi_def_cfa_offset 0
 416              	.LVL32:
 452:D:/Work/DeviceTester/amazon-freertos/lib/third_party/mbedtls/library\pk_wrap.c ****                 MBEDTLS_RSA_PRIVATE, olen, input, output, osize ) );
 417              		.loc 1 452 0
 418 0054 1CFF2FE1 		bx	ip
 419              	.LVL33:
 420              	.L18:
 421              		.cfi_restore_state
 422              		.loc 1 454 0
 423 0058 00009FE5 		ldr	r0, .L20
 424 005c F087BDE8 		pop	{r4, r5, r6, r7, r8, r9, r10, pc}
 425              	.L21:
 426              		.align	2
 427              	.L20:
 428 0060 80BFFFFF 		.word	-16512
 429              		.cfi_endproc
 430              	.LFE31:
 432              		.section	.text.rsa_free_wrap,"ax",%progbits
 433              		.align	2
 434              		.syntax unified
 435              		.arm
 436              		.fpu neon
 438              	rsa_free_wrap:
 439              	.LFB12:
 168:D:/Work/DeviceTester/amazon-freertos/lib/third_party/mbedtls/library\pk_wrap.c ****     mbedtls_rsa_free( (mbedtls_rsa_context *) ctx );
 440              		.loc 1 168 0
 441              		.cfi_startproc
 442              		@ args = 0, pretend = 0, frame = 0
 443              		@ frame_needed = 0, uses_anonymous_args = 0
 444              	.LVL34:
 445 0000 10402DE9 		push	{r4, lr}
 446              		.cfi_def_cfa_offset 8
 447              		.cfi_offset 4, -8
 448              		.cfi_offset 14, -4
 168:D:/Work/DeviceTester/amazon-freertos/lib/third_party/mbedtls/library\pk_wrap.c ****     mbedtls_rsa_free( (mbedtls_rsa_context *) ctx );
 449              		.loc 1 168 0
 450 0004 0040A0E1 		mov	r4, r0
 169:D:/Work/DeviceTester/amazon-freertos/lib/third_party/mbedtls/library\pk_wrap.c ****     mbedtls_free( ctx );
 451              		.loc 1 169 0
 452 0008 FEFFFFEB 		bl	mbedtls_rsa_free
 453              	.LVL35:
 170:D:/Work/DeviceTester/amazon-freertos/lib/third_party/mbedtls/library\pk_wrap.c **** }
 454              		.loc 1 170 0
 455 000c 0400A0E1 		mov	r0, r4
 171:D:/Work/DeviceTester/amazon-freertos/lib/third_party/mbedtls/library\pk_wrap.c **** 
 456              		.loc 1 171 0
 457 0010 1040BDE8 		pop	{r4, lr}
 458              		.cfi_restore 14
 459              		.cfi_restore 4
 460              		.cfi_def_cfa_offset 0
 461              	.LVL36:
 170:D:/Work/DeviceTester/amazon-freertos/lib/third_party/mbedtls/library\pk_wrap.c **** }
 462              		.loc 1 170 0
 463 0014 FEFFFFEA 		b	mbedtls_free
 464              	.LVL37:
 465              		.cfi_endproc
 466              	.LFE12:
 468              		.section	.text.rsa_alloc_wrap,"ax",%progbits
 469              		.align	2
 470              		.syntax unified
 471              		.arm
 472              		.fpu neon
 474              	rsa_alloc_wrap:
 475              	.LFB11:
 158:D:/Work/DeviceTester/amazon-freertos/lib/third_party/mbedtls/library\pk_wrap.c ****     void *ctx = mbedtls_calloc( 1, sizeof( mbedtls_rsa_context ) );
 476              		.loc 1 158 0
 477              		.cfi_startproc
 478              		@ args = 0, pretend = 0, frame = 0
 479              		@ frame_needed = 0, uses_anonymous_args = 0
 480 0000 10402DE9 		push	{r4, lr}
 481              		.cfi_def_cfa_offset 8
 482              		.cfi_offset 4, -8
 483              		.cfi_offset 14, -4
 159:D:/Work/DeviceTester/amazon-freertos/lib/third_party/mbedtls/library\pk_wrap.c **** 
 484              		.loc 1 159 0
 485 0004 B410A0E3 		mov	r1, #180
 486 0008 0100A0E3 		mov	r0, #1
 487 000c FEFFFFEB 		bl	mbedtls_calloc
 488              	.LVL38:
 161:D:/Work/DeviceTester/amazon-freertos/lib/third_party/mbedtls/library\pk_wrap.c ****         mbedtls_rsa_init( (mbedtls_rsa_context *) ctx, 0, 0 );
 489              		.loc 1 161 0
 490 0010 004050E2 		subs	r4, r0, #0
 491 0014 0200000A 		beq	.L24
 162:D:/Work/DeviceTester/amazon-freertos/lib/third_party/mbedtls/library\pk_wrap.c **** 
 492              		.loc 1 162 0
 493 0018 0020A0E3 		mov	r2, #0
 494 001c 0210A0E1 		mov	r1, r2
 495 0020 FEFFFFEB 		bl	mbedtls_rsa_init
 496              	.LVL39:
 497              	.L24:
 165:D:/Work/DeviceTester/amazon-freertos/lib/third_party/mbedtls/library\pk_wrap.c **** 
 498              		.loc 1 165 0
 499 0024 0400A0E1 		mov	r0, r4
 500 0028 1080BDE8 		pop	{r4, pc}
 501              		.cfi_endproc
 502              	.LFE11:
 504              		.section	.text.rsa_check_pair_wrap,"ax",%progbits
 505              		.align	2
 506              		.syntax unified
 507              		.arm
 508              		.fpu neon
 510              	rsa_check_pair_wrap:
 511              	.LFB10:
 152:D:/Work/DeviceTester/amazon-freertos/lib/third_party/mbedtls/library\pk_wrap.c ****     return( mbedtls_rsa_check_pub_priv( (const mbedtls_rsa_context *) pub,
 512              		.loc 1 152 0
 513              		.cfi_startproc
 514              		@ args = 0, pretend = 0, frame = 0
 515              		@ frame_needed = 0, uses_anonymous_args = 0
 516              		@ link register save eliminated.
 517              	.LVL40:
 153:D:/Work/DeviceTester/amazon-freertos/lib/third_party/mbedtls/library\pk_wrap.c ****                                 (const mbedtls_rsa_context *) prv ) );
 518              		.loc 1 153 0
 519 0000 FEFFFFEA 		b	mbedtls_rsa_check_pub_priv
 520              	.LVL41:
 521              		.cfi_endproc
 522              	.LFE10:
 524              		.section	.text.rsa_get_bitlen,"ax",%progbits
 525              		.align	2
 526              		.syntax unified
 527              		.arm
 528              		.fpu neon
 530              	rsa_get_bitlen:
 531              	.LFB5:
  67:D:/Work/DeviceTester/amazon-freertos/lib/third_party/mbedtls/library\pk_wrap.c ****     const mbedtls_rsa_context * rsa = (const mbedtls_rsa_context *) ctx;
 532              		.loc 1 67 0
 533              		.cfi_startproc
 534              		@ args = 0, pretend = 0, frame = 0
 535              		@ frame_needed = 0, uses_anonymous_args = 0
 536              	.LVL42:
 537 0000 10402DE9 		push	{r4, lr}
 538              		.cfi_def_cfa_offset 8
 539              		.cfi_offset 4, -8
 540              		.cfi_offset 14, -4
  69:D:/Work/DeviceTester/amazon-freertos/lib/third_party/mbedtls/library\pk_wrap.c **** }
 541              		.loc 1 69 0
 542 0004 FEFFFFEB 		bl	mbedtls_rsa_get_len
 543              	.LVL43:
  70:D:/Work/DeviceTester/amazon-freertos/lib/third_party/mbedtls/library\pk_wrap.c **** 
 544              		.loc 1 70 0
 545 0008 8001A0E1 		lsl	r0, r0, #3
 546 000c 1080BDE8 		pop	{r4, pc}
 547              		.cfi_endproc
 548              	.LFE5:
 550              		.section	.text.rsa_encrypt_wrap,"ax",%progbits
 551              		.align	2
 552              		.syntax unified
 553              		.arm
 554              		.fpu neon
 556              	rsa_encrypt_wrap:
 557              	.LFB9:
 140:D:/Work/DeviceTester/amazon-freertos/lib/third_party/mbedtls/library\pk_wrap.c ****     mbedtls_rsa_context * rsa = (mbedtls_rsa_context *) ctx;
 558              		.loc 1 140 0
 559              		.cfi_startproc
 560              		@ args = 16, pretend = 0, frame = 0
 561              		@ frame_needed = 0, uses_anonymous_args = 0
 562              	.LVL44:
 563 0000 F14F2DE9 		push	{r0, r4, r5, r6, r7, r8, r9, r10, fp, lr}
 564              		.cfi_def_cfa_offset 40
 565              		.cfi_offset 4, -36
 566              		.cfi_offset 5, -32
 567              		.cfi_offset 6, -28
 568              		.cfi_offset 7, -24
 569              		.cfi_offset 8, -20
 570              		.cfi_offset 9, -16
 571              		.cfi_offset 10, -12
 572              		.cfi_offset 11, -8
 573              		.cfi_offset 14, -4
 140:D:/Work/DeviceTester/amazon-freertos/lib/third_party/mbedtls/library\pk_wrap.c ****     mbedtls_rsa_context * rsa = (mbedtls_rsa_context *) ctx;
 574              		.loc 1 140 0
 575 0004 0040A0E1 		mov	r4, r0
 576              	.LVL45:
 577 0008 2CA09DE5 		ldr	r10, [sp, #44]
 578 000c 0180A0E1 		mov	r8, r1
 579 0010 0270A0E1 		mov	r7, r2
 580 0014 0390A0E1 		mov	r9, r3
 581 0018 28B09DE5 		ldr	fp, [sp, #40]
 582 001c 30509DE5 		ldr	r5, [sp, #48]
 583 0020 34609DE5 		ldr	r6, [sp, #52]
 142:D:/Work/DeviceTester/amazon-freertos/lib/third_party/mbedtls/library\pk_wrap.c **** 
 584              		.loc 1 142 0
 585 0024 FEFFFFEB 		bl	mbedtls_rsa_get_len
 586              	.LVL46:
 144:D:/Work/DeviceTester/amazon-freertos/lib/third_party/mbedtls/library\pk_wrap.c ****         return( MBEDTLS_ERR_RSA_OUTPUT_TOO_LARGE );
 587              		.loc 1 144 0
 588 0028 0A0050E1 		cmp	r0, r10
 142:D:/Work/DeviceTester/amazon-freertos/lib/third_party/mbedtls/library\pk_wrap.c **** 
 589              		.loc 1 142 0
 590 002c 00008BE5 		str	r0, [fp]
 144:D:/Work/DeviceTester/amazon-freertos/lib/third_party/mbedtls/library\pk_wrap.c ****         return( MBEDTLS_ERR_RSA_OUTPUT_TOO_LARGE );
 591              		.loc 1 144 0
 592 0030 0900008A 		bhi	.L34
 147:D:/Work/DeviceTester/amazon-freertos/lib/third_party/mbedtls/library\pk_wrap.c ****                                        ilen, input, output ) );
 593              		.loc 1 147 0
 594 0034 30908DE5 		str	r9, [sp, #48]
 595              	.LVL47:
 596 0038 0030A0E3 		mov	r3, #0
 597 003c 2C808DE5 		str	r8, [sp, #44]
 598 0040 0620A0E1 		mov	r2, r6
 599 0044 28708DE5 		str	r7, [sp, #40]
 600 0048 0510A0E1 		mov	r1, r5
 601 004c 0400A0E1 		mov	r0, r4
 149:D:/Work/DeviceTester/amazon-freertos/lib/third_party/mbedtls/library\pk_wrap.c **** 
 602              		.loc 1 149 0
 603 0050 04D08DE2 		add	sp, sp, #4
 604              		.cfi_remember_state
 605              		.cfi_def_cfa_offset 36
 606              		@ sp needed
 607 0054 F04FBDE8 		pop	{r4, r5, r6, r7, r8, r9, r10, fp, lr}
 608              		.cfi_restore 14
 609              		.cfi_restore 11
 610              		.cfi_restore 10
 611              		.cfi_restore 9
 612              		.cfi_restore 8
 613              		.cfi_restore 7
 614              		.cfi_restore 6
 615              		.cfi_restore 5
 616              		.cfi_restore 4
 617              		.cfi_def_cfa_offset 0
 618              	.LVL48:
 147:D:/Work/DeviceTester/amazon-freertos/lib/third_party/mbedtls/library\pk_wrap.c ****                                        ilen, input, output ) );
 619              		.loc 1 147 0
 620 0058 FEFFFFEA 		b	mbedtls_rsa_pkcs1_encrypt
 621              	.LVL49:
 622              	.L34:
 623              		.cfi_restore_state
 149:D:/Work/DeviceTester/amazon-freertos/lib/third_party/mbedtls/library\pk_wrap.c **** 
 624              		.loc 1 149 0
 625 005c 04009FE5 		ldr	r0, .L36
 626 0060 04D08DE2 		add	sp, sp, #4
 627              		.cfi_def_cfa_offset 36
 628              		@ sp needed
 629 0064 F08FBDE8 		pop	{r4, r5, r6, r7, r8, r9, r10, fp, pc}
 630              	.LVL50:
 631              	.L37:
 632              		.align	2
 633              	.L36:
 634 0068 00BCFFFF 		.word	-17408
 635              		.cfi_endproc
 636              	.LFE9:
 638              		.section	.text.rsa_decrypt_wrap,"ax",%progbits
 639              		.align	2
 640              		.syntax unified
 641              		.arm
 642              		.fpu neon
 644              	rsa_decrypt_wrap:
 645              	.LFB8:
 126:D:/Work/DeviceTester/amazon-freertos/lib/third_party/mbedtls/library\pk_wrap.c ****     mbedtls_rsa_context * rsa = (mbedtls_rsa_context *) ctx;
 646              		.loc 1 126 0
 647              		.cfi_startproc
 648              		@ args = 16, pretend = 0, frame = 0
 649              		@ frame_needed = 0, uses_anonymous_args = 0
 650              	.LVL51:
 651 0000 F14F2DE9 		push	{r0, r4, r5, r6, r7, r8, r9, r10, fp, lr}
 652              		.cfi_def_cfa_offset 40
 653              		.cfi_offset 4, -36
 654              		.cfi_offset 5, -32
 655              		.cfi_offset 6, -28
 656              		.cfi_offset 7, -24
 657              		.cfi_offset 8, -20
 658              		.cfi_offset 9, -16
 659              		.cfi_offset 10, -12
 660              		.cfi_offset 11, -8
 661              		.cfi_offset 14, -4
 126:D:/Work/DeviceTester/amazon-freertos/lib/third_party/mbedtls/library\pk_wrap.c ****     mbedtls_rsa_context * rsa = (mbedtls_rsa_context *) ctx;
 662              		.loc 1 126 0
 663 0004 02B0A0E1 		mov	fp, r2
 664 0008 0040A0E1 		mov	r4, r0
 665              	.LVL52:
 666 000c 0180A0E1 		mov	r8, r1
 667 0010 0390A0E1 		mov	r9, r3
 668 0014 28709DE5 		ldr	r7, [sp, #40]
 669 0018 2CA09DE5 		ldr	r10, [sp, #44]
 670 001c 30509DE5 		ldr	r5, [sp, #48]
 671 0020 34609DE5 		ldr	r6, [sp, #52]
 129:D:/Work/DeviceTester/amazon-freertos/lib/third_party/mbedtls/library\pk_wrap.c ****         return( MBEDTLS_ERR_RSA_BAD_INPUT_DATA );
 672              		.loc 1 129 0
 673 0024 FEFFFFEB 		bl	mbedtls_rsa_get_len
 674              	.LVL53:
 675 0028 0B0050E1 		cmp	r0, fp
 676 002c 0A00001A 		bne	.L39
 132:D:/Work/DeviceTester/amazon-freertos/lib/third_party/mbedtls/library\pk_wrap.c ****                 MBEDTLS_RSA_PRIVATE, olen, input, output, osize ) );
 677              		.loc 1 132 0
 678 0030 34A08DE5 		str	r10, [sp, #52]
 679              	.LVL54:
 680 0034 0130A0E3 		mov	r3, #1
 681 0038 30908DE5 		str	r9, [sp, #48]
 682              	.LVL55:
 683 003c 0620A0E1 		mov	r2, r6
 684 0040 2C808DE5 		str	r8, [sp, #44]
 685 0044 0510A0E1 		mov	r1, r5
 686 0048 28708DE5 		str	r7, [sp, #40]
 687 004c 0400A0E1 		mov	r0, r4
 134:D:/Work/DeviceTester/amazon-freertos/lib/third_party/mbedtls/library\pk_wrap.c **** 
 688              		.loc 1 134 0
 689 0050 04D08DE2 		add	sp, sp, #4
 690              		.cfi_remember_state
 691              		.cfi_def_cfa_offset 36
 692              		@ sp needed
 693 0054 F04FBDE8 		pop	{r4, r5, r6, r7, r8, r9, r10, fp, lr}
 694              		.cfi_restore 14
 695              		.cfi_restore 11
 696              		.cfi_restore 10
 697              		.cfi_restore 9
 698              		.cfi_restore 8
 699              		.cfi_restore 7
 700              		.cfi_restore 6
 701              		.cfi_restore 5
 702              		.cfi_restore 4
 703              		.cfi_def_cfa_offset 0
 704              	.LVL56:
 132:D:/Work/DeviceTester/amazon-freertos/lib/third_party/mbedtls/library\pk_wrap.c ****                 MBEDTLS_RSA_PRIVATE, olen, input, output, osize ) );
 705              		.loc 1 132 0
 706 0058 FEFFFFEA 		b	mbedtls_rsa_pkcs1_decrypt
 707              	.LVL57:
 708              	.L39:
 709              		.cfi_restore_state
 134:D:/Work/DeviceTester/amazon-freertos/lib/third_party/mbedtls/library\pk_wrap.c **** 
 710              		.loc 1 134 0
 711 005c 04009FE5 		ldr	r0, .L41
 712 0060 04D08DE2 		add	sp, sp, #4
 713              		.cfi_def_cfa_offset 36
 714              		@ sp needed
 715 0064 F08FBDE8 		pop	{r4, r5, r6, r7, r8, r9, r10, fp, pc}
 716              	.LVL58:
 717              	.L42:
 718              		.align	2
 719              	.L41:
 720 0068 80BFFFFF 		.word	-16512
 721              		.cfi_endproc
 722              	.LFE8:
 724              		.section	.text.rsa_sign_wrap,"ax",%progbits
 725              		.align	2
 726              		.syntax unified
 727              		.arm
 728              		.fpu neon
 730              	rsa_sign_wrap:
 731              	.LFB7:
 108:D:/Work/DeviceTester/amazon-freertos/lib/third_party/mbedtls/library\pk_wrap.c ****     mbedtls_rsa_context * rsa = (mbedtls_rsa_context *) ctx;
 732              		.loc 1 108 0
 733              		.cfi_startproc
 734              		@ args = 16, pretend = 0, frame = 0
 735              		@ frame_needed = 0, uses_anonymous_args = 0
 736              	.LVL59:
 737 0000 F14F2DE9 		push	{r0, r4, r5, r6, r7, r8, r9, r10, fp, lr}
 738              		.cfi_def_cfa_offset 40
 739              		.cfi_offset 4, -36
 740              		.cfi_offset 5, -32
 741              		.cfi_offset 6, -28
 742              		.cfi_offset 7, -24
 743              		.cfi_offset 8, -20
 744              		.cfi_offset 9, -16
 745              		.cfi_offset 10, -12
 746              		.cfi_offset 11, -8
 747              		.cfi_offset 14, -4
 108:D:/Work/DeviceTester/amazon-freertos/lib/third_party/mbedtls/library\pk_wrap.c ****     mbedtls_rsa_context * rsa = (mbedtls_rsa_context *) ctx;
 748              		.loc 1 108 0
 749 0004 0170A0E1 		mov	r7, r1
 750 0008 28A09DE5 		ldr	r10, [sp, #40]
 751 000c 0290A0E1 		mov	r9, r2
 752 0010 0380A0E1 		mov	r8, r3
 753 0014 0040A0E1 		mov	r4, r0
 754              	.LVL60:
 755 0018 2CB09DE5 		ldr	fp, [sp, #44]
 756 001c 30509DE5 		ldr	r5, [sp, #48]
 757 0020 34609DE5 		ldr	r6, [sp, #52]
 116:D:/Work/DeviceTester/amazon-freertos/lib/third_party/mbedtls/library\pk_wrap.c **** 
 758              		.loc 1 116 0
 759 0024 FEFFFFEB 		bl	mbedtls_rsa_get_len
 760              	.LVL61:
 118:D:/Work/DeviceTester/amazon-freertos/lib/third_party/mbedtls/library\pk_wrap.c ****                 md_alg, (unsigned int) hash_len, hash, sig ) );
 761              		.loc 1 118 0
 762 0028 0130A0E3 		mov	r3, #1
 116:D:/Work/DeviceTester/amazon-freertos/lib/third_party/mbedtls/library\pk_wrap.c **** 
 763              		.loc 1 116 0
 764 002c 00008BE5 		str	r0, [fp]
 118:D:/Work/DeviceTester/amazon-freertos/lib/third_party/mbedtls/library\pk_wrap.c ****                 md_alg, (unsigned int) hash_len, hash, sig ) );
 765              		.loc 1 118 0
 766 0030 0620A0E1 		mov	r2, r6
 767 0034 34A08DE5 		str	r10, [sp, #52]
 768              	.LVL62:
 769 0038 30908DE5 		str	r9, [sp, #48]
 770              	.LVL63:
 771 003c 0510A0E1 		mov	r1, r5
 772 0040 2C808DE5 		str	r8, [sp, #44]
 773 0044 0400A0E1 		mov	r0, r4
 774 0048 28708DE5 		str	r7, [sp, #40]
 120:D:/Work/DeviceTester/amazon-freertos/lib/third_party/mbedtls/library\pk_wrap.c **** 
 775              		.loc 1 120 0
 776 004c 04D08DE2 		add	sp, sp, #4
 777              		.cfi_def_cfa_offset 36
 778              		@ sp needed
 779 0050 F04FBDE8 		pop	{r4, r5, r6, r7, r8, r9, r10, fp, lr}
 780              		.cfi_restore 14
 781              		.cfi_restore 11
 782              		.cfi_restore 10
 783              		.cfi_restore 9
 784              		.cfi_restore 8
 785              		.cfi_restore 7
 786              		.cfi_restore 6
 787              		.cfi_restore 5
 788              		.cfi_restore 4
 789              		.cfi_def_cfa_offset 0
 790              	.LVL64:
 118:D:/Work/DeviceTester/amazon-freertos/lib/third_party/mbedtls/library\pk_wrap.c ****                 md_alg, (unsigned int) hash_len, hash, sig ) );
 791              		.loc 1 118 0
 792 0054 FEFFFFEA 		b	mbedtls_rsa_pkcs1_sign
 793              	.LVL65:
 794              		.cfi_endproc
 795              	.LFE7:
 797              		.section	.text.rsa_verify_wrap,"ax",%progbits
 798              		.align	2
 799              		.syntax unified
 800              		.arm
 801              		.fpu neon
 803              	rsa_verify_wrap:
 804              	.LFB6:
  75:D:/Work/DeviceTester/amazon-freertos/lib/third_party/mbedtls/library\pk_wrap.c ****     int ret;
 805              		.loc 1 75 0
 806              		.cfi_startproc
 807              		@ args = 8, pretend = 0, frame = 0
 808              		@ frame_needed = 0, uses_anonymous_args = 0
 809              	.LVL66:
 810 0000 F0432DE9 		push	{r4, r5, r6, r7, r8, r9, lr}
 811              		.cfi_def_cfa_offset 28
 812              		.cfi_offset 4, -28
 813              		.cfi_offset 5, -24
 814              		.cfi_offset 6, -20
 815              		.cfi_offset 7, -16
 816              		.cfi_offset 8, -12
 817              		.cfi_offset 9, -8
 818              		.cfi_offset 14, -4
 819 0004 14D04DE2 		sub	sp, sp, #20
 820              		.cfi_def_cfa_offset 48
  75:D:/Work/DeviceTester/amazon-freertos/lib/third_party/mbedtls/library\pk_wrap.c ****     int ret;
 821              		.loc 1 75 0
 822 0008 34409DE5 		ldr	r4, [sp, #52]
 823 000c 0060A0E1 		mov	r6, r0
 824              	.LVL67:
 825 0010 0170A0E1 		mov	r7, r1
 826 0014 0290A0E1 		mov	r9, r2
 827 0018 0380A0E1 		mov	r8, r3
  78:D:/Work/DeviceTester/amazon-freertos/lib/third_party/mbedtls/library\pk_wrap.c **** 
 828              		.loc 1 78 0
 829 001c FEFFFFEB 		bl	mbedtls_rsa_get_len
 830              	.LVL68:
  85:D:/Work/DeviceTester/amazon-freertos/lib/third_party/mbedtls/library\pk_wrap.c ****         return( MBEDTLS_ERR_RSA_VERIFY_FAILED );
 831              		.loc 1 85 0
 832 0020 040050E1 		cmp	r0, r4
  86:D:/Work/DeviceTester/amazon-freertos/lib/third_party/mbedtls/library\pk_wrap.c **** 
 833              		.loc 1 86 0
 834 0024 40009F85 		ldrhi	r0, .L50
 835              	.LVL69:
  85:D:/Work/DeviceTester/amazon-freertos/lib/third_party/mbedtls/library\pk_wrap.c ****         return( MBEDTLS_ERR_RSA_VERIFY_FAILED );
 836              		.loc 1 85 0
 837 0028 0D00008A 		bhi	.L45
  88:D:/Work/DeviceTester/amazon-freertos/lib/third_party/mbedtls/library\pk_wrap.c ****                                   MBEDTLS_RSA_PUBLIC, md_alg,
 838              		.loc 1 88 0
 839 002c 30309DE5 		ldr	r3, [sp, #48]
 840 0030 0050A0E1 		mov	r5, r0
 841 0034 80038DE8 		stm	sp, {r7, r8, r9}
 842 0038 0600A0E1 		mov	r0, r6
 843 003c 0C308DE5 		str	r3, [sp, #12]
 844 0040 0030A0E3 		mov	r3, #0
 845 0044 0320A0E1 		mov	r2, r3
 846 0048 0310A0E1 		mov	r1, r3
 847 004c FEFFFFEB 		bl	mbedtls_rsa_pkcs1_verify
 848              	.LVL70:
 849 0050 000050E3 		cmp	r0, #0
 850 0054 0200001A 		bne	.L45
  99:D:/Work/DeviceTester/amazon-freertos/lib/third_party/mbedtls/library\pk_wrap.c **** 
 851              		.loc 1 99 0
 852 0058 10309FE5 		ldr	r3, .L50+4
 853 005c 040055E1 		cmp	r5, r4
 854 0060 0300A031 		movcc	r0, r3
 855              	.LVL71:
 856              	.L45:
 102:D:/Work/DeviceTester/amazon-freertos/lib/third_party/mbedtls/library\pk_wrap.c **** 
 857              		.loc 1 102 0
 858 0064 14D08DE2 		add	sp, sp, #20
 859              		.cfi_def_cfa_offset 28
 860              		@ sp needed
 861 0068 F083BDE8 		pop	{r4, r5, r6, r7, r8, r9, pc}
 862              	.LVL72:
 863              	.L51:
 864              		.align	2
 865              	.L50:
 866 006c 80BCFFFF 		.word	-17280
 867 0070 00C7FFFF 		.word	-14592
 868              		.cfi_endproc
 869              	.LFE6:
 871              		.section	.text.eckey_free_wrap,"ax",%progbits
 872              		.align	2
 873              		.syntax unified
 874              		.arm
 875              		.fpu neon
 877              	eckey_free_wrap:
 878              	.LFB20:
 284:D:/Work/DeviceTester/amazon-freertos/lib/third_party/mbedtls/library\pk_wrap.c ****     mbedtls_ecp_keypair_free( (mbedtls_ecp_keypair *) ctx );
 879              		.loc 1 284 0
 880              		.cfi_startproc
 881              		@ args = 0, pretend = 0, frame = 0
 882              		@ frame_needed = 0, uses_anonymous_args = 0
 883              	.LVL73:
 884 0000 10402DE9 		push	{r4, lr}
 885              		.cfi_def_cfa_offset 8
 886              		.cfi_offset 4, -8
 887              		.cfi_offset 14, -4
 284:D:/Work/DeviceTester/amazon-freertos/lib/third_party/mbedtls/library\pk_wrap.c ****     mbedtls_ecp_keypair_free( (mbedtls_ecp_keypair *) ctx );
 888              		.loc 1 284 0
 889 0004 0040A0E1 		mov	r4, r0
 285:D:/Work/DeviceTester/amazon-freertos/lib/third_party/mbedtls/library\pk_wrap.c ****     mbedtls_free( ctx );
 890              		.loc 1 285 0
 891 0008 FEFFFFEB 		bl	mbedtls_ecp_keypair_free
 892              	.LVL74:
 286:D:/Work/DeviceTester/amazon-freertos/lib/third_party/mbedtls/library\pk_wrap.c **** }
 893              		.loc 1 286 0
 894 000c 0400A0E1 		mov	r0, r4
 287:D:/Work/DeviceTester/amazon-freertos/lib/third_party/mbedtls/library\pk_wrap.c **** 
 895              		.loc 1 287 0
 896 0010 1040BDE8 		pop	{r4, lr}
 897              		.cfi_restore 14
 898              		.cfi_restore 4
 899              		.cfi_def_cfa_offset 0
 900              	.LVL75:
 286:D:/Work/DeviceTester/amazon-freertos/lib/third_party/mbedtls/library\pk_wrap.c **** }
 901              		.loc 1 286 0
 902 0014 FEFFFFEA 		b	mbedtls_free
 903              	.LVL76:
 904              		.cfi_endproc
 905              	.LFE20:
 907              		.section	.text.eckey_alloc_wrap,"ax",%progbits
 908              		.align	2
 909              		.syntax unified
 910              		.arm
 911              		.fpu neon
 913              	eckey_alloc_wrap:
 914              	.LFB19:
 274:D:/Work/DeviceTester/amazon-freertos/lib/third_party/mbedtls/library\pk_wrap.c ****     void *ctx = mbedtls_calloc( 1, sizeof( mbedtls_ecp_keypair ) );
 915              		.loc 1 274 0
 916              		.cfi_startproc
 917              		@ args = 0, pretend = 0, frame = 0
 918              		@ frame_needed = 0, uses_anonymous_args = 0
 919 0000 10402DE9 		push	{r4, lr}
 920              		.cfi_def_cfa_offset 8
 921              		.cfi_offset 4, -8
 922              		.cfi_offset 14, -4
 275:D:/Work/DeviceTester/amazon-freertos/lib/third_party/mbedtls/library\pk_wrap.c **** 
 923              		.loc 1 275 0
 924 0004 AC10A0E3 		mov	r1, #172
 925 0008 0100A0E3 		mov	r0, #1
 926 000c FEFFFFEB 		bl	mbedtls_calloc
 927              	.LVL77:
 277:D:/Work/DeviceTester/amazon-freertos/lib/third_party/mbedtls/library\pk_wrap.c ****         mbedtls_ecp_keypair_init( ctx );
 928              		.loc 1 277 0
 929 0010 004050E2 		subs	r4, r0, #0
 930 0014 0000000A 		beq	.L54
 278:D:/Work/DeviceTester/amazon-freertos/lib/third_party/mbedtls/library\pk_wrap.c **** 
 931              		.loc 1 278 0
 932 0018 FEFFFFEB 		bl	mbedtls_ecp_keypair_init
 933              	.LVL78:
 934              	.L54:
 281:D:/Work/DeviceTester/amazon-freertos/lib/third_party/mbedtls/library\pk_wrap.c **** 
 935              		.loc 1 281 0
 936 001c 0400A0E1 		mov	r0, r4
 937 0020 1080BDE8 		pop	{r4, pc}
 938              		.cfi_endproc
 939              	.LFE19:
 941              		.section	.text.eckey_check_pair,"ax",%progbits
 942              		.align	2
 943              		.syntax unified
 944              		.arm
 945              		.fpu neon
 947              	eckey_check_pair:
 948              	.LFB18:
 268:D:/Work/DeviceTester/amazon-freertos/lib/third_party/mbedtls/library\pk_wrap.c ****     return( mbedtls_ecp_check_pub_priv( (const mbedtls_ecp_keypair *) pub,
 949              		.loc 1 268 0
 950              		.cfi_startproc
 951              		@ args = 0, pretend = 0, frame = 0
 952              		@ frame_needed = 0, uses_anonymous_args = 0
 953              		@ link register save eliminated.
 954              	.LVL79:
 269:D:/Work/DeviceTester/amazon-freertos/lib/third_party/mbedtls/library\pk_wrap.c ****                                 (const mbedtls_ecp_keypair *) prv ) );
 955              		.loc 1 269 0
 956 0000 FEFFFFEA 		b	mbedtls_ecp_check_pub_priv
 957              	.LVL80:
 958              		.cfi_endproc
 959              	.LFE18:
 961              		.section	.text.ecdsa_alloc_wrap,"ax",%progbits
 962              		.align	2
 963              		.syntax unified
 964              		.arm
 965              		.fpu neon
 967              	ecdsa_alloc_wrap:
 968              	.LFB26:
 373:D:/Work/DeviceTester/amazon-freertos/lib/third_party/mbedtls/library\pk_wrap.c ****     void *ctx = mbedtls_calloc( 1, sizeof( mbedtls_ecdsa_context ) );
 969              		.loc 1 373 0
 970              		.cfi_startproc
 971              		@ args = 0, pretend = 0, frame = 0
 972              		@ frame_needed = 0, uses_anonymous_args = 0
 973 0000 10402DE9 		push	{r4, lr}
 974              		.cfi_def_cfa_offset 8
 975              		.cfi_offset 4, -8
 976              		.cfi_offset 14, -4
 374:D:/Work/DeviceTester/amazon-freertos/lib/third_party/mbedtls/library\pk_wrap.c **** 
 977              		.loc 1 374 0
 978 0004 AC10A0E3 		mov	r1, #172
 979 0008 0100A0E3 		mov	r0, #1
 980 000c FEFFFFEB 		bl	mbedtls_calloc
 981              	.LVL81:
 376:D:/Work/DeviceTester/amazon-freertos/lib/third_party/mbedtls/library\pk_wrap.c ****         mbedtls_ecdsa_init( (mbedtls_ecdsa_context *) ctx );
 982              		.loc 1 376 0
 983 0010 004050E2 		subs	r4, r0, #0
 984 0014 0000000A 		beq	.L61
 377:D:/Work/DeviceTester/amazon-freertos/lib/third_party/mbedtls/library\pk_wrap.c **** 
 985              		.loc 1 377 0
 986 0018 FEFFFFEB 		bl	mbedtls_ecdsa_init
 987              	.LVL82:
 988              	.L61:
 380:D:/Work/DeviceTester/amazon-freertos/lib/third_party/mbedtls/library\pk_wrap.c **** 
 989              		.loc 1 380 0
 990 001c 0400A0E1 		mov	r0, r4
 991 0020 1080BDE8 		pop	{r4, pc}
 992              		.cfi_endproc
 993              	.LFE26:
 995              		.section	.text.ecdsa_free_wrap,"ax",%progbits
 996              		.align	2
 997              		.syntax unified
 998              		.arm
 999              		.fpu neon
 1001              	ecdsa_free_wrap:
 1002              	.LFB27:
 383:D:/Work/DeviceTester/amazon-freertos/lib/third_party/mbedtls/library\pk_wrap.c ****     mbedtls_ecdsa_free( (mbedtls_ecdsa_context *) ctx );
 1003              		.loc 1 383 0
 1004              		.cfi_startproc
 1005              		@ args = 0, pretend = 0, frame = 0
 1006              		@ frame_needed = 0, uses_anonymous_args = 0
 1007              	.LVL83:
 1008 0000 10402DE9 		push	{r4, lr}
 1009              		.cfi_def_cfa_offset 8
 1010              		.cfi_offset 4, -8
 1011              		.cfi_offset 14, -4
 383:D:/Work/DeviceTester/amazon-freertos/lib/third_party/mbedtls/library\pk_wrap.c ****     mbedtls_ecdsa_free( (mbedtls_ecdsa_context *) ctx );
 1012              		.loc 1 383 0
 1013 0004 0040A0E1 		mov	r4, r0
 384:D:/Work/DeviceTester/amazon-freertos/lib/third_party/mbedtls/library\pk_wrap.c ****     mbedtls_free( ctx );
 1014              		.loc 1 384 0
 1015 0008 FEFFFFEB 		bl	mbedtls_ecdsa_free
 1016              	.LVL84:
 385:D:/Work/DeviceTester/amazon-freertos/lib/third_party/mbedtls/library\pk_wrap.c **** }
 1017              		.loc 1 385 0
 1018 000c 0400A0E1 		mov	r0, r4
 386:D:/Work/DeviceTester/amazon-freertos/lib/third_party/mbedtls/library\pk_wrap.c **** 
 1019              		.loc 1 386 0
 1020 0010 1040BDE8 		pop	{r4, lr}
 1021              		.cfi_restore 14
 1022              		.cfi_restore 4
 1023              		.cfi_def_cfa_offset 0
 1024              	.LVL85:
 385:D:/Work/DeviceTester/amazon-freertos/lib/third_party/mbedtls/library\pk_wrap.c **** }
 1025              		.loc 1 385 0
 1026 0014 FEFFFFEA 		b	mbedtls_free
 1027              	.LVL86:
 1028              		.cfi_endproc
 1029              	.LFE27:
 1031              		.section	.text.ecdsa_sign_wrap,"ax",%progbits
 1032              		.align	2
 1033              		.syntax unified
 1034              		.arm
 1035              		.fpu neon
 1037              	ecdsa_sign_wrap:
 1038              	.LFB25:
 367:D:/Work/DeviceTester/amazon-freertos/lib/third_party/mbedtls/library\pk_wrap.c ****     return( mbedtls_ecdsa_write_signature( (mbedtls_ecdsa_context *) ctx,
 1039              		.loc 1 367 0
 1040              		.cfi_startproc
 1041              		@ args = 16, pretend = 0, frame = 0
 1042              		@ frame_needed = 0, uses_anonymous_args = 0
 1043              		@ link register save eliminated.
 1044              	.LVL87:
 368:D:/Work/DeviceTester/amazon-freertos/lib/third_party/mbedtls/library\pk_wrap.c ****                 md_alg, hash, hash_len, sig, sig_len, f_rng, p_rng ) );
 1045              		.loc 1 368 0
 1046 0000 FEFFFFEA 		b	mbedtls_ecdsa_write_signature
 1047              	.LVL88:
 1048              		.cfi_endproc
 1049              	.LFE25:
 1051              		.section	.text.eckey_sign_wrap,"ax",%progbits
 1052              		.align	2
 1053              		.syntax unified
 1054              		.arm
 1055              		.fpu neon
 1057              	eckey_sign_wrap:
 1058              	.LFB17:
 250:D:/Work/DeviceTester/amazon-freertos/lib/third_party/mbedtls/library\pk_wrap.c ****     int ret;
 1059              		.loc 1 250 0
 1060              		.cfi_startproc
 1061              		@ args = 16, pretend = 0, frame = 176
 1062              		@ frame_needed = 0, uses_anonymous_args = 0
 1063              	.LVL89:
 1064 0000 F0402DE9 		push	{r4, r5, r6, r7, lr}
 1065              		.cfi_def_cfa_offset 20
 1066              		.cfi_offset 4, -20
 1067              		.cfi_offset 5, -16
 1068              		.cfi_offset 6, -12
 1069              		.cfi_offset 7, -8
 1070              		.cfi_offset 14, -4
 1071 0004 C4D04DE2 		sub	sp, sp, #196
 1072              		.cfi_def_cfa_offset 216
 250:D:/Work/DeviceTester/amazon-freertos/lib/third_party/mbedtls/library\pk_wrap.c ****     int ret;
 1073              		.loc 1 250 0
 1074 0008 0040A0E1 		mov	r4, r0
 254:D:/Work/DeviceTester/amazon-freertos/lib/third_party/mbedtls/library\pk_wrap.c **** 
 1075              		.loc 1 254 0
 1076 000c 14008DE2 		add	r0, sp, #20
 1077              	.LVL90:
 250:D:/Work/DeviceTester/amazon-freertos/lib/third_party/mbedtls/library\pk_wrap.c ****     int ret;
 1078              		.loc 1 250 0
 1079 0010 0150A0E1 		mov	r5, r1
 1080 0014 0260A0E1 		mov	r6, r2
 1081 0018 0370A0E1 		mov	r7, r3
 254:D:/Work/DeviceTester/amazon-freertos/lib/third_party/mbedtls/library\pk_wrap.c **** 
 1082              		.loc 1 254 0
 1083 001c FEFFFFEB 		bl	mbedtls_ecdsa_init
 1084              	.LVL91:
 256:D:/Work/DeviceTester/amazon-freertos/lib/third_party/mbedtls/library\pk_wrap.c ****         ret = ecdsa_sign_wrap( &ecdsa, md_alg, hash, hash_len, sig, sig_len,
 1085              		.loc 1 256 0
 1086 0020 0410A0E1 		mov	r1, r4
 1087 0024 14008DE2 		add	r0, sp, #20
 1088 0028 FEFFFFEB 		bl	mbedtls_ecdsa_from_keypair
 1089              	.LVL92:
 1090 002c 004050E2 		subs	r4, r0, #0
 1091              	.LVL93:
 1092 0030 0D00001A 		bne	.L71
 1093              	.LVL94:
 1094              	.LBB4:
 1095              	.LBB5:
 368:D:/Work/DeviceTester/amazon-freertos/lib/third_party/mbedtls/library\pk_wrap.c ****                 md_alg, hash, hash_len, sig, sig_len, f_rng, p_rng ) );
 1096              		.loc 1 368 0
 1097 0034 E4309DE5 		ldr	r3, [sp, #228]
 1098 0038 0620A0E1 		mov	r2, r6
 1099 003c 0510A0E1 		mov	r1, r5
 1100 0040 14008DE2 		add	r0, sp, #20
 1101              	.LVL95:
 1102 0044 0C308DE5 		str	r3, [sp, #12]
 1103 0048 E0309DE5 		ldr	r3, [sp, #224]
 1104 004c 08308DE5 		str	r3, [sp, #8]
 1105 0050 DC309DE5 		ldr	r3, [sp, #220]
 1106 0054 04308DE5 		str	r3, [sp, #4]
 1107 0058 D8309DE5 		ldr	r3, [sp, #216]
 1108 005c 00308DE5 		str	r3, [sp]
 1109 0060 0730A0E1 		mov	r3, r7
 1110 0064 FEFFFFEB 		bl	mbedtls_ecdsa_write_signature
 1111              	.LVL96:
 1112 0068 0040A0E1 		mov	r4, r0
 1113              	.LVL97:
 1114              	.L71:
 1115              	.LBE5:
 1116              	.LBE4:
 260:D:/Work/DeviceTester/amazon-freertos/lib/third_party/mbedtls/library\pk_wrap.c **** 
 1117              		.loc 1 260 0
 1118 006c 14008DE2 		add	r0, sp, #20
 1119 0070 FEFFFFEB 		bl	mbedtls_ecdsa_free
 1120              	.LVL98:
 263:D:/Work/DeviceTester/amazon-freertos/lib/third_party/mbedtls/library\pk_wrap.c **** 
 1121              		.loc 1 263 0
 1122 0074 0400A0E1 		mov	r0, r4
 1123 0078 C4D08DE2 		add	sp, sp, #196
 1124              		.cfi_def_cfa_offset 20
 1125              		@ sp needed
 1126 007c F080BDE8 		pop	{r4, r5, r6, r7, pc}
 1127              		.cfi_endproc
 1128              	.LFE17:
 1130              		.section	.text.ecdsa_verify_wrap,"ax",%progbits
 1131              		.align	2
 1132              		.syntax unified
 1133              		.arm
 1134              		.fpu neon
 1136              	ecdsa_verify_wrap:
 1137              	.LFB24:
 350:D:/Work/DeviceTester/amazon-freertos/lib/third_party/mbedtls/library\pk_wrap.c ****     int ret;
 1138              		.loc 1 350 0
 1139              		.cfi_startproc
 1140              		@ args = 8, pretend = 0, frame = 0
 1141              		@ frame_needed = 0, uses_anonymous_args = 0
 1142              	.LVL99:
 1143 0000 07402DE9 		push	{r0, r1, r2, lr}
 1144              		.cfi_def_cfa_offset 16
 1145              		.cfi_offset 14, -4
 350:D:/Work/DeviceTester/amazon-freertos/lib/third_party/mbedtls/library\pk_wrap.c ****     int ret;
 1146              		.loc 1 350 0
 1147 0004 0210A0E1 		mov	r1, r2
 1148              	.LVL100:
 1149 0008 0320A0E1 		mov	r2, r3
 1150              	.LVL101:
 354:D:/Work/DeviceTester/amazon-freertos/lib/third_party/mbedtls/library\pk_wrap.c ****                                 hash, hash_len, sig, sig_len );
 1151              		.loc 1 354 0
 1152 000c 14309DE5 		ldr	r3, [sp, #20]
 1153              	.LVL102:
 1154 0010 00308DE5 		str	r3, [sp]
 1155 0014 10309DE5 		ldr	r3, [sp, #16]
 1156 0018 FEFFFFEB 		bl	mbedtls_ecdsa_read_signature
 1157              	.LVL103:
 361:D:/Work/DeviceTester/amazon-freertos/lib/third_party/mbedtls/library\pk_wrap.c **** 
 1158              		.loc 1 361 0
 1159 001c 0C309FE5 		ldr	r3, .L77
 1160 0020 130B70E3 		cmn	r0, #19456
 1161 0024 0300A001 		moveq	r0, r3
 1162              	.LVL104:
 1163 0028 0CD08DE2 		add	sp, sp, #12
 1164              		.cfi_def_cfa_offset 4
 1165              		@ sp needed
 1166 002c 04F09DE4 		ldr	pc, [sp], #4
 1167              	.L78:
 1168              		.align	2
 1169              	.L77:
 1170 0030 00C7FFFF 		.word	-14592
 1171              		.cfi_endproc
 1172              	.LFE24:
 1174              		.section	.text.eckey_verify_wrap,"ax",%progbits
 1175              		.align	2
 1176              		.syntax unified
 1177              		.arm
 1178              		.fpu neon
 1180              	eckey_verify_wrap:
 1181              	.LFB16:
 232:D:/Work/DeviceTester/amazon-freertos/lib/third_party/mbedtls/library\pk_wrap.c ****     int ret;
 1182              		.loc 1 232 0
 1183              		.cfi_startproc
 1184              		@ args = 8, pretend = 0, frame = 176
 1185              		@ frame_needed = 0, uses_anonymous_args = 0
 1186              	.LVL105:
 1187 0000 F0402DE9 		push	{r4, r5, r6, r7, lr}
 1188              		.cfi_def_cfa_offset 20
 1189              		.cfi_offset 4, -20
 1190              		.cfi_offset 5, -16
 1191              		.cfi_offset 6, -12
 1192              		.cfi_offset 7, -8
 1193              		.cfi_offset 14, -4
 1194 0004 BCD04DE2 		sub	sp, sp, #188
 1195              		.cfi_def_cfa_offset 208
 232:D:/Work/DeviceTester/amazon-freertos/lib/third_party/mbedtls/library\pk_wrap.c ****     int ret;
 1196              		.loc 1 232 0
 1197 0008 0040A0E1 		mov	r4, r0
 236:D:/Work/DeviceTester/amazon-freertos/lib/third_party/mbedtls/library\pk_wrap.c **** 
 1198              		.loc 1 236 0
 1199 000c 0C008DE2 		add	r0, sp, #12
 1200              	.LVL106:
 232:D:/Work/DeviceTester/amazon-freertos/lib/third_party/mbedtls/library\pk_wrap.c ****     int ret;
 1201              		.loc 1 232 0
 1202 0010 0150A0E1 		mov	r5, r1
 1203 0014 0260A0E1 		mov	r6, r2
 1204 0018 0370A0E1 		mov	r7, r3
 236:D:/Work/DeviceTester/amazon-freertos/lib/third_party/mbedtls/library\pk_wrap.c **** 
 1205              		.loc 1 236 0
 1206 001c FEFFFFEB 		bl	mbedtls_ecdsa_init
 1207              	.LVL107:
 238:D:/Work/DeviceTester/amazon-freertos/lib/third_party/mbedtls/library\pk_wrap.c ****         ret = ecdsa_verify_wrap( &ecdsa, md_alg, hash, hash_len, sig, sig_len );
 1208              		.loc 1 238 0
 1209 0020 0410A0E1 		mov	r1, r4
 1210 0024 0C008DE2 		add	r0, sp, #12
 1211 0028 FEFFFFEB 		bl	mbedtls_ecdsa_from_keypair
 1212              	.LVL108:
 1213 002c 004050E2 		subs	r4, r0, #0
 1214              	.LVL109:
 1215 0030 0900001A 		bne	.L80
 239:D:/Work/DeviceTester/amazon-freertos/lib/third_party/mbedtls/library\pk_wrap.c **** 
 1216              		.loc 1 239 0
 1217 0034 D4309DE5 		ldr	r3, [sp, #212]
 1218 0038 0620A0E1 		mov	r2, r6
 1219 003c 0510A0E1 		mov	r1, r5
 1220 0040 0C008DE2 		add	r0, sp, #12
 1221              	.LVL110:
 1222 0044 04308DE5 		str	r3, [sp, #4]
 1223 0048 D0309DE5 		ldr	r3, [sp, #208]
 1224 004c 00308DE5 		str	r3, [sp]
 1225 0050 0730A0E1 		mov	r3, r7
 1226 0054 FEFFFFEB 		bl	ecdsa_verify_wrap
 1227              	.LVL111:
 1228 0058 0040A0E1 		mov	r4, r0
 1229              	.LVL112:
 1230              	.L80:
 241:D:/Work/DeviceTester/amazon-freertos/lib/third_party/mbedtls/library\pk_wrap.c **** 
 1231              		.loc 1 241 0
 1232 005c 0C008DE2 		add	r0, sp, #12
 1233              	.LVL113:
 1234 0060 FEFFFFEB 		bl	mbedtls_ecdsa_free
 1235              	.LVL114:
 244:D:/Work/DeviceTester/amazon-freertos/lib/third_party/mbedtls/library\pk_wrap.c **** 
 1236              		.loc 1 244 0
 1237 0064 0400A0E1 		mov	r0, r4
 1238 0068 BCD08DE2 		add	sp, sp, #188
 1239              		.cfi_def_cfa_offset 20
 1240              		@ sp needed
 1241 006c F080BDE8 		pop	{r4, r5, r6, r7, pc}
 1242              		.cfi_endproc
 1243              	.LFE16:
 1245              		.section	.text.rsa_alt_free_wrap,"ax",%progbits
 1246              		.align	2
 1247              		.syntax unified
 1248              		.arm
 1249              		.fpu neon
 1251              	rsa_alt_free_wrap:
 1252              	.LFB34:
 455:D:/Work/DeviceTester/amazon-freertos/lib/third_party/mbedtls/library\pk_wrap.c **** 
 456:D:/Work/DeviceTester/amazon-freertos/lib/third_party/mbedtls/library\pk_wrap.c **** #if defined(MBEDTLS_RSA_C)
 457:D:/Work/DeviceTester/amazon-freertos/lib/third_party/mbedtls/library\pk_wrap.c **** static int rsa_alt_check_pair( const void *pub, const void *prv )
 458:D:/Work/DeviceTester/amazon-freertos/lib/third_party/mbedtls/library\pk_wrap.c **** {
 459:D:/Work/DeviceTester/amazon-freertos/lib/third_party/mbedtls/library\pk_wrap.c ****     unsigned char sig[MBEDTLS_MPI_MAX_SIZE];
 460:D:/Work/DeviceTester/amazon-freertos/lib/third_party/mbedtls/library\pk_wrap.c ****     unsigned char hash[32];
 461:D:/Work/DeviceTester/amazon-freertos/lib/third_party/mbedtls/library\pk_wrap.c ****     size_t sig_len = 0;
 462:D:/Work/DeviceTester/amazon-freertos/lib/third_party/mbedtls/library\pk_wrap.c ****     int ret;
 463:D:/Work/DeviceTester/amazon-freertos/lib/third_party/mbedtls/library\pk_wrap.c **** 
 464:D:/Work/DeviceTester/amazon-freertos/lib/third_party/mbedtls/library\pk_wrap.c ****     if( rsa_alt_get_bitlen( prv ) != rsa_get_bitlen( pub ) )
 465:D:/Work/DeviceTester/amazon-freertos/lib/third_party/mbedtls/library\pk_wrap.c ****         return( MBEDTLS_ERR_RSA_KEY_CHECK_FAILED );
 466:D:/Work/DeviceTester/amazon-freertos/lib/third_party/mbedtls/library\pk_wrap.c **** 
 467:D:/Work/DeviceTester/amazon-freertos/lib/third_party/mbedtls/library\pk_wrap.c ****     memset( hash, 0x2a, sizeof( hash ) );
 468:D:/Work/DeviceTester/amazon-freertos/lib/third_party/mbedtls/library\pk_wrap.c **** 
 469:D:/Work/DeviceTester/amazon-freertos/lib/third_party/mbedtls/library\pk_wrap.c ****     if( ( ret = rsa_alt_sign_wrap( (void *) prv, MBEDTLS_MD_NONE,
 470:D:/Work/DeviceTester/amazon-freertos/lib/third_party/mbedtls/library\pk_wrap.c ****                                    hash, sizeof( hash ),
 471:D:/Work/DeviceTester/amazon-freertos/lib/third_party/mbedtls/library\pk_wrap.c ****                                    sig, &sig_len, NULL, NULL ) ) != 0 )
 472:D:/Work/DeviceTester/amazon-freertos/lib/third_party/mbedtls/library\pk_wrap.c ****     {
 473:D:/Work/DeviceTester/amazon-freertos/lib/third_party/mbedtls/library\pk_wrap.c ****         return( ret );
 474:D:/Work/DeviceTester/amazon-freertos/lib/third_party/mbedtls/library\pk_wrap.c ****     }
 475:D:/Work/DeviceTester/amazon-freertos/lib/third_party/mbedtls/library\pk_wrap.c **** 
 476:D:/Work/DeviceTester/amazon-freertos/lib/third_party/mbedtls/library\pk_wrap.c ****     if( rsa_verify_wrap( (void *) pub, MBEDTLS_MD_NONE,
 477:D:/Work/DeviceTester/amazon-freertos/lib/third_party/mbedtls/library\pk_wrap.c ****                          hash, sizeof( hash ), sig, sig_len ) != 0 )
 478:D:/Work/DeviceTester/amazon-freertos/lib/third_party/mbedtls/library\pk_wrap.c ****     {
 479:D:/Work/DeviceTester/amazon-freertos/lib/third_party/mbedtls/library\pk_wrap.c ****         return( MBEDTLS_ERR_RSA_KEY_CHECK_FAILED );
 480:D:/Work/DeviceTester/amazon-freertos/lib/third_party/mbedtls/library\pk_wrap.c ****     }
 481:D:/Work/DeviceTester/amazon-freertos/lib/third_party/mbedtls/library\pk_wrap.c **** 
 482:D:/Work/DeviceTester/amazon-freertos/lib/third_party/mbedtls/library\pk_wrap.c ****     return( 0 );
 483:D:/Work/DeviceTester/amazon-freertos/lib/third_party/mbedtls/library\pk_wrap.c **** }
 484:D:/Work/DeviceTester/amazon-freertos/lib/third_party/mbedtls/library\pk_wrap.c **** #endif /* MBEDTLS_RSA_C */
 485:D:/Work/DeviceTester/amazon-freertos/lib/third_party/mbedtls/library\pk_wrap.c **** 
 486:D:/Work/DeviceTester/amazon-freertos/lib/third_party/mbedtls/library\pk_wrap.c **** static void *rsa_alt_alloc_wrap( void )
 487:D:/Work/DeviceTester/amazon-freertos/lib/third_party/mbedtls/library\pk_wrap.c **** {
 488:D:/Work/DeviceTester/amazon-freertos/lib/third_party/mbedtls/library\pk_wrap.c ****     void *ctx = mbedtls_calloc( 1, sizeof( mbedtls_rsa_alt_context ) );
 489:D:/Work/DeviceTester/amazon-freertos/lib/third_party/mbedtls/library\pk_wrap.c **** 
 490:D:/Work/DeviceTester/amazon-freertos/lib/third_party/mbedtls/library\pk_wrap.c ****     if( ctx != NULL )
 491:D:/Work/DeviceTester/amazon-freertos/lib/third_party/mbedtls/library\pk_wrap.c ****         memset( ctx, 0, sizeof( mbedtls_rsa_alt_context ) );
 492:D:/Work/DeviceTester/amazon-freertos/lib/third_party/mbedtls/library\pk_wrap.c **** 
 493:D:/Work/DeviceTester/amazon-freertos/lib/third_party/mbedtls/library\pk_wrap.c ****     return( ctx );
 494:D:/Work/DeviceTester/amazon-freertos/lib/third_party/mbedtls/library\pk_wrap.c **** }
 495:D:/Work/DeviceTester/amazon-freertos/lib/third_party/mbedtls/library\pk_wrap.c **** 
 496:D:/Work/DeviceTester/amazon-freertos/lib/third_party/mbedtls/library\pk_wrap.c **** static void rsa_alt_free_wrap( void *ctx )
 497:D:/Work/DeviceTester/amazon-freertos/lib/third_party/mbedtls/library\pk_wrap.c **** {
 1253              		.loc 1 497 0
 1254              		.cfi_startproc
 1255              		@ args = 0, pretend = 0, frame = 0
 1256              		@ frame_needed = 0, uses_anonymous_args = 0
 1257              	.LVL115:
 1258 0000 10402DE9 		push	{r4, lr}
 1259              		.cfi_def_cfa_offset 8
 1260              		.cfi_offset 4, -8
 1261              		.cfi_offset 14, -4
 498:D:/Work/DeviceTester/amazon-freertos/lib/third_party/mbedtls/library\pk_wrap.c ****     mbedtls_platform_zeroize( ctx, sizeof( mbedtls_rsa_alt_context ) );
 1262              		.loc 1 498 0
 1263 0004 1010A0E3 		mov	r1, #16
 497:D:/Work/DeviceTester/amazon-freertos/lib/third_party/mbedtls/library\pk_wrap.c ****     mbedtls_platform_zeroize( ctx, sizeof( mbedtls_rsa_alt_context ) );
 1264              		.loc 1 497 0
 1265 0008 0040A0E1 		mov	r4, r0
 1266              		.loc 1 498 0
 1267 000c FEFFFFEB 		bl	mbedtls_platform_zeroize
 1268              	.LVL116:
 499:D:/Work/DeviceTester/amazon-freertos/lib/third_party/mbedtls/library\pk_wrap.c ****     mbedtls_free( ctx );
 1269              		.loc 1 499 0
 1270 0010 0400A0E1 		mov	r0, r4
 500:D:/Work/DeviceTester/amazon-freertos/lib/third_party/mbedtls/library\pk_wrap.c **** }
 1271              		.loc 1 500 0
 1272 0014 1040BDE8 		pop	{r4, lr}
 1273              		.cfi_restore 14
 1274              		.cfi_restore 4
 1275              		.cfi_def_cfa_offset 0
 1276              	.LVL117:
 499:D:/Work/DeviceTester/amazon-freertos/lib/third_party/mbedtls/library\pk_wrap.c ****     mbedtls_free( ctx );
 1277              		.loc 1 499 0
 1278 0018 FEFFFFEA 		b	mbedtls_free
 1279              	.LVL118:
 1280              		.cfi_endproc
 1281              	.LFE34:
 1283              		.section	.text.rsa_alt_alloc_wrap,"ax",%progbits
 1284              		.align	2
 1285              		.syntax unified
 1286              		.arm
 1287              		.fpu neon
 1289              	rsa_alt_alloc_wrap:
 1290              	.LFB33:
 487:D:/Work/DeviceTester/amazon-freertos/lib/third_party/mbedtls/library\pk_wrap.c ****     void *ctx = mbedtls_calloc( 1, sizeof( mbedtls_rsa_alt_context ) );
 1291              		.loc 1 487 0
 1292              		.cfi_startproc
 1293              		@ args = 0, pretend = 0, frame = 0
 1294              		@ frame_needed = 0, uses_anonymous_args = 0
 1295 0000 10402DE9 		push	{r4, lr}
 1296              		.cfi_def_cfa_offset 8
 1297              		.cfi_offset 4, -8
 1298              		.cfi_offset 14, -4
 488:D:/Work/DeviceTester/amazon-freertos/lib/third_party/mbedtls/library\pk_wrap.c **** 
 1299              		.loc 1 488 0
 1300 0004 1010A0E3 		mov	r1, #16
 1301 0008 0100A0E3 		mov	r0, #1
 1302 000c FEFFFFEB 		bl	mbedtls_calloc
 1303              	.LVL119:
 490:D:/Work/DeviceTester/amazon-freertos/lib/third_party/mbedtls/library\pk_wrap.c ****         memset( ctx, 0, sizeof( mbedtls_rsa_alt_context ) );
 1304              		.loc 1 490 0
 1305 0010 004050E2 		subs	r4, r0, #0
 1306 0014 0200000A 		beq	.L84
 491:D:/Work/DeviceTester/amazon-freertos/lib/third_party/mbedtls/library\pk_wrap.c **** 
 1307              		.loc 1 491 0
 1308 0018 1020A0E3 		mov	r2, #16
 1309 001c 0010A0E3 		mov	r1, #0
 1310 0020 FEFFFFEB 		bl	memset
 1311              	.LVL120:
 1312              	.L84:
 494:D:/Work/DeviceTester/amazon-freertos/lib/third_party/mbedtls/library\pk_wrap.c **** 
 1313              		.loc 1 494 0
 1314 0024 0400A0E1 		mov	r0, r4
 1315 0028 1080BDE8 		pop	{r4, pc}
 1316              		.cfi_endproc
 1317              	.LFE33:
 1319              		.section	.text.rsa_alt_check_pair,"ax",%progbits
 1320              		.align	2
 1321              		.syntax unified
 1322              		.arm
 1323              		.fpu neon
 1325              	rsa_alt_check_pair:
 1326              	.LFB32:
 458:D:/Work/DeviceTester/amazon-freertos/lib/third_party/mbedtls/library\pk_wrap.c ****     unsigned char sig[MBEDTLS_MPI_MAX_SIZE];
 1327              		.loc 1 458 0
 1328              		.cfi_startproc
 1329              		@ args = 0, pretend = 0, frame = 1064
 1330              		@ frame_needed = 0, uses_anonymous_args = 0
 1331              	.LVL121:
 1332 0000 F0402DE9 		push	{r4, r5, r6, r7, lr}
 1333              		.cfi_def_cfa_offset 20
 1334              		.cfi_offset 4, -20
 1335              		.cfi_offset 5, -16
 1336              		.cfi_offset 6, -12
 1337              		.cfi_offset 7, -8
 1338              		.cfi_offset 14, -4
 1339 0004 43DE4DE2 		sub	sp, sp, #1072
 1340              		.cfi_def_cfa_offset 1092
 1341 0008 0CD04DE2 		sub	sp, sp, #12
 1342              		.cfi_def_cfa_offset 1104
 458:D:/Work/DeviceTester/amazon-freertos/lib/third_party/mbedtls/library\pk_wrap.c ****     unsigned char sig[MBEDTLS_MPI_MAX_SIZE];
 1343              		.loc 1 458 0
 1344 000c 0050A0E1 		mov	r5, r0
 461:D:/Work/DeviceTester/amazon-freertos/lib/third_party/mbedtls/library\pk_wrap.c ****     int ret;
 1345              		.loc 1 461 0
 1346 0010 0040A0E3 		mov	r4, #0
 464:D:/Work/DeviceTester/amazon-freertos/lib/third_party/mbedtls/library\pk_wrap.c ****         return( MBEDTLS_ERR_RSA_KEY_CHECK_FAILED );
 1347              		.loc 1 464 0
 1348 0014 0100A0E1 		mov	r0, r1
 1349              	.LVL122:
 458:D:/Work/DeviceTester/amazon-freertos/lib/third_party/mbedtls/library\pk_wrap.c ****     unsigned char sig[MBEDTLS_MPI_MAX_SIZE];
 1350              		.loc 1 458 0
 1351 0018 0170A0E1 		mov	r7, r1
 461:D:/Work/DeviceTester/amazon-freertos/lib/third_party/mbedtls/library\pk_wrap.c ****     int ret;
 1352              		.loc 1 461 0
 1353 001c 14408DE5 		str	r4, [sp, #20]
 464:D:/Work/DeviceTester/amazon-freertos/lib/third_party/mbedtls/library\pk_wrap.c ****         return( MBEDTLS_ERR_RSA_KEY_CHECK_FAILED );
 1354              		.loc 1 464 0
 1355 0020 FEFFFFEB 		bl	rsa_alt_get_bitlen
 1356              	.LVL123:
 1357 0024 0060A0E1 		mov	r6, r0
 1358 0028 0500A0E1 		mov	r0, r5
 1359 002c FEFFFFEB 		bl	rsa_get_bitlen
 1360              	.LVL124:
 1361 0030 000056E1 		cmp	r6, r0
 1362 0034 0300000A 		beq	.L91
 1363              	.L93:
 465:D:/Work/DeviceTester/amazon-freertos/lib/third_party/mbedtls/library\pk_wrap.c **** 
 1364              		.loc 1 465 0
 1365 0038 78009FE5 		ldr	r0, .L95
 1366              	.L90:
 483:D:/Work/DeviceTester/amazon-freertos/lib/third_party/mbedtls/library\pk_wrap.c **** #endif /* MBEDTLS_RSA_C */
 1367              		.loc 1 483 0
 1368 003c 43DE8DE2 		add	sp, sp, #1072
 1369 0040 0CD08DE2 		add	sp, sp, #12
 1370              		.cfi_remember_state
 1371              		.cfi_def_cfa_offset 20
 1372              		@ sp needed
 1373 0044 F080BDE8 		pop	{r4, r5, r6, r7, pc}
 1374              	.LVL125:
 1375              	.L91:
 1376              		.cfi_restore_state
 467:D:/Work/DeviceTester/amazon-freertos/lib/third_party/mbedtls/library\pk_wrap.c **** 
 1377              		.loc 1 467 0
 1378 0048 2020A0E3 		mov	r2, #32
 1379 004c 2A10A0E3 		mov	r1, #42
 1380 0050 18008DE2 		add	r0, sp, #24
 469:D:/Work/DeviceTester/amazon-freertos/lib/third_party/mbedtls/library\pk_wrap.c ****                                    hash, sizeof( hash ),
 1381              		.loc 1 469 0
 1382 0054 38608DE2 		add	r6, sp, #56
 467:D:/Work/DeviceTester/amazon-freertos/lib/third_party/mbedtls/library\pk_wrap.c **** 
 1383              		.loc 1 467 0
 1384 0058 FEFFFFEB 		bl	memset
 1385              	.LVL126:
 469:D:/Work/DeviceTester/amazon-freertos/lib/third_party/mbedtls/library\pk_wrap.c ****                                    hash, sizeof( hash ),
 1386              		.loc 1 469 0
 1387 005c 14308DE2 		add	r3, sp, #20
 1388 0060 0C408DE5 		str	r4, [sp, #12]
 1389 0064 04308DE5 		str	r3, [sp, #4]
 1390 0068 18208DE2 		add	r2, sp, #24
 1391 006c 08408DE5 		str	r4, [sp, #8]
 1392 0070 2030A0E3 		mov	r3, #32
 1393 0074 00608DE5 		str	r6, [sp]
 1394 0078 0410A0E1 		mov	r1, r4
 1395 007c 0700A0E1 		mov	r0, r7
 1396 0080 FEFFFFEB 		bl	rsa_alt_sign_wrap
 1397              	.LVL127:
 1398 0084 000050E3 		cmp	r0, #0
 1399 0088 EBFFFF1A 		bne	.L90
 476:D:/Work/DeviceTester/amazon-freertos/lib/third_party/mbedtls/library\pk_wrap.c ****                          hash, sizeof( hash ), sig, sig_len ) != 0 )
 1400              		.loc 1 476 0
 1401 008c 14309DE5 		ldr	r3, [sp, #20]
 1402 0090 0010A0E1 		mov	r1, r0
 1403 0094 00608DE5 		str	r6, [sp]
 1404 0098 18208DE2 		add	r2, sp, #24
 1405 009c 0500A0E1 		mov	r0, r5
 1406              	.LVL128:
 1407 00a0 04308DE5 		str	r3, [sp, #4]
 1408 00a4 2030A0E3 		mov	r3, #32
 1409 00a8 FEFFFFEB 		bl	rsa_verify_wrap
 1410              	.LVL129:
 1411 00ac 000050E3 		cmp	r0, #0
 1412 00b0 E1FFFF0A 		beq	.L90
 1413 00b4 DFFFFFEA 		b	.L93
 1414              	.L96:
 1415              		.align	2
 1416              	.L95:
 1417 00b8 00BEFFFF 		.word	-16896
 1418              		.cfi_endproc
 1419              	.LFE32:
 1421              		.global	mbedtls_rsa_alt_info
 1422              		.global	mbedtls_ecdsa_info
 1423              		.global	mbedtls_eckeydh_info
 1424              		.global	mbedtls_eckey_info
 1425              		.global	mbedtls_rsa_info
 1426              		.section	.rodata.eckey_debug.str1.1,"aMS",%progbits,1
 1427              	.LC2:
 1428 0000 65636B65 		.ascii	"eckey.Q\000"
 1428      792E5100 
 1429              		.section	.rodata.mbedtls_ecdsa_info,"a",%progbits
 1430              		.align	2
 1433              	mbedtls_ecdsa_info:
 1434 0000 04       		.byte	4
 1435 0001 000000   		.space	3
 1436 0004 08000000 		.word	.LC4
 1437 0008 00000000 		.word	eckey_get_bitlen
 1438 000c 00000000 		.word	ecdsa_can_do
 1439 0010 00000000 		.word	ecdsa_verify_wrap
 1440 0014 00000000 		.word	ecdsa_sign_wrap
 1441 0018 00000000 		.word	0
 1442 001c 00000000 		.word	0
 1443 0020 00000000 		.word	eckey_check_pair
 1444 0024 00000000 		.word	ecdsa_alloc_wrap
 1445 0028 00000000 		.word	ecdsa_free_wrap
 1446 002c 00000000 		.word	eckey_debug
 1447              		.section	.rodata.mbedtls_eckey_info,"a",%progbits
 1448              		.align	2
 1451              	mbedtls_eckey_info:
 1452 0000 02       		.byte	2
 1453 0001 000000   		.space	3
 1454 0004 14000000 		.word	.LC6
 1455 0008 00000000 		.word	eckey_get_bitlen
 1456 000c 00000000 		.word	eckey_can_do
 1457 0010 00000000 		.word	eckey_verify_wrap
 1458 0014 00000000 		.word	eckey_sign_wrap
 1459 0018 00000000 		.word	0
 1460 001c 00000000 		.word	0
 1461 0020 00000000 		.word	eckey_check_pair
 1462 0024 00000000 		.word	eckey_alloc_wrap
 1463 0028 00000000 		.word	eckey_free_wrap
 1464 002c 00000000 		.word	eckey_debug
 1465              		.section	.rodata.mbedtls_eckeydh_info,"a",%progbits
 1466              		.align	2
 1469              	mbedtls_eckeydh_info:
 1470 0000 03       		.byte	3
 1471 0001 000000   		.space	3
 1472 0004 0E000000 		.word	.LC5
 1473 0008 00000000 		.word	eckey_get_bitlen
 1474 000c 00000000 		.word	eckeydh_can_do
 1475 0010 00000000 		.word	0
 1476 0014 00000000 		.word	0
 1477 0018 00000000 		.word	0
 1478 001c 00000000 		.word	0
 1479 0020 00000000 		.word	eckey_check_pair
 1480 0024 00000000 		.word	eckey_alloc_wrap
 1481 0028 00000000 		.word	eckey_free_wrap
 1482 002c 00000000 		.word	eckey_debug
 1483              		.section	.rodata.mbedtls_rsa_alt_info,"a",%progbits
 1484              		.align	2
 1487              	mbedtls_rsa_alt_info:
 1488 0000 05       		.byte	5
 1489 0001 000000   		.space	3
 1490 0004 00000000 		.word	.LC3
 1491 0008 00000000 		.word	rsa_alt_get_bitlen
 1492 000c 00000000 		.word	rsa_alt_can_do
 1493 0010 00000000 		.word	0
 1494 0014 00000000 		.word	rsa_alt_sign_wrap
 1495 0018 00000000 		.word	rsa_alt_decrypt_wrap
 1496 001c 00000000 		.word	0
 1497 0020 00000000 		.word	rsa_alt_check_pair
 1498 0024 00000000 		.word	rsa_alt_alloc_wrap
 1499 0028 00000000 		.word	rsa_alt_free_wrap
 1500 002c 00000000 		.word	0
 1501              		.section	.rodata.mbedtls_rsa_info,"a",%progbits
 1502              		.align	2
 1505              	mbedtls_rsa_info:
 1506 0000 01       		.byte	1
 1507 0001 000000   		.space	3
 1508 0004 17000000 		.word	.LC7
 1509 0008 00000000 		.word	rsa_get_bitlen
 1510 000c 00000000 		.word	rsa_can_do
 1511 0010 00000000 		.word	rsa_verify_wrap
 1512 0014 00000000 		.word	rsa_sign_wrap
 1513 0018 00000000 		.word	rsa_decrypt_wrap
 1514 001c 00000000 		.word	rsa_encrypt_wrap
 1515 0020 00000000 		.word	rsa_check_pair_wrap
 1516 0024 00000000 		.word	rsa_alloc_wrap
 1517 0028 00000000 		.word	rsa_free_wrap
 1518 002c 00000000 		.word	rsa_debug
 1519              		.section	.rodata.rsa_debug.str1.1,"aMS",%progbits,1
 1520              	.LC0:
 1521 0000 7273612E 		.ascii	"rsa.N\000"
 1521      4E00
 1522              	.LC1:
 1523 0006 7273612E 		.ascii	"rsa.E\000"
 1523      4500
 1524              		.section	.rodata.str1.1,"aMS",%progbits,1
 1525              	.LC3:
 1526 0000 5253412D 		.ascii	"RSA-alt\000"
 1526      616C7400 
 1527              	.LC4:
 1528 0008 45434453 		.ascii	"ECDSA\000"
 1528      4100
 1529              	.LC5:
 1530 000e 45435F44 		.ascii	"EC_DH\000"
 1530      4800
 1531              	.LC6:
 1532 0014 454300   		.ascii	"EC\000"
 1533              	.LC7:
 1534 0017 52534100 		.ascii	"RSA\000"
 1535              		.text
 1536              	.Letext0:
 1537              		.file 2 "c:\\program files (x86)\\gnu tools arm embedded\\6 2017-q2-update\\arm-none-eabi\\include
 1538              		.file 3 "c:\\program files (x86)\\gnu tools arm embedded\\6 2017-q2-update\\lib\\gcc\\arm-none-eab
 1539              		.file 4 "D:\\Work\\DeviceTester\\amazon-freertos\\lib\\third_party\\mbedtls\\include/mbedtls/md.h"
 1540              		.file 5 "c:\\program files (x86)\\gnu tools arm embedded\\6 2017-q2-update\\arm-none-eabi\\include
 1541              		.file 6 "D:\\Work\\DeviceTester\\amazon-freertos\\lib\\third_party\\mbedtls\\include/mbedtls/bignu
 1542              		.file 7 "c:\\program files (x86)\\gnu tools arm embedded\\6 2017-q2-update\\arm-none-eabi\\include
 1543              		.file 8 "c:\\program files (x86)\\gnu tools arm embedded\\6 2017-q2-update\\arm-none-eabi\\include
 1544              		.file 9 "c:\\program files (x86)\\gnu tools arm embedded\\6 2017-q2-update\\arm-none-eabi\\include
 1545              		.file 10 "c:\\program files (x86)\\gnu tools arm embedded\\6 2017-q2-update\\arm-none-eabi\\includ
 1546              		.file 11 "c:\\program files (x86)\\gnu tools arm embedded\\6 2017-q2-update\\arm-none-eabi\\includ
 1547              		.file 12 "c:\\program files (x86)\\gnu tools arm embedded\\6 2017-q2-update\\arm-none-eabi\\includ
 1548              		.file 13 "D:\\Work\\DeviceTester\\amazon-freertos\\lib\\third_party\\unity\\src/unity_internals.h"
 1549              		.file 14 "D:\\Work\\DeviceTester\\amazon-freertos\\lib\\include/queue.h"
 1550              		.file 15 "D:\\Work\\DeviceTester\\amazon-freertos\\lib\\include/semphr.h"
 1551              		.file 16 "D:\\Work\\DeviceTester\\amazon-freertos\\lib\\include\\private/threading_alt.h"
 1552              		.file 17 "D:\\Work\\DeviceTester\\amazon-freertos\\lib\\third_party\\mbedtls\\include/mbedtls/thre
 1553              		.file 18 "D:\\Work\\DeviceTester\\amazon-freertos\\lib\\third_party\\mbedtls\\include/mbedtls/rsa.
 1554              		.file 19 "D:\\Work\\DeviceTester\\amazon-freertos\\lib\\third_party\\mbedtls\\include/mbedtls/ecp.
 1555              		.file 20 "D:\\Work\\DeviceTester\\amazon-freertos\\lib\\third_party\\mbedtls\\include/mbedtls/ecds
 1556              		.file 21 "D:\\Work\\DeviceTester\\amazon-freertos\\lib\\third_party\\mbedtls\\include/mbedtls/pk.h
 1557              		.file 22 "D:\\Work\\DeviceTester\\amazon-freertos\\lib\\third_party\\mbedtls\\include/mbedtls/pk_i
 1558              		.file 23 "c:\\program files (x86)\\gnu tools arm embedded\\6 2017-q2-update\\arm-none-eabi\\includ
 1559              		.file 24 "D:\\Work\\DeviceTester\\amazon-freertos\\lib\\third_party\\mbedtls\\include/mbedtls/plat
 1560              		.file 25 "D:\\Work\\DeviceTester\\amazon-freertos\\lib\\third_party\\mbedtls\\include/mbedtls/plat
 1561              		.file 26 "c:\\program files (x86)\\gnu tools arm embedded\\6 2017-q2-update\\arm-none-eabi\\includ