   1              		.cpu cortex-a9
   2              		.eabi_attribute 28, 1
   3              		.eabi_attribute 20, 1
   4              		.eabi_attribute 21, 1
   5              		.eabi_attribute 23, 3
   6              		.eabi_attribute 24, 1
   7              		.eabi_attribute 25, 1
   8              		.eabi_attribute 26, 1
   9              		.eabi_attribute 30, 4
  10              		.eabi_attribute 34, 0
  11              		.eabi_attribute 18, 4
  12              		.file	"pkparse.c"
  13              		.text
  14              	.Ltext0:
  15              		.cfi_sections	.debug_frame
  16              		.section	.text.pk_get_rsapubkey,"ax",%progbits
  17              		.align	2
  18              		.syntax unified
  19              		.arm
  20              		.fpu neon
  22              	pk_get_rsapubkey:
  23              	.LFB14:
  24              		.file 1 "D:/Work/DeviceTester/amazon-freertos/lib/third_party/mbedtls/library/pkparse.c"
   1:D:/Work/DeviceTester/amazon-freertos/lib/third_party/mbedtls/library\pkparse.c **** /*
   2:D:/Work/DeviceTester/amazon-freertos/lib/third_party/mbedtls/library\pkparse.c ****  *  Public Key layer for parsing key files and structures
   3:D:/Work/DeviceTester/amazon-freertos/lib/third_party/mbedtls/library\pkparse.c ****  *
   4:D:/Work/DeviceTester/amazon-freertos/lib/third_party/mbedtls/library\pkparse.c ****  *  Copyright (C) 2006-2015, ARM Limited, All Rights Reserved
   5:D:/Work/DeviceTester/amazon-freertos/lib/third_party/mbedtls/library\pkparse.c ****  *  SPDX-License-Identifier: Apache-2.0
   6:D:/Work/DeviceTester/amazon-freertos/lib/third_party/mbedtls/library\pkparse.c ****  *
   7:D:/Work/DeviceTester/amazon-freertos/lib/third_party/mbedtls/library\pkparse.c ****  *  Licensed under the Apache License, Version 2.0 (the "License"); you may
   8:D:/Work/DeviceTester/amazon-freertos/lib/third_party/mbedtls/library\pkparse.c ****  *  not use this file except in compliance with the License.
   9:D:/Work/DeviceTester/amazon-freertos/lib/third_party/mbedtls/library\pkparse.c ****  *  You may obtain a copy of the License at
  10:D:/Work/DeviceTester/amazon-freertos/lib/third_party/mbedtls/library\pkparse.c ****  *
  11:D:/Work/DeviceTester/amazon-freertos/lib/third_party/mbedtls/library\pkparse.c ****  *  http://www.apache.org/licenses/LICENSE-2.0
  12:D:/Work/DeviceTester/amazon-freertos/lib/third_party/mbedtls/library\pkparse.c ****  *
  13:D:/Work/DeviceTester/amazon-freertos/lib/third_party/mbedtls/library\pkparse.c ****  *  Unless required by applicable law or agreed to in writing, software
  14:D:/Work/DeviceTester/amazon-freertos/lib/third_party/mbedtls/library\pkparse.c ****  *  distributed under the License is distributed on an "AS IS" BASIS, WITHOUT
  15:D:/Work/DeviceTester/amazon-freertos/lib/third_party/mbedtls/library\pkparse.c ****  *  WARRANTIES OR CONDITIONS OF ANY KIND, either express or implied.
  16:D:/Work/DeviceTester/amazon-freertos/lib/third_party/mbedtls/library\pkparse.c ****  *  See the License for the specific language governing permissions and
  17:D:/Work/DeviceTester/amazon-freertos/lib/third_party/mbedtls/library\pkparse.c ****  *  limitations under the License.
  18:D:/Work/DeviceTester/amazon-freertos/lib/third_party/mbedtls/library\pkparse.c ****  *
  19:D:/Work/DeviceTester/amazon-freertos/lib/third_party/mbedtls/library\pkparse.c ****  *  This file is part of mbed TLS (https://tls.mbed.org)
  20:D:/Work/DeviceTester/amazon-freertos/lib/third_party/mbedtls/library\pkparse.c ****  */
  21:D:/Work/DeviceTester/amazon-freertos/lib/third_party/mbedtls/library\pkparse.c **** 
  22:D:/Work/DeviceTester/amazon-freertos/lib/third_party/mbedtls/library\pkparse.c **** #if !defined(MBEDTLS_CONFIG_FILE)
  23:D:/Work/DeviceTester/amazon-freertos/lib/third_party/mbedtls/library\pkparse.c **** #include "mbedtls/config.h"
  24:D:/Work/DeviceTester/amazon-freertos/lib/third_party/mbedtls/library\pkparse.c **** #else
  25:D:/Work/DeviceTester/amazon-freertos/lib/third_party/mbedtls/library\pkparse.c **** #include MBEDTLS_CONFIG_FILE
  26:D:/Work/DeviceTester/amazon-freertos/lib/third_party/mbedtls/library\pkparse.c **** #endif
  27:D:/Work/DeviceTester/amazon-freertos/lib/third_party/mbedtls/library\pkparse.c **** 
  28:D:/Work/DeviceTester/amazon-freertos/lib/third_party/mbedtls/library\pkparse.c **** #if defined(MBEDTLS_PK_PARSE_C)
  29:D:/Work/DeviceTester/amazon-freertos/lib/third_party/mbedtls/library\pkparse.c **** 
  30:D:/Work/DeviceTester/amazon-freertos/lib/third_party/mbedtls/library\pkparse.c **** #include "mbedtls/pk.h"
  31:D:/Work/DeviceTester/amazon-freertos/lib/third_party/mbedtls/library\pkparse.c **** #include "mbedtls/asn1.h"
  32:D:/Work/DeviceTester/amazon-freertos/lib/third_party/mbedtls/library\pkparse.c **** #include "mbedtls/oid.h"
  33:D:/Work/DeviceTester/amazon-freertos/lib/third_party/mbedtls/library\pkparse.c **** #include "mbedtls/platform_util.h"
  34:D:/Work/DeviceTester/amazon-freertos/lib/third_party/mbedtls/library\pkparse.c **** 
  35:D:/Work/DeviceTester/amazon-freertos/lib/third_party/mbedtls/library\pkparse.c **** #include <string.h>
  36:D:/Work/DeviceTester/amazon-freertos/lib/third_party/mbedtls/library\pkparse.c **** 
  37:D:/Work/DeviceTester/amazon-freertos/lib/third_party/mbedtls/library\pkparse.c **** #if defined(MBEDTLS_RSA_C)
  38:D:/Work/DeviceTester/amazon-freertos/lib/third_party/mbedtls/library\pkparse.c **** #include "mbedtls/rsa.h"
  39:D:/Work/DeviceTester/amazon-freertos/lib/third_party/mbedtls/library\pkparse.c **** #endif
  40:D:/Work/DeviceTester/amazon-freertos/lib/third_party/mbedtls/library\pkparse.c **** #if defined(MBEDTLS_ECP_C)
  41:D:/Work/DeviceTester/amazon-freertos/lib/third_party/mbedtls/library\pkparse.c **** #include "mbedtls/ecp.h"
  42:D:/Work/DeviceTester/amazon-freertos/lib/third_party/mbedtls/library\pkparse.c **** #endif
  43:D:/Work/DeviceTester/amazon-freertos/lib/third_party/mbedtls/library\pkparse.c **** #if defined(MBEDTLS_ECDSA_C)
  44:D:/Work/DeviceTester/amazon-freertos/lib/third_party/mbedtls/library\pkparse.c **** #include "mbedtls/ecdsa.h"
  45:D:/Work/DeviceTester/amazon-freertos/lib/third_party/mbedtls/library\pkparse.c **** #endif
  46:D:/Work/DeviceTester/amazon-freertos/lib/third_party/mbedtls/library\pkparse.c **** #if defined(MBEDTLS_PEM_PARSE_C)
  47:D:/Work/DeviceTester/amazon-freertos/lib/third_party/mbedtls/library\pkparse.c **** #include "mbedtls/pem.h"
  48:D:/Work/DeviceTester/amazon-freertos/lib/third_party/mbedtls/library\pkparse.c **** #endif
  49:D:/Work/DeviceTester/amazon-freertos/lib/third_party/mbedtls/library\pkparse.c **** #if defined(MBEDTLS_PKCS5_C)
  50:D:/Work/DeviceTester/amazon-freertos/lib/third_party/mbedtls/library\pkparse.c **** #include "mbedtls/pkcs5.h"
  51:D:/Work/DeviceTester/amazon-freertos/lib/third_party/mbedtls/library\pkparse.c **** #endif
  52:D:/Work/DeviceTester/amazon-freertos/lib/third_party/mbedtls/library\pkparse.c **** #if defined(MBEDTLS_PKCS12_C)
  53:D:/Work/DeviceTester/amazon-freertos/lib/third_party/mbedtls/library\pkparse.c **** #include "mbedtls/pkcs12.h"
  54:D:/Work/DeviceTester/amazon-freertos/lib/third_party/mbedtls/library\pkparse.c **** #endif
  55:D:/Work/DeviceTester/amazon-freertos/lib/third_party/mbedtls/library\pkparse.c **** 
  56:D:/Work/DeviceTester/amazon-freertos/lib/third_party/mbedtls/library\pkparse.c **** #if defined(MBEDTLS_PLATFORM_C)
  57:D:/Work/DeviceTester/amazon-freertos/lib/third_party/mbedtls/library\pkparse.c **** #include "mbedtls/platform.h"
  58:D:/Work/DeviceTester/amazon-freertos/lib/third_party/mbedtls/library\pkparse.c **** #else
  59:D:/Work/DeviceTester/amazon-freertos/lib/third_party/mbedtls/library\pkparse.c **** #include <stdlib.h>
  60:D:/Work/DeviceTester/amazon-freertos/lib/third_party/mbedtls/library\pkparse.c **** #define mbedtls_calloc    calloc
  61:D:/Work/DeviceTester/amazon-freertos/lib/third_party/mbedtls/library\pkparse.c **** #define mbedtls_free       free
  62:D:/Work/DeviceTester/amazon-freertos/lib/third_party/mbedtls/library\pkparse.c **** #endif
  63:D:/Work/DeviceTester/amazon-freertos/lib/third_party/mbedtls/library\pkparse.c **** 
  64:D:/Work/DeviceTester/amazon-freertos/lib/third_party/mbedtls/library\pkparse.c **** #if defined(MBEDTLS_FS_IO)
  65:D:/Work/DeviceTester/amazon-freertos/lib/third_party/mbedtls/library\pkparse.c **** /*
  66:D:/Work/DeviceTester/amazon-freertos/lib/third_party/mbedtls/library\pkparse.c ****  * Load all data from a file into a given buffer.
  67:D:/Work/DeviceTester/amazon-freertos/lib/third_party/mbedtls/library\pkparse.c ****  *
  68:D:/Work/DeviceTester/amazon-freertos/lib/third_party/mbedtls/library\pkparse.c ****  * The file is expected to contain either PEM or DER encoded data.
  69:D:/Work/DeviceTester/amazon-freertos/lib/third_party/mbedtls/library\pkparse.c ****  * A terminating null byte is always appended. It is included in the announced
  70:D:/Work/DeviceTester/amazon-freertos/lib/third_party/mbedtls/library\pkparse.c ****  * length only if the data looks like it is PEM encoded.
  71:D:/Work/DeviceTester/amazon-freertos/lib/third_party/mbedtls/library\pkparse.c ****  */
  72:D:/Work/DeviceTester/amazon-freertos/lib/third_party/mbedtls/library\pkparse.c **** int mbedtls_pk_load_file( const char *path, unsigned char **buf, size_t *n )
  73:D:/Work/DeviceTester/amazon-freertos/lib/third_party/mbedtls/library\pkparse.c **** {
  74:D:/Work/DeviceTester/amazon-freertos/lib/third_party/mbedtls/library\pkparse.c ****     FILE *f;
  75:D:/Work/DeviceTester/amazon-freertos/lib/third_party/mbedtls/library\pkparse.c ****     long size;
  76:D:/Work/DeviceTester/amazon-freertos/lib/third_party/mbedtls/library\pkparse.c **** 
  77:D:/Work/DeviceTester/amazon-freertos/lib/third_party/mbedtls/library\pkparse.c ****     if( ( f = fopen( path, "rb" ) ) == NULL )
  78:D:/Work/DeviceTester/amazon-freertos/lib/third_party/mbedtls/library\pkparse.c ****         return( MBEDTLS_ERR_PK_FILE_IO_ERROR );
  79:D:/Work/DeviceTester/amazon-freertos/lib/third_party/mbedtls/library\pkparse.c **** 
  80:D:/Work/DeviceTester/amazon-freertos/lib/third_party/mbedtls/library\pkparse.c ****     fseek( f, 0, SEEK_END );
  81:D:/Work/DeviceTester/amazon-freertos/lib/third_party/mbedtls/library\pkparse.c ****     if( ( size = ftell( f ) ) == -1 )
  82:D:/Work/DeviceTester/amazon-freertos/lib/third_party/mbedtls/library\pkparse.c ****     {
  83:D:/Work/DeviceTester/amazon-freertos/lib/third_party/mbedtls/library\pkparse.c ****         fclose( f );
  84:D:/Work/DeviceTester/amazon-freertos/lib/third_party/mbedtls/library\pkparse.c ****         return( MBEDTLS_ERR_PK_FILE_IO_ERROR );
  85:D:/Work/DeviceTester/amazon-freertos/lib/third_party/mbedtls/library\pkparse.c ****     }
  86:D:/Work/DeviceTester/amazon-freertos/lib/third_party/mbedtls/library\pkparse.c ****     fseek( f, 0, SEEK_SET );
  87:D:/Work/DeviceTester/amazon-freertos/lib/third_party/mbedtls/library\pkparse.c **** 
  88:D:/Work/DeviceTester/amazon-freertos/lib/third_party/mbedtls/library\pkparse.c ****     *n = (size_t) size;
  89:D:/Work/DeviceTester/amazon-freertos/lib/third_party/mbedtls/library\pkparse.c **** 
  90:D:/Work/DeviceTester/amazon-freertos/lib/third_party/mbedtls/library\pkparse.c ****     if( *n + 1 == 0 ||
  91:D:/Work/DeviceTester/amazon-freertos/lib/third_party/mbedtls/library\pkparse.c ****         ( *buf = mbedtls_calloc( 1, *n + 1 ) ) == NULL )
  92:D:/Work/DeviceTester/amazon-freertos/lib/third_party/mbedtls/library\pkparse.c ****     {
  93:D:/Work/DeviceTester/amazon-freertos/lib/third_party/mbedtls/library\pkparse.c ****         fclose( f );
  94:D:/Work/DeviceTester/amazon-freertos/lib/third_party/mbedtls/library\pkparse.c ****         return( MBEDTLS_ERR_PK_ALLOC_FAILED );
  95:D:/Work/DeviceTester/amazon-freertos/lib/third_party/mbedtls/library\pkparse.c ****     }
  96:D:/Work/DeviceTester/amazon-freertos/lib/third_party/mbedtls/library\pkparse.c **** 
  97:D:/Work/DeviceTester/amazon-freertos/lib/third_party/mbedtls/library\pkparse.c ****     if( fread( *buf, 1, *n, f ) != *n )
  98:D:/Work/DeviceTester/amazon-freertos/lib/third_party/mbedtls/library\pkparse.c ****     {
  99:D:/Work/DeviceTester/amazon-freertos/lib/third_party/mbedtls/library\pkparse.c ****         fclose( f );
 100:D:/Work/DeviceTester/amazon-freertos/lib/third_party/mbedtls/library\pkparse.c **** 
 101:D:/Work/DeviceTester/amazon-freertos/lib/third_party/mbedtls/library\pkparse.c ****         mbedtls_platform_zeroize( *buf, *n );
 102:D:/Work/DeviceTester/amazon-freertos/lib/third_party/mbedtls/library\pkparse.c ****         mbedtls_free( *buf );
 103:D:/Work/DeviceTester/amazon-freertos/lib/third_party/mbedtls/library\pkparse.c **** 
 104:D:/Work/DeviceTester/amazon-freertos/lib/third_party/mbedtls/library\pkparse.c ****         return( MBEDTLS_ERR_PK_FILE_IO_ERROR );
 105:D:/Work/DeviceTester/amazon-freertos/lib/third_party/mbedtls/library\pkparse.c ****     }
 106:D:/Work/DeviceTester/amazon-freertos/lib/third_party/mbedtls/library\pkparse.c **** 
 107:D:/Work/DeviceTester/amazon-freertos/lib/third_party/mbedtls/library\pkparse.c ****     fclose( f );
 108:D:/Work/DeviceTester/amazon-freertos/lib/third_party/mbedtls/library\pkparse.c **** 
 109:D:/Work/DeviceTester/amazon-freertos/lib/third_party/mbedtls/library\pkparse.c ****     (*buf)[*n] = '\0';
 110:D:/Work/DeviceTester/amazon-freertos/lib/third_party/mbedtls/library\pkparse.c **** 
 111:D:/Work/DeviceTester/amazon-freertos/lib/third_party/mbedtls/library\pkparse.c ****     if( strstr( (const char *) *buf, "-----BEGIN " ) != NULL )
 112:D:/Work/DeviceTester/amazon-freertos/lib/third_party/mbedtls/library\pkparse.c ****         ++*n;
 113:D:/Work/DeviceTester/amazon-freertos/lib/third_party/mbedtls/library\pkparse.c **** 
 114:D:/Work/DeviceTester/amazon-freertos/lib/third_party/mbedtls/library\pkparse.c ****     return( 0 );
 115:D:/Work/DeviceTester/amazon-freertos/lib/third_party/mbedtls/library\pkparse.c **** }
 116:D:/Work/DeviceTester/amazon-freertos/lib/third_party/mbedtls/library\pkparse.c **** 
 117:D:/Work/DeviceTester/amazon-freertos/lib/third_party/mbedtls/library\pkparse.c **** /*
 118:D:/Work/DeviceTester/amazon-freertos/lib/third_party/mbedtls/library\pkparse.c ****  * Load and parse a private key
 119:D:/Work/DeviceTester/amazon-freertos/lib/third_party/mbedtls/library\pkparse.c ****  */
 120:D:/Work/DeviceTester/amazon-freertos/lib/third_party/mbedtls/library\pkparse.c **** int mbedtls_pk_parse_keyfile( mbedtls_pk_context *ctx,
 121:D:/Work/DeviceTester/amazon-freertos/lib/third_party/mbedtls/library\pkparse.c ****                       const char *path, const char *pwd )
 122:D:/Work/DeviceTester/amazon-freertos/lib/third_party/mbedtls/library\pkparse.c **** {
 123:D:/Work/DeviceTester/amazon-freertos/lib/third_party/mbedtls/library\pkparse.c ****     int ret;
 124:D:/Work/DeviceTester/amazon-freertos/lib/third_party/mbedtls/library\pkparse.c ****     size_t n;
 125:D:/Work/DeviceTester/amazon-freertos/lib/third_party/mbedtls/library\pkparse.c ****     unsigned char *buf;
 126:D:/Work/DeviceTester/amazon-freertos/lib/third_party/mbedtls/library\pkparse.c **** 
 127:D:/Work/DeviceTester/amazon-freertos/lib/third_party/mbedtls/library\pkparse.c ****     if( ( ret = mbedtls_pk_load_file( path, &buf, &n ) ) != 0 )
 128:D:/Work/DeviceTester/amazon-freertos/lib/third_party/mbedtls/library\pkparse.c ****         return( ret );
 129:D:/Work/DeviceTester/amazon-freertos/lib/third_party/mbedtls/library\pkparse.c **** 
 130:D:/Work/DeviceTester/amazon-freertos/lib/third_party/mbedtls/library\pkparse.c ****     if( pwd == NULL )
 131:D:/Work/DeviceTester/amazon-freertos/lib/third_party/mbedtls/library\pkparse.c ****         ret = mbedtls_pk_parse_key( ctx, buf, n, NULL, 0 );
 132:D:/Work/DeviceTester/amazon-freertos/lib/third_party/mbedtls/library\pkparse.c ****     else
 133:D:/Work/DeviceTester/amazon-freertos/lib/third_party/mbedtls/library\pkparse.c ****         ret = mbedtls_pk_parse_key( ctx, buf, n,
 134:D:/Work/DeviceTester/amazon-freertos/lib/third_party/mbedtls/library\pkparse.c ****                 (const unsigned char *) pwd, strlen( pwd ) );
 135:D:/Work/DeviceTester/amazon-freertos/lib/third_party/mbedtls/library\pkparse.c **** 
 136:D:/Work/DeviceTester/amazon-freertos/lib/third_party/mbedtls/library\pkparse.c ****     mbedtls_platform_zeroize( buf, n );
 137:D:/Work/DeviceTester/amazon-freertos/lib/third_party/mbedtls/library\pkparse.c ****     mbedtls_free( buf );
 138:D:/Work/DeviceTester/amazon-freertos/lib/third_party/mbedtls/library\pkparse.c **** 
 139:D:/Work/DeviceTester/amazon-freertos/lib/third_party/mbedtls/library\pkparse.c ****     return( ret );
 140:D:/Work/DeviceTester/amazon-freertos/lib/third_party/mbedtls/library\pkparse.c **** }
 141:D:/Work/DeviceTester/amazon-freertos/lib/third_party/mbedtls/library\pkparse.c **** 
 142:D:/Work/DeviceTester/amazon-freertos/lib/third_party/mbedtls/library\pkparse.c **** /*
 143:D:/Work/DeviceTester/amazon-freertos/lib/third_party/mbedtls/library\pkparse.c ****  * Load and parse a public key
 144:D:/Work/DeviceTester/amazon-freertos/lib/third_party/mbedtls/library\pkparse.c ****  */
 145:D:/Work/DeviceTester/amazon-freertos/lib/third_party/mbedtls/library\pkparse.c **** int mbedtls_pk_parse_public_keyfile( mbedtls_pk_context *ctx, const char *path )
 146:D:/Work/DeviceTester/amazon-freertos/lib/third_party/mbedtls/library\pkparse.c **** {
 147:D:/Work/DeviceTester/amazon-freertos/lib/third_party/mbedtls/library\pkparse.c ****     int ret;
 148:D:/Work/DeviceTester/amazon-freertos/lib/third_party/mbedtls/library\pkparse.c ****     size_t n;
 149:D:/Work/DeviceTester/amazon-freertos/lib/third_party/mbedtls/library\pkparse.c ****     unsigned char *buf;
 150:D:/Work/DeviceTester/amazon-freertos/lib/third_party/mbedtls/library\pkparse.c **** 
 151:D:/Work/DeviceTester/amazon-freertos/lib/third_party/mbedtls/library\pkparse.c ****     if( ( ret = mbedtls_pk_load_file( path, &buf, &n ) ) != 0 )
 152:D:/Work/DeviceTester/amazon-freertos/lib/third_party/mbedtls/library\pkparse.c ****         return( ret );
 153:D:/Work/DeviceTester/amazon-freertos/lib/third_party/mbedtls/library\pkparse.c **** 
 154:D:/Work/DeviceTester/amazon-freertos/lib/third_party/mbedtls/library\pkparse.c ****     ret = mbedtls_pk_parse_public_key( ctx, buf, n );
 155:D:/Work/DeviceTester/amazon-freertos/lib/third_party/mbedtls/library\pkparse.c **** 
 156:D:/Work/DeviceTester/amazon-freertos/lib/third_party/mbedtls/library\pkparse.c ****     mbedtls_platform_zeroize( buf, n );
 157:D:/Work/DeviceTester/amazon-freertos/lib/third_party/mbedtls/library\pkparse.c ****     mbedtls_free( buf );
 158:D:/Work/DeviceTester/amazon-freertos/lib/third_party/mbedtls/library\pkparse.c **** 
 159:D:/Work/DeviceTester/amazon-freertos/lib/third_party/mbedtls/library\pkparse.c ****     return( ret );
 160:D:/Work/DeviceTester/amazon-freertos/lib/third_party/mbedtls/library\pkparse.c **** }
 161:D:/Work/DeviceTester/amazon-freertos/lib/third_party/mbedtls/library\pkparse.c **** #endif /* MBEDTLS_FS_IO */
 162:D:/Work/DeviceTester/amazon-freertos/lib/third_party/mbedtls/library\pkparse.c **** 
 163:D:/Work/DeviceTester/amazon-freertos/lib/third_party/mbedtls/library\pkparse.c **** #if defined(MBEDTLS_ECP_C)
 164:D:/Work/DeviceTester/amazon-freertos/lib/third_party/mbedtls/library\pkparse.c **** /* Minimally parse an ECParameters buffer to and mbedtls_asn1_buf
 165:D:/Work/DeviceTester/amazon-freertos/lib/third_party/mbedtls/library\pkparse.c ****  *
 166:D:/Work/DeviceTester/amazon-freertos/lib/third_party/mbedtls/library\pkparse.c ****  * ECParameters ::= CHOICE {
 167:D:/Work/DeviceTester/amazon-freertos/lib/third_party/mbedtls/library\pkparse.c ****  *   namedCurve         OBJECT IDENTIFIER
 168:D:/Work/DeviceTester/amazon-freertos/lib/third_party/mbedtls/library\pkparse.c ****  *   specifiedCurve     SpecifiedECDomain -- = SEQUENCE { ... }
 169:D:/Work/DeviceTester/amazon-freertos/lib/third_party/mbedtls/library\pkparse.c ****  *   -- implicitCurve   NULL
 170:D:/Work/DeviceTester/amazon-freertos/lib/third_party/mbedtls/library\pkparse.c ****  * }
 171:D:/Work/DeviceTester/amazon-freertos/lib/third_party/mbedtls/library\pkparse.c ****  */
 172:D:/Work/DeviceTester/amazon-freertos/lib/third_party/mbedtls/library\pkparse.c **** static int pk_get_ecparams( unsigned char **p, const unsigned char *end,
 173:D:/Work/DeviceTester/amazon-freertos/lib/third_party/mbedtls/library\pkparse.c ****                             mbedtls_asn1_buf *params )
 174:D:/Work/DeviceTester/amazon-freertos/lib/third_party/mbedtls/library\pkparse.c **** {
 175:D:/Work/DeviceTester/amazon-freertos/lib/third_party/mbedtls/library\pkparse.c ****     int ret;
 176:D:/Work/DeviceTester/amazon-freertos/lib/third_party/mbedtls/library\pkparse.c **** 
 177:D:/Work/DeviceTester/amazon-freertos/lib/third_party/mbedtls/library\pkparse.c ****     if ( end - *p < 1 )
 178:D:/Work/DeviceTester/amazon-freertos/lib/third_party/mbedtls/library\pkparse.c ****         return( MBEDTLS_ERR_PK_KEY_INVALID_FORMAT +
 179:D:/Work/DeviceTester/amazon-freertos/lib/third_party/mbedtls/library\pkparse.c ****                 MBEDTLS_ERR_ASN1_OUT_OF_DATA );
 180:D:/Work/DeviceTester/amazon-freertos/lib/third_party/mbedtls/library\pkparse.c **** 
 181:D:/Work/DeviceTester/amazon-freertos/lib/third_party/mbedtls/library\pkparse.c ****     /* Tag may be either OID or SEQUENCE */
 182:D:/Work/DeviceTester/amazon-freertos/lib/third_party/mbedtls/library\pkparse.c ****     params->tag = **p;
 183:D:/Work/DeviceTester/amazon-freertos/lib/third_party/mbedtls/library\pkparse.c ****     if( params->tag != MBEDTLS_ASN1_OID
 184:D:/Work/DeviceTester/amazon-freertos/lib/third_party/mbedtls/library\pkparse.c **** #if defined(MBEDTLS_PK_PARSE_EC_EXTENDED)
 185:D:/Work/DeviceTester/amazon-freertos/lib/third_party/mbedtls/library\pkparse.c ****             && params->tag != ( MBEDTLS_ASN1_CONSTRUCTED | MBEDTLS_ASN1_SEQUENCE )
 186:D:/Work/DeviceTester/amazon-freertos/lib/third_party/mbedtls/library\pkparse.c **** #endif
 187:D:/Work/DeviceTester/amazon-freertos/lib/third_party/mbedtls/library\pkparse.c ****             )
 188:D:/Work/DeviceTester/amazon-freertos/lib/third_party/mbedtls/library\pkparse.c ****     {
 189:D:/Work/DeviceTester/amazon-freertos/lib/third_party/mbedtls/library\pkparse.c ****         return( MBEDTLS_ERR_PK_KEY_INVALID_FORMAT +
 190:D:/Work/DeviceTester/amazon-freertos/lib/third_party/mbedtls/library\pkparse.c ****                 MBEDTLS_ERR_ASN1_UNEXPECTED_TAG );
 191:D:/Work/DeviceTester/amazon-freertos/lib/third_party/mbedtls/library\pkparse.c ****     }
 192:D:/Work/DeviceTester/amazon-freertos/lib/third_party/mbedtls/library\pkparse.c **** 
 193:D:/Work/DeviceTester/amazon-freertos/lib/third_party/mbedtls/library\pkparse.c ****     if( ( ret = mbedtls_asn1_get_tag( p, end, &params->len, params->tag ) ) != 0 )
 194:D:/Work/DeviceTester/amazon-freertos/lib/third_party/mbedtls/library\pkparse.c ****     {
 195:D:/Work/DeviceTester/amazon-freertos/lib/third_party/mbedtls/library\pkparse.c ****         return( MBEDTLS_ERR_PK_KEY_INVALID_FORMAT + ret );
 196:D:/Work/DeviceTester/amazon-freertos/lib/third_party/mbedtls/library\pkparse.c ****     }
 197:D:/Work/DeviceTester/amazon-freertos/lib/third_party/mbedtls/library\pkparse.c **** 
 198:D:/Work/DeviceTester/amazon-freertos/lib/third_party/mbedtls/library\pkparse.c ****     params->p = *p;
 199:D:/Work/DeviceTester/amazon-freertos/lib/third_party/mbedtls/library\pkparse.c ****     *p += params->len;
 200:D:/Work/DeviceTester/amazon-freertos/lib/third_party/mbedtls/library\pkparse.c **** 
 201:D:/Work/DeviceTester/amazon-freertos/lib/third_party/mbedtls/library\pkparse.c ****     if( *p != end )
 202:D:/Work/DeviceTester/amazon-freertos/lib/third_party/mbedtls/library\pkparse.c ****         return( MBEDTLS_ERR_PK_KEY_INVALID_FORMAT +
 203:D:/Work/DeviceTester/amazon-freertos/lib/third_party/mbedtls/library\pkparse.c ****                 MBEDTLS_ERR_ASN1_LENGTH_MISMATCH );
 204:D:/Work/DeviceTester/amazon-freertos/lib/third_party/mbedtls/library\pkparse.c **** 
 205:D:/Work/DeviceTester/amazon-freertos/lib/third_party/mbedtls/library\pkparse.c ****     return( 0 );
 206:D:/Work/DeviceTester/amazon-freertos/lib/third_party/mbedtls/library\pkparse.c **** }
 207:D:/Work/DeviceTester/amazon-freertos/lib/third_party/mbedtls/library\pkparse.c **** 
 208:D:/Work/DeviceTester/amazon-freertos/lib/third_party/mbedtls/library\pkparse.c **** #if defined(MBEDTLS_PK_PARSE_EC_EXTENDED)
 209:D:/Work/DeviceTester/amazon-freertos/lib/third_party/mbedtls/library\pkparse.c **** /*
 210:D:/Work/DeviceTester/amazon-freertos/lib/third_party/mbedtls/library\pkparse.c ****  * Parse a SpecifiedECDomain (SEC 1 C.2) and (mostly) fill the group with it.
 211:D:/Work/DeviceTester/amazon-freertos/lib/third_party/mbedtls/library\pkparse.c ****  * WARNING: the resulting group should only be used with
 212:D:/Work/DeviceTester/amazon-freertos/lib/third_party/mbedtls/library\pkparse.c ****  * pk_group_id_from_specified(), since its base point may not be set correctly
 213:D:/Work/DeviceTester/amazon-freertos/lib/third_party/mbedtls/library\pkparse.c ****  * if it was encoded compressed.
 214:D:/Work/DeviceTester/amazon-freertos/lib/third_party/mbedtls/library\pkparse.c ****  *
 215:D:/Work/DeviceTester/amazon-freertos/lib/third_party/mbedtls/library\pkparse.c ****  *  SpecifiedECDomain ::= SEQUENCE {
 216:D:/Work/DeviceTester/amazon-freertos/lib/third_party/mbedtls/library\pkparse.c ****  *      version SpecifiedECDomainVersion(ecdpVer1 | ecdpVer2 | ecdpVer3, ...),
 217:D:/Work/DeviceTester/amazon-freertos/lib/third_party/mbedtls/library\pkparse.c ****  *      fieldID FieldID {{FieldTypes}},
 218:D:/Work/DeviceTester/amazon-freertos/lib/third_party/mbedtls/library\pkparse.c ****  *      curve Curve,
 219:D:/Work/DeviceTester/amazon-freertos/lib/third_party/mbedtls/library\pkparse.c ****  *      base ECPoint,
 220:D:/Work/DeviceTester/amazon-freertos/lib/third_party/mbedtls/library\pkparse.c ****  *      order INTEGER,
 221:D:/Work/DeviceTester/amazon-freertos/lib/third_party/mbedtls/library\pkparse.c ****  *      cofactor INTEGER OPTIONAL,
 222:D:/Work/DeviceTester/amazon-freertos/lib/third_party/mbedtls/library\pkparse.c ****  *      hash HashAlgorithm OPTIONAL,
 223:D:/Work/DeviceTester/amazon-freertos/lib/third_party/mbedtls/library\pkparse.c ****  *      ...
 224:D:/Work/DeviceTester/amazon-freertos/lib/third_party/mbedtls/library\pkparse.c ****  *  }
 225:D:/Work/DeviceTester/amazon-freertos/lib/third_party/mbedtls/library\pkparse.c ****  *
 226:D:/Work/DeviceTester/amazon-freertos/lib/third_party/mbedtls/library\pkparse.c ****  * We only support prime-field as field type, and ignore hash and cofactor.
 227:D:/Work/DeviceTester/amazon-freertos/lib/third_party/mbedtls/library\pkparse.c ****  */
 228:D:/Work/DeviceTester/amazon-freertos/lib/third_party/mbedtls/library\pkparse.c **** static int pk_group_from_specified( const mbedtls_asn1_buf *params, mbedtls_ecp_group *grp )
 229:D:/Work/DeviceTester/amazon-freertos/lib/third_party/mbedtls/library\pkparse.c **** {
 230:D:/Work/DeviceTester/amazon-freertos/lib/third_party/mbedtls/library\pkparse.c ****     int ret;
 231:D:/Work/DeviceTester/amazon-freertos/lib/third_party/mbedtls/library\pkparse.c ****     unsigned char *p = params->p;
 232:D:/Work/DeviceTester/amazon-freertos/lib/third_party/mbedtls/library\pkparse.c ****     const unsigned char * const end = params->p + params->len;
 233:D:/Work/DeviceTester/amazon-freertos/lib/third_party/mbedtls/library\pkparse.c ****     const unsigned char *end_field, *end_curve;
 234:D:/Work/DeviceTester/amazon-freertos/lib/third_party/mbedtls/library\pkparse.c ****     size_t len;
 235:D:/Work/DeviceTester/amazon-freertos/lib/third_party/mbedtls/library\pkparse.c ****     int ver;
 236:D:/Work/DeviceTester/amazon-freertos/lib/third_party/mbedtls/library\pkparse.c **** 
 237:D:/Work/DeviceTester/amazon-freertos/lib/third_party/mbedtls/library\pkparse.c ****     /* SpecifiedECDomainVersion ::= INTEGER { 1, 2, 3 } */
 238:D:/Work/DeviceTester/amazon-freertos/lib/third_party/mbedtls/library\pkparse.c ****     if( ( ret = mbedtls_asn1_get_int( &p, end, &ver ) ) != 0 )
 239:D:/Work/DeviceTester/amazon-freertos/lib/third_party/mbedtls/library\pkparse.c ****         return( MBEDTLS_ERR_PK_KEY_INVALID_FORMAT + ret );
 240:D:/Work/DeviceTester/amazon-freertos/lib/third_party/mbedtls/library\pkparse.c **** 
 241:D:/Work/DeviceTester/amazon-freertos/lib/third_party/mbedtls/library\pkparse.c ****     if( ver < 1 || ver > 3 )
 242:D:/Work/DeviceTester/amazon-freertos/lib/third_party/mbedtls/library\pkparse.c ****         return( MBEDTLS_ERR_PK_KEY_INVALID_FORMAT );
 243:D:/Work/DeviceTester/amazon-freertos/lib/third_party/mbedtls/library\pkparse.c **** 
 244:D:/Work/DeviceTester/amazon-freertos/lib/third_party/mbedtls/library\pkparse.c ****     /*
 245:D:/Work/DeviceTester/amazon-freertos/lib/third_party/mbedtls/library\pkparse.c ****      * FieldID { FIELD-ID:IOSet } ::= SEQUENCE { -- Finite field
 246:D:/Work/DeviceTester/amazon-freertos/lib/third_party/mbedtls/library\pkparse.c ****      *       fieldType FIELD-ID.&id({IOSet}),
 247:D:/Work/DeviceTester/amazon-freertos/lib/third_party/mbedtls/library\pkparse.c ****      *       parameters FIELD-ID.&Type({IOSet}{@fieldType})
 248:D:/Work/DeviceTester/amazon-freertos/lib/third_party/mbedtls/library\pkparse.c ****      * }
 249:D:/Work/DeviceTester/amazon-freertos/lib/third_party/mbedtls/library\pkparse.c ****      */
 250:D:/Work/DeviceTester/amazon-freertos/lib/third_party/mbedtls/library\pkparse.c ****     if( ( ret = mbedtls_asn1_get_tag( &p, end, &len,
 251:D:/Work/DeviceTester/amazon-freertos/lib/third_party/mbedtls/library\pkparse.c ****             MBEDTLS_ASN1_CONSTRUCTED | MBEDTLS_ASN1_SEQUENCE ) ) != 0 )
 252:D:/Work/DeviceTester/amazon-freertos/lib/third_party/mbedtls/library\pkparse.c ****         return( ret );
 253:D:/Work/DeviceTester/amazon-freertos/lib/third_party/mbedtls/library\pkparse.c **** 
 254:D:/Work/DeviceTester/amazon-freertos/lib/third_party/mbedtls/library\pkparse.c ****     end_field = p + len;
 255:D:/Work/DeviceTester/amazon-freertos/lib/third_party/mbedtls/library\pkparse.c **** 
 256:D:/Work/DeviceTester/amazon-freertos/lib/third_party/mbedtls/library\pkparse.c ****     /*
 257:D:/Work/DeviceTester/amazon-freertos/lib/third_party/mbedtls/library\pkparse.c ****      * FIELD-ID ::= TYPE-IDENTIFIER
 258:D:/Work/DeviceTester/amazon-freertos/lib/third_party/mbedtls/library\pkparse.c ****      * FieldTypes FIELD-ID ::= {
 259:D:/Work/DeviceTester/amazon-freertos/lib/third_party/mbedtls/library\pkparse.c ****      *       { Prime-p IDENTIFIED BY prime-field } |
 260:D:/Work/DeviceTester/amazon-freertos/lib/third_party/mbedtls/library\pkparse.c ****      *       { Characteristic-two IDENTIFIED BY characteristic-two-field }
 261:D:/Work/DeviceTester/amazon-freertos/lib/third_party/mbedtls/library\pkparse.c ****      * }
 262:D:/Work/DeviceTester/amazon-freertos/lib/third_party/mbedtls/library\pkparse.c ****      * prime-field OBJECT IDENTIFIER ::= { id-fieldType 1 }
 263:D:/Work/DeviceTester/amazon-freertos/lib/third_party/mbedtls/library\pkparse.c ****      */
 264:D:/Work/DeviceTester/amazon-freertos/lib/third_party/mbedtls/library\pkparse.c ****     if( ( ret = mbedtls_asn1_get_tag( &p, end_field, &len, MBEDTLS_ASN1_OID ) ) != 0 )
 265:D:/Work/DeviceTester/amazon-freertos/lib/third_party/mbedtls/library\pkparse.c ****         return( ret );
 266:D:/Work/DeviceTester/amazon-freertos/lib/third_party/mbedtls/library\pkparse.c **** 
 267:D:/Work/DeviceTester/amazon-freertos/lib/third_party/mbedtls/library\pkparse.c ****     if( len != MBEDTLS_OID_SIZE( MBEDTLS_OID_ANSI_X9_62_PRIME_FIELD ) ||
 268:D:/Work/DeviceTester/amazon-freertos/lib/third_party/mbedtls/library\pkparse.c ****         memcmp( p, MBEDTLS_OID_ANSI_X9_62_PRIME_FIELD, len ) != 0 )
 269:D:/Work/DeviceTester/amazon-freertos/lib/third_party/mbedtls/library\pkparse.c ****     {
 270:D:/Work/DeviceTester/amazon-freertos/lib/third_party/mbedtls/library\pkparse.c ****         return( MBEDTLS_ERR_PK_FEATURE_UNAVAILABLE );
 271:D:/Work/DeviceTester/amazon-freertos/lib/third_party/mbedtls/library\pkparse.c ****     }
 272:D:/Work/DeviceTester/amazon-freertos/lib/third_party/mbedtls/library\pkparse.c **** 
 273:D:/Work/DeviceTester/amazon-freertos/lib/third_party/mbedtls/library\pkparse.c ****     p += len;
 274:D:/Work/DeviceTester/amazon-freertos/lib/third_party/mbedtls/library\pkparse.c **** 
 275:D:/Work/DeviceTester/amazon-freertos/lib/third_party/mbedtls/library\pkparse.c ****     /* Prime-p ::= INTEGER -- Field of size p. */
 276:D:/Work/DeviceTester/amazon-freertos/lib/third_party/mbedtls/library\pkparse.c ****     if( ( ret = mbedtls_asn1_get_mpi( &p, end_field, &grp->P ) ) != 0 )
 277:D:/Work/DeviceTester/amazon-freertos/lib/third_party/mbedtls/library\pkparse.c ****         return( MBEDTLS_ERR_PK_KEY_INVALID_FORMAT + ret );
 278:D:/Work/DeviceTester/amazon-freertos/lib/third_party/mbedtls/library\pkparse.c **** 
 279:D:/Work/DeviceTester/amazon-freertos/lib/third_party/mbedtls/library\pkparse.c ****     grp->pbits = mbedtls_mpi_bitlen( &grp->P );
 280:D:/Work/DeviceTester/amazon-freertos/lib/third_party/mbedtls/library\pkparse.c **** 
 281:D:/Work/DeviceTester/amazon-freertos/lib/third_party/mbedtls/library\pkparse.c ****     if( p != end_field )
 282:D:/Work/DeviceTester/amazon-freertos/lib/third_party/mbedtls/library\pkparse.c ****         return( MBEDTLS_ERR_PK_KEY_INVALID_FORMAT +
 283:D:/Work/DeviceTester/amazon-freertos/lib/third_party/mbedtls/library\pkparse.c ****                 MBEDTLS_ERR_ASN1_LENGTH_MISMATCH );
 284:D:/Work/DeviceTester/amazon-freertos/lib/third_party/mbedtls/library\pkparse.c **** 
 285:D:/Work/DeviceTester/amazon-freertos/lib/third_party/mbedtls/library\pkparse.c ****     /*
 286:D:/Work/DeviceTester/amazon-freertos/lib/third_party/mbedtls/library\pkparse.c ****      * Curve ::= SEQUENCE {
 287:D:/Work/DeviceTester/amazon-freertos/lib/third_party/mbedtls/library\pkparse.c ****      *       a FieldElement,
 288:D:/Work/DeviceTester/amazon-freertos/lib/third_party/mbedtls/library\pkparse.c ****      *       b FieldElement,
 289:D:/Work/DeviceTester/amazon-freertos/lib/third_party/mbedtls/library\pkparse.c ****      *       seed BIT STRING OPTIONAL
 290:D:/Work/DeviceTester/amazon-freertos/lib/third_party/mbedtls/library\pkparse.c ****      *       -- Shall be present if used in SpecifiedECDomain
 291:D:/Work/DeviceTester/amazon-freertos/lib/third_party/mbedtls/library\pkparse.c ****      *       -- with version equal to ecdpVer2 or ecdpVer3
 292:D:/Work/DeviceTester/amazon-freertos/lib/third_party/mbedtls/library\pkparse.c ****      * }
 293:D:/Work/DeviceTester/amazon-freertos/lib/third_party/mbedtls/library\pkparse.c ****      */
 294:D:/Work/DeviceTester/amazon-freertos/lib/third_party/mbedtls/library\pkparse.c ****     if( ( ret = mbedtls_asn1_get_tag( &p, end, &len,
 295:D:/Work/DeviceTester/amazon-freertos/lib/third_party/mbedtls/library\pkparse.c ****             MBEDTLS_ASN1_CONSTRUCTED | MBEDTLS_ASN1_SEQUENCE ) ) != 0 )
 296:D:/Work/DeviceTester/amazon-freertos/lib/third_party/mbedtls/library\pkparse.c ****         return( ret );
 297:D:/Work/DeviceTester/amazon-freertos/lib/third_party/mbedtls/library\pkparse.c **** 
 298:D:/Work/DeviceTester/amazon-freertos/lib/third_party/mbedtls/library\pkparse.c ****     end_curve = p + len;
 299:D:/Work/DeviceTester/amazon-freertos/lib/third_party/mbedtls/library\pkparse.c **** 
 300:D:/Work/DeviceTester/amazon-freertos/lib/third_party/mbedtls/library\pkparse.c ****     /*
 301:D:/Work/DeviceTester/amazon-freertos/lib/third_party/mbedtls/library\pkparse.c ****      * FieldElement ::= OCTET STRING
 302:D:/Work/DeviceTester/amazon-freertos/lib/third_party/mbedtls/library\pkparse.c ****      * containing an integer in the case of a prime field
 303:D:/Work/DeviceTester/amazon-freertos/lib/third_party/mbedtls/library\pkparse.c ****      */
 304:D:/Work/DeviceTester/amazon-freertos/lib/third_party/mbedtls/library\pkparse.c ****     if( ( ret = mbedtls_asn1_get_tag( &p, end_curve, &len, MBEDTLS_ASN1_OCTET_STRING ) ) != 0 ||
 305:D:/Work/DeviceTester/amazon-freertos/lib/third_party/mbedtls/library\pkparse.c ****         ( ret = mbedtls_mpi_read_binary( &grp->A, p, len ) ) != 0 )
 306:D:/Work/DeviceTester/amazon-freertos/lib/third_party/mbedtls/library\pkparse.c ****     {
 307:D:/Work/DeviceTester/amazon-freertos/lib/third_party/mbedtls/library\pkparse.c ****         return( MBEDTLS_ERR_PK_KEY_INVALID_FORMAT + ret );
 308:D:/Work/DeviceTester/amazon-freertos/lib/third_party/mbedtls/library\pkparse.c ****     }
 309:D:/Work/DeviceTester/amazon-freertos/lib/third_party/mbedtls/library\pkparse.c **** 
 310:D:/Work/DeviceTester/amazon-freertos/lib/third_party/mbedtls/library\pkparse.c ****     p += len;
 311:D:/Work/DeviceTester/amazon-freertos/lib/third_party/mbedtls/library\pkparse.c **** 
 312:D:/Work/DeviceTester/amazon-freertos/lib/third_party/mbedtls/library\pkparse.c ****     if( ( ret = mbedtls_asn1_get_tag( &p, end_curve, &len, MBEDTLS_ASN1_OCTET_STRING ) ) != 0 ||
 313:D:/Work/DeviceTester/amazon-freertos/lib/third_party/mbedtls/library\pkparse.c ****         ( ret = mbedtls_mpi_read_binary( &grp->B, p, len ) ) != 0 )
 314:D:/Work/DeviceTester/amazon-freertos/lib/third_party/mbedtls/library\pkparse.c ****     {
 315:D:/Work/DeviceTester/amazon-freertos/lib/third_party/mbedtls/library\pkparse.c ****         return( MBEDTLS_ERR_PK_KEY_INVALID_FORMAT + ret );
 316:D:/Work/DeviceTester/amazon-freertos/lib/third_party/mbedtls/library\pkparse.c ****     }
 317:D:/Work/DeviceTester/amazon-freertos/lib/third_party/mbedtls/library\pkparse.c **** 
 318:D:/Work/DeviceTester/amazon-freertos/lib/third_party/mbedtls/library\pkparse.c ****     p += len;
 319:D:/Work/DeviceTester/amazon-freertos/lib/third_party/mbedtls/library\pkparse.c **** 
 320:D:/Work/DeviceTester/amazon-freertos/lib/third_party/mbedtls/library\pkparse.c ****     /* Ignore seed BIT STRING OPTIONAL */
 321:D:/Work/DeviceTester/amazon-freertos/lib/third_party/mbedtls/library\pkparse.c ****     if( ( ret = mbedtls_asn1_get_tag( &p, end_curve, &len, MBEDTLS_ASN1_BIT_STRING ) ) == 0 )
 322:D:/Work/DeviceTester/amazon-freertos/lib/third_party/mbedtls/library\pkparse.c ****         p += len;
 323:D:/Work/DeviceTester/amazon-freertos/lib/third_party/mbedtls/library\pkparse.c **** 
 324:D:/Work/DeviceTester/amazon-freertos/lib/third_party/mbedtls/library\pkparse.c ****     if( p != end_curve )
 325:D:/Work/DeviceTester/amazon-freertos/lib/third_party/mbedtls/library\pkparse.c ****         return( MBEDTLS_ERR_PK_KEY_INVALID_FORMAT +
 326:D:/Work/DeviceTester/amazon-freertos/lib/third_party/mbedtls/library\pkparse.c ****                 MBEDTLS_ERR_ASN1_LENGTH_MISMATCH );
 327:D:/Work/DeviceTester/amazon-freertos/lib/third_party/mbedtls/library\pkparse.c **** 
 328:D:/Work/DeviceTester/amazon-freertos/lib/third_party/mbedtls/library\pkparse.c ****     /*
 329:D:/Work/DeviceTester/amazon-freertos/lib/third_party/mbedtls/library\pkparse.c ****      * ECPoint ::= OCTET STRING
 330:D:/Work/DeviceTester/amazon-freertos/lib/third_party/mbedtls/library\pkparse.c ****      */
 331:D:/Work/DeviceTester/amazon-freertos/lib/third_party/mbedtls/library\pkparse.c ****     if( ( ret = mbedtls_asn1_get_tag( &p, end, &len, MBEDTLS_ASN1_OCTET_STRING ) ) != 0 )
 332:D:/Work/DeviceTester/amazon-freertos/lib/third_party/mbedtls/library\pkparse.c ****         return( MBEDTLS_ERR_PK_KEY_INVALID_FORMAT + ret );
 333:D:/Work/DeviceTester/amazon-freertos/lib/third_party/mbedtls/library\pkparse.c **** 
 334:D:/Work/DeviceTester/amazon-freertos/lib/third_party/mbedtls/library\pkparse.c ****     if( ( ret = mbedtls_ecp_point_read_binary( grp, &grp->G,
 335:D:/Work/DeviceTester/amazon-freertos/lib/third_party/mbedtls/library\pkparse.c ****                                       ( const unsigned char *) p, len ) ) != 0 )
 336:D:/Work/DeviceTester/amazon-freertos/lib/third_party/mbedtls/library\pkparse.c ****     {
 337:D:/Work/DeviceTester/amazon-freertos/lib/third_party/mbedtls/library\pkparse.c ****         /*
 338:D:/Work/DeviceTester/amazon-freertos/lib/third_party/mbedtls/library\pkparse.c ****          * If we can't read the point because it's compressed, cheat by
 339:D:/Work/DeviceTester/amazon-freertos/lib/third_party/mbedtls/library\pkparse.c ****          * reading only the X coordinate and the parity bit of Y.
 340:D:/Work/DeviceTester/amazon-freertos/lib/third_party/mbedtls/library\pkparse.c ****          */
 341:D:/Work/DeviceTester/amazon-freertos/lib/third_party/mbedtls/library\pkparse.c ****         if( ret != MBEDTLS_ERR_ECP_FEATURE_UNAVAILABLE ||
 342:D:/Work/DeviceTester/amazon-freertos/lib/third_party/mbedtls/library\pkparse.c ****             ( p[0] != 0x02 && p[0] != 0x03 ) ||
 343:D:/Work/DeviceTester/amazon-freertos/lib/third_party/mbedtls/library\pkparse.c ****             len != mbedtls_mpi_size( &grp->P ) + 1 ||
 344:D:/Work/DeviceTester/amazon-freertos/lib/third_party/mbedtls/library\pkparse.c ****             mbedtls_mpi_read_binary( &grp->G.X, p + 1, len - 1 ) != 0 ||
 345:D:/Work/DeviceTester/amazon-freertos/lib/third_party/mbedtls/library\pkparse.c ****             mbedtls_mpi_lset( &grp->G.Y, p[0] - 2 ) != 0 ||
 346:D:/Work/DeviceTester/amazon-freertos/lib/third_party/mbedtls/library\pkparse.c ****             mbedtls_mpi_lset( &grp->G.Z, 1 ) != 0 )
 347:D:/Work/DeviceTester/amazon-freertos/lib/third_party/mbedtls/library\pkparse.c ****         {
 348:D:/Work/DeviceTester/amazon-freertos/lib/third_party/mbedtls/library\pkparse.c ****             return( MBEDTLS_ERR_PK_KEY_INVALID_FORMAT );
 349:D:/Work/DeviceTester/amazon-freertos/lib/third_party/mbedtls/library\pkparse.c ****         }
 350:D:/Work/DeviceTester/amazon-freertos/lib/third_party/mbedtls/library\pkparse.c ****     }
 351:D:/Work/DeviceTester/amazon-freertos/lib/third_party/mbedtls/library\pkparse.c **** 
 352:D:/Work/DeviceTester/amazon-freertos/lib/third_party/mbedtls/library\pkparse.c ****     p += len;
 353:D:/Work/DeviceTester/amazon-freertos/lib/third_party/mbedtls/library\pkparse.c **** 
 354:D:/Work/DeviceTester/amazon-freertos/lib/third_party/mbedtls/library\pkparse.c ****     /*
 355:D:/Work/DeviceTester/amazon-freertos/lib/third_party/mbedtls/library\pkparse.c ****      * order INTEGER
 356:D:/Work/DeviceTester/amazon-freertos/lib/third_party/mbedtls/library\pkparse.c ****      */
 357:D:/Work/DeviceTester/amazon-freertos/lib/third_party/mbedtls/library\pkparse.c ****     if( ( ret = mbedtls_asn1_get_mpi( &p, end, &grp->N ) ) != 0 )
 358:D:/Work/DeviceTester/amazon-freertos/lib/third_party/mbedtls/library\pkparse.c ****         return( MBEDTLS_ERR_PK_KEY_INVALID_FORMAT + ret );
 359:D:/Work/DeviceTester/amazon-freertos/lib/third_party/mbedtls/library\pkparse.c **** 
 360:D:/Work/DeviceTester/amazon-freertos/lib/third_party/mbedtls/library\pkparse.c ****     grp->nbits = mbedtls_mpi_bitlen( &grp->N );
 361:D:/Work/DeviceTester/amazon-freertos/lib/third_party/mbedtls/library\pkparse.c **** 
 362:D:/Work/DeviceTester/amazon-freertos/lib/third_party/mbedtls/library\pkparse.c ****     /*
 363:D:/Work/DeviceTester/amazon-freertos/lib/third_party/mbedtls/library\pkparse.c ****      * Allow optional elements by purposefully not enforcing p == end here.
 364:D:/Work/DeviceTester/amazon-freertos/lib/third_party/mbedtls/library\pkparse.c ****      */
 365:D:/Work/DeviceTester/amazon-freertos/lib/third_party/mbedtls/library\pkparse.c **** 
 366:D:/Work/DeviceTester/amazon-freertos/lib/third_party/mbedtls/library\pkparse.c ****     return( 0 );
 367:D:/Work/DeviceTester/amazon-freertos/lib/third_party/mbedtls/library\pkparse.c **** }
 368:D:/Work/DeviceTester/amazon-freertos/lib/third_party/mbedtls/library\pkparse.c **** 
 369:D:/Work/DeviceTester/amazon-freertos/lib/third_party/mbedtls/library\pkparse.c **** /*
 370:D:/Work/DeviceTester/amazon-freertos/lib/third_party/mbedtls/library\pkparse.c ****  * Find the group id associated with an (almost filled) group as generated by
 371:D:/Work/DeviceTester/amazon-freertos/lib/third_party/mbedtls/library\pkparse.c ****  * pk_group_from_specified(), or return an error if unknown.
 372:D:/Work/DeviceTester/amazon-freertos/lib/third_party/mbedtls/library\pkparse.c ****  */
 373:D:/Work/DeviceTester/amazon-freertos/lib/third_party/mbedtls/library\pkparse.c **** static int pk_group_id_from_group( const mbedtls_ecp_group *grp, mbedtls_ecp_group_id *grp_id )
 374:D:/Work/DeviceTester/amazon-freertos/lib/third_party/mbedtls/library\pkparse.c **** {
 375:D:/Work/DeviceTester/amazon-freertos/lib/third_party/mbedtls/library\pkparse.c ****     int ret = 0;
 376:D:/Work/DeviceTester/amazon-freertos/lib/third_party/mbedtls/library\pkparse.c ****     mbedtls_ecp_group ref;
 377:D:/Work/DeviceTester/amazon-freertos/lib/third_party/mbedtls/library\pkparse.c ****     const mbedtls_ecp_group_id *id;
 378:D:/Work/DeviceTester/amazon-freertos/lib/third_party/mbedtls/library\pkparse.c **** 
 379:D:/Work/DeviceTester/amazon-freertos/lib/third_party/mbedtls/library\pkparse.c ****     mbedtls_ecp_group_init( &ref );
 380:D:/Work/DeviceTester/amazon-freertos/lib/third_party/mbedtls/library\pkparse.c **** 
 381:D:/Work/DeviceTester/amazon-freertos/lib/third_party/mbedtls/library\pkparse.c ****     for( id = mbedtls_ecp_grp_id_list(); *id != MBEDTLS_ECP_DP_NONE; id++ )
 382:D:/Work/DeviceTester/amazon-freertos/lib/third_party/mbedtls/library\pkparse.c ****     {
 383:D:/Work/DeviceTester/amazon-freertos/lib/third_party/mbedtls/library\pkparse.c ****         /* Load the group associated to that id */
 384:D:/Work/DeviceTester/amazon-freertos/lib/third_party/mbedtls/library\pkparse.c ****         mbedtls_ecp_group_free( &ref );
 385:D:/Work/DeviceTester/amazon-freertos/lib/third_party/mbedtls/library\pkparse.c ****         MBEDTLS_MPI_CHK( mbedtls_ecp_group_load( &ref, *id ) );
 386:D:/Work/DeviceTester/amazon-freertos/lib/third_party/mbedtls/library\pkparse.c **** 
 387:D:/Work/DeviceTester/amazon-freertos/lib/third_party/mbedtls/library\pkparse.c ****         /* Compare to the group we were given, starting with easy tests */
 388:D:/Work/DeviceTester/amazon-freertos/lib/third_party/mbedtls/library\pkparse.c ****         if( grp->pbits == ref.pbits && grp->nbits == ref.nbits &&
 389:D:/Work/DeviceTester/amazon-freertos/lib/third_party/mbedtls/library\pkparse.c ****             mbedtls_mpi_cmp_mpi( &grp->P, &ref.P ) == 0 &&
 390:D:/Work/DeviceTester/amazon-freertos/lib/third_party/mbedtls/library\pkparse.c ****             mbedtls_mpi_cmp_mpi( &grp->A, &ref.A ) == 0 &&
 391:D:/Work/DeviceTester/amazon-freertos/lib/third_party/mbedtls/library\pkparse.c ****             mbedtls_mpi_cmp_mpi( &grp->B, &ref.B ) == 0 &&
 392:D:/Work/DeviceTester/amazon-freertos/lib/third_party/mbedtls/library\pkparse.c ****             mbedtls_mpi_cmp_mpi( &grp->N, &ref.N ) == 0 &&
 393:D:/Work/DeviceTester/amazon-freertos/lib/third_party/mbedtls/library\pkparse.c ****             mbedtls_mpi_cmp_mpi( &grp->G.X, &ref.G.X ) == 0 &&
 394:D:/Work/DeviceTester/amazon-freertos/lib/third_party/mbedtls/library\pkparse.c ****             mbedtls_mpi_cmp_mpi( &grp->G.Z, &ref.G.Z ) == 0 &&
 395:D:/Work/DeviceTester/amazon-freertos/lib/third_party/mbedtls/library\pkparse.c ****             /* For Y we may only know the parity bit, so compare only that */
 396:D:/Work/DeviceTester/amazon-freertos/lib/third_party/mbedtls/library\pkparse.c ****             mbedtls_mpi_get_bit( &grp->G.Y, 0 ) == mbedtls_mpi_get_bit( &ref.G.Y, 0 ) )
 397:D:/Work/DeviceTester/amazon-freertos/lib/third_party/mbedtls/library\pkparse.c ****         {
 398:D:/Work/DeviceTester/amazon-freertos/lib/third_party/mbedtls/library\pkparse.c ****             break;
 399:D:/Work/DeviceTester/amazon-freertos/lib/third_party/mbedtls/library\pkparse.c ****         }
 400:D:/Work/DeviceTester/amazon-freertos/lib/third_party/mbedtls/library\pkparse.c **** 
 401:D:/Work/DeviceTester/amazon-freertos/lib/third_party/mbedtls/library\pkparse.c ****     }
 402:D:/Work/DeviceTester/amazon-freertos/lib/third_party/mbedtls/library\pkparse.c **** 
 403:D:/Work/DeviceTester/amazon-freertos/lib/third_party/mbedtls/library\pkparse.c **** cleanup:
 404:D:/Work/DeviceTester/amazon-freertos/lib/third_party/mbedtls/library\pkparse.c ****     mbedtls_ecp_group_free( &ref );
 405:D:/Work/DeviceTester/amazon-freertos/lib/third_party/mbedtls/library\pkparse.c **** 
 406:D:/Work/DeviceTester/amazon-freertos/lib/third_party/mbedtls/library\pkparse.c ****     *grp_id = *id;
 407:D:/Work/DeviceTester/amazon-freertos/lib/third_party/mbedtls/library\pkparse.c **** 
 408:D:/Work/DeviceTester/amazon-freertos/lib/third_party/mbedtls/library\pkparse.c ****     if( ret == 0 && *id == MBEDTLS_ECP_DP_NONE )
 409:D:/Work/DeviceTester/amazon-freertos/lib/third_party/mbedtls/library\pkparse.c ****         ret = MBEDTLS_ERR_ECP_FEATURE_UNAVAILABLE;
 410:D:/Work/DeviceTester/amazon-freertos/lib/third_party/mbedtls/library\pkparse.c **** 
 411:D:/Work/DeviceTester/amazon-freertos/lib/third_party/mbedtls/library\pkparse.c ****     return( ret );
 412:D:/Work/DeviceTester/amazon-freertos/lib/third_party/mbedtls/library\pkparse.c **** }
 413:D:/Work/DeviceTester/amazon-freertos/lib/third_party/mbedtls/library\pkparse.c **** 
 414:D:/Work/DeviceTester/amazon-freertos/lib/third_party/mbedtls/library\pkparse.c **** /*
 415:D:/Work/DeviceTester/amazon-freertos/lib/third_party/mbedtls/library\pkparse.c ****  * Parse a SpecifiedECDomain (SEC 1 C.2) and find the associated group ID
 416:D:/Work/DeviceTester/amazon-freertos/lib/third_party/mbedtls/library\pkparse.c ****  */
 417:D:/Work/DeviceTester/amazon-freertos/lib/third_party/mbedtls/library\pkparse.c **** static int pk_group_id_from_specified( const mbedtls_asn1_buf *params,
 418:D:/Work/DeviceTester/amazon-freertos/lib/third_party/mbedtls/library\pkparse.c ****                                        mbedtls_ecp_group_id *grp_id )
 419:D:/Work/DeviceTester/amazon-freertos/lib/third_party/mbedtls/library\pkparse.c **** {
 420:D:/Work/DeviceTester/amazon-freertos/lib/third_party/mbedtls/library\pkparse.c ****     int ret;
 421:D:/Work/DeviceTester/amazon-freertos/lib/third_party/mbedtls/library\pkparse.c ****     mbedtls_ecp_group grp;
 422:D:/Work/DeviceTester/amazon-freertos/lib/third_party/mbedtls/library\pkparse.c **** 
 423:D:/Work/DeviceTester/amazon-freertos/lib/third_party/mbedtls/library\pkparse.c ****     mbedtls_ecp_group_init( &grp );
 424:D:/Work/DeviceTester/amazon-freertos/lib/third_party/mbedtls/library\pkparse.c **** 
 425:D:/Work/DeviceTester/amazon-freertos/lib/third_party/mbedtls/library\pkparse.c ****     if( ( ret = pk_group_from_specified( params, &grp ) ) != 0 )
 426:D:/Work/DeviceTester/amazon-freertos/lib/third_party/mbedtls/library\pkparse.c ****         goto cleanup;
 427:D:/Work/DeviceTester/amazon-freertos/lib/third_party/mbedtls/library\pkparse.c **** 
 428:D:/Work/DeviceTester/amazon-freertos/lib/third_party/mbedtls/library\pkparse.c ****     ret = pk_group_id_from_group( &grp, grp_id );
 429:D:/Work/DeviceTester/amazon-freertos/lib/third_party/mbedtls/library\pkparse.c **** 
 430:D:/Work/DeviceTester/amazon-freertos/lib/third_party/mbedtls/library\pkparse.c **** cleanup:
 431:D:/Work/DeviceTester/amazon-freertos/lib/third_party/mbedtls/library\pkparse.c ****     mbedtls_ecp_group_free( &grp );
 432:D:/Work/DeviceTester/amazon-freertos/lib/third_party/mbedtls/library\pkparse.c **** 
 433:D:/Work/DeviceTester/amazon-freertos/lib/third_party/mbedtls/library\pkparse.c ****     return( ret );
 434:D:/Work/DeviceTester/amazon-freertos/lib/third_party/mbedtls/library\pkparse.c **** }
 435:D:/Work/DeviceTester/amazon-freertos/lib/third_party/mbedtls/library\pkparse.c **** #endif /* MBEDTLS_PK_PARSE_EC_EXTENDED */
 436:D:/Work/DeviceTester/amazon-freertos/lib/third_party/mbedtls/library\pkparse.c **** 
 437:D:/Work/DeviceTester/amazon-freertos/lib/third_party/mbedtls/library\pkparse.c **** /*
 438:D:/Work/DeviceTester/amazon-freertos/lib/third_party/mbedtls/library\pkparse.c ****  * Use EC parameters to initialise an EC group
 439:D:/Work/DeviceTester/amazon-freertos/lib/third_party/mbedtls/library\pkparse.c ****  *
 440:D:/Work/DeviceTester/amazon-freertos/lib/third_party/mbedtls/library\pkparse.c ****  * ECParameters ::= CHOICE {
 441:D:/Work/DeviceTester/amazon-freertos/lib/third_party/mbedtls/library\pkparse.c ****  *   namedCurve         OBJECT IDENTIFIER
 442:D:/Work/DeviceTester/amazon-freertos/lib/third_party/mbedtls/library\pkparse.c ****  *   specifiedCurve     SpecifiedECDomain -- = SEQUENCE { ... }
 443:D:/Work/DeviceTester/amazon-freertos/lib/third_party/mbedtls/library\pkparse.c ****  *   -- implicitCurve   NULL
 444:D:/Work/DeviceTester/amazon-freertos/lib/third_party/mbedtls/library\pkparse.c ****  */
 445:D:/Work/DeviceTester/amazon-freertos/lib/third_party/mbedtls/library\pkparse.c **** static int pk_use_ecparams( const mbedtls_asn1_buf *params, mbedtls_ecp_group *grp )
 446:D:/Work/DeviceTester/amazon-freertos/lib/third_party/mbedtls/library\pkparse.c **** {
 447:D:/Work/DeviceTester/amazon-freertos/lib/third_party/mbedtls/library\pkparse.c ****     int ret;
 448:D:/Work/DeviceTester/amazon-freertos/lib/third_party/mbedtls/library\pkparse.c ****     mbedtls_ecp_group_id grp_id;
 449:D:/Work/DeviceTester/amazon-freertos/lib/third_party/mbedtls/library\pkparse.c **** 
 450:D:/Work/DeviceTester/amazon-freertos/lib/third_party/mbedtls/library\pkparse.c ****     if( params->tag == MBEDTLS_ASN1_OID )
 451:D:/Work/DeviceTester/amazon-freertos/lib/third_party/mbedtls/library\pkparse.c ****     {
 452:D:/Work/DeviceTester/amazon-freertos/lib/third_party/mbedtls/library\pkparse.c ****         if( mbedtls_oid_get_ec_grp( params, &grp_id ) != 0 )
 453:D:/Work/DeviceTester/amazon-freertos/lib/third_party/mbedtls/library\pkparse.c ****             return( MBEDTLS_ERR_PK_UNKNOWN_NAMED_CURVE );
 454:D:/Work/DeviceTester/amazon-freertos/lib/third_party/mbedtls/library\pkparse.c ****     }
 455:D:/Work/DeviceTester/amazon-freertos/lib/third_party/mbedtls/library\pkparse.c ****     else
 456:D:/Work/DeviceTester/amazon-freertos/lib/third_party/mbedtls/library\pkparse.c ****     {
 457:D:/Work/DeviceTester/amazon-freertos/lib/third_party/mbedtls/library\pkparse.c **** #if defined(MBEDTLS_PK_PARSE_EC_EXTENDED)
 458:D:/Work/DeviceTester/amazon-freertos/lib/third_party/mbedtls/library\pkparse.c ****         if( ( ret = pk_group_id_from_specified( params, &grp_id ) ) != 0 )
 459:D:/Work/DeviceTester/amazon-freertos/lib/third_party/mbedtls/library\pkparse.c ****             return( ret );
 460:D:/Work/DeviceTester/amazon-freertos/lib/third_party/mbedtls/library\pkparse.c **** #else
 461:D:/Work/DeviceTester/amazon-freertos/lib/third_party/mbedtls/library\pkparse.c ****         return( MBEDTLS_ERR_PK_KEY_INVALID_FORMAT );
 462:D:/Work/DeviceTester/amazon-freertos/lib/third_party/mbedtls/library\pkparse.c **** #endif
 463:D:/Work/DeviceTester/amazon-freertos/lib/third_party/mbedtls/library\pkparse.c ****     }
 464:D:/Work/DeviceTester/amazon-freertos/lib/third_party/mbedtls/library\pkparse.c **** 
 465:D:/Work/DeviceTester/amazon-freertos/lib/third_party/mbedtls/library\pkparse.c ****     /*
 466:D:/Work/DeviceTester/amazon-freertos/lib/third_party/mbedtls/library\pkparse.c ****      * grp may already be initilialized; if so, make sure IDs match
 467:D:/Work/DeviceTester/amazon-freertos/lib/third_party/mbedtls/library\pkparse.c ****      */
 468:D:/Work/DeviceTester/amazon-freertos/lib/third_party/mbedtls/library\pkparse.c ****     if( grp->id != MBEDTLS_ECP_DP_NONE && grp->id != grp_id )
 469:D:/Work/DeviceTester/amazon-freertos/lib/third_party/mbedtls/library\pkparse.c ****         return( MBEDTLS_ERR_PK_KEY_INVALID_FORMAT );
 470:D:/Work/DeviceTester/amazon-freertos/lib/third_party/mbedtls/library\pkparse.c **** 
 471:D:/Work/DeviceTester/amazon-freertos/lib/third_party/mbedtls/library\pkparse.c ****     if( ( ret = mbedtls_ecp_group_load( grp, grp_id ) ) != 0 )
 472:D:/Work/DeviceTester/amazon-freertos/lib/third_party/mbedtls/library\pkparse.c ****         return( ret );
 473:D:/Work/DeviceTester/amazon-freertos/lib/third_party/mbedtls/library\pkparse.c **** 
 474:D:/Work/DeviceTester/amazon-freertos/lib/third_party/mbedtls/library\pkparse.c ****     return( 0 );
 475:D:/Work/DeviceTester/amazon-freertos/lib/third_party/mbedtls/library\pkparse.c **** }
 476:D:/Work/DeviceTester/amazon-freertos/lib/third_party/mbedtls/library\pkparse.c **** 
 477:D:/Work/DeviceTester/amazon-freertos/lib/third_party/mbedtls/library\pkparse.c **** /*
 478:D:/Work/DeviceTester/amazon-freertos/lib/third_party/mbedtls/library\pkparse.c ****  * EC public key is an EC point
 479:D:/Work/DeviceTester/amazon-freertos/lib/third_party/mbedtls/library\pkparse.c ****  *
 480:D:/Work/DeviceTester/amazon-freertos/lib/third_party/mbedtls/library\pkparse.c ****  * The caller is responsible for clearing the structure upon failure if
 481:D:/Work/DeviceTester/amazon-freertos/lib/third_party/mbedtls/library\pkparse.c ****  * desired. Take care to pass along the possible ECP_FEATURE_UNAVAILABLE
 482:D:/Work/DeviceTester/amazon-freertos/lib/third_party/mbedtls/library\pkparse.c ****  * return code of mbedtls_ecp_point_read_binary() and leave p in a usable state.
 483:D:/Work/DeviceTester/amazon-freertos/lib/third_party/mbedtls/library\pkparse.c ****  */
 484:D:/Work/DeviceTester/amazon-freertos/lib/third_party/mbedtls/library\pkparse.c **** static int pk_get_ecpubkey( unsigned char **p, const unsigned char *end,
 485:D:/Work/DeviceTester/amazon-freertos/lib/third_party/mbedtls/library\pkparse.c ****                             mbedtls_ecp_keypair *key )
 486:D:/Work/DeviceTester/amazon-freertos/lib/third_party/mbedtls/library\pkparse.c **** {
 487:D:/Work/DeviceTester/amazon-freertos/lib/third_party/mbedtls/library\pkparse.c ****     int ret;
 488:D:/Work/DeviceTester/amazon-freertos/lib/third_party/mbedtls/library\pkparse.c **** 
 489:D:/Work/DeviceTester/amazon-freertos/lib/third_party/mbedtls/library\pkparse.c ****     if( ( ret = mbedtls_ecp_point_read_binary( &key->grp, &key->Q,
 490:D:/Work/DeviceTester/amazon-freertos/lib/third_party/mbedtls/library\pkparse.c ****                     (const unsigned char *) *p, end - *p ) ) == 0 )
 491:D:/Work/DeviceTester/amazon-freertos/lib/third_party/mbedtls/library\pkparse.c ****     {
 492:D:/Work/DeviceTester/amazon-freertos/lib/third_party/mbedtls/library\pkparse.c ****         ret = mbedtls_ecp_check_pubkey( &key->grp, &key->Q );
 493:D:/Work/DeviceTester/amazon-freertos/lib/third_party/mbedtls/library\pkparse.c ****     }
 494:D:/Work/DeviceTester/amazon-freertos/lib/third_party/mbedtls/library\pkparse.c **** 
 495:D:/Work/DeviceTester/amazon-freertos/lib/third_party/mbedtls/library\pkparse.c ****     /*
 496:D:/Work/DeviceTester/amazon-freertos/lib/third_party/mbedtls/library\pkparse.c ****      * We know mbedtls_ecp_point_read_binary consumed all bytes or failed
 497:D:/Work/DeviceTester/amazon-freertos/lib/third_party/mbedtls/library\pkparse.c ****      */
 498:D:/Work/DeviceTester/amazon-freertos/lib/third_party/mbedtls/library\pkparse.c ****     *p = (unsigned char *) end;
 499:D:/Work/DeviceTester/amazon-freertos/lib/third_party/mbedtls/library\pkparse.c **** 
 500:D:/Work/DeviceTester/amazon-freertos/lib/third_party/mbedtls/library\pkparse.c ****     return( ret );
 501:D:/Work/DeviceTester/amazon-freertos/lib/third_party/mbedtls/library\pkparse.c **** }
 502:D:/Work/DeviceTester/amazon-freertos/lib/third_party/mbedtls/library\pkparse.c **** #endif /* MBEDTLS_ECP_C */
 503:D:/Work/DeviceTester/amazon-freertos/lib/third_party/mbedtls/library\pkparse.c **** 
 504:D:/Work/DeviceTester/amazon-freertos/lib/third_party/mbedtls/library\pkparse.c **** #if defined(MBEDTLS_RSA_C)
 505:D:/Work/DeviceTester/amazon-freertos/lib/third_party/mbedtls/library\pkparse.c **** /*
 506:D:/Work/DeviceTester/amazon-freertos/lib/third_party/mbedtls/library\pkparse.c ****  *  RSAPublicKey ::= SEQUENCE {
 507:D:/Work/DeviceTester/amazon-freertos/lib/third_party/mbedtls/library\pkparse.c ****  *      modulus           INTEGER,  -- n
 508:D:/Work/DeviceTester/amazon-freertos/lib/third_party/mbedtls/library\pkparse.c ****  *      publicExponent    INTEGER   -- e
 509:D:/Work/DeviceTester/amazon-freertos/lib/third_party/mbedtls/library\pkparse.c ****  *  }
 510:D:/Work/DeviceTester/amazon-freertos/lib/third_party/mbedtls/library\pkparse.c ****  */
 511:D:/Work/DeviceTester/amazon-freertos/lib/third_party/mbedtls/library\pkparse.c **** static int pk_get_rsapubkey( unsigned char **p,
 512:D:/Work/DeviceTester/amazon-freertos/lib/third_party/mbedtls/library\pkparse.c ****                              const unsigned char *end,
 513:D:/Work/DeviceTester/amazon-freertos/lib/third_party/mbedtls/library\pkparse.c ****                              mbedtls_rsa_context *rsa )
 514:D:/Work/DeviceTester/amazon-freertos/lib/third_party/mbedtls/library\pkparse.c **** {
  25              		.loc 1 514 0
  26              		.cfi_startproc
  27              		@ args = 0, pretend = 0, frame = 8
  28              		@ frame_needed = 0, uses_anonymous_args = 0
  29              	.LVL0:
  30 0000 70402DE9 		push	{r4, r5, r6, lr}
  31              		.cfi_def_cfa_offset 16
  32              		.cfi_offset 4, -16
  33              		.cfi_offset 5, -12
  34              		.cfi_offset 6, -8
  35              		.cfi_offset 14, -4
  36 0004 28D04DE2 		sub	sp, sp, #40
  37              		.cfi_def_cfa_offset 56
  38              		.loc 1 514 0
  39 0008 0260A0E1 		mov	r6, r2
 515:D:/Work/DeviceTester/amazon-freertos/lib/third_party/mbedtls/library\pkparse.c ****     int ret;
 516:D:/Work/DeviceTester/amazon-freertos/lib/third_party/mbedtls/library\pkparse.c ****     size_t len;
 517:D:/Work/DeviceTester/amazon-freertos/lib/third_party/mbedtls/library\pkparse.c **** 
 518:D:/Work/DeviceTester/amazon-freertos/lib/third_party/mbedtls/library\pkparse.c ****     if( ( ret = mbedtls_asn1_get_tag( p, end, &len,
  40              		.loc 1 518 0
  41 000c 3030A0E3 		mov	r3, #48
  42 0010 24208DE2 		add	r2, sp, #36
  43              	.LVL1:
 514:D:/Work/DeviceTester/amazon-freertos/lib/third_party/mbedtls/library\pkparse.c ****     int ret;
  44              		.loc 1 514 0
  45 0014 0040A0E1 		mov	r4, r0
  46 0018 0150A0E1 		mov	r5, r1
  47              		.loc 1 518 0
  48 001c FEFFFFEB 		bl	mbedtls_asn1_get_tag
  49              	.LVL2:
  50 0020 000050E3 		cmp	r0, #0
 519:D:/Work/DeviceTester/amazon-freertos/lib/third_party/mbedtls/library\pkparse.c ****             MBEDTLS_ASN1_CONSTRUCTED | MBEDTLS_ASN1_SEQUENCE ) ) != 0 )
 520:D:/Work/DeviceTester/amazon-freertos/lib/third_party/mbedtls/library\pkparse.c ****         return( MBEDTLS_ERR_PK_INVALID_PUBKEY + ret );
  51              		.loc 1 520 0
  52 0024 3B0C4012 		subne	r0, r0, #15104
  53              	.LVL3:
 518:D:/Work/DeviceTester/amazon-freertos/lib/third_party/mbedtls/library\pkparse.c ****             MBEDTLS_ASN1_CONSTRUCTED | MBEDTLS_ASN1_SEQUENCE ) ) != 0 )
  54              		.loc 1 518 0
  55 0028 0500001A 		bne	.L1
 521:D:/Work/DeviceTester/amazon-freertos/lib/third_party/mbedtls/library\pkparse.c **** 
 522:D:/Work/DeviceTester/amazon-freertos/lib/third_party/mbedtls/library\pkparse.c ****     if( *p + len != end )
  56              		.loc 1 522 0
  57 002c 003094E5 		ldr	r3, [r4]
  58 0030 24209DE5 		ldr	r2, [sp, #36]
  59 0034 023083E0 		add	r3, r3, r2
  60 0038 030055E1 		cmp	r5, r3
  61 003c 0200000A 		beq	.L4
  62              	.L9:
 523:D:/Work/DeviceTester/amazon-freertos/lib/third_party/mbedtls/library\pkparse.c ****         return( MBEDTLS_ERR_PK_INVALID_PUBKEY +
  63              		.loc 1 523 0
  64 0040 0C019FE5 		ldr	r0, .L12
  65              	.L1:
 524:D:/Work/DeviceTester/amazon-freertos/lib/third_party/mbedtls/library\pkparse.c ****                 MBEDTLS_ERR_ASN1_LENGTH_MISMATCH );
 525:D:/Work/DeviceTester/amazon-freertos/lib/third_party/mbedtls/library\pkparse.c **** 
 526:D:/Work/DeviceTester/amazon-freertos/lib/third_party/mbedtls/library\pkparse.c ****     /* Import N */
 527:D:/Work/DeviceTester/amazon-freertos/lib/third_party/mbedtls/library\pkparse.c ****     if( ( ret = mbedtls_asn1_get_tag( p, end, &len, MBEDTLS_ASN1_INTEGER ) ) != 0 )
 528:D:/Work/DeviceTester/amazon-freertos/lib/third_party/mbedtls/library\pkparse.c ****         return( MBEDTLS_ERR_PK_INVALID_PUBKEY + ret );
 529:D:/Work/DeviceTester/amazon-freertos/lib/third_party/mbedtls/library\pkparse.c **** 
 530:D:/Work/DeviceTester/amazon-freertos/lib/third_party/mbedtls/library\pkparse.c ****     if( ( ret = mbedtls_rsa_import_raw( rsa, *p, len, NULL, 0, NULL, 0,
 531:D:/Work/DeviceTester/amazon-freertos/lib/third_party/mbedtls/library\pkparse.c ****                                         NULL, 0, NULL, 0 ) ) != 0 )
 532:D:/Work/DeviceTester/amazon-freertos/lib/third_party/mbedtls/library\pkparse.c ****         return( MBEDTLS_ERR_PK_INVALID_PUBKEY );
 533:D:/Work/DeviceTester/amazon-freertos/lib/third_party/mbedtls/library\pkparse.c **** 
 534:D:/Work/DeviceTester/amazon-freertos/lib/third_party/mbedtls/library\pkparse.c ****     *p += len;
 535:D:/Work/DeviceTester/amazon-freertos/lib/third_party/mbedtls/library\pkparse.c **** 
 536:D:/Work/DeviceTester/amazon-freertos/lib/third_party/mbedtls/library\pkparse.c ****     /* Import E */
 537:D:/Work/DeviceTester/amazon-freertos/lib/third_party/mbedtls/library\pkparse.c ****     if( ( ret = mbedtls_asn1_get_tag( p, end, &len, MBEDTLS_ASN1_INTEGER ) ) != 0 )
 538:D:/Work/DeviceTester/amazon-freertos/lib/third_party/mbedtls/library\pkparse.c ****         return( MBEDTLS_ERR_PK_INVALID_PUBKEY + ret );
 539:D:/Work/DeviceTester/amazon-freertos/lib/third_party/mbedtls/library\pkparse.c **** 
 540:D:/Work/DeviceTester/amazon-freertos/lib/third_party/mbedtls/library\pkparse.c ****     if( ( ret = mbedtls_rsa_import_raw( rsa, NULL, 0, NULL, 0, NULL, 0,
 541:D:/Work/DeviceTester/amazon-freertos/lib/third_party/mbedtls/library\pkparse.c ****                                         NULL, 0, *p, len ) ) != 0 )
 542:D:/Work/DeviceTester/amazon-freertos/lib/third_party/mbedtls/library\pkparse.c ****         return( MBEDTLS_ERR_PK_INVALID_PUBKEY );
 543:D:/Work/DeviceTester/amazon-freertos/lib/third_party/mbedtls/library\pkparse.c **** 
 544:D:/Work/DeviceTester/amazon-freertos/lib/third_party/mbedtls/library\pkparse.c ****     *p += len;
 545:D:/Work/DeviceTester/amazon-freertos/lib/third_party/mbedtls/library\pkparse.c **** 
 546:D:/Work/DeviceTester/amazon-freertos/lib/third_party/mbedtls/library\pkparse.c ****     if( mbedtls_rsa_complete( rsa ) != 0 ||
 547:D:/Work/DeviceTester/amazon-freertos/lib/third_party/mbedtls/library\pkparse.c ****         mbedtls_rsa_check_pubkey( rsa ) != 0 )
 548:D:/Work/DeviceTester/amazon-freertos/lib/third_party/mbedtls/library\pkparse.c ****     {
 549:D:/Work/DeviceTester/amazon-freertos/lib/third_party/mbedtls/library\pkparse.c ****         return( MBEDTLS_ERR_PK_INVALID_PUBKEY );
 550:D:/Work/DeviceTester/amazon-freertos/lib/third_party/mbedtls/library\pkparse.c ****     }
 551:D:/Work/DeviceTester/amazon-freertos/lib/third_party/mbedtls/library\pkparse.c **** 
 552:D:/Work/DeviceTester/amazon-freertos/lib/third_party/mbedtls/library\pkparse.c ****     if( *p != end )
 553:D:/Work/DeviceTester/amazon-freertos/lib/third_party/mbedtls/library\pkparse.c ****         return( MBEDTLS_ERR_PK_INVALID_PUBKEY +
 554:D:/Work/DeviceTester/amazon-freertos/lib/third_party/mbedtls/library\pkparse.c ****                 MBEDTLS_ERR_ASN1_LENGTH_MISMATCH );
 555:D:/Work/DeviceTester/amazon-freertos/lib/third_party/mbedtls/library\pkparse.c **** 
 556:D:/Work/DeviceTester/amazon-freertos/lib/third_party/mbedtls/library\pkparse.c ****     return( 0 );
 557:D:/Work/DeviceTester/amazon-freertos/lib/third_party/mbedtls/library\pkparse.c **** }
  66              		.loc 1 557 0
  67 0044 28D08DE2 		add	sp, sp, #40
  68              		.cfi_remember_state
  69              		.cfi_def_cfa_offset 16
  70              		@ sp needed
  71 0048 7080BDE8 		pop	{r4, r5, r6, pc}
  72              	.LVL4:
  73              	.L4:
  74              		.cfi_restore_state
 527:D:/Work/DeviceTester/amazon-freertos/lib/third_party/mbedtls/library\pkparse.c ****         return( MBEDTLS_ERR_PK_INVALID_PUBKEY + ret );
  75              		.loc 1 527 0
  76 004c 0230A0E3 		mov	r3, #2
  77 0050 24208DE2 		add	r2, sp, #36
  78 0054 0510A0E1 		mov	r1, r5
  79 0058 0400A0E1 		mov	r0, r4
  80 005c FEFFFFEB 		bl	mbedtls_asn1_get_tag
  81              	.LVL5:
  82 0060 003050E2 		subs	r3, r0, #0
  83 0064 0100000A 		beq	.L5
  84              	.L11:
 538:D:/Work/DeviceTester/amazon-freertos/lib/third_party/mbedtls/library\pkparse.c **** 
  85              		.loc 1 538 0
  86 0068 3B0C43E2 		sub	r0, r3, #15104
  87              	.LVL6:
  88 006c F4FFFFEA 		b	.L1
  89              	.LVL7:
  90              	.L5:
 530:D:/Work/DeviceTester/amazon-freertos/lib/third_party/mbedtls/library\pkparse.c ****                                         NULL, 0, NULL, 0 ) ) != 0 )
  91              		.loc 1 530 0
  92 0070 18308DE5 		str	r3, [sp, #24]
  93 0074 0600A0E1 		mov	r0, r6
  94              	.LVL8:
  95 0078 14308DE5 		str	r3, [sp, #20]
  96 007c 10308DE5 		str	r3, [sp, #16]
  97 0080 0C308DE5 		str	r3, [sp, #12]
  98 0084 08308DE5 		str	r3, [sp, #8]
  99 0088 04308DE5 		str	r3, [sp, #4]
 100 008c 00308DE5 		str	r3, [sp]
 101 0090 24209DE5 		ldr	r2, [sp, #36]
 102 0094 001094E5 		ldr	r1, [r4]
 103 0098 FEFFFFEB 		bl	mbedtls_rsa_import_raw
 104              	.LVL9:
 105 009c 000050E3 		cmp	r0, #0
 106 00a0 0100000A 		beq	.L6
 107              	.LVL10:
 108              	.L8:
 532:D:/Work/DeviceTester/amazon-freertos/lib/third_party/mbedtls/library\pkparse.c **** 
 109              		.loc 1 532 0
 110 00a4 AC009FE5 		ldr	r0, .L12+4
 111 00a8 E5FFFFEA 		b	.L1
 112              	.LVL11:
 113              	.L6:
 534:D:/Work/DeviceTester/amazon-freertos/lib/third_party/mbedtls/library\pkparse.c **** 
 114              		.loc 1 534 0
 115 00ac 003094E5 		ldr	r3, [r4]
 537:D:/Work/DeviceTester/amazon-freertos/lib/third_party/mbedtls/library\pkparse.c ****         return( MBEDTLS_ERR_PK_INVALID_PUBKEY + ret );
 116              		.loc 1 537 0
 117 00b0 0510A0E1 		mov	r1, r5
 534:D:/Work/DeviceTester/amazon-freertos/lib/third_party/mbedtls/library\pkparse.c **** 
 118              		.loc 1 534 0
 119 00b4 24209DE5 		ldr	r2, [sp, #36]
 537:D:/Work/DeviceTester/amazon-freertos/lib/third_party/mbedtls/library\pkparse.c ****         return( MBEDTLS_ERR_PK_INVALID_PUBKEY + ret );
 120              		.loc 1 537 0
 121 00b8 0400A0E1 		mov	r0, r4
 122              	.LVL12:
 534:D:/Work/DeviceTester/amazon-freertos/lib/third_party/mbedtls/library\pkparse.c **** 
 123              		.loc 1 534 0
 124 00bc 023083E0 		add	r3, r3, r2
 537:D:/Work/DeviceTester/amazon-freertos/lib/third_party/mbedtls/library\pkparse.c ****         return( MBEDTLS_ERR_PK_INVALID_PUBKEY + ret );
 125              		.loc 1 537 0
 126 00c0 24208DE2 		add	r2, sp, #36
 534:D:/Work/DeviceTester/amazon-freertos/lib/third_party/mbedtls/library\pkparse.c **** 
 127              		.loc 1 534 0
 128 00c4 003084E5 		str	r3, [r4]
 537:D:/Work/DeviceTester/amazon-freertos/lib/third_party/mbedtls/library\pkparse.c ****         return( MBEDTLS_ERR_PK_INVALID_PUBKEY + ret );
 129              		.loc 1 537 0
 130 00c8 0230A0E3 		mov	r3, #2
 131 00cc FEFFFFEB 		bl	mbedtls_asn1_get_tag
 132              	.LVL13:
 133 00d0 003050E2 		subs	r3, r0, #0
 134 00d4 E3FFFF1A 		bne	.L11
 540:D:/Work/DeviceTester/amazon-freertos/lib/third_party/mbedtls/library\pkparse.c ****                                         NULL, 0, *p, len ) ) != 0 )
 135              		.loc 1 540 0
 136 00d8 24209DE5 		ldr	r2, [sp, #36]
 137 00dc 0310A0E1 		mov	r1, r3
 138 00e0 10308DE5 		str	r3, [sp, #16]
 139 00e4 0600A0E1 		mov	r0, r6
 140              	.LVL14:
 141 00e8 0C308DE5 		str	r3, [sp, #12]
 142 00ec 18208DE5 		str	r2, [sp, #24]
 143 00f0 002094E5 		ldr	r2, [r4]
 144 00f4 08308DE5 		str	r3, [sp, #8]
 145 00f8 04308DE5 		str	r3, [sp, #4]
 146 00fc 14208DE5 		str	r2, [sp, #20]
 147 0100 0320A0E1 		mov	r2, r3
 148 0104 00308DE5 		str	r3, [sp]
 149 0108 FEFFFFEB 		bl	mbedtls_rsa_import_raw
 150              	.LVL15:
 151 010c 000050E3 		cmp	r0, #0
 152 0110 E3FFFF1A 		bne	.L8
 544:D:/Work/DeviceTester/amazon-freertos/lib/third_party/mbedtls/library\pkparse.c **** 
 153              		.loc 1 544 0
 154 0114 003094E5 		ldr	r3, [r4]
 546:D:/Work/DeviceTester/amazon-freertos/lib/third_party/mbedtls/library\pkparse.c ****         mbedtls_rsa_check_pubkey( rsa ) != 0 )
 155              		.loc 1 546 0
 156 0118 0600A0E1 		mov	r0, r6
 157              	.LVL16:
 544:D:/Work/DeviceTester/amazon-freertos/lib/third_party/mbedtls/library\pkparse.c **** 
 158              		.loc 1 544 0
 159 011c 24209DE5 		ldr	r2, [sp, #36]
 160 0120 023083E0 		add	r3, r3, r2
 161 0124 003084E5 		str	r3, [r4]
 546:D:/Work/DeviceTester/amazon-freertos/lib/third_party/mbedtls/library\pkparse.c ****         mbedtls_rsa_check_pubkey( rsa ) != 0 )
 162              		.loc 1 546 0
 163 0128 FEFFFFEB 		bl	mbedtls_rsa_complete
 164              	.LVL17:
 165 012c 000050E3 		cmp	r0, #0
 166 0130 DBFFFF1A 		bne	.L8
 547:D:/Work/DeviceTester/amazon-freertos/lib/third_party/mbedtls/library\pkparse.c ****     {
 167              		.loc 1 547 0 discriminator 1
 168 0134 0600A0E1 		mov	r0, r6
 169 0138 FEFFFFEB 		bl	mbedtls_rsa_check_pubkey
 170              	.LVL18:
 546:D:/Work/DeviceTester/amazon-freertos/lib/third_party/mbedtls/library\pkparse.c ****         mbedtls_rsa_check_pubkey( rsa ) != 0 )
 171              		.loc 1 546 0 discriminator 1
 172 013c 000050E3 		cmp	r0, #0
 173 0140 D7FFFF1A 		bne	.L8
 552:D:/Work/DeviceTester/amazon-freertos/lib/third_party/mbedtls/library\pkparse.c ****         return( MBEDTLS_ERR_PK_INVALID_PUBKEY +
 174              		.loc 1 552 0
 175 0144 003094E5 		ldr	r3, [r4]
 176 0148 030055E1 		cmp	r5, r3
 177 014c BCFFFF0A 		beq	.L1
 178 0150 BAFFFFEA 		b	.L9
 179              	.L13:
 180              		.align	2
 181              	.L12:
 182 0154 9AC4FFFF 		.word	-15206
 183 0158 00C5FFFF 		.word	-15104
 184              		.cfi_endproc
 185              	.LFE14:
 187              		.section	.text.pk_use_ecparams,"ax",%progbits
 188              		.align	2
 189              		.syntax unified
 190              		.arm
 191              		.fpu neon
 193              	pk_use_ecparams:
 194              	.LFB12:
 446:D:/Work/DeviceTester/amazon-freertos/lib/third_party/mbedtls/library\pkparse.c ****     int ret;
 195              		.loc 1 446 0
 196              		.cfi_startproc
 197              		@ args = 0, pretend = 0, frame = 8
 198              		@ frame_needed = 0, uses_anonymous_args = 0
 199              	.LVL19:
 450:D:/Work/DeviceTester/amazon-freertos/lib/third_party/mbedtls/library\pkparse.c ****     {
 200              		.loc 1 450 0
 201 0000 003090E5 		ldr	r3, [r0]
 446:D:/Work/DeviceTester/amazon-freertos/lib/third_party/mbedtls/library\pkparse.c ****     int ret;
 202              		.loc 1 446 0
 203 0004 13402DE9 		push	{r0, r1, r4, lr}
 204              		.cfi_def_cfa_offset 16
 205              		.cfi_offset 4, -8
 206              		.cfi_offset 14, -4
 450:D:/Work/DeviceTester/amazon-freertos/lib/third_party/mbedtls/library\pkparse.c ****     {
 207              		.loc 1 450 0
 208 0008 060053E3 		cmp	r3, #6
 209 000c 0200000A 		beq	.L15
 210              	.LVL20:
 211              	.L18:
 461:D:/Work/DeviceTester/amazon-freertos/lib/third_party/mbedtls/library\pkparse.c **** #endif
 212              		.loc 1 461 0
 213 0010 40009FE5 		ldr	r0, .L24
 214              	.L14:
 475:D:/Work/DeviceTester/amazon-freertos/lib/third_party/mbedtls/library\pkparse.c **** 
 215              		.loc 1 475 0
 216 0014 08D08DE2 		add	sp, sp, #8
 217              		.cfi_remember_state
 218              		.cfi_def_cfa_offset 8
 219              		@ sp needed
 220 0018 1080BDE8 		pop	{r4, pc}
 221              	.LVL21:
 222              	.L15:
 223              		.cfi_restore_state
 224 001c 0140A0E1 		mov	r4, r1
 452:D:/Work/DeviceTester/amazon-freertos/lib/third_party/mbedtls/library\pkparse.c ****             return( MBEDTLS_ERR_PK_UNKNOWN_NAMED_CURVE );
 225              		.loc 1 452 0
 226 0020 07108DE2 		add	r1, sp, #7
 227              	.LVL22:
 228 0024 FEFFFFEB 		bl	mbedtls_oid_get_ec_grp
 229              	.LVL23:
 230 0028 000050E3 		cmp	r0, #0
 453:D:/Work/DeviceTester/amazon-freertos/lib/third_party/mbedtls/library\pkparse.c ****     }
 231              		.loc 1 453 0
 232 002c 28009F15 		ldrne	r0, .L24+4
 452:D:/Work/DeviceTester/amazon-freertos/lib/third_party/mbedtls/library\pkparse.c ****             return( MBEDTLS_ERR_PK_UNKNOWN_NAMED_CURVE );
 233              		.loc 1 452 0
 234 0030 F7FFFF1A 		bne	.L14
 468:D:/Work/DeviceTester/amazon-freertos/lib/third_party/mbedtls/library\pkparse.c ****         return( MBEDTLS_ERR_PK_KEY_INVALID_FORMAT );
 235              		.loc 1 468 0
 236 0034 0030D4E5 		ldrb	r3, [r4]	@ zero_extendqisi2
 237 0038 0710DDE5 		ldrb	r1, [sp, #7]	@ zero_extendqisi2
 238 003c 000053E3 		cmp	r3, #0
 239 0040 0100000A 		beq	.L17
 468:D:/Work/DeviceTester/amazon-freertos/lib/third_party/mbedtls/library\pkparse.c ****         return( MBEDTLS_ERR_PK_KEY_INVALID_FORMAT );
 240              		.loc 1 468 0 is_stmt 0 discriminator 1
 241 0044 030051E1 		cmp	r1, r3
 242 0048 F0FFFF1A 		bne	.L18
 243              	.L17:
 471:D:/Work/DeviceTester/amazon-freertos/lib/third_party/mbedtls/library\pkparse.c ****         return( ret );
 244              		.loc 1 471 0 is_stmt 1
 245 004c 0400A0E1 		mov	r0, r4
 246 0050 FEFFFFEB 		bl	mbedtls_ecp_group_load
 247              	.LVL24:
 248 0054 EEFFFFEA 		b	.L14
 249              	.L25:
 250              		.align	2
 251              	.L24:
 252 0058 00C3FFFF 		.word	-15616
 253 005c 00C6FFFF 		.word	-14848
 254              		.cfi_endproc
 255              	.LFE12:
 257              		.section	.text.pk_parse_key_pkcs1_der,"ax",%progbits
 258              		.align	2
 259              		.syntax unified
 260              		.arm
 261              		.fpu neon
 263              	pk_parse_key_pkcs1_der:
 264              	.LFB17:
 558:D:/Work/DeviceTester/amazon-freertos/lib/third_party/mbedtls/library\pkparse.c **** #endif /* MBEDTLS_RSA_C */
 559:D:/Work/DeviceTester/amazon-freertos/lib/third_party/mbedtls/library\pkparse.c **** 
 560:D:/Work/DeviceTester/amazon-freertos/lib/third_party/mbedtls/library\pkparse.c **** /* Get a PK algorithm identifier
 561:D:/Work/DeviceTester/amazon-freertos/lib/third_party/mbedtls/library\pkparse.c ****  *
 562:D:/Work/DeviceTester/amazon-freertos/lib/third_party/mbedtls/library\pkparse.c ****  *  AlgorithmIdentifier  ::=  SEQUENCE  {
 563:D:/Work/DeviceTester/amazon-freertos/lib/third_party/mbedtls/library\pkparse.c ****  *       algorithm               OBJECT IDENTIFIER,
 564:D:/Work/DeviceTester/amazon-freertos/lib/third_party/mbedtls/library\pkparse.c ****  *       parameters              ANY DEFINED BY algorithm OPTIONAL  }
 565:D:/Work/DeviceTester/amazon-freertos/lib/third_party/mbedtls/library\pkparse.c ****  */
 566:D:/Work/DeviceTester/amazon-freertos/lib/third_party/mbedtls/library\pkparse.c **** static int pk_get_pk_alg( unsigned char **p,
 567:D:/Work/DeviceTester/amazon-freertos/lib/third_party/mbedtls/library\pkparse.c ****                           const unsigned char *end,
 568:D:/Work/DeviceTester/amazon-freertos/lib/third_party/mbedtls/library\pkparse.c ****                           mbedtls_pk_type_t *pk_alg, mbedtls_asn1_buf *params )
 569:D:/Work/DeviceTester/amazon-freertos/lib/third_party/mbedtls/library\pkparse.c **** {
 570:D:/Work/DeviceTester/amazon-freertos/lib/third_party/mbedtls/library\pkparse.c ****     int ret;
 571:D:/Work/DeviceTester/amazon-freertos/lib/third_party/mbedtls/library\pkparse.c ****     mbedtls_asn1_buf alg_oid;
 572:D:/Work/DeviceTester/amazon-freertos/lib/third_party/mbedtls/library\pkparse.c **** 
 573:D:/Work/DeviceTester/amazon-freertos/lib/third_party/mbedtls/library\pkparse.c ****     memset( params, 0, sizeof(mbedtls_asn1_buf) );
 574:D:/Work/DeviceTester/amazon-freertos/lib/third_party/mbedtls/library\pkparse.c **** 
 575:D:/Work/DeviceTester/amazon-freertos/lib/third_party/mbedtls/library\pkparse.c ****     if( ( ret = mbedtls_asn1_get_alg( p, end, &alg_oid, params ) ) != 0 )
 576:D:/Work/DeviceTester/amazon-freertos/lib/third_party/mbedtls/library\pkparse.c ****         return( MBEDTLS_ERR_PK_INVALID_ALG + ret );
 577:D:/Work/DeviceTester/amazon-freertos/lib/third_party/mbedtls/library\pkparse.c **** 
 578:D:/Work/DeviceTester/amazon-freertos/lib/third_party/mbedtls/library\pkparse.c ****     if( mbedtls_oid_get_pk_alg( &alg_oid, pk_alg ) != 0 )
 579:D:/Work/DeviceTester/amazon-freertos/lib/third_party/mbedtls/library\pkparse.c ****         return( MBEDTLS_ERR_PK_UNKNOWN_PK_ALG );
 580:D:/Work/DeviceTester/amazon-freertos/lib/third_party/mbedtls/library\pkparse.c **** 
 581:D:/Work/DeviceTester/amazon-freertos/lib/third_party/mbedtls/library\pkparse.c ****     /*
 582:D:/Work/DeviceTester/amazon-freertos/lib/third_party/mbedtls/library\pkparse.c ****      * No parameters with RSA (only for EC)
 583:D:/Work/DeviceTester/amazon-freertos/lib/third_party/mbedtls/library\pkparse.c ****      */
 584:D:/Work/DeviceTester/amazon-freertos/lib/third_party/mbedtls/library\pkparse.c ****     if( *pk_alg == MBEDTLS_PK_RSA &&
 585:D:/Work/DeviceTester/amazon-freertos/lib/third_party/mbedtls/library\pkparse.c ****             ( ( params->tag != MBEDTLS_ASN1_NULL && params->tag != 0 ) ||
 586:D:/Work/DeviceTester/amazon-freertos/lib/third_party/mbedtls/library\pkparse.c ****                 params->len != 0 ) )
 587:D:/Work/DeviceTester/amazon-freertos/lib/third_party/mbedtls/library\pkparse.c ****     {
 588:D:/Work/DeviceTester/amazon-freertos/lib/third_party/mbedtls/library\pkparse.c ****         return( MBEDTLS_ERR_PK_INVALID_ALG );
 589:D:/Work/DeviceTester/amazon-freertos/lib/third_party/mbedtls/library\pkparse.c ****     }
 590:D:/Work/DeviceTester/amazon-freertos/lib/third_party/mbedtls/library\pkparse.c **** 
 591:D:/Work/DeviceTester/amazon-freertos/lib/third_party/mbedtls/library\pkparse.c ****     return( 0 );
 592:D:/Work/DeviceTester/amazon-freertos/lib/third_party/mbedtls/library\pkparse.c **** }
 593:D:/Work/DeviceTester/amazon-freertos/lib/third_party/mbedtls/library\pkparse.c **** 
 594:D:/Work/DeviceTester/amazon-freertos/lib/third_party/mbedtls/library\pkparse.c **** /*
 595:D:/Work/DeviceTester/amazon-freertos/lib/third_party/mbedtls/library\pkparse.c ****  *  SubjectPublicKeyInfo  ::=  SEQUENCE  {
 596:D:/Work/DeviceTester/amazon-freertos/lib/third_party/mbedtls/library\pkparse.c ****  *       algorithm            AlgorithmIdentifier,
 597:D:/Work/DeviceTester/amazon-freertos/lib/third_party/mbedtls/library\pkparse.c ****  *       subjectPublicKey     BIT STRING }
 598:D:/Work/DeviceTester/amazon-freertos/lib/third_party/mbedtls/library\pkparse.c ****  */
 599:D:/Work/DeviceTester/amazon-freertos/lib/third_party/mbedtls/library\pkparse.c **** int mbedtls_pk_parse_subpubkey( unsigned char **p, const unsigned char *end,
 600:D:/Work/DeviceTester/amazon-freertos/lib/third_party/mbedtls/library\pkparse.c ****                         mbedtls_pk_context *pk )
 601:D:/Work/DeviceTester/amazon-freertos/lib/third_party/mbedtls/library\pkparse.c **** {
 602:D:/Work/DeviceTester/amazon-freertos/lib/third_party/mbedtls/library\pkparse.c ****     int ret;
 603:D:/Work/DeviceTester/amazon-freertos/lib/third_party/mbedtls/library\pkparse.c ****     size_t len;
 604:D:/Work/DeviceTester/amazon-freertos/lib/third_party/mbedtls/library\pkparse.c ****     mbedtls_asn1_buf alg_params;
 605:D:/Work/DeviceTester/amazon-freertos/lib/third_party/mbedtls/library\pkparse.c ****     mbedtls_pk_type_t pk_alg = MBEDTLS_PK_NONE;
 606:D:/Work/DeviceTester/amazon-freertos/lib/third_party/mbedtls/library\pkparse.c ****     const mbedtls_pk_info_t *pk_info;
 607:D:/Work/DeviceTester/amazon-freertos/lib/third_party/mbedtls/library\pkparse.c **** 
 608:D:/Work/DeviceTester/amazon-freertos/lib/third_party/mbedtls/library\pkparse.c ****     if( ( ret = mbedtls_asn1_get_tag( p, end, &len,
 609:D:/Work/DeviceTester/amazon-freertos/lib/third_party/mbedtls/library\pkparse.c ****                     MBEDTLS_ASN1_CONSTRUCTED | MBEDTLS_ASN1_SEQUENCE ) ) != 0 )
 610:D:/Work/DeviceTester/amazon-freertos/lib/third_party/mbedtls/library\pkparse.c ****     {
 611:D:/Work/DeviceTester/amazon-freertos/lib/third_party/mbedtls/library\pkparse.c ****         return( MBEDTLS_ERR_PK_KEY_INVALID_FORMAT + ret );
 612:D:/Work/DeviceTester/amazon-freertos/lib/third_party/mbedtls/library\pkparse.c ****     }
 613:D:/Work/DeviceTester/amazon-freertos/lib/third_party/mbedtls/library\pkparse.c **** 
 614:D:/Work/DeviceTester/amazon-freertos/lib/third_party/mbedtls/library\pkparse.c ****     end = *p + len;
 615:D:/Work/DeviceTester/amazon-freertos/lib/third_party/mbedtls/library\pkparse.c **** 
 616:D:/Work/DeviceTester/amazon-freertos/lib/third_party/mbedtls/library\pkparse.c ****     if( ( ret = pk_get_pk_alg( p, end, &pk_alg, &alg_params ) ) != 0 )
 617:D:/Work/DeviceTester/amazon-freertos/lib/third_party/mbedtls/library\pkparse.c ****         return( ret );
 618:D:/Work/DeviceTester/amazon-freertos/lib/third_party/mbedtls/library\pkparse.c **** 
 619:D:/Work/DeviceTester/amazon-freertos/lib/third_party/mbedtls/library\pkparse.c ****     if( ( ret = mbedtls_asn1_get_bitstring_null( p, end, &len ) ) != 0 )
 620:D:/Work/DeviceTester/amazon-freertos/lib/third_party/mbedtls/library\pkparse.c ****         return( MBEDTLS_ERR_PK_INVALID_PUBKEY + ret );
 621:D:/Work/DeviceTester/amazon-freertos/lib/third_party/mbedtls/library\pkparse.c **** 
 622:D:/Work/DeviceTester/amazon-freertos/lib/third_party/mbedtls/library\pkparse.c ****     if( *p + len != end )
 623:D:/Work/DeviceTester/amazon-freertos/lib/third_party/mbedtls/library\pkparse.c ****         return( MBEDTLS_ERR_PK_INVALID_PUBKEY +
 624:D:/Work/DeviceTester/amazon-freertos/lib/third_party/mbedtls/library\pkparse.c ****                 MBEDTLS_ERR_ASN1_LENGTH_MISMATCH );
 625:D:/Work/DeviceTester/amazon-freertos/lib/third_party/mbedtls/library\pkparse.c **** 
 626:D:/Work/DeviceTester/amazon-freertos/lib/third_party/mbedtls/library\pkparse.c ****     if( ( pk_info = mbedtls_pk_info_from_type( pk_alg ) ) == NULL )
 627:D:/Work/DeviceTester/amazon-freertos/lib/third_party/mbedtls/library\pkparse.c ****         return( MBEDTLS_ERR_PK_UNKNOWN_PK_ALG );
 628:D:/Work/DeviceTester/amazon-freertos/lib/third_party/mbedtls/library\pkparse.c **** 
 629:D:/Work/DeviceTester/amazon-freertos/lib/third_party/mbedtls/library\pkparse.c ****     if( ( ret = mbedtls_pk_setup( pk, pk_info ) ) != 0 )
 630:D:/Work/DeviceTester/amazon-freertos/lib/third_party/mbedtls/library\pkparse.c ****         return( ret );
 631:D:/Work/DeviceTester/amazon-freertos/lib/third_party/mbedtls/library\pkparse.c **** 
 632:D:/Work/DeviceTester/amazon-freertos/lib/third_party/mbedtls/library\pkparse.c **** #if defined(MBEDTLS_RSA_C)
 633:D:/Work/DeviceTester/amazon-freertos/lib/third_party/mbedtls/library\pkparse.c ****     if( pk_alg == MBEDTLS_PK_RSA )
 634:D:/Work/DeviceTester/amazon-freertos/lib/third_party/mbedtls/library\pkparse.c ****     {
 635:D:/Work/DeviceTester/amazon-freertos/lib/third_party/mbedtls/library\pkparse.c ****         ret = pk_get_rsapubkey( p, end, mbedtls_pk_rsa( *pk ) );
 636:D:/Work/DeviceTester/amazon-freertos/lib/third_party/mbedtls/library\pkparse.c ****     } else
 637:D:/Work/DeviceTester/amazon-freertos/lib/third_party/mbedtls/library\pkparse.c **** #endif /* MBEDTLS_RSA_C */
 638:D:/Work/DeviceTester/amazon-freertos/lib/third_party/mbedtls/library\pkparse.c **** #if defined(MBEDTLS_ECP_C)
 639:D:/Work/DeviceTester/amazon-freertos/lib/third_party/mbedtls/library\pkparse.c ****     if( pk_alg == MBEDTLS_PK_ECKEY_DH || pk_alg == MBEDTLS_PK_ECKEY )
 640:D:/Work/DeviceTester/amazon-freertos/lib/third_party/mbedtls/library\pkparse.c ****     {
 641:D:/Work/DeviceTester/amazon-freertos/lib/third_party/mbedtls/library\pkparse.c ****         ret = pk_use_ecparams( &alg_params, &mbedtls_pk_ec( *pk )->grp );
 642:D:/Work/DeviceTester/amazon-freertos/lib/third_party/mbedtls/library\pkparse.c ****         if( ret == 0 )
 643:D:/Work/DeviceTester/amazon-freertos/lib/third_party/mbedtls/library\pkparse.c ****             ret = pk_get_ecpubkey( p, end, mbedtls_pk_ec( *pk ) );
 644:D:/Work/DeviceTester/amazon-freertos/lib/third_party/mbedtls/library\pkparse.c ****     } else
 645:D:/Work/DeviceTester/amazon-freertos/lib/third_party/mbedtls/library\pkparse.c **** #endif /* MBEDTLS_ECP_C */
 646:D:/Work/DeviceTester/amazon-freertos/lib/third_party/mbedtls/library\pkparse.c ****         ret = MBEDTLS_ERR_PK_UNKNOWN_PK_ALG;
 647:D:/Work/DeviceTester/amazon-freertos/lib/third_party/mbedtls/library\pkparse.c **** 
 648:D:/Work/DeviceTester/amazon-freertos/lib/third_party/mbedtls/library\pkparse.c ****     if( ret == 0 && *p != end )
 649:D:/Work/DeviceTester/amazon-freertos/lib/third_party/mbedtls/library\pkparse.c ****         ret = MBEDTLS_ERR_PK_INVALID_PUBKEY
 650:D:/Work/DeviceTester/amazon-freertos/lib/third_party/mbedtls/library\pkparse.c ****               MBEDTLS_ERR_ASN1_LENGTH_MISMATCH;
 651:D:/Work/DeviceTester/amazon-freertos/lib/third_party/mbedtls/library\pkparse.c **** 
 652:D:/Work/DeviceTester/amazon-freertos/lib/third_party/mbedtls/library\pkparse.c ****     if( ret != 0 )
 653:D:/Work/DeviceTester/amazon-freertos/lib/third_party/mbedtls/library\pkparse.c ****         mbedtls_pk_free( pk );
 654:D:/Work/DeviceTester/amazon-freertos/lib/third_party/mbedtls/library\pkparse.c **** 
 655:D:/Work/DeviceTester/amazon-freertos/lib/third_party/mbedtls/library\pkparse.c ****     return( ret );
 656:D:/Work/DeviceTester/amazon-freertos/lib/third_party/mbedtls/library\pkparse.c **** }
 657:D:/Work/DeviceTester/amazon-freertos/lib/third_party/mbedtls/library\pkparse.c **** 
 658:D:/Work/DeviceTester/amazon-freertos/lib/third_party/mbedtls/library\pkparse.c **** #if defined(MBEDTLS_RSA_C)
 659:D:/Work/DeviceTester/amazon-freertos/lib/third_party/mbedtls/library\pkparse.c **** /*
 660:D:/Work/DeviceTester/amazon-freertos/lib/third_party/mbedtls/library\pkparse.c ****  * Parse a PKCS#1 encoded private RSA key
 661:D:/Work/DeviceTester/amazon-freertos/lib/third_party/mbedtls/library\pkparse.c ****  */
 662:D:/Work/DeviceTester/amazon-freertos/lib/third_party/mbedtls/library\pkparse.c **** static int pk_parse_key_pkcs1_der( mbedtls_rsa_context *rsa,
 663:D:/Work/DeviceTester/amazon-freertos/lib/third_party/mbedtls/library\pkparse.c ****                                    const unsigned char *key,
 664:D:/Work/DeviceTester/amazon-freertos/lib/third_party/mbedtls/library\pkparse.c ****                                    size_t keylen )
 665:D:/Work/DeviceTester/amazon-freertos/lib/third_party/mbedtls/library\pkparse.c **** {
 265              		.loc 1 665 0
 266              		.cfi_startproc
 267              		@ args = 0, pretend = 0, frame = 24
 268              		@ frame_needed = 0, uses_anonymous_args = 0
 269              	.LVL25:
 270 0000 70402DE9 		push	{r4, r5, r6, lr}
 271              		.cfi_def_cfa_offset 16
 272              		.cfi_offset 4, -16
 273              		.cfi_offset 5, -12
 274              		.cfi_offset 6, -8
 275              		.cfi_offset 14, -4
 276 0004 38D04DE2 		sub	sp, sp, #56
 277              		.cfi_def_cfa_offset 72
 278              		.loc 1 665 0
 279 0008 0140A0E1 		mov	r4, r1
 280 000c 0250A0E1 		mov	r5, r2
 281 0010 0060A0E1 		mov	r6, r0
 666:D:/Work/DeviceTester/amazon-freertos/lib/third_party/mbedtls/library\pkparse.c ****     int ret, version;
 667:D:/Work/DeviceTester/amazon-freertos/lib/third_party/mbedtls/library\pkparse.c ****     size_t len;
 668:D:/Work/DeviceTester/amazon-freertos/lib/third_party/mbedtls/library\pkparse.c ****     unsigned char *p, *end;
 669:D:/Work/DeviceTester/amazon-freertos/lib/third_party/mbedtls/library\pkparse.c **** 
 670:D:/Work/DeviceTester/amazon-freertos/lib/third_party/mbedtls/library\pkparse.c ****     mbedtls_mpi T;
 671:D:/Work/DeviceTester/amazon-freertos/lib/third_party/mbedtls/library\pkparse.c ****     mbedtls_mpi_init( &T );
 282              		.loc 1 671 0
 283 0014 2C008DE2 		add	r0, sp, #44
 284              	.LVL26:
 285 0018 FEFFFFEB 		bl	mbedtls_mpi_init
 286              	.LVL27:
 672:D:/Work/DeviceTester/amazon-freertos/lib/third_party/mbedtls/library\pkparse.c **** 
 673:D:/Work/DeviceTester/amazon-freertos/lib/third_party/mbedtls/library\pkparse.c ****     p = (unsigned char *) key;
 674:D:/Work/DeviceTester/amazon-freertos/lib/third_party/mbedtls/library\pkparse.c ****     end = p + keylen;
 675:D:/Work/DeviceTester/amazon-freertos/lib/third_party/mbedtls/library\pkparse.c **** 
 676:D:/Work/DeviceTester/amazon-freertos/lib/third_party/mbedtls/library\pkparse.c ****     /*
 677:D:/Work/DeviceTester/amazon-freertos/lib/third_party/mbedtls/library\pkparse.c ****      * This function parses the RSAPrivateKey (PKCS#1)
 678:D:/Work/DeviceTester/amazon-freertos/lib/third_party/mbedtls/library\pkparse.c ****      *
 679:D:/Work/DeviceTester/amazon-freertos/lib/third_party/mbedtls/library\pkparse.c ****      *  RSAPrivateKey ::= SEQUENCE {
 680:D:/Work/DeviceTester/amazon-freertos/lib/third_party/mbedtls/library\pkparse.c ****      *      version           Version,
 681:D:/Work/DeviceTester/amazon-freertos/lib/third_party/mbedtls/library\pkparse.c ****      *      modulus           INTEGER,  -- n
 682:D:/Work/DeviceTester/amazon-freertos/lib/third_party/mbedtls/library\pkparse.c ****      *      publicExponent    INTEGER,  -- e
 683:D:/Work/DeviceTester/amazon-freertos/lib/third_party/mbedtls/library\pkparse.c ****      *      privateExponent   INTEGER,  -- d
 684:D:/Work/DeviceTester/amazon-freertos/lib/third_party/mbedtls/library\pkparse.c ****      *      prime1            INTEGER,  -- p
 685:D:/Work/DeviceTester/amazon-freertos/lib/third_party/mbedtls/library\pkparse.c ****      *      prime2            INTEGER,  -- q
 686:D:/Work/DeviceTester/amazon-freertos/lib/third_party/mbedtls/library\pkparse.c ****      *      exponent1         INTEGER,  -- d mod (p-1)
 687:D:/Work/DeviceTester/amazon-freertos/lib/third_party/mbedtls/library\pkparse.c ****      *      exponent2         INTEGER,  -- d mod (q-1)
 688:D:/Work/DeviceTester/amazon-freertos/lib/third_party/mbedtls/library\pkparse.c ****      *      coefficient       INTEGER,  -- (inverse of q) mod p
 689:D:/Work/DeviceTester/amazon-freertos/lib/third_party/mbedtls/library\pkparse.c ****      *      otherPrimeInfos   OtherPrimeInfos OPTIONAL
 690:D:/Work/DeviceTester/amazon-freertos/lib/third_party/mbedtls/library\pkparse.c ****      *  }
 691:D:/Work/DeviceTester/amazon-freertos/lib/third_party/mbedtls/library\pkparse.c ****      */
 692:D:/Work/DeviceTester/amazon-freertos/lib/third_party/mbedtls/library\pkparse.c ****     if( ( ret = mbedtls_asn1_get_tag( &p, end, &len,
 287              		.loc 1 692 0
 288 001c 3030A0E3 		mov	r3, #48
 289 0020 24208DE2 		add	r2, sp, #36
 290 0024 051084E0 		add	r1, r4, r5
 291 0028 28008DE2 		add	r0, sp, #40
 673:D:/Work/DeviceTester/amazon-freertos/lib/third_party/mbedtls/library\pkparse.c ****     end = p + keylen;
 292              		.loc 1 673 0
 293 002c 28408DE5 		str	r4, [sp, #40]
 294              	.LVL28:
 295              		.loc 1 692 0
 296 0030 FEFFFFEB 		bl	mbedtls_asn1_get_tag
 297              	.LVL29:
 298 0034 000050E3 		cmp	r0, #0
 299 0038 0300000A 		beq	.L27
 300              	.LVL30:
 301              	.L38:
 693:D:/Work/DeviceTester/amazon-freertos/lib/third_party/mbedtls/library\pkparse.c ****             MBEDTLS_ASN1_CONSTRUCTED | MBEDTLS_ASN1_SEQUENCE ) ) != 0 )
 694:D:/Work/DeviceTester/amazon-freertos/lib/third_party/mbedtls/library\pkparse.c ****     {
 695:D:/Work/DeviceTester/amazon-freertos/lib/third_party/mbedtls/library\pkparse.c ****         return( MBEDTLS_ERR_PK_KEY_INVALID_FORMAT + ret );
 696:D:/Work/DeviceTester/amazon-freertos/lib/third_party/mbedtls/library\pkparse.c ****     }
 697:D:/Work/DeviceTester/amazon-freertos/lib/third_party/mbedtls/library\pkparse.c **** 
 698:D:/Work/DeviceTester/amazon-freertos/lib/third_party/mbedtls/library\pkparse.c ****     end = p + len;
 699:D:/Work/DeviceTester/amazon-freertos/lib/third_party/mbedtls/library\pkparse.c **** 
 700:D:/Work/DeviceTester/amazon-freertos/lib/third_party/mbedtls/library\pkparse.c ****     if( ( ret = mbedtls_asn1_get_int( &p, end, &version ) ) != 0 )
 701:D:/Work/DeviceTester/amazon-freertos/lib/third_party/mbedtls/library\pkparse.c ****     {
 702:D:/Work/DeviceTester/amazon-freertos/lib/third_party/mbedtls/library\pkparse.c ****         return( MBEDTLS_ERR_PK_KEY_INVALID_FORMAT + ret );
 302              		.loc 1 702 0
 303 003c 3D4C40E2 		sub	r4, r0, #15616
 304              	.LVL31:
 305              	.L26:
 703:D:/Work/DeviceTester/amazon-freertos/lib/third_party/mbedtls/library\pkparse.c ****     }
 704:D:/Work/DeviceTester/amazon-freertos/lib/third_party/mbedtls/library\pkparse.c **** 
 705:D:/Work/DeviceTester/amazon-freertos/lib/third_party/mbedtls/library\pkparse.c ****     if( version != 0 )
 706:D:/Work/DeviceTester/amazon-freertos/lib/third_party/mbedtls/library\pkparse.c ****     {
 707:D:/Work/DeviceTester/amazon-freertos/lib/third_party/mbedtls/library\pkparse.c ****         return( MBEDTLS_ERR_PK_KEY_INVALID_VERSION );
 708:D:/Work/DeviceTester/amazon-freertos/lib/third_party/mbedtls/library\pkparse.c ****     }
 709:D:/Work/DeviceTester/amazon-freertos/lib/third_party/mbedtls/library\pkparse.c **** 
 710:D:/Work/DeviceTester/amazon-freertos/lib/third_party/mbedtls/library\pkparse.c ****     /* Import N */
 711:D:/Work/DeviceTester/amazon-freertos/lib/third_party/mbedtls/library\pkparse.c ****     if( ( ret = mbedtls_asn1_get_tag( &p, end, &len,
 712:D:/Work/DeviceTester/amazon-freertos/lib/third_party/mbedtls/library\pkparse.c ****                                       MBEDTLS_ASN1_INTEGER ) ) != 0 ||
 713:D:/Work/DeviceTester/amazon-freertos/lib/third_party/mbedtls/library\pkparse.c ****         ( ret = mbedtls_rsa_import_raw( rsa, p, len, NULL, 0, NULL, 0,
 714:D:/Work/DeviceTester/amazon-freertos/lib/third_party/mbedtls/library\pkparse.c ****                                         NULL, 0, NULL, 0 ) ) != 0 )
 715:D:/Work/DeviceTester/amazon-freertos/lib/third_party/mbedtls/library\pkparse.c ****         goto cleanup;
 716:D:/Work/DeviceTester/amazon-freertos/lib/third_party/mbedtls/library\pkparse.c ****     p += len;
 717:D:/Work/DeviceTester/amazon-freertos/lib/third_party/mbedtls/library\pkparse.c **** 
 718:D:/Work/DeviceTester/amazon-freertos/lib/third_party/mbedtls/library\pkparse.c ****     /* Import E */
 719:D:/Work/DeviceTester/amazon-freertos/lib/third_party/mbedtls/library\pkparse.c ****     if( ( ret = mbedtls_asn1_get_tag( &p, end, &len,
 720:D:/Work/DeviceTester/amazon-freertos/lib/third_party/mbedtls/library\pkparse.c ****                                       MBEDTLS_ASN1_INTEGER ) ) != 0 ||
 721:D:/Work/DeviceTester/amazon-freertos/lib/third_party/mbedtls/library\pkparse.c ****         ( ret = mbedtls_rsa_import_raw( rsa, NULL, 0, NULL, 0, NULL, 0,
 722:D:/Work/DeviceTester/amazon-freertos/lib/third_party/mbedtls/library\pkparse.c ****                                         NULL, 0, p, len ) ) != 0 )
 723:D:/Work/DeviceTester/amazon-freertos/lib/third_party/mbedtls/library\pkparse.c ****         goto cleanup;
 724:D:/Work/DeviceTester/amazon-freertos/lib/third_party/mbedtls/library\pkparse.c ****     p += len;
 725:D:/Work/DeviceTester/amazon-freertos/lib/third_party/mbedtls/library\pkparse.c **** 
 726:D:/Work/DeviceTester/amazon-freertos/lib/third_party/mbedtls/library\pkparse.c ****     /* Import D */
 727:D:/Work/DeviceTester/amazon-freertos/lib/third_party/mbedtls/library\pkparse.c ****     if( ( ret = mbedtls_asn1_get_tag( &p, end, &len,
 728:D:/Work/DeviceTester/amazon-freertos/lib/third_party/mbedtls/library\pkparse.c ****                                       MBEDTLS_ASN1_INTEGER ) ) != 0 ||
 729:D:/Work/DeviceTester/amazon-freertos/lib/third_party/mbedtls/library\pkparse.c ****         ( ret = mbedtls_rsa_import_raw( rsa, NULL, 0, NULL, 0, NULL, 0,
 730:D:/Work/DeviceTester/amazon-freertos/lib/third_party/mbedtls/library\pkparse.c ****                                         p, len, NULL, 0 ) ) != 0 )
 731:D:/Work/DeviceTester/amazon-freertos/lib/third_party/mbedtls/library\pkparse.c ****         goto cleanup;
 732:D:/Work/DeviceTester/amazon-freertos/lib/third_party/mbedtls/library\pkparse.c ****     p += len;
 733:D:/Work/DeviceTester/amazon-freertos/lib/third_party/mbedtls/library\pkparse.c **** 
 734:D:/Work/DeviceTester/amazon-freertos/lib/third_party/mbedtls/library\pkparse.c ****     /* Import P */
 735:D:/Work/DeviceTester/amazon-freertos/lib/third_party/mbedtls/library\pkparse.c ****     if( ( ret = mbedtls_asn1_get_tag( &p, end, &len,
 736:D:/Work/DeviceTester/amazon-freertos/lib/third_party/mbedtls/library\pkparse.c ****                                       MBEDTLS_ASN1_INTEGER ) ) != 0 ||
 737:D:/Work/DeviceTester/amazon-freertos/lib/third_party/mbedtls/library\pkparse.c ****         ( ret = mbedtls_rsa_import_raw( rsa, NULL, 0, p, len, NULL, 0,
 738:D:/Work/DeviceTester/amazon-freertos/lib/third_party/mbedtls/library\pkparse.c ****                                         NULL, 0, NULL, 0 ) ) != 0 )
 739:D:/Work/DeviceTester/amazon-freertos/lib/third_party/mbedtls/library\pkparse.c ****         goto cleanup;
 740:D:/Work/DeviceTester/amazon-freertos/lib/third_party/mbedtls/library\pkparse.c ****     p += len;
 741:D:/Work/DeviceTester/amazon-freertos/lib/third_party/mbedtls/library\pkparse.c **** 
 742:D:/Work/DeviceTester/amazon-freertos/lib/third_party/mbedtls/library\pkparse.c ****     /* Import Q */
 743:D:/Work/DeviceTester/amazon-freertos/lib/third_party/mbedtls/library\pkparse.c ****     if( ( ret = mbedtls_asn1_get_tag( &p, end, &len,
 744:D:/Work/DeviceTester/amazon-freertos/lib/third_party/mbedtls/library\pkparse.c ****                                       MBEDTLS_ASN1_INTEGER ) ) != 0 ||
 745:D:/Work/DeviceTester/amazon-freertos/lib/third_party/mbedtls/library\pkparse.c ****         ( ret = mbedtls_rsa_import_raw( rsa, NULL, 0, NULL, 0, p, len,
 746:D:/Work/DeviceTester/amazon-freertos/lib/third_party/mbedtls/library\pkparse.c ****                                         NULL, 0, NULL, 0 ) ) != 0 )
 747:D:/Work/DeviceTester/amazon-freertos/lib/third_party/mbedtls/library\pkparse.c ****         goto cleanup;
 748:D:/Work/DeviceTester/amazon-freertos/lib/third_party/mbedtls/library\pkparse.c ****     p += len;
 749:D:/Work/DeviceTester/amazon-freertos/lib/third_party/mbedtls/library\pkparse.c **** 
 750:D:/Work/DeviceTester/amazon-freertos/lib/third_party/mbedtls/library\pkparse.c ****     /* Complete the RSA private key */
 751:D:/Work/DeviceTester/amazon-freertos/lib/third_party/mbedtls/library\pkparse.c ****     if( ( ret = mbedtls_rsa_complete( rsa ) ) != 0 )
 752:D:/Work/DeviceTester/amazon-freertos/lib/third_party/mbedtls/library\pkparse.c ****         goto cleanup;
 753:D:/Work/DeviceTester/amazon-freertos/lib/third_party/mbedtls/library\pkparse.c **** 
 754:D:/Work/DeviceTester/amazon-freertos/lib/third_party/mbedtls/library\pkparse.c ****     /* Check optional parameters */
 755:D:/Work/DeviceTester/amazon-freertos/lib/third_party/mbedtls/library\pkparse.c ****     if( ( ret = mbedtls_asn1_get_mpi( &p, end, &T ) ) != 0 ||
 756:D:/Work/DeviceTester/amazon-freertos/lib/third_party/mbedtls/library\pkparse.c ****         ( ret = mbedtls_asn1_get_mpi( &p, end, &T ) ) != 0 ||
 757:D:/Work/DeviceTester/amazon-freertos/lib/third_party/mbedtls/library\pkparse.c ****         ( ret = mbedtls_asn1_get_mpi( &p, end, &T ) ) != 0 )
 758:D:/Work/DeviceTester/amazon-freertos/lib/third_party/mbedtls/library\pkparse.c ****         goto cleanup;
 759:D:/Work/DeviceTester/amazon-freertos/lib/third_party/mbedtls/library\pkparse.c **** 
 760:D:/Work/DeviceTester/amazon-freertos/lib/third_party/mbedtls/library\pkparse.c ****     if( p != end )
 761:D:/Work/DeviceTester/amazon-freertos/lib/third_party/mbedtls/library\pkparse.c ****     {
 762:D:/Work/DeviceTester/amazon-freertos/lib/third_party/mbedtls/library\pkparse.c ****         ret = MBEDTLS_ERR_PK_KEY_INVALID_FORMAT +
 763:D:/Work/DeviceTester/amazon-freertos/lib/third_party/mbedtls/library\pkparse.c ****               MBEDTLS_ERR_ASN1_LENGTH_MISMATCH ;
 764:D:/Work/DeviceTester/amazon-freertos/lib/third_party/mbedtls/library\pkparse.c ****     }
 765:D:/Work/DeviceTester/amazon-freertos/lib/third_party/mbedtls/library\pkparse.c **** 
 766:D:/Work/DeviceTester/amazon-freertos/lib/third_party/mbedtls/library\pkparse.c **** cleanup:
 767:D:/Work/DeviceTester/amazon-freertos/lib/third_party/mbedtls/library\pkparse.c **** 
 768:D:/Work/DeviceTester/amazon-freertos/lib/third_party/mbedtls/library\pkparse.c ****     mbedtls_mpi_free( &T );
 769:D:/Work/DeviceTester/amazon-freertos/lib/third_party/mbedtls/library\pkparse.c **** 
 770:D:/Work/DeviceTester/amazon-freertos/lib/third_party/mbedtls/library\pkparse.c ****     if( ret != 0 )
 771:D:/Work/DeviceTester/amazon-freertos/lib/third_party/mbedtls/library\pkparse.c ****     {
 772:D:/Work/DeviceTester/amazon-freertos/lib/third_party/mbedtls/library\pkparse.c ****         /* Wrap error code if it's coming from a lower level */
 773:D:/Work/DeviceTester/amazon-freertos/lib/third_party/mbedtls/library\pkparse.c ****         if( ( ret & 0xff80 ) == 0 )
 774:D:/Work/DeviceTester/amazon-freertos/lib/third_party/mbedtls/library\pkparse.c ****             ret = MBEDTLS_ERR_PK_KEY_INVALID_FORMAT + ret;
 775:D:/Work/DeviceTester/amazon-freertos/lib/third_party/mbedtls/library\pkparse.c ****         else
 776:D:/Work/DeviceTester/amazon-freertos/lib/third_party/mbedtls/library\pkparse.c ****             ret = MBEDTLS_ERR_PK_KEY_INVALID_FORMAT;
 777:D:/Work/DeviceTester/amazon-freertos/lib/third_party/mbedtls/library\pkparse.c **** 
 778:D:/Work/DeviceTester/amazon-freertos/lib/third_party/mbedtls/library\pkparse.c ****         mbedtls_rsa_free( rsa );
 779:D:/Work/DeviceTester/amazon-freertos/lib/third_party/mbedtls/library\pkparse.c ****     }
 780:D:/Work/DeviceTester/amazon-freertos/lib/third_party/mbedtls/library\pkparse.c **** 
 781:D:/Work/DeviceTester/amazon-freertos/lib/third_party/mbedtls/library\pkparse.c ****     return( ret );
 782:D:/Work/DeviceTester/amazon-freertos/lib/third_party/mbedtls/library\pkparse.c **** }
 306              		.loc 1 782 0
 307 0040 0400A0E1 		mov	r0, r4
 308 0044 38D08DE2 		add	sp, sp, #56
 309              		.cfi_remember_state
 310              		.cfi_def_cfa_offset 16
 311              		@ sp needed
 312 0048 7080BDE8 		pop	{r4, r5, r6, pc}
 313              	.LVL32:
 314              	.L27:
 315              		.cfi_restore_state
 698:D:/Work/DeviceTester/amazon-freertos/lib/third_party/mbedtls/library\pkparse.c **** 
 316              		.loc 1 698 0
 317 004c 24309DE5 		ldr	r3, [sp, #36]
 700:D:/Work/DeviceTester/amazon-freertos/lib/third_party/mbedtls/library\pkparse.c ****     {
 318              		.loc 1 700 0
 319 0050 20208DE2 		add	r2, sp, #32
 698:D:/Work/DeviceTester/amazon-freertos/lib/third_party/mbedtls/library\pkparse.c **** 
 320              		.loc 1 698 0
 321 0054 28509DE5 		ldr	r5, [sp, #40]
 322              	.LVL33:
 700:D:/Work/DeviceTester/amazon-freertos/lib/third_party/mbedtls/library\pkparse.c ****     {
 323              		.loc 1 700 0
 324 0058 28008DE2 		add	r0, sp, #40
 325              	.LVL34:
 698:D:/Work/DeviceTester/amazon-freertos/lib/third_party/mbedtls/library\pkparse.c **** 
 326              		.loc 1 698 0
 327 005c 035085E0 		add	r5, r5, r3
 328              	.LVL35:
 700:D:/Work/DeviceTester/amazon-freertos/lib/third_party/mbedtls/library\pkparse.c ****     {
 329              		.loc 1 700 0
 330 0060 0510A0E1 		mov	r1, r5
 331 0064 FEFFFFEB 		bl	mbedtls_asn1_get_int
 332              	.LVL36:
 333 0068 000050E3 		cmp	r0, #0
 334 006c F2FFFF1A 		bne	.L38
 705:D:/Work/DeviceTester/amazon-freertos/lib/third_party/mbedtls/library\pkparse.c ****     {
 335              		.loc 1 705 0
 336 0070 20309DE5 		ldr	r3, [sp, #32]
 337 0074 000053E3 		cmp	r3, #0
 707:D:/Work/DeviceTester/amazon-freertos/lib/third_party/mbedtls/library\pkparse.c ****     }
 338              		.loc 1 707 0
 339 0078 A4429F15 		ldrne	r4, .L39
 340              	.LVL37:
 705:D:/Work/DeviceTester/amazon-freertos/lib/third_party/mbedtls/library\pkparse.c ****     {
 341              		.loc 1 705 0
 342 007c EFFFFF1A 		bne	.L26
 711:D:/Work/DeviceTester/amazon-freertos/lib/third_party/mbedtls/library\pkparse.c ****                                       MBEDTLS_ASN1_INTEGER ) ) != 0 ||
 343              		.loc 1 711 0
 344 0080 0230A0E3 		mov	r3, #2
 345 0084 24208DE2 		add	r2, sp, #36
 346 0088 0510A0E1 		mov	r1, r5
 347 008c 28008DE2 		add	r0, sp, #40
 348              	.LVL38:
 349 0090 FEFFFFEB 		bl	mbedtls_asn1_get_tag
 350              	.LVL39:
 351 0094 004050E2 		subs	r4, r0, #0
 352 0098 9600001A 		bne	.L30
 712:D:/Work/DeviceTester/amazon-freertos/lib/third_party/mbedtls/library\pkparse.c ****         ( ret = mbedtls_rsa_import_raw( rsa, p, len, NULL, 0, NULL, 0,
 353              		.loc 1 712 0
 354 009c 18408DE5 		str	r4, [sp, #24]
 355 00a0 0430A0E1 		mov	r3, r4
 356 00a4 14408DE5 		str	r4, [sp, #20]
 357 00a8 0600A0E1 		mov	r0, r6
 358              	.LVL40:
 359 00ac 10408DE5 		str	r4, [sp, #16]
 360 00b0 0C408DE5 		str	r4, [sp, #12]
 361 00b4 08408DE5 		str	r4, [sp, #8]
 362 00b8 04408DE5 		str	r4, [sp, #4]
 363 00bc 00408DE5 		str	r4, [sp]
 364 00c0 24209DE5 		ldr	r2, [sp, #36]
 365 00c4 28109DE5 		ldr	r1, [sp, #40]
 366 00c8 FEFFFFEB 		bl	mbedtls_rsa_import_raw
 367              	.LVL41:
 368 00cc 004050E2 		subs	r4, r0, #0
 369 00d0 8800001A 		bne	.L30
 716:D:/Work/DeviceTester/amazon-freertos/lib/third_party/mbedtls/library\pkparse.c **** 
 370              		.loc 1 716 0
 371 00d4 24209DE5 		ldr	r2, [sp, #36]
 719:D:/Work/DeviceTester/amazon-freertos/lib/third_party/mbedtls/library\pkparse.c ****                                       MBEDTLS_ASN1_INTEGER ) ) != 0 ||
 372              		.loc 1 719 0
 373 00d8 0510A0E1 		mov	r1, r5
 716:D:/Work/DeviceTester/amazon-freertos/lib/third_party/mbedtls/library\pkparse.c **** 
 374              		.loc 1 716 0
 375 00dc 28309DE5 		ldr	r3, [sp, #40]
 719:D:/Work/DeviceTester/amazon-freertos/lib/third_party/mbedtls/library\pkparse.c ****                                       MBEDTLS_ASN1_INTEGER ) ) != 0 ||
 376              		.loc 1 719 0
 377 00e0 28008DE2 		add	r0, sp, #40
 378              	.LVL42:
 716:D:/Work/DeviceTester/amazon-freertos/lib/third_party/mbedtls/library\pkparse.c **** 
 379              		.loc 1 716 0
 380 00e4 023083E0 		add	r3, r3, r2
 719:D:/Work/DeviceTester/amazon-freertos/lib/third_party/mbedtls/library\pkparse.c ****                                       MBEDTLS_ASN1_INTEGER ) ) != 0 ||
 381              		.loc 1 719 0
 382 00e8 24208DE2 		add	r2, sp, #36
 716:D:/Work/DeviceTester/amazon-freertos/lib/third_party/mbedtls/library\pkparse.c **** 
 383              		.loc 1 716 0
 384 00ec 28308DE5 		str	r3, [sp, #40]
 719:D:/Work/DeviceTester/amazon-freertos/lib/third_party/mbedtls/library\pkparse.c ****                                       MBEDTLS_ASN1_INTEGER ) ) != 0 ||
 385              		.loc 1 719 0
 386 00f0 0230A0E3 		mov	r3, #2
 387 00f4 FEFFFFEB 		bl	mbedtls_asn1_get_tag
 388              	.LVL43:
 389 00f8 004050E2 		subs	r4, r0, #0
 390 00fc 7D00001A 		bne	.L30
 720:D:/Work/DeviceTester/amazon-freertos/lib/third_party/mbedtls/library\pkparse.c ****         ( ret = mbedtls_rsa_import_raw( rsa, NULL, 0, NULL, 0, NULL, 0,
 391              		.loc 1 720 0
 392 0100 24309DE5 		ldr	r3, [sp, #36]
 393 0104 0420A0E1 		mov	r2, r4
 394 0108 10408DE5 		str	r4, [sp, #16]
 395 010c 0410A0E1 		mov	r1, r4
 396 0110 0C408DE5 		str	r4, [sp, #12]
 397 0114 0600A0E1 		mov	r0, r6
 398              	.LVL44:
 399 0118 18308DE5 		str	r3, [sp, #24]
 400 011c 28309DE5 		ldr	r3, [sp, #40]
 401 0120 08408DE5 		str	r4, [sp, #8]
 402 0124 04408DE5 		str	r4, [sp, #4]
 403 0128 14308DE5 		str	r3, [sp, #20]
 404 012c 0430A0E1 		mov	r3, r4
 405 0130 00408DE5 		str	r4, [sp]
 406 0134 FEFFFFEB 		bl	mbedtls_rsa_import_raw
 407              	.LVL45:
 408 0138 004050E2 		subs	r4, r0, #0
 409 013c 6D00001A 		bne	.L30
 724:D:/Work/DeviceTester/amazon-freertos/lib/third_party/mbedtls/library\pkparse.c **** 
 410              		.loc 1 724 0
 411 0140 24209DE5 		ldr	r2, [sp, #36]
 727:D:/Work/DeviceTester/amazon-freertos/lib/third_party/mbedtls/library\pkparse.c ****                                       MBEDTLS_ASN1_INTEGER ) ) != 0 ||
 412              		.loc 1 727 0
 413 0144 0510A0E1 		mov	r1, r5
 724:D:/Work/DeviceTester/amazon-freertos/lib/third_party/mbedtls/library\pkparse.c **** 
 414              		.loc 1 724 0
 415 0148 28309DE5 		ldr	r3, [sp, #40]
 727:D:/Work/DeviceTester/amazon-freertos/lib/third_party/mbedtls/library\pkparse.c ****                                       MBEDTLS_ASN1_INTEGER ) ) != 0 ||
 416              		.loc 1 727 0
 417 014c 28008DE2 		add	r0, sp, #40
 418              	.LVL46:
 724:D:/Work/DeviceTester/amazon-freertos/lib/third_party/mbedtls/library\pkparse.c **** 
 419              		.loc 1 724 0
 420 0150 023083E0 		add	r3, r3, r2
 727:D:/Work/DeviceTester/amazon-freertos/lib/third_party/mbedtls/library\pkparse.c ****                                       MBEDTLS_ASN1_INTEGER ) ) != 0 ||
 421              		.loc 1 727 0
 422 0154 24208DE2 		add	r2, sp, #36
 724:D:/Work/DeviceTester/amazon-freertos/lib/third_party/mbedtls/library\pkparse.c **** 
 423              		.loc 1 724 0
 424 0158 28308DE5 		str	r3, [sp, #40]
 727:D:/Work/DeviceTester/amazon-freertos/lib/third_party/mbedtls/library\pkparse.c ****                                       MBEDTLS_ASN1_INTEGER ) ) != 0 ||
 425              		.loc 1 727 0
 426 015c 0230A0E3 		mov	r3, #2
 427 0160 FEFFFFEB 		bl	mbedtls_asn1_get_tag
 428              	.LVL47:
 429 0164 004050E2 		subs	r4, r0, #0
 430 0168 6200001A 		bne	.L30
 728:D:/Work/DeviceTester/amazon-freertos/lib/third_party/mbedtls/library\pkparse.c ****         ( ret = mbedtls_rsa_import_raw( rsa, NULL, 0, NULL, 0, NULL, 0,
 431              		.loc 1 728 0
 432 016c 24309DE5 		ldr	r3, [sp, #36]
 433 0170 0420A0E1 		mov	r2, r4
 434 0174 18408DE5 		str	r4, [sp, #24]
 435 0178 0410A0E1 		mov	r1, r4
 436 017c 14408DE5 		str	r4, [sp, #20]
 437 0180 0600A0E1 		mov	r0, r6
 438              	.LVL48:
 439 0184 10308DE5 		str	r3, [sp, #16]
 440 0188 28309DE5 		ldr	r3, [sp, #40]
 441 018c 08408DE5 		str	r4, [sp, #8]
 442 0190 04408DE5 		str	r4, [sp, #4]
 443 0194 0C308DE5 		str	r3, [sp, #12]
 444 0198 0430A0E1 		mov	r3, r4
 445 019c 00408DE5 		str	r4, [sp]
 446 01a0 FEFFFFEB 		bl	mbedtls_rsa_import_raw
 447              	.LVL49:
 448 01a4 004050E2 		subs	r4, r0, #0
 449 01a8 5200001A 		bne	.L30
 732:D:/Work/DeviceTester/amazon-freertos/lib/third_party/mbedtls/library\pkparse.c **** 
 450              		.loc 1 732 0
 451 01ac 24209DE5 		ldr	r2, [sp, #36]
 735:D:/Work/DeviceTester/amazon-freertos/lib/third_party/mbedtls/library\pkparse.c ****                                       MBEDTLS_ASN1_INTEGER ) ) != 0 ||
 452              		.loc 1 735 0
 453 01b0 0510A0E1 		mov	r1, r5
 732:D:/Work/DeviceTester/amazon-freertos/lib/third_party/mbedtls/library\pkparse.c **** 
 454              		.loc 1 732 0
 455 01b4 28309DE5 		ldr	r3, [sp, #40]
 735:D:/Work/DeviceTester/amazon-freertos/lib/third_party/mbedtls/library\pkparse.c ****                                       MBEDTLS_ASN1_INTEGER ) ) != 0 ||
 456              		.loc 1 735 0
 457 01b8 28008DE2 		add	r0, sp, #40
 458              	.LVL50:
 732:D:/Work/DeviceTester/amazon-freertos/lib/third_party/mbedtls/library\pkparse.c **** 
 459              		.loc 1 732 0
 460 01bc 023083E0 		add	r3, r3, r2
 735:D:/Work/DeviceTester/amazon-freertos/lib/third_party/mbedtls/library\pkparse.c ****                                       MBEDTLS_ASN1_INTEGER ) ) != 0 ||
 461              		.loc 1 735 0
 462 01c0 24208DE2 		add	r2, sp, #36
 732:D:/Work/DeviceTester/amazon-freertos/lib/third_party/mbedtls/library\pkparse.c **** 
 463              		.loc 1 732 0
 464 01c4 28308DE5 		str	r3, [sp, #40]
 735:D:/Work/DeviceTester/amazon-freertos/lib/third_party/mbedtls/library\pkparse.c ****                                       MBEDTLS_ASN1_INTEGER ) ) != 0 ||
 465              		.loc 1 735 0
 466 01c8 0230A0E3 		mov	r3, #2
 467 01cc FEFFFFEB 		bl	mbedtls_asn1_get_tag
 468              	.LVL51:
 469 01d0 004050E2 		subs	r4, r0, #0
 470 01d4 4700001A 		bne	.L30
 736:D:/Work/DeviceTester/amazon-freertos/lib/third_party/mbedtls/library\pkparse.c ****         ( ret = mbedtls_rsa_import_raw( rsa, NULL, 0, p, len, NULL, 0,
 471              		.loc 1 736 0
 472 01d8 24309DE5 		ldr	r3, [sp, #36]
 473 01dc 0020A0E3 		mov	r2, #0
 474 01e0 18208DE5 		str	r2, [sp, #24]
 475 01e4 0210A0E1 		mov	r1, r2
 476 01e8 14208DE5 		str	r2, [sp, #20]
 477 01ec 0600A0E1 		mov	r0, r6
 478              	.LVL52:
 479 01f0 00308DE5 		str	r3, [sp]
 480 01f4 10208DE5 		str	r2, [sp, #16]
 481 01f8 0C208DE5 		str	r2, [sp, #12]
 482 01fc 08208DE5 		str	r2, [sp, #8]
 483 0200 04208DE5 		str	r2, [sp, #4]
 484 0204 28309DE5 		ldr	r3, [sp, #40]
 485 0208 FEFFFFEB 		bl	mbedtls_rsa_import_raw
 486              	.LVL53:
 487 020c 004050E2 		subs	r4, r0, #0
 488 0210 3800001A 		bne	.L30
 740:D:/Work/DeviceTester/amazon-freertos/lib/third_party/mbedtls/library\pkparse.c **** 
 489              		.loc 1 740 0
 490 0214 24209DE5 		ldr	r2, [sp, #36]
 743:D:/Work/DeviceTester/amazon-freertos/lib/third_party/mbedtls/library\pkparse.c ****                                       MBEDTLS_ASN1_INTEGER ) ) != 0 ||
 491              		.loc 1 743 0
 492 0218 0510A0E1 		mov	r1, r5
 740:D:/Work/DeviceTester/amazon-freertos/lib/third_party/mbedtls/library\pkparse.c **** 
 493              		.loc 1 740 0
 494 021c 28309DE5 		ldr	r3, [sp, #40]
 743:D:/Work/DeviceTester/amazon-freertos/lib/third_party/mbedtls/library\pkparse.c ****                                       MBEDTLS_ASN1_INTEGER ) ) != 0 ||
 495              		.loc 1 743 0
 496 0220 28008DE2 		add	r0, sp, #40
 497              	.LVL54:
 740:D:/Work/DeviceTester/amazon-freertos/lib/third_party/mbedtls/library\pkparse.c **** 
 498              		.loc 1 740 0
 499 0224 023083E0 		add	r3, r3, r2
 743:D:/Work/DeviceTester/amazon-freertos/lib/third_party/mbedtls/library\pkparse.c ****                                       MBEDTLS_ASN1_INTEGER ) ) != 0 ||
 500              		.loc 1 743 0
 501 0228 24208DE2 		add	r2, sp, #36
 740:D:/Work/DeviceTester/amazon-freertos/lib/third_party/mbedtls/library\pkparse.c **** 
 502              		.loc 1 740 0
 503 022c 28308DE5 		str	r3, [sp, #40]
 743:D:/Work/DeviceTester/amazon-freertos/lib/third_party/mbedtls/library\pkparse.c ****                                       MBEDTLS_ASN1_INTEGER ) ) != 0 ||
 504              		.loc 1 743 0
 505 0230 0230A0E3 		mov	r3, #2
 506 0234 FEFFFFEB 		bl	mbedtls_asn1_get_tag
 507              	.LVL55:
 508 0238 004050E2 		subs	r4, r0, #0
 509 023c 2D00001A 		bne	.L30
 744:D:/Work/DeviceTester/amazon-freertos/lib/third_party/mbedtls/library\pkparse.c ****         ( ret = mbedtls_rsa_import_raw( rsa, NULL, 0, NULL, 0, p, len,
 510              		.loc 1 744 0
 511 0240 24309DE5 		ldr	r3, [sp, #36]
 512 0244 0420A0E1 		mov	r2, r4
 513 0248 18408DE5 		str	r4, [sp, #24]
 514 024c 0410A0E1 		mov	r1, r4
 515 0250 14408DE5 		str	r4, [sp, #20]
 516 0254 0600A0E1 		mov	r0, r6
 517              	.LVL56:
 518 0258 08308DE5 		str	r3, [sp, #8]
 519 025c 28309DE5 		ldr	r3, [sp, #40]
 520 0260 10408DE5 		str	r4, [sp, #16]
 521 0264 0C408DE5 		str	r4, [sp, #12]
 522 0268 04308DE5 		str	r3, [sp, #4]
 523 026c 0430A0E1 		mov	r3, r4
 524 0270 00408DE5 		str	r4, [sp]
 525 0274 FEFFFFEB 		bl	mbedtls_rsa_import_raw
 526              	.LVL57:
 527 0278 004050E2 		subs	r4, r0, #0
 528 027c 1D00001A 		bne	.L30
 748:D:/Work/DeviceTester/amazon-freertos/lib/third_party/mbedtls/library\pkparse.c **** 
 529              		.loc 1 748 0
 530 0280 28309DE5 		ldr	r3, [sp, #40]
 751:D:/Work/DeviceTester/amazon-freertos/lib/third_party/mbedtls/library\pkparse.c ****         goto cleanup;
 531              		.loc 1 751 0
 532 0284 0600A0E1 		mov	r0, r6
 533              	.LVL58:
 748:D:/Work/DeviceTester/amazon-freertos/lib/third_party/mbedtls/library\pkparse.c **** 
 534              		.loc 1 748 0
 535 0288 24209DE5 		ldr	r2, [sp, #36]
 536 028c 023083E0 		add	r3, r3, r2
 537 0290 28308DE5 		str	r3, [sp, #40]
 751:D:/Work/DeviceTester/amazon-freertos/lib/third_party/mbedtls/library\pkparse.c ****         goto cleanup;
 538              		.loc 1 751 0
 539 0294 FEFFFFEB 		bl	mbedtls_rsa_complete
 540              	.LVL59:
 541 0298 004050E2 		subs	r4, r0, #0
 542 029c 1500001A 		bne	.L30
 755:D:/Work/DeviceTester/amazon-freertos/lib/third_party/mbedtls/library\pkparse.c ****         ( ret = mbedtls_asn1_get_mpi( &p, end, &T ) ) != 0 ||
 543              		.loc 1 755 0
 544 02a0 2C208DE2 		add	r2, sp, #44
 545 02a4 0510A0E1 		mov	r1, r5
 546 02a8 28008DE2 		add	r0, sp, #40
 547              	.LVL60:
 548 02ac FEFFFFEB 		bl	mbedtls_asn1_get_mpi
 549              	.LVL61:
 550 02b0 004050E2 		subs	r4, r0, #0
 551 02b4 0F00001A 		bne	.L30
 755:D:/Work/DeviceTester/amazon-freertos/lib/third_party/mbedtls/library\pkparse.c ****         ( ret = mbedtls_asn1_get_mpi( &p, end, &T ) ) != 0 ||
 552              		.loc 1 755 0 is_stmt 0 discriminator 1
 553 02b8 2C208DE2 		add	r2, sp, #44
 554 02bc 0510A0E1 		mov	r1, r5
 555 02c0 28008DE2 		add	r0, sp, #40
 556              	.LVL62:
 557 02c4 FEFFFFEB 		bl	mbedtls_asn1_get_mpi
 558              	.LVL63:
 559 02c8 004050E2 		subs	r4, r0, #0
 560 02cc 0900001A 		bne	.L30
 756:D:/Work/DeviceTester/amazon-freertos/lib/third_party/mbedtls/library\pkparse.c ****         ( ret = mbedtls_asn1_get_mpi( &p, end, &T ) ) != 0 )
 561              		.loc 1 756 0 is_stmt 1
 562 02d0 2C208DE2 		add	r2, sp, #44
 563 02d4 0510A0E1 		mov	r1, r5
 564 02d8 28008DE2 		add	r0, sp, #40
 565              	.LVL64:
 566 02dc FEFFFFEB 		bl	mbedtls_asn1_get_mpi
 567              	.LVL65:
 568 02e0 004050E2 		subs	r4, r0, #0
 569 02e4 0300001A 		bne	.L30
 762:D:/Work/DeviceTester/amazon-freertos/lib/third_party/mbedtls/library\pkparse.c ****               MBEDTLS_ERR_ASN1_LENGTH_MISMATCH ;
 570              		.loc 1 762 0
 571 02e8 28209DE5 		ldr	r2, [sp, #40]
 572 02ec 34309FE5 		ldr	r3, .L39+4
 573 02f0 020055E1 		cmp	r5, r2
 574 02f4 0340A011 		movne	r4, r3
 575              	.L30:
 576              	.LVL66:
 768:D:/Work/DeviceTester/amazon-freertos/lib/third_party/mbedtls/library\pkparse.c **** 
 577              		.loc 1 768 0
 578 02f8 2C008DE2 		add	r0, sp, #44
 579 02fc FEFFFFEB 		bl	mbedtls_mpi_free
 580              	.LVL67:
 770:D:/Work/DeviceTester/amazon-freertos/lib/third_party/mbedtls/library\pkparse.c ****     {
 581              		.loc 1 770 0
 582 0300 000054E3 		cmp	r4, #0
 583 0304 4DFFFF0A 		beq	.L26
 773:D:/Work/DeviceTester/amazon-freertos/lib/third_party/mbedtls/library\pkparse.c ****             ret = MBEDTLS_ERR_PK_KEY_INVALID_FORMAT + ret;
 584              		.loc 1 773 0
 585 0308 803F0FE3 		movw	r3, #65408
 778:D:/Work/DeviceTester/amazon-freertos/lib/third_party/mbedtls/library\pkparse.c ****     }
 586              		.loc 1 778 0
 587 030c 0600A0E1 		mov	r0, r6
 773:D:/Work/DeviceTester/amazon-freertos/lib/third_party/mbedtls/library\pkparse.c ****             ret = MBEDTLS_ERR_PK_KEY_INVALID_FORMAT + ret;
 588              		.loc 1 773 0
 589 0310 030014E1 		tst	r4, r3
 774:D:/Work/DeviceTester/amazon-freertos/lib/third_party/mbedtls/library\pkparse.c ****         else
 590              		.loc 1 774 0
 591 0314 3D4C4402 		subeq	r4, r4, #15616
 592              	.LVL68:
 776:D:/Work/DeviceTester/amazon-freertos/lib/third_party/mbedtls/library\pkparse.c **** 
 593              		.loc 1 776 0
 594 0318 0C409F15 		ldrne	r4, .L39+8
 595              	.LVL69:
 778:D:/Work/DeviceTester/amazon-freertos/lib/third_party/mbedtls/library\pkparse.c ****     }
 596              		.loc 1 778 0
 597 031c FEFFFFEB 		bl	mbedtls_rsa_free
 598              	.LVL70:
 599 0320 46FFFFEA 		b	.L26
 600              	.L40:
 601              		.align	2
 602              	.L39:
 603 0324 80C2FFFF 		.word	-15744
 604 0328 9AC2FFFF 		.word	-15718
 605 032c 00C3FFFF 		.word	-15616
 606              		.cfi_endproc
 607              	.LFE17:
 609              		.section	.text.pk_get_pk_alg,"ax",%progbits
 610              		.align	2
 611              		.syntax unified
 612              		.arm
 613              		.fpu neon
 615              	pk_get_pk_alg:
 616              	.LFB15:
 569:D:/Work/DeviceTester/amazon-freertos/lib/third_party/mbedtls/library\pkparse.c ****     int ret;
 617              		.loc 1 569 0
 618              		.cfi_startproc
 619              		@ args = 0, pretend = 0, frame = 16
 620              		@ frame_needed = 0, uses_anonymous_args = 0
 621              	.LVL71:
 622 0000 30402DE9 		push	{r4, r5, lr}
 623              		.cfi_def_cfa_offset 12
 624              		.cfi_offset 4, -12
 625              		.cfi_offset 5, -8
 626              		.cfi_offset 14, -4
 627 0004 0250A0E1 		mov	r5, r2
 628 0008 14D04DE2 		sub	sp, sp, #20
 629              		.cfi_def_cfa_offset 32
 573:D:/Work/DeviceTester/amazon-freertos/lib/third_party/mbedtls/library\pkparse.c **** 
 630              		.loc 1 573 0
 631 000c 0020A0E3 		mov	r2, #0
 632              	.LVL72:
 569:D:/Work/DeviceTester/amazon-freertos/lib/third_party/mbedtls/library\pkparse.c ****     int ret;
 633              		.loc 1 569 0
 634 0010 0340A0E1 		mov	r4, r3
 573:D:/Work/DeviceTester/amazon-freertos/lib/third_party/mbedtls/library\pkparse.c **** 
 635              		.loc 1 573 0
 636 0014 002083E5 		str	r2, [r3]
 637 0018 042083E5 		str	r2, [r3, #4]
 638 001c 082083E5 		str	r2, [r3, #8]
 575:D:/Work/DeviceTester/amazon-freertos/lib/third_party/mbedtls/library\pkparse.c ****         return( MBEDTLS_ERR_PK_INVALID_ALG + ret );
 639              		.loc 1 575 0
 640 0020 04208DE2 		add	r2, sp, #4
 641 0024 FEFFFFEB 		bl	mbedtls_asn1_get_alg
 642              	.LVL73:
 643 0028 000050E3 		cmp	r0, #0
 576:D:/Work/DeviceTester/amazon-freertos/lib/third_party/mbedtls/library\pkparse.c **** 
 644              		.loc 1 576 0
 645 002c EA0D4012 		subne	r0, r0, #14976
 646              	.LVL74:
 575:D:/Work/DeviceTester/amazon-freertos/lib/third_party/mbedtls/library\pkparse.c ****         return( MBEDTLS_ERR_PK_INVALID_ALG + ret );
 647              		.loc 1 575 0
 648 0030 1100001A 		bne	.L41
 578:D:/Work/DeviceTester/amazon-freertos/lib/third_party/mbedtls/library\pkparse.c ****         return( MBEDTLS_ERR_PK_UNKNOWN_PK_ALG );
 649              		.loc 1 578 0
 650 0034 0510A0E1 		mov	r1, r5
 651 0038 04008DE2 		add	r0, sp, #4
 652 003c FEFFFFEB 		bl	mbedtls_oid_get_pk_alg
 653              	.LVL75:
 654 0040 000050E3 		cmp	r0, #0
 579:D:/Work/DeviceTester/amazon-freertos/lib/third_party/mbedtls/library\pkparse.c **** 
 655              		.loc 1 579 0
 656 0044 38009F15 		ldrne	r0, .L49
 578:D:/Work/DeviceTester/amazon-freertos/lib/third_party/mbedtls/library\pkparse.c ****         return( MBEDTLS_ERR_PK_UNKNOWN_PK_ALG );
 657              		.loc 1 578 0
 658 0048 0B00001A 		bne	.L41
 659              	.LVL76:
 660              	.LBB28:
 661              	.LBB29:
 584:D:/Work/DeviceTester/amazon-freertos/lib/third_party/mbedtls/library\pkparse.c ****             ( ( params->tag != MBEDTLS_ASN1_NULL && params->tag != 0 ) ||
 662              		.loc 1 584 0
 663 004c 0030D5E5 		ldrb	r3, [r5]	@ zero_extendqisi2
 664 0050 010053E3 		cmp	r3, #1
 665 0054 0800001A 		bne	.L41
 585:D:/Work/DeviceTester/amazon-freertos/lib/third_party/mbedtls/library\pkparse.c ****                 params->len != 0 ) )
 666              		.loc 1 585 0
 667 0058 003094E5 		ldr	r3, [r4]
 584:D:/Work/DeviceTester/amazon-freertos/lib/third_party/mbedtls/library\pkparse.c ****             ( ( params->tag != MBEDTLS_ASN1_NULL && params->tag != 0 ) ||
 668              		.loc 1 584 0
 669 005c 050053E3 		cmp	r3, #5
 670 0060 00005313 		cmpne	r3, #0
 588:D:/Work/DeviceTester/amazon-freertos/lib/third_party/mbedtls/library\pkparse.c ****     }
 671              		.loc 1 588 0
 672 0064 1C009F15 		ldrne	r0, .L49+4
 584:D:/Work/DeviceTester/amazon-freertos/lib/third_party/mbedtls/library\pkparse.c ****             ( ( params->tag != MBEDTLS_ASN1_NULL && params->tag != 0 ) ||
 673              		.loc 1 584 0
 674 0068 0300001A 		bne	.L41
 585:D:/Work/DeviceTester/amazon-freertos/lib/third_party/mbedtls/library\pkparse.c ****                 params->len != 0 ) )
 675              		.loc 1 585 0
 676 006c 042094E5 		ldr	r2, [r4, #4]
 588:D:/Work/DeviceTester/amazon-freertos/lib/third_party/mbedtls/library\pkparse.c ****     }
 677              		.loc 1 588 0
 678 0070 10309FE5 		ldr	r3, .L49+4
 679 0074 000052E3 		cmp	r2, #0
 680 0078 0300A011 		movne	r0, r3
 681              	.LVL77:
 682              	.L41:
 683              	.LBE29:
 684              	.LBE28:
 592:D:/Work/DeviceTester/amazon-freertos/lib/third_party/mbedtls/library\pkparse.c **** 
 685              		.loc 1 592 0
 686 007c 14D08DE2 		add	sp, sp, #20
 687              		.cfi_def_cfa_offset 12
 688              		@ sp needed
 689 0080 3080BDE8 		pop	{r4, r5, pc}
 690              	.LVL78:
 691              	.L50:
 692              		.align	2
 693              	.L49:
 694 0084 80C3FFFF 		.word	-15488
 695 0088 80C5FFFF 		.word	-14976
 696              		.cfi_endproc
 697              	.LFE15:
 699              		.section	.text.pk_parse_key_sec1_der,"ax",%progbits
 700              		.align	2
 701              		.syntax unified
 702              		.arm
 703              		.fpu neon
 705              	pk_parse_key_sec1_der:
 706              	.LFB18:
 783:D:/Work/DeviceTester/amazon-freertos/lib/third_party/mbedtls/library\pkparse.c **** #endif /* MBEDTLS_RSA_C */
 784:D:/Work/DeviceTester/amazon-freertos/lib/third_party/mbedtls/library\pkparse.c **** 
 785:D:/Work/DeviceTester/amazon-freertos/lib/third_party/mbedtls/library\pkparse.c **** #if defined(MBEDTLS_ECP_C)
 786:D:/Work/DeviceTester/amazon-freertos/lib/third_party/mbedtls/library\pkparse.c **** /*
 787:D:/Work/DeviceTester/amazon-freertos/lib/third_party/mbedtls/library\pkparse.c ****  * Parse a SEC1 encoded private EC key
 788:D:/Work/DeviceTester/amazon-freertos/lib/third_party/mbedtls/library\pkparse.c ****  */
 789:D:/Work/DeviceTester/amazon-freertos/lib/third_party/mbedtls/library\pkparse.c **** static int pk_parse_key_sec1_der( mbedtls_ecp_keypair *eck,
 790:D:/Work/DeviceTester/amazon-freertos/lib/third_party/mbedtls/library\pkparse.c ****                                   const unsigned char *key,
 791:D:/Work/DeviceTester/amazon-freertos/lib/third_party/mbedtls/library\pkparse.c ****                                   size_t keylen )
 792:D:/Work/DeviceTester/amazon-freertos/lib/third_party/mbedtls/library\pkparse.c **** {
 707              		.loc 1 792 0
 708              		.cfi_startproc
 709              		@ args = 0, pretend = 0, frame = 24
 710              		@ frame_needed = 0, uses_anonymous_args = 0
 711              	.LVL79:
 712 0000 F0402DE9 		push	{r4, r5, r6, r7, lr}
 713              		.cfi_def_cfa_offset 20
 714              		.cfi_offset 4, -20
 715              		.cfi_offset 5, -16
 716              		.cfi_offset 6, -12
 717              		.cfi_offset 7, -8
 718              		.cfi_offset 14, -4
 719 0004 24D04DE2 		sub	sp, sp, #36
 720              		.cfi_def_cfa_offset 56
 793:D:/Work/DeviceTester/amazon-freertos/lib/third_party/mbedtls/library\pkparse.c ****     int ret;
 794:D:/Work/DeviceTester/amazon-freertos/lib/third_party/mbedtls/library\pkparse.c ****     int version, pubkey_done;
 795:D:/Work/DeviceTester/amazon-freertos/lib/third_party/mbedtls/library\pkparse.c ****     size_t len;
 796:D:/Work/DeviceTester/amazon-freertos/lib/third_party/mbedtls/library\pkparse.c ****     mbedtls_asn1_buf params;
 797:D:/Work/DeviceTester/amazon-freertos/lib/third_party/mbedtls/library\pkparse.c ****     unsigned char *p = (unsigned char *) key;
 721              		.loc 1 797 0
 722 0008 10108DE5 		str	r1, [sp, #16]
 723              	.LVL80:
 792:D:/Work/DeviceTester/amazon-freertos/lib/third_party/mbedtls/library\pkparse.c ****     int ret;
 724              		.loc 1 792 0
 725 000c 0050A0E1 		mov	r5, r0
 798:D:/Work/DeviceTester/amazon-freertos/lib/third_party/mbedtls/library\pkparse.c ****     unsigned char *end = p + keylen;
 726              		.loc 1 798 0
 727 0010 021081E0 		add	r1, r1, r2
 728              	.LVL81:
 799:D:/Work/DeviceTester/amazon-freertos/lib/third_party/mbedtls/library\pkparse.c ****     unsigned char *end2;
 800:D:/Work/DeviceTester/amazon-freertos/lib/third_party/mbedtls/library\pkparse.c **** 
 801:D:/Work/DeviceTester/amazon-freertos/lib/third_party/mbedtls/library\pkparse.c ****     /*
 802:D:/Work/DeviceTester/amazon-freertos/lib/third_party/mbedtls/library\pkparse.c ****      * RFC 5915, or SEC1 Appendix C.4
 803:D:/Work/DeviceTester/amazon-freertos/lib/third_party/mbedtls/library\pkparse.c ****      *
 804:D:/Work/DeviceTester/amazon-freertos/lib/third_party/mbedtls/library\pkparse.c ****      * ECPrivateKey ::= SEQUENCE {
 805:D:/Work/DeviceTester/amazon-freertos/lib/third_party/mbedtls/library\pkparse.c ****      *      version        INTEGER { ecPrivkeyVer1(1) } (ecPrivkeyVer1),
 806:D:/Work/DeviceTester/amazon-freertos/lib/third_party/mbedtls/library\pkparse.c ****      *      privateKey     OCTET STRING,
 807:D:/Work/DeviceTester/amazon-freertos/lib/third_party/mbedtls/library\pkparse.c ****      *      parameters [0] ECParameters {{ NamedCurve }} OPTIONAL,
 808:D:/Work/DeviceTester/amazon-freertos/lib/third_party/mbedtls/library\pkparse.c ****      *      publicKey  [1] BIT STRING OPTIONAL
 809:D:/Work/DeviceTester/amazon-freertos/lib/third_party/mbedtls/library\pkparse.c ****      *    }
 810:D:/Work/DeviceTester/amazon-freertos/lib/third_party/mbedtls/library\pkparse.c ****      */
 811:D:/Work/DeviceTester/amazon-freertos/lib/third_party/mbedtls/library\pkparse.c ****     if( ( ret = mbedtls_asn1_get_tag( &p, end, &len,
 729              		.loc 1 811 0
 730 0014 3030A0E3 		mov	r3, #48
 731 0018 0C208DE2 		add	r2, sp, #12
 732              	.LVL82:
 733 001c 10008DE2 		add	r0, sp, #16
 734              	.LVL83:
 735 0020 FEFFFFEB 		bl	mbedtls_asn1_get_tag
 736              	.LVL84:
 737 0024 000050E3 		cmp	r0, #0
 738 0028 0300000A 		beq	.L52
 739              	.LVL85:
 740              	.L88:
 812:D:/Work/DeviceTester/amazon-freertos/lib/third_party/mbedtls/library\pkparse.c ****             MBEDTLS_ASN1_CONSTRUCTED | MBEDTLS_ASN1_SEQUENCE ) ) != 0 )
 813:D:/Work/DeviceTester/amazon-freertos/lib/third_party/mbedtls/library\pkparse.c ****     {
 814:D:/Work/DeviceTester/amazon-freertos/lib/third_party/mbedtls/library\pkparse.c ****         return( MBEDTLS_ERR_PK_KEY_INVALID_FORMAT + ret );
 815:D:/Work/DeviceTester/amazon-freertos/lib/third_party/mbedtls/library\pkparse.c ****     }
 816:D:/Work/DeviceTester/amazon-freertos/lib/third_party/mbedtls/library\pkparse.c **** 
 817:D:/Work/DeviceTester/amazon-freertos/lib/third_party/mbedtls/library\pkparse.c ****     end = p + len;
 818:D:/Work/DeviceTester/amazon-freertos/lib/third_party/mbedtls/library\pkparse.c **** 
 819:D:/Work/DeviceTester/amazon-freertos/lib/third_party/mbedtls/library\pkparse.c ****     if( ( ret = mbedtls_asn1_get_int( &p, end, &version ) ) != 0 )
 820:D:/Work/DeviceTester/amazon-freertos/lib/third_party/mbedtls/library\pkparse.c ****         return( MBEDTLS_ERR_PK_KEY_INVALID_FORMAT + ret );
 821:D:/Work/DeviceTester/amazon-freertos/lib/third_party/mbedtls/library\pkparse.c **** 
 822:D:/Work/DeviceTester/amazon-freertos/lib/third_party/mbedtls/library\pkparse.c ****     if( version != 1 )
 823:D:/Work/DeviceTester/amazon-freertos/lib/third_party/mbedtls/library\pkparse.c ****         return( MBEDTLS_ERR_PK_KEY_INVALID_VERSION );
 824:D:/Work/DeviceTester/amazon-freertos/lib/third_party/mbedtls/library\pkparse.c **** 
 825:D:/Work/DeviceTester/amazon-freertos/lib/third_party/mbedtls/library\pkparse.c ****     if( ( ret = mbedtls_asn1_get_tag( &p, end, &len, MBEDTLS_ASN1_OCTET_STRING ) ) != 0 )
 826:D:/Work/DeviceTester/amazon-freertos/lib/third_party/mbedtls/library\pkparse.c ****         return( MBEDTLS_ERR_PK_KEY_INVALID_FORMAT + ret );
 827:D:/Work/DeviceTester/amazon-freertos/lib/third_party/mbedtls/library\pkparse.c **** 
 828:D:/Work/DeviceTester/amazon-freertos/lib/third_party/mbedtls/library\pkparse.c ****     if( ( ret = mbedtls_mpi_read_binary( &eck->d, p, len ) ) != 0 )
 829:D:/Work/DeviceTester/amazon-freertos/lib/third_party/mbedtls/library\pkparse.c ****     {
 830:D:/Work/DeviceTester/amazon-freertos/lib/third_party/mbedtls/library\pkparse.c ****         mbedtls_ecp_keypair_free( eck );
 831:D:/Work/DeviceTester/amazon-freertos/lib/third_party/mbedtls/library\pkparse.c ****         return( MBEDTLS_ERR_PK_KEY_INVALID_FORMAT + ret );
 832:D:/Work/DeviceTester/amazon-freertos/lib/third_party/mbedtls/library\pkparse.c ****     }
 833:D:/Work/DeviceTester/amazon-freertos/lib/third_party/mbedtls/library\pkparse.c **** 
 834:D:/Work/DeviceTester/amazon-freertos/lib/third_party/mbedtls/library\pkparse.c ****     p += len;
 835:D:/Work/DeviceTester/amazon-freertos/lib/third_party/mbedtls/library\pkparse.c **** 
 836:D:/Work/DeviceTester/amazon-freertos/lib/third_party/mbedtls/library\pkparse.c ****     pubkey_done = 0;
 837:D:/Work/DeviceTester/amazon-freertos/lib/third_party/mbedtls/library\pkparse.c ****     if( p != end )
 838:D:/Work/DeviceTester/amazon-freertos/lib/third_party/mbedtls/library\pkparse.c ****     {
 839:D:/Work/DeviceTester/amazon-freertos/lib/third_party/mbedtls/library\pkparse.c ****         /*
 840:D:/Work/DeviceTester/amazon-freertos/lib/third_party/mbedtls/library\pkparse.c ****          * Is 'parameters' present?
 841:D:/Work/DeviceTester/amazon-freertos/lib/third_party/mbedtls/library\pkparse.c ****          */
 842:D:/Work/DeviceTester/amazon-freertos/lib/third_party/mbedtls/library\pkparse.c ****         if( ( ret = mbedtls_asn1_get_tag( &p, end, &len,
 843:D:/Work/DeviceTester/amazon-freertos/lib/third_party/mbedtls/library\pkparse.c ****                         MBEDTLS_ASN1_CONTEXT_SPECIFIC | MBEDTLS_ASN1_CONSTRUCTED | 0 ) ) == 0 )
 844:D:/Work/DeviceTester/amazon-freertos/lib/third_party/mbedtls/library\pkparse.c ****         {
 845:D:/Work/DeviceTester/amazon-freertos/lib/third_party/mbedtls/library\pkparse.c ****             if( ( ret = pk_get_ecparams( &p, p + len, &params) ) != 0 ||
 846:D:/Work/DeviceTester/amazon-freertos/lib/third_party/mbedtls/library\pkparse.c ****                 ( ret = pk_use_ecparams( &params, &eck->grp )  ) != 0 )
 847:D:/Work/DeviceTester/amazon-freertos/lib/third_party/mbedtls/library\pkparse.c ****             {
 848:D:/Work/DeviceTester/amazon-freertos/lib/third_party/mbedtls/library\pkparse.c ****                 mbedtls_ecp_keypair_free( eck );
 849:D:/Work/DeviceTester/amazon-freertos/lib/third_party/mbedtls/library\pkparse.c ****                 return( ret );
 850:D:/Work/DeviceTester/amazon-freertos/lib/third_party/mbedtls/library\pkparse.c ****             }
 851:D:/Work/DeviceTester/amazon-freertos/lib/third_party/mbedtls/library\pkparse.c ****         }
 852:D:/Work/DeviceTester/amazon-freertos/lib/third_party/mbedtls/library\pkparse.c ****         else if( ret != MBEDTLS_ERR_ASN1_UNEXPECTED_TAG )
 853:D:/Work/DeviceTester/amazon-freertos/lib/third_party/mbedtls/library\pkparse.c ****         {
 854:D:/Work/DeviceTester/amazon-freertos/lib/third_party/mbedtls/library\pkparse.c ****             mbedtls_ecp_keypair_free( eck );
 855:D:/Work/DeviceTester/amazon-freertos/lib/third_party/mbedtls/library\pkparse.c ****             return( MBEDTLS_ERR_PK_KEY_INVALID_FORMAT + ret );
 856:D:/Work/DeviceTester/amazon-freertos/lib/third_party/mbedtls/library\pkparse.c ****         }
 857:D:/Work/DeviceTester/amazon-freertos/lib/third_party/mbedtls/library\pkparse.c ****     }
 858:D:/Work/DeviceTester/amazon-freertos/lib/third_party/mbedtls/library\pkparse.c **** 
 859:D:/Work/DeviceTester/amazon-freertos/lib/third_party/mbedtls/library\pkparse.c ****     if( p != end )
 860:D:/Work/DeviceTester/amazon-freertos/lib/third_party/mbedtls/library\pkparse.c ****     {
 861:D:/Work/DeviceTester/amazon-freertos/lib/third_party/mbedtls/library\pkparse.c ****         /*
 862:D:/Work/DeviceTester/amazon-freertos/lib/third_party/mbedtls/library\pkparse.c ****          * Is 'publickey' present? If not, or if we can't read it (eg because it
 863:D:/Work/DeviceTester/amazon-freertos/lib/third_party/mbedtls/library\pkparse.c ****          * is compressed), create it from the private key.
 864:D:/Work/DeviceTester/amazon-freertos/lib/third_party/mbedtls/library\pkparse.c ****          */
 865:D:/Work/DeviceTester/amazon-freertos/lib/third_party/mbedtls/library\pkparse.c ****         if( ( ret = mbedtls_asn1_get_tag( &p, end, &len,
 866:D:/Work/DeviceTester/amazon-freertos/lib/third_party/mbedtls/library\pkparse.c ****                         MBEDTLS_ASN1_CONTEXT_SPECIFIC | MBEDTLS_ASN1_CONSTRUCTED | 1 ) ) == 0 )
 867:D:/Work/DeviceTester/amazon-freertos/lib/third_party/mbedtls/library\pkparse.c ****         {
 868:D:/Work/DeviceTester/amazon-freertos/lib/third_party/mbedtls/library\pkparse.c ****             end2 = p + len;
 869:D:/Work/DeviceTester/amazon-freertos/lib/third_party/mbedtls/library\pkparse.c **** 
 870:D:/Work/DeviceTester/amazon-freertos/lib/third_party/mbedtls/library\pkparse.c ****             if( ( ret = mbedtls_asn1_get_bitstring_null( &p, end2, &len ) ) != 0 )
 871:D:/Work/DeviceTester/amazon-freertos/lib/third_party/mbedtls/library\pkparse.c ****                 return( MBEDTLS_ERR_PK_KEY_INVALID_FORMAT + ret );
 741              		.loc 1 871 0
 742 002c 3D4C40E2 		sub	r4, r0, #15616
 743              	.LVL86:
 744              	.L51:
 872:D:/Work/DeviceTester/amazon-freertos/lib/third_party/mbedtls/library\pkparse.c **** 
 873:D:/Work/DeviceTester/amazon-freertos/lib/third_party/mbedtls/library\pkparse.c ****             if( p + len != end2 )
 874:D:/Work/DeviceTester/amazon-freertos/lib/third_party/mbedtls/library\pkparse.c ****                 return( MBEDTLS_ERR_PK_KEY_INVALID_FORMAT +
 875:D:/Work/DeviceTester/amazon-freertos/lib/third_party/mbedtls/library\pkparse.c ****                         MBEDTLS_ERR_ASN1_LENGTH_MISMATCH );
 876:D:/Work/DeviceTester/amazon-freertos/lib/third_party/mbedtls/library\pkparse.c **** 
 877:D:/Work/DeviceTester/amazon-freertos/lib/third_party/mbedtls/library\pkparse.c ****             if( ( ret = pk_get_ecpubkey( &p, end2, eck ) ) == 0 )
 878:D:/Work/DeviceTester/amazon-freertos/lib/third_party/mbedtls/library\pkparse.c ****                 pubkey_done = 1;
 879:D:/Work/DeviceTester/amazon-freertos/lib/third_party/mbedtls/library\pkparse.c ****             else
 880:D:/Work/DeviceTester/amazon-freertos/lib/third_party/mbedtls/library\pkparse.c ****             {
 881:D:/Work/DeviceTester/amazon-freertos/lib/third_party/mbedtls/library\pkparse.c ****                 /*
 882:D:/Work/DeviceTester/amazon-freertos/lib/third_party/mbedtls/library\pkparse.c ****                  * The only acceptable failure mode of pk_get_ecpubkey() above
 883:D:/Work/DeviceTester/amazon-freertos/lib/third_party/mbedtls/library\pkparse.c ****                  * is if the point format is not recognized.
 884:D:/Work/DeviceTester/amazon-freertos/lib/third_party/mbedtls/library\pkparse.c ****                  */
 885:D:/Work/DeviceTester/amazon-freertos/lib/third_party/mbedtls/library\pkparse.c ****                 if( ret != MBEDTLS_ERR_ECP_FEATURE_UNAVAILABLE )
 886:D:/Work/DeviceTester/amazon-freertos/lib/third_party/mbedtls/library\pkparse.c ****                     return( MBEDTLS_ERR_PK_KEY_INVALID_FORMAT );
 887:D:/Work/DeviceTester/amazon-freertos/lib/third_party/mbedtls/library\pkparse.c ****             }
 888:D:/Work/DeviceTester/amazon-freertos/lib/third_party/mbedtls/library\pkparse.c ****         }
 889:D:/Work/DeviceTester/amazon-freertos/lib/third_party/mbedtls/library\pkparse.c ****         else if( ret != MBEDTLS_ERR_ASN1_UNEXPECTED_TAG )
 890:D:/Work/DeviceTester/amazon-freertos/lib/third_party/mbedtls/library\pkparse.c ****         {
 891:D:/Work/DeviceTester/amazon-freertos/lib/third_party/mbedtls/library\pkparse.c ****             mbedtls_ecp_keypair_free( eck );
 892:D:/Work/DeviceTester/amazon-freertos/lib/third_party/mbedtls/library\pkparse.c ****             return( MBEDTLS_ERR_PK_KEY_INVALID_FORMAT + ret );
 893:D:/Work/DeviceTester/amazon-freertos/lib/third_party/mbedtls/library\pkparse.c ****         }
 894:D:/Work/DeviceTester/amazon-freertos/lib/third_party/mbedtls/library\pkparse.c ****     }
 895:D:/Work/DeviceTester/amazon-freertos/lib/third_party/mbedtls/library\pkparse.c **** 
 896:D:/Work/DeviceTester/amazon-freertos/lib/third_party/mbedtls/library\pkparse.c ****     if( ! pubkey_done &&
 897:D:/Work/DeviceTester/amazon-freertos/lib/third_party/mbedtls/library\pkparse.c ****         ( ret = mbedtls_ecp_mul( &eck->grp, &eck->Q, &eck->d, &eck->grp.G,
 898:D:/Work/DeviceTester/amazon-freertos/lib/third_party/mbedtls/library\pkparse.c ****                                                       NULL, NULL ) ) != 0 )
 899:D:/Work/DeviceTester/amazon-freertos/lib/third_party/mbedtls/library\pkparse.c ****     {
 900:D:/Work/DeviceTester/amazon-freertos/lib/third_party/mbedtls/library\pkparse.c ****         mbedtls_ecp_keypair_free( eck );
 901:D:/Work/DeviceTester/amazon-freertos/lib/third_party/mbedtls/library\pkparse.c ****         return( MBEDTLS_ERR_PK_KEY_INVALID_FORMAT + ret );
 902:D:/Work/DeviceTester/amazon-freertos/lib/third_party/mbedtls/library\pkparse.c ****     }
 903:D:/Work/DeviceTester/amazon-freertos/lib/third_party/mbedtls/library\pkparse.c **** 
 904:D:/Work/DeviceTester/amazon-freertos/lib/third_party/mbedtls/library\pkparse.c ****     if( ( ret = mbedtls_ecp_check_privkey( &eck->grp, &eck->d ) ) != 0 )
 905:D:/Work/DeviceTester/amazon-freertos/lib/third_party/mbedtls/library\pkparse.c ****     {
 906:D:/Work/DeviceTester/amazon-freertos/lib/third_party/mbedtls/library\pkparse.c ****         mbedtls_ecp_keypair_free( eck );
 907:D:/Work/DeviceTester/amazon-freertos/lib/third_party/mbedtls/library\pkparse.c ****         return( ret );
 908:D:/Work/DeviceTester/amazon-freertos/lib/third_party/mbedtls/library\pkparse.c ****     }
 909:D:/Work/DeviceTester/amazon-freertos/lib/third_party/mbedtls/library\pkparse.c **** 
 910:D:/Work/DeviceTester/amazon-freertos/lib/third_party/mbedtls/library\pkparse.c ****     return( 0 );
 911:D:/Work/DeviceTester/amazon-freertos/lib/third_party/mbedtls/library\pkparse.c **** }
 745              		.loc 1 911 0
 746 0030 0400A0E1 		mov	r0, r4
 747 0034 24D08DE2 		add	sp, sp, #36
 748              		.cfi_remember_state
 749              		.cfi_def_cfa_offset 20
 750              		@ sp needed
 751 0038 F080BDE8 		pop	{r4, r5, r6, r7, pc}
 752              	.LVL87:
 753              	.L52:
 754              		.cfi_restore_state
 817:D:/Work/DeviceTester/amazon-freertos/lib/third_party/mbedtls/library\pkparse.c **** 
 755              		.loc 1 817 0
 756 003c 0C309DE5 		ldr	r3, [sp, #12]
 819:D:/Work/DeviceTester/amazon-freertos/lib/third_party/mbedtls/library\pkparse.c ****         return( MBEDTLS_ERR_PK_KEY_INVALID_FORMAT + ret );
 757              		.loc 1 819 0
 758 0040 08208DE2 		add	r2, sp, #8
 817:D:/Work/DeviceTester/amazon-freertos/lib/third_party/mbedtls/library\pkparse.c **** 
 759              		.loc 1 817 0
 760 0044 10709DE5 		ldr	r7, [sp, #16]
 819:D:/Work/DeviceTester/amazon-freertos/lib/third_party/mbedtls/library\pkparse.c ****         return( MBEDTLS_ERR_PK_KEY_INVALID_FORMAT + ret );
 761              		.loc 1 819 0
 762 0048 10008DE2 		add	r0, sp, #16
 763              	.LVL88:
 817:D:/Work/DeviceTester/amazon-freertos/lib/third_party/mbedtls/library\pkparse.c **** 
 764              		.loc 1 817 0
 765 004c 037087E0 		add	r7, r7, r3
 766              	.LVL89:
 819:D:/Work/DeviceTester/amazon-freertos/lib/third_party/mbedtls/library\pkparse.c ****         return( MBEDTLS_ERR_PK_KEY_INVALID_FORMAT + ret );
 767              		.loc 1 819 0
 768 0050 0710A0E1 		mov	r1, r7
 769 0054 FEFFFFEB 		bl	mbedtls_asn1_get_int
 770              	.LVL90:
 771 0058 000050E3 		cmp	r0, #0
 772 005c F2FFFF1A 		bne	.L88
 822:D:/Work/DeviceTester/amazon-freertos/lib/third_party/mbedtls/library\pkparse.c ****         return( MBEDTLS_ERR_PK_KEY_INVALID_VERSION );
 773              		.loc 1 822 0
 774 0060 08309DE5 		ldr	r3, [sp, #8]
 775 0064 010053E3 		cmp	r3, #1
 823:D:/Work/DeviceTester/amazon-freertos/lib/third_party/mbedtls/library\pkparse.c **** 
 776              		.loc 1 823 0
 777 0068 10429F15 		ldrne	r4, .L90
 822:D:/Work/DeviceTester/amazon-freertos/lib/third_party/mbedtls/library\pkparse.c ****         return( MBEDTLS_ERR_PK_KEY_INVALID_VERSION );
 778              		.loc 1 822 0
 779 006c EFFFFF1A 		bne	.L51
 825:D:/Work/DeviceTester/amazon-freertos/lib/third_party/mbedtls/library\pkparse.c ****         return( MBEDTLS_ERR_PK_KEY_INVALID_FORMAT + ret );
 780              		.loc 1 825 0
 781 0070 0430A0E3 		mov	r3, #4
 782 0074 0C208DE2 		add	r2, sp, #12
 783 0078 0710A0E1 		mov	r1, r7
 784 007c 10008DE2 		add	r0, sp, #16
 785              	.LVL91:
 786 0080 FEFFFFEB 		bl	mbedtls_asn1_get_tag
 787              	.LVL92:
 788 0084 000050E3 		cmp	r0, #0
 789 0088 E7FFFF1A 		bne	.L88
 828:D:/Work/DeviceTester/amazon-freertos/lib/third_party/mbedtls/library\pkparse.c ****     {
 790              		.loc 1 828 0
 791 008c 7C6085E2 		add	r6, r5, #124
 792 0090 0C209DE5 		ldr	r2, [sp, #12]
 793 0094 10109DE5 		ldr	r1, [sp, #16]
 794 0098 0600A0E1 		mov	r0, r6
 795              	.LVL93:
 796 009c FEFFFFEB 		bl	mbedtls_mpi_read_binary
 797              	.LVL94:
 798 00a0 004050E2 		subs	r4, r0, #0
 799 00a4 0300000A 		beq	.L56
 800              	.LVL95:
 801              	.L67:
 900:D:/Work/DeviceTester/amazon-freertos/lib/third_party/mbedtls/library\pkparse.c ****         return( MBEDTLS_ERR_PK_KEY_INVALID_FORMAT + ret );
 802              		.loc 1 900 0
 803 00a8 0500A0E1 		mov	r0, r5
 804              	.LVL96:
 901:D:/Work/DeviceTester/amazon-freertos/lib/third_party/mbedtls/library\pkparse.c ****     }
 805              		.loc 1 901 0
 806 00ac 3D4C44E2 		sub	r4, r4, #15616
 807              	.LVL97:
 900:D:/Work/DeviceTester/amazon-freertos/lib/third_party/mbedtls/library\pkparse.c ****         return( MBEDTLS_ERR_PK_KEY_INVALID_FORMAT + ret );
 808              		.loc 1 900 0
 809 00b0 FEFFFFEB 		bl	mbedtls_ecp_keypair_free
 810              	.LVL98:
 901:D:/Work/DeviceTester/amazon-freertos/lib/third_party/mbedtls/library\pkparse.c ****     }
 811              		.loc 1 901 0
 812 00b4 DDFFFFEA 		b	.L51
 813              	.LVL99:
 814              	.L56:
 834:D:/Work/DeviceTester/amazon-freertos/lib/third_party/mbedtls/library\pkparse.c **** 
 815              		.loc 1 834 0
 816 00b8 10309DE5 		ldr	r3, [sp, #16]
 817 00bc 0C209DE5 		ldr	r2, [sp, #12]
 818 00c0 023083E0 		add	r3, r3, r2
 837:D:/Work/DeviceTester/amazon-freertos/lib/third_party/mbedtls/library\pkparse.c ****     {
 819              		.loc 1 837 0
 820 00c4 030057E1 		cmp	r7, r3
 834:D:/Work/DeviceTester/amazon-freertos/lib/third_party/mbedtls/library\pkparse.c **** 
 821              		.loc 1 834 0
 822 00c8 10308DE5 		str	r3, [sp, #16]
 823              	.LVL100:
 837:D:/Work/DeviceTester/amazon-freertos/lib/third_party/mbedtls/library\pkparse.c ****     {
 824              		.loc 1 837 0
 825 00cc 2E00000A 		beq	.L57
 842:D:/Work/DeviceTester/amazon-freertos/lib/third_party/mbedtls/library\pkparse.c ****                         MBEDTLS_ASN1_CONTEXT_SPECIFIC | MBEDTLS_ASN1_CONSTRUCTED | 0 ) ) == 0 )
 826              		.loc 1 842 0
 827 00d0 A030A0E3 		mov	r3, #160
 828 00d4 0C208DE2 		add	r2, sp, #12
 829 00d8 0710A0E1 		mov	r1, r7
 830 00dc 10008DE2 		add	r0, sp, #16
 831              	.LVL101:
 832 00e0 FEFFFFEB 		bl	mbedtls_asn1_get_tag
 833              	.LVL102:
 834 00e4 004050E2 		subs	r4, r0, #0
 835 00e8 2500001A 		bne	.L58
 845:D:/Work/DeviceTester/amazon-freertos/lib/third_party/mbedtls/library\pkparse.c ****                 ( ret = pk_use_ecparams( &params, &eck->grp )  ) != 0 )
 836              		.loc 1 845 0
 837 00ec 0C209DE5 		ldr	r2, [sp, #12]
 838 00f0 10309DE5 		ldr	r3, [sp, #16]
 839              	.LBB34:
 840              	.LBB35:
 177:D:/Work/DeviceTester/amazon-freertos/lib/third_party/mbedtls/library\pkparse.c ****         return( MBEDTLS_ERR_PK_KEY_INVALID_FORMAT +
 841              		.loc 1 177 0
 842 00f4 000052E3 		cmp	r2, #0
 843              	.LBE35:
 844              	.LBE34:
 845:D:/Work/DeviceTester/amazon-freertos/lib/third_party/mbedtls/library\pkparse.c ****                 ( ret = pk_use_ecparams( &params, &eck->grp )  ) != 0 )
 845              		.loc 1 845 0
 846 00f8 024083E0 		add	r4, r3, r2
 847              	.LVL103:
 848              	.LBB38:
 849              	.LBB36:
 177:D:/Work/DeviceTester/amazon-freertos/lib/third_party/mbedtls/library\pkparse.c ****         return( MBEDTLS_ERR_PK_KEY_INVALID_FORMAT +
 850              		.loc 1 177 0
 851 00fc 1C0000DA 		ble	.L69
 182:D:/Work/DeviceTester/amazon-freertos/lib/third_party/mbedtls/library\pkparse.c ****     if( params->tag != MBEDTLS_ASN1_OID
 852              		.loc 1 182 0
 853 0100 0030D3E5 		ldrb	r3, [r3]	@ zero_extendqisi2
 183:D:/Work/DeviceTester/amazon-freertos/lib/third_party/mbedtls/library\pkparse.c **** #if defined(MBEDTLS_PK_PARSE_EC_EXTENDED)
 854              		.loc 1 183 0
 855 0104 060053E3 		cmp	r3, #6
 182:D:/Work/DeviceTester/amazon-freertos/lib/third_party/mbedtls/library\pkparse.c ****     if( params->tag != MBEDTLS_ASN1_OID
 856              		.loc 1 182 0
 857 0108 14308DE5 		str	r3, [sp, #20]
 183:D:/Work/DeviceTester/amazon-freertos/lib/third_party/mbedtls/library\pkparse.c **** #if defined(MBEDTLS_PK_PARSE_EC_EXTENDED)
 858              		.loc 1 183 0
 859 010c 1A00001A 		bne	.L70
 193:D:/Work/DeviceTester/amazon-freertos/lib/third_party/mbedtls/library\pkparse.c ****     {
 860              		.loc 1 193 0
 861 0110 18208DE2 		add	r2, sp, #24
 862 0114 0410A0E1 		mov	r1, r4
 863 0118 10008DE2 		add	r0, sp, #16
 864              	.LVL104:
 865 011c FEFFFFEB 		bl	mbedtls_asn1_get_tag
 866              	.LVL105:
 867 0120 000050E3 		cmp	r0, #0
 868 0124 0900000A 		beq	.L60
 869              	.LVL106:
 870              	.LBE36:
 871              	.LBE38:
 845:D:/Work/DeviceTester/amazon-freertos/lib/third_party/mbedtls/library\pkparse.c ****                 ( ret = pk_use_ecparams( &params, &eck->grp )  ) != 0 )
 872              		.loc 1 845 0
 873 0128 3D4C50E2 		subs	r4, r0, #15616
 874 012c 0400001A 		bne	.L89
 875              	.L61:
 876 0130 0510A0E1 		mov	r1, r5
 877 0134 14008DE2 		add	r0, sp, #20
 878 0138 FEFFFFEB 		bl	pk_use_ecparams
 879              	.LVL107:
 880 013c 004050E2 		subs	r4, r0, #0
 881 0140 1100000A 		beq	.L57
 882              	.LVL108:
 883              	.L89:
 906:D:/Work/DeviceTester/amazon-freertos/lib/third_party/mbedtls/library\pkparse.c ****         return( ret );
 884              		.loc 1 906 0
 885 0144 0500A0E1 		mov	r0, r5
 886 0148 FEFFFFEB 		bl	mbedtls_ecp_keypair_free
 887              	.LVL109:
 907:D:/Work/DeviceTester/amazon-freertos/lib/third_party/mbedtls/library\pkparse.c ****     }
 888              		.loc 1 907 0
 889 014c B7FFFFEA 		b	.L51
 890              	.LVL110:
 891              	.L60:
 892              	.LBB39:
 893              	.LBB37:
 198:D:/Work/DeviceTester/amazon-freertos/lib/third_party/mbedtls/library\pkparse.c ****     *p += params->len;
 894              		.loc 1 198 0
 895 0150 10309DE5 		ldr	r3, [sp, #16]
 199:D:/Work/DeviceTester/amazon-freertos/lib/third_party/mbedtls/library\pkparse.c **** 
 896              		.loc 1 199 0
 897 0154 18209DE5 		ldr	r2, [sp, #24]
 198:D:/Work/DeviceTester/amazon-freertos/lib/third_party/mbedtls/library\pkparse.c ****     *p += params->len;
 898              		.loc 1 198 0
 899 0158 1C308DE5 		str	r3, [sp, #28]
 199:D:/Work/DeviceTester/amazon-freertos/lib/third_party/mbedtls/library\pkparse.c **** 
 900              		.loc 1 199 0
 901 015c 023083E0 		add	r3, r3, r2
 201:D:/Work/DeviceTester/amazon-freertos/lib/third_party/mbedtls/library\pkparse.c ****         return( MBEDTLS_ERR_PK_KEY_INVALID_FORMAT +
 902              		.loc 1 201 0
 903 0160 030054E1 		cmp	r4, r3
 199:D:/Work/DeviceTester/amazon-freertos/lib/third_party/mbedtls/library\pkparse.c **** 
 904              		.loc 1 199 0
 905 0164 10308DE5 		str	r3, [sp, #16]
 202:D:/Work/DeviceTester/amazon-freertos/lib/third_party/mbedtls/library\pkparse.c ****                 MBEDTLS_ERR_ASN1_LENGTH_MISMATCH );
 906              		.loc 1 202 0
 907 0168 14419F15 		ldrne	r4, .L90+4
 908              	.LVL111:
 201:D:/Work/DeviceTester/amazon-freertos/lib/third_party/mbedtls/library\pkparse.c ****         return( MBEDTLS_ERR_PK_KEY_INVALID_FORMAT +
 909              		.loc 1 201 0
 910 016c EFFFFF0A 		beq	.L61
 911 0170 F3FFFFEA 		b	.L89
 912              	.LVL112:
 913              	.L69:
 178:D:/Work/DeviceTester/amazon-freertos/lib/third_party/mbedtls/library\pkparse.c ****                 MBEDTLS_ERR_ASN1_OUT_OF_DATA );
 914              		.loc 1 178 0
 915 0174 0C419FE5 		ldr	r4, .L90+8
 916              	.LVL113:
 917 0178 F1FFFFEA 		b	.L89
 918              	.LVL114:
 919              	.L70:
 189:D:/Work/DeviceTester/amazon-freertos/lib/third_party/mbedtls/library\pkparse.c ****                 MBEDTLS_ERR_ASN1_UNEXPECTED_TAG );
 920              		.loc 1 189 0
 921 017c 08419FE5 		ldr	r4, .L90+12
 922              	.LVL115:
 923 0180 EFFFFFEA 		b	.L89
 924              	.LVL116:
 925              	.L58:
 926              	.LBE37:
 927              	.LBE39:
 852:D:/Work/DeviceTester/amazon-freertos/lib/third_party/mbedtls/library\pkparse.c ****         {
 928              		.loc 1 852 0
 929 0184 620074E3 		cmn	r4, #98
 930 0188 C6FFFF1A 		bne	.L67
 931              	.L57:
 859:D:/Work/DeviceTester/amazon-freertos/lib/third_party/mbedtls/library\pkparse.c ****     {
 932              		.loc 1 859 0
 933 018c 10309DE5 		ldr	r3, [sp, #16]
 934 0190 030057E1 		cmp	r7, r3
 935 0194 2900000A 		beq	.L62
 865:D:/Work/DeviceTester/amazon-freertos/lib/third_party/mbedtls/library\pkparse.c ****                         MBEDTLS_ASN1_CONTEXT_SPECIFIC | MBEDTLS_ASN1_CONSTRUCTED | 1 ) ) == 0 )
 936              		.loc 1 865 0
 937 0198 A130A0E3 		mov	r3, #161
 938 019c 0C208DE2 		add	r2, sp, #12
 939 01a0 0710A0E1 		mov	r1, r7
 940 01a4 10008DE2 		add	r0, sp, #16
 941              	.LVL117:
 942 01a8 FEFFFFEB 		bl	mbedtls_asn1_get_tag
 943              	.LVL118:
 944 01ac 004050E2 		subs	r4, r0, #0
 945 01b0 2000001A 		bne	.L63
 868:D:/Work/DeviceTester/amazon-freertos/lib/third_party/mbedtls/library\pkparse.c **** 
 946              		.loc 1 868 0
 947 01b4 0C309DE5 		ldr	r3, [sp, #12]
 870:D:/Work/DeviceTester/amazon-freertos/lib/third_party/mbedtls/library\pkparse.c ****                 return( MBEDTLS_ERR_PK_KEY_INVALID_FORMAT + ret );
 948              		.loc 1 870 0
 949 01b8 0C208DE2 		add	r2, sp, #12
 868:D:/Work/DeviceTester/amazon-freertos/lib/third_party/mbedtls/library\pkparse.c **** 
 950              		.loc 1 868 0
 951 01bc 10409DE5 		ldr	r4, [sp, #16]
 870:D:/Work/DeviceTester/amazon-freertos/lib/third_party/mbedtls/library\pkparse.c ****                 return( MBEDTLS_ERR_PK_KEY_INVALID_FORMAT + ret );
 952              		.loc 1 870 0
 953 01c0 10008DE2 		add	r0, sp, #16
 954              	.LVL119:
 868:D:/Work/DeviceTester/amazon-freertos/lib/third_party/mbedtls/library\pkparse.c **** 
 955              		.loc 1 868 0
 956 01c4 034084E0 		add	r4, r4, r3
 957              	.LVL120:
 870:D:/Work/DeviceTester/amazon-freertos/lib/third_party/mbedtls/library\pkparse.c ****                 return( MBEDTLS_ERR_PK_KEY_INVALID_FORMAT + ret );
 958              		.loc 1 870 0
 959 01c8 0410A0E1 		mov	r1, r4
 960 01cc FEFFFFEB 		bl	mbedtls_asn1_get_bitstring_null
 961              	.LVL121:
 962 01d0 000050E3 		cmp	r0, #0
 963 01d4 94FFFF1A 		bne	.L88
 873:D:/Work/DeviceTester/amazon-freertos/lib/third_party/mbedtls/library\pkparse.c ****                 return( MBEDTLS_ERR_PK_KEY_INVALID_FORMAT +
 964              		.loc 1 873 0
 965 01d8 10209DE5 		ldr	r2, [sp, #16]
 966 01dc 0C309DE5 		ldr	r3, [sp, #12]
 967 01e0 033082E0 		add	r3, r2, r3
 968 01e4 030054E1 		cmp	r4, r3
 874:D:/Work/DeviceTester/amazon-freertos/lib/third_party/mbedtls/library\pkparse.c ****                         MBEDTLS_ERR_ASN1_LENGTH_MISMATCH );
 969              		.loc 1 874 0
 970 01e8 94409F15 		ldrne	r4, .L90+4
 971              	.LVL122:
 873:D:/Work/DeviceTester/amazon-freertos/lib/third_party/mbedtls/library\pkparse.c ****                 return( MBEDTLS_ERR_PK_KEY_INVALID_FORMAT +
 972              		.loc 1 873 0
 973 01ec 8FFFFF1A 		bne	.L51
 974              	.LVL123:
 975              	.LBB40:
 976              	.LBB41:
 489:D:/Work/DeviceTester/amazon-freertos/lib/third_party/mbedtls/library\pkparse.c ****                     (const unsigned char *) *p, end - *p ) ) == 0 )
 977              		.loc 1 489 0
 978 01f0 887085E2 		add	r7, r5, #136
 979              	.LVL124:
 980 01f4 023044E0 		sub	r3, r4, r2
 981 01f8 0710A0E1 		mov	r1, r7
 982 01fc 0500A0E1 		mov	r0, r5
 983              	.LVL125:
 984 0200 FEFFFFEB 		bl	mbedtls_ecp_point_read_binary
 985              	.LVL126:
 986 0204 000050E3 		cmp	r0, #0
 987 0208 0200001A 		bne	.L65
 492:D:/Work/DeviceTester/amazon-freertos/lib/third_party/mbedtls/library\pkparse.c ****     }
 988              		.loc 1 492 0
 989 020c 0710A0E1 		mov	r1, r7
 990 0210 0500A0E1 		mov	r0, r5
 991              	.LVL127:
 992 0214 FEFFFFEB 		bl	mbedtls_ecp_check_pubkey
 993              	.LVL128:
 994              	.L65:
 995              	.LBE41:
 996              	.LBE40:
 877:D:/Work/DeviceTester/amazon-freertos/lib/third_party/mbedtls/library\pkparse.c ****                 pubkey_done = 1;
 997              		.loc 1 877 0
 998 0218 000050E3 		cmp	r0, #0
 999              	.LBB43:
 1000              	.LBB42:
 498:D:/Work/DeviceTester/amazon-freertos/lib/third_party/mbedtls/library\pkparse.c **** 
 1001              		.loc 1 498 0
 1002 021c 10408DE5 		str	r4, [sp, #16]
 1003              	.LVL129:
 1004              	.LBE42:
 1005              	.LBE43:
 877:D:/Work/DeviceTester/amazon-freertos/lib/third_party/mbedtls/library\pkparse.c ****                 pubkey_done = 1;
 1006              		.loc 1 877 0
 1007 0220 1000000A 		beq	.L66
 885:D:/Work/DeviceTester/amazon-freertos/lib/third_party/mbedtls/library\pkparse.c ****                     return( MBEDTLS_ERR_PK_KEY_INVALID_FORMAT );
 1008              		.loc 1 885 0
 1009 0224 64309FE5 		ldr	r3, .L90+16
 1010 0228 030050E1 		cmp	r0, r3
 1011 022c 0300000A 		beq	.L62
 886:D:/Work/DeviceTester/amazon-freertos/lib/third_party/mbedtls/library\pkparse.c ****             }
 1012              		.loc 1 886 0
 1013 0230 5C409FE5 		ldr	r4, .L90+20
 1014 0234 7DFFFFEA 		b	.L51
 1015              	.LVL130:
 1016              	.L63:
 889:D:/Work/DeviceTester/amazon-freertos/lib/third_party/mbedtls/library\pkparse.c ****         {
 1017              		.loc 1 889 0
 1018 0238 620074E3 		cmn	r4, #98
 1019 023c 99FFFF1A 		bne	.L67
 1020              	.LVL131:
 1021              	.L62:
 896:D:/Work/DeviceTester/amazon-freertos/lib/third_party/mbedtls/library\pkparse.c ****         ( ret = mbedtls_ecp_mul( &eck->grp, &eck->Q, &eck->d, &eck->grp.G,
 1022              		.loc 1 896 0
 1023 0240 0030A0E3 		mov	r3, #0
 1024 0244 0620A0E1 		mov	r2, r6
 1025 0248 04308DE5 		str	r3, [sp, #4]
 1026 024c 881085E2 		add	r1, r5, #136
 1027 0250 00308DE5 		str	r3, [sp]
 1028 0254 0500A0E1 		mov	r0, r5
 1029 0258 283085E2 		add	r3, r5, #40
 1030 025c FEFFFFEB 		bl	mbedtls_ecp_mul
 1031              	.LVL132:
 1032 0260 004050E2 		subs	r4, r0, #0
 1033 0264 8FFFFF1A 		bne	.L67
 1034              	.LVL133:
 1035              	.L66:
 904:D:/Work/DeviceTester/amazon-freertos/lib/third_party/mbedtls/library\pkparse.c ****     {
 1036              		.loc 1 904 0
 1037 0268 0610A0E1 		mov	r1, r6
 1038 026c 0500A0E1 		mov	r0, r5
 1039 0270 FEFFFFEB 		bl	mbedtls_ecp_check_privkey
 1040              	.LVL134:
 1041 0274 004050E2 		subs	r4, r0, #0
 1042 0278 6CFFFF0A 		beq	.L51
 1043 027c B0FFFFEA 		b	.L89
 1044              	.L91:
 1045              		.align	2
 1046              	.L90:
 1047 0280 80C2FFFF 		.word	-15744
 1048 0284 9AC2FFFF 		.word	-15718
 1049 0288 A0C2FFFF 		.word	-15712
 1050 028c 9EC2FFFF 		.word	-15714
 1051 0290 80B1FFFF 		.word	-20096
 1052 0294 00C3FFFF 		.word	-15616
 1053              		.cfi_endproc
 1054              	.LFE18:
 1056              		.section	.text.pk_parse_key_pkcs8_unencrypted_der,"ax",%progbits
 1057              		.align	2
 1058              		.syntax unified
 1059              		.arm
 1060              		.fpu neon
 1062              	pk_parse_key_pkcs8_unencrypted_der:
 1063              	.LFB19:
 912:D:/Work/DeviceTester/amazon-freertos/lib/third_party/mbedtls/library\pkparse.c **** #endif /* MBEDTLS_ECP_C */
 913:D:/Work/DeviceTester/amazon-freertos/lib/third_party/mbedtls/library\pkparse.c **** 
 914:D:/Work/DeviceTester/amazon-freertos/lib/third_party/mbedtls/library\pkparse.c **** /*
 915:D:/Work/DeviceTester/amazon-freertos/lib/third_party/mbedtls/library\pkparse.c ****  * Parse an unencrypted PKCS#8 encoded private key
 916:D:/Work/DeviceTester/amazon-freertos/lib/third_party/mbedtls/library\pkparse.c ****  *
 917:D:/Work/DeviceTester/amazon-freertos/lib/third_party/mbedtls/library\pkparse.c ****  * Notes:
 918:D:/Work/DeviceTester/amazon-freertos/lib/third_party/mbedtls/library\pkparse.c ****  *
 919:D:/Work/DeviceTester/amazon-freertos/lib/third_party/mbedtls/library\pkparse.c ****  * - This function does not own the key buffer. It is the
 920:D:/Work/DeviceTester/amazon-freertos/lib/third_party/mbedtls/library\pkparse.c ****  *   responsibility of the caller to take care of zeroizing
 921:D:/Work/DeviceTester/amazon-freertos/lib/third_party/mbedtls/library\pkparse.c ****  *   and freeing it after use.
 922:D:/Work/DeviceTester/amazon-freertos/lib/third_party/mbedtls/library\pkparse.c ****  *
 923:D:/Work/DeviceTester/amazon-freertos/lib/third_party/mbedtls/library\pkparse.c ****  * - The function is responsible for freeing the provided
 924:D:/Work/DeviceTester/amazon-freertos/lib/third_party/mbedtls/library\pkparse.c ****  *   PK context on failure.
 925:D:/Work/DeviceTester/amazon-freertos/lib/third_party/mbedtls/library\pkparse.c ****  *
 926:D:/Work/DeviceTester/amazon-freertos/lib/third_party/mbedtls/library\pkparse.c ****  */
 927:D:/Work/DeviceTester/amazon-freertos/lib/third_party/mbedtls/library\pkparse.c **** static int pk_parse_key_pkcs8_unencrypted_der(
 928:D:/Work/DeviceTester/amazon-freertos/lib/third_party/mbedtls/library\pkparse.c ****                                     mbedtls_pk_context *pk,
 929:D:/Work/DeviceTester/amazon-freertos/lib/third_party/mbedtls/library\pkparse.c ****                                     const unsigned char* key,
 930:D:/Work/DeviceTester/amazon-freertos/lib/third_party/mbedtls/library\pkparse.c ****                                     size_t keylen )
 931:D:/Work/DeviceTester/amazon-freertos/lib/third_party/mbedtls/library\pkparse.c **** {
 1064              		.loc 1 931 0
 1065              		.cfi_startproc
 1066              		@ args = 0, pretend = 0, frame = 32
 1067              		@ frame_needed = 0, uses_anonymous_args = 0
 1068              	.LVL135:
 1069 0000 30402DE9 		push	{r4, r5, lr}
 1070              		.cfi_def_cfa_offset 12
 1071              		.cfi_offset 4, -12
 1072              		.cfi_offset 5, -8
 1073              		.cfi_offset 14, -4
 932:D:/Work/DeviceTester/amazon-freertos/lib/third_party/mbedtls/library\pkparse.c ****     int ret, version;
 933:D:/Work/DeviceTester/amazon-freertos/lib/third_party/mbedtls/library\pkparse.c ****     size_t len;
 934:D:/Work/DeviceTester/amazon-freertos/lib/third_party/mbedtls/library\pkparse.c ****     mbedtls_asn1_buf params;
 935:D:/Work/DeviceTester/amazon-freertos/lib/third_party/mbedtls/library\pkparse.c ****     unsigned char *p = (unsigned char *) key;
 936:D:/Work/DeviceTester/amazon-freertos/lib/third_party/mbedtls/library\pkparse.c ****     unsigned char *end = p + keylen;
 937:D:/Work/DeviceTester/amazon-freertos/lib/third_party/mbedtls/library\pkparse.c ****     mbedtls_pk_type_t pk_alg = MBEDTLS_PK_NONE;
 1074              		.loc 1 937 0
 1075 0004 0030A0E3 		mov	r3, #0
 931:D:/Work/DeviceTester/amazon-freertos/lib/third_party/mbedtls/library\pkparse.c ****     int ret, version;
 1076              		.loc 1 931 0
 1077 0008 24D04DE2 		sub	sp, sp, #36
 1078              		.cfi_def_cfa_offset 48
 931:D:/Work/DeviceTester/amazon-freertos/lib/third_party/mbedtls/library\pkparse.c ****     int ret, version;
 1079              		.loc 1 931 0
 1080 000c 0050A0E1 		mov	r5, r0
 938:D:/Work/DeviceTester/amazon-freertos/lib/third_party/mbedtls/library\pkparse.c ****     const mbedtls_pk_info_t *pk_info;
 939:D:/Work/DeviceTester/amazon-freertos/lib/third_party/mbedtls/library\pkparse.c **** 
 940:D:/Work/DeviceTester/amazon-freertos/lib/third_party/mbedtls/library\pkparse.c ****     /*
 941:D:/Work/DeviceTester/amazon-freertos/lib/third_party/mbedtls/library\pkparse.c ****      * This function parses the PrivateKeyInfo object (PKCS#8 v1.2 = RFC 5208)
 942:D:/Work/DeviceTester/amazon-freertos/lib/third_party/mbedtls/library\pkparse.c ****      *
 943:D:/Work/DeviceTester/amazon-freertos/lib/third_party/mbedtls/library\pkparse.c ****      *    PrivateKeyInfo ::= SEQUENCE {
 944:D:/Work/DeviceTester/amazon-freertos/lib/third_party/mbedtls/library\pkparse.c ****      *      version                   Version,
 945:D:/Work/DeviceTester/amazon-freertos/lib/third_party/mbedtls/library\pkparse.c ****      *      privateKeyAlgorithm       PrivateKeyAlgorithmIdentifier,
 946:D:/Work/DeviceTester/amazon-freertos/lib/third_party/mbedtls/library\pkparse.c ****      *      privateKey                PrivateKey,
 947:D:/Work/DeviceTester/amazon-freertos/lib/third_party/mbedtls/library\pkparse.c ****      *      attributes           [0]  IMPLICIT Attributes OPTIONAL }
 948:D:/Work/DeviceTester/amazon-freertos/lib/third_party/mbedtls/library\pkparse.c ****      *
 949:D:/Work/DeviceTester/amazon-freertos/lib/third_party/mbedtls/library\pkparse.c ****      *    Version ::= INTEGER
 950:D:/Work/DeviceTester/amazon-freertos/lib/third_party/mbedtls/library\pkparse.c ****      *    PrivateKeyAlgorithmIdentifier ::= AlgorithmIdentifier
 951:D:/Work/DeviceTester/amazon-freertos/lib/third_party/mbedtls/library\pkparse.c ****      *    PrivateKey ::= OCTET STRING
 952:D:/Work/DeviceTester/amazon-freertos/lib/third_party/mbedtls/library\pkparse.c ****      *
 953:D:/Work/DeviceTester/amazon-freertos/lib/third_party/mbedtls/library\pkparse.c ****      *  The PrivateKey OCTET STRING is a SEC1 ECPrivateKey
 954:D:/Work/DeviceTester/amazon-freertos/lib/third_party/mbedtls/library\pkparse.c ****      */
 955:D:/Work/DeviceTester/amazon-freertos/lib/third_party/mbedtls/library\pkparse.c **** 
 956:D:/Work/DeviceTester/amazon-freertos/lib/third_party/mbedtls/library\pkparse.c ****     if( ( ret = mbedtls_asn1_get_tag( &p, end, &len,
 1081              		.loc 1 956 0
 1082 0010 10008DE2 		add	r0, sp, #16
 1083              	.LVL136:
 935:D:/Work/DeviceTester/amazon-freertos/lib/third_party/mbedtls/library\pkparse.c ****     unsigned char *end = p + keylen;
 1084              		.loc 1 935 0
 1085 0014 10108DE5 		str	r1, [sp, #16]
 1086              	.LVL137:
 936:D:/Work/DeviceTester/amazon-freertos/lib/third_party/mbedtls/library\pkparse.c ****     mbedtls_pk_type_t pk_alg = MBEDTLS_PK_NONE;
 1087              		.loc 1 936 0
 1088 0018 021081E0 		add	r1, r1, r2
 1089              	.LVL138:
 937:D:/Work/DeviceTester/amazon-freertos/lib/third_party/mbedtls/library\pkparse.c ****     const mbedtls_pk_info_t *pk_info;
 1090              		.loc 1 937 0
 1091 001c 0730CDE5 		strb	r3, [sp, #7]
 1092              		.loc 1 956 0
 1093 0020 0C208DE2 		add	r2, sp, #12
 1094              	.LVL139:
 1095 0024 3030A0E3 		mov	r3, #48
 1096 0028 FEFFFFEB 		bl	mbedtls_asn1_get_tag
 1097              	.LVL140:
 1098 002c 000050E3 		cmp	r0, #0
 1099 0030 0300000A 		beq	.L93
 1100              	.LVL141:
 1101              	.L113:
 957:D:/Work/DeviceTester/amazon-freertos/lib/third_party/mbedtls/library\pkparse.c ****             MBEDTLS_ASN1_CONSTRUCTED | MBEDTLS_ASN1_SEQUENCE ) ) != 0 )
 958:D:/Work/DeviceTester/amazon-freertos/lib/third_party/mbedtls/library\pkparse.c ****     {
 959:D:/Work/DeviceTester/amazon-freertos/lib/third_party/mbedtls/library\pkparse.c ****         return( MBEDTLS_ERR_PK_KEY_INVALID_FORMAT + ret );
 960:D:/Work/DeviceTester/amazon-freertos/lib/third_party/mbedtls/library\pkparse.c ****     }
 961:D:/Work/DeviceTester/amazon-freertos/lib/third_party/mbedtls/library\pkparse.c **** 
 962:D:/Work/DeviceTester/amazon-freertos/lib/third_party/mbedtls/library\pkparse.c ****     end = p + len;
 963:D:/Work/DeviceTester/amazon-freertos/lib/third_party/mbedtls/library\pkparse.c **** 
 964:D:/Work/DeviceTester/amazon-freertos/lib/third_party/mbedtls/library\pkparse.c ****     if( ( ret = mbedtls_asn1_get_int( &p, end, &version ) ) != 0 )
 965:D:/Work/DeviceTester/amazon-freertos/lib/third_party/mbedtls/library\pkparse.c ****         return( MBEDTLS_ERR_PK_KEY_INVALID_FORMAT + ret );
 966:D:/Work/DeviceTester/amazon-freertos/lib/third_party/mbedtls/library\pkparse.c **** 
 967:D:/Work/DeviceTester/amazon-freertos/lib/third_party/mbedtls/library\pkparse.c ****     if( version != 0 )
 968:D:/Work/DeviceTester/amazon-freertos/lib/third_party/mbedtls/library\pkparse.c ****         return( MBEDTLS_ERR_PK_KEY_INVALID_VERSION + ret );
 969:D:/Work/DeviceTester/amazon-freertos/lib/third_party/mbedtls/library\pkparse.c **** 
 970:D:/Work/DeviceTester/amazon-freertos/lib/third_party/mbedtls/library\pkparse.c ****     if( ( ret = pk_get_pk_alg( &p, end, &pk_alg, &params ) ) != 0 )
 971:D:/Work/DeviceTester/amazon-freertos/lib/third_party/mbedtls/library\pkparse.c ****         return( MBEDTLS_ERR_PK_KEY_INVALID_FORMAT + ret );
 972:D:/Work/DeviceTester/amazon-freertos/lib/third_party/mbedtls/library\pkparse.c **** 
 973:D:/Work/DeviceTester/amazon-freertos/lib/third_party/mbedtls/library\pkparse.c ****     if( ( ret = mbedtls_asn1_get_tag( &p, end, &len, MBEDTLS_ASN1_OCTET_STRING ) ) != 0 )
 974:D:/Work/DeviceTester/amazon-freertos/lib/third_party/mbedtls/library\pkparse.c ****         return( MBEDTLS_ERR_PK_KEY_INVALID_FORMAT + ret );
 1102              		.loc 1 974 0
 1103 0034 3D4C40E2 		sub	r4, r0, #15616
 1104              	.LVL142:
 1105              	.L92:
 975:D:/Work/DeviceTester/amazon-freertos/lib/third_party/mbedtls/library\pkparse.c **** 
 976:D:/Work/DeviceTester/amazon-freertos/lib/third_party/mbedtls/library\pkparse.c ****     if( len < 1 )
 977:D:/Work/DeviceTester/amazon-freertos/lib/third_party/mbedtls/library\pkparse.c ****         return( MBEDTLS_ERR_PK_KEY_INVALID_FORMAT +
 978:D:/Work/DeviceTester/amazon-freertos/lib/third_party/mbedtls/library\pkparse.c ****                 MBEDTLS_ERR_ASN1_OUT_OF_DATA );
 979:D:/Work/DeviceTester/amazon-freertos/lib/third_party/mbedtls/library\pkparse.c **** 
 980:D:/Work/DeviceTester/amazon-freertos/lib/third_party/mbedtls/library\pkparse.c ****     if( ( pk_info = mbedtls_pk_info_from_type( pk_alg ) ) == NULL )
 981:D:/Work/DeviceTester/amazon-freertos/lib/third_party/mbedtls/library\pkparse.c ****         return( MBEDTLS_ERR_PK_UNKNOWN_PK_ALG );
 982:D:/Work/DeviceTester/amazon-freertos/lib/third_party/mbedtls/library\pkparse.c **** 
 983:D:/Work/DeviceTester/amazon-freertos/lib/third_party/mbedtls/library\pkparse.c ****     if( ( ret = mbedtls_pk_setup( pk, pk_info ) ) != 0 )
 984:D:/Work/DeviceTester/amazon-freertos/lib/third_party/mbedtls/library\pkparse.c ****         return( ret );
 985:D:/Work/DeviceTester/amazon-freertos/lib/third_party/mbedtls/library\pkparse.c **** 
 986:D:/Work/DeviceTester/amazon-freertos/lib/third_party/mbedtls/library\pkparse.c **** #if defined(MBEDTLS_RSA_C)
 987:D:/Work/DeviceTester/amazon-freertos/lib/third_party/mbedtls/library\pkparse.c ****     if( pk_alg == MBEDTLS_PK_RSA )
 988:D:/Work/DeviceTester/amazon-freertos/lib/third_party/mbedtls/library\pkparse.c ****     {
 989:D:/Work/DeviceTester/amazon-freertos/lib/third_party/mbedtls/library\pkparse.c ****         if( ( ret = pk_parse_key_pkcs1_der( mbedtls_pk_rsa( *pk ), p, len ) ) != 0 )
 990:D:/Work/DeviceTester/amazon-freertos/lib/third_party/mbedtls/library\pkparse.c ****         {
 991:D:/Work/DeviceTester/amazon-freertos/lib/third_party/mbedtls/library\pkparse.c ****             mbedtls_pk_free( pk );
 992:D:/Work/DeviceTester/amazon-freertos/lib/third_party/mbedtls/library\pkparse.c ****             return( ret );
 993:D:/Work/DeviceTester/amazon-freertos/lib/third_party/mbedtls/library\pkparse.c ****         }
 994:D:/Work/DeviceTester/amazon-freertos/lib/third_party/mbedtls/library\pkparse.c ****     } else
 995:D:/Work/DeviceTester/amazon-freertos/lib/third_party/mbedtls/library\pkparse.c **** #endif /* MBEDTLS_RSA_C */
 996:D:/Work/DeviceTester/amazon-freertos/lib/third_party/mbedtls/library\pkparse.c **** #if defined(MBEDTLS_ECP_C)
 997:D:/Work/DeviceTester/amazon-freertos/lib/third_party/mbedtls/library\pkparse.c ****     if( pk_alg == MBEDTLS_PK_ECKEY || pk_alg == MBEDTLS_PK_ECKEY_DH )
 998:D:/Work/DeviceTester/amazon-freertos/lib/third_party/mbedtls/library\pkparse.c ****     {
 999:D:/Work/DeviceTester/amazon-freertos/lib/third_party/mbedtls/library\pkparse.c ****         if( ( ret = pk_use_ecparams( &params, &mbedtls_pk_ec( *pk )->grp ) ) != 0 ||
1000:D:/Work/DeviceTester/amazon-freertos/lib/third_party/mbedtls/library\pkparse.c ****             ( ret = pk_parse_key_sec1_der( mbedtls_pk_ec( *pk ), p, len )  ) != 0 )
1001:D:/Work/DeviceTester/amazon-freertos/lib/third_party/mbedtls/library\pkparse.c ****         {
1002:D:/Work/DeviceTester/amazon-freertos/lib/third_party/mbedtls/library\pkparse.c ****             mbedtls_pk_free( pk );
1003:D:/Work/DeviceTester/amazon-freertos/lib/third_party/mbedtls/library\pkparse.c ****             return( ret );
1004:D:/Work/DeviceTester/amazon-freertos/lib/third_party/mbedtls/library\pkparse.c ****         }
1005:D:/Work/DeviceTester/amazon-freertos/lib/third_party/mbedtls/library\pkparse.c ****     } else
1006:D:/Work/DeviceTester/amazon-freertos/lib/third_party/mbedtls/library\pkparse.c **** #endif /* MBEDTLS_ECP_C */
1007:D:/Work/DeviceTester/amazon-freertos/lib/third_party/mbedtls/library\pkparse.c ****         return( MBEDTLS_ERR_PK_UNKNOWN_PK_ALG );
1008:D:/Work/DeviceTester/amazon-freertos/lib/third_party/mbedtls/library\pkparse.c **** 
1009:D:/Work/DeviceTester/amazon-freertos/lib/third_party/mbedtls/library\pkparse.c ****     return( 0 );
1010:D:/Work/DeviceTester/amazon-freertos/lib/third_party/mbedtls/library\pkparse.c **** }
 1106              		.loc 1 1010 0
 1107 0038 0400A0E1 		mov	r0, r4
 1108 003c 24D08DE2 		add	sp, sp, #36
 1109              		.cfi_remember_state
 1110              		.cfi_def_cfa_offset 12
 1111              		@ sp needed
 1112 0040 3080BDE8 		pop	{r4, r5, pc}
 1113              	.LVL143:
 1114              	.L93:
 1115              		.cfi_restore_state
 962:D:/Work/DeviceTester/amazon-freertos/lib/third_party/mbedtls/library\pkparse.c **** 
 1116              		.loc 1 962 0
 1117 0044 0C309DE5 		ldr	r3, [sp, #12]
 964:D:/Work/DeviceTester/amazon-freertos/lib/third_party/mbedtls/library\pkparse.c ****         return( MBEDTLS_ERR_PK_KEY_INVALID_FORMAT + ret );
 1118              		.loc 1 964 0
 1119 0048 08208DE2 		add	r2, sp, #8
 962:D:/Work/DeviceTester/amazon-freertos/lib/third_party/mbedtls/library\pkparse.c **** 
 1120              		.loc 1 962 0
 1121 004c 10409DE5 		ldr	r4, [sp, #16]
 964:D:/Work/DeviceTester/amazon-freertos/lib/third_party/mbedtls/library\pkparse.c ****         return( MBEDTLS_ERR_PK_KEY_INVALID_FORMAT + ret );
 1122              		.loc 1 964 0
 1123 0050 10008DE2 		add	r0, sp, #16
 1124              	.LVL144:
 962:D:/Work/DeviceTester/amazon-freertos/lib/third_party/mbedtls/library\pkparse.c **** 
 1125              		.loc 1 962 0
 1126 0054 034084E0 		add	r4, r4, r3
 1127              	.LVL145:
 964:D:/Work/DeviceTester/amazon-freertos/lib/third_party/mbedtls/library\pkparse.c ****         return( MBEDTLS_ERR_PK_KEY_INVALID_FORMAT + ret );
 1128              		.loc 1 964 0
 1129 0058 0410A0E1 		mov	r1, r4
 1130 005c FEFFFFEB 		bl	mbedtls_asn1_get_int
 1131              	.LVL146:
 1132 0060 000050E3 		cmp	r0, #0
 1133 0064 F2FFFF1A 		bne	.L113
 967:D:/Work/DeviceTester/amazon-freertos/lib/third_party/mbedtls/library\pkparse.c ****         return( MBEDTLS_ERR_PK_KEY_INVALID_VERSION + ret );
 1134              		.loc 1 967 0
 1135 0068 08309DE5 		ldr	r3, [sp, #8]
 1136 006c 000053E3 		cmp	r3, #0
 968:D:/Work/DeviceTester/amazon-freertos/lib/third_party/mbedtls/library\pkparse.c **** 
 1137              		.loc 1 968 0
 1138 0070 D4409F15 		ldrne	r4, .L116
 1139              	.LVL147:
 967:D:/Work/DeviceTester/amazon-freertos/lib/third_party/mbedtls/library\pkparse.c ****         return( MBEDTLS_ERR_PK_KEY_INVALID_VERSION + ret );
 1140              		.loc 1 967 0
 1141 0074 EFFFFF1A 		bne	.L92
 970:D:/Work/DeviceTester/amazon-freertos/lib/third_party/mbedtls/library\pkparse.c ****         return( MBEDTLS_ERR_PK_KEY_INVALID_FORMAT + ret );
 1142              		.loc 1 970 0
 1143 0078 14308DE2 		add	r3, sp, #20
 1144 007c 07208DE2 		add	r2, sp, #7
 1145 0080 0410A0E1 		mov	r1, r4
 1146 0084 10008DE2 		add	r0, sp, #16
 1147              	.LVL148:
 1148 0088 FEFFFFEB 		bl	pk_get_pk_alg
 1149              	.LVL149:
 1150 008c 000050E3 		cmp	r0, #0
 1151 0090 E7FFFF1A 		bne	.L113
 973:D:/Work/DeviceTester/amazon-freertos/lib/third_party/mbedtls/library\pkparse.c ****         return( MBEDTLS_ERR_PK_KEY_INVALID_FORMAT + ret );
 1152              		.loc 1 973 0
 1153 0094 0430A0E3 		mov	r3, #4
 1154 0098 0C208DE2 		add	r2, sp, #12
 1155 009c 0410A0E1 		mov	r1, r4
 1156 00a0 10008DE2 		add	r0, sp, #16
 1157              	.LVL150:
 1158 00a4 FEFFFFEB 		bl	mbedtls_asn1_get_tag
 1159              	.LVL151:
 1160 00a8 000050E3 		cmp	r0, #0
 1161 00ac E0FFFF1A 		bne	.L113
 976:D:/Work/DeviceTester/amazon-freertos/lib/third_party/mbedtls/library\pkparse.c ****         return( MBEDTLS_ERR_PK_KEY_INVALID_FORMAT +
 1162              		.loc 1 976 0
 1163 00b0 0C309DE5 		ldr	r3, [sp, #12]
 1164 00b4 000053E3 		cmp	r3, #0
 977:D:/Work/DeviceTester/amazon-freertos/lib/third_party/mbedtls/library\pkparse.c ****                 MBEDTLS_ERR_ASN1_OUT_OF_DATA );
 1165              		.loc 1 977 0
 1166 00b8 90409F05 		ldreq	r4, .L116+4
 976:D:/Work/DeviceTester/amazon-freertos/lib/third_party/mbedtls/library\pkparse.c ****         return( MBEDTLS_ERR_PK_KEY_INVALID_FORMAT +
 1167              		.loc 1 976 0
 1168 00bc DDFFFF0A 		beq	.L92
 980:D:/Work/DeviceTester/amazon-freertos/lib/third_party/mbedtls/library\pkparse.c ****         return( MBEDTLS_ERR_PK_UNKNOWN_PK_ALG );
 1169              		.loc 1 980 0
 1170 00c0 0700DDE5 		ldrb	r0, [sp, #7]	@ zero_extendqisi2
 1171              	.LVL152:
 1172 00c4 FEFFFFEB 		bl	mbedtls_pk_info_from_type
 1173              	.LVL153:
 1174 00c8 001050E2 		subs	r1, r0, #0
 1175 00cc 0100001A 		bne	.L98
 1176              	.LVL154:
 1177              	.L100:
 981:D:/Work/DeviceTester/amazon-freertos/lib/third_party/mbedtls/library\pkparse.c **** 
 1178              		.loc 1 981 0
 1179 00d0 7C409FE5 		ldr	r4, .L116+8
 1180 00d4 D7FFFFEA 		b	.L92
 1181              	.LVL155:
 1182              	.L98:
 983:D:/Work/DeviceTester/amazon-freertos/lib/third_party/mbedtls/library\pkparse.c ****         return( ret );
 1183              		.loc 1 983 0
 1184 00d8 0500A0E1 		mov	r0, r5
 1185              	.LVL156:
 1186 00dc FEFFFFEB 		bl	mbedtls_pk_setup
 1187              	.LVL157:
 1188 00e0 004050E2 		subs	r4, r0, #0
 1189 00e4 D3FFFF1A 		bne	.L92
 987:D:/Work/DeviceTester/amazon-freertos/lib/third_party/mbedtls/library\pkparse.c ****     {
 1190              		.loc 1 987 0
 1191 00e8 0730DDE5 		ldrb	r3, [sp, #7]	@ zero_extendqisi2
 1192 00ec 010053E3 		cmp	r3, #1
 1193 00f0 0800001A 		bne	.L99
 989:D:/Work/DeviceTester/amazon-freertos/lib/third_party/mbedtls/library\pkparse.c ****         {
 1194              		.loc 1 989 0
 1195 00f4 0C209DE5 		ldr	r2, [sp, #12]
 1196 00f8 10109DE5 		ldr	r1, [sp, #16]
 1197 00fc 040095E5 		ldr	r0, [r5, #4]
 1198              	.LVL158:
 1199 0100 FEFFFFEB 		bl	pk_parse_key_pkcs1_der
 1200              	.LVL159:
 1201              	.L115:
 999:D:/Work/DeviceTester/amazon-freertos/lib/third_party/mbedtls/library\pkparse.c ****             ( ret = pk_parse_key_sec1_der( mbedtls_pk_ec( *pk ), p, len )  ) != 0 )
 1202              		.loc 1 999 0 discriminator 1
 1203 0104 004050E2 		subs	r4, r0, #0
 1204 0108 CAFFFF0A 		beq	.L92
 1205              	.L101:
1002:D:/Work/DeviceTester/amazon-freertos/lib/third_party/mbedtls/library\pkparse.c ****             return( ret );
 1206              		.loc 1 1002 0
 1207 010c 0500A0E1 		mov	r0, r5
 1208              	.LVL160:
 1209 0110 FEFFFFEB 		bl	mbedtls_pk_free
 1210              	.LVL161:
1003:D:/Work/DeviceTester/amazon-freertos/lib/third_party/mbedtls/library\pkparse.c ****         }
 1211              		.loc 1 1003 0
 1212 0114 C7FFFFEA 		b	.L92
 1213              	.LVL162:
 1214              	.L99:
 997:D:/Work/DeviceTester/amazon-freertos/lib/third_party/mbedtls/library\pkparse.c ****     {
 1215              		.loc 1 997 0
 1216 0118 023043E2 		sub	r3, r3, #2
 1217 011c 010053E3 		cmp	r3, #1
 1218 0120 EAFFFF8A 		bhi	.L100
 999:D:/Work/DeviceTester/amazon-freertos/lib/third_party/mbedtls/library\pkparse.c ****             ( ret = pk_parse_key_sec1_der( mbedtls_pk_ec( *pk ), p, len )  ) != 0 )
 1219              		.loc 1 999 0
 1220 0124 041095E5 		ldr	r1, [r5, #4]
 1221 0128 14008DE2 		add	r0, sp, #20
 1222              	.LVL163:
 1223 012c FEFFFFEB 		bl	pk_use_ecparams
 1224              	.LVL164:
 1225 0130 004050E2 		subs	r4, r0, #0
 1226 0134 F4FFFF1A 		bne	.L101
 999:D:/Work/DeviceTester/amazon-freertos/lib/third_party/mbedtls/library\pkparse.c ****             ( ret = pk_parse_key_sec1_der( mbedtls_pk_ec( *pk ), p, len )  ) != 0 )
 1227              		.loc 1 999 0 is_stmt 0 discriminator 1
 1228 0138 0C209DE5 		ldr	r2, [sp, #12]
 1229 013c 10109DE5 		ldr	r1, [sp, #16]
 1230 0140 040095E5 		ldr	r0, [r5, #4]
 1231              	.LVL165:
 1232 0144 FEFFFFEB 		bl	pk_parse_key_sec1_der
 1233              	.LVL166:
 1234 0148 EDFFFFEA 		b	.L115
 1235              	.L117:
 1236              		.align	2
 1237              	.L116:
 1238 014c 80C2FFFF 		.word	-15744
 1239 0150 A0C2FFFF 		.word	-15712
 1240 0154 80C3FFFF 		.word	-15488
 1241              		.cfi_endproc
 1242              	.LFE19:
 1244              		.section	.text.mbedtls_pk_parse_subpubkey,"ax",%progbits
 1245              		.align	2
 1246              		.global	mbedtls_pk_parse_subpubkey
 1247              		.syntax unified
 1248              		.arm
 1249              		.fpu neon
 1251              	mbedtls_pk_parse_subpubkey:
 1252              	.LFB16:
 601:D:/Work/DeviceTester/amazon-freertos/lib/third_party/mbedtls/library\pkparse.c ****     int ret;
 1253              		.loc 1 601 0 is_stmt 1
 1254              		.cfi_startproc
 1255              		@ args = 0, pretend = 0, frame = 24
 1256              		@ frame_needed = 0, uses_anonymous_args = 0
 1257              	.LVL167:
 1258 0000 F0472DE9 		push	{r4, r5, r6, r7, r8, r9, r10, lr}
 1259              		.cfi_def_cfa_offset 32
 1260              		.cfi_offset 4, -32
 1261              		.cfi_offset 5, -28
 1262              		.cfi_offset 6, -24
 1263              		.cfi_offset 7, -20
 1264              		.cfi_offset 8, -16
 1265              		.cfi_offset 9, -12
 1266              		.cfi_offset 10, -8
 1267              		.cfi_offset 14, -4
 605:D:/Work/DeviceTester/amazon-freertos/lib/third_party/mbedtls/library\pkparse.c ****     const mbedtls_pk_info_t *pk_info;
 1268              		.loc 1 605 0
 1269 0004 0030A0E3 		mov	r3, #0
 601:D:/Work/DeviceTester/amazon-freertos/lib/third_party/mbedtls/library\pkparse.c ****     int ret;
 1270              		.loc 1 601 0
 1271 0008 18D04DE2 		sub	sp, sp, #24
 1272              		.cfi_def_cfa_offset 56
 601:D:/Work/DeviceTester/amazon-freertos/lib/third_party/mbedtls/library\pkparse.c ****     int ret;
 1273              		.loc 1 601 0
 1274 000c 0280A0E1 		mov	r8, r2
 608:D:/Work/DeviceTester/amazon-freertos/lib/third_party/mbedtls/library\pkparse.c ****                     MBEDTLS_ASN1_CONSTRUCTED | MBEDTLS_ASN1_SEQUENCE ) ) != 0 )
 1275              		.loc 1 608 0
 1276 0010 08208DE2 		add	r2, sp, #8
 1277              	.LVL168:
 601:D:/Work/DeviceTester/amazon-freertos/lib/third_party/mbedtls/library\pkparse.c ****     int ret;
 1278              		.loc 1 601 0
 1279 0014 0060A0E1 		mov	r6, r0
 605:D:/Work/DeviceTester/amazon-freertos/lib/third_party/mbedtls/library\pkparse.c ****     const mbedtls_pk_info_t *pk_info;
 1280              		.loc 1 605 0
 1281 0018 0730CDE5 		strb	r3, [sp, #7]
 608:D:/Work/DeviceTester/amazon-freertos/lib/third_party/mbedtls/library\pkparse.c ****                     MBEDTLS_ASN1_CONSTRUCTED | MBEDTLS_ASN1_SEQUENCE ) ) != 0 )
 1282              		.loc 1 608 0
 1283 001c 3030A0E3 		mov	r3, #48
 1284 0020 FEFFFFEB 		bl	mbedtls_asn1_get_tag
 1285              	.LVL169:
 1286 0024 000050E3 		cmp	r0, #0
 611:D:/Work/DeviceTester/amazon-freertos/lib/third_party/mbedtls/library\pkparse.c ****     }
 1287              		.loc 1 611 0
 1288 0028 3D4C4012 		subne	r4, r0, #15616
 608:D:/Work/DeviceTester/amazon-freertos/lib/third_party/mbedtls/library\pkparse.c ****                     MBEDTLS_ASN1_CONSTRUCTED | MBEDTLS_ASN1_SEQUENCE ) ) != 0 )
 1289              		.loc 1 608 0
 1290 002c 4500001A 		bne	.L118
 614:D:/Work/DeviceTester/amazon-freertos/lib/third_party/mbedtls/library\pkparse.c **** 
 1291              		.loc 1 614 0
 1292 0030 08309DE5 		ldr	r3, [sp, #8]
 616:D:/Work/DeviceTester/amazon-freertos/lib/third_party/mbedtls/library\pkparse.c ****         return( ret );
 1293              		.loc 1 616 0
 1294 0034 07208DE2 		add	r2, sp, #7
 614:D:/Work/DeviceTester/amazon-freertos/lib/third_party/mbedtls/library\pkparse.c **** 
 1295              		.loc 1 614 0
 1296 0038 005096E5 		ldr	r5, [r6]
 616:D:/Work/DeviceTester/amazon-freertos/lib/third_party/mbedtls/library\pkparse.c ****         return( ret );
 1297              		.loc 1 616 0
 1298 003c 0600A0E1 		mov	r0, r6
 1299              	.LVL170:
 614:D:/Work/DeviceTester/amazon-freertos/lib/third_party/mbedtls/library\pkparse.c **** 
 1300              		.loc 1 614 0
 1301 0040 035085E0 		add	r5, r5, r3
 1302              	.LVL171:
 616:D:/Work/DeviceTester/amazon-freertos/lib/third_party/mbedtls/library\pkparse.c ****         return( ret );
 1303              		.loc 1 616 0
 1304 0044 0C308DE2 		add	r3, sp, #12
 1305 0048 0510A0E1 		mov	r1, r5
 1306 004c FEFFFFEB 		bl	pk_get_pk_alg
 1307              	.LVL172:
 1308 0050 004050E2 		subs	r4, r0, #0
 1309 0054 3B00001A 		bne	.L118
 619:D:/Work/DeviceTester/amazon-freertos/lib/third_party/mbedtls/library\pkparse.c ****         return( MBEDTLS_ERR_PK_INVALID_PUBKEY + ret );
 1310              		.loc 1 619 0
 1311 0058 08208DE2 		add	r2, sp, #8
 1312 005c 0510A0E1 		mov	r1, r5
 1313 0060 0600A0E1 		mov	r0, r6
 1314              	.LVL173:
 1315 0064 FEFFFFEB 		bl	mbedtls_asn1_get_bitstring_null
 1316              	.LVL174:
 1317 0068 000050E3 		cmp	r0, #0
 620:D:/Work/DeviceTester/amazon-freertos/lib/third_party/mbedtls/library\pkparse.c **** 
 1318              		.loc 1 620 0
 1319 006c 3B4C4012 		subne	r4, r0, #15104
 619:D:/Work/DeviceTester/amazon-freertos/lib/third_party/mbedtls/library\pkparse.c ****         return( MBEDTLS_ERR_PK_INVALID_PUBKEY + ret );
 1320              		.loc 1 619 0
 1321 0070 3400001A 		bne	.L118
 622:D:/Work/DeviceTester/amazon-freertos/lib/third_party/mbedtls/library\pkparse.c ****         return( MBEDTLS_ERR_PK_INVALID_PUBKEY +
 1322              		.loc 1 622 0
 1323 0074 003096E5 		ldr	r3, [r6]
 1324 0078 08209DE5 		ldr	r2, [sp, #8]
 1325 007c 023083E0 		add	r3, r3, r2
 1326 0080 030055E1 		cmp	r5, r3
 623:D:/Work/DeviceTester/amazon-freertos/lib/third_party/mbedtls/library\pkparse.c ****                 MBEDTLS_ERR_ASN1_LENGTH_MISMATCH );
 1327              		.loc 1 623 0
 1328 0084 DC409F15 		ldrne	r4, .L132
 622:D:/Work/DeviceTester/amazon-freertos/lib/third_party/mbedtls/library\pkparse.c ****         return( MBEDTLS_ERR_PK_INVALID_PUBKEY +
 1329              		.loc 1 622 0
 1330 0088 2E00001A 		bne	.L118
 626:D:/Work/DeviceTester/amazon-freertos/lib/third_party/mbedtls/library\pkparse.c ****         return( MBEDTLS_ERR_PK_UNKNOWN_PK_ALG );
 1331              		.loc 1 626 0
 1332 008c 0700DDE5 		ldrb	r0, [sp, #7]	@ zero_extendqisi2
 1333              	.LVL175:
 1334 0090 FEFFFFEB 		bl	mbedtls_pk_info_from_type
 1335              	.LVL176:
 1336 0094 001050E2 		subs	r1, r0, #0
 627:D:/Work/DeviceTester/amazon-freertos/lib/third_party/mbedtls/library\pkparse.c **** 
 1337              		.loc 1 627 0
 1338 0098 CC409F05 		ldreq	r4, .L132+4
 626:D:/Work/DeviceTester/amazon-freertos/lib/third_party/mbedtls/library\pkparse.c ****         return( MBEDTLS_ERR_PK_UNKNOWN_PK_ALG );
 1339              		.loc 1 626 0
 1340 009c 2900000A 		beq	.L118
 629:D:/Work/DeviceTester/amazon-freertos/lib/third_party/mbedtls/library\pkparse.c ****         return( ret );
 1341              		.loc 1 629 0
 1342 00a0 0800A0E1 		mov	r0, r8
 1343              	.LVL177:
 1344 00a4 FEFFFFEB 		bl	mbedtls_pk_setup
 1345              	.LVL178:
 1346 00a8 004050E2 		subs	r4, r0, #0
 1347 00ac 2500001A 		bne	.L118
 633:D:/Work/DeviceTester/amazon-freertos/lib/third_party/mbedtls/library\pkparse.c ****     {
 1348              		.loc 1 633 0
 1349 00b0 0730DDE5 		ldrb	r3, [sp, #7]	@ zero_extendqisi2
 1350 00b4 010053E3 		cmp	r3, #1
 1351 00b8 0900001A 		bne	.L122
 635:D:/Work/DeviceTester/amazon-freertos/lib/third_party/mbedtls/library\pkparse.c ****     } else
 1352              		.loc 1 635 0
 1353 00bc 042098E5 		ldr	r2, [r8, #4]
 1354 00c0 0510A0E1 		mov	r1, r5
 1355 00c4 0600A0E1 		mov	r0, r6
 1356              	.LVL179:
 1357 00c8 FEFFFFEB 		bl	pk_get_rsapubkey
 1358              	.LVL180:
 648:D:/Work/DeviceTester/amazon-freertos/lib/third_party/mbedtls/library\pkparse.c ****         ret = MBEDTLS_ERR_PK_INVALID_PUBKEY
 1359              		.loc 1 648 0
 1360 00cc 007050E2 		subs	r7, r0, #0
 1361 00d0 1F00000A 		beq	.L123
 1362              	.L124:
 1363              	.LVL181:
 653:D:/Work/DeviceTester/amazon-freertos/lib/third_party/mbedtls/library\pkparse.c **** 
 1364              		.loc 1 653 0
 1365 00d4 0800A0E1 		mov	r0, r8
 1366 00d8 0740A0E1 		mov	r4, r7
 1367 00dc FEFFFFEB 		bl	mbedtls_pk_free
 1368              	.LVL182:
 1369 00e0 180000EA 		b	.L118
 1370              	.LVL183:
 1371              	.L122:
 639:D:/Work/DeviceTester/amazon-freertos/lib/third_party/mbedtls/library\pkparse.c ****     {
 1372              		.loc 1 639 0
 1373 00e4 023043E2 		sub	r3, r3, #2
 1374 00e8 010053E3 		cmp	r3, #1
 646:D:/Work/DeviceTester/amazon-freertos/lib/third_party/mbedtls/library\pkparse.c **** 
 1375              		.loc 1 646 0
 1376 00ec 78709F85 		ldrhi	r7, .L132+4
 639:D:/Work/DeviceTester/amazon-freertos/lib/third_party/mbedtls/library\pkparse.c ****     {
 1377              		.loc 1 639 0
 1378 00f0 F7FFFF8A 		bhi	.L124
 641:D:/Work/DeviceTester/amazon-freertos/lib/third_party/mbedtls/library\pkparse.c ****         if( ret == 0 )
 1379              		.loc 1 641 0
 1380 00f4 041098E5 		ldr	r1, [r8, #4]
 1381 00f8 0C008DE2 		add	r0, sp, #12
 1382              	.LVL184:
 1383 00fc FEFFFFEB 		bl	pk_use_ecparams
 1384              	.LVL185:
 642:D:/Work/DeviceTester/amazon-freertos/lib/third_party/mbedtls/library\pkparse.c ****             ret = pk_get_ecpubkey( p, end, mbedtls_pk_ec( *pk ) );
 1385              		.loc 1 642 0
 1386 0100 007050E2 		subs	r7, r0, #0
 1387 0104 F2FFFF1A 		bne	.L124
 1388 0108 049098E5 		ldr	r9, [r8, #4]
 1389              	.LVL186:
 1390              	.LBB46:
 1391              	.LBB47:
 489:D:/Work/DeviceTester/amazon-freertos/lib/third_party/mbedtls/library\pkparse.c ****                     (const unsigned char *) *p, end - *p ) ) == 0 )
 1392              		.loc 1 489 0
 1393 010c 002096E5 		ldr	r2, [r6]
 1394 0110 88A089E2 		add	r10, r9, #136
 1395 0114 0900A0E1 		mov	r0, r9
 1396              	.LVL187:
 1397 0118 023045E0 		sub	r3, r5, r2
 1398 011c 0A10A0E1 		mov	r1, r10
 1399 0120 FEFFFFEB 		bl	mbedtls_ecp_point_read_binary
 1400              	.LVL188:
 1401 0124 007050E2 		subs	r7, r0, #0
 1402              	.LVL189:
 1403 0128 0300001A 		bne	.L125
 492:D:/Work/DeviceTester/amazon-freertos/lib/third_party/mbedtls/library\pkparse.c ****     }
 1404              		.loc 1 492 0
 1405 012c 0A10A0E1 		mov	r1, r10
 1406 0130 0900A0E1 		mov	r0, r9
 1407              	.LVL190:
 1408 0134 FEFFFFEB 		bl	mbedtls_ecp_check_pubkey
 1409              	.LVL191:
 1410 0138 0070A0E1 		mov	r7, r0
 1411              	.LVL192:
 1412              	.L125:
 1413              	.LBE47:
 1414              	.LBE46:
 648:D:/Work/DeviceTester/amazon-freertos/lib/third_party/mbedtls/library\pkparse.c ****         ret = MBEDTLS_ERR_PK_INVALID_PUBKEY
 1415              		.loc 1 648 0
 1416 013c 000057E3 		cmp	r7, #0
 1417              	.LBB49:
 1418              	.LBB48:
 498:D:/Work/DeviceTester/amazon-freertos/lib/third_party/mbedtls/library\pkparse.c **** 
 1419              		.loc 1 498 0
 1420 0140 005086E5 		str	r5, [r6]
 1421              	.LVL193:
 1422              	.LBE48:
 1423              	.LBE49:
 648:D:/Work/DeviceTester/amazon-freertos/lib/third_party/mbedtls/library\pkparse.c ****         ret = MBEDTLS_ERR_PK_INVALID_PUBKEY
 1424              		.loc 1 648 0
 1425 0144 E2FFFF1A 		bne	.L124
 1426              	.LVL194:
 1427              	.L118:
 656:D:/Work/DeviceTester/amazon-freertos/lib/third_party/mbedtls/library\pkparse.c **** 
 1428              		.loc 1 656 0
 1429 0148 0400A0E1 		mov	r0, r4
 1430 014c 18D08DE2 		add	sp, sp, #24
 1431              		.cfi_remember_state
 1432              		.cfi_def_cfa_offset 32
 1433              		@ sp needed
 1434 0150 F087BDE8 		pop	{r4, r5, r6, r7, r8, r9, r10, pc}
 1435              	.LVL195:
 1436              	.L123:
 1437              		.cfi_restore_state
 648:D:/Work/DeviceTester/amazon-freertos/lib/third_party/mbedtls/library\pkparse.c ****         ret = MBEDTLS_ERR_PK_INVALID_PUBKEY
 1438              		.loc 1 648 0 discriminator 1
 1439 0154 003096E5 		ldr	r3, [r6]
 1440 0158 030055E1 		cmp	r5, r3
 649:D:/Work/DeviceTester/amazon-freertos/lib/third_party/mbedtls/library\pkparse.c ****               MBEDTLS_ERR_ASN1_LENGTH_MISMATCH;
 1441              		.loc 1 649 0 discriminator 1
 1442 015c 04709F15 		ldrne	r7, .L132
 648:D:/Work/DeviceTester/amazon-freertos/lib/third_party/mbedtls/library\pkparse.c ****         ret = MBEDTLS_ERR_PK_INVALID_PUBKEY
 1443              		.loc 1 648 0 discriminator 1
 1444 0160 DBFFFF1A 		bne	.L124
 1445 0164 F7FFFFEA 		b	.L118
 1446              	.L133:
 1447              		.align	2
 1448              	.L132:
 1449 0168 9AC4FFFF 		.word	-15206
 1450 016c 80C3FFFF 		.word	-15488
 1451              		.cfi_endproc
 1452              	.LFE16:
 1454              		.section	.text.mbedtls_pk_parse_key,"ax",%progbits
 1455              		.align	2
 1456              		.global	mbedtls_pk_parse_key
 1457              		.syntax unified
 1458              		.arm
 1459              		.fpu neon
 1461              	mbedtls_pk_parse_key:
 1462              	.LFB20:
1011:D:/Work/DeviceTester/amazon-freertos/lib/third_party/mbedtls/library\pkparse.c **** 
1012:D:/Work/DeviceTester/amazon-freertos/lib/third_party/mbedtls/library\pkparse.c **** /*
1013:D:/Work/DeviceTester/amazon-freertos/lib/third_party/mbedtls/library\pkparse.c ****  * Parse an encrypted PKCS#8 encoded private key
1014:D:/Work/DeviceTester/amazon-freertos/lib/third_party/mbedtls/library\pkparse.c ****  *
1015:D:/Work/DeviceTester/amazon-freertos/lib/third_party/mbedtls/library\pkparse.c ****  * To save space, the decryption happens in-place on the given key buffer.
1016:D:/Work/DeviceTester/amazon-freertos/lib/third_party/mbedtls/library\pkparse.c ****  * Also, while this function may modify the keybuffer, it doesn't own it,
1017:D:/Work/DeviceTester/amazon-freertos/lib/third_party/mbedtls/library\pkparse.c ****  * and instead it is the responsibility of the caller to zeroize and properly
1018:D:/Work/DeviceTester/amazon-freertos/lib/third_party/mbedtls/library\pkparse.c ****  * free it after use.
1019:D:/Work/DeviceTester/amazon-freertos/lib/third_party/mbedtls/library\pkparse.c ****  *
1020:D:/Work/DeviceTester/amazon-freertos/lib/third_party/mbedtls/library\pkparse.c ****  */
1021:D:/Work/DeviceTester/amazon-freertos/lib/third_party/mbedtls/library\pkparse.c **** #if defined(MBEDTLS_PKCS12_C) || defined(MBEDTLS_PKCS5_C)
1022:D:/Work/DeviceTester/amazon-freertos/lib/third_party/mbedtls/library\pkparse.c **** static int pk_parse_key_pkcs8_encrypted_der(
1023:D:/Work/DeviceTester/amazon-freertos/lib/third_party/mbedtls/library\pkparse.c ****                                     mbedtls_pk_context *pk,
1024:D:/Work/DeviceTester/amazon-freertos/lib/third_party/mbedtls/library\pkparse.c ****                                     unsigned char *key, size_t keylen,
1025:D:/Work/DeviceTester/amazon-freertos/lib/third_party/mbedtls/library\pkparse.c ****                                     const unsigned char *pwd, size_t pwdlen )
1026:D:/Work/DeviceTester/amazon-freertos/lib/third_party/mbedtls/library\pkparse.c **** {
1027:D:/Work/DeviceTester/amazon-freertos/lib/third_party/mbedtls/library\pkparse.c ****     int ret, decrypted = 0;
1028:D:/Work/DeviceTester/amazon-freertos/lib/third_party/mbedtls/library\pkparse.c ****     size_t len;
1029:D:/Work/DeviceTester/amazon-freertos/lib/third_party/mbedtls/library\pkparse.c ****     unsigned char *buf;
1030:D:/Work/DeviceTester/amazon-freertos/lib/third_party/mbedtls/library\pkparse.c ****     unsigned char *p, *end;
1031:D:/Work/DeviceTester/amazon-freertos/lib/third_party/mbedtls/library\pkparse.c ****     mbedtls_asn1_buf pbe_alg_oid, pbe_params;
1032:D:/Work/DeviceTester/amazon-freertos/lib/third_party/mbedtls/library\pkparse.c **** #if defined(MBEDTLS_PKCS12_C)
1033:D:/Work/DeviceTester/amazon-freertos/lib/third_party/mbedtls/library\pkparse.c ****     mbedtls_cipher_type_t cipher_alg;
1034:D:/Work/DeviceTester/amazon-freertos/lib/third_party/mbedtls/library\pkparse.c ****     mbedtls_md_type_t md_alg;
1035:D:/Work/DeviceTester/amazon-freertos/lib/third_party/mbedtls/library\pkparse.c **** #endif
1036:D:/Work/DeviceTester/amazon-freertos/lib/third_party/mbedtls/library\pkparse.c **** 
1037:D:/Work/DeviceTester/amazon-freertos/lib/third_party/mbedtls/library\pkparse.c ****     p = key;
1038:D:/Work/DeviceTester/amazon-freertos/lib/third_party/mbedtls/library\pkparse.c ****     end = p + keylen;
1039:D:/Work/DeviceTester/amazon-freertos/lib/third_party/mbedtls/library\pkparse.c **** 
1040:D:/Work/DeviceTester/amazon-freertos/lib/third_party/mbedtls/library\pkparse.c ****     if( pwdlen == 0 )
1041:D:/Work/DeviceTester/amazon-freertos/lib/third_party/mbedtls/library\pkparse.c ****         return( MBEDTLS_ERR_PK_PASSWORD_REQUIRED );
1042:D:/Work/DeviceTester/amazon-freertos/lib/third_party/mbedtls/library\pkparse.c **** 
1043:D:/Work/DeviceTester/amazon-freertos/lib/third_party/mbedtls/library\pkparse.c ****     /*
1044:D:/Work/DeviceTester/amazon-freertos/lib/third_party/mbedtls/library\pkparse.c ****      * This function parses the EncryptedPrivateKeyInfo object (PKCS#8)
1045:D:/Work/DeviceTester/amazon-freertos/lib/third_party/mbedtls/library\pkparse.c ****      *
1046:D:/Work/DeviceTester/amazon-freertos/lib/third_party/mbedtls/library\pkparse.c ****      *  EncryptedPrivateKeyInfo ::= SEQUENCE {
1047:D:/Work/DeviceTester/amazon-freertos/lib/third_party/mbedtls/library\pkparse.c ****      *    encryptionAlgorithm  EncryptionAlgorithmIdentifier,
1048:D:/Work/DeviceTester/amazon-freertos/lib/third_party/mbedtls/library\pkparse.c ****      *    encryptedData        EncryptedData
1049:D:/Work/DeviceTester/amazon-freertos/lib/third_party/mbedtls/library\pkparse.c ****      *  }
1050:D:/Work/DeviceTester/amazon-freertos/lib/third_party/mbedtls/library\pkparse.c ****      *
1051:D:/Work/DeviceTester/amazon-freertos/lib/third_party/mbedtls/library\pkparse.c ****      *  EncryptionAlgorithmIdentifier ::= AlgorithmIdentifier
1052:D:/Work/DeviceTester/amazon-freertos/lib/third_party/mbedtls/library\pkparse.c ****      *
1053:D:/Work/DeviceTester/amazon-freertos/lib/third_party/mbedtls/library\pkparse.c ****      *  EncryptedData ::= OCTET STRING
1054:D:/Work/DeviceTester/amazon-freertos/lib/third_party/mbedtls/library\pkparse.c ****      *
1055:D:/Work/DeviceTester/amazon-freertos/lib/third_party/mbedtls/library\pkparse.c ****      *  The EncryptedData OCTET STRING is a PKCS#8 PrivateKeyInfo
1056:D:/Work/DeviceTester/amazon-freertos/lib/third_party/mbedtls/library\pkparse.c ****      *
1057:D:/Work/DeviceTester/amazon-freertos/lib/third_party/mbedtls/library\pkparse.c ****      */
1058:D:/Work/DeviceTester/amazon-freertos/lib/third_party/mbedtls/library\pkparse.c ****     if( ( ret = mbedtls_asn1_get_tag( &p, end, &len,
1059:D:/Work/DeviceTester/amazon-freertos/lib/third_party/mbedtls/library\pkparse.c ****             MBEDTLS_ASN1_CONSTRUCTED | MBEDTLS_ASN1_SEQUENCE ) ) != 0 )
1060:D:/Work/DeviceTester/amazon-freertos/lib/third_party/mbedtls/library\pkparse.c ****     {
1061:D:/Work/DeviceTester/amazon-freertos/lib/third_party/mbedtls/library\pkparse.c ****         return( MBEDTLS_ERR_PK_KEY_INVALID_FORMAT + ret );
1062:D:/Work/DeviceTester/amazon-freertos/lib/third_party/mbedtls/library\pkparse.c ****     }
1063:D:/Work/DeviceTester/amazon-freertos/lib/third_party/mbedtls/library\pkparse.c **** 
1064:D:/Work/DeviceTester/amazon-freertos/lib/third_party/mbedtls/library\pkparse.c ****     end = p + len;
1065:D:/Work/DeviceTester/amazon-freertos/lib/third_party/mbedtls/library\pkparse.c **** 
1066:D:/Work/DeviceTester/amazon-freertos/lib/third_party/mbedtls/library\pkparse.c ****     if( ( ret = mbedtls_asn1_get_alg( &p, end, &pbe_alg_oid, &pbe_params ) ) != 0 )
1067:D:/Work/DeviceTester/amazon-freertos/lib/third_party/mbedtls/library\pkparse.c ****         return( MBEDTLS_ERR_PK_KEY_INVALID_FORMAT + ret );
1068:D:/Work/DeviceTester/amazon-freertos/lib/third_party/mbedtls/library\pkparse.c **** 
1069:D:/Work/DeviceTester/amazon-freertos/lib/third_party/mbedtls/library\pkparse.c ****     if( ( ret = mbedtls_asn1_get_tag( &p, end, &len, MBEDTLS_ASN1_OCTET_STRING ) ) != 0 )
1070:D:/Work/DeviceTester/amazon-freertos/lib/third_party/mbedtls/library\pkparse.c ****         return( MBEDTLS_ERR_PK_KEY_INVALID_FORMAT + ret );
1071:D:/Work/DeviceTester/amazon-freertos/lib/third_party/mbedtls/library\pkparse.c **** 
1072:D:/Work/DeviceTester/amazon-freertos/lib/third_party/mbedtls/library\pkparse.c ****     buf = p;
1073:D:/Work/DeviceTester/amazon-freertos/lib/third_party/mbedtls/library\pkparse.c **** 
1074:D:/Work/DeviceTester/amazon-freertos/lib/third_party/mbedtls/library\pkparse.c ****     /*
1075:D:/Work/DeviceTester/amazon-freertos/lib/third_party/mbedtls/library\pkparse.c ****      * Decrypt EncryptedData with appropriate PBE
1076:D:/Work/DeviceTester/amazon-freertos/lib/third_party/mbedtls/library\pkparse.c ****      */
1077:D:/Work/DeviceTester/amazon-freertos/lib/third_party/mbedtls/library\pkparse.c **** #if defined(MBEDTLS_PKCS12_C)
1078:D:/Work/DeviceTester/amazon-freertos/lib/third_party/mbedtls/library\pkparse.c ****     if( mbedtls_oid_get_pkcs12_pbe_alg( &pbe_alg_oid, &md_alg, &cipher_alg ) == 0 )
1079:D:/Work/DeviceTester/amazon-freertos/lib/third_party/mbedtls/library\pkparse.c ****     {
1080:D:/Work/DeviceTester/amazon-freertos/lib/third_party/mbedtls/library\pkparse.c ****         if( ( ret = mbedtls_pkcs12_pbe( &pbe_params, MBEDTLS_PKCS12_PBE_DECRYPT,
1081:D:/Work/DeviceTester/amazon-freertos/lib/third_party/mbedtls/library\pkparse.c ****                                 cipher_alg, md_alg,
1082:D:/Work/DeviceTester/amazon-freertos/lib/third_party/mbedtls/library\pkparse.c ****                                 pwd, pwdlen, p, len, buf ) ) != 0 )
1083:D:/Work/DeviceTester/amazon-freertos/lib/third_party/mbedtls/library\pkparse.c ****         {
1084:D:/Work/DeviceTester/amazon-freertos/lib/third_party/mbedtls/library\pkparse.c ****             if( ret == MBEDTLS_ERR_PKCS12_PASSWORD_MISMATCH )
1085:D:/Work/DeviceTester/amazon-freertos/lib/third_party/mbedtls/library\pkparse.c ****                 return( MBEDTLS_ERR_PK_PASSWORD_MISMATCH );
1086:D:/Work/DeviceTester/amazon-freertos/lib/third_party/mbedtls/library\pkparse.c **** 
1087:D:/Work/DeviceTester/amazon-freertos/lib/third_party/mbedtls/library\pkparse.c ****             return( ret );
1088:D:/Work/DeviceTester/amazon-freertos/lib/third_party/mbedtls/library\pkparse.c ****         }
1089:D:/Work/DeviceTester/amazon-freertos/lib/third_party/mbedtls/library\pkparse.c **** 
1090:D:/Work/DeviceTester/amazon-freertos/lib/third_party/mbedtls/library\pkparse.c ****         decrypted = 1;
1091:D:/Work/DeviceTester/amazon-freertos/lib/third_party/mbedtls/library\pkparse.c ****     }
1092:D:/Work/DeviceTester/amazon-freertos/lib/third_party/mbedtls/library\pkparse.c ****     else if( MBEDTLS_OID_CMP( MBEDTLS_OID_PKCS12_PBE_SHA1_RC4_128, &pbe_alg_oid ) == 0 )
1093:D:/Work/DeviceTester/amazon-freertos/lib/third_party/mbedtls/library\pkparse.c ****     {
1094:D:/Work/DeviceTester/amazon-freertos/lib/third_party/mbedtls/library\pkparse.c ****         if( ( ret = mbedtls_pkcs12_pbe_sha1_rc4_128( &pbe_params,
1095:D:/Work/DeviceTester/amazon-freertos/lib/third_party/mbedtls/library\pkparse.c ****                                              MBEDTLS_PKCS12_PBE_DECRYPT,
1096:D:/Work/DeviceTester/amazon-freertos/lib/third_party/mbedtls/library\pkparse.c ****                                              pwd, pwdlen,
1097:D:/Work/DeviceTester/amazon-freertos/lib/third_party/mbedtls/library\pkparse.c ****                                              p, len, buf ) ) != 0 )
1098:D:/Work/DeviceTester/amazon-freertos/lib/third_party/mbedtls/library\pkparse.c ****         {
1099:D:/Work/DeviceTester/amazon-freertos/lib/third_party/mbedtls/library\pkparse.c ****             return( ret );
1100:D:/Work/DeviceTester/amazon-freertos/lib/third_party/mbedtls/library\pkparse.c ****         }
1101:D:/Work/DeviceTester/amazon-freertos/lib/third_party/mbedtls/library\pkparse.c **** 
1102:D:/Work/DeviceTester/amazon-freertos/lib/third_party/mbedtls/library\pkparse.c ****         // Best guess for password mismatch when using RC4. If first tag is
1103:D:/Work/DeviceTester/amazon-freertos/lib/third_party/mbedtls/library\pkparse.c ****         // not MBEDTLS_ASN1_CONSTRUCTED | MBEDTLS_ASN1_SEQUENCE
1104:D:/Work/DeviceTester/amazon-freertos/lib/third_party/mbedtls/library\pkparse.c ****         //
1105:D:/Work/DeviceTester/amazon-freertos/lib/third_party/mbedtls/library\pkparse.c ****         if( *buf != ( MBEDTLS_ASN1_CONSTRUCTED | MBEDTLS_ASN1_SEQUENCE ) )
1106:D:/Work/DeviceTester/amazon-freertos/lib/third_party/mbedtls/library\pkparse.c ****             return( MBEDTLS_ERR_PK_PASSWORD_MISMATCH );
1107:D:/Work/DeviceTester/amazon-freertos/lib/third_party/mbedtls/library\pkparse.c **** 
1108:D:/Work/DeviceTester/amazon-freertos/lib/third_party/mbedtls/library\pkparse.c ****         decrypted = 1;
1109:D:/Work/DeviceTester/amazon-freertos/lib/third_party/mbedtls/library\pkparse.c ****     }
1110:D:/Work/DeviceTester/amazon-freertos/lib/third_party/mbedtls/library\pkparse.c ****     else
1111:D:/Work/DeviceTester/amazon-freertos/lib/third_party/mbedtls/library\pkparse.c **** #endif /* MBEDTLS_PKCS12_C */
1112:D:/Work/DeviceTester/amazon-freertos/lib/third_party/mbedtls/library\pkparse.c **** #if defined(MBEDTLS_PKCS5_C)
1113:D:/Work/DeviceTester/amazon-freertos/lib/third_party/mbedtls/library\pkparse.c ****     if( MBEDTLS_OID_CMP( MBEDTLS_OID_PKCS5_PBES2, &pbe_alg_oid ) == 0 )
1114:D:/Work/DeviceTester/amazon-freertos/lib/third_party/mbedtls/library\pkparse.c ****     {
1115:D:/Work/DeviceTester/amazon-freertos/lib/third_party/mbedtls/library\pkparse.c ****         if( ( ret = mbedtls_pkcs5_pbes2( &pbe_params, MBEDTLS_PKCS5_DECRYPT, pwd, pwdlen,
1116:D:/Work/DeviceTester/amazon-freertos/lib/third_party/mbedtls/library\pkparse.c ****                                   p, len, buf ) ) != 0 )
1117:D:/Work/DeviceTester/amazon-freertos/lib/third_party/mbedtls/library\pkparse.c ****         {
1118:D:/Work/DeviceTester/amazon-freertos/lib/third_party/mbedtls/library\pkparse.c ****             if( ret == MBEDTLS_ERR_PKCS5_PASSWORD_MISMATCH )
1119:D:/Work/DeviceTester/amazon-freertos/lib/third_party/mbedtls/library\pkparse.c ****                 return( MBEDTLS_ERR_PK_PASSWORD_MISMATCH );
1120:D:/Work/DeviceTester/amazon-freertos/lib/third_party/mbedtls/library\pkparse.c **** 
1121:D:/Work/DeviceTester/amazon-freertos/lib/third_party/mbedtls/library\pkparse.c ****             return( ret );
1122:D:/Work/DeviceTester/amazon-freertos/lib/third_party/mbedtls/library\pkparse.c ****         }
1123:D:/Work/DeviceTester/amazon-freertos/lib/third_party/mbedtls/library\pkparse.c **** 
1124:D:/Work/DeviceTester/amazon-freertos/lib/third_party/mbedtls/library\pkparse.c ****         decrypted = 1;
1125:D:/Work/DeviceTester/amazon-freertos/lib/third_party/mbedtls/library\pkparse.c ****     }
1126:D:/Work/DeviceTester/amazon-freertos/lib/third_party/mbedtls/library\pkparse.c ****     else
1127:D:/Work/DeviceTester/amazon-freertos/lib/third_party/mbedtls/library\pkparse.c **** #endif /* MBEDTLS_PKCS5_C */
1128:D:/Work/DeviceTester/amazon-freertos/lib/third_party/mbedtls/library\pkparse.c ****     {
1129:D:/Work/DeviceTester/amazon-freertos/lib/third_party/mbedtls/library\pkparse.c ****         ((void) pwd);
1130:D:/Work/DeviceTester/amazon-freertos/lib/third_party/mbedtls/library\pkparse.c ****     }
1131:D:/Work/DeviceTester/amazon-freertos/lib/third_party/mbedtls/library\pkparse.c **** 
1132:D:/Work/DeviceTester/amazon-freertos/lib/third_party/mbedtls/library\pkparse.c ****     if( decrypted == 0 )
1133:D:/Work/DeviceTester/amazon-freertos/lib/third_party/mbedtls/library\pkparse.c ****         return( MBEDTLS_ERR_PK_FEATURE_UNAVAILABLE );
1134:D:/Work/DeviceTester/amazon-freertos/lib/third_party/mbedtls/library\pkparse.c **** 
1135:D:/Work/DeviceTester/amazon-freertos/lib/third_party/mbedtls/library\pkparse.c ****     return( pk_parse_key_pkcs8_unencrypted_der( pk, buf, len ) );
1136:D:/Work/DeviceTester/amazon-freertos/lib/third_party/mbedtls/library\pkparse.c **** }
1137:D:/Work/DeviceTester/amazon-freertos/lib/third_party/mbedtls/library\pkparse.c **** #endif /* MBEDTLS_PKCS12_C || MBEDTLS_PKCS5_C */
1138:D:/Work/DeviceTester/amazon-freertos/lib/third_party/mbedtls/library\pkparse.c **** 
1139:D:/Work/DeviceTester/amazon-freertos/lib/third_party/mbedtls/library\pkparse.c **** /*
1140:D:/Work/DeviceTester/amazon-freertos/lib/third_party/mbedtls/library\pkparse.c ****  * Parse a private key
1141:D:/Work/DeviceTester/amazon-freertos/lib/third_party/mbedtls/library\pkparse.c ****  */
1142:D:/Work/DeviceTester/amazon-freertos/lib/third_party/mbedtls/library\pkparse.c **** int mbedtls_pk_parse_key( mbedtls_pk_context *pk,
1143:D:/Work/DeviceTester/amazon-freertos/lib/third_party/mbedtls/library\pkparse.c ****                   const unsigned char *key, size_t keylen,
1144:D:/Work/DeviceTester/amazon-freertos/lib/third_party/mbedtls/library\pkparse.c ****                   const unsigned char *pwd, size_t pwdlen )
1145:D:/Work/DeviceTester/amazon-freertos/lib/third_party/mbedtls/library\pkparse.c **** {
 1463              		.loc 1 1145 0
 1464              		.cfi_startproc
 1465              		@ args = 4, pretend = 0, frame = 16
 1466              		@ frame_needed = 0, uses_anonymous_args = 0
 1467              	.LVL196:
 1468 0000 F0472DE9 		push	{r4, r5, r6, r7, r8, r9, r10, lr}
 1469              		.cfi_def_cfa_offset 32
 1470              		.cfi_offset 4, -32
 1471              		.cfi_offset 5, -28
 1472              		.cfi_offset 6, -24
 1473              		.cfi_offset 7, -20
 1474              		.cfi_offset 8, -16
 1475              		.cfi_offset 9, -12
 1476              		.cfi_offset 10, -8
 1477              		.cfi_offset 14, -4
 1478 0004 20D04DE2 		sub	sp, sp, #32
 1479              		.cfi_def_cfa_offset 64
 1480              		.loc 1 1145 0
 1481 0008 0270A0E1 		mov	r7, r2
 1482 000c 0050A0E1 		mov	r5, r0
1146:D:/Work/DeviceTester/amazon-freertos/lib/third_party/mbedtls/library\pkparse.c ****     int ret;
1147:D:/Work/DeviceTester/amazon-freertos/lib/third_party/mbedtls/library\pkparse.c ****     const mbedtls_pk_info_t *pk_info;
1148:D:/Work/DeviceTester/amazon-freertos/lib/third_party/mbedtls/library\pkparse.c **** 
1149:D:/Work/DeviceTester/amazon-freertos/lib/third_party/mbedtls/library\pkparse.c **** #if defined(MBEDTLS_PEM_PARSE_C)
1150:D:/Work/DeviceTester/amazon-freertos/lib/third_party/mbedtls/library\pkparse.c ****     size_t len;
1151:D:/Work/DeviceTester/amazon-freertos/lib/third_party/mbedtls/library\pkparse.c ****     mbedtls_pem_context pem;
1152:D:/Work/DeviceTester/amazon-freertos/lib/third_party/mbedtls/library\pkparse.c **** 
1153:D:/Work/DeviceTester/amazon-freertos/lib/third_party/mbedtls/library\pkparse.c ****     mbedtls_pem_init( &pem );
 1483              		.loc 1 1153 0
 1484 0010 14008DE2 		add	r0, sp, #20
 1485              	.LVL197:
1145:D:/Work/DeviceTester/amazon-freertos/lib/third_party/mbedtls/library\pkparse.c ****     int ret;
 1486              		.loc 1 1145 0
 1487 0014 0160A0E1 		mov	r6, r1
 1488 0018 0380A0E1 		mov	r8, r3
 1489 001c 40909DE5 		ldr	r9, [sp, #64]
 1490              		.loc 1 1153 0
 1491 0020 FEFFFFEB 		bl	mbedtls_pem_init
 1492              	.LVL198:
1154:D:/Work/DeviceTester/amazon-freertos/lib/third_party/mbedtls/library\pkparse.c **** 
1155:D:/Work/DeviceTester/amazon-freertos/lib/third_party/mbedtls/library\pkparse.c **** #if defined(MBEDTLS_RSA_C)
1156:D:/Work/DeviceTester/amazon-freertos/lib/third_party/mbedtls/library\pkparse.c ****     /* Avoid calling mbedtls_pem_read_buffer() on non-null-terminated string */
1157:D:/Work/DeviceTester/amazon-freertos/lib/third_party/mbedtls/library\pkparse.c ****     if( keylen == 0 || key[keylen - 1] != '\0' )
 1493              		.loc 1 1157 0
 1494 0024 000057E3 		cmp	r7, #0
 1495 0028 6100000A 		beq	.L154
 1496              		.loc 1 1157 0 is_stmt 0 discriminator 1
 1497 002c 01A047E2 		sub	r10, r7, #1
 1498 0030 0A30D6E7 		ldrb	r3, [r6, r10]	@ zero_extendqisi2
 1499 0034 000053E3 		cmp	r3, #0
 1500 0038 1800000A 		beq	.L136
 1501              	.L145:
 1502              	.LVL199:
1158:D:/Work/DeviceTester/amazon-freertos/lib/third_party/mbedtls/library\pkparse.c ****         ret = MBEDTLS_ERR_PEM_NO_HEADER_FOOTER_PRESENT;
1159:D:/Work/DeviceTester/amazon-freertos/lib/third_party/mbedtls/library\pkparse.c ****     else
1160:D:/Work/DeviceTester/amazon-freertos/lib/third_party/mbedtls/library\pkparse.c ****         ret = mbedtls_pem_read_buffer( &pem,
1161:D:/Work/DeviceTester/amazon-freertos/lib/third_party/mbedtls/library\pkparse.c ****                                "-----BEGIN RSA PRIVATE KEY-----",
1162:D:/Work/DeviceTester/amazon-freertos/lib/third_party/mbedtls/library\pkparse.c ****                                "-----END RSA PRIVATE KEY-----",
1163:D:/Work/DeviceTester/amazon-freertos/lib/third_party/mbedtls/library\pkparse.c ****                                key, pwd, pwdlen, &len );
1164:D:/Work/DeviceTester/amazon-freertos/lib/third_party/mbedtls/library\pkparse.c **** 
1165:D:/Work/DeviceTester/amazon-freertos/lib/third_party/mbedtls/library\pkparse.c ****     if( ret == 0 )
1166:D:/Work/DeviceTester/amazon-freertos/lib/third_party/mbedtls/library\pkparse.c ****     {
1167:D:/Work/DeviceTester/amazon-freertos/lib/third_party/mbedtls/library\pkparse.c ****         pk_info = mbedtls_pk_info_from_type( MBEDTLS_PK_RSA );
1168:D:/Work/DeviceTester/amazon-freertos/lib/third_party/mbedtls/library\pkparse.c ****         if( ( ret = mbedtls_pk_setup( pk, pk_info ) ) != 0 ||
1169:D:/Work/DeviceTester/amazon-freertos/lib/third_party/mbedtls/library\pkparse.c ****             ( ret = pk_parse_key_pkcs1_der( mbedtls_pk_rsa( *pk ),
1170:D:/Work/DeviceTester/amazon-freertos/lib/third_party/mbedtls/library\pkparse.c ****                                             pem.buf, pem.buflen ) ) != 0 )
1171:D:/Work/DeviceTester/amazon-freertos/lib/third_party/mbedtls/library\pkparse.c ****         {
1172:D:/Work/DeviceTester/amazon-freertos/lib/third_party/mbedtls/library\pkparse.c ****             mbedtls_pk_free( pk );
1173:D:/Work/DeviceTester/amazon-freertos/lib/third_party/mbedtls/library\pkparse.c ****         }
1174:D:/Work/DeviceTester/amazon-freertos/lib/third_party/mbedtls/library\pkparse.c **** 
1175:D:/Work/DeviceTester/amazon-freertos/lib/third_party/mbedtls/library\pkparse.c ****         mbedtls_pem_free( &pem );
1176:D:/Work/DeviceTester/amazon-freertos/lib/third_party/mbedtls/library\pkparse.c ****         return( ret );
1177:D:/Work/DeviceTester/amazon-freertos/lib/third_party/mbedtls/library\pkparse.c ****     }
1178:D:/Work/DeviceTester/amazon-freertos/lib/third_party/mbedtls/library\pkparse.c ****     else if( ret == MBEDTLS_ERR_PEM_PASSWORD_MISMATCH )
1179:D:/Work/DeviceTester/amazon-freertos/lib/third_party/mbedtls/library\pkparse.c ****         return( MBEDTLS_ERR_PK_PASSWORD_MISMATCH );
1180:D:/Work/DeviceTester/amazon-freertos/lib/third_party/mbedtls/library\pkparse.c ****     else if( ret == MBEDTLS_ERR_PEM_PASSWORD_REQUIRED )
1181:D:/Work/DeviceTester/amazon-freertos/lib/third_party/mbedtls/library\pkparse.c ****         return( MBEDTLS_ERR_PK_PASSWORD_REQUIRED );
1182:D:/Work/DeviceTester/amazon-freertos/lib/third_party/mbedtls/library\pkparse.c ****     else if( ret != MBEDTLS_ERR_PEM_NO_HEADER_FOOTER_PRESENT )
1183:D:/Work/DeviceTester/amazon-freertos/lib/third_party/mbedtls/library\pkparse.c ****         return( ret );
1184:D:/Work/DeviceTester/amazon-freertos/lib/third_party/mbedtls/library\pkparse.c **** #endif /* MBEDTLS_RSA_C */
1185:D:/Work/DeviceTester/amazon-freertos/lib/third_party/mbedtls/library\pkparse.c **** 
1186:D:/Work/DeviceTester/amazon-freertos/lib/third_party/mbedtls/library\pkparse.c **** #if defined(MBEDTLS_ECP_C)
1187:D:/Work/DeviceTester/amazon-freertos/lib/third_party/mbedtls/library\pkparse.c ****     /* Avoid calling mbedtls_pem_read_buffer() on non-null-terminated string */
1188:D:/Work/DeviceTester/amazon-freertos/lib/third_party/mbedtls/library\pkparse.c ****     if( keylen == 0 || key[keylen - 1] != '\0' )
 1503              		.loc 1 1188 0 is_stmt 1
 1504 003c 0A30D6E7 		ldrb	r3, [r6, r10]	@ zero_extendqisi2
 1505 0040 000053E3 		cmp	r3, #0
 1506 0044 4400001A 		bne	.L137
1189:D:/Work/DeviceTester/amazon-freertos/lib/third_party/mbedtls/library\pkparse.c ****         ret = MBEDTLS_ERR_PEM_NO_HEADER_FOOTER_PRESENT;
1190:D:/Work/DeviceTester/amazon-freertos/lib/third_party/mbedtls/library\pkparse.c ****     else
1191:D:/Work/DeviceTester/amazon-freertos/lib/third_party/mbedtls/library\pkparse.c ****         ret = mbedtls_pem_read_buffer( &pem,
 1507              		.loc 1 1191 0
 1508 0048 10308DE2 		add	r3, sp, #16
 1509 004c 00038DE8 		stm	sp, {r8, r9}
 1510 0050 08308DE5 		str	r3, [sp, #8]
 1511 0054 14008DE2 		add	r0, sp, #20
 1512 0058 0630A0E1 		mov	r3, r6
 1513 005c FC219FE5 		ldr	r2, .L191
 1514 0060 FC119FE5 		ldr	r1, .L191+4
 1515 0064 FEFFFFEB 		bl	mbedtls_pem_read_buffer
 1516              	.LVL200:
1192:D:/Work/DeviceTester/amazon-freertos/lib/third_party/mbedtls/library\pkparse.c ****                                "-----BEGIN EC PRIVATE KEY-----",
1193:D:/Work/DeviceTester/amazon-freertos/lib/third_party/mbedtls/library\pkparse.c ****                                "-----END EC PRIVATE KEY-----",
1194:D:/Work/DeviceTester/amazon-freertos/lib/third_party/mbedtls/library\pkparse.c ****                                key, pwd, pwdlen, &len );
1195:D:/Work/DeviceTester/amazon-freertos/lib/third_party/mbedtls/library\pkparse.c ****     if( ret == 0 )
 1517              		.loc 1 1195 0
 1518 0068 004050E2 		subs	r4, r0, #0
 1519 006c 3400001A 		bne	.L147
1196:D:/Work/DeviceTester/amazon-freertos/lib/third_party/mbedtls/library\pkparse.c ****     {
1197:D:/Work/DeviceTester/amazon-freertos/lib/third_party/mbedtls/library\pkparse.c ****         pk_info = mbedtls_pk_info_from_type( MBEDTLS_PK_ECKEY );
 1520              		.loc 1 1197 0
 1521 0070 0200A0E3 		mov	r0, #2
 1522              	.LVL201:
 1523 0074 FEFFFFEB 		bl	mbedtls_pk_info_from_type
 1524              	.LVL202:
1198:D:/Work/DeviceTester/amazon-freertos/lib/third_party/mbedtls/library\pkparse.c **** 
1199:D:/Work/DeviceTester/amazon-freertos/lib/third_party/mbedtls/library\pkparse.c ****         if( ( ret = mbedtls_pk_setup( pk, pk_info ) ) != 0 ||
 1525              		.loc 1 1199 0
 1526 0078 0010A0E1 		mov	r1, r0
 1527 007c 0500A0E1 		mov	r0, r5
 1528              	.LVL203:
 1529 0080 FEFFFFEB 		bl	mbedtls_pk_setup
 1530              	.LVL204:
 1531 0084 004050E2 		subs	r4, r0, #0
 1532 0088 1B00001A 		bne	.L187
 1533              		.loc 1 1199 0 is_stmt 0 discriminator 1
 1534 008c 18209DE5 		ldr	r2, [sp, #24]
 1535 0090 14109DE5 		ldr	r1, [sp, #20]
 1536 0094 040095E5 		ldr	r0, [r5, #4]
 1537              	.LVL205:
 1538 0098 FEFFFFEB 		bl	pk_parse_key_sec1_der
 1539              	.LVL206:
 1540 009c 140000EA 		b	.L189
 1541              	.LVL207:
 1542              	.L136:
1160:D:/Work/DeviceTester/amazon-freertos/lib/third_party/mbedtls/library\pkparse.c ****                                "-----BEGIN RSA PRIVATE KEY-----",
 1543              		.loc 1 1160 0 is_stmt 1
 1544 00a0 10308DE2 		add	r3, sp, #16
 1545 00a4 00038DE8 		stm	sp, {r8, r9}
 1546 00a8 08308DE5 		str	r3, [sp, #8]
 1547 00ac 14008DE2 		add	r0, sp, #20
 1548 00b0 0630A0E1 		mov	r3, r6
 1549 00b4 AC219FE5 		ldr	r2, .L191+8
 1550 00b8 AC119FE5 		ldr	r1, .L191+12
 1551 00bc FEFFFFEB 		bl	mbedtls_pem_read_buffer
 1552              	.LVL208:
1165:D:/Work/DeviceTester/amazon-freertos/lib/third_party/mbedtls/library\pkparse.c ****     {
 1553              		.loc 1 1165 0
 1554 00c0 004050E2 		subs	r4, r0, #0
 1555 00c4 1100001A 		bne	.L139
1167:D:/Work/DeviceTester/amazon-freertos/lib/third_party/mbedtls/library\pkparse.c ****         if( ( ret = mbedtls_pk_setup( pk, pk_info ) ) != 0 ||
 1556              		.loc 1 1167 0
 1557 00c8 0100A0E3 		mov	r0, #1
 1558              	.LVL209:
 1559 00cc FEFFFFEB 		bl	mbedtls_pk_info_from_type
 1560              	.LVL210:
1168:D:/Work/DeviceTester/amazon-freertos/lib/third_party/mbedtls/library\pkparse.c ****             ( ret = pk_parse_key_pkcs1_der( mbedtls_pk_rsa( *pk ),
 1561              		.loc 1 1168 0
 1562 00d0 0010A0E1 		mov	r1, r0
 1563 00d4 0500A0E1 		mov	r0, r5
 1564              	.LVL211:
 1565 00d8 FEFFFFEB 		bl	mbedtls_pk_setup
 1566              	.LVL212:
 1567 00dc 004050E2 		subs	r4, r0, #0
 1568 00e0 0500001A 		bne	.L187
1168:D:/Work/DeviceTester/amazon-freertos/lib/third_party/mbedtls/library\pkparse.c ****             ( ret = pk_parse_key_pkcs1_der( mbedtls_pk_rsa( *pk ),
 1569              		.loc 1 1168 0 is_stmt 0 discriminator 1
 1570 00e4 18209DE5 		ldr	r2, [sp, #24]
 1571 00e8 14109DE5 		ldr	r1, [sp, #20]
 1572 00ec 040095E5 		ldr	r0, [r5, #4]
 1573              	.LVL213:
 1574 00f0 FEFFFFEB 		bl	pk_parse_key_pkcs1_der
 1575              	.LVL214:
 1576              	.L189:
1200:D:/Work/DeviceTester/amazon-freertos/lib/third_party/mbedtls/library\pkparse.c ****             ( ret = pk_parse_key_sec1_der( mbedtls_pk_ec( *pk ),
1201:D:/Work/DeviceTester/amazon-freertos/lib/third_party/mbedtls/library\pkparse.c ****                                            pem.buf, pem.buflen ) ) != 0 )
1202:D:/Work/DeviceTester/amazon-freertos/lib/third_party/mbedtls/library\pkparse.c ****         {
1203:D:/Work/DeviceTester/amazon-freertos/lib/third_party/mbedtls/library\pkparse.c ****             mbedtls_pk_free( pk );
1204:D:/Work/DeviceTester/amazon-freertos/lib/third_party/mbedtls/library\pkparse.c ****         }
1205:D:/Work/DeviceTester/amazon-freertos/lib/third_party/mbedtls/library\pkparse.c **** 
1206:D:/Work/DeviceTester/amazon-freertos/lib/third_party/mbedtls/library\pkparse.c ****         mbedtls_pem_free( &pem );
1207:D:/Work/DeviceTester/amazon-freertos/lib/third_party/mbedtls/library\pkparse.c ****         return( ret );
1208:D:/Work/DeviceTester/amazon-freertos/lib/third_party/mbedtls/library\pkparse.c ****     }
1209:D:/Work/DeviceTester/amazon-freertos/lib/third_party/mbedtls/library\pkparse.c ****     else if( ret == MBEDTLS_ERR_PEM_PASSWORD_MISMATCH )
1210:D:/Work/DeviceTester/amazon-freertos/lib/third_party/mbedtls/library\pkparse.c ****         return( MBEDTLS_ERR_PK_PASSWORD_MISMATCH );
1211:D:/Work/DeviceTester/amazon-freertos/lib/third_party/mbedtls/library\pkparse.c ****     else if( ret == MBEDTLS_ERR_PEM_PASSWORD_REQUIRED )
1212:D:/Work/DeviceTester/amazon-freertos/lib/third_party/mbedtls/library\pkparse.c ****         return( MBEDTLS_ERR_PK_PASSWORD_REQUIRED );
1213:D:/Work/DeviceTester/amazon-freertos/lib/third_party/mbedtls/library\pkparse.c ****     else if( ret != MBEDTLS_ERR_PEM_NO_HEADER_FOOTER_PRESENT )
1214:D:/Work/DeviceTester/amazon-freertos/lib/third_party/mbedtls/library\pkparse.c ****         return( ret );
1215:D:/Work/DeviceTester/amazon-freertos/lib/third_party/mbedtls/library\pkparse.c **** #endif /* MBEDTLS_ECP_C */
1216:D:/Work/DeviceTester/amazon-freertos/lib/third_party/mbedtls/library\pkparse.c **** 
1217:D:/Work/DeviceTester/amazon-freertos/lib/third_party/mbedtls/library\pkparse.c ****     /* Avoid calling mbedtls_pem_read_buffer() on non-null-terminated string */
1218:D:/Work/DeviceTester/amazon-freertos/lib/third_party/mbedtls/library\pkparse.c ****     if( keylen == 0 || key[keylen - 1] != '\0' )
1219:D:/Work/DeviceTester/amazon-freertos/lib/third_party/mbedtls/library\pkparse.c ****         ret = MBEDTLS_ERR_PEM_NO_HEADER_FOOTER_PRESENT;
1220:D:/Work/DeviceTester/amazon-freertos/lib/third_party/mbedtls/library\pkparse.c ****     else
1221:D:/Work/DeviceTester/amazon-freertos/lib/third_party/mbedtls/library\pkparse.c ****         ret = mbedtls_pem_read_buffer( &pem,
1222:D:/Work/DeviceTester/amazon-freertos/lib/third_party/mbedtls/library\pkparse.c ****                                "-----BEGIN PRIVATE KEY-----",
1223:D:/Work/DeviceTester/amazon-freertos/lib/third_party/mbedtls/library\pkparse.c ****                                "-----END PRIVATE KEY-----",
1224:D:/Work/DeviceTester/amazon-freertos/lib/third_party/mbedtls/library\pkparse.c ****                                key, NULL, 0, &len );
1225:D:/Work/DeviceTester/amazon-freertos/lib/third_party/mbedtls/library\pkparse.c ****     if( ret == 0 )
1226:D:/Work/DeviceTester/amazon-freertos/lib/third_party/mbedtls/library\pkparse.c ****     {
1227:D:/Work/DeviceTester/amazon-freertos/lib/third_party/mbedtls/library\pkparse.c ****         if( ( ret = pk_parse_key_pkcs8_unencrypted_der( pk,
 1577              		.loc 1 1227 0 is_stmt 1
 1578 00f4 004050E2 		subs	r4, r0, #0
 1579 00f8 0100000A 		beq	.L153
 1580              	.L187:
1228:D:/Work/DeviceTester/amazon-freertos/lib/third_party/mbedtls/library\pkparse.c ****                                                 pem.buf, pem.buflen ) ) != 0 )
1229:D:/Work/DeviceTester/amazon-freertos/lib/third_party/mbedtls/library\pkparse.c ****         {
1230:D:/Work/DeviceTester/amazon-freertos/lib/third_party/mbedtls/library\pkparse.c ****             mbedtls_pk_free( pk );
 1581              		.loc 1 1230 0
 1582 00fc 0500A0E1 		mov	r0, r5
 1583              	.LVL215:
 1584 0100 FEFFFFEB 		bl	mbedtls_pk_free
 1585              	.LVL216:
 1586              	.L153:
1231:D:/Work/DeviceTester/amazon-freertos/lib/third_party/mbedtls/library\pkparse.c ****         }
1232:D:/Work/DeviceTester/amazon-freertos/lib/third_party/mbedtls/library\pkparse.c **** 
1233:D:/Work/DeviceTester/amazon-freertos/lib/third_party/mbedtls/library\pkparse.c ****         mbedtls_pem_free( &pem );
 1587              		.loc 1 1233 0
 1588 0104 14008DE2 		add	r0, sp, #20
 1589 0108 FEFFFFEB 		bl	mbedtls_pem_free
 1590              	.LVL217:
1234:D:/Work/DeviceTester/amazon-freertos/lib/third_party/mbedtls/library\pkparse.c ****         return( ret );
 1591              		.loc 1 1234 0
 1592 010c 020000EA 		b	.L134
 1593              	.LVL218:
 1594              	.L139:
1178:D:/Work/DeviceTester/amazon-freertos/lib/third_party/mbedtls/library\pkparse.c ****         return( MBEDTLS_ERR_PK_PASSWORD_MISMATCH );
 1595              		.loc 1 1178 0
 1596 0110 4E0D74E3 		cmn	r4, #4992
 1597 0114 0300001A 		bne	.L143
 1598              	.L150:
1179:D:/Work/DeviceTester/amazon-freertos/lib/third_party/mbedtls/library\pkparse.c ****     else if( ret == MBEDTLS_ERR_PEM_PASSWORD_REQUIRED )
 1599              		.loc 1 1179 0
 1600 0118 50419FE5 		ldr	r4, .L191+16
 1601              	.LVL219:
 1602              	.L134:
1235:D:/Work/DeviceTester/amazon-freertos/lib/third_party/mbedtls/library\pkparse.c ****     }
1236:D:/Work/DeviceTester/amazon-freertos/lib/third_party/mbedtls/library\pkparse.c ****     else if( ret != MBEDTLS_ERR_PEM_NO_HEADER_FOOTER_PRESENT )
1237:D:/Work/DeviceTester/amazon-freertos/lib/third_party/mbedtls/library\pkparse.c ****         return( ret );
1238:D:/Work/DeviceTester/amazon-freertos/lib/third_party/mbedtls/library\pkparse.c **** 
1239:D:/Work/DeviceTester/amazon-freertos/lib/third_party/mbedtls/library\pkparse.c **** #if defined(MBEDTLS_PKCS12_C) || defined(MBEDTLS_PKCS5_C)
1240:D:/Work/DeviceTester/amazon-freertos/lib/third_party/mbedtls/library\pkparse.c ****     /* Avoid calling mbedtls_pem_read_buffer() on non-null-terminated string */
1241:D:/Work/DeviceTester/amazon-freertos/lib/third_party/mbedtls/library\pkparse.c ****     if( keylen == 0 || key[keylen - 1] != '\0' )
1242:D:/Work/DeviceTester/amazon-freertos/lib/third_party/mbedtls/library\pkparse.c ****         ret = MBEDTLS_ERR_PEM_NO_HEADER_FOOTER_PRESENT;
1243:D:/Work/DeviceTester/amazon-freertos/lib/third_party/mbedtls/library\pkparse.c ****     else
1244:D:/Work/DeviceTester/amazon-freertos/lib/third_party/mbedtls/library\pkparse.c ****         ret = mbedtls_pem_read_buffer( &pem,
1245:D:/Work/DeviceTester/amazon-freertos/lib/third_party/mbedtls/library\pkparse.c ****                                "-----BEGIN ENCRYPTED PRIVATE KEY-----",
1246:D:/Work/DeviceTester/amazon-freertos/lib/third_party/mbedtls/library\pkparse.c ****                                "-----END ENCRYPTED PRIVATE KEY-----",
1247:D:/Work/DeviceTester/amazon-freertos/lib/third_party/mbedtls/library\pkparse.c ****                                key, NULL, 0, &len );
1248:D:/Work/DeviceTester/amazon-freertos/lib/third_party/mbedtls/library\pkparse.c ****     if( ret == 0 )
1249:D:/Work/DeviceTester/amazon-freertos/lib/third_party/mbedtls/library\pkparse.c ****     {
1250:D:/Work/DeviceTester/amazon-freertos/lib/third_party/mbedtls/library\pkparse.c ****         if( ( ret = pk_parse_key_pkcs8_encrypted_der( pk,
1251:D:/Work/DeviceTester/amazon-freertos/lib/third_party/mbedtls/library\pkparse.c ****                                                       pem.buf, pem.buflen,
1252:D:/Work/DeviceTester/amazon-freertos/lib/third_party/mbedtls/library\pkparse.c ****                                                       pwd, pwdlen ) ) != 0 )
1253:D:/Work/DeviceTester/amazon-freertos/lib/third_party/mbedtls/library\pkparse.c ****         {
1254:D:/Work/DeviceTester/amazon-freertos/lib/third_party/mbedtls/library\pkparse.c ****             mbedtls_pk_free( pk );
1255:D:/Work/DeviceTester/amazon-freertos/lib/third_party/mbedtls/library\pkparse.c ****         }
1256:D:/Work/DeviceTester/amazon-freertos/lib/third_party/mbedtls/library\pkparse.c **** 
1257:D:/Work/DeviceTester/amazon-freertos/lib/third_party/mbedtls/library\pkparse.c ****         mbedtls_pem_free( &pem );
1258:D:/Work/DeviceTester/amazon-freertos/lib/third_party/mbedtls/library\pkparse.c ****         return( ret );
1259:D:/Work/DeviceTester/amazon-freertos/lib/third_party/mbedtls/library\pkparse.c ****     }
1260:D:/Work/DeviceTester/amazon-freertos/lib/third_party/mbedtls/library\pkparse.c ****     else if( ret != MBEDTLS_ERR_PEM_NO_HEADER_FOOTER_PRESENT )
1261:D:/Work/DeviceTester/amazon-freertos/lib/third_party/mbedtls/library\pkparse.c ****         return( ret );
1262:D:/Work/DeviceTester/amazon-freertos/lib/third_party/mbedtls/library\pkparse.c **** #endif /* MBEDTLS_PKCS12_C || MBEDTLS_PKCS5_C */
1263:D:/Work/DeviceTester/amazon-freertos/lib/third_party/mbedtls/library\pkparse.c **** #else
1264:D:/Work/DeviceTester/amazon-freertos/lib/third_party/mbedtls/library\pkparse.c ****     ((void) pwd);
1265:D:/Work/DeviceTester/amazon-freertos/lib/third_party/mbedtls/library\pkparse.c ****     ((void) pwdlen);
1266:D:/Work/DeviceTester/amazon-freertos/lib/third_party/mbedtls/library\pkparse.c **** #endif /* MBEDTLS_PEM_PARSE_C */
1267:D:/Work/DeviceTester/amazon-freertos/lib/third_party/mbedtls/library\pkparse.c **** 
1268:D:/Work/DeviceTester/amazon-freertos/lib/third_party/mbedtls/library\pkparse.c ****     /*
1269:D:/Work/DeviceTester/amazon-freertos/lib/third_party/mbedtls/library\pkparse.c ****      * At this point we only know it's not a PEM formatted key. Could be any
1270:D:/Work/DeviceTester/amazon-freertos/lib/third_party/mbedtls/library\pkparse.c ****      * of the known DER encoded private key formats
1271:D:/Work/DeviceTester/amazon-freertos/lib/third_party/mbedtls/library\pkparse.c ****      *
1272:D:/Work/DeviceTester/amazon-freertos/lib/third_party/mbedtls/library\pkparse.c ****      * We try the different DER format parsers to see if one passes without
1273:D:/Work/DeviceTester/amazon-freertos/lib/third_party/mbedtls/library\pkparse.c ****      * error
1274:D:/Work/DeviceTester/amazon-freertos/lib/third_party/mbedtls/library\pkparse.c ****      */
1275:D:/Work/DeviceTester/amazon-freertos/lib/third_party/mbedtls/library\pkparse.c **** #if defined(MBEDTLS_PKCS12_C) || defined(MBEDTLS_PKCS5_C)
1276:D:/Work/DeviceTester/amazon-freertos/lib/third_party/mbedtls/library\pkparse.c ****     {
1277:D:/Work/DeviceTester/amazon-freertos/lib/third_party/mbedtls/library\pkparse.c ****         unsigned char *key_copy;
1278:D:/Work/DeviceTester/amazon-freertos/lib/third_party/mbedtls/library\pkparse.c **** 
1279:D:/Work/DeviceTester/amazon-freertos/lib/third_party/mbedtls/library\pkparse.c ****         if( keylen == 0 )
1280:D:/Work/DeviceTester/amazon-freertos/lib/third_party/mbedtls/library\pkparse.c ****             return( MBEDTLS_ERR_PK_KEY_INVALID_FORMAT );
1281:D:/Work/DeviceTester/amazon-freertos/lib/third_party/mbedtls/library\pkparse.c **** 
1282:D:/Work/DeviceTester/amazon-freertos/lib/third_party/mbedtls/library\pkparse.c ****         if( ( key_copy = mbedtls_calloc( 1, keylen ) ) == NULL )
1283:D:/Work/DeviceTester/amazon-freertos/lib/third_party/mbedtls/library\pkparse.c ****             return( MBEDTLS_ERR_PK_ALLOC_FAILED );
1284:D:/Work/DeviceTester/amazon-freertos/lib/third_party/mbedtls/library\pkparse.c **** 
1285:D:/Work/DeviceTester/amazon-freertos/lib/third_party/mbedtls/library\pkparse.c ****         memcpy( key_copy, key, keylen );
1286:D:/Work/DeviceTester/amazon-freertos/lib/third_party/mbedtls/library\pkparse.c **** 
1287:D:/Work/DeviceTester/amazon-freertos/lib/third_party/mbedtls/library\pkparse.c ****         ret = pk_parse_key_pkcs8_encrypted_der( pk, key_copy, keylen,
1288:D:/Work/DeviceTester/amazon-freertos/lib/third_party/mbedtls/library\pkparse.c ****                                                 pwd, pwdlen );
1289:D:/Work/DeviceTester/amazon-freertos/lib/third_party/mbedtls/library\pkparse.c **** 
1290:D:/Work/DeviceTester/amazon-freertos/lib/third_party/mbedtls/library\pkparse.c ****         mbedtls_platform_zeroize( key_copy, keylen );
1291:D:/Work/DeviceTester/amazon-freertos/lib/third_party/mbedtls/library\pkparse.c ****         mbedtls_free( key_copy );
1292:D:/Work/DeviceTester/amazon-freertos/lib/third_party/mbedtls/library\pkparse.c ****     }
1293:D:/Work/DeviceTester/amazon-freertos/lib/third_party/mbedtls/library\pkparse.c **** 
1294:D:/Work/DeviceTester/amazon-freertos/lib/third_party/mbedtls/library\pkparse.c ****     if( ret == 0 )
1295:D:/Work/DeviceTester/amazon-freertos/lib/third_party/mbedtls/library\pkparse.c ****         return( 0 );
1296:D:/Work/DeviceTester/amazon-freertos/lib/third_party/mbedtls/library\pkparse.c **** 
1297:D:/Work/DeviceTester/amazon-freertos/lib/third_party/mbedtls/library\pkparse.c ****     mbedtls_pk_free( pk );
1298:D:/Work/DeviceTester/amazon-freertos/lib/third_party/mbedtls/library\pkparse.c **** 
1299:D:/Work/DeviceTester/amazon-freertos/lib/third_party/mbedtls/library\pkparse.c ****     if( ret == MBEDTLS_ERR_PK_PASSWORD_MISMATCH )
1300:D:/Work/DeviceTester/amazon-freertos/lib/third_party/mbedtls/library\pkparse.c ****     {
1301:D:/Work/DeviceTester/amazon-freertos/lib/third_party/mbedtls/library\pkparse.c ****         return( ret );
1302:D:/Work/DeviceTester/amazon-freertos/lib/third_party/mbedtls/library\pkparse.c ****     }
1303:D:/Work/DeviceTester/amazon-freertos/lib/third_party/mbedtls/library\pkparse.c **** #endif /* MBEDTLS_PKCS12_C || MBEDTLS_PKCS5_C */
1304:D:/Work/DeviceTester/amazon-freertos/lib/third_party/mbedtls/library\pkparse.c **** 
1305:D:/Work/DeviceTester/amazon-freertos/lib/third_party/mbedtls/library\pkparse.c ****     if( ( ret = pk_parse_key_pkcs8_unencrypted_der( pk, key, keylen ) ) == 0 )
1306:D:/Work/DeviceTester/amazon-freertos/lib/third_party/mbedtls/library\pkparse.c ****         return( 0 );
1307:D:/Work/DeviceTester/amazon-freertos/lib/third_party/mbedtls/library\pkparse.c **** 
1308:D:/Work/DeviceTester/amazon-freertos/lib/third_party/mbedtls/library\pkparse.c ****     mbedtls_pk_free( pk );
1309:D:/Work/DeviceTester/amazon-freertos/lib/third_party/mbedtls/library\pkparse.c **** 
1310:D:/Work/DeviceTester/amazon-freertos/lib/third_party/mbedtls/library\pkparse.c **** #if defined(MBEDTLS_RSA_C)
1311:D:/Work/DeviceTester/amazon-freertos/lib/third_party/mbedtls/library\pkparse.c **** 
1312:D:/Work/DeviceTester/amazon-freertos/lib/third_party/mbedtls/library\pkparse.c ****     pk_info = mbedtls_pk_info_from_type( MBEDTLS_PK_RSA );
1313:D:/Work/DeviceTester/amazon-freertos/lib/third_party/mbedtls/library\pkparse.c ****     if( ( ret = mbedtls_pk_setup( pk, pk_info ) ) != 0 ||
1314:D:/Work/DeviceTester/amazon-freertos/lib/third_party/mbedtls/library\pkparse.c ****         ( ret = pk_parse_key_pkcs1_der( mbedtls_pk_rsa( *pk ),
1315:D:/Work/DeviceTester/amazon-freertos/lib/third_party/mbedtls/library\pkparse.c ****                                         key, keylen ) ) != 0 )
1316:D:/Work/DeviceTester/amazon-freertos/lib/third_party/mbedtls/library\pkparse.c ****     {
1317:D:/Work/DeviceTester/amazon-freertos/lib/third_party/mbedtls/library\pkparse.c ****         mbedtls_pk_free( pk );
1318:D:/Work/DeviceTester/amazon-freertos/lib/third_party/mbedtls/library\pkparse.c ****     }
1319:D:/Work/DeviceTester/amazon-freertos/lib/third_party/mbedtls/library\pkparse.c ****     else
1320:D:/Work/DeviceTester/amazon-freertos/lib/third_party/mbedtls/library\pkparse.c ****     {
1321:D:/Work/DeviceTester/amazon-freertos/lib/third_party/mbedtls/library\pkparse.c ****         return( 0 );
1322:D:/Work/DeviceTester/amazon-freertos/lib/third_party/mbedtls/library\pkparse.c ****     }
1323:D:/Work/DeviceTester/amazon-freertos/lib/third_party/mbedtls/library\pkparse.c **** 
1324:D:/Work/DeviceTester/amazon-freertos/lib/third_party/mbedtls/library\pkparse.c **** #endif /* MBEDTLS_RSA_C */
1325:D:/Work/DeviceTester/amazon-freertos/lib/third_party/mbedtls/library\pkparse.c **** 
1326:D:/Work/DeviceTester/amazon-freertos/lib/third_party/mbedtls/library\pkparse.c **** #if defined(MBEDTLS_ECP_C)
1327:D:/Work/DeviceTester/amazon-freertos/lib/third_party/mbedtls/library\pkparse.c **** 
1328:D:/Work/DeviceTester/amazon-freertos/lib/third_party/mbedtls/library\pkparse.c ****     pk_info = mbedtls_pk_info_from_type( MBEDTLS_PK_ECKEY );
1329:D:/Work/DeviceTester/amazon-freertos/lib/third_party/mbedtls/library\pkparse.c ****     if( ( ret = mbedtls_pk_setup( pk, pk_info ) ) != 0 ||
1330:D:/Work/DeviceTester/amazon-freertos/lib/third_party/mbedtls/library\pkparse.c ****         ( ret = pk_parse_key_sec1_der( mbedtls_pk_ec( *pk ),
1331:D:/Work/DeviceTester/amazon-freertos/lib/third_party/mbedtls/library\pkparse.c ****                                        key, keylen ) ) != 0 )
1332:D:/Work/DeviceTester/amazon-freertos/lib/third_party/mbedtls/library\pkparse.c ****     {
1333:D:/Work/DeviceTester/amazon-freertos/lib/third_party/mbedtls/library\pkparse.c ****         mbedtls_pk_free( pk );
1334:D:/Work/DeviceTester/amazon-freertos/lib/third_party/mbedtls/library\pkparse.c ****     }
1335:D:/Work/DeviceTester/amazon-freertos/lib/third_party/mbedtls/library\pkparse.c ****     else
1336:D:/Work/DeviceTester/amazon-freertos/lib/third_party/mbedtls/library\pkparse.c ****     {
1337:D:/Work/DeviceTester/amazon-freertos/lib/third_party/mbedtls/library\pkparse.c ****         return( 0 );
1338:D:/Work/DeviceTester/amazon-freertos/lib/third_party/mbedtls/library\pkparse.c ****     }
1339:D:/Work/DeviceTester/amazon-freertos/lib/third_party/mbedtls/library\pkparse.c **** 
1340:D:/Work/DeviceTester/amazon-freertos/lib/third_party/mbedtls/library\pkparse.c **** #endif /* MBEDTLS_ECP_C */
1341:D:/Work/DeviceTester/amazon-freertos/lib/third_party/mbedtls/library\pkparse.c **** 
1342:D:/Work/DeviceTester/amazon-freertos/lib/third_party/mbedtls/library\pkparse.c ****     return( MBEDTLS_ERR_PK_KEY_INVALID_FORMAT );
1343:D:/Work/DeviceTester/amazon-freertos/lib/third_party/mbedtls/library\pkparse.c **** }
 1603              		.loc 1 1343 0
 1604 011c 0400A0E1 		mov	r0, r4
 1605 0120 20D08DE2 		add	sp, sp, #32
 1606              		.cfi_remember_state
 1607              		.cfi_def_cfa_offset 32
 1608              		@ sp needed
 1609 0124 F087BDE8 		pop	{r4, r5, r6, r7, r8, r9, r10, pc}
 1610              	.LVL220:
 1611              	.L143:
 1612              		.cfi_restore_state
1180:D:/Work/DeviceTester/amazon-freertos/lib/third_party/mbedtls/library\pkparse.c ****         return( MBEDTLS_ERR_PK_PASSWORD_REQUIRED );
 1613              		.loc 1 1180 0
 1614 0128 130C74E3 		cmn	r4, #4864
 1615 012c 0100001A 		bne	.L144
 1616              	.L151:
1181:D:/Work/DeviceTester/amazon-freertos/lib/third_party/mbedtls/library\pkparse.c ****     else if( ret != MBEDTLS_ERR_PEM_NO_HEADER_FOOTER_PRESENT )
 1617              		.loc 1 1181 0
 1618 0130 3C419FE5 		ldr	r4, .L191+20
 1619 0134 F8FFFFEA 		b	.L134
 1620              	.L144:
1182:D:/Work/DeviceTester/amazon-freertos/lib/third_party/mbedtls/library\pkparse.c ****         return( ret );
 1621              		.loc 1 1182 0
 1622 0138 420D74E3 		cmn	r4, #4224
 1623 013c F6FFFF1A 		bne	.L134
 1624 0140 BDFFFFEA 		b	.L145
 1625              	.L147:
1209:D:/Work/DeviceTester/amazon-freertos/lib/third_party/mbedtls/library\pkparse.c ****         return( MBEDTLS_ERR_PK_PASSWORD_MISMATCH );
 1626              		.loc 1 1209 0
 1627 0144 4E0D74E3 		cmn	r4, #4992
 1628 0148 F2FFFF0A 		beq	.L150
1211:D:/Work/DeviceTester/amazon-freertos/lib/third_party/mbedtls/library\pkparse.c ****         return( MBEDTLS_ERR_PK_PASSWORD_REQUIRED );
 1629              		.loc 1 1211 0
 1630 014c 130C74E3 		cmn	r4, #4864
 1631 0150 F6FFFF0A 		beq	.L151
1213:D:/Work/DeviceTester/amazon-freertos/lib/third_party/mbedtls/library\pkparse.c ****         return( ret );
 1632              		.loc 1 1213 0
 1633 0154 420D74E3 		cmn	r4, #4224
 1634 0158 EFFFFF1A 		bne	.L134
 1635              	.LVL221:
 1636              	.L137:
1218:D:/Work/DeviceTester/amazon-freertos/lib/third_party/mbedtls/library\pkparse.c ****         ret = MBEDTLS_ERR_PEM_NO_HEADER_FOOTER_PRESENT;
 1637              		.loc 1 1218 0
 1638 015c 073086E0 		add	r3, r6, r7
 1639 0160 013053E5 		ldrb	r3, [r3, #-1]	@ zero_extendqisi2
 1640 0164 000053E3 		cmp	r3, #0
 1641 0168 1100001A 		bne	.L154
1221:D:/Work/DeviceTester/amazon-freertos/lib/third_party/mbedtls/library\pkparse.c ****                                "-----BEGIN PRIVATE KEY-----",
 1642              		.loc 1 1221 0
 1643 016c 10208DE2 		add	r2, sp, #16
 1644 0170 04308DE5 		str	r3, [sp, #4]
 1645 0174 08208DE5 		str	r2, [sp, #8]
 1646 0178 14008DE2 		add	r0, sp, #20
 1647 017c 00308DE5 		str	r3, [sp]
 1648 0180 0630A0E1 		mov	r3, r6
 1649 0184 EC209FE5 		ldr	r2, .L191+24
 1650 0188 EC109FE5 		ldr	r1, .L191+28
 1651 018c FEFFFFEB 		bl	mbedtls_pem_read_buffer
 1652              	.LVL222:
1225:D:/Work/DeviceTester/amazon-freertos/lib/third_party/mbedtls/library\pkparse.c ****     {
 1653              		.loc 1 1225 0
 1654 0190 004050E2 		subs	r4, r0, #0
 1655 0194 0400001A 		bne	.L152
1227:D:/Work/DeviceTester/amazon-freertos/lib/third_party/mbedtls/library\pkparse.c ****                                                 pem.buf, pem.buflen ) ) != 0 )
 1656              		.loc 1 1227 0
 1657 0198 18209DE5 		ldr	r2, [sp, #24]
 1658 019c 0500A0E1 		mov	r0, r5
 1659              	.LVL223:
 1660 01a0 14109DE5 		ldr	r1, [sp, #20]
 1661 01a4 FEFFFFEB 		bl	pk_parse_key_pkcs8_unencrypted_der
 1662              	.LVL224:
 1663 01a8 D1FFFFEA 		b	.L189
 1664              	.LVL225:
 1665              	.L152:
1236:D:/Work/DeviceTester/amazon-freertos/lib/third_party/mbedtls/library\pkparse.c ****         return( ret );
 1666              		.loc 1 1236 0
 1667 01ac 420D74E3 		cmn	r4, #4224
 1668 01b0 D9FFFF1A 		bne	.L134
 1669              	.LVL226:
 1670              	.L154:
1305:D:/Work/DeviceTester/amazon-freertos/lib/third_party/mbedtls/library\pkparse.c ****         return( 0 );
 1671              		.loc 1 1305 0
 1672 01b4 0720A0E1 		mov	r2, r7
 1673 01b8 0610A0E1 		mov	r1, r6
 1674 01bc 0500A0E1 		mov	r0, r5
 1675 01c0 FEFFFFEB 		bl	pk_parse_key_pkcs8_unencrypted_der
 1676              	.LVL227:
 1677 01c4 000050E3 		cmp	r0, #0
 1678 01c8 1B00000A 		beq	.L159
1308:D:/Work/DeviceTester/amazon-freertos/lib/third_party/mbedtls/library\pkparse.c **** 
 1679              		.loc 1 1308 0
 1680 01cc 0500A0E1 		mov	r0, r5
 1681              	.LVL228:
 1682 01d0 FEFFFFEB 		bl	mbedtls_pk_free
 1683              	.LVL229:
1312:D:/Work/DeviceTester/amazon-freertos/lib/third_party/mbedtls/library\pkparse.c ****     if( ( ret = mbedtls_pk_setup( pk, pk_info ) ) != 0 ||
 1684              		.loc 1 1312 0
 1685 01d4 0100A0E3 		mov	r0, #1
 1686 01d8 FEFFFFEB 		bl	mbedtls_pk_info_from_type
 1687              	.LVL230:
1313:D:/Work/DeviceTester/amazon-freertos/lib/third_party/mbedtls/library\pkparse.c ****         ( ret = pk_parse_key_pkcs1_der( mbedtls_pk_rsa( *pk ),
 1688              		.loc 1 1313 0
 1689 01dc 0010A0E1 		mov	r1, r0
 1690 01e0 0500A0E1 		mov	r0, r5
 1691              	.LVL231:
 1692 01e4 FEFFFFEB 		bl	mbedtls_pk_setup
 1693              	.LVL232:
 1694 01e8 000050E3 		cmp	r0, #0
 1695 01ec 0C00000A 		beq	.L155
 1696              	.L158:
1317:D:/Work/DeviceTester/amazon-freertos/lib/third_party/mbedtls/library\pkparse.c ****     }
 1697              		.loc 1 1317 0
 1698 01f0 0500A0E1 		mov	r0, r5
 1699              	.LVL233:
 1700 01f4 FEFFFFEB 		bl	mbedtls_pk_free
 1701              	.LVL234:
1328:D:/Work/DeviceTester/amazon-freertos/lib/third_party/mbedtls/library\pkparse.c ****     if( ( ret = mbedtls_pk_setup( pk, pk_info ) ) != 0 ||
 1702              		.loc 1 1328 0
 1703 01f8 0200A0E3 		mov	r0, #2
 1704 01fc FEFFFFEB 		bl	mbedtls_pk_info_from_type
 1705              	.LVL235:
1329:D:/Work/DeviceTester/amazon-freertos/lib/third_party/mbedtls/library\pkparse.c ****         ( ret = pk_parse_key_sec1_der( mbedtls_pk_ec( *pk ),
 1706              		.loc 1 1329 0
 1707 0200 0010A0E1 		mov	r1, r0
 1708 0204 0500A0E1 		mov	r0, r5
 1709              	.LVL236:
 1710 0208 FEFFFFEB 		bl	mbedtls_pk_setup
 1711              	.LVL237:
 1712 020c 000050E3 		cmp	r0, #0
 1713 0210 0B00000A 		beq	.L184
 1714              	.L156:
1333:D:/Work/DeviceTester/amazon-freertos/lib/third_party/mbedtls/library\pkparse.c ****     }
 1715              		.loc 1 1333 0
 1716 0214 0500A0E1 		mov	r0, r5
 1717              	.LVL238:
1342:D:/Work/DeviceTester/amazon-freertos/lib/third_party/mbedtls/library\pkparse.c **** }
 1718              		.loc 1 1342 0
 1719 0218 60409FE5 		ldr	r4, .L191+32
1333:D:/Work/DeviceTester/amazon-freertos/lib/third_party/mbedtls/library\pkparse.c ****     }
 1720              		.loc 1 1333 0
 1721 021c FEFFFFEB 		bl	mbedtls_pk_free
 1722              	.LVL239:
1342:D:/Work/DeviceTester/amazon-freertos/lib/third_party/mbedtls/library\pkparse.c **** }
 1723              		.loc 1 1342 0
 1724 0220 BDFFFFEA 		b	.L134
 1725              	.LVL240:
 1726              	.L155:
1313:D:/Work/DeviceTester/amazon-freertos/lib/third_party/mbedtls/library\pkparse.c ****         ( ret = pk_parse_key_pkcs1_der( mbedtls_pk_rsa( *pk ),
 1727              		.loc 1 1313 0 discriminator 1
 1728 0224 0720A0E1 		mov	r2, r7
 1729 0228 0610A0E1 		mov	r1, r6
 1730 022c 040095E5 		ldr	r0, [r5, #4]
 1731              	.LVL241:
 1732 0230 FEFFFFEB 		bl	pk_parse_key_pkcs1_der
 1733              	.LVL242:
 1734 0234 000050E3 		cmp	r0, #0
 1735 0238 ECFFFF1A 		bne	.L158
 1736              	.L159:
1306:D:/Work/DeviceTester/amazon-freertos/lib/third_party/mbedtls/library\pkparse.c **** 
 1737              		.loc 1 1306 0
 1738 023c 0040A0E3 		mov	r4, #0
 1739 0240 B5FFFFEA 		b	.L134
 1740              	.L184:
1329:D:/Work/DeviceTester/amazon-freertos/lib/third_party/mbedtls/library\pkparse.c ****         ( ret = pk_parse_key_sec1_der( mbedtls_pk_ec( *pk ),
 1741              		.loc 1 1329 0 discriminator 1
 1742 0244 0720A0E1 		mov	r2, r7
 1743 0248 0610A0E1 		mov	r1, r6
 1744 024c 040095E5 		ldr	r0, [r5, #4]
 1745              	.LVL243:
 1746 0250 FEFFFFEB 		bl	pk_parse_key_sec1_der
 1747              	.LVL244:
 1748 0254 000050E3 		cmp	r0, #0
 1749 0258 F7FFFF0A 		beq	.L159
 1750 025c ECFFFFEA 		b	.L156
 1751              	.L192:
 1752              		.align	2
 1753              	.L191:
 1754 0260 3E000000 		.word	.LC2
 1755 0264 5B000000 		.word	.LC3
 1756 0268 00000000 		.word	.LC0
 1757 026c 1E000000 		.word	.LC1
 1758 0270 80C4FFFF 		.word	-15232
 1759 0274 00C4FFFF 		.word	-15360
 1760 0278 7A000000 		.word	.LC4
 1761 027c 94000000 		.word	.LC5
 1762 0280 00C3FFFF 		.word	-15616
 1763              		.cfi_endproc
 1764              	.LFE20:
 1766              		.section	.text.mbedtls_pk_parse_public_key,"ax",%progbits
 1767              		.align	2
 1768              		.global	mbedtls_pk_parse_public_key
 1769              		.syntax unified
 1770              		.arm
 1771              		.fpu neon
 1773              	mbedtls_pk_parse_public_key:
 1774              	.LFB21:
1344:D:/Work/DeviceTester/amazon-freertos/lib/third_party/mbedtls/library\pkparse.c **** 
1345:D:/Work/DeviceTester/amazon-freertos/lib/third_party/mbedtls/library\pkparse.c **** /*
1346:D:/Work/DeviceTester/amazon-freertos/lib/third_party/mbedtls/library\pkparse.c ****  * Parse a public key
1347:D:/Work/DeviceTester/amazon-freertos/lib/third_party/mbedtls/library\pkparse.c ****  */
1348:D:/Work/DeviceTester/amazon-freertos/lib/third_party/mbedtls/library\pkparse.c **** int mbedtls_pk_parse_public_key( mbedtls_pk_context *ctx,
1349:D:/Work/DeviceTester/amazon-freertos/lib/third_party/mbedtls/library\pkparse.c ****                          const unsigned char *key, size_t keylen )
1350:D:/Work/DeviceTester/amazon-freertos/lib/third_party/mbedtls/library\pkparse.c **** {
 1775              		.loc 1 1350 0
 1776              		.cfi_startproc
 1777              		@ args = 0, pretend = 0, frame = 24
 1778              		@ frame_needed = 0, uses_anonymous_args = 0
 1779              	.LVL245:
 1780 0000 F0412DE9 		push	{r4, r5, r6, r7, r8, lr}
 1781              		.cfi_def_cfa_offset 24
 1782              		.cfi_offset 4, -24
 1783              		.cfi_offset 5, -20
 1784              		.cfi_offset 6, -16
 1785              		.cfi_offset 7, -12
 1786              		.cfi_offset 8, -8
 1787              		.cfi_offset 14, -4
 1788 0004 28D04DE2 		sub	sp, sp, #40
 1789              		.cfi_def_cfa_offset 64
 1790              		.loc 1 1350 0
 1791 0008 0270A0E1 		mov	r7, r2
 1792 000c 0050A0E1 		mov	r5, r0
1351:D:/Work/DeviceTester/amazon-freertos/lib/third_party/mbedtls/library\pkparse.c ****     int ret;
1352:D:/Work/DeviceTester/amazon-freertos/lib/third_party/mbedtls/library\pkparse.c ****     unsigned char *p;
1353:D:/Work/DeviceTester/amazon-freertos/lib/third_party/mbedtls/library\pkparse.c **** #if defined(MBEDTLS_RSA_C)
1354:D:/Work/DeviceTester/amazon-freertos/lib/third_party/mbedtls/library\pkparse.c ****     const mbedtls_pk_info_t *pk_info;
1355:D:/Work/DeviceTester/amazon-freertos/lib/third_party/mbedtls/library\pkparse.c **** #endif
1356:D:/Work/DeviceTester/amazon-freertos/lib/third_party/mbedtls/library\pkparse.c **** #if defined(MBEDTLS_PEM_PARSE_C)
1357:D:/Work/DeviceTester/amazon-freertos/lib/third_party/mbedtls/library\pkparse.c ****     size_t len;
1358:D:/Work/DeviceTester/amazon-freertos/lib/third_party/mbedtls/library\pkparse.c ****     mbedtls_pem_context pem;
1359:D:/Work/DeviceTester/amazon-freertos/lib/third_party/mbedtls/library\pkparse.c **** 
1360:D:/Work/DeviceTester/amazon-freertos/lib/third_party/mbedtls/library\pkparse.c ****     mbedtls_pem_init( &pem );
 1793              		.loc 1 1360 0
 1794 0010 1C008DE2 		add	r0, sp, #28
 1795              	.LVL246:
1350:D:/Work/DeviceTester/amazon-freertos/lib/third_party/mbedtls/library\pkparse.c ****     int ret;
 1796              		.loc 1 1350 0
 1797 0014 0160A0E1 		mov	r6, r1
 1798              		.loc 1 1360 0
 1799 0018 FEFFFFEB 		bl	mbedtls_pem_init
 1800              	.LVL247:
1361:D:/Work/DeviceTester/amazon-freertos/lib/third_party/mbedtls/library\pkparse.c **** #if defined(MBEDTLS_RSA_C)
1362:D:/Work/DeviceTester/amazon-freertos/lib/third_party/mbedtls/library\pkparse.c ****     /* Avoid calling mbedtls_pem_read_buffer() on non-null-terminated string */
1363:D:/Work/DeviceTester/amazon-freertos/lib/third_party/mbedtls/library\pkparse.c ****     if( keylen == 0 || key[keylen - 1] != '\0' )
 1801              		.loc 1 1363 0
 1802 001c 000057E3 		cmp	r7, #0
 1803 0020 2B00000A 		beq	.L194
 1804              		.loc 1 1363 0 is_stmt 0 discriminator 1
 1805 0024 018047E2 		sub	r8, r7, #1
 1806 0028 0830D6E7 		ldrb	r3, [r6, r8]	@ zero_extendqisi2
 1807 002c 000053E3 		cmp	r3, #0
 1808 0030 4800001A 		bne	.L195
1364:D:/Work/DeviceTester/amazon-freertos/lib/third_party/mbedtls/library\pkparse.c ****         ret = MBEDTLS_ERR_PEM_NO_HEADER_FOOTER_PRESENT;
1365:D:/Work/DeviceTester/amazon-freertos/lib/third_party/mbedtls/library\pkparse.c ****     else
1366:D:/Work/DeviceTester/amazon-freertos/lib/third_party/mbedtls/library\pkparse.c ****         ret = mbedtls_pem_read_buffer( &pem,
 1809              		.loc 1 1366 0 is_stmt 1
 1810 0034 18208DE2 		add	r2, sp, #24
 1811 0038 04308DE5 		str	r3, [sp, #4]
 1812 003c 08208DE5 		str	r2, [sp, #8]
 1813 0040 1C008DE2 		add	r0, sp, #28
 1814 0044 00308DE5 		str	r3, [sp]
 1815 0048 0630A0E1 		mov	r3, r6
 1816 004c 60219FE5 		ldr	r2, .L220
 1817 0050 60119FE5 		ldr	r1, .L220+4
 1818 0054 FEFFFFEB 		bl	mbedtls_pem_read_buffer
 1819              	.LVL248:
1367:D:/Work/DeviceTester/amazon-freertos/lib/third_party/mbedtls/library\pkparse.c ****                                "-----BEGIN RSA PUBLIC KEY-----",
1368:D:/Work/DeviceTester/amazon-freertos/lib/third_party/mbedtls/library\pkparse.c ****                                "-----END RSA PUBLIC KEY-----",
1369:D:/Work/DeviceTester/amazon-freertos/lib/third_party/mbedtls/library\pkparse.c ****                                key, NULL, 0, &len );
1370:D:/Work/DeviceTester/amazon-freertos/lib/third_party/mbedtls/library\pkparse.c **** 
1371:D:/Work/DeviceTester/amazon-freertos/lib/third_party/mbedtls/library\pkparse.c ****     if( ret == 0 )
 1820              		.loc 1 1371 0
 1821 0058 004050E2 		subs	r4, r0, #0
 1822 005c 3B00001A 		bne	.L196
1372:D:/Work/DeviceTester/amazon-freertos/lib/third_party/mbedtls/library\pkparse.c ****     {
1373:D:/Work/DeviceTester/amazon-freertos/lib/third_party/mbedtls/library\pkparse.c ****         p = pem.buf;
 1823              		.loc 1 1373 0
 1824 0060 1C309DE5 		ldr	r3, [sp, #28]
1374:D:/Work/DeviceTester/amazon-freertos/lib/third_party/mbedtls/library\pkparse.c ****         if( ( pk_info = mbedtls_pk_info_from_type( MBEDTLS_PK_RSA ) ) == NULL )
 1825              		.loc 1 1374 0
 1826 0064 0100A0E3 		mov	r0, #1
 1827              	.LVL249:
1373:D:/Work/DeviceTester/amazon-freertos/lib/third_party/mbedtls/library\pkparse.c ****         if( ( pk_info = mbedtls_pk_info_from_type( MBEDTLS_PK_RSA ) ) == NULL )
 1828              		.loc 1 1373 0
 1829 0068 14308DE5 		str	r3, [sp, #20]
 1830              		.loc 1 1374 0
 1831 006c FEFFFFEB 		bl	mbedtls_pk_info_from_type
 1832              	.LVL250:
 1833 0070 001050E2 		subs	r1, r0, #0
 1834 0074 0300001A 		bne	.L197
 1835              	.LVL251:
 1836              	.L201:
1375:D:/Work/DeviceTester/amazon-freertos/lib/third_party/mbedtls/library\pkparse.c ****             return( MBEDTLS_ERR_PK_UNKNOWN_PK_ALG );
 1837              		.loc 1 1375 0
 1838 0078 3C419FE5 		ldr	r4, .L220+8
 1839              	.LVL252:
 1840              	.L193:
1376:D:/Work/DeviceTester/amazon-freertos/lib/third_party/mbedtls/library\pkparse.c **** 
1377:D:/Work/DeviceTester/amazon-freertos/lib/third_party/mbedtls/library\pkparse.c ****         if( ( ret = mbedtls_pk_setup( ctx, pk_info ) ) != 0 )
1378:D:/Work/DeviceTester/amazon-freertos/lib/third_party/mbedtls/library\pkparse.c ****             return( ret );
1379:D:/Work/DeviceTester/amazon-freertos/lib/third_party/mbedtls/library\pkparse.c **** 
1380:D:/Work/DeviceTester/amazon-freertos/lib/third_party/mbedtls/library\pkparse.c ****         if ( ( ret = pk_get_rsapubkey( &p, p + pem.buflen, mbedtls_pk_rsa( *ctx ) ) ) != 0 )
1381:D:/Work/DeviceTester/amazon-freertos/lib/third_party/mbedtls/library\pkparse.c ****             mbedtls_pk_free( ctx );
1382:D:/Work/DeviceTester/amazon-freertos/lib/third_party/mbedtls/library\pkparse.c **** 
1383:D:/Work/DeviceTester/amazon-freertos/lib/third_party/mbedtls/library\pkparse.c ****         mbedtls_pem_free( &pem );
1384:D:/Work/DeviceTester/amazon-freertos/lib/third_party/mbedtls/library\pkparse.c ****         return( ret );
1385:D:/Work/DeviceTester/amazon-freertos/lib/third_party/mbedtls/library\pkparse.c ****     }
1386:D:/Work/DeviceTester/amazon-freertos/lib/third_party/mbedtls/library\pkparse.c ****     else if( ret != MBEDTLS_ERR_PEM_NO_HEADER_FOOTER_PRESENT )
1387:D:/Work/DeviceTester/amazon-freertos/lib/third_party/mbedtls/library\pkparse.c ****     {
1388:D:/Work/DeviceTester/amazon-freertos/lib/third_party/mbedtls/library\pkparse.c ****         mbedtls_pem_free( &pem );
1389:D:/Work/DeviceTester/amazon-freertos/lib/third_party/mbedtls/library\pkparse.c ****         return( ret );
1390:D:/Work/DeviceTester/amazon-freertos/lib/third_party/mbedtls/library\pkparse.c ****     }
1391:D:/Work/DeviceTester/amazon-freertos/lib/third_party/mbedtls/library\pkparse.c **** #endif /* MBEDTLS_RSA_C */
1392:D:/Work/DeviceTester/amazon-freertos/lib/third_party/mbedtls/library\pkparse.c **** 
1393:D:/Work/DeviceTester/amazon-freertos/lib/third_party/mbedtls/library\pkparse.c ****     /* Avoid calling mbedtls_pem_read_buffer() on non-null-terminated string */
1394:D:/Work/DeviceTester/amazon-freertos/lib/third_party/mbedtls/library\pkparse.c ****     if( keylen == 0 || key[keylen - 1] != '\0' )
1395:D:/Work/DeviceTester/amazon-freertos/lib/third_party/mbedtls/library\pkparse.c ****         ret = MBEDTLS_ERR_PEM_NO_HEADER_FOOTER_PRESENT;
1396:D:/Work/DeviceTester/amazon-freertos/lib/third_party/mbedtls/library\pkparse.c ****     else
1397:D:/Work/DeviceTester/amazon-freertos/lib/third_party/mbedtls/library\pkparse.c ****         ret = mbedtls_pem_read_buffer( &pem,
1398:D:/Work/DeviceTester/amazon-freertos/lib/third_party/mbedtls/library\pkparse.c ****                 "-----BEGIN PUBLIC KEY-----",
1399:D:/Work/DeviceTester/amazon-freertos/lib/third_party/mbedtls/library\pkparse.c ****                 "-----END PUBLIC KEY-----",
1400:D:/Work/DeviceTester/amazon-freertos/lib/third_party/mbedtls/library\pkparse.c ****                 key, NULL, 0, &len );
1401:D:/Work/DeviceTester/amazon-freertos/lib/third_party/mbedtls/library\pkparse.c **** 
1402:D:/Work/DeviceTester/amazon-freertos/lib/third_party/mbedtls/library\pkparse.c ****     if( ret == 0 )
1403:D:/Work/DeviceTester/amazon-freertos/lib/third_party/mbedtls/library\pkparse.c ****     {
1404:D:/Work/DeviceTester/amazon-freertos/lib/third_party/mbedtls/library\pkparse.c ****         /*
1405:D:/Work/DeviceTester/amazon-freertos/lib/third_party/mbedtls/library\pkparse.c ****          * Was PEM encoded
1406:D:/Work/DeviceTester/amazon-freertos/lib/third_party/mbedtls/library\pkparse.c ****          */
1407:D:/Work/DeviceTester/amazon-freertos/lib/third_party/mbedtls/library\pkparse.c ****         p = pem.buf;
1408:D:/Work/DeviceTester/amazon-freertos/lib/third_party/mbedtls/library\pkparse.c **** 
1409:D:/Work/DeviceTester/amazon-freertos/lib/third_party/mbedtls/library\pkparse.c ****         ret = mbedtls_pk_parse_subpubkey( &p,  p + pem.buflen, ctx );
1410:D:/Work/DeviceTester/amazon-freertos/lib/third_party/mbedtls/library\pkparse.c ****         mbedtls_pem_free( &pem );
1411:D:/Work/DeviceTester/amazon-freertos/lib/third_party/mbedtls/library\pkparse.c ****         return( ret );
1412:D:/Work/DeviceTester/amazon-freertos/lib/third_party/mbedtls/library\pkparse.c ****     }
1413:D:/Work/DeviceTester/amazon-freertos/lib/third_party/mbedtls/library\pkparse.c ****     else if( ret != MBEDTLS_ERR_PEM_NO_HEADER_FOOTER_PRESENT )
1414:D:/Work/DeviceTester/amazon-freertos/lib/third_party/mbedtls/library\pkparse.c ****     {
1415:D:/Work/DeviceTester/amazon-freertos/lib/third_party/mbedtls/library\pkparse.c ****         mbedtls_pem_free( &pem );
1416:D:/Work/DeviceTester/amazon-freertos/lib/third_party/mbedtls/library\pkparse.c ****         return( ret );
1417:D:/Work/DeviceTester/amazon-freertos/lib/third_party/mbedtls/library\pkparse.c ****     }
1418:D:/Work/DeviceTester/amazon-freertos/lib/third_party/mbedtls/library\pkparse.c ****     mbedtls_pem_free( &pem );
1419:D:/Work/DeviceTester/amazon-freertos/lib/third_party/mbedtls/library\pkparse.c **** #endif /* MBEDTLS_PEM_PARSE_C */
1420:D:/Work/DeviceTester/amazon-freertos/lib/third_party/mbedtls/library\pkparse.c **** 
1421:D:/Work/DeviceTester/amazon-freertos/lib/third_party/mbedtls/library\pkparse.c **** #if defined(MBEDTLS_RSA_C)
1422:D:/Work/DeviceTester/amazon-freertos/lib/third_party/mbedtls/library\pkparse.c ****     if( ( pk_info = mbedtls_pk_info_from_type( MBEDTLS_PK_RSA ) ) == NULL )
1423:D:/Work/DeviceTester/amazon-freertos/lib/third_party/mbedtls/library\pkparse.c ****         return( MBEDTLS_ERR_PK_UNKNOWN_PK_ALG );
1424:D:/Work/DeviceTester/amazon-freertos/lib/third_party/mbedtls/library\pkparse.c **** 
1425:D:/Work/DeviceTester/amazon-freertos/lib/third_party/mbedtls/library\pkparse.c ****     if( ( ret = mbedtls_pk_setup( ctx, pk_info ) ) != 0 )
1426:D:/Work/DeviceTester/amazon-freertos/lib/third_party/mbedtls/library\pkparse.c ****         return( ret );
1427:D:/Work/DeviceTester/amazon-freertos/lib/third_party/mbedtls/library\pkparse.c **** 
1428:D:/Work/DeviceTester/amazon-freertos/lib/third_party/mbedtls/library\pkparse.c ****     p = (unsigned char *)key;
1429:D:/Work/DeviceTester/amazon-freertos/lib/third_party/mbedtls/library\pkparse.c ****     ret = pk_get_rsapubkey( &p, p + keylen, mbedtls_pk_rsa( *ctx ) );
1430:D:/Work/DeviceTester/amazon-freertos/lib/third_party/mbedtls/library\pkparse.c ****     if( ret == 0 )
1431:D:/Work/DeviceTester/amazon-freertos/lib/third_party/mbedtls/library\pkparse.c ****     {
1432:D:/Work/DeviceTester/amazon-freertos/lib/third_party/mbedtls/library\pkparse.c ****         return( ret );
1433:D:/Work/DeviceTester/amazon-freertos/lib/third_party/mbedtls/library\pkparse.c ****     }
1434:D:/Work/DeviceTester/amazon-freertos/lib/third_party/mbedtls/library\pkparse.c ****     mbedtls_pk_free( ctx );
1435:D:/Work/DeviceTester/amazon-freertos/lib/third_party/mbedtls/library\pkparse.c ****     if( ret != ( MBEDTLS_ERR_PK_INVALID_PUBKEY + MBEDTLS_ERR_ASN1_UNEXPECTED_TAG ) )
1436:D:/Work/DeviceTester/amazon-freertos/lib/third_party/mbedtls/library\pkparse.c ****     {
1437:D:/Work/DeviceTester/amazon-freertos/lib/third_party/mbedtls/library\pkparse.c ****         return( ret );
1438:D:/Work/DeviceTester/amazon-freertos/lib/third_party/mbedtls/library\pkparse.c ****     }
1439:D:/Work/DeviceTester/amazon-freertos/lib/third_party/mbedtls/library\pkparse.c **** #endif /* MBEDTLS_RSA_C */
1440:D:/Work/DeviceTester/amazon-freertos/lib/third_party/mbedtls/library\pkparse.c ****     p = (unsigned char *) key;
1441:D:/Work/DeviceTester/amazon-freertos/lib/third_party/mbedtls/library\pkparse.c **** 
1442:D:/Work/DeviceTester/amazon-freertos/lib/third_party/mbedtls/library\pkparse.c ****     ret = mbedtls_pk_parse_subpubkey( &p, p + keylen, ctx );
1443:D:/Work/DeviceTester/amazon-freertos/lib/third_party/mbedtls/library\pkparse.c **** 
1444:D:/Work/DeviceTester/amazon-freertos/lib/third_party/mbedtls/library\pkparse.c ****     return( ret );
1445:D:/Work/DeviceTester/amazon-freertos/lib/third_party/mbedtls/library\pkparse.c **** }
 1841              		.loc 1 1445 0
 1842 007c 0400A0E1 		mov	r0, r4
 1843 0080 28D08DE2 		add	sp, sp, #40
 1844              		.cfi_remember_state
 1845              		.cfi_def_cfa_offset 24
 1846              		@ sp needed
 1847 0084 F081BDE8 		pop	{r4, r5, r6, r7, r8, pc}
 1848              	.LVL253:
 1849              	.L197:
 1850              		.cfi_restore_state
1377:D:/Work/DeviceTester/amazon-freertos/lib/third_party/mbedtls/library\pkparse.c ****             return( ret );
 1851              		.loc 1 1377 0
 1852 0088 0500A0E1 		mov	r0, r5
 1853              	.LVL254:
 1854 008c FEFFFFEB 		bl	mbedtls_pk_setup
 1855              	.LVL255:
 1856 0090 004050E2 		subs	r4, r0, #0
 1857 0094 F8FFFF1A 		bne	.L193
1380:D:/Work/DeviceTester/amazon-freertos/lib/third_party/mbedtls/library\pkparse.c ****             mbedtls_pk_free( ctx );
 1858              		.loc 1 1380 0
 1859 0098 20309DE5 		ldr	r3, [sp, #32]
 1860 009c 14008DE2 		add	r0, sp, #20
 1861              	.LVL256:
 1862 00a0 14109DE5 		ldr	r1, [sp, #20]
 1863 00a4 042095E5 		ldr	r2, [r5, #4]
 1864 00a8 031081E0 		add	r1, r1, r3
 1865 00ac FEFFFFEB 		bl	pk_get_rsapubkey
 1866              	.LVL257:
 1867 00b0 004050E2 		subs	r4, r0, #0
 1868 00b4 0100000A 		beq	.L219
1381:D:/Work/DeviceTester/amazon-freertos/lib/third_party/mbedtls/library\pkparse.c **** 
 1869              		.loc 1 1381 0
 1870 00b8 0500A0E1 		mov	r0, r5
 1871              	.LVL258:
 1872 00bc FEFFFFEB 		bl	mbedtls_pk_free
 1873              	.LVL259:
 1874              	.L219:
1415:D:/Work/DeviceTester/amazon-freertos/lib/third_party/mbedtls/library\pkparse.c ****         return( ret );
 1875              		.loc 1 1415 0
 1876 00c0 1C008DE2 		add	r0, sp, #28
 1877 00c4 FEFFFFEB 		bl	mbedtls_pem_free
 1878              	.LVL260:
1416:D:/Work/DeviceTester/amazon-freertos/lib/third_party/mbedtls/library\pkparse.c ****     }
 1879              		.loc 1 1416 0
 1880 00c8 EBFFFFEA 		b	.L193
 1881              	.LVL261:
 1882              	.L200:
1413:D:/Work/DeviceTester/amazon-freertos/lib/third_party/mbedtls/library\pkparse.c ****     {
 1883              		.loc 1 1413 0
 1884 00cc 420D74E3 		cmn	r4, #4224
 1885 00d0 FAFFFF1A 		bne	.L219
 1886              	.LVL262:
 1887              	.L194:
1418:D:/Work/DeviceTester/amazon-freertos/lib/third_party/mbedtls/library\pkparse.c **** #endif /* MBEDTLS_PEM_PARSE_C */
 1888              		.loc 1 1418 0
 1889 00d4 1C008DE2 		add	r0, sp, #28
 1890 00d8 FEFFFFEB 		bl	mbedtls_pem_free
 1891              	.LVL263:
1422:D:/Work/DeviceTester/amazon-freertos/lib/third_party/mbedtls/library\pkparse.c ****         return( MBEDTLS_ERR_PK_UNKNOWN_PK_ALG );
 1892              		.loc 1 1422 0
 1893 00dc 0100A0E3 		mov	r0, #1
 1894 00e0 FEFFFFEB 		bl	mbedtls_pk_info_from_type
 1895              	.LVL264:
 1896 00e4 001050E2 		subs	r1, r0, #0
 1897 00e8 E2FFFF0A 		beq	.L201
1425:D:/Work/DeviceTester/amazon-freertos/lib/third_party/mbedtls/library\pkparse.c ****         return( ret );
 1898              		.loc 1 1425 0
 1899 00ec 0500A0E1 		mov	r0, r5
 1900              	.LVL265:
 1901 00f0 FEFFFFEB 		bl	mbedtls_pk_setup
 1902              	.LVL266:
 1903 00f4 004050E2 		subs	r4, r0, #0
 1904 00f8 DFFFFF1A 		bne	.L193
1428:D:/Work/DeviceTester/amazon-freertos/lib/third_party/mbedtls/library\pkparse.c ****     ret = pk_get_rsapubkey( &p, p + keylen, mbedtls_pk_rsa( *ctx ) );
 1905              		.loc 1 1428 0
 1906 00fc 28808DE2 		add	r8, sp, #40
1429:D:/Work/DeviceTester/amazon-freertos/lib/third_party/mbedtls/library\pkparse.c ****     if( ret == 0 )
 1907              		.loc 1 1429 0
 1908 0100 077086E0 		add	r7, r6, r7
 1909              	.LVL267:
1428:D:/Work/DeviceTester/amazon-freertos/lib/third_party/mbedtls/library\pkparse.c ****     ret = pk_get_rsapubkey( &p, p + keylen, mbedtls_pk_rsa( *ctx ) );
 1910              		.loc 1 1428 0
 1911 0104 146028E5 		str	r6, [r8, #-20]!
1429:D:/Work/DeviceTester/amazon-freertos/lib/third_party/mbedtls/library\pkparse.c ****     if( ret == 0 )
 1912              		.loc 1 1429 0
 1913 0108 0710A0E1 		mov	r1, r7
 1914 010c 042095E5 		ldr	r2, [r5, #4]
 1915 0110 0800A0E1 		mov	r0, r8
 1916              	.LVL268:
 1917 0114 FEFFFFEB 		bl	pk_get_rsapubkey
 1918              	.LVL269:
1430:D:/Work/DeviceTester/amazon-freertos/lib/third_party/mbedtls/library\pkparse.c ****     {
 1919              		.loc 1 1430 0
 1920 0118 004050E2 		subs	r4, r0, #0
 1921 011c D6FFFF0A 		beq	.L193
1434:D:/Work/DeviceTester/amazon-freertos/lib/third_party/mbedtls/library\pkparse.c ****     if( ret != ( MBEDTLS_ERR_PK_INVALID_PUBKEY + MBEDTLS_ERR_ASN1_UNEXPECTED_TAG ) )
 1922              		.loc 1 1434 0
 1923 0120 0500A0E1 		mov	r0, r5
 1924              	.LVL270:
 1925 0124 FEFFFFEB 		bl	mbedtls_pk_free
 1926              	.LVL271:
1435:D:/Work/DeviceTester/amazon-freertos/lib/third_party/mbedtls/library\pkparse.c ****     {
 1927              		.loc 1 1435 0
 1928 0128 90309FE5 		ldr	r3, .L220+12
 1929 012c 030054E1 		cmp	r4, r3
 1930 0130 D1FFFF1A 		bne	.L193
1442:D:/Work/DeviceTester/amazon-freertos/lib/third_party/mbedtls/library\pkparse.c **** 
 1931              		.loc 1 1442 0
 1932 0134 0520A0E1 		mov	r2, r5
 1933 0138 0710A0E1 		mov	r1, r7
 1934 013c 0800A0E1 		mov	r0, r8
1440:D:/Work/DeviceTester/amazon-freertos/lib/third_party/mbedtls/library\pkparse.c **** 
 1935              		.loc 1 1440 0
 1936 0140 14608DE5 		str	r6, [sp, #20]
1442:D:/Work/DeviceTester/amazon-freertos/lib/third_party/mbedtls/library\pkparse.c **** 
 1937              		.loc 1 1442 0
 1938 0144 FEFFFFEB 		bl	mbedtls_pk_parse_subpubkey
 1939              	.LVL272:
 1940 0148 0040A0E1 		mov	r4, r0
 1941              	.LVL273:
1444:D:/Work/DeviceTester/amazon-freertos/lib/third_party/mbedtls/library\pkparse.c **** }
 1942              		.loc 1 1444 0
 1943 014c CAFFFFEA 		b	.L193
 1944              	.LVL274:
 1945              	.L196:
1386:D:/Work/DeviceTester/amazon-freertos/lib/third_party/mbedtls/library\pkparse.c ****     {
 1946              		.loc 1 1386 0
 1947 0150 420D74E3 		cmn	r4, #4224
 1948 0154 D9FFFF1A 		bne	.L219
 1949              	.LVL275:
 1950              	.L195:
1394:D:/Work/DeviceTester/amazon-freertos/lib/third_party/mbedtls/library\pkparse.c ****         ret = MBEDTLS_ERR_PEM_NO_HEADER_FOOTER_PRESENT;
 1951              		.loc 1 1394 0
 1952 0158 0830D6E7 		ldrb	r3, [r6, r8]	@ zero_extendqisi2
 1953 015c 000053E3 		cmp	r3, #0
 1954 0160 DBFFFF1A 		bne	.L194
1397:D:/Work/DeviceTester/amazon-freertos/lib/third_party/mbedtls/library\pkparse.c ****                 "-----BEGIN PUBLIC KEY-----",
 1955              		.loc 1 1397 0
 1956 0164 18208DE2 		add	r2, sp, #24
 1957 0168 04308DE5 		str	r3, [sp, #4]
 1958 016c 08208DE5 		str	r2, [sp, #8]
 1959 0170 1C008DE2 		add	r0, sp, #28
 1960 0174 00308DE5 		str	r3, [sp]
 1961 0178 0630A0E1 		mov	r3, r6
 1962 017c 40209FE5 		ldr	r2, .L220+16
 1963 0180 40109FE5 		ldr	r1, .L220+20
 1964 0184 FEFFFFEB 		bl	mbedtls_pem_read_buffer
 1965              	.LVL276:
1402:D:/Work/DeviceTester/amazon-freertos/lib/third_party/mbedtls/library\pkparse.c ****     {
 1966              		.loc 1 1402 0
 1967 0188 004050E2 		subs	r4, r0, #0
 1968 018c CEFFFF1A 		bne	.L200
1407:D:/Work/DeviceTester/amazon-freertos/lib/third_party/mbedtls/library\pkparse.c **** 
 1969              		.loc 1 1407 0
 1970 0190 1C309DE5 		ldr	r3, [sp, #28]
1409:D:/Work/DeviceTester/amazon-freertos/lib/third_party/mbedtls/library\pkparse.c ****         mbedtls_pem_free( &pem );
 1971              		.loc 1 1409 0
 1972 0194 0520A0E1 		mov	r2, r5
 1973 0198 20109DE5 		ldr	r1, [sp, #32]
 1974 019c 14008DE2 		add	r0, sp, #20
 1975              	.LVL277:
1407:D:/Work/DeviceTester/amazon-freertos/lib/third_party/mbedtls/library\pkparse.c **** 
 1976              		.loc 1 1407 0
 1977 01a0 14308DE5 		str	r3, [sp, #20]
1409:D:/Work/DeviceTester/amazon-freertos/lib/third_party/mbedtls/library\pkparse.c ****         mbedtls_pem_free( &pem );
 1978              		.loc 1 1409 0
 1979 01a4 011083E0 		add	r1, r3, r1
 1980 01a8 FEFFFFEB 		bl	mbedtls_pk_parse_subpubkey
 1981              	.LVL278:
 1982 01ac 0040A0E1 		mov	r4, r0
 1983              	.LVL279:
 1984 01b0 C2FFFFEA 		b	.L219
 1985              	.L221:
 1986              		.align	2
 1987              	.L220:
 1988 01b4 00000000 		.word	.LC6
 1989 01b8 1D000000 		.word	.LC7
 1990 01bc 80C3FFFF 		.word	-15488
 1991 01c0 9EC4FFFF 		.word	-15202
 1992 01c4 3C000000 		.word	.LC8
 1993 01c8 55000000 		.word	.LC9
 1994              		.cfi_endproc
 1995              	.LFE21:
 1997              		.section	.rodata.mbedtls_pk_parse_key.str1.1,"aMS",%progbits,1
 1998              	.LC0:
 1999 0000 2D2D2D2D 		.ascii	"-----END RSA PRIVATE KEY-----\000"
 1999      2D454E44 
 1999      20525341 
 1999      20505249 
 1999      56415445 
 2000              	.LC1:
 2001 001e 2D2D2D2D 		.ascii	"-----BEGIN RSA PRIVATE KEY-----\000"
 2001      2D424547 
 2001      494E2052 
 2001      53412050 
 2001      52495641 
 2002              	.LC2:
 2003 003e 2D2D2D2D 		.ascii	"-----END EC PRIVATE KEY-----\000"
 2003      2D454E44 
 2003      20454320 
 2003      50524956 
 2003      41544520 
 2004              	.LC3:
 2005 005b 2D2D2D2D 		.ascii	"-----BEGIN EC PRIVATE KEY-----\000"
 2005      2D424547 
 2005      494E2045 
 2005      43205052 
 2005      49564154 
 2006              	.LC4:
 2007 007a 2D2D2D2D 		.ascii	"-----END PRIVATE KEY-----\000"
 2007      2D454E44 
 2007      20505249 
 2007      56415445 
 2007      204B4559 
 2008              	.LC5:
 2009 0094 2D2D2D2D 		.ascii	"-----BEGIN PRIVATE KEY-----\000"
 2009      2D424547 
 2009      494E2050 
 2009      52495641 
 2009      5445204B 
 2010              		.section	.rodata.mbedtls_pk_parse_public_key.str1.1,"aMS",%progbits,1
 2011              	.LC6:
 2012 0000 2D2D2D2D 		.ascii	"-----END RSA PUBLIC KEY-----\000"
 2012      2D454E44 
 2012      20525341 
 2012      20505542 
 2012      4C494320 
 2013              	.LC7:
 2014 001d 2D2D2D2D 		.ascii	"-----BEGIN RSA PUBLIC KEY-----\000"
 2014      2D424547 
 2014      494E2052 
 2014      53412050 
 2014      55424C49 
 2015              	.LC8:
 2016 003c 2D2D2D2D 		.ascii	"-----END PUBLIC KEY-----\000"
 2016      2D454E44 
 2016      20505542 
 2016      4C494320 
 2016      4B45592D 
 2017              	.LC9:
 2018 0055 2D2D2D2D 		.ascii	"-----BEGIN PUBLIC KEY-----\000"
 2018      2D424547 
 2018      494E2050 
 2018      55424C49 
 2018      43204B45 
 2019              		.text
 2020              	.Letext0:
 2021              		.file 2 "c:\\program files (x86)\\gnu tools arm embedded\\6 2017-q2-update\\arm-none-eabi\\include
 2022              		.file 3 "c:\\program files (x86)\\gnu tools arm embedded\\6 2017-q2-update\\lib\\gcc\\arm-none-eab
 2023              		.file 4 "c:\\program files (x86)\\gnu tools arm embedded\\6 2017-q2-update\\arm-none-eabi\\include
 2024              		.file 5 "D:\\Work\\DeviceTester\\amazon-freertos\\lib\\third_party\\mbedtls\\include/mbedtls/bignu
 2025              		.file 6 "c:\\program files (x86)\\gnu tools arm embedded\\6 2017-q2-update\\arm-none-eabi\\include
 2026              		.file 7 "c:\\program files (x86)\\gnu tools arm embedded\\6 2017-q2-update\\arm-none-eabi\\include
 2027              		.file 8 "c:\\program files (x86)\\gnu tools arm embedded\\6 2017-q2-update\\arm-none-eabi\\include
 2028              		.file 9 "c:\\program files (x86)\\gnu tools arm embedded\\6 2017-q2-update\\arm-none-eabi\\include
 2029              		.file 10 "c:\\program files (x86)\\gnu tools arm embedded\\6 2017-q2-update\\arm-none-eabi\\includ
 2030              		.file 11 "c:\\program files (x86)\\gnu tools arm embedded\\6 2017-q2-update\\arm-none-eabi\\includ
 2031              		.file 12 "D:\\Work\\DeviceTester\\amazon-freertos\\lib\\third_party\\unity\\src/unity_internals.h"
 2032              		.file 13 "D:\\Work\\DeviceTester\\amazon-freertos\\lib\\include/queue.h"
 2033              		.file 14 "D:\\Work\\DeviceTester\\amazon-freertos\\lib\\include/semphr.h"
 2034              		.file 15 "D:\\Work\\DeviceTester\\amazon-freertos\\lib\\include\\private/threading_alt.h"
 2035              		.file 16 "D:\\Work\\DeviceTester\\amazon-freertos\\lib\\third_party\\mbedtls\\include/mbedtls/thre
 2036              		.file 17 "D:\\Work\\DeviceTester\\amazon-freertos\\lib\\third_party\\mbedtls\\include/mbedtls/rsa.
 2037              		.file 18 "D:\\Work\\DeviceTester\\amazon-freertos\\lib\\third_party\\mbedtls\\include/mbedtls/ecp.
 2038              		.file 19 "D:\\Work\\DeviceTester\\amazon-freertos\\lib\\third_party\\mbedtls\\include/mbedtls/pk.h
 2039              		.file 20 "D:\\Work\\DeviceTester\\amazon-freertos\\lib\\third_party\\mbedtls\\include/mbedtls/asn1
 2040              		.file 21 "D:\\Work\\DeviceTester\\amazon-freertos\\lib\\third_party\\mbedtls\\include/mbedtls/pem.
 2041              		.file 22 "c:\\program files (x86)\\gnu tools arm embedded\\6 2017-q2-update\\arm-none-eabi\\includ
 2042              		.file 23 "D:\\Work\\DeviceTester\\amazon-freertos\\lib\\third_party\\mbedtls\\include/mbedtls/oid.
DEFINED SYMBOLS
                            *ABS*:00000000 pkparse.c
C:\Users\a5089698\AppData\Local\Temp\ccavYRvF.s:17     .text.pk_get_rsapubkey:00000000 $a
C:\Users\a5089698\AppData\Local\Temp\ccavYRvF.s:22     .text.pk_get_rsapubkey:00000000 pk_get_rsapubkey
C:\Users\a5089698\AppData\Local\Temp\ccavYRvF.s:182    .text.pk_get_rsapubkey:00000154 $d
C:\Users\a5089698\AppData\Local\Temp\ccavYRvF.s:188    .text.pk_use_ecparams:00000000 $a
C:\Users\a5089698\AppData\Local\Temp\ccavYRvF.s:193    .text.pk_use_ecparams:00000000 pk_use_ecparams
C:\Users\a5089698\AppData\Local\Temp\ccavYRvF.s:252    .text.pk_use_ecparams:00000058 $d
C:\Users\a5089698\AppData\Local\Temp\ccavYRvF.s:258    .text.pk_parse_key_pkcs1_der:00000000 $a
C:\Users\a5089698\AppData\Local\Temp\ccavYRvF.s:263    .text.pk_parse_key_pkcs1_der:00000000 pk_parse_key_pkcs1_der
C:\Users\a5089698\AppData\Local\Temp\ccavYRvF.s:603    .text.pk_parse_key_pkcs1_der:00000324 $d
C:\Users\a5089698\AppData\Local\Temp\ccavYRvF.s:610    .text.pk_get_pk_alg:00000000 $a
C:\Users\a5089698\AppData\Local\Temp\ccavYRvF.s:615    .text.pk_get_pk_alg:00000000 pk_get_pk_alg
C:\Users\a5089698\AppData\Local\Temp\ccavYRvF.s:694    .text.pk_get_pk_alg:00000084 $d
C:\Users\a5089698\AppData\Local\Temp\ccavYRvF.s:700    .text.pk_parse_key_sec1_der:00000000 $a
C:\Users\a5089698\AppData\Local\Temp\ccavYRvF.s:705    .text.pk_parse_key_sec1_der:00000000 pk_parse_key_sec1_der
C:\Users\a5089698\AppData\Local\Temp\ccavYRvF.s:1047   .text.pk_parse_key_sec1_der:00000280 $d
C:\Users\a5089698\AppData\Local\Temp\ccavYRvF.s:1057   .text.pk_parse_key_pkcs8_unencrypted_der:00000000 $a
C:\Users\a5089698\AppData\Local\Temp\ccavYRvF.s:1062   .text.pk_parse_key_pkcs8_unencrypted_der:00000000 pk_parse_key_pkcs8_unencrypted_der
C:\Users\a5089698\AppData\Local\Temp\ccavYRvF.s:1238   .text.pk_parse_key_pkcs8_unencrypted_der:0000014c $d
C:\Users\a5089698\AppData\Local\Temp\ccavYRvF.s:1245   .text.mbedtls_pk_parse_subpubkey:00000000 $a
C:\Users\a5089698\AppData\Local\Temp\ccavYRvF.s:1251   .text.mbedtls_pk_parse_subpubkey:00000000 mbedtls_pk_parse_subpubkey
C:\Users\a5089698\AppData\Local\Temp\ccavYRvF.s:1449   .text.mbedtls_pk_parse_subpubkey:00000168 $d
C:\Users\a5089698\AppData\Local\Temp\ccavYRvF.s:1455   .text.mbedtls_pk_parse_key:00000000 $a
C:\Users\a5089698\AppData\Local\Temp\ccavYRvF.s:1461   .text.mbedtls_pk_parse_key:00000000 mbedtls_pk_parse_key
C:\Users\a5089698\AppData\Local\Temp\ccavYRvF.s:1754   .text.mbedtls_pk_parse_key:00000260 $d
C:\Users\a5089698\AppData\Local\Temp\ccavYRvF.s:1767   .text.mbedtls_pk_parse_public_key:00000000 $a
C:\Users\a5089698\AppData\Local\Temp\ccavYRvF.s:1773   .text.mbedtls_pk_parse_public_key:00000000 mbedtls_pk_parse_public_key
C:\Users\a5089698\AppData\Local\Temp\ccavYRvF.s:1988   .text.mbedtls_pk_parse_public_key:000001b4 $d
                     .debug_frame:00000010 $d

UNDEFINED SYMBOLS
mbedtls_asn1_get_tag
mbedtls_rsa_import_raw
mbedtls_rsa_complete
mbedtls_rsa_check_pubkey
mbedtls_oid_get_ec_grp
mbedtls_ecp_group_load
mbedtls_mpi_init
mbedtls_asn1_get_int
mbedtls_asn1_get_mpi
mbedtls_mpi_free
mbedtls_rsa_free
mbedtls_asn1_get_alg
mbedtls_oid_get_pk_alg
mbedtls_mpi_read_binary
mbedtls_ecp_keypair_free
mbedtls_asn1_get_bitstring_null
mbedtls_ecp_point_read_binary
mbedtls_ecp_check_pubkey
mbedtls_ecp_mul
mbedtls_ecp_check_privkey
mbedtls_pk_info_from_type
mbedtls_pk_setup
mbedtls_pk_free
mbedtls_pem_init
mbedtls_pem_read_buffer
mbedtls_pem_free
