   1              		.cpu cortex-a9
   2              		.eabi_attribute 28, 1
   3              		.eabi_attribute 20, 1
   4              		.eabi_attribute 21, 1
   5              		.eabi_attribute 23, 3
   6              		.eabi_attribute 24, 1
   7              		.eabi_attribute 25, 1
   8              		.eabi_attribute 26, 1
   9              		.eabi_attribute 30, 4
  10              		.eabi_attribute 34, 0
  11              		.eabi_attribute 18, 4
  12              		.file	"platform.c"
  13              		.text
  14              	.Ltext0:
  15              		.cfi_sections	.debug_frame
  16              		.section	.text.mbedtls_calloc,"ax",%progbits
  17              		.align	2
  18              		.global	mbedtls_calloc
  19              		.syntax unified
  20              		.arm
  21              		.fpu neon
  23              	mbedtls_calloc:
  24              	.LFB1:
  25              		.file 1 "D:/Work/DeviceTester/amazon-freertos/lib/third_party/mbedtls/library/platform.c"
   1:D:/Work/DeviceTester/amazon-freertos/lib/third_party/mbedtls/library\platform.c **** /*
   2:D:/Work/DeviceTester/amazon-freertos/lib/third_party/mbedtls/library\platform.c ****  *  Platform abstraction layer
   3:D:/Work/DeviceTester/amazon-freertos/lib/third_party/mbedtls/library\platform.c ****  *
   4:D:/Work/DeviceTester/amazon-freertos/lib/third_party/mbedtls/library\platform.c ****  *  Copyright (C) 2006-2016, ARM Limited, All Rights Reserved
   5:D:/Work/DeviceTester/amazon-freertos/lib/third_party/mbedtls/library\platform.c ****  *  SPDX-License-Identifier: Apache-2.0
   6:D:/Work/DeviceTester/amazon-freertos/lib/third_party/mbedtls/library\platform.c ****  *
   7:D:/Work/DeviceTester/amazon-freertos/lib/third_party/mbedtls/library\platform.c ****  *  Licensed under the Apache License, Version 2.0 (the "License"); you may
   8:D:/Work/DeviceTester/amazon-freertos/lib/third_party/mbedtls/library\platform.c ****  *  not use this file except in compliance with the License.
   9:D:/Work/DeviceTester/amazon-freertos/lib/third_party/mbedtls/library\platform.c ****  *  You may obtain a copy of the License at
  10:D:/Work/DeviceTester/amazon-freertos/lib/third_party/mbedtls/library\platform.c ****  *
  11:D:/Work/DeviceTester/amazon-freertos/lib/third_party/mbedtls/library\platform.c ****  *  http://www.apache.org/licenses/LICENSE-2.0
  12:D:/Work/DeviceTester/amazon-freertos/lib/third_party/mbedtls/library\platform.c ****  *
  13:D:/Work/DeviceTester/amazon-freertos/lib/third_party/mbedtls/library\platform.c ****  *  Unless required by applicable law or agreed to in writing, software
  14:D:/Work/DeviceTester/amazon-freertos/lib/third_party/mbedtls/library\platform.c ****  *  distributed under the License is distributed on an "AS IS" BASIS, WITHOUT
  15:D:/Work/DeviceTester/amazon-freertos/lib/third_party/mbedtls/library\platform.c ****  *  WARRANTIES OR CONDITIONS OF ANY KIND, either express or implied.
  16:D:/Work/DeviceTester/amazon-freertos/lib/third_party/mbedtls/library\platform.c ****  *  See the License for the specific language governing permissions and
  17:D:/Work/DeviceTester/amazon-freertos/lib/third_party/mbedtls/library\platform.c ****  *  limitations under the License.
  18:D:/Work/DeviceTester/amazon-freertos/lib/third_party/mbedtls/library\platform.c ****  *
  19:D:/Work/DeviceTester/amazon-freertos/lib/third_party/mbedtls/library\platform.c ****  *  This file is part of mbed TLS (https://tls.mbed.org)
  20:D:/Work/DeviceTester/amazon-freertos/lib/third_party/mbedtls/library\platform.c ****  */
  21:D:/Work/DeviceTester/amazon-freertos/lib/third_party/mbedtls/library\platform.c **** 
  22:D:/Work/DeviceTester/amazon-freertos/lib/third_party/mbedtls/library\platform.c **** #if !defined(MBEDTLS_CONFIG_FILE)
  23:D:/Work/DeviceTester/amazon-freertos/lib/third_party/mbedtls/library\platform.c **** #include "mbedtls/config.h"
  24:D:/Work/DeviceTester/amazon-freertos/lib/third_party/mbedtls/library\platform.c **** #else
  25:D:/Work/DeviceTester/amazon-freertos/lib/third_party/mbedtls/library\platform.c **** #include MBEDTLS_CONFIG_FILE
  26:D:/Work/DeviceTester/amazon-freertos/lib/third_party/mbedtls/library\platform.c **** #endif
  27:D:/Work/DeviceTester/amazon-freertos/lib/third_party/mbedtls/library\platform.c **** 
  28:D:/Work/DeviceTester/amazon-freertos/lib/third_party/mbedtls/library\platform.c **** #if defined(MBEDTLS_PLATFORM_C)
  29:D:/Work/DeviceTester/amazon-freertos/lib/third_party/mbedtls/library\platform.c **** 
  30:D:/Work/DeviceTester/amazon-freertos/lib/third_party/mbedtls/library\platform.c **** #include "mbedtls/platform.h"
  31:D:/Work/DeviceTester/amazon-freertos/lib/third_party/mbedtls/library\platform.c **** #include "mbedtls/platform_util.h"
  32:D:/Work/DeviceTester/amazon-freertos/lib/third_party/mbedtls/library\platform.c **** 
  33:D:/Work/DeviceTester/amazon-freertos/lib/third_party/mbedtls/library\platform.c **** #if defined(MBEDTLS_PLATFORM_MEMORY)
  34:D:/Work/DeviceTester/amazon-freertos/lib/third_party/mbedtls/library\platform.c **** #if !defined(MBEDTLS_PLATFORM_STD_CALLOC)
  35:D:/Work/DeviceTester/amazon-freertos/lib/third_party/mbedtls/library\platform.c **** static void *platform_calloc_uninit( size_t n, size_t size )
  36:D:/Work/DeviceTester/amazon-freertos/lib/third_party/mbedtls/library\platform.c **** {
  37:D:/Work/DeviceTester/amazon-freertos/lib/third_party/mbedtls/library\platform.c ****     ((void) n);
  38:D:/Work/DeviceTester/amazon-freertos/lib/third_party/mbedtls/library\platform.c ****     ((void) size);
  39:D:/Work/DeviceTester/amazon-freertos/lib/third_party/mbedtls/library\platform.c ****     return( NULL );
  40:D:/Work/DeviceTester/amazon-freertos/lib/third_party/mbedtls/library\platform.c **** }
  41:D:/Work/DeviceTester/amazon-freertos/lib/third_party/mbedtls/library\platform.c **** 
  42:D:/Work/DeviceTester/amazon-freertos/lib/third_party/mbedtls/library\platform.c **** #define MBEDTLS_PLATFORM_STD_CALLOC   platform_calloc_uninit
  43:D:/Work/DeviceTester/amazon-freertos/lib/third_party/mbedtls/library\platform.c **** #endif /* !MBEDTLS_PLATFORM_STD_CALLOC */
  44:D:/Work/DeviceTester/amazon-freertos/lib/third_party/mbedtls/library\platform.c **** 
  45:D:/Work/DeviceTester/amazon-freertos/lib/third_party/mbedtls/library\platform.c **** #if !defined(MBEDTLS_PLATFORM_STD_FREE)
  46:D:/Work/DeviceTester/amazon-freertos/lib/third_party/mbedtls/library\platform.c **** static void platform_free_uninit( void *ptr )
  47:D:/Work/DeviceTester/amazon-freertos/lib/third_party/mbedtls/library\platform.c **** {
  48:D:/Work/DeviceTester/amazon-freertos/lib/third_party/mbedtls/library\platform.c ****     ((void) ptr);
  49:D:/Work/DeviceTester/amazon-freertos/lib/third_party/mbedtls/library\platform.c **** }
  50:D:/Work/DeviceTester/amazon-freertos/lib/third_party/mbedtls/library\platform.c **** 
  51:D:/Work/DeviceTester/amazon-freertos/lib/third_party/mbedtls/library\platform.c **** #define MBEDTLS_PLATFORM_STD_FREE     platform_free_uninit
  52:D:/Work/DeviceTester/amazon-freertos/lib/third_party/mbedtls/library\platform.c **** #endif /* !MBEDTLS_PLATFORM_STD_FREE */
  53:D:/Work/DeviceTester/amazon-freertos/lib/third_party/mbedtls/library\platform.c **** 
  54:D:/Work/DeviceTester/amazon-freertos/lib/third_party/mbedtls/library\platform.c **** static void * (*mbedtls_calloc_func)( size_t, size_t ) = MBEDTLS_PLATFORM_STD_CALLOC;
  55:D:/Work/DeviceTester/amazon-freertos/lib/third_party/mbedtls/library\platform.c **** static void (*mbedtls_free_func)( void * ) = MBEDTLS_PLATFORM_STD_FREE;
  56:D:/Work/DeviceTester/amazon-freertos/lib/third_party/mbedtls/library\platform.c **** 
  57:D:/Work/DeviceTester/amazon-freertos/lib/third_party/mbedtls/library\platform.c **** void * mbedtls_calloc( size_t nmemb, size_t size )
  58:D:/Work/DeviceTester/amazon-freertos/lib/third_party/mbedtls/library\platform.c **** {
  26              		.loc 1 58 0
  27              		.cfi_startproc
  28              		@ args = 0, pretend = 0, frame = 0
  29              		@ frame_needed = 0, uses_anonymous_args = 0
  30              		@ link register save eliminated.
  31              	.LVL0:
  59:D:/Work/DeviceTester/amazon-freertos/lib/third_party/mbedtls/library\platform.c ****     return (*mbedtls_calloc_func)( nmemb, size );
  32              		.loc 1 59 0
  33 0000 04309FE5 		ldr	r3, .L2
  34 0004 003093E5 		ldr	r3, [r3]
  35 0008 13FF2FE1 		bx	r3
  36              	.LVL1:
  37              	.L3:
  38              		.align	2
  39              	.L2:
  40 000c 00000000 		.word	.LANCHOR0
  41              		.cfi_endproc
  42              	.LFE1:
  44              		.section	.text.mbedtls_free,"ax",%progbits
  45              		.align	2
  46              		.global	mbedtls_free
  47              		.syntax unified
  48              		.arm
  49              		.fpu neon
  51              	mbedtls_free:
  52              	.LFB2:
  60:D:/Work/DeviceTester/amazon-freertos/lib/third_party/mbedtls/library\platform.c **** }
  61:D:/Work/DeviceTester/amazon-freertos/lib/third_party/mbedtls/library\platform.c **** 
  62:D:/Work/DeviceTester/amazon-freertos/lib/third_party/mbedtls/library\platform.c **** void mbedtls_free( void * ptr )
  63:D:/Work/DeviceTester/amazon-freertos/lib/third_party/mbedtls/library\platform.c **** {
  53              		.loc 1 63 0
  54              		.cfi_startproc
  55              		@ args = 0, pretend = 0, frame = 0
  56              		@ frame_needed = 0, uses_anonymous_args = 0
  57              		@ link register save eliminated.
  58              	.LVL2:
  64:D:/Work/DeviceTester/amazon-freertos/lib/third_party/mbedtls/library\platform.c ****     (*mbedtls_free_func)( ptr );
  59              		.loc 1 64 0
  60 0000 04309FE5 		ldr	r3, .L5
  61 0004 003093E5 		ldr	r3, [r3]
  62 0008 13FF2FE1 		bx	r3	@ indirect register sibling call
  63              	.LVL3:
  64              	.L6:
  65              		.align	2
  66              	.L5:
  67 000c 00000000 		.word	.LANCHOR1
  68              		.cfi_endproc
  69              	.LFE2:
  71              		.section	.text.mbedtls_platform_set_calloc_free,"ax",%progbits
  72              		.align	2
  73              		.global	mbedtls_platform_set_calloc_free
  74              		.syntax unified
  75              		.arm
  76              		.fpu neon
  78              	mbedtls_platform_set_calloc_free:
  79              	.LFB3:
  65:D:/Work/DeviceTester/amazon-freertos/lib/third_party/mbedtls/library\platform.c **** }
  66:D:/Work/DeviceTester/amazon-freertos/lib/third_party/mbedtls/library\platform.c **** 
  67:D:/Work/DeviceTester/amazon-freertos/lib/third_party/mbedtls/library\platform.c **** int mbedtls_platform_set_calloc_free( void * (*calloc_func)( size_t, size_t ),
  68:D:/Work/DeviceTester/amazon-freertos/lib/third_party/mbedtls/library\platform.c ****                               void (*free_func)( void * ) )
  69:D:/Work/DeviceTester/amazon-freertos/lib/third_party/mbedtls/library\platform.c **** {
  80              		.loc 1 69 0
  81              		.cfi_startproc
  82              		@ args = 0, pretend = 0, frame = 0
  83              		@ frame_needed = 0, uses_anonymous_args = 0
  84              		@ link register save eliminated.
  85              	.LVL4:
  70:D:/Work/DeviceTester/amazon-freertos/lib/third_party/mbedtls/library\platform.c ****     mbedtls_calloc_func = calloc_func;
  86              		.loc 1 70 0
  87 0000 10309FE5 		ldr	r3, .L8
  88 0004 000083E5 		str	r0, [r3]
  71:D:/Work/DeviceTester/amazon-freertos/lib/third_party/mbedtls/library\platform.c ****     mbedtls_free_func = free_func;
  72:D:/Work/DeviceTester/amazon-freertos/lib/third_party/mbedtls/library\platform.c ****     return( 0 );
  73:D:/Work/DeviceTester/amazon-freertos/lib/third_party/mbedtls/library\platform.c **** }
  89              		.loc 1 73 0
  90 0008 0000A0E3 		mov	r0, #0
  91              	.LVL5:
  71:D:/Work/DeviceTester/amazon-freertos/lib/third_party/mbedtls/library\platform.c ****     mbedtls_free_func = free_func;
  92              		.loc 1 71 0
  93 000c 08309FE5 		ldr	r3, .L8+4
  94 0010 001083E5 		str	r1, [r3]
  95              		.loc 1 73 0
  96 0014 1EFF2FE1 		bx	lr
  97              	.L9:
  98              		.align	2
  99              	.L8:
 100 0018 00000000 		.word	.LANCHOR0
 101 001c 00000000 		.word	.LANCHOR1
 102              		.cfi_endproc
 103              	.LFE3:
 105              		.section	.text.mbedtls_platform_setup,"ax",%progbits
 106              		.align	2
 107              		.global	mbedtls_platform_setup
 108              		.syntax unified
 109              		.arm
 110              		.fpu neon
 112              	mbedtls_platform_setup:
 113              	.LFB4:
  74:D:/Work/DeviceTester/amazon-freertos/lib/third_party/mbedtls/library\platform.c **** #endif /* MBEDTLS_PLATFORM_MEMORY */
  75:D:/Work/DeviceTester/amazon-freertos/lib/third_party/mbedtls/library\platform.c **** 
  76:D:/Work/DeviceTester/amazon-freertos/lib/third_party/mbedtls/library\platform.c **** #if defined(_WIN32)
  77:D:/Work/DeviceTester/amazon-freertos/lib/third_party/mbedtls/library\platform.c **** #include <stdarg.h>
  78:D:/Work/DeviceTester/amazon-freertos/lib/third_party/mbedtls/library\platform.c **** int mbedtls_platform_win32_snprintf( char *s, size_t n, const char *fmt, ... )
  79:D:/Work/DeviceTester/amazon-freertos/lib/third_party/mbedtls/library\platform.c **** {
  80:D:/Work/DeviceTester/amazon-freertos/lib/third_party/mbedtls/library\platform.c ****     int ret;
  81:D:/Work/DeviceTester/amazon-freertos/lib/third_party/mbedtls/library\platform.c ****     va_list argp;
  82:D:/Work/DeviceTester/amazon-freertos/lib/third_party/mbedtls/library\platform.c **** 
  83:D:/Work/DeviceTester/amazon-freertos/lib/third_party/mbedtls/library\platform.c ****     /* Avoid calling the invalid parameter handler by checking ourselves */
  84:D:/Work/DeviceTester/amazon-freertos/lib/third_party/mbedtls/library\platform.c ****     if( s == NULL || n == 0 || fmt == NULL )
  85:D:/Work/DeviceTester/amazon-freertos/lib/third_party/mbedtls/library\platform.c ****         return( -1 );
  86:D:/Work/DeviceTester/amazon-freertos/lib/third_party/mbedtls/library\platform.c **** 
  87:D:/Work/DeviceTester/amazon-freertos/lib/third_party/mbedtls/library\platform.c ****     va_start( argp, fmt );
  88:D:/Work/DeviceTester/amazon-freertos/lib/third_party/mbedtls/library\platform.c **** #if defined(_TRUNCATE) && !defined(__MINGW32__)
  89:D:/Work/DeviceTester/amazon-freertos/lib/third_party/mbedtls/library\platform.c ****     ret = _vsnprintf_s( s, n, _TRUNCATE, fmt, argp );
  90:D:/Work/DeviceTester/amazon-freertos/lib/third_party/mbedtls/library\platform.c **** #else
  91:D:/Work/DeviceTester/amazon-freertos/lib/third_party/mbedtls/library\platform.c ****     ret = _vsnprintf( s, n, fmt, argp );
  92:D:/Work/DeviceTester/amazon-freertos/lib/third_party/mbedtls/library\platform.c ****     if( ret < 0 || (size_t) ret == n )
  93:D:/Work/DeviceTester/amazon-freertos/lib/third_party/mbedtls/library\platform.c ****     {
  94:D:/Work/DeviceTester/amazon-freertos/lib/third_party/mbedtls/library\platform.c ****         s[n-1] = '\0';
  95:D:/Work/DeviceTester/amazon-freertos/lib/third_party/mbedtls/library\platform.c ****         ret = -1;
  96:D:/Work/DeviceTester/amazon-freertos/lib/third_party/mbedtls/library\platform.c ****     }
  97:D:/Work/DeviceTester/amazon-freertos/lib/third_party/mbedtls/library\platform.c **** #endif
  98:D:/Work/DeviceTester/amazon-freertos/lib/third_party/mbedtls/library\platform.c ****     va_end( argp );
  99:D:/Work/DeviceTester/amazon-freertos/lib/third_party/mbedtls/library\platform.c **** 
 100:D:/Work/DeviceTester/amazon-freertos/lib/third_party/mbedtls/library\platform.c ****     return( ret );
 101:D:/Work/DeviceTester/amazon-freertos/lib/third_party/mbedtls/library\platform.c **** }
 102:D:/Work/DeviceTester/amazon-freertos/lib/third_party/mbedtls/library\platform.c **** #endif
 103:D:/Work/DeviceTester/amazon-freertos/lib/third_party/mbedtls/library\platform.c **** 
 104:D:/Work/DeviceTester/amazon-freertos/lib/third_party/mbedtls/library\platform.c **** #if defined(MBEDTLS_PLATFORM_SNPRINTF_ALT)
 105:D:/Work/DeviceTester/amazon-freertos/lib/third_party/mbedtls/library\platform.c **** #if !defined(MBEDTLS_PLATFORM_STD_SNPRINTF)
 106:D:/Work/DeviceTester/amazon-freertos/lib/third_party/mbedtls/library\platform.c **** /*
 107:D:/Work/DeviceTester/amazon-freertos/lib/third_party/mbedtls/library\platform.c ****  * Make dummy function to prevent NULL pointer dereferences
 108:D:/Work/DeviceTester/amazon-freertos/lib/third_party/mbedtls/library\platform.c ****  */
 109:D:/Work/DeviceTester/amazon-freertos/lib/third_party/mbedtls/library\platform.c **** static int platform_snprintf_uninit( char * s, size_t n,
 110:D:/Work/DeviceTester/amazon-freertos/lib/third_party/mbedtls/library\platform.c ****                                      const char * format, ... )
 111:D:/Work/DeviceTester/amazon-freertos/lib/third_party/mbedtls/library\platform.c **** {
 112:D:/Work/DeviceTester/amazon-freertos/lib/third_party/mbedtls/library\platform.c ****     ((void) s);
 113:D:/Work/DeviceTester/amazon-freertos/lib/third_party/mbedtls/library\platform.c ****     ((void) n);
 114:D:/Work/DeviceTester/amazon-freertos/lib/third_party/mbedtls/library\platform.c ****     ((void) format);
 115:D:/Work/DeviceTester/amazon-freertos/lib/third_party/mbedtls/library\platform.c ****     return( 0 );
 116:D:/Work/DeviceTester/amazon-freertos/lib/third_party/mbedtls/library\platform.c **** }
 117:D:/Work/DeviceTester/amazon-freertos/lib/third_party/mbedtls/library\platform.c **** 
 118:D:/Work/DeviceTester/amazon-freertos/lib/third_party/mbedtls/library\platform.c **** #define MBEDTLS_PLATFORM_STD_SNPRINTF    platform_snprintf_uninit
 119:D:/Work/DeviceTester/amazon-freertos/lib/third_party/mbedtls/library\platform.c **** #endif /* !MBEDTLS_PLATFORM_STD_SNPRINTF */
 120:D:/Work/DeviceTester/amazon-freertos/lib/third_party/mbedtls/library\platform.c **** 
 121:D:/Work/DeviceTester/amazon-freertos/lib/third_party/mbedtls/library\platform.c **** int (*mbedtls_snprintf)( char * s, size_t n,
 122:D:/Work/DeviceTester/amazon-freertos/lib/third_party/mbedtls/library\platform.c ****                           const char * format,
 123:D:/Work/DeviceTester/amazon-freertos/lib/third_party/mbedtls/library\platform.c ****                           ... ) = MBEDTLS_PLATFORM_STD_SNPRINTF;
 124:D:/Work/DeviceTester/amazon-freertos/lib/third_party/mbedtls/library\platform.c **** 
 125:D:/Work/DeviceTester/amazon-freertos/lib/third_party/mbedtls/library\platform.c **** int mbedtls_platform_set_snprintf( int (*snprintf_func)( char * s, size_t n,
 126:D:/Work/DeviceTester/amazon-freertos/lib/third_party/mbedtls/library\platform.c ****                                                  const char * format,
 127:D:/Work/DeviceTester/amazon-freertos/lib/third_party/mbedtls/library\platform.c ****                                                  ... ) )
 128:D:/Work/DeviceTester/amazon-freertos/lib/third_party/mbedtls/library\platform.c **** {
 129:D:/Work/DeviceTester/amazon-freertos/lib/third_party/mbedtls/library\platform.c ****     mbedtls_snprintf = snprintf_func;
 130:D:/Work/DeviceTester/amazon-freertos/lib/third_party/mbedtls/library\platform.c ****     return( 0 );
 131:D:/Work/DeviceTester/amazon-freertos/lib/third_party/mbedtls/library\platform.c **** }
 132:D:/Work/DeviceTester/amazon-freertos/lib/third_party/mbedtls/library\platform.c **** #endif /* MBEDTLS_PLATFORM_SNPRINTF_ALT */
 133:D:/Work/DeviceTester/amazon-freertos/lib/third_party/mbedtls/library\platform.c **** 
 134:D:/Work/DeviceTester/amazon-freertos/lib/third_party/mbedtls/library\platform.c **** #if defined(MBEDTLS_PLATFORM_PRINTF_ALT)
 135:D:/Work/DeviceTester/amazon-freertos/lib/third_party/mbedtls/library\platform.c **** #if !defined(MBEDTLS_PLATFORM_STD_PRINTF)
 136:D:/Work/DeviceTester/amazon-freertos/lib/third_party/mbedtls/library\platform.c **** /*
 137:D:/Work/DeviceTester/amazon-freertos/lib/third_party/mbedtls/library\platform.c ****  * Make dummy function to prevent NULL pointer dereferences
 138:D:/Work/DeviceTester/amazon-freertos/lib/third_party/mbedtls/library\platform.c ****  */
 139:D:/Work/DeviceTester/amazon-freertos/lib/third_party/mbedtls/library\platform.c **** static int platform_printf_uninit( const char *format, ... )
 140:D:/Work/DeviceTester/amazon-freertos/lib/third_party/mbedtls/library\platform.c **** {
 141:D:/Work/DeviceTester/amazon-freertos/lib/third_party/mbedtls/library\platform.c ****     ((void) format);
 142:D:/Work/DeviceTester/amazon-freertos/lib/third_party/mbedtls/library\platform.c ****     return( 0 );
 143:D:/Work/DeviceTester/amazon-freertos/lib/third_party/mbedtls/library\platform.c **** }
 144:D:/Work/DeviceTester/amazon-freertos/lib/third_party/mbedtls/library\platform.c **** 
 145:D:/Work/DeviceTester/amazon-freertos/lib/third_party/mbedtls/library\platform.c **** #define MBEDTLS_PLATFORM_STD_PRINTF    platform_printf_uninit
 146:D:/Work/DeviceTester/amazon-freertos/lib/third_party/mbedtls/library\platform.c **** #endif /* !MBEDTLS_PLATFORM_STD_PRINTF */
 147:D:/Work/DeviceTester/amazon-freertos/lib/third_party/mbedtls/library\platform.c **** 
 148:D:/Work/DeviceTester/amazon-freertos/lib/third_party/mbedtls/library\platform.c **** int (*mbedtls_printf)( const char *, ... ) = MBEDTLS_PLATFORM_STD_PRINTF;
 149:D:/Work/DeviceTester/amazon-freertos/lib/third_party/mbedtls/library\platform.c **** 
 150:D:/Work/DeviceTester/amazon-freertos/lib/third_party/mbedtls/library\platform.c **** int mbedtls_platform_set_printf( int (*printf_func)( const char *, ... ) )
 151:D:/Work/DeviceTester/amazon-freertos/lib/third_party/mbedtls/library\platform.c **** {
 152:D:/Work/DeviceTester/amazon-freertos/lib/third_party/mbedtls/library\platform.c ****     mbedtls_printf = printf_func;
 153:D:/Work/DeviceTester/amazon-freertos/lib/third_party/mbedtls/library\platform.c ****     return( 0 );
 154:D:/Work/DeviceTester/amazon-freertos/lib/third_party/mbedtls/library\platform.c **** }
 155:D:/Work/DeviceTester/amazon-freertos/lib/third_party/mbedtls/library\platform.c **** #endif /* MBEDTLS_PLATFORM_PRINTF_ALT */
 156:D:/Work/DeviceTester/amazon-freertos/lib/third_party/mbedtls/library\platform.c **** 
 157:D:/Work/DeviceTester/amazon-freertos/lib/third_party/mbedtls/library\platform.c **** #if defined(MBEDTLS_PLATFORM_FPRINTF_ALT)
 158:D:/Work/DeviceTester/amazon-freertos/lib/third_party/mbedtls/library\platform.c **** #if !defined(MBEDTLS_PLATFORM_STD_FPRINTF)
 159:D:/Work/DeviceTester/amazon-freertos/lib/third_party/mbedtls/library\platform.c **** /*
 160:D:/Work/DeviceTester/amazon-freertos/lib/third_party/mbedtls/library\platform.c ****  * Make dummy function to prevent NULL pointer dereferences
 161:D:/Work/DeviceTester/amazon-freertos/lib/third_party/mbedtls/library\platform.c ****  */
 162:D:/Work/DeviceTester/amazon-freertos/lib/third_party/mbedtls/library\platform.c **** static int platform_fprintf_uninit( FILE *stream, const char *format, ... )
 163:D:/Work/DeviceTester/amazon-freertos/lib/third_party/mbedtls/library\platform.c **** {
 164:D:/Work/DeviceTester/amazon-freertos/lib/third_party/mbedtls/library\platform.c ****     ((void) stream);
 165:D:/Work/DeviceTester/amazon-freertos/lib/third_party/mbedtls/library\platform.c ****     ((void) format);
 166:D:/Work/DeviceTester/amazon-freertos/lib/third_party/mbedtls/library\platform.c ****     return( 0 );
 167:D:/Work/DeviceTester/amazon-freertos/lib/third_party/mbedtls/library\platform.c **** }
 168:D:/Work/DeviceTester/amazon-freertos/lib/third_party/mbedtls/library\platform.c **** 
 169:D:/Work/DeviceTester/amazon-freertos/lib/third_party/mbedtls/library\platform.c **** #define MBEDTLS_PLATFORM_STD_FPRINTF   platform_fprintf_uninit
 170:D:/Work/DeviceTester/amazon-freertos/lib/third_party/mbedtls/library\platform.c **** #endif /* !MBEDTLS_PLATFORM_STD_FPRINTF */
 171:D:/Work/DeviceTester/amazon-freertos/lib/third_party/mbedtls/library\platform.c **** 
 172:D:/Work/DeviceTester/amazon-freertos/lib/third_party/mbedtls/library\platform.c **** int (*mbedtls_fprintf)( FILE *, const char *, ... ) =
 173:D:/Work/DeviceTester/amazon-freertos/lib/third_party/mbedtls/library\platform.c ****                                         MBEDTLS_PLATFORM_STD_FPRINTF;
 174:D:/Work/DeviceTester/amazon-freertos/lib/third_party/mbedtls/library\platform.c **** 
 175:D:/Work/DeviceTester/amazon-freertos/lib/third_party/mbedtls/library\platform.c **** int mbedtls_platform_set_fprintf( int (*fprintf_func)( FILE *, const char *, ... ) )
 176:D:/Work/DeviceTester/amazon-freertos/lib/third_party/mbedtls/library\platform.c **** {
 177:D:/Work/DeviceTester/amazon-freertos/lib/third_party/mbedtls/library\platform.c ****     mbedtls_fprintf = fprintf_func;
 178:D:/Work/DeviceTester/amazon-freertos/lib/third_party/mbedtls/library\platform.c ****     return( 0 );
 179:D:/Work/DeviceTester/amazon-freertos/lib/third_party/mbedtls/library\platform.c **** }
 180:D:/Work/DeviceTester/amazon-freertos/lib/third_party/mbedtls/library\platform.c **** #endif /* MBEDTLS_PLATFORM_FPRINTF_ALT */
 181:D:/Work/DeviceTester/amazon-freertos/lib/third_party/mbedtls/library\platform.c **** 
 182:D:/Work/DeviceTester/amazon-freertos/lib/third_party/mbedtls/library\platform.c **** #if defined(MBEDTLS_PLATFORM_EXIT_ALT)
 183:D:/Work/DeviceTester/amazon-freertos/lib/third_party/mbedtls/library\platform.c **** #if !defined(MBEDTLS_PLATFORM_STD_EXIT)
 184:D:/Work/DeviceTester/amazon-freertos/lib/third_party/mbedtls/library\platform.c **** /*
 185:D:/Work/DeviceTester/amazon-freertos/lib/third_party/mbedtls/library\platform.c ****  * Make dummy function to prevent NULL pointer dereferences
 186:D:/Work/DeviceTester/amazon-freertos/lib/third_party/mbedtls/library\platform.c ****  */
 187:D:/Work/DeviceTester/amazon-freertos/lib/third_party/mbedtls/library\platform.c **** static void platform_exit_uninit( int status )
 188:D:/Work/DeviceTester/amazon-freertos/lib/third_party/mbedtls/library\platform.c **** {
 189:D:/Work/DeviceTester/amazon-freertos/lib/third_party/mbedtls/library\platform.c ****     ((void) status);
 190:D:/Work/DeviceTester/amazon-freertos/lib/third_party/mbedtls/library\platform.c **** }
 191:D:/Work/DeviceTester/amazon-freertos/lib/third_party/mbedtls/library\platform.c **** 
 192:D:/Work/DeviceTester/amazon-freertos/lib/third_party/mbedtls/library\platform.c **** #define MBEDTLS_PLATFORM_STD_EXIT   platform_exit_uninit
 193:D:/Work/DeviceTester/amazon-freertos/lib/third_party/mbedtls/library\platform.c **** #endif /* !MBEDTLS_PLATFORM_STD_EXIT */
 194:D:/Work/DeviceTester/amazon-freertos/lib/third_party/mbedtls/library\platform.c **** 
 195:D:/Work/DeviceTester/amazon-freertos/lib/third_party/mbedtls/library\platform.c **** void (*mbedtls_exit)( int status ) = MBEDTLS_PLATFORM_STD_EXIT;
 196:D:/Work/DeviceTester/amazon-freertos/lib/third_party/mbedtls/library\platform.c **** 
 197:D:/Work/DeviceTester/amazon-freertos/lib/third_party/mbedtls/library\platform.c **** int mbedtls_platform_set_exit( void (*exit_func)( int status ) )
 198:D:/Work/DeviceTester/amazon-freertos/lib/third_party/mbedtls/library\platform.c **** {
 199:D:/Work/DeviceTester/amazon-freertos/lib/third_party/mbedtls/library\platform.c ****     mbedtls_exit = exit_func;
 200:D:/Work/DeviceTester/amazon-freertos/lib/third_party/mbedtls/library\platform.c ****     return( 0 );
 201:D:/Work/DeviceTester/amazon-freertos/lib/third_party/mbedtls/library\platform.c **** }
 202:D:/Work/DeviceTester/amazon-freertos/lib/third_party/mbedtls/library\platform.c **** #endif /* MBEDTLS_PLATFORM_EXIT_ALT */
 203:D:/Work/DeviceTester/amazon-freertos/lib/third_party/mbedtls/library\platform.c **** 
 204:D:/Work/DeviceTester/amazon-freertos/lib/third_party/mbedtls/library\platform.c **** #if defined(MBEDTLS_HAVE_TIME)
 205:D:/Work/DeviceTester/amazon-freertos/lib/third_party/mbedtls/library\platform.c **** 
 206:D:/Work/DeviceTester/amazon-freertos/lib/third_party/mbedtls/library\platform.c **** #if defined(MBEDTLS_PLATFORM_TIME_ALT)
 207:D:/Work/DeviceTester/amazon-freertos/lib/third_party/mbedtls/library\platform.c **** #if !defined(MBEDTLS_PLATFORM_STD_TIME)
 208:D:/Work/DeviceTester/amazon-freertos/lib/third_party/mbedtls/library\platform.c **** /*
 209:D:/Work/DeviceTester/amazon-freertos/lib/third_party/mbedtls/library\platform.c ****  * Make dummy function to prevent NULL pointer dereferences
 210:D:/Work/DeviceTester/amazon-freertos/lib/third_party/mbedtls/library\platform.c ****  */
 211:D:/Work/DeviceTester/amazon-freertos/lib/third_party/mbedtls/library\platform.c **** static mbedtls_time_t platform_time_uninit( mbedtls_time_t* timer )
 212:D:/Work/DeviceTester/amazon-freertos/lib/third_party/mbedtls/library\platform.c **** {
 213:D:/Work/DeviceTester/amazon-freertos/lib/third_party/mbedtls/library\platform.c ****     ((void) timer);
 214:D:/Work/DeviceTester/amazon-freertos/lib/third_party/mbedtls/library\platform.c ****     return( 0 );
 215:D:/Work/DeviceTester/amazon-freertos/lib/third_party/mbedtls/library\platform.c **** }
 216:D:/Work/DeviceTester/amazon-freertos/lib/third_party/mbedtls/library\platform.c **** 
 217:D:/Work/DeviceTester/amazon-freertos/lib/third_party/mbedtls/library\platform.c **** #define MBEDTLS_PLATFORM_STD_TIME   platform_time_uninit
 218:D:/Work/DeviceTester/amazon-freertos/lib/third_party/mbedtls/library\platform.c **** #endif /* !MBEDTLS_PLATFORM_STD_TIME */
 219:D:/Work/DeviceTester/amazon-freertos/lib/third_party/mbedtls/library\platform.c **** 
 220:D:/Work/DeviceTester/amazon-freertos/lib/third_party/mbedtls/library\platform.c **** mbedtls_time_t (*mbedtls_time)( mbedtls_time_t* timer ) = MBEDTLS_PLATFORM_STD_TIME;
 221:D:/Work/DeviceTester/amazon-freertos/lib/third_party/mbedtls/library\platform.c **** 
 222:D:/Work/DeviceTester/amazon-freertos/lib/third_party/mbedtls/library\platform.c **** int mbedtls_platform_set_time( mbedtls_time_t (*time_func)( mbedtls_time_t* timer ) )
 223:D:/Work/DeviceTester/amazon-freertos/lib/third_party/mbedtls/library\platform.c **** {
 224:D:/Work/DeviceTester/amazon-freertos/lib/third_party/mbedtls/library\platform.c ****     mbedtls_time = time_func;
 225:D:/Work/DeviceTester/amazon-freertos/lib/third_party/mbedtls/library\platform.c ****     return( 0 );
 226:D:/Work/DeviceTester/amazon-freertos/lib/third_party/mbedtls/library\platform.c **** }
 227:D:/Work/DeviceTester/amazon-freertos/lib/third_party/mbedtls/library\platform.c **** #endif /* MBEDTLS_PLATFORM_TIME_ALT */
 228:D:/Work/DeviceTester/amazon-freertos/lib/third_party/mbedtls/library\platform.c **** 
 229:D:/Work/DeviceTester/amazon-freertos/lib/third_party/mbedtls/library\platform.c **** #endif /* MBEDTLS_HAVE_TIME */
 230:D:/Work/DeviceTester/amazon-freertos/lib/third_party/mbedtls/library\platform.c **** 
 231:D:/Work/DeviceTester/amazon-freertos/lib/third_party/mbedtls/library\platform.c **** #if defined(MBEDTLS_ENTROPY_NV_SEED)
 232:D:/Work/DeviceTester/amazon-freertos/lib/third_party/mbedtls/library\platform.c **** #if !defined(MBEDTLS_PLATFORM_NO_STD_FUNCTIONS) && defined(MBEDTLS_FS_IO)
 233:D:/Work/DeviceTester/amazon-freertos/lib/third_party/mbedtls/library\platform.c **** /* Default implementations for the platform independent seed functions use
 234:D:/Work/DeviceTester/amazon-freertos/lib/third_party/mbedtls/library\platform.c ****  * standard libc file functions to read from and write to a pre-defined filename
 235:D:/Work/DeviceTester/amazon-freertos/lib/third_party/mbedtls/library\platform.c ****  */
 236:D:/Work/DeviceTester/amazon-freertos/lib/third_party/mbedtls/library\platform.c **** int mbedtls_platform_std_nv_seed_read( unsigned char *buf, size_t buf_len )
 237:D:/Work/DeviceTester/amazon-freertos/lib/third_party/mbedtls/library\platform.c **** {
 238:D:/Work/DeviceTester/amazon-freertos/lib/third_party/mbedtls/library\platform.c ****     FILE *file;
 239:D:/Work/DeviceTester/amazon-freertos/lib/third_party/mbedtls/library\platform.c ****     size_t n;
 240:D:/Work/DeviceTester/amazon-freertos/lib/third_party/mbedtls/library\platform.c **** 
 241:D:/Work/DeviceTester/amazon-freertos/lib/third_party/mbedtls/library\platform.c ****     if( ( file = fopen( MBEDTLS_PLATFORM_STD_NV_SEED_FILE, "rb" ) ) == NULL )
 242:D:/Work/DeviceTester/amazon-freertos/lib/third_party/mbedtls/library\platform.c ****         return( -1 );
 243:D:/Work/DeviceTester/amazon-freertos/lib/third_party/mbedtls/library\platform.c **** 
 244:D:/Work/DeviceTester/amazon-freertos/lib/third_party/mbedtls/library\platform.c ****     if( ( n = fread( buf, 1, buf_len, file ) ) != buf_len )
 245:D:/Work/DeviceTester/amazon-freertos/lib/third_party/mbedtls/library\platform.c ****     {
 246:D:/Work/DeviceTester/amazon-freertos/lib/third_party/mbedtls/library\platform.c ****         fclose( file );
 247:D:/Work/DeviceTester/amazon-freertos/lib/third_party/mbedtls/library\platform.c ****         mbedtls_platform_zeroize( buf, buf_len );
 248:D:/Work/DeviceTester/amazon-freertos/lib/third_party/mbedtls/library\platform.c ****         return( -1 );
 249:D:/Work/DeviceTester/amazon-freertos/lib/third_party/mbedtls/library\platform.c ****     }
 250:D:/Work/DeviceTester/amazon-freertos/lib/third_party/mbedtls/library\platform.c **** 
 251:D:/Work/DeviceTester/amazon-freertos/lib/third_party/mbedtls/library\platform.c ****     fclose( file );
 252:D:/Work/DeviceTester/amazon-freertos/lib/third_party/mbedtls/library\platform.c ****     return( (int)n );
 253:D:/Work/DeviceTester/amazon-freertos/lib/third_party/mbedtls/library\platform.c **** }
 254:D:/Work/DeviceTester/amazon-freertos/lib/third_party/mbedtls/library\platform.c **** 
 255:D:/Work/DeviceTester/amazon-freertos/lib/third_party/mbedtls/library\platform.c **** int mbedtls_platform_std_nv_seed_write( unsigned char *buf, size_t buf_len )
 256:D:/Work/DeviceTester/amazon-freertos/lib/third_party/mbedtls/library\platform.c **** {
 257:D:/Work/DeviceTester/amazon-freertos/lib/third_party/mbedtls/library\platform.c ****     FILE *file;
 258:D:/Work/DeviceTester/amazon-freertos/lib/third_party/mbedtls/library\platform.c ****     size_t n;
 259:D:/Work/DeviceTester/amazon-freertos/lib/third_party/mbedtls/library\platform.c **** 
 260:D:/Work/DeviceTester/amazon-freertos/lib/third_party/mbedtls/library\platform.c ****     if( ( file = fopen( MBEDTLS_PLATFORM_STD_NV_SEED_FILE, "w" ) ) == NULL )
 261:D:/Work/DeviceTester/amazon-freertos/lib/third_party/mbedtls/library\platform.c ****         return -1;
 262:D:/Work/DeviceTester/amazon-freertos/lib/third_party/mbedtls/library\platform.c **** 
 263:D:/Work/DeviceTester/amazon-freertos/lib/third_party/mbedtls/library\platform.c ****     if( ( n = fwrite( buf, 1, buf_len, file ) ) != buf_len )
 264:D:/Work/DeviceTester/amazon-freertos/lib/third_party/mbedtls/library\platform.c ****     {
 265:D:/Work/DeviceTester/amazon-freertos/lib/third_party/mbedtls/library\platform.c ****         fclose( file );
 266:D:/Work/DeviceTester/amazon-freertos/lib/third_party/mbedtls/library\platform.c ****         return -1;
 267:D:/Work/DeviceTester/amazon-freertos/lib/third_party/mbedtls/library\platform.c ****     }
 268:D:/Work/DeviceTester/amazon-freertos/lib/third_party/mbedtls/library\platform.c **** 
 269:D:/Work/DeviceTester/amazon-freertos/lib/third_party/mbedtls/library\platform.c ****     fclose( file );
 270:D:/Work/DeviceTester/amazon-freertos/lib/third_party/mbedtls/library\platform.c ****     return( (int)n );
 271:D:/Work/DeviceTester/amazon-freertos/lib/third_party/mbedtls/library\platform.c **** }
 272:D:/Work/DeviceTester/amazon-freertos/lib/third_party/mbedtls/library\platform.c **** #endif /* MBEDTLS_PLATFORM_NO_STD_FUNCTIONS */
 273:D:/Work/DeviceTester/amazon-freertos/lib/third_party/mbedtls/library\platform.c **** 
 274:D:/Work/DeviceTester/amazon-freertos/lib/third_party/mbedtls/library\platform.c **** #if defined(MBEDTLS_PLATFORM_NV_SEED_ALT)
 275:D:/Work/DeviceTester/amazon-freertos/lib/third_party/mbedtls/library\platform.c **** #if !defined(MBEDTLS_PLATFORM_STD_NV_SEED_READ)
 276:D:/Work/DeviceTester/amazon-freertos/lib/third_party/mbedtls/library\platform.c **** /*
 277:D:/Work/DeviceTester/amazon-freertos/lib/third_party/mbedtls/library\platform.c ****  * Make dummy function to prevent NULL pointer dereferences
 278:D:/Work/DeviceTester/amazon-freertos/lib/third_party/mbedtls/library\platform.c ****  */
 279:D:/Work/DeviceTester/amazon-freertos/lib/third_party/mbedtls/library\platform.c **** static int platform_nv_seed_read_uninit( unsigned char *buf, size_t buf_len )
 280:D:/Work/DeviceTester/amazon-freertos/lib/third_party/mbedtls/library\platform.c **** {
 281:D:/Work/DeviceTester/amazon-freertos/lib/third_party/mbedtls/library\platform.c ****     ((void) buf);
 282:D:/Work/DeviceTester/amazon-freertos/lib/third_party/mbedtls/library\platform.c ****     ((void) buf_len);
 283:D:/Work/DeviceTester/amazon-freertos/lib/third_party/mbedtls/library\platform.c ****     return( -1 );
 284:D:/Work/DeviceTester/amazon-freertos/lib/third_party/mbedtls/library\platform.c **** }
 285:D:/Work/DeviceTester/amazon-freertos/lib/third_party/mbedtls/library\platform.c **** 
 286:D:/Work/DeviceTester/amazon-freertos/lib/third_party/mbedtls/library\platform.c **** #define MBEDTLS_PLATFORM_STD_NV_SEED_READ   platform_nv_seed_read_uninit
 287:D:/Work/DeviceTester/amazon-freertos/lib/third_party/mbedtls/library\platform.c **** #endif /* !MBEDTLS_PLATFORM_STD_NV_SEED_READ */
 288:D:/Work/DeviceTester/amazon-freertos/lib/third_party/mbedtls/library\platform.c **** 
 289:D:/Work/DeviceTester/amazon-freertos/lib/third_party/mbedtls/library\platform.c **** #if !defined(MBEDTLS_PLATFORM_STD_NV_SEED_WRITE)
 290:D:/Work/DeviceTester/amazon-freertos/lib/third_party/mbedtls/library\platform.c **** /*
 291:D:/Work/DeviceTester/amazon-freertos/lib/third_party/mbedtls/library\platform.c ****  * Make dummy function to prevent NULL pointer dereferences
 292:D:/Work/DeviceTester/amazon-freertos/lib/third_party/mbedtls/library\platform.c ****  */
 293:D:/Work/DeviceTester/amazon-freertos/lib/third_party/mbedtls/library\platform.c **** static int platform_nv_seed_write_uninit( unsigned char *buf, size_t buf_len )
 294:D:/Work/DeviceTester/amazon-freertos/lib/third_party/mbedtls/library\platform.c **** {
 295:D:/Work/DeviceTester/amazon-freertos/lib/third_party/mbedtls/library\platform.c ****     ((void) buf);
 296:D:/Work/DeviceTester/amazon-freertos/lib/third_party/mbedtls/library\platform.c ****     ((void) buf_len);
 297:D:/Work/DeviceTester/amazon-freertos/lib/third_party/mbedtls/library\platform.c ****     return( -1 );
 298:D:/Work/DeviceTester/amazon-freertos/lib/third_party/mbedtls/library\platform.c **** }
 299:D:/Work/DeviceTester/amazon-freertos/lib/third_party/mbedtls/library\platform.c **** 
 300:D:/Work/DeviceTester/amazon-freertos/lib/third_party/mbedtls/library\platform.c **** #define MBEDTLS_PLATFORM_STD_NV_SEED_WRITE   platform_nv_seed_write_uninit
 301:D:/Work/DeviceTester/amazon-freertos/lib/third_party/mbedtls/library\platform.c **** #endif /* !MBEDTLS_PLATFORM_STD_NV_SEED_WRITE */
 302:D:/Work/DeviceTester/amazon-freertos/lib/third_party/mbedtls/library\platform.c **** 
 303:D:/Work/DeviceTester/amazon-freertos/lib/third_party/mbedtls/library\platform.c **** int (*mbedtls_nv_seed_read)( unsigned char *buf, size_t buf_len ) =
 304:D:/Work/DeviceTester/amazon-freertos/lib/third_party/mbedtls/library\platform.c ****             MBEDTLS_PLATFORM_STD_NV_SEED_READ;
 305:D:/Work/DeviceTester/amazon-freertos/lib/third_party/mbedtls/library\platform.c **** int (*mbedtls_nv_seed_write)( unsigned char *buf, size_t buf_len ) =
 306:D:/Work/DeviceTester/amazon-freertos/lib/third_party/mbedtls/library\platform.c ****             MBEDTLS_PLATFORM_STD_NV_SEED_WRITE;
 307:D:/Work/DeviceTester/amazon-freertos/lib/third_party/mbedtls/library\platform.c **** 
 308:D:/Work/DeviceTester/amazon-freertos/lib/third_party/mbedtls/library\platform.c **** int mbedtls_platform_set_nv_seed(
 309:D:/Work/DeviceTester/amazon-freertos/lib/third_party/mbedtls/library\platform.c ****         int (*nv_seed_read_func)( unsigned char *buf, size_t buf_len ),
 310:D:/Work/DeviceTester/amazon-freertos/lib/third_party/mbedtls/library\platform.c ****         int (*nv_seed_write_func)( unsigned char *buf, size_t buf_len ) )
 311:D:/Work/DeviceTester/amazon-freertos/lib/third_party/mbedtls/library\platform.c **** {
 312:D:/Work/DeviceTester/amazon-freertos/lib/third_party/mbedtls/library\platform.c ****     mbedtls_nv_seed_read = nv_seed_read_func;
 313:D:/Work/DeviceTester/amazon-freertos/lib/third_party/mbedtls/library\platform.c ****     mbedtls_nv_seed_write = nv_seed_write_func;
 314:D:/Work/DeviceTester/amazon-freertos/lib/third_party/mbedtls/library\platform.c ****     return( 0 );
 315:D:/Work/DeviceTester/amazon-freertos/lib/third_party/mbedtls/library\platform.c **** }
 316:D:/Work/DeviceTester/amazon-freertos/lib/third_party/mbedtls/library\platform.c **** #endif /* MBEDTLS_PLATFORM_NV_SEED_ALT */
 317:D:/Work/DeviceTester/amazon-freertos/lib/third_party/mbedtls/library\platform.c **** #endif /* MBEDTLS_ENTROPY_NV_SEED */
 318:D:/Work/DeviceTester/amazon-freertos/lib/third_party/mbedtls/library\platform.c **** 
 319:D:/Work/DeviceTester/amazon-freertos/lib/third_party/mbedtls/library\platform.c **** #if !defined(MBEDTLS_PLATFORM_SETUP_TEARDOWN_ALT)
 320:D:/Work/DeviceTester/amazon-freertos/lib/third_party/mbedtls/library\platform.c **** /*
 321:D:/Work/DeviceTester/amazon-freertos/lib/third_party/mbedtls/library\platform.c ****  * Placeholder platform setup that does nothing by default
 322:D:/Work/DeviceTester/amazon-freertos/lib/third_party/mbedtls/library\platform.c ****  */
 323:D:/Work/DeviceTester/amazon-freertos/lib/third_party/mbedtls/library\platform.c **** int mbedtls_platform_setup( mbedtls_platform_context *ctx )
 324:D:/Work/DeviceTester/amazon-freertos/lib/third_party/mbedtls/library\platform.c **** {
 114              		.loc 1 324 0
 115              		.cfi_startproc
 116              		@ args = 0, pretend = 0, frame = 0
 117              		@ frame_needed = 0, uses_anonymous_args = 0
 118              		@ link register save eliminated.
 119              	.LVL6:
 325:D:/Work/DeviceTester/amazon-freertos/lib/third_party/mbedtls/library\platform.c ****     (void)ctx;
 326:D:/Work/DeviceTester/amazon-freertos/lib/third_party/mbedtls/library\platform.c **** 
 327:D:/Work/DeviceTester/amazon-freertos/lib/third_party/mbedtls/library\platform.c ****     return( 0 );
 328:D:/Work/DeviceTester/amazon-freertos/lib/third_party/mbedtls/library\platform.c **** }
 120              		.loc 1 328 0
 121 0000 0000A0E3 		mov	r0, #0
 122              	.LVL7:
 123 0004 1EFF2FE1 		bx	lr
 124              		.cfi_endproc
 125              	.LFE4:
 127              		.section	.text.mbedtls_platform_teardown,"ax",%progbits
 128              		.align	2
 129              		.global	mbedtls_platform_teardown
 130              		.syntax unified
 131              		.arm
 132              		.fpu neon
 134              	mbedtls_platform_teardown:
 135              	.LFB5:
 329:D:/Work/DeviceTester/amazon-freertos/lib/third_party/mbedtls/library\platform.c **** 
 330:D:/Work/DeviceTester/amazon-freertos/lib/third_party/mbedtls/library\platform.c **** /*
 331:D:/Work/DeviceTester/amazon-freertos/lib/third_party/mbedtls/library\platform.c ****  * Placeholder platform teardown that does nothing by default
 332:D:/Work/DeviceTester/amazon-freertos/lib/third_party/mbedtls/library\platform.c ****  */
 333:D:/Work/DeviceTester/amazon-freertos/lib/third_party/mbedtls/library\platform.c **** void mbedtls_platform_teardown( mbedtls_platform_context *ctx )
 334:D:/Work/DeviceTester/amazon-freertos/lib/third_party/mbedtls/library\platform.c **** {
 136              		.loc 1 334 0
 137              		.cfi_startproc
 138              		@ args = 0, pretend = 0, frame = 0
 139              		@ frame_needed = 0, uses_anonymous_args = 0
 140              		@ link register save eliminated.
 141              	.LVL8:
 142 0000 1EFF2FE1 		bx	lr
 143              		.cfi_endproc
 144              	.LFE5:
 146              		.section	.data.mbedtls_calloc_func,"aw",%progbits
 147              		.align	2
 148              		.set	.LANCHOR0,. + 0
 151              	mbedtls_calloc_func:
 152 0000 00000000 		.word	calloc
 153              		.section	.data.mbedtls_free_func,"aw",%progbits
 154              		.align	2
 155              		.set	.LANCHOR1,. + 0
 158              	mbedtls_free_func:
 159 0000 00000000 		.word	free
 160              		.text
 161              	.Letext0:
 162              		.file 2 "c:\\program files (x86)\\gnu tools arm embedded\\6 2017-q2-update\\lib\\gcc\\arm-none-eab
 163              		.file 3 "c:\\program files (x86)\\gnu tools arm embedded\\6 2017-q2-update\\arm-none-eabi\\include
 164              		.file 4 "c:\\program files (x86)\\gnu tools arm embedded\\6 2017-q2-update\\arm-none-eabi\\include
 165              		.file 5 "c:\\program files (x86)\\gnu tools arm embedded\\6 2017-q2-update\\arm-none-eabi\\include
 166              		.file 6 "c:\\program files (x86)\\gnu tools arm embedded\\6 2017-q2-update\\arm-none-eabi\\include
 167              		.file 7 "c:\\program files (x86)\\gnu tools arm embedded\\6 2017-q2-update\\arm-none-eabi\\include
 168              		.file 8 "D:\\Work\\DeviceTester\\amazon-freertos\\lib\\third_party\\mbedtls\\include/mbedtls/platf