   1              		.cpu cortex-a9
   2              		.eabi_attribute 28, 1
   3              		.eabi_attribute 20, 1
   4              		.eabi_attribute 21, 1
   5              		.eabi_attribute 23, 3
   6              		.eabi_attribute 24, 1
   7              		.eabi_attribute 25, 1
   8              		.eabi_attribute 26, 1
   9              		.eabi_attribute 30, 4
  10              		.eabi_attribute 34, 0
  11              		.eabi_attribute 18, 4
  12              		.file	"rsa_internal.c"
  13              		.text
  14              	.Ltext0:
  15              		.cfi_sections	.debug_frame
  16              		.section	.text.mbedtls_rsa_deduce_primes,"ax",%progbits
  17              		.align	2
  18              		.global	mbedtls_rsa_deduce_primes
  19              		.syntax unified
  20              		.arm
  21              		.fpu neon
  23              	mbedtls_rsa_deduce_primes:
  24              	.LFB0:
  25              		.file 1 "D:/Work/DeviceTester/amazon-freertos/lib/third_party/mbedtls/library/rsa_internal.c"
   1:D:/Work/DeviceTester/amazon-freertos/lib/third_party/mbedtls/library\rsa_internal.c **** /*
   2:D:/Work/DeviceTester/amazon-freertos/lib/third_party/mbedtls/library\rsa_internal.c ****  *  Helper functions for the RSA module
   3:D:/Work/DeviceTester/amazon-freertos/lib/third_party/mbedtls/library\rsa_internal.c ****  *
   4:D:/Work/DeviceTester/amazon-freertos/lib/third_party/mbedtls/library\rsa_internal.c ****  *  Copyright (C) 2006-2017, ARM Limited, All Rights Reserved
   5:D:/Work/DeviceTester/amazon-freertos/lib/third_party/mbedtls/library\rsa_internal.c ****  *  SPDX-License-Identifier: Apache-2.0
   6:D:/Work/DeviceTester/amazon-freertos/lib/third_party/mbedtls/library\rsa_internal.c ****  *
   7:D:/Work/DeviceTester/amazon-freertos/lib/third_party/mbedtls/library\rsa_internal.c ****  *  Licensed under the Apache License, Version 2.0 (the "License"); you may
   8:D:/Work/DeviceTester/amazon-freertos/lib/third_party/mbedtls/library\rsa_internal.c ****  *  not use this file except in compliance with the License.
   9:D:/Work/DeviceTester/amazon-freertos/lib/third_party/mbedtls/library\rsa_internal.c ****  *  You may obtain a copy of the License at
  10:D:/Work/DeviceTester/amazon-freertos/lib/third_party/mbedtls/library\rsa_internal.c ****  *
  11:D:/Work/DeviceTester/amazon-freertos/lib/third_party/mbedtls/library\rsa_internal.c ****  *  http://www.apache.org/licenses/LICENSE-2.0
  12:D:/Work/DeviceTester/amazon-freertos/lib/third_party/mbedtls/library\rsa_internal.c ****  *
  13:D:/Work/DeviceTester/amazon-freertos/lib/third_party/mbedtls/library\rsa_internal.c ****  *  Unless required by applicable law or agreed to in writing, software
  14:D:/Work/DeviceTester/amazon-freertos/lib/third_party/mbedtls/library\rsa_internal.c ****  *  distributed under the License is distributed on an "AS IS" BASIS, WITHOUT
  15:D:/Work/DeviceTester/amazon-freertos/lib/third_party/mbedtls/library\rsa_internal.c ****  *  WARRANTIES OR CONDITIONS OF ANY KIND, either express or implied.
  16:D:/Work/DeviceTester/amazon-freertos/lib/third_party/mbedtls/library\rsa_internal.c ****  *  See the License for the specific language governing permissions and
  17:D:/Work/DeviceTester/amazon-freertos/lib/third_party/mbedtls/library\rsa_internal.c ****  *  limitations under the License.
  18:D:/Work/DeviceTester/amazon-freertos/lib/third_party/mbedtls/library\rsa_internal.c ****  *
  19:D:/Work/DeviceTester/amazon-freertos/lib/third_party/mbedtls/library\rsa_internal.c ****  *  This file is part of mbed TLS (https://tls.mbed.org)
  20:D:/Work/DeviceTester/amazon-freertos/lib/third_party/mbedtls/library\rsa_internal.c ****  *
  21:D:/Work/DeviceTester/amazon-freertos/lib/third_party/mbedtls/library\rsa_internal.c ****  */
  22:D:/Work/DeviceTester/amazon-freertos/lib/third_party/mbedtls/library\rsa_internal.c **** 
  23:D:/Work/DeviceTester/amazon-freertos/lib/third_party/mbedtls/library\rsa_internal.c **** #if !defined(MBEDTLS_CONFIG_FILE)
  24:D:/Work/DeviceTester/amazon-freertos/lib/third_party/mbedtls/library\rsa_internal.c **** #include "mbedtls/config.h"
  25:D:/Work/DeviceTester/amazon-freertos/lib/third_party/mbedtls/library\rsa_internal.c **** #else
  26:D:/Work/DeviceTester/amazon-freertos/lib/third_party/mbedtls/library\rsa_internal.c **** #include MBEDTLS_CONFIG_FILE
  27:D:/Work/DeviceTester/amazon-freertos/lib/third_party/mbedtls/library\rsa_internal.c **** #endif
  28:D:/Work/DeviceTester/amazon-freertos/lib/third_party/mbedtls/library\rsa_internal.c **** 
  29:D:/Work/DeviceTester/amazon-freertos/lib/third_party/mbedtls/library\rsa_internal.c **** #if defined(MBEDTLS_RSA_C)
  30:D:/Work/DeviceTester/amazon-freertos/lib/third_party/mbedtls/library\rsa_internal.c **** 
  31:D:/Work/DeviceTester/amazon-freertos/lib/third_party/mbedtls/library\rsa_internal.c **** #include "mbedtls/rsa.h"
  32:D:/Work/DeviceTester/amazon-freertos/lib/third_party/mbedtls/library\rsa_internal.c **** #include "mbedtls/bignum.h"
  33:D:/Work/DeviceTester/amazon-freertos/lib/third_party/mbedtls/library\rsa_internal.c **** #include "mbedtls/rsa_internal.h"
  34:D:/Work/DeviceTester/amazon-freertos/lib/third_party/mbedtls/library\rsa_internal.c **** 
  35:D:/Work/DeviceTester/amazon-freertos/lib/third_party/mbedtls/library\rsa_internal.c **** /*
  36:D:/Work/DeviceTester/amazon-freertos/lib/third_party/mbedtls/library\rsa_internal.c ****  * Compute RSA prime factors from public and private exponents
  37:D:/Work/DeviceTester/amazon-freertos/lib/third_party/mbedtls/library\rsa_internal.c ****  *
  38:D:/Work/DeviceTester/amazon-freertos/lib/third_party/mbedtls/library\rsa_internal.c ****  * Summary of algorithm:
  39:D:/Work/DeviceTester/amazon-freertos/lib/third_party/mbedtls/library\rsa_internal.c ****  * Setting F := lcm(P-1,Q-1), the idea is as follows:
  40:D:/Work/DeviceTester/amazon-freertos/lib/third_party/mbedtls/library\rsa_internal.c ****  *
  41:D:/Work/DeviceTester/amazon-freertos/lib/third_party/mbedtls/library\rsa_internal.c ****  * (a) For any 1 <= X < N with gcd(X,N)=1, we have X^F = 1 modulo N, so X^(F/2)
  42:D:/Work/DeviceTester/amazon-freertos/lib/third_party/mbedtls/library\rsa_internal.c ****  *     is a square root of 1 in Z/NZ. Since Z/NZ ~= Z/PZ x Z/QZ by CRT and the
  43:D:/Work/DeviceTester/amazon-freertos/lib/third_party/mbedtls/library\rsa_internal.c ****  *     square roots of 1 in Z/PZ and Z/QZ are +1 and -1, this leaves the four
  44:D:/Work/DeviceTester/amazon-freertos/lib/third_party/mbedtls/library\rsa_internal.c ****  *     possibilities X^(F/2) = (+-1, +-1). If it happens that X^(F/2) = (-1,+1)
  45:D:/Work/DeviceTester/amazon-freertos/lib/third_party/mbedtls/library\rsa_internal.c ****  *     or (+1,-1), then gcd(X^(F/2) + 1, N) will be equal to one of the prime
  46:D:/Work/DeviceTester/amazon-freertos/lib/third_party/mbedtls/library\rsa_internal.c ****  *     factors of N.
  47:D:/Work/DeviceTester/amazon-freertos/lib/third_party/mbedtls/library\rsa_internal.c ****  *
  48:D:/Work/DeviceTester/amazon-freertos/lib/third_party/mbedtls/library\rsa_internal.c ****  * (b) If we don't know F/2 but (F/2) * K for some odd (!) K, then the same
  49:D:/Work/DeviceTester/amazon-freertos/lib/third_party/mbedtls/library\rsa_internal.c ****  *     construction still applies since (-)^K is the identity on the set of
  50:D:/Work/DeviceTester/amazon-freertos/lib/third_party/mbedtls/library\rsa_internal.c ****  *     roots of 1 in Z/NZ.
  51:D:/Work/DeviceTester/amazon-freertos/lib/third_party/mbedtls/library\rsa_internal.c ****  *
  52:D:/Work/DeviceTester/amazon-freertos/lib/third_party/mbedtls/library\rsa_internal.c ****  * The public and private key primitives (-)^E and (-)^D are mutually inverse
  53:D:/Work/DeviceTester/amazon-freertos/lib/third_party/mbedtls/library\rsa_internal.c ****  * bijections on Z/NZ if and only if (-)^(DE) is the identity on Z/NZ, i.e.
  54:D:/Work/DeviceTester/amazon-freertos/lib/third_party/mbedtls/library\rsa_internal.c ****  * if and only if DE - 1 is a multiple of F, say DE - 1 = F * L.
  55:D:/Work/DeviceTester/amazon-freertos/lib/third_party/mbedtls/library\rsa_internal.c ****  * Splitting L = 2^t * K with K odd, we have
  56:D:/Work/DeviceTester/amazon-freertos/lib/third_party/mbedtls/library\rsa_internal.c ****  *
  57:D:/Work/DeviceTester/amazon-freertos/lib/third_party/mbedtls/library\rsa_internal.c ****  *   DE - 1 = FL = (F/2) * (2^(t+1)) * K,
  58:D:/Work/DeviceTester/amazon-freertos/lib/third_party/mbedtls/library\rsa_internal.c ****  *
  59:D:/Work/DeviceTester/amazon-freertos/lib/third_party/mbedtls/library\rsa_internal.c ****  * so (F / 2) * K is among the numbers
  60:D:/Work/DeviceTester/amazon-freertos/lib/third_party/mbedtls/library\rsa_internal.c ****  *
  61:D:/Work/DeviceTester/amazon-freertos/lib/third_party/mbedtls/library\rsa_internal.c ****  *   (DE - 1) >> 1, (DE - 1) >> 2, ..., (DE - 1) >> ord
  62:D:/Work/DeviceTester/amazon-freertos/lib/third_party/mbedtls/library\rsa_internal.c ****  *
  63:D:/Work/DeviceTester/amazon-freertos/lib/third_party/mbedtls/library\rsa_internal.c ****  * where ord is the order of 2 in (DE - 1).
  64:D:/Work/DeviceTester/amazon-freertos/lib/third_party/mbedtls/library\rsa_internal.c ****  * We can therefore iterate through these numbers apply the construction
  65:D:/Work/DeviceTester/amazon-freertos/lib/third_party/mbedtls/library\rsa_internal.c ****  * of (a) and (b) above to attempt to factor N.
  66:D:/Work/DeviceTester/amazon-freertos/lib/third_party/mbedtls/library\rsa_internal.c ****  *
  67:D:/Work/DeviceTester/amazon-freertos/lib/third_party/mbedtls/library\rsa_internal.c ****  */
  68:D:/Work/DeviceTester/amazon-freertos/lib/third_party/mbedtls/library\rsa_internal.c **** int mbedtls_rsa_deduce_primes( mbedtls_mpi const *N,
  69:D:/Work/DeviceTester/amazon-freertos/lib/third_party/mbedtls/library\rsa_internal.c ****                      mbedtls_mpi const *E, mbedtls_mpi const *D,
  70:D:/Work/DeviceTester/amazon-freertos/lib/third_party/mbedtls/library\rsa_internal.c ****                      mbedtls_mpi *P, mbedtls_mpi *Q )
  71:D:/Work/DeviceTester/amazon-freertos/lib/third_party/mbedtls/library\rsa_internal.c **** {
  26              		.loc 1 71 0
  27              		.cfi_startproc
  28              		@ args = 4, pretend = 0, frame = 80
  29              		@ frame_needed = 0, uses_anonymous_args = 0
  30              	.LVL0:
  31 0000 F0472DE9 		push	{r4, r5, r6, r7, r8, r9, r10, lr}
  32              		.cfi_def_cfa_offset 32
  33              		.cfi_offset 4, -32
  34              		.cfi_offset 5, -28
  35              		.cfi_offset 6, -24
  36              		.cfi_offset 7, -20
  37              		.cfi_offset 8, -16
  38              		.cfi_offset 9, -12
  39              		.cfi_offset 10, -8
  40              		.cfi_offset 14, -4
  41 0004 58D04DE2 		sub	sp, sp, #88
  42              		.cfi_def_cfa_offset 120
  43              		.loc 1 71 0
  44 0008 78909DE5 		ldr	r9, [sp, #120]
  45 000c 0370A0E1 		mov	r7, r3
  46 0010 0060A0E1 		mov	r6, r0
  47 0014 0150A0E1 		mov	r5, r1
  48 0018 0240A0E1 		mov	r4, r2
  72:D:/Work/DeviceTester/amazon-freertos/lib/third_party/mbedtls/library\rsa_internal.c ****     int ret = 0;
  73:D:/Work/DeviceTester/amazon-freertos/lib/third_party/mbedtls/library\rsa_internal.c **** 
  74:D:/Work/DeviceTester/amazon-freertos/lib/third_party/mbedtls/library\rsa_internal.c ****     uint16_t attempt;  /* Number of current attempt  */
  75:D:/Work/DeviceTester/amazon-freertos/lib/third_party/mbedtls/library\rsa_internal.c ****     uint16_t iter;     /* Number of squares computed in the current attempt */
  76:D:/Work/DeviceTester/amazon-freertos/lib/third_party/mbedtls/library\rsa_internal.c **** 
  77:D:/Work/DeviceTester/amazon-freertos/lib/third_party/mbedtls/library\rsa_internal.c ****     uint16_t order;    /* Order of 2 in DE - 1 */
  78:D:/Work/DeviceTester/amazon-freertos/lib/third_party/mbedtls/library\rsa_internal.c **** 
  79:D:/Work/DeviceTester/amazon-freertos/lib/third_party/mbedtls/library\rsa_internal.c ****     mbedtls_mpi T;  /* Holds largest odd divisor of DE - 1     */
  80:D:/Work/DeviceTester/amazon-freertos/lib/third_party/mbedtls/library\rsa_internal.c ****     mbedtls_mpi K;  /* Temporary holding the current candidate */
  81:D:/Work/DeviceTester/amazon-freertos/lib/third_party/mbedtls/library\rsa_internal.c **** 
  82:D:/Work/DeviceTester/amazon-freertos/lib/third_party/mbedtls/library\rsa_internal.c ****     const unsigned char primes[] = { 2,
  49              		.loc 1 82 0
  50 001c A8129FE5 		ldr	r1, .L18
  51              	.LVL1:
  52 0020 3620A0E3 		mov	r2, #54
  53              	.LVL2:
  54 0024 20008DE2 		add	r0, sp, #32
  55              	.LVL3:
  56 0028 FEFFFFEB 		bl	memcpy
  57              	.LVL4:
  83:D:/Work/DeviceTester/amazon-freertos/lib/third_party/mbedtls/library\rsa_internal.c ****            3,    5,    7,   11,   13,   17,   19,   23,
  84:D:/Work/DeviceTester/amazon-freertos/lib/third_party/mbedtls/library\rsa_internal.c ****           29,   31,   37,   41,   43,   47,   53,   59,
  85:D:/Work/DeviceTester/amazon-freertos/lib/third_party/mbedtls/library\rsa_internal.c ****           61,   67,   71,   73,   79,   83,   89,   97,
  86:D:/Work/DeviceTester/amazon-freertos/lib/third_party/mbedtls/library\rsa_internal.c ****          101,  103,  107,  109,  113,  127,  131,  137,
  87:D:/Work/DeviceTester/amazon-freertos/lib/third_party/mbedtls/library\rsa_internal.c ****          139,  149,  151,  157,  163,  167,  173,  179,
  88:D:/Work/DeviceTester/amazon-freertos/lib/third_party/mbedtls/library\rsa_internal.c ****          181,  191,  193,  197,  199,  211,  223,  227,
  89:D:/Work/DeviceTester/amazon-freertos/lib/third_party/mbedtls/library\rsa_internal.c ****          229,  233,  239,  241,  251
  90:D:/Work/DeviceTester/amazon-freertos/lib/third_party/mbedtls/library\rsa_internal.c ****     };
  91:D:/Work/DeviceTester/amazon-freertos/lib/third_party/mbedtls/library\rsa_internal.c **** 
  92:D:/Work/DeviceTester/amazon-freertos/lib/third_party/mbedtls/library\rsa_internal.c ****     const size_t num_primes = sizeof( primes ) / sizeof( *primes );
  93:D:/Work/DeviceTester/amazon-freertos/lib/third_party/mbedtls/library\rsa_internal.c **** 
  94:D:/Work/DeviceTester/amazon-freertos/lib/third_party/mbedtls/library\rsa_internal.c ****     if( P == NULL || Q == NULL || P->p != NULL || Q->p != NULL )
  58              		.loc 1 94 0
  59 002c 000059E3 		cmp	r9, #0
  60 0030 00005713 		cmpne	r7, #0
  61 0034 0300001A 		bne	.L2
  62              	.L4:
  95:D:/Work/DeviceTester/amazon-freertos/lib/third_party/mbedtls/library\rsa_internal.c ****         return( MBEDTLS_ERR_MPI_BAD_INPUT_DATA );
  63              		.loc 1 95 0
  64 0038 0340E0E3 		mvn	r4, #3
  65              	.LVL5:
  66              	.L1:
  96:D:/Work/DeviceTester/amazon-freertos/lib/third_party/mbedtls/library\rsa_internal.c **** 
  97:D:/Work/DeviceTester/amazon-freertos/lib/third_party/mbedtls/library\rsa_internal.c ****     if( mbedtls_mpi_cmp_int( N, 0 ) <= 0 ||
  98:D:/Work/DeviceTester/amazon-freertos/lib/third_party/mbedtls/library\rsa_internal.c ****         mbedtls_mpi_cmp_int( D, 1 ) <= 0 ||
  99:D:/Work/DeviceTester/amazon-freertos/lib/third_party/mbedtls/library\rsa_internal.c ****         mbedtls_mpi_cmp_mpi( D, N ) >= 0 ||
 100:D:/Work/DeviceTester/amazon-freertos/lib/third_party/mbedtls/library\rsa_internal.c ****         mbedtls_mpi_cmp_int( E, 1 ) <= 0 ||
 101:D:/Work/DeviceTester/amazon-freertos/lib/third_party/mbedtls/library\rsa_internal.c ****         mbedtls_mpi_cmp_mpi( E, N ) >= 0 )
 102:D:/Work/DeviceTester/amazon-freertos/lib/third_party/mbedtls/library\rsa_internal.c ****     {
 103:D:/Work/DeviceTester/amazon-freertos/lib/third_party/mbedtls/library\rsa_internal.c ****         return( MBEDTLS_ERR_MPI_BAD_INPUT_DATA );
 104:D:/Work/DeviceTester/amazon-freertos/lib/third_party/mbedtls/library\rsa_internal.c ****     }
 105:D:/Work/DeviceTester/amazon-freertos/lib/third_party/mbedtls/library\rsa_internal.c **** 
 106:D:/Work/DeviceTester/amazon-freertos/lib/third_party/mbedtls/library\rsa_internal.c ****     /*
 107:D:/Work/DeviceTester/amazon-freertos/lib/third_party/mbedtls/library\rsa_internal.c ****      * Initializations and temporary changes
 108:D:/Work/DeviceTester/amazon-freertos/lib/third_party/mbedtls/library\rsa_internal.c ****      */
 109:D:/Work/DeviceTester/amazon-freertos/lib/third_party/mbedtls/library\rsa_internal.c **** 
 110:D:/Work/DeviceTester/amazon-freertos/lib/third_party/mbedtls/library\rsa_internal.c ****     mbedtls_mpi_init( &K );
 111:D:/Work/DeviceTester/amazon-freertos/lib/third_party/mbedtls/library\rsa_internal.c ****     mbedtls_mpi_init( &T );
 112:D:/Work/DeviceTester/amazon-freertos/lib/third_party/mbedtls/library\rsa_internal.c **** 
 113:D:/Work/DeviceTester/amazon-freertos/lib/third_party/mbedtls/library\rsa_internal.c ****     /* T := DE - 1 */
 114:D:/Work/DeviceTester/amazon-freertos/lib/third_party/mbedtls/library\rsa_internal.c ****     MBEDTLS_MPI_CHK( mbedtls_mpi_mul_mpi( &T, D,  E ) );
 115:D:/Work/DeviceTester/amazon-freertos/lib/third_party/mbedtls/library\rsa_internal.c ****     MBEDTLS_MPI_CHK( mbedtls_mpi_sub_int( &T, &T, 1 ) );
 116:D:/Work/DeviceTester/amazon-freertos/lib/third_party/mbedtls/library\rsa_internal.c **** 
 117:D:/Work/DeviceTester/amazon-freertos/lib/third_party/mbedtls/library\rsa_internal.c ****     if( ( order = (uint16_t) mbedtls_mpi_lsb( &T ) ) == 0 )
 118:D:/Work/DeviceTester/amazon-freertos/lib/third_party/mbedtls/library\rsa_internal.c ****     {
 119:D:/Work/DeviceTester/amazon-freertos/lib/third_party/mbedtls/library\rsa_internal.c ****         ret = MBEDTLS_ERR_MPI_BAD_INPUT_DATA;
 120:D:/Work/DeviceTester/amazon-freertos/lib/third_party/mbedtls/library\rsa_internal.c ****         goto cleanup;
 121:D:/Work/DeviceTester/amazon-freertos/lib/third_party/mbedtls/library\rsa_internal.c ****     }
 122:D:/Work/DeviceTester/amazon-freertos/lib/third_party/mbedtls/library\rsa_internal.c **** 
 123:D:/Work/DeviceTester/amazon-freertos/lib/third_party/mbedtls/library\rsa_internal.c ****     /* After this operation, T holds the largest odd divisor of DE - 1. */
 124:D:/Work/DeviceTester/amazon-freertos/lib/third_party/mbedtls/library\rsa_internal.c ****     MBEDTLS_MPI_CHK( mbedtls_mpi_shift_r( &T, order ) );
 125:D:/Work/DeviceTester/amazon-freertos/lib/third_party/mbedtls/library\rsa_internal.c **** 
 126:D:/Work/DeviceTester/amazon-freertos/lib/third_party/mbedtls/library\rsa_internal.c ****     /*
 127:D:/Work/DeviceTester/amazon-freertos/lib/third_party/mbedtls/library\rsa_internal.c ****      * Actual work
 128:D:/Work/DeviceTester/amazon-freertos/lib/third_party/mbedtls/library\rsa_internal.c ****      */
 129:D:/Work/DeviceTester/amazon-freertos/lib/third_party/mbedtls/library\rsa_internal.c **** 
 130:D:/Work/DeviceTester/amazon-freertos/lib/third_party/mbedtls/library\rsa_internal.c ****     /* Skip trying 2 if N == 1 mod 8 */
 131:D:/Work/DeviceTester/amazon-freertos/lib/third_party/mbedtls/library\rsa_internal.c ****     attempt = 0;
 132:D:/Work/DeviceTester/amazon-freertos/lib/third_party/mbedtls/library\rsa_internal.c ****     if( N->p[0] % 8 == 1 )
 133:D:/Work/DeviceTester/amazon-freertos/lib/third_party/mbedtls/library\rsa_internal.c ****         attempt = 1;
 134:D:/Work/DeviceTester/amazon-freertos/lib/third_party/mbedtls/library\rsa_internal.c **** 
 135:D:/Work/DeviceTester/amazon-freertos/lib/third_party/mbedtls/library\rsa_internal.c ****     for( ; attempt < num_primes; ++attempt )
 136:D:/Work/DeviceTester/amazon-freertos/lib/third_party/mbedtls/library\rsa_internal.c ****     {
 137:D:/Work/DeviceTester/amazon-freertos/lib/third_party/mbedtls/library\rsa_internal.c ****         mbedtls_mpi_lset( &K, primes[attempt] );
 138:D:/Work/DeviceTester/amazon-freertos/lib/third_party/mbedtls/library\rsa_internal.c **** 
 139:D:/Work/DeviceTester/amazon-freertos/lib/third_party/mbedtls/library\rsa_internal.c ****         /* Check if gcd(K,N) = 1 */
 140:D:/Work/DeviceTester/amazon-freertos/lib/third_party/mbedtls/library\rsa_internal.c ****         MBEDTLS_MPI_CHK( mbedtls_mpi_gcd( P, &K, N ) );
 141:D:/Work/DeviceTester/amazon-freertos/lib/third_party/mbedtls/library\rsa_internal.c ****         if( mbedtls_mpi_cmp_int( P, 1 ) != 0 )
 142:D:/Work/DeviceTester/amazon-freertos/lib/third_party/mbedtls/library\rsa_internal.c ****             continue;
 143:D:/Work/DeviceTester/amazon-freertos/lib/third_party/mbedtls/library\rsa_internal.c **** 
 144:D:/Work/DeviceTester/amazon-freertos/lib/third_party/mbedtls/library\rsa_internal.c ****         /* Go through K^T + 1, K^(2T) + 1, K^(4T) + 1, ...
 145:D:/Work/DeviceTester/amazon-freertos/lib/third_party/mbedtls/library\rsa_internal.c ****          * and check whether they have nontrivial GCD with N. */
 146:D:/Work/DeviceTester/amazon-freertos/lib/third_party/mbedtls/library\rsa_internal.c ****         MBEDTLS_MPI_CHK( mbedtls_mpi_exp_mod( &K, &K, &T, N,
 147:D:/Work/DeviceTester/amazon-freertos/lib/third_party/mbedtls/library\rsa_internal.c ****                              Q /* temporarily use Q for storing Montgomery
 148:D:/Work/DeviceTester/amazon-freertos/lib/third_party/mbedtls/library\rsa_internal.c ****                                 * multiplication helper values */ ) );
 149:D:/Work/DeviceTester/amazon-freertos/lib/third_party/mbedtls/library\rsa_internal.c **** 
 150:D:/Work/DeviceTester/amazon-freertos/lib/third_party/mbedtls/library\rsa_internal.c ****         for( iter = 1; iter <= order; ++iter )
 151:D:/Work/DeviceTester/amazon-freertos/lib/third_party/mbedtls/library\rsa_internal.c ****         {
 152:D:/Work/DeviceTester/amazon-freertos/lib/third_party/mbedtls/library\rsa_internal.c ****             /* If we reach 1 prematurely, there's no point
 153:D:/Work/DeviceTester/amazon-freertos/lib/third_party/mbedtls/library\rsa_internal.c ****              * in continuing to square K */
 154:D:/Work/DeviceTester/amazon-freertos/lib/third_party/mbedtls/library\rsa_internal.c ****             if( mbedtls_mpi_cmp_int( &K, 1 ) == 0 )
 155:D:/Work/DeviceTester/amazon-freertos/lib/third_party/mbedtls/library\rsa_internal.c ****                 break;
 156:D:/Work/DeviceTester/amazon-freertos/lib/third_party/mbedtls/library\rsa_internal.c **** 
 157:D:/Work/DeviceTester/amazon-freertos/lib/third_party/mbedtls/library\rsa_internal.c ****             MBEDTLS_MPI_CHK( mbedtls_mpi_add_int( &K, &K, 1 ) );
 158:D:/Work/DeviceTester/amazon-freertos/lib/third_party/mbedtls/library\rsa_internal.c ****             MBEDTLS_MPI_CHK( mbedtls_mpi_gcd( P, &K, N ) );
 159:D:/Work/DeviceTester/amazon-freertos/lib/third_party/mbedtls/library\rsa_internal.c **** 
 160:D:/Work/DeviceTester/amazon-freertos/lib/third_party/mbedtls/library\rsa_internal.c ****             if( mbedtls_mpi_cmp_int( P, 1 ) ==  1 &&
 161:D:/Work/DeviceTester/amazon-freertos/lib/third_party/mbedtls/library\rsa_internal.c ****                 mbedtls_mpi_cmp_mpi( P, N ) == -1 )
 162:D:/Work/DeviceTester/amazon-freertos/lib/third_party/mbedtls/library\rsa_internal.c ****             {
 163:D:/Work/DeviceTester/amazon-freertos/lib/third_party/mbedtls/library\rsa_internal.c ****                 /*
 164:D:/Work/DeviceTester/amazon-freertos/lib/third_party/mbedtls/library\rsa_internal.c ****                  * Have found a nontrivial divisor P of N.
 165:D:/Work/DeviceTester/amazon-freertos/lib/third_party/mbedtls/library\rsa_internal.c ****                  * Set Q := N / P.
 166:D:/Work/DeviceTester/amazon-freertos/lib/third_party/mbedtls/library\rsa_internal.c ****                  */
 167:D:/Work/DeviceTester/amazon-freertos/lib/third_party/mbedtls/library\rsa_internal.c **** 
 168:D:/Work/DeviceTester/amazon-freertos/lib/third_party/mbedtls/library\rsa_internal.c ****                 MBEDTLS_MPI_CHK( mbedtls_mpi_div_mpi( Q, NULL, N, P ) );
 169:D:/Work/DeviceTester/amazon-freertos/lib/third_party/mbedtls/library\rsa_internal.c ****                 goto cleanup;
 170:D:/Work/DeviceTester/amazon-freertos/lib/third_party/mbedtls/library\rsa_internal.c ****             }
 171:D:/Work/DeviceTester/amazon-freertos/lib/third_party/mbedtls/library\rsa_internal.c **** 
 172:D:/Work/DeviceTester/amazon-freertos/lib/third_party/mbedtls/library\rsa_internal.c ****             MBEDTLS_MPI_CHK( mbedtls_mpi_sub_int( &K, &K, 1 ) );
 173:D:/Work/DeviceTester/amazon-freertos/lib/third_party/mbedtls/library\rsa_internal.c ****             MBEDTLS_MPI_CHK( mbedtls_mpi_mul_mpi( &K, &K, &K ) );
 174:D:/Work/DeviceTester/amazon-freertos/lib/third_party/mbedtls/library\rsa_internal.c ****             MBEDTLS_MPI_CHK( mbedtls_mpi_mod_mpi( &K, &K, N ) );
 175:D:/Work/DeviceTester/amazon-freertos/lib/third_party/mbedtls/library\rsa_internal.c ****         }
 176:D:/Work/DeviceTester/amazon-freertos/lib/third_party/mbedtls/library\rsa_internal.c **** 
 177:D:/Work/DeviceTester/amazon-freertos/lib/third_party/mbedtls/library\rsa_internal.c ****         /*
 178:D:/Work/DeviceTester/amazon-freertos/lib/third_party/mbedtls/library\rsa_internal.c ****          * If we get here, then either we prematurely aborted the loop because
 179:D:/Work/DeviceTester/amazon-freertos/lib/third_party/mbedtls/library\rsa_internal.c ****          * we reached 1, or K holds primes[attempt]^(DE - 1) mod N, which must
 180:D:/Work/DeviceTester/amazon-freertos/lib/third_party/mbedtls/library\rsa_internal.c ****          * be 1 if D,E,N were consistent.
 181:D:/Work/DeviceTester/amazon-freertos/lib/third_party/mbedtls/library\rsa_internal.c ****          * Check if that's the case and abort if not, to avoid very long,
 182:D:/Work/DeviceTester/amazon-freertos/lib/third_party/mbedtls/library\rsa_internal.c ****          * yet eventually failing, computations if N,D,E were not sane.
 183:D:/Work/DeviceTester/amazon-freertos/lib/third_party/mbedtls/library\rsa_internal.c ****          */
 184:D:/Work/DeviceTester/amazon-freertos/lib/third_party/mbedtls/library\rsa_internal.c ****         if( mbedtls_mpi_cmp_int( &K, 1 ) != 0 )
 185:D:/Work/DeviceTester/amazon-freertos/lib/third_party/mbedtls/library\rsa_internal.c ****         {
 186:D:/Work/DeviceTester/amazon-freertos/lib/third_party/mbedtls/library\rsa_internal.c ****             break;
 187:D:/Work/DeviceTester/amazon-freertos/lib/third_party/mbedtls/library\rsa_internal.c ****         }
 188:D:/Work/DeviceTester/amazon-freertos/lib/third_party/mbedtls/library\rsa_internal.c ****     }
 189:D:/Work/DeviceTester/amazon-freertos/lib/third_party/mbedtls/library\rsa_internal.c **** 
 190:D:/Work/DeviceTester/amazon-freertos/lib/third_party/mbedtls/library\rsa_internal.c ****     ret = MBEDTLS_ERR_MPI_BAD_INPUT_DATA;
 191:D:/Work/DeviceTester/amazon-freertos/lib/third_party/mbedtls/library\rsa_internal.c **** 
 192:D:/Work/DeviceTester/amazon-freertos/lib/third_party/mbedtls/library\rsa_internal.c **** cleanup:
 193:D:/Work/DeviceTester/amazon-freertos/lib/third_party/mbedtls/library\rsa_internal.c **** 
 194:D:/Work/DeviceTester/amazon-freertos/lib/third_party/mbedtls/library\rsa_internal.c ****     mbedtls_mpi_free( &K );
 195:D:/Work/DeviceTester/amazon-freertos/lib/third_party/mbedtls/library\rsa_internal.c ****     mbedtls_mpi_free( &T );
 196:D:/Work/DeviceTester/amazon-freertos/lib/third_party/mbedtls/library\rsa_internal.c ****     return( ret );
 197:D:/Work/DeviceTester/amazon-freertos/lib/third_party/mbedtls/library\rsa_internal.c **** }
  67              		.loc 1 197 0
  68 003c 0400A0E1 		mov	r0, r4
  69 0040 58D08DE2 		add	sp, sp, #88
  70              		.cfi_remember_state
  71              		.cfi_def_cfa_offset 32
  72              		@ sp needed
  73 0044 F087BDE8 		pop	{r4, r5, r6, r7, r8, r9, r10, pc}
  74              	.LVL6:
  75              	.L2:
  76              		.cfi_restore_state
  94:D:/Work/DeviceTester/amazon-freertos/lib/third_party/mbedtls/library\rsa_internal.c ****         return( MBEDTLS_ERR_MPI_BAD_INPUT_DATA );
  77              		.loc 1 94 0 discriminator 1
  78 0048 083097E5 		ldr	r3, [r7, #8]
  79 004c 000053E3 		cmp	r3, #0
  80 0050 F8FFFF1A 		bne	.L4
  94:D:/Work/DeviceTester/amazon-freertos/lib/third_party/mbedtls/library\rsa_internal.c ****         return( MBEDTLS_ERR_MPI_BAD_INPUT_DATA );
  81              		.loc 1 94 0 is_stmt 0 discriminator 2
  82 0054 081099E5 		ldr	r1, [r9, #8]
  83 0058 000051E3 		cmp	r1, #0
  84 005c F5FFFF1A 		bne	.L4
  97:D:/Work/DeviceTester/amazon-freertos/lib/third_party/mbedtls/library\rsa_internal.c ****         mbedtls_mpi_cmp_int( D, 1 ) <= 0 ||
  85              		.loc 1 97 0 is_stmt 1
  86 0060 0600A0E1 		mov	r0, r6
  87 0064 FEFFFFEB 		bl	mbedtls_mpi_cmp_int
  88              	.LVL7:
  89 0068 000050E3 		cmp	r0, #0
  90 006c F1FFFFDA 		ble	.L4
  98:D:/Work/DeviceTester/amazon-freertos/lib/third_party/mbedtls/library\rsa_internal.c ****         mbedtls_mpi_cmp_mpi( D, N ) >= 0 ||
  91              		.loc 1 98 0 discriminator 1
  92 0070 0110A0E3 		mov	r1, #1
  93 0074 0400A0E1 		mov	r0, r4
  94 0078 FEFFFFEB 		bl	mbedtls_mpi_cmp_int
  95              	.LVL8:
  97:D:/Work/DeviceTester/amazon-freertos/lib/third_party/mbedtls/library\rsa_internal.c ****         mbedtls_mpi_cmp_int( D, 1 ) <= 0 ||
  96              		.loc 1 97 0 discriminator 1
  97 007c 000050E3 		cmp	r0, #0
  98 0080 ECFFFFDA 		ble	.L4
  99:D:/Work/DeviceTester/amazon-freertos/lib/third_party/mbedtls/library\rsa_internal.c ****         mbedtls_mpi_cmp_int( E, 1 ) <= 0 ||
  99              		.loc 1 99 0
 100 0084 0610A0E1 		mov	r1, r6
 101 0088 0400A0E1 		mov	r0, r4
 102 008c FEFFFFEB 		bl	mbedtls_mpi_cmp_mpi
 103              	.LVL9:
  98:D:/Work/DeviceTester/amazon-freertos/lib/third_party/mbedtls/library\rsa_internal.c ****         mbedtls_mpi_cmp_mpi( D, N ) >= 0 ||
 104              		.loc 1 98 0
 105 0090 000050E3 		cmp	r0, #0
 106 0094 E7FFFFAA 		bge	.L4
 100:D:/Work/DeviceTester/amazon-freertos/lib/third_party/mbedtls/library\rsa_internal.c ****         mbedtls_mpi_cmp_mpi( E, N ) >= 0 )
 107              		.loc 1 100 0
 108 0098 0110A0E3 		mov	r1, #1
 109 009c 0500A0E1 		mov	r0, r5
 110 00a0 FEFFFFEB 		bl	mbedtls_mpi_cmp_int
 111              	.LVL10:
  99:D:/Work/DeviceTester/amazon-freertos/lib/third_party/mbedtls/library\rsa_internal.c ****         mbedtls_mpi_cmp_int( E, 1 ) <= 0 ||
 112              		.loc 1 99 0
 113 00a4 000050E3 		cmp	r0, #0
 114 00a8 E2FFFFDA 		ble	.L4
 101:D:/Work/DeviceTester/amazon-freertos/lib/third_party/mbedtls/library\rsa_internal.c ****     {
 115              		.loc 1 101 0
 116 00ac 0610A0E1 		mov	r1, r6
 117 00b0 0500A0E1 		mov	r0, r5
 118 00b4 FEFFFFEB 		bl	mbedtls_mpi_cmp_mpi
 119              	.LVL11:
 100:D:/Work/DeviceTester/amazon-freertos/lib/third_party/mbedtls/library\rsa_internal.c ****         mbedtls_mpi_cmp_mpi( E, N ) >= 0 )
 120              		.loc 1 100 0
 121 00b8 000050E3 		cmp	r0, #0
 122 00bc DDFFFFAA 		bge	.L4
 110:D:/Work/DeviceTester/amazon-freertos/lib/third_party/mbedtls/library\rsa_internal.c ****     mbedtls_mpi_init( &T );
 123              		.loc 1 110 0
 124 00c0 14008DE2 		add	r0, sp, #20
 125 00c4 FEFFFFEB 		bl	mbedtls_mpi_init
 126              	.LVL12:
 111:D:/Work/DeviceTester/amazon-freertos/lib/third_party/mbedtls/library\rsa_internal.c **** 
 127              		.loc 1 111 0
 128 00c8 08008DE2 		add	r0, sp, #8
 129 00cc FEFFFFEB 		bl	mbedtls_mpi_init
 130              	.LVL13:
 114:D:/Work/DeviceTester/amazon-freertos/lib/third_party/mbedtls/library\rsa_internal.c ****     MBEDTLS_MPI_CHK( mbedtls_mpi_sub_int( &T, &T, 1 ) );
 131              		.loc 1 114 0
 132 00d0 0410A0E1 		mov	r1, r4
 133 00d4 0520A0E1 		mov	r2, r5
 134 00d8 08008DE2 		add	r0, sp, #8
 135 00dc FEFFFFEB 		bl	mbedtls_mpi_mul_mpi
 136              	.LVL14:
 137 00e0 004050E2 		subs	r4, r0, #0
 138              	.LVL15:
 139 00e4 0B00001A 		bne	.L5
 115:D:/Work/DeviceTester/amazon-freertos/lib/third_party/mbedtls/library\rsa_internal.c **** 
 140              		.loc 1 115 0
 141 00e8 08108DE2 		add	r1, sp, #8
 142 00ec 0120A0E3 		mov	r2, #1
 143 00f0 0100A0E1 		mov	r0, r1
 144              	.LVL16:
 145 00f4 FEFFFFEB 		bl	mbedtls_mpi_sub_int
 146              	.LVL17:
 147 00f8 004050E2 		subs	r4, r0, #0
 148 00fc 0500001A 		bne	.L5
 117:D:/Work/DeviceTester/amazon-freertos/lib/third_party/mbedtls/library\rsa_internal.c ****     {
 149              		.loc 1 117 0
 150 0100 08008DE2 		add	r0, sp, #8
 151              	.LVL18:
 152 0104 FEFFFFEB 		bl	mbedtls_mpi_lsb
 153              	.LVL19:
 154 0108 70A0FFE6 		uxth	r10, r0
 155              	.LVL20:
 156 010c 00005AE3 		cmp	r10, #0
 157 0110 0500001A 		bne	.L6
 158              	.LVL21:
 159              	.L9:
 119:D:/Work/DeviceTester/amazon-freertos/lib/third_party/mbedtls/library\rsa_internal.c ****         goto cleanup;
 160              		.loc 1 119 0
 161 0114 0340E0E3 		mvn	r4, #3
 162              	.LVL22:
 163              	.L5:
 194:D:/Work/DeviceTester/amazon-freertos/lib/third_party/mbedtls/library\rsa_internal.c ****     mbedtls_mpi_free( &T );
 164              		.loc 1 194 0
 165 0118 14008DE2 		add	r0, sp, #20
 166 011c FEFFFFEB 		bl	mbedtls_mpi_free
 167              	.LVL23:
 195:D:/Work/DeviceTester/amazon-freertos/lib/third_party/mbedtls/library\rsa_internal.c ****     return( ret );
 168              		.loc 1 195 0
 169 0120 08008DE2 		add	r0, sp, #8
 170 0124 FEFFFFEB 		bl	mbedtls_mpi_free
 171              	.LVL24:
 196:D:/Work/DeviceTester/amazon-freertos/lib/third_party/mbedtls/library\rsa_internal.c **** }
 172              		.loc 1 196 0
 173 0128 C3FFFFEA 		b	.L1
 174              	.LVL25:
 175              	.L6:
 124:D:/Work/DeviceTester/amazon-freertos/lib/third_party/mbedtls/library\rsa_internal.c **** 
 176              		.loc 1 124 0
 177 012c 7010FFE6 		uxth	r1, r0
 178 0130 08008DE2 		add	r0, sp, #8
 179 0134 FEFFFFEB 		bl	mbedtls_mpi_shift_r
 180              	.LVL26:
 181 0138 004050E2 		subs	r4, r0, #0
 182 013c F5FFFF1A 		bne	.L5
 183              	.LVL27:
 132:D:/Work/DeviceTester/amazon-freertos/lib/third_party/mbedtls/library\rsa_internal.c ****         attempt = 1;
 184              		.loc 1 132 0
 185 0140 083096E5 		ldr	r3, [r6, #8]
 186 0144 005093E5 		ldr	r5, [r3]
 187              	.LVL28:
 188 0148 075005E2 		and	r5, r5, #7
 135:D:/Work/DeviceTester/amazon-freertos/lib/third_party/mbedtls/library\rsa_internal.c ****     {
 189              		.loc 1 135 0
 190 014c 015045E2 		sub	r5, r5, #1
 191 0150 155F6FE1 		clz	r5, r5
 192 0154 A552A0E1 		lsr	r5, r5, #5
 193              	.LVL29:
 194              	.L8:
 137:D:/Work/DeviceTester/amazon-freertos/lib/third_party/mbedtls/library\rsa_internal.c **** 
 195              		.loc 1 137 0
 196 0158 58308DE2 		add	r3, sp, #88
 197 015c 053083E0 		add	r3, r3, r5
 198 0160 14008DE2 		add	r0, sp, #20
 199 0164 381053E5 		ldrb	r1, [r3, #-56]	@ zero_extendqisi2
 200 0168 FEFFFFEB 		bl	mbedtls_mpi_lset
 201              	.LVL30:
 140:D:/Work/DeviceTester/amazon-freertos/lib/third_party/mbedtls/library\rsa_internal.c ****         if( mbedtls_mpi_cmp_int( P, 1 ) != 0 )
 202              		.loc 1 140 0
 203 016c 0620A0E1 		mov	r2, r6
 204 0170 14108DE2 		add	r1, sp, #20
 205 0174 0700A0E1 		mov	r0, r7
 206 0178 FEFFFFEB 		bl	mbedtls_mpi_gcd
 207              	.LVL31:
 208 017c 004050E2 		subs	r4, r0, #0
 209 0180 E4FFFF1A 		bne	.L5
 141:D:/Work/DeviceTester/amazon-freertos/lib/third_party/mbedtls/library\rsa_internal.c ****             continue;
 210              		.loc 1 141 0
 211 0184 0110A0E3 		mov	r1, #1
 212 0188 0700A0E1 		mov	r0, r7
 213              	.LVL32:
 214 018c FEFFFFEB 		bl	mbedtls_mpi_cmp_int
 215              	.LVL33:
 216 0190 000050E3 		cmp	r0, #0
 217 0194 0400000A 		beq	.L7
 218              	.L11:
 135:D:/Work/DeviceTester/amazon-freertos/lib/third_party/mbedtls/library\rsa_internal.c ****     {
 219              		.loc 1 135 0
 220 0198 015085E2 		add	r5, r5, #1
 221              	.LVL34:
 222 019c 7550FFE6 		uxth	r5, r5
 223              	.LVL35:
 224 01a0 360055E3 		cmp	r5, #54
 225 01a4 EBFFFF1A 		bne	.L8
 226 01a8 D9FFFFEA 		b	.L9
 227              	.L7:
 146:D:/Work/DeviceTester/amazon-freertos/lib/third_party/mbedtls/library\rsa_internal.c ****                              Q /* temporarily use Q for storing Montgomery
 228              		.loc 1 146 0
 229 01ac 14108DE2 		add	r1, sp, #20
 230 01b0 00908DE5 		str	r9, [sp]
 231 01b4 0630A0E1 		mov	r3, r6
 232 01b8 08208DE2 		add	r2, sp, #8
 233 01bc 0100A0E1 		mov	r0, r1
 234 01c0 FEFFFFEB 		bl	mbedtls_mpi_exp_mod
 235              	.LVL36:
 236 01c4 004050E2 		subs	r4, r0, #0
 237 01c8 D2FFFF1A 		bne	.L5
 238 01cc 0180A0E3 		mov	r8, #1
 239              	.L13:
 240              	.LVL37:
 154:D:/Work/DeviceTester/amazon-freertos/lib/third_party/mbedtls/library\rsa_internal.c ****                 break;
 241              		.loc 1 154 0
 242 01d0 0110A0E3 		mov	r1, #1
 243 01d4 14008DE2 		add	r0, sp, #20
 244              	.LVL38:
 245 01d8 FEFFFFEB 		bl	mbedtls_mpi_cmp_int
 246              	.LVL39:
 247 01dc 000050E3 		cmp	r0, #0
 248 01e0 0500001A 		bne	.L10
 249              	.L14:
 184:D:/Work/DeviceTester/amazon-freertos/lib/third_party/mbedtls/library\rsa_internal.c ****         {
 250              		.loc 1 184 0
 251 01e4 0110A0E3 		mov	r1, #1
 252 01e8 14008DE2 		add	r0, sp, #20
 253 01ec FEFFFFEB 		bl	mbedtls_mpi_cmp_int
 254              	.LVL40:
 255 01f0 000050E3 		cmp	r0, #0
 256 01f4 E7FFFF0A 		beq	.L11
 257 01f8 C5FFFFEA 		b	.L9
 258              	.L10:
 157:D:/Work/DeviceTester/amazon-freertos/lib/third_party/mbedtls/library\rsa_internal.c ****             MBEDTLS_MPI_CHK( mbedtls_mpi_gcd( P, &K, N ) );
 259              		.loc 1 157 0
 260 01fc 14108DE2 		add	r1, sp, #20
 261 0200 0120A0E3 		mov	r2, #1
 262 0204 0100A0E1 		mov	r0, r1
 263 0208 FEFFFFEB 		bl	mbedtls_mpi_add_int
 264              	.LVL41:
 265 020c 004050E2 		subs	r4, r0, #0
 266 0210 C0FFFF1A 		bne	.L5
 158:D:/Work/DeviceTester/amazon-freertos/lib/third_party/mbedtls/library\rsa_internal.c **** 
 267              		.loc 1 158 0
 268 0214 0620A0E1 		mov	r2, r6
 269 0218 14108DE2 		add	r1, sp, #20
 270 021c 0700A0E1 		mov	r0, r7
 271              	.LVL42:
 272 0220 FEFFFFEB 		bl	mbedtls_mpi_gcd
 273              	.LVL43:
 274 0224 004050E2 		subs	r4, r0, #0
 275 0228 BAFFFF1A 		bne	.L5
 160:D:/Work/DeviceTester/amazon-freertos/lib/third_party/mbedtls/library\rsa_internal.c ****                 mbedtls_mpi_cmp_mpi( P, N ) == -1 )
 276              		.loc 1 160 0
 277 022c 0110A0E3 		mov	r1, #1
 278 0230 0700A0E1 		mov	r0, r7
 279              	.LVL44:
 280 0234 FEFFFFEB 		bl	mbedtls_mpi_cmp_int
 281              	.LVL45:
 282 0238 010050E3 		cmp	r0, #1
 283 023c 0B00001A 		bne	.L12
 161:D:/Work/DeviceTester/amazon-freertos/lib/third_party/mbedtls/library\rsa_internal.c ****             {
 284              		.loc 1 161 0 discriminator 1
 285 0240 0610A0E1 		mov	r1, r6
 286 0244 0700A0E1 		mov	r0, r7
 287 0248 FEFFFFEB 		bl	mbedtls_mpi_cmp_mpi
 288              	.LVL46:
 160:D:/Work/DeviceTester/amazon-freertos/lib/third_party/mbedtls/library\rsa_internal.c ****                 mbedtls_mpi_cmp_mpi( P, N ) == -1 )
 289              		.loc 1 160 0 discriminator 1
 290 024c 010070E3 		cmn	r0, #1
 291 0250 0600001A 		bne	.L12
 168:D:/Work/DeviceTester/amazon-freertos/lib/third_party/mbedtls/library\rsa_internal.c ****                 goto cleanup;
 292              		.loc 1 168 0
 293 0254 0410A0E1 		mov	r1, r4
 294 0258 0730A0E1 		mov	r3, r7
 295 025c 0620A0E1 		mov	r2, r6
 296 0260 0900A0E1 		mov	r0, r9
 297 0264 FEFFFFEB 		bl	mbedtls_mpi_div_mpi
 298              	.LVL47:
 299 0268 0040A0E1 		mov	r4, r0
 300              	.LVL48:
 301 026c A9FFFFEA 		b	.L5
 302              	.LVL49:
 303              	.L12:
 172:D:/Work/DeviceTester/amazon-freertos/lib/third_party/mbedtls/library\rsa_internal.c ****             MBEDTLS_MPI_CHK( mbedtls_mpi_mul_mpi( &K, &K, &K ) );
 304              		.loc 1 172 0
 305 0270 14108DE2 		add	r1, sp, #20
 306 0274 0120A0E3 		mov	r2, #1
 307 0278 0100A0E1 		mov	r0, r1
 308 027c FEFFFFEB 		bl	mbedtls_mpi_sub_int
 309              	.LVL50:
 310 0280 004050E2 		subs	r4, r0, #0
 311 0284 A3FFFF1A 		bne	.L5
 173:D:/Work/DeviceTester/amazon-freertos/lib/third_party/mbedtls/library\rsa_internal.c ****             MBEDTLS_MPI_CHK( mbedtls_mpi_mod_mpi( &K, &K, N ) );
 312              		.loc 1 173 0
 313 0288 14208DE2 		add	r2, sp, #20
 314 028c 0210A0E1 		mov	r1, r2
 315 0290 0200A0E1 		mov	r0, r2
 316              	.LVL51:
 317 0294 FEFFFFEB 		bl	mbedtls_mpi_mul_mpi
 318              	.LVL52:
 319 0298 004050E2 		subs	r4, r0, #0
 320 029c 9DFFFF1A 		bne	.L5
 174:D:/Work/DeviceTester/amazon-freertos/lib/third_party/mbedtls/library\rsa_internal.c ****         }
 321              		.loc 1 174 0
 322 02a0 14108DE2 		add	r1, sp, #20
 323 02a4 0620A0E1 		mov	r2, r6
 324 02a8 0100A0E1 		mov	r0, r1
 325              	.LVL53:
 326 02ac FEFFFFEB 		bl	mbedtls_mpi_mod_mpi
 327              	.LVL54:
 328 02b0 004050E2 		subs	r4, r0, #0
 329 02b4 97FFFF1A 		bne	.L5
 150:D:/Work/DeviceTester/amazon-freertos/lib/third_party/mbedtls/library\rsa_internal.c ****         {
 330              		.loc 1 150 0 discriminator 2
 331 02b8 018088E2 		add	r8, r8, #1
 332              	.LVL55:
 333 02bc 7880FFE6 		uxth	r8, r8
 334              	.LVL56:
 335 02c0 08005AE1 		cmp	r10, r8
 336 02c4 C1FFFF2A 		bcs	.L13
 337 02c8 C5FFFFEA 		b	.L14
 338              	.L19:
 339              		.align	2
 340              	.L18:
 341 02cc 00000000 		.word	.LANCHOR0
 342              		.cfi_endproc
 343              	.LFE0:
 345              		.section	.text.mbedtls_rsa_deduce_private_exponent,"ax",%progbits
 346              		.align	2
 347              		.global	mbedtls_rsa_deduce_private_exponent
 348              		.syntax unified
 349              		.arm
 350              		.fpu neon
 352              	mbedtls_rsa_deduce_private_exponent:
 353              	.LFB1:
 198:D:/Work/DeviceTester/amazon-freertos/lib/third_party/mbedtls/library\rsa_internal.c **** 
 199:D:/Work/DeviceTester/amazon-freertos/lib/third_party/mbedtls/library\rsa_internal.c **** /*
 200:D:/Work/DeviceTester/amazon-freertos/lib/third_party/mbedtls/library\rsa_internal.c ****  * Given P, Q and the public exponent E, deduce D.
 201:D:/Work/DeviceTester/amazon-freertos/lib/third_party/mbedtls/library\rsa_internal.c ****  * This is essentially a modular inversion.
 202:D:/Work/DeviceTester/amazon-freertos/lib/third_party/mbedtls/library\rsa_internal.c ****  */
 203:D:/Work/DeviceTester/amazon-freertos/lib/third_party/mbedtls/library\rsa_internal.c **** int mbedtls_rsa_deduce_private_exponent( mbedtls_mpi const *P,
 204:D:/Work/DeviceTester/amazon-freertos/lib/third_party/mbedtls/library\rsa_internal.c ****                                          mbedtls_mpi const *Q,
 205:D:/Work/DeviceTester/amazon-freertos/lib/third_party/mbedtls/library\rsa_internal.c ****                                          mbedtls_mpi const *E,
 206:D:/Work/DeviceTester/amazon-freertos/lib/third_party/mbedtls/library\rsa_internal.c ****                                          mbedtls_mpi *D )
 207:D:/Work/DeviceTester/amazon-freertos/lib/third_party/mbedtls/library\rsa_internal.c **** {
 354              		.loc 1 207 0
 355              		.cfi_startproc
 356              		@ args = 0, pretend = 0, frame = 24
 357              		@ frame_needed = 0, uses_anonymous_args = 0
 358              	.LVL57:
 359 0000 F0412DE9 		push	{r4, r5, r6, r7, r8, lr}
 360              		.cfi_def_cfa_offset 24
 361              		.cfi_offset 4, -24
 362              		.cfi_offset 5, -20
 363              		.cfi_offset 6, -16
 364              		.cfi_offset 7, -12
 365              		.cfi_offset 8, -8
 366              		.cfi_offset 14, -4
 208:D:/Work/DeviceTester/amazon-freertos/lib/third_party/mbedtls/library\rsa_internal.c ****     int ret = 0;
 209:D:/Work/DeviceTester/amazon-freertos/lib/third_party/mbedtls/library\rsa_internal.c ****     mbedtls_mpi K, L;
 210:D:/Work/DeviceTester/amazon-freertos/lib/third_party/mbedtls/library\rsa_internal.c **** 
 211:D:/Work/DeviceTester/amazon-freertos/lib/third_party/mbedtls/library\rsa_internal.c ****     if( D == NULL || mbedtls_mpi_cmp_int( D, 0 ) != 0 )
 367              		.loc 1 211 0
 368 0004 005053E2 		subs	r5, r3, #0
 207:D:/Work/DeviceTester/amazon-freertos/lib/third_party/mbedtls/library\rsa_internal.c ****     int ret = 0;
 369              		.loc 1 207 0
 370 0008 18D04DE2 		sub	sp, sp, #24
 371              		.cfi_def_cfa_offset 48
 372              		.loc 1 211 0
 373 000c 0300001A 		bne	.L21
 374              	.LVL58:
 375              	.L23:
 212:D:/Work/DeviceTester/amazon-freertos/lib/third_party/mbedtls/library\rsa_internal.c ****         return( MBEDTLS_ERR_MPI_BAD_INPUT_DATA );
 376              		.loc 1 212 0
 377 0010 0340E0E3 		mvn	r4, #3
 378              	.LVL59:
 379              	.L20:
 213:D:/Work/DeviceTester/amazon-freertos/lib/third_party/mbedtls/library\rsa_internal.c **** 
 214:D:/Work/DeviceTester/amazon-freertos/lib/third_party/mbedtls/library\rsa_internal.c ****     if( mbedtls_mpi_cmp_int( P, 1 ) <= 0 ||
 215:D:/Work/DeviceTester/amazon-freertos/lib/third_party/mbedtls/library\rsa_internal.c ****         mbedtls_mpi_cmp_int( Q, 1 ) <= 0 ||
 216:D:/Work/DeviceTester/amazon-freertos/lib/third_party/mbedtls/library\rsa_internal.c ****         mbedtls_mpi_cmp_int( E, 0 ) == 0 )
 217:D:/Work/DeviceTester/amazon-freertos/lib/third_party/mbedtls/library\rsa_internal.c ****     {
 218:D:/Work/DeviceTester/amazon-freertos/lib/third_party/mbedtls/library\rsa_internal.c ****         return( MBEDTLS_ERR_MPI_BAD_INPUT_DATA );
 219:D:/Work/DeviceTester/amazon-freertos/lib/third_party/mbedtls/library\rsa_internal.c ****     }
 220:D:/Work/DeviceTester/amazon-freertos/lib/third_party/mbedtls/library\rsa_internal.c **** 
 221:D:/Work/DeviceTester/amazon-freertos/lib/third_party/mbedtls/library\rsa_internal.c ****     mbedtls_mpi_init( &K );
 222:D:/Work/DeviceTester/amazon-freertos/lib/third_party/mbedtls/library\rsa_internal.c ****     mbedtls_mpi_init( &L );
 223:D:/Work/DeviceTester/amazon-freertos/lib/third_party/mbedtls/library\rsa_internal.c **** 
 224:D:/Work/DeviceTester/amazon-freertos/lib/third_party/mbedtls/library\rsa_internal.c ****     /* Temporarily put K := P-1 and L := Q-1 */
 225:D:/Work/DeviceTester/amazon-freertos/lib/third_party/mbedtls/library\rsa_internal.c ****     MBEDTLS_MPI_CHK( mbedtls_mpi_sub_int( &K, P, 1 ) );
 226:D:/Work/DeviceTester/amazon-freertos/lib/third_party/mbedtls/library\rsa_internal.c ****     MBEDTLS_MPI_CHK( mbedtls_mpi_sub_int( &L, Q, 1 ) );
 227:D:/Work/DeviceTester/amazon-freertos/lib/third_party/mbedtls/library\rsa_internal.c **** 
 228:D:/Work/DeviceTester/amazon-freertos/lib/third_party/mbedtls/library\rsa_internal.c ****     /* Temporarily put D := gcd(P-1, Q-1) */
 229:D:/Work/DeviceTester/amazon-freertos/lib/third_party/mbedtls/library\rsa_internal.c ****     MBEDTLS_MPI_CHK( mbedtls_mpi_gcd( D, &K, &L ) );
 230:D:/Work/DeviceTester/amazon-freertos/lib/third_party/mbedtls/library\rsa_internal.c **** 
 231:D:/Work/DeviceTester/amazon-freertos/lib/third_party/mbedtls/library\rsa_internal.c ****     /* K := LCM(P-1, Q-1) */
 232:D:/Work/DeviceTester/amazon-freertos/lib/third_party/mbedtls/library\rsa_internal.c ****     MBEDTLS_MPI_CHK( mbedtls_mpi_mul_mpi( &K, &K, &L ) );
 233:D:/Work/DeviceTester/amazon-freertos/lib/third_party/mbedtls/library\rsa_internal.c ****     MBEDTLS_MPI_CHK( mbedtls_mpi_div_mpi( &K, NULL, &K, D ) );
 234:D:/Work/DeviceTester/amazon-freertos/lib/third_party/mbedtls/library\rsa_internal.c **** 
 235:D:/Work/DeviceTester/amazon-freertos/lib/third_party/mbedtls/library\rsa_internal.c ****     /* Compute modular inverse of E in LCM(P-1, Q-1) */
 236:D:/Work/DeviceTester/amazon-freertos/lib/third_party/mbedtls/library\rsa_internal.c ****     MBEDTLS_MPI_CHK( mbedtls_mpi_inv_mod( D, E, &K ) );
 237:D:/Work/DeviceTester/amazon-freertos/lib/third_party/mbedtls/library\rsa_internal.c **** 
 238:D:/Work/DeviceTester/amazon-freertos/lib/third_party/mbedtls/library\rsa_internal.c **** cleanup:
 239:D:/Work/DeviceTester/amazon-freertos/lib/third_party/mbedtls/library\rsa_internal.c **** 
 240:D:/Work/DeviceTester/amazon-freertos/lib/third_party/mbedtls/library\rsa_internal.c ****     mbedtls_mpi_free( &K );
 241:D:/Work/DeviceTester/amazon-freertos/lib/third_party/mbedtls/library\rsa_internal.c ****     mbedtls_mpi_free( &L );
 242:D:/Work/DeviceTester/amazon-freertos/lib/third_party/mbedtls/library\rsa_internal.c **** 
 243:D:/Work/DeviceTester/amazon-freertos/lib/third_party/mbedtls/library\rsa_internal.c ****     return( ret );
 244:D:/Work/DeviceTester/amazon-freertos/lib/third_party/mbedtls/library\rsa_internal.c **** }
 380              		.loc 1 244 0
 381 0014 0400A0E1 		mov	r0, r4
 382 0018 18D08DE2 		add	sp, sp, #24
 383              		.cfi_remember_state
 384              		.cfi_def_cfa_offset 24
 385              		@ sp needed
 386 001c F081BDE8 		pop	{r4, r5, r6, r7, r8, pc}
 387              	.LVL60:
 388              	.L21:
 389              		.cfi_restore_state
 390 0020 0170A0E1 		mov	r7, r1
 391 0024 0040A0E1 		mov	r4, r0
 211:D:/Work/DeviceTester/amazon-freertos/lib/third_party/mbedtls/library\rsa_internal.c ****         return( MBEDTLS_ERR_MPI_BAD_INPUT_DATA );
 392              		.loc 1 211 0 discriminator 1
 393 0028 0010A0E3 		mov	r1, #0
 394              	.LVL61:
 395 002c 0500A0E1 		mov	r0, r5
 396              	.LVL62:
 397 0030 0260A0E1 		mov	r6, r2
 398 0034 FEFFFFEB 		bl	mbedtls_mpi_cmp_int
 399              	.LVL63:
 400 0038 008050E2 		subs	r8, r0, #0
 401 003c F3FFFF1A 		bne	.L23
 214:D:/Work/DeviceTester/amazon-freertos/lib/third_party/mbedtls/library\rsa_internal.c ****         mbedtls_mpi_cmp_int( Q, 1 ) <= 0 ||
 402              		.loc 1 214 0
 403 0040 0110A0E3 		mov	r1, #1
 404 0044 0400A0E1 		mov	r0, r4
 405 0048 FEFFFFEB 		bl	mbedtls_mpi_cmp_int
 406              	.LVL64:
 407 004c 000050E3 		cmp	r0, #0
 408 0050 EEFFFFDA 		ble	.L23
 215:D:/Work/DeviceTester/amazon-freertos/lib/third_party/mbedtls/library\rsa_internal.c ****         mbedtls_mpi_cmp_int( E, 0 ) == 0 )
 409              		.loc 1 215 0 discriminator 1
 410 0054 0110A0E3 		mov	r1, #1
 411 0058 0700A0E1 		mov	r0, r7
 412 005c FEFFFFEB 		bl	mbedtls_mpi_cmp_int
 413              	.LVL65:
 214:D:/Work/DeviceTester/amazon-freertos/lib/third_party/mbedtls/library\rsa_internal.c ****         mbedtls_mpi_cmp_int( Q, 1 ) <= 0 ||
 414              		.loc 1 214 0 discriminator 1
 415 0060 000050E3 		cmp	r0, #0
 416 0064 E9FFFFDA 		ble	.L23
 216:D:/Work/DeviceTester/amazon-freertos/lib/third_party/mbedtls/library\rsa_internal.c ****     {
 417              		.loc 1 216 0
 418 0068 0810A0E1 		mov	r1, r8
 419 006c 0600A0E1 		mov	r0, r6
 420 0070 FEFFFFEB 		bl	mbedtls_mpi_cmp_int
 421              	.LVL66:
 215:D:/Work/DeviceTester/amazon-freertos/lib/third_party/mbedtls/library\rsa_internal.c ****         mbedtls_mpi_cmp_int( E, 0 ) == 0 )
 422              		.loc 1 215 0
 423 0074 000050E3 		cmp	r0, #0
 424 0078 E4FFFF0A 		beq	.L23
 221:D:/Work/DeviceTester/amazon-freertos/lib/third_party/mbedtls/library\rsa_internal.c ****     mbedtls_mpi_init( &L );
 425              		.loc 1 221 0
 426 007c 0D00A0E1 		mov	r0, sp
 427 0080 FEFFFFEB 		bl	mbedtls_mpi_init
 428              	.LVL67:
 222:D:/Work/DeviceTester/amazon-freertos/lib/third_party/mbedtls/library\rsa_internal.c **** 
 429              		.loc 1 222 0
 430 0084 0C008DE2 		add	r0, sp, #12
 431 0088 FEFFFFEB 		bl	mbedtls_mpi_init
 432              	.LVL68:
 225:D:/Work/DeviceTester/amazon-freertos/lib/third_party/mbedtls/library\rsa_internal.c ****     MBEDTLS_MPI_CHK( mbedtls_mpi_sub_int( &L, Q, 1 ) );
 433              		.loc 1 225 0
 434 008c 0410A0E1 		mov	r1, r4
 435 0090 0120A0E3 		mov	r2, #1
 436 0094 0D00A0E1 		mov	r0, sp
 437 0098 FEFFFFEB 		bl	mbedtls_mpi_sub_int
 438              	.LVL69:
 439 009c 004050E2 		subs	r4, r0, #0
 440              	.LVL70:
 441 00a0 1D00001A 		bne	.L24
 226:D:/Work/DeviceTester/amazon-freertos/lib/third_party/mbedtls/library\rsa_internal.c **** 
 442              		.loc 1 226 0
 443 00a4 0120A0E3 		mov	r2, #1
 444 00a8 0710A0E1 		mov	r1, r7
 445 00ac 0C008DE2 		add	r0, sp, #12
 446              	.LVL71:
 447 00b0 FEFFFFEB 		bl	mbedtls_mpi_sub_int
 448              	.LVL72:
 449 00b4 004050E2 		subs	r4, r0, #0
 450 00b8 1700001A 		bne	.L24
 229:D:/Work/DeviceTester/amazon-freertos/lib/third_party/mbedtls/library\rsa_internal.c **** 
 451              		.loc 1 229 0
 452 00bc 0C208DE2 		add	r2, sp, #12
 453 00c0 0D10A0E1 		mov	r1, sp
 454 00c4 0500A0E1 		mov	r0, r5
 455              	.LVL73:
 456 00c8 FEFFFFEB 		bl	mbedtls_mpi_gcd
 457              	.LVL74:
 458 00cc 004050E2 		subs	r4, r0, #0
 459 00d0 1100001A 		bne	.L24
 232:D:/Work/DeviceTester/amazon-freertos/lib/third_party/mbedtls/library\rsa_internal.c ****     MBEDTLS_MPI_CHK( mbedtls_mpi_div_mpi( &K, NULL, &K, D ) );
 460              		.loc 1 232 0
 461 00d4 0C208DE2 		add	r2, sp, #12
 462 00d8 0D10A0E1 		mov	r1, sp
 463 00dc 0D00A0E1 		mov	r0, sp
 464              	.LVL75:
 465 00e0 FEFFFFEB 		bl	mbedtls_mpi_mul_mpi
 466              	.LVL76:
 467 00e4 004050E2 		subs	r4, r0, #0
 468 00e8 0B00001A 		bne	.L24
 233:D:/Work/DeviceTester/amazon-freertos/lib/third_party/mbedtls/library\rsa_internal.c **** 
 469              		.loc 1 233 0
 470 00ec 0410A0E1 		mov	r1, r4
 471 00f0 0530A0E1 		mov	r3, r5
 472 00f4 0D20A0E1 		mov	r2, sp
 473 00f8 0D00A0E1 		mov	r0, sp
 474              	.LVL77:
 475 00fc FEFFFFEB 		bl	mbedtls_mpi_div_mpi
 476              	.LVL78:
 477 0100 004050E2 		subs	r4, r0, #0
 478 0104 0400001A 		bne	.L24
 236:D:/Work/DeviceTester/amazon-freertos/lib/third_party/mbedtls/library\rsa_internal.c **** 
 479              		.loc 1 236 0
 480 0108 0D20A0E1 		mov	r2, sp
 481 010c 0610A0E1 		mov	r1, r6
 482 0110 0500A0E1 		mov	r0, r5
 483              	.LVL79:
 484 0114 FEFFFFEB 		bl	mbedtls_mpi_inv_mod
 485              	.LVL80:
 486 0118 0040A0E1 		mov	r4, r0
 487              	.LVL81:
 488              	.L24:
 240:D:/Work/DeviceTester/amazon-freertos/lib/third_party/mbedtls/library\rsa_internal.c ****     mbedtls_mpi_free( &L );
 489              		.loc 1 240 0
 490 011c 0D00A0E1 		mov	r0, sp
 491              	.LVL82:
 492 0120 FEFFFFEB 		bl	mbedtls_mpi_free
 493              	.LVL83:
 241:D:/Work/DeviceTester/amazon-freertos/lib/third_party/mbedtls/library\rsa_internal.c **** 
 494              		.loc 1 241 0
 495 0124 0C008DE2 		add	r0, sp, #12
 496 0128 FEFFFFEB 		bl	mbedtls_mpi_free
 497              	.LVL84:
 243:D:/Work/DeviceTester/amazon-freertos/lib/third_party/mbedtls/library\rsa_internal.c **** }
 498              		.loc 1 243 0
 499 012c B8FFFFEA 		b	.L20
 500              		.cfi_endproc
 501              	.LFE1:
 503              		.section	.text.mbedtls_rsa_validate_crt,"ax",%progbits
 504              		.align	2
 505              		.global	mbedtls_rsa_validate_crt
 506              		.syntax unified
 507              		.arm
 508              		.fpu neon
 510              	mbedtls_rsa_validate_crt:
 511              	.LFB2:
 245:D:/Work/DeviceTester/amazon-freertos/lib/third_party/mbedtls/library\rsa_internal.c **** 
 246:D:/Work/DeviceTester/amazon-freertos/lib/third_party/mbedtls/library\rsa_internal.c **** /*
 247:D:/Work/DeviceTester/amazon-freertos/lib/third_party/mbedtls/library\rsa_internal.c ****  * Check that RSA CRT parameters are in accordance with core parameters.
 248:D:/Work/DeviceTester/amazon-freertos/lib/third_party/mbedtls/library\rsa_internal.c ****  */
 249:D:/Work/DeviceTester/amazon-freertos/lib/third_party/mbedtls/library\rsa_internal.c **** int mbedtls_rsa_validate_crt( const mbedtls_mpi *P,  const mbedtls_mpi *Q,
 250:D:/Work/DeviceTester/amazon-freertos/lib/third_party/mbedtls/library\rsa_internal.c ****                               const mbedtls_mpi *D,  const mbedtls_mpi *DP,
 251:D:/Work/DeviceTester/amazon-freertos/lib/third_party/mbedtls/library\rsa_internal.c ****                               const mbedtls_mpi *DQ, const mbedtls_mpi *QP )
 252:D:/Work/DeviceTester/amazon-freertos/lib/third_party/mbedtls/library\rsa_internal.c **** {
 512              		.loc 1 252 0
 513              		.cfi_startproc
 514              		@ args = 8, pretend = 0, frame = 24
 515              		@ frame_needed = 0, uses_anonymous_args = 0
 516              	.LVL85:
 517 0000 F0472DE9 		push	{r4, r5, r6, r7, r8, r9, r10, lr}
 518              		.cfi_def_cfa_offset 32
 519              		.cfi_offset 4, -32
 520              		.cfi_offset 5, -28
 521              		.cfi_offset 6, -24
 522              		.cfi_offset 7, -20
 523              		.cfi_offset 8, -16
 524              		.cfi_offset 9, -12
 525              		.cfi_offset 10, -8
 526              		.cfi_offset 14, -4
 527 0004 18D04DE2 		sub	sp, sp, #24
 528              		.cfi_def_cfa_offset 56
 529              		.loc 1 252 0
 530 0008 0050A0E1 		mov	r5, r0
 253:D:/Work/DeviceTester/amazon-freertos/lib/third_party/mbedtls/library\rsa_internal.c ****     int ret = 0;
 254:D:/Work/DeviceTester/amazon-freertos/lib/third_party/mbedtls/library\rsa_internal.c **** 
 255:D:/Work/DeviceTester/amazon-freertos/lib/third_party/mbedtls/library\rsa_internal.c ****     mbedtls_mpi K, L;
 256:D:/Work/DeviceTester/amazon-freertos/lib/third_party/mbedtls/library\rsa_internal.c ****     mbedtls_mpi_init( &K );
 531              		.loc 1 256 0
 532 000c 0D00A0E1 		mov	r0, sp
 533              	.LVL86:
 252:D:/Work/DeviceTester/amazon-freertos/lib/third_party/mbedtls/library\rsa_internal.c ****     int ret = 0;
 534              		.loc 1 252 0
 535 0010 03A0A0E1 		mov	r10, r3
 536 0014 0160A0E1 		mov	r6, r1
 537 0018 0290A0E1 		mov	r9, r2
 538 001c 38809DE5 		ldr	r8, [sp, #56]
 539 0020 3C709DE5 		ldr	r7, [sp, #60]
 540              		.loc 1 256 0
 541 0024 FEFFFFEB 		bl	mbedtls_mpi_init
 542              	.LVL87:
 257:D:/Work/DeviceTester/amazon-freertos/lib/third_party/mbedtls/library\rsa_internal.c ****     mbedtls_mpi_init( &L );
 543              		.loc 1 257 0
 544 0028 0C008DE2 		add	r0, sp, #12
 545 002c FEFFFFEB 		bl	mbedtls_mpi_init
 546              	.LVL88:
 258:D:/Work/DeviceTester/amazon-freertos/lib/third_party/mbedtls/library\rsa_internal.c **** 
 259:D:/Work/DeviceTester/amazon-freertos/lib/third_party/mbedtls/library\rsa_internal.c ****     /* Check that DP - D == 0 mod P - 1 */
 260:D:/Work/DeviceTester/amazon-freertos/lib/third_party/mbedtls/library\rsa_internal.c ****     if( DP != NULL )
 547              		.loc 1 260 0
 548 0030 00005AE3 		cmp	r10, #0
 549 0034 0500001A 		bne	.L30
 550              	.LVL89:
 551              	.L36:
 261:D:/Work/DeviceTester/amazon-freertos/lib/third_party/mbedtls/library\rsa_internal.c ****     {
 262:D:/Work/DeviceTester/amazon-freertos/lib/third_party/mbedtls/library\rsa_internal.c ****         if( P == NULL )
 263:D:/Work/DeviceTester/amazon-freertos/lib/third_party/mbedtls/library\rsa_internal.c ****         {
 264:D:/Work/DeviceTester/amazon-freertos/lib/third_party/mbedtls/library\rsa_internal.c ****             ret = MBEDTLS_ERR_RSA_BAD_INPUT_DATA;
 265:D:/Work/DeviceTester/amazon-freertos/lib/third_party/mbedtls/library\rsa_internal.c ****             goto cleanup;
 266:D:/Work/DeviceTester/amazon-freertos/lib/third_party/mbedtls/library\rsa_internal.c ****         }
 267:D:/Work/DeviceTester/amazon-freertos/lib/third_party/mbedtls/library\rsa_internal.c **** 
 268:D:/Work/DeviceTester/amazon-freertos/lib/third_party/mbedtls/library\rsa_internal.c ****         MBEDTLS_MPI_CHK( mbedtls_mpi_sub_int( &K, P, 1 ) );
 269:D:/Work/DeviceTester/amazon-freertos/lib/third_party/mbedtls/library\rsa_internal.c ****         MBEDTLS_MPI_CHK( mbedtls_mpi_sub_mpi( &L, DP, D ) );
 270:D:/Work/DeviceTester/amazon-freertos/lib/third_party/mbedtls/library\rsa_internal.c ****         MBEDTLS_MPI_CHK( mbedtls_mpi_mod_mpi( &L, &L, &K ) );
 271:D:/Work/DeviceTester/amazon-freertos/lib/third_party/mbedtls/library\rsa_internal.c **** 
 272:D:/Work/DeviceTester/amazon-freertos/lib/third_party/mbedtls/library\rsa_internal.c ****         if( mbedtls_mpi_cmp_int( &L, 0 ) != 0 )
 273:D:/Work/DeviceTester/amazon-freertos/lib/third_party/mbedtls/library\rsa_internal.c ****         {
 274:D:/Work/DeviceTester/amazon-freertos/lib/third_party/mbedtls/library\rsa_internal.c ****             ret = MBEDTLS_ERR_RSA_KEY_CHECK_FAILED;
 275:D:/Work/DeviceTester/amazon-freertos/lib/third_party/mbedtls/library\rsa_internal.c ****             goto cleanup;
 276:D:/Work/DeviceTester/amazon-freertos/lib/third_party/mbedtls/library\rsa_internal.c ****         }
 277:D:/Work/DeviceTester/amazon-freertos/lib/third_party/mbedtls/library\rsa_internal.c ****     }
 278:D:/Work/DeviceTester/amazon-freertos/lib/third_party/mbedtls/library\rsa_internal.c **** 
 279:D:/Work/DeviceTester/amazon-freertos/lib/third_party/mbedtls/library\rsa_internal.c ****     /* Check that DQ - D == 0 mod Q - 1 */
 280:D:/Work/DeviceTester/amazon-freertos/lib/third_party/mbedtls/library\rsa_internal.c ****     if( DQ != NULL )
 552              		.loc 1 280 0
 553 0038 000058E3 		cmp	r8, #0
 554 003c 2C00001A 		bne	.L31
 555              	.LVL90:
 556              	.L32:
 281:D:/Work/DeviceTester/amazon-freertos/lib/third_party/mbedtls/library\rsa_internal.c ****     {
 282:D:/Work/DeviceTester/amazon-freertos/lib/third_party/mbedtls/library\rsa_internal.c ****         if( Q == NULL )
 283:D:/Work/DeviceTester/amazon-freertos/lib/third_party/mbedtls/library\rsa_internal.c ****         {
 284:D:/Work/DeviceTester/amazon-freertos/lib/third_party/mbedtls/library\rsa_internal.c ****             ret = MBEDTLS_ERR_RSA_BAD_INPUT_DATA;
 285:D:/Work/DeviceTester/amazon-freertos/lib/third_party/mbedtls/library\rsa_internal.c ****             goto cleanup;
 286:D:/Work/DeviceTester/amazon-freertos/lib/third_party/mbedtls/library\rsa_internal.c ****         }
 287:D:/Work/DeviceTester/amazon-freertos/lib/third_party/mbedtls/library\rsa_internal.c **** 
 288:D:/Work/DeviceTester/amazon-freertos/lib/third_party/mbedtls/library\rsa_internal.c ****         MBEDTLS_MPI_CHK( mbedtls_mpi_sub_int( &K, Q, 1 ) );
 289:D:/Work/DeviceTester/amazon-freertos/lib/third_party/mbedtls/library\rsa_internal.c ****         MBEDTLS_MPI_CHK( mbedtls_mpi_sub_mpi( &L, DQ, D ) );
 290:D:/Work/DeviceTester/amazon-freertos/lib/third_party/mbedtls/library\rsa_internal.c ****         MBEDTLS_MPI_CHK( mbedtls_mpi_mod_mpi( &L, &L, &K ) );
 291:D:/Work/DeviceTester/amazon-freertos/lib/third_party/mbedtls/library\rsa_internal.c **** 
 292:D:/Work/DeviceTester/amazon-freertos/lib/third_party/mbedtls/library\rsa_internal.c ****         if( mbedtls_mpi_cmp_int( &L, 0 ) != 0 )
 293:D:/Work/DeviceTester/amazon-freertos/lib/third_party/mbedtls/library\rsa_internal.c ****         {
 294:D:/Work/DeviceTester/amazon-freertos/lib/third_party/mbedtls/library\rsa_internal.c ****             ret = MBEDTLS_ERR_RSA_KEY_CHECK_FAILED;
 295:D:/Work/DeviceTester/amazon-freertos/lib/third_party/mbedtls/library\rsa_internal.c ****             goto cleanup;
 296:D:/Work/DeviceTester/amazon-freertos/lib/third_party/mbedtls/library\rsa_internal.c ****         }
 297:D:/Work/DeviceTester/amazon-freertos/lib/third_party/mbedtls/library\rsa_internal.c ****     }
 298:D:/Work/DeviceTester/amazon-freertos/lib/third_party/mbedtls/library\rsa_internal.c **** 
 299:D:/Work/DeviceTester/amazon-freertos/lib/third_party/mbedtls/library\rsa_internal.c ****     /* Check that QP * Q - 1 == 0 mod P */
 300:D:/Work/DeviceTester/amazon-freertos/lib/third_party/mbedtls/library\rsa_internal.c ****     if( QP != NULL )
 557              		.loc 1 300 0
 558 0040 000057E3 		cmp	r7, #0
 559 0044 4400001A 		bne	.L37
 560              	.LVL91:
 561              	.L38:
 301:D:/Work/DeviceTester/amazon-freertos/lib/third_party/mbedtls/library\rsa_internal.c ****     {
 302:D:/Work/DeviceTester/amazon-freertos/lib/third_party/mbedtls/library\rsa_internal.c ****         if( P == NULL || Q == NULL )
 303:D:/Work/DeviceTester/amazon-freertos/lib/third_party/mbedtls/library\rsa_internal.c ****         {
 304:D:/Work/DeviceTester/amazon-freertos/lib/third_party/mbedtls/library\rsa_internal.c ****             ret = MBEDTLS_ERR_RSA_BAD_INPUT_DATA;
 305:D:/Work/DeviceTester/amazon-freertos/lib/third_party/mbedtls/library\rsa_internal.c ****             goto cleanup;
 306:D:/Work/DeviceTester/amazon-freertos/lib/third_party/mbedtls/library\rsa_internal.c ****         }
 307:D:/Work/DeviceTester/amazon-freertos/lib/third_party/mbedtls/library\rsa_internal.c **** 
 308:D:/Work/DeviceTester/amazon-freertos/lib/third_party/mbedtls/library\rsa_internal.c ****         MBEDTLS_MPI_CHK( mbedtls_mpi_mul_mpi( &K, QP, Q ) );
 309:D:/Work/DeviceTester/amazon-freertos/lib/third_party/mbedtls/library\rsa_internal.c ****         MBEDTLS_MPI_CHK( mbedtls_mpi_sub_int( &K, &K, 1 ) );
 310:D:/Work/DeviceTester/amazon-freertos/lib/third_party/mbedtls/library\rsa_internal.c ****         MBEDTLS_MPI_CHK( mbedtls_mpi_mod_mpi( &K, &K, P ) );
 311:D:/Work/DeviceTester/amazon-freertos/lib/third_party/mbedtls/library\rsa_internal.c ****         if( mbedtls_mpi_cmp_int( &K, 0 ) != 0 )
 312:D:/Work/DeviceTester/amazon-freertos/lib/third_party/mbedtls/library\rsa_internal.c ****         {
 313:D:/Work/DeviceTester/amazon-freertos/lib/third_party/mbedtls/library\rsa_internal.c ****             ret = MBEDTLS_ERR_RSA_KEY_CHECK_FAILED;
 562              		.loc 1 313 0
 563 0048 0040A0E3 		mov	r4, #0
 564 004c 020000EA 		b	.L34
 565              	.LVL92:
 566              	.L30:
 262:D:/Work/DeviceTester/amazon-freertos/lib/third_party/mbedtls/library\rsa_internal.c ****         {
 567              		.loc 1 262 0
 568 0050 000055E3 		cmp	r5, #0
 569 0054 0D00001A 		bne	.L33
 570              	.L39:
 264:D:/Work/DeviceTester/amazon-freertos/lib/third_party/mbedtls/library\rsa_internal.c ****             goto cleanup;
 571              		.loc 1 264 0
 572 0058 68419FE5 		ldr	r4, .L51
 573              	.LVL93:
 574              	.L34:
 314:D:/Work/DeviceTester/amazon-freertos/lib/third_party/mbedtls/library\rsa_internal.c ****             goto cleanup;
 315:D:/Work/DeviceTester/amazon-freertos/lib/third_party/mbedtls/library\rsa_internal.c ****         }
 316:D:/Work/DeviceTester/amazon-freertos/lib/third_party/mbedtls/library\rsa_internal.c ****     }
 317:D:/Work/DeviceTester/amazon-freertos/lib/third_party/mbedtls/library\rsa_internal.c **** 
 318:D:/Work/DeviceTester/amazon-freertos/lib/third_party/mbedtls/library\rsa_internal.c **** cleanup:
 319:D:/Work/DeviceTester/amazon-freertos/lib/third_party/mbedtls/library\rsa_internal.c **** 
 320:D:/Work/DeviceTester/amazon-freertos/lib/third_party/mbedtls/library\rsa_internal.c ****     /* Wrap MPI error codes by RSA check failure error code */
 321:D:/Work/DeviceTester/amazon-freertos/lib/third_party/mbedtls/library\rsa_internal.c ****     if( ret != 0 &&
 575              		.loc 1 321 0
 576 005c 000054E3 		cmp	r4, #0
 577 0060 420C7413 		cmnne	r4, #16896
 578 0064 0200000A 		beq	.L40
 322:D:/Work/DeviceTester/amazon-freertos/lib/third_party/mbedtls/library\rsa_internal.c ****         ret != MBEDTLS_ERR_RSA_KEY_CHECK_FAILED &&
 579              		.loc 1 322 0
 580 0068 58319FE5 		ldr	r3, .L51
 581 006c 030054E1 		cmp	r4, r3
 323:D:/Work/DeviceTester/amazon-freertos/lib/third_party/mbedtls/library\rsa_internal.c ****         ret != MBEDTLS_ERR_RSA_BAD_INPUT_DATA )
 324:D:/Work/DeviceTester/amazon-freertos/lib/third_party/mbedtls/library\rsa_internal.c ****     {
 325:D:/Work/DeviceTester/amazon-freertos/lib/third_party/mbedtls/library\rsa_internal.c ****         ret += MBEDTLS_ERR_RSA_KEY_CHECK_FAILED;
 582              		.loc 1 325 0
 583 0070 424C4412 		subne	r4, r4, #16896
 584              	.LVL94:
 585              	.L40:
 326:D:/Work/DeviceTester/amazon-freertos/lib/third_party/mbedtls/library\rsa_internal.c ****     }
 327:D:/Work/DeviceTester/amazon-freertos/lib/third_party/mbedtls/library\rsa_internal.c **** 
 328:D:/Work/DeviceTester/amazon-freertos/lib/third_party/mbedtls/library\rsa_internal.c ****     mbedtls_mpi_free( &K );
 586              		.loc 1 328 0
 587 0074 0D00A0E1 		mov	r0, sp
 588 0078 FEFFFFEB 		bl	mbedtls_mpi_free
 589              	.LVL95:
 329:D:/Work/DeviceTester/amazon-freertos/lib/third_party/mbedtls/library\rsa_internal.c ****     mbedtls_mpi_free( &L );
 590              		.loc 1 329 0
 591 007c 0C008DE2 		add	r0, sp, #12
 592 0080 FEFFFFEB 		bl	mbedtls_mpi_free
 593              	.LVL96:
 330:D:/Work/DeviceTester/amazon-freertos/lib/third_party/mbedtls/library\rsa_internal.c **** 
 331:D:/Work/DeviceTester/amazon-freertos/lib/third_party/mbedtls/library\rsa_internal.c ****     return( ret );
 332:D:/Work/DeviceTester/amazon-freertos/lib/third_party/mbedtls/library\rsa_internal.c **** }
 594              		.loc 1 332 0
 595 0084 0400A0E1 		mov	r0, r4
 596 0088 18D08DE2 		add	sp, sp, #24
 597              		.cfi_remember_state
 598              		.cfi_def_cfa_offset 32
 599              		@ sp needed
 600 008c F087BDE8 		pop	{r4, r5, r6, r7, r8, r9, r10, pc}
 601              	.LVL97:
 602              	.L33:
 603              		.cfi_restore_state
 268:D:/Work/DeviceTester/amazon-freertos/lib/third_party/mbedtls/library\rsa_internal.c ****         MBEDTLS_MPI_CHK( mbedtls_mpi_sub_mpi( &L, DP, D ) );
 604              		.loc 1 268 0
 605 0090 0120A0E3 		mov	r2, #1
 606 0094 0510A0E1 		mov	r1, r5
 607 0098 0D00A0E1 		mov	r0, sp
 608 009c FEFFFFEB 		bl	mbedtls_mpi_sub_int
 609              	.LVL98:
 610 00a0 004050E2 		subs	r4, r0, #0
 611 00a4 ECFFFF1A 		bne	.L34
 269:D:/Work/DeviceTester/amazon-freertos/lib/third_party/mbedtls/library\rsa_internal.c ****         MBEDTLS_MPI_CHK( mbedtls_mpi_mod_mpi( &L, &L, &K ) );
 612              		.loc 1 269 0
 613 00a8 0920A0E1 		mov	r2, r9
 614 00ac 0A10A0E1 		mov	r1, r10
 615 00b0 0C008DE2 		add	r0, sp, #12
 616              	.LVL99:
 617 00b4 FEFFFFEB 		bl	mbedtls_mpi_sub_mpi
 618              	.LVL100:
 619 00b8 004050E2 		subs	r4, r0, #0
 620 00bc E6FFFF1A 		bne	.L34
 270:D:/Work/DeviceTester/amazon-freertos/lib/third_party/mbedtls/library\rsa_internal.c **** 
 621              		.loc 1 270 0
 622 00c0 0C108DE2 		add	r1, sp, #12
 623 00c4 0D20A0E1 		mov	r2, sp
 624 00c8 0100A0E1 		mov	r0, r1
 625              	.LVL101:
 626 00cc FEFFFFEB 		bl	mbedtls_mpi_mod_mpi
 627              	.LVL102:
 628 00d0 004050E2 		subs	r4, r0, #0
 629 00d4 E0FFFF1A 		bne	.L34
 272:D:/Work/DeviceTester/amazon-freertos/lib/third_party/mbedtls/library\rsa_internal.c ****         {
 630              		.loc 1 272 0
 631 00d8 0410A0E1 		mov	r1, r4
 632 00dc 0C008DE2 		add	r0, sp, #12
 633              	.LVL103:
 634 00e0 FEFFFFEB 		bl	mbedtls_mpi_cmp_int
 635              	.LVL104:
 636 00e4 000050E3 		cmp	r0, #0
 637 00e8 D2FFFF0A 		beq	.L36
 638              	.L35:
 639              	.LVL105:
 313:D:/Work/DeviceTester/amazon-freertos/lib/third_party/mbedtls/library\rsa_internal.c ****             goto cleanup;
 640              		.loc 1 313 0
 641 00ec D8409FE5 		ldr	r4, .L51+4
 314:D:/Work/DeviceTester/amazon-freertos/lib/third_party/mbedtls/library\rsa_internal.c ****         }
 642              		.loc 1 314 0
 643 00f0 D9FFFFEA 		b	.L34
 644              	.LVL106:
 645              	.L31:
 282:D:/Work/DeviceTester/amazon-freertos/lib/third_party/mbedtls/library\rsa_internal.c ****         {
 646              		.loc 1 282 0
 647 00f4 000056E3 		cmp	r6, #0
 648 00f8 D6FFFF0A 		beq	.L39
 288:D:/Work/DeviceTester/amazon-freertos/lib/third_party/mbedtls/library\rsa_internal.c ****         MBEDTLS_MPI_CHK( mbedtls_mpi_sub_mpi( &L, DQ, D ) );
 649              		.loc 1 288 0
 650 00fc 0120A0E3 		mov	r2, #1
 651 0100 0610A0E1 		mov	r1, r6
 652 0104 0D00A0E1 		mov	r0, sp
 653 0108 FEFFFFEB 		bl	mbedtls_mpi_sub_int
 654              	.LVL107:
 655 010c 004050E2 		subs	r4, r0, #0
 656 0110 D1FFFF1A 		bne	.L34
 289:D:/Work/DeviceTester/amazon-freertos/lib/third_party/mbedtls/library\rsa_internal.c ****         MBEDTLS_MPI_CHK( mbedtls_mpi_mod_mpi( &L, &L, &K ) );
 657              		.loc 1 289 0
 658 0114 0920A0E1 		mov	r2, r9
 659 0118 0810A0E1 		mov	r1, r8
 660 011c 0C008DE2 		add	r0, sp, #12
 661              	.LVL108:
 662 0120 FEFFFFEB 		bl	mbedtls_mpi_sub_mpi
 663              	.LVL109:
 664 0124 004050E2 		subs	r4, r0, #0
 665 0128 CBFFFF1A 		bne	.L34
 290:D:/Work/DeviceTester/amazon-freertos/lib/third_party/mbedtls/library\rsa_internal.c **** 
 666              		.loc 1 290 0
 667 012c 0C108DE2 		add	r1, sp, #12
 668 0130 0D20A0E1 		mov	r2, sp
 669 0134 0100A0E1 		mov	r0, r1
 670              	.LVL110:
 671 0138 FEFFFFEB 		bl	mbedtls_mpi_mod_mpi
 672              	.LVL111:
 673 013c 004050E2 		subs	r4, r0, #0
 674 0140 C5FFFF1A 		bne	.L34
 292:D:/Work/DeviceTester/amazon-freertos/lib/third_party/mbedtls/library\rsa_internal.c ****         {
 675              		.loc 1 292 0
 676 0144 0410A0E1 		mov	r1, r4
 677 0148 0C008DE2 		add	r0, sp, #12
 678              	.LVL112:
 679 014c FEFFFFEB 		bl	mbedtls_mpi_cmp_int
 680              	.LVL113:
 681 0150 000050E3 		cmp	r0, #0
 682 0154 E4FFFF1A 		bne	.L35
 683 0158 B8FFFFEA 		b	.L32
 684              	.LVL114:
 685              	.L37:
 302:D:/Work/DeviceTester/amazon-freertos/lib/third_party/mbedtls/library\rsa_internal.c ****         {
 686              		.loc 1 302 0
 687 015c 000056E3 		cmp	r6, #0
 688 0160 00005513 		cmpne	r5, #0
 689 0164 BBFFFF0A 		beq	.L39
 308:D:/Work/DeviceTester/amazon-freertos/lib/third_party/mbedtls/library\rsa_internal.c ****         MBEDTLS_MPI_CHK( mbedtls_mpi_sub_int( &K, &K, 1 ) );
 690              		.loc 1 308 0
 691 0168 0620A0E1 		mov	r2, r6
 692 016c 0710A0E1 		mov	r1, r7
 693 0170 0D00A0E1 		mov	r0, sp
 694 0174 FEFFFFEB 		bl	mbedtls_mpi_mul_mpi
 695              	.LVL115:
 696 0178 004050E2 		subs	r4, r0, #0
 697 017c B6FFFF1A 		bne	.L34
 309:D:/Work/DeviceTester/amazon-freertos/lib/third_party/mbedtls/library\rsa_internal.c ****         MBEDTLS_MPI_CHK( mbedtls_mpi_mod_mpi( &K, &K, P ) );
 698              		.loc 1 309 0
 699 0180 0120A0E3 		mov	r2, #1
 700 0184 0D10A0E1 		mov	r1, sp
 701 0188 0D00A0E1 		mov	r0, sp
 702              	.LVL116:
 703 018c FEFFFFEB 		bl	mbedtls_mpi_sub_int
 704              	.LVL117:
 705 0190 004050E2 		subs	r4, r0, #0
 706 0194 B0FFFF1A 		bne	.L34
 310:D:/Work/DeviceTester/amazon-freertos/lib/third_party/mbedtls/library\rsa_internal.c ****         if( mbedtls_mpi_cmp_int( &K, 0 ) != 0 )
 707              		.loc 1 310 0
 708 0198 0520A0E1 		mov	r2, r5
 709 019c 0D10A0E1 		mov	r1, sp
 710 01a0 0D00A0E1 		mov	r0, sp
 711              	.LVL118:
 712 01a4 FEFFFFEB 		bl	mbedtls_mpi_mod_mpi
 713              	.LVL119:
 714 01a8 004050E2 		subs	r4, r0, #0
 715 01ac AAFFFF1A 		bne	.L34
 311:D:/Work/DeviceTester/amazon-freertos/lib/third_party/mbedtls/library\rsa_internal.c ****         {
 716              		.loc 1 311 0
 717 01b0 0410A0E1 		mov	r1, r4
 718 01b4 0D00A0E1 		mov	r0, sp
 719              	.LVL120:
 720 01b8 FEFFFFEB 		bl	mbedtls_mpi_cmp_int
 721              	.LVL121:
 722 01bc 000050E3 		cmp	r0, #0
 723 01c0 A0FFFF0A 		beq	.L38
 724 01c4 C8FFFFEA 		b	.L35
 725              	.L52:
 726              		.align	2
 727              	.L51:
 728 01c8 80BFFFFF 		.word	-16512
 729 01cc 00BEFFFF 		.word	-16896
 730              		.cfi_endproc
 731              	.LFE2:
 733              		.section	.text.mbedtls_rsa_validate_params,"ax",%progbits
 734              		.align	2
 735              		.global	mbedtls_rsa_validate_params
 736              		.syntax unified
 737              		.arm
 738              		.fpu neon
 740              	mbedtls_rsa_validate_params:
 741              	.LFB3:
 333:D:/Work/DeviceTester/amazon-freertos/lib/third_party/mbedtls/library\rsa_internal.c **** 
 334:D:/Work/DeviceTester/amazon-freertos/lib/third_party/mbedtls/library\rsa_internal.c **** /*
 335:D:/Work/DeviceTester/amazon-freertos/lib/third_party/mbedtls/library\rsa_internal.c ****  * Check that core RSA parameters are sane.
 336:D:/Work/DeviceTester/amazon-freertos/lib/third_party/mbedtls/library\rsa_internal.c ****  */
 337:D:/Work/DeviceTester/amazon-freertos/lib/third_party/mbedtls/library\rsa_internal.c **** int mbedtls_rsa_validate_params( const mbedtls_mpi *N, const mbedtls_mpi *P,
 338:D:/Work/DeviceTester/amazon-freertos/lib/third_party/mbedtls/library\rsa_internal.c ****                                  const mbedtls_mpi *Q, const mbedtls_mpi *D,
 339:D:/Work/DeviceTester/amazon-freertos/lib/third_party/mbedtls/library\rsa_internal.c ****                                  const mbedtls_mpi *E,
 340:D:/Work/DeviceTester/amazon-freertos/lib/third_party/mbedtls/library\rsa_internal.c ****                                  int (*f_rng)(void *, unsigned char *, size_t),
 341:D:/Work/DeviceTester/amazon-freertos/lib/third_party/mbedtls/library\rsa_internal.c ****                                  void *p_rng )
 342:D:/Work/DeviceTester/amazon-freertos/lib/third_party/mbedtls/library\rsa_internal.c **** {
 742              		.loc 1 342 0
 743              		.cfi_startproc
 744              		@ args = 12, pretend = 0, frame = 32
 745              		@ frame_needed = 0, uses_anonymous_args = 0
 746              	.LVL122:
 747 0000 F04F2DE9 		push	{r4, r5, r6, r7, r8, r9, r10, fp, lr}
 748              		.cfi_def_cfa_offset 36
 749              		.cfi_offset 4, -36
 750              		.cfi_offset 5, -32
 751              		.cfi_offset 6, -28
 752              		.cfi_offset 7, -24
 753              		.cfi_offset 8, -20
 754              		.cfi_offset 9, -16
 755              		.cfi_offset 10, -12
 756              		.cfi_offset 11, -8
 757              		.cfi_offset 14, -4
 758 0004 24D04DE2 		sub	sp, sp, #36
 759              		.cfi_def_cfa_offset 72
 760              		.loc 1 342 0
 761 0008 4C409DE5 		ldr	r4, [sp, #76]
 762 000c 00A0A0E1 		mov	r10, r0
 343:D:/Work/DeviceTester/amazon-freertos/lib/third_party/mbedtls/library\rsa_internal.c ****     int ret = 0;
 344:D:/Work/DeviceTester/amazon-freertos/lib/third_party/mbedtls/library\rsa_internal.c ****     mbedtls_mpi K, L;
 345:D:/Work/DeviceTester/amazon-freertos/lib/third_party/mbedtls/library\rsa_internal.c **** 
 346:D:/Work/DeviceTester/amazon-freertos/lib/third_party/mbedtls/library\rsa_internal.c ****     mbedtls_mpi_init( &K );
 763              		.loc 1 346 0
 764 0010 08008DE2 		add	r0, sp, #8
 765              	.LVL123:
 342:D:/Work/DeviceTester/amazon-freertos/lib/third_party/mbedtls/library\rsa_internal.c ****     int ret = 0;
 766              		.loc 1 342 0
 767 0014 0190A0E1 		mov	r9, r1
 768 0018 0370A0E1 		mov	r7, r3
 769 001c 0260A0E1 		mov	r6, r2
 770 0020 48809DE5 		ldr	r8, [sp, #72]
 771              		.loc 1 346 0
 772 0024 FEFFFFEB 		bl	mbedtls_mpi_init
 773              	.LVL124:
 347:D:/Work/DeviceTester/amazon-freertos/lib/third_party/mbedtls/library\rsa_internal.c ****     mbedtls_mpi_init( &L );
 774              		.loc 1 347 0
 775 0028 14008DE2 		add	r0, sp, #20
 776 002c FEFFFFEB 		bl	mbedtls_mpi_init
 777              	.LVL125:
 348:D:/Work/DeviceTester/amazon-freertos/lib/third_party/mbedtls/library\rsa_internal.c **** 
 349:D:/Work/DeviceTester/amazon-freertos/lib/third_party/mbedtls/library\rsa_internal.c ****     /*
 350:D:/Work/DeviceTester/amazon-freertos/lib/third_party/mbedtls/library\rsa_internal.c ****      * Step 1: If PRNG provided, check that P and Q are prime
 351:D:/Work/DeviceTester/amazon-freertos/lib/third_party/mbedtls/library\rsa_internal.c ****      */
 352:D:/Work/DeviceTester/amazon-freertos/lib/third_party/mbedtls/library\rsa_internal.c **** 
 353:D:/Work/DeviceTester/amazon-freertos/lib/third_party/mbedtls/library\rsa_internal.c **** #if defined(MBEDTLS_GENPRIME)
 354:D:/Work/DeviceTester/amazon-freertos/lib/third_party/mbedtls/library\rsa_internal.c ****     if( f_rng != NULL && P != NULL &&
 778              		.loc 1 354 0
 779 0030 003094E2 		adds	r3, r4, #0
 780 0034 0130A013 		movne	r3, #1
 781 0038 005099E2 		adds	r5, r9, #0
 782 003c 0150A013 		movne	r5, #1
 783 0040 050013E1 		tst	r3, r5
 784 0044 6700001A 		bne	.L54
 785              	.LVL126:
 786              	.L58:
 355:D:/Work/DeviceTester/amazon-freertos/lib/third_party/mbedtls/library\rsa_internal.c ****         ( ret = mbedtls_mpi_is_prime( P, f_rng, p_rng ) ) != 0 )
 356:D:/Work/DeviceTester/amazon-freertos/lib/third_party/mbedtls/library\rsa_internal.c ****     {
 357:D:/Work/DeviceTester/amazon-freertos/lib/third_party/mbedtls/library\rsa_internal.c ****         ret = MBEDTLS_ERR_RSA_KEY_CHECK_FAILED;
 358:D:/Work/DeviceTester/amazon-freertos/lib/third_party/mbedtls/library\rsa_internal.c ****         goto cleanup;
 359:D:/Work/DeviceTester/amazon-freertos/lib/third_party/mbedtls/library\rsa_internal.c ****     }
 360:D:/Work/DeviceTester/amazon-freertos/lib/third_party/mbedtls/library\rsa_internal.c **** 
 361:D:/Work/DeviceTester/amazon-freertos/lib/third_party/mbedtls/library\rsa_internal.c ****     if( f_rng != NULL && Q != NULL &&
 787              		.loc 1 361 0
 788 0048 00B096E2 		adds	fp, r6, #0
 789 004c 01B0A013 		movne	fp, #1
 790 0050 0B0013E1 		tst	r3, fp
 791 0054 0500000A 		beq	.L56
 792              		.loc 1 361 0 is_stmt 0 discriminator 1
 793 0058 50209DE5 		ldr	r2, [sp, #80]
 794 005c 0410A0E1 		mov	r1, r4
 795 0060 0600A0E1 		mov	r0, r6
 796 0064 FEFFFFEB 		bl	mbedtls_mpi_is_prime
 797              	.LVL127:
 798 0068 000050E3 		cmp	r0, #0
 799 006c 6500001A 		bne	.L57
 800              	.LVL128:
 801              	.L56:
 362:D:/Work/DeviceTester/amazon-freertos/lib/third_party/mbedtls/library\rsa_internal.c ****         ( ret = mbedtls_mpi_is_prime( Q, f_rng, p_rng ) ) != 0 )
 363:D:/Work/DeviceTester/amazon-freertos/lib/third_party/mbedtls/library\rsa_internal.c ****     {
 364:D:/Work/DeviceTester/amazon-freertos/lib/third_party/mbedtls/library\rsa_internal.c ****         ret = MBEDTLS_ERR_RSA_KEY_CHECK_FAILED;
 365:D:/Work/DeviceTester/amazon-freertos/lib/third_party/mbedtls/library\rsa_internal.c ****         goto cleanup;
 366:D:/Work/DeviceTester/amazon-freertos/lib/third_party/mbedtls/library\rsa_internal.c ****     }
 367:D:/Work/DeviceTester/amazon-freertos/lib/third_party/mbedtls/library\rsa_internal.c **** #else
 368:D:/Work/DeviceTester/amazon-freertos/lib/third_party/mbedtls/library\rsa_internal.c ****     ((void) f_rng);
 369:D:/Work/DeviceTester/amazon-freertos/lib/third_party/mbedtls/library\rsa_internal.c ****     ((void) p_rng);
 370:D:/Work/DeviceTester/amazon-freertos/lib/third_party/mbedtls/library\rsa_internal.c **** #endif /* MBEDTLS_GENPRIME */
 371:D:/Work/DeviceTester/amazon-freertos/lib/third_party/mbedtls/library\rsa_internal.c **** 
 372:D:/Work/DeviceTester/amazon-freertos/lib/third_party/mbedtls/library\rsa_internal.c ****     /*
 373:D:/Work/DeviceTester/amazon-freertos/lib/third_party/mbedtls/library\rsa_internal.c ****      * Step 2: Check that 1 < N = P * Q
 374:D:/Work/DeviceTester/amazon-freertos/lib/third_party/mbedtls/library\rsa_internal.c ****      */
 375:D:/Work/DeviceTester/amazon-freertos/lib/third_party/mbedtls/library\rsa_internal.c **** 
 376:D:/Work/DeviceTester/amazon-freertos/lib/third_party/mbedtls/library\rsa_internal.c ****     if( P != NULL && Q != NULL && N != NULL )
 802              		.loc 1 376 0 is_stmt 1
 803 0070 0B5005E0 		and	r5, r5, fp
 804 0074 00B09AE2 		adds	fp, r10, #0
 805 0078 01B0A013 		movne	fp, #1
 806 007c 05001BE1 		tst	fp, r5
 807 0080 6200001A 		bne	.L59
 808              	.LVL129:
 809              	.L60:
 810 0084 000058E3 		cmp	r8, #0
 811 0088 00005713 		cmpne	r7, #0
 812 008c 0140A013 		movne	r4, #1
 813 0090 0040A003 		moveq	r4, #0
 377:D:/Work/DeviceTester/amazon-freertos/lib/third_party/mbedtls/library\rsa_internal.c ****     {
 378:D:/Work/DeviceTester/amazon-freertos/lib/third_party/mbedtls/library\rsa_internal.c ****         MBEDTLS_MPI_CHK( mbedtls_mpi_mul_mpi( &K, P, Q ) );
 379:D:/Work/DeviceTester/amazon-freertos/lib/third_party/mbedtls/library\rsa_internal.c ****         if( mbedtls_mpi_cmp_int( N, 1 )  <= 0 ||
 380:D:/Work/DeviceTester/amazon-freertos/lib/third_party/mbedtls/library\rsa_internal.c ****             mbedtls_mpi_cmp_mpi( &K, N ) != 0 )
 381:D:/Work/DeviceTester/amazon-freertos/lib/third_party/mbedtls/library\rsa_internal.c ****         {
 382:D:/Work/DeviceTester/amazon-freertos/lib/third_party/mbedtls/library\rsa_internal.c ****             ret = MBEDTLS_ERR_RSA_KEY_CHECK_FAILED;
 383:D:/Work/DeviceTester/amazon-freertos/lib/third_party/mbedtls/library\rsa_internal.c ****             goto cleanup;
 384:D:/Work/DeviceTester/amazon-freertos/lib/third_party/mbedtls/library\rsa_internal.c ****         }
 385:D:/Work/DeviceTester/amazon-freertos/lib/third_party/mbedtls/library\rsa_internal.c ****     }
 386:D:/Work/DeviceTester/amazon-freertos/lib/third_party/mbedtls/library\rsa_internal.c **** 
 387:D:/Work/DeviceTester/amazon-freertos/lib/third_party/mbedtls/library\rsa_internal.c ****     /*
 388:D:/Work/DeviceTester/amazon-freertos/lib/third_party/mbedtls/library\rsa_internal.c ****      * Step 3: Check and 1 < D, E < N if present.
 389:D:/Work/DeviceTester/amazon-freertos/lib/third_party/mbedtls/library\rsa_internal.c ****      */
 390:D:/Work/DeviceTester/amazon-freertos/lib/third_party/mbedtls/library\rsa_internal.c **** 
 391:D:/Work/DeviceTester/amazon-freertos/lib/third_party/mbedtls/library\rsa_internal.c ****     if( N != NULL && D != NULL && E != NULL )
 814              		.loc 1 391 0
 815 0094 04001BE1 		tst	fp, r4
 816 0098 6D00001A 		bne	.L61
 817              	.L62:
 392:D:/Work/DeviceTester/amazon-freertos/lib/third_party/mbedtls/library\rsa_internal.c ****     {
 393:D:/Work/DeviceTester/amazon-freertos/lib/third_party/mbedtls/library\rsa_internal.c ****         if ( mbedtls_mpi_cmp_int( D, 1 ) <= 0 ||
 394:D:/Work/DeviceTester/amazon-freertos/lib/third_party/mbedtls/library\rsa_internal.c ****              mbedtls_mpi_cmp_int( E, 1 ) <= 0 ||
 395:D:/Work/DeviceTester/amazon-freertos/lib/third_party/mbedtls/library\rsa_internal.c ****              mbedtls_mpi_cmp_mpi( D, N ) >= 0 ||
 396:D:/Work/DeviceTester/amazon-freertos/lib/third_party/mbedtls/library\rsa_internal.c ****              mbedtls_mpi_cmp_mpi( E, N ) >= 0 )
 397:D:/Work/DeviceTester/amazon-freertos/lib/third_party/mbedtls/library\rsa_internal.c ****         {
 398:D:/Work/DeviceTester/amazon-freertos/lib/third_party/mbedtls/library\rsa_internal.c ****             ret = MBEDTLS_ERR_RSA_KEY_CHECK_FAILED;
 399:D:/Work/DeviceTester/amazon-freertos/lib/third_party/mbedtls/library\rsa_internal.c ****             goto cleanup;
 400:D:/Work/DeviceTester/amazon-freertos/lib/third_party/mbedtls/library\rsa_internal.c ****         }
 401:D:/Work/DeviceTester/amazon-freertos/lib/third_party/mbedtls/library\rsa_internal.c ****     }
 402:D:/Work/DeviceTester/amazon-freertos/lib/third_party/mbedtls/library\rsa_internal.c **** 
 403:D:/Work/DeviceTester/amazon-freertos/lib/third_party/mbedtls/library\rsa_internal.c ****     /*
 404:D:/Work/DeviceTester/amazon-freertos/lib/third_party/mbedtls/library\rsa_internal.c ****      * Step 4: Check that D, E are inverse modulo P-1 and Q-1
 405:D:/Work/DeviceTester/amazon-freertos/lib/third_party/mbedtls/library\rsa_internal.c ****      */
 406:D:/Work/DeviceTester/amazon-freertos/lib/third_party/mbedtls/library\rsa_internal.c **** 
 407:D:/Work/DeviceTester/amazon-freertos/lib/third_party/mbedtls/library\rsa_internal.c ****     if( P != NULL && Q != NULL && D != NULL && E != NULL )
 818              		.loc 1 407 0
 819 009c 000055E3 		cmp	r5, #0
 820 00a0 0540A001 		moveq	r4, r5
 821 00a4 4500000A 		beq	.L63
 822              		.loc 1 407 0 is_stmt 0 discriminator 1
 823 00a8 000054E3 		cmp	r4, #0
 824 00ac 4300000A 		beq	.L63
 408:D:/Work/DeviceTester/amazon-freertos/lib/third_party/mbedtls/library\rsa_internal.c ****     {
 409:D:/Work/DeviceTester/amazon-freertos/lib/third_party/mbedtls/library\rsa_internal.c ****         if( mbedtls_mpi_cmp_int( P, 1 ) <= 0 ||
 825              		.loc 1 409 0 is_stmt 1
 826 00b0 0110A0E3 		mov	r1, #1
 827 00b4 0900A0E1 		mov	r0, r9
 828 00b8 FEFFFFEB 		bl	mbedtls_mpi_cmp_int
 829              	.LVL130:
 830 00bc 000050E3 		cmp	r0, #0
 831 00c0 500000DA 		ble	.L57
 410:D:/Work/DeviceTester/amazon-freertos/lib/third_party/mbedtls/library\rsa_internal.c ****             mbedtls_mpi_cmp_int( Q, 1 ) <= 0 )
 832              		.loc 1 410 0 discriminator 1
 833 00c4 0110A0E3 		mov	r1, #1
 834 00c8 0600A0E1 		mov	r0, r6
 835 00cc FEFFFFEB 		bl	mbedtls_mpi_cmp_int
 836              	.LVL131:
 409:D:/Work/DeviceTester/amazon-freertos/lib/third_party/mbedtls/library\rsa_internal.c ****             mbedtls_mpi_cmp_int( Q, 1 ) <= 0 )
 837              		.loc 1 409 0 discriminator 1
 838 00d0 000050E3 		cmp	r0, #0
 839 00d4 4B0000DA 		ble	.L57
 411:D:/Work/DeviceTester/amazon-freertos/lib/third_party/mbedtls/library\rsa_internal.c ****         {
 412:D:/Work/DeviceTester/amazon-freertos/lib/third_party/mbedtls/library\rsa_internal.c ****             ret = MBEDTLS_ERR_RSA_KEY_CHECK_FAILED;
 413:D:/Work/DeviceTester/amazon-freertos/lib/third_party/mbedtls/library\rsa_internal.c ****             goto cleanup;
 414:D:/Work/DeviceTester/amazon-freertos/lib/third_party/mbedtls/library\rsa_internal.c ****         }
 415:D:/Work/DeviceTester/amazon-freertos/lib/third_party/mbedtls/library\rsa_internal.c **** 
 416:D:/Work/DeviceTester/amazon-freertos/lib/third_party/mbedtls/library\rsa_internal.c ****         /* Compute DE-1 mod P-1 */
 417:D:/Work/DeviceTester/amazon-freertos/lib/third_party/mbedtls/library\rsa_internal.c ****         MBEDTLS_MPI_CHK( mbedtls_mpi_mul_mpi( &K, D, E ) );
 840              		.loc 1 417 0
 841 00d8 0820A0E1 		mov	r2, r8
 842 00dc 0710A0E1 		mov	r1, r7
 843 00e0 08008DE2 		add	r0, sp, #8
 844 00e4 FEFFFFEB 		bl	mbedtls_mpi_mul_mpi
 845              	.LVL132:
 846 00e8 004050E2 		subs	r4, r0, #0
 847 00ec 3300001A 		bne	.L63
 418:D:/Work/DeviceTester/amazon-freertos/lib/third_party/mbedtls/library\rsa_internal.c ****         MBEDTLS_MPI_CHK( mbedtls_mpi_sub_int( &K, &K, 1 ) );
 848              		.loc 1 418 0
 849 00f0 08108DE2 		add	r1, sp, #8
 850 00f4 0120A0E3 		mov	r2, #1
 851 00f8 0100A0E1 		mov	r0, r1
 852              	.LVL133:
 853 00fc FEFFFFEB 		bl	mbedtls_mpi_sub_int
 854              	.LVL134:
 855 0100 004050E2 		subs	r4, r0, #0
 856 0104 2D00001A 		bne	.L63
 419:D:/Work/DeviceTester/amazon-freertos/lib/third_party/mbedtls/library\rsa_internal.c ****         MBEDTLS_MPI_CHK( mbedtls_mpi_sub_int( &L, P, 1 ) );
 857              		.loc 1 419 0
 858 0108 0120A0E3 		mov	r2, #1
 859 010c 0910A0E1 		mov	r1, r9
 860 0110 14008DE2 		add	r0, sp, #20
 861              	.LVL135:
 862 0114 FEFFFFEB 		bl	mbedtls_mpi_sub_int
 863              	.LVL136:
 864 0118 004050E2 		subs	r4, r0, #0
 865 011c 2700001A 		bne	.L63
 420:D:/Work/DeviceTester/amazon-freertos/lib/third_party/mbedtls/library\rsa_internal.c ****         MBEDTLS_MPI_CHK( mbedtls_mpi_mod_mpi( &K, &K, &L ) );
 866              		.loc 1 420 0
 867 0120 08108DE2 		add	r1, sp, #8
 868 0124 14208DE2 		add	r2, sp, #20
 869 0128 0100A0E1 		mov	r0, r1
 870              	.LVL137:
 871 012c FEFFFFEB 		bl	mbedtls_mpi_mod_mpi
 872              	.LVL138:
 873 0130 004050E2 		subs	r4, r0, #0
 874 0134 2100001A 		bne	.L63
 421:D:/Work/DeviceTester/amazon-freertos/lib/third_party/mbedtls/library\rsa_internal.c ****         if( mbedtls_mpi_cmp_int( &K, 0 ) != 0 )
 875              		.loc 1 421 0
 876 0138 0410A0E1 		mov	r1, r4
 877 013c 08008DE2 		add	r0, sp, #8
 878              	.LVL139:
 879 0140 FEFFFFEB 		bl	mbedtls_mpi_cmp_int
 880              	.LVL140:
 881 0144 000050E3 		cmp	r0, #0
 882 0148 2E00001A 		bne	.L57
 422:D:/Work/DeviceTester/amazon-freertos/lib/third_party/mbedtls/library\rsa_internal.c ****         {
 423:D:/Work/DeviceTester/amazon-freertos/lib/third_party/mbedtls/library\rsa_internal.c ****             ret = MBEDTLS_ERR_RSA_KEY_CHECK_FAILED;
 424:D:/Work/DeviceTester/amazon-freertos/lib/third_party/mbedtls/library\rsa_internal.c ****             goto cleanup;
 425:D:/Work/DeviceTester/amazon-freertos/lib/third_party/mbedtls/library\rsa_internal.c ****         }
 426:D:/Work/DeviceTester/amazon-freertos/lib/third_party/mbedtls/library\rsa_internal.c **** 
 427:D:/Work/DeviceTester/amazon-freertos/lib/third_party/mbedtls/library\rsa_internal.c ****         /* Compute DE-1 mod Q-1 */
 428:D:/Work/DeviceTester/amazon-freertos/lib/third_party/mbedtls/library\rsa_internal.c ****         MBEDTLS_MPI_CHK( mbedtls_mpi_mul_mpi( &K, D, E ) );
 883              		.loc 1 428 0
 884 014c 0820A0E1 		mov	r2, r8
 885 0150 0710A0E1 		mov	r1, r7
 886 0154 08008DE2 		add	r0, sp, #8
 887 0158 FEFFFFEB 		bl	mbedtls_mpi_mul_mpi
 888              	.LVL141:
 889 015c 004050E2 		subs	r4, r0, #0
 890 0160 1600001A 		bne	.L63
 429:D:/Work/DeviceTester/amazon-freertos/lib/third_party/mbedtls/library\rsa_internal.c ****         MBEDTLS_MPI_CHK( mbedtls_mpi_sub_int( &K, &K, 1 ) );
 891              		.loc 1 429 0
 892 0164 08108DE2 		add	r1, sp, #8
 893 0168 0120A0E3 		mov	r2, #1
 894 016c 0100A0E1 		mov	r0, r1
 895              	.LVL142:
 896 0170 FEFFFFEB 		bl	mbedtls_mpi_sub_int
 897              	.LVL143:
 898 0174 004050E2 		subs	r4, r0, #0
 899 0178 1000001A 		bne	.L63
 430:D:/Work/DeviceTester/amazon-freertos/lib/third_party/mbedtls/library\rsa_internal.c ****         MBEDTLS_MPI_CHK( mbedtls_mpi_sub_int( &L, Q, 1 ) );
 900              		.loc 1 430 0
 901 017c 0120A0E3 		mov	r2, #1
 902 0180 0610A0E1 		mov	r1, r6
 903 0184 14008DE2 		add	r0, sp, #20
 904              	.LVL144:
 905 0188 FEFFFFEB 		bl	mbedtls_mpi_sub_int
 906              	.LVL145:
 907 018c 004050E2 		subs	r4, r0, #0
 908 0190 0A00001A 		bne	.L63
 431:D:/Work/DeviceTester/amazon-freertos/lib/third_party/mbedtls/library\rsa_internal.c ****         MBEDTLS_MPI_CHK( mbedtls_mpi_mod_mpi( &K, &K, &L ) );
 909              		.loc 1 431 0
 910 0194 08108DE2 		add	r1, sp, #8
 911 0198 14208DE2 		add	r2, sp, #20
 912 019c 0100A0E1 		mov	r0, r1
 913              	.LVL146:
 914 01a0 FEFFFFEB 		bl	mbedtls_mpi_mod_mpi
 915              	.LVL147:
 916 01a4 004050E2 		subs	r4, r0, #0
 917 01a8 0400001A 		bne	.L63
 432:D:/Work/DeviceTester/amazon-freertos/lib/third_party/mbedtls/library\rsa_internal.c ****         if( mbedtls_mpi_cmp_int( &K, 0 ) != 0 )
 918              		.loc 1 432 0
 919 01ac 0410A0E1 		mov	r1, r4
 920 01b0 08008DE2 		add	r0, sp, #8
 921              	.LVL148:
 922 01b4 FEFFFFEB 		bl	mbedtls_mpi_cmp_int
 923              	.LVL149:
 924 01b8 004050E2 		subs	r4, r0, #0
 925              	.LVL150:
 926 01bc 1100001A 		bne	.L57
 927              	.L63:
 928              	.LVL151:
 433:D:/Work/DeviceTester/amazon-freertos/lib/third_party/mbedtls/library\rsa_internal.c ****         {
 434:D:/Work/DeviceTester/amazon-freertos/lib/third_party/mbedtls/library\rsa_internal.c ****             ret = MBEDTLS_ERR_RSA_KEY_CHECK_FAILED;
 435:D:/Work/DeviceTester/amazon-freertos/lib/third_party/mbedtls/library\rsa_internal.c ****             goto cleanup;
 436:D:/Work/DeviceTester/amazon-freertos/lib/third_party/mbedtls/library\rsa_internal.c ****         }
 437:D:/Work/DeviceTester/amazon-freertos/lib/third_party/mbedtls/library\rsa_internal.c ****     }
 438:D:/Work/DeviceTester/amazon-freertos/lib/third_party/mbedtls/library\rsa_internal.c **** 
 439:D:/Work/DeviceTester/amazon-freertos/lib/third_party/mbedtls/library\rsa_internal.c **** cleanup:
 440:D:/Work/DeviceTester/amazon-freertos/lib/third_party/mbedtls/library\rsa_internal.c **** 
 441:D:/Work/DeviceTester/amazon-freertos/lib/third_party/mbedtls/library\rsa_internal.c ****     mbedtls_mpi_free( &K );
 929              		.loc 1 441 0
 930 01c0 08008DE2 		add	r0, sp, #8
 931 01c4 FEFFFFEB 		bl	mbedtls_mpi_free
 932              	.LVL152:
 442:D:/Work/DeviceTester/amazon-freertos/lib/third_party/mbedtls/library\rsa_internal.c ****     mbedtls_mpi_free( &L );
 933              		.loc 1 442 0
 934 01c8 14008DE2 		add	r0, sp, #20
 935 01cc FEFFFFEB 		bl	mbedtls_mpi_free
 936              	.LVL153:
 443:D:/Work/DeviceTester/amazon-freertos/lib/third_party/mbedtls/library\rsa_internal.c **** 
 444:D:/Work/DeviceTester/amazon-freertos/lib/third_party/mbedtls/library\rsa_internal.c ****     /* Wrap MPI error codes by RSA check failure error code */
 445:D:/Work/DeviceTester/amazon-freertos/lib/third_party/mbedtls/library\rsa_internal.c ****     if( ret != 0 && ret != MBEDTLS_ERR_RSA_KEY_CHECK_FAILED )
 937              		.loc 1 445 0
 938 01d0 000054E3 		cmp	r4, #0
 939 01d4 420C7413 		cmnne	r4, #16896
 446:D:/Work/DeviceTester/amazon-freertos/lib/third_party/mbedtls/library\rsa_internal.c ****     {
 447:D:/Work/DeviceTester/amazon-freertos/lib/third_party/mbedtls/library\rsa_internal.c ****         ret += MBEDTLS_ERR_RSA_KEY_CHECK_FAILED;
 940              		.loc 1 447 0
 941 01d8 424C4412 		subne	r4, r4, #16896
 942              	.LVL154:
 448:D:/Work/DeviceTester/amazon-freertos/lib/third_party/mbedtls/library\rsa_internal.c ****     }
 449:D:/Work/DeviceTester/amazon-freertos/lib/third_party/mbedtls/library\rsa_internal.c **** 
 450:D:/Work/DeviceTester/amazon-freertos/lib/third_party/mbedtls/library\rsa_internal.c ****     return( ret );
 451:D:/Work/DeviceTester/amazon-freertos/lib/third_party/mbedtls/library\rsa_internal.c **** }
 943              		.loc 1 451 0
 944 01dc 0400A0E1 		mov	r0, r4
 945 01e0 24D08DE2 		add	sp, sp, #36
 946              		.cfi_remember_state
 947              		.cfi_def_cfa_offset 36
 948              		@ sp needed
 949 01e4 F08FBDE8 		pop	{r4, r5, r6, r7, r8, r9, r10, fp, pc}
 950              	.LVL155:
 951              	.L54:
 952              		.cfi_restore_state
 354:D:/Work/DeviceTester/amazon-freertos/lib/third_party/mbedtls/library\rsa_internal.c ****         ( ret = mbedtls_mpi_is_prime( P, f_rng, p_rng ) ) != 0 )
 953              		.loc 1 354 0 discriminator 1
 954 01e8 50209DE5 		ldr	r2, [sp, #80]
 955 01ec 0410A0E1 		mov	r1, r4
 956 01f0 0900A0E1 		mov	r0, r9
 957 01f4 04308DE5 		str	r3, [sp, #4]
 958 01f8 FEFFFFEB 		bl	mbedtls_mpi_is_prime
 959              	.LVL156:
 960 01fc 000050E3 		cmp	r0, #0
 961 0200 04309D05 		ldreq	r3, [sp, #4]
 962 0204 8FFFFF0A 		beq	.L58
 963              	.LVL157:
 964              	.L57:
 434:D:/Work/DeviceTester/amazon-freertos/lib/third_party/mbedtls/library\rsa_internal.c ****             goto cleanup;
 965              		.loc 1 434 0
 966 0208 98409FE5 		ldr	r4, .L74
 435:D:/Work/DeviceTester/amazon-freertos/lib/third_party/mbedtls/library\rsa_internal.c ****         }
 967              		.loc 1 435 0
 968 020c EBFFFFEA 		b	.L63
 969              	.LVL158:
 970              	.L59:
 378:D:/Work/DeviceTester/amazon-freertos/lib/third_party/mbedtls/library\rsa_internal.c ****         if( mbedtls_mpi_cmp_int( N, 1 )  <= 0 ||
 971              		.loc 1 378 0
 972 0210 0620A0E1 		mov	r2, r6
 973 0214 0910A0E1 		mov	r1, r9
 974 0218 08008DE2 		add	r0, sp, #8
 975 021c FEFFFFEB 		bl	mbedtls_mpi_mul_mpi
 976              	.LVL159:
 977 0220 004050E2 		subs	r4, r0, #0
 978 0224 E5FFFF1A 		bne	.L63
 379:D:/Work/DeviceTester/amazon-freertos/lib/third_party/mbedtls/library\rsa_internal.c ****             mbedtls_mpi_cmp_mpi( &K, N ) != 0 )
 979              		.loc 1 379 0
 980 0228 0110A0E3 		mov	r1, #1
 981 022c 0A00A0E1 		mov	r0, r10
 982              	.LVL160:
 983 0230 FEFFFFEB 		bl	mbedtls_mpi_cmp_int
 984              	.LVL161:
 985 0234 000050E3 		cmp	r0, #0
 986 0238 F2FFFFDA 		ble	.L57
 380:D:/Work/DeviceTester/amazon-freertos/lib/third_party/mbedtls/library\rsa_internal.c ****         {
 987              		.loc 1 380 0 discriminator 1
 988 023c 0A10A0E1 		mov	r1, r10
 989 0240 08008DE2 		add	r0, sp, #8
 990 0244 FEFFFFEB 		bl	mbedtls_mpi_cmp_mpi
 991              	.LVL162:
 379:D:/Work/DeviceTester/amazon-freertos/lib/third_party/mbedtls/library\rsa_internal.c ****             mbedtls_mpi_cmp_mpi( &K, N ) != 0 )
 992              		.loc 1 379 0 discriminator 1
 993 0248 000050E3 		cmp	r0, #0
 994 024c EDFFFF1A 		bne	.L57
 995 0250 8BFFFFEA 		b	.L60
 996              	.LVL163:
 997              	.L61:
 393:D:/Work/DeviceTester/amazon-freertos/lib/third_party/mbedtls/library\rsa_internal.c ****              mbedtls_mpi_cmp_int( E, 1 ) <= 0 ||
 998              		.loc 1 393 0
 999 0254 0110A0E3 		mov	r1, #1
 1000 0258 0700A0E1 		mov	r0, r7
 1001 025c FEFFFFEB 		bl	mbedtls_mpi_cmp_int
 1002              	.LVL164:
 1003 0260 000050E3 		cmp	r0, #0
 1004 0264 E7FFFFDA 		ble	.L57
 394:D:/Work/DeviceTester/amazon-freertos/lib/third_party/mbedtls/library\rsa_internal.c ****              mbedtls_mpi_cmp_mpi( D, N ) >= 0 ||
 1005              		.loc 1 394 0 discriminator 1
 1006 0268 0110A0E3 		mov	r1, #1
 1007 026c 0800A0E1 		mov	r0, r8
 1008 0270 FEFFFFEB 		bl	mbedtls_mpi_cmp_int
 1009              	.LVL165:
 393:D:/Work/DeviceTester/amazon-freertos/lib/third_party/mbedtls/library\rsa_internal.c ****              mbedtls_mpi_cmp_int( E, 1 ) <= 0 ||
 1010              		.loc 1 393 0 discriminator 1
 1011 0274 000050E3 		cmp	r0, #0
 1012 0278 E2FFFFDA 		ble	.L57
 395:D:/Work/DeviceTester/amazon-freertos/lib/third_party/mbedtls/library\rsa_internal.c ****              mbedtls_mpi_cmp_mpi( E, N ) >= 0 )
 1013              		.loc 1 395 0
 1014 027c 0A10A0E1 		mov	r1, r10
 1015 0280 0700A0E1 		mov	r0, r7
 1016 0284 FEFFFFEB 		bl	mbedtls_mpi_cmp_mpi
 1017              	.LVL166:
 394:D:/Work/DeviceTester/amazon-freertos/lib/third_party/mbedtls/library\rsa_internal.c ****              mbedtls_mpi_cmp_mpi( D, N ) >= 0 ||
 1018              		.loc 1 394 0
 1019 0288 000050E3 		cmp	r0, #0
 1020 028c DDFFFFAA 		bge	.L57
 396:D:/Work/DeviceTester/amazon-freertos/lib/third_party/mbedtls/library\rsa_internal.c ****         {
 1021              		.loc 1 396 0
 1022 0290 0A10A0E1 		mov	r1, r10
 1023 0294 0800A0E1 		mov	r0, r8
 1024 0298 FEFFFFEB 		bl	mbedtls_mpi_cmp_mpi
 1025              	.LVL167:
 395:D:/Work/DeviceTester/amazon-freertos/lib/third_party/mbedtls/library\rsa_internal.c ****              mbedtls_mpi_cmp_mpi( E, N ) >= 0 )
 1026              		.loc 1 395 0
 1027 029c 000050E3 		cmp	r0, #0
 1028 02a0 D8FFFFAA 		bge	.L57
 1029 02a4 7CFFFFEA 		b	.L62
 1030              	.L75:
 1031              		.align	2
 1032              	.L74:
 1033 02a8 00BEFFFF 		.word	-16896
 1034              		.cfi_endproc
 1035              	.LFE3:
 1037              		.section	.text.mbedtls_rsa_deduce_crt,"ax",%progbits
 1038              		.align	2
 1039              		.global	mbedtls_rsa_deduce_crt
 1040              		.syntax unified
 1041              		.arm
 1042              		.fpu neon
 1044              	mbedtls_rsa_deduce_crt:
 1045              	.LFB4:
 452:D:/Work/DeviceTester/amazon-freertos/lib/third_party/mbedtls/library\rsa_internal.c **** 
 453:D:/Work/DeviceTester/amazon-freertos/lib/third_party/mbedtls/library\rsa_internal.c **** int mbedtls_rsa_deduce_crt( const mbedtls_mpi *P, const mbedtls_mpi *Q,
 454:D:/Work/DeviceTester/amazon-freertos/lib/third_party/mbedtls/library\rsa_internal.c ****                             const mbedtls_mpi *D, mbedtls_mpi *DP,
 455:D:/Work/DeviceTester/amazon-freertos/lib/third_party/mbedtls/library\rsa_internal.c ****                             mbedtls_mpi *DQ, mbedtls_mpi *QP )
 456:D:/Work/DeviceTester/amazon-freertos/lib/third_party/mbedtls/library\rsa_internal.c **** {
 1046              		.loc 1 456 0
 1047              		.cfi_startproc
 1048              		@ args = 8, pretend = 0, frame = 16
 1049              		@ frame_needed = 0, uses_anonymous_args = 0
 1050              	.LVL168:
 1051 0000 FF472DE9 		push	{r0, r1, r2, r3, r4, r5, r6, r7, r8, r9, r10, lr}
 1052              		.cfi_def_cfa_offset 48
 1053              		.cfi_offset 4, -32
 1054              		.cfi_offset 5, -28
 1055              		.cfi_offset 6, -24
 1056              		.cfi_offset 7, -20
 1057              		.cfi_offset 8, -16
 1058              		.cfi_offset 9, -12
 1059              		.cfi_offset 10, -8
 1060              		.cfi_offset 14, -4
 1061              		.loc 1 456 0
 1062 0004 03A0A0E1 		mov	r10, r3
 1063 0008 0070A0E1 		mov	r7, r0
 457:D:/Work/DeviceTester/amazon-freertos/lib/third_party/mbedtls/library\rsa_internal.c ****     int ret = 0;
 458:D:/Work/DeviceTester/amazon-freertos/lib/third_party/mbedtls/library\rsa_internal.c ****     mbedtls_mpi K;
 459:D:/Work/DeviceTester/amazon-freertos/lib/third_party/mbedtls/library\rsa_internal.c ****     mbedtls_mpi_init( &K );
 1064              		.loc 1 459 0
 1065 000c 04008DE2 		add	r0, sp, #4
 1066              	.LVL169:
 456:D:/Work/DeviceTester/amazon-freertos/lib/third_party/mbedtls/library\rsa_internal.c ****     int ret = 0;
 1067              		.loc 1 456 0
 1068 0010 0160A0E1 		mov	r6, r1
 1069 0014 0290A0E1 		mov	r9, r2
 1070 0018 30809DE5 		ldr	r8, [sp, #48]
 1071 001c 34509DE5 		ldr	r5, [sp, #52]
 1072              		.loc 1 459 0
 1073 0020 FEFFFFEB 		bl	mbedtls_mpi_init
 1074              	.LVL170:
 460:D:/Work/DeviceTester/amazon-freertos/lib/third_party/mbedtls/library\rsa_internal.c **** 
 461:D:/Work/DeviceTester/amazon-freertos/lib/third_party/mbedtls/library\rsa_internal.c ****     /* DP = D mod P-1 */
 462:D:/Work/DeviceTester/amazon-freertos/lib/third_party/mbedtls/library\rsa_internal.c ****     if( DP != NULL )
 1075              		.loc 1 462 0
 1076 0024 00005AE3 		cmp	r10, #0
 1077 0028 0A00001A 		bne	.L77
 1078              	.LVL171:
 1079              	.L81:
 463:D:/Work/DeviceTester/amazon-freertos/lib/third_party/mbedtls/library\rsa_internal.c ****     {
 464:D:/Work/DeviceTester/amazon-freertos/lib/third_party/mbedtls/library\rsa_internal.c ****         MBEDTLS_MPI_CHK( mbedtls_mpi_sub_int( &K, P, 1  ) );
 465:D:/Work/DeviceTester/amazon-freertos/lib/third_party/mbedtls/library\rsa_internal.c ****         MBEDTLS_MPI_CHK( mbedtls_mpi_mod_mpi( DP, D, &K ) );
 466:D:/Work/DeviceTester/amazon-freertos/lib/third_party/mbedtls/library\rsa_internal.c ****     }
 467:D:/Work/DeviceTester/amazon-freertos/lib/third_party/mbedtls/library\rsa_internal.c **** 
 468:D:/Work/DeviceTester/amazon-freertos/lib/third_party/mbedtls/library\rsa_internal.c ****     /* DQ = D mod Q-1 */
 469:D:/Work/DeviceTester/amazon-freertos/lib/third_party/mbedtls/library\rsa_internal.c ****     if( DQ != NULL )
 1080              		.loc 1 469 0
 1081 002c 000058E3 		cmp	r8, #0
 1082 0030 1900001A 		bne	.L78
 1083              	.LVL172:
 1084              	.L79:
 470:D:/Work/DeviceTester/amazon-freertos/lib/third_party/mbedtls/library\rsa_internal.c ****     {
 471:D:/Work/DeviceTester/amazon-freertos/lib/third_party/mbedtls/library\rsa_internal.c ****         MBEDTLS_MPI_CHK( mbedtls_mpi_sub_int( &K, Q, 1  ) );
 472:D:/Work/DeviceTester/amazon-freertos/lib/third_party/mbedtls/library\rsa_internal.c ****         MBEDTLS_MPI_CHK( mbedtls_mpi_mod_mpi( DQ, D, &K ) );
 473:D:/Work/DeviceTester/amazon-freertos/lib/third_party/mbedtls/library\rsa_internal.c ****     }
 474:D:/Work/DeviceTester/amazon-freertos/lib/third_party/mbedtls/library\rsa_internal.c **** 
 475:D:/Work/DeviceTester/amazon-freertos/lib/third_party/mbedtls/library\rsa_internal.c ****     /* QP = Q^{-1} mod P */
 476:D:/Work/DeviceTester/amazon-freertos/lib/third_party/mbedtls/library\rsa_internal.c ****     if( QP != NULL )
 1085              		.loc 1 476 0
 1086 0034 000055E3 		cmp	r5, #0
 1087 0038 0540A001 		moveq	r4, r5
 1088 003c 1100000A 		beq	.L80
 477:D:/Work/DeviceTester/amazon-freertos/lib/third_party/mbedtls/library\rsa_internal.c ****     {
 478:D:/Work/DeviceTester/amazon-freertos/lib/third_party/mbedtls/library\rsa_internal.c ****         MBEDTLS_MPI_CHK( mbedtls_mpi_inv_mod( QP, Q, P ) );
 1089              		.loc 1 478 0
 1090 0040 0720A0E1 		mov	r2, r7
 1091 0044 0610A0E1 		mov	r1, r6
 1092 0048 0500A0E1 		mov	r0, r5
 1093 004c FEFFFFEB 		bl	mbedtls_mpi_inv_mod
 1094              	.LVL173:
 1095 0050 0040A0E1 		mov	r4, r0
 1096              	.LVL174:
 1097 0054 0B0000EA 		b	.L80
 1098              	.LVL175:
 1099              	.L77:
 464:D:/Work/DeviceTester/amazon-freertos/lib/third_party/mbedtls/library\rsa_internal.c ****         MBEDTLS_MPI_CHK( mbedtls_mpi_mod_mpi( DP, D, &K ) );
 1100              		.loc 1 464 0
 1101 0058 0120A0E3 		mov	r2, #1
 1102 005c 0710A0E1 		mov	r1, r7
 1103 0060 04008DE2 		add	r0, sp, #4
 1104 0064 FEFFFFEB 		bl	mbedtls_mpi_sub_int
 1105              	.LVL176:
 1106 0068 004050E2 		subs	r4, r0, #0
 1107 006c 0500001A 		bne	.L80
 465:D:/Work/DeviceTester/amazon-freertos/lib/third_party/mbedtls/library\rsa_internal.c ****     }
 1108              		.loc 1 465 0
 1109 0070 04208DE2 		add	r2, sp, #4
 1110 0074 0910A0E1 		mov	r1, r9
 1111 0078 0A00A0E1 		mov	r0, r10
 1112              	.LVL177:
 1113 007c FEFFFFEB 		bl	mbedtls_mpi_mod_mpi
 1114              	.LVL178:
 1115 0080 004050E2 		subs	r4, r0, #0
 1116 0084 E8FFFF0A 		beq	.L81
 1117              	.LVL179:
 1118              	.L80:
 479:D:/Work/DeviceTester/amazon-freertos/lib/third_party/mbedtls/library\rsa_internal.c ****     }
 480:D:/Work/DeviceTester/amazon-freertos/lib/third_party/mbedtls/library\rsa_internal.c **** 
 481:D:/Work/DeviceTester/amazon-freertos/lib/third_party/mbedtls/library\rsa_internal.c **** cleanup:
 482:D:/Work/DeviceTester/amazon-freertos/lib/third_party/mbedtls/library\rsa_internal.c ****     mbedtls_mpi_free( &K );
 1119              		.loc 1 482 0
 1120 0088 04008DE2 		add	r0, sp, #4
 1121 008c FEFFFFEB 		bl	mbedtls_mpi_free
 1122              	.LVL180:
 483:D:/Work/DeviceTester/amazon-freertos/lib/third_party/mbedtls/library\rsa_internal.c **** 
 484:D:/Work/DeviceTester/amazon-freertos/lib/third_party/mbedtls/library\rsa_internal.c ****     return( ret );
 485:D:/Work/DeviceTester/amazon-freertos/lib/third_party/mbedtls/library\rsa_internal.c **** }
 1123              		.loc 1 485 0
 1124 0090 0400A0E1 		mov	r0, r4
 1125 0094 10D08DE2 		add	sp, sp, #16
 1126              		.cfi_remember_state
 1127              		.cfi_def_cfa_offset 32
 1128              		@ sp needed
 1129 0098 F087BDE8 		pop	{r4, r5, r6, r7, r8, r9, r10, pc}
 1130              	.LVL181:
 1131              	.L78:
 1132              		.cfi_restore_state
 471:D:/Work/DeviceTester/amazon-freertos/lib/third_party/mbedtls/library\rsa_internal.c ****         MBEDTLS_MPI_CHK( mbedtls_mpi_mod_mpi( DQ, D, &K ) );
 1133              		.loc 1 471 0
 1134 009c 0120A0E3 		mov	r2, #1
 1135 00a0 0610A0E1 		mov	r1, r6
 1136 00a4 04008DE2 		add	r0, sp, #4
 1137 00a8 FEFFFFEB 		bl	mbedtls_mpi_sub_int
 1138              	.LVL182:
 1139 00ac 004050E2 		subs	r4, r0, #0
 1140 00b0 F4FFFF1A 		bne	.L80
 472:D:/Work/DeviceTester/amazon-freertos/lib/third_party/mbedtls/library\rsa_internal.c ****     }
 1141              		.loc 1 472 0
 1142 00b4 04208DE2 		add	r2, sp, #4
 1143 00b8 0910A0E1 		mov	r1, r9
 1144 00bc 0800A0E1 		mov	r0, r8
 1145              	.LVL183:
 1146 00c0 FEFFFFEB 		bl	mbedtls_mpi_mod_mpi
 1147              	.LVL184:
 1148 00c4 004050E2 		subs	r4, r0, #0
 1149 00c8 D9FFFF0A 		beq	.L79
 1150 00cc EDFFFFEA 		b	.L80
 1151              		.cfi_endproc
 1152              	.LFE4:
 1154              		.section	.rodata
 1155              		.set	.LANCHOR0,. + 0
 1156              	.LC0:
 1157 0000 02       		.byte	2
 1158 0001 03       		.byte	3
 1159 0002 05       		.byte	5
 1160 0003 07       		.byte	7
 1161 0004 0B       		.byte	11
 1162 0005 0D       		.byte	13
 1163 0006 11       		.byte	17
 1164 0007 13       		.byte	19
 1165 0008 17       		.byte	23
 1166 0009 1D       		.byte	29
 1167 000a 1F       		.byte	31
 1168 000b 25       		.byte	37
 1169 000c 29       		.byte	41
 1170 000d 2B       		.byte	43
 1171 000e 2F       		.byte	47
 1172 000f 35       		.byte	53
 1173 0010 3B       		.byte	59
 1174 0011 3D       		.byte	61
 1175 0012 43       		.byte	67
 1176 0013 47       		.byte	71
 1177 0014 49       		.byte	73
 1178 0015 4F       		.byte	79
 1179 0016 53       		.byte	83
 1180 0017 59       		.byte	89
 1181 0018 61       		.byte	97
 1182 0019 65       		.byte	101
 1183 001a 67       		.byte	103
 1184 001b 6B       		.byte	107
 1185 001c 6D       		.byte	109
 1186 001d 71       		.byte	113
 1187 001e 7F       		.byte	127
 1188 001f 83       		.byte	-125
 1189 0020 89       		.byte	-119
 1190 0021 8B       		.byte	-117
 1191 0022 95       		.byte	-107
 1192 0023 97       		.byte	-105
 1193 0024 9D       		.byte	-99
 1194 0025 A3       		.byte	-93
 1195 0026 A7       		.byte	-89
 1196 0027 AD       		.byte	-83
 1197 0028 B3       		.byte	-77
 1198 0029 B5       		.byte	-75
 1199 002a BF       		.byte	-65
 1200 002b C1       		.byte	-63
 1201 002c C5       		.byte	-59
 1202 002d C7       		.byte	-57
 1203 002e D3       		.byte	-45
 1204 002f DF       		.byte	-33
 1205 0030 E3       		.byte	-29
 1206 0031 E5       		.byte	-27
 1207 0032 E9       		.byte	-23
 1208 0033 EF       		.byte	-17
 1209 0034 F1       		.byte	-15
 1210 0035 FB       		.byte	-5
 1211              		.text
 1212              	.Letext0:
 1213              		.file 2 "c:\\program files (x86)\\gnu tools arm embedded\\6 2017-q2-update\\arm-none-eabi\\include
 1214              		.file 3 "c:\\program files (x86)\\gnu tools arm embedded\\6 2017-q2-update\\lib\\gcc\\arm-none-eab
 1215              		.file 4 "c:\\program files (x86)\\gnu tools arm embedded\\6 2017-q2-update\\arm-none-eabi\\include
 1216              		.file 5 "D:\\Work\\DeviceTester\\amazon-freertos\\lib\\third_party\\mbedtls\\include/mbedtls/bignu
 1217              		.file 6 "c:\\program files (x86)\\gnu tools arm embedded\\6 2017-q2-update\\arm-none-eabi\\include
 1218              		.file 7 "c:\\program files (x86)\\gnu tools arm embedded\\6 2017-q2-update\\arm-none-eabi\\include
 1219              		.file 8 "c:\\program files (x86)\\gnu tools arm embedded\\6 2017-q2-update\\arm-none-eabi\\include
 1220              		.file 9 "c:\\program files (x86)\\gnu tools arm embedded\\6 2017-q2-update\\arm-none-eabi\\include
 1221              		.file 10 "c:\\program files (x86)\\gnu tools arm embedded\\6 2017-q2-update\\arm-none-eabi\\includ
 1222              		.file 11 "c:\\program files (x86)\\gnu tools arm embedded\\6 2017-q2-update\\arm-none-eabi\\includ
 1223              		.file 12 "D:\\Work\\DeviceTester\\amazon-freertos\\lib\\third_party\\unity\\src/unity_internals.h"
 1224              		.file 13 "D:\\Work\\DeviceTester\\amazon-freertos\\lib\\include/queue.h"
 1225              		.file 14 "D:\\Work\\DeviceTester\\amazon-freertos\\lib\\include/semphr.h"
 1226              		.file 15 "D:\\Work\\DeviceTester\\amazon-freertos\\lib\\include\\private/threading_alt.h"
 1227              		.file 16 "D:\\Work\\DeviceTester\\amazon-freertos\\lib\\third_party\\mbedtls\\include/mbedtls/thre