   1              		.cpu cortex-a9
   2              		.eabi_attribute 28, 1
   3              		.eabi_attribute 20, 1
   4              		.eabi_attribute 21, 1
   5              		.eabi_attribute 23, 3
   6              		.eabi_attribute 24, 1
   7              		.eabi_attribute 25, 1
   8              		.eabi_attribute 26, 1
   9              		.eabi_attribute 30, 4
  10              		.eabi_attribute 34, 0
  11              		.eabi_attribute 18, 4
  12              		.file	"sha1.c"
  13              		.text
  14              	.Ltext0:
  15              		.cfi_sections	.debug_frame
  16              		.section	.text.mbedtls_sha1_init,"ax",%progbits
  17              		.align	2
  18              		.global	mbedtls_sha1_init
  19              		.syntax unified
  20              		.arm
  21              		.fpu neon
  23              	mbedtls_sha1_init:
  24              	.LFB1:
  25              		.file 1 "D:/Work/DeviceTester/amazon-freertos/lib/third_party/mbedtls/library/sha1.c"
   1:D:/Work/DeviceTester/amazon-freertos/lib/third_party/mbedtls/library\sha1.c **** /*
   2:D:/Work/DeviceTester/amazon-freertos/lib/third_party/mbedtls/library\sha1.c ****  *  FIPS-180-1 compliant SHA-1 implementation
   3:D:/Work/DeviceTester/amazon-freertos/lib/third_party/mbedtls/library\sha1.c ****  *
   4:D:/Work/DeviceTester/amazon-freertos/lib/third_party/mbedtls/library\sha1.c ****  *  Copyright (C) 2006-2015, ARM Limited, All Rights Reserved
   5:D:/Work/DeviceTester/amazon-freertos/lib/third_party/mbedtls/library\sha1.c ****  *  SPDX-License-Identifier: Apache-2.0
   6:D:/Work/DeviceTester/amazon-freertos/lib/third_party/mbedtls/library\sha1.c ****  *
   7:D:/Work/DeviceTester/amazon-freertos/lib/third_party/mbedtls/library\sha1.c ****  *  Licensed under the Apache License, Version 2.0 (the "License"); you may
   8:D:/Work/DeviceTester/amazon-freertos/lib/third_party/mbedtls/library\sha1.c ****  *  not use this file except in compliance with the License.
   9:D:/Work/DeviceTester/amazon-freertos/lib/third_party/mbedtls/library\sha1.c ****  *  You may obtain a copy of the License at
  10:D:/Work/DeviceTester/amazon-freertos/lib/third_party/mbedtls/library\sha1.c ****  *
  11:D:/Work/DeviceTester/amazon-freertos/lib/third_party/mbedtls/library\sha1.c ****  *  http://www.apache.org/licenses/LICENSE-2.0
  12:D:/Work/DeviceTester/amazon-freertos/lib/third_party/mbedtls/library\sha1.c ****  *
  13:D:/Work/DeviceTester/amazon-freertos/lib/third_party/mbedtls/library\sha1.c ****  *  Unless required by applicable law or agreed to in writing, software
  14:D:/Work/DeviceTester/amazon-freertos/lib/third_party/mbedtls/library\sha1.c ****  *  distributed under the License is distributed on an "AS IS" BASIS, WITHOUT
  15:D:/Work/DeviceTester/amazon-freertos/lib/third_party/mbedtls/library\sha1.c ****  *  WARRANTIES OR CONDITIONS OF ANY KIND, either express or implied.
  16:D:/Work/DeviceTester/amazon-freertos/lib/third_party/mbedtls/library\sha1.c ****  *  See the License for the specific language governing permissions and
  17:D:/Work/DeviceTester/amazon-freertos/lib/third_party/mbedtls/library\sha1.c ****  *  limitations under the License.
  18:D:/Work/DeviceTester/amazon-freertos/lib/third_party/mbedtls/library\sha1.c ****  *
  19:D:/Work/DeviceTester/amazon-freertos/lib/third_party/mbedtls/library\sha1.c ****  *  This file is part of mbed TLS (https://tls.mbed.org)
  20:D:/Work/DeviceTester/amazon-freertos/lib/third_party/mbedtls/library\sha1.c ****  */
  21:D:/Work/DeviceTester/amazon-freertos/lib/third_party/mbedtls/library\sha1.c **** /*
  22:D:/Work/DeviceTester/amazon-freertos/lib/third_party/mbedtls/library\sha1.c ****  *  The SHA-1 standard was published by NIST in 1993.
  23:D:/Work/DeviceTester/amazon-freertos/lib/third_party/mbedtls/library\sha1.c ****  *
  24:D:/Work/DeviceTester/amazon-freertos/lib/third_party/mbedtls/library\sha1.c ****  *  http://www.itl.nist.gov/fipspubs/fip180-1.htm
  25:D:/Work/DeviceTester/amazon-freertos/lib/third_party/mbedtls/library\sha1.c ****  */
  26:D:/Work/DeviceTester/amazon-freertos/lib/third_party/mbedtls/library\sha1.c **** 
  27:D:/Work/DeviceTester/amazon-freertos/lib/third_party/mbedtls/library\sha1.c **** #if !defined(MBEDTLS_CONFIG_FILE)
  28:D:/Work/DeviceTester/amazon-freertos/lib/third_party/mbedtls/library\sha1.c **** #include "mbedtls/config.h"
  29:D:/Work/DeviceTester/amazon-freertos/lib/third_party/mbedtls/library\sha1.c **** #else
  30:D:/Work/DeviceTester/amazon-freertos/lib/third_party/mbedtls/library\sha1.c **** #include MBEDTLS_CONFIG_FILE
  31:D:/Work/DeviceTester/amazon-freertos/lib/third_party/mbedtls/library\sha1.c **** #endif
  32:D:/Work/DeviceTester/amazon-freertos/lib/third_party/mbedtls/library\sha1.c **** 
  33:D:/Work/DeviceTester/amazon-freertos/lib/third_party/mbedtls/library\sha1.c **** #if defined(MBEDTLS_SHA1_C)
  34:D:/Work/DeviceTester/amazon-freertos/lib/third_party/mbedtls/library\sha1.c **** 
  35:D:/Work/DeviceTester/amazon-freertos/lib/third_party/mbedtls/library\sha1.c **** #include "mbedtls/sha1.h"
  36:D:/Work/DeviceTester/amazon-freertos/lib/third_party/mbedtls/library\sha1.c **** #include "mbedtls/platform_util.h"
  37:D:/Work/DeviceTester/amazon-freertos/lib/third_party/mbedtls/library\sha1.c **** 
  38:D:/Work/DeviceTester/amazon-freertos/lib/third_party/mbedtls/library\sha1.c **** #include <string.h>
  39:D:/Work/DeviceTester/amazon-freertos/lib/third_party/mbedtls/library\sha1.c **** 
  40:D:/Work/DeviceTester/amazon-freertos/lib/third_party/mbedtls/library\sha1.c **** #if defined(MBEDTLS_SELF_TEST)
  41:D:/Work/DeviceTester/amazon-freertos/lib/third_party/mbedtls/library\sha1.c **** #if defined(MBEDTLS_PLATFORM_C)
  42:D:/Work/DeviceTester/amazon-freertos/lib/third_party/mbedtls/library\sha1.c **** #include "mbedtls/platform.h"
  43:D:/Work/DeviceTester/amazon-freertos/lib/third_party/mbedtls/library\sha1.c **** #else
  44:D:/Work/DeviceTester/amazon-freertos/lib/third_party/mbedtls/library\sha1.c **** #include <stdio.h>
  45:D:/Work/DeviceTester/amazon-freertos/lib/third_party/mbedtls/library\sha1.c **** #define mbedtls_printf printf
  46:D:/Work/DeviceTester/amazon-freertos/lib/third_party/mbedtls/library\sha1.c **** #endif /* MBEDTLS_PLATFORM_C */
  47:D:/Work/DeviceTester/amazon-freertos/lib/third_party/mbedtls/library\sha1.c **** #endif /* MBEDTLS_SELF_TEST */
  48:D:/Work/DeviceTester/amazon-freertos/lib/third_party/mbedtls/library\sha1.c **** 
  49:D:/Work/DeviceTester/amazon-freertos/lib/third_party/mbedtls/library\sha1.c **** #if !defined(MBEDTLS_SHA1_ALT)
  50:D:/Work/DeviceTester/amazon-freertos/lib/third_party/mbedtls/library\sha1.c **** 
  51:D:/Work/DeviceTester/amazon-freertos/lib/third_party/mbedtls/library\sha1.c **** /*
  52:D:/Work/DeviceTester/amazon-freertos/lib/third_party/mbedtls/library\sha1.c ****  * 32-bit integer manipulation macros (big endian)
  53:D:/Work/DeviceTester/amazon-freertos/lib/third_party/mbedtls/library\sha1.c ****  */
  54:D:/Work/DeviceTester/amazon-freertos/lib/third_party/mbedtls/library\sha1.c **** #ifndef GET_UINT32_BE
  55:D:/Work/DeviceTester/amazon-freertos/lib/third_party/mbedtls/library\sha1.c **** #define GET_UINT32_BE(n,b,i)                            \
  56:D:/Work/DeviceTester/amazon-freertos/lib/third_party/mbedtls/library\sha1.c **** {                                                       \
  57:D:/Work/DeviceTester/amazon-freertos/lib/third_party/mbedtls/library\sha1.c ****     (n) = ( (uint32_t) (b)[(i)    ] << 24 )             \
  58:D:/Work/DeviceTester/amazon-freertos/lib/third_party/mbedtls/library\sha1.c ****         | ( (uint32_t) (b)[(i) + 1] << 16 )             \
  59:D:/Work/DeviceTester/amazon-freertos/lib/third_party/mbedtls/library\sha1.c ****         | ( (uint32_t) (b)[(i) + 2] <<  8 )             \
  60:D:/Work/DeviceTester/amazon-freertos/lib/third_party/mbedtls/library\sha1.c ****         | ( (uint32_t) (b)[(i) + 3]       );            \
  61:D:/Work/DeviceTester/amazon-freertos/lib/third_party/mbedtls/library\sha1.c **** }
  62:D:/Work/DeviceTester/amazon-freertos/lib/third_party/mbedtls/library\sha1.c **** #endif
  63:D:/Work/DeviceTester/amazon-freertos/lib/third_party/mbedtls/library\sha1.c **** 
  64:D:/Work/DeviceTester/amazon-freertos/lib/third_party/mbedtls/library\sha1.c **** #ifndef PUT_UINT32_BE
  65:D:/Work/DeviceTester/amazon-freertos/lib/third_party/mbedtls/library\sha1.c **** #define PUT_UINT32_BE(n,b,i)                            \
  66:D:/Work/DeviceTester/amazon-freertos/lib/third_party/mbedtls/library\sha1.c **** {                                                       \
  67:D:/Work/DeviceTester/amazon-freertos/lib/third_party/mbedtls/library\sha1.c ****     (b)[(i)    ] = (unsigned char) ( (n) >> 24 );       \
  68:D:/Work/DeviceTester/amazon-freertos/lib/third_party/mbedtls/library\sha1.c ****     (b)[(i) + 1] = (unsigned char) ( (n) >> 16 );       \
  69:D:/Work/DeviceTester/amazon-freertos/lib/third_party/mbedtls/library\sha1.c ****     (b)[(i) + 2] = (unsigned char) ( (n) >>  8 );       \
  70:D:/Work/DeviceTester/amazon-freertos/lib/third_party/mbedtls/library\sha1.c ****     (b)[(i) + 3] = (unsigned char) ( (n)       );       \
  71:D:/Work/DeviceTester/amazon-freertos/lib/third_party/mbedtls/library\sha1.c **** }
  72:D:/Work/DeviceTester/amazon-freertos/lib/third_party/mbedtls/library\sha1.c **** #endif
  73:D:/Work/DeviceTester/amazon-freertos/lib/third_party/mbedtls/library\sha1.c **** 
  74:D:/Work/DeviceTester/amazon-freertos/lib/third_party/mbedtls/library\sha1.c **** void mbedtls_sha1_init( mbedtls_sha1_context *ctx )
  75:D:/Work/DeviceTester/amazon-freertos/lib/third_party/mbedtls/library\sha1.c **** {
  26              		.loc 1 75 0
  27              		.cfi_startproc
  28              		@ args = 0, pretend = 0, frame = 0
  29              		@ frame_needed = 0, uses_anonymous_args = 0
  30              		@ link register save eliminated.
  31              	.LVL0:
  76:D:/Work/DeviceTester/amazon-freertos/lib/third_party/mbedtls/library\sha1.c ****     memset( ctx, 0, sizeof( mbedtls_sha1_context ) );
  32              		.loc 1 76 0
  33 0000 5C20A0E3 		mov	r2, #92
  34 0004 0010A0E3 		mov	r1, #0
  35 0008 FEFFFFEA 		b	memset
  36              	.LVL1:
  37              		.cfi_endproc
  38              	.LFE1:
  40              		.section	.text.mbedtls_sha1_free,"ax",%progbits
  41              		.align	2
  42              		.global	mbedtls_sha1_free
  43              		.syntax unified
  44              		.arm
  45              		.fpu neon
  47              	mbedtls_sha1_free:
  48              	.LFB2:
  77:D:/Work/DeviceTester/amazon-freertos/lib/third_party/mbedtls/library\sha1.c **** }
  78:D:/Work/DeviceTester/amazon-freertos/lib/third_party/mbedtls/library\sha1.c **** 
  79:D:/Work/DeviceTester/amazon-freertos/lib/third_party/mbedtls/library\sha1.c **** void mbedtls_sha1_free( mbedtls_sha1_context *ctx )
  80:D:/Work/DeviceTester/amazon-freertos/lib/third_party/mbedtls/library\sha1.c **** {
  49              		.loc 1 80 0
  50              		.cfi_startproc
  51              		@ args = 0, pretend = 0, frame = 0
  52              		@ frame_needed = 0, uses_anonymous_args = 0
  53              		@ link register save eliminated.
  54              	.LVL2:
  81:D:/Work/DeviceTester/amazon-freertos/lib/third_party/mbedtls/library\sha1.c ****     if( ctx == NULL )
  55              		.loc 1 81 0
  56 0000 000050E3 		cmp	r0, #0
  57 0004 1EFF2F01 		bxeq	lr
  82:D:/Work/DeviceTester/amazon-freertos/lib/third_party/mbedtls/library\sha1.c ****         return;
  83:D:/Work/DeviceTester/amazon-freertos/lib/third_party/mbedtls/library\sha1.c **** 
  84:D:/Work/DeviceTester/amazon-freertos/lib/third_party/mbedtls/library\sha1.c ****     mbedtls_platform_zeroize( ctx, sizeof( mbedtls_sha1_context ) );
  58              		.loc 1 84 0
  59 0008 5C10A0E3 		mov	r1, #92
  60 000c FEFFFFEA 		b	mbedtls_platform_zeroize
  61              	.LVL3:
  62              		.cfi_endproc
  63              	.LFE2:
  65              		.section	.text.mbedtls_sha1_clone,"ax",%progbits
  66              		.align	2
  67              		.global	mbedtls_sha1_clone
  68              		.syntax unified
  69              		.arm
  70              		.fpu neon
  72              	mbedtls_sha1_clone:
  73              	.LFB3:
  85:D:/Work/DeviceTester/amazon-freertos/lib/third_party/mbedtls/library\sha1.c **** }
  86:D:/Work/DeviceTester/amazon-freertos/lib/third_party/mbedtls/library\sha1.c **** 
  87:D:/Work/DeviceTester/amazon-freertos/lib/third_party/mbedtls/library\sha1.c **** void mbedtls_sha1_clone( mbedtls_sha1_context *dst,
  88:D:/Work/DeviceTester/amazon-freertos/lib/third_party/mbedtls/library\sha1.c ****                          const mbedtls_sha1_context *src )
  89:D:/Work/DeviceTester/amazon-freertos/lib/third_party/mbedtls/library\sha1.c **** {
  74              		.loc 1 89 0
  75              		.cfi_startproc
  76              		@ args = 0, pretend = 0, frame = 0
  77              		@ frame_needed = 0, uses_anonymous_args = 0
  78              	.LVL4:
  79 0000 10402DE9 		push	{r4, lr}
  80              		.cfi_def_cfa_offset 8
  81              		.cfi_offset 4, -8
  82              		.cfi_offset 14, -4
  90:D:/Work/DeviceTester/amazon-freertos/lib/third_party/mbedtls/library\sha1.c ****     *dst = *src;
  83              		.loc 1 90 0
  84 0004 5C20A0E3 		mov	r2, #92
  85 0008 FEFFFFEB 		bl	memcpy
  86              	.LVL5:
  87 000c 1080BDE8 		pop	{r4, pc}
  88              		.cfi_endproc
  89              	.LFE3:
  91              		.section	.text.mbedtls_sha1_starts_ret,"ax",%progbits
  92              		.align	2
  93              		.global	mbedtls_sha1_starts_ret
  94              		.syntax unified
  95              		.arm
  96              		.fpu neon
  98              	mbedtls_sha1_starts_ret:
  99              	.LFB4:
  91:D:/Work/DeviceTester/amazon-freertos/lib/third_party/mbedtls/library\sha1.c **** }
  92:D:/Work/DeviceTester/amazon-freertos/lib/third_party/mbedtls/library\sha1.c **** 
  93:D:/Work/DeviceTester/amazon-freertos/lib/third_party/mbedtls/library\sha1.c **** /*
  94:D:/Work/DeviceTester/amazon-freertos/lib/third_party/mbedtls/library\sha1.c ****  * SHA-1 context setup
  95:D:/Work/DeviceTester/amazon-freertos/lib/third_party/mbedtls/library\sha1.c ****  */
  96:D:/Work/DeviceTester/amazon-freertos/lib/third_party/mbedtls/library\sha1.c **** int mbedtls_sha1_starts_ret( mbedtls_sha1_context *ctx )
  97:D:/Work/DeviceTester/amazon-freertos/lib/third_party/mbedtls/library\sha1.c **** {
 100              		.loc 1 97 0
 101              		.cfi_startproc
 102              		@ args = 0, pretend = 0, frame = 0
 103              		@ frame_needed = 0, uses_anonymous_args = 0
 104              		@ link register save eliminated.
 105              	.LVL6:
  98:D:/Work/DeviceTester/amazon-freertos/lib/third_party/mbedtls/library\sha1.c ****     ctx->total[0] = 0;
  99:D:/Work/DeviceTester/amazon-freertos/lib/third_party/mbedtls/library\sha1.c ****     ctx->total[1] = 0;
 100:D:/Work/DeviceTester/amazon-freertos/lib/third_party/mbedtls/library\sha1.c **** 
 101:D:/Work/DeviceTester/amazon-freertos/lib/third_party/mbedtls/library\sha1.c ****     ctx->state[0] = 0x67452301;
 106              		.loc 1 101 0
 107 0000 34209FE5 		ldr	r2, .L7
  97:D:/Work/DeviceTester/amazon-freertos/lib/third_party/mbedtls/library\sha1.c ****     ctx->total[0] = 0;
 108              		.loc 1 97 0
 109 0004 0030A0E1 		mov	r3, r0
  98:D:/Work/DeviceTester/amazon-freertos/lib/third_party/mbedtls/library\sha1.c ****     ctx->total[0] = 0;
 110              		.loc 1 98 0
 111 0008 0000A0E3 		mov	r0, #0
 112              	.LVL7:
 113 000c 000083E5 		str	r0, [r3]
 114              		.loc 1 101 0
 115 0010 082083E5 		str	r2, [r3, #8]
 102:D:/Work/DeviceTester/amazon-freertos/lib/third_party/mbedtls/library\sha1.c ****     ctx->state[1] = 0xEFCDAB89;
 116              		.loc 1 102 0
 117 0014 24209FE5 		ldr	r2, .L7+4
  99:D:/Work/DeviceTester/amazon-freertos/lib/third_party/mbedtls/library\sha1.c **** 
 118              		.loc 1 99 0
 119 0018 040083E5 		str	r0, [r3, #4]
 120              		.loc 1 102 0
 121 001c 0C2083E5 		str	r2, [r3, #12]
 103:D:/Work/DeviceTester/amazon-freertos/lib/third_party/mbedtls/library\sha1.c ****     ctx->state[2] = 0x98BADCFE;
 122              		.loc 1 103 0
 123 0020 1C209FE5 		ldr	r2, .L7+8
 124 0024 102083E5 		str	r2, [r3, #16]
 104:D:/Work/DeviceTester/amazon-freertos/lib/third_party/mbedtls/library\sha1.c ****     ctx->state[3] = 0x10325476;
 125              		.loc 1 104 0
 126 0028 18209FE5 		ldr	r2, .L7+12
 127 002c 142083E5 		str	r2, [r3, #20]
 105:D:/Work/DeviceTester/amazon-freertos/lib/third_party/mbedtls/library\sha1.c ****     ctx->state[4] = 0xC3D2E1F0;
 128              		.loc 1 105 0
 129 0030 14209FE5 		ldr	r2, .L7+16
 130 0034 182083E5 		str	r2, [r3, #24]
 106:D:/Work/DeviceTester/amazon-freertos/lib/third_party/mbedtls/library\sha1.c **** 
 107:D:/Work/DeviceTester/amazon-freertos/lib/third_party/mbedtls/library\sha1.c ****     return( 0 );
 108:D:/Work/DeviceTester/amazon-freertos/lib/third_party/mbedtls/library\sha1.c **** }
 131              		.loc 1 108 0
 132 0038 1EFF2FE1 		bx	lr
 133              	.L8:
 134              		.align	2
 135              	.L7:
 136 003c 01234567 		.word	1732584193
 137 0040 89ABCDEF 		.word	-271733879
 138 0044 FEDCBA98 		.word	-1732584194
 139 0048 76543210 		.word	271733878
 140 004c F0E1D2C3 		.word	-1009589776
 141              		.cfi_endproc
 142              	.LFE4:
 144              		.section	.text.mbedtls_internal_sha1_process,"ax",%progbits
 145              		.align	2
 146              		.global	mbedtls_internal_sha1_process
 147              		.syntax unified
 148              		.arm
 149              		.fpu neon
 151              	mbedtls_internal_sha1_process:
 152              	.LFB5:
 109:D:/Work/DeviceTester/amazon-freertos/lib/third_party/mbedtls/library\sha1.c **** 
 110:D:/Work/DeviceTester/amazon-freertos/lib/third_party/mbedtls/library\sha1.c **** #if !defined(MBEDTLS_DEPRECATED_REMOVED)
 111:D:/Work/DeviceTester/amazon-freertos/lib/third_party/mbedtls/library\sha1.c **** void mbedtls_sha1_starts( mbedtls_sha1_context *ctx )
 112:D:/Work/DeviceTester/amazon-freertos/lib/third_party/mbedtls/library\sha1.c **** {
 113:D:/Work/DeviceTester/amazon-freertos/lib/third_party/mbedtls/library\sha1.c ****     mbedtls_sha1_starts_ret( ctx );
 114:D:/Work/DeviceTester/amazon-freertos/lib/third_party/mbedtls/library\sha1.c **** }
 115:D:/Work/DeviceTester/amazon-freertos/lib/third_party/mbedtls/library\sha1.c **** #endif
 116:D:/Work/DeviceTester/amazon-freertos/lib/third_party/mbedtls/library\sha1.c **** 
 117:D:/Work/DeviceTester/amazon-freertos/lib/third_party/mbedtls/library\sha1.c **** #if !defined(MBEDTLS_SHA1_PROCESS_ALT)
 118:D:/Work/DeviceTester/amazon-freertos/lib/third_party/mbedtls/library\sha1.c **** int mbedtls_internal_sha1_process( mbedtls_sha1_context *ctx,
 119:D:/Work/DeviceTester/amazon-freertos/lib/third_party/mbedtls/library\sha1.c ****                                    const unsigned char data[64] )
 120:D:/Work/DeviceTester/amazon-freertos/lib/third_party/mbedtls/library\sha1.c **** {
 153              		.loc 1 120 0
 154              		.cfi_startproc
 155              		@ args = 0, pretend = 0, frame = 88
 156              		@ frame_needed = 0, uses_anonymous_args = 0
 157              	.LVL8:
 158 0000 F04F2DE9 		push	{r4, r5, r6, r7, r8, r9, r10, fp, lr}
 159              		.cfi_def_cfa_offset 36
 160              		.cfi_offset 4, -36
 161              		.cfi_offset 5, -32
 162              		.cfi_offset 6, -28
 163              		.cfi_offset 7, -24
 164              		.cfi_offset 8, -20
 165              		.cfi_offset 9, -16
 166              		.cfi_offset 10, -12
 167              		.cfi_offset 11, -8
 168              		.cfi_offset 14, -4
 169 0004 5CD04DE2 		sub	sp, sp, #92
 170              		.cfi_def_cfa_offset 128
 121:D:/Work/DeviceTester/amazon-freertos/lib/third_party/mbedtls/library\sha1.c ****     uint32_t temp, W[16], A, B, C, D, E;
 122:D:/Work/DeviceTester/amazon-freertos/lib/third_party/mbedtls/library\sha1.c **** 
 123:D:/Work/DeviceTester/amazon-freertos/lib/third_party/mbedtls/library\sha1.c ****     GET_UINT32_BE( W[ 0], data,  0 );
 171              		.loc 1 123 0
 172 0008 0150D1E5 		ldrb	r5, [r1, #1]	@ zero_extendqisi2
 173 000c 0030D1E5 		ldrb	r3, [r1]	@ zero_extendqisi2
 124:D:/Work/DeviceTester/amazon-freertos/lib/third_party/mbedtls/library\sha1.c ****     GET_UINT32_BE( W[ 1], data,  4 );
 174              		.loc 1 124 0
 175 0010 0520D1E5 		ldrb	r2, [r1, #5]	@ zero_extendqisi2
 123:D:/Work/DeviceTester/amazon-freertos/lib/third_party/mbedtls/library\sha1.c ****     GET_UINT32_BE( W[ 1], data,  4 );
 176              		.loc 1 123 0
 177 0014 0558A0E1 		lsl	r5, r5, #16
 125:D:/Work/DeviceTester/amazon-freertos/lib/third_party/mbedtls/library\sha1.c ****     GET_UINT32_BE( W[ 2], data,  8 );
 178              		.loc 1 125 0
 179 0018 09E0D1E5 		ldrb	lr, [r1, #9]	@ zero_extendqisi2
 126:D:/Work/DeviceTester/amazon-freertos/lib/third_party/mbedtls/library\sha1.c ****     GET_UINT32_BE( W[ 3], data, 12 );
 180              		.loc 1 126 0
 181 001c 0D80D1E5 		ldrb	r8, [r1, #13]	@ zero_extendqisi2
 123:D:/Work/DeviceTester/amazon-freertos/lib/third_party/mbedtls/library\sha1.c ****     GET_UINT32_BE( W[ 1], data,  4 );
 182              		.loc 1 123 0
 183 0020 035C85E1 		orr	r5, r5, r3, lsl #24
 184 0024 0330D1E5 		ldrb	r3, [r1, #3]	@ zero_extendqisi2
 124:D:/Work/DeviceTester/amazon-freertos/lib/third_party/mbedtls/library\sha1.c ****     GET_UINT32_BE( W[ 2], data,  8 );
 185              		.loc 1 124 0
 186 0028 0228A0E1 		lsl	r2, r2, #16
 187              		.loc 1 126 0
 188 002c 0E40D1E5 		ldrb	r4, [r1, #14]	@ zero_extendqisi2
 125:D:/Work/DeviceTester/amazon-freertos/lib/third_party/mbedtls/library\sha1.c ****     GET_UINT32_BE( W[ 2], data,  8 );
 189              		.loc 1 125 0
 190 0030 0EE8A0E1 		lsl	lr, lr, #16
 127:D:/Work/DeviceTester/amazon-freertos/lib/third_party/mbedtls/library\sha1.c ****     GET_UINT32_BE( W[ 4], data, 16 );
 128:D:/Work/DeviceTester/amazon-freertos/lib/third_party/mbedtls/library\sha1.c ****     GET_UINT32_BE( W[ 5], data, 20 );
 191              		.loc 1 128 0
 192 0034 15C0D1E5 		ldrb	ip, [r1, #21]	@ zero_extendqisi2
 123:D:/Work/DeviceTester/amazon-freertos/lib/third_party/mbedtls/library\sha1.c ****     GET_UINT32_BE( W[ 1], data,  4 );
 193              		.loc 1 123 0
 194 0038 035085E1 		orr	r5, r5, r3
 195 003c 0230D1E5 		ldrb	r3, [r1, #2]	@ zero_extendqisi2
 126:D:/Work/DeviceTester/amazon-freertos/lib/third_party/mbedtls/library\sha1.c ****     GET_UINT32_BE( W[ 4], data, 16 );
 196              		.loc 1 126 0
 197 0040 0888A0E1 		lsl	r8, r8, #16
 120:D:/Work/DeviceTester/amazon-freertos/lib/third_party/mbedtls/library\sha1.c ****     uint32_t temp, W[16], A, B, C, D, E;
 198              		.loc 1 120 0
 199 0044 00008DE5 		str	r0, [sp]
 200              		.loc 1 128 0
 201 0048 0CC8A0E1 		lsl	ip, ip, #16
 123:D:/Work/DeviceTester/amazon-freertos/lib/third_party/mbedtls/library\sha1.c ****     GET_UINT32_BE( W[ 1], data,  4 );
 202              		.loc 1 123 0
 203 004c 033485E1 		orr	r3, r5, r3, lsl #8
 204 0050 14308DE5 		str	r3, [sp, #20]
 205              	.LVL9:
 124:D:/Work/DeviceTester/amazon-freertos/lib/third_party/mbedtls/library\sha1.c ****     GET_UINT32_BE( W[ 2], data,  8 );
 206              		.loc 1 124 0
 207 0054 0430D1E5 		ldrb	r3, [r1, #4]	@ zero_extendqisi2
 208              	.LVL10:
 209 0058 032C82E1 		orr	r2, r2, r3, lsl #24
 210 005c 0730D1E5 		ldrb	r3, [r1, #7]	@ zero_extendqisi2
 211 0060 032082E1 		orr	r2, r2, r3
 212 0064 0630D1E5 		ldrb	r3, [r1, #6]	@ zero_extendqisi2
 213 0068 033482E1 		orr	r3, r2, r3, lsl #8
 127:D:/Work/DeviceTester/amazon-freertos/lib/third_party/mbedtls/library\sha1.c ****     GET_UINT32_BE( W[ 5], data, 20 );
 214              		.loc 1 127 0
 215 006c 1020D1E5 		ldrb	r2, [r1, #16]	@ zero_extendqisi2
 124:D:/Work/DeviceTester/amazon-freertos/lib/third_party/mbedtls/library\sha1.c ****     GET_UINT32_BE( W[ 2], data,  8 );
 216              		.loc 1 124 0
 217 0070 18308DE5 		str	r3, [sp, #24]
 218              	.LVL11:
 125:D:/Work/DeviceTester/amazon-freertos/lib/third_party/mbedtls/library\sha1.c ****     GET_UINT32_BE( W[ 3], data, 12 );
 219              		.loc 1 125 0
 220 0074 0830D1E5 		ldrb	r3, [r1, #8]	@ zero_extendqisi2
 221              	.LVL12:
 222 0078 03EC8EE1 		orr	lr, lr, r3, lsl #24
 223 007c 0B30D1E5 		ldrb	r3, [r1, #11]	@ zero_extendqisi2
 224 0080 03E08EE1 		orr	lr, lr, r3
 225 0084 0A30D1E5 		ldrb	r3, [r1, #10]	@ zero_extendqisi2
 226 0088 03E48EE1 		orr	lr, lr, r3, lsl #8
 227              	.LVL13:
 126:D:/Work/DeviceTester/amazon-freertos/lib/third_party/mbedtls/library\sha1.c ****     GET_UINT32_BE( W[ 4], data, 16 );
 228              		.loc 1 126 0
 229 008c 0C30D1E5 		ldrb	r3, [r1, #12]	@ zero_extendqisi2
 230 0090 038C88E1 		orr	r8, r8, r3, lsl #24
 231 0094 0F30D1E5 		ldrb	r3, [r1, #15]	@ zero_extendqisi2
 232 0098 038088E1 		orr	r8, r8, r3
 233 009c 043488E1 		orr	r3, r8, r4, lsl #8
 234 00a0 30308DE5 		str	r3, [sp, #48]
 235              	.LVL14:
 127:D:/Work/DeviceTester/amazon-freertos/lib/third_party/mbedtls/library\sha1.c ****     GET_UINT32_BE( W[ 5], data, 20 );
 236              		.loc 1 127 0
 237 00a4 1130D1E5 		ldrb	r3, [r1, #17]	@ zero_extendqisi2
 238              	.LVL15:
 239 00a8 0338A0E1 		lsl	r3, r3, #16
 240 00ac 023C83E1 		orr	r3, r3, r2, lsl #24
 241 00b0 1320D1E5 		ldrb	r2, [r1, #19]	@ zero_extendqisi2
 242 00b4 023083E1 		orr	r3, r3, r2
 243 00b8 1220D1E5 		ldrb	r2, [r1, #18]	@ zero_extendqisi2
 244 00bc 023483E1 		orr	r3, r3, r2, lsl #8
 245 00c0 34308DE5 		str	r3, [sp, #52]
 246              	.LVL16:
 247              		.loc 1 128 0
 248 00c4 1430D1E5 		ldrb	r3, [r1, #20]	@ zero_extendqisi2
 249              	.LVL17:
 250 00c8 03CC8CE1 		orr	ip, ip, r3, lsl #24
 251 00cc 1730D1E5 		ldrb	r3, [r1, #23]	@ zero_extendqisi2
 252 00d0 03C08CE1 		orr	ip, ip, r3
 253 00d4 1630D1E5 		ldrb	r3, [r1, #22]	@ zero_extendqisi2
 254 00d8 03348CE1 		orr	r3, ip, r3, lsl #8
 255 00dc 38308DE5 		str	r3, [sp, #56]
 256              	.LVL18:
 129:D:/Work/DeviceTester/amazon-freertos/lib/third_party/mbedtls/library\sha1.c ****     GET_UINT32_BE( W[ 6], data, 24 );
 257              		.loc 1 129 0
 258 00e0 1830D1E5 		ldrb	r3, [r1, #24]	@ zero_extendqisi2
 259              	.LVL19:
 260 00e4 1900D1E5 		ldrb	r0, [r1, #25]	@ zero_extendqisi2
 261              	.LVL20:
 130:D:/Work/DeviceTester/amazon-freertos/lib/third_party/mbedtls/library\sha1.c ****     GET_UINT32_BE( W[ 7], data, 28 );
 262              		.loc 1 130 0
 263 00e8 1C20D1E5 		ldrb	r2, [r1, #28]	@ zero_extendqisi2
 131:D:/Work/DeviceTester/amazon-freertos/lib/third_party/mbedtls/library\sha1.c ****     GET_UINT32_BE( W[ 8], data, 32 );
 132:D:/Work/DeviceTester/amazon-freertos/lib/third_party/mbedtls/library\sha1.c ****     GET_UINT32_BE( W[ 9], data, 36 );
 264              		.loc 1 132 0
 265 00ec 2550D1E5 		ldrb	r5, [r1, #37]	@ zero_extendqisi2
 133:D:/Work/DeviceTester/amazon-freertos/lib/third_party/mbedtls/library\sha1.c ****     GET_UINT32_BE( W[10], data, 40 );
 266              		.loc 1 133 0
 267 00f0 2970D1E5 		ldrb	r7, [r1, #41]	@ zero_extendqisi2
 129:D:/Work/DeviceTester/amazon-freertos/lib/third_party/mbedtls/library\sha1.c ****     GET_UINT32_BE( W[ 7], data, 28 );
 268              		.loc 1 129 0
 269 00f4 0008A0E1 		lsl	r0, r0, #16
 134:D:/Work/DeviceTester/amazon-freertos/lib/third_party/mbedtls/library\sha1.c ****     GET_UINT32_BE( W[11], data, 44 );
 135:D:/Work/DeviceTester/amazon-freertos/lib/third_party/mbedtls/library\sha1.c ****     GET_UINT32_BE( W[12], data, 48 );
 270              		.loc 1 135 0
 271 00f8 3060D1E5 		ldrb	r6, [r1, #48]	@ zero_extendqisi2
 129:D:/Work/DeviceTester/amazon-freertos/lib/third_party/mbedtls/library\sha1.c ****     GET_UINT32_BE( W[ 7], data, 28 );
 272              		.loc 1 129 0
 273 00fc 030C80E1 		orr	r0, r0, r3, lsl #24
 274 0100 1B30D1E5 		ldrb	r3, [r1, #27]	@ zero_extendqisi2
 132:D:/Work/DeviceTester/amazon-freertos/lib/third_party/mbedtls/library\sha1.c ****     GET_UINT32_BE( W[10], data, 40 );
 275              		.loc 1 132 0
 276 0104 0558A0E1 		lsl	r5, r5, #16
 133:D:/Work/DeviceTester/amazon-freertos/lib/third_party/mbedtls/library\sha1.c ****     GET_UINT32_BE( W[11], data, 44 );
 277              		.loc 1 133 0
 278 0108 0778A0E1 		lsl	r7, r7, #16
 129:D:/Work/DeviceTester/amazon-freertos/lib/third_party/mbedtls/library\sha1.c ****     GET_UINT32_BE( W[ 7], data, 28 );
 279              		.loc 1 129 0
 280 010c 030080E1 		orr	r0, r0, r3
 281 0110 1A30D1E5 		ldrb	r3, [r1, #26]	@ zero_extendqisi2
 282 0114 033480E1 		orr	r3, r0, r3, lsl #8
 283 0118 3C308DE5 		str	r3, [sp, #60]
 284              	.LVL21:
 130:D:/Work/DeviceTester/amazon-freertos/lib/third_party/mbedtls/library\sha1.c ****     GET_UINT32_BE( W[ 8], data, 32 );
 285              		.loc 1 130 0
 286 011c 1D30D1E5 		ldrb	r3, [r1, #29]	@ zero_extendqisi2
 287              	.LVL22:
 288 0120 0338A0E1 		lsl	r3, r3, #16
 289 0124 023C83E1 		orr	r3, r3, r2, lsl #24
 290 0128 1F20D1E5 		ldrb	r2, [r1, #31]	@ zero_extendqisi2
 291 012c 023083E1 		orr	r3, r3, r2
 292 0130 1E20D1E5 		ldrb	r2, [r1, #30]	@ zero_extendqisi2
 293 0134 023483E1 		orr	r3, r3, r2, lsl #8
 131:D:/Work/DeviceTester/amazon-freertos/lib/third_party/mbedtls/library\sha1.c ****     GET_UINT32_BE( W[ 9], data, 36 );
 294              		.loc 1 131 0
 295 0138 2120D1E5 		ldrb	r2, [r1, #33]	@ zero_extendqisi2
 130:D:/Work/DeviceTester/amazon-freertos/lib/third_party/mbedtls/library\sha1.c ****     GET_UINT32_BE( W[ 8], data, 32 );
 296              		.loc 1 130 0
 297 013c 40308DE5 		str	r3, [sp, #64]
 298              	.LVL23:
 131:D:/Work/DeviceTester/amazon-freertos/lib/third_party/mbedtls/library\sha1.c ****     GET_UINT32_BE( W[ 9], data, 36 );
 299              		.loc 1 131 0
 300 0140 2030D1E5 		ldrb	r3, [r1, #32]	@ zero_extendqisi2
 301              	.LVL24:
 302 0144 0228A0E1 		lsl	r2, r2, #16
 303 0148 032C82E1 		orr	r2, r2, r3, lsl #24
 304 014c 2330D1E5 		ldrb	r3, [r1, #35]	@ zero_extendqisi2
 305 0150 032082E1 		orr	r2, r2, r3
 306 0154 2230D1E5 		ldrb	r3, [r1, #34]	@ zero_extendqisi2
 307 0158 038482E1 		orr	r8, r2, r3, lsl #8
 132:D:/Work/DeviceTester/amazon-freertos/lib/third_party/mbedtls/library\sha1.c ****     GET_UINT32_BE( W[10], data, 40 );
 308              		.loc 1 132 0
 309 015c 2430D1E5 		ldrb	r3, [r1, #36]	@ zero_extendqisi2
 310 0160 035C85E1 		orr	r5, r5, r3, lsl #24
 311 0164 2730D1E5 		ldrb	r3, [r1, #39]	@ zero_extendqisi2
 312 0168 035085E1 		orr	r5, r5, r3
 313 016c 2630D1E5 		ldrb	r3, [r1, #38]	@ zero_extendqisi2
 314 0170 033485E1 		orr	r3, r5, r3, lsl #8
 315 0174 20308DE5 		str	r3, [sp, #32]
 133:D:/Work/DeviceTester/amazon-freertos/lib/third_party/mbedtls/library\sha1.c ****     GET_UINT32_BE( W[11], data, 44 );
 316              		.loc 1 133 0
 317 0178 2830D1E5 		ldrb	r3, [r1, #40]	@ zero_extendqisi2
 318 017c 037C87E1 		orr	r7, r7, r3, lsl #24
 319 0180 2B30D1E5 		ldrb	r3, [r1, #43]	@ zero_extendqisi2
 320 0184 037087E1 		orr	r7, r7, r3
 321 0188 2A30D1E5 		ldrb	r3, [r1, #42]	@ zero_extendqisi2
 322 018c 033487E1 		orr	r3, r7, r3, lsl #8
 134:D:/Work/DeviceTester/amazon-freertos/lib/third_party/mbedtls/library\sha1.c ****     GET_UINT32_BE( W[12], data, 48 );
 323              		.loc 1 134 0
 324 0190 2C70D1E5 		ldrb	r7, [r1, #44]	@ zero_extendqisi2
 133:D:/Work/DeviceTester/amazon-freertos/lib/third_party/mbedtls/library\sha1.c ****     GET_UINT32_BE( W[11], data, 44 );
 325              		.loc 1 133 0
 326 0194 24308DE5 		str	r3, [sp, #36]
 134:D:/Work/DeviceTester/amazon-freertos/lib/third_party/mbedtls/library\sha1.c ****     GET_UINT32_BE( W[12], data, 48 );
 327              		.loc 1 134 0
 328 0198 2D30D1E5 		ldrb	r3, [r1, #45]	@ zero_extendqisi2
 329 019c 0338A0E1 		lsl	r3, r3, #16
 330 01a0 073C83E1 		orr	r3, r3, r7, lsl #24
 331 01a4 2F70D1E5 		ldrb	r7, [r1, #47]	@ zero_extendqisi2
 332 01a8 077083E1 		orr	r7, r3, r7
 333 01ac 2E30D1E5 		ldrb	r3, [r1, #46]	@ zero_extendqisi2
 334 01b0 033487E1 		orr	r3, r7, r3, lsl #8
 335 01b4 28308DE5 		str	r3, [sp, #40]
 336              		.loc 1 135 0
 337 01b8 3130D1E5 		ldrb	r3, [r1, #49]	@ zero_extendqisi2
 338 01bc 0338A0E1 		lsl	r3, r3, #16
 339 01c0 063C83E1 		orr	r3, r3, r6, lsl #24
 340 01c4 3360D1E5 		ldrb	r6, [r1, #51]	@ zero_extendqisi2
 341 01c8 066083E1 		orr	r6, r3, r6
 342 01cc 3230D1E5 		ldrb	r3, [r1, #50]	@ zero_extendqisi2
 343 01d0 033486E1 		orr	r3, r6, r3, lsl #8
 344 01d4 2C308DE5 		str	r3, [sp, #44]
 136:D:/Work/DeviceTester/amazon-freertos/lib/third_party/mbedtls/library\sha1.c ****     GET_UINT32_BE( W[13], data, 52 );
 345              		.loc 1 136 0
 346 01d8 3530D1E5 		ldrb	r3, [r1, #53]	@ zero_extendqisi2
 347 01dc 3460D1E5 		ldrb	r6, [r1, #52]	@ zero_extendqisi2
 137:D:/Work/DeviceTester/amazon-freertos/lib/third_party/mbedtls/library\sha1.c ****     GET_UINT32_BE( W[14], data, 56 );
 138:D:/Work/DeviceTester/amazon-freertos/lib/third_party/mbedtls/library\sha1.c ****     GET_UINT32_BE( W[15], data, 60 );
 348              		.loc 1 138 0
 349 01e0 3C50D1E5 		ldrb	r5, [r1, #60]	@ zero_extendqisi2
 136:D:/Work/DeviceTester/amazon-freertos/lib/third_party/mbedtls/library\sha1.c ****     GET_UINT32_BE( W[13], data, 52 );
 350              		.loc 1 136 0
 351 01e4 0338A0E1 		lsl	r3, r3, #16
 352 01e8 063C83E1 		orr	r3, r3, r6, lsl #24
 353 01ec 3760D1E5 		ldrb	r6, [r1, #55]	@ zero_extendqisi2
 354 01f0 066083E1 		orr	r6, r3, r6
 355 01f4 3630D1E5 		ldrb	r3, [r1, #54]	@ zero_extendqisi2
 356 01f8 033486E1 		orr	r3, r6, r3, lsl #8
 137:D:/Work/DeviceTester/amazon-freertos/lib/third_party/mbedtls/library\sha1.c ****     GET_UINT32_BE( W[14], data, 56 );
 357              		.loc 1 137 0
 358 01fc 3860D1E5 		ldrb	r6, [r1, #56]	@ zero_extendqisi2
 136:D:/Work/DeviceTester/amazon-freertos/lib/third_party/mbedtls/library\sha1.c ****     GET_UINT32_BE( W[13], data, 52 );
 359              		.loc 1 136 0
 360 0200 04308DE5 		str	r3, [sp, #4]
 137:D:/Work/DeviceTester/amazon-freertos/lib/third_party/mbedtls/library\sha1.c ****     GET_UINT32_BE( W[14], data, 56 );
 361              		.loc 1 137 0
 362 0204 3930D1E5 		ldrb	r3, [r1, #57]	@ zero_extendqisi2
 363 0208 0338A0E1 		lsl	r3, r3, #16
 364 020c 063C83E1 		orr	r3, r3, r6, lsl #24
 365 0210 3B60D1E5 		ldrb	r6, [r1, #59]	@ zero_extendqisi2
 366 0214 066083E1 		orr	r6, r3, r6
 367 0218 3A30D1E5 		ldrb	r3, [r1, #58]	@ zero_extendqisi2
 368 021c 033486E1 		orr	r3, r6, r3, lsl #8
 369 0220 08308DE5 		str	r3, [sp, #8]
 370              		.loc 1 138 0
 371 0224 3D30D1E5 		ldrb	r3, [r1, #61]	@ zero_extendqisi2
 372 0228 0338A0E1 		lsl	r3, r3, #16
 373 022c 053C83E1 		orr	r3, r3, r5, lsl #24
 374 0230 3F50D1E5 		ldrb	r5, [r1, #63]	@ zero_extendqisi2
 375 0234 055083E1 		orr	r5, r3, r5
 376 0238 3E30D1E5 		ldrb	r3, [r1, #62]	@ zero_extendqisi2
 377 023c 033485E1 		orr	r3, r5, r3, lsl #8
 378 0240 0C308DE5 		str	r3, [sp, #12]
 139:D:/Work/DeviceTester/amazon-freertos/lib/third_party/mbedtls/library\sha1.c **** 
 140:D:/Work/DeviceTester/amazon-freertos/lib/third_party/mbedtls/library\sha1.c **** #define S(x,n) ((x << n) | ((x & 0xFFFFFFFF) >> (32 - n)))
 141:D:/Work/DeviceTester/amazon-freertos/lib/third_party/mbedtls/library\sha1.c **** 
 142:D:/Work/DeviceTester/amazon-freertos/lib/third_party/mbedtls/library\sha1.c **** #define R(t)                                            \
 143:D:/Work/DeviceTester/amazon-freertos/lib/third_party/mbedtls/library\sha1.c **** (                                                       \
 144:D:/Work/DeviceTester/amazon-freertos/lib/third_party/mbedtls/library\sha1.c ****     temp = W[( t -  3 ) & 0x0F] ^ W[( t - 8 ) & 0x0F] ^ \
 145:D:/Work/DeviceTester/amazon-freertos/lib/third_party/mbedtls/library\sha1.c ****            W[( t - 14 ) & 0x0F] ^ W[  t       & 0x0F],  \
 146:D:/Work/DeviceTester/amazon-freertos/lib/third_party/mbedtls/library\sha1.c ****     ( W[t & 0x0F] = S(temp,1) )                         \
 147:D:/Work/DeviceTester/amazon-freertos/lib/third_party/mbedtls/library\sha1.c **** )
 148:D:/Work/DeviceTester/amazon-freertos/lib/third_party/mbedtls/library\sha1.c **** 
 149:D:/Work/DeviceTester/amazon-freertos/lib/third_party/mbedtls/library\sha1.c **** #define P(a,b,c,d,e,x)                                  \
 150:D:/Work/DeviceTester/amazon-freertos/lib/third_party/mbedtls/library\sha1.c **** {                                                       \
 151:D:/Work/DeviceTester/amazon-freertos/lib/third_party/mbedtls/library\sha1.c ****     e += S(a,5) + F(b,c,d) + K + x; b = S(b,30);        \
 152:D:/Work/DeviceTester/amazon-freertos/lib/third_party/mbedtls/library\sha1.c **** }
 153:D:/Work/DeviceTester/amazon-freertos/lib/third_party/mbedtls/library\sha1.c **** 
 154:D:/Work/DeviceTester/amazon-freertos/lib/third_party/mbedtls/library\sha1.c ****     A = ctx->state[0];
 379              		.loc 1 154 0
 380 0244 00309DE5 		ldr	r3, [sp]
 381 0248 083093E5 		ldr	r3, [r3, #8]
 382 024c 48308DE5 		str	r3, [sp, #72]
 383              	.LVL25:
 155:D:/Work/DeviceTester/amazon-freertos/lib/third_party/mbedtls/library\sha1.c ****     B = ctx->state[1];
 384              		.loc 1 155 0
 385 0250 00309DE5 		ldr	r3, [sp]
 386              	.LVL26:
 387 0254 0C3093E5 		ldr	r3, [r3, #12]
 388 0258 50308DE5 		str	r3, [sp, #80]
 389              	.LVL27:
 156:D:/Work/DeviceTester/amazon-freertos/lib/third_party/mbedtls/library\sha1.c ****     C = ctx->state[2];
 390              		.loc 1 156 0
 391 025c 00309DE5 		ldr	r3, [sp]
 392              	.LVL28:
 393 0260 103093E5 		ldr	r3, [r3, #16]
 394 0264 10308DE5 		str	r3, [sp, #16]
 395              	.LVL29:
 157:D:/Work/DeviceTester/amazon-freertos/lib/third_party/mbedtls/library\sha1.c ****     D = ctx->state[3];
 396              		.loc 1 157 0
 397 0268 00309DE5 		ldr	r3, [sp]
 398              	.LVL30:
 399 026c 143093E5 		ldr	r3, [r3, #20]
 400 0270 4C308DE5 		str	r3, [sp, #76]
 401              	.LVL31:
 158:D:/Work/DeviceTester/amazon-freertos/lib/third_party/mbedtls/library\sha1.c ****     E = ctx->state[4];
 402              		.loc 1 158 0
 403 0274 00309DE5 		ldr	r3, [sp]
 404              	.LVL32:
 159:D:/Work/DeviceTester/amazon-freertos/lib/third_party/mbedtls/library\sha1.c **** 
 160:D:/Work/DeviceTester/amazon-freertos/lib/third_party/mbedtls/library\sha1.c **** #define F(x,y,z) (z ^ (x & (y ^ z)))
 161:D:/Work/DeviceTester/amazon-freertos/lib/third_party/mbedtls/library\sha1.c **** #define K 0x5A827999
 162:D:/Work/DeviceTester/amazon-freertos/lib/third_party/mbedtls/library\sha1.c **** 
 163:D:/Work/DeviceTester/amazon-freertos/lib/third_party/mbedtls/library\sha1.c ****     P( A, B, C, D, E, W[0]  );
 405              		.loc 1 163 0
 406 0278 4C209DE5 		ldr	r2, [sp, #76]
 158:D:/Work/DeviceTester/amazon-freertos/lib/third_party/mbedtls/library\sha1.c ****     E = ctx->state[4];
 407              		.loc 1 158 0
 408 027c 183093E5 		ldr	r3, [r3, #24]
 409 0280 54308DE5 		str	r3, [sp, #84]
 410              	.LVL33:
 411              		.loc 1 163 0
 412 0284 10309DE5 		ldr	r3, [sp, #16]
 413              	.LVL34:
 414 0288 027023E0 		eor	r7, r3, r2
 415 028c 50309DE5 		ldr	r3, [sp, #80]
 416 0290 48109DE5 		ldr	r1, [sp, #72]
 417              	.LVL35:
 418 0294 10C09DE5 		ldr	ip, [sp, #16]
 419 0298 037007E0 		and	r7, r7, r3
 420 029c F83F9FE5 		ldr	r3, .L11
 421 02a0 027027E0 		eor	r7, r7, r2
 422 02a4 54209DE5 		ldr	r2, [sp, #84]
 423 02a8 3C509DE5 		ldr	r5, [sp, #60]
 424 02ac 03C08CE0 		add	ip, ip, r3
 425 02b0 032082E0 		add	r2, r2, r3
 426 02b4 0EC08CE0 		add	ip, ip, lr
 427 02b8 E12D82E0 		add	r2, r2, r1, ror #27
 428 02bc 035085E0 		add	r5, r5, r3
 429 02c0 027087E0 		add	r7, r7, r2
 430 02c4 14209DE5 		ldr	r2, [sp, #20]
 431 02c8 077082E0 		add	r7, r2, r7
 432              	.LVL36:
 433 02cc 50209DE5 		ldr	r2, [sp, #80]
 434 02d0 6201A0E1 		ror	r0, r2, #2
 435              	.LVL37:
 164:D:/Work/DeviceTester/amazon-freertos/lib/third_party/mbedtls/library\sha1.c ****     P( E, A, B, C, D, W[1]  );
 436              		.loc 1 164 0
 437 02d4 10209DE5 		ldr	r2, [sp, #16]
 438 02d8 002022E0 		eor	r2, r2, r0
 439 02dc 012002E0 		and	r2, r2, r1
 440 02e0 10109DE5 		ldr	r1, [sp, #16]
 441 02e4 012022E0 		eor	r2, r2, r1
 442 02e8 4C109DE5 		ldr	r1, [sp, #76]
 443 02ec 031081E0 		add	r1, r1, r3
 444 02f0 012082E0 		add	r2, r2, r1
 445 02f4 18109DE5 		ldr	r1, [sp, #24]
 446 02f8 012082E0 		add	r2, r2, r1
 447 02fc 48109DE5 		ldr	r1, [sp, #72]
 448 0300 E72D82E0 		add	r2, r2, r7, ror #27
 449              	.LVL38:
 450 0304 6111A0E1 		ror	r1, r1, #2
 451              	.LVL39:
 165:D:/Work/DeviceTester/amazon-freertos/lib/third_party/mbedtls/library\sha1.c ****     P( D, E, A, B, C, W[2]  );
 452              		.loc 1 165 0
 453 0308 016020E0 		eor	r6, r0, r1
 454 030c 076006E0 		and	r6, r6, r7
 455 0310 6771A0E1 		ror	r7, r7, #2
 456              	.LVL40:
 457 0314 006026E0 		eor	r6, r6, r0
 458 0318 0C6086E0 		add	r6, r6, ip
 459 031c 30C09DE5 		ldr	ip, [sp, #48]
 166:D:/Work/DeviceTester/amazon-freertos/lib/third_party/mbedtls/library\sha1.c ****     P( C, D, E, A, B, W[3]  );
 460              		.loc 1 166 0
 461 0320 074021E0 		eor	r4, r1, r7
 462 0324 030080E0 		add	r0, r0, r3
 463              	.LVL41:
 464 0328 024004E0 		and	r4, r4, r2
 165:D:/Work/DeviceTester/amazon-freertos/lib/third_party/mbedtls/library\sha1.c ****     P( D, E, A, B, C, W[2]  );
 465              		.loc 1 165 0
 466 032c E26D86E0 		add	r6, r6, r2, ror #27
 467              	.LVL42:
 468 0330 0C0080E0 		add	r0, r0, ip
 469              	.LVL43:
 470              		.loc 1 166 0
 471 0334 6221A0E1 		ror	r2, r2, #2
 472              	.LVL44:
 473 0338 014024E0 		eor	r4, r4, r1
 474 033c 004084E0 		add	r4, r4, r0
 475 0340 34009DE5 		ldr	r0, [sp, #52]
 167:D:/Work/DeviceTester/amazon-freertos/lib/third_party/mbedtls/library\sha1.c ****     P( B, C, D, E, A, W[4]  );
 476              		.loc 1 167 0
 477 0344 02C027E0 		eor	ip, r7, r2
 478 0348 031081E0 		add	r1, r1, r3
 479              	.LVL45:
 480 034c 06C00CE0 		and	ip, ip, r6
 166:D:/Work/DeviceTester/amazon-freertos/lib/third_party/mbedtls/library\sha1.c ****     P( C, D, E, A, B, W[3]  );
 481              		.loc 1 166 0
 482 0350 E64D84E0 		add	r4, r4, r6, ror #27
 483              	.LVL46:
 484 0354 001081E0 		add	r1, r1, r0
 485              	.LVL47:
 486              		.loc 1 167 0
 487 0358 6661A0E1 		ror	r6, r6, #2
 488              	.LVL48:
 489 035c 07C02CE0 		eor	ip, ip, r7
 490 0360 01C08CE0 		add	ip, ip, r1
 491 0364 38109DE5 		ldr	r1, [sp, #56]
 168:D:/Work/DeviceTester/amazon-freertos/lib/third_party/mbedtls/library\sha1.c ****     P( A, B, C, D, E, W[5]  );
 492              		.loc 1 168 0
 493 0368 060022E0 		eor	r0, r2, r6
 167:D:/Work/DeviceTester/amazon-freertos/lib/third_party/mbedtls/library\sha1.c ****     P( B, C, D, E, A, W[4]  );
 494              		.loc 1 167 0
 495 036c E4CD8CE0 		add	ip, ip, r4, ror #27
 496              	.LVL49:
 497              		.loc 1 168 0
 498 0370 040000E0 		and	r0, r0, r4
 499 0374 6441A0E1 		ror	r4, r4, #2
 500              	.LVL50:
 501 0378 031081E0 		add	r1, r1, r3
 502 037c 077081E0 		add	r7, r1, r7
 503              	.LVL51:
 504 0380 020020E0 		eor	r0, r0, r2
 169:D:/Work/DeviceTester/amazon-freertos/lib/third_party/mbedtls/library\sha1.c ****     P( E, A, B, C, D, W[6]  );
 505              		.loc 1 169 0
 506 0384 041026E0 		eor	r1, r6, r4
 507 0388 070080E0 		add	r0, r0, r7
 168:D:/Work/DeviceTester/amazon-freertos/lib/third_party/mbedtls/library\sha1.c ****     P( A, B, C, D, E, W[5]  );
 508              		.loc 1 168 0
 509 038c EC0D80E0 		add	r0, r0, ip, ror #27
 510              	.LVL52:
 511              		.loc 1 169 0
 512 0390 0C1001E0 		and	r1, r1, ip
 513 0394 6CC1A0E1 		ror	ip, ip, #2
 514              	.LVL53:
 515 0398 061021E0 		eor	r1, r1, r6
 516 039c 022085E0 		add	r2, r5, r2
 517              	.LVL54:
 518 03a0 40509DE5 		ldr	r5, [sp, #64]
 519 03a4 022081E0 		add	r2, r1, r2
 170:D:/Work/DeviceTester/amazon-freertos/lib/third_party/mbedtls/library\sha1.c ****     P( D, E, A, B, C, W[7]  );
 520              		.loc 1 170 0
 521 03a8 0C1024E0 		eor	r1, r4, ip
 169:D:/Work/DeviceTester/amazon-freertos/lib/third_party/mbedtls/library\sha1.c ****     P( E, A, B, C, D, W[6]  );
 522              		.loc 1 169 0
 523 03ac E02D82E0 		add	r2, r2, r0, ror #27
 524              	.LVL55:
 525              		.loc 1 170 0
 526 03b0 001001E0 		and	r1, r1, r0
 527 03b4 6001A0E1 		ror	r0, r0, #2
 528              	.LVL56:
 529 03b8 035085E0 		add	r5, r5, r3
 530 03bc 066085E0 		add	r6, r5, r6
 531              	.LVL57:
 171:D:/Work/DeviceTester/amazon-freertos/lib/third_party/mbedtls/library\sha1.c ****     P( C, D, E, A, B, W[8]  );
 532              		.loc 1 171 0
 533 03c0 00B02CE0 		eor	fp, ip, r0
 534 03c4 035088E0 		add	r5, r8, r3
 170:D:/Work/DeviceTester/amazon-freertos/lib/third_party/mbedtls/library\sha1.c ****     P( D, E, A, B, C, W[7]  );
 535              		.loc 1 170 0
 536 03c8 041021E0 		eor	r1, r1, r4
 537              		.loc 1 171 0
 538 03cc 02B00BE0 		and	fp, fp, r2
 539 03d0 044085E0 		add	r4, r5, r4
 540              	.LVL58:
 541 03d4 061081E0 		add	r1, r1, r6
 542 03d8 0CB02BE0 		eor	fp, fp, ip
 170:D:/Work/DeviceTester/amazon-freertos/lib/third_party/mbedtls/library\sha1.c ****     P( D, E, A, B, C, W[7]  );
 543              		.loc 1 170 0
 544 03dc E21D81E0 		add	r1, r1, r2, ror #27
 545              	.LVL59:
 546 03e0 04B08BE0 		add	fp, fp, r4
 547              		.loc 1 171 0
 548 03e4 6221A0E1 		ror	r2, r2, #2
 549              	.LVL60:
 550 03e8 20409DE5 		ldr	r4, [sp, #32]
 551 03ec E1BD8BE0 		add	fp, fp, r1, ror #27
 552              	.LVL61:
 172:D:/Work/DeviceTester/amazon-freertos/lib/third_party/mbedtls/library\sha1.c ****     P( B, C, D, E, A, W[9]  );
 553              		.loc 1 172 0
 554 03f0 025020E0 		eor	r5, r0, r2
 555 03f4 015005E0 		and	r5, r5, r1
 556 03f8 6111A0E1 		ror	r1, r1, #2
 557              	.LVL62:
 558 03fc 034084E0 		add	r4, r4, r3
 559 0400 0CC084E0 		add	ip, r4, ip
 560              	.LVL63:
 561 0404 005025E0 		eor	r5, r5, r0
 562 0408 0C5085E0 		add	r5, r5, ip
 563 040c 24C09DE5 		ldr	ip, [sp, #36]
 173:D:/Work/DeviceTester/amazon-freertos/lib/third_party/mbedtls/library\sha1.c ****     P( A, B, C, D, E, W[10] );
 564              		.loc 1 173 0
 565 0410 01A022E0 		eor	r10, r2, r1
 172:D:/Work/DeviceTester/amazon-freertos/lib/third_party/mbedtls/library\sha1.c ****     P( B, C, D, E, A, W[9]  );
 566              		.loc 1 172 0
 567 0414 EB5D85E0 		add	r5, r5, fp, ror #27
 568              	.LVL64:
 569              		.loc 1 173 0
 570 0418 0BA00AE0 		and	r10, r10, fp
 571 041c 6BB1A0E1 		ror	fp, fp, #2
 572              	.LVL65:
 573 0420 03C08CE0 		add	ip, ip, r3
 574 0424 00008CE0 		add	r0, ip, r0
 575              	.LVL66:
 576 0428 02A02AE0 		eor	r10, r10, r2
 577 042c 00A08AE0 		add	r10, r10, r0
 578 0430 28009DE5 		ldr	r0, [sp, #40]
 174:D:/Work/DeviceTester/amazon-freertos/lib/third_party/mbedtls/library\sha1.c ****     P( E, A, B, C, D, W[11] );
 579              		.loc 1 174 0
 580 0434 0B9021E0 		eor	r9, r1, fp
 173:D:/Work/DeviceTester/amazon-freertos/lib/third_party/mbedtls/library\sha1.c ****     P( A, B, C, D, E, W[10] );
 581              		.loc 1 173 0
 582 0438 E5AD8AE0 		add	r10, r10, r5, ror #27
 583              	.LVL67:
 584              		.loc 1 174 0
 585 043c 059009E0 		and	r9, r9, r5
 586 0440 6551A0E1 		ror	r5, r5, #2
 587              	.LVL68:
 588 0444 030080E0 		add	r0, r0, r3
 589 0448 022080E0 		add	r2, r0, r2
 590              	.LVL69:
 591 044c 019029E0 		eor	r9, r9, r1
 592 0450 029089E0 		add	r9, r9, r2
 593 0454 2C209DE5 		ldr	r2, [sp, #44]
 175:D:/Work/DeviceTester/amazon-freertos/lib/third_party/mbedtls/library\sha1.c ****     P( D, E, A, B, C, W[12] );
 594              		.loc 1 175 0
 595 0458 05602BE0 		eor	r6, fp, r5
 174:D:/Work/DeviceTester/amazon-freertos/lib/third_party/mbedtls/library\sha1.c ****     P( E, A, B, C, D, W[11] );
 596              		.loc 1 174 0
 597 045c EA9D89E0 		add	r9, r9, r10, ror #27
 598              	.LVL70:
 599              		.loc 1 175 0
 600 0460 0A6006E0 		and	r6, r6, r10
 601 0464 6AA1A0E1 		ror	r10, r10, #2
 602              	.LVL71:
 603 0468 032082E0 		add	r2, r2, r3
 604 046c 011082E0 		add	r1, r2, r1
 605              	.LVL72:
 606 0470 04209DE5 		ldr	r2, [sp, #4]
 607 0474 0B6026E0 		eor	r6, r6, fp
 176:D:/Work/DeviceTester/amazon-freertos/lib/third_party/mbedtls/library\sha1.c ****     P( C, D, E, A, B, W[13] );
 608              		.loc 1 176 0
 609 0478 0A4025E0 		eor	r4, r5, r10
 610 047c 016086E0 		add	r6, r6, r1
 611 0480 094004E0 		and	r4, r4, r9
 612 0484 032082E0 		add	r2, r2, r3
 175:D:/Work/DeviceTester/amazon-freertos/lib/third_party/mbedtls/library\sha1.c ****     P( D, E, A, B, C, W[12] );
 613              		.loc 1 175 0
 614 0488 E96D86E0 		add	r6, r6, r9, ror #27
 615              	.LVL73:
 616 048c 0BB082E0 		add	fp, r2, fp
 617              	.LVL74:
 618 0490 08209DE5 		ldr	r2, [sp, #8]
 619              		.loc 1 176 0
 620 0494 6991A0E1 		ror	r9, r9, #2
 621              	.LVL75:
 622 0498 054024E0 		eor	r4, r4, r5
 623 049c 0B4084E0 		add	r4, r4, fp
 177:D:/Work/DeviceTester/amazon-freertos/lib/third_party/mbedtls/library\sha1.c ****     P( B, C, D, E, A, W[14] );
 178:D:/Work/DeviceTester/amazon-freertos/lib/third_party/mbedtls/library\sha1.c ****     P( A, B, C, D, E, W[15] );
 179:D:/Work/DeviceTester/amazon-freertos/lib/third_party/mbedtls/library\sha1.c ****     P( E, A, B, C, D, R(16) );
 180:D:/Work/DeviceTester/amazon-freertos/lib/third_party/mbedtls/library\sha1.c ****     P( D, E, A, B, C, R(17) );
 624              		.loc 1 180 0
 625 04a0 30109DE5 		ldr	r1, [sp, #48]
 626 04a4 032082E0 		add	r2, r2, r3
 177:D:/Work/DeviceTester/amazon-freertos/lib/third_party/mbedtls/library\sha1.c ****     P( B, C, D, E, A, W[14] );
 627              		.loc 1 177 0
 628 04a8 09702AE0 		eor	r7, r10, r9
 629 04ac 055082E0 		add	r5, r2, r5
 630              	.LVL76:
 631 04b0 0C209DE5 		ldr	r2, [sp, #12]
 632 04b4 067007E0 		and	r7, r7, r6
 176:D:/Work/DeviceTester/amazon-freertos/lib/third_party/mbedtls/library\sha1.c ****     P( C, D, E, A, B, W[13] );
 633              		.loc 1 176 0
 634 04b8 E64D84E0 		add	r4, r4, r6, ror #27
 635              	.LVL77:
 177:D:/Work/DeviceTester/amazon-freertos/lib/third_party/mbedtls/library\sha1.c ****     P( B, C, D, E, A, W[14] );
 636              		.loc 1 177 0
 637 04bc 0A7027E0 		eor	r7, r7, r10
 638 04c0 6661A0E1 		ror	r6, r6, #2
 639              	.LVL78:
 640 04c4 032082E0 		add	r2, r2, r3
 641 04c8 0AA082E0 		add	r10, r2, r10
 642              	.LVL79:
 179:D:/Work/DeviceTester/amazon-freertos/lib/third_party/mbedtls/library\sha1.c ****     P( D, E, A, B, C, R(17) );
 643              		.loc 1 179 0
 644 04cc 14209DE5 		ldr	r2, [sp, #20]
 645 04d0 057087E0 		add	r7, r7, r5
 178:D:/Work/DeviceTester/amazon-freertos/lib/third_party/mbedtls/library\sha1.c ****     P( E, A, B, C, D, R(16) );
 646              		.loc 1 178 0
 647 04d4 06C029E0 		eor	ip, r9, r6
 648 04d8 04C00CE0 		and	ip, ip, r4
 177:D:/Work/DeviceTester/amazon-freertos/lib/third_party/mbedtls/library\sha1.c ****     P( B, C, D, E, A, W[14] );
 649              		.loc 1 177 0
 650 04dc E47D87E0 		add	r7, r7, r4, ror #27
 651              	.LVL80:
 179:D:/Work/DeviceTester/amazon-freertos/lib/third_party/mbedtls/library\sha1.c ****     P( D, E, A, B, C, R(17) );
 652              		.loc 1 179 0
 653 04e0 0E5022E0 		eor	r5, r2, lr
 654 04e4 04209DE5 		ldr	r2, [sp, #4]
 655 04e8 085025E0 		eor	r5, r5, r8
 178:D:/Work/DeviceTester/amazon-freertos/lib/third_party/mbedtls/library\sha1.c ****     P( E, A, B, C, D, R(16) );
 656              		.loc 1 178 0
 657 04ec 09C02CE0 		eor	ip, ip, r9
 658 04f0 6441A0E1 		ror	r4, r4, #2
 659              	.LVL81:
 660 04f4 0AC08CE0 		add	ip, ip, r10
 179:D:/Work/DeviceTester/amazon-freertos/lib/third_party/mbedtls/library\sha1.c ****     P( D, E, A, B, C, R(17) );
 661              		.loc 1 179 0
 662 04f8 025025E0 		eor	r5, r5, r2
 178:D:/Work/DeviceTester/amazon-freertos/lib/third_party/mbedtls/library\sha1.c ****     P( E, A, B, C, D, R(16) );
 663              		.loc 1 178 0
 664 04fc E7CD8CE0 		add	ip, ip, r7, ror #27
 665              	.LVL82:
 179:D:/Work/DeviceTester/amazon-freertos/lib/third_party/mbedtls/library\sha1.c ****     P( D, E, A, B, C, R(17) );
 666              		.loc 1 179 0
 667 0500 E52FA0E1 		ror	r2, r5, #31
 668 0504 040026E0 		eor	r0, r6, r4
 669 0508 070000E0 		and	r0, r0, r7
 670 050c 6771A0E1 		ror	r7, r7, #2
 671              	.LVL83:
 672 0510 14208DE5 		str	r2, [sp, #20]
 673              	.LVL84:
 674 0514 032082E0 		add	r2, r2, r3
 675              	.LVL85:
 676 0518 099082E0 		add	r9, r2, r9
 677              	.LVL86:
 678              		.loc 1 180 0
 679 051c 18209DE5 		ldr	r2, [sp, #24]
 179:D:/Work/DeviceTester/amazon-freertos/lib/third_party/mbedtls/library\sha1.c ****     P( D, E, A, B, C, R(17) );
 680              		.loc 1 179 0
 681 0520 060020E0 		eor	r0, r0, r6
 682 0524 090080E0 		add	r0, r0, r9
 683              		.loc 1 180 0
 684 0528 012022E0 		eor	r2, r2, r1
 685 052c 20109DE5 		ldr	r1, [sp, #32]
 179:D:/Work/DeviceTester/amazon-freertos/lib/third_party/mbedtls/library\sha1.c ****     P( D, E, A, B, C, R(17) );
 686              		.loc 1 179 0
 687 0530 EC0D80E0 		add	r0, r0, ip, ror #27
 688              	.LVL87:
 689              		.loc 1 180 0
 690 0534 012022E0 		eor	r2, r2, r1
 691 0538 08109DE5 		ldr	r1, [sp, #8]
 692              	.LVL88:
 693 053c 012022E0 		eor	r2, r2, r1
 694              	.LVL89:
 695 0540 071024E0 		eor	r1, r4, r7
 696 0544 E22FA0E1 		ror	r2, r2, #31
 697              	.LVL90:
 698 0548 0C1001E0 		and	r1, r1, ip
 699 054c 6CC1A0E1 		ror	ip, ip, #2
 700              	.LVL91:
 701 0550 041021E0 		eor	r1, r1, r4
 702 0554 18208DE5 		str	r2, [sp, #24]
 703              	.LVL92:
 704 0558 032082E0 		add	r2, r2, r3
 705              	.LVL93:
 706 055c 066082E0 		add	r6, r2, r6
 707              	.LVL94:
 181:D:/Work/DeviceTester/amazon-freertos/lib/third_party/mbedtls/library\sha1.c ****     P( C, D, E, A, B, R(18) );
 708              		.loc 1 181 0
 709 0560 34209DE5 		ldr	r2, [sp, #52]
 710 0564 061081E0 		add	r1, r1, r6
 180:D:/Work/DeviceTester/amazon-freertos/lib/third_party/mbedtls/library\sha1.c ****     P( C, D, E, A, B, R(18) );
 711              		.loc 1 180 0
 712 0568 E01D81E0 		add	r1, r1, r0, ror #27
 713              	.LVL95:
 714              		.loc 1 181 0
 715 056c 02E02EE0 		eor	lr, lr, r2
 716              	.LVL96:
 717 0570 24209DE5 		ldr	r2, [sp, #36]
 718 0574 02E02EE0 		eor	lr, lr, r2
 719 0578 0C209DE5 		ldr	r2, [sp, #12]
 720 057c 02E02EE0 		eor	lr, lr, r2
 721              	.LVL97:
 722 0580 EE2FA0E1 		ror	r2, lr, #31
 723 0584 1C208DE5 		str	r2, [sp, #28]
 724              	.LVL98:
 725 0588 0C2027E0 		eor	r2, r7, ip
 726              	.LVL99:
 727 058c 1CE09DE5 		ldr	lr, [sp, #28]
 728              	.LVL100:
 729 0590 002002E0 		and	r2, r2, r0
 730 0594 072022E0 		eor	r2, r2, r7
 731 0598 6001A0E1 		ror	r0, r0, #2
 732              	.LVL101:
 733 059c 03E08EE0 		add	lr, lr, r3
 182:D:/Work/DeviceTester/amazon-freertos/lib/third_party/mbedtls/library\sha1.c ****     P( B, C, D, E, A, R(19) );
 734              		.loc 1 182 0
 735 05a0 00502CE0 		eor	r5, ip, r0
 736 05a4 04408EE0 		add	r4, lr, r4
 737              	.LVL102:
 738 05a8 30E09DE5 		ldr	lr, [sp, #48]
 739 05ac 042082E0 		add	r2, r2, r4
 740 05b0 38409DE5 		ldr	r4, [sp, #56]
 741 05b4 015005E0 		and	r5, r5, r1
 181:D:/Work/DeviceTester/amazon-freertos/lib/third_party/mbedtls/library\sha1.c ****     P( C, D, E, A, B, R(18) );
 742              		.loc 1 181 0
 743 05b8 E12D82E0 		add	r2, r2, r1, ror #27
 744              	.LVL103:
 745              		.loc 1 182 0
 746 05bc 0C5025E0 		eor	r5, r5, ip
 747 05c0 6111A0E1 		ror	r1, r1, #2
 748              	.LVL104:
 749 05c4 04402EE0 		eor	r4, lr, r4
 750 05c8 28E09DE5 		ldr	lr, [sp, #40]
 183:D:/Work/DeviceTester/amazon-freertos/lib/third_party/mbedtls/library\sha1.c **** 
 184:D:/Work/DeviceTester/amazon-freertos/lib/third_party/mbedtls/library\sha1.c **** #undef K
 185:D:/Work/DeviceTester/amazon-freertos/lib/third_party/mbedtls/library\sha1.c **** #undef F
 186:D:/Work/DeviceTester/amazon-freertos/lib/third_party/mbedtls/library\sha1.c **** 
 187:D:/Work/DeviceTester/amazon-freertos/lib/third_party/mbedtls/library\sha1.c **** #define F(x,y,z) (x ^ y ^ z)
 188:D:/Work/DeviceTester/amazon-freertos/lib/third_party/mbedtls/library\sha1.c **** #define K 0x6ED9EBA1
 189:D:/Work/DeviceTester/amazon-freertos/lib/third_party/mbedtls/library\sha1.c **** 
 190:D:/Work/DeviceTester/amazon-freertos/lib/third_party/mbedtls/library\sha1.c ****     P( A, B, C, D, E, R(20) );
 751              		.loc 1 190 0
 752 05cc 01B020E0 		eor	fp, r0, r1
 753 05d0 02B02BE0 		eor	fp, fp, r2
 182:D:/Work/DeviceTester/amazon-freertos/lib/third_party/mbedtls/library\sha1.c ****     P( B, C, D, E, A, R(19) );
 754              		.loc 1 182 0
 755 05d4 0E4024E0 		eor	r4, r4, lr
 756 05d8 14E09DE5 		ldr	lr, [sp, #20]
 757 05dc 0E4024E0 		eor	r4, r4, lr
 758              	.LVL105:
 759              		.loc 1 190 0
 760 05e0 3CE09DE5 		ldr	lr, [sp, #60]
 182:D:/Work/DeviceTester/amazon-freertos/lib/third_party/mbedtls/library\sha1.c ****     P( B, C, D, E, A, R(19) );
 761              		.loc 1 182 0
 762 05e4 E44FA0E1 		ror	r4, r4, #31
 763              	.LVL106:
 764 05e8 033084E0 		add	r3, r4, r3
 765 05ec 073083E0 		add	r3, r3, r7
 766 05f0 035085E0 		add	r5, r5, r3
 767              		.loc 1 190 0
 768 05f4 34309DE5 		ldr	r3, [sp, #52]
 182:D:/Work/DeviceTester/amazon-freertos/lib/third_party/mbedtls/library\sha1.c ****     P( B, C, D, E, A, R(19) );
 769              		.loc 1 182 0
 770 05f8 E25D85E0 		add	r5, r5, r2, ror #27
 771              	.LVL107:
 772              		.loc 1 190 0
 773 05fc 6221A0E1 		ror	r2, r2, #2
 774              	.LVL108:
 775 0600 0EE023E0 		eor	lr, r3, lr
 776 0604 2C309DE5 		ldr	r3, [sp, #44]
 191:D:/Work/DeviceTester/amazon-freertos/lib/third_party/mbedtls/library\sha1.c ****     P( E, A, B, C, D, R(21) );
 777              		.loc 1 191 0
 778 0608 02A021E0 		eor	r10, r1, r2
 779 060c 05A02AE0 		eor	r10, r10, r5
 190:D:/Work/DeviceTester/amazon-freertos/lib/third_party/mbedtls/library\sha1.c ****     P( E, A, B, C, D, R(21) );
 780              		.loc 1 190 0
 781 0610 03E02EE0 		eor	lr, lr, r3
 782 0614 18309DE5 		ldr	r3, [sp, #24]
 783 0618 03E02EE0 		eor	lr, lr, r3
 784              	.LVL109:
 785 061c 7C3C9FE5 		ldr	r3, .L11+4
 786 0620 EEEFA0E1 		ror	lr, lr, #31
 787              	.LVL110:
 788 0624 03608EE0 		add	r6, lr, r3
 789 0628 0CC086E0 		add	ip, r6, ip
 790              	.LVL111:
 791              		.loc 1 191 0
 792 062c 40609DE5 		ldr	r6, [sp, #64]
 793 0630 0CB08BE0 		add	fp, fp, ip
 794 0634 38C09DE5 		ldr	ip, [sp, #56]
 190:D:/Work/DeviceTester/amazon-freertos/lib/third_party/mbedtls/library\sha1.c ****     P( E, A, B, C, D, R(21) );
 795              		.loc 1 190 0
 796 0638 E5BD8BE0 		add	fp, fp, r5, ror #27
 797              	.LVL112:
 798              		.loc 1 191 0
 799 063c 6551A0E1 		ror	r5, r5, #2
 800              	.LVL113:
 801 0640 06C02CE0 		eor	ip, ip, r6
 802 0644 04609DE5 		ldr	r6, [sp, #4]
 803 0648 06C02CE0 		eor	ip, ip, r6
 804 064c 1C609DE5 		ldr	r6, [sp, #28]
 805 0650 06C02CE0 		eor	ip, ip, r6
 806              	.LVL114:
 807 0654 ECCFA0E1 		ror	ip, ip, #31
 808              	.LVL115:
 809 0658 03608CE0 		add	r6, ip, r3
 810 065c 000086E0 		add	r0, r6, r0
 811              	.LVL116:
 192:D:/Work/DeviceTester/amazon-freertos/lib/third_party/mbedtls/library\sha1.c ****     P( D, E, A, B, C, R(22) );
 812              		.loc 1 192 0
 813 0660 08609DE5 		ldr	r6, [sp, #8]
 814 0664 00A08AE0 		add	r10, r10, r0
 815 0668 3C009DE5 		ldr	r0, [sp, #60]
 191:D:/Work/DeviceTester/amazon-freertos/lib/third_party/mbedtls/library\sha1.c ****     P( E, A, B, C, D, R(21) );
 816              		.loc 1 191 0
 817 066c EBAD8AE0 		add	r10, r10, fp, ror #27
 818              	.LVL117:
 819              		.loc 1 192 0
 820 0670 080020E0 		eor	r0, r0, r8
 821 0674 060020E0 		eor	r0, r0, r6
 822 0678 056022E0 		eor	r6, r2, r5
 823 067c 040020E0 		eor	r0, r0, r4
 824              	.LVL118:
 825 0680 0B6026E0 		eor	r6, r6, fp
 826 0684 E00FA0E1 		ror	r0, r0, #31
 827              	.LVL119:
 828 0688 6BB1A0E1 		ror	fp, fp, #2
 829              	.LVL120:
 830 068c 037080E0 		add	r7, r0, r3
 193:D:/Work/DeviceTester/amazon-freertos/lib/third_party/mbedtls/library\sha1.c ****     P( C, D, E, A, B, R(23) );
 831              		.loc 1 193 0
 832 0690 0B9025E0 		eor	r9, r5, fp
 833 0694 011087E0 		add	r1, r7, r1
 834              	.LVL121:
 835 0698 20709DE5 		ldr	r7, [sp, #32]
 836 069c 016086E0 		add	r6, r6, r1
 837 06a0 40109DE5 		ldr	r1, [sp, #64]
 838 06a4 0A9029E0 		eor	r9, r9, r10
 192:D:/Work/DeviceTester/amazon-freertos/lib/third_party/mbedtls/library\sha1.c ****     P( D, E, A, B, C, R(22) );
 839              		.loc 1 192 0
 840 06a8 EA6D86E0 		add	r6, r6, r10, ror #27
 841              	.LVL122:
 842              		.loc 1 193 0
 843 06ac 6AA1A0E1 		ror	r10, r10, #2
 844              	.LVL123:
 845 06b0 071021E0 		eor	r1, r1, r7
 846 06b4 0C709DE5 		ldr	r7, [sp, #12]
 847 06b8 071021E0 		eor	r1, r1, r7
 848 06bc 0E1021E0 		eor	r1, r1, lr
 849              	.LVL124:
 850 06c0 E11FA0E1 		ror	r1, r1, #31
 851              	.LVL125:
 852 06c4 037081E0 		add	r7, r1, r3
 853 06c8 022087E0 		add	r2, r7, r2
 854              	.LVL126:
 194:D:/Work/DeviceTester/amazon-freertos/lib/third_party/mbedtls/library\sha1.c ****     P( B, C, D, E, A, R(24) );
 855              		.loc 1 194 0
 856 06cc 14709DE5 		ldr	r7, [sp, #20]
 857 06d0 029089E0 		add	r9, r9, r2
 858 06d4 24209DE5 		ldr	r2, [sp, #36]
 193:D:/Work/DeviceTester/amazon-freertos/lib/third_party/mbedtls/library\sha1.c ****     P( C, D, E, A, B, R(23) );
 859              		.loc 1 193 0
 860 06d8 E69D89E0 		add	r9, r9, r6, ror #27
 861              	.LVL127:
 862              		.loc 1 194 0
 863 06dc 022028E0 		eor	r2, r8, r2
 864 06e0 0A802BE0 		eor	r8, fp, r10
 865              	.LVL128:
 866 06e4 072022E0 		eor	r2, r2, r7
 867 06e8 068028E0 		eor	r8, r8, r6
 868 06ec 0C2022E0 		eor	r2, r2, ip
 869              	.LVL129:
 870 06f0 6661A0E1 		ror	r6, r6, #2
 871              	.LVL130:
 872 06f4 E22FA0E1 		ror	r2, r2, #31
 873              	.LVL131:
 874 06f8 037082E0 		add	r7, r2, r3
 875 06fc 055087E0 		add	r5, r7, r5
 876              	.LVL132:
 195:D:/Work/DeviceTester/amazon-freertos/lib/third_party/mbedtls/library\sha1.c ****     P( A, B, C, D, E, R(25) );
 877              		.loc 1 195 0
 878 0700 28709DE5 		ldr	r7, [sp, #40]
 879 0704 058088E0 		add	r8, r8, r5
 880 0708 20509DE5 		ldr	r5, [sp, #32]
 194:D:/Work/DeviceTester/amazon-freertos/lib/third_party/mbedtls/library\sha1.c ****     P( B, C, D, E, A, R(24) );
 881              		.loc 1 194 0
 882 070c E98D88E0 		add	r8, r8, r9, ror #27
 883              	.LVL133:
 884              		.loc 1 195 0
 885 0710 075025E0 		eor	r5, r5, r7
 886 0714 18709DE5 		ldr	r7, [sp, #24]
 887 0718 075025E0 		eor	r5, r5, r7
 888 071c 005025E0 		eor	r5, r5, r0
 889              	.LVL134:
 890 0720 E55FA0E1 		ror	r5, r5, #31
 891              	.LVL135:
 892 0724 20508DE5 		str	r5, [sp, #32]
 893              	.LVL136:
 894 0728 06502AE0 		eor	r5, r10, r6
 895 072c 20709DE5 		ldr	r7, [sp, #32]
 896 0730 095025E0 		eor	r5, r5, r9
 897 0734 6991A0E1 		ror	r9, r9, #2
 898              	.LVL137:
 899 0738 037087E0 		add	r7, r7, r3
 900 073c 0BB087E0 		add	fp, r7, fp
 901              	.LVL138:
 196:D:/Work/DeviceTester/amazon-freertos/lib/third_party/mbedtls/library\sha1.c ****     P( E, A, B, C, D, R(26) );
 902              		.loc 1 196 0
 903 0740 24709DE5 		ldr	r7, [sp, #36]
 904 0744 0B5085E0 		add	r5, r5, fp
 905 0748 2CB09DE5 		ldr	fp, [sp, #44]
 195:D:/Work/DeviceTester/amazon-freertos/lib/third_party/mbedtls/library\sha1.c ****     P( A, B, C, D, E, R(25) );
 906              		.loc 1 195 0
 907 074c E85D85E0 		add	r5, r5, r8, ror #27
 908              	.LVL139:
 909              		.loc 1 196 0
 910 0750 0B7027E0 		eor	r7, r7, fp
 911 0754 1CB09DE5 		ldr	fp, [sp, #28]
 912 0758 0B7027E0 		eor	r7, r7, fp
 913 075c 09B026E0 		eor	fp, r6, r9
 914 0760 017027E0 		eor	r7, r7, r1
 915              	.LVL140:
 916 0764 08B02BE0 		eor	fp, fp, r8
 917 0768 E77FA0E1 		ror	r7, r7, #31
 918              	.LVL141:
 919 076c 6881A0E1 		ror	r8, r8, #2
 920              	.LVL142:
 921 0770 24708DE5 		str	r7, [sp, #36]
 922              	.LVL143:
 923 0774 037087E0 		add	r7, r7, r3
 924 0778 0AA087E0 		add	r10, r7, r10
 925              	.LVL144:
 197:D:/Work/DeviceTester/amazon-freertos/lib/third_party/mbedtls/library\sha1.c ****     P( D, E, A, B, C, R(27) );
 926              		.loc 1 197 0
 927 077c 28709DE5 		ldr	r7, [sp, #40]
 928 0780 0AB08BE0 		add	fp, fp, r10
 929 0784 04A09DE5 		ldr	r10, [sp, #4]
 196:D:/Work/DeviceTester/amazon-freertos/lib/third_party/mbedtls/library\sha1.c ****     P( E, A, B, C, D, R(26) );
 930              		.loc 1 196 0
 931 0788 E5BD8BE0 		add	fp, fp, r5, ror #27
 932              	.LVL145:
 933              		.loc 1 197 0
 934 078c 0A7027E0 		eor	r7, r7, r10
 935 0790 08A029E0 		eor	r10, r9, r8
 936 0794 047027E0 		eor	r7, r7, r4
 937 0798 05A02AE0 		eor	r10, r10, r5
 938 079c 027027E0 		eor	r7, r7, r2
 939 07a0 6551A0E1 		ror	r5, r5, #2
 940              	.LVL146:
 941 07a4 E77FA0E1 		ror	r7, r7, #31
 942 07a8 28708DE5 		str	r7, [sp, #40]
 943 07ac 037087E0 		add	r7, r7, r3
 944 07b0 066087E0 		add	r6, r7, r6
 945              	.LVL147:
 198:D:/Work/DeviceTester/amazon-freertos/lib/third_party/mbedtls/library\sha1.c ****     P( C, D, E, A, B, R(28) );
 946              		.loc 1 198 0
 947 07b4 08709DE5 		ldr	r7, [sp, #8]
 948 07b8 06A08AE0 		add	r10, r10, r6
 949 07bc 2C609DE5 		ldr	r6, [sp, #44]
 197:D:/Work/DeviceTester/amazon-freertos/lib/third_party/mbedtls/library\sha1.c ****     P( D, E, A, B, C, R(27) );
 950              		.loc 1 197 0
 951 07c0 EBAD8AE0 		add	r10, r10, fp, ror #27
 952              	.LVL148:
 953              		.loc 1 198 0
 954 07c4 076026E0 		eor	r6, r6, r7
 955 07c8 20709DE5 		ldr	r7, [sp, #32]
 956 07cc 0E6026E0 		eor	r6, r6, lr
 957 07d0 076026E0 		eor	r6, r6, r7
 958              	.LVL149:
 959 07d4 E66FA0E1 		ror	r6, r6, #31
 960              	.LVL150:
 961 07d8 2C608DE5 		str	r6, [sp, #44]
 962              	.LVL151:
 963 07dc 056028E0 		eor	r6, r8, r5
 964 07e0 2C709DE5 		ldr	r7, [sp, #44]
 965 07e4 0B6026E0 		eor	r6, r6, fp
 966 07e8 6BB1A0E1 		ror	fp, fp, #2
 967              	.LVL152:
 968 07ec 037087E0 		add	r7, r7, r3
 969 07f0 099087E0 		add	r9, r7, r9
 970              	.LVL153:
 199:D:/Work/DeviceTester/amazon-freertos/lib/third_party/mbedtls/library\sha1.c ****     P( B, C, D, E, A, R(29) );
 971              		.loc 1 199 0
 972 07f4 0C709DE5 		ldr	r7, [sp, #12]
 973 07f8 099086E0 		add	r9, r6, r9
 974 07fc 04609DE5 		ldr	r6, [sp, #4]
 198:D:/Work/DeviceTester/amazon-freertos/lib/third_party/mbedtls/library\sha1.c ****     P( C, D, E, A, B, R(28) );
 975              		.loc 1 198 0
 976 0800 EA9D89E0 		add	r9, r9, r10, ror #27
 977              	.LVL154:
 978              		.loc 1 199 0
 979 0804 076026E0 		eor	r6, r6, r7
 980 0808 24709DE5 		ldr	r7, [sp, #36]
 981 080c 0C6026E0 		eor	r6, r6, ip
 982 0810 076026E0 		eor	r6, r6, r7
 983              	.LVL155:
 984 0814 0B7025E0 		eor	r7, r5, fp
 985 0818 E66FA0E1 		ror	r6, r6, #31
 986              	.LVL156:
 987 081c 0A7027E0 		eor	r7, r7, r10
 988 0820 6AA1A0E1 		ror	r10, r10, #2
 989              	.LVL157:
 990 0824 04608DE5 		str	r6, [sp, #4]
 991              	.LVL158:
 992 0828 036086E0 		add	r6, r6, r3
 993 082c 088086E0 		add	r8, r6, r8
 994              	.LVL159:
 200:D:/Work/DeviceTester/amazon-freertos/lib/third_party/mbedtls/library\sha1.c ****     P( A, B, C, D, E, R(30) );
 995              		.loc 1 200 0
 996 0830 08609DE5 		ldr	r6, [sp, #8]
 997 0834 087087E0 		add	r7, r7, r8
 998 0838 14809DE5 		ldr	r8, [sp, #20]
 199:D:/Work/DeviceTester/amazon-freertos/lib/third_party/mbedtls/library\sha1.c ****     P( B, C, D, E, A, R(29) );
 999              		.loc 1 199 0
 1000 083c E97D87E0 		add	r7, r7, r9, ror #27
 1001              	.LVL160:
 1002              		.loc 1 200 0
 1003 0840 086026E0 		eor	r6, r6, r8
 1004 0844 28809DE5 		ldr	r8, [sp, #40]
 1005 0848 006026E0 		eor	r6, r6, r0
 1006 084c 086026E0 		eor	r6, r6, r8
 1007              	.LVL161:
 1008 0850 0A802BE0 		eor	r8, fp, r10
 1009 0854 E66FA0E1 		ror	r6, r6, #31
 1010              	.LVL162:
 1011 0858 098028E0 		eor	r8, r8, r9
 1012 085c 6991A0E1 		ror	r9, r9, #2
 1013              	.LVL163:
 1014 0860 08608DE5 		str	r6, [sp, #8]
 1015              	.LVL164:
 1016 0864 036086E0 		add	r6, r6, r3
 1017 0868 055086E0 		add	r5, r6, r5
 1018              	.LVL165:
 201:D:/Work/DeviceTester/amazon-freertos/lib/third_party/mbedtls/library\sha1.c ****     P( E, A, B, C, D, R(31) );
 1019              		.loc 1 201 0
 1020 086c 18609DE5 		ldr	r6, [sp, #24]
 1021 0870 058088E0 		add	r8, r8, r5
 1022 0874 0C509DE5 		ldr	r5, [sp, #12]
 200:D:/Work/DeviceTester/amazon-freertos/lib/third_party/mbedtls/library\sha1.c ****     P( A, B, C, D, E, R(30) );
 1023              		.loc 1 200 0
 1024 0878 E78D88E0 		add	r8, r8, r7, ror #27
 1025              	.LVL166:
 1026              		.loc 1 201 0
 1027 087c 065025E0 		eor	r5, r5, r6
 1028 0880 2C609DE5 		ldr	r6, [sp, #44]
 1029 0884 015025E0 		eor	r5, r5, r1
 1030 0888 065025E0 		eor	r5, r5, r6
 1031              	.LVL167:
 1032 088c 09602AE0 		eor	r6, r10, r9
 1033 0890 E55FA0E1 		ror	r5, r5, #31
 1034              	.LVL168:
 1035 0894 076026E0 		eor	r6, r6, r7
 1036 0898 6771A0E1 		ror	r7, r7, #2
 1037              	.LVL169:
 1038 089c 0C508DE5 		str	r5, [sp, #12]
 1039              	.LVL170:
 1040 08a0 035085E0 		add	r5, r5, r3
 1041 08a4 0BB085E0 		add	fp, r5, fp
 1042              	.LVL171:
 202:D:/Work/DeviceTester/amazon-freertos/lib/third_party/mbedtls/library\sha1.c ****     P( D, E, A, B, C, R(32) );
 1043              		.loc 1 202 0
 1044 08a8 14509DE5 		ldr	r5, [sp, #20]
 1045 08ac 0B6086E0 		add	r6, r6, fp
 1046 08b0 1CB09DE5 		ldr	fp, [sp, #28]
 201:D:/Work/DeviceTester/amazon-freertos/lib/third_party/mbedtls/library\sha1.c ****     P( E, A, B, C, D, R(31) );
 1047              		.loc 1 201 0
 1048 08b4 E86D86E0 		add	r6, r6, r8, ror #27
 1049              	.LVL172:
 1050              		.loc 1 202 0
 1051 08b8 0B5025E0 		eor	r5, r5, fp
 1052 08bc 04B09DE5 		ldr	fp, [sp, #4]
 1053 08c0 025025E0 		eor	r5, r5, r2
 1054 08c4 0B5025E0 		eor	r5, r5, fp
 1055              	.LVL173:
 1056 08c8 E55FA0E1 		ror	r5, r5, #31
 1057              	.LVL174:
 1058 08cc 14508DE5 		str	r5, [sp, #20]
 1059              	.LVL175:
 1060 08d0 075029E0 		eor	r5, r9, r7
 1061              	.LVL176:
 1062 08d4 14B09DE5 		ldr	fp, [sp, #20]
 1063 08d8 085025E0 		eor	r5, r5, r8
 1064 08dc 6881A0E1 		ror	r8, r8, #2
 1065              	.LVL177:
 1066 08e0 03B08BE0 		add	fp, fp, r3
 1067 08e4 0AA08BE0 		add	r10, fp, r10
 1068              	.LVL178:
 203:D:/Work/DeviceTester/amazon-freertos/lib/third_party/mbedtls/library\sha1.c ****     P( C, D, E, A, B, R(33) );
 1069              		.loc 1 203 0
 1070 08e8 20B09DE5 		ldr	fp, [sp, #32]
 1071 08ec 0A5085E0 		add	r5, r5, r10
 1072 08f0 18A09DE5 		ldr	r10, [sp, #24]
 202:D:/Work/DeviceTester/amazon-freertos/lib/third_party/mbedtls/library\sha1.c ****     P( D, E, A, B, C, R(32) );
 1073              		.loc 1 202 0
 1074 08f4 E65D85E0 		add	r5, r5, r6, ror #27
 1075              	.LVL179:
 1076              		.loc 1 203 0
 1077 08f8 04A02AE0 		eor	r10, r10, r4
 204:D:/Work/DeviceTester/amazon-freertos/lib/third_party/mbedtls/library\sha1.c ****     P( B, C, D, E, A, R(34) );
 205:D:/Work/DeviceTester/amazon-freertos/lib/third_party/mbedtls/library\sha1.c ****     P( A, B, C, D, E, R(35) );
 1078              		.loc 1 205 0
 1079 08fc 0C4024E0 		eor	r4, r4, ip
 1080              	.LVL180:
 203:D:/Work/DeviceTester/amazon-freertos/lib/third_party/mbedtls/library\sha1.c ****     P( C, D, E, A, B, R(33) );
 1081              		.loc 1 203 0
 1082 0900 0BA02AE0 		eor	r10, r10, fp
 1083 0904 08B09DE5 		ldr	fp, [sp, #8]
 206:D:/Work/DeviceTester/amazon-freertos/lib/third_party/mbedtls/library\sha1.c ****     P( E, A, B, C, D, R(36) );
 207:D:/Work/DeviceTester/amazon-freertos/lib/third_party/mbedtls/library\sha1.c ****     P( D, E, A, B, C, R(37) );
 1084              		.loc 1 207 0
 1085 0908 01C02CE0 		eor	ip, ip, r1
 1086              	.LVL181:
 203:D:/Work/DeviceTester/amazon-freertos/lib/third_party/mbedtls/library\sha1.c ****     P( B, C, D, E, A, R(34) );
 1087              		.loc 1 203 0
 1088 090c 0BA02AE0 		eor	r10, r10, fp
 1089              	.LVL182:
 1090 0910 08B027E0 		eor	fp, r7, r8
 1091 0914 EAAFA0E1 		ror	r10, r10, #31
 1092              	.LVL183:
 1093 0918 06B02BE0 		eor	fp, fp, r6
 1094 091c 6661A0E1 		ror	r6, r6, #2
 1095              	.LVL184:
 1096 0920 18A08DE5 		str	r10, [sp, #24]
 1097              	.LVL185:
 1098 0924 03A08AE0 		add	r10, r10, r3
 1099              	.LVL186:
 1100 0928 09908AE0 		add	r9, r10, r9
 1101              	.LVL187:
 204:D:/Work/DeviceTester/amazon-freertos/lib/third_party/mbedtls/library\sha1.c ****     P( B, C, D, E, A, R(34) );
 1102              		.loc 1 204 0
 1103 092c 24A09DE5 		ldr	r10, [sp, #36]
 1104 0930 09B08BE0 		add	fp, fp, r9
 1105 0934 1C909DE5 		ldr	r9, [sp, #28]
 203:D:/Work/DeviceTester/amazon-freertos/lib/third_party/mbedtls/library\sha1.c ****     P( B, C, D, E, A, R(34) );
 1106              		.loc 1 203 0
 1107 0938 E5BD8BE0 		add	fp, fp, r5, ror #27
 1108              	.LVL188:
 204:D:/Work/DeviceTester/amazon-freertos/lib/third_party/mbedtls/library\sha1.c ****     P( B, C, D, E, A, R(34) );
 1109              		.loc 1 204 0
 1110 093c 0E9029E0 		eor	r9, r9, lr
 206:D:/Work/DeviceTester/amazon-freertos/lib/third_party/mbedtls/library\sha1.c ****     P( E, A, B, C, D, R(36) );
 1111              		.loc 1 206 0
 1112 0940 00E02EE0 		eor	lr, lr, r0
 1113              	.LVL189:
 204:D:/Work/DeviceTester/amazon-freertos/lib/third_party/mbedtls/library\sha1.c ****     P( B, C, D, E, A, R(34) );
 1114              		.loc 1 204 0
 1115 0944 0A9029E0 		eor	r9, r9, r10
 1116 0948 0CA09DE5 		ldr	r10, [sp, #12]
 208:D:/Work/DeviceTester/amazon-freertos/lib/third_party/mbedtls/library\sha1.c ****     P( C, D, E, A, B, R(38) );
 1117              		.loc 1 208 0
 1118 094c 020020E0 		eor	r0, r0, r2
 1119              	.LVL190:
 204:D:/Work/DeviceTester/amazon-freertos/lib/third_party/mbedtls/library\sha1.c ****     P( A, B, C, D, E, R(35) );
 1120              		.loc 1 204 0
 1121 0950 0A9029E0 		eor	r9, r9, r10
 1122              	.LVL191:
 1123 0954 06A028E0 		eor	r10, r8, r6
 1124 0958 E99FA0E1 		ror	r9, r9, #31
 1125              	.LVL192:
 1126 095c 05A02AE0 		eor	r10, r10, r5
 1127 0960 6551A0E1 		ror	r5, r5, #2
 1128              	.LVL193:
 1129 0964 1C908DE5 		str	r9, [sp, #28]
 1130              	.LVL194:
 1131 0968 039089E0 		add	r9, r9, r3
 1132              	.LVL195:
 1133 096c 077089E0 		add	r7, r9, r7
 1134              	.LVL196:
 1135 0970 07A08AE0 		add	r10, r10, r7
 205:D:/Work/DeviceTester/amazon-freertos/lib/third_party/mbedtls/library\sha1.c ****     P( E, A, B, C, D, R(36) );
 1136              		.loc 1 205 0
 1137 0974 28709DE5 		ldr	r7, [sp, #40]
 204:D:/Work/DeviceTester/amazon-freertos/lib/third_party/mbedtls/library\sha1.c ****     P( A, B, C, D, E, R(35) );
 1138              		.loc 1 204 0
 1139 0978 EBAD8AE0 		add	r10, r10, fp, ror #27
 1140              	.LVL197:
 205:D:/Work/DeviceTester/amazon-freertos/lib/third_party/mbedtls/library\sha1.c ****     P( E, A, B, C, D, R(36) );
 1141              		.loc 1 205 0
 1142 097c 074024E0 		eor	r4, r4, r7
 1143 0980 14709DE5 		ldr	r7, [sp, #20]
 1144 0984 074024E0 		eor	r4, r4, r7
 1145 0988 E49FA0E1 		ror	r9, r4, #31
 1146              	.LVL198:
 1147 098c 054026E0 		eor	r4, r6, r5
 1148 0990 0B4024E0 		eor	r4, r4, fp
 1149 0994 6BB1A0E1 		ror	fp, fp, #2
 1150              	.LVL199:
 1151 0998 037089E0 		add	r7, r9, r3
 1152 099c 088087E0 		add	r8, r7, r8
 1153              	.LVL200:
 206:D:/Work/DeviceTester/amazon-freertos/lib/third_party/mbedtls/library\sha1.c ****     P( D, E, A, B, C, R(37) );
 1154              		.loc 1 206 0
 1155 09a0 2C709DE5 		ldr	r7, [sp, #44]
 1156 09a4 088084E0 		add	r8, r4, r8
 205:D:/Work/DeviceTester/amazon-freertos/lib/third_party/mbedtls/library\sha1.c ****     P( E, A, B, C, D, R(36) );
 1157              		.loc 1 205 0
 1158 09a8 EA4D88E0 		add	r4, r8, r10, ror #27
 1159              	.LVL201:
 206:D:/Work/DeviceTester/amazon-freertos/lib/third_party/mbedtls/library\sha1.c ****     P( D, E, A, B, C, R(37) );
 1160              		.loc 1 206 0
 1161 09ac 07E02EE0 		eor	lr, lr, r7
 1162 09b0 18709DE5 		ldr	r7, [sp, #24]
 1163 09b4 07E02EE0 		eor	lr, lr, r7
 1164 09b8 EEEFA0E1 		ror	lr, lr, #31
 1165 09bc 30E08DE5 		str	lr, [sp, #48]
 1166              	.LVL202:
 1167 09c0 0BE025E0 		eor	lr, r5, fp
 1168              	.LVL203:
 1169 09c4 30709DE5 		ldr	r7, [sp, #48]
 1170 09c8 0AE02EE0 		eor	lr, lr, r10
 1171 09cc 6AA1A0E1 		ror	r10, r10, #2
 1172              	.LVL204:
 1173 09d0 037087E0 		add	r7, r7, r3
 1174 09d4 066087E0 		add	r6, r7, r6
 1175              	.LVL205:
 1176 09d8 06608EE0 		add	r6, lr, r6
 1177 09dc E4ED86E0 		add	lr, r6, r4, ror #27
 1178              	.LVL206:
 207:D:/Work/DeviceTester/amazon-freertos/lib/third_party/mbedtls/library\sha1.c ****     P( C, D, E, A, B, R(38) );
 1179              		.loc 1 207 0
 1180 09e0 04609DE5 		ldr	r6, [sp, #4]
 1181 09e4 06C02CE0 		eor	ip, ip, r6
 1182 09e8 1C609DE5 		ldr	r6, [sp, #28]
 1183 09ec 06C02CE0 		eor	ip, ip, r6
 1184 09f0 ECCFA0E1 		ror	ip, ip, #31
 1185 09f4 34C08DE5 		str	ip, [sp, #52]
 1186              	.LVL207:
 1187 09f8 0AC02BE0 		eor	ip, fp, r10
 1188              	.LVL208:
 1189 09fc 34609DE5 		ldr	r6, [sp, #52]
 1190 0a00 04C02CE0 		eor	ip, ip, r4
 1191 0a04 6441A0E1 		ror	r4, r4, #2
 1192              	.LVL209:
 1193 0a08 036086E0 		add	r6, r6, r3
 1194 0a0c 055086E0 		add	r5, r6, r5
 1195              	.LVL210:
 1196 0a10 05508CE0 		add	r5, ip, r5
 1197 0a14 EECD85E0 		add	ip, r5, lr, ror #27
 1198              	.LVL211:
 1199              		.loc 1 208 0
 1200 0a18 08509DE5 		ldr	r5, [sp, #8]
 1201 0a1c 050020E0 		eor	r0, r0, r5
 1202 0a20 090020E0 		eor	r0, r0, r9
 1203 0a24 E00FA0E1 		ror	r0, r0, #31
 1204 0a28 38008DE5 		str	r0, [sp, #56]
 1205              	.LVL212:
 1206 0a2c 04002AE0 		eor	r0, r10, r4
 1207              	.LVL213:
 1208 0a30 38509DE5 		ldr	r5, [sp, #56]
 1209 0a34 0E0020E0 		eor	r0, r0, lr
 1210 0a38 6EE1A0E1 		ror	lr, lr, #2
 1211              	.LVL214:
 1212 0a3c 035085E0 		add	r5, r5, r3
 1213 0a40 0BB085E0 		add	fp, r5, fp
 1214              	.LVL215:
 209:D:/Work/DeviceTester/amazon-freertos/lib/third_party/mbedtls/library\sha1.c ****     P( B, C, D, E, A, R(39) );
 1215              		.loc 1 209 0
 1216 0a44 20509DE5 		ldr	r5, [sp, #32]
 1217 0a48 0BB080E0 		add	fp, r0, fp
 208:D:/Work/DeviceTester/amazon-freertos/lib/third_party/mbedtls/library\sha1.c ****     P( B, C, D, E, A, R(39) );
 1218              		.loc 1 208 0
 1219 0a4c EC0D8BE0 		add	r0, fp, ip, ror #27
 1220              	.LVL216:
 1221              		.loc 1 209 0
 1222 0a50 051021E0 		eor	r1, r1, r5
 1223              	.LVL217:
 1224 0a54 0C509DE5 		ldr	r5, [sp, #12]
 1225 0a58 051021E0 		eor	r1, r1, r5
 1226 0a5c 30509DE5 		ldr	r5, [sp, #48]
 1227 0a60 051021E0 		eor	r1, r1, r5
 1228              	.LVL218:
 1229 0a64 E11FA0E1 		ror	r1, r1, #31
 1230              	.LVL219:
 1231 0a68 3C108DE5 		str	r1, [sp, #60]
 1232              	.LVL220:
 1233 0a6c 0E1024E0 		eor	r1, r4, lr
 1234              	.LVL221:
 1235 0a70 3C509DE5 		ldr	r5, [sp, #60]
 1236 0a74 0C1021E0 		eor	r1, r1, ip
 1237 0a78 6CC1A0E1 		ror	ip, ip, #2
 1238              	.LVL222:
 1239 0a7c 033085E0 		add	r3, r5, r3
 210:D:/Work/DeviceTester/amazon-freertos/lib/third_party/mbedtls/library\sha1.c **** 
 211:D:/Work/DeviceTester/amazon-freertos/lib/third_party/mbedtls/library\sha1.c **** #undef K
 212:D:/Work/DeviceTester/amazon-freertos/lib/third_party/mbedtls/library\sha1.c **** #undef F
 213:D:/Work/DeviceTester/amazon-freertos/lib/third_party/mbedtls/library\sha1.c **** 
 214:D:/Work/DeviceTester/amazon-freertos/lib/third_party/mbedtls/library\sha1.c **** #define F(x,y,z) ((x & y) | (z & (x | y)))
 215:D:/Work/DeviceTester/amazon-freertos/lib/third_party/mbedtls/library\sha1.c **** #define K 0x8F1BBCDC
 216:D:/Work/DeviceTester/amazon-freertos/lib/third_party/mbedtls/library\sha1.c **** 
 217:D:/Work/DeviceTester/amazon-freertos/lib/third_party/mbedtls/library\sha1.c ****     P( A, B, C, D, E, R(40) );
 1240              		.loc 1 217 0
 1241 0a80 0C5000E0 		and	r5, r0, ip
 1242 0a84 0AA083E0 		add	r10, r3, r10
 1243              	.LVL223:
 1244 0a88 24309DE5 		ldr	r3, [sp, #36]
 1245 0a8c 0AA081E0 		add	r10, r1, r10
 209:D:/Work/DeviceTester/amazon-freertos/lib/third_party/mbedtls/library\sha1.c **** 
 1246              		.loc 1 209 0
 1247 0a90 E01D8AE0 		add	r1, r10, r0, ror #27
 1248              	.LVL224:
 1249              		.loc 1 217 0
 1250 0a94 032022E0 		eor	r2, r2, r3
 1251              	.LVL225:
 1252 0a98 14309DE5 		ldr	r3, [sp, #20]
 1253 0a9c 032022E0 		eor	r2, r2, r3
 1254 0aa0 34309DE5 		ldr	r3, [sp, #52]
 1255 0aa4 032022E0 		eor	r2, r2, r3
 1256              	.LVL226:
 1257 0aa8 E23FA0E1 		ror	r3, r2, #31
 1258 0aac 40308DE5 		str	r3, [sp, #64]
 1259 0ab0 40209DE5 		ldr	r2, [sp, #64]
 1260              	.LVL227:
 1261 0ab4 E8379FE5 		ldr	r3, .L11+8
 1262 0ab8 032082E0 		add	r2, r2, r3
 1263 0abc 044082E0 		add	r4, r2, r4
 1264              	.LVL228:
 1265 0ac0 0C2080E1 		orr	r2, r0, ip
 1266 0ac4 E14D84E0 		add	r4, r4, r1, ror #27
 1267 0ac8 0E2002E0 		and	r2, r2, lr
 1268 0acc 052082E1 		orr	r2, r2, r5
 218:D:/Work/DeviceTester/amazon-freertos/lib/third_party/mbedtls/library\sha1.c ****     P( E, A, B, C, D, R(41) );
 1269              		.loc 1 218 0
 1270 0ad0 28509DE5 		ldr	r5, [sp, #40]
 217:D:/Work/DeviceTester/amazon-freertos/lib/third_party/mbedtls/library\sha1.c ****     P( E, A, B, C, D, R(41) );
 1271              		.loc 1 217 0
 1272 0ad4 044082E0 		add	r4, r2, r4
 1273              	.LVL229:
 1274              		.loc 1 218 0
 1275 0ad8 20209DE5 		ldr	r2, [sp, #32]
 217:D:/Work/DeviceTester/amazon-freertos/lib/third_party/mbedtls/library\sha1.c ****     P( E, A, B, C, D, R(41) );
 1276              		.loc 1 217 0
 1277 0adc 6001A0E1 		ror	r0, r0, #2
 1278              	.LVL230:
 1279              		.loc 1 218 0
 1280 0ae0 055022E0 		eor	r5, r2, r5
 1281 0ae4 18209DE5 		ldr	r2, [sp, #24]
 1282 0ae8 006081E1 		orr	r6, r1, r0
 1283 0aec 025025E0 		eor	r5, r5, r2
 1284 0af0 38209DE5 		ldr	r2, [sp, #56]
 1285 0af4 025025E0 		eor	r5, r5, r2
 1286              	.LVL231:
 1287 0af8 E52FA0E1 		ror	r2, r5, #31
 1288 0afc 20208DE5 		str	r2, [sp, #32]
 1289 0b00 0C2006E0 		and	r2, r6, ip
 1290 0b04 006001E0 		and	r6, r1, r0
 1291 0b08 6111A0E1 		ror	r1, r1, #2
 1292              	.LVL232:
 1293 0b0c 066082E1 		orr	r6, r2, r6
 1294 0b10 20209DE5 		ldr	r2, [sp, #32]
 1295 0b14 032082E0 		add	r2, r2, r3
 1296 0b18 0EE082E0 		add	lr, r2, lr
 1297              	.LVL233:
 219:D:/Work/DeviceTester/amazon-freertos/lib/third_party/mbedtls/library\sha1.c ****     P( D, E, A, B, C, R(42) );
 1298              		.loc 1 219 0
 1299 0b1c 24209DE5 		ldr	r2, [sp, #36]
 1300 0b20 0EE086E0 		add	lr, r6, lr
 218:D:/Work/DeviceTester/amazon-freertos/lib/third_party/mbedtls/library\sha1.c ****     P( E, A, B, C, D, R(41) );
 1301              		.loc 1 218 0
 1302 0b24 E46D8EE0 		add	r6, lr, r4, ror #27
 1303              	.LVL234:
 1304              		.loc 1 219 0
 1305 0b28 2CE09DE5 		ldr	lr, [sp, #44]
 1306 0b2c 0E7022E0 		eor	r7, r2, lr
 1307 0b30 1C209DE5 		ldr	r2, [sp, #28]
 1308 0b34 027027E0 		eor	r7, r7, r2
 1309 0b38 3C209DE5 		ldr	r2, [sp, #60]
 220:D:/Work/DeviceTester/amazon-freertos/lib/third_party/mbedtls/library\sha1.c ****     P( C, D, E, A, B, R(43) );
 1310              		.loc 1 220 0
 1311 0b3c 04E09DE5 		ldr	lr, [sp, #4]
 219:D:/Work/DeviceTester/amazon-freertos/lib/third_party/mbedtls/library\sha1.c ****     P( D, E, A, B, C, R(42) );
 1312              		.loc 1 219 0
 1313 0b40 027027E0 		eor	r7, r7, r2
 1314              	.LVL235:
 1315 0b44 E72FA0E1 		ror	r2, r7, #31
 1316 0b48 035082E0 		add	r5, r2, r3
 1317 0b4c 24208DE5 		str	r2, [sp, #36]
 1318 0b50 0CC085E0 		add	ip, r5, ip
 1319              	.LVL236:
 1320 0b54 015084E1 		orr	r5, r4, r1
 1321 0b58 012004E0 		and	r2, r4, r1
 1322 0b5c 005005E0 		and	r5, r5, r0
 1323 0b60 025085E1 		orr	r5, r5, r2
 1324              		.loc 1 220 0
 1325 0b64 28209DE5 		ldr	r2, [sp, #40]
 219:D:/Work/DeviceTester/amazon-freertos/lib/third_party/mbedtls/library\sha1.c ****     P( D, E, A, B, C, R(42) );
 1326              		.loc 1 219 0
 1327 0b68 6441A0E1 		ror	r4, r4, #2
 1328              	.LVL237:
 1329 0b6c E6CD8CE0 		add	ip, ip, r6, ror #27
 1330              		.loc 1 220 0
 1331 0b70 0E7022E0 		eor	r7, r2, lr
 1332              	.LVL238:
 1333 0b74 40209DE5 		ldr	r2, [sp, #64]
 1334 0b78 097027E0 		eor	r7, r7, r9
 1335 0b7c 04E086E1 		orr	lr, r6, r4
 219:D:/Work/DeviceTester/amazon-freertos/lib/third_party/mbedtls/library\sha1.c ****     P( D, E, A, B, C, R(42) );
 1336              		.loc 1 219 0
 1337 0b80 0CC085E0 		add	ip, r5, ip
 1338              	.LVL239:
 1339              		.loc 1 220 0
 1340 0b84 027027E0 		eor	r7, r7, r2
 1341              	.LVL240:
 1342 0b88 E72FA0E1 		ror	r2, r7, #31
 1343 0b8c 6671A0E1 		ror	r7, r6, #2
 1344              	.LVL241:
 1345 0b90 28208DE5 		str	r2, [sp, #40]
 1346              	.LVL242:
 1347 0b94 01200EE0 		and	r2, lr, r1
 1348 0b98 04E006E0 		and	lr, r6, r4
 1349 0b9c 0EE082E1 		orr	lr, r2, lr
 1350 0ba0 28209DE5 		ldr	r2, [sp, #40]
 1351 0ba4 032082E0 		add	r2, r2, r3
 1352 0ba8 000082E0 		add	r0, r2, r0
 1353              	.LVL243:
 221:D:/Work/DeviceTester/amazon-freertos/lib/third_party/mbedtls/library\sha1.c ****     P( B, C, D, E, A, R(44) );
 1354              		.loc 1 221 0
 1355 0bac 2C209DE5 		ldr	r2, [sp, #44]
 1356 0bb0 00008EE0 		add	r0, lr, r0
 220:D:/Work/DeviceTester/amazon-freertos/lib/third_party/mbedtls/library\sha1.c ****     P( C, D, E, A, B, R(43) );
 1357              		.loc 1 220 0
 1358 0bb4 ECED80E0 		add	lr, r0, ip, ror #27
 1359              	.LVL244:
 1360              		.loc 1 221 0
 1361 0bb8 08009DE5 		ldr	r0, [sp, #8]
 1362 0bbc 006022E0 		eor	r6, r2, r0
 1363 0bc0 30209DE5 		ldr	r2, [sp, #48]
 222:D:/Work/DeviceTester/amazon-freertos/lib/third_party/mbedtls/library\sha1.c ****     P( A, B, C, D, E, R(45) );
 1364              		.loc 1 222 0
 1365 0bc4 0C009DE5 		ldr	r0, [sp, #12]
 221:D:/Work/DeviceTester/amazon-freertos/lib/third_party/mbedtls/library\sha1.c ****     P( B, C, D, E, A, R(44) );
 1366              		.loc 1 221 0
 1367 0bc8 026026E0 		eor	r6, r6, r2
 1368 0bcc 20209DE5 		ldr	r2, [sp, #32]
 1369 0bd0 026026E0 		eor	r6, r6, r2
 1370              	.LVL245:
 1371 0bd4 E62FA0E1 		ror	r2, r6, #31
 1372 0bd8 035082E0 		add	r5, r2, r3
 1373 0bdc 2C208DE5 		str	r2, [sp, #44]
 1374 0be0 011085E0 		add	r1, r5, r1
 1375              	.LVL246:
 1376 0be4 07508CE1 		orr	r5, ip, r7
 1377 0be8 07200CE0 		and	r2, ip, r7
 1378 0bec 045005E0 		and	r5, r5, r4
 1379 0bf0 025085E1 		orr	r5, r5, r2
 1380              		.loc 1 222 0
 1381 0bf4 04209DE5 		ldr	r2, [sp, #4]
 221:D:/Work/DeviceTester/amazon-freertos/lib/third_party/mbedtls/library\sha1.c ****     P( B, C, D, E, A, R(44) );
 1382              		.loc 1 221 0
 1383 0bf8 6CC1A0E1 		ror	ip, ip, #2
 1384              	.LVL247:
 1385 0bfc EE1D81E0 		add	r1, r1, lr, ror #27
 1386              		.loc 1 222 0
 1387 0c00 002022E0 		eor	r2, r2, r0
 1388 0c04 34009DE5 		ldr	r0, [sp, #52]
 221:D:/Work/DeviceTester/amazon-freertos/lib/third_party/mbedtls/library\sha1.c ****     P( B, C, D, E, A, R(44) );
 1389              		.loc 1 221 0
 1390 0c08 011085E0 		add	r1, r5, r1
 1391              	.LVL248:
 1392              		.loc 1 222 0
 1393 0c0c 002022E0 		eor	r2, r2, r0
 1394 0c10 24009DE5 		ldr	r0, [sp, #36]
 1395 0c14 002022E0 		eor	r2, r2, r0
 1396              	.LVL249:
 1397 0c18 0C008EE1 		orr	r0, lr, ip
 1398 0c1c E22FA0E1 		ror	r2, r2, #31
 1399              	.LVL250:
 1400 0c20 04208DE5 		str	r2, [sp, #4]
 1401              	.LVL251:
 1402 0c24 072000E0 		and	r2, r0, r7
 1403 0c28 0C000EE0 		and	r0, lr, ip
 1404 0c2c 000082E1 		orr	r0, r2, r0
 1405 0c30 04209DE5 		ldr	r2, [sp, #4]
 1406 0c34 035082E0 		add	r5, r2, r3
 223:D:/Work/DeviceTester/amazon-freertos/lib/third_party/mbedtls/library\sha1.c ****     P( E, A, B, C, D, R(46) );
 1407              		.loc 1 223 0
 1408 0c38 08209DE5 		ldr	r2, [sp, #8]
 1409 0c3c 044085E0 		add	r4, r5, r4
 1410              	.LVL252:
 1411 0c40 044080E0 		add	r4, r0, r4
 222:D:/Work/DeviceTester/amazon-freertos/lib/third_party/mbedtls/library\sha1.c ****     P( A, B, C, D, E, R(45) );
 1412              		.loc 1 222 0
 1413 0c44 6E01A0E1 		ror	r0, lr, #2
 1414              		.loc 1 223 0
 1415 0c48 14E09DE5 		ldr	lr, [sp, #20]
 1416              	.LVL253:
 222:D:/Work/DeviceTester/amazon-freertos/lib/third_party/mbedtls/library\sha1.c ****     P( A, B, C, D, E, R(45) );
 1417              		.loc 1 222 0
 1418 0c4c E14D84E0 		add	r4, r4, r1, ror #27
 1419              	.LVL254:
 1420              		.loc 1 223 0
 1421 0c50 0E6022E0 		eor	r6, r2, lr
 1422 0c54 38209DE5 		ldr	r2, [sp, #56]
 1423 0c58 00E081E1 		orr	lr, r1, r0
 1424 0c5c 0CE00EE0 		and	lr, lr, ip
 1425 0c60 026026E0 		eor	r6, r6, r2
 1426 0c64 28209DE5 		ldr	r2, [sp, #40]
 1427 0c68 026026E0 		eor	r6, r6, r2
 1428              	.LVL255:
 1429 0c6c E62FA0E1 		ror	r2, r6, #31
 1430 0c70 036082E0 		add	r6, r2, r3
 1431              	.LVL256:
 1432 0c74 08208DE5 		str	r2, [sp, #8]
 1433              	.LVL257:
 1434 0c78 076086E0 		add	r6, r6, r7
 224:D:/Work/DeviceTester/amazon-freertos/lib/third_party/mbedtls/library\sha1.c ****     P( D, E, A, B, C, R(47) );
 1435              		.loc 1 224 0
 1436 0c7c 0C209DE5 		ldr	r2, [sp, #12]
 1437 0c80 E47D86E0 		add	r7, r6, r4, ror #27
 1438              	.LVL258:
 223:D:/Work/DeviceTester/amazon-freertos/lib/third_party/mbedtls/library\sha1.c ****     P( E, A, B, C, D, R(46) );
 1439              		.loc 1 223 0
 1440 0c84 006001E0 		and	r6, r1, r0
 1441 0c88 06E08EE1 		orr	lr, lr, r6
 1442 0c8c 6111A0E1 		ror	r1, r1, #2
 1443              	.LVL259:
 1444 0c90 07608EE0 		add	r6, lr, r7
 1445              	.LVL260:
 1446              		.loc 1 224 0
 1447 0c94 18E09DE5 		ldr	lr, [sp, #24]
 1448 0c98 01A084E1 		orr	r10, r4, r1
 1449 0c9c 0E2022E0 		eor	r2, r2, lr
 1450 0ca0 3CE09DE5 		ldr	lr, [sp, #60]
 1451 0ca4 0E2022E0 		eor	r2, r2, lr
 1452 0ca8 2CE09DE5 		ldr	lr, [sp, #44]
 1453 0cac 0E2022E0 		eor	r2, r2, lr
 1454              	.LVL261:
 225:D:/Work/DeviceTester/amazon-freertos/lib/third_party/mbedtls/library\sha1.c ****     P( C, D, E, A, B, R(48) );
 1455              		.loc 1 225 0
 1456 0cb0 1CE09DE5 		ldr	lr, [sp, #28]
 224:D:/Work/DeviceTester/amazon-freertos/lib/third_party/mbedtls/library\sha1.c ****     P( D, E, A, B, C, R(47) );
 1457              		.loc 1 224 0
 1458 0cb4 E22FA0E1 		ror	r2, r2, #31
 1459              	.LVL262:
 1460 0cb8 0C208DE5 		str	r2, [sp, #12]
 1461              	.LVL263:
 1462 0cbc 00200AE0 		and	r2, r10, r0
 1463 0cc0 01A004E0 		and	r10, r4, r1
 1464 0cc4 6441A0E1 		ror	r4, r4, #2
 1465              	.LVL264:
 1466 0cc8 0AA082E1 		orr	r10, r2, r10
 1467 0ccc 0C209DE5 		ldr	r2, [sp, #12]
 1468 0cd0 032082E0 		add	r2, r2, r3
 1469 0cd4 0CC082E0 		add	ip, r2, ip
 1470              	.LVL265:
 1471              		.loc 1 225 0
 1472 0cd8 14209DE5 		ldr	r2, [sp, #20]
 1473 0cdc 0CC08AE0 		add	ip, r10, ip
 224:D:/Work/DeviceTester/amazon-freertos/lib/third_party/mbedtls/library\sha1.c ****     P( D, E, A, B, C, R(47) );
 1474              		.loc 1 224 0
 1475 0ce0 E6CD8CE0 		add	ip, ip, r6, ror #27
 1476              	.LVL266:
 1477              		.loc 1 225 0
 1478 0ce4 0E5022E0 		eor	r5, r2, lr
 1479 0ce8 40209DE5 		ldr	r2, [sp, #64]
 1480 0cec 04E006E0 		and	lr, r6, r4
 1481 0cf0 025025E0 		eor	r5, r5, r2
 1482 0cf4 04209DE5 		ldr	r2, [sp, #4]
 1483 0cf8 025025E0 		eor	r5, r5, r2
 1484              	.LVL267:
 1485 0cfc E52FA0E1 		ror	r2, r5, #31
 1486 0d00 14208DE5 		str	r2, [sp, #20]
 1487              	.LVL268:
 1488 0d04 032082E0 		add	r2, r2, r3
 1489              	.LVL269:
 1490 0d08 002082E0 		add	r2, r2, r0
 1491 0d0c EC0D82E0 		add	r0, r2, ip, ror #27
 1492              	.LVL270:
 1493 0d10 042086E1 		orr	r2, r6, r4
 1494 0d14 012002E0 		and	r2, r2, r1
 1495 0d18 0E2082E1 		orr	r2, r2, lr
 1496 0d1c 66E1A0E1 		ror	lr, r6, #2
 1497 0d20 002082E0 		add	r2, r2, r0
 1498              	.LVL271:
 226:D:/Work/DeviceTester/amazon-freertos/lib/third_party/mbedtls/library\sha1.c ****     P( B, C, D, E, A, R(49) );
 1499              		.loc 1 226 0
 1500 0d24 18009DE5 		ldr	r0, [sp, #24]
 1501 0d28 0E808CE1 		orr	r8, ip, lr
 1502 0d2c 09A020E0 		eor	r10, r0, r9
 1503 0d30 20009DE5 		ldr	r0, [sp, #32]
 1504 0d34 00A02AE0 		eor	r10, r10, r0
 1505 0d38 08009DE5 		ldr	r0, [sp, #8]
 1506 0d3c 00A02AE0 		eor	r10, r10, r0
 1507              	.LVL272:
 1508 0d40 EA0FA0E1 		ror	r0, r10, #31
 1509 0d44 6CA1A0E1 		ror	r10, ip, #2
 1510              	.LVL273:
 1511 0d48 18008DE5 		str	r0, [sp, #24]
 1512              	.LVL274:
 1513 0d4c 040008E0 		and	r0, r8, r4
 1514              	.LVL275:
 1515 0d50 0E800CE0 		and	r8, ip, lr
 1516 0d54 088080E1 		orr	r8, r0, r8
 1517 0d58 18009DE5 		ldr	r0, [sp, #24]
 1518 0d5c 030080E0 		add	r0, r0, r3
 1519 0d60 011080E0 		add	r1, r0, r1
 1520              	.LVL276:
 227:D:/Work/DeviceTester/amazon-freertos/lib/third_party/mbedtls/library\sha1.c ****     P( A, B, C, D, E, R(50) );
 1521              		.loc 1 227 0
 1522 0d64 30009DE5 		ldr	r0, [sp, #48]
 1523 0d68 018088E0 		add	r8, r8, r1
 1524 0d6c 1C109DE5 		ldr	r1, [sp, #28]
 226:D:/Work/DeviceTester/amazon-freertos/lib/third_party/mbedtls/library\sha1.c ****     P( B, C, D, E, A, R(49) );
 1525              		.loc 1 226 0
 1526 0d70 E28D88E0 		add	r8, r8, r2, ror #27
 1527              	.LVL277:
 1528              		.loc 1 227 0
 1529 0d74 00C021E0 		eor	ip, r1, r0
 1530 0d78 24109DE5 		ldr	r1, [sp, #36]
 1531 0d7c 01C02CE0 		eor	ip, ip, r1
 1532 0d80 0C109DE5 		ldr	r1, [sp, #12]
 1533 0d84 01C02CE0 		eor	ip, ip, r1
 1534              	.LVL278:
 1535 0d88 EC1FA0E1 		ror	r1, ip, #31
 228:D:/Work/DeviceTester/amazon-freertos/lib/third_party/mbedtls/library\sha1.c ****     P( E, A, B, C, D, R(51) );
 229:D:/Work/DeviceTester/amazon-freertos/lib/third_party/mbedtls/library\sha1.c ****     P( D, E, A, B, C, R(52) );
 1536              		.loc 1 229 0
 1537 0d8c 38C09DE5 		ldr	ip, [sp, #56]
 1538              	.LVL279:
 1539 0d90 037081E0 		add	r7, r1, r3
 227:D:/Work/DeviceTester/amazon-freertos/lib/third_party/mbedtls/library\sha1.c ****     P( A, B, C, D, E, R(50) );
 1540              		.loc 1 227 0
 1541 0d94 1C108DE5 		str	r1, [sp, #28]
 1542              	.LVL280:
 1543 0d98 047087E0 		add	r7, r7, r4
 1544 0d9c 0A1002E0 		and	r1, r2, r10
 1545              	.LVL281:
 1546 0da0 E84D87E0 		add	r4, r7, r8, ror #27
 1547              	.LVL282:
 1548 0da4 0A7082E1 		orr	r7, r2, r10
 1549 0da8 0E7007E0 		and	r7, r7, lr
 1550 0dac 6221A0E1 		ror	r2, r2, #2
 1551              	.LVL283:
 1552 0db0 017087E1 		orr	r7, r7, r1
 228:D:/Work/DeviceTester/amazon-freertos/lib/third_party/mbedtls/library\sha1.c ****     P( E, A, B, C, D, R(51) );
 1553              		.loc 1 228 0
 1554 0db4 34109DE5 		ldr	r1, [sp, #52]
 1555 0db8 025088E1 		orr	r5, r8, r2
 227:D:/Work/DeviceTester/amazon-freertos/lib/third_party/mbedtls/library\sha1.c ****     P( A, B, C, D, E, R(50) );
 1556              		.loc 1 227 0
 1557 0dbc 047087E0 		add	r7, r7, r4
 1558              	.LVL284:
 228:D:/Work/DeviceTester/amazon-freertos/lib/third_party/mbedtls/library\sha1.c ****     P( E, A, B, C, D, R(51) );
 1559              		.loc 1 228 0
 1560 0dc0 010029E0 		eor	r0, r9, r1
 1561 0dc4 28109DE5 		ldr	r1, [sp, #40]
 1562 0dc8 010020E0 		eor	r0, r0, r1
 1563 0dcc 14109DE5 		ldr	r1, [sp, #20]
 1564 0dd0 010020E0 		eor	r0, r0, r1
 1565              	.LVL285:
 1566 0dd4 E01FA0E1 		ror	r1, r0, #31
 1567 0dd8 0A0005E0 		and	r0, r5, r10
 1568              	.LVL286:
 1569 0ddc 025008E0 		and	r5, r8, r2
 1570 0de0 6881A0E1 		ror	r8, r8, #2
 1571              	.LVL287:
 1572 0de4 44108DE5 		str	r1, [sp, #68]
 1573              	.LVL288:
 1574 0de8 055080E1 		orr	r5, r0, r5
 1575 0dec 030081E0 		add	r0, r1, r3
 1576              		.loc 1 229 0
 1577 0df0 30109DE5 		ldr	r1, [sp, #48]
 1578              	.LVL289:
 1579 0df4 0E0080E0 		add	r0, r0, lr
 1580 0df8 000085E0 		add	r0, r5, r0
 1581 0dfc 0C6021E0 		eor	r6, r1, ip
 1582 0e00 2C109DE5 		ldr	r1, [sp, #44]
 230:D:/Work/DeviceTester/amazon-freertos/lib/third_party/mbedtls/library\sha1.c ****     P( C, D, E, A, B, R(53) );
 1583              		.loc 1 230 0
 1584 0e04 3CC09DE5 		ldr	ip, [sp, #60]
 228:D:/Work/DeviceTester/amazon-freertos/lib/third_party/mbedtls/library\sha1.c ****     P( E, A, B, C, D, R(51) );
 1585              		.loc 1 228 0
 1586 0e08 E70D80E0 		add	r0, r0, r7, ror #27
 1587              	.LVL290:
 229:D:/Work/DeviceTester/amazon-freertos/lib/third_party/mbedtls/library\sha1.c ****     P( C, D, E, A, B, R(53) );
 1588              		.loc 1 229 0
 1589 0e0c 016026E0 		eor	r6, r6, r1
 1590 0e10 18109DE5 		ldr	r1, [sp, #24]
 1591 0e14 016026E0 		eor	r6, r6, r1
 1592              	.LVL291:
 1593 0e18 081007E0 		and	r1, r7, r8
 1594 0e1c E6BFA0E1 		ror	fp, r6, #31
 1595              	.LVL292:
 1596 0e20 03608BE0 		add	r6, fp, r3
 1597              	.LVL293:
 1598 0e24 0AA086E0 		add	r10, r6, r10
 1599              	.LVL294:
 1600 0e28 086087E1 		orr	r6, r7, r8
 1601 0e2c 026006E0 		and	r6, r6, r2
 1602 0e30 6771A0E1 		ror	r7, r7, #2
 1603              	.LVL295:
 1604 0e34 016086E1 		orr	r6, r6, r1
 1605              		.loc 1 230 0
 1606 0e38 34109DE5 		ldr	r1, [sp, #52]
 1607 0e3c E0AD8AE0 		add	r10, r10, r0, ror #27
 1608 0e40 079080E1 		orr	r9, r0, r7
 1609 0e44 0C5021E0 		eor	r5, r1, ip
 1610 0e48 04109DE5 		ldr	r1, [sp, #4]
 229:D:/Work/DeviceTester/amazon-freertos/lib/third_party/mbedtls/library\sha1.c ****     P( C, D, E, A, B, R(53) );
 1611              		.loc 1 229 0
 1612 0e4c 0A6086E0 		add	r6, r6, r10
 1613              	.LVL296:
 1614              		.loc 1 230 0
 1615 0e50 015025E0 		eor	r5, r5, r1
 1616 0e54 1C109DE5 		ldr	r1, [sp, #28]
 1617 0e58 015025E0 		eor	r5, r5, r1
 1618              	.LVL297:
 1619 0e5c 081009E0 		and	r1, r9, r8
 1620 0e60 E5AFA0E1 		ror	r10, r5, #31
 1621              	.LVL298:
 1622 0e64 079000E0 		and	r9, r0, r7
 1623 0e68 099081E1 		orr	r9, r1, r9
 1624 0e6c 6051A0E1 		ror	r5, r0, #2
 1625              	.LVL299:
 1626 0e70 03108AE0 		add	r1, r10, r3
 231:D:/Work/DeviceTester/amazon-freertos/lib/third_party/mbedtls/library\sha1.c ****     P( B, C, D, E, A, R(54) );
 232:D:/Work/DeviceTester/amazon-freertos/lib/third_party/mbedtls/library\sha1.c ****     P( A, B, C, D, E, R(55) );
 1627              		.loc 1 232 0
 1628 0e74 20009DE5 		ldr	r0, [sp, #32]
 1629              	.LVL300:
 1630 0e78 022081E0 		add	r2, r1, r2
 1631              	.LVL301:
 231:D:/Work/DeviceTester/amazon-freertos/lib/third_party/mbedtls/library\sha1.c ****     P( B, C, D, E, A, R(54) );
 1632              		.loc 1 231 0
 1633 0e7c 40109DE5 		ldr	r1, [sp, #64]
 1634 0e80 029089E0 		add	r9, r9, r2
 1635 0e84 38209DE5 		ldr	r2, [sp, #56]
 230:D:/Work/DeviceTester/amazon-freertos/lib/third_party/mbedtls/library\sha1.c ****     P( B, C, D, E, A, R(54) );
 1636              		.loc 1 230 0
 1637 0e88 E69D89E0 		add	r9, r9, r6, ror #27
 1638              	.LVL302:
 231:D:/Work/DeviceTester/amazon-freertos/lib/third_party/mbedtls/library\sha1.c ****     P( B, C, D, E, A, R(54) );
 1639              		.loc 1 231 0
 1640 0e8c 011022E0 		eor	r1, r2, r1
 1641 0e90 08209DE5 		ldr	r2, [sp, #8]
 1642 0e94 021021E0 		eor	r1, r1, r2
 1643 0e98 44209DE5 		ldr	r2, [sp, #68]
 1644 0e9c 021021E0 		eor	r1, r1, r2
 1645              	.LVL303:
 1646 0ea0 E12FA0E1 		ror	r2, r1, #31
 1647 0ea4 031082E0 		add	r1, r2, r3
 1648              	.LVL304:
 1649 0ea8 30208DE5 		str	r2, [sp, #48]
 1650              	.LVL305:
 1651 0eac 081081E0 		add	r1, r1, r8
 1652 0eb0 052006E0 		and	r2, r6, r5
 1653              	.LVL306:
 1654 0eb4 E98D81E0 		add	r8, r1, r9, ror #27
 1655              	.LVL307:
 1656 0eb8 051086E1 		orr	r1, r6, r5
 1657 0ebc 071001E0 		and	r1, r1, r7
 1658 0ec0 6661A0E1 		ror	r6, r6, #2
 1659              	.LVL308:
 1660 0ec4 021081E1 		orr	r1, r1, r2
 1661              		.loc 1 232 0
 1662 0ec8 0C20A0E1 		mov	r2, ip
 231:D:/Work/DeviceTester/amazon-freertos/lib/third_party/mbedtls/library\sha1.c ****     P( B, C, D, E, A, R(54) );
 1663              		.loc 1 231 0
 1664 0ecc 081081E0 		add	r1, r1, r8
 1665              	.LVL309:
 1666              		.loc 1 232 0
 1667 0ed0 002022E0 		eor	r2, r2, r0
 1668 0ed4 0C009DE5 		ldr	r0, [sp, #12]
 1669 0ed8 002022E0 		eor	r2, r2, r0
 1670 0edc 0B2022E0 		eor	r2, r2, fp
 1671              	.LVL310:
 1672 0ee0 E28FA0E1 		ror	r8, r2, #31
 1673              	.LVL311:
 1674 0ee4 062089E1 		orr	r2, r9, r6
 1675              	.LVL312:
 1676 0ee8 050002E0 		and	r0, r2, r5
 1677 0eec 062009E0 		and	r2, r9, r6
 1678 0ef0 6991A0E1 		ror	r9, r9, #2
 1679              	.LVL313:
 1680 0ef4 022080E1 		orr	r2, r0, r2
 1681 0ef8 030088E0 		add	r0, r8, r3
 1682 0efc 077080E0 		add	r7, r0, r7
 1683              	.LVL314:
 233:D:/Work/DeviceTester/amazon-freertos/lib/third_party/mbedtls/library\sha1.c ****     P( E, A, B, C, D, R(56) );
 1684              		.loc 1 233 0
 1685 0f00 40009DE5 		ldr	r0, [sp, #64]
 1686 0f04 24C09DE5 		ldr	ip, [sp, #36]
 1687 0f08 072082E0 		add	r2, r2, r7
 232:D:/Work/DeviceTester/amazon-freertos/lib/third_party/mbedtls/library\sha1.c ****     P( E, A, B, C, D, R(56) );
 1688              		.loc 1 232 0
 1689 0f0c E12D82E0 		add	r2, r2, r1, ror #27
 1690              	.LVL315:
 1691              		.loc 1 233 0
 1692 0f10 0C4020E0 		eor	r4, r0, ip
 1693 0f14 14009DE5 		ldr	r0, [sp, #20]
 1694 0f18 09C001E0 		and	ip, r1, r9
 1695 0f1c 004024E0 		eor	r4, r4, r0
 1696 0f20 0A4024E0 		eor	r4, r4, r10
 1697 0f24 E40FA0E1 		ror	r0, r4, #31
 1698 0f28 034080E0 		add	r4, r0, r3
 1699 0f2c 34008DE5 		str	r0, [sp, #52]
 1700 0f30 054084E0 		add	r4, r4, r5
 1701 0f34 E20D84E0 		add	r0, r4, r2, ror #27
 1702 0f38 094081E1 		orr	r4, r1, r9
 1703 0f3c 064004E0 		and	r4, r4, r6
 1704 0f40 6111A0E1 		ror	r1, r1, #2
 1705              	.LVL316:
 1706 0f44 0C4084E1 		orr	r4, r4, ip
 234:D:/Work/DeviceTester/amazon-freertos/lib/third_party/mbedtls/library\sha1.c ****     P( D, E, A, B, C, R(57) );
 1707              		.loc 1 234 0
 1708 0f48 28C09DE5 		ldr	ip, [sp, #40]
 233:D:/Work/DeviceTester/amazon-freertos/lib/third_party/mbedtls/library\sha1.c ****     P( E, A, B, C, D, R(56) );
 1709              		.loc 1 233 0
 1710 0f4c 004084E0 		add	r4, r4, r0
 1711              	.LVL317:
 1712              		.loc 1 234 0
 1713 0f50 20009DE5 		ldr	r0, [sp, #32]
 1714 0f54 0CE020E0 		eor	lr, r0, ip
 1715 0f58 18009DE5 		ldr	r0, [sp, #24]
 235:D:/Work/DeviceTester/amazon-freertos/lib/third_party/mbedtls/library\sha1.c ****     P( C, D, E, A, B, R(58) );
 1716              		.loc 1 235 0
 1717 0f5c 2CC09DE5 		ldr	ip, [sp, #44]
 234:D:/Work/DeviceTester/amazon-freertos/lib/third_party/mbedtls/library\sha1.c ****     P( D, E, A, B, C, R(57) );
 1718              		.loc 1 234 0
 1719 0f60 00E02EE0 		eor	lr, lr, r0
 1720 0f64 30009DE5 		ldr	r0, [sp, #48]
 1721 0f68 00E02EE0 		eor	lr, lr, r0
 1722              	.LVL318:
 1723 0f6c EE0FA0E1 		ror	r0, lr, #31
 1724 0f70 01E082E1 		orr	lr, r2, r1
 1725              	.LVL319:
 1726 0f74 20008DE5 		str	r0, [sp, #32]
 1727              	.LVL320:
 1728 0f78 09000EE0 		and	r0, lr, r9
 1729 0f7c 01E002E0 		and	lr, r2, r1
 1730 0f80 6221A0E1 		ror	r2, r2, #2
 1731              	.LVL321:
 1732 0f84 0EE080E1 		orr	lr, r0, lr
 1733 0f88 20009DE5 		ldr	r0, [sp, #32]
 1734 0f8c 030080E0 		add	r0, r0, r3
 1735 0f90 066080E0 		add	r6, r0, r6
 1736              	.LVL322:
 1737              		.loc 1 235 0
 1738 0f94 24009DE5 		ldr	r0, [sp, #36]
 1739 0f98 06E08EE0 		add	lr, lr, r6
 234:D:/Work/DeviceTester/amazon-freertos/lib/third_party/mbedtls/library\sha1.c ****     P( D, E, A, B, C, R(57) );
 1740              		.loc 1 234 0
 1741 0f9c E4ED8EE0 		add	lr, lr, r4, ror #27
 1742              	.LVL323:
 1743              		.loc 1 235 0
 1744 0fa0 0C5020E0 		eor	r5, r0, ip
 1745 0fa4 1C009DE5 		ldr	r0, [sp, #28]
 1746 0fa8 02C004E0 		and	ip, r4, r2
 1747 0fac 005025E0 		eor	r5, r5, r0
 1748 0fb0 085025E0 		eor	r5, r5, r8
 1749              	.LVL324:
 1750 0fb4 E50FA0E1 		ror	r0, r5, #31
 1751 0fb8 24008DE5 		str	r0, [sp, #36]
 1752 0fbc 030080E0 		add	r0, r0, r3
 1753 0fc0 099080E0 		add	r9, r0, r9
 1754              	.LVL325:
 1755 0fc4 EE0D89E0 		add	r0, r9, lr, ror #27
 1756 0fc8 029084E1 		orr	r9, r4, r2
 1757 0fcc 019009E0 		and	r9, r9, r1
 1758 0fd0 6441A0E1 		ror	r4, r4, #2
 1759              	.LVL326:
 1760 0fd4 0C9089E1 		orr	r9, r9, ip
 236:D:/Work/DeviceTester/amazon-freertos/lib/third_party/mbedtls/library\sha1.c ****     P( B, C, D, E, A, R(59) );
 1761              		.loc 1 236 0
 1762 0fd8 04C09DE5 		ldr	ip, [sp, #4]
 235:D:/Work/DeviceTester/amazon-freertos/lib/third_party/mbedtls/library\sha1.c ****     P( C, D, E, A, B, R(58) );
 1763              		.loc 1 235 0
 1764 0fdc 009089E0 		add	r9, r9, r0
 1765              	.LVL327:
 1766              		.loc 1 236 0
 1767 0fe0 28009DE5 		ldr	r0, [sp, #40]
 1768 0fe4 04700EE0 		and	r7, lr, r4
 1769 0fe8 0C0020E0 		eor	r0, r0, ip
 1770 0fec 44C09DE5 		ldr	ip, [sp, #68]
 1771 0ff0 0C0020E0 		eor	r0, r0, ip
 1772 0ff4 34C09DE5 		ldr	ip, [sp, #52]
 1773 0ff8 0C0020E0 		eor	r0, r0, ip
 1774              	.LVL328:
 1775 0ffc E00FA0E1 		ror	r0, r0, #31
 1776              	.LVL329:
 1777 1000 28008DE5 		str	r0, [sp, #40]
 1778              	.LVL330:
 1779 1004 04008EE1 		orr	r0, lr, r4
 1780 1008 020000E0 		and	r0, r0, r2
 1781 100c 6EE1A0E1 		ror	lr, lr, #2
 1782              	.LVL331:
 1783 1010 077080E1 		orr	r7, r0, r7
 1784 1014 28009DE5 		ldr	r0, [sp, #40]
 237:D:/Work/DeviceTester/amazon-freertos/lib/third_party/mbedtls/library\sha1.c **** 
 238:D:/Work/DeviceTester/amazon-freertos/lib/third_party/mbedtls/library\sha1.c **** #undef K
 239:D:/Work/DeviceTester/amazon-freertos/lib/third_party/mbedtls/library\sha1.c **** #undef F
 240:D:/Work/DeviceTester/amazon-freertos/lib/third_party/mbedtls/library\sha1.c **** 
 241:D:/Work/DeviceTester/amazon-freertos/lib/third_party/mbedtls/library\sha1.c **** #define F(x,y,z) (x ^ y ^ z)
 242:D:/Work/DeviceTester/amazon-freertos/lib/third_party/mbedtls/library\sha1.c **** #define K 0xCA62C1D6
 243:D:/Work/DeviceTester/amazon-freertos/lib/third_party/mbedtls/library\sha1.c **** 
 244:D:/Work/DeviceTester/amazon-freertos/lib/third_party/mbedtls/library\sha1.c ****     P( A, B, C, D, E, R(60) );
 1785              		.loc 1 244 0
 1786 1018 0EC024E0 		eor	ip, r4, lr
 1787 101c 09C02CE0 		eor	ip, ip, r9
 1788 1020 033080E0 		add	r3, r0, r3
 1789 1024 013083E0 		add	r3, r3, r1
 1790 1028 08109DE5 		ldr	r1, [sp, #8]
 1791              	.LVL332:
 1792 102c 037087E0 		add	r7, r7, r3
 1793 1030 2C309DE5 		ldr	r3, [sp, #44]
 236:D:/Work/DeviceTester/amazon-freertos/lib/third_party/mbedtls/library\sha1.c ****     P( B, C, D, E, A, R(59) );
 1794              		.loc 1 236 0
 1795 1034 E97D87E0 		add	r7, r7, r9, ror #27
 1796              	.LVL333:
 1797              		.loc 1 244 0
 1798 1038 6991A0E1 		ror	r9, r9, #2
 1799              	.LVL334:
 1800 103c 013023E0 		eor	r3, r3, r1
 1801 1040 20109DE5 		ldr	r1, [sp, #32]
 1802 1044 0B3023E0 		eor	r3, r3, fp
 245:D:/Work/DeviceTester/amazon-freertos/lib/third_party/mbedtls/library\sha1.c ****     P( E, A, B, C, D, R(61) );
 1803              		.loc 1 245 0
 1804 1048 09002EE0 		eor	r0, lr, r9
 1805 104c 070020E0 		eor	r0, r0, r7
 244:D:/Work/DeviceTester/amazon-freertos/lib/third_party/mbedtls/library\sha1.c ****     P( E, A, B, C, D, R(61) );
 1806              		.loc 1 244 0
 1807 1050 013023E0 		eor	r3, r3, r1
 1808              	.LVL335:
 1809 1054 E33FA0E1 		ror	r3, r3, #31
 1810              	.LVL336:
 1811 1058 2C308DE5 		str	r3, [sp, #44]
 1812              	.LVL337:
 1813 105c 2C109DE5 		ldr	r1, [sp, #44]
 1814 1060 40329FE5 		ldr	r3, .L11+12
 1815 1064 031081E0 		add	r1, r1, r3
 1816 1068 022081E0 		add	r2, r1, r2
 1817              	.LVL338:
 1818              		.loc 1 245 0
 1819 106c 0C109DE5 		ldr	r1, [sp, #12]
 1820 1070 02C08CE0 		add	ip, ip, r2
 1821 1074 04209DE5 		ldr	r2, [sp, #4]
 244:D:/Work/DeviceTester/amazon-freertos/lib/third_party/mbedtls/library\sha1.c ****     P( E, A, B, C, D, R(61) );
 1822              		.loc 1 244 0
 1823 1078 E7CD8CE0 		add	ip, ip, r7, ror #27
 1824              	.LVL339:
 1825              		.loc 1 245 0
 1826 107c 6771A0E1 		ror	r7, r7, #2
 1827              	.LVL340:
 1828 1080 012022E0 		eor	r2, r2, r1
 1829 1084 24109DE5 		ldr	r1, [sp, #36]
 1830 1088 0A2022E0 		eor	r2, r2, r10
 246:D:/Work/DeviceTester/amazon-freertos/lib/third_party/mbedtls/library\sha1.c ****     P( D, E, A, B, C, R(62) );
 1831              		.loc 1 246 0
 1832 108c 076029E0 		eor	r6, r9, r7
 1833 1090 0C6026E0 		eor	r6, r6, ip
 245:D:/Work/DeviceTester/amazon-freertos/lib/third_party/mbedtls/library\sha1.c ****     P( E, A, B, C, D, R(61) );
 1834              		.loc 1 245 0
 1835 1094 012022E0 		eor	r2, r2, r1
 1836              	.LVL341:
 1837              		.loc 1 246 0
 1838 1098 14109DE5 		ldr	r1, [sp, #20]
 245:D:/Work/DeviceTester/amazon-freertos/lib/third_party/mbedtls/library\sha1.c ****     P( E, A, B, C, D, R(61) );
 1839              		.loc 1 245 0
 1840 109c E22FA0E1 		ror	r2, r2, #31
 1841              	.LVL342:
 1842 10a0 04208DE5 		str	r2, [sp, #4]
 1843              	.LVL343:
 1844 10a4 032082E0 		add	r2, r2, r3
 1845 10a8 044082E0 		add	r4, r2, r4
 1846              	.LVL344:
 1847              		.loc 1 246 0
 1848 10ac 08209DE5 		ldr	r2, [sp, #8]
 1849 10b0 040080E0 		add	r0, r0, r4
 245:D:/Work/DeviceTester/amazon-freertos/lib/third_party/mbedtls/library\sha1.c ****     P( E, A, B, C, D, R(61) );
 1850              		.loc 1 245 0
 1851 10b4 EC0D80E0 		add	r0, r0, ip, ror #27
 1852              	.LVL345:
 1853              		.loc 1 246 0
 1854 10b8 6CC1A0E1 		ror	ip, ip, #2
 1855              	.LVL346:
 1856 10bc 011022E0 		eor	r1, r2, r1
 1857 10c0 30209DE5 		ldr	r2, [sp, #48]
 247:D:/Work/DeviceTester/amazon-freertos/lib/third_party/mbedtls/library\sha1.c ****     P( C, D, E, A, B, R(63) );
 1858              		.loc 1 247 0
 1859 10c4 0C5027E0 		eor	r5, r7, ip
 1860 10c8 005025E0 		eor	r5, r5, r0
 246:D:/Work/DeviceTester/amazon-freertos/lib/third_party/mbedtls/library\sha1.c ****     P( D, E, A, B, C, R(62) );
 1861              		.loc 1 246 0
 1862 10cc 021021E0 		eor	r1, r1, r2
 1863 10d0 28209DE5 		ldr	r2, [sp, #40]
 1864 10d4 021021E0 		eor	r1, r1, r2
 1865              	.LVL347:
 1866 10d8 E12FA0E1 		ror	r2, r1, #31
 1867 10dc 08208DE5 		str	r2, [sp, #8]
 1868 10e0 032082E0 		add	r2, r2, r3
 1869              		.loc 1 247 0
 1870 10e4 18109DE5 		ldr	r1, [sp, #24]
 1871              	.LVL348:
 1872 10e8 0EE082E0 		add	lr, r2, lr
 1873              	.LVL349:
 1874 10ec 0C209DE5 		ldr	r2, [sp, #12]
 1875 10f0 0E6086E0 		add	r6, r6, lr
 248:D:/Work/DeviceTester/amazon-freertos/lib/third_party/mbedtls/library\sha1.c ****     P( B, C, D, E, A, R(64) );
 249:D:/Work/DeviceTester/amazon-freertos/lib/third_party/mbedtls/library\sha1.c ****     P( A, B, C, D, E, R(65) );
 1876              		.loc 1 249 0
 1877 10f4 44E09DE5 		ldr	lr, [sp, #68]
 246:D:/Work/DeviceTester/amazon-freertos/lib/third_party/mbedtls/library\sha1.c ****     P( C, D, E, A, B, R(63) );
 1878              		.loc 1 246 0
 1879 10f8 E06D86E0 		add	r6, r6, r0, ror #27
 1880              	.LVL350:
 247:D:/Work/DeviceTester/amazon-freertos/lib/third_party/mbedtls/library\sha1.c ****     P( C, D, E, A, B, R(63) );
 1881              		.loc 1 247 0
 1882 10fc 6001A0E1 		ror	r0, r0, #2
 1883              	.LVL351:
 1884 1100 012022E0 		eor	r2, r2, r1
 1885 1104 2C109DE5 		ldr	r1, [sp, #44]
 1886 1108 082022E0 		eor	r2, r2, r8
 1887 110c 012022E0 		eor	r2, r2, r1
 1888              	.LVL352:
 248:D:/Work/DeviceTester/amazon-freertos/lib/third_party/mbedtls/library\sha1.c ****     P( B, C, D, E, A, R(64) );
 1889              		.loc 1 248 0
 1890 1110 1C109DE5 		ldr	r1, [sp, #28]
 247:D:/Work/DeviceTester/amazon-freertos/lib/third_party/mbedtls/library\sha1.c ****     P( C, D, E, A, B, R(63) );
 1891              		.loc 1 247 0
 1892 1114 E22FA0E1 		ror	r2, r2, #31
 1893              	.LVL353:
 1894 1118 0C208DE5 		str	r2, [sp, #12]
 1895              	.LVL354:
 1896 111c 032082E0 		add	r2, r2, r3
 1897 1120 099082E0 		add	r9, r2, r9
 1898              	.LVL355:
 248:D:/Work/DeviceTester/amazon-freertos/lib/third_party/mbedtls/library\sha1.c ****     P( B, C, D, E, A, R(64) );
 1899              		.loc 1 248 0
 1900 1124 14209DE5 		ldr	r2, [sp, #20]
 1901 1128 095085E0 		add	r5, r5, r9
 247:D:/Work/DeviceTester/amazon-freertos/lib/third_party/mbedtls/library\sha1.c ****     P( C, D, E, A, B, R(63) );
 1902              		.loc 1 247 0
 1903 112c E65D85E0 		add	r5, r5, r6, ror #27
 1904              	.LVL356:
 248:D:/Work/DeviceTester/amazon-freertos/lib/third_party/mbedtls/library\sha1.c ****     P( B, C, D, E, A, R(64) );
 1905              		.loc 1 248 0
 1906 1130 011022E0 		eor	r1, r2, r1
 1907 1134 34209DE5 		ldr	r2, [sp, #52]
 1908 1138 021021E0 		eor	r1, r1, r2
 1909 113c 04209DE5 		ldr	r2, [sp, #4]
 1910 1140 021021E0 		eor	r1, r1, r2
 1911              	.LVL357:
 1912 1144 E12FA0E1 		ror	r2, r1, #31
 1913 1148 00102CE0 		eor	r1, ip, r0
 1914              	.LVL358:
 1915 114c 061021E0 		eor	r1, r1, r6
 1916 1150 6661A0E1 		ror	r6, r6, #2
 1917              	.LVL359:
 1918 1154 14208DE5 		str	r2, [sp, #20]
 1919              	.LVL360:
 1920 1158 032082E0 		add	r2, r2, r3
 1921              	.LVL361:
 1922 115c 077082E0 		add	r7, r2, r7
 1923              	.LVL362:
 1924              		.loc 1 249 0
 1925 1160 18209DE5 		ldr	r2, [sp, #24]
 1926 1164 071081E0 		add	r1, r1, r7
 248:D:/Work/DeviceTester/amazon-freertos/lib/third_party/mbedtls/library\sha1.c ****     P( B, C, D, E, A, R(64) );
 1927              		.loc 1 248 0
 1928 1168 E51D81E0 		add	r1, r1, r5, ror #27
 1929              	.LVL363:
 1930              		.loc 1 249 0
 1931 116c 0E2022E0 		eor	r2, r2, lr
 1932 1170 20E09DE5 		ldr	lr, [sp, #32]
 1933 1174 0E2022E0 		eor	r2, r2, lr
 1934 1178 08E09DE5 		ldr	lr, [sp, #8]
 1935 117c 0E2022E0 		eor	r2, r2, lr
 1936              	.LVL364:
 1937 1180 E22FA0E1 		ror	r2, r2, #31
 1938              	.LVL365:
 1939 1184 18208DE5 		str	r2, [sp, #24]
 1940              	.LVL366:
 1941 1188 062020E0 		eor	r2, r0, r6
 1942              	.LVL367:
 1943 118c 18E09DE5 		ldr	lr, [sp, #24]
 1944 1190 052022E0 		eor	r2, r2, r5
 1945 1194 6551A0E1 		ror	r5, r5, #2
 1946              	.LVL368:
 1947 1198 03E08EE0 		add	lr, lr, r3
 250:D:/Work/DeviceTester/amazon-freertos/lib/third_party/mbedtls/library\sha1.c ****     P( E, A, B, C, D, R(66) );
 1948              		.loc 1 250 0
 1949 119c 054026E0 		eor	r4, r6, r5
 1950 11a0 0CC08EE0 		add	ip, lr, ip
 1951              	.LVL369:
 1952 11a4 24E09DE5 		ldr	lr, [sp, #36]
 1953 11a8 0C2082E0 		add	r2, r2, ip
 1954 11ac 1CC09DE5 		ldr	ip, [sp, #28]
 1955 11b0 014024E0 		eor	r4, r4, r1
 249:D:/Work/DeviceTester/amazon-freertos/lib/third_party/mbedtls/library\sha1.c ****     P( E, A, B, C, D, R(66) );
 1956              		.loc 1 249 0
 1957 11b4 E12D82E0 		add	r2, r2, r1, ror #27
 1958              	.LVL370:
 1959              		.loc 1 250 0
 1960 11b8 6111A0E1 		ror	r1, r1, #2
 1961              	.LVL371:
 1962 11bc 0BC02CE0 		eor	ip, ip, fp
 1963 11c0 0EC02CE0 		eor	ip, ip, lr
 1964 11c4 0CE09DE5 		ldr	lr, [sp, #12]
 1965 11c8 0EC02CE0 		eor	ip, ip, lr
 1966              	.LVL372:
 1967 11cc ECCFA0E1 		ror	ip, ip, #31
 1968              	.LVL373:
 1969 11d0 03E08CE0 		add	lr, ip, r3
 1970 11d4 00008EE0 		add	r0, lr, r0
 1971              	.LVL374:
 251:D:/Work/DeviceTester/amazon-freertos/lib/third_party/mbedtls/library\sha1.c ****     P( D, E, A, B, C, R(67) );
 1972              		.loc 1 251 0
 1973 11d8 28E09DE5 		ldr	lr, [sp, #40]
 1974 11dc 004084E0 		add	r4, r4, r0
 1975 11e0 44009DE5 		ldr	r0, [sp, #68]
 250:D:/Work/DeviceTester/amazon-freertos/lib/third_party/mbedtls/library\sha1.c ****     P( E, A, B, C, D, R(66) );
 1976              		.loc 1 250 0
 1977 11e4 E24D84E0 		add	r4, r4, r2, ror #27
 1978              	.LVL375:
 1979              		.loc 1 251 0
 1980 11e8 0A0020E0 		eor	r0, r0, r10
 1981 11ec 0E0020E0 		eor	r0, r0, lr
 1982 11f0 14E09DE5 		ldr	lr, [sp, #20]
 1983 11f4 0E0020E0 		eor	r0, r0, lr
 1984              	.LVL376:
 1985 11f8 01E025E0 		eor	lr, r5, r1
 1986 11fc E00FA0E1 		ror	r0, r0, #31
 1987              	.LVL377:
 1988 1200 02E02EE0 		eor	lr, lr, r2
 1989 1204 6221A0E1 		ror	r2, r2, #2
 1990              	.LVL378:
 1991 1208 037080E0 		add	r7, r0, r3
 1992 120c 066087E0 		add	r6, r7, r6
 1993              	.LVL379:
 252:D:/Work/DeviceTester/amazon-freertos/lib/third_party/mbedtls/library\sha1.c ****     P( C, D, E, A, B, R(68) );
 1994              		.loc 1 252 0
 1995 1210 2C709DE5 		ldr	r7, [sp, #44]
 1996 1214 06E08EE0 		add	lr, lr, r6
 1997 1218 30609DE5 		ldr	r6, [sp, #48]
 251:D:/Work/DeviceTester/amazon-freertos/lib/third_party/mbedtls/library\sha1.c ****     P( D, E, A, B, C, R(67) );
 1998              		.loc 1 251 0
 1999 121c E4ED8EE0 		add	lr, lr, r4, ror #27
 2000              	.LVL380:
 2001              		.loc 1 252 0
 2002 1220 06602BE0 		eor	r6, fp, r6
 2003 1224 02B021E0 		eor	fp, r1, r2
 2004              	.LVL381:
 2005 1228 076026E0 		eor	r6, r6, r7
 2006 122c 18709DE5 		ldr	r7, [sp, #24]
 2007 1230 04B02BE0 		eor	fp, fp, r4
 2008 1234 6441A0E1 		ror	r4, r4, #2
 2009              	.LVL382:
 2010 1238 076026E0 		eor	r6, r6, r7
 2011              	.LVL383:
 2012 123c E66FA0E1 		ror	r6, r6, #31
 2013              	.LVL384:
 2014 1240 1C608DE5 		str	r6, [sp, #28]
 2015              	.LVL385:
 2016 1244 036086E0 		add	r6, r6, r3
 2017              	.LVL386:
 2018 1248 055086E0 		add	r5, r6, r5
 2019              	.LVL387:
 253:D:/Work/DeviceTester/amazon-freertos/lib/third_party/mbedtls/library\sha1.c ****     P( B, C, D, E, A, R(69) );
 2020              		.loc 1 253 0
 2021 124c 04609DE5 		ldr	r6, [sp, #4]
 2022 1250 05B08BE0 		add	fp, fp, r5
 2023 1254 08502AE0 		eor	r5, r10, r8
 2024 1258 04A022E0 		eor	r10, r2, r4
 2025              	.LVL388:
 252:D:/Work/DeviceTester/amazon-freertos/lib/third_party/mbedtls/library\sha1.c ****     P( C, D, E, A, B, R(68) );
 2026              		.loc 1 252 0
 2027 125c EEBD8BE0 		add	fp, fp, lr, ror #27
 2028              	.LVL389:
 2029              		.loc 1 253 0
 2030 1260 065025E0 		eor	r5, r5, r6
 2031 1264 0C5025E0 		eor	r5, r5, ip
 2032 1268 0EA02AE0 		eor	r10, r10, lr
 2033 126c E55FA0E1 		ror	r5, r5, #31
 2034 1270 6EE1A0E1 		ror	lr, lr, #2
 2035              	.LVL390:
 2036 1274 38508DE5 		str	r5, [sp, #56]
 2037              	.LVL391:
 2038 1278 035085E0 		add	r5, r5, r3
 2039              	.LVL392:
 2040 127c 011085E0 		add	r1, r5, r1
 2041              	.LVL393:
 254:D:/Work/DeviceTester/amazon-freertos/lib/third_party/mbedtls/library\sha1.c ****     P( A, B, C, D, E, R(70) );
 2042              		.loc 1 254 0
 2043 1280 34509DE5 		ldr	r5, [sp, #52]
 2044 1284 01A08AE0 		add	r10, r10, r1
 2045 1288 30109DE5 		ldr	r1, [sp, #48]
 2046 128c 0E9024E0 		eor	r9, r4, lr
 253:D:/Work/DeviceTester/amazon-freertos/lib/third_party/mbedtls/library\sha1.c ****     P( B, C, D, E, A, R(69) );
 2047              		.loc 1 253 0
 2048 1290 EBAD8AE0 		add	r10, r10, fp, ror #27
 2049              	.LVL394:
 2050              		.loc 1 254 0
 2051 1294 0B9029E0 		eor	r9, r9, fp
 2052 1298 030000EA 		b	.L12
 2053              	.L13:
 2054              		.align	2
 2055              	.L11:
 2056 129c 9979825A 		.word	1518500249
 2057 12a0 A1EBD96E 		.word	1859775393
 2058 12a4 DCBC1B8F 		.word	-1894007588
 2059 12a8 D6C162CA 		.word	-899497514
 2060              	.L12:
 2061 12ac 6BB1A0E1 		ror	fp, fp, #2
 2062              	.LVL395:
 2063 12b0 051021E0 		eor	r1, r1, r5
 2064 12b4 08509DE5 		ldr	r5, [sp, #8]
 2065 12b8 051021E0 		eor	r1, r1, r5
 2066 12bc 001021E0 		eor	r1, r1, r0
 2067              	.LVL396:
 2068 12c0 E11FA0E1 		ror	r1, r1, #31
 2069              	.LVL397:
 2070 12c4 035081E0 		add	r5, r1, r3
 2071 12c8 022085E0 		add	r2, r5, r2
 2072              	.LVL398:
 255:D:/Work/DeviceTester/amazon-freertos/lib/third_party/mbedtls/library\sha1.c ****     P( E, A, B, C, D, R(71) );
 2073              		.loc 1 255 0
 2074 12cc 0C509DE5 		ldr	r5, [sp, #12]
 2075 12d0 029089E0 		add	r9, r9, r2
 2076 12d4 20209DE5 		ldr	r2, [sp, #32]
 254:D:/Work/DeviceTester/amazon-freertos/lib/third_party/mbedtls/library\sha1.c ****     P( A, B, C, D, E, R(70) );
 2077              		.loc 1 254 0
 2078 12d8 EA9D89E0 		add	r9, r9, r10, ror #27
 2079              	.LVL399:
 2080              		.loc 1 255 0
 2081 12dc 022028E0 		eor	r2, r8, r2
 2082 12e0 0B802EE0 		eor	r8, lr, fp
 2083              	.LVL400:
 2084 12e4 052022E0 		eor	r2, r2, r5
 2085 12e8 1C509DE5 		ldr	r5, [sp, #28]
 2086 12ec 0A8028E0 		eor	r8, r8, r10
 2087 12f0 6AA1A0E1 		ror	r10, r10, #2
 2088              	.LVL401:
 2089 12f4 052022E0 		eor	r2, r2, r5
 2090              	.LVL402:
 256:D:/Work/DeviceTester/amazon-freertos/lib/third_party/mbedtls/library\sha1.c ****     P( D, E, A, B, C, R(72) );
 2091              		.loc 1 256 0
 2092 12f8 0A702BE0 		eor	r7, fp, r10
 255:D:/Work/DeviceTester/amazon-freertos/lib/third_party/mbedtls/library\sha1.c ****     P( E, A, B, C, D, R(71) );
 2093              		.loc 1 255 0
 2094 12fc E22FA0E1 		ror	r2, r2, #31
 2095              	.LVL403:
 2096              		.loc 1 256 0
 2097 1300 097027E0 		eor	r7, r7, r9
 2098 1304 035082E0 		add	r5, r2, r3
 2099 1308 044085E0 		add	r4, r5, r4
 2100              	.LVL404:
 2101 130c 24509DE5 		ldr	r5, [sp, #36]
 2102 1310 048088E0 		add	r8, r8, r4
 2103 1314 34409DE5 		ldr	r4, [sp, #52]
 255:D:/Work/DeviceTester/amazon-freertos/lib/third_party/mbedtls/library\sha1.c ****     P( E, A, B, C, D, R(71) );
 2104              		.loc 1 255 0
 2105 1318 E98D88E0 		add	r8, r8, r9, ror #27
 2106              	.LVL405:
 2107              		.loc 1 256 0
 2108 131c 6991A0E1 		ror	r9, r9, #2
 2109              	.LVL406:
 2110 1320 054024E0 		eor	r4, r4, r5
 2111 1324 14509DE5 		ldr	r5, [sp, #20]
 257:D:/Work/DeviceTester/amazon-freertos/lib/third_party/mbedtls/library\sha1.c ****     P( C, D, E, A, B, R(73) );
 2112              		.loc 1 257 0
 2113 1328 09602AE0 		eor	r6, r10, r9
 2114 132c 086026E0 		eor	r6, r6, r8
 256:D:/Work/DeviceTester/amazon-freertos/lib/third_party/mbedtls/library\sha1.c ****     P( D, E, A, B, C, R(72) );
 2115              		.loc 1 256 0
 2116 1330 054024E0 		eor	r4, r4, r5
 2117 1334 38509DE5 		ldr	r5, [sp, #56]
 2118 1338 054024E0 		eor	r4, r4, r5
 2119              	.LVL407:
 2120 133c E44FA0E1 		ror	r4, r4, #31
 2121              	.LVL408:
 2122 1340 035084E0 		add	r5, r4, r3
 2123 1344 0EE085E0 		add	lr, r5, lr
 2124              	.LVL409:
 2125              		.loc 1 257 0
 2126 1348 28509DE5 		ldr	r5, [sp, #40]
 2127 134c 0E7087E0 		add	r7, r7, lr
 2128 1350 20E09DE5 		ldr	lr, [sp, #32]
 256:D:/Work/DeviceTester/amazon-freertos/lib/third_party/mbedtls/library\sha1.c ****     P( D, E, A, B, C, R(72) );
 2129              		.loc 1 256 0
 2130 1354 E87D87E0 		add	r7, r7, r8, ror #27
 2131              	.LVL410:
 2132              		.loc 1 257 0
 2133 1358 6881A0E1 		ror	r8, r8, #2
 2134              	.LVL411:
 2135 135c 05E02EE0 		eor	lr, lr, r5
 2136 1360 18509DE5 		ldr	r5, [sp, #24]
 2137 1364 05E02EE0 		eor	lr, lr, r5
 2138 1368 01E02EE0 		eor	lr, lr, r1
 2139              	.LVL412:
 2140 136c EEEFA0E1 		ror	lr, lr, #31
 2141              	.LVL413:
 2142 1370 03508EE0 		add	r5, lr, r3
 2143 1374 0BB085E0 		add	fp, r5, fp
 2144              	.LVL414:
 258:D:/Work/DeviceTester/amazon-freertos/lib/third_party/mbedtls/library\sha1.c ****     P( B, C, D, E, A, R(74) );
 2145              		.loc 1 258 0
 2146 1378 24509DE5 		ldr	r5, [sp, #36]
 2147 137c 0B6086E0 		add	r6, r6, fp
 2148 1380 2CB09DE5 		ldr	fp, [sp, #44]
 257:D:/Work/DeviceTester/amazon-freertos/lib/third_party/mbedtls/library\sha1.c ****     P( C, D, E, A, B, R(73) );
 2149              		.loc 1 257 0
 2150 1384 E76D86E0 		add	r6, r6, r7, ror #27
 2151              	.LVL415:
 2152              		.loc 1 258 0
 2153 1388 0B5025E0 		eor	r5, r5, fp
 2154 138c 05C02CE0 		eor	ip, ip, r5
 2155              	.LVL416:
 2156 1390 085029E0 		eor	r5, r9, r8
 2157 1394 02C02CE0 		eor	ip, ip, r2
 2158              	.LVL417:
 2159 1398 075025E0 		eor	r5, r5, r7
 2160 139c ECCFA0E1 		ror	ip, ip, #31
 2161              	.LVL418:
 2162 13a0 6771A0E1 		ror	r7, r7, #2
 2163              	.LVL419:
 2164 13a4 03B08CE0 		add	fp, ip, r3
 2165 13a8 0AA08BE0 		add	r10, fp, r10
 2166              	.LVL420:
 259:D:/Work/DeviceTester/amazon-freertos/lib/third_party/mbedtls/library\sha1.c ****     P( A, B, C, D, E, R(75) );
 2167              		.loc 1 259 0
 2168 13ac 04B09DE5 		ldr	fp, [sp, #4]
 2169 13b0 0A5085E0 		add	r5, r5, r10
 2170 13b4 28A09DE5 		ldr	r10, [sp, #40]
 258:D:/Work/DeviceTester/amazon-freertos/lib/third_party/mbedtls/library\sha1.c ****     P( B, C, D, E, A, R(74) );
 2171              		.loc 1 258 0
 2172 13b8 E65D85E0 		add	r5, r5, r6, ror #27
 2173              	.LVL421:
 2174              		.loc 1 259 0
 2175 13bc 0BA02AE0 		eor	r10, r10, fp
 2176 13c0 0A0020E0 		eor	r0, r0, r10
 2177              	.LVL422:
 2178 13c4 004024E0 		eor	r4, r4, r0
 2179              	.LVL423:
 2180 13c8 070028E0 		eor	r0, r8, r7
 2181 13cc E44FA0E1 		ror	r4, r4, #31
 2182              	.LVL424:
 2183 13d0 060020E0 		eor	r0, r0, r6
 2184 13d4 6661A0E1 		ror	r6, r6, #2
 2185              	.LVL425:
 2186 13d8 03A084E0 		add	r10, r4, r3
 2187 13dc 09908AE0 		add	r9, r10, r9
 2188              	.LVL426:
 260:D:/Work/DeviceTester/amazon-freertos/lib/third_party/mbedtls/library\sha1.c ****     P( E, A, B, C, D, R(76) );
 2189              		.loc 1 260 0
 2190 13e0 08A09DE5 		ldr	r10, [sp, #8]
 2191 13e4 090080E0 		add	r0, r0, r9
 2192 13e8 2C909DE5 		ldr	r9, [sp, #44]
 259:D:/Work/DeviceTester/amazon-freertos/lib/third_party/mbedtls/library\sha1.c ****     P( A, B, C, D, E, R(75) );
 2193              		.loc 1 259 0
 2194 13ec E50D80E0 		add	r0, r0, r5, ror #27
 2195              	.LVL427:
 2196              		.loc 1 260 0
 2197 13f0 0A9029E0 		eor	r9, r9, r10
 2198 13f4 1CA09DE5 		ldr	r10, [sp, #28]
 2199 13f8 0A9029E0 		eor	r9, r9, r10
 2200 13fc 09E02EE0 		eor	lr, lr, r9
 2201              	.LVL428:
 2202 1400 069027E0 		eor	r9, r7, r6
 2203 1404 EEEFA0E1 		ror	lr, lr, #31
 2204              	.LVL429:
 2205 1408 059029E0 		eor	r9, r9, r5
 2206 140c 6551A0E1 		ror	r5, r5, #2
 2207              	.LVL430:
 2208 1410 03A08EE0 		add	r10, lr, r3
 2209 1414 08808AE0 		add	r8, r10, r8
 2210              	.LVL431:
 261:D:/Work/DeviceTester/amazon-freertos/lib/third_party/mbedtls/library\sha1.c ****     P( D, E, A, B, C, R(77) );
 2211              		.loc 1 261 0
 2212 1418 0CA09DE5 		ldr	r10, [sp, #12]
 2213 141c 089089E0 		add	r9, r9, r8
 2214 1420 0B80A0E1 		mov	r8, fp
 260:D:/Work/DeviceTester/amazon-freertos/lib/third_party/mbedtls/library\sha1.c ****     P( E, A, B, C, D, R(76) );
 2215              		.loc 1 260 0
 2216 1424 E09D89E0 		add	r9, r9, r0, ror #27
 2217              	.LVL432:
 2218              		.loc 1 261 0
 2219 1428 0A8028E0 		eor	r8, r8, r10
 2220 142c 38A09DE5 		ldr	r10, [sp, #56]
 2221 1430 0A8028E0 		eor	r8, r8, r10
 2222 1434 0C8028E0 		eor	r8, r8, ip
 2223              	.LVL433:
 262:D:/Work/DeviceTester/amazon-freertos/lib/third_party/mbedtls/library\sha1.c ****     P( C, D, E, A, B, R(78) );
 2224              		.loc 1 262 0
 2225 1438 08C09DE5 		ldr	ip, [sp, #8]
 2226 143c E88F83E0 		add	r8, r3, r8, ror #31
 2227              	.LVL434:
 2228 1440 077088E0 		add	r7, r8, r7
 2229              	.LVL435:
 261:D:/Work/DeviceTester/amazon-freertos/lib/third_party/mbedtls/library\sha1.c ****     P( D, E, A, B, C, R(77) );
 2230              		.loc 1 261 0
 2231 1444 058026E0 		eor	r8, r6, r5
 2232 1448 008028E0 		eor	r8, r8, r0
 2233 144c 6001A0E1 		ror	r0, r0, #2
 2234              	.LVL436:
 2235 1450 087087E0 		add	r7, r7, r8
 2236              		.loc 1 262 0
 2237 1454 14809DE5 		ldr	r8, [sp, #20]
 261:D:/Work/DeviceTester/amazon-freertos/lib/third_party/mbedtls/library\sha1.c ****     P( D, E, A, B, C, R(77) );
 2238              		.loc 1 261 0
 2239 1458 E97D87E0 		add	r7, r7, r9, ror #27
 2240              	.LVL437:
 2241              		.loc 1 262 0
 2242 145c 08C02CE0 		eor	ip, ip, r8
 2243 1460 0C1021E0 		eor	r1, r1, ip
 2244              	.LVL438:
 263:D:/Work/DeviceTester/amazon-freertos/lib/third_party/mbedtls/library\sha1.c ****     P( B, C, D, E, A, R(79) );
 2245              		.loc 1 263 0
 2246 1464 18C09DE5 		ldr	ip, [sp, #24]
 262:D:/Work/DeviceTester/amazon-freertos/lib/third_party/mbedtls/library\sha1.c ****     P( C, D, E, A, B, R(78) );
 2247              		.loc 1 262 0
 2248 1468 041021E0 		eor	r1, r1, r4
 2249              	.LVL439:
 2250 146c E11F83E0 		add	r1, r3, r1, ror #31
 2251              	.LVL440:
 2252 1470 066081E0 		add	r6, r1, r6
 2253              	.LVL441:
 2254 1474 001025E0 		eor	r1, r5, r0
 2255 1478 091021E0 		eor	r1, r1, r9
 2256 147c 6991A0E1 		ror	r9, r9, #2
 2257              	.LVL442:
 2258 1480 016086E0 		add	r6, r6, r1
 2259              		.loc 1 263 0
 2260 1484 0C109DE5 		ldr	r1, [sp, #12]
 262:D:/Work/DeviceTester/amazon-freertos/lib/third_party/mbedtls/library\sha1.c ****     P( C, D, E, A, B, R(78) );
 2261              		.loc 1 262 0
 2262 1488 E76D86E0 		add	r6, r6, r7, ror #27
 2263              	.LVL443:
 2264              		.loc 1 263 0
 2265 148c 0C1021E0 		eor	r1, r1, ip
 2266 1490 012022E0 		eor	r2, r2, r1
 2267              	.LVL444:
 2268 1494 02E02EE0 		eor	lr, lr, r2
 2269              	.LVL445:
 264:D:/Work/DeviceTester/amazon-freertos/lib/third_party/mbedtls/library\sha1.c **** 
 265:D:/Work/DeviceTester/amazon-freertos/lib/third_party/mbedtls/library\sha1.c **** #undef K
 266:D:/Work/DeviceTester/amazon-freertos/lib/third_party/mbedtls/library\sha1.c **** #undef F
 267:D:/Work/DeviceTester/amazon-freertos/lib/third_party/mbedtls/library\sha1.c **** 
 268:D:/Work/DeviceTester/amazon-freertos/lib/third_party/mbedtls/library\sha1.c ****     ctx->state[0] += A;
 2270              		.loc 1 268 0
 2271 1498 48209DE5 		ldr	r2, [sp, #72]
 2272 149c 033082E0 		add	r3, r2, r3
 2273 14a0 EEEF83E0 		add	lr, r3, lr, ror #31
 2274              	.LVL446:
 263:D:/Work/DeviceTester/amazon-freertos/lib/third_party/mbedtls/library\sha1.c ****     P( B, C, D, E, A, R(79) );
 2275              		.loc 1 263 0
 2276 14a4 093020E0 		eor	r3, r0, r9
 2277 14a8 073023E0 		eor	r3, r3, r7
 2278              		.loc 1 268 0
 2279 14ac 05508EE0 		add	r5, lr, r5
 2280 14b0 035085E0 		add	r5, r5, r3
 2281 14b4 00309DE5 		ldr	r3, [sp]
 2282 14b8 E65D85E0 		add	r5, r5, r6, ror #27
 2283 14bc 085083E5 		str	r5, [r3, #8]
 269:D:/Work/DeviceTester/amazon-freertos/lib/third_party/mbedtls/library\sha1.c ****     ctx->state[1] += B;
 2284              		.loc 1 269 0
 2285 14c0 50309DE5 		ldr	r3, [sp, #80]
 2286 14c4 066083E0 		add	r6, r3, r6
 2287              	.LVL447:
 2288 14c8 00309DE5 		ldr	r3, [sp]
 2289 14cc 0C6083E5 		str	r6, [r3, #12]
 270:D:/Work/DeviceTester/amazon-freertos/lib/third_party/mbedtls/library\sha1.c ****     ctx->state[2] += C;
 2290              		.loc 1 270 0
 2291 14d0 10309DE5 		ldr	r3, [sp, #16]
 2292 14d4 677183E0 		add	r7, r3, r7, ror #2
 2293              	.LVL448:
 2294 14d8 00309DE5 		ldr	r3, [sp]
 2295 14dc 107083E5 		str	r7, [r3, #16]
 271:D:/Work/DeviceTester/amazon-freertos/lib/third_party/mbedtls/library\sha1.c ****     ctx->state[3] += D;
 2296              		.loc 1 271 0
 2297 14e0 4C309DE5 		ldr	r3, [sp, #76]
 2298 14e4 099083E0 		add	r9, r3, r9
 2299              	.LVL449:
 2300 14e8 00309DE5 		ldr	r3, [sp]
 2301 14ec 149083E5 		str	r9, [r3, #20]
 272:D:/Work/DeviceTester/amazon-freertos/lib/third_party/mbedtls/library\sha1.c ****     ctx->state[4] += E;
 2302              		.loc 1 272 0
 2303 14f0 54309DE5 		ldr	r3, [sp, #84]
 2304 14f4 000083E0 		add	r0, r3, r0
 2305              	.LVL450:
 2306 14f8 00309DE5 		ldr	r3, [sp]
 2307 14fc 180083E5 		str	r0, [r3, #24]
 273:D:/Work/DeviceTester/amazon-freertos/lib/third_party/mbedtls/library\sha1.c **** 
 274:D:/Work/DeviceTester/amazon-freertos/lib/third_party/mbedtls/library\sha1.c ****     return( 0 );
 275:D:/Work/DeviceTester/amazon-freertos/lib/third_party/mbedtls/library\sha1.c **** }
 2308              		.loc 1 275 0
 2309 1500 0000A0E3 		mov	r0, #0
 2310 1504 5CD08DE2 		add	sp, sp, #92
 2311              		.cfi_def_cfa_offset 36
 2312              	.LVL451:
 2313              		@ sp needed
 2314 1508 F08FBDE8 		pop	{r4, r5, r6, r7, r8, r9, r10, fp, pc}
 2315              		.cfi_endproc
 2316              	.LFE5:
 2318              		.section	.text.mbedtls_sha1_update_ret.part.0,"ax",%progbits
 2319              		.align	2
 2320              		.syntax unified
 2321              		.arm
 2322              		.fpu neon
 2324              	mbedtls_sha1_update_ret.part.0:
 2325              	.LFB10:
 276:D:/Work/DeviceTester/amazon-freertos/lib/third_party/mbedtls/library\sha1.c **** 
 277:D:/Work/DeviceTester/amazon-freertos/lib/third_party/mbedtls/library\sha1.c **** #if !defined(MBEDTLS_DEPRECATED_REMOVED)
 278:D:/Work/DeviceTester/amazon-freertos/lib/third_party/mbedtls/library\sha1.c **** void mbedtls_sha1_process( mbedtls_sha1_context *ctx,
 279:D:/Work/DeviceTester/amazon-freertos/lib/third_party/mbedtls/library\sha1.c ****                            const unsigned char data[64] )
 280:D:/Work/DeviceTester/amazon-freertos/lib/third_party/mbedtls/library\sha1.c **** {
 281:D:/Work/DeviceTester/amazon-freertos/lib/third_party/mbedtls/library\sha1.c ****     mbedtls_internal_sha1_process( ctx, data );
 282:D:/Work/DeviceTester/amazon-freertos/lib/third_party/mbedtls/library\sha1.c **** }
 283:D:/Work/DeviceTester/amazon-freertos/lib/third_party/mbedtls/library\sha1.c **** #endif
 284:D:/Work/DeviceTester/amazon-freertos/lib/third_party/mbedtls/library\sha1.c **** #endif /* !MBEDTLS_SHA1_PROCESS_ALT */
 285:D:/Work/DeviceTester/amazon-freertos/lib/third_party/mbedtls/library\sha1.c **** 
 286:D:/Work/DeviceTester/amazon-freertos/lib/third_party/mbedtls/library\sha1.c **** /*
 287:D:/Work/DeviceTester/amazon-freertos/lib/third_party/mbedtls/library\sha1.c ****  * SHA-1 process buffer
 288:D:/Work/DeviceTester/amazon-freertos/lib/third_party/mbedtls/library\sha1.c ****  */
 289:D:/Work/DeviceTester/amazon-freertos/lib/third_party/mbedtls/library\sha1.c **** int mbedtls_sha1_update_ret( mbedtls_sha1_context *ctx,
 2326              		.loc 1 289 0
 2327              		.cfi_startproc
 2328              		@ args = 0, pretend = 0, frame = 0
 2329              		@ frame_needed = 0, uses_anonymous_args = 0
 2330              	.LVL452:
 290:D:/Work/DeviceTester/amazon-freertos/lib/third_party/mbedtls/library\sha1.c ****                              const unsigned char *input,
 291:D:/Work/DeviceTester/amazon-freertos/lib/third_party/mbedtls/library\sha1.c ****                              size_t ilen )
 292:D:/Work/DeviceTester/amazon-freertos/lib/third_party/mbedtls/library\sha1.c **** {
 293:D:/Work/DeviceTester/amazon-freertos/lib/third_party/mbedtls/library\sha1.c ****     int ret;
 294:D:/Work/DeviceTester/amazon-freertos/lib/third_party/mbedtls/library\sha1.c ****     size_t fill;
 295:D:/Work/DeviceTester/amazon-freertos/lib/third_party/mbedtls/library\sha1.c ****     uint32_t left;
 296:D:/Work/DeviceTester/amazon-freertos/lib/third_party/mbedtls/library\sha1.c **** 
 297:D:/Work/DeviceTester/amazon-freertos/lib/third_party/mbedtls/library\sha1.c ****     if( ilen == 0 )
 298:D:/Work/DeviceTester/amazon-freertos/lib/third_party/mbedtls/library\sha1.c ****         return( 0 );
 299:D:/Work/DeviceTester/amazon-freertos/lib/third_party/mbedtls/library\sha1.c **** 
 300:D:/Work/DeviceTester/amazon-freertos/lib/third_party/mbedtls/library\sha1.c ****     left = ctx->total[0] & 0x3F;
 2331              		.loc 1 300 0
 2332 0000 003090E5 		ldr	r3, [r0]
 289:D:/Work/DeviceTester/amazon-freertos/lib/third_party/mbedtls/library\sha1.c ****                              const unsigned char *input,
 2333              		.loc 1 289 0
 2334 0004 F0472DE9 		push	{r4, r5, r6, r7, r8, r9, r10, lr}
 2335              		.cfi_def_cfa_offset 32
 2336              		.cfi_offset 4, -32
 2337              		.cfi_offset 5, -28
 2338              		.cfi_offset 6, -24
 2339              		.cfi_offset 7, -20
 2340              		.cfi_offset 8, -16
 2341              		.cfi_offset 9, -12
 2342              		.cfi_offset 10, -8
 2343              		.cfi_offset 14, -4
 289:D:/Work/DeviceTester/amazon-freertos/lib/third_party/mbedtls/library\sha1.c ****                              const unsigned char *input,
 2344              		.loc 1 289 0
 2345 0008 0040A0E1 		mov	r4, r0
 2346 000c 0180A0E1 		mov	r8, r1
 2347 0010 0260A0E1 		mov	r6, r2
 2348              		.loc 1 300 0
 2349 0014 3F7003E2 		and	r7, r3, #63
 2350              	.LVL453:
 301:D:/Work/DeviceTester/amazon-freertos/lib/third_party/mbedtls/library\sha1.c ****     fill = 64 - left;
 302:D:/Work/DeviceTester/amazon-freertos/lib/third_party/mbedtls/library\sha1.c **** 
 303:D:/Work/DeviceTester/amazon-freertos/lib/third_party/mbedtls/library\sha1.c ****     ctx->total[0] += (uint32_t) ilen;
 2351              		.loc 1 303 0
 2352 0018 023083E0 		add	r3, r3, r2
 304:D:/Work/DeviceTester/amazon-freertos/lib/third_party/mbedtls/library\sha1.c ****     ctx->total[0] &= 0xFFFFFFFF;
 305:D:/Work/DeviceTester/amazon-freertos/lib/third_party/mbedtls/library\sha1.c **** 
 306:D:/Work/DeviceTester/amazon-freertos/lib/third_party/mbedtls/library\sha1.c ****     if( ctx->total[0] < (uint32_t) ilen )
 2353              		.loc 1 306 0
 2354 001c 030052E1 		cmp	r2, r3
 303:D:/Work/DeviceTester/amazon-freertos/lib/third_party/mbedtls/library\sha1.c ****     ctx->total[0] &= 0xFFFFFFFF;
 2355              		.loc 1 303 0
 2356 0020 003080E5 		str	r3, [r0]
 307:D:/Work/DeviceTester/amazon-freertos/lib/third_party/mbedtls/library\sha1.c ****         ctx->total[1]++;
 2357              		.loc 1 307 0
 2358 0024 04309085 		ldrhi	r3, [r0, #4]
 301:D:/Work/DeviceTester/amazon-freertos/lib/third_party/mbedtls/library\sha1.c **** 
 2359              		.loc 1 301 0
 2360 0028 405067E2 		rsb	r5, r7, #64
 2361              	.LVL454:
 2362              		.loc 1 307 0
 2363 002c 01308382 		addhi	r3, r3, #1
 2364 0030 04308085 		strhi	r3, [r0, #4]
 308:D:/Work/DeviceTester/amazon-freertos/lib/third_party/mbedtls/library\sha1.c **** 
 309:D:/Work/DeviceTester/amazon-freertos/lib/third_party/mbedtls/library\sha1.c ****     if( left && ilen >= fill )
 2365              		.loc 1 309 0
 2366 0034 003097E2 		adds	r3, r7, #0
 2367 0038 0130A013 		movne	r3, #1
 2368 003c 020055E1 		cmp	r5, r2
 2369 0040 0030A083 		movhi	r3, #0
 2370 0044 000053E3 		cmp	r3, #0
 2371 0048 0B00000A 		beq	.L16
 310:D:/Work/DeviceTester/amazon-freertos/lib/third_party/mbedtls/library\sha1.c ****     {
 311:D:/Work/DeviceTester/amazon-freertos/lib/third_party/mbedtls/library\sha1.c ****         memcpy( (void *) (ctx->buffer + left), input, fill );
 2372              		.loc 1 311 0
 2373 004c 1C9080E2 		add	r9, r0, #28
 2374 0050 0520A0E1 		mov	r2, r5
 2375              	.LVL455:
 2376 0054 070089E0 		add	r0, r9, r7
 2377              	.LVL456:
 2378 0058 FEFFFFEB 		bl	memcpy
 2379              	.LVL457:
 312:D:/Work/DeviceTester/amazon-freertos/lib/third_party/mbedtls/library\sha1.c **** 
 313:D:/Work/DeviceTester/amazon-freertos/lib/third_party/mbedtls/library\sha1.c ****         if( ( ret = mbedtls_internal_sha1_process( ctx, ctx->buffer ) ) != 0 )
 2380              		.loc 1 313 0
 2381 005c 0910A0E1 		mov	r1, r9
 2382 0060 0400A0E1 		mov	r0, r4
 2383 0064 FEFFFFEB 		bl	mbedtls_internal_sha1_process
 2384              	.LVL458:
 2385 0068 000050E3 		cmp	r0, #0
 2386 006c F087BD18 		popne	{r4, r5, r6, r7, r8, r9, r10, pc}
 314:D:/Work/DeviceTester/amazon-freertos/lib/third_party/mbedtls/library\sha1.c ****             return( ret );
 315:D:/Work/DeviceTester/amazon-freertos/lib/third_party/mbedtls/library\sha1.c **** 
 316:D:/Work/DeviceTester/amazon-freertos/lib/third_party/mbedtls/library\sha1.c ****         input += fill;
 2387              		.loc 1 316 0
 2388 0070 058088E0 		add	r8, r8, r5
 2389              	.LVL459:
 317:D:/Work/DeviceTester/amazon-freertos/lib/third_party/mbedtls/library\sha1.c ****         ilen  -= fill;
 2390              		.loc 1 317 0
 2391 0074 056046E0 		sub	r6, r6, r5
 2392              	.LVL460:
 318:D:/Work/DeviceTester/amazon-freertos/lib/third_party/mbedtls/library\sha1.c ****         left = 0;
 2393              		.loc 1 318 0
 2394 0078 0070A0E1 		mov	r7, r0
 2395              	.LVL461:
 2396              	.L16:
 2397 007c 0650A0E1 		mov	r5, r6
 2398              	.LVL462:
 2399              	.L18:
 319:D:/Work/DeviceTester/amazon-freertos/lib/third_party/mbedtls/library\sha1.c ****     }
 320:D:/Work/DeviceTester/amazon-freertos/lib/third_party/mbedtls/library\sha1.c **** 
 321:D:/Work/DeviceTester/amazon-freertos/lib/third_party/mbedtls/library\sha1.c ****     while( ilen >= 64 )
 2400              		.loc 1 321 0
 2401 0080 3F0055E3 		cmp	r5, #63
 2402 0084 051046E0 		sub	r1, r6, r5
 2403 0088 011088E0 		add	r1, r8, r1
 2404              	.LVL463:
 2405 008c 0700008A 		bhi	.L19
 322:D:/Work/DeviceTester/amazon-freertos/lib/third_party/mbedtls/library\sha1.c ****     {
 323:D:/Work/DeviceTester/amazon-freertos/lib/third_party/mbedtls/library\sha1.c ****         if( ( ret = mbedtls_internal_sha1_process( ctx, input ) ) != 0 )
 324:D:/Work/DeviceTester/amazon-freertos/lib/third_party/mbedtls/library\sha1.c ****             return( ret );
 325:D:/Work/DeviceTester/amazon-freertos/lib/third_party/mbedtls/library\sha1.c **** 
 326:D:/Work/DeviceTester/amazon-freertos/lib/third_party/mbedtls/library\sha1.c ****         input += 64;
 327:D:/Work/DeviceTester/amazon-freertos/lib/third_party/mbedtls/library\sha1.c ****         ilen  -= 64;
 328:D:/Work/DeviceTester/amazon-freertos/lib/third_party/mbedtls/library\sha1.c ****     }
 329:D:/Work/DeviceTester/amazon-freertos/lib/third_party/mbedtls/library\sha1.c **** 
 330:D:/Work/DeviceTester/amazon-freertos/lib/third_party/mbedtls/library\sha1.c ****     if( ilen > 0 )
 2406              		.loc 1 330 0
 2407 0090 000055E3 		cmp	r5, #0
 2408 0094 0300000A 		beq	.L25
 331:D:/Work/DeviceTester/amazon-freertos/lib/third_party/mbedtls/library\sha1.c ****         memcpy( (void *) (ctx->buffer + left), input, ilen );
 2409              		.loc 1 331 0
 2410 0098 1C0084E2 		add	r0, r4, #28
 2411 009c 0520A0E1 		mov	r2, r5
 2412 00a0 070080E0 		add	r0, r0, r7
 2413 00a4 FEFFFFEB 		bl	memcpy
 2414              	.LVL464:
 2415              	.L25:
 332:D:/Work/DeviceTester/amazon-freertos/lib/third_party/mbedtls/library\sha1.c **** 
 333:D:/Work/DeviceTester/amazon-freertos/lib/third_party/mbedtls/library\sha1.c ****     return( 0 );
 2416              		.loc 1 333 0
 2417 00a8 0000A0E3 		mov	r0, #0
 2418 00ac F087BDE8 		pop	{r4, r5, r6, r7, r8, r9, r10, pc}
 2419              	.LVL465:
 2420              	.L19:
 323:D:/Work/DeviceTester/amazon-freertos/lib/third_party/mbedtls/library\sha1.c ****             return( ret );
 2421              		.loc 1 323 0
 2422 00b0 0400A0E1 		mov	r0, r4
 2423 00b4 FEFFFFEB 		bl	mbedtls_internal_sha1_process
 2424              	.LVL466:
 2425 00b8 000050E3 		cmp	r0, #0
 2426 00bc F087BD18 		popne	{r4, r5, r6, r7, r8, r9, r10, pc}
 2427              	.LVL467:
 327:D:/Work/DeviceTester/amazon-freertos/lib/third_party/mbedtls/library\sha1.c ****     }
 2428              		.loc 1 327 0
 2429 00c0 405045E2 		sub	r5, r5, #64
 2430              	.LVL468:
 2431 00c4 EDFFFFEA 		b	.L18
 2432              		.cfi_endproc
 2433              	.LFE10:
 2435              		.section	.text.mbedtls_sha1_update_ret,"ax",%progbits
 2436              		.align	2
 2437              		.global	mbedtls_sha1_update_ret
 2438              		.syntax unified
 2439              		.arm
 2440              		.fpu neon
 2442              	mbedtls_sha1_update_ret:
 2443              	.LFB6:
 292:D:/Work/DeviceTester/amazon-freertos/lib/third_party/mbedtls/library\sha1.c ****     int ret;
 2444              		.loc 1 292 0
 2445              		.cfi_startproc
 2446              		@ args = 0, pretend = 0, frame = 0
 2447              		@ frame_needed = 0, uses_anonymous_args = 0
 2448              		@ link register save eliminated.
 2449              	.LVL469:
 297:D:/Work/DeviceTester/amazon-freertos/lib/third_party/mbedtls/library\sha1.c ****         return( 0 );
 2450              		.loc 1 297 0
 2451 0000 003052E2 		subs	r3, r2, #0
 2452 0004 0000000A 		beq	.L27
 2453 0008 FEFFFFEA 		b	mbedtls_sha1_update_ret.part.0
 2454              	.LVL470:
 2455              	.L27:
 334:D:/Work/DeviceTester/amazon-freertos/lib/third_party/mbedtls/library\sha1.c **** }
 2456              		.loc 1 334 0
 2457 000c 0300A0E1 		mov	r0, r3
 2458              	.LVL471:
 2459 0010 1EFF2FE1 		bx	lr
 2460              		.cfi_endproc
 2461              	.LFE6:
 2463              		.section	.text.mbedtls_sha1_finish_ret,"ax",%progbits
 2464              		.align	2
 2465              		.global	mbedtls_sha1_finish_ret
 2466              		.syntax unified
 2467              		.arm
 2468              		.fpu neon
 2470              	mbedtls_sha1_finish_ret:
 2471              	.LFB7:
 335:D:/Work/DeviceTester/amazon-freertos/lib/third_party/mbedtls/library\sha1.c **** 
 336:D:/Work/DeviceTester/amazon-freertos/lib/third_party/mbedtls/library\sha1.c **** #if !defined(MBEDTLS_DEPRECATED_REMOVED)
 337:D:/Work/DeviceTester/amazon-freertos/lib/third_party/mbedtls/library\sha1.c **** void mbedtls_sha1_update( mbedtls_sha1_context *ctx,
 338:D:/Work/DeviceTester/amazon-freertos/lib/third_party/mbedtls/library\sha1.c ****                           const unsigned char *input,
 339:D:/Work/DeviceTester/amazon-freertos/lib/third_party/mbedtls/library\sha1.c ****                           size_t ilen )
 340:D:/Work/DeviceTester/amazon-freertos/lib/third_party/mbedtls/library\sha1.c **** {
 341:D:/Work/DeviceTester/amazon-freertos/lib/third_party/mbedtls/library\sha1.c ****     mbedtls_sha1_update_ret( ctx, input, ilen );
 342:D:/Work/DeviceTester/amazon-freertos/lib/third_party/mbedtls/library\sha1.c **** }
 343:D:/Work/DeviceTester/amazon-freertos/lib/third_party/mbedtls/library\sha1.c **** #endif
 344:D:/Work/DeviceTester/amazon-freertos/lib/third_party/mbedtls/library\sha1.c **** 
 345:D:/Work/DeviceTester/amazon-freertos/lib/third_party/mbedtls/library\sha1.c **** /*
 346:D:/Work/DeviceTester/amazon-freertos/lib/third_party/mbedtls/library\sha1.c ****  * SHA-1 final digest
 347:D:/Work/DeviceTester/amazon-freertos/lib/third_party/mbedtls/library\sha1.c ****  */
 348:D:/Work/DeviceTester/amazon-freertos/lib/third_party/mbedtls/library\sha1.c **** int mbedtls_sha1_finish_ret( mbedtls_sha1_context *ctx,
 349:D:/Work/DeviceTester/amazon-freertos/lib/third_party/mbedtls/library\sha1.c ****                              unsigned char output[20] )
 350:D:/Work/DeviceTester/amazon-freertos/lib/third_party/mbedtls/library\sha1.c **** {
 2472              		.loc 1 350 0
 2473              		.cfi_startproc
 2474              		@ args = 0, pretend = 0, frame = 0
 2475              		@ frame_needed = 0, uses_anonymous_args = 0
 2476              	.LVL472:
 351:D:/Work/DeviceTester/amazon-freertos/lib/third_party/mbedtls/library\sha1.c ****     int ret;
 352:D:/Work/DeviceTester/amazon-freertos/lib/third_party/mbedtls/library\sha1.c ****     uint32_t used;
 353:D:/Work/DeviceTester/amazon-freertos/lib/third_party/mbedtls/library\sha1.c ****     uint32_t high, low;
 354:D:/Work/DeviceTester/amazon-freertos/lib/third_party/mbedtls/library\sha1.c **** 
 355:D:/Work/DeviceTester/amazon-freertos/lib/third_party/mbedtls/library\sha1.c ****     /*
 356:D:/Work/DeviceTester/amazon-freertos/lib/third_party/mbedtls/library\sha1.c ****      * Add padding: 0x80 then 0x00 until 8 bytes remain for the length
 357:D:/Work/DeviceTester/amazon-freertos/lib/third_party/mbedtls/library\sha1.c ****      */
 358:D:/Work/DeviceTester/amazon-freertos/lib/third_party/mbedtls/library\sha1.c ****     used = ctx->total[0] & 0x3F;
 2477              		.loc 1 358 0
 2478 0000 003090E5 		ldr	r3, [r0]
 359:D:/Work/DeviceTester/amazon-freertos/lib/third_party/mbedtls/library\sha1.c **** 
 360:D:/Work/DeviceTester/amazon-freertos/lib/third_party/mbedtls/library\sha1.c ****     ctx->buffer[used++] = 0x80;
 2479              		.loc 1 360 0
 2480 0004 7F20E0E3 		mvn	r2, #127
 350:D:/Work/DeviceTester/amazon-freertos/lib/third_party/mbedtls/library\sha1.c ****     int ret;
 2481              		.loc 1 350 0
 2482 0008 70402DE9 		push	{r4, r5, r6, lr}
 2483              		.cfi_def_cfa_offset 16
 2484              		.cfi_offset 4, -16
 2485              		.cfi_offset 5, -12
 2486              		.cfi_offset 6, -8
 2487              		.cfi_offset 14, -4
 350:D:/Work/DeviceTester/amazon-freertos/lib/third_party/mbedtls/library\sha1.c ****     int ret;
 2488              		.loc 1 350 0
 2489 000c 0040A0E1 		mov	r4, r0
 2490 0010 1C6084E2 		add	r6, r4, #28
 2491 0014 0150A0E1 		mov	r5, r1
 358:D:/Work/DeviceTester/amazon-freertos/lib/third_party/mbedtls/library\sha1.c **** 
 2492              		.loc 1 358 0
 2493 0018 3F3003E2 		and	r3, r3, #63
 2494              	.LVL473:
 2495              		.loc 1 360 0
 2496 001c 010083E2 		add	r0, r3, #1
 2497              	.LVL474:
 2498 0020 033084E0 		add	r3, r4, r3
 361:D:/Work/DeviceTester/amazon-freertos/lib/third_party/mbedtls/library\sha1.c **** 
 362:D:/Work/DeviceTester/amazon-freertos/lib/third_party/mbedtls/library\sha1.c ****     if( used <= 56 )
 2499              		.loc 1 362 0
 2500 0024 380050E3 		cmp	r0, #56
 360:D:/Work/DeviceTester/amazon-freertos/lib/third_party/mbedtls/library\sha1.c **** 
 2501              		.loc 1 360 0
 2502 0028 1C20C3E5 		strb	r2, [r3, #28]
 363:D:/Work/DeviceTester/amazon-freertos/lib/third_party/mbedtls/library\sha1.c ****     {
 364:D:/Work/DeviceTester/amazon-freertos/lib/third_party/mbedtls/library\sha1.c ****         /* Enough room for padding + length in current block */
 365:D:/Work/DeviceTester/amazon-freertos/lib/third_party/mbedtls/library\sha1.c ****         memset( ctx->buffer + used, 0, 56 - used );
 2503              		.loc 1 365 0
 2504 002c 0010A093 		movls	r1, #0
 2505              	.LVL475:
 2506 0030 38206092 		rsbls	r2, r0, #56
 2507 0034 00008690 		addls	r0, r6, r0
 2508              	.LVL476:
 362:D:/Work/DeviceTester/amazon-freertos/lib/third_party/mbedtls/library\sha1.c ****     {
 2509              		.loc 1 362 0
 2510 0038 0B00009A 		bls	.L33
 366:D:/Work/DeviceTester/amazon-freertos/lib/third_party/mbedtls/library\sha1.c ****     }
 367:D:/Work/DeviceTester/amazon-freertos/lib/third_party/mbedtls/library\sha1.c ****     else
 368:D:/Work/DeviceTester/amazon-freertos/lib/third_party/mbedtls/library\sha1.c ****     {
 369:D:/Work/DeviceTester/amazon-freertos/lib/third_party/mbedtls/library\sha1.c ****         /* We'll need an extra block */
 370:D:/Work/DeviceTester/amazon-freertos/lib/third_party/mbedtls/library\sha1.c ****         memset( ctx->buffer + used, 0, 64 - used );
 2511              		.loc 1 370 0
 2512 003c 402060E2 		rsb	r2, r0, #64
 2513 0040 0010A0E3 		mov	r1, #0
 2514 0044 000086E0 		add	r0, r6, r0
 2515 0048 FEFFFFEB 		bl	memset
 2516              	.LVL477:
 371:D:/Work/DeviceTester/amazon-freertos/lib/third_party/mbedtls/library\sha1.c **** 
 372:D:/Work/DeviceTester/amazon-freertos/lib/third_party/mbedtls/library\sha1.c ****         if( ( ret = mbedtls_internal_sha1_process( ctx, ctx->buffer ) ) != 0 )
 2517              		.loc 1 372 0
 2518 004c 0610A0E1 		mov	r1, r6
 2519 0050 0400A0E1 		mov	r0, r4
 2520 0054 FEFFFFEB 		bl	mbedtls_internal_sha1_process
 2521              	.LVL478:
 2522 0058 000050E3 		cmp	r0, #0
 2523 005c 7080BD18 		popne	{r4, r5, r6, pc}
 373:D:/Work/DeviceTester/amazon-freertos/lib/third_party/mbedtls/library\sha1.c ****             return( ret );
 374:D:/Work/DeviceTester/amazon-freertos/lib/third_party/mbedtls/library\sha1.c **** 
 375:D:/Work/DeviceTester/amazon-freertos/lib/third_party/mbedtls/library\sha1.c ****         memset( ctx->buffer, 0, 56 );
 2524              		.loc 1 375 0
 2525 0060 0010A0E1 		mov	r1, r0
 2526 0064 3820A0E3 		mov	r2, #56
 2527 0068 0600A0E1 		mov	r0, r6
 2528              	.LVL479:
 2529              	.L33:
 2530 006c FEFFFFEB 		bl	memset
 2531              	.LVL480:
 2532              	.LBB4:
 2533              	.LBB5:
 376:D:/Work/DeviceTester/amazon-freertos/lib/third_party/mbedtls/library\sha1.c ****     }
 377:D:/Work/DeviceTester/amazon-freertos/lib/third_party/mbedtls/library\sha1.c **** 
 378:D:/Work/DeviceTester/amazon-freertos/lib/third_party/mbedtls/library\sha1.c ****     /*
 379:D:/Work/DeviceTester/amazon-freertos/lib/third_party/mbedtls/library\sha1.c ****      * Add message length
 380:D:/Work/DeviceTester/amazon-freertos/lib/third_party/mbedtls/library\sha1.c ****      */
 381:D:/Work/DeviceTester/amazon-freertos/lib/third_party/mbedtls/library\sha1.c ****     high = ( ctx->total[0] >> 29 )
 2534              		.loc 1 381 0
 2535 0070 003094E5 		ldr	r3, [r4]
 382:D:/Work/DeviceTester/amazon-freertos/lib/third_party/mbedtls/library\sha1.c ****          | ( ctx->total[1] <<  3 );
 383:D:/Work/DeviceTester/amazon-freertos/lib/third_party/mbedtls/library\sha1.c ****     low  = ( ctx->total[0] <<  3 );
 384:D:/Work/DeviceTester/amazon-freertos/lib/third_party/mbedtls/library\sha1.c **** 
 385:D:/Work/DeviceTester/amazon-freertos/lib/third_party/mbedtls/library\sha1.c ****     PUT_UINT32_BE( high, ctx->buffer, 56 );
 386:D:/Work/DeviceTester/amazon-freertos/lib/third_party/mbedtls/library\sha1.c ****     PUT_UINT32_BE( low,  ctx->buffer, 60 );
 387:D:/Work/DeviceTester/amazon-freertos/lib/third_party/mbedtls/library\sha1.c **** 
 388:D:/Work/DeviceTester/amazon-freertos/lib/third_party/mbedtls/library\sha1.c ****     if( ( ret = mbedtls_internal_sha1_process( ctx, ctx->buffer ) ) != 0 )
 2536              		.loc 1 388 0
 2537 0074 0400A0E1 		mov	r0, r4
 382:D:/Work/DeviceTester/amazon-freertos/lib/third_party/mbedtls/library\sha1.c ****          | ( ctx->total[1] <<  3 );
 2538              		.loc 1 382 0
 2539 0078 041094E5 		ldr	r1, [r4, #4]
 381:D:/Work/DeviceTester/amazon-freertos/lib/third_party/mbedtls/library\sha1.c ****          | ( ctx->total[1] <<  3 );
 2540              		.loc 1 381 0
 2541 007c A32EA0E1 		lsr	r2, r3, #29
 383:D:/Work/DeviceTester/amazon-freertos/lib/third_party/mbedtls/library\sha1.c **** 
 2542              		.loc 1 383 0
 2543 0080 8331A0E1 		lsl	r3, r3, #3
 381:D:/Work/DeviceTester/amazon-freertos/lib/third_party/mbedtls/library\sha1.c ****          | ( ctx->total[1] <<  3 );
 2544              		.loc 1 381 0
 2545 0084 812182E1 		orr	r2, r2, r1, lsl #3
 2546              	.LVL481:
 386:D:/Work/DeviceTester/amazon-freertos/lib/third_party/mbedtls/library\sha1.c **** 
 2547              		.loc 1 386 0
 2548 0088 5B30C4E5 		strb	r3, [r4, #91]
 385:D:/Work/DeviceTester/amazon-freertos/lib/third_party/mbedtls/library\sha1.c ****     PUT_UINT32_BE( low,  ctx->buffer, 60 );
 2549              		.loc 1 385 0
 2550 008c 221CA0E1 		lsr	r1, r2, #24
 2551 0090 5720C4E5 		strb	r2, [r4, #87]
 2552 0094 5410C4E5 		strb	r1, [r4, #84]
 2553 0098 2218A0E1 		lsr	r1, r2, #16
 2554 009c 5510C4E5 		strb	r1, [r4, #85]
 2555 00a0 2214A0E1 		lsr	r1, r2, #8
 386:D:/Work/DeviceTester/amazon-freertos/lib/third_party/mbedtls/library\sha1.c **** 
 2556              		.loc 1 386 0
 2557 00a4 232CA0E1 		lsr	r2, r3, #24
 2558              	.LVL482:
 385:D:/Work/DeviceTester/amazon-freertos/lib/third_party/mbedtls/library\sha1.c ****     PUT_UINT32_BE( low,  ctx->buffer, 60 );
 2559              		.loc 1 385 0
 2560 00a8 5610C4E5 		strb	r1, [r4, #86]
 2561              		.loc 1 388 0
 2562 00ac 0610A0E1 		mov	r1, r6
 386:D:/Work/DeviceTester/amazon-freertos/lib/third_party/mbedtls/library\sha1.c **** 
 2563              		.loc 1 386 0
 2564 00b0 5820C4E5 		strb	r2, [r4, #88]
 2565 00b4 2328A0E1 		lsr	r2, r3, #16
 2566 00b8 5920C4E5 		strb	r2, [r4, #89]
 2567 00bc 2324A0E1 		lsr	r2, r3, #8
 2568 00c0 5A20C4E5 		strb	r2, [r4, #90]
 2569              		.loc 1 388 0
 2570 00c4 FEFFFFEB 		bl	mbedtls_internal_sha1_process
 2571              	.LVL483:
 2572 00c8 000050E3 		cmp	r0, #0
 2573 00cc 7080BD18 		popne	{r4, r5, r6, pc}
 389:D:/Work/DeviceTester/amazon-freertos/lib/third_party/mbedtls/library\sha1.c ****         return( ret );
 390:D:/Work/DeviceTester/amazon-freertos/lib/third_party/mbedtls/library\sha1.c **** 
 391:D:/Work/DeviceTester/amazon-freertos/lib/third_party/mbedtls/library\sha1.c ****     /*
 392:D:/Work/DeviceTester/amazon-freertos/lib/third_party/mbedtls/library\sha1.c ****      * Output final state
 393:D:/Work/DeviceTester/amazon-freertos/lib/third_party/mbedtls/library\sha1.c ****      */
 394:D:/Work/DeviceTester/amazon-freertos/lib/third_party/mbedtls/library\sha1.c ****     PUT_UINT32_BE( ctx->state[0], output,  0 );
 2574              		.loc 1 394 0
 2575 00d0 0B30D4E5 		ldrb	r3, [r4, #11]	@ zero_extendqisi2
 2576 00d4 0030C5E5 		strb	r3, [r5]
 2577 00d8 BA30D4E1 		ldrh	r3, [r4, #10]
 2578 00dc 0130C5E5 		strb	r3, [r5, #1]
 2579 00e0 083094E5 		ldr	r3, [r4, #8]
 2580 00e4 2334A0E1 		lsr	r3, r3, #8
 2581 00e8 0230C5E5 		strb	r3, [r5, #2]
 2582 00ec 083094E5 		ldr	r3, [r4, #8]
 2583 00f0 0330C5E5 		strb	r3, [r5, #3]
 395:D:/Work/DeviceTester/amazon-freertos/lib/third_party/mbedtls/library\sha1.c ****     PUT_UINT32_BE( ctx->state[1], output,  4 );
 2584              		.loc 1 395 0
 2585 00f4 0F30D4E5 		ldrb	r3, [r4, #15]	@ zero_extendqisi2
 2586 00f8 0430C5E5 		strb	r3, [r5, #4]
 2587 00fc BE30D4E1 		ldrh	r3, [r4, #14]
 2588 0100 0530C5E5 		strb	r3, [r5, #5]
 2589 0104 0C3094E5 		ldr	r3, [r4, #12]
 2590 0108 2334A0E1 		lsr	r3, r3, #8
 2591 010c 0630C5E5 		strb	r3, [r5, #6]
 2592 0110 0C3094E5 		ldr	r3, [r4, #12]
 2593 0114 0730C5E5 		strb	r3, [r5, #7]
 396:D:/Work/DeviceTester/amazon-freertos/lib/third_party/mbedtls/library\sha1.c ****     PUT_UINT32_BE( ctx->state[2], output,  8 );
 2594              		.loc 1 396 0
 2595 0118 1330D4E5 		ldrb	r3, [r4, #19]	@ zero_extendqisi2
 2596 011c 0830C5E5 		strb	r3, [r5, #8]
 2597 0120 B231D4E1 		ldrh	r3, [r4, #18]
 2598 0124 0930C5E5 		strb	r3, [r5, #9]
 2599 0128 103094E5 		ldr	r3, [r4, #16]
 2600 012c 2334A0E1 		lsr	r3, r3, #8
 2601 0130 0A30C5E5 		strb	r3, [r5, #10]
 2602 0134 103094E5 		ldr	r3, [r4, #16]
 2603 0138 0B30C5E5 		strb	r3, [r5, #11]
 397:D:/Work/DeviceTester/amazon-freertos/lib/third_party/mbedtls/library\sha1.c ****     PUT_UINT32_BE( ctx->state[3], output, 12 );
 2604              		.loc 1 397 0
 2605 013c 1730D4E5 		ldrb	r3, [r4, #23]	@ zero_extendqisi2
 2606 0140 0C30C5E5 		strb	r3, [r5, #12]
 2607 0144 B631D4E1 		ldrh	r3, [r4, #22]
 2608 0148 0D30C5E5 		strb	r3, [r5, #13]
 2609 014c 143094E5 		ldr	r3, [r4, #20]
 2610 0150 2334A0E1 		lsr	r3, r3, #8
 2611 0154 0E30C5E5 		strb	r3, [r5, #14]
 2612 0158 143094E5 		ldr	r3, [r4, #20]
 2613 015c 0F30C5E5 		strb	r3, [r5, #15]
 398:D:/Work/DeviceTester/amazon-freertos/lib/third_party/mbedtls/library\sha1.c ****     PUT_UINT32_BE( ctx->state[4], output, 16 );
 2614              		.loc 1 398 0
 2615 0160 1B30D4E5 		ldrb	r3, [r4, #27]	@ zero_extendqisi2
 2616 0164 1030C5E5 		strb	r3, [r5, #16]
 2617 0168 BA31D4E1 		ldrh	r3, [r4, #26]
 2618 016c 1130C5E5 		strb	r3, [r5, #17]
 2619 0170 183094E5 		ldr	r3, [r4, #24]
 2620 0174 2334A0E1 		lsr	r3, r3, #8
 2621 0178 1230C5E5 		strb	r3, [r5, #18]
 2622 017c 183094E5 		ldr	r3, [r4, #24]
 2623 0180 1330C5E5 		strb	r3, [r5, #19]
 2624              	.LBE5:
 2625              	.LBE4:
 399:D:/Work/DeviceTester/amazon-freertos/lib/third_party/mbedtls/library\sha1.c **** 
 400:D:/Work/DeviceTester/amazon-freertos/lib/third_party/mbedtls/library\sha1.c ****     return( 0 );
 401:D:/Work/DeviceTester/amazon-freertos/lib/third_party/mbedtls/library\sha1.c **** }
 2626              		.loc 1 401 0
 2627 0184 7080BDE8 		pop	{r4, r5, r6, pc}
 2628              		.cfi_endproc
 2629              	.LFE7:
 2631              		.section	.text.mbedtls_sha1_ret,"ax",%progbits
 2632              		.align	2
 2633              		.global	mbedtls_sha1_ret
 2634              		.syntax unified
 2635              		.arm
 2636              		.fpu neon
 2638              	mbedtls_sha1_ret:
 2639              	.LFB8:
 402:D:/Work/DeviceTester/amazon-freertos/lib/third_party/mbedtls/library\sha1.c **** 
 403:D:/Work/DeviceTester/amazon-freertos/lib/third_party/mbedtls/library\sha1.c **** #if !defined(MBEDTLS_DEPRECATED_REMOVED)
 404:D:/Work/DeviceTester/amazon-freertos/lib/third_party/mbedtls/library\sha1.c **** void mbedtls_sha1_finish( mbedtls_sha1_context *ctx,
 405:D:/Work/DeviceTester/amazon-freertos/lib/third_party/mbedtls/library\sha1.c ****                           unsigned char output[20] )
 406:D:/Work/DeviceTester/amazon-freertos/lib/third_party/mbedtls/library\sha1.c **** {
 407:D:/Work/DeviceTester/amazon-freertos/lib/third_party/mbedtls/library\sha1.c ****     mbedtls_sha1_finish_ret( ctx, output );
 408:D:/Work/DeviceTester/amazon-freertos/lib/third_party/mbedtls/library\sha1.c **** }
 409:D:/Work/DeviceTester/amazon-freertos/lib/third_party/mbedtls/library\sha1.c **** #endif
 410:D:/Work/DeviceTester/amazon-freertos/lib/third_party/mbedtls/library\sha1.c **** 
 411:D:/Work/DeviceTester/amazon-freertos/lib/third_party/mbedtls/library\sha1.c **** #endif /* !MBEDTLS_SHA1_ALT */
 412:D:/Work/DeviceTester/amazon-freertos/lib/third_party/mbedtls/library\sha1.c **** 
 413:D:/Work/DeviceTester/amazon-freertos/lib/third_party/mbedtls/library\sha1.c **** /*
 414:D:/Work/DeviceTester/amazon-freertos/lib/third_party/mbedtls/library\sha1.c ****  * output = SHA-1( input buffer )
 415:D:/Work/DeviceTester/amazon-freertos/lib/third_party/mbedtls/library\sha1.c ****  */
 416:D:/Work/DeviceTester/amazon-freertos/lib/third_party/mbedtls/library\sha1.c **** int mbedtls_sha1_ret( const unsigned char *input,
 417:D:/Work/DeviceTester/amazon-freertos/lib/third_party/mbedtls/library\sha1.c ****                       size_t ilen,
 418:D:/Work/DeviceTester/amazon-freertos/lib/third_party/mbedtls/library\sha1.c ****                       unsigned char output[20] )
 419:D:/Work/DeviceTester/amazon-freertos/lib/third_party/mbedtls/library\sha1.c **** {
 2640              		.loc 1 419 0
 2641              		.cfi_startproc
 2642              		@ args = 0, pretend = 0, frame = 96
 2643              		@ frame_needed = 0, uses_anonymous_args = 0
 2644              	.LVL484:
 2645 0000 F0402DE9 		push	{r4, r5, r6, r7, lr}
 2646              		.cfi_def_cfa_offset 20
 2647              		.cfi_offset 4, -20
 2648              		.cfi_offset 5, -16
 2649              		.cfi_offset 6, -12
 2650              		.cfi_offset 7, -8
 2651              		.cfi_offset 14, -4
 2652 0004 64D04DE2 		sub	sp, sp, #100
 2653              		.cfi_def_cfa_offset 120
 2654              		.loc 1 419 0
 2655 0008 0060A0E1 		mov	r6, r0
 420:D:/Work/DeviceTester/amazon-freertos/lib/third_party/mbedtls/library\sha1.c ****     int ret;
 421:D:/Work/DeviceTester/amazon-freertos/lib/third_party/mbedtls/library\sha1.c ****     mbedtls_sha1_context ctx;
 422:D:/Work/DeviceTester/amazon-freertos/lib/third_party/mbedtls/library\sha1.c **** 
 423:D:/Work/DeviceTester/amazon-freertos/lib/third_party/mbedtls/library\sha1.c ****     mbedtls_sha1_init( &ctx );
 2656              		.loc 1 423 0
 2657 000c 04008DE2 		add	r0, sp, #4
 2658              	.LVL485:
 419:D:/Work/DeviceTester/amazon-freertos/lib/third_party/mbedtls/library\sha1.c ****     int ret;
 2659              		.loc 1 419 0
 2660 0010 0170A0E1 		mov	r7, r1
 2661 0014 0250A0E1 		mov	r5, r2
 2662              		.loc 1 423 0
 2663 0018 FEFFFFEB 		bl	mbedtls_sha1_init
 2664              	.LVL486:
 424:D:/Work/DeviceTester/amazon-freertos/lib/third_party/mbedtls/library\sha1.c **** 
 425:D:/Work/DeviceTester/amazon-freertos/lib/third_party/mbedtls/library\sha1.c ****     if( ( ret = mbedtls_sha1_starts_ret( &ctx ) ) != 0 )
 2665              		.loc 1 425 0
 2666 001c 04008DE2 		add	r0, sp, #4
 2667 0020 FEFFFFEB 		bl	mbedtls_sha1_starts_ret
 2668              	.LVL487:
 2669 0024 004050E2 		subs	r4, r0, #0
 2670 0028 0900001A 		bne	.L35
 426:D:/Work/DeviceTester/amazon-freertos/lib/third_party/mbedtls/library\sha1.c ****         goto exit;
 427:D:/Work/DeviceTester/amazon-freertos/lib/third_party/mbedtls/library\sha1.c **** 
 428:D:/Work/DeviceTester/amazon-freertos/lib/third_party/mbedtls/library\sha1.c ****     if( ( ret = mbedtls_sha1_update_ret( &ctx, input, ilen ) ) != 0 )
 2671              		.loc 1 428 0
 2672 002c 0720A0E1 		mov	r2, r7
 2673 0030 0610A0E1 		mov	r1, r6
 2674 0034 04008DE2 		add	r0, sp, #4
 2675              	.LVL488:
 2676 0038 FEFFFFEB 		bl	mbedtls_sha1_update_ret
 2677              	.LVL489:
 2678 003c 004050E2 		subs	r4, r0, #0
 2679 0040 0300001A 		bne	.L35
 429:D:/Work/DeviceTester/amazon-freertos/lib/third_party/mbedtls/library\sha1.c ****         goto exit;
 430:D:/Work/DeviceTester/amazon-freertos/lib/third_party/mbedtls/library\sha1.c **** 
 431:D:/Work/DeviceTester/amazon-freertos/lib/third_party/mbedtls/library\sha1.c ****     if( ( ret = mbedtls_sha1_finish_ret( &ctx, output ) ) != 0 )
 2680              		.loc 1 431 0
 2681 0044 0510A0E1 		mov	r1, r5
 2682 0048 04008DE2 		add	r0, sp, #4
 2683              	.LVL490:
 2684 004c FEFFFFEB 		bl	mbedtls_sha1_finish_ret
 2685              	.LVL491:
 2686 0050 0040A0E1 		mov	r4, r0
 2687              	.LVL492:
 2688              	.L35:
 432:D:/Work/DeviceTester/amazon-freertos/lib/third_party/mbedtls/library\sha1.c ****         goto exit;
 433:D:/Work/DeviceTester/amazon-freertos/lib/third_party/mbedtls/library\sha1.c **** 
 434:D:/Work/DeviceTester/amazon-freertos/lib/third_party/mbedtls/library\sha1.c **** exit:
 435:D:/Work/DeviceTester/amazon-freertos/lib/third_party/mbedtls/library\sha1.c ****     mbedtls_sha1_free( &ctx );
 2689              		.loc 1 435 0
 2690 0054 04008DE2 		add	r0, sp, #4
 2691              	.LVL493:
 2692 0058 FEFFFFEB 		bl	mbedtls_sha1_free
 2693              	.LVL494:
 436:D:/Work/DeviceTester/amazon-freertos/lib/third_party/mbedtls/library\sha1.c **** 
 437:D:/Work/DeviceTester/amazon-freertos/lib/third_party/mbedtls/library\sha1.c ****     return( ret );
 438:D:/Work/DeviceTester/amazon-freertos/lib/third_party/mbedtls/library\sha1.c **** }
 2694              		.loc 1 438 0
 2695 005c 0400A0E1 		mov	r0, r4
 2696 0060 64D08DE2 		add	sp, sp, #100
 2697              		.cfi_def_cfa_offset 20
 2698              		@ sp needed
 2699 0064 F080BDE8 		pop	{r4, r5, r6, r7, pc}
 2700              		.cfi_endproc
 2701              	.LFE8:
 2703              		.section	.text.mbedtls_sha1_self_test,"ax",%progbits
 2704              		.align	2
 2705              		.global	mbedtls_sha1_self_test
 2706              		.syntax unified
 2707              		.arm
 2708              		.fpu neon
 2710              	mbedtls_sha1_self_test:
 2711              	.LFB9:
 439:D:/Work/DeviceTester/amazon-freertos/lib/third_party/mbedtls/library\sha1.c **** 
 440:D:/Work/DeviceTester/amazon-freertos/lib/third_party/mbedtls/library\sha1.c **** #if !defined(MBEDTLS_DEPRECATED_REMOVED)
 441:D:/Work/DeviceTester/amazon-freertos/lib/third_party/mbedtls/library\sha1.c **** void mbedtls_sha1( const unsigned char *input,
 442:D:/Work/DeviceTester/amazon-freertos/lib/third_party/mbedtls/library\sha1.c ****                    size_t ilen,
 443:D:/Work/DeviceTester/amazon-freertos/lib/third_party/mbedtls/library\sha1.c ****                    unsigned char output[20] )
 444:D:/Work/DeviceTester/amazon-freertos/lib/third_party/mbedtls/library\sha1.c **** {
 445:D:/Work/DeviceTester/amazon-freertos/lib/third_party/mbedtls/library\sha1.c ****     mbedtls_sha1_ret( input, ilen, output );
 446:D:/Work/DeviceTester/amazon-freertos/lib/third_party/mbedtls/library\sha1.c **** }
 447:D:/Work/DeviceTester/amazon-freertos/lib/third_party/mbedtls/library\sha1.c **** #endif
 448:D:/Work/DeviceTester/amazon-freertos/lib/third_party/mbedtls/library\sha1.c **** 
 449:D:/Work/DeviceTester/amazon-freertos/lib/third_party/mbedtls/library\sha1.c **** #if defined(MBEDTLS_SELF_TEST)
 450:D:/Work/DeviceTester/amazon-freertos/lib/third_party/mbedtls/library\sha1.c **** /*
 451:D:/Work/DeviceTester/amazon-freertos/lib/third_party/mbedtls/library\sha1.c ****  * FIPS-180-1 test vectors
 452:D:/Work/DeviceTester/amazon-freertos/lib/third_party/mbedtls/library\sha1.c ****  */
 453:D:/Work/DeviceTester/amazon-freertos/lib/third_party/mbedtls/library\sha1.c **** static const unsigned char sha1_test_buf[3][57] =
 454:D:/Work/DeviceTester/amazon-freertos/lib/third_party/mbedtls/library\sha1.c **** {
 455:D:/Work/DeviceTester/amazon-freertos/lib/third_party/mbedtls/library\sha1.c ****     { "abc" },
 456:D:/Work/DeviceTester/amazon-freertos/lib/third_party/mbedtls/library\sha1.c ****     { "abcdbcdecdefdefgefghfghighijhijkijkljklmklmnlmnomnopnopq" },
 457:D:/Work/DeviceTester/amazon-freertos/lib/third_party/mbedtls/library\sha1.c ****     { "" }
 458:D:/Work/DeviceTester/amazon-freertos/lib/third_party/mbedtls/library\sha1.c **** };
 459:D:/Work/DeviceTester/amazon-freertos/lib/third_party/mbedtls/library\sha1.c **** 
 460:D:/Work/DeviceTester/amazon-freertos/lib/third_party/mbedtls/library\sha1.c **** static const size_t sha1_test_buflen[3] =
 461:D:/Work/DeviceTester/amazon-freertos/lib/third_party/mbedtls/library\sha1.c **** {
 462:D:/Work/DeviceTester/amazon-freertos/lib/third_party/mbedtls/library\sha1.c ****     3, 56, 1000
 463:D:/Work/DeviceTester/amazon-freertos/lib/third_party/mbedtls/library\sha1.c **** };
 464:D:/Work/DeviceTester/amazon-freertos/lib/third_party/mbedtls/library\sha1.c **** 
 465:D:/Work/DeviceTester/amazon-freertos/lib/third_party/mbedtls/library\sha1.c **** static const unsigned char sha1_test_sum[3][20] =
 466:D:/Work/DeviceTester/amazon-freertos/lib/third_party/mbedtls/library\sha1.c **** {
 467:D:/Work/DeviceTester/amazon-freertos/lib/third_party/mbedtls/library\sha1.c ****     { 0xA9, 0x99, 0x3E, 0x36, 0x47, 0x06, 0x81, 0x6A, 0xBA, 0x3E,
 468:D:/Work/DeviceTester/amazon-freertos/lib/third_party/mbedtls/library\sha1.c ****       0x25, 0x71, 0x78, 0x50, 0xC2, 0x6C, 0x9C, 0xD0, 0xD8, 0x9D },
 469:D:/Work/DeviceTester/amazon-freertos/lib/third_party/mbedtls/library\sha1.c ****     { 0x84, 0x98, 0x3E, 0x44, 0x1C, 0x3B, 0xD2, 0x6E, 0xBA, 0xAE,
 470:D:/Work/DeviceTester/amazon-freertos/lib/third_party/mbedtls/library\sha1.c ****       0x4A, 0xA1, 0xF9, 0x51, 0x29, 0xE5, 0xE5, 0x46, 0x70, 0xF1 },
 471:D:/Work/DeviceTester/amazon-freertos/lib/third_party/mbedtls/library\sha1.c ****     { 0x34, 0xAA, 0x97, 0x3C, 0xD4, 0xC4, 0xDA, 0xA4, 0xF6, 0x1E,
 472:D:/Work/DeviceTester/amazon-freertos/lib/third_party/mbedtls/library\sha1.c ****       0xEB, 0x2B, 0xDB, 0xAD, 0x27, 0x31, 0x65, 0x34, 0x01, 0x6F }
 473:D:/Work/DeviceTester/amazon-freertos/lib/third_party/mbedtls/library\sha1.c **** };
 474:D:/Work/DeviceTester/amazon-freertos/lib/third_party/mbedtls/library\sha1.c **** 
 475:D:/Work/DeviceTester/amazon-freertos/lib/third_party/mbedtls/library\sha1.c **** /*
 476:D:/Work/DeviceTester/amazon-freertos/lib/third_party/mbedtls/library\sha1.c ****  * Checkup routine
 477:D:/Work/DeviceTester/amazon-freertos/lib/third_party/mbedtls/library\sha1.c ****  */
 478:D:/Work/DeviceTester/amazon-freertos/lib/third_party/mbedtls/library\sha1.c **** int mbedtls_sha1_self_test( int verbose )
 479:D:/Work/DeviceTester/amazon-freertos/lib/third_party/mbedtls/library\sha1.c **** {
 2712              		.loc 1 479 0
 2713              		.cfi_startproc
 2714              		@ args = 0, pretend = 0, frame = 1136
 2715              		@ frame_needed = 0, uses_anonymous_args = 0
 2716              	.LVL495:
 2717 0000 F0472DE9 		push	{r4, r5, r6, r7, r8, r9, r10, lr}
 2718              		.cfi_def_cfa_offset 32
 2719              		.cfi_offset 4, -32
 2720              		.cfi_offset 5, -28
 2721              		.cfi_offset 6, -24
 2722              		.cfi_offset 7, -20
 2723              		.cfi_offset 8, -16
 2724              		.cfi_offset 9, -12
 2725              		.cfi_offset 10, -8
 2726              		.cfi_offset 14, -4
 480:D:/Work/DeviceTester/amazon-freertos/lib/third_party/mbedtls/library\sha1.c ****     int i, j, buflen, ret = 0;
 481:D:/Work/DeviceTester/amazon-freertos/lib/third_party/mbedtls/library\sha1.c ****     unsigned char buf[1024];
 482:D:/Work/DeviceTester/amazon-freertos/lib/third_party/mbedtls/library\sha1.c ****     unsigned char sha1sum[20];
 483:D:/Work/DeviceTester/amazon-freertos/lib/third_party/mbedtls/library\sha1.c ****     mbedtls_sha1_context ctx;
 484:D:/Work/DeviceTester/amazon-freertos/lib/third_party/mbedtls/library\sha1.c **** 
 485:D:/Work/DeviceTester/amazon-freertos/lib/third_party/mbedtls/library\sha1.c ****     mbedtls_sha1_init( &ctx );
 486:D:/Work/DeviceTester/amazon-freertos/lib/third_party/mbedtls/library\sha1.c **** 
 487:D:/Work/DeviceTester/amazon-freertos/lib/third_party/mbedtls/library\sha1.c ****     /*
 488:D:/Work/DeviceTester/amazon-freertos/lib/third_party/mbedtls/library\sha1.c ****      * SHA-1
 489:D:/Work/DeviceTester/amazon-freertos/lib/third_party/mbedtls/library\sha1.c ****      */
 490:D:/Work/DeviceTester/amazon-freertos/lib/third_party/mbedtls/library\sha1.c ****     for( i = 0; i < 3; i++ )
 2727              		.loc 1 490 0
 2728 0004 0040A0E3 		mov	r4, #0
 491:D:/Work/DeviceTester/amazon-freertos/lib/third_party/mbedtls/library\sha1.c ****     {
 492:D:/Work/DeviceTester/amazon-freertos/lib/third_party/mbedtls/library\sha1.c ****         if( verbose != 0 )
 493:D:/Work/DeviceTester/amazon-freertos/lib/third_party/mbedtls/library\sha1.c ****             mbedtls_printf( "  SHA-1 test #%d: ", i + 1 );
 2729              		.loc 1 493 0
 2730 0008 24819FE5 		ldr	r8, .L62
 479:D:/Work/DeviceTester/amazon-freertos/lib/third_party/mbedtls/library\sha1.c ****     int i, j, buflen, ret = 0;
 2731              		.loc 1 479 0
 2732 000c 47DE4DE2 		sub	sp, sp, #1136
 2733              		.cfi_def_cfa_offset 1168
 479:D:/Work/DeviceTester/amazon-freertos/lib/third_party/mbedtls/library\sha1.c ****     int i, j, buflen, ret = 0;
 2734              		.loc 1 479 0
 2735 0010 0060A0E1 		mov	r6, r0
 485:D:/Work/DeviceTester/amazon-freertos/lib/third_party/mbedtls/library\sha1.c **** 
 2736              		.loc 1 485 0
 2737 0014 14008DE2 		add	r0, sp, #20
 2738              	.LVL496:
 494:D:/Work/DeviceTester/amazon-freertos/lib/third_party/mbedtls/library\sha1.c **** 
 495:D:/Work/DeviceTester/amazon-freertos/lib/third_party/mbedtls/library\sha1.c ****         if( ( ret = mbedtls_sha1_starts_ret( &ctx ) ) != 0 )
 496:D:/Work/DeviceTester/amazon-freertos/lib/third_party/mbedtls/library\sha1.c ****             goto fail;
 497:D:/Work/DeviceTester/amazon-freertos/lib/third_party/mbedtls/library\sha1.c **** 
 498:D:/Work/DeviceTester/amazon-freertos/lib/third_party/mbedtls/library\sha1.c ****         if( i == 2 )
 499:D:/Work/DeviceTester/amazon-freertos/lib/third_party/mbedtls/library\sha1.c ****         {
 500:D:/Work/DeviceTester/amazon-freertos/lib/third_party/mbedtls/library\sha1.c ****             memset( buf, 'a', buflen = 1000 );
 501:D:/Work/DeviceTester/amazon-freertos/lib/third_party/mbedtls/library\sha1.c **** 
 502:D:/Work/DeviceTester/amazon-freertos/lib/third_party/mbedtls/library\sha1.c ****             for( j = 0; j < 1000; j++ )
 503:D:/Work/DeviceTester/amazon-freertos/lib/third_party/mbedtls/library\sha1.c ****             {
 504:D:/Work/DeviceTester/amazon-freertos/lib/third_party/mbedtls/library\sha1.c ****                 ret = mbedtls_sha1_update_ret( &ctx, buf, buflen );
 505:D:/Work/DeviceTester/amazon-freertos/lib/third_party/mbedtls/library\sha1.c ****                 if( ret != 0 )
 506:D:/Work/DeviceTester/amazon-freertos/lib/third_party/mbedtls/library\sha1.c ****                     goto fail;
 507:D:/Work/DeviceTester/amazon-freertos/lib/third_party/mbedtls/library\sha1.c ****             }
 508:D:/Work/DeviceTester/amazon-freertos/lib/third_party/mbedtls/library\sha1.c ****         }
 509:D:/Work/DeviceTester/amazon-freertos/lib/third_party/mbedtls/library\sha1.c ****         else
 510:D:/Work/DeviceTester/amazon-freertos/lib/third_party/mbedtls/library\sha1.c ****         {
 511:D:/Work/DeviceTester/amazon-freertos/lib/third_party/mbedtls/library\sha1.c ****             ret = mbedtls_sha1_update_ret( &ctx, sha1_test_buf[i],
 2739              		.loc 1 511 0
 2740 0018 18919FE5 		ldr	r9, .L62+4
 2741 001c 18A19FE5 		ldr	r10, .L62+8
 485:D:/Work/DeviceTester/amazon-freertos/lib/third_party/mbedtls/library\sha1.c **** 
 2742              		.loc 1 485 0
 2743 0020 FEFFFFEB 		bl	mbedtls_sha1_init
 2744              	.LVL497:
 2745              	.L45:
 492:D:/Work/DeviceTester/amazon-freertos/lib/third_party/mbedtls/library\sha1.c ****             mbedtls_printf( "  SHA-1 test #%d: ", i + 1 );
 2746              		.loc 1 492 0
 2747 0024 000056E3 		cmp	r6, #0
 2748 0028 0200000A 		beq	.L38
 493:D:/Work/DeviceTester/amazon-freertos/lib/third_party/mbedtls/library\sha1.c **** 
 2749              		.loc 1 493 0
 2750 002c 011084E2 		add	r1, r4, #1
 2751 0030 0800A0E1 		mov	r0, r8
 2752 0034 FEFFFFEB 		bl	printf
 2753              	.LVL498:
 2754              	.L38:
 495:D:/Work/DeviceTester/amazon-freertos/lib/third_party/mbedtls/library\sha1.c ****             goto fail;
 2755              		.loc 1 495 0
 2756 0038 14008DE2 		add	r0, sp, #20
 2757 003c FEFFFFEB 		bl	mbedtls_sha1_starts_ret
 2758              	.LVL499:
 2759 0040 005050E2 		subs	r5, r0, #0
 2760 0044 1300001A 		bne	.L39
 498:D:/Work/DeviceTester/amazon-freertos/lib/third_party/mbedtls/library\sha1.c ****         {
 2761              		.loc 1 498 0
 2762 0048 020054E3 		cmp	r4, #2
 2763 004c 1600001A 		bne	.L40
 2764              	.LVL500:
 500:D:/Work/DeviceTester/amazon-freertos/lib/third_party/mbedtls/library\sha1.c **** 
 2765              		.loc 1 500 0
 2766 0050 FA7FA0E3 		mov	r7, #1000
 2767 0054 FA2FA0E3 		mov	r2, #1000
 2768 0058 6110A0E3 		mov	r1, #97
 2769 005c 70008DE2 		add	r0, sp, #112
 2770              	.LVL501:
 2771 0060 FEFFFFEB 		bl	memset
 2772              	.LVL502:
 2773              	.L41:
 2774              	.LBB8:
 2775              	.LBB9:
 2776 0064 FA2FA0E3 		mov	r2, #1000
 2777 0068 70108DE2 		add	r1, sp, #112
 2778              	.LVL503:
 2779 006c 14008DE2 		add	r0, sp, #20
 2780              	.LVL504:
 2781 0070 FEFFFFEB 		bl	mbedtls_sha1_update_ret.part.0
 2782              	.LVL505:
 2783              	.LBE9:
 2784              	.LBE8:
 505:D:/Work/DeviceTester/amazon-freertos/lib/third_party/mbedtls/library\sha1.c ****                     goto fail;
 2785              		.loc 1 505 0
 2786 0074 005050E2 		subs	r5, r0, #0
 2787 0078 0600001A 		bne	.L39
 2788              	.LVL506:
 502:D:/Work/DeviceTester/amazon-freertos/lib/third_party/mbedtls/library\sha1.c ****             {
 2789              		.loc 1 502 0 discriminator 2
 2790 007c 017057E2 		subs	r7, r7, #1
 2791              	.LVL507:
 2792 0080 F7FFFF1A 		bne	.L41
 2793              	.LVL508:
 2794              	.L43:
 512:D:/Work/DeviceTester/amazon-freertos/lib/third_party/mbedtls/library\sha1.c ****                                            sha1_test_buflen[i] );
 513:D:/Work/DeviceTester/amazon-freertos/lib/third_party/mbedtls/library\sha1.c ****             if( ret != 0 )
 514:D:/Work/DeviceTester/amazon-freertos/lib/third_party/mbedtls/library\sha1.c ****                 goto fail;
 515:D:/Work/DeviceTester/amazon-freertos/lib/third_party/mbedtls/library\sha1.c ****         }
 516:D:/Work/DeviceTester/amazon-freertos/lib/third_party/mbedtls/library\sha1.c **** 
 517:D:/Work/DeviceTester/amazon-freertos/lib/third_party/mbedtls/library\sha1.c ****         if( ( ret = mbedtls_sha1_finish_ret( &ctx, sha1sum ) ) != 0 )
 2795              		.loc 1 517 0
 2796 0084 0D10A0E1 		mov	r1, sp
 2797 0088 14008DE2 		add	r0, sp, #20
 2798 008c FEFFFFEB 		bl	mbedtls_sha1_finish_ret
 2799              	.LVL509:
 2800 0090 005050E2 		subs	r5, r0, #0
 2801 0094 0C00000A 		beq	.L60
 2802              	.LVL510:
 2803              	.L39:
 518:D:/Work/DeviceTester/amazon-freertos/lib/third_party/mbedtls/library\sha1.c ****             goto fail;
 519:D:/Work/DeviceTester/amazon-freertos/lib/third_party/mbedtls/library\sha1.c **** 
 520:D:/Work/DeviceTester/amazon-freertos/lib/third_party/mbedtls/library\sha1.c ****         if( memcmp( sha1sum, sha1_test_sum[i], 20 ) != 0 )
 521:D:/Work/DeviceTester/amazon-freertos/lib/third_party/mbedtls/library\sha1.c ****         {
 522:D:/Work/DeviceTester/amazon-freertos/lib/third_party/mbedtls/library\sha1.c ****             ret = 1;
 523:D:/Work/DeviceTester/amazon-freertos/lib/third_party/mbedtls/library\sha1.c ****             goto fail;
 524:D:/Work/DeviceTester/amazon-freertos/lib/third_party/mbedtls/library\sha1.c ****         }
 525:D:/Work/DeviceTester/amazon-freertos/lib/third_party/mbedtls/library\sha1.c **** 
 526:D:/Work/DeviceTester/amazon-freertos/lib/third_party/mbedtls/library\sha1.c ****         if( verbose != 0 )
 527:D:/Work/DeviceTester/amazon-freertos/lib/third_party/mbedtls/library\sha1.c ****             mbedtls_printf( "passed\n" );
 528:D:/Work/DeviceTester/amazon-freertos/lib/third_party/mbedtls/library\sha1.c ****     }
 529:D:/Work/DeviceTester/amazon-freertos/lib/third_party/mbedtls/library\sha1.c **** 
 530:D:/Work/DeviceTester/amazon-freertos/lib/third_party/mbedtls/library\sha1.c ****     if( verbose != 0 )
 531:D:/Work/DeviceTester/amazon-freertos/lib/third_party/mbedtls/library\sha1.c ****         mbedtls_printf( "\n" );
 532:D:/Work/DeviceTester/amazon-freertos/lib/third_party/mbedtls/library\sha1.c **** 
 533:D:/Work/DeviceTester/amazon-freertos/lib/third_party/mbedtls/library\sha1.c ****     goto exit;
 534:D:/Work/DeviceTester/amazon-freertos/lib/third_party/mbedtls/library\sha1.c **** 
 535:D:/Work/DeviceTester/amazon-freertos/lib/third_party/mbedtls/library\sha1.c **** fail:
 536:D:/Work/DeviceTester/amazon-freertos/lib/third_party/mbedtls/library\sha1.c ****     if( verbose != 0 )
 2804              		.loc 1 536 0
 2805 0098 000056E3 		cmp	r6, #0
 2806 009c 1D00000A 		beq	.L46
 537:D:/Work/DeviceTester/amazon-freertos/lib/third_party/mbedtls/library\sha1.c ****         mbedtls_printf( "failed\n" );
 2807              		.loc 1 537 0
 2808 00a0 98009FE5 		ldr	r0, .L62+12
 2809 00a4 FEFFFFEB 		bl	puts
 2810              	.LVL511:
 2811 00a8 1A0000EA 		b	.L46
 2812              	.LVL512:
 2813              	.L40:
 511:D:/Work/DeviceTester/amazon-freertos/lib/third_party/mbedtls/library\sha1.c ****                                            sha1_test_buflen[i] );
 2814              		.loc 1 511 0
 2815 00ac 3910A0E3 		mov	r1, #57
 2816 00b0 042199E7 		ldr	r2, [r9, r4, lsl #2]
 2817 00b4 91A421E0 		mla	r1, r1, r4, r10
 2818 00b8 14008DE2 		add	r0, sp, #20
 2819              	.LVL513:
 2820 00bc FEFFFFEB 		bl	mbedtls_sha1_update_ret
 2821              	.LVL514:
 513:D:/Work/DeviceTester/amazon-freertos/lib/third_party/mbedtls/library\sha1.c ****                 goto fail;
 2822              		.loc 1 513 0
 2823 00c0 005050E2 		subs	r5, r0, #0
 2824 00c4 EEFFFF0A 		beq	.L43
 2825 00c8 F2FFFFEA 		b	.L39
 2826              	.L60:
 520:D:/Work/DeviceTester/amazon-freertos/lib/third_party/mbedtls/library\sha1.c ****         {
 2827              		.loc 1 520 0
 2828 00cc 70109FE5 		ldr	r1, .L62+16
 2829 00d0 1420A0E3 		mov	r2, #20
 2830 00d4 0D00A0E1 		mov	r0, sp
 2831              	.LVL515:
 2832 00d8 921421E0 		mla	r1, r2, r4, r1
 2833 00dc FEFFFFEB 		bl	memcmp
 2834              	.LVL516:
 2835 00e0 005050E2 		subs	r5, r0, #0
 2836              	.LVL517:
 2837 00e4 1000001A 		bne	.L47
 526:D:/Work/DeviceTester/amazon-freertos/lib/third_party/mbedtls/library\sha1.c ****             mbedtls_printf( "passed\n" );
 2838              		.loc 1 526 0
 2839 00e8 000056E3 		cmp	r6, #0
 2840 00ec 0100000A 		beq	.L44
 527:D:/Work/DeviceTester/amazon-freertos/lib/third_party/mbedtls/library\sha1.c ****     }
 2841              		.loc 1 527 0
 2842 00f0 50009FE5 		ldr	r0, .L62+20
 2843 00f4 FEFFFFEB 		bl	puts
 2844              	.LVL518:
 2845              	.L44:
 490:D:/Work/DeviceTester/amazon-freertos/lib/third_party/mbedtls/library\sha1.c ****     {
 2846              		.loc 1 490 0 discriminator 2
 2847 00f8 014084E2 		add	r4, r4, #1
 2848              	.LVL519:
 2849 00fc 030054E3 		cmp	r4, #3
 2850 0100 C7FFFF1A 		bne	.L45
 530:D:/Work/DeviceTester/amazon-freertos/lib/third_party/mbedtls/library\sha1.c ****         mbedtls_printf( "\n" );
 2851              		.loc 1 530 0
 2852 0104 000056E3 		cmp	r6, #0
 2853 0108 0650A001 		moveq	r5, r6
 2854 010c 0100000A 		beq	.L46
 531:D:/Work/DeviceTester/amazon-freertos/lib/third_party/mbedtls/library\sha1.c **** 
 2855              		.loc 1 531 0
 2856 0110 0A00A0E3 		mov	r0, #10
 2857 0114 FEFFFFEB 		bl	putchar
 2858              	.LVL520:
 2859              	.L46:
 538:D:/Work/DeviceTester/amazon-freertos/lib/third_party/mbedtls/library\sha1.c **** 
 539:D:/Work/DeviceTester/amazon-freertos/lib/third_party/mbedtls/library\sha1.c **** exit:
 540:D:/Work/DeviceTester/amazon-freertos/lib/third_party/mbedtls/library\sha1.c ****     mbedtls_sha1_free( &ctx );
 2860              		.loc 1 540 0
 2861 0118 14008DE2 		add	r0, sp, #20
 2862 011c FEFFFFEB 		bl	mbedtls_sha1_free
 2863              	.LVL521:
 541:D:/Work/DeviceTester/amazon-freertos/lib/third_party/mbedtls/library\sha1.c **** 
 542:D:/Work/DeviceTester/amazon-freertos/lib/third_party/mbedtls/library\sha1.c ****     return( ret );
 543:D:/Work/DeviceTester/amazon-freertos/lib/third_party/mbedtls/library\sha1.c **** }
 2864              		.loc 1 543 0
 2865 0120 0500A0E1 		mov	r0, r5
 2866 0124 47DE8DE2 		add	sp, sp, #1136
 2867              		.cfi_remember_state
 2868              		.cfi_def_cfa_offset 32
 2869              		@ sp needed
 2870 0128 F087BDE8 		pop	{r4, r5, r6, r7, r8, r9, r10, pc}
 2871              	.LVL522:
 2872              	.L47:
 2873              		.cfi_restore_state
 522:D:/Work/DeviceTester/amazon-freertos/lib/third_party/mbedtls/library\sha1.c ****             goto fail;
 2874              		.loc 1 522 0
 2875 012c 0150A0E3 		mov	r5, #1
 2876 0130 D8FFFFEA 		b	.L39
 2877              	.L63:
 2878              		.align	2
 2879              	.L62:
 2880 0134 00000000 		.word	.LC0
 2881 0138 00000000 		.word	.LANCHOR0
 2882 013c 00000000 		.word	.LANCHOR1
 2883 0140 1A000000 		.word	.LC2
 2884 0144 00000000 		.word	.LANCHOR2
 2885 0148 13000000 		.word	.LC1
 2886              		.cfi_endproc
 2887              	.LFE9:
 2889              		.section	.rodata.mbedtls_sha1_self_test.str1.1,"aMS",%progbits,1
 2890              	.LC0:
 2891 0000 20205348 		.ascii	"  SHA-1 test #%d: \000"
 2891      412D3120 
 2891      74657374 
 2891      20232564 
 2891      3A2000
 2892              	.LC1:
 2893 0013 70617373 		.ascii	"passed\000"
 2893      656400
 2894              	.LC2:
 2895 001a 6661696C 		.ascii	"failed\000"
 2895      656400
 2896              		.section	.rodata.sha1_test_buf,"a",%progbits
 2897              		.set	.LANCHOR1,. + 0
 2900              	sha1_test_buf:
 2901 0000 61626300 		.ascii	"abc\000"
 2902 0004 00000000 		.space	53
 2902      00000000 
 2902      00000000 
 2902      00000000 
 2902      00000000 
 2903 0039 61626364 		.ascii	"abcdbcdecdefdefgefghfghighijhijkijkljklmklmnlmnomno"
 2903      62636465 
 2903      63646566 
 2903      64656667 
 2903      65666768 
 2904 006c 706E6F70 		.ascii	"pnopq\000"
 2904      7100
 2905 0072 00       		.ascii	"\000"
 2906 0073 00000000 		.space	56
 2906      00000000 
 2906      00000000 
 2906      00000000 
 2906      00000000 
 2907              		.section	.rodata.sha1_test_buflen,"a",%progbits
 2908              		.align	2
 2909              		.set	.LANCHOR0,. + 0
 2912              	sha1_test_buflen:
 2913 0000 03000000 		.word	3
 2914 0004 38000000 		.word	56
 2915 0008 E8030000 		.word	1000
 2916              		.section	.rodata.sha1_test_sum,"a",%progbits
 2917              		.set	.LANCHOR2,. + 0
 2920              	sha1_test_sum:
 2921 0000 A9       		.byte	-87
 2922 0001 99       		.byte	-103
 2923 0002 3E       		.byte	62
 2924 0003 36       		.byte	54
 2925 0004 47       		.byte	71
 2926 0005 06       		.byte	6
 2927 0006 81       		.byte	-127
 2928 0007 6A       		.byte	106
 2929 0008 BA       		.byte	-70
 2930 0009 3E       		.byte	62
 2931 000a 25       		.byte	37
 2932 000b 71       		.byte	113
 2933 000c 78       		.byte	120
 2934 000d 50       		.byte	80
 2935 000e C2       		.byte	-62
 2936 000f 6C       		.byte	108
 2937 0010 9C       		.byte	-100
 2938 0011 D0       		.byte	-48
 2939 0012 D8       		.byte	-40
 2940 0013 9D       		.byte	-99
 2941 0014 84       		.byte	-124
 2942 0015 98       		.byte	-104
 2943 0016 3E       		.byte	62
 2944 0017 44       		.byte	68
 2945 0018 1C       		.byte	28
 2946 0019 3B       		.byte	59
 2947 001a D2       		.byte	-46
 2948 001b 6E       		.byte	110
 2949 001c BA       		.byte	-70
 2950 001d AE       		.byte	-82
 2951 001e 4A       		.byte	74
 2952 001f A1       		.byte	-95
 2953 0020 F9       		.byte	-7
 2954 0021 51       		.byte	81
 2955 0022 29       		.byte	41
 2956 0023 E5       		.byte	-27
 2957 0024 E5       		.byte	-27
 2958 0025 46       		.byte	70
 2959 0026 70       		.byte	112
 2960 0027 F1       		.byte	-15
 2961 0028 34       		.byte	52
 2962 0029 AA       		.byte	-86
 2963 002a 97       		.byte	-105
 2964 002b 3C       		.byte	60
 2965 002c D4       		.byte	-44
 2966 002d C4       		.byte	-60
 2967 002e DA       		.byte	-38
 2968 002f A4       		.byte	-92
 2969 0030 F6       		.byte	-10
 2970 0031 1E       		.byte	30
 2971 0032 EB       		.byte	-21
 2972 0033 2B       		.byte	43
 2973 0034 DB       		.byte	-37
 2974 0035 AD       		.byte	-83
 2975 0036 27       		.byte	39
 2976 0037 31       		.byte	49
 2977 0038 65       		.byte	101
 2978 0039 34       		.byte	52
 2979 003a 01       		.byte	1
 2980 003b 6F       		.byte	111
 2981              		.text
 2982              	.Letext0:
 2983              		.file 2 "c:\\program files (x86)\\gnu tools arm embedded\\6 2017-q2-update\\arm-none-eabi\\include
 2984              		.file 3 "c:\\program files (x86)\\gnu tools arm embedded\\6 2017-q2-update\\lib\\gcc\\arm-none-eab
 2985              		.file 4 "c:\\program files (x86)\\gnu tools arm embedded\\6 2017-q2-update\\arm-none-eabi\\include
 2986              		.file 5 "D:\\Work\\DeviceTester\\amazon-freertos\\lib\\third_party\\mbedtls\\include/mbedtls/sha1.
 2987              		.file 6 "c:\\program files (x86)\\gnu tools arm embedded\\6 2017-q2-update\\arm-none-eabi\\include
 2988              		.file 7 "c:\\program files (x86)\\gnu tools arm embedded\\6 2017-q2-update\\arm-none-eabi\\include
 2989              		.file 8 "c:\\program files (x86)\\gnu tools arm embedded\\6 2017-q2-update\\arm-none-eabi\\include
 2990              		.file 9 "c:\\program files (x86)\\gnu tools arm embedded\\6 2017-q2-update\\arm-none-eabi\\include
 2991              		.file 10 "c:\\program files (x86)\\gnu tools arm embedded\\6 2017-q2-update\\arm-none-eabi\\includ
 2992              		.file 11 "c:\\program files (x86)\\gnu tools arm embedded\\6 2017-q2-update\\arm-none-eabi\\includ
 2993              		.file 12 "c:\\program files (x86)\\gnu tools arm embedded\\6 2017-q2-update\\arm-none-eabi\\includ
 2994              		.file 13 "<built-in>"
 2995              		.file 14 "D:\\Work\\DeviceTester\\amazon-freertos\\lib\\third_party\\mbedtls\\include/mbedtls/plat