   1              		.cpu cortex-a9
   2              		.eabi_attribute 28, 1
   3              		.eabi_attribute 20, 1
   4              		.eabi_attribute 21, 1
   5              		.eabi_attribute 23, 3
   6              		.eabi_attribute 24, 1
   7              		.eabi_attribute 25, 1
   8              		.eabi_attribute 26, 1
   9              		.eabi_attribute 30, 4
  10              		.eabi_attribute 34, 0
  11              		.eabi_attribute 18, 4
  12              		.file	"x509.c"
  13              		.text
  14              	.Ltext0:
  15              		.cfi_sections	.debug_frame
  16              		.section	.text.x509_parse_int,"ax",%progbits
  17              		.align	2
  18              		.syntax unified
  19              		.arm
  20              		.fpu neon
  22              	x509_parse_int:
  23              	.LFB16:
  24              		.file 1 "D:/Work/DeviceTester/amazon-freertos/lib/third_party/mbedtls/library/x509.c"
   1:D:/Work/DeviceTester/amazon-freertos/lib/third_party/mbedtls/library\x509.c **** /*
   2:D:/Work/DeviceTester/amazon-freertos/lib/third_party/mbedtls/library\x509.c ****  *  X.509 common functions for parsing and verification
   3:D:/Work/DeviceTester/amazon-freertos/lib/third_party/mbedtls/library\x509.c ****  *
   4:D:/Work/DeviceTester/amazon-freertos/lib/third_party/mbedtls/library\x509.c ****  *  Copyright (C) 2006-2015, ARM Limited, All Rights Reserved
   5:D:/Work/DeviceTester/amazon-freertos/lib/third_party/mbedtls/library\x509.c ****  *  SPDX-License-Identifier: Apache-2.0
   6:D:/Work/DeviceTester/amazon-freertos/lib/third_party/mbedtls/library\x509.c ****  *
   7:D:/Work/DeviceTester/amazon-freertos/lib/third_party/mbedtls/library\x509.c ****  *  Licensed under the Apache License, Version 2.0 (the "License"); you may
   8:D:/Work/DeviceTester/amazon-freertos/lib/third_party/mbedtls/library\x509.c ****  *  not use this file except in compliance with the License.
   9:D:/Work/DeviceTester/amazon-freertos/lib/third_party/mbedtls/library\x509.c ****  *  You may obtain a copy of the License at
  10:D:/Work/DeviceTester/amazon-freertos/lib/third_party/mbedtls/library\x509.c ****  *
  11:D:/Work/DeviceTester/amazon-freertos/lib/third_party/mbedtls/library\x509.c ****  *  http://www.apache.org/licenses/LICENSE-2.0
  12:D:/Work/DeviceTester/amazon-freertos/lib/third_party/mbedtls/library\x509.c ****  *
  13:D:/Work/DeviceTester/amazon-freertos/lib/third_party/mbedtls/library\x509.c ****  *  Unless required by applicable law or agreed to in writing, software
  14:D:/Work/DeviceTester/amazon-freertos/lib/third_party/mbedtls/library\x509.c ****  *  distributed under the License is distributed on an "AS IS" BASIS, WITHOUT
  15:D:/Work/DeviceTester/amazon-freertos/lib/third_party/mbedtls/library\x509.c ****  *  WARRANTIES OR CONDITIONS OF ANY KIND, either express or implied.
  16:D:/Work/DeviceTester/amazon-freertos/lib/third_party/mbedtls/library\x509.c ****  *  See the License for the specific language governing permissions and
  17:D:/Work/DeviceTester/amazon-freertos/lib/third_party/mbedtls/library\x509.c ****  *  limitations under the License.
  18:D:/Work/DeviceTester/amazon-freertos/lib/third_party/mbedtls/library\x509.c ****  *
  19:D:/Work/DeviceTester/amazon-freertos/lib/third_party/mbedtls/library\x509.c ****  *  This file is part of mbed TLS (https://tls.mbed.org)
  20:D:/Work/DeviceTester/amazon-freertos/lib/third_party/mbedtls/library\x509.c ****  */
  21:D:/Work/DeviceTester/amazon-freertos/lib/third_party/mbedtls/library\x509.c **** /*
  22:D:/Work/DeviceTester/amazon-freertos/lib/third_party/mbedtls/library\x509.c ****  *  The ITU-T X.509 standard defines a certificate format for PKI.
  23:D:/Work/DeviceTester/amazon-freertos/lib/third_party/mbedtls/library\x509.c ****  *
  24:D:/Work/DeviceTester/amazon-freertos/lib/third_party/mbedtls/library\x509.c ****  *  http://www.ietf.org/rfc/rfc5280.txt (Certificates and CRLs)
  25:D:/Work/DeviceTester/amazon-freertos/lib/third_party/mbedtls/library\x509.c ****  *  http://www.ietf.org/rfc/rfc3279.txt (Alg IDs for CRLs)
  26:D:/Work/DeviceTester/amazon-freertos/lib/third_party/mbedtls/library\x509.c ****  *  http://www.ietf.org/rfc/rfc2986.txt (CSRs, aka PKCS#10)
  27:D:/Work/DeviceTester/amazon-freertos/lib/third_party/mbedtls/library\x509.c ****  *
  28:D:/Work/DeviceTester/amazon-freertos/lib/third_party/mbedtls/library\x509.c ****  *  http://www.itu.int/ITU-T/studygroups/com17/languages/X.680-0207.pdf
  29:D:/Work/DeviceTester/amazon-freertos/lib/third_party/mbedtls/library\x509.c ****  *  http://www.itu.int/ITU-T/studygroups/com17/languages/X.690-0207.pdf
  30:D:/Work/DeviceTester/amazon-freertos/lib/third_party/mbedtls/library\x509.c ****  */
  31:D:/Work/DeviceTester/amazon-freertos/lib/third_party/mbedtls/library\x509.c **** 
  32:D:/Work/DeviceTester/amazon-freertos/lib/third_party/mbedtls/library\x509.c **** #if !defined(MBEDTLS_CONFIG_FILE)
  33:D:/Work/DeviceTester/amazon-freertos/lib/third_party/mbedtls/library\x509.c **** #include "mbedtls/config.h"
  34:D:/Work/DeviceTester/amazon-freertos/lib/third_party/mbedtls/library\x509.c **** #else
  35:D:/Work/DeviceTester/amazon-freertos/lib/third_party/mbedtls/library\x509.c **** #include MBEDTLS_CONFIG_FILE
  36:D:/Work/DeviceTester/amazon-freertos/lib/third_party/mbedtls/library\x509.c **** #endif
  37:D:/Work/DeviceTester/amazon-freertos/lib/third_party/mbedtls/library\x509.c **** 
  38:D:/Work/DeviceTester/amazon-freertos/lib/third_party/mbedtls/library\x509.c **** #if defined(MBEDTLS_X509_USE_C)
  39:D:/Work/DeviceTester/amazon-freertos/lib/third_party/mbedtls/library\x509.c **** 
  40:D:/Work/DeviceTester/amazon-freertos/lib/third_party/mbedtls/library\x509.c **** #include "mbedtls/x509.h"
  41:D:/Work/DeviceTester/amazon-freertos/lib/third_party/mbedtls/library\x509.c **** #include "mbedtls/asn1.h"
  42:D:/Work/DeviceTester/amazon-freertos/lib/third_party/mbedtls/library\x509.c **** #include "mbedtls/oid.h"
  43:D:/Work/DeviceTester/amazon-freertos/lib/third_party/mbedtls/library\x509.c **** 
  44:D:/Work/DeviceTester/amazon-freertos/lib/third_party/mbedtls/library\x509.c **** #include <stdio.h>
  45:D:/Work/DeviceTester/amazon-freertos/lib/third_party/mbedtls/library\x509.c **** #include <string.h>
  46:D:/Work/DeviceTester/amazon-freertos/lib/third_party/mbedtls/library\x509.c **** 
  47:D:/Work/DeviceTester/amazon-freertos/lib/third_party/mbedtls/library\x509.c **** #if defined(MBEDTLS_PEM_PARSE_C)
  48:D:/Work/DeviceTester/amazon-freertos/lib/third_party/mbedtls/library\x509.c **** #include "mbedtls/pem.h"
  49:D:/Work/DeviceTester/amazon-freertos/lib/third_party/mbedtls/library\x509.c **** #endif
  50:D:/Work/DeviceTester/amazon-freertos/lib/third_party/mbedtls/library\x509.c **** 
  51:D:/Work/DeviceTester/amazon-freertos/lib/third_party/mbedtls/library\x509.c **** #if defined(MBEDTLS_PLATFORM_C)
  52:D:/Work/DeviceTester/amazon-freertos/lib/third_party/mbedtls/library\x509.c **** #include "mbedtls/platform.h"
  53:D:/Work/DeviceTester/amazon-freertos/lib/third_party/mbedtls/library\x509.c **** #else
  54:D:/Work/DeviceTester/amazon-freertos/lib/third_party/mbedtls/library\x509.c **** #include <stdio.h>
  55:D:/Work/DeviceTester/amazon-freertos/lib/third_party/mbedtls/library\x509.c **** #include <stdlib.h>
  56:D:/Work/DeviceTester/amazon-freertos/lib/third_party/mbedtls/library\x509.c **** #define mbedtls_free      free
  57:D:/Work/DeviceTester/amazon-freertos/lib/third_party/mbedtls/library\x509.c **** #define mbedtls_calloc    calloc
  58:D:/Work/DeviceTester/amazon-freertos/lib/third_party/mbedtls/library\x509.c **** #define mbedtls_printf    printf
  59:D:/Work/DeviceTester/amazon-freertos/lib/third_party/mbedtls/library\x509.c **** #define mbedtls_snprintf  snprintf
  60:D:/Work/DeviceTester/amazon-freertos/lib/third_party/mbedtls/library\x509.c **** #endif
  61:D:/Work/DeviceTester/amazon-freertos/lib/third_party/mbedtls/library\x509.c **** 
  62:D:/Work/DeviceTester/amazon-freertos/lib/third_party/mbedtls/library\x509.c **** #if defined(MBEDTLS_HAVE_TIME)
  63:D:/Work/DeviceTester/amazon-freertos/lib/third_party/mbedtls/library\x509.c **** #include "mbedtls/platform_time.h"
  64:D:/Work/DeviceTester/amazon-freertos/lib/third_party/mbedtls/library\x509.c **** #endif
  65:D:/Work/DeviceTester/amazon-freertos/lib/third_party/mbedtls/library\x509.c **** #if defined(MBEDTLS_HAVE_TIME_DATE)
  66:D:/Work/DeviceTester/amazon-freertos/lib/third_party/mbedtls/library\x509.c **** #include "mbedtls/platform_util.h"
  67:D:/Work/DeviceTester/amazon-freertos/lib/third_party/mbedtls/library\x509.c **** #include <time.h>
  68:D:/Work/DeviceTester/amazon-freertos/lib/third_party/mbedtls/library\x509.c **** #endif
  69:D:/Work/DeviceTester/amazon-freertos/lib/third_party/mbedtls/library\x509.c **** 
  70:D:/Work/DeviceTester/amazon-freertos/lib/third_party/mbedtls/library\x509.c **** #define CHECK(code) if( ( ret = code ) != 0 ){ return( ret ); }
  71:D:/Work/DeviceTester/amazon-freertos/lib/third_party/mbedtls/library\x509.c **** #define CHECK_RANGE(min, max, val) if( val < min || val > max ){ return( ret ); }
  72:D:/Work/DeviceTester/amazon-freertos/lib/third_party/mbedtls/library\x509.c **** 
  73:D:/Work/DeviceTester/amazon-freertos/lib/third_party/mbedtls/library\x509.c **** /*
  74:D:/Work/DeviceTester/amazon-freertos/lib/third_party/mbedtls/library\x509.c ****  *  CertificateSerialNumber  ::=  INTEGER
  75:D:/Work/DeviceTester/amazon-freertos/lib/third_party/mbedtls/library\x509.c ****  */
  76:D:/Work/DeviceTester/amazon-freertos/lib/third_party/mbedtls/library\x509.c **** int mbedtls_x509_get_serial( unsigned char **p, const unsigned char *end,
  77:D:/Work/DeviceTester/amazon-freertos/lib/third_party/mbedtls/library\x509.c ****                      mbedtls_x509_buf *serial )
  78:D:/Work/DeviceTester/amazon-freertos/lib/third_party/mbedtls/library\x509.c **** {
  79:D:/Work/DeviceTester/amazon-freertos/lib/third_party/mbedtls/library\x509.c ****     int ret;
  80:D:/Work/DeviceTester/amazon-freertos/lib/third_party/mbedtls/library\x509.c **** 
  81:D:/Work/DeviceTester/amazon-freertos/lib/third_party/mbedtls/library\x509.c ****     if( ( end - *p ) < 1 )
  82:D:/Work/DeviceTester/amazon-freertos/lib/third_party/mbedtls/library\x509.c ****         return( MBEDTLS_ERR_X509_INVALID_SERIAL +
  83:D:/Work/DeviceTester/amazon-freertos/lib/third_party/mbedtls/library\x509.c ****                 MBEDTLS_ERR_ASN1_OUT_OF_DATA );
  84:D:/Work/DeviceTester/amazon-freertos/lib/third_party/mbedtls/library\x509.c **** 
  85:D:/Work/DeviceTester/amazon-freertos/lib/third_party/mbedtls/library\x509.c ****     if( **p != ( MBEDTLS_ASN1_CONTEXT_SPECIFIC | MBEDTLS_ASN1_PRIMITIVE | 2 ) &&
  86:D:/Work/DeviceTester/amazon-freertos/lib/third_party/mbedtls/library\x509.c ****         **p !=   MBEDTLS_ASN1_INTEGER )
  87:D:/Work/DeviceTester/amazon-freertos/lib/third_party/mbedtls/library\x509.c ****         return( MBEDTLS_ERR_X509_INVALID_SERIAL +
  88:D:/Work/DeviceTester/amazon-freertos/lib/third_party/mbedtls/library\x509.c ****                 MBEDTLS_ERR_ASN1_UNEXPECTED_TAG );
  89:D:/Work/DeviceTester/amazon-freertos/lib/third_party/mbedtls/library\x509.c **** 
  90:D:/Work/DeviceTester/amazon-freertos/lib/third_party/mbedtls/library\x509.c ****     serial->tag = *(*p)++;
  91:D:/Work/DeviceTester/amazon-freertos/lib/third_party/mbedtls/library\x509.c **** 
  92:D:/Work/DeviceTester/amazon-freertos/lib/third_party/mbedtls/library\x509.c ****     if( ( ret = mbedtls_asn1_get_len( p, end, &serial->len ) ) != 0 )
  93:D:/Work/DeviceTester/amazon-freertos/lib/third_party/mbedtls/library\x509.c ****         return( MBEDTLS_ERR_X509_INVALID_SERIAL + ret );
  94:D:/Work/DeviceTester/amazon-freertos/lib/third_party/mbedtls/library\x509.c **** 
  95:D:/Work/DeviceTester/amazon-freertos/lib/third_party/mbedtls/library\x509.c ****     serial->p = *p;
  96:D:/Work/DeviceTester/amazon-freertos/lib/third_party/mbedtls/library\x509.c ****     *p += serial->len;
  97:D:/Work/DeviceTester/amazon-freertos/lib/third_party/mbedtls/library\x509.c **** 
  98:D:/Work/DeviceTester/amazon-freertos/lib/third_party/mbedtls/library\x509.c ****     return( 0 );
  99:D:/Work/DeviceTester/amazon-freertos/lib/third_party/mbedtls/library\x509.c **** }
 100:D:/Work/DeviceTester/amazon-freertos/lib/third_party/mbedtls/library\x509.c **** 
 101:D:/Work/DeviceTester/amazon-freertos/lib/third_party/mbedtls/library\x509.c **** /* Get an algorithm identifier without parameters (eg for signatures)
 102:D:/Work/DeviceTester/amazon-freertos/lib/third_party/mbedtls/library\x509.c ****  *
 103:D:/Work/DeviceTester/amazon-freertos/lib/third_party/mbedtls/library\x509.c ****  *  AlgorithmIdentifier  ::=  SEQUENCE  {
 104:D:/Work/DeviceTester/amazon-freertos/lib/third_party/mbedtls/library\x509.c ****  *       algorithm               OBJECT IDENTIFIER,
 105:D:/Work/DeviceTester/amazon-freertos/lib/third_party/mbedtls/library\x509.c ****  *       parameters              ANY DEFINED BY algorithm OPTIONAL  }
 106:D:/Work/DeviceTester/amazon-freertos/lib/third_party/mbedtls/library\x509.c ****  */
 107:D:/Work/DeviceTester/amazon-freertos/lib/third_party/mbedtls/library\x509.c **** int mbedtls_x509_get_alg_null( unsigned char **p, const unsigned char *end,
 108:D:/Work/DeviceTester/amazon-freertos/lib/third_party/mbedtls/library\x509.c ****                        mbedtls_x509_buf *alg )
 109:D:/Work/DeviceTester/amazon-freertos/lib/third_party/mbedtls/library\x509.c **** {
 110:D:/Work/DeviceTester/amazon-freertos/lib/third_party/mbedtls/library\x509.c ****     int ret;
 111:D:/Work/DeviceTester/amazon-freertos/lib/third_party/mbedtls/library\x509.c **** 
 112:D:/Work/DeviceTester/amazon-freertos/lib/third_party/mbedtls/library\x509.c ****     if( ( ret = mbedtls_asn1_get_alg_null( p, end, alg ) ) != 0 )
 113:D:/Work/DeviceTester/amazon-freertos/lib/third_party/mbedtls/library\x509.c ****         return( MBEDTLS_ERR_X509_INVALID_ALG + ret );
 114:D:/Work/DeviceTester/amazon-freertos/lib/third_party/mbedtls/library\x509.c **** 
 115:D:/Work/DeviceTester/amazon-freertos/lib/third_party/mbedtls/library\x509.c ****     return( 0 );
 116:D:/Work/DeviceTester/amazon-freertos/lib/third_party/mbedtls/library\x509.c **** }
 117:D:/Work/DeviceTester/amazon-freertos/lib/third_party/mbedtls/library\x509.c **** 
 118:D:/Work/DeviceTester/amazon-freertos/lib/third_party/mbedtls/library\x509.c **** /*
 119:D:/Work/DeviceTester/amazon-freertos/lib/third_party/mbedtls/library\x509.c ****  * Parse an algorithm identifier with (optional) paramaters
 120:D:/Work/DeviceTester/amazon-freertos/lib/third_party/mbedtls/library\x509.c ****  */
 121:D:/Work/DeviceTester/amazon-freertos/lib/third_party/mbedtls/library\x509.c **** int mbedtls_x509_get_alg( unsigned char **p, const unsigned char *end,
 122:D:/Work/DeviceTester/amazon-freertos/lib/third_party/mbedtls/library\x509.c ****                   mbedtls_x509_buf *alg, mbedtls_x509_buf *params )
 123:D:/Work/DeviceTester/amazon-freertos/lib/third_party/mbedtls/library\x509.c **** {
 124:D:/Work/DeviceTester/amazon-freertos/lib/third_party/mbedtls/library\x509.c ****     int ret;
 125:D:/Work/DeviceTester/amazon-freertos/lib/third_party/mbedtls/library\x509.c **** 
 126:D:/Work/DeviceTester/amazon-freertos/lib/third_party/mbedtls/library\x509.c ****     if( ( ret = mbedtls_asn1_get_alg( p, end, alg, params ) ) != 0 )
 127:D:/Work/DeviceTester/amazon-freertos/lib/third_party/mbedtls/library\x509.c ****         return( MBEDTLS_ERR_X509_INVALID_ALG + ret );
 128:D:/Work/DeviceTester/amazon-freertos/lib/third_party/mbedtls/library\x509.c **** 
 129:D:/Work/DeviceTester/amazon-freertos/lib/third_party/mbedtls/library\x509.c ****     return( 0 );
 130:D:/Work/DeviceTester/amazon-freertos/lib/third_party/mbedtls/library\x509.c **** }
 131:D:/Work/DeviceTester/amazon-freertos/lib/third_party/mbedtls/library\x509.c **** 
 132:D:/Work/DeviceTester/amazon-freertos/lib/third_party/mbedtls/library\x509.c **** #if defined(MBEDTLS_X509_RSASSA_PSS_SUPPORT)
 133:D:/Work/DeviceTester/amazon-freertos/lib/third_party/mbedtls/library\x509.c **** /*
 134:D:/Work/DeviceTester/amazon-freertos/lib/third_party/mbedtls/library\x509.c ****  * HashAlgorithm ::= AlgorithmIdentifier
 135:D:/Work/DeviceTester/amazon-freertos/lib/third_party/mbedtls/library\x509.c ****  *
 136:D:/Work/DeviceTester/amazon-freertos/lib/third_party/mbedtls/library\x509.c ****  * AlgorithmIdentifier  ::=  SEQUENCE  {
 137:D:/Work/DeviceTester/amazon-freertos/lib/third_party/mbedtls/library\x509.c ****  *      algorithm               OBJECT IDENTIFIER,
 138:D:/Work/DeviceTester/amazon-freertos/lib/third_party/mbedtls/library\x509.c ****  *      parameters              ANY DEFINED BY algorithm OPTIONAL  }
 139:D:/Work/DeviceTester/amazon-freertos/lib/third_party/mbedtls/library\x509.c ****  *
 140:D:/Work/DeviceTester/amazon-freertos/lib/third_party/mbedtls/library\x509.c ****  * For HashAlgorithm, parameters MUST be NULL or absent.
 141:D:/Work/DeviceTester/amazon-freertos/lib/third_party/mbedtls/library\x509.c ****  */
 142:D:/Work/DeviceTester/amazon-freertos/lib/third_party/mbedtls/library\x509.c **** static int x509_get_hash_alg( const mbedtls_x509_buf *alg, mbedtls_md_type_t *md_alg )
 143:D:/Work/DeviceTester/amazon-freertos/lib/third_party/mbedtls/library\x509.c **** {
 144:D:/Work/DeviceTester/amazon-freertos/lib/third_party/mbedtls/library\x509.c ****     int ret;
 145:D:/Work/DeviceTester/amazon-freertos/lib/third_party/mbedtls/library\x509.c ****     unsigned char *p;
 146:D:/Work/DeviceTester/amazon-freertos/lib/third_party/mbedtls/library\x509.c ****     const unsigned char *end;
 147:D:/Work/DeviceTester/amazon-freertos/lib/third_party/mbedtls/library\x509.c ****     mbedtls_x509_buf md_oid;
 148:D:/Work/DeviceTester/amazon-freertos/lib/third_party/mbedtls/library\x509.c ****     size_t len;
 149:D:/Work/DeviceTester/amazon-freertos/lib/third_party/mbedtls/library\x509.c **** 
 150:D:/Work/DeviceTester/amazon-freertos/lib/third_party/mbedtls/library\x509.c ****     /* Make sure we got a SEQUENCE and setup bounds */
 151:D:/Work/DeviceTester/amazon-freertos/lib/third_party/mbedtls/library\x509.c ****     if( alg->tag != ( MBEDTLS_ASN1_CONSTRUCTED | MBEDTLS_ASN1_SEQUENCE ) )
 152:D:/Work/DeviceTester/amazon-freertos/lib/third_party/mbedtls/library\x509.c ****         return( MBEDTLS_ERR_X509_INVALID_ALG +
 153:D:/Work/DeviceTester/amazon-freertos/lib/third_party/mbedtls/library\x509.c ****                 MBEDTLS_ERR_ASN1_UNEXPECTED_TAG );
 154:D:/Work/DeviceTester/amazon-freertos/lib/third_party/mbedtls/library\x509.c **** 
 155:D:/Work/DeviceTester/amazon-freertos/lib/third_party/mbedtls/library\x509.c ****     p = (unsigned char *) alg->p;
 156:D:/Work/DeviceTester/amazon-freertos/lib/third_party/mbedtls/library\x509.c ****     end = p + alg->len;
 157:D:/Work/DeviceTester/amazon-freertos/lib/third_party/mbedtls/library\x509.c **** 
 158:D:/Work/DeviceTester/amazon-freertos/lib/third_party/mbedtls/library\x509.c ****     if( p >= end )
 159:D:/Work/DeviceTester/amazon-freertos/lib/third_party/mbedtls/library\x509.c ****         return( MBEDTLS_ERR_X509_INVALID_ALG +
 160:D:/Work/DeviceTester/amazon-freertos/lib/third_party/mbedtls/library\x509.c ****                 MBEDTLS_ERR_ASN1_OUT_OF_DATA );
 161:D:/Work/DeviceTester/amazon-freertos/lib/third_party/mbedtls/library\x509.c **** 
 162:D:/Work/DeviceTester/amazon-freertos/lib/third_party/mbedtls/library\x509.c ****     /* Parse md_oid */
 163:D:/Work/DeviceTester/amazon-freertos/lib/third_party/mbedtls/library\x509.c ****     md_oid.tag = *p;
 164:D:/Work/DeviceTester/amazon-freertos/lib/third_party/mbedtls/library\x509.c **** 
 165:D:/Work/DeviceTester/amazon-freertos/lib/third_party/mbedtls/library\x509.c ****     if( ( ret = mbedtls_asn1_get_tag( &p, end, &md_oid.len, MBEDTLS_ASN1_OID ) ) != 0 )
 166:D:/Work/DeviceTester/amazon-freertos/lib/third_party/mbedtls/library\x509.c ****         return( MBEDTLS_ERR_X509_INVALID_ALG + ret );
 167:D:/Work/DeviceTester/amazon-freertos/lib/third_party/mbedtls/library\x509.c **** 
 168:D:/Work/DeviceTester/amazon-freertos/lib/third_party/mbedtls/library\x509.c ****     md_oid.p = p;
 169:D:/Work/DeviceTester/amazon-freertos/lib/third_party/mbedtls/library\x509.c ****     p += md_oid.len;
 170:D:/Work/DeviceTester/amazon-freertos/lib/third_party/mbedtls/library\x509.c **** 
 171:D:/Work/DeviceTester/amazon-freertos/lib/third_party/mbedtls/library\x509.c ****     /* Get md_alg from md_oid */
 172:D:/Work/DeviceTester/amazon-freertos/lib/third_party/mbedtls/library\x509.c ****     if( ( ret = mbedtls_oid_get_md_alg( &md_oid, md_alg ) ) != 0 )
 173:D:/Work/DeviceTester/amazon-freertos/lib/third_party/mbedtls/library\x509.c ****         return( MBEDTLS_ERR_X509_INVALID_ALG + ret );
 174:D:/Work/DeviceTester/amazon-freertos/lib/third_party/mbedtls/library\x509.c **** 
 175:D:/Work/DeviceTester/amazon-freertos/lib/third_party/mbedtls/library\x509.c ****     /* Make sure params is absent of NULL */
 176:D:/Work/DeviceTester/amazon-freertos/lib/third_party/mbedtls/library\x509.c ****     if( p == end )
 177:D:/Work/DeviceTester/amazon-freertos/lib/third_party/mbedtls/library\x509.c ****         return( 0 );
 178:D:/Work/DeviceTester/amazon-freertos/lib/third_party/mbedtls/library\x509.c **** 
 179:D:/Work/DeviceTester/amazon-freertos/lib/third_party/mbedtls/library\x509.c ****     if( ( ret = mbedtls_asn1_get_tag( &p, end, &len, MBEDTLS_ASN1_NULL ) ) != 0 || len != 0 )
 180:D:/Work/DeviceTester/amazon-freertos/lib/third_party/mbedtls/library\x509.c ****         return( MBEDTLS_ERR_X509_INVALID_ALG + ret );
 181:D:/Work/DeviceTester/amazon-freertos/lib/third_party/mbedtls/library\x509.c **** 
 182:D:/Work/DeviceTester/amazon-freertos/lib/third_party/mbedtls/library\x509.c ****     if( p != end )
 183:D:/Work/DeviceTester/amazon-freertos/lib/third_party/mbedtls/library\x509.c ****         return( MBEDTLS_ERR_X509_INVALID_ALG +
 184:D:/Work/DeviceTester/amazon-freertos/lib/third_party/mbedtls/library\x509.c ****                 MBEDTLS_ERR_ASN1_LENGTH_MISMATCH );
 185:D:/Work/DeviceTester/amazon-freertos/lib/third_party/mbedtls/library\x509.c **** 
 186:D:/Work/DeviceTester/amazon-freertos/lib/third_party/mbedtls/library\x509.c ****     return( 0 );
 187:D:/Work/DeviceTester/amazon-freertos/lib/third_party/mbedtls/library\x509.c **** }
 188:D:/Work/DeviceTester/amazon-freertos/lib/third_party/mbedtls/library\x509.c **** 
 189:D:/Work/DeviceTester/amazon-freertos/lib/third_party/mbedtls/library\x509.c **** /*
 190:D:/Work/DeviceTester/amazon-freertos/lib/third_party/mbedtls/library\x509.c ****  *    RSASSA-PSS-params  ::=  SEQUENCE  {
 191:D:/Work/DeviceTester/amazon-freertos/lib/third_party/mbedtls/library\x509.c ****  *       hashAlgorithm     [0] HashAlgorithm DEFAULT sha1Identifier,
 192:D:/Work/DeviceTester/amazon-freertos/lib/third_party/mbedtls/library\x509.c ****  *       maskGenAlgorithm  [1] MaskGenAlgorithm DEFAULT mgf1SHA1Identifier,
 193:D:/Work/DeviceTester/amazon-freertos/lib/third_party/mbedtls/library\x509.c ****  *       saltLength        [2] INTEGER DEFAULT 20,
 194:D:/Work/DeviceTester/amazon-freertos/lib/third_party/mbedtls/library\x509.c ****  *       trailerField      [3] INTEGER DEFAULT 1  }
 195:D:/Work/DeviceTester/amazon-freertos/lib/third_party/mbedtls/library\x509.c ****  *    -- Note that the tags in this Sequence are explicit.
 196:D:/Work/DeviceTester/amazon-freertos/lib/third_party/mbedtls/library\x509.c ****  *
 197:D:/Work/DeviceTester/amazon-freertos/lib/third_party/mbedtls/library\x509.c ****  * RFC 4055 (which defines use of RSASSA-PSS in PKIX) states that the value
 198:D:/Work/DeviceTester/amazon-freertos/lib/third_party/mbedtls/library\x509.c ****  * of trailerField MUST be 1, and PKCS#1 v2.2 doesn't even define any other
 199:D:/Work/DeviceTester/amazon-freertos/lib/third_party/mbedtls/library\x509.c ****  * option. Enfore this at parsing time.
 200:D:/Work/DeviceTester/amazon-freertos/lib/third_party/mbedtls/library\x509.c ****  */
 201:D:/Work/DeviceTester/amazon-freertos/lib/third_party/mbedtls/library\x509.c **** int mbedtls_x509_get_rsassa_pss_params( const mbedtls_x509_buf *params,
 202:D:/Work/DeviceTester/amazon-freertos/lib/third_party/mbedtls/library\x509.c ****                                 mbedtls_md_type_t *md_alg, mbedtls_md_type_t *mgf_md,
 203:D:/Work/DeviceTester/amazon-freertos/lib/third_party/mbedtls/library\x509.c ****                                 int *salt_len )
 204:D:/Work/DeviceTester/amazon-freertos/lib/third_party/mbedtls/library\x509.c **** {
 205:D:/Work/DeviceTester/amazon-freertos/lib/third_party/mbedtls/library\x509.c ****     int ret;
 206:D:/Work/DeviceTester/amazon-freertos/lib/third_party/mbedtls/library\x509.c ****     unsigned char *p;
 207:D:/Work/DeviceTester/amazon-freertos/lib/third_party/mbedtls/library\x509.c ****     const unsigned char *end, *end2;
 208:D:/Work/DeviceTester/amazon-freertos/lib/third_party/mbedtls/library\x509.c ****     size_t len;
 209:D:/Work/DeviceTester/amazon-freertos/lib/third_party/mbedtls/library\x509.c ****     mbedtls_x509_buf alg_id, alg_params;
 210:D:/Work/DeviceTester/amazon-freertos/lib/third_party/mbedtls/library\x509.c **** 
 211:D:/Work/DeviceTester/amazon-freertos/lib/third_party/mbedtls/library\x509.c ****     /* First set everything to defaults */
 212:D:/Work/DeviceTester/amazon-freertos/lib/third_party/mbedtls/library\x509.c ****     *md_alg = MBEDTLS_MD_SHA1;
 213:D:/Work/DeviceTester/amazon-freertos/lib/third_party/mbedtls/library\x509.c ****     *mgf_md = MBEDTLS_MD_SHA1;
 214:D:/Work/DeviceTester/amazon-freertos/lib/third_party/mbedtls/library\x509.c ****     *salt_len = 20;
 215:D:/Work/DeviceTester/amazon-freertos/lib/third_party/mbedtls/library\x509.c **** 
 216:D:/Work/DeviceTester/amazon-freertos/lib/third_party/mbedtls/library\x509.c ****     /* Make sure params is a SEQUENCE and setup bounds */
 217:D:/Work/DeviceTester/amazon-freertos/lib/third_party/mbedtls/library\x509.c ****     if( params->tag != ( MBEDTLS_ASN1_CONSTRUCTED | MBEDTLS_ASN1_SEQUENCE ) )
 218:D:/Work/DeviceTester/amazon-freertos/lib/third_party/mbedtls/library\x509.c ****         return( MBEDTLS_ERR_X509_INVALID_ALG +
 219:D:/Work/DeviceTester/amazon-freertos/lib/third_party/mbedtls/library\x509.c ****                 MBEDTLS_ERR_ASN1_UNEXPECTED_TAG );
 220:D:/Work/DeviceTester/amazon-freertos/lib/third_party/mbedtls/library\x509.c **** 
 221:D:/Work/DeviceTester/amazon-freertos/lib/third_party/mbedtls/library\x509.c ****     p = (unsigned char *) params->p;
 222:D:/Work/DeviceTester/amazon-freertos/lib/third_party/mbedtls/library\x509.c ****     end = p + params->len;
 223:D:/Work/DeviceTester/amazon-freertos/lib/third_party/mbedtls/library\x509.c **** 
 224:D:/Work/DeviceTester/amazon-freertos/lib/third_party/mbedtls/library\x509.c ****     if( p == end )
 225:D:/Work/DeviceTester/amazon-freertos/lib/third_party/mbedtls/library\x509.c ****         return( 0 );
 226:D:/Work/DeviceTester/amazon-freertos/lib/third_party/mbedtls/library\x509.c **** 
 227:D:/Work/DeviceTester/amazon-freertos/lib/third_party/mbedtls/library\x509.c ****     /*
 228:D:/Work/DeviceTester/amazon-freertos/lib/third_party/mbedtls/library\x509.c ****      * HashAlgorithm
 229:D:/Work/DeviceTester/amazon-freertos/lib/third_party/mbedtls/library\x509.c ****      */
 230:D:/Work/DeviceTester/amazon-freertos/lib/third_party/mbedtls/library\x509.c ****     if( ( ret = mbedtls_asn1_get_tag( &p, end, &len,
 231:D:/Work/DeviceTester/amazon-freertos/lib/third_party/mbedtls/library\x509.c ****                     MBEDTLS_ASN1_CONTEXT_SPECIFIC | MBEDTLS_ASN1_CONSTRUCTED | 0 ) ) == 0 )
 232:D:/Work/DeviceTester/amazon-freertos/lib/third_party/mbedtls/library\x509.c ****     {
 233:D:/Work/DeviceTester/amazon-freertos/lib/third_party/mbedtls/library\x509.c ****         end2 = p + len;
 234:D:/Work/DeviceTester/amazon-freertos/lib/third_party/mbedtls/library\x509.c **** 
 235:D:/Work/DeviceTester/amazon-freertos/lib/third_party/mbedtls/library\x509.c ****         /* HashAlgorithm ::= AlgorithmIdentifier (without parameters) */
 236:D:/Work/DeviceTester/amazon-freertos/lib/third_party/mbedtls/library\x509.c ****         if( ( ret = mbedtls_x509_get_alg_null( &p, end2, &alg_id ) ) != 0 )
 237:D:/Work/DeviceTester/amazon-freertos/lib/third_party/mbedtls/library\x509.c ****             return( ret );
 238:D:/Work/DeviceTester/amazon-freertos/lib/third_party/mbedtls/library\x509.c **** 
 239:D:/Work/DeviceTester/amazon-freertos/lib/third_party/mbedtls/library\x509.c ****         if( ( ret = mbedtls_oid_get_md_alg( &alg_id, md_alg ) ) != 0 )
 240:D:/Work/DeviceTester/amazon-freertos/lib/third_party/mbedtls/library\x509.c ****             return( MBEDTLS_ERR_X509_INVALID_ALG + ret );
 241:D:/Work/DeviceTester/amazon-freertos/lib/third_party/mbedtls/library\x509.c **** 
 242:D:/Work/DeviceTester/amazon-freertos/lib/third_party/mbedtls/library\x509.c ****         if( p != end2 )
 243:D:/Work/DeviceTester/amazon-freertos/lib/third_party/mbedtls/library\x509.c ****             return( MBEDTLS_ERR_X509_INVALID_ALG +
 244:D:/Work/DeviceTester/amazon-freertos/lib/third_party/mbedtls/library\x509.c ****                     MBEDTLS_ERR_ASN1_LENGTH_MISMATCH );
 245:D:/Work/DeviceTester/amazon-freertos/lib/third_party/mbedtls/library\x509.c ****     }
 246:D:/Work/DeviceTester/amazon-freertos/lib/third_party/mbedtls/library\x509.c ****     else if( ret != MBEDTLS_ERR_ASN1_UNEXPECTED_TAG )
 247:D:/Work/DeviceTester/amazon-freertos/lib/third_party/mbedtls/library\x509.c ****         return( MBEDTLS_ERR_X509_INVALID_ALG + ret );
 248:D:/Work/DeviceTester/amazon-freertos/lib/third_party/mbedtls/library\x509.c **** 
 249:D:/Work/DeviceTester/amazon-freertos/lib/third_party/mbedtls/library\x509.c ****     if( p == end )
 250:D:/Work/DeviceTester/amazon-freertos/lib/third_party/mbedtls/library\x509.c ****         return( 0 );
 251:D:/Work/DeviceTester/amazon-freertos/lib/third_party/mbedtls/library\x509.c **** 
 252:D:/Work/DeviceTester/amazon-freertos/lib/third_party/mbedtls/library\x509.c ****     /*
 253:D:/Work/DeviceTester/amazon-freertos/lib/third_party/mbedtls/library\x509.c ****      * MaskGenAlgorithm
 254:D:/Work/DeviceTester/amazon-freertos/lib/third_party/mbedtls/library\x509.c ****      */
 255:D:/Work/DeviceTester/amazon-freertos/lib/third_party/mbedtls/library\x509.c ****     if( ( ret = mbedtls_asn1_get_tag( &p, end, &len,
 256:D:/Work/DeviceTester/amazon-freertos/lib/third_party/mbedtls/library\x509.c ****                     MBEDTLS_ASN1_CONTEXT_SPECIFIC | MBEDTLS_ASN1_CONSTRUCTED | 1 ) ) == 0 )
 257:D:/Work/DeviceTester/amazon-freertos/lib/third_party/mbedtls/library\x509.c ****     {
 258:D:/Work/DeviceTester/amazon-freertos/lib/third_party/mbedtls/library\x509.c ****         end2 = p + len;
 259:D:/Work/DeviceTester/amazon-freertos/lib/third_party/mbedtls/library\x509.c **** 
 260:D:/Work/DeviceTester/amazon-freertos/lib/third_party/mbedtls/library\x509.c ****         /* MaskGenAlgorithm ::= AlgorithmIdentifier (params = HashAlgorithm) */
 261:D:/Work/DeviceTester/amazon-freertos/lib/third_party/mbedtls/library\x509.c ****         if( ( ret = mbedtls_x509_get_alg( &p, end2, &alg_id, &alg_params ) ) != 0 )
 262:D:/Work/DeviceTester/amazon-freertos/lib/third_party/mbedtls/library\x509.c ****             return( ret );
 263:D:/Work/DeviceTester/amazon-freertos/lib/third_party/mbedtls/library\x509.c **** 
 264:D:/Work/DeviceTester/amazon-freertos/lib/third_party/mbedtls/library\x509.c ****         /* Only MFG1 is recognised for now */
 265:D:/Work/DeviceTester/amazon-freertos/lib/third_party/mbedtls/library\x509.c ****         if( MBEDTLS_OID_CMP( MBEDTLS_OID_MGF1, &alg_id ) != 0 )
 266:D:/Work/DeviceTester/amazon-freertos/lib/third_party/mbedtls/library\x509.c ****             return( MBEDTLS_ERR_X509_FEATURE_UNAVAILABLE +
 267:D:/Work/DeviceTester/amazon-freertos/lib/third_party/mbedtls/library\x509.c ****                     MBEDTLS_ERR_OID_NOT_FOUND );
 268:D:/Work/DeviceTester/amazon-freertos/lib/third_party/mbedtls/library\x509.c **** 
 269:D:/Work/DeviceTester/amazon-freertos/lib/third_party/mbedtls/library\x509.c ****         /* Parse HashAlgorithm */
 270:D:/Work/DeviceTester/amazon-freertos/lib/third_party/mbedtls/library\x509.c ****         if( ( ret = x509_get_hash_alg( &alg_params, mgf_md ) ) != 0 )
 271:D:/Work/DeviceTester/amazon-freertos/lib/third_party/mbedtls/library\x509.c ****             return( ret );
 272:D:/Work/DeviceTester/amazon-freertos/lib/third_party/mbedtls/library\x509.c **** 
 273:D:/Work/DeviceTester/amazon-freertos/lib/third_party/mbedtls/library\x509.c ****         if( p != end2 )
 274:D:/Work/DeviceTester/amazon-freertos/lib/third_party/mbedtls/library\x509.c ****             return( MBEDTLS_ERR_X509_INVALID_ALG +
 275:D:/Work/DeviceTester/amazon-freertos/lib/third_party/mbedtls/library\x509.c ****                     MBEDTLS_ERR_ASN1_LENGTH_MISMATCH );
 276:D:/Work/DeviceTester/amazon-freertos/lib/third_party/mbedtls/library\x509.c ****     }
 277:D:/Work/DeviceTester/amazon-freertos/lib/third_party/mbedtls/library\x509.c ****     else if( ret != MBEDTLS_ERR_ASN1_UNEXPECTED_TAG )
 278:D:/Work/DeviceTester/amazon-freertos/lib/third_party/mbedtls/library\x509.c ****         return( MBEDTLS_ERR_X509_INVALID_ALG + ret );
 279:D:/Work/DeviceTester/amazon-freertos/lib/third_party/mbedtls/library\x509.c **** 
 280:D:/Work/DeviceTester/amazon-freertos/lib/third_party/mbedtls/library\x509.c ****     if( p == end )
 281:D:/Work/DeviceTester/amazon-freertos/lib/third_party/mbedtls/library\x509.c ****         return( 0 );
 282:D:/Work/DeviceTester/amazon-freertos/lib/third_party/mbedtls/library\x509.c **** 
 283:D:/Work/DeviceTester/amazon-freertos/lib/third_party/mbedtls/library\x509.c ****     /*
 284:D:/Work/DeviceTester/amazon-freertos/lib/third_party/mbedtls/library\x509.c ****      * salt_len
 285:D:/Work/DeviceTester/amazon-freertos/lib/third_party/mbedtls/library\x509.c ****      */
 286:D:/Work/DeviceTester/amazon-freertos/lib/third_party/mbedtls/library\x509.c ****     if( ( ret = mbedtls_asn1_get_tag( &p, end, &len,
 287:D:/Work/DeviceTester/amazon-freertos/lib/third_party/mbedtls/library\x509.c ****                     MBEDTLS_ASN1_CONTEXT_SPECIFIC | MBEDTLS_ASN1_CONSTRUCTED | 2 ) ) == 0 )
 288:D:/Work/DeviceTester/amazon-freertos/lib/third_party/mbedtls/library\x509.c ****     {
 289:D:/Work/DeviceTester/amazon-freertos/lib/third_party/mbedtls/library\x509.c ****         end2 = p + len;
 290:D:/Work/DeviceTester/amazon-freertos/lib/third_party/mbedtls/library\x509.c **** 
 291:D:/Work/DeviceTester/amazon-freertos/lib/third_party/mbedtls/library\x509.c ****         if( ( ret = mbedtls_asn1_get_int( &p, end2, salt_len ) ) != 0 )
 292:D:/Work/DeviceTester/amazon-freertos/lib/third_party/mbedtls/library\x509.c ****             return( MBEDTLS_ERR_X509_INVALID_ALG + ret );
 293:D:/Work/DeviceTester/amazon-freertos/lib/third_party/mbedtls/library\x509.c **** 
 294:D:/Work/DeviceTester/amazon-freertos/lib/third_party/mbedtls/library\x509.c ****         if( p != end2 )
 295:D:/Work/DeviceTester/amazon-freertos/lib/third_party/mbedtls/library\x509.c ****             return( MBEDTLS_ERR_X509_INVALID_ALG +
 296:D:/Work/DeviceTester/amazon-freertos/lib/third_party/mbedtls/library\x509.c ****                     MBEDTLS_ERR_ASN1_LENGTH_MISMATCH );
 297:D:/Work/DeviceTester/amazon-freertos/lib/third_party/mbedtls/library\x509.c ****     }
 298:D:/Work/DeviceTester/amazon-freertos/lib/third_party/mbedtls/library\x509.c ****     else if( ret != MBEDTLS_ERR_ASN1_UNEXPECTED_TAG )
 299:D:/Work/DeviceTester/amazon-freertos/lib/third_party/mbedtls/library\x509.c ****         return( MBEDTLS_ERR_X509_INVALID_ALG + ret );
 300:D:/Work/DeviceTester/amazon-freertos/lib/third_party/mbedtls/library\x509.c **** 
 301:D:/Work/DeviceTester/amazon-freertos/lib/third_party/mbedtls/library\x509.c ****     if( p == end )
 302:D:/Work/DeviceTester/amazon-freertos/lib/third_party/mbedtls/library\x509.c ****         return( 0 );
 303:D:/Work/DeviceTester/amazon-freertos/lib/third_party/mbedtls/library\x509.c **** 
 304:D:/Work/DeviceTester/amazon-freertos/lib/third_party/mbedtls/library\x509.c ****     /*
 305:D:/Work/DeviceTester/amazon-freertos/lib/third_party/mbedtls/library\x509.c ****      * trailer_field (if present, must be 1)
 306:D:/Work/DeviceTester/amazon-freertos/lib/third_party/mbedtls/library\x509.c ****      */
 307:D:/Work/DeviceTester/amazon-freertos/lib/third_party/mbedtls/library\x509.c ****     if( ( ret = mbedtls_asn1_get_tag( &p, end, &len,
 308:D:/Work/DeviceTester/amazon-freertos/lib/third_party/mbedtls/library\x509.c ****                     MBEDTLS_ASN1_CONTEXT_SPECIFIC | MBEDTLS_ASN1_CONSTRUCTED | 3 ) ) == 0 )
 309:D:/Work/DeviceTester/amazon-freertos/lib/third_party/mbedtls/library\x509.c ****     {
 310:D:/Work/DeviceTester/amazon-freertos/lib/third_party/mbedtls/library\x509.c ****         int trailer_field;
 311:D:/Work/DeviceTester/amazon-freertos/lib/third_party/mbedtls/library\x509.c **** 
 312:D:/Work/DeviceTester/amazon-freertos/lib/third_party/mbedtls/library\x509.c ****         end2 = p + len;
 313:D:/Work/DeviceTester/amazon-freertos/lib/third_party/mbedtls/library\x509.c **** 
 314:D:/Work/DeviceTester/amazon-freertos/lib/third_party/mbedtls/library\x509.c ****         if( ( ret = mbedtls_asn1_get_int( &p, end2, &trailer_field ) ) != 0 )
 315:D:/Work/DeviceTester/amazon-freertos/lib/third_party/mbedtls/library\x509.c ****             return( MBEDTLS_ERR_X509_INVALID_ALG + ret );
 316:D:/Work/DeviceTester/amazon-freertos/lib/third_party/mbedtls/library\x509.c **** 
 317:D:/Work/DeviceTester/amazon-freertos/lib/third_party/mbedtls/library\x509.c ****         if( p != end2 )
 318:D:/Work/DeviceTester/amazon-freertos/lib/third_party/mbedtls/library\x509.c ****             return( MBEDTLS_ERR_X509_INVALID_ALG +
 319:D:/Work/DeviceTester/amazon-freertos/lib/third_party/mbedtls/library\x509.c ****                     MBEDTLS_ERR_ASN1_LENGTH_MISMATCH );
 320:D:/Work/DeviceTester/amazon-freertos/lib/third_party/mbedtls/library\x509.c **** 
 321:D:/Work/DeviceTester/amazon-freertos/lib/third_party/mbedtls/library\x509.c ****         if( trailer_field != 1 )
 322:D:/Work/DeviceTester/amazon-freertos/lib/third_party/mbedtls/library\x509.c ****             return( MBEDTLS_ERR_X509_INVALID_ALG );
 323:D:/Work/DeviceTester/amazon-freertos/lib/third_party/mbedtls/library\x509.c ****     }
 324:D:/Work/DeviceTester/amazon-freertos/lib/third_party/mbedtls/library\x509.c ****     else if( ret != MBEDTLS_ERR_ASN1_UNEXPECTED_TAG )
 325:D:/Work/DeviceTester/amazon-freertos/lib/third_party/mbedtls/library\x509.c ****         return( MBEDTLS_ERR_X509_INVALID_ALG + ret );
 326:D:/Work/DeviceTester/amazon-freertos/lib/third_party/mbedtls/library\x509.c **** 
 327:D:/Work/DeviceTester/amazon-freertos/lib/third_party/mbedtls/library\x509.c ****     if( p != end )
 328:D:/Work/DeviceTester/amazon-freertos/lib/third_party/mbedtls/library\x509.c ****         return( MBEDTLS_ERR_X509_INVALID_ALG +
 329:D:/Work/DeviceTester/amazon-freertos/lib/third_party/mbedtls/library\x509.c ****                 MBEDTLS_ERR_ASN1_LENGTH_MISMATCH );
 330:D:/Work/DeviceTester/amazon-freertos/lib/third_party/mbedtls/library\x509.c **** 
 331:D:/Work/DeviceTester/amazon-freertos/lib/third_party/mbedtls/library\x509.c ****     return( 0 );
 332:D:/Work/DeviceTester/amazon-freertos/lib/third_party/mbedtls/library\x509.c **** }
 333:D:/Work/DeviceTester/amazon-freertos/lib/third_party/mbedtls/library\x509.c **** #endif /* MBEDTLS_X509_RSASSA_PSS_SUPPORT */
 334:D:/Work/DeviceTester/amazon-freertos/lib/third_party/mbedtls/library\x509.c **** 
 335:D:/Work/DeviceTester/amazon-freertos/lib/third_party/mbedtls/library\x509.c **** /*
 336:D:/Work/DeviceTester/amazon-freertos/lib/third_party/mbedtls/library\x509.c ****  *  AttributeTypeAndValue ::= SEQUENCE {
 337:D:/Work/DeviceTester/amazon-freertos/lib/third_party/mbedtls/library\x509.c ****  *    type     AttributeType,
 338:D:/Work/DeviceTester/amazon-freertos/lib/third_party/mbedtls/library\x509.c ****  *    value    AttributeValue }
 339:D:/Work/DeviceTester/amazon-freertos/lib/third_party/mbedtls/library\x509.c ****  *
 340:D:/Work/DeviceTester/amazon-freertos/lib/third_party/mbedtls/library\x509.c ****  *  AttributeType ::= OBJECT IDENTIFIER
 341:D:/Work/DeviceTester/amazon-freertos/lib/third_party/mbedtls/library\x509.c ****  *
 342:D:/Work/DeviceTester/amazon-freertos/lib/third_party/mbedtls/library\x509.c ****  *  AttributeValue ::= ANY DEFINED BY AttributeType
 343:D:/Work/DeviceTester/amazon-freertos/lib/third_party/mbedtls/library\x509.c ****  */
 344:D:/Work/DeviceTester/amazon-freertos/lib/third_party/mbedtls/library\x509.c **** static int x509_get_attr_type_value( unsigned char **p,
 345:D:/Work/DeviceTester/amazon-freertos/lib/third_party/mbedtls/library\x509.c ****                                      const unsigned char *end,
 346:D:/Work/DeviceTester/amazon-freertos/lib/third_party/mbedtls/library\x509.c ****                                      mbedtls_x509_name *cur )
 347:D:/Work/DeviceTester/amazon-freertos/lib/third_party/mbedtls/library\x509.c **** {
 348:D:/Work/DeviceTester/amazon-freertos/lib/third_party/mbedtls/library\x509.c ****     int ret;
 349:D:/Work/DeviceTester/amazon-freertos/lib/third_party/mbedtls/library\x509.c ****     size_t len;
 350:D:/Work/DeviceTester/amazon-freertos/lib/third_party/mbedtls/library\x509.c ****     mbedtls_x509_buf *oid;
 351:D:/Work/DeviceTester/amazon-freertos/lib/third_party/mbedtls/library\x509.c ****     mbedtls_x509_buf *val;
 352:D:/Work/DeviceTester/amazon-freertos/lib/third_party/mbedtls/library\x509.c **** 
 353:D:/Work/DeviceTester/amazon-freertos/lib/third_party/mbedtls/library\x509.c ****     if( ( ret = mbedtls_asn1_get_tag( p, end, &len,
 354:D:/Work/DeviceTester/amazon-freertos/lib/third_party/mbedtls/library\x509.c ****             MBEDTLS_ASN1_CONSTRUCTED | MBEDTLS_ASN1_SEQUENCE ) ) != 0 )
 355:D:/Work/DeviceTester/amazon-freertos/lib/third_party/mbedtls/library\x509.c ****         return( MBEDTLS_ERR_X509_INVALID_NAME + ret );
 356:D:/Work/DeviceTester/amazon-freertos/lib/third_party/mbedtls/library\x509.c **** 
 357:D:/Work/DeviceTester/amazon-freertos/lib/third_party/mbedtls/library\x509.c ****     if( ( end - *p ) < 1 )
 358:D:/Work/DeviceTester/amazon-freertos/lib/third_party/mbedtls/library\x509.c ****         return( MBEDTLS_ERR_X509_INVALID_NAME +
 359:D:/Work/DeviceTester/amazon-freertos/lib/third_party/mbedtls/library\x509.c ****                 MBEDTLS_ERR_ASN1_OUT_OF_DATA );
 360:D:/Work/DeviceTester/amazon-freertos/lib/third_party/mbedtls/library\x509.c **** 
 361:D:/Work/DeviceTester/amazon-freertos/lib/third_party/mbedtls/library\x509.c ****     oid = &cur->oid;
 362:D:/Work/DeviceTester/amazon-freertos/lib/third_party/mbedtls/library\x509.c ****     oid->tag = **p;
 363:D:/Work/DeviceTester/amazon-freertos/lib/third_party/mbedtls/library\x509.c **** 
 364:D:/Work/DeviceTester/amazon-freertos/lib/third_party/mbedtls/library\x509.c ****     if( ( ret = mbedtls_asn1_get_tag( p, end, &oid->len, MBEDTLS_ASN1_OID ) ) != 0 )
 365:D:/Work/DeviceTester/amazon-freertos/lib/third_party/mbedtls/library\x509.c ****         return( MBEDTLS_ERR_X509_INVALID_NAME + ret );
 366:D:/Work/DeviceTester/amazon-freertos/lib/third_party/mbedtls/library\x509.c **** 
 367:D:/Work/DeviceTester/amazon-freertos/lib/third_party/mbedtls/library\x509.c ****     oid->p = *p;
 368:D:/Work/DeviceTester/amazon-freertos/lib/third_party/mbedtls/library\x509.c ****     *p += oid->len;
 369:D:/Work/DeviceTester/amazon-freertos/lib/third_party/mbedtls/library\x509.c **** 
 370:D:/Work/DeviceTester/amazon-freertos/lib/third_party/mbedtls/library\x509.c ****     if( ( end - *p ) < 1 )
 371:D:/Work/DeviceTester/amazon-freertos/lib/third_party/mbedtls/library\x509.c ****         return( MBEDTLS_ERR_X509_INVALID_NAME +
 372:D:/Work/DeviceTester/amazon-freertos/lib/third_party/mbedtls/library\x509.c ****                 MBEDTLS_ERR_ASN1_OUT_OF_DATA );
 373:D:/Work/DeviceTester/amazon-freertos/lib/third_party/mbedtls/library\x509.c **** 
 374:D:/Work/DeviceTester/amazon-freertos/lib/third_party/mbedtls/library\x509.c ****     if( **p != MBEDTLS_ASN1_BMP_STRING && **p != MBEDTLS_ASN1_UTF8_STRING      &&
 375:D:/Work/DeviceTester/amazon-freertos/lib/third_party/mbedtls/library\x509.c ****         **p != MBEDTLS_ASN1_T61_STRING && **p != MBEDTLS_ASN1_PRINTABLE_STRING &&
 376:D:/Work/DeviceTester/amazon-freertos/lib/third_party/mbedtls/library\x509.c ****         **p != MBEDTLS_ASN1_IA5_STRING && **p != MBEDTLS_ASN1_UNIVERSAL_STRING &&
 377:D:/Work/DeviceTester/amazon-freertos/lib/third_party/mbedtls/library\x509.c ****         **p != MBEDTLS_ASN1_BIT_STRING )
 378:D:/Work/DeviceTester/amazon-freertos/lib/third_party/mbedtls/library\x509.c ****         return( MBEDTLS_ERR_X509_INVALID_NAME +
 379:D:/Work/DeviceTester/amazon-freertos/lib/third_party/mbedtls/library\x509.c ****                 MBEDTLS_ERR_ASN1_UNEXPECTED_TAG );
 380:D:/Work/DeviceTester/amazon-freertos/lib/third_party/mbedtls/library\x509.c **** 
 381:D:/Work/DeviceTester/amazon-freertos/lib/third_party/mbedtls/library\x509.c ****     val = &cur->val;
 382:D:/Work/DeviceTester/amazon-freertos/lib/third_party/mbedtls/library\x509.c ****     val->tag = *(*p)++;
 383:D:/Work/DeviceTester/amazon-freertos/lib/third_party/mbedtls/library\x509.c **** 
 384:D:/Work/DeviceTester/amazon-freertos/lib/third_party/mbedtls/library\x509.c ****     if( ( ret = mbedtls_asn1_get_len( p, end, &val->len ) ) != 0 )
 385:D:/Work/DeviceTester/amazon-freertos/lib/third_party/mbedtls/library\x509.c ****         return( MBEDTLS_ERR_X509_INVALID_NAME + ret );
 386:D:/Work/DeviceTester/amazon-freertos/lib/third_party/mbedtls/library\x509.c **** 
 387:D:/Work/DeviceTester/amazon-freertos/lib/third_party/mbedtls/library\x509.c ****     val->p = *p;
 388:D:/Work/DeviceTester/amazon-freertos/lib/third_party/mbedtls/library\x509.c ****     *p += val->len;
 389:D:/Work/DeviceTester/amazon-freertos/lib/third_party/mbedtls/library\x509.c **** 
 390:D:/Work/DeviceTester/amazon-freertos/lib/third_party/mbedtls/library\x509.c ****     cur->next = NULL;
 391:D:/Work/DeviceTester/amazon-freertos/lib/third_party/mbedtls/library\x509.c **** 
 392:D:/Work/DeviceTester/amazon-freertos/lib/third_party/mbedtls/library\x509.c ****     return( 0 );
 393:D:/Work/DeviceTester/amazon-freertos/lib/third_party/mbedtls/library\x509.c **** }
 394:D:/Work/DeviceTester/amazon-freertos/lib/third_party/mbedtls/library\x509.c **** 
 395:D:/Work/DeviceTester/amazon-freertos/lib/third_party/mbedtls/library\x509.c **** /*
 396:D:/Work/DeviceTester/amazon-freertos/lib/third_party/mbedtls/library\x509.c ****  *  Name ::= CHOICE { -- only one possibility for now --
 397:D:/Work/DeviceTester/amazon-freertos/lib/third_party/mbedtls/library\x509.c ****  *       rdnSequence  RDNSequence }
 398:D:/Work/DeviceTester/amazon-freertos/lib/third_party/mbedtls/library\x509.c ****  *
 399:D:/Work/DeviceTester/amazon-freertos/lib/third_party/mbedtls/library\x509.c ****  *  RDNSequence ::= SEQUENCE OF RelativeDistinguishedName
 400:D:/Work/DeviceTester/amazon-freertos/lib/third_party/mbedtls/library\x509.c ****  *
 401:D:/Work/DeviceTester/amazon-freertos/lib/third_party/mbedtls/library\x509.c ****  *  RelativeDistinguishedName ::=
 402:D:/Work/DeviceTester/amazon-freertos/lib/third_party/mbedtls/library\x509.c ****  *    SET OF AttributeTypeAndValue
 403:D:/Work/DeviceTester/amazon-freertos/lib/third_party/mbedtls/library\x509.c ****  *
 404:D:/Work/DeviceTester/amazon-freertos/lib/third_party/mbedtls/library\x509.c ****  *  AttributeTypeAndValue ::= SEQUENCE {
 405:D:/Work/DeviceTester/amazon-freertos/lib/third_party/mbedtls/library\x509.c ****  *    type     AttributeType,
 406:D:/Work/DeviceTester/amazon-freertos/lib/third_party/mbedtls/library\x509.c ****  *    value    AttributeValue }
 407:D:/Work/DeviceTester/amazon-freertos/lib/third_party/mbedtls/library\x509.c ****  *
 408:D:/Work/DeviceTester/amazon-freertos/lib/third_party/mbedtls/library\x509.c ****  *  AttributeType ::= OBJECT IDENTIFIER
 409:D:/Work/DeviceTester/amazon-freertos/lib/third_party/mbedtls/library\x509.c ****  *
 410:D:/Work/DeviceTester/amazon-freertos/lib/third_party/mbedtls/library\x509.c ****  *  AttributeValue ::= ANY DEFINED BY AttributeType
 411:D:/Work/DeviceTester/amazon-freertos/lib/third_party/mbedtls/library\x509.c ****  *
 412:D:/Work/DeviceTester/amazon-freertos/lib/third_party/mbedtls/library\x509.c ****  * The data structure is optimized for the common case where each RDN has only
 413:D:/Work/DeviceTester/amazon-freertos/lib/third_party/mbedtls/library\x509.c ****  * one element, which is represented as a list of AttributeTypeAndValue.
 414:D:/Work/DeviceTester/amazon-freertos/lib/third_party/mbedtls/library\x509.c ****  * For the general case we still use a flat list, but we mark elements of the
 415:D:/Work/DeviceTester/amazon-freertos/lib/third_party/mbedtls/library\x509.c ****  * same set so that they are "merged" together in the functions that consume
 416:D:/Work/DeviceTester/amazon-freertos/lib/third_party/mbedtls/library\x509.c ****  * this list, eg mbedtls_x509_dn_gets().
 417:D:/Work/DeviceTester/amazon-freertos/lib/third_party/mbedtls/library\x509.c ****  */
 418:D:/Work/DeviceTester/amazon-freertos/lib/third_party/mbedtls/library\x509.c **** int mbedtls_x509_get_name( unsigned char **p, const unsigned char *end,
 419:D:/Work/DeviceTester/amazon-freertos/lib/third_party/mbedtls/library\x509.c ****                    mbedtls_x509_name *cur )
 420:D:/Work/DeviceTester/amazon-freertos/lib/third_party/mbedtls/library\x509.c **** {
 421:D:/Work/DeviceTester/amazon-freertos/lib/third_party/mbedtls/library\x509.c ****     int ret;
 422:D:/Work/DeviceTester/amazon-freertos/lib/third_party/mbedtls/library\x509.c ****     size_t set_len;
 423:D:/Work/DeviceTester/amazon-freertos/lib/third_party/mbedtls/library\x509.c ****     const unsigned char *end_set;
 424:D:/Work/DeviceTester/amazon-freertos/lib/third_party/mbedtls/library\x509.c **** 
 425:D:/Work/DeviceTester/amazon-freertos/lib/third_party/mbedtls/library\x509.c ****     /* don't use recursion, we'd risk stack overflow if not optimized */
 426:D:/Work/DeviceTester/amazon-freertos/lib/third_party/mbedtls/library\x509.c ****     while( 1 )
 427:D:/Work/DeviceTester/amazon-freertos/lib/third_party/mbedtls/library\x509.c ****     {
 428:D:/Work/DeviceTester/amazon-freertos/lib/third_party/mbedtls/library\x509.c ****         /*
 429:D:/Work/DeviceTester/amazon-freertos/lib/third_party/mbedtls/library\x509.c ****          * parse SET
 430:D:/Work/DeviceTester/amazon-freertos/lib/third_party/mbedtls/library\x509.c ****          */
 431:D:/Work/DeviceTester/amazon-freertos/lib/third_party/mbedtls/library\x509.c ****         if( ( ret = mbedtls_asn1_get_tag( p, end, &set_len,
 432:D:/Work/DeviceTester/amazon-freertos/lib/third_party/mbedtls/library\x509.c ****                 MBEDTLS_ASN1_CONSTRUCTED | MBEDTLS_ASN1_SET ) ) != 0 )
 433:D:/Work/DeviceTester/amazon-freertos/lib/third_party/mbedtls/library\x509.c ****             return( MBEDTLS_ERR_X509_INVALID_NAME + ret );
 434:D:/Work/DeviceTester/amazon-freertos/lib/third_party/mbedtls/library\x509.c **** 
 435:D:/Work/DeviceTester/amazon-freertos/lib/third_party/mbedtls/library\x509.c ****         end_set  = *p + set_len;
 436:D:/Work/DeviceTester/amazon-freertos/lib/third_party/mbedtls/library\x509.c **** 
 437:D:/Work/DeviceTester/amazon-freertos/lib/third_party/mbedtls/library\x509.c ****         while( 1 )
 438:D:/Work/DeviceTester/amazon-freertos/lib/third_party/mbedtls/library\x509.c ****         {
 439:D:/Work/DeviceTester/amazon-freertos/lib/third_party/mbedtls/library\x509.c ****             if( ( ret = x509_get_attr_type_value( p, end_set, cur ) ) != 0 )
 440:D:/Work/DeviceTester/amazon-freertos/lib/third_party/mbedtls/library\x509.c ****                 return( ret );
 441:D:/Work/DeviceTester/amazon-freertos/lib/third_party/mbedtls/library\x509.c **** 
 442:D:/Work/DeviceTester/amazon-freertos/lib/third_party/mbedtls/library\x509.c ****             if( *p == end_set )
 443:D:/Work/DeviceTester/amazon-freertos/lib/third_party/mbedtls/library\x509.c ****                 break;
 444:D:/Work/DeviceTester/amazon-freertos/lib/third_party/mbedtls/library\x509.c **** 
 445:D:/Work/DeviceTester/amazon-freertos/lib/third_party/mbedtls/library\x509.c ****             /* Mark this item as being no the only one in a set */
 446:D:/Work/DeviceTester/amazon-freertos/lib/third_party/mbedtls/library\x509.c ****             cur->next_merged = 1;
 447:D:/Work/DeviceTester/amazon-freertos/lib/third_party/mbedtls/library\x509.c **** 
 448:D:/Work/DeviceTester/amazon-freertos/lib/third_party/mbedtls/library\x509.c ****             cur->next = mbedtls_calloc( 1, sizeof( mbedtls_x509_name ) );
 449:D:/Work/DeviceTester/amazon-freertos/lib/third_party/mbedtls/library\x509.c **** 
 450:D:/Work/DeviceTester/amazon-freertos/lib/third_party/mbedtls/library\x509.c ****             if( cur->next == NULL )
 451:D:/Work/DeviceTester/amazon-freertos/lib/third_party/mbedtls/library\x509.c ****                 return( MBEDTLS_ERR_X509_ALLOC_FAILED );
 452:D:/Work/DeviceTester/amazon-freertos/lib/third_party/mbedtls/library\x509.c **** 
 453:D:/Work/DeviceTester/amazon-freertos/lib/third_party/mbedtls/library\x509.c ****             cur = cur->next;
 454:D:/Work/DeviceTester/amazon-freertos/lib/third_party/mbedtls/library\x509.c ****         }
 455:D:/Work/DeviceTester/amazon-freertos/lib/third_party/mbedtls/library\x509.c **** 
 456:D:/Work/DeviceTester/amazon-freertos/lib/third_party/mbedtls/library\x509.c ****         /*
 457:D:/Work/DeviceTester/amazon-freertos/lib/third_party/mbedtls/library\x509.c ****          * continue until end of SEQUENCE is reached
 458:D:/Work/DeviceTester/amazon-freertos/lib/third_party/mbedtls/library\x509.c ****          */
 459:D:/Work/DeviceTester/amazon-freertos/lib/third_party/mbedtls/library\x509.c ****         if( *p == end )
 460:D:/Work/DeviceTester/amazon-freertos/lib/third_party/mbedtls/library\x509.c ****             return( 0 );
 461:D:/Work/DeviceTester/amazon-freertos/lib/third_party/mbedtls/library\x509.c **** 
 462:D:/Work/DeviceTester/amazon-freertos/lib/third_party/mbedtls/library\x509.c ****         cur->next = mbedtls_calloc( 1, sizeof( mbedtls_x509_name ) );
 463:D:/Work/DeviceTester/amazon-freertos/lib/third_party/mbedtls/library\x509.c **** 
 464:D:/Work/DeviceTester/amazon-freertos/lib/third_party/mbedtls/library\x509.c ****         if( cur->next == NULL )
 465:D:/Work/DeviceTester/amazon-freertos/lib/third_party/mbedtls/library\x509.c ****             return( MBEDTLS_ERR_X509_ALLOC_FAILED );
 466:D:/Work/DeviceTester/amazon-freertos/lib/third_party/mbedtls/library\x509.c **** 
 467:D:/Work/DeviceTester/amazon-freertos/lib/third_party/mbedtls/library\x509.c ****         cur = cur->next;
 468:D:/Work/DeviceTester/amazon-freertos/lib/third_party/mbedtls/library\x509.c ****     }
 469:D:/Work/DeviceTester/amazon-freertos/lib/third_party/mbedtls/library\x509.c **** }
 470:D:/Work/DeviceTester/amazon-freertos/lib/third_party/mbedtls/library\x509.c **** 
 471:D:/Work/DeviceTester/amazon-freertos/lib/third_party/mbedtls/library\x509.c **** static int x509_parse_int( unsigned char **p, size_t n, int *res )
 472:D:/Work/DeviceTester/amazon-freertos/lib/third_party/mbedtls/library\x509.c **** {
  25              		.loc 1 472 0
  26              		.cfi_startproc
  27              		@ args = 0, pretend = 0, frame = 0
  28              		@ frame_needed = 0, uses_anonymous_args = 0
  29              	.LVL0:
  30 0000 10402DE9 		push	{r4, lr}
  31              		.cfi_def_cfa_offset 8
  32              		.cfi_offset 4, -8
  33              		.cfi_offset 14, -4
 473:D:/Work/DeviceTester/amazon-freertos/lib/third_party/mbedtls/library\x509.c ****     *res = 0;
 474:D:/Work/DeviceTester/amazon-freertos/lib/third_party/mbedtls/library\x509.c **** 
 475:D:/Work/DeviceTester/amazon-freertos/lib/third_party/mbedtls/library\x509.c ****     for( ; n > 0; --n )
 476:D:/Work/DeviceTester/amazon-freertos/lib/third_party/mbedtls/library\x509.c ****     {
 477:D:/Work/DeviceTester/amazon-freertos/lib/third_party/mbedtls/library\x509.c ****         if( ( **p < '0') || ( **p > '9' ) )
 478:D:/Work/DeviceTester/amazon-freertos/lib/third_party/mbedtls/library\x509.c ****             return ( MBEDTLS_ERR_X509_INVALID_DATE );
 479:D:/Work/DeviceTester/amazon-freertos/lib/third_party/mbedtls/library\x509.c **** 
 480:D:/Work/DeviceTester/amazon-freertos/lib/third_party/mbedtls/library\x509.c ****         *res *= 10;
  34              		.loc 1 480 0
  35 0004 0A40A0E3 		mov	r4, #10
 473:D:/Work/DeviceTester/amazon-freertos/lib/third_party/mbedtls/library\x509.c ****     *res = 0;
  36              		.loc 1 473 0
  37 0008 0030A0E3 		mov	r3, #0
  38 000c 003082E5 		str	r3, [r2]
  39              	.L2:
 475:D:/Work/DeviceTester/amazon-freertos/lib/third_party/mbedtls/library\x509.c ****     {
  40              		.loc 1 475 0 discriminator 1
  41 0010 000051E3 		cmp	r1, #0
  42 0014 0100001A 		bne	.L4
 481:D:/Work/DeviceTester/amazon-freertos/lib/third_party/mbedtls/library\x509.c ****         *res += ( *(*p)++ - '0' );
 482:D:/Work/DeviceTester/amazon-freertos/lib/third_party/mbedtls/library\x509.c ****     }
 483:D:/Work/DeviceTester/amazon-freertos/lib/third_party/mbedtls/library\x509.c **** 
 484:D:/Work/DeviceTester/amazon-freertos/lib/third_party/mbedtls/library\x509.c ****     return( 0 );
  43              		.loc 1 484 0
  44 0018 0100A0E1 		mov	r0, r1
  45              	.LVL1:
  46 001c 1080BDE8 		pop	{r4, pc}
  47              	.LVL2:
  48              	.L4:
 477:D:/Work/DeviceTester/amazon-freertos/lib/third_party/mbedtls/library\x509.c ****             return ( MBEDTLS_ERR_X509_INVALID_DATE );
  49              		.loc 1 477 0
  50 0020 00E090E5 		ldr	lr, [r0]
  51 0024 0030DEE5 		ldrb	r3, [lr]	@ zero_extendqisi2
  52 0028 303043E2 		sub	r3, r3, #48
  53 002c 090053E3 		cmp	r3, #9
  54 0030 0A00008A 		bhi	.L5
 480:D:/Work/DeviceTester/amazon-freertos/lib/third_party/mbedtls/library\x509.c ****         *res += ( *(*p)++ - '0' );
  55              		.loc 1 480 0
  56 0034 003092E5 		ldr	r3, [r2]
 475:D:/Work/DeviceTester/amazon-freertos/lib/third_party/mbedtls/library\x509.c ****     {
  57              		.loc 1 475 0
  58 0038 011041E2 		sub	r1, r1, #1
  59              	.LVL3:
 480:D:/Work/DeviceTester/amazon-freertos/lib/third_party/mbedtls/library\x509.c ****         *res += ( *(*p)++ - '0' );
  60              		.loc 1 480 0
  61 003c 94030CE0 		mul	ip, r4, r3
 481:D:/Work/DeviceTester/amazon-freertos/lib/third_party/mbedtls/library\x509.c ****     }
  62              		.loc 1 481 0
  63 0040 01308EE2 		add	r3, lr, #1
 480:D:/Work/DeviceTester/amazon-freertos/lib/third_party/mbedtls/library\x509.c ****         *res += ( *(*p)++ - '0' );
  64              		.loc 1 480 0
  65 0044 00C082E5 		str	ip, [r2]
 481:D:/Work/DeviceTester/amazon-freertos/lib/third_party/mbedtls/library\x509.c ****     }
  66              		.loc 1 481 0
  67 0048 003080E5 		str	r3, [r0]
  68 004c 0030DEE5 		ldrb	r3, [lr]	@ zero_extendqisi2
  69 0050 303043E2 		sub	r3, r3, #48
  70 0054 0C3083E0 		add	r3, r3, ip
  71 0058 003082E5 		str	r3, [r2]
  72 005c EBFFFFEA 		b	.L2
  73              	.L5:
 478:D:/Work/DeviceTester/amazon-freertos/lib/third_party/mbedtls/library\x509.c **** 
  74              		.loc 1 478 0
  75 0060 00009FE5 		ldr	r0, .L7
  76              	.LVL4:
 485:D:/Work/DeviceTester/amazon-freertos/lib/third_party/mbedtls/library\x509.c **** }
  77              		.loc 1 485 0
  78 0064 1080BDE8 		pop	{r4, pc}
  79              	.L8:
  80              		.align	2
  81              	.L7:
  82 0068 00DCFFFF 		.word	-9216
  83              		.cfi_endproc
  84              	.LFE16:
  86              		.section	.text.mbedtls_x509_get_serial,"ax",%progbits
  87              		.align	2
  88              		.global	mbedtls_x509_get_serial
  89              		.syntax unified
  90              		.arm
  91              		.fpu neon
  93              	mbedtls_x509_get_serial:
  94              	.LFB11:
  78:D:/Work/DeviceTester/amazon-freertos/lib/third_party/mbedtls/library\x509.c ****     int ret;
  95              		.loc 1 78 0
  96              		.cfi_startproc
  97              		@ args = 0, pretend = 0, frame = 0
  98              		@ frame_needed = 0, uses_anonymous_args = 0
  99              	.LVL5:
  81:D:/Work/DeviceTester/amazon-freertos/lib/third_party/mbedtls/library\x509.c ****         return( MBEDTLS_ERR_X509_INVALID_SERIAL +
 100              		.loc 1 81 0
 101 0000 003090E5 		ldr	r3, [r0]
 102 0004 03C041E0 		sub	ip, r1, r3
 103 0008 00005CE3 		cmp	ip, #0
 104 000c 150000DA 		ble	.L12
  85:D:/Work/DeviceTester/amazon-freertos/lib/third_party/mbedtls/library\x509.c ****         **p !=   MBEDTLS_ASN1_INTEGER )
 105              		.loc 1 85 0
 106 0010 00C0D3E5 		ldrb	ip, [r3]	@ zero_extendqisi2
 107 0014 7FC00CE2 		and	ip, ip, #127
 108 0018 02005CE3 		cmp	ip, #2
 109 001c 1300001A 		bne	.L13
  78:D:/Work/DeviceTester/amazon-freertos/lib/third_party/mbedtls/library\x509.c ****     int ret;
 110              		.loc 1 78 0
 111 0020 70402DE9 		push	{r4, r5, r6, lr}
 112              		.cfi_def_cfa_offset 16
 113              		.cfi_offset 4, -16
 114              		.cfi_offset 5, -12
 115              		.cfi_offset 6, -8
 116              		.cfi_offset 14, -4
 117 0024 0250A0E1 		mov	r5, r2
  90:D:/Work/DeviceTester/amazon-freertos/lib/third_party/mbedtls/library\x509.c **** 
 118              		.loc 1 90 0
 119 0028 012083E2 		add	r2, r3, #1
 120              	.LVL6:
 121 002c 0040A0E1 		mov	r4, r0
 122 0030 002080E5 		str	r2, [r0]
 123 0034 0520A0E1 		mov	r2, r5
 124 0038 0030D3E5 		ldrb	r3, [r3]	@ zero_extendqisi2
 125 003c 043082E4 		str	r3, [r2], #4
  92:D:/Work/DeviceTester/amazon-freertos/lib/third_party/mbedtls/library\x509.c ****         return( MBEDTLS_ERR_X509_INVALID_SERIAL + ret );
 126              		.loc 1 92 0
 127 0040 FEFFFFEB 		bl	mbedtls_asn1_get_len
 128              	.LVL7:
 129 0044 000050E3 		cmp	r0, #0
  95:D:/Work/DeviceTester/amazon-freertos/lib/third_party/mbedtls/library\x509.c ****     *p += serial->len;
 130              		.loc 1 95 0
 131 0048 00309405 		ldreq	r3, [r4]
  93:D:/Work/DeviceTester/amazon-freertos/lib/third_party/mbedtls/library\x509.c **** 
 132              		.loc 1 93 0
 133 004c 8A0D4012 		subne	r0, r0, #8832
 134              	.LVL8:
  96:D:/Work/DeviceTester/amazon-freertos/lib/third_party/mbedtls/library\x509.c **** 
 135              		.loc 1 96 0
 136 0050 04209505 		ldreq	r2, [r5, #4]
  95:D:/Work/DeviceTester/amazon-freertos/lib/third_party/mbedtls/library\x509.c ****     *p += serial->len;
 137              		.loc 1 95 0
 138 0054 08308505 		streq	r3, [r5, #8]
  96:D:/Work/DeviceTester/amazon-freertos/lib/third_party/mbedtls/library\x509.c **** 
 139              		.loc 1 96 0
 140 0058 00309405 		ldreq	r3, [r4]
 141 005c 02308300 		addeq	r3, r3, r2
 142 0060 00308405 		streq	r3, [r4]
  98:D:/Work/DeviceTester/amazon-freertos/lib/third_party/mbedtls/library\x509.c **** }
 143              		.loc 1 98 0
 144 0064 7080BDE8 		pop	{r4, r5, r6, pc}
 145              	.LVL9:
 146              	.L12:
 147              		.cfi_def_cfa_offset 0
 148              		.cfi_restore 4
 149              		.cfi_restore 5
 150              		.cfi_restore 6
 151              		.cfi_restore 14
  82:D:/Work/DeviceTester/amazon-freertos/lib/third_party/mbedtls/library\x509.c ****                 MBEDTLS_ERR_ASN1_OUT_OF_DATA );
 152              		.loc 1 82 0
 153 0068 08009FE5 		ldr	r0, .L18
 154              	.LVL10:
 155 006c 1EFF2FE1 		bx	lr
 156              	.LVL11:
 157              	.L13:
  87:D:/Work/DeviceTester/amazon-freertos/lib/third_party/mbedtls/library\x509.c ****                 MBEDTLS_ERR_ASN1_UNEXPECTED_TAG );
 158              		.loc 1 87 0
 159 0070 04009FE5 		ldr	r0, .L18+4
 160              	.LVL12:
 161 0074 1EFF2FE1 		bx	lr
 162              	.L19:
 163              		.align	2
 164              	.L18:
 165 0078 20DDFFFF 		.word	-8928
 166 007c 1EDDFFFF 		.word	-8930
 167              		.cfi_endproc
 168              	.LFE11:
 170              		.section	.text.mbedtls_x509_get_alg_null,"ax",%progbits
 171              		.align	2
 172              		.global	mbedtls_x509_get_alg_null
 173              		.syntax unified
 174              		.arm
 175              		.fpu neon
 177              	mbedtls_x509_get_alg_null:
 178              	.LFB12:
 109:D:/Work/DeviceTester/amazon-freertos/lib/third_party/mbedtls/library\x509.c ****     int ret;
 179              		.loc 1 109 0
 180              		.cfi_startproc
 181              		@ args = 0, pretend = 0, frame = 0
 182              		@ frame_needed = 0, uses_anonymous_args = 0
 183              	.LVL13:
 184 0000 10402DE9 		push	{r4, lr}
 185              		.cfi_def_cfa_offset 8
 186              		.cfi_offset 4, -8
 187              		.cfi_offset 14, -4
 112:D:/Work/DeviceTester/amazon-freertos/lib/third_party/mbedtls/library\x509.c ****         return( MBEDTLS_ERR_X509_INVALID_ALG + ret );
 188              		.loc 1 112 0
 189 0004 FEFFFFEB 		bl	mbedtls_asn1_get_alg_null
 190              	.LVL14:
 191 0008 000050E3 		cmp	r0, #0
 113:D:/Work/DeviceTester/amazon-freertos/lib/third_party/mbedtls/library\x509.c **** 
 192              		.loc 1 113 0
 193 000c 230C4012 		subne	r0, r0, #8960
 194              	.LVL15:
 116:D:/Work/DeviceTester/amazon-freertos/lib/third_party/mbedtls/library\x509.c **** 
 195              		.loc 1 116 0
 196 0010 1080BDE8 		pop	{r4, pc}
 197              		.cfi_endproc
 198              	.LFE12:
 200              		.section	.text.mbedtls_x509_get_alg,"ax",%progbits
 201              		.align	2
 202              		.global	mbedtls_x509_get_alg
 203              		.syntax unified
 204              		.arm
 205              		.fpu neon
 207              	mbedtls_x509_get_alg:
 208              	.LFB13:
 123:D:/Work/DeviceTester/amazon-freertos/lib/third_party/mbedtls/library\x509.c ****     int ret;
 209              		.loc 1 123 0
 210              		.cfi_startproc
 211              		@ args = 0, pretend = 0, frame = 0
 212              		@ frame_needed = 0, uses_anonymous_args = 0
 213              	.LVL16:
 214 0000 10402DE9 		push	{r4, lr}
 215              		.cfi_def_cfa_offset 8
 216              		.cfi_offset 4, -8
 217              		.cfi_offset 14, -4
 126:D:/Work/DeviceTester/amazon-freertos/lib/third_party/mbedtls/library\x509.c ****         return( MBEDTLS_ERR_X509_INVALID_ALG + ret );
 218              		.loc 1 126 0
 219 0004 FEFFFFEB 		bl	mbedtls_asn1_get_alg
 220              	.LVL17:
 221 0008 000050E3 		cmp	r0, #0
 127:D:/Work/DeviceTester/amazon-freertos/lib/third_party/mbedtls/library\x509.c **** 
 222              		.loc 1 127 0
 223 000c 230C4012 		subne	r0, r0, #8960
 224              	.LVL18:
 130:D:/Work/DeviceTester/amazon-freertos/lib/third_party/mbedtls/library\x509.c **** 
 225              		.loc 1 130 0
 226 0010 1080BDE8 		pop	{r4, pc}
 227              		.cfi_endproc
 228              	.LFE13:
 230              		.section	.text.mbedtls_x509_get_name,"ax",%progbits
 231              		.align	2
 232              		.global	mbedtls_x509_get_name
 233              		.syntax unified
 234              		.arm
 235              		.fpu neon
 237              	mbedtls_x509_get_name:
 238              	.LFB15:
 420:D:/Work/DeviceTester/amazon-freertos/lib/third_party/mbedtls/library\x509.c ****     int ret;
 239              		.loc 1 420 0
 240              		.cfi_startproc
 241              		@ args = 0, pretend = 0, frame = 8
 242              		@ frame_needed = 0, uses_anonymous_args = 0
 243              	.LVL19:
 244 0000 F3412DE9 		push	{r0, r1, r4, r5, r6, r7, r8, lr}
 245              		.cfi_def_cfa_offset 32
 246              		.cfi_offset 4, -24
 247              		.cfi_offset 5, -20
 248              		.cfi_offset 6, -16
 249              		.cfi_offset 7, -12
 250              		.cfi_offset 8, -8
 251              		.cfi_offset 14, -4
 420:D:/Work/DeviceTester/amazon-freertos/lib/third_party/mbedtls/library\x509.c ****     int ret;
 252              		.loc 1 420 0
 253 0004 0040A0E1 		mov	r4, r0
 254              	.LBB4:
 255              	.LBB5:
 376:D:/Work/DeviceTester/amazon-freertos/lib/third_party/mbedtls/library\x509.c ****         **p != MBEDTLS_ASN1_BIT_STRING )
 256              		.loc 1 376 0
 257 0008 84819FE5 		ldr	r8, .L56
 258              	.LBE5:
 259              	.LBE4:
 420:D:/Work/DeviceTester/amazon-freertos/lib/third_party/mbedtls/library\x509.c ****     int ret;
 260              		.loc 1 420 0
 261 000c 0170A0E1 		mov	r7, r1
 262 0010 0250A0E1 		mov	r5, r2
 263              	.LVL20:
 264              	.L45:
 431:D:/Work/DeviceTester/amazon-freertos/lib/third_party/mbedtls/library\x509.c ****                 MBEDTLS_ASN1_CONSTRUCTED | MBEDTLS_ASN1_SET ) ) != 0 )
 265              		.loc 1 431 0
 266 0014 3130A0E3 		mov	r3, #49
 267 0018 0D20A0E1 		mov	r2, sp
 268 001c 0710A0E1 		mov	r1, r7
 269 0020 0400A0E1 		mov	r0, r4
 270 0024 FEFFFFEB 		bl	mbedtls_asn1_get_tag
 271              	.LVL21:
 272 0028 000050E3 		cmp	r0, #0
 273 002c 0200000A 		beq	.L33
 433:D:/Work/DeviceTester/amazon-freertos/lib/third_party/mbedtls/library\x509.c **** 
 274              		.loc 1 433 0
 275 0030 8E0D40E2 		sub	r0, r0, #9088
 276              	.LVL22:
 277              	.L32:
 469:D:/Work/DeviceTester/amazon-freertos/lib/third_party/mbedtls/library\x509.c **** 
 278              		.loc 1 469 0
 279 0034 08D08DE2 		add	sp, sp, #8
 280              		.cfi_remember_state
 281              		.cfi_def_cfa_offset 24
 282              		@ sp needed
 283 0038 F081BDE8 		pop	{r4, r5, r6, r7, r8, pc}
 284              	.LVL23:
 285              	.L33:
 286              		.cfi_restore_state
 435:D:/Work/DeviceTester/amazon-freertos/lib/third_party/mbedtls/library\x509.c **** 
 287              		.loc 1 435 0
 288 003c 006094E5 		ldr	r6, [r4]
 289 0040 00309DE5 		ldr	r3, [sp]
 290 0044 036086E0 		add	r6, r6, r3
 291              	.LVL24:
 292              	.L43:
 293              	.LBB9:
 294              	.LBB6:
 353:D:/Work/DeviceTester/amazon-freertos/lib/third_party/mbedtls/library\x509.c ****             MBEDTLS_ASN1_CONSTRUCTED | MBEDTLS_ASN1_SEQUENCE ) ) != 0 )
 295              		.loc 1 353 0
 296 0048 3030A0E3 		mov	r3, #48
 297 004c 04208DE2 		add	r2, sp, #4
 298 0050 0610A0E1 		mov	r1, r6
 299 0054 0400A0E1 		mov	r0, r4
 300 0058 FEFFFFEB 		bl	mbedtls_asn1_get_tag
 301              	.LVL25:
 302 005c 000050E3 		cmp	r0, #0
 303 0060 0E00000A 		beq	.L35
 304              	.L55:
 385:D:/Work/DeviceTester/amazon-freertos/lib/third_party/mbedtls/library\x509.c **** 
 305              		.loc 1 385 0
 306 0064 8E0D40E2 		sub	r0, r0, #9088
 307              	.LVL26:
 308              	.LBE6:
 309              	.LBE9:
 439:D:/Work/DeviceTester/amazon-freertos/lib/third_party/mbedtls/library\x509.c ****                 return( ret );
 310              		.loc 1 439 0
 311 0068 000050E3 		cmp	r0, #0
 312 006c F0FFFF1A 		bne	.L32
 313              	.L41:
 442:D:/Work/DeviceTester/amazon-freertos/lib/third_party/mbedtls/library\x509.c ****                 break;
 314              		.loc 1 442 0
 315 0070 003094E5 		ldr	r3, [r4]
 316 0074 030056E1 		cmp	r6, r3
 317 0078 3600000A 		beq	.L42
 446:D:/Work/DeviceTester/amazon-freertos/lib/third_party/mbedtls/library\x509.c **** 
 318              		.loc 1 446 0
 319 007c 0100A0E3 		mov	r0, #1
 448:D:/Work/DeviceTester/amazon-freertos/lib/third_party/mbedtls/library\x509.c **** 
 320              		.loc 1 448 0
 321 0080 2010A0E3 		mov	r1, #32
 446:D:/Work/DeviceTester/amazon-freertos/lib/third_party/mbedtls/library\x509.c **** 
 322              		.loc 1 446 0
 323 0084 1C00C5E5 		strb	r0, [r5, #28]
 448:D:/Work/DeviceTester/amazon-freertos/lib/third_party/mbedtls/library\x509.c **** 
 324              		.loc 1 448 0
 325 0088 FEFFFFEB 		bl	mbedtls_calloc
 326              	.LVL27:
 327 008c 180085E5 		str	r0, [r5, #24]
 450:D:/Work/DeviceTester/amazon-freertos/lib/third_party/mbedtls/library\x509.c ****                 return( MBEDTLS_ERR_X509_ALLOC_FAILED );
 328              		.loc 1 450 0
 329 0090 005050E2 		subs	r5, r0, #0
 330              	.LVL28:
 331 0094 EBFFFF1A 		bne	.L43
 332              	.L44:
 451:D:/Work/DeviceTester/amazon-freertos/lib/third_party/mbedtls/library\x509.c **** 
 333              		.loc 1 451 0
 334 0098 F8009FE5 		ldr	r0, .L56+4
 335 009c E4FFFFEA 		b	.L32
 336              	.LVL29:
 337              	.L35:
 338              	.LBB10:
 339              	.LBB7:
 357:D:/Work/DeviceTester/amazon-freertos/lib/third_party/mbedtls/library\x509.c ****         return( MBEDTLS_ERR_X509_INVALID_NAME +
 340              		.loc 1 357 0
 341 00a0 003094E5 		ldr	r3, [r4]
 342 00a4 032046E0 		sub	r2, r6, r3
 343 00a8 000052E3 		cmp	r2, #0
 344 00ac 340000DA 		ble	.L37
 345              	.LVL30:
 362:D:/Work/DeviceTester/amazon-freertos/lib/third_party/mbedtls/library\x509.c **** 
 346              		.loc 1 362 0
 347 00b0 0030D3E5 		ldrb	r3, [r3]	@ zero_extendqisi2
 348 00b4 0520A0E1 		mov	r2, r5
 364:D:/Work/DeviceTester/amazon-freertos/lib/third_party/mbedtls/library\x509.c ****         return( MBEDTLS_ERR_X509_INVALID_NAME + ret );
 349              		.loc 1 364 0
 350 00b8 0610A0E1 		mov	r1, r6
 351 00bc 0400A0E1 		mov	r0, r4
 352              	.LVL31:
 362:D:/Work/DeviceTester/amazon-freertos/lib/third_party/mbedtls/library\x509.c **** 
 353              		.loc 1 362 0
 354 00c0 043082E4 		str	r3, [r2], #4
 364:D:/Work/DeviceTester/amazon-freertos/lib/third_party/mbedtls/library\x509.c ****         return( MBEDTLS_ERR_X509_INVALID_NAME + ret );
 355              		.loc 1 364 0
 356 00c4 0630A0E3 		mov	r3, #6
 357 00c8 FEFFFFEB 		bl	mbedtls_asn1_get_tag
 358              	.LVL32:
 359 00cc 000050E3 		cmp	r0, #0
 360 00d0 E3FFFF1A 		bne	.L55
 367:D:/Work/DeviceTester/amazon-freertos/lib/third_party/mbedtls/library\x509.c ****     *p += oid->len;
 361              		.loc 1 367 0
 362 00d4 003094E5 		ldr	r3, [r4]
 368:D:/Work/DeviceTester/amazon-freertos/lib/third_party/mbedtls/library\x509.c **** 
 363              		.loc 1 368 0
 364 00d8 041095E5 		ldr	r1, [r5, #4]
 367:D:/Work/DeviceTester/amazon-freertos/lib/third_party/mbedtls/library\x509.c ****     *p += oid->len;
 365              		.loc 1 367 0
 366 00dc 083085E5 		str	r3, [r5, #8]
 368:D:/Work/DeviceTester/amazon-freertos/lib/third_party/mbedtls/library\x509.c **** 
 367              		.loc 1 368 0
 368 00e0 000094E5 		ldr	r0, [r4]
 369              	.LVL33:
 370 00e4 013080E0 		add	r3, r0, r1
 370:D:/Work/DeviceTester/amazon-freertos/lib/third_party/mbedtls/library\x509.c ****         return( MBEDTLS_ERR_X509_INVALID_NAME +
 371              		.loc 1 370 0
 372 00e8 032046E0 		sub	r2, r6, r3
 368:D:/Work/DeviceTester/amazon-freertos/lib/third_party/mbedtls/library\x509.c **** 
 373              		.loc 1 368 0
 374 00ec 003084E5 		str	r3, [r4]
 370:D:/Work/DeviceTester/amazon-freertos/lib/third_party/mbedtls/library\x509.c ****         return( MBEDTLS_ERR_X509_INVALID_NAME +
 375              		.loc 1 370 0
 376 00f0 000052E3 		cmp	r2, #0
 377 00f4 220000DA 		ble	.L37
 374:D:/Work/DeviceTester/amazon-freertos/lib/third_party/mbedtls/library\x509.c ****         **p != MBEDTLS_ASN1_T61_STRING && **p != MBEDTLS_ASN1_PRINTABLE_STRING &&
 378              		.loc 1 374 0
 379 00f8 0120D0E7 		ldrb	r2, [r0, r1]	@ zero_extendqisi2
 376:D:/Work/DeviceTester/amazon-freertos/lib/third_party/mbedtls/library\x509.c ****         **p != MBEDTLS_ASN1_BIT_STRING )
 380              		.loc 1 376 0
 381 00fc 1E0052E3 		cmp	r2, #30
 382 0100 2100008A 		bhi	.L47
 383 0104 3822E0E1 		mvn	r2, r8, lsr r2
 384 0108 010012E3 		tst	r2, #1
 385 010c 1E00001A 		bne	.L47
 386              	.LVL34:
 382:D:/Work/DeviceTester/amazon-freertos/lib/third_party/mbedtls/library\x509.c **** 
 387              		.loc 1 382 0
 388 0110 013083E2 		add	r3, r3, #1
 384:D:/Work/DeviceTester/amazon-freertos/lib/third_party/mbedtls/library\x509.c ****         return( MBEDTLS_ERR_X509_INVALID_NAME + ret );
 389              		.loc 1 384 0
 390 0114 102085E2 		add	r2, r5, #16
 382:D:/Work/DeviceTester/amazon-freertos/lib/third_party/mbedtls/library\x509.c **** 
 391              		.loc 1 382 0
 392 0118 003084E5 		str	r3, [r4]
 393 011c 0130D0E7 		ldrb	r3, [r0, r1]	@ zero_extendqisi2
 384:D:/Work/DeviceTester/amazon-freertos/lib/third_party/mbedtls/library\x509.c ****         return( MBEDTLS_ERR_X509_INVALID_NAME + ret );
 394              		.loc 1 384 0
 395 0120 0610A0E1 		mov	r1, r6
 396 0124 0400A0E1 		mov	r0, r4
 382:D:/Work/DeviceTester/amazon-freertos/lib/third_party/mbedtls/library\x509.c **** 
 397              		.loc 1 382 0
 398 0128 0C3085E5 		str	r3, [r5, #12]
 384:D:/Work/DeviceTester/amazon-freertos/lib/third_party/mbedtls/library\x509.c ****         return( MBEDTLS_ERR_X509_INVALID_NAME + ret );
 399              		.loc 1 384 0
 400 012c FEFFFFEB 		bl	mbedtls_asn1_get_len
 401              	.LVL35:
 402 0130 000050E3 		cmp	r0, #0
 403 0134 CAFFFF1A 		bne	.L55
 387:D:/Work/DeviceTester/amazon-freertos/lib/third_party/mbedtls/library\x509.c ****     *p += val->len;
 404              		.loc 1 387 0
 405 0138 003094E5 		ldr	r3, [r4]
 388:D:/Work/DeviceTester/amazon-freertos/lib/third_party/mbedtls/library\x509.c **** 
 406              		.loc 1 388 0
 407 013c 102095E5 		ldr	r2, [r5, #16]
 387:D:/Work/DeviceTester/amazon-freertos/lib/third_party/mbedtls/library\x509.c ****     *p += val->len;
 408              		.loc 1 387 0
 409 0140 143085E5 		str	r3, [r5, #20]
 388:D:/Work/DeviceTester/amazon-freertos/lib/third_party/mbedtls/library\x509.c **** 
 410              		.loc 1 388 0
 411 0144 003094E5 		ldr	r3, [r4]
 412 0148 023083E0 		add	r3, r3, r2
 413 014c 003084E5 		str	r3, [r4]
 390:D:/Work/DeviceTester/amazon-freertos/lib/third_party/mbedtls/library\x509.c **** 
 414              		.loc 1 390 0
 415 0150 180085E5 		str	r0, [r5, #24]
 416              	.LVL36:
 417 0154 C5FFFFEA 		b	.L41
 418              	.LVL37:
 419              	.L42:
 420              	.LBE7:
 421              	.LBE10:
 459:D:/Work/DeviceTester/amazon-freertos/lib/third_party/mbedtls/library\x509.c ****             return( 0 );
 422              		.loc 1 459 0
 423 0158 060057E1 		cmp	r7, r6
 424 015c 0600000A 		beq	.L48
 462:D:/Work/DeviceTester/amazon-freertos/lib/third_party/mbedtls/library\x509.c **** 
 425              		.loc 1 462 0
 426 0160 2010A0E3 		mov	r1, #32
 427 0164 0100A0E3 		mov	r0, #1
 428 0168 FEFFFFEB 		bl	mbedtls_calloc
 429              	.LVL38:
 430 016c 180085E5 		str	r0, [r5, #24]
 464:D:/Work/DeviceTester/amazon-freertos/lib/third_party/mbedtls/library\x509.c ****             return( MBEDTLS_ERR_X509_ALLOC_FAILED );
 431              		.loc 1 464 0
 432 0170 005050E2 		subs	r5, r0, #0
 433              	.LVL39:
 434 0174 A6FFFF1A 		bne	.L45
 435 0178 C6FFFFEA 		b	.L44
 436              	.LVL40:
 437              	.L48:
 460:D:/Work/DeviceTester/amazon-freertos/lib/third_party/mbedtls/library\x509.c **** 
 438              		.loc 1 460 0
 439 017c 0000A0E3 		mov	r0, #0
 440 0180 ABFFFFEA 		b	.L32
 441              	.LVL41:
 442              	.L37:
 443              	.LBB11:
 444              	.LBB8:
 358:D:/Work/DeviceTester/amazon-freertos/lib/third_party/mbedtls/library\x509.c ****                 MBEDTLS_ERR_ASN1_OUT_OF_DATA );
 445              		.loc 1 358 0
 446 0184 10009FE5 		ldr	r0, .L56+8
 447 0188 A9FFFFEA 		b	.L32
 448              	.LVL42:
 449              	.L47:
 378:D:/Work/DeviceTester/amazon-freertos/lib/third_party/mbedtls/library\x509.c ****                 MBEDTLS_ERR_ASN1_UNEXPECTED_TAG );
 450              		.loc 1 378 0
 451 018c 0C009FE5 		ldr	r0, .L56+12
 452              	.LVL43:
 453 0190 A7FFFFEA 		b	.L32
 454              	.L57:
 455              		.align	2
 456              	.L56:
 457 0194 08105850 		.word	1347948552
 458 0198 80D7FFFF 		.word	-10368
 459 019c 20DCFFFF 		.word	-9184
 460 01a0 1EDCFFFF 		.word	-9186
 461              	.LBE8:
 462              	.LBE11:
 463              		.cfi_endproc
 464              	.LFE15:
 466              		.global	__aeabi_idivmod
 467              		.section	.text.mbedtls_x509_get_time,"ax",%progbits
 468              		.align	2
 469              		.global	mbedtls_x509_get_time
 470              		.syntax unified
 471              		.arm
 472              		.fpu neon
 474              	mbedtls_x509_get_time:
 475              	.LFB19:
 486:D:/Work/DeviceTester/amazon-freertos/lib/third_party/mbedtls/library\x509.c **** 
 487:D:/Work/DeviceTester/amazon-freertos/lib/third_party/mbedtls/library\x509.c **** static int x509_date_is_valid(const mbedtls_x509_time *t )
 488:D:/Work/DeviceTester/amazon-freertos/lib/third_party/mbedtls/library\x509.c **** {
 489:D:/Work/DeviceTester/amazon-freertos/lib/third_party/mbedtls/library\x509.c ****     int ret = MBEDTLS_ERR_X509_INVALID_DATE;
 490:D:/Work/DeviceTester/amazon-freertos/lib/third_party/mbedtls/library\x509.c ****     int month_len;
 491:D:/Work/DeviceTester/amazon-freertos/lib/third_party/mbedtls/library\x509.c **** 
 492:D:/Work/DeviceTester/amazon-freertos/lib/third_party/mbedtls/library\x509.c ****     CHECK_RANGE( 0, 9999, t->year );
 493:D:/Work/DeviceTester/amazon-freertos/lib/third_party/mbedtls/library\x509.c ****     CHECK_RANGE( 0, 23,   t->hour );
 494:D:/Work/DeviceTester/amazon-freertos/lib/third_party/mbedtls/library\x509.c ****     CHECK_RANGE( 0, 59,   t->min  );
 495:D:/Work/DeviceTester/amazon-freertos/lib/third_party/mbedtls/library\x509.c ****     CHECK_RANGE( 0, 59,   t->sec  );
 496:D:/Work/DeviceTester/amazon-freertos/lib/third_party/mbedtls/library\x509.c **** 
 497:D:/Work/DeviceTester/amazon-freertos/lib/third_party/mbedtls/library\x509.c ****     switch( t->mon )
 498:D:/Work/DeviceTester/amazon-freertos/lib/third_party/mbedtls/library\x509.c ****     {
 499:D:/Work/DeviceTester/amazon-freertos/lib/third_party/mbedtls/library\x509.c ****         case 1: case 3: case 5: case 7: case 8: case 10: case 12:
 500:D:/Work/DeviceTester/amazon-freertos/lib/third_party/mbedtls/library\x509.c ****             month_len = 31;
 501:D:/Work/DeviceTester/amazon-freertos/lib/third_party/mbedtls/library\x509.c ****             break;
 502:D:/Work/DeviceTester/amazon-freertos/lib/third_party/mbedtls/library\x509.c ****         case 4: case 6: case 9: case 11:
 503:D:/Work/DeviceTester/amazon-freertos/lib/third_party/mbedtls/library\x509.c ****             month_len = 30;
 504:D:/Work/DeviceTester/amazon-freertos/lib/third_party/mbedtls/library\x509.c ****             break;
 505:D:/Work/DeviceTester/amazon-freertos/lib/third_party/mbedtls/library\x509.c ****         case 2:
 506:D:/Work/DeviceTester/amazon-freertos/lib/third_party/mbedtls/library\x509.c ****             if( ( !( t->year % 4 ) && t->year % 100 ) ||
 507:D:/Work/DeviceTester/amazon-freertos/lib/third_party/mbedtls/library\x509.c ****                 !( t->year % 400 ) )
 508:D:/Work/DeviceTester/amazon-freertos/lib/third_party/mbedtls/library\x509.c ****                 month_len = 29;
 509:D:/Work/DeviceTester/amazon-freertos/lib/third_party/mbedtls/library\x509.c ****             else
 510:D:/Work/DeviceTester/amazon-freertos/lib/third_party/mbedtls/library\x509.c ****                 month_len = 28;
 511:D:/Work/DeviceTester/amazon-freertos/lib/third_party/mbedtls/library\x509.c ****             break;
 512:D:/Work/DeviceTester/amazon-freertos/lib/third_party/mbedtls/library\x509.c ****         default:
 513:D:/Work/DeviceTester/amazon-freertos/lib/third_party/mbedtls/library\x509.c ****             return( ret );
 514:D:/Work/DeviceTester/amazon-freertos/lib/third_party/mbedtls/library\x509.c ****     }
 515:D:/Work/DeviceTester/amazon-freertos/lib/third_party/mbedtls/library\x509.c ****     CHECK_RANGE( 1, month_len, t->day );
 516:D:/Work/DeviceTester/amazon-freertos/lib/third_party/mbedtls/library\x509.c **** 
 517:D:/Work/DeviceTester/amazon-freertos/lib/third_party/mbedtls/library\x509.c ****     return( 0 );
 518:D:/Work/DeviceTester/amazon-freertos/lib/third_party/mbedtls/library\x509.c **** }
 519:D:/Work/DeviceTester/amazon-freertos/lib/third_party/mbedtls/library\x509.c **** 
 520:D:/Work/DeviceTester/amazon-freertos/lib/third_party/mbedtls/library\x509.c **** /*
 521:D:/Work/DeviceTester/amazon-freertos/lib/third_party/mbedtls/library\x509.c ****  * Parse an ASN1_UTC_TIME (yearlen=2) or ASN1_GENERALIZED_TIME (yearlen=4)
 522:D:/Work/DeviceTester/amazon-freertos/lib/third_party/mbedtls/library\x509.c ****  * field.
 523:D:/Work/DeviceTester/amazon-freertos/lib/third_party/mbedtls/library\x509.c ****  */
 524:D:/Work/DeviceTester/amazon-freertos/lib/third_party/mbedtls/library\x509.c **** static int x509_parse_time( unsigned char **p, size_t len, size_t yearlen,
 525:D:/Work/DeviceTester/amazon-freertos/lib/third_party/mbedtls/library\x509.c ****                             mbedtls_x509_time *tm )
 526:D:/Work/DeviceTester/amazon-freertos/lib/third_party/mbedtls/library\x509.c **** {
 527:D:/Work/DeviceTester/amazon-freertos/lib/third_party/mbedtls/library\x509.c ****     int ret;
 528:D:/Work/DeviceTester/amazon-freertos/lib/third_party/mbedtls/library\x509.c **** 
 529:D:/Work/DeviceTester/amazon-freertos/lib/third_party/mbedtls/library\x509.c ****     /*
 530:D:/Work/DeviceTester/amazon-freertos/lib/third_party/mbedtls/library\x509.c ****      * Minimum length is 10 or 12 depending on yearlen
 531:D:/Work/DeviceTester/amazon-freertos/lib/third_party/mbedtls/library\x509.c ****      */
 532:D:/Work/DeviceTester/amazon-freertos/lib/third_party/mbedtls/library\x509.c ****     if ( len < yearlen + 8 )
 533:D:/Work/DeviceTester/amazon-freertos/lib/third_party/mbedtls/library\x509.c ****         return ( MBEDTLS_ERR_X509_INVALID_DATE );
 534:D:/Work/DeviceTester/amazon-freertos/lib/third_party/mbedtls/library\x509.c ****     len -= yearlen + 8;
 535:D:/Work/DeviceTester/amazon-freertos/lib/third_party/mbedtls/library\x509.c **** 
 536:D:/Work/DeviceTester/amazon-freertos/lib/third_party/mbedtls/library\x509.c ****     /*
 537:D:/Work/DeviceTester/amazon-freertos/lib/third_party/mbedtls/library\x509.c ****      * Parse year, month, day, hour, minute
 538:D:/Work/DeviceTester/amazon-freertos/lib/third_party/mbedtls/library\x509.c ****      */
 539:D:/Work/DeviceTester/amazon-freertos/lib/third_party/mbedtls/library\x509.c ****     CHECK( x509_parse_int( p, yearlen, &tm->year ) );
 540:D:/Work/DeviceTester/amazon-freertos/lib/third_party/mbedtls/library\x509.c ****     if ( 2 == yearlen )
 541:D:/Work/DeviceTester/amazon-freertos/lib/third_party/mbedtls/library\x509.c ****     {
 542:D:/Work/DeviceTester/amazon-freertos/lib/third_party/mbedtls/library\x509.c ****         if ( tm->year < 50 )
 543:D:/Work/DeviceTester/amazon-freertos/lib/third_party/mbedtls/library\x509.c ****             tm->year += 100;
 544:D:/Work/DeviceTester/amazon-freertos/lib/third_party/mbedtls/library\x509.c **** 
 545:D:/Work/DeviceTester/amazon-freertos/lib/third_party/mbedtls/library\x509.c ****         tm->year += 1900;
 546:D:/Work/DeviceTester/amazon-freertos/lib/third_party/mbedtls/library\x509.c ****     }
 547:D:/Work/DeviceTester/amazon-freertos/lib/third_party/mbedtls/library\x509.c **** 
 548:D:/Work/DeviceTester/amazon-freertos/lib/third_party/mbedtls/library\x509.c ****     CHECK( x509_parse_int( p, 2, &tm->mon ) );
 549:D:/Work/DeviceTester/amazon-freertos/lib/third_party/mbedtls/library\x509.c ****     CHECK( x509_parse_int( p, 2, &tm->day ) );
 550:D:/Work/DeviceTester/amazon-freertos/lib/third_party/mbedtls/library\x509.c ****     CHECK( x509_parse_int( p, 2, &tm->hour ) );
 551:D:/Work/DeviceTester/amazon-freertos/lib/third_party/mbedtls/library\x509.c ****     CHECK( x509_parse_int( p, 2, &tm->min ) );
 552:D:/Work/DeviceTester/amazon-freertos/lib/third_party/mbedtls/library\x509.c **** 
 553:D:/Work/DeviceTester/amazon-freertos/lib/third_party/mbedtls/library\x509.c ****     /*
 554:D:/Work/DeviceTester/amazon-freertos/lib/third_party/mbedtls/library\x509.c ****      * Parse seconds if present
 555:D:/Work/DeviceTester/amazon-freertos/lib/third_party/mbedtls/library\x509.c ****      */
 556:D:/Work/DeviceTester/amazon-freertos/lib/third_party/mbedtls/library\x509.c ****     if ( len >= 2 )
 557:D:/Work/DeviceTester/amazon-freertos/lib/third_party/mbedtls/library\x509.c ****     {
 558:D:/Work/DeviceTester/amazon-freertos/lib/third_party/mbedtls/library\x509.c ****         CHECK( x509_parse_int( p, 2, &tm->sec ) );
 559:D:/Work/DeviceTester/amazon-freertos/lib/third_party/mbedtls/library\x509.c ****         len -= 2;
 560:D:/Work/DeviceTester/amazon-freertos/lib/third_party/mbedtls/library\x509.c ****     }
 561:D:/Work/DeviceTester/amazon-freertos/lib/third_party/mbedtls/library\x509.c ****     else
 562:D:/Work/DeviceTester/amazon-freertos/lib/third_party/mbedtls/library\x509.c ****         return ( MBEDTLS_ERR_X509_INVALID_DATE );
 563:D:/Work/DeviceTester/amazon-freertos/lib/third_party/mbedtls/library\x509.c **** 
 564:D:/Work/DeviceTester/amazon-freertos/lib/third_party/mbedtls/library\x509.c ****     /*
 565:D:/Work/DeviceTester/amazon-freertos/lib/third_party/mbedtls/library\x509.c ****      * Parse trailing 'Z' if present
 566:D:/Work/DeviceTester/amazon-freertos/lib/third_party/mbedtls/library\x509.c ****      */
 567:D:/Work/DeviceTester/amazon-freertos/lib/third_party/mbedtls/library\x509.c ****     if ( 1 == len && 'Z' == **p )
 568:D:/Work/DeviceTester/amazon-freertos/lib/third_party/mbedtls/library\x509.c ****     {
 569:D:/Work/DeviceTester/amazon-freertos/lib/third_party/mbedtls/library\x509.c ****         (*p)++;
 570:D:/Work/DeviceTester/amazon-freertos/lib/third_party/mbedtls/library\x509.c ****         len--;
 571:D:/Work/DeviceTester/amazon-freertos/lib/third_party/mbedtls/library\x509.c ****     }
 572:D:/Work/DeviceTester/amazon-freertos/lib/third_party/mbedtls/library\x509.c **** 
 573:D:/Work/DeviceTester/amazon-freertos/lib/third_party/mbedtls/library\x509.c ****     /*
 574:D:/Work/DeviceTester/amazon-freertos/lib/third_party/mbedtls/library\x509.c ****      * We should have parsed all characters at this point
 575:D:/Work/DeviceTester/amazon-freertos/lib/third_party/mbedtls/library\x509.c ****      */
 576:D:/Work/DeviceTester/amazon-freertos/lib/third_party/mbedtls/library\x509.c ****     if ( 0 != len )
 577:D:/Work/DeviceTester/amazon-freertos/lib/third_party/mbedtls/library\x509.c ****         return ( MBEDTLS_ERR_X509_INVALID_DATE );
 578:D:/Work/DeviceTester/amazon-freertos/lib/third_party/mbedtls/library\x509.c **** 
 579:D:/Work/DeviceTester/amazon-freertos/lib/third_party/mbedtls/library\x509.c ****     CHECK( x509_date_is_valid( tm ) );
 580:D:/Work/DeviceTester/amazon-freertos/lib/third_party/mbedtls/library\x509.c **** 
 581:D:/Work/DeviceTester/amazon-freertos/lib/third_party/mbedtls/library\x509.c ****     return ( 0 );
 582:D:/Work/DeviceTester/amazon-freertos/lib/third_party/mbedtls/library\x509.c **** }
 583:D:/Work/DeviceTester/amazon-freertos/lib/third_party/mbedtls/library\x509.c **** 
 584:D:/Work/DeviceTester/amazon-freertos/lib/third_party/mbedtls/library\x509.c **** /*
 585:D:/Work/DeviceTester/amazon-freertos/lib/third_party/mbedtls/library\x509.c ****  *  Time ::= CHOICE {
 586:D:/Work/DeviceTester/amazon-freertos/lib/third_party/mbedtls/library\x509.c ****  *       utcTime        UTCTime,
 587:D:/Work/DeviceTester/amazon-freertos/lib/third_party/mbedtls/library\x509.c ****  *       generalTime    GeneralizedTime }
 588:D:/Work/DeviceTester/amazon-freertos/lib/third_party/mbedtls/library\x509.c ****  */
 589:D:/Work/DeviceTester/amazon-freertos/lib/third_party/mbedtls/library\x509.c **** int mbedtls_x509_get_time( unsigned char **p, const unsigned char *end,
 590:D:/Work/DeviceTester/amazon-freertos/lib/third_party/mbedtls/library\x509.c ****                            mbedtls_x509_time *tm )
 591:D:/Work/DeviceTester/amazon-freertos/lib/third_party/mbedtls/library\x509.c **** {
 476              		.loc 1 591 0
 477              		.cfi_startproc
 478              		@ args = 0, pretend = 0, frame = 8
 479              		@ frame_needed = 0, uses_anonymous_args = 0
 480              	.LVL44:
 592:D:/Work/DeviceTester/amazon-freertos/lib/third_party/mbedtls/library\x509.c ****     int ret;
 593:D:/Work/DeviceTester/amazon-freertos/lib/third_party/mbedtls/library\x509.c ****     size_t len, year_len;
 594:D:/Work/DeviceTester/amazon-freertos/lib/third_party/mbedtls/library\x509.c ****     unsigned char tag;
 595:D:/Work/DeviceTester/amazon-freertos/lib/third_party/mbedtls/library\x509.c **** 
 596:D:/Work/DeviceTester/amazon-freertos/lib/third_party/mbedtls/library\x509.c ****     if( ( end - *p ) < 1 )
 481              		.loc 1 596 0
 482 0000 003090E5 		ldr	r3, [r0]
 591:D:/Work/DeviceTester/amazon-freertos/lib/third_party/mbedtls/library\x509.c ****     int ret;
 483              		.loc 1 591 0
 484 0004 F3412DE9 		push	{r0, r1, r4, r5, r6, r7, r8, lr}
 485              		.cfi_def_cfa_offset 32
 486              		.cfi_offset 4, -24
 487              		.cfi_offset 5, -20
 488              		.cfi_offset 6, -16
 489              		.cfi_offset 7, -12
 490              		.cfi_offset 8, -8
 491              		.cfi_offset 14, -4
 492              		.loc 1 596 0
 493 0008 03C041E0 		sub	ip, r1, r3
 494 000c 00005CE3 		cmp	ip, #0
 597:D:/Work/DeviceTester/amazon-freertos/lib/third_party/mbedtls/library\x509.c ****         return( MBEDTLS_ERR_X509_INVALID_DATE +
 495              		.loc 1 597 0
 496 0010 30629FD5 		ldrle	r6, .L80
 596:D:/Work/DeviceTester/amazon-freertos/lib/third_party/mbedtls/library\x509.c ****         return( MBEDTLS_ERR_X509_INVALID_DATE +
 497              		.loc 1 596 0
 498 0014 840000DA 		ble	.L58
 598:D:/Work/DeviceTester/amazon-freertos/lib/third_party/mbedtls/library\x509.c ****                 MBEDTLS_ERR_ASN1_OUT_OF_DATA );
 599:D:/Work/DeviceTester/amazon-freertos/lib/third_party/mbedtls/library\x509.c **** 
 600:D:/Work/DeviceTester/amazon-freertos/lib/third_party/mbedtls/library\x509.c ****     tag = **p;
 499              		.loc 1 600 0
 500 0018 00C0D3E5 		ldrb	ip, [r3]	@ zero_extendqisi2
 501              	.LVL45:
 601:D:/Work/DeviceTester/amazon-freertos/lib/third_party/mbedtls/library\x509.c **** 
 602:D:/Work/DeviceTester/amazon-freertos/lib/third_party/mbedtls/library\x509.c ****     if( tag == MBEDTLS_ASN1_UTC_TIME )
 502              		.loc 1 602 0
 503 001c 17005CE3 		cmp	ip, #23
 504 0020 0400000A 		beq	.L70
 603:D:/Work/DeviceTester/amazon-freertos/lib/third_party/mbedtls/library\x509.c ****         year_len = 2;
 604:D:/Work/DeviceTester/amazon-freertos/lib/third_party/mbedtls/library\x509.c ****     else if( tag == MBEDTLS_ASN1_GENERALIZED_TIME )
 505              		.loc 1 604 0
 506 0024 18005CE3 		cmp	ip, #24
 605:D:/Work/DeviceTester/amazon-freertos/lib/third_party/mbedtls/library\x509.c ****         year_len = 4;
 507              		.loc 1 605 0
 508 0028 0480A003 		moveq	r8, #4
 604:D:/Work/DeviceTester/amazon-freertos/lib/third_party/mbedtls/library\x509.c ****         year_len = 4;
 509              		.loc 1 604 0
 510 002c 0200000A 		beq	.L60
 606:D:/Work/DeviceTester/amazon-freertos/lib/third_party/mbedtls/library\x509.c ****     else
 607:D:/Work/DeviceTester/amazon-freertos/lib/third_party/mbedtls/library\x509.c ****         return( MBEDTLS_ERR_X509_INVALID_DATE +
 511              		.loc 1 607 0
 512 0030 14629FE5 		ldr	r6, .L80+4
 513 0034 7C0000EA 		b	.L58
 514              	.L70:
 603:D:/Work/DeviceTester/amazon-freertos/lib/third_party/mbedtls/library\x509.c ****     else if( tag == MBEDTLS_ASN1_GENERALIZED_TIME )
 515              		.loc 1 603 0
 516 0038 0280A0E3 		mov	r8, #2
 517              	.L60:
 608:D:/Work/DeviceTester/amazon-freertos/lib/third_party/mbedtls/library\x509.c ****                 MBEDTLS_ERR_ASN1_UNEXPECTED_TAG );
 609:D:/Work/DeviceTester/amazon-freertos/lib/third_party/mbedtls/library\x509.c **** 
 610:D:/Work/DeviceTester/amazon-freertos/lib/third_party/mbedtls/library\x509.c ****     (*p)++;
 518              		.loc 1 610 0
 519 003c 013083E2 		add	r3, r3, #1
 520 0040 0240A0E1 		mov	r4, r2
 521 0044 003080E5 		str	r3, [r0]
 611:D:/Work/DeviceTester/amazon-freertos/lib/third_party/mbedtls/library\x509.c ****     ret = mbedtls_asn1_get_len( p, end, &len );
 522              		.loc 1 611 0
 523 0048 04208DE2 		add	r2, sp, #4
 524              	.LVL46:
 525 004c 0050A0E1 		mov	r5, r0
 526              	.LVL47:
 527 0050 FEFFFFEB 		bl	mbedtls_asn1_get_len
 528              	.LVL48:
 612:D:/Work/DeviceTester/amazon-freertos/lib/third_party/mbedtls/library\x509.c **** 
 613:D:/Work/DeviceTester/amazon-freertos/lib/third_party/mbedtls/library\x509.c ****     if( ret != 0 )
 529              		.loc 1 613 0
 530 0054 000050E3 		cmp	r0, #0
 614:D:/Work/DeviceTester/amazon-freertos/lib/third_party/mbedtls/library\x509.c ****         return( MBEDTLS_ERR_X509_INVALID_DATE + ret );
 531              		.loc 1 614 0
 532 0058 096B4012 		subne	r6, r0, #9216
 613:D:/Work/DeviceTester/amazon-freertos/lib/third_party/mbedtls/library\x509.c ****         return( MBEDTLS_ERR_X509_INVALID_DATE + ret );
 533              		.loc 1 613 0
 534 005c 7200001A 		bne	.L58
 615:D:/Work/DeviceTester/amazon-freertos/lib/third_party/mbedtls/library\x509.c **** 
 616:D:/Work/DeviceTester/amazon-freertos/lib/third_party/mbedtls/library\x509.c ****     return x509_parse_time( p, len, year_len, tm );
 535              		.loc 1 616 0
 536 0060 04709DE5 		ldr	r7, [sp, #4]
 537              	.LVL49:
 538              	.LBB16:
 539              	.LBB17:
 532:D:/Work/DeviceTester/amazon-freertos/lib/third_party/mbedtls/library\x509.c ****         return ( MBEDTLS_ERR_X509_INVALID_DATE );
 540              		.loc 1 532 0
 541 0064 083088E2 		add	r3, r8, #8
 542 0068 030057E1 		cmp	r7, r3
 543 006c 3A00003A 		bcc	.L62
 544              	.LVL50:
 539:D:/Work/DeviceTester/amazon-freertos/lib/third_party/mbedtls/library\x509.c ****     if ( 2 == yearlen )
 545              		.loc 1 539 0
 546 0070 0420A0E1 		mov	r2, r4
 547 0074 0810A0E1 		mov	r1, r8
 548 0078 0500A0E1 		mov	r0, r5
 549              	.LVL51:
 550 007c FEFFFFEB 		bl	x509_parse_int
 551              	.LVL52:
 552 0080 006050E2 		subs	r6, r0, #0
 553 0084 6800001A 		bne	.L58
 554              	.LVL53:
 540:D:/Work/DeviceTester/amazon-freertos/lib/third_party/mbedtls/library\x509.c ****     {
 555              		.loc 1 540 0
 556 0088 020058E3 		cmp	r8, #2
 557 008c 0700001A 		bne	.L63
 542:D:/Work/DeviceTester/amazon-freertos/lib/third_party/mbedtls/library\x509.c ****             tm->year += 100;
 558              		.loc 1 542 0
 559 0090 003094E5 		ldr	r3, [r4]
 560 0094 310053E3 		cmp	r3, #49
 543:D:/Work/DeviceTester/amazon-freertos/lib/third_party/mbedtls/library\x509.c **** 
 561              		.loc 1 543 0
 562 0098 643083D2 		addle	r3, r3, #100
 563 009c 003084D5 		strle	r3, [r4]
 545:D:/Work/DeviceTester/amazon-freertos/lib/third_party/mbedtls/library\x509.c ****     }
 564              		.loc 1 545 0
 565 00a0 003094E5 		ldr	r3, [r4]
 566 00a4 763E83E2 		add	r3, r3, #1888
 567 00a8 0C3083E2 		add	r3, r3, #12
 568 00ac 003084E5 		str	r3, [r4]
 569              	.L63:
 548:D:/Work/DeviceTester/amazon-freertos/lib/third_party/mbedtls/library\x509.c ****     CHECK( x509_parse_int( p, 2, &tm->day ) );
 570              		.loc 1 548 0
 571 00b0 042084E2 		add	r2, r4, #4
 572              	.LVL54:
 573 00b4 0210A0E3 		mov	r1, #2
 574 00b8 0500A0E1 		mov	r0, r5
 575              	.LVL55:
 576 00bc FEFFFFEB 		bl	x509_parse_int
 577              	.LVL56:
 578 00c0 006050E2 		subs	r6, r0, #0
 579 00c4 5800001A 		bne	.L58
 549:D:/Work/DeviceTester/amazon-freertos/lib/third_party/mbedtls/library\x509.c ****     CHECK( x509_parse_int( p, 2, &tm->hour ) );
 580              		.loc 1 549 0
 581 00c8 082084E2 		add	r2, r4, #8
 582 00cc 0210A0E3 		mov	r1, #2
 583 00d0 0500A0E1 		mov	r0, r5
 584              	.LVL57:
 585 00d4 FEFFFFEB 		bl	x509_parse_int
 586              	.LVL58:
 587 00d8 006050E2 		subs	r6, r0, #0
 588 00dc 5200001A 		bne	.L58
 550:D:/Work/DeviceTester/amazon-freertos/lib/third_party/mbedtls/library\x509.c ****     CHECK( x509_parse_int( p, 2, &tm->min ) );
 589              		.loc 1 550 0
 590 00e0 0C2084E2 		add	r2, r4, #12
 591 00e4 0210A0E3 		mov	r1, #2
 592 00e8 0500A0E1 		mov	r0, r5
 593              	.LVL59:
 594 00ec FEFFFFEB 		bl	x509_parse_int
 595              	.LVL60:
 596 00f0 006050E2 		subs	r6, r0, #0
 597 00f4 4C00001A 		bne	.L58
 551:D:/Work/DeviceTester/amazon-freertos/lib/third_party/mbedtls/library\x509.c **** 
 598              		.loc 1 551 0
 599 00f8 102084E2 		add	r2, r4, #16
 600 00fc 0210A0E3 		mov	r1, #2
 601 0100 0500A0E1 		mov	r0, r5
 602              	.LVL61:
 603 0104 FEFFFFEB 		bl	x509_parse_int
 604              	.LVL62:
 605 0108 006050E2 		subs	r6, r0, #0
 606 010c 4600001A 		bne	.L58
 534:D:/Work/DeviceTester/amazon-freertos/lib/third_party/mbedtls/library\x509.c **** 
 607              		.loc 1 534 0
 608 0110 087047E0 		sub	r7, r7, r8
 609              	.LVL63:
 610 0114 083047E2 		sub	r3, r7, #8
 556:D:/Work/DeviceTester/amazon-freertos/lib/third_party/mbedtls/library\x509.c ****     {
 611              		.loc 1 556 0
 612 0118 010053E3 		cmp	r3, #1
 613 011c 0E00009A 		bls	.L62
 558:D:/Work/DeviceTester/amazon-freertos/lib/third_party/mbedtls/library\x509.c ****         len -= 2;
 614              		.loc 1 558 0
 615 0120 142084E2 		add	r2, r4, #20
 616 0124 0210A0E3 		mov	r1, #2
 617 0128 0500A0E1 		mov	r0, r5
 618              	.LVL64:
 619 012c FEFFFFEB 		bl	x509_parse_int
 620              	.LVL65:
 621 0130 006050E2 		subs	r6, r0, #0
 622 0134 3C00001A 		bne	.L58
 559:D:/Work/DeviceTester/amazon-freertos/lib/third_party/mbedtls/library\x509.c ****     }
 623              		.loc 1 559 0
 624 0138 0A7047E2 		sub	r7, r7, #10
 625              	.LVL66:
 567:D:/Work/DeviceTester/amazon-freertos/lib/third_party/mbedtls/library\x509.c ****     {
 626              		.loc 1 567 0
 627 013c 010057E3 		cmp	r7, #1
 628 0140 0700001A 		bne	.L65
 629 0144 003095E5 		ldr	r3, [r5]
 630 0148 0020D3E5 		ldrb	r2, [r3]	@ zero_extendqisi2
 631 014c 5A0052E3 		cmp	r2, #90
 569:D:/Work/DeviceTester/amazon-freertos/lib/third_party/mbedtls/library\x509.c ****         len--;
 632              		.loc 1 569 0
 633 0150 01308302 		addeq	r3, r3, #1
 634 0154 00308505 		streq	r3, [r5]
 567:D:/Work/DeviceTester/amazon-freertos/lib/third_party/mbedtls/library\x509.c ****     {
 635              		.loc 1 567 0
 636 0158 0300000A 		beq	.L66
 637              	.LVL67:
 638              	.L62:
 639              	.LBE17:
 640              	.LBE16:
 607:D:/Work/DeviceTester/amazon-freertos/lib/third_party/mbedtls/library\x509.c ****                 MBEDTLS_ERR_ASN1_UNEXPECTED_TAG );
 641              		.loc 1 607 0
 642 015c EC609FE5 		ldr	r6, .L80+8
 643 0160 310000EA 		b	.L58
 644              	.LVL68:
 645              	.L65:
 646              	.LBB24:
 647              	.LBB22:
 576:D:/Work/DeviceTester/amazon-freertos/lib/third_party/mbedtls/library\x509.c ****         return ( MBEDTLS_ERR_X509_INVALID_DATE );
 648              		.loc 1 576 0
 649 0164 000057E3 		cmp	r7, #0
 650 0168 FBFFFF1A 		bne	.L62
 651              	.L66:
 652              	.LVL69:
 653              	.LBB18:
 654              	.LBB19:
 492:D:/Work/DeviceTester/amazon-freertos/lib/third_party/mbedtls/library\x509.c ****     CHECK_RANGE( 0, 23,   t->hour );
 655              		.loc 1 492 0
 656 016c 005094E5 		ldr	r5, [r4]
 657              	.LVL70:
 658 0170 0F3702E3 		movw	r3, #9999
 659 0174 030055E1 		cmp	r5, r3
 660 0178 F7FFFF8A 		bhi	.L62
 493:D:/Work/DeviceTester/amazon-freertos/lib/third_party/mbedtls/library\x509.c ****     CHECK_RANGE( 0, 59,   t->min  );
 661              		.loc 1 493 0
 662 017c 0C3094E5 		ldr	r3, [r4, #12]
 663 0180 170053E3 		cmp	r3, #23
 664 0184 F4FFFF8A 		bhi	.L62
 494:D:/Work/DeviceTester/amazon-freertos/lib/third_party/mbedtls/library\x509.c ****     CHECK_RANGE( 0, 59,   t->sec  );
 665              		.loc 1 494 0
 666 0188 103094E5 		ldr	r3, [r4, #16]
 667 018c 3B0053E3 		cmp	r3, #59
 668 0190 F1FFFF8A 		bhi	.L62
 495:D:/Work/DeviceTester/amazon-freertos/lib/third_party/mbedtls/library\x509.c **** 
 669              		.loc 1 495 0
 670 0194 143094E5 		ldr	r3, [r4, #20]
 671 0198 3B0053E3 		cmp	r3, #59
 672 019c EEFFFF8A 		bhi	.L62
 673 01a0 042094E5 		ldr	r2, [r4, #4]
 674 01a4 0C0052E3 		cmp	r2, #12
 675 01a8 EBFFFF8A 		bhi	.L62
 676 01ac 0130A0E3 		mov	r3, #1
 677 01b0 1332A0E1 		lsl	r3, r3, r2
 678 01b4 AA2501E3 		movw	r2, #5546
 679 01b8 020013E1 		tst	r3, r2
 680 01bc 1D00001A 		bne	.L72
 681 01c0 A50E13E3 		tst	r3, #2640
 682 01c4 1D00001A 		bne	.L73
 683 01c8 040013E3 		tst	r3, #4
 684 01cc E2FFFF0A 		beq	.L62
 506:D:/Work/DeviceTester/amazon-freertos/lib/third_party/mbedtls/library\x509.c ****                 !( t->year % 400 ) )
 685              		.loc 1 506 0
 686 01d0 030015E3 		tst	r5, #3
 687 01d4 0500001A 		bne	.L68
 688 01d8 6410A0E3 		mov	r1, #100
 689 01dc 0500A0E1 		mov	r0, r5
 690              	.LVL71:
 691 01e0 FEFFFFEB 		bl	__aeabi_idivmod
 692              	.LVL72:
 693 01e4 000051E3 		cmp	r1, #0
 508:D:/Work/DeviceTester/amazon-freertos/lib/third_party/mbedtls/library\x509.c ****             else
 694              		.loc 1 508 0
 695 01e8 1D30A013 		movne	r3, #29
 506:D:/Work/DeviceTester/amazon-freertos/lib/third_party/mbedtls/library\x509.c ****                 !( t->year % 400 ) )
 696              		.loc 1 506 0
 697 01ec 0500001A 		bne	.L67
 698              	.L68:
 507:D:/Work/DeviceTester/amazon-freertos/lib/third_party/mbedtls/library\x509.c ****                 month_len = 29;
 699              		.loc 1 507 0
 700 01f0 191EA0E3 		mov	r1, #400
 701 01f4 0500A0E1 		mov	r0, r5
 702 01f8 FEFFFFEB 		bl	__aeabi_idivmod
 703              	.LVL73:
 510:D:/Work/DeviceTester/amazon-freertos/lib/third_party/mbedtls/library\x509.c ****             break;
 704              		.loc 1 510 0
 705 01fc 000051E3 		cmp	r1, #0
 706 0200 1D30A003 		moveq	r3, #29
 707 0204 1C30A013 		movne	r3, #28
 708              	.L67:
 709              	.LVL74:
 515:D:/Work/DeviceTester/amazon-freertos/lib/third_party/mbedtls/library\x509.c **** 
 710              		.loc 1 515 0
 711 0208 081094E5 		ldr	r1, [r4, #8]
 712 020c 000051E3 		cmp	r1, #0
 713 0210 0020A0C3 		movgt	r2, #0
 714 0214 0120A0D3 		movle	r2, #1
 715 0218 030051E1 		cmp	r1, r3
 716 021c 0230A0D1 		movle	r3, r2
 717 0220 013082C3 		orrgt	r3, r2, #1
 718              	.LVL75:
 719 0224 000053E3 		cmp	r3, #0
 720 0228 CBFFFF1A 		bne	.L62
 721              	.LVL76:
 722              	.L58:
 723              	.LBE19:
 724              	.LBE18:
 725              	.LBE22:
 726              	.LBE24:
 617:D:/Work/DeviceTester/amazon-freertos/lib/third_party/mbedtls/library\x509.c **** }
 727              		.loc 1 617 0
 728 022c 0600A0E1 		mov	r0, r6
 729 0230 08D08DE2 		add	sp, sp, #8
 730              		.cfi_remember_state
 731              		.cfi_def_cfa_offset 24
 732              		@ sp needed
 733 0234 F081BDE8 		pop	{r4, r5, r6, r7, r8, pc}
 734              	.LVL77:
 735              	.L72:
 736              		.cfi_restore_state
 737              	.LBB25:
 738              	.LBB23:
 739              	.LBB21:
 740              	.LBB20:
 500:D:/Work/DeviceTester/amazon-freertos/lib/third_party/mbedtls/library\x509.c ****             break;
 741              		.loc 1 500 0
 742 0238 1F30A0E3 		mov	r3, #31
 743 023c F1FFFFEA 		b	.L67
 744              	.L73:
 503:D:/Work/DeviceTester/amazon-freertos/lib/third_party/mbedtls/library\x509.c ****             break;
 745              		.loc 1 503 0
 746 0240 1E30A0E3 		mov	r3, #30
 747 0244 EFFFFFEA 		b	.L67
 748              	.L81:
 749              		.align	2
 750              	.L80:
 751 0248 A0DBFFFF 		.word	-9312
 752 024c 9EDBFFFF 		.word	-9314
 753 0250 00DCFFFF 		.word	-9216
 754              	.LBE20:
 755              	.LBE21:
 756              	.LBE23:
 757              	.LBE25:
 758              		.cfi_endproc
 759              	.LFE19:
 761              		.section	.text.mbedtls_x509_get_sig,"ax",%progbits
 762              		.align	2
 763              		.global	mbedtls_x509_get_sig
 764              		.syntax unified
 765              		.arm
 766              		.fpu neon
 768              	mbedtls_x509_get_sig:
 769              	.LFB20:
 618:D:/Work/DeviceTester/amazon-freertos/lib/third_party/mbedtls/library\x509.c **** 
 619:D:/Work/DeviceTester/amazon-freertos/lib/third_party/mbedtls/library\x509.c **** int mbedtls_x509_get_sig( unsigned char **p, const unsigned char *end, mbedtls_x509_buf *sig )
 620:D:/Work/DeviceTester/amazon-freertos/lib/third_party/mbedtls/library\x509.c **** {
 770              		.loc 1 620 0
 771              		.cfi_startproc
 772              		@ args = 0, pretend = 0, frame = 8
 773              		@ frame_needed = 0, uses_anonymous_args = 0
 774              	.LVL78:
 621:D:/Work/DeviceTester/amazon-freertos/lib/third_party/mbedtls/library\x509.c ****     int ret;
 622:D:/Work/DeviceTester/amazon-freertos/lib/third_party/mbedtls/library\x509.c ****     size_t len;
 623:D:/Work/DeviceTester/amazon-freertos/lib/third_party/mbedtls/library\x509.c ****     int tag_type;
 624:D:/Work/DeviceTester/amazon-freertos/lib/third_party/mbedtls/library\x509.c **** 
 625:D:/Work/DeviceTester/amazon-freertos/lib/third_party/mbedtls/library\x509.c ****     if( ( end - *p ) < 1 )
 775              		.loc 1 625 0
 776 0000 003090E5 		ldr	r3, [r0]
 620:D:/Work/DeviceTester/amazon-freertos/lib/third_party/mbedtls/library\x509.c ****     int ret;
 777              		.loc 1 620 0
 778 0004 73402DE9 		push	{r0, r1, r4, r5, r6, lr}
 779              		.cfi_def_cfa_offset 24
 780              		.cfi_offset 4, -16
 781              		.cfi_offset 5, -12
 782              		.cfi_offset 6, -8
 783              		.cfi_offset 14, -4
 784              		.loc 1 625 0
 785 0008 03C041E0 		sub	ip, r1, r3
 786 000c 00005CE3 		cmp	ip, #0
 626:D:/Work/DeviceTester/amazon-freertos/lib/third_party/mbedtls/library\x509.c ****         return( MBEDTLS_ERR_X509_INVALID_SIGNATURE +
 787              		.loc 1 626 0
 788 0010 44009FD5 		ldrle	r0, .L87
 789              	.LVL79:
 625:D:/Work/DeviceTester/amazon-freertos/lib/third_party/mbedtls/library\x509.c ****         return( MBEDTLS_ERR_X509_INVALID_SIGNATURE +
 790              		.loc 1 625 0
 791 0014 0E0000DA 		ble	.L82
 792 0018 0250A0E1 		mov	r5, r2
 627:D:/Work/DeviceTester/amazon-freertos/lib/third_party/mbedtls/library\x509.c ****                 MBEDTLS_ERR_ASN1_OUT_OF_DATA );
 628:D:/Work/DeviceTester/amazon-freertos/lib/third_party/mbedtls/library\x509.c **** 
 629:D:/Work/DeviceTester/amazon-freertos/lib/third_party/mbedtls/library\x509.c ****     tag_type = **p;
 630:D:/Work/DeviceTester/amazon-freertos/lib/third_party/mbedtls/library\x509.c **** 
 631:D:/Work/DeviceTester/amazon-freertos/lib/third_party/mbedtls/library\x509.c ****     if( ( ret = mbedtls_asn1_get_bitstring_null( p, end, &len ) ) != 0 )
 793              		.loc 1 631 0
 794 001c 04208DE2 		add	r2, sp, #4
 795              	.LVL80:
 629:D:/Work/DeviceTester/amazon-freertos/lib/third_party/mbedtls/library\x509.c **** 
 796              		.loc 1 629 0
 797 0020 0060D3E5 		ldrb	r6, [r3]	@ zero_extendqisi2
 798              	.LVL81:
 799 0024 0040A0E1 		mov	r4, r0
 800              		.loc 1 631 0
 801 0028 FEFFFFEB 		bl	mbedtls_asn1_get_bitstring_null
 802              	.LVL82:
 803 002c 000050E3 		cmp	r0, #0
 632:D:/Work/DeviceTester/amazon-freertos/lib/third_party/mbedtls/library\x509.c ****         return( MBEDTLS_ERR_X509_INVALID_SIGNATURE + ret );
 633:D:/Work/DeviceTester/amazon-freertos/lib/third_party/mbedtls/library\x509.c **** 
 634:D:/Work/DeviceTester/amazon-freertos/lib/third_party/mbedtls/library\x509.c ****     sig->tag = tag_type;
 635:D:/Work/DeviceTester/amazon-freertos/lib/third_party/mbedtls/library\x509.c ****     sig->len = len;
 636:D:/Work/DeviceTester/amazon-freertos/lib/third_party/mbedtls/library\x509.c ****     sig->p = *p;
 804              		.loc 1 636 0
 805 0030 00309405 		ldreq	r3, [r4]
 632:D:/Work/DeviceTester/amazon-freertos/lib/third_party/mbedtls/library\x509.c ****         return( MBEDTLS_ERR_X509_INVALID_SIGNATURE + ret );
 806              		.loc 1 632 0
 807 0034 920D4012 		subne	r0, r0, #9344
 808              	.LVL83:
 635:D:/Work/DeviceTester/amazon-freertos/lib/third_party/mbedtls/library\x509.c ****     sig->p = *p;
 809              		.loc 1 635 0
 810 0038 04209D05 		ldreq	r2, [sp, #4]
 629:D:/Work/DeviceTester/amazon-freertos/lib/third_party/mbedtls/library\x509.c **** 
 811              		.loc 1 629 0
 812 003c 00608505 		streq	r6, [r5]
 813              		.loc 1 636 0
 814 0040 08308505 		streq	r3, [r5, #8]
 637:D:/Work/DeviceTester/amazon-freertos/lib/third_party/mbedtls/library\x509.c **** 
 638:D:/Work/DeviceTester/amazon-freertos/lib/third_party/mbedtls/library\x509.c ****     *p += len;
 815              		.loc 1 638 0
 816 0044 00309405 		ldreq	r3, [r4]
 635:D:/Work/DeviceTester/amazon-freertos/lib/third_party/mbedtls/library\x509.c ****     sig->p = *p;
 817              		.loc 1 635 0
 818 0048 04208505 		streq	r2, [r5, #4]
 819              		.loc 1 638 0
 820 004c 02308300 		addeq	r3, r3, r2
 821 0050 00308405 		streq	r3, [r4]
 822              	.LVL84:
 823              	.L82:
 639:D:/Work/DeviceTester/amazon-freertos/lib/third_party/mbedtls/library\x509.c **** 
 640:D:/Work/DeviceTester/amazon-freertos/lib/third_party/mbedtls/library\x509.c ****     return( 0 );
 641:D:/Work/DeviceTester/amazon-freertos/lib/third_party/mbedtls/library\x509.c **** }
 824              		.loc 1 641 0
 825 0054 08D08DE2 		add	sp, sp, #8
 826              		.cfi_def_cfa_offset 16
 827              		@ sp needed
 828 0058 7080BDE8 		pop	{r4, r5, r6, pc}
 829              	.L88:
 830              		.align	2
 831              	.L87:
 832 005c 20DBFFFF 		.word	-9440
 833              		.cfi_endproc
 834              	.LFE20:
 836              		.section	.text.mbedtls_x509_get_sig_alg,"ax",%progbits
 837              		.align	2
 838              		.global	mbedtls_x509_get_sig_alg
 839              		.syntax unified
 840              		.arm
 841              		.fpu neon
 843              	mbedtls_x509_get_sig_alg:
 844              	.LFB21:
 642:D:/Work/DeviceTester/amazon-freertos/lib/third_party/mbedtls/library\x509.c **** 
 643:D:/Work/DeviceTester/amazon-freertos/lib/third_party/mbedtls/library\x509.c **** /*
 644:D:/Work/DeviceTester/amazon-freertos/lib/third_party/mbedtls/library\x509.c ****  * Get signature algorithm from alg OID and optional parameters
 645:D:/Work/DeviceTester/amazon-freertos/lib/third_party/mbedtls/library\x509.c ****  */
 646:D:/Work/DeviceTester/amazon-freertos/lib/third_party/mbedtls/library\x509.c **** int mbedtls_x509_get_sig_alg( const mbedtls_x509_buf *sig_oid, const mbedtls_x509_buf *sig_params,
 647:D:/Work/DeviceTester/amazon-freertos/lib/third_party/mbedtls/library\x509.c ****                       mbedtls_md_type_t *md_alg, mbedtls_pk_type_t *pk_alg,
 648:D:/Work/DeviceTester/amazon-freertos/lib/third_party/mbedtls/library\x509.c ****                       void **sig_opts )
 649:D:/Work/DeviceTester/amazon-freertos/lib/third_party/mbedtls/library\x509.c **** {
 845              		.loc 1 649 0
 846              		.cfi_startproc
 847              		@ args = 4, pretend = 0, frame = 0
 848              		@ frame_needed = 0, uses_anonymous_args = 0
 849              	.LVL85:
 850 0000 10402DE9 		push	{r4, lr}
 851              		.cfi_def_cfa_offset 8
 852              		.cfi_offset 4, -8
 853              		.cfi_offset 14, -4
 854              		.loc 1 649 0
 855 0004 0140A0E1 		mov	r4, r1
 856 0008 0210A0E1 		mov	r1, r2
 857              	.LVL86:
 650:D:/Work/DeviceTester/amazon-freertos/lib/third_party/mbedtls/library\x509.c ****     int ret;
 651:D:/Work/DeviceTester/amazon-freertos/lib/third_party/mbedtls/library\x509.c **** 
 652:D:/Work/DeviceTester/amazon-freertos/lib/third_party/mbedtls/library\x509.c ****     if( *sig_opts != NULL )
 858              		.loc 1 652 0
 859 000c 08209DE5 		ldr	r2, [sp, #8]
 860              	.LVL87:
 861 0010 002092E5 		ldr	r2, [r2]
 862 0014 000052E3 		cmp	r2, #0
 863 0018 0E00001A 		bne	.L92
 864 001c 0320A0E1 		mov	r2, r3
 653:D:/Work/DeviceTester/amazon-freertos/lib/third_party/mbedtls/library\x509.c ****         return( MBEDTLS_ERR_X509_BAD_INPUT_DATA );
 654:D:/Work/DeviceTester/amazon-freertos/lib/third_party/mbedtls/library\x509.c **** 
 655:D:/Work/DeviceTester/amazon-freertos/lib/third_party/mbedtls/library\x509.c ****     if( ( ret = mbedtls_oid_get_sig_alg( sig_oid, md_alg, pk_alg ) ) != 0 )
 865              		.loc 1 655 0
 866 0020 FEFFFFEB 		bl	mbedtls_oid_get_sig_alg
 867              	.LVL88:
 868 0024 000050E3 		cmp	r0, #0
 869 0028 0100000A 		beq	.L91
 656:D:/Work/DeviceTester/amazon-freertos/lib/third_party/mbedtls/library\x509.c ****         return( MBEDTLS_ERR_X509_UNKNOWN_SIG_ALG + ret );
 870              		.loc 1 656 0
 871 002c 260C40E2 		sub	r0, r0, #9728
 872              	.LVL89:
 873 0030 1080BDE8 		pop	{r4, pc}
 874              	.LVL90:
 875              	.L91:
 657:D:/Work/DeviceTester/amazon-freertos/lib/third_party/mbedtls/library\x509.c **** 
 658:D:/Work/DeviceTester/amazon-freertos/lib/third_party/mbedtls/library\x509.c **** #if defined(MBEDTLS_X509_RSASSA_PSS_SUPPORT)
 659:D:/Work/DeviceTester/amazon-freertos/lib/third_party/mbedtls/library\x509.c ****     if( *pk_alg == MBEDTLS_PK_RSASSA_PSS )
 660:D:/Work/DeviceTester/amazon-freertos/lib/third_party/mbedtls/library\x509.c ****     {
 661:D:/Work/DeviceTester/amazon-freertos/lib/third_party/mbedtls/library\x509.c ****         mbedtls_pk_rsassa_pss_options *pss_opts;
 662:D:/Work/DeviceTester/amazon-freertos/lib/third_party/mbedtls/library\x509.c **** 
 663:D:/Work/DeviceTester/amazon-freertos/lib/third_party/mbedtls/library\x509.c ****         pss_opts = mbedtls_calloc( 1, sizeof( mbedtls_pk_rsassa_pss_options ) );
 664:D:/Work/DeviceTester/amazon-freertos/lib/third_party/mbedtls/library\x509.c ****         if( pss_opts == NULL )
 665:D:/Work/DeviceTester/amazon-freertos/lib/third_party/mbedtls/library\x509.c ****             return( MBEDTLS_ERR_X509_ALLOC_FAILED );
 666:D:/Work/DeviceTester/amazon-freertos/lib/third_party/mbedtls/library\x509.c **** 
 667:D:/Work/DeviceTester/amazon-freertos/lib/third_party/mbedtls/library\x509.c ****         ret = mbedtls_x509_get_rsassa_pss_params( sig_params,
 668:D:/Work/DeviceTester/amazon-freertos/lib/third_party/mbedtls/library\x509.c ****                                           md_alg,
 669:D:/Work/DeviceTester/amazon-freertos/lib/third_party/mbedtls/library\x509.c ****                                           &pss_opts->mgf1_hash_id,
 670:D:/Work/DeviceTester/amazon-freertos/lib/third_party/mbedtls/library\x509.c ****                                           &pss_opts->expected_salt_len );
 671:D:/Work/DeviceTester/amazon-freertos/lib/third_party/mbedtls/library\x509.c ****         if( ret != 0 )
 672:D:/Work/DeviceTester/amazon-freertos/lib/third_party/mbedtls/library\x509.c ****         {
 673:D:/Work/DeviceTester/amazon-freertos/lib/third_party/mbedtls/library\x509.c ****             mbedtls_free( pss_opts );
 674:D:/Work/DeviceTester/amazon-freertos/lib/third_party/mbedtls/library\x509.c ****             return( ret );
 675:D:/Work/DeviceTester/amazon-freertos/lib/third_party/mbedtls/library\x509.c ****         }
 676:D:/Work/DeviceTester/amazon-freertos/lib/third_party/mbedtls/library\x509.c **** 
 677:D:/Work/DeviceTester/amazon-freertos/lib/third_party/mbedtls/library\x509.c ****         *sig_opts = (void *) pss_opts;
 678:D:/Work/DeviceTester/amazon-freertos/lib/third_party/mbedtls/library\x509.c ****     }
 679:D:/Work/DeviceTester/amazon-freertos/lib/third_party/mbedtls/library\x509.c ****     else
 680:D:/Work/DeviceTester/amazon-freertos/lib/third_party/mbedtls/library\x509.c **** #endif /* MBEDTLS_X509_RSASSA_PSS_SUPPORT */
 681:D:/Work/DeviceTester/amazon-freertos/lib/third_party/mbedtls/library\x509.c ****     {
 682:D:/Work/DeviceTester/amazon-freertos/lib/third_party/mbedtls/library\x509.c ****         /* Make sure parameters are absent or NULL */
 683:D:/Work/DeviceTester/amazon-freertos/lib/third_party/mbedtls/library\x509.c ****         if( ( sig_params->tag != MBEDTLS_ASN1_NULL && sig_params->tag != 0 ) ||
 876              		.loc 1 683 0
 877 0034 003094E5 		ldr	r3, [r4]
 878 0038 050053E3 		cmp	r3, #5
 879 003c 00005313 		cmpne	r3, #0
 880 0040 0600001A 		bne	.L93
 881              		.loc 1 683 0 is_stmt 0 discriminator 1
 882 0044 042094E5 		ldr	r2, [r4, #4]
 684:D:/Work/DeviceTester/amazon-freertos/lib/third_party/mbedtls/library\x509.c ****               sig_params->len != 0 )
 685:D:/Work/DeviceTester/amazon-freertos/lib/third_party/mbedtls/library\x509.c ****         return( MBEDTLS_ERR_X509_INVALID_ALG );
 883              		.loc 1 685 0 is_stmt 1 discriminator 1
 884 0048 18309FE5 		ldr	r3, .L96
 885 004c 000052E3 		cmp	r2, #0
 886 0050 0300A011 		movne	r0, r3
 887              	.LVL91:
 888 0054 1080BDE8 		pop	{r4, pc}
 889              	.LVL92:
 890              	.L92:
 653:D:/Work/DeviceTester/amazon-freertos/lib/third_party/mbedtls/library\x509.c **** 
 891              		.loc 1 653 0
 892 0058 0C009FE5 		ldr	r0, .L96+4
 893              	.LVL93:
 894 005c 1080BDE8 		pop	{r4, pc}
 895              	.LVL94:
 896              	.L93:
 897              		.loc 1 685 0
 898 0060 00009FE5 		ldr	r0, .L96
 899              	.LVL95:
 686:D:/Work/DeviceTester/amazon-freertos/lib/third_party/mbedtls/library\x509.c ****     }
 687:D:/Work/DeviceTester/amazon-freertos/lib/third_party/mbedtls/library\x509.c **** 
 688:D:/Work/DeviceTester/amazon-freertos/lib/third_party/mbedtls/library\x509.c ****     return( 0 );
 689:D:/Work/DeviceTester/amazon-freertos/lib/third_party/mbedtls/library\x509.c **** }
 900              		.loc 1 689 0
 901 0064 1080BDE8 		pop	{r4, pc}
 902              	.L97:
 903              		.align	2
 904              	.L96:
 905 0068 00DDFFFF 		.word	-8960
 906 006c 00D8FFFF 		.word	-10240
 907              		.cfi_endproc
 908              	.LFE21:
 910              		.section	.text.mbedtls_x509_get_ext,"ax",%progbits
 911              		.align	2
 912              		.global	mbedtls_x509_get_ext
 913              		.syntax unified
 914              		.arm
 915              		.fpu neon
 917              	mbedtls_x509_get_ext:
 918              	.LFB22:
 690:D:/Work/DeviceTester/amazon-freertos/lib/third_party/mbedtls/library\x509.c **** 
 691:D:/Work/DeviceTester/amazon-freertos/lib/third_party/mbedtls/library\x509.c **** /*
 692:D:/Work/DeviceTester/amazon-freertos/lib/third_party/mbedtls/library\x509.c ****  * X.509 Extensions (No parsing of extensions, pointer should
 693:D:/Work/DeviceTester/amazon-freertos/lib/third_party/mbedtls/library\x509.c ****  * be either manually updated or extensions should be parsed!)
 694:D:/Work/DeviceTester/amazon-freertos/lib/third_party/mbedtls/library\x509.c ****  */
 695:D:/Work/DeviceTester/amazon-freertos/lib/third_party/mbedtls/library\x509.c **** int mbedtls_x509_get_ext( unsigned char **p, const unsigned char *end,
 696:D:/Work/DeviceTester/amazon-freertos/lib/third_party/mbedtls/library\x509.c ****                   mbedtls_x509_buf *ext, int tag )
 697:D:/Work/DeviceTester/amazon-freertos/lib/third_party/mbedtls/library\x509.c **** {
 919              		.loc 1 697 0
 920              		.cfi_startproc
 921              		@ args = 0, pretend = 0, frame = 8
 922              		@ frame_needed = 0, uses_anonymous_args = 0
 923              	.LVL96:
 698:D:/Work/DeviceTester/amazon-freertos/lib/third_party/mbedtls/library\x509.c ****     int ret;
 699:D:/Work/DeviceTester/amazon-freertos/lib/third_party/mbedtls/library\x509.c ****     size_t len;
 700:D:/Work/DeviceTester/amazon-freertos/lib/third_party/mbedtls/library\x509.c **** 
 701:D:/Work/DeviceTester/amazon-freertos/lib/third_party/mbedtls/library\x509.c ****     if( *p == end )
 924              		.loc 1 701 0
 925 0000 00C090E5 		ldr	ip, [r0]
 697:D:/Work/DeviceTester/amazon-freertos/lib/third_party/mbedtls/library\x509.c ****     int ret;
 926              		.loc 1 697 0
 927 0004 37402DE9 		push	{r0, r1, r2, r4, r5, lr}
 928              		.cfi_def_cfa_offset 24
 929              		.cfi_offset 4, -12
 930              		.cfi_offset 5, -8
 931              		.cfi_offset 14, -4
 932              		.loc 1 701 0
 933 0008 01005CE1 		cmp	ip, r1
 934 000c 1A00000A 		beq	.L99
 702:D:/Work/DeviceTester/amazon-freertos/lib/third_party/mbedtls/library\x509.c ****         return( 0 );
 703:D:/Work/DeviceTester/amazon-freertos/lib/third_party/mbedtls/library\x509.c **** 
 704:D:/Work/DeviceTester/amazon-freertos/lib/third_party/mbedtls/library\x509.c ****     ext->tag = **p;
 935              		.loc 1 704 0
 936 0010 00C0DCE5 		ldrb	ip, [ip]	@ zero_extendqisi2
 937 0014 0250A0E1 		mov	r5, r2
 705:D:/Work/DeviceTester/amazon-freertos/lib/third_party/mbedtls/library\x509.c **** 
 706:D:/Work/DeviceTester/amazon-freertos/lib/third_party/mbedtls/library\x509.c ****     if( ( ret = mbedtls_asn1_get_tag( p, end, &ext->len,
 938              		.loc 1 706 0
 939 0018 A03083E3 		orr	r3, r3, #160
 940              	.LVL97:
 941 001c 0040A0E1 		mov	r4, r0
 704:D:/Work/DeviceTester/amazon-freertos/lib/third_party/mbedtls/library\x509.c **** 
 942              		.loc 1 704 0
 943 0020 04C082E4 		str	ip, [r2], #4
 944              	.LVL98:
 945              		.loc 1 706 0
 946 0024 FEFFFFEB 		bl	mbedtls_asn1_get_tag
 947              	.LVL99:
 948 0028 000050E3 		cmp	r0, #0
 949 002c 1300001A 		bne	.L98
 707:D:/Work/DeviceTester/amazon-freertos/lib/third_party/mbedtls/library\x509.c ****             MBEDTLS_ASN1_CONTEXT_SPECIFIC | MBEDTLS_ASN1_CONSTRUCTED | tag ) ) != 0 )
 708:D:/Work/DeviceTester/amazon-freertos/lib/third_party/mbedtls/library\x509.c ****         return( ret );
 709:D:/Work/DeviceTester/amazon-freertos/lib/third_party/mbedtls/library\x509.c **** 
 710:D:/Work/DeviceTester/amazon-freertos/lib/third_party/mbedtls/library\x509.c ****     ext->p = *p;
 950              		.loc 1 710 0
 951 0030 003094E5 		ldr	r3, [r4]
 711:D:/Work/DeviceTester/amazon-freertos/lib/third_party/mbedtls/library\x509.c ****     end = *p + ext->len;
 712:D:/Work/DeviceTester/amazon-freertos/lib/third_party/mbedtls/library\x509.c **** 
 713:D:/Work/DeviceTester/amazon-freertos/lib/third_party/mbedtls/library\x509.c ****     /*
 714:D:/Work/DeviceTester/amazon-freertos/lib/third_party/mbedtls/library\x509.c ****      * Extensions  ::=  SEQUENCE SIZE (1..MAX) OF Extension
 715:D:/Work/DeviceTester/amazon-freertos/lib/third_party/mbedtls/library\x509.c ****      *
 716:D:/Work/DeviceTester/amazon-freertos/lib/third_party/mbedtls/library\x509.c ****      * Extension  ::=  SEQUENCE  {
 717:D:/Work/DeviceTester/amazon-freertos/lib/third_party/mbedtls/library\x509.c ****      *      extnID      OBJECT IDENTIFIER,
 718:D:/Work/DeviceTester/amazon-freertos/lib/third_party/mbedtls/library\x509.c ****      *      critical    BOOLEAN DEFAULT FALSE,
 719:D:/Work/DeviceTester/amazon-freertos/lib/third_party/mbedtls/library\x509.c ****      *      extnValue   OCTET STRING  }
 720:D:/Work/DeviceTester/amazon-freertos/lib/third_party/mbedtls/library\x509.c ****      */
 721:D:/Work/DeviceTester/amazon-freertos/lib/third_party/mbedtls/library\x509.c ****     if( ( ret = mbedtls_asn1_get_tag( p, end, &len,
 952              		.loc 1 721 0
 953 0034 04208DE2 		add	r2, sp, #4
 954 0038 0400A0E1 		mov	r0, r4
 955              	.LVL100:
 710:D:/Work/DeviceTester/amazon-freertos/lib/third_party/mbedtls/library\x509.c ****     end = *p + ext->len;
 956              		.loc 1 710 0
 957 003c 083085E5 		str	r3, [r5, #8]
 711:D:/Work/DeviceTester/amazon-freertos/lib/third_party/mbedtls/library\x509.c ****     end = *p + ext->len;
 958              		.loc 1 711 0
 959 0040 045095E5 		ldr	r5, [r5, #4]
 960              	.LVL101:
 961 0044 003094E5 		ldr	r3, [r4]
 962 0048 055083E0 		add	r5, r3, r5
 963              	.LVL102:
 964              		.loc 1 721 0
 965 004c 3030A0E3 		mov	r3, #48
 966 0050 0510A0E1 		mov	r1, r5
 967 0054 FEFFFFEB 		bl	mbedtls_asn1_get_tag
 968              	.LVL103:
 969 0058 000050E3 		cmp	r0, #0
 722:D:/Work/DeviceTester/amazon-freertos/lib/third_party/mbedtls/library\x509.c ****             MBEDTLS_ASN1_CONSTRUCTED | MBEDTLS_ASN1_SEQUENCE ) ) != 0 )
 723:D:/Work/DeviceTester/amazon-freertos/lib/third_party/mbedtls/library\x509.c ****         return( MBEDTLS_ERR_X509_INVALID_EXTENSIONS + ret );
 970              		.loc 1 723 0
 971 005c 250C4012 		subne	r0, r0, #9472
 972              	.LVL104:
 721:D:/Work/DeviceTester/amazon-freertos/lib/third_party/mbedtls/library\x509.c ****             MBEDTLS_ASN1_CONSTRUCTED | MBEDTLS_ASN1_SEQUENCE ) ) != 0 )
 973              		.loc 1 721 0
 974 0060 0600001A 		bne	.L98
 724:D:/Work/DeviceTester/amazon-freertos/lib/third_party/mbedtls/library\x509.c **** 
 725:D:/Work/DeviceTester/amazon-freertos/lib/third_party/mbedtls/library\x509.c ****     if( end != *p + len )
 975              		.loc 1 725 0
 976 0064 003094E5 		ldr	r3, [r4]
 977 0068 04209DE5 		ldr	r2, [sp, #4]
 978 006c 023083E0 		add	r3, r3, r2
 979 0070 030055E1 		cmp	r5, r3
 726:D:/Work/DeviceTester/amazon-freertos/lib/third_party/mbedtls/library\x509.c ****         return( MBEDTLS_ERR_X509_INVALID_EXTENSIONS +
 980              		.loc 1 726 0
 981 0074 0C009F15 		ldrne	r0, .L104
 725:D:/Work/DeviceTester/amazon-freertos/lib/third_party/mbedtls/library\x509.c ****         return( MBEDTLS_ERR_X509_INVALID_EXTENSIONS +
 982              		.loc 1 725 0
 983 0078 0000001A 		bne	.L98
 984              	.LVL105:
 985              	.L99:
 727:D:/Work/DeviceTester/amazon-freertos/lib/third_party/mbedtls/library\x509.c ****                 MBEDTLS_ERR_ASN1_LENGTH_MISMATCH );
 728:D:/Work/DeviceTester/amazon-freertos/lib/third_party/mbedtls/library\x509.c **** 
 729:D:/Work/DeviceTester/amazon-freertos/lib/third_party/mbedtls/library\x509.c ****     return( 0 );
 986              		.loc 1 729 0
 987 007c 0000A0E3 		mov	r0, #0
 988              	.L98:
 730:D:/Work/DeviceTester/amazon-freertos/lib/third_party/mbedtls/library\x509.c **** }
 989              		.loc 1 730 0
 990 0080 0CD08DE2 		add	sp, sp, #12
 991              		.cfi_def_cfa_offset 12
 992              		@ sp needed
 993 0084 3080BDE8 		pop	{r4, r5, pc}
 994              	.L105:
 995              		.align	2
 996              	.L104:
 997 0088 9ADAFFFF 		.word	-9574
 998              		.cfi_endproc
 999              	.LFE22:
 1001              		.section	.text.mbedtls_x509_dn_gets,"ax",%progbits
 1002              		.align	2
 1003              		.global	mbedtls_x509_dn_gets
 1004              		.syntax unified
 1005              		.arm
 1006              		.fpu neon
 1008              	mbedtls_x509_dn_gets:
 1009              	.LFB23:
 731:D:/Work/DeviceTester/amazon-freertos/lib/third_party/mbedtls/library\x509.c **** 
 732:D:/Work/DeviceTester/amazon-freertos/lib/third_party/mbedtls/library\x509.c **** /*
 733:D:/Work/DeviceTester/amazon-freertos/lib/third_party/mbedtls/library\x509.c ****  * Store the name in printable form into buf; no more
 734:D:/Work/DeviceTester/amazon-freertos/lib/third_party/mbedtls/library\x509.c ****  * than size characters will be written
 735:D:/Work/DeviceTester/amazon-freertos/lib/third_party/mbedtls/library\x509.c ****  */
 736:D:/Work/DeviceTester/amazon-freertos/lib/third_party/mbedtls/library\x509.c **** int mbedtls_x509_dn_gets( char *buf, size_t size, const mbedtls_x509_name *dn )
 737:D:/Work/DeviceTester/amazon-freertos/lib/third_party/mbedtls/library\x509.c **** {
 1010              		.loc 1 737 0
 1011              		.cfi_startproc
 1012              		@ args = 0, pretend = 0, frame = 264
 1013              		@ frame_needed = 0, uses_anonymous_args = 0
 1014              	.LVL106:
 1015 0000 F04F2DE9 		push	{r4, r5, r6, r7, r8, r9, r10, fp, lr}
 1016              		.cfi_def_cfa_offset 36
 1017              		.cfi_offset 4, -36
 1018              		.cfi_offset 5, -32
 1019              		.cfi_offset 6, -28
 1020              		.cfi_offset 7, -24
 1021              		.cfi_offset 8, -20
 1022              		.cfi_offset 9, -16
 1023              		.cfi_offset 10, -12
 1024              		.cfi_offset 11, -8
 1025              		.cfi_offset 14, -4
 1026 0004 43DF4DE2 		sub	sp, sp, #268
 1027              		.cfi_def_cfa_offset 304
 738:D:/Work/DeviceTester/amazon-freertos/lib/third_party/mbedtls/library\x509.c ****     int ret;
 739:D:/Work/DeviceTester/amazon-freertos/lib/third_party/mbedtls/library\x509.c ****     size_t i, n;
 740:D:/Work/DeviceTester/amazon-freertos/lib/third_party/mbedtls/library\x509.c ****     unsigned char c, merge = 0;
 741:D:/Work/DeviceTester/amazon-freertos/lib/third_party/mbedtls/library\x509.c ****     const mbedtls_x509_name *name;
 742:D:/Work/DeviceTester/amazon-freertos/lib/third_party/mbedtls/library\x509.c ****     const char *short_name = NULL;
 1028              		.loc 1 742 0
 1029 0008 00A0A0E3 		mov	r10, #0
 743:D:/Work/DeviceTester/amazon-freertos/lib/third_party/mbedtls/library\x509.c ****     char s[MBEDTLS_X509_MAX_DN_NAME_SIZE], *p;
 744:D:/Work/DeviceTester/amazon-freertos/lib/third_party/mbedtls/library\x509.c **** 
 745:D:/Work/DeviceTester/amazon-freertos/lib/third_party/mbedtls/library\x509.c ****     memset( s, 0, sizeof( s ) );
 1030              		.loc 1 745 0
 1031 000c 08808DE2 		add	r8, sp, #8
 737:D:/Work/DeviceTester/amazon-freertos/lib/third_party/mbedtls/library\x509.c ****     int ret;
 1032              		.loc 1 737 0
 1033 0010 0170A0E1 		mov	r7, r1
 1034 0014 0290A0E1 		mov	r9, r2
 1035              		.loc 1 745 0
 1036 0018 0A10A0E1 		mov	r1, r10
 1037              	.LVL107:
 1038 001c 012CA0E3 		mov	r2, #256
 1039              	.LVL108:
 737:D:/Work/DeviceTester/amazon-freertos/lib/third_party/mbedtls/library\x509.c ****     int ret;
 1040              		.loc 1 737 0
 1041 0020 0050A0E1 		mov	r5, r0
 1042              		.loc 1 745 0
 1043 0024 0800A0E1 		mov	r0, r8
 1044              	.LVL109:
 742:D:/Work/DeviceTester/amazon-freertos/lib/third_party/mbedtls/library\x509.c ****     char s[MBEDTLS_X509_MAX_DN_NAME_SIZE], *p;
 1045              		.loc 1 742 0
 1046 0028 04A08DE5 		str	r10, [sp, #4]
 746:D:/Work/DeviceTester/amazon-freertos/lib/third_party/mbedtls/library\x509.c **** 
 747:D:/Work/DeviceTester/amazon-freertos/lib/third_party/mbedtls/library\x509.c ****     name = dn;
 1047              		.loc 1 747 0
 1048 002c 0960A0E1 		mov	r6, r9
 745:D:/Work/DeviceTester/amazon-freertos/lib/third_party/mbedtls/library\x509.c **** 
 1049              		.loc 1 745 0
 1050 0030 FEFFFFEB 		bl	memset
 1051              	.LVL110:
 740:D:/Work/DeviceTester/amazon-freertos/lib/third_party/mbedtls/library\x509.c ****     const mbedtls_x509_name *name;
 1052              		.loc 1 740 0
 1053 0034 0A20A0E1 		mov	r2, r10
 748:D:/Work/DeviceTester/amazon-freertos/lib/third_party/mbedtls/library\x509.c ****     p = buf;
 749:D:/Work/DeviceTester/amazon-freertos/lib/third_party/mbedtls/library\x509.c ****     n = size;
 750:D:/Work/DeviceTester/amazon-freertos/lib/third_party/mbedtls/library\x509.c **** 
 751:D:/Work/DeviceTester/amazon-freertos/lib/third_party/mbedtls/library\x509.c ****     while( name != NULL )
 752:D:/Work/DeviceTester/amazon-freertos/lib/third_party/mbedtls/library\x509.c ****     {
 753:D:/Work/DeviceTester/amazon-freertos/lib/third_party/mbedtls/library\x509.c ****         if( !name->oid.p )
 754:D:/Work/DeviceTester/amazon-freertos/lib/third_party/mbedtls/library\x509.c ****         {
 755:D:/Work/DeviceTester/amazon-freertos/lib/third_party/mbedtls/library\x509.c ****             name = name->next;
 756:D:/Work/DeviceTester/amazon-freertos/lib/third_party/mbedtls/library\x509.c ****             continue;
 757:D:/Work/DeviceTester/amazon-freertos/lib/third_party/mbedtls/library\x509.c ****         }
 758:D:/Work/DeviceTester/amazon-freertos/lib/third_party/mbedtls/library\x509.c **** 
 759:D:/Work/DeviceTester/amazon-freertos/lib/third_party/mbedtls/library\x509.c ****         if( name != dn )
 760:D:/Work/DeviceTester/amazon-freertos/lib/third_party/mbedtls/library\x509.c ****         {
 761:D:/Work/DeviceTester/amazon-freertos/lib/third_party/mbedtls/library\x509.c ****             ret = mbedtls_snprintf( p, n, merge ? " + " : ", " );
 762:D:/Work/DeviceTester/amazon-freertos/lib/third_party/mbedtls/library\x509.c ****             MBEDTLS_X509_SAFE_SNPRINTF;
 763:D:/Work/DeviceTester/amazon-freertos/lib/third_party/mbedtls/library\x509.c ****         }
 764:D:/Work/DeviceTester/amazon-freertos/lib/third_party/mbedtls/library\x509.c **** 
 765:D:/Work/DeviceTester/amazon-freertos/lib/third_party/mbedtls/library\x509.c ****         ret = mbedtls_oid_get_attr_short_name( &name->oid, &short_name );
 766:D:/Work/DeviceTester/amazon-freertos/lib/third_party/mbedtls/library\x509.c **** 
 767:D:/Work/DeviceTester/amazon-freertos/lib/third_party/mbedtls/library\x509.c ****         if( ret == 0 )
 768:D:/Work/DeviceTester/amazon-freertos/lib/third_party/mbedtls/library\x509.c ****             ret = mbedtls_snprintf( p, n, "%s=", short_name );
 769:D:/Work/DeviceTester/amazon-freertos/lib/third_party/mbedtls/library\x509.c ****         else
 770:D:/Work/DeviceTester/amazon-freertos/lib/third_party/mbedtls/library\x509.c ****             ret = mbedtls_snprintf( p, n, "\?\?=" );
 771:D:/Work/DeviceTester/amazon-freertos/lib/third_party/mbedtls/library\x509.c ****         MBEDTLS_X509_SAFE_SNPRINTF;
 772:D:/Work/DeviceTester/amazon-freertos/lib/third_party/mbedtls/library\x509.c **** 
 773:D:/Work/DeviceTester/amazon-freertos/lib/third_party/mbedtls/library\x509.c ****         for( i = 0; i < name->val.len; i++ )
 774:D:/Work/DeviceTester/amazon-freertos/lib/third_party/mbedtls/library\x509.c ****         {
 775:D:/Work/DeviceTester/amazon-freertos/lib/third_party/mbedtls/library\x509.c ****             if( i >= sizeof( s ) - 1 )
 776:D:/Work/DeviceTester/amazon-freertos/lib/third_party/mbedtls/library\x509.c ****                 break;
 777:D:/Work/DeviceTester/amazon-freertos/lib/third_party/mbedtls/library\x509.c **** 
 778:D:/Work/DeviceTester/amazon-freertos/lib/third_party/mbedtls/library\x509.c ****             c = name->val.p[i];
 779:D:/Work/DeviceTester/amazon-freertos/lib/third_party/mbedtls/library\x509.c ****             if( c < 32 || c == 127 || ( c > 128 && c < 160 ) )
 780:D:/Work/DeviceTester/amazon-freertos/lib/third_party/mbedtls/library\x509.c ****                  s[i] = '?';
 781:D:/Work/DeviceTester/amazon-freertos/lib/third_party/mbedtls/library\x509.c ****             else s[i] = c;
 782:D:/Work/DeviceTester/amazon-freertos/lib/third_party/mbedtls/library\x509.c ****         }
 783:D:/Work/DeviceTester/amazon-freertos/lib/third_party/mbedtls/library\x509.c ****         s[i] = '\0';
 784:D:/Work/DeviceTester/amazon-freertos/lib/third_party/mbedtls/library\x509.c ****         ret = mbedtls_snprintf( p, n, "%s", s );
 1054              		.loc 1 784 0
 1055 0038 58A19FE5 		ldr	r10, .L126
 749:D:/Work/DeviceTester/amazon-freertos/lib/third_party/mbedtls/library\x509.c **** 
 1056              		.loc 1 749 0
 1057 003c 0740A0E1 		mov	r4, r7
 780:D:/Work/DeviceTester/amazon-freertos/lib/third_party/mbedtls/library\x509.c ****             else s[i] = c;
 1058              		.loc 1 780 0
 1059 0040 3FB0A0E3 		mov	fp, #63
 1060              	.LVL111:
 1061              	.L107:
 751:D:/Work/DeviceTester/amazon-freertos/lib/third_party/mbedtls/library\x509.c ****     {
 1062              		.loc 1 751 0
 1063 0044 000056E3 		cmp	r6, #0
 785:D:/Work/DeviceTester/amazon-freertos/lib/third_party/mbedtls/library\x509.c ****         MBEDTLS_X509_SAFE_SNPRINTF;
 786:D:/Work/DeviceTester/amazon-freertos/lib/third_party/mbedtls/library\x509.c **** 
 787:D:/Work/DeviceTester/amazon-freertos/lib/third_party/mbedtls/library\x509.c ****         merge = name->next_merged;
 788:D:/Work/DeviceTester/amazon-freertos/lib/third_party/mbedtls/library\x509.c ****         name = name->next;
 789:D:/Work/DeviceTester/amazon-freertos/lib/third_party/mbedtls/library\x509.c ****     }
 790:D:/Work/DeviceTester/amazon-freertos/lib/third_party/mbedtls/library\x509.c **** 
 791:D:/Work/DeviceTester/amazon-freertos/lib/third_party/mbedtls/library\x509.c ****     return( (int) ( size - n ) );
 1064              		.loc 1 791 0
 1065 0048 04004700 		subeq	r0, r7, r4
 1066 004c 1400000A 		beq	.L106
 1067              	.L122:
 753:D:/Work/DeviceTester/amazon-freertos/lib/third_party/mbedtls/library\x509.c ****         {
 1068              		.loc 1 753 0
 1069 0050 083096E5 		ldr	r3, [r6, #8]
 1070 0054 000053E3 		cmp	r3, #0
 1071 0058 0100001A 		bne	.L108
 1072              	.LVL112:
 1073              	.L125:
 788:D:/Work/DeviceTester/amazon-freertos/lib/third_party/mbedtls/library\x509.c ****     }
 1074              		.loc 1 788 0 discriminator 2
 1075 005c 186096E5 		ldr	r6, [r6, #24]
 1076              	.LVL113:
 1077 0060 F7FFFFEA 		b	.L107
 1078              	.L108:
 759:D:/Work/DeviceTester/amazon-freertos/lib/third_party/mbedtls/library\x509.c ****         {
 1079              		.loc 1 759 0
 1080 0064 090056E1 		cmp	r6, r9
 1081 0068 1100000A 		beq	.L110
 761:D:/Work/DeviceTester/amazon-freertos/lib/third_party/mbedtls/library\x509.c ****             MBEDTLS_X509_SAFE_SNPRINTF;
 1082              		.loc 1 761 0
 1083 006c 28319FE5 		ldr	r3, .L126+4
 1084 0070 000052E3 		cmp	r2, #0
 1085 0074 24119FE5 		ldr	r1, .L126+8
 1086 0078 0500A0E1 		mov	r0, r5
 1087 007c 0320A001 		moveq	r2, r3
 1088              	.LVL114:
 1089 0080 0120A011 		movne	r2, r1
 1090 0084 0410A0E1 		mov	r1, r4
 1091 0088 FEFFFFEB 		bl	snprintf
 1092              	.LVL115:
 762:D:/Work/DeviceTester/amazon-freertos/lib/third_party/mbedtls/library\x509.c ****         }
 1093              		.loc 1 762 0
 1094 008c 000054E1 		cmp	r4, r0
 1095 0090 0030A083 		movhi	r3, #0
 1096 0094 0130A093 		movls	r3, #1
 1097 0098 A03F93E1 		orrs	r3, r3, r0, lsr #31
 1098 009c 0200000A 		beq	.L112
 1099              	.L116:
 1100 00a0 FC009FE5 		ldr	r0, .L126+12
 1101              	.LVL116:
 1102              	.L106:
 792:D:/Work/DeviceTester/amazon-freertos/lib/third_party/mbedtls/library\x509.c **** }
 1103              		.loc 1 792 0
 1104 00a4 43DF8DE2 		add	sp, sp, #268
 1105              		.cfi_remember_state
 1106              		.cfi_def_cfa_offset 36
 1107              		@ sp needed
 1108 00a8 F08FBDE8 		pop	{r4, r5, r6, r7, r8, r9, r10, fp, pc}
 1109              	.LVL117:
 1110              	.L112:
 1111              		.cfi_restore_state
 762:D:/Work/DeviceTester/amazon-freertos/lib/third_party/mbedtls/library\x509.c ****         }
 1112              		.loc 1 762 0 discriminator 2
 1113 00ac 004044E0 		sub	r4, r4, r0
 1114              	.LVL118:
 1115 00b0 005085E0 		add	r5, r5, r0
 1116              	.LVL119:
 1117              	.L110:
 765:D:/Work/DeviceTester/amazon-freertos/lib/third_party/mbedtls/library\x509.c **** 
 1118              		.loc 1 765 0
 1119 00b4 04108DE2 		add	r1, sp, #4
 1120 00b8 0600A0E1 		mov	r0, r6
 1121 00bc FEFFFFEB 		bl	mbedtls_oid_get_attr_short_name
 1122              	.LVL120:
 767:D:/Work/DeviceTester/amazon-freertos/lib/third_party/mbedtls/library\x509.c ****             ret = mbedtls_snprintf( p, n, "%s=", short_name );
 1123              		.loc 1 767 0
 1124 00c0 000050E3 		cmp	r0, #0
 1125 00c4 2100001A 		bne	.L114
 768:D:/Work/DeviceTester/amazon-freertos/lib/third_party/mbedtls/library\x509.c ****         else
 1126              		.loc 1 768 0
 1127 00c8 04309DE5 		ldr	r3, [sp, #4]
 1128 00cc 0410A0E1 		mov	r1, r4
 1129 00d0 D0209FE5 		ldr	r2, .L126+16
 1130 00d4 0500A0E1 		mov	r0, r5
 1131              	.LVL121:
 1132 00d8 FEFFFFEB 		bl	snprintf
 1133              	.LVL122:
 1134              	.L115:
 771:D:/Work/DeviceTester/amazon-freertos/lib/third_party/mbedtls/library\x509.c **** 
 1135              		.loc 1 771 0
 1136 00dc 000054E1 		cmp	r4, r0
 1137 00e0 0030A083 		movhi	r3, #0
 1138 00e4 0130A093 		movls	r3, #1
 1139 00e8 A03F93E1 		orrs	r3, r3, r0, lsr #31
 1140 00ec EBFFFF1A 		bne	.L116
 771:D:/Work/DeviceTester/amazon-freertos/lib/third_party/mbedtls/library\x509.c **** 
 1141              		.loc 1 771 0 is_stmt 0 discriminator 2
 1142 00f0 004044E0 		sub	r4, r4, r0
 1143              	.LVL123:
 1144 00f4 005085E0 		add	r5, r5, r0
 1145              	.LVL124:
 1146              	.L117:
 773:D:/Work/DeviceTester/amazon-freertos/lib/third_party/mbedtls/library\x509.c ****         {
 1147              		.loc 1 773 0 is_stmt 1 discriminator 1
 1148 00f8 102096E5 		ldr	r2, [r6, #16]
 775:D:/Work/DeviceTester/amazon-freertos/lib/third_party/mbedtls/library\x509.c ****                 break;
 1149              		.loc 1 775 0 discriminator 1
 1150 00fc FE0053E3 		cmp	r3, #254
 1151 0100 02005391 		cmpls	r3, r2
 1152 0104 1600003A 		bcc	.L121
 783:D:/Work/DeviceTester/amazon-freertos/lib/third_party/mbedtls/library\x509.c ****         ret = mbedtls_snprintf( p, n, "%s", s );
 1153              		.loc 1 783 0
 1154 0108 422F8DE2 		add	r2, sp, #264
 784:D:/Work/DeviceTester/amazon-freertos/lib/third_party/mbedtls/library\x509.c ****         MBEDTLS_X509_SAFE_SNPRINTF;
 1155              		.loc 1 784 0
 1156 010c 0410A0E1 		mov	r1, r4
 783:D:/Work/DeviceTester/amazon-freertos/lib/third_party/mbedtls/library\x509.c ****         ret = mbedtls_snprintf( p, n, "%s", s );
 1157              		.loc 1 783 0
 1158 0110 033082E0 		add	r3, r2, r3
 1159              	.LVL125:
 1160 0114 0020A0E3 		mov	r2, #0
 1161 0118 002143E5 		strb	r2, [r3, #-256]
 784:D:/Work/DeviceTester/amazon-freertos/lib/third_party/mbedtls/library\x509.c ****         MBEDTLS_X509_SAFE_SNPRINTF;
 1162              		.loc 1 784 0
 1163 011c 0500A0E1 		mov	r0, r5
 1164              	.LVL126:
 1165 0120 0830A0E1 		mov	r3, r8
 1166 0124 0A20A0E1 		mov	r2, r10
 1167 0128 FEFFFFEB 		bl	snprintf
 1168              	.LVL127:
 785:D:/Work/DeviceTester/amazon-freertos/lib/third_party/mbedtls/library\x509.c **** 
 1169              		.loc 1 785 0
 1170 012c 000054E1 		cmp	r4, r0
 1171 0130 0030A083 		movhi	r3, #0
 1172 0134 0130A093 		movls	r3, #1
 1173 0138 A03F93E1 		orrs	r3, r3, r0, lsr #31
 1174 013c D7FFFF1A 		bne	.L116
 785:D:/Work/DeviceTester/amazon-freertos/lib/third_party/mbedtls/library\x509.c **** 
 1175              		.loc 1 785 0 is_stmt 0 discriminator 2
 1176 0140 004044E0 		sub	r4, r4, r0
 1177              	.LVL128:
 1178 0144 005085E0 		add	r5, r5, r0
 1179              	.LVL129:
 787:D:/Work/DeviceTester/amazon-freertos/lib/third_party/mbedtls/library\x509.c ****         name = name->next;
 1180              		.loc 1 787 0 is_stmt 1 discriminator 2
 1181 0148 1C20D6E5 		ldrb	r2, [r6, #28]	@ zero_extendqisi2
 1182 014c C2FFFFEA 		b	.L125
 1183              	.L114:
 770:D:/Work/DeviceTester/amazon-freertos/lib/third_party/mbedtls/library\x509.c ****         MBEDTLS_X509_SAFE_SNPRINTF;
 1184              		.loc 1 770 0
 1185 0150 54209FE5 		ldr	r2, .L126+20
 1186 0154 0410A0E1 		mov	r1, r4
 1187 0158 0500A0E1 		mov	r0, r5
 1188              	.LVL130:
 1189 015c FEFFFFEB 		bl	snprintf
 1190              	.LVL131:
 1191 0160 DDFFFFEA 		b	.L115
 1192              	.LVL132:
 1193              	.L121:
 778:D:/Work/DeviceTester/amazon-freertos/lib/third_party/mbedtls/library\x509.c ****             if( c < 32 || c == 127 || ( c > 128 && c < 160 ) )
 1194              		.loc 1 778 0
 1195 0164 142096E5 		ldr	r2, [r6, #20]
 1196 0168 0320D2E7 		ldrb	r2, [r2, r3]	@ zero_extendqisi2
 1197              	.LVL133:
 779:D:/Work/DeviceTester/amazon-freertos/lib/third_party/mbedtls/library\x509.c ****                  s[i] = '?';
 1198              		.loc 1 779 0
 1199 016c 7F0052E3 		cmp	r2, #127
 1200 0170 1F005213 		cmpne	r2, #31
 1201 0174 0400009A 		bls	.L118
 779:D:/Work/DeviceTester/amazon-freertos/lib/third_party/mbedtls/library\x509.c ****                  s[i] = '?';
 1202              		.loc 1 779 0 is_stmt 0 discriminator 1
 1203 0178 7F1082E2 		add	r1, r2, #127
 1204 017c 7110EFE6 		uxtb	r1, r1
 1205 0180 1E0051E3 		cmp	r1, #30
 781:D:/Work/DeviceTester/amazon-freertos/lib/third_party/mbedtls/library\x509.c ****         }
 1206              		.loc 1 781 0 is_stmt 1 discriminator 1
 1207 0184 0320C887 		strbhi	r2, [r8, r3]
 779:D:/Work/DeviceTester/amazon-freertos/lib/third_party/mbedtls/library\x509.c ****                  s[i] = '?';
 1208              		.loc 1 779 0 discriminator 1
 1209 0188 0000008A 		bhi	.L120
 1210              	.L118:
 780:D:/Work/DeviceTester/amazon-freertos/lib/third_party/mbedtls/library\x509.c ****             else s[i] = c;
 1211              		.loc 1 780 0
 1212 018c 03B0C8E7 		strb	fp, [r8, r3]
 1213              	.L120:
 773:D:/Work/DeviceTester/amazon-freertos/lib/third_party/mbedtls/library\x509.c ****         {
 1214              		.loc 1 773 0 discriminator 2
 1215 0190 013083E2 		add	r3, r3, #1
 1216              	.LVL134:
 1217 0194 D7FFFFEA 		b	.L117
 1218              	.L127:
 1219              		.align	2
 1220              	.L126:
 1221 0198 0F000000 		.word	.LC4
 1222 019c 04000000 		.word	.LC1
 1223 01a0 00000000 		.word	.LC0
 1224 01a4 80D6FFFF 		.word	-10624
 1225 01a8 07000000 		.word	.LC2
 1226 01ac 0B000000 		.word	.LC3
 1227              		.cfi_endproc
 1228              	.LFE23:
 1230              		.section	.text.mbedtls_x509_serial_gets,"ax",%progbits
 1231              		.align	2
 1232              		.global	mbedtls_x509_serial_gets
 1233              		.syntax unified
 1234              		.arm
 1235              		.fpu neon
 1237              	mbedtls_x509_serial_gets:
 1238              	.LFB24:
 793:D:/Work/DeviceTester/amazon-freertos/lib/third_party/mbedtls/library\x509.c **** 
 794:D:/Work/DeviceTester/amazon-freertos/lib/third_party/mbedtls/library\x509.c **** /*
 795:D:/Work/DeviceTester/amazon-freertos/lib/third_party/mbedtls/library\x509.c ****  * Store the serial in printable form into buf; no more
 796:D:/Work/DeviceTester/amazon-freertos/lib/third_party/mbedtls/library\x509.c ****  * than size characters will be written
 797:D:/Work/DeviceTester/amazon-freertos/lib/third_party/mbedtls/library\x509.c ****  */
 798:D:/Work/DeviceTester/amazon-freertos/lib/third_party/mbedtls/library\x509.c **** int mbedtls_x509_serial_gets( char *buf, size_t size, const mbedtls_x509_buf *serial )
 799:D:/Work/DeviceTester/amazon-freertos/lib/third_party/mbedtls/library\x509.c **** {
 1239              		.loc 1 799 0
 1240              		.cfi_startproc
 1241              		@ args = 0, pretend = 0, frame = 0
 1242              		@ frame_needed = 0, uses_anonymous_args = 0
 1243              	.LVL135:
 1244 0000 F74F2DE9 		push	{r0, r1, r2, r4, r5, r6, r7, r8, r9, r10, fp, lr}
 1245              		.cfi_def_cfa_offset 48
 1246              		.cfi_offset 4, -36
 1247              		.cfi_offset 5, -32
 1248              		.cfi_offset 6, -28
 1249              		.cfi_offset 7, -24
 1250              		.cfi_offset 8, -20
 1251              		.cfi_offset 9, -16
 1252              		.cfi_offset 10, -12
 1253              		.cfi_offset 11, -8
 1254              		.cfi_offset 14, -4
 1255              		.loc 1 799 0
 1256 0004 0080A0E1 		mov	r8, r0
 800:D:/Work/DeviceTester/amazon-freertos/lib/third_party/mbedtls/library\x509.c ****     int ret;
 801:D:/Work/DeviceTester/amazon-freertos/lib/third_party/mbedtls/library\x509.c ****     size_t i, n, nr;
 802:D:/Work/DeviceTester/amazon-freertos/lib/third_party/mbedtls/library\x509.c ****     char *p;
 803:D:/Work/DeviceTester/amazon-freertos/lib/third_party/mbedtls/library\x509.c **** 
 804:D:/Work/DeviceTester/amazon-freertos/lib/third_party/mbedtls/library\x509.c ****     p = buf;
 805:D:/Work/DeviceTester/amazon-freertos/lib/third_party/mbedtls/library\x509.c ****     n = size;
 806:D:/Work/DeviceTester/amazon-freertos/lib/third_party/mbedtls/library\x509.c **** 
 807:D:/Work/DeviceTester/amazon-freertos/lib/third_party/mbedtls/library\x509.c ****     nr = ( serial->len <= 32 )
 1257              		.loc 1 807 0
 1258 0008 046092E5 		ldr	r6, [r2, #4]
 799:D:/Work/DeviceTester/amazon-freertos/lib/third_party/mbedtls/library\x509.c ****     int ret;
 1259              		.loc 1 799 0
 1260 000c 0170A0E1 		mov	r7, r1
 1261 0010 0290A0E1 		mov	r9, r2
 805:D:/Work/DeviceTester/amazon-freertos/lib/third_party/mbedtls/library\x509.c **** 
 1262              		.loc 1 805 0
 1263 0014 0140A0E1 		mov	r4, r1
 808:D:/Work/DeviceTester/amazon-freertos/lib/third_party/mbedtls/library\x509.c ****         ? serial->len  : 28;
 809:D:/Work/DeviceTester/amazon-freertos/lib/third_party/mbedtls/library\x509.c **** 
 810:D:/Work/DeviceTester/amazon-freertos/lib/third_party/mbedtls/library\x509.c ****     for( i = 0; i < nr; i++ )
 811:D:/Work/DeviceTester/amazon-freertos/lib/third_party/mbedtls/library\x509.c ****     {
 812:D:/Work/DeviceTester/amazon-freertos/lib/third_party/mbedtls/library\x509.c ****         if( i == 0 && nr > 1 && serial->p[i] == 0x0 )
 813:D:/Work/DeviceTester/amazon-freertos/lib/third_party/mbedtls/library\x509.c ****             continue;
 814:D:/Work/DeviceTester/amazon-freertos/lib/third_party/mbedtls/library\x509.c **** 
 815:D:/Work/DeviceTester/amazon-freertos/lib/third_party/mbedtls/library\x509.c ****         ret = mbedtls_snprintf( p, n, "%02X%s",
 1264              		.loc 1 815 0
 1265 0018 D0A09FE5 		ldr	r10, .L148
 810:D:/Work/DeviceTester/amazon-freertos/lib/third_party/mbedtls/library\x509.c ****     {
 1266              		.loc 1 810 0
 1267 001c 0050A0E3 		mov	r5, #0
 1268              		.loc 1 815 0
 1269 0020 CCB09FE5 		ldr	fp, .L148+4
 808:D:/Work/DeviceTester/amazon-freertos/lib/third_party/mbedtls/library\x509.c ****         ? serial->len  : 28;
 1270              		.loc 1 808 0
 1271 0024 200056E3 		cmp	r6, #32
 1272 0028 1C60A083 		movhi	r6, #28
 1273              	.LVL136:
 1274              	.L130:
 810:D:/Work/DeviceTester/amazon-freertos/lib/third_party/mbedtls/library\x509.c ****     {
 1275              		.loc 1 810 0 discriminator 1
 1276 002c 060055E1 		cmp	r5, r6
 1277 0030 0E00001A 		bne	.L136
 816:D:/Work/DeviceTester/amazon-freertos/lib/third_party/mbedtls/library\x509.c ****                 serial->p[i], ( i < nr - 1 ) ? ":" : "" );
 817:D:/Work/DeviceTester/amazon-freertos/lib/third_party/mbedtls/library\x509.c ****         MBEDTLS_X509_SAFE_SNPRINTF;
 818:D:/Work/DeviceTester/amazon-freertos/lib/third_party/mbedtls/library\x509.c ****     }
 819:D:/Work/DeviceTester/amazon-freertos/lib/third_party/mbedtls/library\x509.c **** 
 820:D:/Work/DeviceTester/amazon-freertos/lib/third_party/mbedtls/library\x509.c ****     if( nr != serial->len )
 1278              		.loc 1 820 0
 1279 0034 043099E5 		ldr	r3, [r9, #4]
 1280 0038 030055E1 		cmp	r5, r3
 1281 003c 0900000A 		beq	.L137
 821:D:/Work/DeviceTester/amazon-freertos/lib/third_party/mbedtls/library\x509.c ****     {
 822:D:/Work/DeviceTester/amazon-freertos/lib/third_party/mbedtls/library\x509.c ****         ret = mbedtls_snprintf( p, n, "...." );
 1282              		.loc 1 822 0
 1283 0040 B0209FE5 		ldr	r2, .L148+8
 1284 0044 0410A0E1 		mov	r1, r4
 1285 0048 0800A0E1 		mov	r0, r8
 1286 004c FEFFFFEB 		bl	snprintf
 1287              	.LVL137:
 823:D:/Work/DeviceTester/amazon-freertos/lib/third_party/mbedtls/library\x509.c ****         MBEDTLS_X509_SAFE_SNPRINTF;
 1288              		.loc 1 823 0
 1289 0050 000054E1 		cmp	r4, r0
 1290 0054 0030A083 		movhi	r3, #0
 1291 0058 0130A093 		movls	r3, #1
 1292 005c A03F93E1 		orrs	r3, r3, r0, lsr #31
 1293 0060 1B00001A 		bne	.L138
 1294              		.loc 1 823 0 is_stmt 0 discriminator 2
 1295 0064 004044E0 		sub	r4, r4, r0
 1296              	.LVL138:
 1297              	.L137:
 824:D:/Work/DeviceTester/amazon-freertos/lib/third_party/mbedtls/library\x509.c ****     }
 825:D:/Work/DeviceTester/amazon-freertos/lib/third_party/mbedtls/library\x509.c **** 
 826:D:/Work/DeviceTester/amazon-freertos/lib/third_party/mbedtls/library\x509.c ****     return( (int) ( size - n ) );
 1298              		.loc 1 826 0 is_stmt 1
 1299 0068 040047E0 		sub	r0, r7, r4
 1300 006c 190000EA 		b	.L128
 1301              	.LVL139:
 1302              	.L136:
 812:D:/Work/DeviceTester/amazon-freertos/lib/third_party/mbedtls/library\x509.c ****             continue;
 1303              		.loc 1 812 0
 1304 0070 153F6FE1 		clz	r3, r5
 1305 0074 010056E3 		cmp	r6, #1
 1306 0078 A332A0E1 		lsr	r3, r3, #5
 1307 007c 0030A093 		movls	r3, #0
 1308 0080 000053E3 		cmp	r3, #0
 1309 0084 083099E5 		ldr	r3, [r9, #8]
 1310 0088 0200000A 		beq	.L131
 812:D:/Work/DeviceTester/amazon-freertos/lib/third_party/mbedtls/library\x509.c ****             continue;
 1311              		.loc 1 812 0 is_stmt 0 discriminator 1
 1312 008c 0020D3E5 		ldrb	r2, [r3]	@ zero_extendqisi2
 1313 0090 000052E3 		cmp	r2, #0
 1314 0094 1300000A 		beq	.L132
 1315              	.L131:
 815:D:/Work/DeviceTester/amazon-freertos/lib/third_party/mbedtls/library\x509.c ****                 serial->p[i], ( i < nr - 1 ) ? ":" : "" );
 1316              		.loc 1 815 0 is_stmt 1
 1317 0098 5C109FE5 		ldr	r1, .L148+12
 816:D:/Work/DeviceTester/amazon-freertos/lib/third_party/mbedtls/library\x509.c ****         MBEDTLS_X509_SAFE_SNPRINTF;
 1318              		.loc 1 816 0
 1319 009c 012046E2 		sub	r2, r6, #1
 815:D:/Work/DeviceTester/amazon-freertos/lib/third_party/mbedtls/library\x509.c ****                 serial->p[i], ( i < nr - 1 ) ? ":" : "" );
 1320              		.loc 1 815 0
 1321 00a0 020055E1 		cmp	r5, r2
 1322 00a4 0530D3E7 		ldrb	r3, [r3, r5]	@ zero_extendqisi2
 1323 00a8 0A10A021 		movcs	r1, r10
 1324 00ac 0B20A0E1 		mov	r2, fp
 1325 00b0 00108DE5 		str	r1, [sp]
 1326 00b4 0800A0E1 		mov	r0, r8
 1327 00b8 0410A0E1 		mov	r1, r4
 1328 00bc FEFFFFEB 		bl	snprintf
 1329              	.LVL140:
 817:D:/Work/DeviceTester/amazon-freertos/lib/third_party/mbedtls/library\x509.c ****     }
 1330              		.loc 1 817 0
 1331 00c0 000054E1 		cmp	r4, r0
 1332 00c4 0030A083 		movhi	r3, #0
 1333 00c8 0130A093 		movls	r3, #1
 1334 00cc A03F93E1 		orrs	r3, r3, r0, lsr #31
 1335 00d0 0200000A 		beq	.L134
 1336              	.L138:
 1337 00d4 24009FE5 		ldr	r0, .L148+16
 1338              	.LVL141:
 1339              	.L128:
 827:D:/Work/DeviceTester/amazon-freertos/lib/third_party/mbedtls/library\x509.c **** }
 1340              		.loc 1 827 0
 1341 00d8 0CD08DE2 		add	sp, sp, #12
 1342              		.cfi_remember_state
 1343              		.cfi_def_cfa_offset 36
 1344              		@ sp needed
 1345 00dc F08FBDE8 		pop	{r4, r5, r6, r7, r8, r9, r10, fp, pc}
 1346              	.LVL142:
 1347              	.L134:
 1348              		.cfi_restore_state
 817:D:/Work/DeviceTester/amazon-freertos/lib/third_party/mbedtls/library\x509.c ****     }
 1349              		.loc 1 817 0 discriminator 2
 1350 00e0 004044E0 		sub	r4, r4, r0
 1351              	.LVL143:
 1352 00e4 008088E0 		add	r8, r8, r0
 1353              	.LVL144:
 1354              	.L132:
 810:D:/Work/DeviceTester/amazon-freertos/lib/third_party/mbedtls/library\x509.c ****     {
 1355              		.loc 1 810 0 discriminator 2
 1356 00e8 015085E2 		add	r5, r5, #1
 1357              	.LVL145:
 1358 00ec CEFFFFEA 		b	.L130
 1359              	.L149:
 1360              		.align	2
 1361              	.L148:
 1362 00f0 02000000 		.word	.LC6
 1363 00f4 03000000 		.word	.LC7
 1364 00f8 0A000000 		.word	.LC8
 1365 00fc 00000000 		.word	.LC5
 1366 0100 80D6FFFF 		.word	-10624
 1367              		.cfi_endproc
 1368              	.LFE24:
 1370              		.section	.text.mbedtls_x509_sig_alg_gets,"ax",%progbits
 1371              		.align	2
 1372              		.global	mbedtls_x509_sig_alg_gets
 1373              		.syntax unified
 1374              		.arm
 1375              		.fpu neon
 1377              	mbedtls_x509_sig_alg_gets:
 1378              	.LFB25:
 828:D:/Work/DeviceTester/amazon-freertos/lib/third_party/mbedtls/library\x509.c **** 
 829:D:/Work/DeviceTester/amazon-freertos/lib/third_party/mbedtls/library\x509.c **** /*
 830:D:/Work/DeviceTester/amazon-freertos/lib/third_party/mbedtls/library\x509.c ****  * Helper for writing signature algorithms
 831:D:/Work/DeviceTester/amazon-freertos/lib/third_party/mbedtls/library\x509.c ****  */
 832:D:/Work/DeviceTester/amazon-freertos/lib/third_party/mbedtls/library\x509.c **** int mbedtls_x509_sig_alg_gets( char *buf, size_t size, const mbedtls_x509_buf *sig_oid,
 833:D:/Work/DeviceTester/amazon-freertos/lib/third_party/mbedtls/library\x509.c ****                        mbedtls_pk_type_t pk_alg, mbedtls_md_type_t md_alg,
 834:D:/Work/DeviceTester/amazon-freertos/lib/third_party/mbedtls/library\x509.c ****                        const void *sig_opts )
 835:D:/Work/DeviceTester/amazon-freertos/lib/third_party/mbedtls/library\x509.c **** {
 1379              		.loc 1 835 0
 1380              		.cfi_startproc
 1381              		@ args = 8, pretend = 0, frame = 8
 1382              		@ frame_needed = 0, uses_anonymous_args = 0
 1383              	.LVL146:
 1384 0000 37402DE9 		push	{r0, r1, r2, r4, r5, lr}
 1385              		.cfi_def_cfa_offset 24
 1386              		.cfi_offset 4, -12
 1387              		.cfi_offset 5, -8
 1388              		.cfi_offset 14, -4
 836:D:/Work/DeviceTester/amazon-freertos/lib/third_party/mbedtls/library\x509.c ****     int ret;
 837:D:/Work/DeviceTester/amazon-freertos/lib/third_party/mbedtls/library\x509.c ****     char *p = buf;
 838:D:/Work/DeviceTester/amazon-freertos/lib/third_party/mbedtls/library\x509.c ****     size_t n = size;
 839:D:/Work/DeviceTester/amazon-freertos/lib/third_party/mbedtls/library\x509.c ****     const char *desc = NULL;
 1389              		.loc 1 839 0
 1390 0004 0030A0E3 		mov	r3, #0
 1391              	.LVL147:
 835:D:/Work/DeviceTester/amazon-freertos/lib/third_party/mbedtls/library\x509.c ****     int ret;
 1392              		.loc 1 835 0
 1393 0008 0140A0E1 		mov	r4, r1
 1394              		.loc 1 839 0
 1395 000c 08108DE2 		add	r1, sp, #8
 1396              	.LVL148:
 835:D:/Work/DeviceTester/amazon-freertos/lib/third_party/mbedtls/library\x509.c ****     int ret;
 1397              		.loc 1 835 0
 1398 0010 0050A0E1 		mov	r5, r0
 1399              	.LVL149:
 840:D:/Work/DeviceTester/amazon-freertos/lib/third_party/mbedtls/library\x509.c **** 
 841:D:/Work/DeviceTester/amazon-freertos/lib/third_party/mbedtls/library\x509.c ****     ret = mbedtls_oid_get_sig_alg_desc( sig_oid, &desc );
 1400              		.loc 1 841 0
 1401 0014 0200A0E1 		mov	r0, r2
 1402              	.LVL150:
 839:D:/Work/DeviceTester/amazon-freertos/lib/third_party/mbedtls/library\x509.c **** 
 1403              		.loc 1 839 0
 1404 0018 043021E5 		str	r3, [r1, #-4]!
 1405              		.loc 1 841 0
 1406 001c FEFFFFEB 		bl	mbedtls_oid_get_sig_alg_desc
 1407              	.LVL151:
 842:D:/Work/DeviceTester/amazon-freertos/lib/third_party/mbedtls/library\x509.c ****     if( ret != 0 )
 1408              		.loc 1 842 0
 1409 0020 000050E3 		cmp	r0, #0
 1410 0024 0B00000A 		beq	.L151
 843:D:/Work/DeviceTester/amazon-freertos/lib/third_party/mbedtls/library\x509.c ****         ret = mbedtls_snprintf( p, n, "???"  );
 1411              		.loc 1 843 0
 1412 0028 40209FE5 		ldr	r2, .L157
 1413 002c 0410A0E1 		mov	r1, r4
 1414 0030 0500A0E1 		mov	r0, r5
 1415              	.LVL152:
 1416 0034 FEFFFFEB 		bl	snprintf
 1417              	.LVL153:
 1418              	.L152:
 844:D:/Work/DeviceTester/amazon-freertos/lib/third_party/mbedtls/library\x509.c ****     else
 845:D:/Work/DeviceTester/amazon-freertos/lib/third_party/mbedtls/library\x509.c ****         ret = mbedtls_snprintf( p, n, "%s", desc );
 846:D:/Work/DeviceTester/amazon-freertos/lib/third_party/mbedtls/library\x509.c ****     MBEDTLS_X509_SAFE_SNPRINTF;
 1419              		.loc 1 846 0
 1420 0038 000054E1 		cmp	r4, r0
 1421 003c 0040A083 		movhi	r4, #0
 1422              	.LVL154:
 1423 0040 0140A093 		movls	r4, #1
 1424 0044 A03F94E1 		orrs	r3, r4, r0, lsr #31
 847:D:/Work/DeviceTester/amazon-freertos/lib/third_party/mbedtls/library\x509.c **** 
 848:D:/Work/DeviceTester/amazon-freertos/lib/third_party/mbedtls/library\x509.c **** #if defined(MBEDTLS_X509_RSASSA_PSS_SUPPORT)
 849:D:/Work/DeviceTester/amazon-freertos/lib/third_party/mbedtls/library\x509.c ****     if( pk_alg == MBEDTLS_PK_RSASSA_PSS )
 850:D:/Work/DeviceTester/amazon-freertos/lib/third_party/mbedtls/library\x509.c ****     {
 851:D:/Work/DeviceTester/amazon-freertos/lib/third_party/mbedtls/library\x509.c ****         const mbedtls_pk_rsassa_pss_options *pss_opts;
 852:D:/Work/DeviceTester/amazon-freertos/lib/third_party/mbedtls/library\x509.c ****         const mbedtls_md_info_t *md_info, *mgf_md_info;
 853:D:/Work/DeviceTester/amazon-freertos/lib/third_party/mbedtls/library\x509.c **** 
 854:D:/Work/DeviceTester/amazon-freertos/lib/third_party/mbedtls/library\x509.c ****         pss_opts = (const mbedtls_pk_rsassa_pss_options *) sig_opts;
 855:D:/Work/DeviceTester/amazon-freertos/lib/third_party/mbedtls/library\x509.c **** 
 856:D:/Work/DeviceTester/amazon-freertos/lib/third_party/mbedtls/library\x509.c ****         md_info = mbedtls_md_info_from_type( md_alg );
 857:D:/Work/DeviceTester/amazon-freertos/lib/third_party/mbedtls/library\x509.c ****         mgf_md_info = mbedtls_md_info_from_type( pss_opts->mgf1_hash_id );
 858:D:/Work/DeviceTester/amazon-freertos/lib/third_party/mbedtls/library\x509.c **** 
 859:D:/Work/DeviceTester/amazon-freertos/lib/third_party/mbedtls/library\x509.c ****         ret = mbedtls_snprintf( p, n, " (%s, MGF1-%s, 0x%02X)",
 860:D:/Work/DeviceTester/amazon-freertos/lib/third_party/mbedtls/library\x509.c ****                               md_info ? mbedtls_md_get_name( md_info ) : "???",
 861:D:/Work/DeviceTester/amazon-freertos/lib/third_party/mbedtls/library\x509.c ****                               mgf_md_info ? mbedtls_md_get_name( mgf_md_info ) : "???",
 862:D:/Work/DeviceTester/amazon-freertos/lib/third_party/mbedtls/library\x509.c ****                               pss_opts->expected_salt_len );
 863:D:/Work/DeviceTester/amazon-freertos/lib/third_party/mbedtls/library\x509.c ****         MBEDTLS_X509_SAFE_SNPRINTF;
 864:D:/Work/DeviceTester/amazon-freertos/lib/third_party/mbedtls/library\x509.c ****     }
 865:D:/Work/DeviceTester/amazon-freertos/lib/third_party/mbedtls/library\x509.c **** #else
 866:D:/Work/DeviceTester/amazon-freertos/lib/third_party/mbedtls/library\x509.c ****     ((void) pk_alg);
 867:D:/Work/DeviceTester/amazon-freertos/lib/third_party/mbedtls/library\x509.c ****     ((void) md_alg);
 868:D:/Work/DeviceTester/amazon-freertos/lib/third_party/mbedtls/library\x509.c ****     ((void) sig_opts);
 869:D:/Work/DeviceTester/amazon-freertos/lib/third_party/mbedtls/library\x509.c **** #endif /* MBEDTLS_X509_RSASSA_PSS_SUPPORT */
 870:D:/Work/DeviceTester/amazon-freertos/lib/third_party/mbedtls/library\x509.c **** 
 871:D:/Work/DeviceTester/amazon-freertos/lib/third_party/mbedtls/library\x509.c ****     return( (int)( size - n ) );
 872:D:/Work/DeviceTester/amazon-freertos/lib/third_party/mbedtls/library\x509.c **** }
 1425              		.loc 1 872 0
 1426 0048 24309FE5 		ldr	r3, .L157+4
 1427 004c 0300A011 		movne	r0, r3
 1428              	.LVL155:
 1429 0050 0CD08DE2 		add	sp, sp, #12
 1430              		.cfi_remember_state
 1431              		.cfi_def_cfa_offset 12
 1432              		@ sp needed
 1433 0054 3080BDE8 		pop	{r4, r5, pc}
 1434              	.LVL156:
 1435              	.L151:
 1436              		.cfi_restore_state
 845:D:/Work/DeviceTester/amazon-freertos/lib/third_party/mbedtls/library\x509.c ****     MBEDTLS_X509_SAFE_SNPRINTF;
 1437              		.loc 1 845 0
 1438 0058 04309DE5 		ldr	r3, [sp, #4]
 1439 005c 0410A0E1 		mov	r1, r4
 1440 0060 10209FE5 		ldr	r2, .L157+8
 1441 0064 0500A0E1 		mov	r0, r5
 1442              	.LVL157:
 1443 0068 FEFFFFEB 		bl	snprintf
 1444              	.LVL158:
 1445 006c F1FFFFEA 		b	.L152
 1446              	.L158:
 1447              		.align	2
 1448              	.L157:
 1449 0070 00000000 		.word	.LC9
 1450 0074 80D6FFFF 		.word	-10624
 1451 0078 0F000000 		.word	.LC4
 1452              		.cfi_endproc
 1453              	.LFE25:
 1455              		.section	.text.mbedtls_x509_key_size_helper,"ax",%progbits
 1456              		.align	2
 1457              		.global	mbedtls_x509_key_size_helper
 1458              		.syntax unified
 1459              		.arm
 1460              		.fpu neon
 1462              	mbedtls_x509_key_size_helper:
 1463              	.LFB26:
 873:D:/Work/DeviceTester/amazon-freertos/lib/third_party/mbedtls/library\x509.c **** 
 874:D:/Work/DeviceTester/amazon-freertos/lib/third_party/mbedtls/library\x509.c **** /*
 875:D:/Work/DeviceTester/amazon-freertos/lib/third_party/mbedtls/library\x509.c ****  * Helper for writing "RSA key size", "EC key size", etc
 876:D:/Work/DeviceTester/amazon-freertos/lib/third_party/mbedtls/library\x509.c ****  */
 877:D:/Work/DeviceTester/amazon-freertos/lib/third_party/mbedtls/library\x509.c **** int mbedtls_x509_key_size_helper( char *buf, size_t buf_size, const char *name )
 878:D:/Work/DeviceTester/amazon-freertos/lib/third_party/mbedtls/library\x509.c **** {
 1464              		.loc 1 878 0
 1465              		.cfi_startproc
 1466              		@ args = 0, pretend = 0, frame = 0
 1467              		@ frame_needed = 0, uses_anonymous_args = 0
 1468              	.LVL159:
 879:D:/Work/DeviceTester/amazon-freertos/lib/third_party/mbedtls/library\x509.c ****     char *p = buf;
 880:D:/Work/DeviceTester/amazon-freertos/lib/third_party/mbedtls/library\x509.c ****     size_t n = buf_size;
 881:D:/Work/DeviceTester/amazon-freertos/lib/third_party/mbedtls/library\x509.c ****     int ret;
 882:D:/Work/DeviceTester/amazon-freertos/lib/third_party/mbedtls/library\x509.c **** 
 883:D:/Work/DeviceTester/amazon-freertos/lib/third_party/mbedtls/library\x509.c ****     ret = mbedtls_snprintf( p, n, "%s key size", name );
 1469              		.loc 1 883 0
 1470 0000 0230A0E1 		mov	r3, r2
 878:D:/Work/DeviceTester/amazon-freertos/lib/third_party/mbedtls/library\x509.c ****     char *p = buf;
 1471              		.loc 1 878 0
 1472 0004 10402DE9 		push	{r4, lr}
 1473              		.cfi_def_cfa_offset 8
 1474              		.cfi_offset 4, -8
 1475              		.cfi_offset 14, -4
 1476              		.loc 1 883 0
 1477 0008 20209FE5 		ldr	r2, .L163
 1478              	.LVL160:
 878:D:/Work/DeviceTester/amazon-freertos/lib/third_party/mbedtls/library\x509.c ****     char *p = buf;
 1479              		.loc 1 878 0
 1480 000c 0140A0E1 		mov	r4, r1
 1481              	.LVL161:
 1482              		.loc 1 883 0
 1483 0010 FEFFFFEB 		bl	snprintf
 1484              	.LVL162:
 884:D:/Work/DeviceTester/amazon-freertos/lib/third_party/mbedtls/library\x509.c ****     MBEDTLS_X509_SAFE_SNPRINTF;
 1485              		.loc 1 884 0
 1486 0014 000054E1 		cmp	r4, r0
 1487 0018 0040A083 		movhi	r4, #0
 1488              	.LVL163:
 1489 001c 0140A093 		movls	r4, #1
 1490 0020 A03F94E1 		orrs	r3, r4, r0, lsr #31
 885:D:/Work/DeviceTester/amazon-freertos/lib/third_party/mbedtls/library\x509.c **** 
 886:D:/Work/DeviceTester/amazon-freertos/lib/third_party/mbedtls/library\x509.c ****     return( 0 );
 887:D:/Work/DeviceTester/amazon-freertos/lib/third_party/mbedtls/library\x509.c **** }
 1491              		.loc 1 887 0
 1492 0024 08009FE5 		ldr	r0, .L163+4
 1493              	.LVL164:
 1494 0028 0000A003 		moveq	r0, #0
 1495 002c 1080BDE8 		pop	{r4, pc}
 1496              	.L164:
 1497              		.align	2
 1498              	.L163:
 1499 0030 00000000 		.word	.LC10
 1500 0034 80D6FFFF 		.word	-10624
 1501              		.cfi_endproc
 1502              	.LFE26:
 1504              		.section	.text.mbedtls_x509_time_is_past,"ax",%progbits
 1505              		.align	2
 1506              		.global	mbedtls_x509_time_is_past
 1507              		.syntax unified
 1508              		.arm
 1509              		.fpu neon
 1511              	mbedtls_x509_time_is_past:
 1512              	.LFB31:
 1513              		.cfi_startproc
 1514              		@ args = 0, pretend = 0, frame = 0
 1515              		@ frame_needed = 0, uses_anonymous_args = 0
 1516              		@ link register save eliminated.
 1517 0000 0000A0E3 		mov	r0, #0
 1518 0004 1EFF2FE1 		bx	lr
 1519              		.cfi_endproc
 1520              	.LFE31:
 1522              		.section	.text.mbedtls_x509_time_is_future,"ax",%progbits
 1523              		.align	2
 1524              		.global	mbedtls_x509_time_is_future
 1525              		.syntax unified
 1526              		.arm
 1527              		.fpu neon
 1529              	mbedtls_x509_time_is_future:
 1530              	.LFB28:
 888:D:/Work/DeviceTester/amazon-freertos/lib/third_party/mbedtls/library\x509.c **** 
 889:D:/Work/DeviceTester/amazon-freertos/lib/third_party/mbedtls/library\x509.c **** #if defined(MBEDTLS_HAVE_TIME_DATE)
 890:D:/Work/DeviceTester/amazon-freertos/lib/third_party/mbedtls/library\x509.c **** /*
 891:D:/Work/DeviceTester/amazon-freertos/lib/third_party/mbedtls/library\x509.c ****  * Set the time structure to the current time.
 892:D:/Work/DeviceTester/amazon-freertos/lib/third_party/mbedtls/library\x509.c ****  * Return 0 on success, non-zero on failure.
 893:D:/Work/DeviceTester/amazon-freertos/lib/third_party/mbedtls/library\x509.c ****  */
 894:D:/Work/DeviceTester/amazon-freertos/lib/third_party/mbedtls/library\x509.c **** static int x509_get_current_time( mbedtls_x509_time *now )
 895:D:/Work/DeviceTester/amazon-freertos/lib/third_party/mbedtls/library\x509.c **** {
 896:D:/Work/DeviceTester/amazon-freertos/lib/third_party/mbedtls/library\x509.c ****     struct tm *lt, tm_buf;
 897:D:/Work/DeviceTester/amazon-freertos/lib/third_party/mbedtls/library\x509.c ****     mbedtls_time_t tt;
 898:D:/Work/DeviceTester/amazon-freertos/lib/third_party/mbedtls/library\x509.c ****     int ret = 0;
 899:D:/Work/DeviceTester/amazon-freertos/lib/third_party/mbedtls/library\x509.c **** 
 900:D:/Work/DeviceTester/amazon-freertos/lib/third_party/mbedtls/library\x509.c ****     tt = mbedtls_time( NULL );
 901:D:/Work/DeviceTester/amazon-freertos/lib/third_party/mbedtls/library\x509.c ****     lt = mbedtls_platform_gmtime_r( &tt, &tm_buf );
 902:D:/Work/DeviceTester/amazon-freertos/lib/third_party/mbedtls/library\x509.c **** 
 903:D:/Work/DeviceTester/amazon-freertos/lib/third_party/mbedtls/library\x509.c ****     if( lt == NULL )
 904:D:/Work/DeviceTester/amazon-freertos/lib/third_party/mbedtls/library\x509.c ****         ret = -1;
 905:D:/Work/DeviceTester/amazon-freertos/lib/third_party/mbedtls/library\x509.c ****     else
 906:D:/Work/DeviceTester/amazon-freertos/lib/third_party/mbedtls/library\x509.c ****     {
 907:D:/Work/DeviceTester/amazon-freertos/lib/third_party/mbedtls/library\x509.c ****         now->year = lt->tm_year + 1900;
 908:D:/Work/DeviceTester/amazon-freertos/lib/third_party/mbedtls/library\x509.c ****         now->mon  = lt->tm_mon  + 1;
 909:D:/Work/DeviceTester/amazon-freertos/lib/third_party/mbedtls/library\x509.c ****         now->day  = lt->tm_mday;
 910:D:/Work/DeviceTester/amazon-freertos/lib/third_party/mbedtls/library\x509.c ****         now->hour = lt->tm_hour;
 911:D:/Work/DeviceTester/amazon-freertos/lib/third_party/mbedtls/library\x509.c ****         now->min  = lt->tm_min;
 912:D:/Work/DeviceTester/amazon-freertos/lib/third_party/mbedtls/library\x509.c ****         now->sec  = lt->tm_sec;
 913:D:/Work/DeviceTester/amazon-freertos/lib/third_party/mbedtls/library\x509.c ****     }
 914:D:/Work/DeviceTester/amazon-freertos/lib/third_party/mbedtls/library\x509.c **** 
 915:D:/Work/DeviceTester/amazon-freertos/lib/third_party/mbedtls/library\x509.c ****     return( ret );
 916:D:/Work/DeviceTester/amazon-freertos/lib/third_party/mbedtls/library\x509.c **** }
 917:D:/Work/DeviceTester/amazon-freertos/lib/third_party/mbedtls/library\x509.c **** 
 918:D:/Work/DeviceTester/amazon-freertos/lib/third_party/mbedtls/library\x509.c **** /*
 919:D:/Work/DeviceTester/amazon-freertos/lib/third_party/mbedtls/library\x509.c ****  * Return 0 if before <= after, 1 otherwise
 920:D:/Work/DeviceTester/amazon-freertos/lib/third_party/mbedtls/library\x509.c ****  */
 921:D:/Work/DeviceTester/amazon-freertos/lib/third_party/mbedtls/library\x509.c **** static int x509_check_time( const mbedtls_x509_time *before, const mbedtls_x509_time *after )
 922:D:/Work/DeviceTester/amazon-freertos/lib/third_party/mbedtls/library\x509.c **** {
 923:D:/Work/DeviceTester/amazon-freertos/lib/third_party/mbedtls/library\x509.c ****     if( before->year  > after->year )
 924:D:/Work/DeviceTester/amazon-freertos/lib/third_party/mbedtls/library\x509.c ****         return( 1 );
 925:D:/Work/DeviceTester/amazon-freertos/lib/third_party/mbedtls/library\x509.c **** 
 926:D:/Work/DeviceTester/amazon-freertos/lib/third_party/mbedtls/library\x509.c ****     if( before->year == after->year &&
 927:D:/Work/DeviceTester/amazon-freertos/lib/third_party/mbedtls/library\x509.c ****         before->mon   > after->mon )
 928:D:/Work/DeviceTester/amazon-freertos/lib/third_party/mbedtls/library\x509.c ****         return( 1 );
 929:D:/Work/DeviceTester/amazon-freertos/lib/third_party/mbedtls/library\x509.c **** 
 930:D:/Work/DeviceTester/amazon-freertos/lib/third_party/mbedtls/library\x509.c ****     if( before->year == after->year &&
 931:D:/Work/DeviceTester/amazon-freertos/lib/third_party/mbedtls/library\x509.c ****         before->mon  == after->mon  &&
 932:D:/Work/DeviceTester/amazon-freertos/lib/third_party/mbedtls/library\x509.c ****         before->day   > after->day )
 933:D:/Work/DeviceTester/amazon-freertos/lib/third_party/mbedtls/library\x509.c ****         return( 1 );
 934:D:/Work/DeviceTester/amazon-freertos/lib/third_party/mbedtls/library\x509.c **** 
 935:D:/Work/DeviceTester/amazon-freertos/lib/third_party/mbedtls/library\x509.c ****     if( before->year == after->year &&
 936:D:/Work/DeviceTester/amazon-freertos/lib/third_party/mbedtls/library\x509.c ****         before->mon  == after->mon  &&
 937:D:/Work/DeviceTester/amazon-freertos/lib/third_party/mbedtls/library\x509.c ****         before->day  == after->day  &&
 938:D:/Work/DeviceTester/amazon-freertos/lib/third_party/mbedtls/library\x509.c ****         before->hour  > after->hour )
 939:D:/Work/DeviceTester/amazon-freertos/lib/third_party/mbedtls/library\x509.c ****         return( 1 );
 940:D:/Work/DeviceTester/amazon-freertos/lib/third_party/mbedtls/library\x509.c **** 
 941:D:/Work/DeviceTester/amazon-freertos/lib/third_party/mbedtls/library\x509.c ****     if( before->year == after->year &&
 942:D:/Work/DeviceTester/amazon-freertos/lib/third_party/mbedtls/library\x509.c ****         before->mon  == after->mon  &&
 943:D:/Work/DeviceTester/amazon-freertos/lib/third_party/mbedtls/library\x509.c ****         before->day  == after->day  &&
 944:D:/Work/DeviceTester/amazon-freertos/lib/third_party/mbedtls/library\x509.c ****         before->hour == after->hour &&
 945:D:/Work/DeviceTester/amazon-freertos/lib/third_party/mbedtls/library\x509.c ****         before->min   > after->min  )
 946:D:/Work/DeviceTester/amazon-freertos/lib/third_party/mbedtls/library\x509.c ****         return( 1 );
 947:D:/Work/DeviceTester/amazon-freertos/lib/third_party/mbedtls/library\x509.c **** 
 948:D:/Work/DeviceTester/amazon-freertos/lib/third_party/mbedtls/library\x509.c ****     if( before->year == after->year &&
 949:D:/Work/DeviceTester/amazon-freertos/lib/third_party/mbedtls/library\x509.c ****         before->mon  == after->mon  &&
 950:D:/Work/DeviceTester/amazon-freertos/lib/third_party/mbedtls/library\x509.c ****         before->day  == after->day  &&
 951:D:/Work/DeviceTester/amazon-freertos/lib/third_party/mbedtls/library\x509.c ****         before->hour == after->hour &&
 952:D:/Work/DeviceTester/amazon-freertos/lib/third_party/mbedtls/library\x509.c ****         before->min  == after->min  &&
 953:D:/Work/DeviceTester/amazon-freertos/lib/third_party/mbedtls/library\x509.c ****         before->sec   > after->sec  )
 954:D:/Work/DeviceTester/amazon-freertos/lib/third_party/mbedtls/library\x509.c ****         return( 1 );
 955:D:/Work/DeviceTester/amazon-freertos/lib/third_party/mbedtls/library\x509.c **** 
 956:D:/Work/DeviceTester/amazon-freertos/lib/third_party/mbedtls/library\x509.c ****     return( 0 );
 957:D:/Work/DeviceTester/amazon-freertos/lib/third_party/mbedtls/library\x509.c **** }
 958:D:/Work/DeviceTester/amazon-freertos/lib/third_party/mbedtls/library\x509.c **** 
 959:D:/Work/DeviceTester/amazon-freertos/lib/third_party/mbedtls/library\x509.c **** int mbedtls_x509_time_is_past( const mbedtls_x509_time *to )
 960:D:/Work/DeviceTester/amazon-freertos/lib/third_party/mbedtls/library\x509.c **** {
 961:D:/Work/DeviceTester/amazon-freertos/lib/third_party/mbedtls/library\x509.c ****     mbedtls_x509_time now;
 962:D:/Work/DeviceTester/amazon-freertos/lib/third_party/mbedtls/library\x509.c **** 
 963:D:/Work/DeviceTester/amazon-freertos/lib/third_party/mbedtls/library\x509.c ****     if( x509_get_current_time( &now ) != 0 )
 964:D:/Work/DeviceTester/amazon-freertos/lib/third_party/mbedtls/library\x509.c ****         return( 1 );
 965:D:/Work/DeviceTester/amazon-freertos/lib/third_party/mbedtls/library\x509.c **** 
 966:D:/Work/DeviceTester/amazon-freertos/lib/third_party/mbedtls/library\x509.c ****     return( x509_check_time( &now, to ) );
 967:D:/Work/DeviceTester/amazon-freertos/lib/third_party/mbedtls/library\x509.c **** }
 968:D:/Work/DeviceTester/amazon-freertos/lib/third_party/mbedtls/library\x509.c **** 
 969:D:/Work/DeviceTester/amazon-freertos/lib/third_party/mbedtls/library\x509.c **** int mbedtls_x509_time_is_future( const mbedtls_x509_time *from )
 970:D:/Work/DeviceTester/amazon-freertos/lib/third_party/mbedtls/library\x509.c **** {
 971:D:/Work/DeviceTester/amazon-freertos/lib/third_party/mbedtls/library\x509.c ****     mbedtls_x509_time now;
 972:D:/Work/DeviceTester/amazon-freertos/lib/third_party/mbedtls/library\x509.c **** 
 973:D:/Work/DeviceTester/amazon-freertos/lib/third_party/mbedtls/library\x509.c ****     if( x509_get_current_time( &now ) != 0 )
 974:D:/Work/DeviceTester/amazon-freertos/lib/third_party/mbedtls/library\x509.c ****         return( 1 );
 975:D:/Work/DeviceTester/amazon-freertos/lib/third_party/mbedtls/library\x509.c **** 
 976:D:/Work/DeviceTester/amazon-freertos/lib/third_party/mbedtls/library\x509.c ****     return( x509_check_time( from, &now ) );
 977:D:/Work/DeviceTester/amazon-freertos/lib/third_party/mbedtls/library\x509.c **** }
 978:D:/Work/DeviceTester/amazon-freertos/lib/third_party/mbedtls/library\x509.c **** 
 979:D:/Work/DeviceTester/amazon-freertos/lib/third_party/mbedtls/library\x509.c **** #else  /* MBEDTLS_HAVE_TIME_DATE */
 980:D:/Work/DeviceTester/amazon-freertos/lib/third_party/mbedtls/library\x509.c **** 
 981:D:/Work/DeviceTester/amazon-freertos/lib/third_party/mbedtls/library\x509.c **** int mbedtls_x509_time_is_past( const mbedtls_x509_time *to )
 982:D:/Work/DeviceTester/amazon-freertos/lib/third_party/mbedtls/library\x509.c **** {
 983:D:/Work/DeviceTester/amazon-freertos/lib/third_party/mbedtls/library\x509.c ****     ((void) to);
 984:D:/Work/DeviceTester/amazon-freertos/lib/third_party/mbedtls/library\x509.c ****     return( 0 );
 985:D:/Work/DeviceTester/amazon-freertos/lib/third_party/mbedtls/library\x509.c **** }
 986:D:/Work/DeviceTester/amazon-freertos/lib/third_party/mbedtls/library\x509.c **** 
 987:D:/Work/DeviceTester/amazon-freertos/lib/third_party/mbedtls/library\x509.c **** int mbedtls_x509_time_is_future( const mbedtls_x509_time *from )
 988:D:/Work/DeviceTester/amazon-freertos/lib/third_party/mbedtls/library\x509.c **** {
 1531              		.loc 1 988 0
 1532              		.cfi_startproc
 1533              		@ args = 0, pretend = 0, frame = 0
 1534              		@ frame_needed = 0, uses_anonymous_args = 0
 1535              		@ link register save eliminated.
 1536              	.LVL165:
 989:D:/Work/DeviceTester/amazon-freertos/lib/third_party/mbedtls/library\x509.c ****     ((void) from);
 990:D:/Work/DeviceTester/amazon-freertos/lib/third_party/mbedtls/library\x509.c ****     return( 0 );
 991:D:/Work/DeviceTester/amazon-freertos/lib/third_party/mbedtls/library\x509.c **** }
 1537              		.loc 1 991 0
 1538 0000 0000A0E3 		mov	r0, #0
 1539              	.LVL166:
 1540 0004 1EFF2FE1 		bx	lr
 1541              		.cfi_endproc
 1542              	.LFE28:
 1544              		.section	.text.mbedtls_x509_self_test,"ax",%progbits
 1545              		.align	2
 1546              		.global	mbedtls_x509_self_test
 1547              		.syntax unified
 1548              		.arm
 1549              		.fpu neon
 1551              	mbedtls_x509_self_test:
 1552              	.LFB29:
 992:D:/Work/DeviceTester/amazon-freertos/lib/third_party/mbedtls/library\x509.c **** #endif /* MBEDTLS_HAVE_TIME_DATE */
 993:D:/Work/DeviceTester/amazon-freertos/lib/third_party/mbedtls/library\x509.c **** 
 994:D:/Work/DeviceTester/amazon-freertos/lib/third_party/mbedtls/library\x509.c **** #if defined(MBEDTLS_SELF_TEST)
 995:D:/Work/DeviceTester/amazon-freertos/lib/third_party/mbedtls/library\x509.c **** 
 996:D:/Work/DeviceTester/amazon-freertos/lib/third_party/mbedtls/library\x509.c **** #include "mbedtls/x509_crt.h"
 997:D:/Work/DeviceTester/amazon-freertos/lib/third_party/mbedtls/library\x509.c **** #include "mbedtls/certs.h"
 998:D:/Work/DeviceTester/amazon-freertos/lib/third_party/mbedtls/library\x509.c **** 
 999:D:/Work/DeviceTester/amazon-freertos/lib/third_party/mbedtls/library\x509.c **** /*
1000:D:/Work/DeviceTester/amazon-freertos/lib/third_party/mbedtls/library\x509.c ****  * Checkup routine
1001:D:/Work/DeviceTester/amazon-freertos/lib/third_party/mbedtls/library\x509.c ****  */
1002:D:/Work/DeviceTester/amazon-freertos/lib/third_party/mbedtls/library\x509.c **** int mbedtls_x509_self_test( int verbose )
1003:D:/Work/DeviceTester/amazon-freertos/lib/third_party/mbedtls/library\x509.c **** {
 1553              		.loc 1 1003 0
 1554              		.cfi_startproc
 1555              		@ args = 0, pretend = 0, frame = 0
 1556              		@ frame_needed = 0, uses_anonymous_args = 0
 1557              		@ link register save eliminated.
 1558              	.LVL167:
1004:D:/Work/DeviceTester/amazon-freertos/lib/third_party/mbedtls/library\x509.c **** #if defined(MBEDTLS_CERTS_C) && defined(MBEDTLS_SHA256_C)
1005:D:/Work/DeviceTester/amazon-freertos/lib/third_party/mbedtls/library\x509.c ****     int ret;
1006:D:/Work/DeviceTester/amazon-freertos/lib/third_party/mbedtls/library\x509.c ****     uint32_t flags;
1007:D:/Work/DeviceTester/amazon-freertos/lib/third_party/mbedtls/library\x509.c ****     mbedtls_x509_crt cacert;
1008:D:/Work/DeviceTester/amazon-freertos/lib/third_party/mbedtls/library\x509.c ****     mbedtls_x509_crt clicert;
1009:D:/Work/DeviceTester/amazon-freertos/lib/third_party/mbedtls/library\x509.c **** 
1010:D:/Work/DeviceTester/amazon-freertos/lib/third_party/mbedtls/library\x509.c ****     if( verbose != 0 )
1011:D:/Work/DeviceTester/amazon-freertos/lib/third_party/mbedtls/library\x509.c ****         mbedtls_printf( "  X.509 certificate load: " );
1012:D:/Work/DeviceTester/amazon-freertos/lib/third_party/mbedtls/library\x509.c **** 
1013:D:/Work/DeviceTester/amazon-freertos/lib/third_party/mbedtls/library\x509.c ****     mbedtls_x509_crt_init( &clicert );
1014:D:/Work/DeviceTester/amazon-freertos/lib/third_party/mbedtls/library\x509.c **** 
1015:D:/Work/DeviceTester/amazon-freertos/lib/third_party/mbedtls/library\x509.c ****     ret = mbedtls_x509_crt_parse( &clicert, (const unsigned char *) mbedtls_test_cli_crt,
1016:D:/Work/DeviceTester/amazon-freertos/lib/third_party/mbedtls/library\x509.c ****                            mbedtls_test_cli_crt_len );
1017:D:/Work/DeviceTester/amazon-freertos/lib/third_party/mbedtls/library\x509.c ****     if( ret != 0 )
1018:D:/Work/DeviceTester/amazon-freertos/lib/third_party/mbedtls/library\x509.c ****     {
1019:D:/Work/DeviceTester/amazon-freertos/lib/third_party/mbedtls/library\x509.c ****         if( verbose != 0 )
1020:D:/Work/DeviceTester/amazon-freertos/lib/third_party/mbedtls/library\x509.c ****             mbedtls_printf( "failed\n" );
1021:D:/Work/DeviceTester/amazon-freertos/lib/third_party/mbedtls/library\x509.c **** 
1022:D:/Work/DeviceTester/amazon-freertos/lib/third_party/mbedtls/library\x509.c ****         return( ret );
1023:D:/Work/DeviceTester/amazon-freertos/lib/third_party/mbedtls/library\x509.c ****     }
1024:D:/Work/DeviceTester/amazon-freertos/lib/third_party/mbedtls/library\x509.c **** 
1025:D:/Work/DeviceTester/amazon-freertos/lib/third_party/mbedtls/library\x509.c ****     mbedtls_x509_crt_init( &cacert );
1026:D:/Work/DeviceTester/amazon-freertos/lib/third_party/mbedtls/library\x509.c **** 
1027:D:/Work/DeviceTester/amazon-freertos/lib/third_party/mbedtls/library\x509.c ****     ret = mbedtls_x509_crt_parse( &cacert, (const unsigned char *) mbedtls_test_ca_crt,
1028:D:/Work/DeviceTester/amazon-freertos/lib/third_party/mbedtls/library\x509.c ****                           mbedtls_test_ca_crt_len );
1029:D:/Work/DeviceTester/amazon-freertos/lib/third_party/mbedtls/library\x509.c ****     if( ret != 0 )
1030:D:/Work/DeviceTester/amazon-freertos/lib/third_party/mbedtls/library\x509.c ****     {
1031:D:/Work/DeviceTester/amazon-freertos/lib/third_party/mbedtls/library\x509.c ****         if( verbose != 0 )
1032:D:/Work/DeviceTester/amazon-freertos/lib/third_party/mbedtls/library\x509.c ****             mbedtls_printf( "failed\n" );
1033:D:/Work/DeviceTester/amazon-freertos/lib/third_party/mbedtls/library\x509.c **** 
1034:D:/Work/DeviceTester/amazon-freertos/lib/third_party/mbedtls/library\x509.c ****         return( ret );
1035:D:/Work/DeviceTester/amazon-freertos/lib/third_party/mbedtls/library\x509.c ****     }
1036:D:/Work/DeviceTester/amazon-freertos/lib/third_party/mbedtls/library\x509.c **** 
1037:D:/Work/DeviceTester/amazon-freertos/lib/third_party/mbedtls/library\x509.c ****     if( verbose != 0 )
1038:D:/Work/DeviceTester/amazon-freertos/lib/third_party/mbedtls/library\x509.c ****         mbedtls_printf( "passed\n  X.509 signature verify: ");
1039:D:/Work/DeviceTester/amazon-freertos/lib/third_party/mbedtls/library\x509.c **** 
1040:D:/Work/DeviceTester/amazon-freertos/lib/third_party/mbedtls/library\x509.c ****     ret = mbedtls_x509_crt_verify( &clicert, &cacert, NULL, NULL, &flags, NULL, NULL );
1041:D:/Work/DeviceTester/amazon-freertos/lib/third_party/mbedtls/library\x509.c ****     if( ret != 0 )
1042:D:/Work/DeviceTester/amazon-freertos/lib/third_party/mbedtls/library\x509.c ****     {
1043:D:/Work/DeviceTester/amazon-freertos/lib/third_party/mbedtls/library\x509.c ****         if( verbose != 0 )
1044:D:/Work/DeviceTester/amazon-freertos/lib/third_party/mbedtls/library\x509.c ****             mbedtls_printf( "failed\n" );
1045:D:/Work/DeviceTester/amazon-freertos/lib/third_party/mbedtls/library\x509.c **** 
1046:D:/Work/DeviceTester/amazon-freertos/lib/third_party/mbedtls/library\x509.c ****         return( ret );
1047:D:/Work/DeviceTester/amazon-freertos/lib/third_party/mbedtls/library\x509.c ****     }
1048:D:/Work/DeviceTester/amazon-freertos/lib/third_party/mbedtls/library\x509.c **** 
1049:D:/Work/DeviceTester/amazon-freertos/lib/third_party/mbedtls/library\x509.c ****     if( verbose != 0 )
1050:D:/Work/DeviceTester/amazon-freertos/lib/third_party/mbedtls/library\x509.c ****         mbedtls_printf( "passed\n\n");
1051:D:/Work/DeviceTester/amazon-freertos/lib/third_party/mbedtls/library\x509.c **** 
1052:D:/Work/DeviceTester/amazon-freertos/lib/third_party/mbedtls/library\x509.c ****     mbedtls_x509_crt_free( &cacert  );
1053:D:/Work/DeviceTester/amazon-freertos/lib/third_party/mbedtls/library\x509.c ****     mbedtls_x509_crt_free( &clicert );
1054:D:/Work/DeviceTester/amazon-freertos/lib/third_party/mbedtls/library\x509.c **** 
1055:D:/Work/DeviceTester/amazon-freertos/lib/third_party/mbedtls/library\x509.c ****     return( 0 );
1056:D:/Work/DeviceTester/amazon-freertos/lib/third_party/mbedtls/library\x509.c **** #else
1057:D:/Work/DeviceTester/amazon-freertos/lib/third_party/mbedtls/library\x509.c ****     ((void) verbose);
1058:D:/Work/DeviceTester/amazon-freertos/lib/third_party/mbedtls/library\x509.c ****     return( 0 );
1059:D:/Work/DeviceTester/amazon-freertos/lib/third_party/mbedtls/library\x509.c **** #endif /* MBEDTLS_CERTS_C && MBEDTLS_SHA1_C */
1060:D:/Work/DeviceTester/amazon-freertos/lib/third_party/mbedtls/library\x509.c **** }
 1559              		.loc 1 1060 0
 1560 0000 0000A0E3 		mov	r0, #0
 1561              	.LVL168:
 1562 0004 1EFF2FE1 		bx	lr
 1563              		.cfi_endproc
 1564              	.LFE29:
 1566              		.section	.rodata.mbedtls_x509_dn_gets.str1.1,"aMS",%progbits,1
 1567              	.LC0:
 1568 0000 202B2000 		.ascii	" + \000"
 1569              	.LC1:
 1570 0004 2C2000   		.ascii	", \000"
 1571              	.LC2:
 1572 0007 25733D00 		.ascii	"%s=\000"
 1573              	.LC3:
 1574 000b 3F3F3D00 		.ascii	"??=\000"
 1575              	.LC4:
 1576 000f 257300   		.ascii	"%s\000"
 1577              		.section	.rodata.mbedtls_x509_key_size_helper.str1.1,"aMS",%progbits,1
 1578              	.LC10:
 1579 0000 2573206B 		.ascii	"%s key size\000"
 1579      65792073 
 1579      697A6500 
 1580              		.section	.rodata.mbedtls_x509_serial_gets.str1.1,"aMS",%progbits,1
 1581              	.LC5:
 1582 0000 3A00     		.ascii	":\000"
 1583              	.LC6:
 1584 0002 00       		.ascii	"\000"
 1585              	.LC7:
 1586 0003 25303258 		.ascii	"%02X%s\000"
 1586      257300
 1587              	.LC8:
 1588 000a 2E2E2E2E 		.ascii	"....\000"
 1588      00
 1589              		.section	.rodata.mbedtls_x509_sig_alg_gets.str1.1,"aMS",%progbits,1
 1590              	.LC9:
 1591 0000 3F3F3F00 		.ascii	"???\000"
 1592              		.text
 1593              	.Letext0:
 1594              		.file 2 "c:\\program files (x86)\\gnu tools arm embedded\\6 2017-q2-update\\arm-none-eabi\\include
 1595              		.file 3 "c:\\program files (x86)\\gnu tools arm embedded\\6 2017-q2-update\\lib\\gcc\\arm-none-eab
 1596              		.file 4 "c:\\program files (x86)\\gnu tools arm embedded\\6 2017-q2-update\\arm-none-eabi\\include
 1597              		.file 5 "D:\\Work\\DeviceTester\\amazon-freertos\\lib\\third_party\\mbedtls\\include/mbedtls/asn1.
 1598              		.file 6 "D:\\Work\\DeviceTester\\amazon-freertos\\lib\\third_party\\mbedtls\\include/mbedtls/md.h"
 1599              		.file 7 "c:\\program files (x86)\\gnu tools arm embedded\\6 2017-q2-update\\arm-none-eabi\\include
 1600              		.file 8 "c:\\program files (x86)\\gnu tools arm embedded\\6 2017-q2-update\\arm-none-eabi\\include
 1601              		.file 9 "c:\\program files (x86)\\gnu tools arm embedded\\6 2017-q2-update\\arm-none-eabi\\include
 1602              		.file 10 "c:\\program files (x86)\\gnu tools arm embedded\\6 2017-q2-update\\arm-none-eabi\\includ
 1603              		.file 11 "c:\\program files (x86)\\gnu tools arm embedded\\6 2017-q2-update\\arm-none-eabi\\includ
 1604              		.file 12 "c:\\program files (x86)\\gnu tools arm embedded\\6 2017-q2-update\\arm-none-eabi\\includ
 1605              		.file 13 "D:\\Work\\DeviceTester\\amazon-freertos\\lib\\third_party\\unity\\src/unity_internals.h"
 1606              		.file 14 "D:\\Work\\DeviceTester\\amazon-freertos\\lib\\include/queue.h"
 1607              		.file 15 "D:\\Work\\DeviceTester\\amazon-freertos\\lib\\include/semphr.h"
 1608              		.file 16 "D:\\Work\\DeviceTester\\amazon-freertos\\lib\\include\\private/threading_alt.h"
 1609              		.file 17 "D:\\Work\\DeviceTester\\amazon-freertos\\lib\\third_party\\mbedtls\\include/mbedtls/thre
 1610              		.file 18 "D:\\Work\\DeviceTester\\amazon-freertos\\lib\\third_party\\mbedtls\\include/mbedtls/pk.h
 1611              		.file 19 "D:\\Work\\DeviceTester\\amazon-freertos\\lib\\third_party\\mbedtls\\include/mbedtls/x509
 1612              		.file 20 "c:\\program files (x86)\\gnu tools arm embedded\\6 2017-q2-update\\arm-none-eabi\\includ
 1613              		.file 21 "D:\\Work\\DeviceTester\\amazon-freertos\\lib\\third_party\\mbedtls\\include/mbedtls/x509
 1614              		.file 22 "D:\\Work\\DeviceTester\\amazon-freertos\\lib\\third_party\\mbedtls\\include/mbedtls/cert
 1615              		.file 23 "c:\\program files (x86)\\gnu tools arm embedded\\6 2017-q2-update\\arm-none-eabi\\includ
 1616              		.file 24 "D:\\Work\\DeviceTester\\amazon-freertos\\lib\\third_party\\mbedtls\\include/mbedtls/oid.
 1617              		.file 25 "D:\\Work\\DeviceTester\\amazon-freertos\\lib\\third_party\\mbedtls\\include/mbedtls/plat