   1              		.cpu cortex-a9
   2              		.eabi_attribute 28, 1
   3              		.eabi_attribute 20, 1
   4              		.eabi_attribute 21, 1
   5              		.eabi_attribute 23, 3
   6              		.eabi_attribute 24, 1
   7              		.eabi_attribute 25, 1
   8              		.eabi_attribute 26, 1
   9              		.eabi_attribute 30, 4
  10              		.eabi_attribute 34, 0
  11              		.eabi_attribute 18, 4
  12              		.file	"r_cache_lld_rza2m.c"
  13              		.text
  14              	.Ltext0:
  15              		.cfi_sections	.debug_frame
  16              		.section	.text.cache_l2_sync,"ax",%progbits
  17              		.align	2
  18              		.syntax unified
  19              		.arm
  20              		.fpu neon
  22              	cache_l2_sync:
  23              	.LFB25:
  24              		.file 1 "D:/Work/DeviceTester/amazon-freertos/lib/third_party/mcu_vendor/renesas/rz_mcu_boards/cor
   1:D:/Work/DeviceTester/amazon-freertos/lib/third_party/mcu_vendor/renesas/rz_mcu_boards/core_package/generate/drivers/r_cache/src/lld\r_cache_lld_rza2m.c **** /*******************************************************************************
   2:D:/Work/DeviceTester/amazon-freertos/lib/third_party/mcu_vendor/renesas/rz_mcu_boards/core_package/generate/drivers/r_cache/src/lld\r_cache_lld_rza2m.c **** * DISCLAIMER
   3:D:/Work/DeviceTester/amazon-freertos/lib/third_party/mcu_vendor/renesas/rz_mcu_boards/core_package/generate/drivers/r_cache/src/lld\r_cache_lld_rza2m.c **** * This software is supplied by Renesas Electronics Corporation and is only
   4:D:/Work/DeviceTester/amazon-freertos/lib/third_party/mcu_vendor/renesas/rz_mcu_boards/core_package/generate/drivers/r_cache/src/lld\r_cache_lld_rza2m.c **** * intended for use with Renesas products. No other uses are authorized. This
   5:D:/Work/DeviceTester/amazon-freertos/lib/third_party/mcu_vendor/renesas/rz_mcu_boards/core_package/generate/drivers/r_cache/src/lld\r_cache_lld_rza2m.c **** * software is owned by Renesas Electronics Corporation and is protected under
   6:D:/Work/DeviceTester/amazon-freertos/lib/third_party/mcu_vendor/renesas/rz_mcu_boards/core_package/generate/drivers/r_cache/src/lld\r_cache_lld_rza2m.c **** * all applicable laws, including copyright laws.
   7:D:/Work/DeviceTester/amazon-freertos/lib/third_party/mcu_vendor/renesas/rz_mcu_boards/core_package/generate/drivers/r_cache/src/lld\r_cache_lld_rza2m.c **** * THIS SOFTWARE IS PROVIDED "AS IS" AND RENESAS MAKES NO WARRANTIES REGARDING
   8:D:/Work/DeviceTester/amazon-freertos/lib/third_party/mcu_vendor/renesas/rz_mcu_boards/core_package/generate/drivers/r_cache/src/lld\r_cache_lld_rza2m.c **** * THIS SOFTWARE, WHETHER EXPRESS, IMPLIED OR STATUTORY, INCLUDING BUT NOT
   9:D:/Work/DeviceTester/amazon-freertos/lib/third_party/mcu_vendor/renesas/rz_mcu_boards/core_package/generate/drivers/r_cache/src/lld\r_cache_lld_rza2m.c **** * LIMITED TO WARRANTIES OF MERCHANTABILITY, FITNESS FOR A PARTICULAR PURPOSE
  10:D:/Work/DeviceTester/amazon-freertos/lib/third_party/mcu_vendor/renesas/rz_mcu_boards/core_package/generate/drivers/r_cache/src/lld\r_cache_lld_rza2m.c **** * AND NON-INFRINGEMENT. ALL SUCH WARRANTIES ARE EXPRESSLY DISCLAIMED.
  11:D:/Work/DeviceTester/amazon-freertos/lib/third_party/mcu_vendor/renesas/rz_mcu_boards/core_package/generate/drivers/r_cache/src/lld\r_cache_lld_rza2m.c **** * TO THE MAXIMUM EXTENT PERMITTED NOT PROHIBITED BY LAW, NEITHER RENESAS
  12:D:/Work/DeviceTester/amazon-freertos/lib/third_party/mcu_vendor/renesas/rz_mcu_boards/core_package/generate/drivers/r_cache/src/lld\r_cache_lld_rza2m.c **** * ELECTRONICS CORPORATION NOR ANY OF ITS AFFILIATED COMPANIES SHALL BE LIABLE
  13:D:/Work/DeviceTester/amazon-freertos/lib/third_party/mcu_vendor/renesas/rz_mcu_boards/core_package/generate/drivers/r_cache/src/lld\r_cache_lld_rza2m.c **** * FOR ANY DIRECT, INDIRECT, SPECIAL, INCIDENTAL OR CONSEQUENTIAL DAMAGES FOR
  14:D:/Work/DeviceTester/amazon-freertos/lib/third_party/mcu_vendor/renesas/rz_mcu_boards/core_package/generate/drivers/r_cache/src/lld\r_cache_lld_rza2m.c **** * ANY REASON RELATED TO THIS SOFTWARE, EVEN IF RENESAS OR ITS AFFILIATES HAVE
  15:D:/Work/DeviceTester/amazon-freertos/lib/third_party/mcu_vendor/renesas/rz_mcu_boards/core_package/generate/drivers/r_cache/src/lld\r_cache_lld_rza2m.c **** * BEEN ADVISED OF THE POSSIBILITY OF SUCH DAMAGES.
  16:D:/Work/DeviceTester/amazon-freertos/lib/third_party/mcu_vendor/renesas/rz_mcu_boards/core_package/generate/drivers/r_cache/src/lld\r_cache_lld_rza2m.c **** * Renesas reserves the right, without notice, to make changes to this software
  17:D:/Work/DeviceTester/amazon-freertos/lib/third_party/mcu_vendor/renesas/rz_mcu_boards/core_package/generate/drivers/r_cache/src/lld\r_cache_lld_rza2m.c **** * and to discontinue the availability of this software. By using this software,
  18:D:/Work/DeviceTester/amazon-freertos/lib/third_party/mcu_vendor/renesas/rz_mcu_boards/core_package/generate/drivers/r_cache/src/lld\r_cache_lld_rza2m.c **** * you agree to the additional terms and conditions found by accessing the
  19:D:/Work/DeviceTester/amazon-freertos/lib/third_party/mcu_vendor/renesas/rz_mcu_boards/core_package/generate/drivers/r_cache/src/lld\r_cache_lld_rza2m.c **** * following link:
  20:D:/Work/DeviceTester/amazon-freertos/lib/third_party/mcu_vendor/renesas/rz_mcu_boards/core_package/generate/drivers/r_cache/src/lld\r_cache_lld_rza2m.c **** * http://www.renesas.com/disclaimer
  21:D:/Work/DeviceTester/amazon-freertos/lib/third_party/mcu_vendor/renesas/rz_mcu_boards/core_package/generate/drivers/r_cache/src/lld\r_cache_lld_rza2m.c **** * Copyright (C) 2018 Renesas Electronics Corporation. All rights reserved.
  22:D:/Work/DeviceTester/amazon-freertos/lib/third_party/mcu_vendor/renesas/rz_mcu_boards/core_package/generate/drivers/r_cache/src/lld\r_cache_lld_rza2m.c **** *******************************************************************************/
  23:D:/Work/DeviceTester/amazon-freertos/lib/third_party/mcu_vendor/renesas/rz_mcu_boards/core_package/generate/drivers/r_cache/src/lld\r_cache_lld_rza2m.c **** /*******************************************************************************
  24:D:/Work/DeviceTester/amazon-freertos/lib/third_party/mcu_vendor/renesas/rz_mcu_boards/core_package/generate/drivers/r_cache/src/lld\r_cache_lld_rza2m.c **** * File Name    : r_cache_lld_rza2m.c
  25:D:/Work/DeviceTester/amazon-freertos/lib/third_party/mcu_vendor/renesas/rz_mcu_boards/core_package/generate/drivers/r_cache/src/lld\r_cache_lld_rza2m.c **** * Version      : 1.0
  26:D:/Work/DeviceTester/amazon-freertos/lib/third_party/mcu_vendor/renesas/rz_mcu_boards/core_package/generate/drivers/r_cache/src/lld\r_cache_lld_rza2m.c **** * Description  : Declaration of the Cortex-A9 Cache API function.
  27:D:/Work/DeviceTester/amazon-freertos/lib/third_party/mcu_vendor/renesas/rz_mcu_boards/core_package/generate/drivers/r_cache/src/lld\r_cache_lld_rza2m.c **** *******************************************************************************/
  28:D:/Work/DeviceTester/amazon-freertos/lib/third_party/mcu_vendor/renesas/rz_mcu_boards/core_package/generate/drivers/r_cache/src/lld\r_cache_lld_rza2m.c **** 
  29:D:/Work/DeviceTester/amazon-freertos/lib/third_party/mcu_vendor/renesas/rz_mcu_boards/core_package/generate/drivers/r_cache/src/lld\r_cache_lld_rza2m.c **** /******************************************************************************
  30:D:/Work/DeviceTester/amazon-freertos/lib/third_party/mcu_vendor/renesas/rz_mcu_boards/core_package/generate/drivers/r_cache/src/lld\r_cache_lld_rza2m.c **** Includes   <System Includes> , "Project Includes"
  31:D:/Work/DeviceTester/amazon-freertos/lib/third_party/mcu_vendor/renesas/rz_mcu_boards/core_package/generate/drivers/r_cache/src/lld\r_cache_lld_rza2m.c **** ******************************************************************************/
  32:D:/Work/DeviceTester/amazon-freertos/lib/third_party/mcu_vendor/renesas/rz_mcu_boards/core_package/generate/drivers/r_cache/src/lld\r_cache_lld_rza2m.c **** #include <stdint.h>
  33:D:/Work/DeviceTester/amazon-freertos/lib/third_party/mcu_vendor/renesas/rz_mcu_boards/core_package/generate/drivers/r_cache/src/lld\r_cache_lld_rza2m.c **** #include "iodefine.h"
  34:D:/Work/DeviceTester/amazon-freertos/lib/third_party/mcu_vendor/renesas/rz_mcu_boards/core_package/generate/drivers/r_cache/src/lld\r_cache_lld_rza2m.c **** #include "iobitmask.h"
  35:D:/Work/DeviceTester/amazon-freertos/lib/third_party/mcu_vendor/renesas/rz_mcu_boards/core_package/generate/drivers/r_cache/src/lld\r_cache_lld_rza2m.c **** #include "rza_io_regrw.h"
  36:D:/Work/DeviceTester/amazon-freertos/lib/third_party/mcu_vendor/renesas/rz_mcu_boards/core_package/generate/drivers/r_cache/src/lld\r_cache_lld_rza2m.c **** #include "r_cache_lld_rza2m.h"
  37:D:/Work/DeviceTester/amazon-freertos/lib/third_party/mcu_vendor/renesas/rz_mcu_boards/core_package/generate/drivers/r_cache/src/lld\r_cache_lld_rza2m.c **** #include "r_cache_l1_rza2m_asm.h"
  38:D:/Work/DeviceTester/amazon-freertos/lib/third_party/mcu_vendor/renesas/rz_mcu_boards/core_package/generate/drivers/r_cache/src/lld\r_cache_lld_rza2m.c **** #include "r_cache_rza2_config.h"
  39:D:/Work/DeviceTester/amazon-freertos/lib/third_party/mcu_vendor/renesas/rz_mcu_boards/core_package/generate/drivers/r_cache/src/lld\r_cache_lld_rza2m.c **** 
  40:D:/Work/DeviceTester/amazon-freertos/lib/third_party/mcu_vendor/renesas/rz_mcu_boards/core_package/generate/drivers/r_cache/src/lld\r_cache_lld_rza2m.c **** /******************************************************************************
  41:D:/Work/DeviceTester/amazon-freertos/lib/third_party/mcu_vendor/renesas/rz_mcu_boards/core_package/generate/drivers/r_cache/src/lld\r_cache_lld_rza2m.c **** Typedef definitions
  42:D:/Work/DeviceTester/amazon-freertos/lib/third_party/mcu_vendor/renesas/rz_mcu_boards/core_package/generate/drivers/r_cache/src/lld\r_cache_lld_rza2m.c **** ******************************************************************************/
  43:D:/Work/DeviceTester/amazon-freertos/lib/third_party/mcu_vendor/renesas/rz_mcu_boards/core_package/generate/drivers/r_cache/src/lld\r_cache_lld_rza2m.c **** 
  44:D:/Work/DeviceTester/amazon-freertos/lib/third_party/mcu_vendor/renesas/rz_mcu_boards/core_package/generate/drivers/r_cache/src/lld\r_cache_lld_rza2m.c **** /******************************************************************************
  45:D:/Work/DeviceTester/amazon-freertos/lib/third_party/mcu_vendor/renesas/rz_mcu_boards/core_package/generate/drivers/r_cache/src/lld\r_cache_lld_rza2m.c **** Macro definitions
  46:D:/Work/DeviceTester/amazon-freertos/lib/third_party/mcu_vendor/renesas/rz_mcu_boards/core_package/generate/drivers/r_cache/src/lld\r_cache_lld_rza2m.c **** ******************************************************************************/
  47:D:/Work/DeviceTester/amazon-freertos/lib/third_party/mcu_vendor/renesas/rz_mcu_boards/core_package/generate/drivers/r_cache/src/lld\r_cache_lld_rza2m.c **** #define CACHE_PRV_ADDR_MAX                (0xFFFFFFFFuLL)
  48:D:/Work/DeviceTester/amazon-freertos/lib/third_party/mcu_vendor/renesas/rz_mcu_boards/core_package/generate/drivers/r_cache/src/lld\r_cache_lld_rza2m.c **** #define CACHE_PRV_ADDR_MASK               (0xFFFFFFFFuLL)
  49:D:/Work/DeviceTester/amazon-freertos/lib/third_party/mcu_vendor/renesas/rz_mcu_boards/core_package/generate/drivers/r_cache/src/lld\r_cache_lld_rza2m.c **** 
  50:D:/Work/DeviceTester/amazon-freertos/lib/third_party/mcu_vendor/renesas/rz_mcu_boards/core_package/generate/drivers/r_cache/src/lld\r_cache_lld_rza2m.c **** #define CACHE_PRV_L1_OP_D_INV_ALL         (0)
  51:D:/Work/DeviceTester/amazon-freertos/lib/third_party/mcu_vendor/renesas/rz_mcu_boards/core_package/generate/drivers/r_cache/src/lld\r_cache_lld_rza2m.c **** #define CACHE_PRV_L1_OP_D_CLEAN_ALL       (1)
  52:D:/Work/DeviceTester/amazon-freertos/lib/third_party/mcu_vendor/renesas/rz_mcu_boards/core_package/generate/drivers/r_cache/src/lld\r_cache_lld_rza2m.c **** #define CACHE_PRV_L1_OP_D_CLEAN_INV_ALL   (2)
  53:D:/Work/DeviceTester/amazon-freertos/lib/third_party/mcu_vendor/renesas/rz_mcu_boards/core_package/generate/drivers/r_cache/src/lld\r_cache_lld_rza2m.c **** 
  54:D:/Work/DeviceTester/amazon-freertos/lib/third_party/mcu_vendor/renesas/rz_mcu_boards/core_package/generate/drivers/r_cache/src/lld\r_cache_lld_rza2m.c **** #define CACHE_PRV_CA9_LINE_SIZE           (0x20u)
  55:D:/Work/DeviceTester/amazon-freertos/lib/third_party/mcu_vendor/renesas/rz_mcu_boards/core_package/generate/drivers/r_cache/src/lld\r_cache_lld_rza2m.c **** #define CACHE_PRV_CA9_LINE_MASK           (0xFFFFFFE0u)
  56:D:/Work/DeviceTester/amazon-freertos/lib/third_party/mcu_vendor/renesas/rz_mcu_boards/core_package/generate/drivers/r_cache/src/lld\r_cache_lld_rza2m.c **** 
  57:D:/Work/DeviceTester/amazon-freertos/lib/third_party/mcu_vendor/renesas/rz_mcu_boards/core_package/generate/drivers/r_cache/src/lld\r_cache_lld_rza2m.c **** #define CACHE_PRV_PL310_ALLWAYBITS_8      (0x00FFu)
  58:D:/Work/DeviceTester/amazon-freertos/lib/third_party/mcu_vendor/renesas/rz_mcu_boards/core_package/generate/drivers/r_cache/src/lld\r_cache_lld_rza2m.c **** 
  59:D:/Work/DeviceTester/amazon-freertos/lib/third_party/mcu_vendor/renesas/rz_mcu_boards/core_package/generate/drivers/r_cache/src/lld\r_cache_lld_rza2m.c **** #define CACHE_PRV_PL310_CACHE_LINE_SIZE   (0x20u)
  60:D:/Work/DeviceTester/amazon-freertos/lib/third_party/mcu_vendor/renesas/rz_mcu_boards/core_package/generate/drivers/r_cache/src/lld\r_cache_lld_rza2m.c **** #define CACHE_PRV_PL310_CACHE_LINE_MASK   (0xFFFFFFE0u)
  61:D:/Work/DeviceTester/amazon-freertos/lib/third_party/mcu_vendor/renesas/rz_mcu_boards/core_package/generate/drivers/r_cache/src/lld\r_cache_lld_rza2m.c **** 
  62:D:/Work/DeviceTester/amazon-freertos/lib/third_party/mcu_vendor/renesas/rz_mcu_boards/core_package/generate/drivers/r_cache/src/lld\r_cache_lld_rza2m.c **** #define CACHE_PRV_PL310_ALLINT            (0x1FFu)
  63:D:/Work/DeviceTester/amazon-freertos/lib/third_party/mcu_vendor/renesas/rz_mcu_boards/core_package/generate/drivers/r_cache/src/lld\r_cache_lld_rza2m.c **** 
  64:D:/Work/DeviceTester/amazon-freertos/lib/third_party/mcu_vendor/renesas/rz_mcu_boards/core_package/generate/drivers/r_cache/src/lld\r_cache_lld_rza2m.c **** /******************************************************************************
  65:D:/Work/DeviceTester/amazon-freertos/lib/third_party/mcu_vendor/renesas/rz_mcu_boards/core_package/generate/drivers/r_cache/src/lld\r_cache_lld_rza2m.c **** Imported global variables and functions (from other files)
  66:D:/Work/DeviceTester/amazon-freertos/lib/third_party/mcu_vendor/renesas/rz_mcu_boards/core_package/generate/drivers/r_cache/src/lld\r_cache_lld_rza2m.c **** ******************************************************************************/
  67:D:/Work/DeviceTester/amazon-freertos/lib/third_party/mcu_vendor/renesas/rz_mcu_boards/core_package/generate/drivers/r_cache/src/lld\r_cache_lld_rza2m.c **** 
  68:D:/Work/DeviceTester/amazon-freertos/lib/third_party/mcu_vendor/renesas/rz_mcu_boards/core_package/generate/drivers/r_cache/src/lld\r_cache_lld_rza2m.c **** /******************************************************************************
  69:D:/Work/DeviceTester/amazon-freertos/lib/third_party/mcu_vendor/renesas/rz_mcu_boards/core_package/generate/drivers/r_cache/src/lld\r_cache_lld_rza2m.c **** Exported global variables and functions (to be accessed by other files)
  70:D:/Work/DeviceTester/amazon-freertos/lib/third_party/mcu_vendor/renesas/rz_mcu_boards/core_package/generate/drivers/r_cache/src/lld\r_cache_lld_rza2m.c **** ******************************************************************************/
  71:D:/Work/DeviceTester/amazon-freertos/lib/third_party/mcu_vendor/renesas/rz_mcu_boards/core_package/generate/drivers/r_cache/src/lld\r_cache_lld_rza2m.c **** 
  72:D:/Work/DeviceTester/amazon-freertos/lib/third_party/mcu_vendor/renesas/rz_mcu_boards/core_package/generate/drivers/r_cache/src/lld\r_cache_lld_rza2m.c **** /******************************************************************************
  73:D:/Work/DeviceTester/amazon-freertos/lib/third_party/mcu_vendor/renesas/rz_mcu_boards/core_package/generate/drivers/r_cache/src/lld\r_cache_lld_rza2m.c **** Private global variables and functions
  74:D:/Work/DeviceTester/amazon-freertos/lib/third_party/mcu_vendor/renesas/rz_mcu_boards/core_package/generate/drivers/r_cache/src/lld\r_cache_lld_rza2m.c **** ******************************************************************************/
  75:D:/Work/DeviceTester/amazon-freertos/lib/third_party/mcu_vendor/renesas/rz_mcu_boards/core_package/generate/drivers/r_cache/src/lld\r_cache_lld_rza2m.c **** /*! Version Information */
  76:D:/Work/DeviceTester/amazon-freertos/lib/third_party/mcu_vendor/renesas/rz_mcu_boards/core_package/generate/drivers/r_cache/src/lld\r_cache_lld_rza2m.c **** static const st_drv_info_t gs_lld_info =
  77:D:/Work/DeviceTester/amazon-freertos/lib/third_party/mcu_vendor/renesas/rz_mcu_boards/core_package/generate/drivers/r_cache/src/lld\r_cache_lld_rza2m.c **** {
  78:D:/Work/DeviceTester/amazon-freertos/lib/third_party/mcu_vendor/renesas/rz_mcu_boards/core_package/generate/drivers/r_cache/src/lld\r_cache_lld_rza2m.c ****     {
  79:D:/Work/DeviceTester/amazon-freertos/lib/third_party/mcu_vendor/renesas/rz_mcu_boards/core_package/generate/drivers/r_cache/src/lld\r_cache_lld_rza2m.c ****         ((STDIO_CACHE_RZ_LLD_VERSION_MAJOR << 16) + STDIO_CACHE_RZ_LLD_VERSION_MINOR)
  80:D:/Work/DeviceTester/amazon-freertos/lib/third_party/mcu_vendor/renesas/rz_mcu_boards/core_package/generate/drivers/r_cache/src/lld\r_cache_lld_rza2m.c ****     },
  81:D:/Work/DeviceTester/amazon-freertos/lib/third_party/mcu_vendor/renesas/rz_mcu_boards/core_package/generate/drivers/r_cache/src/lld\r_cache_lld_rza2m.c ****     STDIO_CACHE_RZ_LLD_BUILD_NUM,
  82:D:/Work/DeviceTester/amazon-freertos/lib/third_party/mcu_vendor/renesas/rz_mcu_boards/core_package/generate/drivers/r_cache/src/lld\r_cache_lld_rza2m.c ****     STDIO_CACHE_RZ_LLD_DRV_NAME
  83:D:/Work/DeviceTester/amazon-freertos/lib/third_party/mcu_vendor/renesas/rz_mcu_boards/core_package/generate/drivers/r_cache/src/lld\r_cache_lld_rza2m.c **** };
  84:D:/Work/DeviceTester/amazon-freertos/lib/third_party/mcu_vendor/renesas/rz_mcu_boards/core_package/generate/drivers/r_cache/src/lld\r_cache_lld_rza2m.c **** 
  85:D:/Work/DeviceTester/amazon-freertos/lib/third_party/mcu_vendor/renesas/rz_mcu_boards/core_package/generate/drivers/r_cache/src/lld\r_cache_lld_rza2m.c **** static void cache_l2_sync(void);
  86:D:/Work/DeviceTester/amazon-freertos/lib/third_party/mcu_vendor/renesas/rz_mcu_boards/core_package/generate/drivers/r_cache/src/lld\r_cache_lld_rza2m.c **** 
  87:D:/Work/DeviceTester/amazon-freertos/lib/third_party/mcu_vendor/renesas/rz_mcu_boards/core_package/generate/drivers/r_cache/src/lld\r_cache_lld_rza2m.c **** /*******************************************************************************
  88:D:/Work/DeviceTester/amazon-freertos/lib/third_party/mcu_vendor/renesas/rz_mcu_boards/core_package/generate/drivers/r_cache/src/lld\r_cache_lld_rza2m.c **** * Function Name: R_CACHE_L1Init
  89:D:/Work/DeviceTester/amazon-freertos/lib/third_party/mcu_vendor/renesas/rz_mcu_boards/core_package/generate/drivers/r_cache/src/lld\r_cache_lld_rza2m.c **** * Description  : Initialize Cortex-A9 cache.
  90:D:/Work/DeviceTester/amazon-freertos/lib/third_party/mcu_vendor/renesas/rz_mcu_boards/core_package/generate/drivers/r_cache/src/lld\r_cache_lld_rza2m.c **** * Arguments    : none
  91:D:/Work/DeviceTester/amazon-freertos/lib/third_party/mcu_vendor/renesas/rz_mcu_boards/core_package/generate/drivers/r_cache/src/lld\r_cache_lld_rza2m.c **** * Return Value : none
  92:D:/Work/DeviceTester/amazon-freertos/lib/third_party/mcu_vendor/renesas/rz_mcu_boards/core_package/generate/drivers/r_cache/src/lld\r_cache_lld_rza2m.c **** * Note         : Invalidate data cache must be executed by reset handler before
  93:D:/Work/DeviceTester/amazon-freertos/lib/third_party/mcu_vendor/renesas/rz_mcu_boards/core_package/generate/drivers/r_cache/src/lld\r_cache_lld_rza2m.c **** *                processing of this function.
  94:D:/Work/DeviceTester/amazon-freertos/lib/third_party/mcu_vendor/renesas/rz_mcu_boards/core_package/generate/drivers/r_cache/src/lld\r_cache_lld_rza2m.c **** *******************************************************************************/
  95:D:/Work/DeviceTester/amazon-freertos/lib/third_party/mcu_vendor/renesas/rz_mcu_boards/core_package/generate/drivers/r_cache/src/lld\r_cache_lld_rza2m.c **** void R_CACHE_L1Init(void)
  96:D:/Work/DeviceTester/amazon-freertos/lib/third_party/mcu_vendor/renesas/rz_mcu_boards/core_package/generate/drivers/r_cache/src/lld\r_cache_lld_rza2m.c **** {
  97:D:/Work/DeviceTester/amazon-freertos/lib/third_party/mcu_vendor/renesas/rz_mcu_boards/core_package/generate/drivers/r_cache/src/lld\r_cache_lld_rza2m.c ****     /* Enable I,D cache */
  98:D:/Work/DeviceTester/amazon-freertos/lib/third_party/mcu_vendor/renesas/rz_mcu_boards/core_package/generate/drivers/r_cache/src/lld\r_cache_lld_rza2m.c ****     R_CACHE_L1DataEnable();
  99:D:/Work/DeviceTester/amazon-freertos/lib/third_party/mcu_vendor/renesas/rz_mcu_boards/core_package/generate/drivers/r_cache/src/lld\r_cache_lld_rza2m.c ****     R_CACHE_L1InstEnable();
 100:D:/Work/DeviceTester/amazon-freertos/lib/third_party/mcu_vendor/renesas/rz_mcu_boards/core_package/generate/drivers/r_cache/src/lld\r_cache_lld_rza2m.c **** 
 101:D:/Work/DeviceTester/amazon-freertos/lib/third_party/mcu_vendor/renesas/rz_mcu_boards/core_package/generate/drivers/r_cache/src/lld\r_cache_lld_rza2m.c ****     /* Enable branch prediction */
 102:D:/Work/DeviceTester/amazon-freertos/lib/third_party/mcu_vendor/renesas/rz_mcu_boards/core_package/generate/drivers/r_cache/src/lld\r_cache_lld_rza2m.c ****     R_CACHE_L1BtacEnable();
 103:D:/Work/DeviceTester/amazon-freertos/lib/third_party/mcu_vendor/renesas/rz_mcu_boards/core_package/generate/drivers/r_cache/src/lld\r_cache_lld_rza2m.c **** 
 104:D:/Work/DeviceTester/amazon-freertos/lib/third_party/mcu_vendor/renesas/rz_mcu_boards/core_package/generate/drivers/r_cache/src/lld\r_cache_lld_rza2m.c ****     /* Enable prefetch */
 105:D:/Work/DeviceTester/amazon-freertos/lib/third_party/mcu_vendor/renesas/rz_mcu_boards/core_package/generate/drivers/r_cache/src/lld\r_cache_lld_rza2m.c ****     R_CACHE_L1PrefetchEnable();
 106:D:/Work/DeviceTester/amazon-freertos/lib/third_party/mcu_vendor/renesas/rz_mcu_boards/core_package/generate/drivers/r_cache/src/lld\r_cache_lld_rza2m.c **** 
 107:D:/Work/DeviceTester/amazon-freertos/lib/third_party/mcu_vendor/renesas/rz_mcu_boards/core_package/generate/drivers/r_cache/src/lld\r_cache_lld_rza2m.c ****     r_cache_l1_cache_init();
 108:D:/Work/DeviceTester/amazon-freertos/lib/third_party/mcu_vendor/renesas/rz_mcu_boards/core_package/generate/drivers/r_cache/src/lld\r_cache_lld_rza2m.c ****     return;
 109:D:/Work/DeviceTester/amazon-freertos/lib/third_party/mcu_vendor/renesas/rz_mcu_boards/core_package/generate/drivers/r_cache/src/lld\r_cache_lld_rza2m.c **** }
 110:D:/Work/DeviceTester/amazon-freertos/lib/third_party/mcu_vendor/renesas/rz_mcu_boards/core_package/generate/drivers/r_cache/src/lld\r_cache_lld_rza2m.c **** /*******************************************************************************
 111:D:/Work/DeviceTester/amazon-freertos/lib/third_party/mcu_vendor/renesas/rz_mcu_boards/core_package/generate/drivers/r_cache/src/lld\r_cache_lld_rza2m.c **** End of function R_CACHE_L1Init
 112:D:/Work/DeviceTester/amazon-freertos/lib/third_party/mcu_vendor/renesas/rz_mcu_boards/core_package/generate/drivers/r_cache/src/lld\r_cache_lld_rza2m.c **** *******************************************************************************/
 113:D:/Work/DeviceTester/amazon-freertos/lib/third_party/mcu_vendor/renesas/rz_mcu_boards/core_package/generate/drivers/r_cache/src/lld\r_cache_lld_rza2m.c **** 
 114:D:/Work/DeviceTester/amazon-freertos/lib/third_party/mcu_vendor/renesas/rz_mcu_boards/core_package/generate/drivers/r_cache/src/lld\r_cache_lld_rza2m.c **** /*******************************************************************************
 115:D:/Work/DeviceTester/amazon-freertos/lib/third_party/mcu_vendor/renesas/rz_mcu_boards/core_package/generate/drivers/r_cache/src/lld\r_cache_lld_rza2m.c **** * Function Name: R_CACHE_L1InstInvalidAll
 116:D:/Work/DeviceTester/amazon-freertos/lib/third_party/mcu_vendor/renesas/rz_mcu_boards/core_package/generate/drivers/r_cache/src/lld\r_cache_lld_rza2m.c **** * Description  : Invalidate whole of the Cortex-A9 cache.
 117:D:/Work/DeviceTester/amazon-freertos/lib/third_party/mcu_vendor/renesas/rz_mcu_boards/core_package/generate/drivers/r_cache/src/lld\r_cache_lld_rza2m.c **** * Arguments    : none
 118:D:/Work/DeviceTester/amazon-freertos/lib/third_party/mcu_vendor/renesas/rz_mcu_boards/core_package/generate/drivers/r_cache/src/lld\r_cache_lld_rza2m.c **** * Return Value : none
 119:D:/Work/DeviceTester/amazon-freertos/lib/third_party/mcu_vendor/renesas/rz_mcu_boards/core_package/generate/drivers/r_cache/src/lld\r_cache_lld_rza2m.c **** *******************************************************************************/
 120:D:/Work/DeviceTester/amazon-freertos/lib/third_party/mcu_vendor/renesas/rz_mcu_boards/core_package/generate/drivers/r_cache/src/lld\r_cache_lld_rza2m.c **** void R_CACHE_L1InstInvalidAll(void)
 121:D:/Work/DeviceTester/amazon-freertos/lib/third_party/mcu_vendor/renesas/rz_mcu_boards/core_package/generate/drivers/r_cache/src/lld\r_cache_lld_rza2m.c **** {
 122:D:/Work/DeviceTester/amazon-freertos/lib/third_party/mcu_vendor/renesas/rz_mcu_boards/core_package/generate/drivers/r_cache/src/lld\r_cache_lld_rza2m.c ****     r_cache_l1_i_inv_all();
 123:D:/Work/DeviceTester/amazon-freertos/lib/third_party/mcu_vendor/renesas/rz_mcu_boards/core_package/generate/drivers/r_cache/src/lld\r_cache_lld_rza2m.c ****     return;
 124:D:/Work/DeviceTester/amazon-freertos/lib/third_party/mcu_vendor/renesas/rz_mcu_boards/core_package/generate/drivers/r_cache/src/lld\r_cache_lld_rza2m.c **** }
 125:D:/Work/DeviceTester/amazon-freertos/lib/third_party/mcu_vendor/renesas/rz_mcu_boards/core_package/generate/drivers/r_cache/src/lld\r_cache_lld_rza2m.c **** /*******************************************************************************
 126:D:/Work/DeviceTester/amazon-freertos/lib/third_party/mcu_vendor/renesas/rz_mcu_boards/core_package/generate/drivers/r_cache/src/lld\r_cache_lld_rza2m.c **** End of function R_CACHE_L1InstInvalidAll
 127:D:/Work/DeviceTester/amazon-freertos/lib/third_party/mcu_vendor/renesas/rz_mcu_boards/core_package/generate/drivers/r_cache/src/lld\r_cache_lld_rza2m.c **** *******************************************************************************/
 128:D:/Work/DeviceTester/amazon-freertos/lib/third_party/mcu_vendor/renesas/rz_mcu_boards/core_package/generate/drivers/r_cache/src/lld\r_cache_lld_rza2m.c **** 
 129:D:/Work/DeviceTester/amazon-freertos/lib/third_party/mcu_vendor/renesas/rz_mcu_boards/core_package/generate/drivers/r_cache/src/lld\r_cache_lld_rza2m.c **** /*******************************************************************************
 130:D:/Work/DeviceTester/amazon-freertos/lib/third_party/mcu_vendor/renesas/rz_mcu_boards/core_package/generate/drivers/r_cache/src/lld\r_cache_lld_rza2m.c **** * Function Name: R_CACHE_L1DataInvalidAll
 131:D:/Work/DeviceTester/amazon-freertos/lib/third_party/mcu_vendor/renesas/rz_mcu_boards/core_package/generate/drivers/r_cache/src/lld\r_cache_lld_rza2m.c **** * Description  : Invalidate whole of the Cortex-A9 cache.
 132:D:/Work/DeviceTester/amazon-freertos/lib/third_party/mcu_vendor/renesas/rz_mcu_boards/core_package/generate/drivers/r_cache/src/lld\r_cache_lld_rza2m.c **** * Arguments    : none
 133:D:/Work/DeviceTester/amazon-freertos/lib/third_party/mcu_vendor/renesas/rz_mcu_boards/core_package/generate/drivers/r_cache/src/lld\r_cache_lld_rza2m.c **** * Return Value : none
 134:D:/Work/DeviceTester/amazon-freertos/lib/third_party/mcu_vendor/renesas/rz_mcu_boards/core_package/generate/drivers/r_cache/src/lld\r_cache_lld_rza2m.c **** *******************************************************************************/
 135:D:/Work/DeviceTester/amazon-freertos/lib/third_party/mcu_vendor/renesas/rz_mcu_boards/core_package/generate/drivers/r_cache/src/lld\r_cache_lld_rza2m.c **** void R_CACHE_L1DataInvalidAll(void)
 136:D:/Work/DeviceTester/amazon-freertos/lib/third_party/mcu_vendor/renesas/rz_mcu_boards/core_package/generate/drivers/r_cache/src/lld\r_cache_lld_rza2m.c **** {
 137:D:/Work/DeviceTester/amazon-freertos/lib/third_party/mcu_vendor/renesas/rz_mcu_boards/core_package/generate/drivers/r_cache/src/lld\r_cache_lld_rza2m.c ****     r_cache_l1_d_cache_operation(CACHE_PRV_L1_OP_D_INV_ALL);
 138:D:/Work/DeviceTester/amazon-freertos/lib/third_party/mcu_vendor/renesas/rz_mcu_boards/core_package/generate/drivers/r_cache/src/lld\r_cache_lld_rza2m.c ****     return;
 139:D:/Work/DeviceTester/amazon-freertos/lib/third_party/mcu_vendor/renesas/rz_mcu_boards/core_package/generate/drivers/r_cache/src/lld\r_cache_lld_rza2m.c **** }
 140:D:/Work/DeviceTester/amazon-freertos/lib/third_party/mcu_vendor/renesas/rz_mcu_boards/core_package/generate/drivers/r_cache/src/lld\r_cache_lld_rza2m.c **** /*******************************************************************************
 141:D:/Work/DeviceTester/amazon-freertos/lib/third_party/mcu_vendor/renesas/rz_mcu_boards/core_package/generate/drivers/r_cache/src/lld\r_cache_lld_rza2m.c **** End of function R_CACHE_L1DataInvalidAll
 142:D:/Work/DeviceTester/amazon-freertos/lib/third_party/mcu_vendor/renesas/rz_mcu_boards/core_package/generate/drivers/r_cache/src/lld\r_cache_lld_rza2m.c **** *******************************************************************************/
 143:D:/Work/DeviceTester/amazon-freertos/lib/third_party/mcu_vendor/renesas/rz_mcu_boards/core_package/generate/drivers/r_cache/src/lld\r_cache_lld_rza2m.c **** 
 144:D:/Work/DeviceTester/amazon-freertos/lib/third_party/mcu_vendor/renesas/rz_mcu_boards/core_package/generate/drivers/r_cache/src/lld\r_cache_lld_rza2m.c **** /*******************************************************************************
 145:D:/Work/DeviceTester/amazon-freertos/lib/third_party/mcu_vendor/renesas/rz_mcu_boards/core_package/generate/drivers/r_cache/src/lld\r_cache_lld_rza2m.c **** * Function Name: R_CACHE_L1DataCleanAll
 146:D:/Work/DeviceTester/amazon-freertos/lib/third_party/mcu_vendor/renesas/rz_mcu_boards/core_package/generate/drivers/r_cache/src/lld\r_cache_lld_rza2m.c **** * Description  : Clean whole of the Cortex-A9 cache.
 147:D:/Work/DeviceTester/amazon-freertos/lib/third_party/mcu_vendor/renesas/rz_mcu_boards/core_package/generate/drivers/r_cache/src/lld\r_cache_lld_rza2m.c **** * Arguments    : none
 148:D:/Work/DeviceTester/amazon-freertos/lib/third_party/mcu_vendor/renesas/rz_mcu_boards/core_package/generate/drivers/r_cache/src/lld\r_cache_lld_rza2m.c **** * Return Value : none
 149:D:/Work/DeviceTester/amazon-freertos/lib/third_party/mcu_vendor/renesas/rz_mcu_boards/core_package/generate/drivers/r_cache/src/lld\r_cache_lld_rza2m.c **** *******************************************************************************/
 150:D:/Work/DeviceTester/amazon-freertos/lib/third_party/mcu_vendor/renesas/rz_mcu_boards/core_package/generate/drivers/r_cache/src/lld\r_cache_lld_rza2m.c **** void R_CACHE_L1DataCleanAll(void)
 151:D:/Work/DeviceTester/amazon-freertos/lib/third_party/mcu_vendor/renesas/rz_mcu_boards/core_package/generate/drivers/r_cache/src/lld\r_cache_lld_rza2m.c **** {
 152:D:/Work/DeviceTester/amazon-freertos/lib/third_party/mcu_vendor/renesas/rz_mcu_boards/core_package/generate/drivers/r_cache/src/lld\r_cache_lld_rza2m.c ****     r_cache_l1_d_cache_operation(CACHE_PRV_L1_OP_D_CLEAN_ALL);
 153:D:/Work/DeviceTester/amazon-freertos/lib/third_party/mcu_vendor/renesas/rz_mcu_boards/core_package/generate/drivers/r_cache/src/lld\r_cache_lld_rza2m.c ****     return;
 154:D:/Work/DeviceTester/amazon-freertos/lib/third_party/mcu_vendor/renesas/rz_mcu_boards/core_package/generate/drivers/r_cache/src/lld\r_cache_lld_rza2m.c **** }
 155:D:/Work/DeviceTester/amazon-freertos/lib/third_party/mcu_vendor/renesas/rz_mcu_boards/core_package/generate/drivers/r_cache/src/lld\r_cache_lld_rza2m.c **** /*******************************************************************************
 156:D:/Work/DeviceTester/amazon-freertos/lib/third_party/mcu_vendor/renesas/rz_mcu_boards/core_package/generate/drivers/r_cache/src/lld\r_cache_lld_rza2m.c **** End of function R_CACHE_L1DataCleanAll
 157:D:/Work/DeviceTester/amazon-freertos/lib/third_party/mcu_vendor/renesas/rz_mcu_boards/core_package/generate/drivers/r_cache/src/lld\r_cache_lld_rza2m.c **** *******************************************************************************/
 158:D:/Work/DeviceTester/amazon-freertos/lib/third_party/mcu_vendor/renesas/rz_mcu_boards/core_package/generate/drivers/r_cache/src/lld\r_cache_lld_rza2m.c **** 
 159:D:/Work/DeviceTester/amazon-freertos/lib/third_party/mcu_vendor/renesas/rz_mcu_boards/core_package/generate/drivers/r_cache/src/lld\r_cache_lld_rza2m.c **** /*******************************************************************************
 160:D:/Work/DeviceTester/amazon-freertos/lib/third_party/mcu_vendor/renesas/rz_mcu_boards/core_package/generate/drivers/r_cache/src/lld\r_cache_lld_rza2m.c **** * Function Name: R_CACHE_L1DataCleanInvalidAll
 161:D:/Work/DeviceTester/amazon-freertos/lib/third_party/mcu_vendor/renesas/rz_mcu_boards/core_package/generate/drivers/r_cache/src/lld\r_cache_lld_rza2m.c **** * Description  : Clean&invalidate whole of the Cortex-A9 cache.
 162:D:/Work/DeviceTester/amazon-freertos/lib/third_party/mcu_vendor/renesas/rz_mcu_boards/core_package/generate/drivers/r_cache/src/lld\r_cache_lld_rza2m.c **** * Arguments    : none
 163:D:/Work/DeviceTester/amazon-freertos/lib/third_party/mcu_vendor/renesas/rz_mcu_boards/core_package/generate/drivers/r_cache/src/lld\r_cache_lld_rza2m.c **** * Return Value : none
 164:D:/Work/DeviceTester/amazon-freertos/lib/third_party/mcu_vendor/renesas/rz_mcu_boards/core_package/generate/drivers/r_cache/src/lld\r_cache_lld_rza2m.c **** *******************************************************************************/
 165:D:/Work/DeviceTester/amazon-freertos/lib/third_party/mcu_vendor/renesas/rz_mcu_boards/core_package/generate/drivers/r_cache/src/lld\r_cache_lld_rza2m.c **** void R_CACHE_L1DataCleanInvalidAll(void)
 166:D:/Work/DeviceTester/amazon-freertos/lib/third_party/mcu_vendor/renesas/rz_mcu_boards/core_package/generate/drivers/r_cache/src/lld\r_cache_lld_rza2m.c **** {
 167:D:/Work/DeviceTester/amazon-freertos/lib/third_party/mcu_vendor/renesas/rz_mcu_boards/core_package/generate/drivers/r_cache/src/lld\r_cache_lld_rza2m.c ****     r_cache_l1_d_cache_operation(CACHE_PRV_L1_OP_D_CLEAN_INV_ALL);
 168:D:/Work/DeviceTester/amazon-freertos/lib/third_party/mcu_vendor/renesas/rz_mcu_boards/core_package/generate/drivers/r_cache/src/lld\r_cache_lld_rza2m.c ****     return;
 169:D:/Work/DeviceTester/amazon-freertos/lib/third_party/mcu_vendor/renesas/rz_mcu_boards/core_package/generate/drivers/r_cache/src/lld\r_cache_lld_rza2m.c **** }
 170:D:/Work/DeviceTester/amazon-freertos/lib/third_party/mcu_vendor/renesas/rz_mcu_boards/core_package/generate/drivers/r_cache/src/lld\r_cache_lld_rza2m.c **** /*******************************************************************************
 171:D:/Work/DeviceTester/amazon-freertos/lib/third_party/mcu_vendor/renesas/rz_mcu_boards/core_package/generate/drivers/r_cache/src/lld\r_cache_lld_rza2m.c **** End of function R_CACHE_L1DataCleanInvalidAll
 172:D:/Work/DeviceTester/amazon-freertos/lib/third_party/mcu_vendor/renesas/rz_mcu_boards/core_package/generate/drivers/r_cache/src/lld\r_cache_lld_rza2m.c **** *******************************************************************************/
 173:D:/Work/DeviceTester/amazon-freertos/lib/third_party/mcu_vendor/renesas/rz_mcu_boards/core_package/generate/drivers/r_cache/src/lld\r_cache_lld_rza2m.c **** 
 174:D:/Work/DeviceTester/amazon-freertos/lib/third_party/mcu_vendor/renesas/rz_mcu_boards/core_package/generate/drivers/r_cache/src/lld\r_cache_lld_rza2m.c **** /*******************************************************************************
 175:D:/Work/DeviceTester/amazon-freertos/lib/third_party/mcu_vendor/renesas/rz_mcu_boards/core_package/generate/drivers/r_cache/src/lld\r_cache_lld_rza2m.c **** * Function Name: R_CACHE_L1DataInvalidLine
 176:D:/Work/DeviceTester/amazon-freertos/lib/third_party/mcu_vendor/renesas/rz_mcu_boards/core_package/generate/drivers/r_cache/src/lld\r_cache_lld_rza2m.c **** * Description  : Apply invalidate operation to the cache lines which is included
 177:D:/Work/DeviceTester/amazon-freertos/lib/third_party/mcu_vendor/renesas/rz_mcu_boards/core_package/generate/drivers/r_cache/src/lld\r_cache_lld_rza2m.c **** *                in the specified address range.
 178:D:/Work/DeviceTester/amazon-freertos/lib/third_party/mcu_vendor/renesas/rz_mcu_boards/core_package/generate/drivers/r_cache/src/lld\r_cache_lld_rza2m.c **** * Arguments    : line_addr -
 179:D:/Work/DeviceTester/amazon-freertos/lib/third_party/mcu_vendor/renesas/rz_mcu_boards/core_package/generate/drivers/r_cache/src/lld\r_cache_lld_rza2m.c **** *                    Starting address of cache operation (virtual address).
 180:D:/Work/DeviceTester/amazon-freertos/lib/third_party/mcu_vendor/renesas/rz_mcu_boards/core_package/generate/drivers/r_cache/src/lld\r_cache_lld_rza2m.c **** *                size -
 181:D:/Work/DeviceTester/amazon-freertos/lib/third_party/mcu_vendor/renesas/rz_mcu_boards/core_package/generate/drivers/r_cache/src/lld\r_cache_lld_rza2m.c **** *                    The byte size from line_addr. 
 182:D:/Work/DeviceTester/amazon-freertos/lib/third_party/mcu_vendor/renesas/rz_mcu_boards/core_package/generate/drivers/r_cache/src/lld\r_cache_lld_rza2m.c **** * Return Value : DRV_SUCCESS : successful
 183:D:/Work/DeviceTester/amazon-freertos/lib/third_party/mcu_vendor/renesas/rz_mcu_boards/core_package/generate/drivers/r_cache/src/lld\r_cache_lld_rza2m.c **** *                DRV_ERROR   : address overflow
 184:D:/Work/DeviceTester/amazon-freertos/lib/third_party/mcu_vendor/renesas/rz_mcu_boards/core_package/generate/drivers/r_cache/src/lld\r_cache_lld_rza2m.c **** *******************************************************************************/
 185:D:/Work/DeviceTester/amazon-freertos/lib/third_party/mcu_vendor/renesas/rz_mcu_boards/core_package/generate/drivers/r_cache/src/lld\r_cache_lld_rza2m.c **** e_err_code_t R_CACHE_L1DataInvalidLine(void* line_addr, uint32_t size)
 186:D:/Work/DeviceTester/amazon-freertos/lib/third_party/mcu_vendor/renesas/rz_mcu_boards/core_package/generate/drivers/r_cache/src/lld\r_cache_lld_rza2m.c **** {
 187:D:/Work/DeviceTester/amazon-freertos/lib/third_party/mcu_vendor/renesas/rz_mcu_boards/core_package/generate/drivers/r_cache/src/lld\r_cache_lld_rza2m.c ****     e_err_code_t ret   = DRV_SUCCESS;
 188:D:/Work/DeviceTester/amazon-freertos/lib/third_party/mcu_vendor/renesas/rz_mcu_boards/core_package/generate/drivers/r_cache/src/lld\r_cache_lld_rza2m.c **** 
 189:D:/Work/DeviceTester/amazon-freertos/lib/third_party/mcu_vendor/renesas/rz_mcu_boards/core_package/generate/drivers/r_cache/src/lld\r_cache_lld_rza2m.c ****     /* Casting void type address to uint32_t is valid because there is no loss of information. */
 190:D:/Work/DeviceTester/amazon-freertos/lib/third_party/mcu_vendor/renesas/rz_mcu_boards/core_package/generate/drivers/r_cache/src/lld\r_cache_lld_rza2m.c ****     uint32_t addr     = (((uint32_t)line_addr) & CACHE_PRV_CA9_LINE_MASK);
 191:D:/Work/DeviceTester/amazon-freertos/lib/third_party/mcu_vendor/renesas/rz_mcu_boards/core_package/generate/drivers/r_cache/src/lld\r_cache_lld_rza2m.c **** 
 192:D:/Work/DeviceTester/amazon-freertos/lib/third_party/mcu_vendor/renesas/rz_mcu_boards/core_package/generate/drivers/r_cache/src/lld\r_cache_lld_rza2m.c ****     /* Casting void type address to uint64_t is valid because there is no loss of information. */
 193:D:/Work/DeviceTester/amazon-freertos/lib/third_party/mcu_vendor/renesas/rz_mcu_boards/core_package/generate/drivers/r_cache/src/lld\r_cache_lld_rza2m.c ****     uint64_t end_addr = ((uint64_t)((uint32_t)line_addr) & CACHE_PRV_ADDR_MASK) + ((uint64_t)size);
 194:D:/Work/DeviceTester/amazon-freertos/lib/third_party/mcu_vendor/renesas/rz_mcu_boards/core_package/generate/drivers/r_cache/src/lld\r_cache_lld_rza2m.c **** 
 195:D:/Work/DeviceTester/amazon-freertos/lib/third_party/mcu_vendor/renesas/rz_mcu_boards/core_package/generate/drivers/r_cache/src/lld\r_cache_lld_rza2m.c ****     if (CACHE_PRV_ADDR_MAX < end_addr)
 196:D:/Work/DeviceTester/amazon-freertos/lib/third_party/mcu_vendor/renesas/rz_mcu_boards/core_package/generate/drivers/r_cache/src/lld\r_cache_lld_rza2m.c ****     {
 197:D:/Work/DeviceTester/amazon-freertos/lib/third_party/mcu_vendor/renesas/rz_mcu_boards/core_package/generate/drivers/r_cache/src/lld\r_cache_lld_rza2m.c ****         ret = DRV_ERROR;
 198:D:/Work/DeviceTester/amazon-freertos/lib/third_party/mcu_vendor/renesas/rz_mcu_boards/core_package/generate/drivers/r_cache/src/lld\r_cache_lld_rza2m.c ****     }
 199:D:/Work/DeviceTester/amazon-freertos/lib/third_party/mcu_vendor/renesas/rz_mcu_boards/core_package/generate/drivers/r_cache/src/lld\r_cache_lld_rza2m.c ****     else
 200:D:/Work/DeviceTester/amazon-freertos/lib/third_party/mcu_vendor/renesas/rz_mcu_boards/core_package/generate/drivers/r_cache/src/lld\r_cache_lld_rza2m.c ****     {
 201:D:/Work/DeviceTester/amazon-freertos/lib/third_party/mcu_vendor/renesas/rz_mcu_boards/core_package/generate/drivers/r_cache/src/lld\r_cache_lld_rza2m.c ****         for ( ; addr < end_addr; addr += CACHE_PRV_CA9_LINE_SIZE)
 202:D:/Work/DeviceTester/amazon-freertos/lib/third_party/mcu_vendor/renesas/rz_mcu_boards/core_package/generate/drivers/r_cache/src/lld\r_cache_lld_rza2m.c ****         {
 203:D:/Work/DeviceTester/amazon-freertos/lib/third_party/mcu_vendor/renesas/rz_mcu_boards/core_package/generate/drivers/r_cache/src/lld\r_cache_lld_rza2m.c ****             r_cache_l1_d_inv_mva(addr);
 204:D:/Work/DeviceTester/amazon-freertos/lib/third_party/mcu_vendor/renesas/rz_mcu_boards/core_package/generate/drivers/r_cache/src/lld\r_cache_lld_rza2m.c ****         }
 205:D:/Work/DeviceTester/amazon-freertos/lib/third_party/mcu_vendor/renesas/rz_mcu_boards/core_package/generate/drivers/r_cache/src/lld\r_cache_lld_rza2m.c ****     }
 206:D:/Work/DeviceTester/amazon-freertos/lib/third_party/mcu_vendor/renesas/rz_mcu_boards/core_package/generate/drivers/r_cache/src/lld\r_cache_lld_rza2m.c ****     return ret;
 207:D:/Work/DeviceTester/amazon-freertos/lib/third_party/mcu_vendor/renesas/rz_mcu_boards/core_package/generate/drivers/r_cache/src/lld\r_cache_lld_rza2m.c **** }
 208:D:/Work/DeviceTester/amazon-freertos/lib/third_party/mcu_vendor/renesas/rz_mcu_boards/core_package/generate/drivers/r_cache/src/lld\r_cache_lld_rza2m.c **** /*******************************************************************************
 209:D:/Work/DeviceTester/amazon-freertos/lib/third_party/mcu_vendor/renesas/rz_mcu_boards/core_package/generate/drivers/r_cache/src/lld\r_cache_lld_rza2m.c **** End of function R_CACHE_L1DataInvalidLine
 210:D:/Work/DeviceTester/amazon-freertos/lib/third_party/mcu_vendor/renesas/rz_mcu_boards/core_package/generate/drivers/r_cache/src/lld\r_cache_lld_rza2m.c **** *******************************************************************************/
 211:D:/Work/DeviceTester/amazon-freertos/lib/third_party/mcu_vendor/renesas/rz_mcu_boards/core_package/generate/drivers/r_cache/src/lld\r_cache_lld_rza2m.c **** 
 212:D:/Work/DeviceTester/amazon-freertos/lib/third_party/mcu_vendor/renesas/rz_mcu_boards/core_package/generate/drivers/r_cache/src/lld\r_cache_lld_rza2m.c **** /*******************************************************************************
 213:D:/Work/DeviceTester/amazon-freertos/lib/third_party/mcu_vendor/renesas/rz_mcu_boards/core_package/generate/drivers/r_cache/src/lld\r_cache_lld_rza2m.c **** * Function Name: R_CACHE_L1DataCleanLine
 214:D:/Work/DeviceTester/amazon-freertos/lib/third_party/mcu_vendor/renesas/rz_mcu_boards/core_package/generate/drivers/r_cache/src/lld\r_cache_lld_rza2m.c **** * Description  : Apply clean operation to the cache lines which is included
 215:D:/Work/DeviceTester/amazon-freertos/lib/third_party/mcu_vendor/renesas/rz_mcu_boards/core_package/generate/drivers/r_cache/src/lld\r_cache_lld_rza2m.c **** *                in the specified address range.
 216:D:/Work/DeviceTester/amazon-freertos/lib/third_party/mcu_vendor/renesas/rz_mcu_boards/core_package/generate/drivers/r_cache/src/lld\r_cache_lld_rza2m.c **** * Arguments    : line_addr -
 217:D:/Work/DeviceTester/amazon-freertos/lib/third_party/mcu_vendor/renesas/rz_mcu_boards/core_package/generate/drivers/r_cache/src/lld\r_cache_lld_rza2m.c **** *                    Starting address of cache operation (virtual address).
 218:D:/Work/DeviceTester/amazon-freertos/lib/third_party/mcu_vendor/renesas/rz_mcu_boards/core_package/generate/drivers/r_cache/src/lld\r_cache_lld_rza2m.c **** *                size -
 219:D:/Work/DeviceTester/amazon-freertos/lib/third_party/mcu_vendor/renesas/rz_mcu_boards/core_package/generate/drivers/r_cache/src/lld\r_cache_lld_rza2m.c **** *                    The byte size from line_addr. 
 220:D:/Work/DeviceTester/amazon-freertos/lib/third_party/mcu_vendor/renesas/rz_mcu_boards/core_package/generate/drivers/r_cache/src/lld\r_cache_lld_rza2m.c **** * Return Value : DRV_SUCCESS : successful
 221:D:/Work/DeviceTester/amazon-freertos/lib/third_party/mcu_vendor/renesas/rz_mcu_boards/core_package/generate/drivers/r_cache/src/lld\r_cache_lld_rza2m.c **** *                DRV_ERROR   : address overflow
 222:D:/Work/DeviceTester/amazon-freertos/lib/third_party/mcu_vendor/renesas/rz_mcu_boards/core_package/generate/drivers/r_cache/src/lld\r_cache_lld_rza2m.c **** *******************************************************************************/
 223:D:/Work/DeviceTester/amazon-freertos/lib/third_party/mcu_vendor/renesas/rz_mcu_boards/core_package/generate/drivers/r_cache/src/lld\r_cache_lld_rza2m.c **** e_err_code_t R_CACHE_L1DataCleanLine(void* line_addr, uint32_t size)
 224:D:/Work/DeviceTester/amazon-freertos/lib/third_party/mcu_vendor/renesas/rz_mcu_boards/core_package/generate/drivers/r_cache/src/lld\r_cache_lld_rza2m.c **** {
 225:D:/Work/DeviceTester/amazon-freertos/lib/third_party/mcu_vendor/renesas/rz_mcu_boards/core_package/generate/drivers/r_cache/src/lld\r_cache_lld_rza2m.c ****     e_err_code_t ret   = DRV_SUCCESS;
 226:D:/Work/DeviceTester/amazon-freertos/lib/third_party/mcu_vendor/renesas/rz_mcu_boards/core_package/generate/drivers/r_cache/src/lld\r_cache_lld_rza2m.c **** 
 227:D:/Work/DeviceTester/amazon-freertos/lib/third_party/mcu_vendor/renesas/rz_mcu_boards/core_package/generate/drivers/r_cache/src/lld\r_cache_lld_rza2m.c ****     /* Casting void type address to uint32_t is valid because there is no loss of information. */
 228:D:/Work/DeviceTester/amazon-freertos/lib/third_party/mcu_vendor/renesas/rz_mcu_boards/core_package/generate/drivers/r_cache/src/lld\r_cache_lld_rza2m.c ****     uint32_t addr     = (((uint32_t)line_addr) & CACHE_PRV_CA9_LINE_MASK);
 229:D:/Work/DeviceTester/amazon-freertos/lib/third_party/mcu_vendor/renesas/rz_mcu_boards/core_package/generate/drivers/r_cache/src/lld\r_cache_lld_rza2m.c **** 
 230:D:/Work/DeviceTester/amazon-freertos/lib/third_party/mcu_vendor/renesas/rz_mcu_boards/core_package/generate/drivers/r_cache/src/lld\r_cache_lld_rza2m.c ****     /* Casting void type address to uint64_t is valid because there is no loss of information. */
 231:D:/Work/DeviceTester/amazon-freertos/lib/third_party/mcu_vendor/renesas/rz_mcu_boards/core_package/generate/drivers/r_cache/src/lld\r_cache_lld_rza2m.c ****     uint64_t end_addr = ((uint64_t)((uint32_t)line_addr) & CACHE_PRV_ADDR_MASK) + ((uint64_t)size);
 232:D:/Work/DeviceTester/amazon-freertos/lib/third_party/mcu_vendor/renesas/rz_mcu_boards/core_package/generate/drivers/r_cache/src/lld\r_cache_lld_rza2m.c **** 
 233:D:/Work/DeviceTester/amazon-freertos/lib/third_party/mcu_vendor/renesas/rz_mcu_boards/core_package/generate/drivers/r_cache/src/lld\r_cache_lld_rza2m.c ****     if (CACHE_PRV_ADDR_MAX < end_addr)
 234:D:/Work/DeviceTester/amazon-freertos/lib/third_party/mcu_vendor/renesas/rz_mcu_boards/core_package/generate/drivers/r_cache/src/lld\r_cache_lld_rza2m.c ****     {
 235:D:/Work/DeviceTester/amazon-freertos/lib/third_party/mcu_vendor/renesas/rz_mcu_boards/core_package/generate/drivers/r_cache/src/lld\r_cache_lld_rza2m.c ****         ret = DRV_ERROR;
 236:D:/Work/DeviceTester/amazon-freertos/lib/third_party/mcu_vendor/renesas/rz_mcu_boards/core_package/generate/drivers/r_cache/src/lld\r_cache_lld_rza2m.c ****     }
 237:D:/Work/DeviceTester/amazon-freertos/lib/third_party/mcu_vendor/renesas/rz_mcu_boards/core_package/generate/drivers/r_cache/src/lld\r_cache_lld_rza2m.c ****     else
 238:D:/Work/DeviceTester/amazon-freertos/lib/third_party/mcu_vendor/renesas/rz_mcu_boards/core_package/generate/drivers/r_cache/src/lld\r_cache_lld_rza2m.c ****     {
 239:D:/Work/DeviceTester/amazon-freertos/lib/third_party/mcu_vendor/renesas/rz_mcu_boards/core_package/generate/drivers/r_cache/src/lld\r_cache_lld_rza2m.c ****         for ( ; addr < end_addr; addr += CACHE_PRV_CA9_LINE_SIZE)
 240:D:/Work/DeviceTester/amazon-freertos/lib/third_party/mcu_vendor/renesas/rz_mcu_boards/core_package/generate/drivers/r_cache/src/lld\r_cache_lld_rza2m.c ****         {
 241:D:/Work/DeviceTester/amazon-freertos/lib/third_party/mcu_vendor/renesas/rz_mcu_boards/core_package/generate/drivers/r_cache/src/lld\r_cache_lld_rza2m.c ****             r_cache_l1_d_clean_mva(addr);
 242:D:/Work/DeviceTester/amazon-freertos/lib/third_party/mcu_vendor/renesas/rz_mcu_boards/core_package/generate/drivers/r_cache/src/lld\r_cache_lld_rza2m.c ****         }
 243:D:/Work/DeviceTester/amazon-freertos/lib/third_party/mcu_vendor/renesas/rz_mcu_boards/core_package/generate/drivers/r_cache/src/lld\r_cache_lld_rza2m.c ****     }
 244:D:/Work/DeviceTester/amazon-freertos/lib/third_party/mcu_vendor/renesas/rz_mcu_boards/core_package/generate/drivers/r_cache/src/lld\r_cache_lld_rza2m.c ****     return ret;
 245:D:/Work/DeviceTester/amazon-freertos/lib/third_party/mcu_vendor/renesas/rz_mcu_boards/core_package/generate/drivers/r_cache/src/lld\r_cache_lld_rza2m.c **** }
 246:D:/Work/DeviceTester/amazon-freertos/lib/third_party/mcu_vendor/renesas/rz_mcu_boards/core_package/generate/drivers/r_cache/src/lld\r_cache_lld_rza2m.c **** /*******************************************************************************
 247:D:/Work/DeviceTester/amazon-freertos/lib/third_party/mcu_vendor/renesas/rz_mcu_boards/core_package/generate/drivers/r_cache/src/lld\r_cache_lld_rza2m.c **** End of function R_CACHE_L1DataCleanLine
 248:D:/Work/DeviceTester/amazon-freertos/lib/third_party/mcu_vendor/renesas/rz_mcu_boards/core_package/generate/drivers/r_cache/src/lld\r_cache_lld_rza2m.c **** *******************************************************************************/
 249:D:/Work/DeviceTester/amazon-freertos/lib/third_party/mcu_vendor/renesas/rz_mcu_boards/core_package/generate/drivers/r_cache/src/lld\r_cache_lld_rza2m.c **** 
 250:D:/Work/DeviceTester/amazon-freertos/lib/third_party/mcu_vendor/renesas/rz_mcu_boards/core_package/generate/drivers/r_cache/src/lld\r_cache_lld_rza2m.c **** /*******************************************************************************
 251:D:/Work/DeviceTester/amazon-freertos/lib/third_party/mcu_vendor/renesas/rz_mcu_boards/core_package/generate/drivers/r_cache/src/lld\r_cache_lld_rza2m.c **** * Function Name: R_CACHE_L1DataCleanInvalidLine
 252:D:/Work/DeviceTester/amazon-freertos/lib/third_party/mcu_vendor/renesas/rz_mcu_boards/core_package/generate/drivers/r_cache/src/lld\r_cache_lld_rza2m.c **** * Description  : Apply clean&invalidate operation to the cache lines which is
 253:D:/Work/DeviceTester/amazon-freertos/lib/third_party/mcu_vendor/renesas/rz_mcu_boards/core_package/generate/drivers/r_cache/src/lld\r_cache_lld_rza2m.c **** *                included in the specified address range.
 254:D:/Work/DeviceTester/amazon-freertos/lib/third_party/mcu_vendor/renesas/rz_mcu_boards/core_package/generate/drivers/r_cache/src/lld\r_cache_lld_rza2m.c **** * Arguments    : line_addr -
 255:D:/Work/DeviceTester/amazon-freertos/lib/third_party/mcu_vendor/renesas/rz_mcu_boards/core_package/generate/drivers/r_cache/src/lld\r_cache_lld_rza2m.c **** *                    Starting address of cache operation (virtual address).
 256:D:/Work/DeviceTester/amazon-freertos/lib/third_party/mcu_vendor/renesas/rz_mcu_boards/core_package/generate/drivers/r_cache/src/lld\r_cache_lld_rza2m.c **** *                size -
 257:D:/Work/DeviceTester/amazon-freertos/lib/third_party/mcu_vendor/renesas/rz_mcu_boards/core_package/generate/drivers/r_cache/src/lld\r_cache_lld_rza2m.c **** *                    The byte size from line_addr. 
 258:D:/Work/DeviceTester/amazon-freertos/lib/third_party/mcu_vendor/renesas/rz_mcu_boards/core_package/generate/drivers/r_cache/src/lld\r_cache_lld_rza2m.c **** * Return Value : DRV_SUCCESS : successful
 259:D:/Work/DeviceTester/amazon-freertos/lib/third_party/mcu_vendor/renesas/rz_mcu_boards/core_package/generate/drivers/r_cache/src/lld\r_cache_lld_rza2m.c **** *                DRV_ERROR   : address overflow
 260:D:/Work/DeviceTester/amazon-freertos/lib/third_party/mcu_vendor/renesas/rz_mcu_boards/core_package/generate/drivers/r_cache/src/lld\r_cache_lld_rza2m.c **** *******************************************************************************/
 261:D:/Work/DeviceTester/amazon-freertos/lib/third_party/mcu_vendor/renesas/rz_mcu_boards/core_package/generate/drivers/r_cache/src/lld\r_cache_lld_rza2m.c **** e_err_code_t R_CACHE_L1DataCleanInvalidLine(void* line_addr, uint32_t size)
 262:D:/Work/DeviceTester/amazon-freertos/lib/third_party/mcu_vendor/renesas/rz_mcu_boards/core_package/generate/drivers/r_cache/src/lld\r_cache_lld_rza2m.c **** {
 263:D:/Work/DeviceTester/amazon-freertos/lib/third_party/mcu_vendor/renesas/rz_mcu_boards/core_package/generate/drivers/r_cache/src/lld\r_cache_lld_rza2m.c ****     e_err_code_t ret   = DRV_SUCCESS;
 264:D:/Work/DeviceTester/amazon-freertos/lib/third_party/mcu_vendor/renesas/rz_mcu_boards/core_package/generate/drivers/r_cache/src/lld\r_cache_lld_rza2m.c **** 
 265:D:/Work/DeviceTester/amazon-freertos/lib/third_party/mcu_vendor/renesas/rz_mcu_boards/core_package/generate/drivers/r_cache/src/lld\r_cache_lld_rza2m.c ****     /* Casting void type address to uint32_t is valid because there is no loss of information. */
 266:D:/Work/DeviceTester/amazon-freertos/lib/third_party/mcu_vendor/renesas/rz_mcu_boards/core_package/generate/drivers/r_cache/src/lld\r_cache_lld_rza2m.c ****     uint32_t addr     = (((uint32_t)line_addr) & CACHE_PRV_CA9_LINE_MASK);
 267:D:/Work/DeviceTester/amazon-freertos/lib/third_party/mcu_vendor/renesas/rz_mcu_boards/core_package/generate/drivers/r_cache/src/lld\r_cache_lld_rza2m.c **** 
 268:D:/Work/DeviceTester/amazon-freertos/lib/third_party/mcu_vendor/renesas/rz_mcu_boards/core_package/generate/drivers/r_cache/src/lld\r_cache_lld_rza2m.c ****     /* Casting void type address to uint64_t is valid because there is no loss of information. */
 269:D:/Work/DeviceTester/amazon-freertos/lib/third_party/mcu_vendor/renesas/rz_mcu_boards/core_package/generate/drivers/r_cache/src/lld\r_cache_lld_rza2m.c ****     uint64_t end_addr = ((uint64_t)((uint32_t)line_addr) & CACHE_PRV_ADDR_MASK) + ((uint64_t)size);
 270:D:/Work/DeviceTester/amazon-freertos/lib/third_party/mcu_vendor/renesas/rz_mcu_boards/core_package/generate/drivers/r_cache/src/lld\r_cache_lld_rza2m.c **** 
 271:D:/Work/DeviceTester/amazon-freertos/lib/third_party/mcu_vendor/renesas/rz_mcu_boards/core_package/generate/drivers/r_cache/src/lld\r_cache_lld_rza2m.c ****     if (CACHE_PRV_ADDR_MAX < end_addr)
 272:D:/Work/DeviceTester/amazon-freertos/lib/third_party/mcu_vendor/renesas/rz_mcu_boards/core_package/generate/drivers/r_cache/src/lld\r_cache_lld_rza2m.c ****     {
 273:D:/Work/DeviceTester/amazon-freertos/lib/third_party/mcu_vendor/renesas/rz_mcu_boards/core_package/generate/drivers/r_cache/src/lld\r_cache_lld_rza2m.c ****         ret = DRV_ERROR;
 274:D:/Work/DeviceTester/amazon-freertos/lib/third_party/mcu_vendor/renesas/rz_mcu_boards/core_package/generate/drivers/r_cache/src/lld\r_cache_lld_rza2m.c ****     }
 275:D:/Work/DeviceTester/amazon-freertos/lib/third_party/mcu_vendor/renesas/rz_mcu_boards/core_package/generate/drivers/r_cache/src/lld\r_cache_lld_rza2m.c ****     else
 276:D:/Work/DeviceTester/amazon-freertos/lib/third_party/mcu_vendor/renesas/rz_mcu_boards/core_package/generate/drivers/r_cache/src/lld\r_cache_lld_rza2m.c ****     {
 277:D:/Work/DeviceTester/amazon-freertos/lib/third_party/mcu_vendor/renesas/rz_mcu_boards/core_package/generate/drivers/r_cache/src/lld\r_cache_lld_rza2m.c ****         for ( ; addr < end_addr; addr += CACHE_PRV_CA9_LINE_SIZE)
 278:D:/Work/DeviceTester/amazon-freertos/lib/third_party/mcu_vendor/renesas/rz_mcu_boards/core_package/generate/drivers/r_cache/src/lld\r_cache_lld_rza2m.c ****         {
 279:D:/Work/DeviceTester/amazon-freertos/lib/third_party/mcu_vendor/renesas/rz_mcu_boards/core_package/generate/drivers/r_cache/src/lld\r_cache_lld_rza2m.c ****             r_cache_l1_d_clean_inv_mva(addr);
 280:D:/Work/DeviceTester/amazon-freertos/lib/third_party/mcu_vendor/renesas/rz_mcu_boards/core_package/generate/drivers/r_cache/src/lld\r_cache_lld_rza2m.c ****         }
 281:D:/Work/DeviceTester/amazon-freertos/lib/third_party/mcu_vendor/renesas/rz_mcu_boards/core_package/generate/drivers/r_cache/src/lld\r_cache_lld_rza2m.c ****     }
 282:D:/Work/DeviceTester/amazon-freertos/lib/third_party/mcu_vendor/renesas/rz_mcu_boards/core_package/generate/drivers/r_cache/src/lld\r_cache_lld_rza2m.c ****     return ret;
 283:D:/Work/DeviceTester/amazon-freertos/lib/third_party/mcu_vendor/renesas/rz_mcu_boards/core_package/generate/drivers/r_cache/src/lld\r_cache_lld_rza2m.c **** }
 284:D:/Work/DeviceTester/amazon-freertos/lib/third_party/mcu_vendor/renesas/rz_mcu_boards/core_package/generate/drivers/r_cache/src/lld\r_cache_lld_rza2m.c **** /*******************************************************************************
 285:D:/Work/DeviceTester/amazon-freertos/lib/third_party/mcu_vendor/renesas/rz_mcu_boards/core_package/generate/drivers/r_cache/src/lld\r_cache_lld_rza2m.c **** End of function R_CACHE_L1DataCleanInvalidLine
 286:D:/Work/DeviceTester/amazon-freertos/lib/third_party/mcu_vendor/renesas/rz_mcu_boards/core_package/generate/drivers/r_cache/src/lld\r_cache_lld_rza2m.c **** *******************************************************************************/
 287:D:/Work/DeviceTester/amazon-freertos/lib/third_party/mcu_vendor/renesas/rz_mcu_boards/core_package/generate/drivers/r_cache/src/lld\r_cache_lld_rza2m.c **** 
 288:D:/Work/DeviceTester/amazon-freertos/lib/third_party/mcu_vendor/renesas/rz_mcu_boards/core_package/generate/drivers/r_cache/src/lld\r_cache_lld_rza2m.c **** /*******************************************************************************
 289:D:/Work/DeviceTester/amazon-freertos/lib/third_party/mcu_vendor/renesas/rz_mcu_boards/core_package/generate/drivers/r_cache/src/lld\r_cache_lld_rza2m.c **** * Function Name: R_CACHE_L1InstEnable
 290:D:/Work/DeviceTester/amazon-freertos/lib/third_party/mcu_vendor/renesas/rz_mcu_boards/core_package/generate/drivers/r_cache/src/lld\r_cache_lld_rza2m.c **** * Description  : Enable the Cortex-A9 L1 cache.
 291:D:/Work/DeviceTester/amazon-freertos/lib/third_party/mcu_vendor/renesas/rz_mcu_boards/core_package/generate/drivers/r_cache/src/lld\r_cache_lld_rza2m.c **** * Arguments    : none
 292:D:/Work/DeviceTester/amazon-freertos/lib/third_party/mcu_vendor/renesas/rz_mcu_boards/core_package/generate/drivers/r_cache/src/lld\r_cache_lld_rza2m.c **** * Return Value : none
 293:D:/Work/DeviceTester/amazon-freertos/lib/third_party/mcu_vendor/renesas/rz_mcu_boards/core_package/generate/drivers/r_cache/src/lld\r_cache_lld_rza2m.c **** *******************************************************************************/
 294:D:/Work/DeviceTester/amazon-freertos/lib/third_party/mcu_vendor/renesas/rz_mcu_boards/core_package/generate/drivers/r_cache/src/lld\r_cache_lld_rza2m.c **** void R_CACHE_L1InstEnable(void)
 295:D:/Work/DeviceTester/amazon-freertos/lib/third_party/mcu_vendor/renesas/rz_mcu_boards/core_package/generate/drivers/r_cache/src/lld\r_cache_lld_rza2m.c **** {
 296:D:/Work/DeviceTester/amazon-freertos/lib/third_party/mcu_vendor/renesas/rz_mcu_boards/core_package/generate/drivers/r_cache/src/lld\r_cache_lld_rza2m.c ****     r_cache_l1_i_enable();
 297:D:/Work/DeviceTester/amazon-freertos/lib/third_party/mcu_vendor/renesas/rz_mcu_boards/core_package/generate/drivers/r_cache/src/lld\r_cache_lld_rza2m.c ****     return;
 298:D:/Work/DeviceTester/amazon-freertos/lib/third_party/mcu_vendor/renesas/rz_mcu_boards/core_package/generate/drivers/r_cache/src/lld\r_cache_lld_rza2m.c **** }
 299:D:/Work/DeviceTester/amazon-freertos/lib/third_party/mcu_vendor/renesas/rz_mcu_boards/core_package/generate/drivers/r_cache/src/lld\r_cache_lld_rza2m.c **** /*******************************************************************************
 300:D:/Work/DeviceTester/amazon-freertos/lib/third_party/mcu_vendor/renesas/rz_mcu_boards/core_package/generate/drivers/r_cache/src/lld\r_cache_lld_rza2m.c **** End of function R_CACHE_L1InstEnable
 301:D:/Work/DeviceTester/amazon-freertos/lib/third_party/mcu_vendor/renesas/rz_mcu_boards/core_package/generate/drivers/r_cache/src/lld\r_cache_lld_rza2m.c **** *******************************************************************************/
 302:D:/Work/DeviceTester/amazon-freertos/lib/third_party/mcu_vendor/renesas/rz_mcu_boards/core_package/generate/drivers/r_cache/src/lld\r_cache_lld_rza2m.c **** 
 303:D:/Work/DeviceTester/amazon-freertos/lib/third_party/mcu_vendor/renesas/rz_mcu_boards/core_package/generate/drivers/r_cache/src/lld\r_cache_lld_rza2m.c **** /*******************************************************************************
 304:D:/Work/DeviceTester/amazon-freertos/lib/third_party/mcu_vendor/renesas/rz_mcu_boards/core_package/generate/drivers/r_cache/src/lld\r_cache_lld_rza2m.c **** * Function Name: R_CACHE_L1InstDisable
 305:D:/Work/DeviceTester/amazon-freertos/lib/third_party/mcu_vendor/renesas/rz_mcu_boards/core_package/generate/drivers/r_cache/src/lld\r_cache_lld_rza2m.c **** * Description  : Disable the Cortex-A9 L1 instruction cache.
 306:D:/Work/DeviceTester/amazon-freertos/lib/third_party/mcu_vendor/renesas/rz_mcu_boards/core_package/generate/drivers/r_cache/src/lld\r_cache_lld_rza2m.c **** * Arguments    : none
 307:D:/Work/DeviceTester/amazon-freertos/lib/third_party/mcu_vendor/renesas/rz_mcu_boards/core_package/generate/drivers/r_cache/src/lld\r_cache_lld_rza2m.c **** * Return Value : none
 308:D:/Work/DeviceTester/amazon-freertos/lib/third_party/mcu_vendor/renesas/rz_mcu_boards/core_package/generate/drivers/r_cache/src/lld\r_cache_lld_rza2m.c **** *******************************************************************************/
 309:D:/Work/DeviceTester/amazon-freertos/lib/third_party/mcu_vendor/renesas/rz_mcu_boards/core_package/generate/drivers/r_cache/src/lld\r_cache_lld_rza2m.c **** void R_CACHE_L1InstDisable(void)
 310:D:/Work/DeviceTester/amazon-freertos/lib/third_party/mcu_vendor/renesas/rz_mcu_boards/core_package/generate/drivers/r_cache/src/lld\r_cache_lld_rza2m.c **** {
 311:D:/Work/DeviceTester/amazon-freertos/lib/third_party/mcu_vendor/renesas/rz_mcu_boards/core_package/generate/drivers/r_cache/src/lld\r_cache_lld_rza2m.c ****     r_cache_l1_i_disable();
 312:D:/Work/DeviceTester/amazon-freertos/lib/third_party/mcu_vendor/renesas/rz_mcu_boards/core_package/generate/drivers/r_cache/src/lld\r_cache_lld_rza2m.c ****     return;
 313:D:/Work/DeviceTester/amazon-freertos/lib/third_party/mcu_vendor/renesas/rz_mcu_boards/core_package/generate/drivers/r_cache/src/lld\r_cache_lld_rza2m.c **** }
 314:D:/Work/DeviceTester/amazon-freertos/lib/third_party/mcu_vendor/renesas/rz_mcu_boards/core_package/generate/drivers/r_cache/src/lld\r_cache_lld_rza2m.c **** /*******************************************************************************
 315:D:/Work/DeviceTester/amazon-freertos/lib/third_party/mcu_vendor/renesas/rz_mcu_boards/core_package/generate/drivers/r_cache/src/lld\r_cache_lld_rza2m.c **** End of function R_CACHE_L1InstDisable
 316:D:/Work/DeviceTester/amazon-freertos/lib/third_party/mcu_vendor/renesas/rz_mcu_boards/core_package/generate/drivers/r_cache/src/lld\r_cache_lld_rza2m.c **** *******************************************************************************/
 317:D:/Work/DeviceTester/amazon-freertos/lib/third_party/mcu_vendor/renesas/rz_mcu_boards/core_package/generate/drivers/r_cache/src/lld\r_cache_lld_rza2m.c **** 
 318:D:/Work/DeviceTester/amazon-freertos/lib/third_party/mcu_vendor/renesas/rz_mcu_boards/core_package/generate/drivers/r_cache/src/lld\r_cache_lld_rza2m.c **** /*******************************************************************************
 319:D:/Work/DeviceTester/amazon-freertos/lib/third_party/mcu_vendor/renesas/rz_mcu_boards/core_package/generate/drivers/r_cache/src/lld\r_cache_lld_rza2m.c **** * Function Name: R_CACHE_L1DataEnable
 320:D:/Work/DeviceTester/amazon-freertos/lib/third_party/mcu_vendor/renesas/rz_mcu_boards/core_package/generate/drivers/r_cache/src/lld\r_cache_lld_rza2m.c **** * Description  : Enable the Cortex-A9 L1 data cache.
 321:D:/Work/DeviceTester/amazon-freertos/lib/third_party/mcu_vendor/renesas/rz_mcu_boards/core_package/generate/drivers/r_cache/src/lld\r_cache_lld_rza2m.c **** * Arguments    : none
 322:D:/Work/DeviceTester/amazon-freertos/lib/third_party/mcu_vendor/renesas/rz_mcu_boards/core_package/generate/drivers/r_cache/src/lld\r_cache_lld_rza2m.c **** * Return Value : none
 323:D:/Work/DeviceTester/amazon-freertos/lib/third_party/mcu_vendor/renesas/rz_mcu_boards/core_package/generate/drivers/r_cache/src/lld\r_cache_lld_rza2m.c **** *******************************************************************************/
 324:D:/Work/DeviceTester/amazon-freertos/lib/third_party/mcu_vendor/renesas/rz_mcu_boards/core_package/generate/drivers/r_cache/src/lld\r_cache_lld_rza2m.c **** void R_CACHE_L1DataEnable(void)
 325:D:/Work/DeviceTester/amazon-freertos/lib/third_party/mcu_vendor/renesas/rz_mcu_boards/core_package/generate/drivers/r_cache/src/lld\r_cache_lld_rza2m.c **** {
 326:D:/Work/DeviceTester/amazon-freertos/lib/third_party/mcu_vendor/renesas/rz_mcu_boards/core_package/generate/drivers/r_cache/src/lld\r_cache_lld_rza2m.c ****     r_cache_l1_d_enable();
 327:D:/Work/DeviceTester/amazon-freertos/lib/third_party/mcu_vendor/renesas/rz_mcu_boards/core_package/generate/drivers/r_cache/src/lld\r_cache_lld_rza2m.c ****     return;
 328:D:/Work/DeviceTester/amazon-freertos/lib/third_party/mcu_vendor/renesas/rz_mcu_boards/core_package/generate/drivers/r_cache/src/lld\r_cache_lld_rza2m.c **** }
 329:D:/Work/DeviceTester/amazon-freertos/lib/third_party/mcu_vendor/renesas/rz_mcu_boards/core_package/generate/drivers/r_cache/src/lld\r_cache_lld_rza2m.c **** /*******************************************************************************
 330:D:/Work/DeviceTester/amazon-freertos/lib/third_party/mcu_vendor/renesas/rz_mcu_boards/core_package/generate/drivers/r_cache/src/lld\r_cache_lld_rza2m.c **** End of function R_CACHE_L1DataEnable
 331:D:/Work/DeviceTester/amazon-freertos/lib/third_party/mcu_vendor/renesas/rz_mcu_boards/core_package/generate/drivers/r_cache/src/lld\r_cache_lld_rza2m.c **** *******************************************************************************/
 332:D:/Work/DeviceTester/amazon-freertos/lib/third_party/mcu_vendor/renesas/rz_mcu_boards/core_package/generate/drivers/r_cache/src/lld\r_cache_lld_rza2m.c **** 
 333:D:/Work/DeviceTester/amazon-freertos/lib/third_party/mcu_vendor/renesas/rz_mcu_boards/core_package/generate/drivers/r_cache/src/lld\r_cache_lld_rza2m.c **** /*******************************************************************************
 334:D:/Work/DeviceTester/amazon-freertos/lib/third_party/mcu_vendor/renesas/rz_mcu_boards/core_package/generate/drivers/r_cache/src/lld\r_cache_lld_rza2m.c **** * Function Name: R_CACHE_L1DataDisable
 335:D:/Work/DeviceTester/amazon-freertos/lib/third_party/mcu_vendor/renesas/rz_mcu_boards/core_package/generate/drivers/r_cache/src/lld\r_cache_lld_rza2m.c **** * Description  : Disable the Cortex-A9 L1 data cache.
 336:D:/Work/DeviceTester/amazon-freertos/lib/third_party/mcu_vendor/renesas/rz_mcu_boards/core_package/generate/drivers/r_cache/src/lld\r_cache_lld_rza2m.c **** * Arguments    : none
 337:D:/Work/DeviceTester/amazon-freertos/lib/third_party/mcu_vendor/renesas/rz_mcu_boards/core_package/generate/drivers/r_cache/src/lld\r_cache_lld_rza2m.c **** * Return Value : none
 338:D:/Work/DeviceTester/amazon-freertos/lib/third_party/mcu_vendor/renesas/rz_mcu_boards/core_package/generate/drivers/r_cache/src/lld\r_cache_lld_rza2m.c **** *******************************************************************************/
 339:D:/Work/DeviceTester/amazon-freertos/lib/third_party/mcu_vendor/renesas/rz_mcu_boards/core_package/generate/drivers/r_cache/src/lld\r_cache_lld_rza2m.c **** void R_CACHE_L1DataDisable(void)
 340:D:/Work/DeviceTester/amazon-freertos/lib/third_party/mcu_vendor/renesas/rz_mcu_boards/core_package/generate/drivers/r_cache/src/lld\r_cache_lld_rza2m.c **** {
 341:D:/Work/DeviceTester/amazon-freertos/lib/third_party/mcu_vendor/renesas/rz_mcu_boards/core_package/generate/drivers/r_cache/src/lld\r_cache_lld_rza2m.c ****     r_cache_l1_d_disable();
 342:D:/Work/DeviceTester/amazon-freertos/lib/third_party/mcu_vendor/renesas/rz_mcu_boards/core_package/generate/drivers/r_cache/src/lld\r_cache_lld_rza2m.c ****     return;
 343:D:/Work/DeviceTester/amazon-freertos/lib/third_party/mcu_vendor/renesas/rz_mcu_boards/core_package/generate/drivers/r_cache/src/lld\r_cache_lld_rza2m.c **** }
 344:D:/Work/DeviceTester/amazon-freertos/lib/third_party/mcu_vendor/renesas/rz_mcu_boards/core_package/generate/drivers/r_cache/src/lld\r_cache_lld_rza2m.c **** /*******************************************************************************
 345:D:/Work/DeviceTester/amazon-freertos/lib/third_party/mcu_vendor/renesas/rz_mcu_boards/core_package/generate/drivers/r_cache/src/lld\r_cache_lld_rza2m.c **** End of function R_CACHE_L1DataDisable
 346:D:/Work/DeviceTester/amazon-freertos/lib/third_party/mcu_vendor/renesas/rz_mcu_boards/core_package/generate/drivers/r_cache/src/lld\r_cache_lld_rza2m.c **** *******************************************************************************/
 347:D:/Work/DeviceTester/amazon-freertos/lib/third_party/mcu_vendor/renesas/rz_mcu_boards/core_package/generate/drivers/r_cache/src/lld\r_cache_lld_rza2m.c **** 
 348:D:/Work/DeviceTester/amazon-freertos/lib/third_party/mcu_vendor/renesas/rz_mcu_boards/core_package/generate/drivers/r_cache/src/lld\r_cache_lld_rza2m.c **** /*******************************************************************************
 349:D:/Work/DeviceTester/amazon-freertos/lib/third_party/mcu_vendor/renesas/rz_mcu_boards/core_package/generate/drivers/r_cache/src/lld\r_cache_lld_rza2m.c **** * Function Name: R_CACHE_L1BtacEnable
 350:D:/Work/DeviceTester/amazon-freertos/lib/third_party/mcu_vendor/renesas/rz_mcu_boards/core_package/generate/drivers/r_cache/src/lld\r_cache_lld_rza2m.c **** * Description  : Enable the Cortex-A9 branch prediction.
 351:D:/Work/DeviceTester/amazon-freertos/lib/third_party/mcu_vendor/renesas/rz_mcu_boards/core_package/generate/drivers/r_cache/src/lld\r_cache_lld_rza2m.c **** * Arguments    : none
 352:D:/Work/DeviceTester/amazon-freertos/lib/third_party/mcu_vendor/renesas/rz_mcu_boards/core_package/generate/drivers/r_cache/src/lld\r_cache_lld_rza2m.c **** * Return Value : none
 353:D:/Work/DeviceTester/amazon-freertos/lib/third_party/mcu_vendor/renesas/rz_mcu_boards/core_package/generate/drivers/r_cache/src/lld\r_cache_lld_rza2m.c **** *******************************************************************************/
 354:D:/Work/DeviceTester/amazon-freertos/lib/third_party/mcu_vendor/renesas/rz_mcu_boards/core_package/generate/drivers/r_cache/src/lld\r_cache_lld_rza2m.c **** void R_CACHE_L1BtacEnable(void)
 355:D:/Work/DeviceTester/amazon-freertos/lib/third_party/mcu_vendor/renesas/rz_mcu_boards/core_package/generate/drivers/r_cache/src/lld\r_cache_lld_rza2m.c **** {
 356:D:/Work/DeviceTester/amazon-freertos/lib/third_party/mcu_vendor/renesas/rz_mcu_boards/core_package/generate/drivers/r_cache/src/lld\r_cache_lld_rza2m.c ****     r_cache_l1_btac_enable();
 357:D:/Work/DeviceTester/amazon-freertos/lib/third_party/mcu_vendor/renesas/rz_mcu_boards/core_package/generate/drivers/r_cache/src/lld\r_cache_lld_rza2m.c ****     return;
 358:D:/Work/DeviceTester/amazon-freertos/lib/third_party/mcu_vendor/renesas/rz_mcu_boards/core_package/generate/drivers/r_cache/src/lld\r_cache_lld_rza2m.c **** }
 359:D:/Work/DeviceTester/amazon-freertos/lib/third_party/mcu_vendor/renesas/rz_mcu_boards/core_package/generate/drivers/r_cache/src/lld\r_cache_lld_rza2m.c **** /*******************************************************************************
 360:D:/Work/DeviceTester/amazon-freertos/lib/third_party/mcu_vendor/renesas/rz_mcu_boards/core_package/generate/drivers/r_cache/src/lld\r_cache_lld_rza2m.c **** End of function R_CACHE_L1BtacEnable
 361:D:/Work/DeviceTester/amazon-freertos/lib/third_party/mcu_vendor/renesas/rz_mcu_boards/core_package/generate/drivers/r_cache/src/lld\r_cache_lld_rza2m.c **** *******************************************************************************/
 362:D:/Work/DeviceTester/amazon-freertos/lib/third_party/mcu_vendor/renesas/rz_mcu_boards/core_package/generate/drivers/r_cache/src/lld\r_cache_lld_rza2m.c **** 
 363:D:/Work/DeviceTester/amazon-freertos/lib/third_party/mcu_vendor/renesas/rz_mcu_boards/core_package/generate/drivers/r_cache/src/lld\r_cache_lld_rza2m.c **** /*******************************************************************************
 364:D:/Work/DeviceTester/amazon-freertos/lib/third_party/mcu_vendor/renesas/rz_mcu_boards/core_package/generate/drivers/r_cache/src/lld\r_cache_lld_rza2m.c **** * Function Name: R_CACHE_L1BtacDisable
 365:D:/Work/DeviceTester/amazon-freertos/lib/third_party/mcu_vendor/renesas/rz_mcu_boards/core_package/generate/drivers/r_cache/src/lld\r_cache_lld_rza2m.c **** * Description  : Disable the Cortex-A9 branch prediction.
 366:D:/Work/DeviceTester/amazon-freertos/lib/third_party/mcu_vendor/renesas/rz_mcu_boards/core_package/generate/drivers/r_cache/src/lld\r_cache_lld_rza2m.c **** * Arguments    : none
 367:D:/Work/DeviceTester/amazon-freertos/lib/third_party/mcu_vendor/renesas/rz_mcu_boards/core_package/generate/drivers/r_cache/src/lld\r_cache_lld_rza2m.c **** * Return Value : none
 368:D:/Work/DeviceTester/amazon-freertos/lib/third_party/mcu_vendor/renesas/rz_mcu_boards/core_package/generate/drivers/r_cache/src/lld\r_cache_lld_rza2m.c **** *******************************************************************************/
 369:D:/Work/DeviceTester/amazon-freertos/lib/third_party/mcu_vendor/renesas/rz_mcu_boards/core_package/generate/drivers/r_cache/src/lld\r_cache_lld_rza2m.c **** void R_CACHE_L1BtacDisable(void)
 370:D:/Work/DeviceTester/amazon-freertos/lib/third_party/mcu_vendor/renesas/rz_mcu_boards/core_package/generate/drivers/r_cache/src/lld\r_cache_lld_rza2m.c **** {
 371:D:/Work/DeviceTester/amazon-freertos/lib/third_party/mcu_vendor/renesas/rz_mcu_boards/core_package/generate/drivers/r_cache/src/lld\r_cache_lld_rza2m.c ****     r_cache_l1_btac_disable();
 372:D:/Work/DeviceTester/amazon-freertos/lib/third_party/mcu_vendor/renesas/rz_mcu_boards/core_package/generate/drivers/r_cache/src/lld\r_cache_lld_rza2m.c ****     return;
 373:D:/Work/DeviceTester/amazon-freertos/lib/third_party/mcu_vendor/renesas/rz_mcu_boards/core_package/generate/drivers/r_cache/src/lld\r_cache_lld_rza2m.c **** }
 374:D:/Work/DeviceTester/amazon-freertos/lib/third_party/mcu_vendor/renesas/rz_mcu_boards/core_package/generate/drivers/r_cache/src/lld\r_cache_lld_rza2m.c **** /*******************************************************************************
 375:D:/Work/DeviceTester/amazon-freertos/lib/third_party/mcu_vendor/renesas/rz_mcu_boards/core_package/generate/drivers/r_cache/src/lld\r_cache_lld_rza2m.c **** End of function R_CACHE_L1BtacDisable
 376:D:/Work/DeviceTester/amazon-freertos/lib/third_party/mcu_vendor/renesas/rz_mcu_boards/core_package/generate/drivers/r_cache/src/lld\r_cache_lld_rza2m.c **** *******************************************************************************/
 377:D:/Work/DeviceTester/amazon-freertos/lib/third_party/mcu_vendor/renesas/rz_mcu_boards/core_package/generate/drivers/r_cache/src/lld\r_cache_lld_rza2m.c **** 
 378:D:/Work/DeviceTester/amazon-freertos/lib/third_party/mcu_vendor/renesas/rz_mcu_boards/core_package/generate/drivers/r_cache/src/lld\r_cache_lld_rza2m.c **** /*******************************************************************************
 379:D:/Work/DeviceTester/amazon-freertos/lib/third_party/mcu_vendor/renesas/rz_mcu_boards/core_package/generate/drivers/r_cache/src/lld\r_cache_lld_rza2m.c **** * Function Name: R_CACHE_L1BtacInvalidate
 380:D:/Work/DeviceTester/amazon-freertos/lib/third_party/mcu_vendor/renesas/rz_mcu_boards/core_package/generate/drivers/r_cache/src/lld\r_cache_lld_rza2m.c **** * Description  : Invalidate the Cortex-A9 branch predictor.
 381:D:/Work/DeviceTester/amazon-freertos/lib/third_party/mcu_vendor/renesas/rz_mcu_boards/core_package/generate/drivers/r_cache/src/lld\r_cache_lld_rza2m.c **** * Arguments    : none
 382:D:/Work/DeviceTester/amazon-freertos/lib/third_party/mcu_vendor/renesas/rz_mcu_boards/core_package/generate/drivers/r_cache/src/lld\r_cache_lld_rza2m.c **** * Return Value : none
 383:D:/Work/DeviceTester/amazon-freertos/lib/third_party/mcu_vendor/renesas/rz_mcu_boards/core_package/generate/drivers/r_cache/src/lld\r_cache_lld_rza2m.c **** *******************************************************************************/
 384:D:/Work/DeviceTester/amazon-freertos/lib/third_party/mcu_vendor/renesas/rz_mcu_boards/core_package/generate/drivers/r_cache/src/lld\r_cache_lld_rza2m.c **** void R_CACHE_L1BtacInvalidate(void)
 385:D:/Work/DeviceTester/amazon-freertos/lib/third_party/mcu_vendor/renesas/rz_mcu_boards/core_package/generate/drivers/r_cache/src/lld\r_cache_lld_rza2m.c **** {
 386:D:/Work/DeviceTester/amazon-freertos/lib/third_party/mcu_vendor/renesas/rz_mcu_boards/core_package/generate/drivers/r_cache/src/lld\r_cache_lld_rza2m.c ****     r_cache_l1_btac_inv();
 387:D:/Work/DeviceTester/amazon-freertos/lib/third_party/mcu_vendor/renesas/rz_mcu_boards/core_package/generate/drivers/r_cache/src/lld\r_cache_lld_rza2m.c ****     return;
 388:D:/Work/DeviceTester/amazon-freertos/lib/third_party/mcu_vendor/renesas/rz_mcu_boards/core_package/generate/drivers/r_cache/src/lld\r_cache_lld_rza2m.c **** }
 389:D:/Work/DeviceTester/amazon-freertos/lib/third_party/mcu_vendor/renesas/rz_mcu_boards/core_package/generate/drivers/r_cache/src/lld\r_cache_lld_rza2m.c **** /*******************************************************************************
 390:D:/Work/DeviceTester/amazon-freertos/lib/third_party/mcu_vendor/renesas/rz_mcu_boards/core_package/generate/drivers/r_cache/src/lld\r_cache_lld_rza2m.c **** End of function R_CACHE_L1BtacInvalidate
 391:D:/Work/DeviceTester/amazon-freertos/lib/third_party/mcu_vendor/renesas/rz_mcu_boards/core_package/generate/drivers/r_cache/src/lld\r_cache_lld_rza2m.c **** *******************************************************************************/
 392:D:/Work/DeviceTester/amazon-freertos/lib/third_party/mcu_vendor/renesas/rz_mcu_boards/core_package/generate/drivers/r_cache/src/lld\r_cache_lld_rza2m.c **** 
 393:D:/Work/DeviceTester/amazon-freertos/lib/third_party/mcu_vendor/renesas/rz_mcu_boards/core_package/generate/drivers/r_cache/src/lld\r_cache_lld_rza2m.c **** /*******************************************************************************
 394:D:/Work/DeviceTester/amazon-freertos/lib/third_party/mcu_vendor/renesas/rz_mcu_boards/core_package/generate/drivers/r_cache/src/lld\r_cache_lld_rza2m.c **** * Function Name: R_CACHE_L1PrefetchEnable
 395:D:/Work/DeviceTester/amazon-freertos/lib/third_party/mcu_vendor/renesas/rz_mcu_boards/core_package/generate/drivers/r_cache/src/lld\r_cache_lld_rza2m.c **** * Description  : Enable the Cortex-A9 instruction and data prefetching.
 396:D:/Work/DeviceTester/amazon-freertos/lib/third_party/mcu_vendor/renesas/rz_mcu_boards/core_package/generate/drivers/r_cache/src/lld\r_cache_lld_rza2m.c **** * Arguments    : none
 397:D:/Work/DeviceTester/amazon-freertos/lib/third_party/mcu_vendor/renesas/rz_mcu_boards/core_package/generate/drivers/r_cache/src/lld\r_cache_lld_rza2m.c **** * Return Value : none
 398:D:/Work/DeviceTester/amazon-freertos/lib/third_party/mcu_vendor/renesas/rz_mcu_boards/core_package/generate/drivers/r_cache/src/lld\r_cache_lld_rza2m.c **** *******************************************************************************/
 399:D:/Work/DeviceTester/amazon-freertos/lib/third_party/mcu_vendor/renesas/rz_mcu_boards/core_package/generate/drivers/r_cache/src/lld\r_cache_lld_rza2m.c **** void R_CACHE_L1PrefetchEnable(void)
 400:D:/Work/DeviceTester/amazon-freertos/lib/third_party/mcu_vendor/renesas/rz_mcu_boards/core_package/generate/drivers/r_cache/src/lld\r_cache_lld_rza2m.c **** {
 401:D:/Work/DeviceTester/amazon-freertos/lib/third_party/mcu_vendor/renesas/rz_mcu_boards/core_package/generate/drivers/r_cache/src/lld\r_cache_lld_rza2m.c ****     r_cache_l1_prefetch_enable();
 402:D:/Work/DeviceTester/amazon-freertos/lib/third_party/mcu_vendor/renesas/rz_mcu_boards/core_package/generate/drivers/r_cache/src/lld\r_cache_lld_rza2m.c ****     return;
 403:D:/Work/DeviceTester/amazon-freertos/lib/third_party/mcu_vendor/renesas/rz_mcu_boards/core_package/generate/drivers/r_cache/src/lld\r_cache_lld_rza2m.c **** }
 404:D:/Work/DeviceTester/amazon-freertos/lib/third_party/mcu_vendor/renesas/rz_mcu_boards/core_package/generate/drivers/r_cache/src/lld\r_cache_lld_rza2m.c **** /*******************************************************************************
 405:D:/Work/DeviceTester/amazon-freertos/lib/third_party/mcu_vendor/renesas/rz_mcu_boards/core_package/generate/drivers/r_cache/src/lld\r_cache_lld_rza2m.c **** End of function R_CACHE_L1PrefetchEnable
 406:D:/Work/DeviceTester/amazon-freertos/lib/third_party/mcu_vendor/renesas/rz_mcu_boards/core_package/generate/drivers/r_cache/src/lld\r_cache_lld_rza2m.c **** *******************************************************************************/
 407:D:/Work/DeviceTester/amazon-freertos/lib/third_party/mcu_vendor/renesas/rz_mcu_boards/core_package/generate/drivers/r_cache/src/lld\r_cache_lld_rza2m.c **** 
 408:D:/Work/DeviceTester/amazon-freertos/lib/third_party/mcu_vendor/renesas/rz_mcu_boards/core_package/generate/drivers/r_cache/src/lld\r_cache_lld_rza2m.c **** /*******************************************************************************
 409:D:/Work/DeviceTester/amazon-freertos/lib/third_party/mcu_vendor/renesas/rz_mcu_boards/core_package/generate/drivers/r_cache/src/lld\r_cache_lld_rza2m.c **** * Function Name: R_CACHE_L1PrefetchDisable
 410:D:/Work/DeviceTester/amazon-freertos/lib/third_party/mcu_vendor/renesas/rz_mcu_boards/core_package/generate/drivers/r_cache/src/lld\r_cache_lld_rza2m.c **** * Description  : Disable the Cortex-A9 instruction and data prefetching.
 411:D:/Work/DeviceTester/amazon-freertos/lib/third_party/mcu_vendor/renesas/rz_mcu_boards/core_package/generate/drivers/r_cache/src/lld\r_cache_lld_rza2m.c **** * Arguments    : none
 412:D:/Work/DeviceTester/amazon-freertos/lib/third_party/mcu_vendor/renesas/rz_mcu_boards/core_package/generate/drivers/r_cache/src/lld\r_cache_lld_rza2m.c **** * Return Value : none
 413:D:/Work/DeviceTester/amazon-freertos/lib/third_party/mcu_vendor/renesas/rz_mcu_boards/core_package/generate/drivers/r_cache/src/lld\r_cache_lld_rza2m.c **** *******************************************************************************/
 414:D:/Work/DeviceTester/amazon-freertos/lib/third_party/mcu_vendor/renesas/rz_mcu_boards/core_package/generate/drivers/r_cache/src/lld\r_cache_lld_rza2m.c **** void R_CACHE_L1PrefetchDisable(void)
 415:D:/Work/DeviceTester/amazon-freertos/lib/third_party/mcu_vendor/renesas/rz_mcu_boards/core_package/generate/drivers/r_cache/src/lld\r_cache_lld_rza2m.c **** {
 416:D:/Work/DeviceTester/amazon-freertos/lib/third_party/mcu_vendor/renesas/rz_mcu_boards/core_package/generate/drivers/r_cache/src/lld\r_cache_lld_rza2m.c ****     r_cache_l1_prefetch_disable();
 417:D:/Work/DeviceTester/amazon-freertos/lib/third_party/mcu_vendor/renesas/rz_mcu_boards/core_package/generate/drivers/r_cache/src/lld\r_cache_lld_rza2m.c ****     return;
 418:D:/Work/DeviceTester/amazon-freertos/lib/third_party/mcu_vendor/renesas/rz_mcu_boards/core_package/generate/drivers/r_cache/src/lld\r_cache_lld_rza2m.c **** }
 419:D:/Work/DeviceTester/amazon-freertos/lib/third_party/mcu_vendor/renesas/rz_mcu_boards/core_package/generate/drivers/r_cache/src/lld\r_cache_lld_rza2m.c **** /*******************************************************************************
 420:D:/Work/DeviceTester/amazon-freertos/lib/third_party/mcu_vendor/renesas/rz_mcu_boards/core_package/generate/drivers/r_cache/src/lld\r_cache_lld_rza2m.c **** End of function R_CACHE_L1PrefetchDisable
 421:D:/Work/DeviceTester/amazon-freertos/lib/third_party/mcu_vendor/renesas/rz_mcu_boards/core_package/generate/drivers/r_cache/src/lld\r_cache_lld_rza2m.c **** *******************************************************************************/
 422:D:/Work/DeviceTester/amazon-freertos/lib/third_party/mcu_vendor/renesas/rz_mcu_boards/core_package/generate/drivers/r_cache/src/lld\r_cache_lld_rza2m.c **** 
 423:D:/Work/DeviceTester/amazon-freertos/lib/third_party/mcu_vendor/renesas/rz_mcu_boards/core_package/generate/drivers/r_cache/src/lld\r_cache_lld_rza2m.c **** /*******************************************************************************
 424:D:/Work/DeviceTester/amazon-freertos/lib/third_party/mcu_vendor/renesas/rz_mcu_boards/core_package/generate/drivers/r_cache/src/lld\r_cache_lld_rza2m.c **** * Function Name: R_CACHE_L2Init
 425:D:/Work/DeviceTester/amazon-freertos/lib/third_party/mcu_vendor/renesas/rz_mcu_boards/core_package/generate/drivers/r_cache/src/lld\r_cache_lld_rza2m.c **** * Description  : Initialize PL310.
 426:D:/Work/DeviceTester/amazon-freertos/lib/third_party/mcu_vendor/renesas/rz_mcu_boards/core_package/generate/drivers/r_cache/src/lld\r_cache_lld_rza2m.c **** * Arguments    : none
 427:D:/Work/DeviceTester/amazon-freertos/lib/third_party/mcu_vendor/renesas/rz_mcu_boards/core_package/generate/drivers/r_cache/src/lld\r_cache_lld_rza2m.c **** * Return Value : none
 428:D:/Work/DeviceTester/amazon-freertos/lib/third_party/mcu_vendor/renesas/rz_mcu_boards/core_package/generate/drivers/r_cache/src/lld\r_cache_lld_rza2m.c **** *******************************************************************************/
 429:D:/Work/DeviceTester/amazon-freertos/lib/third_party/mcu_vendor/renesas/rz_mcu_boards/core_package/generate/drivers/r_cache/src/lld\r_cache_lld_rza2m.c **** void R_CACHE_L2Init(void)
 430:D:/Work/DeviceTester/amazon-freertos/lib/third_party/mcu_vendor/renesas/rz_mcu_boards/core_package/generate/drivers/r_cache/src/lld\r_cache_lld_rza2m.c **** {
 431:D:/Work/DeviceTester/amazon-freertos/lib/third_party/mcu_vendor/renesas/rz_mcu_boards/core_package/generate/drivers/r_cache/src/lld\r_cache_lld_rza2m.c ****     /* You must disable the L2 cache by writing to the Control Register 1 before
 432:D:/Work/DeviceTester/amazon-freertos/lib/third_party/mcu_vendor/renesas/rz_mcu_boards/core_package/generate/drivers/r_cache/src/lld\r_cache_lld_rza2m.c ****      * writing to the Auxiliary, Tag RAM Latency, or Data RAM Latency Control
 433:D:/Work/DeviceTester/amazon-freertos/lib/third_party/mcu_vendor/renesas/rz_mcu_boards/core_package/generate/drivers/r_cache/src/lld\r_cache_lld_rza2m.c ****      * Register.
 434:D:/Work/DeviceTester/amazon-freertos/lib/third_party/mcu_vendor/renesas/rz_mcu_boards/core_package/generate/drivers/r_cache/src/lld\r_cache_lld_rza2m.c ****      */
 435:D:/Work/DeviceTester/amazon-freertos/lib/third_party/mcu_vendor/renesas/rz_mcu_boards/core_package/generate/drivers/r_cache/src/lld\r_cache_lld_rza2m.c ****     R_CACHE_L2CacheDisable();
 436:D:/Work/DeviceTester/amazon-freertos/lib/third_party/mcu_vendor/renesas/rz_mcu_boards/core_package/generate/drivers/r_cache/src/lld\r_cache_lld_rza2m.c **** 
 437:D:/Work/DeviceTester/amazon-freertos/lib/third_party/mcu_vendor/renesas/rz_mcu_boards/core_package/generate/drivers/r_cache/src/lld\r_cache_lld_rza2m.c ****     /* 1. Write to the Auxiliary, Tag RAM Latency, Data RAM Latency, Prefetch,
 438:D:/Work/DeviceTester/amazon-freertos/lib/third_party/mcu_vendor/renesas/rz_mcu_boards/core_package/generate/drivers/r_cache/src/lld\r_cache_lld_rza2m.c ****      *    and Power Control registers using a read-modify-write to set up global
 439:D:/Work/DeviceTester/amazon-freertos/lib/third_party/mcu_vendor/renesas/rz_mcu_boards/core_package/generate/drivers/r_cache/src/lld\r_cache_lld_rza2m.c ****      * configurations:
 440:D:/Work/DeviceTester/amazon-freertos/lib/third_party/mcu_vendor/renesas/rz_mcu_boards/core_package/generate/drivers/r_cache/src/lld\r_cache_lld_rza2m.c ****      */
 441:D:/Work/DeviceTester/amazon-freertos/lib/third_party/mcu_vendor/renesas/rz_mcu_boards/core_package/generate/drivers/r_cache/src/lld\r_cache_lld_rza2m.c ****     R_CACHE_L2PrefetchEnable();
 442:D:/Work/DeviceTester/amazon-freertos/lib/third_party/mcu_vendor/renesas/rz_mcu_boards/core_package/generate/drivers/r_cache/src/lld\r_cache_lld_rza2m.c **** 
 443:D:/Work/DeviceTester/amazon-freertos/lib/third_party/mcu_vendor/renesas/rz_mcu_boards/core_package/generate/drivers/r_cache/src/lld\r_cache_lld_rza2m.c ****     /* 2. Secure write to the Invalidate by Way, offset 0x77C, to invalidate all
 444:D:/Work/DeviceTester/amazon-freertos/lib/third_party/mcu_vendor/renesas/rz_mcu_boards/core_package/generate/drivers/r_cache/src/lld\r_cache_lld_rza2m.c ****      * entries in cache:
 445:D:/Work/DeviceTester/amazon-freertos/lib/third_party/mcu_vendor/renesas/rz_mcu_boards/core_package/generate/drivers/r_cache/src/lld\r_cache_lld_rza2m.c ****      */
 446:D:/Work/DeviceTester/amazon-freertos/lib/third_party/mcu_vendor/renesas/rz_mcu_boards/core_package/generate/drivers/r_cache/src/lld\r_cache_lld_rza2m.c ****     R_CACHE_L2InvalidAll();
 447:D:/Work/DeviceTester/amazon-freertos/lib/third_party/mcu_vendor/renesas/rz_mcu_boards/core_package/generate/drivers/r_cache/src/lld\r_cache_lld_rza2m.c **** 
 448:D:/Work/DeviceTester/amazon-freertos/lib/third_party/mcu_vendor/renesas/rz_mcu_boards/core_package/generate/drivers/r_cache/src/lld\r_cache_lld_rza2m.c ****     /* 3. Write to the Lockdown D and Lockdown I Register 9 if required. */
 449:D:/Work/DeviceTester/amazon-freertos/lib/third_party/mcu_vendor/renesas/rz_mcu_boards/core_package/generate/drivers/r_cache/src/lld\r_cache_lld_rza2m.c ****     /* use default */
 450:D:/Work/DeviceTester/amazon-freertos/lib/third_party/mcu_vendor/renesas/rz_mcu_boards/core_package/generate/drivers/r_cache/src/lld\r_cache_lld_rza2m.c **** 
 451:D:/Work/DeviceTester/amazon-freertos/lib/third_party/mcu_vendor/renesas/rz_mcu_boards/core_package/generate/drivers/r_cache/src/lld\r_cache_lld_rza2m.c ****     /* 4. Write to interrupt clear register to clear any residual raw interrupts set. */
 452:D:/Work/DeviceTester/amazon-freertos/lib/third_party/mcu_vendor/renesas/rz_mcu_boards/core_package/generate/drivers/r_cache/src/lld\r_cache_lld_rza2m.c ****     RZA_IO_RegWrite_32(&pl310.REG2_INT_CLEAR.LONG, CACHE_PRV_PL310_ALLINT, IOREG_NONSHIFT_ACCESS, I
 453:D:/Work/DeviceTester/amazon-freertos/lib/third_party/mcu_vendor/renesas/rz_mcu_boards/core_package/generate/drivers/r_cache/src/lld\r_cache_lld_rza2m.c **** 
 454:D:/Work/DeviceTester/amazon-freertos/lib/third_party/mcu_vendor/renesas/rz_mcu_boards/core_package/generate/drivers/r_cache/src/lld\r_cache_lld_rza2m.c ****     /* 5. Write to the Interrupt Mask Register if you want to enable interrupts. */
 455:D:/Work/DeviceTester/amazon-freertos/lib/third_party/mcu_vendor/renesas/rz_mcu_boards/core_package/generate/drivers/r_cache/src/lld\r_cache_lld_rza2m.c ****     /* do nothing */
 456:D:/Work/DeviceTester/amazon-freertos/lib/third_party/mcu_vendor/renesas/rz_mcu_boards/core_package/generate/drivers/r_cache/src/lld\r_cache_lld_rza2m.c **** 
 457:D:/Work/DeviceTester/amazon-freertos/lib/third_party/mcu_vendor/renesas/rz_mcu_boards/core_package/generate/drivers/r_cache/src/lld\r_cache_lld_rza2m.c ****     /* 6. Write to Control Register 1 with the LSB set to 1 to enable the cache.
 458:D:/Work/DeviceTester/amazon-freertos/lib/third_party/mcu_vendor/renesas/rz_mcu_boards/core_package/generate/drivers/r_cache/src/lld\r_cache_lld_rza2m.c ****      */
 459:D:/Work/DeviceTester/amazon-freertos/lib/third_party/mcu_vendor/renesas/rz_mcu_boards/core_package/generate/drivers/r_cache/src/lld\r_cache_lld_rza2m.c ****     R_CACHE_L2CacheEnable();
 460:D:/Work/DeviceTester/amazon-freertos/lib/third_party/mcu_vendor/renesas/rz_mcu_boards/core_package/generate/drivers/r_cache/src/lld\r_cache_lld_rza2m.c ****     return;
 461:D:/Work/DeviceTester/amazon-freertos/lib/third_party/mcu_vendor/renesas/rz_mcu_boards/core_package/generate/drivers/r_cache/src/lld\r_cache_lld_rza2m.c **** }
 462:D:/Work/DeviceTester/amazon-freertos/lib/third_party/mcu_vendor/renesas/rz_mcu_boards/core_package/generate/drivers/r_cache/src/lld\r_cache_lld_rza2m.c **** /*******************************************************************************
 463:D:/Work/DeviceTester/amazon-freertos/lib/third_party/mcu_vendor/renesas/rz_mcu_boards/core_package/generate/drivers/r_cache/src/lld\r_cache_lld_rza2m.c **** End of function R_CACHE_L2Init
 464:D:/Work/DeviceTester/amazon-freertos/lib/third_party/mcu_vendor/renesas/rz_mcu_boards/core_package/generate/drivers/r_cache/src/lld\r_cache_lld_rza2m.c **** *******************************************************************************/
 465:D:/Work/DeviceTester/amazon-freertos/lib/third_party/mcu_vendor/renesas/rz_mcu_boards/core_package/generate/drivers/r_cache/src/lld\r_cache_lld_rza2m.c **** 
 466:D:/Work/DeviceTester/amazon-freertos/lib/third_party/mcu_vendor/renesas/rz_mcu_boards/core_package/generate/drivers/r_cache/src/lld\r_cache_lld_rza2m.c **** /*******************************************************************************
 467:D:/Work/DeviceTester/amazon-freertos/lib/third_party/mcu_vendor/renesas/rz_mcu_boards/core_package/generate/drivers/r_cache/src/lld\r_cache_lld_rza2m.c **** * Function Name: R_CACHE_L2CacheEnable
 468:D:/Work/DeviceTester/amazon-freertos/lib/third_party/mcu_vendor/renesas/rz_mcu_boards/core_package/generate/drivers/r_cache/src/lld\r_cache_lld_rza2m.c **** * Description  : Enable the PL310 L2 cache.
 469:D:/Work/DeviceTester/amazon-freertos/lib/third_party/mcu_vendor/renesas/rz_mcu_boards/core_package/generate/drivers/r_cache/src/lld\r_cache_lld_rza2m.c **** * Arguments    : none
 470:D:/Work/DeviceTester/amazon-freertos/lib/third_party/mcu_vendor/renesas/rz_mcu_boards/core_package/generate/drivers/r_cache/src/lld\r_cache_lld_rza2m.c **** * Return Value : none
 471:D:/Work/DeviceTester/amazon-freertos/lib/third_party/mcu_vendor/renesas/rz_mcu_boards/core_package/generate/drivers/r_cache/src/lld\r_cache_lld_rza2m.c **** *******************************************************************************/
 472:D:/Work/DeviceTester/amazon-freertos/lib/third_party/mcu_vendor/renesas/rz_mcu_boards/core_package/generate/drivers/r_cache/src/lld\r_cache_lld_rza2m.c **** void R_CACHE_L2CacheEnable(void)
 473:D:/Work/DeviceTester/amazon-freertos/lib/third_party/mcu_vendor/renesas/rz_mcu_boards/core_package/generate/drivers/r_cache/src/lld\r_cache_lld_rza2m.c **** {
 474:D:/Work/DeviceTester/amazon-freertos/lib/third_party/mcu_vendor/renesas/rz_mcu_boards/core_package/generate/drivers/r_cache/src/lld\r_cache_lld_rza2m.c ****     /* Casting the pointer to a uint32_t type is valid because "unsigned long" is same 4byte unsign
 475:D:/Work/DeviceTester/amazon-freertos/lib/third_party/mcu_vendor/renesas/rz_mcu_boards/core_package/generate/drivers/r_cache/src/lld\r_cache_lld_rza2m.c ****     RZA_IO_RegWrite_32(&pl310.REG1_CONTROL.LONG, 1, IOREG_NONSHIFT_ACCESS, IOREG_NONMASK_ACCESS);
 476:D:/Work/DeviceTester/amazon-freertos/lib/third_party/mcu_vendor/renesas/rz_mcu_boards/core_package/generate/drivers/r_cache/src/lld\r_cache_lld_rza2m.c ****     cache_l2_sync();
 477:D:/Work/DeviceTester/amazon-freertos/lib/third_party/mcu_vendor/renesas/rz_mcu_boards/core_package/generate/drivers/r_cache/src/lld\r_cache_lld_rza2m.c ****     return;
 478:D:/Work/DeviceTester/amazon-freertos/lib/third_party/mcu_vendor/renesas/rz_mcu_boards/core_package/generate/drivers/r_cache/src/lld\r_cache_lld_rza2m.c **** }
 479:D:/Work/DeviceTester/amazon-freertos/lib/third_party/mcu_vendor/renesas/rz_mcu_boards/core_package/generate/drivers/r_cache/src/lld\r_cache_lld_rza2m.c **** /*******************************************************************************
 480:D:/Work/DeviceTester/amazon-freertos/lib/third_party/mcu_vendor/renesas/rz_mcu_boards/core_package/generate/drivers/r_cache/src/lld\r_cache_lld_rza2m.c **** End of function R_CACHE_L2CacheEnable
 481:D:/Work/DeviceTester/amazon-freertos/lib/third_party/mcu_vendor/renesas/rz_mcu_boards/core_package/generate/drivers/r_cache/src/lld\r_cache_lld_rza2m.c **** *******************************************************************************/
 482:D:/Work/DeviceTester/amazon-freertos/lib/third_party/mcu_vendor/renesas/rz_mcu_boards/core_package/generate/drivers/r_cache/src/lld\r_cache_lld_rza2m.c **** 
 483:D:/Work/DeviceTester/amazon-freertos/lib/third_party/mcu_vendor/renesas/rz_mcu_boards/core_package/generate/drivers/r_cache/src/lld\r_cache_lld_rza2m.c **** /*******************************************************************************
 484:D:/Work/DeviceTester/amazon-freertos/lib/third_party/mcu_vendor/renesas/rz_mcu_boards/core_package/generate/drivers/r_cache/src/lld\r_cache_lld_rza2m.c **** * Function Name: R_CACHE_L2CacheDisable
 485:D:/Work/DeviceTester/amazon-freertos/lib/third_party/mcu_vendor/renesas/rz_mcu_boards/core_package/generate/drivers/r_cache/src/lld\r_cache_lld_rza2m.c **** * Description  : Disable the PL310 L2 cache.
 486:D:/Work/DeviceTester/amazon-freertos/lib/third_party/mcu_vendor/renesas/rz_mcu_boards/core_package/generate/drivers/r_cache/src/lld\r_cache_lld_rza2m.c **** * Arguments    : none
 487:D:/Work/DeviceTester/amazon-freertos/lib/third_party/mcu_vendor/renesas/rz_mcu_boards/core_package/generate/drivers/r_cache/src/lld\r_cache_lld_rza2m.c **** * Return Value : none
 488:D:/Work/DeviceTester/amazon-freertos/lib/third_party/mcu_vendor/renesas/rz_mcu_boards/core_package/generate/drivers/r_cache/src/lld\r_cache_lld_rza2m.c **** *******************************************************************************/
 489:D:/Work/DeviceTester/amazon-freertos/lib/third_party/mcu_vendor/renesas/rz_mcu_boards/core_package/generate/drivers/r_cache/src/lld\r_cache_lld_rza2m.c **** void R_CACHE_L2CacheDisable(void)
 490:D:/Work/DeviceTester/amazon-freertos/lib/third_party/mcu_vendor/renesas/rz_mcu_boards/core_package/generate/drivers/r_cache/src/lld\r_cache_lld_rza2m.c **** {
 491:D:/Work/DeviceTester/amazon-freertos/lib/third_party/mcu_vendor/renesas/rz_mcu_boards/core_package/generate/drivers/r_cache/src/lld\r_cache_lld_rza2m.c ****     /* Casting the pointer to a uint32_t type is valid because "unsigned long" is same 4byte unsign
 492:D:/Work/DeviceTester/amazon-freertos/lib/third_party/mcu_vendor/renesas/rz_mcu_boards/core_package/generate/drivers/r_cache/src/lld\r_cache_lld_rza2m.c ****     RZA_IO_RegWrite_32(&pl310.REG1_CONTROL.LONG, 0, IOREG_NONSHIFT_ACCESS, IOREG_NONMASK_ACCESS);
 493:D:/Work/DeviceTester/amazon-freertos/lib/third_party/mcu_vendor/renesas/rz_mcu_boards/core_package/generate/drivers/r_cache/src/lld\r_cache_lld_rza2m.c ****     cache_l2_sync();
 494:D:/Work/DeviceTester/amazon-freertos/lib/third_party/mcu_vendor/renesas/rz_mcu_boards/core_package/generate/drivers/r_cache/src/lld\r_cache_lld_rza2m.c ****     return;
 495:D:/Work/DeviceTester/amazon-freertos/lib/third_party/mcu_vendor/renesas/rz_mcu_boards/core_package/generate/drivers/r_cache/src/lld\r_cache_lld_rza2m.c **** }
 496:D:/Work/DeviceTester/amazon-freertos/lib/third_party/mcu_vendor/renesas/rz_mcu_boards/core_package/generate/drivers/r_cache/src/lld\r_cache_lld_rza2m.c **** /*******************************************************************************
 497:D:/Work/DeviceTester/amazon-freertos/lib/third_party/mcu_vendor/renesas/rz_mcu_boards/core_package/generate/drivers/r_cache/src/lld\r_cache_lld_rza2m.c **** End of function R_CACHE_L2CacheDisable
 498:D:/Work/DeviceTester/amazon-freertos/lib/third_party/mcu_vendor/renesas/rz_mcu_boards/core_package/generate/drivers/r_cache/src/lld\r_cache_lld_rza2m.c **** *******************************************************************************/
 499:D:/Work/DeviceTester/amazon-freertos/lib/third_party/mcu_vendor/renesas/rz_mcu_boards/core_package/generate/drivers/r_cache/src/lld\r_cache_lld_rza2m.c **** 
 500:D:/Work/DeviceTester/amazon-freertos/lib/third_party/mcu_vendor/renesas/rz_mcu_boards/core_package/generate/drivers/r_cache/src/lld\r_cache_lld_rza2m.c **** /*******************************************************************************
 501:D:/Work/DeviceTester/amazon-freertos/lib/third_party/mcu_vendor/renesas/rz_mcu_boards/core_package/generate/drivers/r_cache/src/lld\r_cache_lld_rza2m.c **** * Function Name: R_CACHE_L2PrefetchEnable
 502:D:/Work/DeviceTester/amazon-freertos/lib/third_party/mcu_vendor/renesas/rz_mcu_boards/core_package/generate/drivers/r_cache/src/lld\r_cache_lld_rza2m.c **** * Description  : Enable the PL310 instruction and data prefetching.
 503:D:/Work/DeviceTester/amazon-freertos/lib/third_party/mcu_vendor/renesas/rz_mcu_boards/core_package/generate/drivers/r_cache/src/lld\r_cache_lld_rza2m.c **** * Arguments    : none
 504:D:/Work/DeviceTester/amazon-freertos/lib/third_party/mcu_vendor/renesas/rz_mcu_boards/core_package/generate/drivers/r_cache/src/lld\r_cache_lld_rza2m.c **** * Return Value : none
 505:D:/Work/DeviceTester/amazon-freertos/lib/third_party/mcu_vendor/renesas/rz_mcu_boards/core_package/generate/drivers/r_cache/src/lld\r_cache_lld_rza2m.c **** *******************************************************************************/
 506:D:/Work/DeviceTester/amazon-freertos/lib/third_party/mcu_vendor/renesas/rz_mcu_boards/core_package/generate/drivers/r_cache/src/lld\r_cache_lld_rza2m.c **** void R_CACHE_L2PrefetchEnable(void)
 507:D:/Work/DeviceTester/amazon-freertos/lib/third_party/mcu_vendor/renesas/rz_mcu_boards/core_package/generate/drivers/r_cache/src/lld\r_cache_lld_rza2m.c **** {
 508:D:/Work/DeviceTester/amazon-freertos/lib/third_party/mcu_vendor/renesas/rz_mcu_boards/core_package/generate/drivers/r_cache/src/lld\r_cache_lld_rza2m.c ****     uint32_t reg32;
 509:D:/Work/DeviceTester/amazon-freertos/lib/third_party/mcu_vendor/renesas/rz_mcu_boards/core_package/generate/drivers/r_cache/src/lld\r_cache_lld_rza2m.c **** 
 510:D:/Work/DeviceTester/amazon-freertos/lib/third_party/mcu_vendor/renesas/rz_mcu_boards/core_package/generate/drivers/r_cache/src/lld\r_cache_lld_rza2m.c ****     /* Casting the pointer to a uint32_t type is valid because "unsigned long" is same 4byte unsign
 511:D:/Work/DeviceTester/amazon-freertos/lib/third_party/mcu_vendor/renesas/rz_mcu_boards/core_package/generate/drivers/r_cache/src/lld\r_cache_lld_rza2m.c ****     reg32 = RZA_IO_RegRead_32(&pl310.REG15_PREFETCH_CTRL.LONG, IOREG_NONSHIFT_ACCESS, IOREG_NONMASK
 512:D:/Work/DeviceTester/amazon-freertos/lib/third_party/mcu_vendor/renesas/rz_mcu_boards/core_package/generate/drivers/r_cache/src/lld\r_cache_lld_rza2m.c **** 
 513:D:/Work/DeviceTester/amazon-freertos/lib/third_party/mcu_vendor/renesas/rz_mcu_boards/core_package/generate/drivers/r_cache/src/lld\r_cache_lld_rza2m.c **** #if   defined(PL310_CFG_DOUBLE_LINE_FILL) && (PL310_CFG_DOUBLE_LINE_FILL==1)
 514:D:/Work/DeviceTester/amazon-freertos/lib/third_party/mcu_vendor/renesas/rz_mcu_boards/core_package/generate/drivers/r_cache/src/lld\r_cache_lld_rza2m.c ****     reg32 |=   (1u << PL310_REG15_PREFETCH_CTRL_Doublelinefillenable_SHIFT);
 515:D:/Work/DeviceTester/amazon-freertos/lib/third_party/mcu_vendor/renesas/rz_mcu_boards/core_package/generate/drivers/r_cache/src/lld\r_cache_lld_rza2m.c **** #elif defined(PL310_CFG_DOUBLE_LINE_FILL) && (PL310_CFG_DOUBLE_LINE_FILL==0)
 516:D:/Work/DeviceTester/amazon-freertos/lib/third_party/mcu_vendor/renesas/rz_mcu_boards/core_package/generate/drivers/r_cache/src/lld\r_cache_lld_rza2m.c ****     reg32 &= (~(1u << PL310_REG15_PREFETCH_CTRL_Doublelinefillenable_SHIFT));
 517:D:/Work/DeviceTester/amazon-freertos/lib/third_party/mcu_vendor/renesas/rz_mcu_boards/core_package/generate/drivers/r_cache/src/lld\r_cache_lld_rza2m.c **** #endif/*PL310_CFG_DOUBLE_LINE_FILL*/
 518:D:/Work/DeviceTester/amazon-freertos/lib/third_party/mcu_vendor/renesas/rz_mcu_boards/core_package/generate/drivers/r_cache/src/lld\r_cache_lld_rza2m.c **** 
 519:D:/Work/DeviceTester/amazon-freertos/lib/third_party/mcu_vendor/renesas/rz_mcu_boards/core_package/generate/drivers/r_cache/src/lld\r_cache_lld_rza2m.c **** #if   defined(PL310_CFG_INSTRUCTION_PREFETCH) && (PL310_CFG_INSTRUCTION_PREFETCH==1)
 520:D:/Work/DeviceTester/amazon-freertos/lib/third_party/mcu_vendor/renesas/rz_mcu_boards/core_package/generate/drivers/r_cache/src/lld\r_cache_lld_rza2m.c ****     reg32 |=    (1u << PL310_REG15_PREFETCH_CTRL_Instructionprefetchenable_SHIFT);
 521:D:/Work/DeviceTester/amazon-freertos/lib/third_party/mcu_vendor/renesas/rz_mcu_boards/core_package/generate/drivers/r_cache/src/lld\r_cache_lld_rza2m.c **** #elif defined(PL310_CFG_INSTRUCTION_PREFETCH) && (PL310_CFG_INSTRUCTION_PREFETCH==0)
 522:D:/Work/DeviceTester/amazon-freertos/lib/third_party/mcu_vendor/renesas/rz_mcu_boards/core_package/generate/drivers/r_cache/src/lld\r_cache_lld_rza2m.c ****     reg32 &=  (~(1u << PL310_REG15_PREFETCH_CTRL_Instructionprefetchenable_SHIFT));
 523:D:/Work/DeviceTester/amazon-freertos/lib/third_party/mcu_vendor/renesas/rz_mcu_boards/core_package/generate/drivers/r_cache/src/lld\r_cache_lld_rza2m.c **** #endif/*PL310_CFG_INSTRUCTION_PREFETCH*/
 524:D:/Work/DeviceTester/amazon-freertos/lib/third_party/mcu_vendor/renesas/rz_mcu_boards/core_package/generate/drivers/r_cache/src/lld\r_cache_lld_rza2m.c **** 
 525:D:/Work/DeviceTester/amazon-freertos/lib/third_party/mcu_vendor/renesas/rz_mcu_boards/core_package/generate/drivers/r_cache/src/lld\r_cache_lld_rza2m.c **** #if   defined(PL310_CFG_DATA_PREFETCH) && (PL310_CFG_DATA_PREFETCH==1)
 526:D:/Work/DeviceTester/amazon-freertos/lib/third_party/mcu_vendor/renesas/rz_mcu_boards/core_package/generate/drivers/r_cache/src/lld\r_cache_lld_rza2m.c ****     reg32 |=   (1u << PL310_REG15_PREFETCH_CTRL_Dataprefetchenable_SHIFT);
 527:D:/Work/DeviceTester/amazon-freertos/lib/third_party/mcu_vendor/renesas/rz_mcu_boards/core_package/generate/drivers/r_cache/src/lld\r_cache_lld_rza2m.c **** #elif defined(PL310_CFG_DATA_PREFETCH) && (PL310_CFG_DATA_PREFETCH==0)
 528:D:/Work/DeviceTester/amazon-freertos/lib/third_party/mcu_vendor/renesas/rz_mcu_boards/core_package/generate/drivers/r_cache/src/lld\r_cache_lld_rza2m.c ****     reg32 &= (~(1u << PL310_REG15_PREFETCH_CTRL_Dataprefetchenable_SHIFT));
 529:D:/Work/DeviceTester/amazon-freertos/lib/third_party/mcu_vendor/renesas/rz_mcu_boards/core_package/generate/drivers/r_cache/src/lld\r_cache_lld_rza2m.c **** #endif/*PL310_CFG_DATA_PREFETCH*/
 530:D:/Work/DeviceTester/amazon-freertos/lib/third_party/mcu_vendor/renesas/rz_mcu_boards/core_package/generate/drivers/r_cache/src/lld\r_cache_lld_rza2m.c **** 
 531:D:/Work/DeviceTester/amazon-freertos/lib/third_party/mcu_vendor/renesas/rz_mcu_boards/core_package/generate/drivers/r_cache/src/lld\r_cache_lld_rza2m.c ****     /* Casting the pointer to a uint32_t type is valid because "unsigned long" is same 4byte unsign
 532:D:/Work/DeviceTester/amazon-freertos/lib/third_party/mcu_vendor/renesas/rz_mcu_boards/core_package/generate/drivers/r_cache/src/lld\r_cache_lld_rza2m.c ****     RZA_IO_RegWrite_32(&pl310.REG15_PREFETCH_CTRL.LONG, reg32, IOREG_NONSHIFT_ACCESS, IOREG_NONMASK
 533:D:/Work/DeviceTester/amazon-freertos/lib/third_party/mcu_vendor/renesas/rz_mcu_boards/core_package/generate/drivers/r_cache/src/lld\r_cache_lld_rza2m.c ****     cache_l2_sync();
 534:D:/Work/DeviceTester/amazon-freertos/lib/third_party/mcu_vendor/renesas/rz_mcu_boards/core_package/generate/drivers/r_cache/src/lld\r_cache_lld_rza2m.c ****     return;
 535:D:/Work/DeviceTester/amazon-freertos/lib/third_party/mcu_vendor/renesas/rz_mcu_boards/core_package/generate/drivers/r_cache/src/lld\r_cache_lld_rza2m.c **** }
 536:D:/Work/DeviceTester/amazon-freertos/lib/third_party/mcu_vendor/renesas/rz_mcu_boards/core_package/generate/drivers/r_cache/src/lld\r_cache_lld_rza2m.c **** /*******************************************************************************
 537:D:/Work/DeviceTester/amazon-freertos/lib/third_party/mcu_vendor/renesas/rz_mcu_boards/core_package/generate/drivers/r_cache/src/lld\r_cache_lld_rza2m.c **** End of function R_CACHE_L2PrefetchEnable
 538:D:/Work/DeviceTester/amazon-freertos/lib/third_party/mcu_vendor/renesas/rz_mcu_boards/core_package/generate/drivers/r_cache/src/lld\r_cache_lld_rza2m.c **** *******************************************************************************/
 539:D:/Work/DeviceTester/amazon-freertos/lib/third_party/mcu_vendor/renesas/rz_mcu_boards/core_package/generate/drivers/r_cache/src/lld\r_cache_lld_rza2m.c **** 
 540:D:/Work/DeviceTester/amazon-freertos/lib/third_party/mcu_vendor/renesas/rz_mcu_boards/core_package/generate/drivers/r_cache/src/lld\r_cache_lld_rza2m.c **** /*******************************************************************************
 541:D:/Work/DeviceTester/amazon-freertos/lib/third_party/mcu_vendor/renesas/rz_mcu_boards/core_package/generate/drivers/r_cache/src/lld\r_cache_lld_rza2m.c **** * Function Name: R_CACHE_L2PrefetchDisable
 542:D:/Work/DeviceTester/amazon-freertos/lib/third_party/mcu_vendor/renesas/rz_mcu_boards/core_package/generate/drivers/r_cache/src/lld\r_cache_lld_rza2m.c **** * Description  : Disable the PL310 instruction and data prefetching.
 543:D:/Work/DeviceTester/amazon-freertos/lib/third_party/mcu_vendor/renesas/rz_mcu_boards/core_package/generate/drivers/r_cache/src/lld\r_cache_lld_rza2m.c **** * Arguments    : none
 544:D:/Work/DeviceTester/amazon-freertos/lib/third_party/mcu_vendor/renesas/rz_mcu_boards/core_package/generate/drivers/r_cache/src/lld\r_cache_lld_rza2m.c **** * Return Value : none
 545:D:/Work/DeviceTester/amazon-freertos/lib/third_party/mcu_vendor/renesas/rz_mcu_boards/core_package/generate/drivers/r_cache/src/lld\r_cache_lld_rza2m.c **** *******************************************************************************/
 546:D:/Work/DeviceTester/amazon-freertos/lib/third_party/mcu_vendor/renesas/rz_mcu_boards/core_package/generate/drivers/r_cache/src/lld\r_cache_lld_rza2m.c **** void R_CACHE_L2PrefetchDisable(void)
 547:D:/Work/DeviceTester/amazon-freertos/lib/third_party/mcu_vendor/renesas/rz_mcu_boards/core_package/generate/drivers/r_cache/src/lld\r_cache_lld_rza2m.c **** {
 548:D:/Work/DeviceTester/amazon-freertos/lib/third_party/mcu_vendor/renesas/rz_mcu_boards/core_package/generate/drivers/r_cache/src/lld\r_cache_lld_rza2m.c ****     uint32_t reg32;
 549:D:/Work/DeviceTester/amazon-freertos/lib/third_party/mcu_vendor/renesas/rz_mcu_boards/core_package/generate/drivers/r_cache/src/lld\r_cache_lld_rza2m.c **** 
 550:D:/Work/DeviceTester/amazon-freertos/lib/third_party/mcu_vendor/renesas/rz_mcu_boards/core_package/generate/drivers/r_cache/src/lld\r_cache_lld_rza2m.c ****     /* Casting the pointer to a uint32_t type is valid because "unsigned long" is same 4byte unsign
 551:D:/Work/DeviceTester/amazon-freertos/lib/third_party/mcu_vendor/renesas/rz_mcu_boards/core_package/generate/drivers/r_cache/src/lld\r_cache_lld_rza2m.c ****     reg32 = RZA_IO_RegRead_32(&pl310.REG15_PREFETCH_CTRL.LONG, IOREG_NONSHIFT_ACCESS, IOREG_NONMASK
 552:D:/Work/DeviceTester/amazon-freertos/lib/third_party/mcu_vendor/renesas/rz_mcu_boards/core_package/generate/drivers/r_cache/src/lld\r_cache_lld_rza2m.c **** 
 553:D:/Work/DeviceTester/amazon-freertos/lib/third_party/mcu_vendor/renesas/rz_mcu_boards/core_package/generate/drivers/r_cache/src/lld\r_cache_lld_rza2m.c ****     reg32 &= (~(1u << PL310_REG15_PREFETCH_CTRL_Doublelinefillenable_SHIFT));
 554:D:/Work/DeviceTester/amazon-freertos/lib/third_party/mcu_vendor/renesas/rz_mcu_boards/core_package/generate/drivers/r_cache/src/lld\r_cache_lld_rza2m.c ****     reg32 &= (~(1u << PL310_REG15_PREFETCH_CTRL_Instructionprefetchenable_SHIFT));
 555:D:/Work/DeviceTester/amazon-freertos/lib/third_party/mcu_vendor/renesas/rz_mcu_boards/core_package/generate/drivers/r_cache/src/lld\r_cache_lld_rza2m.c ****     reg32 &= (~(1u << PL310_REG15_PREFETCH_CTRL_Dataprefetchenable_SHIFT));
 556:D:/Work/DeviceTester/amazon-freertos/lib/third_party/mcu_vendor/renesas/rz_mcu_boards/core_package/generate/drivers/r_cache/src/lld\r_cache_lld_rza2m.c **** 
 557:D:/Work/DeviceTester/amazon-freertos/lib/third_party/mcu_vendor/renesas/rz_mcu_boards/core_package/generate/drivers/r_cache/src/lld\r_cache_lld_rza2m.c ****     /* Casting the pointer to a uint32_t type is valid because "unsigned long" is same 4byte unsign
 558:D:/Work/DeviceTester/amazon-freertos/lib/third_party/mcu_vendor/renesas/rz_mcu_boards/core_package/generate/drivers/r_cache/src/lld\r_cache_lld_rza2m.c ****     RZA_IO_RegWrite_32(&pl310.REG15_PREFETCH_CTRL.LONG, reg32, IOREG_NONSHIFT_ACCESS, IOREG_NONMASK
 559:D:/Work/DeviceTester/amazon-freertos/lib/third_party/mcu_vendor/renesas/rz_mcu_boards/core_package/generate/drivers/r_cache/src/lld\r_cache_lld_rza2m.c ****     cache_l2_sync();
 560:D:/Work/DeviceTester/amazon-freertos/lib/third_party/mcu_vendor/renesas/rz_mcu_boards/core_package/generate/drivers/r_cache/src/lld\r_cache_lld_rza2m.c ****     return;
 561:D:/Work/DeviceTester/amazon-freertos/lib/third_party/mcu_vendor/renesas/rz_mcu_boards/core_package/generate/drivers/r_cache/src/lld\r_cache_lld_rza2m.c **** }
 562:D:/Work/DeviceTester/amazon-freertos/lib/third_party/mcu_vendor/renesas/rz_mcu_boards/core_package/generate/drivers/r_cache/src/lld\r_cache_lld_rza2m.c **** /*******************************************************************************
 563:D:/Work/DeviceTester/amazon-freertos/lib/third_party/mcu_vendor/renesas/rz_mcu_boards/core_package/generate/drivers/r_cache/src/lld\r_cache_lld_rza2m.c **** End of function R_CACHE_L2PrefetchDisable
 564:D:/Work/DeviceTester/amazon-freertos/lib/third_party/mcu_vendor/renesas/rz_mcu_boards/core_package/generate/drivers/r_cache/src/lld\r_cache_lld_rza2m.c **** *******************************************************************************/
 565:D:/Work/DeviceTester/amazon-freertos/lib/third_party/mcu_vendor/renesas/rz_mcu_boards/core_package/generate/drivers/r_cache/src/lld\r_cache_lld_rza2m.c **** 
 566:D:/Work/DeviceTester/amazon-freertos/lib/third_party/mcu_vendor/renesas/rz_mcu_boards/core_package/generate/drivers/r_cache/src/lld\r_cache_lld_rza2m.c **** /*******************************************************************************
 567:D:/Work/DeviceTester/amazon-freertos/lib/third_party/mcu_vendor/renesas/rz_mcu_boards/core_package/generate/drivers/r_cache/src/lld\r_cache_lld_rza2m.c **** * Function Name: R_CACHE_L2InvalidAll
 568:D:/Work/DeviceTester/amazon-freertos/lib/third_party/mcu_vendor/renesas/rz_mcu_boards/core_package/generate/drivers/r_cache/src/lld\r_cache_lld_rza2m.c **** * Description  : Invalidate whole of the PL310 cache.
 569:D:/Work/DeviceTester/amazon-freertos/lib/third_party/mcu_vendor/renesas/rz_mcu_boards/core_package/generate/drivers/r_cache/src/lld\r_cache_lld_rza2m.c **** * Arguments    : none
 570:D:/Work/DeviceTester/amazon-freertos/lib/third_party/mcu_vendor/renesas/rz_mcu_boards/core_package/generate/drivers/r_cache/src/lld\r_cache_lld_rza2m.c **** * Return Value : none
 571:D:/Work/DeviceTester/amazon-freertos/lib/third_party/mcu_vendor/renesas/rz_mcu_boards/core_package/generate/drivers/r_cache/src/lld\r_cache_lld_rza2m.c **** *******************************************************************************/
 572:D:/Work/DeviceTester/amazon-freertos/lib/third_party/mcu_vendor/renesas/rz_mcu_boards/core_package/generate/drivers/r_cache/src/lld\r_cache_lld_rza2m.c **** void R_CACHE_L2InvalidAll(void)
 573:D:/Work/DeviceTester/amazon-freertos/lib/third_party/mcu_vendor/renesas/rz_mcu_boards/core_package/generate/drivers/r_cache/src/lld\r_cache_lld_rza2m.c **** {
 574:D:/Work/DeviceTester/amazon-freertos/lib/third_party/mcu_vendor/renesas/rz_mcu_boards/core_package/generate/drivers/r_cache/src/lld\r_cache_lld_rza2m.c ****     uint32_t reg32;
 575:D:/Work/DeviceTester/amazon-freertos/lib/third_party/mcu_vendor/renesas/rz_mcu_boards/core_package/generate/drivers/r_cache/src/lld\r_cache_lld_rza2m.c **** 
 576:D:/Work/DeviceTester/amazon-freertos/lib/third_party/mcu_vendor/renesas/rz_mcu_boards/core_package/generate/drivers/r_cache/src/lld\r_cache_lld_rza2m.c ****     /* Casting the pointer to a uint32_t type is valid because "unsigned long" is same 4byte unsign
 577:D:/Work/DeviceTester/amazon-freertos/lib/third_party/mcu_vendor/renesas/rz_mcu_boards/core_package/generate/drivers/r_cache/src/lld\r_cache_lld_rza2m.c ****     RZA_IO_RegWrite_32(&pl310.REG7_INV_WAY.LONG,
 578:D:/Work/DeviceTester/amazon-freertos/lib/third_party/mcu_vendor/renesas/rz_mcu_boards/core_package/generate/drivers/r_cache/src/lld\r_cache_lld_rza2m.c ****                        CACHE_PRV_PL310_ALLWAYBITS_8,
 579:D:/Work/DeviceTester/amazon-freertos/lib/third_party/mcu_vendor/renesas/rz_mcu_boards/core_package/generate/drivers/r_cache/src/lld\r_cache_lld_rza2m.c ****                        PL310_REG7_INV_WAY_Way_bits_SHIFT,
 580:D:/Work/DeviceTester/amazon-freertos/lib/third_party/mcu_vendor/renesas/rz_mcu_boards/core_package/generate/drivers/r_cache/src/lld\r_cache_lld_rza2m.c ****                        PL310_REG7_INV_WAY_Way_bits);
 581:D:/Work/DeviceTester/amazon-freertos/lib/third_party/mcu_vendor/renesas/rz_mcu_boards/core_package/generate/drivers/r_cache/src/lld\r_cache_lld_rza2m.c **** 
 582:D:/Work/DeviceTester/amazon-freertos/lib/third_party/mcu_vendor/renesas/rz_mcu_boards/core_package/generate/drivers/r_cache/src/lld\r_cache_lld_rza2m.c ****     /* Wait until complete background operation */
 583:D:/Work/DeviceTester/amazon-freertos/lib/third_party/mcu_vendor/renesas/rz_mcu_boards/core_package/generate/drivers/r_cache/src/lld\r_cache_lld_rza2m.c ****     do
 584:D:/Work/DeviceTester/amazon-freertos/lib/third_party/mcu_vendor/renesas/rz_mcu_boards/core_package/generate/drivers/r_cache/src/lld\r_cache_lld_rza2m.c ****     {
 585:D:/Work/DeviceTester/amazon-freertos/lib/third_party/mcu_vendor/renesas/rz_mcu_boards/core_package/generate/drivers/r_cache/src/lld\r_cache_lld_rza2m.c ****         /* Casting the pointer to a uint32_t type is valid because "unsigned long" is same 4byte un
 586:D:/Work/DeviceTester/amazon-freertos/lib/third_party/mcu_vendor/renesas/rz_mcu_boards/core_package/generate/drivers/r_cache/src/lld\r_cache_lld_rza2m.c ****         reg32 = RZA_IO_RegRead_32(&pl310.REG7_INV_WAY.LONG,
 587:D:/Work/DeviceTester/amazon-freertos/lib/third_party/mcu_vendor/renesas/rz_mcu_boards/core_package/generate/drivers/r_cache/src/lld\r_cache_lld_rza2m.c ****                                   PL310_REG7_INV_WAY_Way_bits_SHIFT,
 588:D:/Work/DeviceTester/amazon-freertos/lib/third_party/mcu_vendor/renesas/rz_mcu_boards/core_package/generate/drivers/r_cache/src/lld\r_cache_lld_rza2m.c ****                                   PL310_REG7_INV_WAY_Way_bits);
 589:D:/Work/DeviceTester/amazon-freertos/lib/third_party/mcu_vendor/renesas/rz_mcu_boards/core_package/generate/drivers/r_cache/src/lld\r_cache_lld_rza2m.c ****     } while (0 != reg32);
 590:D:/Work/DeviceTester/amazon-freertos/lib/third_party/mcu_vendor/renesas/rz_mcu_boards/core_package/generate/drivers/r_cache/src/lld\r_cache_lld_rza2m.c ****     cache_l2_sync();
 591:D:/Work/DeviceTester/amazon-freertos/lib/third_party/mcu_vendor/renesas/rz_mcu_boards/core_package/generate/drivers/r_cache/src/lld\r_cache_lld_rza2m.c **** 
 592:D:/Work/DeviceTester/amazon-freertos/lib/third_party/mcu_vendor/renesas/rz_mcu_boards/core_package/generate/drivers/r_cache/src/lld\r_cache_lld_rza2m.c ****     return;
 593:D:/Work/DeviceTester/amazon-freertos/lib/third_party/mcu_vendor/renesas/rz_mcu_boards/core_package/generate/drivers/r_cache/src/lld\r_cache_lld_rza2m.c **** }
 594:D:/Work/DeviceTester/amazon-freertos/lib/third_party/mcu_vendor/renesas/rz_mcu_boards/core_package/generate/drivers/r_cache/src/lld\r_cache_lld_rza2m.c **** /*******************************************************************************
 595:D:/Work/DeviceTester/amazon-freertos/lib/third_party/mcu_vendor/renesas/rz_mcu_boards/core_package/generate/drivers/r_cache/src/lld\r_cache_lld_rza2m.c **** End of function R_CACHE_L2InvalidAll
 596:D:/Work/DeviceTester/amazon-freertos/lib/third_party/mcu_vendor/renesas/rz_mcu_boards/core_package/generate/drivers/r_cache/src/lld\r_cache_lld_rza2m.c **** *******************************************************************************/
 597:D:/Work/DeviceTester/amazon-freertos/lib/third_party/mcu_vendor/renesas/rz_mcu_boards/core_package/generate/drivers/r_cache/src/lld\r_cache_lld_rza2m.c **** 
 598:D:/Work/DeviceTester/amazon-freertos/lib/third_party/mcu_vendor/renesas/rz_mcu_boards/core_package/generate/drivers/r_cache/src/lld\r_cache_lld_rza2m.c **** /*******************************************************************************
 599:D:/Work/DeviceTester/amazon-freertos/lib/third_party/mcu_vendor/renesas/rz_mcu_boards/core_package/generate/drivers/r_cache/src/lld\r_cache_lld_rza2m.c **** * Function Name: R_CACHE_L2CleanAll
 600:D:/Work/DeviceTester/amazon-freertos/lib/third_party/mcu_vendor/renesas/rz_mcu_boards/core_package/generate/drivers/r_cache/src/lld\r_cache_lld_rza2m.c **** * Description  : Clean whole of the PL310 cache.
 601:D:/Work/DeviceTester/amazon-freertos/lib/third_party/mcu_vendor/renesas/rz_mcu_boards/core_package/generate/drivers/r_cache/src/lld\r_cache_lld_rza2m.c **** * Arguments    : none
 602:D:/Work/DeviceTester/amazon-freertos/lib/third_party/mcu_vendor/renesas/rz_mcu_boards/core_package/generate/drivers/r_cache/src/lld\r_cache_lld_rza2m.c **** * Return Value : none
 603:D:/Work/DeviceTester/amazon-freertos/lib/third_party/mcu_vendor/renesas/rz_mcu_boards/core_package/generate/drivers/r_cache/src/lld\r_cache_lld_rza2m.c **** *******************************************************************************/
 604:D:/Work/DeviceTester/amazon-freertos/lib/third_party/mcu_vendor/renesas/rz_mcu_boards/core_package/generate/drivers/r_cache/src/lld\r_cache_lld_rza2m.c **** void R_CACHE_L2CleanAll(void)
 605:D:/Work/DeviceTester/amazon-freertos/lib/third_party/mcu_vendor/renesas/rz_mcu_boards/core_package/generate/drivers/r_cache/src/lld\r_cache_lld_rza2m.c **** {
 606:D:/Work/DeviceTester/amazon-freertos/lib/third_party/mcu_vendor/renesas/rz_mcu_boards/core_package/generate/drivers/r_cache/src/lld\r_cache_lld_rza2m.c ****     uint32_t reg32;
 607:D:/Work/DeviceTester/amazon-freertos/lib/third_party/mcu_vendor/renesas/rz_mcu_boards/core_package/generate/drivers/r_cache/src/lld\r_cache_lld_rza2m.c **** 
 608:D:/Work/DeviceTester/amazon-freertos/lib/third_party/mcu_vendor/renesas/rz_mcu_boards/core_package/generate/drivers/r_cache/src/lld\r_cache_lld_rza2m.c ****     /* Casting the pointer to a uint32_t type is valid because "unsigned long" is same 4byte unsign
 609:D:/Work/DeviceTester/amazon-freertos/lib/third_party/mcu_vendor/renesas/rz_mcu_boards/core_package/generate/drivers/r_cache/src/lld\r_cache_lld_rza2m.c ****     RZA_IO_RegWrite_32(&pl310.REG7_CLEAN_WAY.LONG,
 610:D:/Work/DeviceTester/amazon-freertos/lib/third_party/mcu_vendor/renesas/rz_mcu_boards/core_package/generate/drivers/r_cache/src/lld\r_cache_lld_rza2m.c ****                        CACHE_PRV_PL310_ALLWAYBITS_8,
 611:D:/Work/DeviceTester/amazon-freertos/lib/third_party/mcu_vendor/renesas/rz_mcu_boards/core_package/generate/drivers/r_cache/src/lld\r_cache_lld_rza2m.c ****                        PL310_REG7_CLEAN_WAY_Way_bits_SHIFT,
 612:D:/Work/DeviceTester/amazon-freertos/lib/third_party/mcu_vendor/renesas/rz_mcu_boards/core_package/generate/drivers/r_cache/src/lld\r_cache_lld_rza2m.c ****                        PL310_REG7_CLEAN_WAY_Way_bits);
 613:D:/Work/DeviceTester/amazon-freertos/lib/third_party/mcu_vendor/renesas/rz_mcu_boards/core_package/generate/drivers/r_cache/src/lld\r_cache_lld_rza2m.c **** 
 614:D:/Work/DeviceTester/amazon-freertos/lib/third_party/mcu_vendor/renesas/rz_mcu_boards/core_package/generate/drivers/r_cache/src/lld\r_cache_lld_rza2m.c ****     /* Wait until complete background operation */
 615:D:/Work/DeviceTester/amazon-freertos/lib/third_party/mcu_vendor/renesas/rz_mcu_boards/core_package/generate/drivers/r_cache/src/lld\r_cache_lld_rza2m.c ****     do
 616:D:/Work/DeviceTester/amazon-freertos/lib/third_party/mcu_vendor/renesas/rz_mcu_boards/core_package/generate/drivers/r_cache/src/lld\r_cache_lld_rza2m.c ****     {
 617:D:/Work/DeviceTester/amazon-freertos/lib/third_party/mcu_vendor/renesas/rz_mcu_boards/core_package/generate/drivers/r_cache/src/lld\r_cache_lld_rza2m.c ****         /* Casting the pointer to a uint32_t type is valid because "unsigned long" is same 4byte un
 618:D:/Work/DeviceTester/amazon-freertos/lib/third_party/mcu_vendor/renesas/rz_mcu_boards/core_package/generate/drivers/r_cache/src/lld\r_cache_lld_rza2m.c ****         reg32 = RZA_IO_RegRead_32(&pl310.REG7_CLEAN_WAY.LONG,
 619:D:/Work/DeviceTester/amazon-freertos/lib/third_party/mcu_vendor/renesas/rz_mcu_boards/core_package/generate/drivers/r_cache/src/lld\r_cache_lld_rza2m.c ****                                   PL310_REG7_CLEAN_WAY_Way_bits_SHIFT,
 620:D:/Work/DeviceTester/amazon-freertos/lib/third_party/mcu_vendor/renesas/rz_mcu_boards/core_package/generate/drivers/r_cache/src/lld\r_cache_lld_rza2m.c ****                                   PL310_REG7_CLEAN_WAY_Way_bits);
 621:D:/Work/DeviceTester/amazon-freertos/lib/third_party/mcu_vendor/renesas/rz_mcu_boards/core_package/generate/drivers/r_cache/src/lld\r_cache_lld_rza2m.c ****     } while (0 != reg32);
 622:D:/Work/DeviceTester/amazon-freertos/lib/third_party/mcu_vendor/renesas/rz_mcu_boards/core_package/generate/drivers/r_cache/src/lld\r_cache_lld_rza2m.c ****     cache_l2_sync();
 623:D:/Work/DeviceTester/amazon-freertos/lib/third_party/mcu_vendor/renesas/rz_mcu_boards/core_package/generate/drivers/r_cache/src/lld\r_cache_lld_rza2m.c **** 
 624:D:/Work/DeviceTester/amazon-freertos/lib/third_party/mcu_vendor/renesas/rz_mcu_boards/core_package/generate/drivers/r_cache/src/lld\r_cache_lld_rza2m.c ****     return;
 625:D:/Work/DeviceTester/amazon-freertos/lib/third_party/mcu_vendor/renesas/rz_mcu_boards/core_package/generate/drivers/r_cache/src/lld\r_cache_lld_rza2m.c **** }
 626:D:/Work/DeviceTester/amazon-freertos/lib/third_party/mcu_vendor/renesas/rz_mcu_boards/core_package/generate/drivers/r_cache/src/lld\r_cache_lld_rza2m.c **** /*******************************************************************************
 627:D:/Work/DeviceTester/amazon-freertos/lib/third_party/mcu_vendor/renesas/rz_mcu_boards/core_package/generate/drivers/r_cache/src/lld\r_cache_lld_rza2m.c **** End of function R_CACHE_L2CleanAll
 628:D:/Work/DeviceTester/amazon-freertos/lib/third_party/mcu_vendor/renesas/rz_mcu_boards/core_package/generate/drivers/r_cache/src/lld\r_cache_lld_rza2m.c **** *******************************************************************************/
 629:D:/Work/DeviceTester/amazon-freertos/lib/third_party/mcu_vendor/renesas/rz_mcu_boards/core_package/generate/drivers/r_cache/src/lld\r_cache_lld_rza2m.c **** 
 630:D:/Work/DeviceTester/amazon-freertos/lib/third_party/mcu_vendor/renesas/rz_mcu_boards/core_package/generate/drivers/r_cache/src/lld\r_cache_lld_rza2m.c **** /*******************************************************************************
 631:D:/Work/DeviceTester/amazon-freertos/lib/third_party/mcu_vendor/renesas/rz_mcu_boards/core_package/generate/drivers/r_cache/src/lld\r_cache_lld_rza2m.c **** * Function Name: R_CACHE_L2CleanInvalidAll
 632:D:/Work/DeviceTester/amazon-freertos/lib/third_party/mcu_vendor/renesas/rz_mcu_boards/core_package/generate/drivers/r_cache/src/lld\r_cache_lld_rza2m.c **** * Description  : Clean&invalidate whole of the PL310 cache.
 633:D:/Work/DeviceTester/amazon-freertos/lib/third_party/mcu_vendor/renesas/rz_mcu_boards/core_package/generate/drivers/r_cache/src/lld\r_cache_lld_rza2m.c **** * Arguments    : none
 634:D:/Work/DeviceTester/amazon-freertos/lib/third_party/mcu_vendor/renesas/rz_mcu_boards/core_package/generate/drivers/r_cache/src/lld\r_cache_lld_rza2m.c **** * Return Value : none
 635:D:/Work/DeviceTester/amazon-freertos/lib/third_party/mcu_vendor/renesas/rz_mcu_boards/core_package/generate/drivers/r_cache/src/lld\r_cache_lld_rza2m.c **** *******************************************************************************/
 636:D:/Work/DeviceTester/amazon-freertos/lib/third_party/mcu_vendor/renesas/rz_mcu_boards/core_package/generate/drivers/r_cache/src/lld\r_cache_lld_rza2m.c **** void R_CACHE_L2CleanInvalidAll(void)
 637:D:/Work/DeviceTester/amazon-freertos/lib/third_party/mcu_vendor/renesas/rz_mcu_boards/core_package/generate/drivers/r_cache/src/lld\r_cache_lld_rza2m.c **** {
 638:D:/Work/DeviceTester/amazon-freertos/lib/third_party/mcu_vendor/renesas/rz_mcu_boards/core_package/generate/drivers/r_cache/src/lld\r_cache_lld_rza2m.c ****     uint32_t reg32;
 639:D:/Work/DeviceTester/amazon-freertos/lib/third_party/mcu_vendor/renesas/rz_mcu_boards/core_package/generate/drivers/r_cache/src/lld\r_cache_lld_rza2m.c **** 
 640:D:/Work/DeviceTester/amazon-freertos/lib/third_party/mcu_vendor/renesas/rz_mcu_boards/core_package/generate/drivers/r_cache/src/lld\r_cache_lld_rza2m.c ****     /* Casting the pointer to a uint32_t type is valid because "unsigned long" is same 4byte unsign
 641:D:/Work/DeviceTester/amazon-freertos/lib/third_party/mcu_vendor/renesas/rz_mcu_boards/core_package/generate/drivers/r_cache/src/lld\r_cache_lld_rza2m.c ****     RZA_IO_RegWrite_32(&pl310.REG7_CLEAN_INV_WAY.LONG,
 642:D:/Work/DeviceTester/amazon-freertos/lib/third_party/mcu_vendor/renesas/rz_mcu_boards/core_package/generate/drivers/r_cache/src/lld\r_cache_lld_rza2m.c ****                        CACHE_PRV_PL310_ALLWAYBITS_8,
 643:D:/Work/DeviceTester/amazon-freertos/lib/third_party/mcu_vendor/renesas/rz_mcu_boards/core_package/generate/drivers/r_cache/src/lld\r_cache_lld_rza2m.c ****                        PL310_REG7_CLEAN_INV_WAY_Way_bits_SHIFT,
 644:D:/Work/DeviceTester/amazon-freertos/lib/third_party/mcu_vendor/renesas/rz_mcu_boards/core_package/generate/drivers/r_cache/src/lld\r_cache_lld_rza2m.c ****                        PL310_REG7_CLEAN_INV_WAY_Way_bits);
 645:D:/Work/DeviceTester/amazon-freertos/lib/third_party/mcu_vendor/renesas/rz_mcu_boards/core_package/generate/drivers/r_cache/src/lld\r_cache_lld_rza2m.c **** 
 646:D:/Work/DeviceTester/amazon-freertos/lib/third_party/mcu_vendor/renesas/rz_mcu_boards/core_package/generate/drivers/r_cache/src/lld\r_cache_lld_rza2m.c ****     /* Wait until complete background operation */
 647:D:/Work/DeviceTester/amazon-freertos/lib/third_party/mcu_vendor/renesas/rz_mcu_boards/core_package/generate/drivers/r_cache/src/lld\r_cache_lld_rza2m.c ****     do
 648:D:/Work/DeviceTester/amazon-freertos/lib/third_party/mcu_vendor/renesas/rz_mcu_boards/core_package/generate/drivers/r_cache/src/lld\r_cache_lld_rza2m.c ****     {
 649:D:/Work/DeviceTester/amazon-freertos/lib/third_party/mcu_vendor/renesas/rz_mcu_boards/core_package/generate/drivers/r_cache/src/lld\r_cache_lld_rza2m.c ****         /* Casting the pointer to a uint32_t type is valid because "unsigned long" is same 4byte un
 650:D:/Work/DeviceTester/amazon-freertos/lib/third_party/mcu_vendor/renesas/rz_mcu_boards/core_package/generate/drivers/r_cache/src/lld\r_cache_lld_rza2m.c ****         reg32 = RZA_IO_RegRead_32(&pl310.REG7_CLEAN_INV_WAY.LONG,
 651:D:/Work/DeviceTester/amazon-freertos/lib/third_party/mcu_vendor/renesas/rz_mcu_boards/core_package/generate/drivers/r_cache/src/lld\r_cache_lld_rza2m.c ****                                   PL310_REG7_CLEAN_INV_WAY_Way_bits_SHIFT,
 652:D:/Work/DeviceTester/amazon-freertos/lib/third_party/mcu_vendor/renesas/rz_mcu_boards/core_package/generate/drivers/r_cache/src/lld\r_cache_lld_rza2m.c ****                                   PL310_REG7_CLEAN_INV_WAY_Way_bits);
 653:D:/Work/DeviceTester/amazon-freertos/lib/third_party/mcu_vendor/renesas/rz_mcu_boards/core_package/generate/drivers/r_cache/src/lld\r_cache_lld_rza2m.c ****     } while (0 != reg32);
 654:D:/Work/DeviceTester/amazon-freertos/lib/third_party/mcu_vendor/renesas/rz_mcu_boards/core_package/generate/drivers/r_cache/src/lld\r_cache_lld_rza2m.c ****     cache_l2_sync();
 655:D:/Work/DeviceTester/amazon-freertos/lib/third_party/mcu_vendor/renesas/rz_mcu_boards/core_package/generate/drivers/r_cache/src/lld\r_cache_lld_rza2m.c **** 
 656:D:/Work/DeviceTester/amazon-freertos/lib/third_party/mcu_vendor/renesas/rz_mcu_boards/core_package/generate/drivers/r_cache/src/lld\r_cache_lld_rza2m.c ****     return;
 657:D:/Work/DeviceTester/amazon-freertos/lib/third_party/mcu_vendor/renesas/rz_mcu_boards/core_package/generate/drivers/r_cache/src/lld\r_cache_lld_rza2m.c **** }
 658:D:/Work/DeviceTester/amazon-freertos/lib/third_party/mcu_vendor/renesas/rz_mcu_boards/core_package/generate/drivers/r_cache/src/lld\r_cache_lld_rza2m.c **** /*******************************************************************************
 659:D:/Work/DeviceTester/amazon-freertos/lib/third_party/mcu_vendor/renesas/rz_mcu_boards/core_package/generate/drivers/r_cache/src/lld\r_cache_lld_rza2m.c **** End of function R_CACHE_L2CleanInvalidAll
 660:D:/Work/DeviceTester/amazon-freertos/lib/third_party/mcu_vendor/renesas/rz_mcu_boards/core_package/generate/drivers/r_cache/src/lld\r_cache_lld_rza2m.c **** *******************************************************************************/
 661:D:/Work/DeviceTester/amazon-freertos/lib/third_party/mcu_vendor/renesas/rz_mcu_boards/core_package/generate/drivers/r_cache/src/lld\r_cache_lld_rza2m.c **** 
 662:D:/Work/DeviceTester/amazon-freertos/lib/third_party/mcu_vendor/renesas/rz_mcu_boards/core_package/generate/drivers/r_cache/src/lld\r_cache_lld_rza2m.c **** /*******************************************************************************
 663:D:/Work/DeviceTester/amazon-freertos/lib/third_party/mcu_vendor/renesas/rz_mcu_boards/core_package/generate/drivers/r_cache/src/lld\r_cache_lld_rza2m.c **** * Function Name: cache_l2_sync
 664:D:/Work/DeviceTester/amazon-freertos/lib/third_party/mcu_vendor/renesas/rz_mcu_boards/core_package/generate/drivers/r_cache/src/lld\r_cache_lld_rza2m.c **** * Description  : Perform a cache sync operation.
 665:D:/Work/DeviceTester/amazon-freertos/lib/third_party/mcu_vendor/renesas/rz_mcu_boards/core_package/generate/drivers/r_cache/src/lld\r_cache_lld_rza2m.c **** * Arguments    : none
 666:D:/Work/DeviceTester/amazon-freertos/lib/third_party/mcu_vendor/renesas/rz_mcu_boards/core_package/generate/drivers/r_cache/src/lld\r_cache_lld_rza2m.c **** * Return Value : none
 667:D:/Work/DeviceTester/amazon-freertos/lib/third_party/mcu_vendor/renesas/rz_mcu_boards/core_package/generate/drivers/r_cache/src/lld\r_cache_lld_rza2m.c **** *******************************************************************************/
 668:D:/Work/DeviceTester/amazon-freertos/lib/third_party/mcu_vendor/renesas/rz_mcu_boards/core_package/generate/drivers/r_cache/src/lld\r_cache_lld_rza2m.c **** static void cache_l2_sync(void)
 669:D:/Work/DeviceTester/amazon-freertos/lib/third_party/mcu_vendor/renesas/rz_mcu_boards/core_package/generate/drivers/r_cache/src/lld\r_cache_lld_rza2m.c **** {
  25              		.loc 1 669 0
  26              		.cfi_startproc
  27              		@ args = 0, pretend = 0, frame = 0
  28              		@ frame_needed = 0, uses_anonymous_args = 0
  29 0000 10402DE9 		push	{r4, lr}
  30              		.cfi_def_cfa_offset 8
  31              		.cfi_offset 4, -8
  32              		.cfi_offset 14, -4
 670:D:/Work/DeviceTester/amazon-freertos/lib/third_party/mcu_vendor/renesas/rz_mcu_boards/core_package/generate/drivers/r_cache/src/lld\r_cache_lld_rza2m.c ****     uint32_t reg32;
 671:D:/Work/DeviceTester/amazon-freertos/lib/third_party/mcu_vendor/renesas/rz_mcu_boards/core_package/generate/drivers/r_cache/src/lld\r_cache_lld_rza2m.c **** 
 672:D:/Work/DeviceTester/amazon-freertos/lib/third_party/mcu_vendor/renesas/rz_mcu_boards/core_package/generate/drivers/r_cache/src/lld\r_cache_lld_rza2m.c ****     /* Casting the pointer to a uint32_t type is valid because "unsigned long" is same 4byte unsign
 673:D:/Work/DeviceTester/amazon-freertos/lib/third_party/mcu_vendor/renesas/rz_mcu_boards/core_package/generate/drivers/r_cache/src/lld\r_cache_lld_rza2m.c ****     RZA_IO_RegWrite_32(&pl310.REG7_CACHE_SYNC.LONG, 0, IOREG_NONSHIFT_ACCESS, IOREG_NONMASK_ACCESS)
  33              		.loc 1 673 0
  34 0004 0020A0E3 		mov	r2, #0
 674:D:/Work/DeviceTester/amazon-freertos/lib/third_party/mcu_vendor/renesas/rz_mcu_boards/core_package/generate/drivers/r_cache/src/lld\r_cache_lld_rza2m.c **** 
 675:D:/Work/DeviceTester/amazon-freertos/lib/third_party/mcu_vendor/renesas/rz_mcu_boards/core_package/generate/drivers/r_cache/src/lld\r_cache_lld_rza2m.c ****     do
 676:D:/Work/DeviceTester/amazon-freertos/lib/third_party/mcu_vendor/renesas/rz_mcu_boards/core_package/generate/drivers/r_cache/src/lld\r_cache_lld_rza2m.c ****     {
 677:D:/Work/DeviceTester/amazon-freertos/lib/third_party/mcu_vendor/renesas/rz_mcu_boards/core_package/generate/drivers/r_cache/src/lld\r_cache_lld_rza2m.c ****         /* Casting the pointer to a uint32_t type is valid because "unsigned long" is same 4byte un
 678:D:/Work/DeviceTester/amazon-freertos/lib/third_party/mcu_vendor/renesas/rz_mcu_boards/core_package/generate/drivers/r_cache/src/lld\r_cache_lld_rza2m.c ****         reg32 = RZA_IO_RegRead_32(&pl310.REG7_CACHE_SYNC.LONG, IOREG_NONSHIFT_ACCESS, IOREG_NONMASK
  35              		.loc 1 678 0
  36 0008 28409FE5 		ldr	r4, .L5
 673:D:/Work/DeviceTester/amazon-freertos/lib/third_party/mcu_vendor/renesas/rz_mcu_boards/core_package/generate/drivers/r_cache/src/lld\r_cache_lld_rza2m.c **** 
  37              		.loc 1 673 0
  38 000c 0030E0E3 		mvn	r3, #0
  39 0010 0210A0E1 		mov	r1, r2
  40 0014 1C009FE5 		ldr	r0, .L5
  41 0018 FEFFFFEB 		bl	RZA_IO_RegWrite_32
  42              	.LVL0:
  43              	.L2:
  44              		.loc 1 678 0 discriminator 1
  45 001c 0020E0E3 		mvn	r2, #0
  46 0020 0010A0E3 		mov	r1, #0
  47 0024 0400A0E1 		mov	r0, r4
  48 0028 FEFFFFEB 		bl	RZA_IO_RegRead_32
  49              	.LVL1:
 679:D:/Work/DeviceTester/amazon-freertos/lib/third_party/mcu_vendor/renesas/rz_mcu_boards/core_package/generate/drivers/r_cache/src/lld\r_cache_lld_rza2m.c ****     } while (0 != reg32);
  50              		.loc 1 679 0 discriminator 1
  51 002c 000050E3 		cmp	r0, #0
  52 0030 F9FFFF1A 		bne	.L2
 680:D:/Work/DeviceTester/amazon-freertos/lib/third_party/mcu_vendor/renesas/rz_mcu_boards/core_package/generate/drivers/r_cache/src/lld\r_cache_lld_rza2m.c **** 
 681:D:/Work/DeviceTester/amazon-freertos/lib/third_party/mcu_vendor/renesas/rz_mcu_boards/core_package/generate/drivers/r_cache/src/lld\r_cache_lld_rza2m.c ****     return;
 682:D:/Work/DeviceTester/amazon-freertos/lib/third_party/mcu_vendor/renesas/rz_mcu_boards/core_package/generate/drivers/r_cache/src/lld\r_cache_lld_rza2m.c **** }
  53              		.loc 1 682 0
  54 0034 1080BDE8 		pop	{r4, pc}
  55              	.L6:
  56              		.align	2
  57              	.L5:
  58 0038 3037001F 		.word	520107824
  59              		.cfi_endproc
  60              	.LFE25:
  62              		.section	.text.R_CACHE_L1Init,"ax",%progbits
  63              		.align	2
  64              		.global	R_CACHE_L1Init
  65              		.syntax unified
  66              		.arm
  67              		.fpu neon
  69              	R_CACHE_L1Init:
  70              	.LFB0:
  96:D:/Work/DeviceTester/amazon-freertos/lib/third_party/mcu_vendor/renesas/rz_mcu_boards/core_package/generate/drivers/r_cache/src/lld\r_cache_lld_rza2m.c ****     /* Enable I,D cache */
  71              		.loc 1 96 0
  72              		.cfi_startproc
  73              		@ args = 0, pretend = 0, frame = 0
  74              		@ frame_needed = 0, uses_anonymous_args = 0
  75 0000 10402DE9 		push	{r4, lr}
  76              		.cfi_def_cfa_offset 8
  77              		.cfi_offset 4, -8
  78              		.cfi_offset 14, -4
  79              	.LBB10:
  80              	.LBB11:
 326:D:/Work/DeviceTester/amazon-freertos/lib/third_party/mcu_vendor/renesas/rz_mcu_boards/core_package/generate/drivers/r_cache/src/lld\r_cache_lld_rza2m.c ****     return;
  81              		.loc 1 326 0
  82 0004 FEFFFFEB 		bl	r_cache_l1_d_enable
  83              	.LVL2:
  84              	.LBE11:
  85              	.LBE10:
  86              	.LBB12:
  87              	.LBB13:
 296:D:/Work/DeviceTester/amazon-freertos/lib/third_party/mcu_vendor/renesas/rz_mcu_boards/core_package/generate/drivers/r_cache/src/lld\r_cache_lld_rza2m.c ****     return;
  88              		.loc 1 296 0
  89 0008 FEFFFFEB 		bl	r_cache_l1_i_enable
  90              	.LVL3:
  91              	.LBE13:
  92              	.LBE12:
  93              	.LBB14:
  94              	.LBB15:
 356:D:/Work/DeviceTester/amazon-freertos/lib/third_party/mcu_vendor/renesas/rz_mcu_boards/core_package/generate/drivers/r_cache/src/lld\r_cache_lld_rza2m.c ****     return;
  95              		.loc 1 356 0
  96 000c FEFFFFEB 		bl	r_cache_l1_btac_enable
  97              	.LVL4:
  98              	.LBE15:
  99              	.LBE14:
 100              	.LBB16:
 101              	.LBB17:
 401:D:/Work/DeviceTester/amazon-freertos/lib/third_party/mcu_vendor/renesas/rz_mcu_boards/core_package/generate/drivers/r_cache/src/lld\r_cache_lld_rza2m.c ****     return;
 102              		.loc 1 401 0
 103 0010 FEFFFFEB 		bl	r_cache_l1_prefetch_enable
 104              	.LVL5:
 105              	.LBE17:
 106              	.LBE16:
 109:D:/Work/DeviceTester/amazon-freertos/lib/third_party/mcu_vendor/renesas/rz_mcu_boards/core_package/generate/drivers/r_cache/src/lld\r_cache_lld_rza2m.c **** /*******************************************************************************
 107              		.loc 1 109 0
 108 0014 1040BDE8 		pop	{r4, lr}
 109              		.cfi_restore 14
 110              		.cfi_restore 4
 111              		.cfi_def_cfa_offset 0
 107:D:/Work/DeviceTester/amazon-freertos/lib/third_party/mcu_vendor/renesas/rz_mcu_boards/core_package/generate/drivers/r_cache/src/lld\r_cache_lld_rza2m.c ****     return;
 112              		.loc 1 107 0
 113 0018 FEFFFFEA 		b	r_cache_l1_cache_init
 114              	.LVL6:
 115              		.cfi_endproc
 116              	.LFE0:
 118              		.section	.text.R_CACHE_L1InstInvalidAll,"ax",%progbits
 119              		.align	2
 120              		.global	R_CACHE_L1InstInvalidAll
 121              		.syntax unified
 122              		.arm
 123              		.fpu neon
 125              	R_CACHE_L1InstInvalidAll:
 126              	.LFB1:
 121:D:/Work/DeviceTester/amazon-freertos/lib/third_party/mcu_vendor/renesas/rz_mcu_boards/core_package/generate/drivers/r_cache/src/lld\r_cache_lld_rza2m.c ****     r_cache_l1_i_inv_all();
 127              		.loc 1 121 0
 128              		.cfi_startproc
 129              		@ args = 0, pretend = 0, frame = 0
 130              		@ frame_needed = 0, uses_anonymous_args = 0
 131              		@ link register save eliminated.
 122:D:/Work/DeviceTester/amazon-freertos/lib/third_party/mcu_vendor/renesas/rz_mcu_boards/core_package/generate/drivers/r_cache/src/lld\r_cache_lld_rza2m.c ****     return;
 132              		.loc 1 122 0
 133 0000 FEFFFFEA 		b	r_cache_l1_i_inv_all
 134              	.LVL7:
 135              		.cfi_endproc
 136              	.LFE1:
 138              		.section	.text.R_CACHE_L1DataInvalidAll,"ax",%progbits
 139              		.align	2
 140              		.global	R_CACHE_L1DataInvalidAll
 141              		.syntax unified
 142              		.arm
 143              		.fpu neon
 145              	R_CACHE_L1DataInvalidAll:
 146              	.LFB2:
 136:D:/Work/DeviceTester/amazon-freertos/lib/third_party/mcu_vendor/renesas/rz_mcu_boards/core_package/generate/drivers/r_cache/src/lld\r_cache_lld_rza2m.c ****     r_cache_l1_d_cache_operation(CACHE_PRV_L1_OP_D_INV_ALL);
 147              		.loc 1 136 0
 148              		.cfi_startproc
 149              		@ args = 0, pretend = 0, frame = 0
 150              		@ frame_needed = 0, uses_anonymous_args = 0
 151              		@ link register save eliminated.
 137:D:/Work/DeviceTester/amazon-freertos/lib/third_party/mcu_vendor/renesas/rz_mcu_boards/core_package/generate/drivers/r_cache/src/lld\r_cache_lld_rza2m.c ****     return;
 152              		.loc 1 137 0
 153 0000 0000A0E3 		mov	r0, #0
 154 0004 FEFFFFEA 		b	r_cache_l1_d_cache_operation
 155              	.LVL8:
 156              		.cfi_endproc
 157              	.LFE2:
 159              		.section	.text.R_CACHE_L1DataCleanAll,"ax",%progbits
 160              		.align	2
 161              		.global	R_CACHE_L1DataCleanAll
 162              		.syntax unified
 163              		.arm
 164              		.fpu neon
 166              	R_CACHE_L1DataCleanAll:
 167              	.LFB3:
 151:D:/Work/DeviceTester/amazon-freertos/lib/third_party/mcu_vendor/renesas/rz_mcu_boards/core_package/generate/drivers/r_cache/src/lld\r_cache_lld_rza2m.c ****     r_cache_l1_d_cache_operation(CACHE_PRV_L1_OP_D_CLEAN_ALL);
 168              		.loc 1 151 0
 169              		.cfi_startproc
 170              		@ args = 0, pretend = 0, frame = 0
 171              		@ frame_needed = 0, uses_anonymous_args = 0
 172              		@ link register save eliminated.
 152:D:/Work/DeviceTester/amazon-freertos/lib/third_party/mcu_vendor/renesas/rz_mcu_boards/core_package/generate/drivers/r_cache/src/lld\r_cache_lld_rza2m.c ****     return;
 173              		.loc 1 152 0
 174 0000 0100A0E3 		mov	r0, #1
 175 0004 FEFFFFEA 		b	r_cache_l1_d_cache_operation
 176              	.LVL9:
 177              		.cfi_endproc
 178              	.LFE3:
 180              		.section	.text.R_CACHE_L1DataCleanInvalidAll,"ax",%progbits
 181              		.align	2
 182              		.global	R_CACHE_L1DataCleanInvalidAll
 183              		.syntax unified
 184              		.arm
 185              		.fpu neon
 187              	R_CACHE_L1DataCleanInvalidAll:
 188              	.LFB4:
 166:D:/Work/DeviceTester/amazon-freertos/lib/third_party/mcu_vendor/renesas/rz_mcu_boards/core_package/generate/drivers/r_cache/src/lld\r_cache_lld_rza2m.c ****     r_cache_l1_d_cache_operation(CACHE_PRV_L1_OP_D_CLEAN_INV_ALL);
 189              		.loc 1 166 0
 190              		.cfi_startproc
 191              		@ args = 0, pretend = 0, frame = 0
 192              		@ frame_needed = 0, uses_anonymous_args = 0
 193              		@ link register save eliminated.
 167:D:/Work/DeviceTester/amazon-freertos/lib/third_party/mcu_vendor/renesas/rz_mcu_boards/core_package/generate/drivers/r_cache/src/lld\r_cache_lld_rza2m.c ****     return;
 194              		.loc 1 167 0
 195 0000 0200A0E3 		mov	r0, #2
 196 0004 FEFFFFEA 		b	r_cache_l1_d_cache_operation
 197              	.LVL10:
 198              		.cfi_endproc
 199              	.LFE4:
 201              		.section	.text.R_CACHE_L1DataInvalidLine,"ax",%progbits
 202              		.align	2
 203              		.global	R_CACHE_L1DataInvalidLine
 204              		.syntax unified
 205              		.arm
 206              		.fpu neon
 208              	R_CACHE_L1DataInvalidLine:
 209              	.LFB5:
 186:D:/Work/DeviceTester/amazon-freertos/lib/third_party/mcu_vendor/renesas/rz_mcu_boards/core_package/generate/drivers/r_cache/src/lld\r_cache_lld_rza2m.c ****     e_err_code_t ret   = DRV_SUCCESS;
 210              		.loc 1 186 0
 211              		.cfi_startproc
 212              		@ args = 0, pretend = 0, frame = 0
 213              		@ frame_needed = 0, uses_anonymous_args = 0
 214              	.LVL11:
 215 0000 70402DE9 		push	{r4, r5, r6, lr}
 216              		.cfi_def_cfa_offset 16
 217              		.cfi_offset 4, -16
 218              		.cfi_offset 5, -12
 219              		.cfi_offset 6, -8
 220              		.cfi_offset 14, -4
 193:D:/Work/DeviceTester/amazon-freertos/lib/third_party/mcu_vendor/renesas/rz_mcu_boards/core_package/generate/drivers/r_cache/src/lld\r_cache_lld_rza2m.c **** 
 221              		.loc 1 193 0
 222 0004 004091E0 		adds	r4, r1, r0
 223 0008 0050A0E3 		mov	r5, #0
 195:D:/Work/DeviceTester/amazon-freertos/lib/third_party/mcu_vendor/renesas/rz_mcu_boards/core_package/generate/drivers/r_cache/src/lld\r_cache_lld_rza2m.c ****     {
 224              		.loc 1 195 0
 225 000c 0030A0E3 		mov	r3, #0
 193:D:/Work/DeviceTester/amazon-freertos/lib/third_party/mcu_vendor/renesas/rz_mcu_boards/core_package/generate/drivers/r_cache/src/lld\r_cache_lld_rza2m.c **** 
 226              		.loc 1 193 0
 227 0010 0050A5E2 		adc	r5, r5, #0
 228              	.LVL12:
 195:D:/Work/DeviceTester/amazon-freertos/lib/third_party/mcu_vendor/renesas/rz_mcu_boards/core_package/generate/drivers/r_cache/src/lld\r_cache_lld_rza2m.c ****     {
 229              		.loc 1 195 0
 230 0014 0020E0E3 		mvn	r2, #0
 231 0018 030055E1 		cmp	r5, r3
 232 001c 02005401 		cmpeq	r4, r2
 233 0020 1F60C093 		bicls	r6, r0, #31
 234 0024 0400009A 		bls	.L15
 197:D:/Work/DeviceTester/amazon-freertos/lib/third_party/mcu_vendor/renesas/rz_mcu_boards/core_package/generate/drivers/r_cache/src/lld\r_cache_lld_rza2m.c ****     }
 235              		.loc 1 197 0
 236 0028 0000E0E3 		mvn	r0, #0
 237              	.LVL13:
 207:D:/Work/DeviceTester/amazon-freertos/lib/third_party/mcu_vendor/renesas/rz_mcu_boards/core_package/generate/drivers/r_cache/src/lld\r_cache_lld_rza2m.c **** /*******************************************************************************
 238              		.loc 1 207 0
 239 002c 7080BDE8 		pop	{r4, r5, r6, pc}
 240              	.LVL14:
 241              	.L16:
 203:D:/Work/DeviceTester/amazon-freertos/lib/third_party/mcu_vendor/renesas/rz_mcu_boards/core_package/generate/drivers/r_cache/src/lld\r_cache_lld_rza2m.c ****         }
 242              		.loc 1 203 0 discriminator 2
 243 0030 0600A0E1 		mov	r0, r6
 201:D:/Work/DeviceTester/amazon-freertos/lib/third_party/mcu_vendor/renesas/rz_mcu_boards/core_package/generate/drivers/r_cache/src/lld\r_cache_lld_rza2m.c ****         {
 244              		.loc 1 201 0 discriminator 2
 245 0034 206086E2 		add	r6, r6, #32
 246              	.LVL15:
 203:D:/Work/DeviceTester/amazon-freertos/lib/third_party/mcu_vendor/renesas/rz_mcu_boards/core_package/generate/drivers/r_cache/src/lld\r_cache_lld_rza2m.c ****         }
 247              		.loc 1 203 0 discriminator 2
 248 0038 FEFFFFEB 		bl	r_cache_l1_d_inv_mva
 249              	.LVL16:
 250              	.L15:
 201:D:/Work/DeviceTester/amazon-freertos/lib/third_party/mcu_vendor/renesas/rz_mcu_boards/core_package/generate/drivers/r_cache/src/lld\r_cache_lld_rza2m.c ****         {
 251              		.loc 1 201 0 discriminator 1
 252 003c 0030A0E3 		mov	r3, #0
 253 0040 030055E1 		cmp	r5, r3
 254 0044 06005401 		cmpeq	r4, r6
 255 0048 F8FFFF8A 		bhi	.L16
 187:D:/Work/DeviceTester/amazon-freertos/lib/third_party/mcu_vendor/renesas/rz_mcu_boards/core_package/generate/drivers/r_cache/src/lld\r_cache_lld_rza2m.c **** 
 256              		.loc 1 187 0
 257 004c 0000A0E3 		mov	r0, #0
 258 0050 7080BDE8 		pop	{r4, r5, r6, pc}
 259              		.cfi_endproc
 260              	.LFE5:
 262              		.section	.text.R_CACHE_L1DataCleanLine,"ax",%progbits
 263              		.align	2
 264              		.global	R_CACHE_L1DataCleanLine
 265              		.syntax unified
 266              		.arm
 267              		.fpu neon
 269              	R_CACHE_L1DataCleanLine:
 270              	.LFB6:
 224:D:/Work/DeviceTester/amazon-freertos/lib/third_party/mcu_vendor/renesas/rz_mcu_boards/core_package/generate/drivers/r_cache/src/lld\r_cache_lld_rza2m.c ****     e_err_code_t ret   = DRV_SUCCESS;
 271              		.loc 1 224 0
 272              		.cfi_startproc
 273              		@ args = 0, pretend = 0, frame = 0
 274              		@ frame_needed = 0, uses_anonymous_args = 0
 275              	.LVL17:
 276 0000 70402DE9 		push	{r4, r5, r6, lr}
 277              		.cfi_def_cfa_offset 16
 278              		.cfi_offset 4, -16
 279              		.cfi_offset 5, -12
 280              		.cfi_offset 6, -8
 281              		.cfi_offset 14, -4
 231:D:/Work/DeviceTester/amazon-freertos/lib/third_party/mcu_vendor/renesas/rz_mcu_boards/core_package/generate/drivers/r_cache/src/lld\r_cache_lld_rza2m.c **** 
 282              		.loc 1 231 0
 283 0004 004091E0 		adds	r4, r1, r0
 284 0008 0050A0E3 		mov	r5, #0
 233:D:/Work/DeviceTester/amazon-freertos/lib/third_party/mcu_vendor/renesas/rz_mcu_boards/core_package/generate/drivers/r_cache/src/lld\r_cache_lld_rza2m.c ****     {
 285              		.loc 1 233 0
 286 000c 0030A0E3 		mov	r3, #0
 231:D:/Work/DeviceTester/amazon-freertos/lib/third_party/mcu_vendor/renesas/rz_mcu_boards/core_package/generate/drivers/r_cache/src/lld\r_cache_lld_rza2m.c **** 
 287              		.loc 1 231 0
 288 0010 0050A5E2 		adc	r5, r5, #0
 289              	.LVL18:
 233:D:/Work/DeviceTester/amazon-freertos/lib/third_party/mcu_vendor/renesas/rz_mcu_boards/core_package/generate/drivers/r_cache/src/lld\r_cache_lld_rza2m.c ****     {
 290              		.loc 1 233 0
 291 0014 0020E0E3 		mvn	r2, #0
 292 0018 030055E1 		cmp	r5, r3
 293 001c 02005401 		cmpeq	r4, r2
 294 0020 1F60C093 		bicls	r6, r0, #31
 295 0024 0400009A 		bls	.L22
 235:D:/Work/DeviceTester/amazon-freertos/lib/third_party/mcu_vendor/renesas/rz_mcu_boards/core_package/generate/drivers/r_cache/src/lld\r_cache_lld_rza2m.c ****     }
 296              		.loc 1 235 0
 297 0028 0000E0E3 		mvn	r0, #0
 298              	.LVL19:
 245:D:/Work/DeviceTester/amazon-freertos/lib/third_party/mcu_vendor/renesas/rz_mcu_boards/core_package/generate/drivers/r_cache/src/lld\r_cache_lld_rza2m.c **** /*******************************************************************************
 299              		.loc 1 245 0
 300 002c 7080BDE8 		pop	{r4, r5, r6, pc}
 301              	.LVL20:
 302              	.L23:
 241:D:/Work/DeviceTester/amazon-freertos/lib/third_party/mcu_vendor/renesas/rz_mcu_boards/core_package/generate/drivers/r_cache/src/lld\r_cache_lld_rza2m.c ****         }
 303              		.loc 1 241 0 discriminator 2
 304 0030 0600A0E1 		mov	r0, r6
 239:D:/Work/DeviceTester/amazon-freertos/lib/third_party/mcu_vendor/renesas/rz_mcu_boards/core_package/generate/drivers/r_cache/src/lld\r_cache_lld_rza2m.c ****         {
 305              		.loc 1 239 0 discriminator 2
 306 0034 206086E2 		add	r6, r6, #32
 307              	.LVL21:
 241:D:/Work/DeviceTester/amazon-freertos/lib/third_party/mcu_vendor/renesas/rz_mcu_boards/core_package/generate/drivers/r_cache/src/lld\r_cache_lld_rza2m.c ****         }
 308              		.loc 1 241 0 discriminator 2
 309 0038 FEFFFFEB 		bl	r_cache_l1_d_clean_mva
 310              	.LVL22:
 311              	.L22:
 239:D:/Work/DeviceTester/amazon-freertos/lib/third_party/mcu_vendor/renesas/rz_mcu_boards/core_package/generate/drivers/r_cache/src/lld\r_cache_lld_rza2m.c ****         {
 312              		.loc 1 239 0 discriminator 1
 313 003c 0030A0E3 		mov	r3, #0
 314 0040 030055E1 		cmp	r5, r3
 315 0044 06005401 		cmpeq	r4, r6
 316 0048 F8FFFF8A 		bhi	.L23
 225:D:/Work/DeviceTester/amazon-freertos/lib/third_party/mcu_vendor/renesas/rz_mcu_boards/core_package/generate/drivers/r_cache/src/lld\r_cache_lld_rza2m.c **** 
 317              		.loc 1 225 0
 318 004c 0000A0E3 		mov	r0, #0
 319 0050 7080BDE8 		pop	{r4, r5, r6, pc}
 320              		.cfi_endproc
 321              	.LFE6:
 323              		.section	.text.R_CACHE_L1DataCleanInvalidLine,"ax",%progbits
 324              		.align	2
 325              		.global	R_CACHE_L1DataCleanInvalidLine
 326              		.syntax unified
 327              		.arm
 328              		.fpu neon
 330              	R_CACHE_L1DataCleanInvalidLine:
 331              	.LFB7:
 262:D:/Work/DeviceTester/amazon-freertos/lib/third_party/mcu_vendor/renesas/rz_mcu_boards/core_package/generate/drivers/r_cache/src/lld\r_cache_lld_rza2m.c ****     e_err_code_t ret   = DRV_SUCCESS;
 332              		.loc 1 262 0
 333              		.cfi_startproc
 334              		@ args = 0, pretend = 0, frame = 0
 335              		@ frame_needed = 0, uses_anonymous_args = 0
 336              	.LVL23:
 337 0000 70402DE9 		push	{r4, r5, r6, lr}
 338              		.cfi_def_cfa_offset 16
 339              		.cfi_offset 4, -16
 340              		.cfi_offset 5, -12
 341              		.cfi_offset 6, -8
 342              		.cfi_offset 14, -4
 269:D:/Work/DeviceTester/amazon-freertos/lib/third_party/mcu_vendor/renesas/rz_mcu_boards/core_package/generate/drivers/r_cache/src/lld\r_cache_lld_rza2m.c **** 
 343              		.loc 1 269 0
 344 0004 004091E0 		adds	r4, r1, r0
 345 0008 0050A0E3 		mov	r5, #0
 271:D:/Work/DeviceTester/amazon-freertos/lib/third_party/mcu_vendor/renesas/rz_mcu_boards/core_package/generate/drivers/r_cache/src/lld\r_cache_lld_rza2m.c ****     {
 346              		.loc 1 271 0
 347 000c 0030A0E3 		mov	r3, #0
 269:D:/Work/DeviceTester/amazon-freertos/lib/third_party/mcu_vendor/renesas/rz_mcu_boards/core_package/generate/drivers/r_cache/src/lld\r_cache_lld_rza2m.c **** 
 348              		.loc 1 269 0
 349 0010 0050A5E2 		adc	r5, r5, #0
 350              	.LVL24:
 271:D:/Work/DeviceTester/amazon-freertos/lib/third_party/mcu_vendor/renesas/rz_mcu_boards/core_package/generate/drivers/r_cache/src/lld\r_cache_lld_rza2m.c ****     {
 351              		.loc 1 271 0
 352 0014 0020E0E3 		mvn	r2, #0
 353 0018 030055E1 		cmp	r5, r3
 354 001c 02005401 		cmpeq	r4, r2
 355 0020 1F60C093 		bicls	r6, r0, #31
 356 0024 0400009A 		bls	.L29
 273:D:/Work/DeviceTester/amazon-freertos/lib/third_party/mcu_vendor/renesas/rz_mcu_boards/core_package/generate/drivers/r_cache/src/lld\r_cache_lld_rza2m.c ****     }
 357              		.loc 1 273 0
 358 0028 0000E0E3 		mvn	r0, #0
 359              	.LVL25:
 283:D:/Work/DeviceTester/amazon-freertos/lib/third_party/mcu_vendor/renesas/rz_mcu_boards/core_package/generate/drivers/r_cache/src/lld\r_cache_lld_rza2m.c **** /*******************************************************************************
 360              		.loc 1 283 0
 361 002c 7080BDE8 		pop	{r4, r5, r6, pc}
 362              	.LVL26:
 363              	.L30:
 279:D:/Work/DeviceTester/amazon-freertos/lib/third_party/mcu_vendor/renesas/rz_mcu_boards/core_package/generate/drivers/r_cache/src/lld\r_cache_lld_rza2m.c ****         }
 364              		.loc 1 279 0 discriminator 2
 365 0030 0600A0E1 		mov	r0, r6
 277:D:/Work/DeviceTester/amazon-freertos/lib/third_party/mcu_vendor/renesas/rz_mcu_boards/core_package/generate/drivers/r_cache/src/lld\r_cache_lld_rza2m.c ****         {
 366              		.loc 1 277 0 discriminator 2
 367 0034 206086E2 		add	r6, r6, #32
 368              	.LVL27:
 279:D:/Work/DeviceTester/amazon-freertos/lib/third_party/mcu_vendor/renesas/rz_mcu_boards/core_package/generate/drivers/r_cache/src/lld\r_cache_lld_rza2m.c ****         }
 369              		.loc 1 279 0 discriminator 2
 370 0038 FEFFFFEB 		bl	r_cache_l1_d_clean_inv_mva
 371              	.LVL28:
 372              	.L29:
 277:D:/Work/DeviceTester/amazon-freertos/lib/third_party/mcu_vendor/renesas/rz_mcu_boards/core_package/generate/drivers/r_cache/src/lld\r_cache_lld_rza2m.c ****         {
 373              		.loc 1 277 0 discriminator 1
 374 003c 0030A0E3 		mov	r3, #0
 375 0040 030055E1 		cmp	r5, r3
 376 0044 06005401 		cmpeq	r4, r6
 377 0048 F8FFFF8A 		bhi	.L30
 263:D:/Work/DeviceTester/amazon-freertos/lib/third_party/mcu_vendor/renesas/rz_mcu_boards/core_package/generate/drivers/r_cache/src/lld\r_cache_lld_rza2m.c **** 
 378              		.loc 1 263 0
 379 004c 0000A0E3 		mov	r0, #0
 380 0050 7080BDE8 		pop	{r4, r5, r6, pc}
 381              		.cfi_endproc
 382              	.LFE7:
 384              		.section	.text.R_CACHE_L1InstEnable,"ax",%progbits
 385              		.align	2
 386              		.global	R_CACHE_L1InstEnable
 387              		.syntax unified
 388              		.arm
 389              		.fpu neon
 391              	R_CACHE_L1InstEnable:
 392              	.LFB8:
 295:D:/Work/DeviceTester/amazon-freertos/lib/third_party/mcu_vendor/renesas/rz_mcu_boards/core_package/generate/drivers/r_cache/src/lld\r_cache_lld_rza2m.c ****     r_cache_l1_i_enable();
 393              		.loc 1 295 0
 394              		.cfi_startproc
 395              		@ args = 0, pretend = 0, frame = 0
 396              		@ frame_needed = 0, uses_anonymous_args = 0
 397              		@ link register save eliminated.
 296:D:/Work/DeviceTester/amazon-freertos/lib/third_party/mcu_vendor/renesas/rz_mcu_boards/core_package/generate/drivers/r_cache/src/lld\r_cache_lld_rza2m.c ****     return;
 398              		.loc 1 296 0
 399 0000 FEFFFFEA 		b	r_cache_l1_i_enable
 400              	.LVL29:
 401              		.cfi_endproc
 402              	.LFE8:
 404              		.section	.text.R_CACHE_L1InstDisable,"ax",%progbits
 405              		.align	2
 406              		.global	R_CACHE_L1InstDisable
 407              		.syntax unified
 408              		.arm
 409              		.fpu neon
 411              	R_CACHE_L1InstDisable:
 412              	.LFB9:
 310:D:/Work/DeviceTester/amazon-freertos/lib/third_party/mcu_vendor/renesas/rz_mcu_boards/core_package/generate/drivers/r_cache/src/lld\r_cache_lld_rza2m.c ****     r_cache_l1_i_disable();
 413              		.loc 1 310 0
 414              		.cfi_startproc
 415              		@ args = 0, pretend = 0, frame = 0
 416              		@ frame_needed = 0, uses_anonymous_args = 0
 417              		@ link register save eliminated.
 311:D:/Work/DeviceTester/amazon-freertos/lib/third_party/mcu_vendor/renesas/rz_mcu_boards/core_package/generate/drivers/r_cache/src/lld\r_cache_lld_rza2m.c ****     return;
 418              		.loc 1 311 0
 419 0000 FEFFFFEA 		b	r_cache_l1_i_disable
 420              	.LVL30:
 421              		.cfi_endproc
 422              	.LFE9:
 424              		.section	.text.R_CACHE_L1DataEnable,"ax",%progbits
 425              		.align	2
 426              		.global	R_CACHE_L1DataEnable
 427              		.syntax unified
 428              		.arm
 429              		.fpu neon
 431              	R_CACHE_L1DataEnable:
 432              	.LFB10:
 325:D:/Work/DeviceTester/amazon-freertos/lib/third_party/mcu_vendor/renesas/rz_mcu_boards/core_package/generate/drivers/r_cache/src/lld\r_cache_lld_rza2m.c ****     r_cache_l1_d_enable();
 433              		.loc 1 325 0
 434              		.cfi_startproc
 435              		@ args = 0, pretend = 0, frame = 0
 436              		@ frame_needed = 0, uses_anonymous_args = 0
 437              		@ link register save eliminated.
 326:D:/Work/DeviceTester/amazon-freertos/lib/third_party/mcu_vendor/renesas/rz_mcu_boards/core_package/generate/drivers/r_cache/src/lld\r_cache_lld_rza2m.c ****     return;
 438              		.loc 1 326 0
 439 0000 FEFFFFEA 		b	r_cache_l1_d_enable
 440              	.LVL31:
 441              		.cfi_endproc
 442              	.LFE10:
 444              		.section	.text.R_CACHE_L1DataDisable,"ax",%progbits
 445              		.align	2
 446              		.global	R_CACHE_L1DataDisable
 447              		.syntax unified
 448              		.arm
 449              		.fpu neon
 451              	R_CACHE_L1DataDisable:
 452              	.LFB11:
 340:D:/Work/DeviceTester/amazon-freertos/lib/third_party/mcu_vendor/renesas/rz_mcu_boards/core_package/generate/drivers/r_cache/src/lld\r_cache_lld_rza2m.c ****     r_cache_l1_d_disable();
 453              		.loc 1 340 0
 454              		.cfi_startproc
 455              		@ args = 0, pretend = 0, frame = 0
 456              		@ frame_needed = 0, uses_anonymous_args = 0
 457              		@ link register save eliminated.
 341:D:/Work/DeviceTester/amazon-freertos/lib/third_party/mcu_vendor/renesas/rz_mcu_boards/core_package/generate/drivers/r_cache/src/lld\r_cache_lld_rza2m.c ****     return;
 458              		.loc 1 341 0
 459 0000 FEFFFFEA 		b	r_cache_l1_d_disable
 460              	.LVL32:
 461              		.cfi_endproc
 462              	.LFE11:
 464              		.section	.text.R_CACHE_L1BtacEnable,"ax",%progbits
 465              		.align	2
 466              		.global	R_CACHE_L1BtacEnable
 467              		.syntax unified
 468              		.arm
 469              		.fpu neon
 471              	R_CACHE_L1BtacEnable:
 472              	.LFB12:
 355:D:/Work/DeviceTester/amazon-freertos/lib/third_party/mcu_vendor/renesas/rz_mcu_boards/core_package/generate/drivers/r_cache/src/lld\r_cache_lld_rza2m.c ****     r_cache_l1_btac_enable();
 473              		.loc 1 355 0
 474              		.cfi_startproc
 475              		@ args = 0, pretend = 0, frame = 0
 476              		@ frame_needed = 0, uses_anonymous_args = 0
 477              		@ link register save eliminated.
 356:D:/Work/DeviceTester/amazon-freertos/lib/third_party/mcu_vendor/renesas/rz_mcu_boards/core_package/generate/drivers/r_cache/src/lld\r_cache_lld_rza2m.c ****     return;
 478              		.loc 1 356 0
 479 0000 FEFFFFEA 		b	r_cache_l1_btac_enable
 480              	.LVL33:
 481              		.cfi_endproc
 482              	.LFE12:
 484              		.section	.text.R_CACHE_L1BtacDisable,"ax",%progbits
 485              		.align	2
 486              		.global	R_CACHE_L1BtacDisable
 487              		.syntax unified
 488              		.arm
 489              		.fpu neon
 491              	R_CACHE_L1BtacDisable:
 492              	.LFB13:
 370:D:/Work/DeviceTester/amazon-freertos/lib/third_party/mcu_vendor/renesas/rz_mcu_boards/core_package/generate/drivers/r_cache/src/lld\r_cache_lld_rza2m.c ****     r_cache_l1_btac_disable();
 493              		.loc 1 370 0
 494              		.cfi_startproc
 495              		@ args = 0, pretend = 0, frame = 0
 496              		@ frame_needed = 0, uses_anonymous_args = 0
 497              		@ link register save eliminated.
 371:D:/Work/DeviceTester/amazon-freertos/lib/third_party/mcu_vendor/renesas/rz_mcu_boards/core_package/generate/drivers/r_cache/src/lld\r_cache_lld_rza2m.c ****     return;
 498              		.loc 1 371 0
 499 0000 FEFFFFEA 		b	r_cache_l1_btac_disable
 500              	.LVL34:
 501              		.cfi_endproc
 502              	.LFE13:
 504              		.section	.text.R_CACHE_L1BtacInvalidate,"ax",%progbits
 505              		.align	2
 506              		.global	R_CACHE_L1BtacInvalidate
 507              		.syntax unified
 508              		.arm
 509              		.fpu neon
 511              	R_CACHE_L1BtacInvalidate:
 512              	.LFB14:
 385:D:/Work/DeviceTester/amazon-freertos/lib/third_party/mcu_vendor/renesas/rz_mcu_boards/core_package/generate/drivers/r_cache/src/lld\r_cache_lld_rza2m.c ****     r_cache_l1_btac_inv();
 513              		.loc 1 385 0
 514              		.cfi_startproc
 515              		@ args = 0, pretend = 0, frame = 0
 516              		@ frame_needed = 0, uses_anonymous_args = 0
 517              		@ link register save eliminated.
 386:D:/Work/DeviceTester/amazon-freertos/lib/third_party/mcu_vendor/renesas/rz_mcu_boards/core_package/generate/drivers/r_cache/src/lld\r_cache_lld_rza2m.c ****     return;
 518              		.loc 1 386 0
 519 0000 FEFFFFEA 		b	r_cache_l1_btac_inv
 520              	.LVL35:
 521              		.cfi_endproc
 522              	.LFE14:
 524              		.section	.text.R_CACHE_L1PrefetchEnable,"ax",%progbits
 525              		.align	2
 526              		.global	R_CACHE_L1PrefetchEnable
 527              		.syntax unified
 528              		.arm
 529              		.fpu neon
 531              	R_CACHE_L1PrefetchEnable:
 532              	.LFB15:
 400:D:/Work/DeviceTester/amazon-freertos/lib/third_party/mcu_vendor/renesas/rz_mcu_boards/core_package/generate/drivers/r_cache/src/lld\r_cache_lld_rza2m.c ****     r_cache_l1_prefetch_enable();
 533              		.loc 1 400 0
 534              		.cfi_startproc
 535              		@ args = 0, pretend = 0, frame = 0
 536              		@ frame_needed = 0, uses_anonymous_args = 0
 537              		@ link register save eliminated.
 401:D:/Work/DeviceTester/amazon-freertos/lib/third_party/mcu_vendor/renesas/rz_mcu_boards/core_package/generate/drivers/r_cache/src/lld\r_cache_lld_rza2m.c ****     return;
 538              		.loc 1 401 0
 539 0000 FEFFFFEA 		b	r_cache_l1_prefetch_enable
 540              	.LVL36:
 541              		.cfi_endproc
 542              	.LFE15:
 544              		.section	.text.R_CACHE_L1PrefetchDisable,"ax",%progbits
 545              		.align	2
 546              		.global	R_CACHE_L1PrefetchDisable
 547              		.syntax unified
 548              		.arm
 549              		.fpu neon
 551              	R_CACHE_L1PrefetchDisable:
 552              	.LFB16:
 415:D:/Work/DeviceTester/amazon-freertos/lib/third_party/mcu_vendor/renesas/rz_mcu_boards/core_package/generate/drivers/r_cache/src/lld\r_cache_lld_rza2m.c ****     r_cache_l1_prefetch_disable();
 553              		.loc 1 415 0
 554              		.cfi_startproc
 555              		@ args = 0, pretend = 0, frame = 0
 556              		@ frame_needed = 0, uses_anonymous_args = 0
 557              		@ link register save eliminated.
 416:D:/Work/DeviceTester/amazon-freertos/lib/third_party/mcu_vendor/renesas/rz_mcu_boards/core_package/generate/drivers/r_cache/src/lld\r_cache_lld_rza2m.c ****     return;
 558              		.loc 1 416 0
 559 0000 FEFFFFEA 		b	r_cache_l1_prefetch_disable
 560              	.LVL37:
 561              		.cfi_endproc
 562              	.LFE16:
 564              		.section	.text.R_CACHE_L2CacheEnable,"ax",%progbits
 565              		.align	2
 566              		.global	R_CACHE_L2CacheEnable
 567              		.syntax unified
 568              		.arm
 569              		.fpu neon
 571              	R_CACHE_L2CacheEnable:
 572              	.LFB18:
 473:D:/Work/DeviceTester/amazon-freertos/lib/third_party/mcu_vendor/renesas/rz_mcu_boards/core_package/generate/drivers/r_cache/src/lld\r_cache_lld_rza2m.c ****     /* Casting the pointer to a uint32_t type is valid because "unsigned long" is same 4byte unsign
 573              		.loc 1 473 0
 574              		.cfi_startproc
 575              		@ args = 0, pretend = 0, frame = 0
 576              		@ frame_needed = 0, uses_anonymous_args = 0
 577 0000 10402DE9 		push	{r4, lr}
 578              		.cfi_def_cfa_offset 8
 579              		.cfi_offset 4, -8
 580              		.cfi_offset 14, -4
 475:D:/Work/DeviceTester/amazon-freertos/lib/third_party/mcu_vendor/renesas/rz_mcu_boards/core_package/generate/drivers/r_cache/src/lld\r_cache_lld_rza2m.c ****     cache_l2_sync();
 581              		.loc 1 475 0
 582 0004 0030E0E3 		mvn	r3, #0
 583 0008 0020A0E3 		mov	r2, #0
 584 000c 0110A0E3 		mov	r1, #1
 585 0010 08009FE5 		ldr	r0, .L45
 586 0014 FEFFFFEB 		bl	RZA_IO_RegWrite_32
 587              	.LVL38:
 478:D:/Work/DeviceTester/amazon-freertos/lib/third_party/mcu_vendor/renesas/rz_mcu_boards/core_package/generate/drivers/r_cache/src/lld\r_cache_lld_rza2m.c **** /*******************************************************************************
 588              		.loc 1 478 0
 589 0018 1040BDE8 		pop	{r4, lr}
 590              		.cfi_restore 14
 591              		.cfi_restore 4
 592              		.cfi_def_cfa_offset 0
 476:D:/Work/DeviceTester/amazon-freertos/lib/third_party/mcu_vendor/renesas/rz_mcu_boards/core_package/generate/drivers/r_cache/src/lld\r_cache_lld_rza2m.c ****     return;
 593              		.loc 1 476 0
 594 001c FEFFFFEA 		b	cache_l2_sync
 595              	.LVL39:
 596              	.L46:
 597              		.align	2
 598              	.L45:
 599 0020 0031001F 		.word	520106240
 600              		.cfi_endproc
 601              	.LFE18:
 603              		.section	.text.R_CACHE_L2CacheDisable,"ax",%progbits
 604              		.align	2
 605              		.global	R_CACHE_L2CacheDisable
 606              		.syntax unified
 607              		.arm
 608              		.fpu neon
 610              	R_CACHE_L2CacheDisable:
 611              	.LFB19:
 490:D:/Work/DeviceTester/amazon-freertos/lib/third_party/mcu_vendor/renesas/rz_mcu_boards/core_package/generate/drivers/r_cache/src/lld\r_cache_lld_rza2m.c ****     /* Casting the pointer to a uint32_t type is valid because "unsigned long" is same 4byte unsign
 612              		.loc 1 490 0
 613              		.cfi_startproc
 614              		@ args = 0, pretend = 0, frame = 0
 615              		@ frame_needed = 0, uses_anonymous_args = 0
 492:D:/Work/DeviceTester/amazon-freertos/lib/third_party/mcu_vendor/renesas/rz_mcu_boards/core_package/generate/drivers/r_cache/src/lld\r_cache_lld_rza2m.c ****     cache_l2_sync();
 616              		.loc 1 492 0
 617 0000 0020A0E3 		mov	r2, #0
 490:D:/Work/DeviceTester/amazon-freertos/lib/third_party/mcu_vendor/renesas/rz_mcu_boards/core_package/generate/drivers/r_cache/src/lld\r_cache_lld_rza2m.c ****     /* Casting the pointer to a uint32_t type is valid because "unsigned long" is same 4byte unsign
 618              		.loc 1 490 0
 619 0004 10402DE9 		push	{r4, lr}
 620              		.cfi_def_cfa_offset 8
 621              		.cfi_offset 4, -8
 622              		.cfi_offset 14, -4
 492:D:/Work/DeviceTester/amazon-freertos/lib/third_party/mcu_vendor/renesas/rz_mcu_boards/core_package/generate/drivers/r_cache/src/lld\r_cache_lld_rza2m.c ****     cache_l2_sync();
 623              		.loc 1 492 0
 624 0008 0030E0E3 		mvn	r3, #0
 625 000c 0210A0E1 		mov	r1, r2
 626 0010 08009FE5 		ldr	r0, .L49
 627 0014 FEFFFFEB 		bl	RZA_IO_RegWrite_32
 628              	.LVL40:
 495:D:/Work/DeviceTester/amazon-freertos/lib/third_party/mcu_vendor/renesas/rz_mcu_boards/core_package/generate/drivers/r_cache/src/lld\r_cache_lld_rza2m.c **** /*******************************************************************************
 629              		.loc 1 495 0
 630 0018 1040BDE8 		pop	{r4, lr}
 631              		.cfi_restore 14
 632              		.cfi_restore 4
 633              		.cfi_def_cfa_offset 0
 493:D:/Work/DeviceTester/amazon-freertos/lib/third_party/mcu_vendor/renesas/rz_mcu_boards/core_package/generate/drivers/r_cache/src/lld\r_cache_lld_rza2m.c ****     return;
 634              		.loc 1 493 0
 635 001c FEFFFFEA 		b	cache_l2_sync
 636              	.LVL41:
 637              	.L50:
 638              		.align	2
 639              	.L49:
 640 0020 0031001F 		.word	520106240
 641              		.cfi_endproc
 642              	.LFE19:
 644              		.section	.text.R_CACHE_L2PrefetchDisable,"ax",%progbits
 645              		.align	2
 646              		.global	R_CACHE_L2PrefetchDisable
 647              		.syntax unified
 648              		.arm
 649              		.fpu neon
 651              	R_CACHE_L2PrefetchDisable:
 652              	.LFB21:
 547:D:/Work/DeviceTester/amazon-freertos/lib/third_party/mcu_vendor/renesas/rz_mcu_boards/core_package/generate/drivers/r_cache/src/lld\r_cache_lld_rza2m.c ****     uint32_t reg32;
 653              		.loc 1 547 0
 654              		.cfi_startproc
 655              		@ args = 0, pretend = 0, frame = 0
 656              		@ frame_needed = 0, uses_anonymous_args = 0
 657 0000 10402DE9 		push	{r4, lr}
 658              		.cfi_def_cfa_offset 8
 659              		.cfi_offset 4, -8
 660              		.cfi_offset 14, -4
 551:D:/Work/DeviceTester/amazon-freertos/lib/third_party/mcu_vendor/renesas/rz_mcu_boards/core_package/generate/drivers/r_cache/src/lld\r_cache_lld_rza2m.c **** 
 661              		.loc 1 551 0
 662 0004 0020E0E3 		mvn	r2, #0
 663 0008 24409FE5 		ldr	r4, .L53
 664 000c 0010A0E3 		mov	r1, #0
 665 0010 0400A0E1 		mov	r0, r4
 666 0014 FEFFFFEB 		bl	RZA_IO_RegRead_32
 667              	.LVL42:
 558:D:/Work/DeviceTester/amazon-freertos/lib/third_party/mcu_vendor/renesas/rz_mcu_boards/core_package/generate/drivers/r_cache/src/lld\r_cache_lld_rza2m.c ****     cache_l2_sync();
 668              		.loc 1 558 0
 669 0018 0030E0E3 		mvn	r3, #0
 670 001c 0712C0E3 		bic	r1, r0, #1879048192
 671              	.LVL43:
 672 0020 0020A0E3 		mov	r2, #0
 673 0024 0400A0E1 		mov	r0, r4
 674 0028 FEFFFFEB 		bl	RZA_IO_RegWrite_32
 675              	.LVL44:
 561:D:/Work/DeviceTester/amazon-freertos/lib/third_party/mcu_vendor/renesas/rz_mcu_boards/core_package/generate/drivers/r_cache/src/lld\r_cache_lld_rza2m.c **** /*******************************************************************************
 676              		.loc 1 561 0
 677 002c 1040BDE8 		pop	{r4, lr}
 678              		.cfi_restore 14
 679              		.cfi_restore 4
 680              		.cfi_def_cfa_offset 0
 559:D:/Work/DeviceTester/amazon-freertos/lib/third_party/mcu_vendor/renesas/rz_mcu_boards/core_package/generate/drivers/r_cache/src/lld\r_cache_lld_rza2m.c ****     return;
 681              		.loc 1 559 0
 682 0030 FEFFFFEA 		b	cache_l2_sync
 683              	.LVL45:
 684              	.L54:
 685              		.align	2
 686              	.L53:
 687 0034 603F001F 		.word	520109920
 688              		.cfi_endproc
 689              	.LFE21:
 691              		.section	.text.R_CACHE_L2PrefetchEnable,"ax",%progbits
 692              		.align	2
 693              		.global	R_CACHE_L2PrefetchEnable
 694              		.syntax unified
 695              		.arm
 696              		.fpu neon
 698              	R_CACHE_L2PrefetchEnable:
 699              	.LFB28:
 700              		.cfi_startproc
 701              		@ args = 0, pretend = 0, frame = 0
 702              		@ frame_needed = 0, uses_anonymous_args = 0
 703              		@ link register save eliminated.
 704 0000 FEFFFFEA 		b	R_CACHE_L2PrefetchDisable
 705              		.cfi_endproc
 706              	.LFE28:
 708              		.section	.text.R_CACHE_L2InvalidAll,"ax",%progbits
 709              		.align	2
 710              		.global	R_CACHE_L2InvalidAll
 711              		.syntax unified
 712              		.arm
 713              		.fpu neon
 715              	R_CACHE_L2InvalidAll:
 716              	.LFB22:
 573:D:/Work/DeviceTester/amazon-freertos/lib/third_party/mcu_vendor/renesas/rz_mcu_boards/core_package/generate/drivers/r_cache/src/lld\r_cache_lld_rza2m.c ****     uint32_t reg32;
 717              		.loc 1 573 0
 718              		.cfi_startproc
 719              		@ args = 0, pretend = 0, frame = 0
 720              		@ frame_needed = 0, uses_anonymous_args = 0
 573:D:/Work/DeviceTester/amazon-freertos/lib/third_party/mcu_vendor/renesas/rz_mcu_boards/core_package/generate/drivers/r_cache/src/lld\r_cache_lld_rza2m.c ****     uint32_t reg32;
 721              		.loc 1 573 0
 722 0000 10402DE9 		push	{r4, lr}
 723              		.cfi_def_cfa_offset 8
 724              		.cfi_offset 4, -8
 725              		.cfi_offset 14, -4
 577:D:/Work/DeviceTester/amazon-freertos/lib/third_party/mcu_vendor/renesas/rz_mcu_boards/core_package/generate/drivers/r_cache/src/lld\r_cache_lld_rza2m.c ****                        CACHE_PRV_PL310_ALLWAYBITS_8,
 726              		.loc 1 577 0
 727 0004 FF30A0E3 		mov	r3, #255
 586:D:/Work/DeviceTester/amazon-freertos/lib/third_party/mcu_vendor/renesas/rz_mcu_boards/core_package/generate/drivers/r_cache/src/lld\r_cache_lld_rza2m.c ****                                   PL310_REG7_INV_WAY_Way_bits_SHIFT,
 728              		.loc 1 586 0
 729 0008 2C409FE5 		ldr	r4, .L60
 577:D:/Work/DeviceTester/amazon-freertos/lib/third_party/mcu_vendor/renesas/rz_mcu_boards/core_package/generate/drivers/r_cache/src/lld\r_cache_lld_rza2m.c ****                        CACHE_PRV_PL310_ALLWAYBITS_8,
 730              		.loc 1 577 0
 731 000c 0020A0E3 		mov	r2, #0
 732 0010 0310A0E1 		mov	r1, r3
 733 0014 20009FE5 		ldr	r0, .L60
 734 0018 FEFFFFEB 		bl	RZA_IO_RegWrite_32
 735              	.LVL46:
 736              	.L57:
 586:D:/Work/DeviceTester/amazon-freertos/lib/third_party/mcu_vendor/renesas/rz_mcu_boards/core_package/generate/drivers/r_cache/src/lld\r_cache_lld_rza2m.c ****                                   PL310_REG7_INV_WAY_Way_bits_SHIFT,
 737              		.loc 1 586 0 discriminator 1
 738 001c FF20A0E3 		mov	r2, #255
 739 0020 0010A0E3 		mov	r1, #0
 740 0024 0400A0E1 		mov	r0, r4
 741 0028 FEFFFFEB 		bl	RZA_IO_RegRead_32
 742              	.LVL47:
 589:D:/Work/DeviceTester/amazon-freertos/lib/third_party/mcu_vendor/renesas/rz_mcu_boards/core_package/generate/drivers/r_cache/src/lld\r_cache_lld_rza2m.c ****     cache_l2_sync();
 743              		.loc 1 589 0 discriminator 1
 744 002c 000050E3 		cmp	r0, #0
 745 0030 F9FFFF1A 		bne	.L57
 593:D:/Work/DeviceTester/amazon-freertos/lib/third_party/mcu_vendor/renesas/rz_mcu_boards/core_package/generate/drivers/r_cache/src/lld\r_cache_lld_rza2m.c **** /*******************************************************************************
 746              		.loc 1 593 0
 747 0034 1040BDE8 		pop	{r4, lr}
 748              		.cfi_restore 14
 749              		.cfi_restore 4
 750              		.cfi_def_cfa_offset 0
 590:D:/Work/DeviceTester/amazon-freertos/lib/third_party/mcu_vendor/renesas/rz_mcu_boards/core_package/generate/drivers/r_cache/src/lld\r_cache_lld_rza2m.c **** 
 751              		.loc 1 590 0
 752 0038 FEFFFFEA 		b	cache_l2_sync
 753              	.LVL48:
 754              	.L61:
 755              		.align	2
 756              	.L60:
 757 003c 7C37001F 		.word	520107900
 758              		.cfi_endproc
 759              	.LFE22:
 761              		.section	.text.R_CACHE_L2Init,"ax",%progbits
 762              		.align	2
 763              		.global	R_CACHE_L2Init
 764              		.syntax unified
 765              		.arm
 766              		.fpu neon
 768              	R_CACHE_L2Init:
 769              	.LFB17:
 430:D:/Work/DeviceTester/amazon-freertos/lib/third_party/mcu_vendor/renesas/rz_mcu_boards/core_package/generate/drivers/r_cache/src/lld\r_cache_lld_rza2m.c ****     /* You must disable the L2 cache by writing to the Control Register 1 before
 770              		.loc 1 430 0
 771              		.cfi_startproc
 772              		@ args = 0, pretend = 0, frame = 0
 773              		@ frame_needed = 0, uses_anonymous_args = 0
 774 0000 10402DE9 		push	{r4, lr}
 775              		.cfi_def_cfa_offset 8
 776              		.cfi_offset 4, -8
 777              		.cfi_offset 14, -4
 435:D:/Work/DeviceTester/amazon-freertos/lib/third_party/mcu_vendor/renesas/rz_mcu_boards/core_package/generate/drivers/r_cache/src/lld\r_cache_lld_rza2m.c **** 
 778              		.loc 1 435 0
 779 0004 FEFFFFEB 		bl	R_CACHE_L2CacheDisable
 780              	.LVL49:
 441:D:/Work/DeviceTester/amazon-freertos/lib/third_party/mcu_vendor/renesas/rz_mcu_boards/core_package/generate/drivers/r_cache/src/lld\r_cache_lld_rza2m.c **** 
 781              		.loc 1 441 0
 782 0008 FEFFFFEB 		bl	R_CACHE_L2PrefetchDisable
 783              	.LVL50:
 446:D:/Work/DeviceTester/amazon-freertos/lib/third_party/mcu_vendor/renesas/rz_mcu_boards/core_package/generate/drivers/r_cache/src/lld\r_cache_lld_rza2m.c **** 
 784              		.loc 1 446 0
 785 000c FEFFFFEB 		bl	R_CACHE_L2InvalidAll
 786              	.LVL51:
 452:D:/Work/DeviceTester/amazon-freertos/lib/third_party/mcu_vendor/renesas/rz_mcu_boards/core_package/generate/drivers/r_cache/src/lld\r_cache_lld_rza2m.c **** 
 787              		.loc 1 452 0
 788 0010 0030E0E3 		mvn	r3, #0
 789 0014 0020A0E3 		mov	r2, #0
 790 0018 FF1100E3 		movw	r1, #511
 791 001c 08009FE5 		ldr	r0, .L64
 792 0020 FEFFFFEB 		bl	RZA_IO_RegWrite_32
 793              	.LVL52:
 461:D:/Work/DeviceTester/amazon-freertos/lib/third_party/mcu_vendor/renesas/rz_mcu_boards/core_package/generate/drivers/r_cache/src/lld\r_cache_lld_rza2m.c **** /*******************************************************************************
 794              		.loc 1 461 0
 795 0024 1040BDE8 		pop	{r4, lr}
 796              		.cfi_restore 14
 797              		.cfi_restore 4
 798              		.cfi_def_cfa_offset 0
 459:D:/Work/DeviceTester/amazon-freertos/lib/third_party/mcu_vendor/renesas/rz_mcu_boards/core_package/generate/drivers/r_cache/src/lld\r_cache_lld_rza2m.c ****     return;
 799              		.loc 1 459 0
 800 0028 FEFFFFEA 		b	R_CACHE_L2CacheEnable
 801              	.LVL53:
 802              	.L65:
 803              		.align	2
 804              	.L64:
 805 002c 2032001F 		.word	520106528
 806              		.cfi_endproc
 807              	.LFE17:
 809              		.section	.text.R_CACHE_L2CleanAll,"ax",%progbits
 810              		.align	2
 811              		.global	R_CACHE_L2CleanAll
 812              		.syntax unified
 813              		.arm
 814              		.fpu neon
 816              	R_CACHE_L2CleanAll:
 817              	.LFB23:
 605:D:/Work/DeviceTester/amazon-freertos/lib/third_party/mcu_vendor/renesas/rz_mcu_boards/core_package/generate/drivers/r_cache/src/lld\r_cache_lld_rza2m.c ****     uint32_t reg32;
 818              		.loc 1 605 0
 819              		.cfi_startproc
 820              		@ args = 0, pretend = 0, frame = 0
 821              		@ frame_needed = 0, uses_anonymous_args = 0
 822 0000 10402DE9 		push	{r4, lr}
 823              		.cfi_def_cfa_offset 8
 824              		.cfi_offset 4, -8
 825              		.cfi_offset 14, -4
 609:D:/Work/DeviceTester/amazon-freertos/lib/third_party/mcu_vendor/renesas/rz_mcu_boards/core_package/generate/drivers/r_cache/src/lld\r_cache_lld_rza2m.c ****                        CACHE_PRV_PL310_ALLWAYBITS_8,
 826              		.loc 1 609 0
 827 0004 FF30A0E3 		mov	r3, #255
 618:D:/Work/DeviceTester/amazon-freertos/lib/third_party/mcu_vendor/renesas/rz_mcu_boards/core_package/generate/drivers/r_cache/src/lld\r_cache_lld_rza2m.c ****                                   PL310_REG7_CLEAN_WAY_Way_bits_SHIFT,
 828              		.loc 1 618 0
 829 0008 2C409FE5 		ldr	r4, .L70
 609:D:/Work/DeviceTester/amazon-freertos/lib/third_party/mcu_vendor/renesas/rz_mcu_boards/core_package/generate/drivers/r_cache/src/lld\r_cache_lld_rza2m.c ****                        CACHE_PRV_PL310_ALLWAYBITS_8,
 830              		.loc 1 609 0
 831 000c 0020A0E3 		mov	r2, #0
 832 0010 0310A0E1 		mov	r1, r3
 833 0014 20009FE5 		ldr	r0, .L70
 834 0018 FEFFFFEB 		bl	RZA_IO_RegWrite_32
 835              	.LVL54:
 836              	.L67:
 618:D:/Work/DeviceTester/amazon-freertos/lib/third_party/mcu_vendor/renesas/rz_mcu_boards/core_package/generate/drivers/r_cache/src/lld\r_cache_lld_rza2m.c ****                                   PL310_REG7_CLEAN_WAY_Way_bits_SHIFT,
 837              		.loc 1 618 0 discriminator 1
 838 001c FF20A0E3 		mov	r2, #255
 839 0020 0010A0E3 		mov	r1, #0
 840 0024 0400A0E1 		mov	r0, r4
 841 0028 FEFFFFEB 		bl	RZA_IO_RegRead_32
 842              	.LVL55:
 621:D:/Work/DeviceTester/amazon-freertos/lib/third_party/mcu_vendor/renesas/rz_mcu_boards/core_package/generate/drivers/r_cache/src/lld\r_cache_lld_rza2m.c ****     cache_l2_sync();
 843              		.loc 1 621 0 discriminator 1
 844 002c 000050E3 		cmp	r0, #0
 845 0030 F9FFFF1A 		bne	.L67
 625:D:/Work/DeviceTester/amazon-freertos/lib/third_party/mcu_vendor/renesas/rz_mcu_boards/core_package/generate/drivers/r_cache/src/lld\r_cache_lld_rza2m.c **** /*******************************************************************************
 846              		.loc 1 625 0
 847 0034 1040BDE8 		pop	{r4, lr}
 848              		.cfi_restore 14
 849              		.cfi_restore 4
 850              		.cfi_def_cfa_offset 0
 622:D:/Work/DeviceTester/amazon-freertos/lib/third_party/mcu_vendor/renesas/rz_mcu_boards/core_package/generate/drivers/r_cache/src/lld\r_cache_lld_rza2m.c **** 
 851              		.loc 1 622 0
 852 0038 FEFFFFEA 		b	cache_l2_sync
 853              	.LVL56:
 854              	.L71:
 855              		.align	2
 856              	.L70:
 857 003c BC37001F 		.word	520107964
 858              		.cfi_endproc
 859              	.LFE23:
 861              		.section	.text.R_CACHE_L2CleanInvalidAll,"ax",%progbits
 862              		.align	2
 863              		.global	R_CACHE_L2CleanInvalidAll
 864              		.syntax unified
 865              		.arm
 866              		.fpu neon
 868              	R_CACHE_L2CleanInvalidAll:
 869              	.LFB24:
 637:D:/Work/DeviceTester/amazon-freertos/lib/third_party/mcu_vendor/renesas/rz_mcu_boards/core_package/generate/drivers/r_cache/src/lld\r_cache_lld_rza2m.c ****     uint32_t reg32;
 870              		.loc 1 637 0
 871              		.cfi_startproc
 872              		@ args = 0, pretend = 0, frame = 0
 873              		@ frame_needed = 0, uses_anonymous_args = 0
 874 0000 10402DE9 		push	{r4, lr}
 875              		.cfi_def_cfa_offset 8
 876              		.cfi_offset 4, -8
 877              		.cfi_offset 14, -4
 641:D:/Work/DeviceTester/amazon-freertos/lib/third_party/mcu_vendor/renesas/rz_mcu_boards/core_package/generate/drivers/r_cache/src/lld\r_cache_lld_rza2m.c ****                        CACHE_PRV_PL310_ALLWAYBITS_8,
 878              		.loc 1 641 0
 879 0004 FF30A0E3 		mov	r3, #255
 650:D:/Work/DeviceTester/amazon-freertos/lib/third_party/mcu_vendor/renesas/rz_mcu_boards/core_package/generate/drivers/r_cache/src/lld\r_cache_lld_rza2m.c ****                                   PL310_REG7_CLEAN_INV_WAY_Way_bits_SHIFT,
 880              		.loc 1 650 0
 881 0008 2C409FE5 		ldr	r4, .L76
 641:D:/Work/DeviceTester/amazon-freertos/lib/third_party/mcu_vendor/renesas/rz_mcu_boards/core_package/generate/drivers/r_cache/src/lld\r_cache_lld_rza2m.c ****                        CACHE_PRV_PL310_ALLWAYBITS_8,
 882              		.loc 1 641 0
 883 000c 0020A0E3 		mov	r2, #0
 884 0010 0310A0E1 		mov	r1, r3
 885 0014 20009FE5 		ldr	r0, .L76
 886 0018 FEFFFFEB 		bl	RZA_IO_RegWrite_32
 887              	.LVL57:
 888              	.L73:
 650:D:/Work/DeviceTester/amazon-freertos/lib/third_party/mcu_vendor/renesas/rz_mcu_boards/core_package/generate/drivers/r_cache/src/lld\r_cache_lld_rza2m.c ****                                   PL310_REG7_CLEAN_INV_WAY_Way_bits_SHIFT,
 889              		.loc 1 650 0 discriminator 1
 890 001c FF20A0E3 		mov	r2, #255
 891 0020 0010A0E3 		mov	r1, #0
 892 0024 0400A0E1 		mov	r0, r4
 893 0028 FEFFFFEB 		bl	RZA_IO_RegRead_32
 894              	.LVL58:
 653:D:/Work/DeviceTester/amazon-freertos/lib/third_party/mcu_vendor/renesas/rz_mcu_boards/core_package/generate/drivers/r_cache/src/lld\r_cache_lld_rza2m.c ****     cache_l2_sync();
 895              		.loc 1 653 0 discriminator 1
 896 002c 000050E3 		cmp	r0, #0
 897 0030 F9FFFF1A 		bne	.L73
 657:D:/Work/DeviceTester/amazon-freertos/lib/third_party/mcu_vendor/renesas/rz_mcu_boards/core_package/generate/drivers/r_cache/src/lld\r_cache_lld_rza2m.c **** /*******************************************************************************
 898              		.loc 1 657 0
 899 0034 1040BDE8 		pop	{r4, lr}
 900              		.cfi_restore 14
 901              		.cfi_restore 4
 902              		.cfi_def_cfa_offset 0
 654:D:/Work/DeviceTester/amazon-freertos/lib/third_party/mcu_vendor/renesas/rz_mcu_boards/core_package/generate/drivers/r_cache/src/lld\r_cache_lld_rza2m.c **** 
 903              		.loc 1 654 0
 904 0038 FEFFFFEA 		b	cache_l2_sync
 905              	.LVL59:
 906              	.L77:
 907              		.align	2
 908              	.L76:
 909 003c FC37001F 		.word	520108028
 910              		.cfi_endproc
 911              	.LFE24:
 913              		.section	.text.R_CACHE_GetVersion,"ax",%progbits
 914              		.align	2
 915              		.global	R_CACHE_GetVersion
 916              		.syntax unified
 917              		.arm
 918              		.fpu neon
 920              	R_CACHE_GetVersion:
 921              	.LFB26:
 683:D:/Work/DeviceTester/amazon-freertos/lib/third_party/mcu_vendor/renesas/rz_mcu_boards/core_package/generate/drivers/r_cache/src/lld\r_cache_lld_rza2m.c **** /*******************************************************************************
 684:D:/Work/DeviceTester/amazon-freertos/lib/third_party/mcu_vendor/renesas/rz_mcu_boards/core_package/generate/drivers/r_cache/src/lld\r_cache_lld_rza2m.c **** End of function cache_l2_sync
 685:D:/Work/DeviceTester/amazon-freertos/lib/third_party/mcu_vendor/renesas/rz_mcu_boards/core_package/generate/drivers/r_cache/src/lld\r_cache_lld_rza2m.c **** *******************************************************************************/
 686:D:/Work/DeviceTester/amazon-freertos/lib/third_party/mcu_vendor/renesas/rz_mcu_boards/core_package/generate/drivers/r_cache/src/lld\r_cache_lld_rza2m.c **** 
 687:D:/Work/DeviceTester/amazon-freertos/lib/third_party/mcu_vendor/renesas/rz_mcu_boards/core_package/generate/drivers/r_cache/src/lld\r_cache_lld_rza2m.c **** /*******************************************************************************
 688:D:/Work/DeviceTester/amazon-freertos/lib/third_party/mcu_vendor/renesas/rz_mcu_boards/core_package/generate/drivers/r_cache/src/lld\r_cache_lld_rza2m.c **** * Function Name: R_CACHE_GetVersion
 689:D:/Work/DeviceTester/amazon-freertos/lib/third_party/mcu_vendor/renesas/rz_mcu_boards/core_package/generate/drivers/r_cache/src/lld\r_cache_lld_rza2m.c **** * Description  : Gets the version number of this low-level driver
 690:D:/Work/DeviceTester/amazon-freertos/lib/third_party/mcu_vendor/renesas/rz_mcu_boards/core_package/generate/drivers/r_cache/src/lld\r_cache_lld_rza2m.c **** * Arguments    : p_ver_info[out] - returns the driver information
 691:D:/Work/DeviceTester/amazon-freertos/lib/third_party/mcu_vendor/renesas/rz_mcu_boards/core_package/generate/drivers/r_cache/src/lld\r_cache_lld_rza2m.c **** * Return Value : DRV_SUCCESS Always returned
 692:D:/Work/DeviceTester/amazon-freertos/lib/third_party/mcu_vendor/renesas/rz_mcu_boards/core_package/generate/drivers/r_cache/src/lld\r_cache_lld_rza2m.c **** *******************************************************************************/
 693:D:/Work/DeviceTester/amazon-freertos/lib/third_party/mcu_vendor/renesas/rz_mcu_boards/core_package/generate/drivers/r_cache/src/lld\r_cache_lld_rza2m.c **** int_t R_CACHE_GetVersion(st_ver_info_t *p_ver_info)
 694:D:/Work/DeviceTester/amazon-freertos/lib/third_party/mcu_vendor/renesas/rz_mcu_boards/core_package/generate/drivers/r_cache/src/lld\r_cache_lld_rza2m.c **** {
 922              		.loc 1 694 0
 923              		.cfi_startproc
 924              		@ args = 0, pretend = 0, frame = 0
 925              		@ frame_needed = 0, uses_anonymous_args = 0
 926              		@ link register save eliminated.
 927              	.LVL60:
 695:D:/Work/DeviceTester/amazon-freertos/lib/third_party/mcu_vendor/renesas/rz_mcu_boards/core_package/generate/drivers/r_cache/src/lld\r_cache_lld_rza2m.c ****     p_ver_info->lld.p_szdriver_name = gs_lld_info.p_szdriver_name;
 928              		.loc 1 695 0
 929 0000 20209FE5 		ldr	r2, .L79
 694:D:/Work/DeviceTester/amazon-freertos/lib/third_party/mcu_vendor/renesas/rz_mcu_boards/core_package/generate/drivers/r_cache/src/lld\r_cache_lld_rza2m.c ****     p_ver_info->lld.p_szdriver_name = gs_lld_info.p_szdriver_name;
 930              		.loc 1 694 0
 931 0004 0030A0E1 		mov	r3, r0
 932              		.loc 1 695 0
 933 0008 142080E5 		str	r2, [r0, #20]
 696:D:/Work/DeviceTester/amazon-freertos/lib/third_party/mcu_vendor/renesas/rz_mcu_boards/core_package/generate/drivers/r_cache/src/lld\r_cache_lld_rza2m.c ****     p_ver_info->lld.version.sub.major = gs_lld_info.version.sub.major;
 934              		.loc 1 696 0
 935 000c 0120A0E3 		mov	r2, #1
 936 0010 BE20C0E1 		strh	r2, [r0, #14]	@ movhi
 697:D:/Work/DeviceTester/amazon-freertos/lib/third_party/mcu_vendor/renesas/rz_mcu_boards/core_package/generate/drivers/r_cache/src/lld\r_cache_lld_rza2m.c ****     p_ver_info->lld.version.sub.minor = gs_lld_info.version.sub.minor;
 937              		.loc 1 697 0
 938 0014 0320A0E3 		mov	r2, #3
 939 0018 BC20C0E1 		strh	r2, [r0, #12]	@ movhi
 698:D:/Work/DeviceTester/amazon-freertos/lib/third_party/mcu_vendor/renesas/rz_mcu_boards/core_package/generate/drivers/r_cache/src/lld\r_cache_lld_rza2m.c ****     p_ver_info->lld.build = gs_lld_info.build;
 940              		.loc 1 698 0
 941 001c 0000A0E3 		mov	r0, #0
 942              	.LVL61:
 943 0020 100083E5 		str	r0, [r3, #16]
 699:D:/Work/DeviceTester/amazon-freertos/lib/third_party/mcu_vendor/renesas/rz_mcu_boards/core_package/generate/drivers/r_cache/src/lld\r_cache_lld_rza2m.c **** 
 700:D:/Work/DeviceTester/amazon-freertos/lib/third_party/mcu_vendor/renesas/rz_mcu_boards/core_package/generate/drivers/r_cache/src/lld\r_cache_lld_rza2m.c ****     return (DRV_SUCCESS);
 701:D:/Work/DeviceTester/amazon-freertos/lib/third_party/mcu_vendor/renesas/rz_mcu_boards/core_package/generate/drivers/r_cache/src/lld\r_cache_lld_rza2m.c **** }
 944              		.loc 1 701 0
 945 0024 1EFF2FE1 		bx	lr
 946              	.L80:
 947              		.align	2
 948              	.L79:
 949 0028 00000000 		.word	.LC0
 950              		.cfi_endproc
 951              	.LFE26:
 953              		.section	.rodata.R_CACHE_GetVersion.str1.1,"aMS",%progbits,1
 954              	.LC0:
 955 0000 4C4C4420 		.ascii	"LLD EBK_RZA2M CACHE\000"
 955      45424B5F 
 955      525A4132 
 955      4D204341 
 955      43484500 
 956              		.text
 957              	.Letext0:
 958              		.file 2 "c:\\program files (x86)\\gnu tools arm embedded\\6 2017-q2-update\\arm-none-eabi\\include
 959              		.file 3 "c:\\program files (x86)\\gnu tools arm embedded\\6 2017-q2-update\\arm-none-eabi\\include
 960              		.file 4 "D:\\Work\\DeviceTester\\amazon-freertos\\lib\\third_party\\mcu_vendor\\renesas\\rz_mcu_bo
 961              		.file 5 "c:\\program files (x86)\\gnu tools arm embedded\\6 2017-q2-update\\arm-none-eabi\\include
 962              		.file 6 "c:\\program files (x86)\\gnu tools arm embedded\\6 2017-q2-update\\arm-none-eabi\\include
 963              		.file 7 "c:\\program files (x86)\\gnu tools arm embedded\\6 2017-q2-update\\lib\\gcc\\arm-none-eab
 964              		.file 8 "c:\\program files (x86)\\gnu tools arm embedded\\6 2017-q2-update\\arm-none-eabi\\include
 965              		.file 9 "c:\\program files (x86)\\gnu tools arm embedded\\6 2017-q2-update\\arm-none-eabi\\include
 966              		.file 10 "D:\\Work\\DeviceTester\\amazon-freertos\\lib\\third_party\\mcu_vendor\\renesas\\rz_mcu_b
 967              		.file 11 "D:\\Work\\DeviceTester\\amazon-freertos\\lib\\third_party\\mcu_vendor\\renesas\\rz_mcu_b
 968              		.file 12 "D:\\Work\\DeviceTester\\amazon-freertos\\lib\\third_party\\mcu_vendor\\renesas\\rz_mcu_b
 969              		.file 13 "D:\\Work\\DeviceTester\\amazon-freertos\\lib\\third_party\\mcu_vendor\\renesas\\rz_mcu_b
DEFINED SYMBOLS
                            *ABS*:00000000 r_cache_lld_rza2m.c
C:\Users\a5089698\AppData\Local\Temp\ccgbD4Ya.s:17     .text.cache_l2_sync:00000000 $a
C:\Users\a5089698\AppData\Local\Temp\ccgbD4Ya.s:22     .text.cache_l2_sync:00000000 cache_l2_sync
C:\Users\a5089698\AppData\Local\Temp\ccgbD4Ya.s:58     .text.cache_l2_sync:00000038 $d
C:\Users\a5089698\AppData\Local\Temp\ccgbD4Ya.s:63     .text.R_CACHE_L1Init:00000000 $a
C:\Users\a5089698\AppData\Local\Temp\ccgbD4Ya.s:69     .text.R_CACHE_L1Init:00000000 R_CACHE_L1Init
C:\Users\a5089698\AppData\Local\Temp\ccgbD4Ya.s:119    .text.R_CACHE_L1InstInvalidAll:00000000 $a
C:\Users\a5089698\AppData\Local\Temp\ccgbD4Ya.s:125    .text.R_CACHE_L1InstInvalidAll:00000000 R_CACHE_L1InstInvalidAll
C:\Users\a5089698\AppData\Local\Temp\ccgbD4Ya.s:139    .text.R_CACHE_L1DataInvalidAll:00000000 $a
C:\Users\a5089698\AppData\Local\Temp\ccgbD4Ya.s:145    .text.R_CACHE_L1DataInvalidAll:00000000 R_CACHE_L1DataInvalidAll
C:\Users\a5089698\AppData\Local\Temp\ccgbD4Ya.s:160    .text.R_CACHE_L1DataCleanAll:00000000 $a
C:\Users\a5089698\AppData\Local\Temp\ccgbD4Ya.s:166    .text.R_CACHE_L1DataCleanAll:00000000 R_CACHE_L1DataCleanAll
C:\Users\a5089698\AppData\Local\Temp\ccgbD4Ya.s:181    .text.R_CACHE_L1DataCleanInvalidAll:00000000 $a
C:\Users\a5089698\AppData\Local\Temp\ccgbD4Ya.s:187    .text.R_CACHE_L1DataCleanInvalidAll:00000000 R_CACHE_L1DataCleanInvalidAll
C:\Users\a5089698\AppData\Local\Temp\ccgbD4Ya.s:202    .text.R_CACHE_L1DataInvalidLine:00000000 $a
C:\Users\a5089698\AppData\Local\Temp\ccgbD4Ya.s:208    .text.R_CACHE_L1DataInvalidLine:00000000 R_CACHE_L1DataInvalidLine
C:\Users\a5089698\AppData\Local\Temp\ccgbD4Ya.s:263    .text.R_CACHE_L1DataCleanLine:00000000 $a
C:\Users\a5089698\AppData\Local\Temp\ccgbD4Ya.s:269    .text.R_CACHE_L1DataCleanLine:00000000 R_CACHE_L1DataCleanLine
C:\Users\a5089698\AppData\Local\Temp\ccgbD4Ya.s:324    .text.R_CACHE_L1DataCleanInvalidLine:00000000 $a
C:\Users\a5089698\AppData\Local\Temp\ccgbD4Ya.s:330    .text.R_CACHE_L1DataCleanInvalidLine:00000000 R_CACHE_L1DataCleanInvalidLine
C:\Users\a5089698\AppData\Local\Temp\ccgbD4Ya.s:385    .text.R_CACHE_L1InstEnable:00000000 $a
C:\Users\a5089698\AppData\Local\Temp\ccgbD4Ya.s:391    .text.R_CACHE_L1InstEnable:00000000 R_CACHE_L1InstEnable
C:\Users\a5089698\AppData\Local\Temp\ccgbD4Ya.s:405    .text.R_CACHE_L1InstDisable:00000000 $a
C:\Users\a5089698\AppData\Local\Temp\ccgbD4Ya.s:411    .text.R_CACHE_L1InstDisable:00000000 R_CACHE_L1InstDisable
C:\Users\a5089698\AppData\Local\Temp\ccgbD4Ya.s:425    .text.R_CACHE_L1DataEnable:00000000 $a
C:\Users\a5089698\AppData\Local\Temp\ccgbD4Ya.s:431    .text.R_CACHE_L1DataEnable:00000000 R_CACHE_L1DataEnable
C:\Users\a5089698\AppData\Local\Temp\ccgbD4Ya.s:445    .text.R_CACHE_L1DataDisable:00000000 $a
C:\Users\a5089698\AppData\Local\Temp\ccgbD4Ya.s:451    .text.R_CACHE_L1DataDisable:00000000 R_CACHE_L1DataDisable
C:\Users\a5089698\AppData\Local\Temp\ccgbD4Ya.s:465    .text.R_CACHE_L1BtacEnable:00000000 $a
C:\Users\a5089698\AppData\Local\Temp\ccgbD4Ya.s:471    .text.R_CACHE_L1BtacEnable:00000000 R_CACHE_L1BtacEnable
C:\Users\a5089698\AppData\Local\Temp\ccgbD4Ya.s:485    .text.R_CACHE_L1BtacDisable:00000000 $a
C:\Users\a5089698\AppData\Local\Temp\ccgbD4Ya.s:491    .text.R_CACHE_L1BtacDisable:00000000 R_CACHE_L1BtacDisable
C:\Users\a5089698\AppData\Local\Temp\ccgbD4Ya.s:505    .text.R_CACHE_L1BtacInvalidate:00000000 $a
C:\Users\a5089698\AppData\Local\Temp\ccgbD4Ya.s:511    .text.R_CACHE_L1BtacInvalidate:00000000 R_CACHE_L1BtacInvalidate
C:\Users\a5089698\AppData\Local\Temp\ccgbD4Ya.s:525    .text.R_CACHE_L1PrefetchEnable:00000000 $a
C:\Users\a5089698\AppData\Local\Temp\ccgbD4Ya.s:531    .text.R_CACHE_L1PrefetchEnable:00000000 R_CACHE_L1PrefetchEnable
C:\Users\a5089698\AppData\Local\Temp\ccgbD4Ya.s:545    .text.R_CACHE_L1PrefetchDisable:00000000 $a
C:\Users\a5089698\AppData\Local\Temp\ccgbD4Ya.s:551    .text.R_CACHE_L1PrefetchDisable:00000000 R_CACHE_L1PrefetchDisable
C:\Users\a5089698\AppData\Local\Temp\ccgbD4Ya.s:565    .text.R_CACHE_L2CacheEnable:00000000 $a
C:\Users\a5089698\AppData\Local\Temp\ccgbD4Ya.s:571    .text.R_CACHE_L2CacheEnable:00000000 R_CACHE_L2CacheEnable
C:\Users\a5089698\AppData\Local\Temp\ccgbD4Ya.s:599    .text.R_CACHE_L2CacheEnable:00000020 $d
C:\Users\a5089698\AppData\Local\Temp\ccgbD4Ya.s:604    .text.R_CACHE_L2CacheDisable:00000000 $a
C:\Users\a5089698\AppData\Local\Temp\ccgbD4Ya.s:610    .text.R_CACHE_L2CacheDisable:00000000 R_CACHE_L2CacheDisable
C:\Users\a5089698\AppData\Local\Temp\ccgbD4Ya.s:640    .text.R_CACHE_L2CacheDisable:00000020 $d
C:\Users\a5089698\AppData\Local\Temp\ccgbD4Ya.s:645    .text.R_CACHE_L2PrefetchDisable:00000000 $a
C:\Users\a5089698\AppData\Local\Temp\ccgbD4Ya.s:651    .text.R_CACHE_L2PrefetchDisable:00000000 R_CACHE_L2PrefetchDisable
C:\Users\a5089698\AppData\Local\Temp\ccgbD4Ya.s:687    .text.R_CACHE_L2PrefetchDisable:00000034 $d
C:\Users\a5089698\AppData\Local\Temp\ccgbD4Ya.s:692    .text.R_CACHE_L2PrefetchEnable:00000000 $a
C:\Users\a5089698\AppData\Local\Temp\ccgbD4Ya.s:698    .text.R_CACHE_L2PrefetchEnable:00000000 R_CACHE_L2PrefetchEnable
C:\Users\a5089698\AppData\Local\Temp\ccgbD4Ya.s:709    .text.R_CACHE_L2InvalidAll:00000000 $a
C:\Users\a5089698\AppData\Local\Temp\ccgbD4Ya.s:715    .text.R_CACHE_L2InvalidAll:00000000 R_CACHE_L2InvalidAll
C:\Users\a5089698\AppData\Local\Temp\ccgbD4Ya.s:757    .text.R_CACHE_L2InvalidAll:0000003c $d
C:\Users\a5089698\AppData\Local\Temp\ccgbD4Ya.s:762    .text.R_CACHE_L2Init:00000000 $a
C:\Users\a5089698\AppData\Local\Temp\ccgbD4Ya.s:768    .text.R_CACHE_L2Init:00000000 R_CACHE_L2Init
C:\Users\a5089698\AppData\Local\Temp\ccgbD4Ya.s:805    .text.R_CACHE_L2Init:0000002c $d
C:\Users\a5089698\AppData\Local\Temp\ccgbD4Ya.s:810    .text.R_CACHE_L2CleanAll:00000000 $a
C:\Users\a5089698\AppData\Local\Temp\ccgbD4Ya.s:816    .text.R_CACHE_L2CleanAll:00000000 R_CACHE_L2CleanAll
C:\Users\a5089698\AppData\Local\Temp\ccgbD4Ya.s:857    .text.R_CACHE_L2CleanAll:0000003c $d
C:\Users\a5089698\AppData\Local\Temp\ccgbD4Ya.s:862    .text.R_CACHE_L2CleanInvalidAll:00000000 $a
C:\Users\a5089698\AppData\Local\Temp\ccgbD4Ya.s:868    .text.R_CACHE_L2CleanInvalidAll:00000000 R_CACHE_L2CleanInvalidAll
C:\Users\a5089698\AppData\Local\Temp\ccgbD4Ya.s:909    .text.R_CACHE_L2CleanInvalidAll:0000003c $d
C:\Users\a5089698\AppData\Local\Temp\ccgbD4Ya.s:914    .text.R_CACHE_GetVersion:00000000 $a
C:\Users\a5089698\AppData\Local\Temp\ccgbD4Ya.s:920    .text.R_CACHE_GetVersion:00000000 R_CACHE_GetVersion
C:\Users\a5089698\AppData\Local\Temp\ccgbD4Ya.s:949    .text.R_CACHE_GetVersion:00000028 $d
                     .debug_frame:00000010 $d

UNDEFINED SYMBOLS
RZA_IO_RegWrite_32
RZA_IO_RegRead_32
r_cache_l1_d_enable
r_cache_l1_i_enable
r_cache_l1_btac_enable
r_cache_l1_prefetch_enable
r_cache_l1_cache_init
r_cache_l1_i_inv_all
r_cache_l1_d_cache_operation
r_cache_l1_d_inv_mva
r_cache_l1_d_clean_mva
r_cache_l1_d_clean_inv_mva
r_cache_l1_i_disable
r_cache_l1_d_disable
r_cache_l1_btac_disable
r_cache_l1_btac_inv
r_cache_l1_prefetch_disable
