   1              		.cpu cortex-a9
   2              		.eabi_attribute 28, 1
   3              		.eabi_attribute 20, 1
   4              		.eabi_attribute 21, 1
   5              		.eabi_attribute 23, 3
   6              		.eabi_attribute 24, 1
   7              		.eabi_attribute 25, 1
   8              		.eabi_attribute 26, 1
   9              		.eabi_attribute 30, 4
  10              		.eabi_attribute 34, 0
  11              		.eabi_attribute 18, 4
  12              		.file	"r_ostm_lld_rza2m.c"
  13              		.text
  14              	.Ltext0:
  15              		.cfi_sections	.debug_frame
  16              		.global	__aeabi_d2ulz
  17              		.section	.text.calc_compare,"ax",%progbits
  18              		.align	2
  19              		.syntax unified
  20              		.arm
  21              		.fpu neon
  23              	calc_compare:
  24              	.LFB7:
  25              		.file 1 "D:/Work/DeviceTester/amazon-freertos/lib/third_party/mcu_vendor/renesas/rz_mcu_boards/cor
   1:D:/Work/DeviceTester/amazon-freertos/lib/third_party/mcu_vendor/renesas/rz_mcu_boards/core_package/generate/sc_drivers/r_ostm/src/lld\r_ostm_lld_rza2m.c **** /*******************************************************************************
   2:D:/Work/DeviceTester/amazon-freertos/lib/third_party/mcu_vendor/renesas/rz_mcu_boards/core_package/generate/sc_drivers/r_ostm/src/lld\r_ostm_lld_rza2m.c **** * DISCLAIMER
   3:D:/Work/DeviceTester/amazon-freertos/lib/third_party/mcu_vendor/renesas/rz_mcu_boards/core_package/generate/sc_drivers/r_ostm/src/lld\r_ostm_lld_rza2m.c **** * This software is supplied by Renesas Electronics Corporation and is only
   4:D:/Work/DeviceTester/amazon-freertos/lib/third_party/mcu_vendor/renesas/rz_mcu_boards/core_package/generate/sc_drivers/r_ostm/src/lld\r_ostm_lld_rza2m.c **** * intended for use with Renesas products. No other uses are authorized. This
   5:D:/Work/DeviceTester/amazon-freertos/lib/third_party/mcu_vendor/renesas/rz_mcu_boards/core_package/generate/sc_drivers/r_ostm/src/lld\r_ostm_lld_rza2m.c **** * software is owned by Renesas Electronics Corporation and is protected under
   6:D:/Work/DeviceTester/amazon-freertos/lib/third_party/mcu_vendor/renesas/rz_mcu_boards/core_package/generate/sc_drivers/r_ostm/src/lld\r_ostm_lld_rza2m.c **** * all applicable laws, including copyright laws.
   7:D:/Work/DeviceTester/amazon-freertos/lib/third_party/mcu_vendor/renesas/rz_mcu_boards/core_package/generate/sc_drivers/r_ostm/src/lld\r_ostm_lld_rza2m.c **** * THIS SOFTWARE IS PROVIDED "AS IS" AND RENESAS MAKES NO WARRANTIES REGARDING
   8:D:/Work/DeviceTester/amazon-freertos/lib/third_party/mcu_vendor/renesas/rz_mcu_boards/core_package/generate/sc_drivers/r_ostm/src/lld\r_ostm_lld_rza2m.c **** * THIS SOFTWARE, WHETHER EXPRESS, IMPLIED OR STATUTORY, INCLUDING BUT NOT
   9:D:/Work/DeviceTester/amazon-freertos/lib/third_party/mcu_vendor/renesas/rz_mcu_boards/core_package/generate/sc_drivers/r_ostm/src/lld\r_ostm_lld_rza2m.c **** * LIMITED TO WARRANTIES OF MERCHANTABILITY, FITNESS FOR A PARTICULAR PURPOSE
  10:D:/Work/DeviceTester/amazon-freertos/lib/third_party/mcu_vendor/renesas/rz_mcu_boards/core_package/generate/sc_drivers/r_ostm/src/lld\r_ostm_lld_rza2m.c **** * AND NON-INFRINGEMENT. ALL SUCH WARRANTIES ARE EXPRESSLY DISCLAIMED.
  11:D:/Work/DeviceTester/amazon-freertos/lib/third_party/mcu_vendor/renesas/rz_mcu_boards/core_package/generate/sc_drivers/r_ostm/src/lld\r_ostm_lld_rza2m.c **** * TO THE MAXIMUM EXTENT PERMITTED NOT PROHIBITED BY LAW, NEITHER RENESAS
  12:D:/Work/DeviceTester/amazon-freertos/lib/third_party/mcu_vendor/renesas/rz_mcu_boards/core_package/generate/sc_drivers/r_ostm/src/lld\r_ostm_lld_rza2m.c **** * ELECTRONICS CORPORATION NOR ANY OF ITS AFFILIATED COMPANIES SHALL BE LIABLE
  13:D:/Work/DeviceTester/amazon-freertos/lib/third_party/mcu_vendor/renesas/rz_mcu_boards/core_package/generate/sc_drivers/r_ostm/src/lld\r_ostm_lld_rza2m.c **** * FOR ANY DIRECT, INDIRECT, SPECIAL, INCIDENTAL OR CONSEQUENTIAL DAMAGES FOR
  14:D:/Work/DeviceTester/amazon-freertos/lib/third_party/mcu_vendor/renesas/rz_mcu_boards/core_package/generate/sc_drivers/r_ostm/src/lld\r_ostm_lld_rza2m.c **** * ANY REASON RELATED TO THIS SOFTWARE, EVEN IF RENESAS OR ITS AFFILIATES HAVE
  15:D:/Work/DeviceTester/amazon-freertos/lib/third_party/mcu_vendor/renesas/rz_mcu_boards/core_package/generate/sc_drivers/r_ostm/src/lld\r_ostm_lld_rza2m.c **** * BEEN ADVISED OF THE POSSIBILITY OF SUCH DAMAGES.
  16:D:/Work/DeviceTester/amazon-freertos/lib/third_party/mcu_vendor/renesas/rz_mcu_boards/core_package/generate/sc_drivers/r_ostm/src/lld\r_ostm_lld_rza2m.c **** * Renesas reserves the right, without notice, to make changes to this software
  17:D:/Work/DeviceTester/amazon-freertos/lib/third_party/mcu_vendor/renesas/rz_mcu_boards/core_package/generate/sc_drivers/r_ostm/src/lld\r_ostm_lld_rza2m.c **** * and to discontinue the availability of this software. By using this software,
  18:D:/Work/DeviceTester/amazon-freertos/lib/third_party/mcu_vendor/renesas/rz_mcu_boards/core_package/generate/sc_drivers/r_ostm/src/lld\r_ostm_lld_rza2m.c **** * you agree to the additional terms and conditions found by accessing the
  19:D:/Work/DeviceTester/amazon-freertos/lib/third_party/mcu_vendor/renesas/rz_mcu_boards/core_package/generate/sc_drivers/r_ostm/src/lld\r_ostm_lld_rza2m.c **** * following link:
  20:D:/Work/DeviceTester/amazon-freertos/lib/third_party/mcu_vendor/renesas/rz_mcu_boards/core_package/generate/sc_drivers/r_ostm/src/lld\r_ostm_lld_rza2m.c **** * http://www.renesas.com/disclaimer
  21:D:/Work/DeviceTester/amazon-freertos/lib/third_party/mcu_vendor/renesas/rz_mcu_boards/core_package/generate/sc_drivers/r_ostm/src/lld\r_ostm_lld_rza2m.c **** * Copyright (C) 2018 Renesas Electronics Corporation. All rights reserved.
  22:D:/Work/DeviceTester/amazon-freertos/lib/third_party/mcu_vendor/renesas/rz_mcu_boards/core_package/generate/sc_drivers/r_ostm/src/lld\r_ostm_lld_rza2m.c **** *******************************************************************************/
  23:D:/Work/DeviceTester/amazon-freertos/lib/third_party/mcu_vendor/renesas/rz_mcu_boards/core_package/generate/sc_drivers/r_ostm/src/lld\r_ostm_lld_rza2m.c **** /*******************************************************************************
  24:D:/Work/DeviceTester/amazon-freertos/lib/third_party/mcu_vendor/renesas/rz_mcu_boards/core_package/generate/sc_drivers/r_ostm/src/lld\r_ostm_lld_rza2m.c **** * File Name    : r_ostm_lld_rza2m.c
  25:D:/Work/DeviceTester/amazon-freertos/lib/third_party/mcu_vendor/renesas/rz_mcu_boards/core_package/generate/sc_drivers/r_ostm/src/lld\r_ostm_lld_rza2m.c **** * Device(s)    : RZ/A2M
  26:D:/Work/DeviceTester/amazon-freertos/lib/third_party/mcu_vendor/renesas/rz_mcu_boards/core_package/generate/sc_drivers/r_ostm/src/lld\r_ostm_lld_rza2m.c **** * Tool-Chain   : e2Studio Ver 7.5.0
  27:D:/Work/DeviceTester/amazon-freertos/lib/third_party/mcu_vendor/renesas/rz_mcu_boards/core_package/generate/sc_drivers/r_ostm/src/lld\r_ostm_lld_rza2m.c **** *              : GNU Arm Embedded Toolchain 6-2017-q2-update
  28:D:/Work/DeviceTester/amazon-freertos/lib/third_party/mcu_vendor/renesas/rz_mcu_boards/core_package/generate/sc_drivers/r_ostm/src/lld\r_ostm_lld_rza2m.c **** * OS           : None
  29:D:/Work/DeviceTester/amazon-freertos/lib/third_party/mcu_vendor/renesas/rz_mcu_boards/core_package/generate/sc_drivers/r_ostm/src/lld\r_ostm_lld_rza2m.c **** * H/W Platform : RZ/A2M Evaluation Board
  30:D:/Work/DeviceTester/amazon-freertos/lib/third_party/mcu_vendor/renesas/rz_mcu_boards/core_package/generate/sc_drivers/r_ostm/src/lld\r_ostm_lld_rza2m.c **** * Description  : RZ/A2M Sample Program - LowLevel function of OSTM Module
  31:D:/Work/DeviceTester/amazon-freertos/lib/third_party/mcu_vendor/renesas/rz_mcu_boards/core_package/generate/sc_drivers/r_ostm/src/lld\r_ostm_lld_rza2m.c **** * Operation    :
  32:D:/Work/DeviceTester/amazon-freertos/lib/third_party/mcu_vendor/renesas/rz_mcu_boards/core_package/generate/sc_drivers/r_ostm/src/lld\r_ostm_lld_rza2m.c **** * Limitations  :
  33:D:/Work/DeviceTester/amazon-freertos/lib/third_party/mcu_vendor/renesas/rz_mcu_boards/core_package/generate/sc_drivers/r_ostm/src/lld\r_ostm_lld_rza2m.c **** *******************************************************************************/
  34:D:/Work/DeviceTester/amazon-freertos/lib/third_party/mcu_vendor/renesas/rz_mcu_boards/core_package/generate/sc_drivers/r_ostm/src/lld\r_ostm_lld_rza2m.c **** /******************************************************************************
  35:D:/Work/DeviceTester/amazon-freertos/lib/third_party/mcu_vendor/renesas/rz_mcu_boards/core_package/generate/sc_drivers/r_ostm/src/lld\r_ostm_lld_rza2m.c **** Includes   <System Includes> , "Project Includes"
  36:D:/Work/DeviceTester/amazon-freertos/lib/third_party/mcu_vendor/renesas/rz_mcu_boards/core_package/generate/sc_drivers/r_ostm/src/lld\r_ostm_lld_rza2m.c **** ******************************************************************************/
  37:D:/Work/DeviceTester/amazon-freertos/lib/third_party/mcu_vendor/renesas/rz_mcu_boards/core_package/generate/sc_drivers/r_ostm/src/lld\r_ostm_lld_rza2m.c **** #include <string.h>
  38:D:/Work/DeviceTester/amazon-freertos/lib/third_party/mcu_vendor/renesas/rz_mcu_boards/core_package/generate/sc_drivers/r_ostm/src/lld\r_ostm_lld_rza2m.c **** #include <ctype.h>
  39:D:/Work/DeviceTester/amazon-freertos/lib/third_party/mcu_vendor/renesas/rz_mcu_boards/core_package/generate/sc_drivers/r_ostm/src/lld\r_ostm_lld_rza2m.c **** 
  40:D:/Work/DeviceTester/amazon-freertos/lib/third_party/mcu_vendor/renesas/rz_mcu_boards/core_package/generate/sc_drivers/r_ostm/src/lld\r_ostm_lld_rza2m.c **** #include "r_typedefs.h"
  41:D:/Work/DeviceTester/amazon-freertos/lib/third_party/mcu_vendor/renesas/rz_mcu_boards/core_package/generate/sc_drivers/r_ostm/src/lld\r_ostm_lld_rza2m.c **** #include "r_ostm_drv_link.h"
  42:D:/Work/DeviceTester/amazon-freertos/lib/third_party/mcu_vendor/renesas/rz_mcu_boards/core_package/generate/sc_drivers/r_ostm/src/lld\r_ostm_lld_rza2m.c **** #include "r_ostm_drv_api.h"
  43:D:/Work/DeviceTester/amazon-freertos/lib/third_party/mcu_vendor/renesas/rz_mcu_boards/core_package/generate/sc_drivers/r_ostm/src/lld\r_ostm_lld_rza2m.c **** #include "r_intc_drv_api.h"
  44:D:/Work/DeviceTester/amazon-freertos/lib/third_party/mcu_vendor/renesas/rz_mcu_boards/core_package/generate/sc_drivers/r_ostm/src/lld\r_ostm_lld_rza2m.c **** #include "iodefine.h"
  45:D:/Work/DeviceTester/amazon-freertos/lib/third_party/mcu_vendor/renesas/rz_mcu_boards/core_package/generate/sc_drivers/r_ostm/src/lld\r_ostm_lld_rza2m.c **** #include "iobitmask.h"
  46:D:/Work/DeviceTester/amazon-freertos/lib/third_party/mcu_vendor/renesas/rz_mcu_boards/core_package/generate/sc_drivers/r_ostm/src/lld\r_ostm_lld_rza2m.c **** #include "rza_io_regrw.h"
  47:D:/Work/DeviceTester/amazon-freertos/lib/third_party/mcu_vendor/renesas/rz_mcu_boards/core_package/generate/sc_drivers/r_ostm/src/lld\r_ostm_lld_rza2m.c **** #include "r_cpg_drv_api.h"
  48:D:/Work/DeviceTester/amazon-freertos/lib/third_party/mcu_vendor/renesas/rz_mcu_boards/core_package/generate/sc_drivers/r_ostm/src/lld\r_ostm_lld_rza2m.c **** #include "r_stb_drv_api.h"
  49:D:/Work/DeviceTester/amazon-freertos/lib/third_party/mcu_vendor/renesas/rz_mcu_boards/core_package/generate/sc_drivers/r_ostm/src/lld\r_ostm_lld_rza2m.c **** 
  50:D:/Work/DeviceTester/amazon-freertos/lib/third_party/mcu_vendor/renesas/rz_mcu_boards/core_package/generate/sc_drivers/r_ostm/src/lld\r_ostm_lld_rza2m.c **** /******************************************************************************
  51:D:/Work/DeviceTester/amazon-freertos/lib/third_party/mcu_vendor/renesas/rz_mcu_boards/core_package/generate/sc_drivers/r_ostm/src/lld\r_ostm_lld_rza2m.c **** Typedef definitions
  52:D:/Work/DeviceTester/amazon-freertos/lib/third_party/mcu_vendor/renesas/rz_mcu_boards/core_package/generate/sc_drivers/r_ostm/src/lld\r_ostm_lld_rza2m.c **** ******************************************************************************/
  53:D:/Work/DeviceTester/amazon-freertos/lib/third_party/mcu_vendor/renesas/rz_mcu_boards/core_package/generate/sc_drivers/r_ostm/src/lld\r_ostm_lld_rza2m.c **** 
  54:D:/Work/DeviceTester/amazon-freertos/lib/third_party/mcu_vendor/renesas/rz_mcu_boards/core_package/generate/sc_drivers/r_ostm/src/lld\r_ostm_lld_rza2m.c **** 
  55:D:/Work/DeviceTester/amazon-freertos/lib/third_party/mcu_vendor/renesas/rz_mcu_boards/core_package/generate/sc_drivers/r_ostm/src/lld\r_ostm_lld_rza2m.c **** /******************************************************************************
  56:D:/Work/DeviceTester/amazon-freertos/lib/third_party/mcu_vendor/renesas/rz_mcu_boards/core_package/generate/sc_drivers/r_ostm/src/lld\r_ostm_lld_rza2m.c **** Macro definitions
  57:D:/Work/DeviceTester/amazon-freertos/lib/third_party/mcu_vendor/renesas/rz_mcu_boards/core_package/generate/sc_drivers/r_ostm/src/lld\r_ostm_lld_rza2m.c **** ******************************************************************************/
  58:D:/Work/DeviceTester/amazon-freertos/lib/third_party/mcu_vendor/renesas/rz_mcu_boards/core_package/generate/sc_drivers/r_ostm/src/lld\r_ostm_lld_rza2m.c **** 
  59:D:/Work/DeviceTester/amazon-freertos/lib/third_party/mcu_vendor/renesas/rz_mcu_boards/core_package/generate/sc_drivers/r_ostm/src/lld\r_ostm_lld_rza2m.c **** 
  60:D:/Work/DeviceTester/amazon-freertos/lib/third_party/mcu_vendor/renesas/rz_mcu_boards/core_package/generate/sc_drivers/r_ostm/src/lld\r_ostm_lld_rza2m.c **** /******************************************************************************
  61:D:/Work/DeviceTester/amazon-freertos/lib/third_party/mcu_vendor/renesas/rz_mcu_boards/core_package/generate/sc_drivers/r_ostm/src/lld\r_ostm_lld_rza2m.c **** Private global variables and functions
  62:D:/Work/DeviceTester/amazon-freertos/lib/third_party/mcu_vendor/renesas/rz_mcu_boards/core_package/generate/sc_drivers/r_ostm/src/lld\r_ostm_lld_rza2m.c **** ******************************************************************************/
  63:D:/Work/DeviceTester/amazon-freertos/lib/third_party/mcu_vendor/renesas/rz_mcu_boards/core_package/generate/sc_drivers/r_ostm/src/lld\r_ostm_lld_rza2m.c **** /*! Version Information */
  64:D:/Work/DeviceTester/amazon-freertos/lib/third_party/mcu_vendor/renesas/rz_mcu_boards/core_package/generate/sc_drivers/r_ostm/src/lld\r_ostm_lld_rza2m.c **** static const st_drv_info_t gs_lld_info =
  65:D:/Work/DeviceTester/amazon-freertos/lib/third_party/mcu_vendor/renesas/rz_mcu_boards/core_package/generate/sc_drivers/r_ostm/src/lld\r_ostm_lld_rza2m.c **** {
  66:D:/Work/DeviceTester/amazon-freertos/lib/third_party/mcu_vendor/renesas/rz_mcu_boards/core_package/generate/sc_drivers/r_ostm/src/lld\r_ostm_lld_rza2m.c ****     {
  67:D:/Work/DeviceTester/amazon-freertos/lib/third_party/mcu_vendor/renesas/rz_mcu_boards/core_package/generate/sc_drivers/r_ostm/src/lld\r_ostm_lld_rza2m.c ****         ((STDIO_OSTM_RZ_LLD_VERSION_MAJOR << 16) + STDIO_OSTM_RZ_LLD_VERSION_MINOR)
  68:D:/Work/DeviceTester/amazon-freertos/lib/third_party/mcu_vendor/renesas/rz_mcu_boards/core_package/generate/sc_drivers/r_ostm/src/lld\r_ostm_lld_rza2m.c ****     },
  69:D:/Work/DeviceTester/amazon-freertos/lib/third_party/mcu_vendor/renesas/rz_mcu_boards/core_package/generate/sc_drivers/r_ostm/src/lld\r_ostm_lld_rza2m.c ****     STDIO_OSTM_RZ_LLD_BUILD_NUM,
  70:D:/Work/DeviceTester/amazon-freertos/lib/third_party/mcu_vendor/renesas/rz_mcu_boards/core_package/generate/sc_drivers/r_ostm/src/lld\r_ostm_lld_rza2m.c ****     STDIO_OSTM_RZ_LLD_DRV_NAME
  71:D:/Work/DeviceTester/amazon-freertos/lib/third_party/mcu_vendor/renesas/rz_mcu_boards/core_package/generate/sc_drivers/r_ostm/src/lld\r_ostm_lld_rza2m.c **** };
  72:D:/Work/DeviceTester/amazon-freertos/lib/third_party/mcu_vendor/renesas/rz_mcu_boards/core_package/generate/sc_drivers/r_ostm/src/lld\r_ostm_lld_rza2m.c **** 
  73:D:/Work/DeviceTester/amazon-freertos/lib/third_party/mcu_vendor/renesas/rz_mcu_boards/core_package/generate/sc_drivers/r_ostm/src/lld\r_ostm_lld_rza2m.c **** static volatile struct st_ostm * const gsp_ostm_reg[OSTM_CH_MAX] =
  74:D:/Work/DeviceTester/amazon-freertos/lib/third_party/mcu_vendor/renesas/rz_mcu_boards/core_package/generate/sc_drivers/r_ostm/src/lld\r_ostm_lld_rza2m.c **** {
  75:D:/Work/DeviceTester/amazon-freertos/lib/third_party/mcu_vendor/renesas/rz_mcu_boards/core_package/generate/sc_drivers/r_ostm/src/lld\r_ostm_lld_rza2m.c ****     &OSTM0, &OSTM1, &OSTM2
  76:D:/Work/DeviceTester/amazon-freertos/lib/third_party/mcu_vendor/renesas/rz_mcu_boards/core_package/generate/sc_drivers/r_ostm/src/lld\r_ostm_lld_rza2m.c **** };
  77:D:/Work/DeviceTester/amazon-freertos/lib/third_party/mcu_vendor/renesas/rz_mcu_boards/core_package/generate/sc_drivers/r_ostm/src/lld\r_ostm_lld_rza2m.c **** 
  78:D:/Work/DeviceTester/amazon-freertos/lib/third_party/mcu_vendor/renesas/rz_mcu_boards/core_package/generate/sc_drivers/r_ostm/src/lld\r_ostm_lld_rza2m.c **** static const e_stb_module_t gs_ostm_module[] =
  79:D:/Work/DeviceTester/amazon-freertos/lib/third_party/mcu_vendor/renesas/rz_mcu_boards/core_package/generate/sc_drivers/r_ostm/src/lld\r_ostm_lld_rza2m.c **** {
  80:D:/Work/DeviceTester/amazon-freertos/lib/third_party/mcu_vendor/renesas/rz_mcu_boards/core_package/generate/sc_drivers/r_ostm/src/lld\r_ostm_lld_rza2m.c ****     MODULE_OSTM0,MODULE_OSTM1,MODULE_OSTM2
  81:D:/Work/DeviceTester/amazon-freertos/lib/third_party/mcu_vendor/renesas/rz_mcu_boards/core_package/generate/sc_drivers/r_ostm/src/lld\r_ostm_lld_rza2m.c **** };
  82:D:/Work/DeviceTester/amazon-freertos/lib/third_party/mcu_vendor/renesas/rz_mcu_boards/core_package/generate/sc_drivers/r_ostm/src/lld\r_ostm_lld_rza2m.c **** 
  83:D:/Work/DeviceTester/amazon-freertos/lib/third_party/mcu_vendor/renesas/rz_mcu_boards/core_package/generate/sc_drivers/r_ostm/src/lld\r_ostm_lld_rza2m.c **** static const e_r_drv_intc_intid_t gs_intid[OSTM_CH_MAX] =
  84:D:/Work/DeviceTester/amazon-freertos/lib/third_party/mcu_vendor/renesas/rz_mcu_boards/core_package/generate/sc_drivers/r_ostm/src/lld\r_ostm_lld_rza2m.c **** {
  85:D:/Work/DeviceTester/amazon-freertos/lib/third_party/mcu_vendor/renesas/rz_mcu_boards/core_package/generate/sc_drivers/r_ostm/src/lld\r_ostm_lld_rza2m.c ****     INTC_ID_OSTM_OSTMI0, INTC_ID_OSTM_OSTMI1, INTC_ID_OSTM_OSTMI2
  86:D:/Work/DeviceTester/amazon-freertos/lib/third_party/mcu_vendor/renesas/rz_mcu_boards/core_package/generate/sc_drivers/r_ostm/src/lld\r_ostm_lld_rza2m.c **** };
  87:D:/Work/DeviceTester/amazon-freertos/lib/third_party/mcu_vendor/renesas/rz_mcu_boards/core_package/generate/sc_drivers/r_ostm/src/lld\r_ostm_lld_rza2m.c **** 
  88:D:/Work/DeviceTester/amazon-freertos/lib/third_party/mcu_vendor/renesas/rz_mcu_boards/core_package/generate/sc_drivers/r_ostm/src/lld\r_ostm_lld_rza2m.c **** /**
  89:D:/Work/DeviceTester/amazon-freertos/lib/third_party/mcu_vendor/renesas/rz_mcu_boards/core_package/generate/sc_drivers/r_ostm/src/lld\r_ostm_lld_rza2m.c ****  * @fn             is_valid_mode
  90:D:/Work/DeviceTester/amazon-freertos/lib/third_party/mcu_vendor/renesas/rz_mcu_boards/core_package/generate/sc_drivers/r_ostm/src/lld\r_ostm_lld_rza2m.c ****  * @brief          Check if desired OSTM mode is valid or not
  91:D:/Work/DeviceTester/amazon-freertos/lib/third_party/mcu_vendor/renesas/rz_mcu_boards/core_package/generate/sc_drivers/r_ostm/src/lld\r_ostm_lld_rza2m.c ****  * @param[in]      mode: desired mode
  92:D:/Work/DeviceTester/amazon-freertos/lib/third_party/mcu_vendor/renesas/rz_mcu_boards/core_package/generate/sc_drivers/r_ostm/src/lld\r_ostm_lld_rza2m.c ****  * @retval         true  valid mode
  93:D:/Work/DeviceTester/amazon-freertos/lib/third_party/mcu_vendor/renesas/rz_mcu_boards/core_package/generate/sc_drivers/r_ostm/src/lld\r_ostm_lld_rza2m.c ****  * @retval         false invalid mode
  94:D:/Work/DeviceTester/amazon-freertos/lib/third_party/mcu_vendor/renesas/rz_mcu_boards/core_package/generate/sc_drivers/r_ostm/src/lld\r_ostm_lld_rza2m.c ****  */
  95:D:/Work/DeviceTester/amazon-freertos/lib/third_party/mcu_vendor/renesas/rz_mcu_boards/core_package/generate/sc_drivers/r_ostm/src/lld\r_ostm_lld_rza2m.c **** static bool_t is_valid_mode(e_r_drv_ostm_mode_t mode)
  96:D:/Work/DeviceTester/amazon-freertos/lib/third_party/mcu_vendor/renesas/rz_mcu_boards/core_package/generate/sc_drivers/r_ostm/src/lld\r_ostm_lld_rza2m.c **** {
  97:D:/Work/DeviceTester/amazon-freertos/lib/third_party/mcu_vendor/renesas/rz_mcu_boards/core_package/generate/sc_drivers/r_ostm/src/lld\r_ostm_lld_rza2m.c ****     return ((OSTM_MODE_INTERVAL == mode) || (OSTM_MODE_FREERUN == mode));
  98:D:/Work/DeviceTester/amazon-freertos/lib/third_party/mcu_vendor/renesas/rz_mcu_boards/core_package/generate/sc_drivers/r_ostm/src/lld\r_ostm_lld_rza2m.c **** }
  99:D:/Work/DeviceTester/amazon-freertos/lib/third_party/mcu_vendor/renesas/rz_mcu_boards/core_package/generate/sc_drivers/r_ostm/src/lld\r_ostm_lld_rza2m.c **** /******************************************************************************
 100:D:/Work/DeviceTester/amazon-freertos/lib/third_party/mcu_vendor/renesas/rz_mcu_boards/core_package/generate/sc_drivers/r_ostm/src/lld\r_ostm_lld_rza2m.c ****  * End of function is_valid_mode
 101:D:/Work/DeviceTester/amazon-freertos/lib/third_party/mcu_vendor/renesas/rz_mcu_boards/core_package/generate/sc_drivers/r_ostm/src/lld\r_ostm_lld_rza2m.c ****  ******************************************************************************/
 102:D:/Work/DeviceTester/amazon-freertos/lib/third_party/mcu_vendor/renesas/rz_mcu_boards/core_package/generate/sc_drivers/r_ostm/src/lld\r_ostm_lld_rza2m.c **** 
 103:D:/Work/DeviceTester/amazon-freertos/lib/third_party/mcu_vendor/renesas/rz_mcu_boards/core_package/generate/sc_drivers/r_ostm/src/lld\r_ostm_lld_rza2m.c **** /**
 104:D:/Work/DeviceTester/amazon-freertos/lib/third_party/mcu_vendor/renesas/rz_mcu_boards/core_package/generate/sc_drivers/r_ostm/src/lld\r_ostm_lld_rza2m.c ****  * @fn             is_valid_counter_format
 105:D:/Work/DeviceTester/amazon-freertos/lib/third_party/mcu_vendor/renesas/rz_mcu_boards/core_package/generate/sc_drivers/r_ostm/src/lld\r_ostm_lld_rza2m.c ****  * @brief          Check if desired counter format is valid or not
 106:D:/Work/DeviceTester/amazon-freertos/lib/third_party/mcu_vendor/renesas/rz_mcu_boards/core_package/generate/sc_drivers/r_ostm/src/lld\r_ostm_lld_rza2m.c ****  * @param[in]      format: desired format
 107:D:/Work/DeviceTester/amazon-freertos/lib/third_party/mcu_vendor/renesas/rz_mcu_boards/core_package/generate/sc_drivers/r_ostm/src/lld\r_ostm_lld_rza2m.c ****  * @retval         true  valid counter format
 108:D:/Work/DeviceTester/amazon-freertos/lib/third_party/mcu_vendor/renesas/rz_mcu_boards/core_package/generate/sc_drivers/r_ostm/src/lld\r_ostm_lld_rza2m.c ****  * @retval         false invalid counter format
 109:D:/Work/DeviceTester/amazon-freertos/lib/third_party/mcu_vendor/renesas/rz_mcu_boards/core_package/generate/sc_drivers/r_ostm/src/lld\r_ostm_lld_rza2m.c ****  */
 110:D:/Work/DeviceTester/amazon-freertos/lib/third_party/mcu_vendor/renesas/rz_mcu_boards/core_package/generate/sc_drivers/r_ostm/src/lld\r_ostm_lld_rza2m.c **** static bool_t is_valid_counter_format(e_r_drv_ostm_counter_format_t format)
 111:D:/Work/DeviceTester/amazon-freertos/lib/third_party/mcu_vendor/renesas/rz_mcu_boards/core_package/generate/sc_drivers/r_ostm/src/lld\r_ostm_lld_rza2m.c **** {
 112:D:/Work/DeviceTester/amazon-freertos/lib/third_party/mcu_vendor/renesas/rz_mcu_boards/core_package/generate/sc_drivers/r_ostm/src/lld\r_ostm_lld_rza2m.c ****     return ((OSTM_TIME_MS == format) || (OSTM_TIME_COUNT == format));
 113:D:/Work/DeviceTester/amazon-freertos/lib/third_party/mcu_vendor/renesas/rz_mcu_boards/core_package/generate/sc_drivers/r_ostm/src/lld\r_ostm_lld_rza2m.c **** }
 114:D:/Work/DeviceTester/amazon-freertos/lib/third_party/mcu_vendor/renesas/rz_mcu_boards/core_package/generate/sc_drivers/r_ostm/src/lld\r_ostm_lld_rza2m.c **** /******************************************************************************
 115:D:/Work/DeviceTester/amazon-freertos/lib/third_party/mcu_vendor/renesas/rz_mcu_boards/core_package/generate/sc_drivers/r_ostm/src/lld\r_ostm_lld_rza2m.c ****  * End of function is_valid_counter_format
 116:D:/Work/DeviceTester/amazon-freertos/lib/third_party/mcu_vendor/renesas/rz_mcu_boards/core_package/generate/sc_drivers/r_ostm/src/lld\r_ostm_lld_rza2m.c ****  ******************************************************************************/
 117:D:/Work/DeviceTester/amazon-freertos/lib/third_party/mcu_vendor/renesas/rz_mcu_boards/core_package/generate/sc_drivers/r_ostm/src/lld\r_ostm_lld_rza2m.c **** 
 118:D:/Work/DeviceTester/amazon-freertos/lib/third_party/mcu_vendor/renesas/rz_mcu_boards/core_package/generate/sc_drivers/r_ostm/src/lld\r_ostm_lld_rza2m.c **** /**
 119:D:/Work/DeviceTester/amazon-freertos/lib/third_party/mcu_vendor/renesas/rz_mcu_boards/core_package/generate/sc_drivers/r_ostm/src/lld\r_ostm_lld_rza2m.c ****  * @fn             is_valid_start_interrupt
 120:D:/Work/DeviceTester/amazon-freertos/lib/third_party/mcu_vendor/renesas/rz_mcu_boards/core_package/generate/sc_drivers/r_ostm/src/lld\r_ostm_lld_rza2m.c ****  * @brief          Check if desired start_interrupt parameter is valid or not
 121:D:/Work/DeviceTester/amazon-freertos/lib/third_party/mcu_vendor/renesas/rz_mcu_boards/core_package/generate/sc_drivers/r_ostm/src/lld\r_ostm_lld_rza2m.c ****  * @param[in]      start_interrupt: desired start_interrupt parameter
 122:D:/Work/DeviceTester/amazon-freertos/lib/third_party/mcu_vendor/renesas/rz_mcu_boards/core_package/generate/sc_drivers/r_ostm/src/lld\r_ostm_lld_rza2m.c ****  * @retval         true  valid start_interrupt parameter
 123:D:/Work/DeviceTester/amazon-freertos/lib/third_party/mcu_vendor/renesas/rz_mcu_boards/core_package/generate/sc_drivers/r_ostm/src/lld\r_ostm_lld_rza2m.c ****  * @retval         false invalid start_interrupt parameter
 124:D:/Work/DeviceTester/amazon-freertos/lib/third_party/mcu_vendor/renesas/rz_mcu_boards/core_package/generate/sc_drivers/r_ostm/src/lld\r_ostm_lld_rza2m.c ****  */
 125:D:/Work/DeviceTester/amazon-freertos/lib/third_party/mcu_vendor/renesas/rz_mcu_boards/core_package/generate/sc_drivers/r_ostm/src/lld\r_ostm_lld_rza2m.c **** static bool_t is_valid_start_interrupt(e_r_drv_start_interrupt_t start_interrupt)
 126:D:/Work/DeviceTester/amazon-freertos/lib/third_party/mcu_vendor/renesas/rz_mcu_boards/core_package/generate/sc_drivers/r_ostm/src/lld\r_ostm_lld_rza2m.c **** {
 127:D:/Work/DeviceTester/amazon-freertos/lib/third_party/mcu_vendor/renesas/rz_mcu_boards/core_package/generate/sc_drivers/r_ostm/src/lld\r_ostm_lld_rza2m.c ****     return ((OSTM_START_INTERRUPT_OFF == start_interrupt) || (OSTM_START_INTERRUPT_ON == start_inte
 128:D:/Work/DeviceTester/amazon-freertos/lib/third_party/mcu_vendor/renesas/rz_mcu_boards/core_package/generate/sc_drivers/r_ostm/src/lld\r_ostm_lld_rza2m.c **** }
 129:D:/Work/DeviceTester/amazon-freertos/lib/third_party/mcu_vendor/renesas/rz_mcu_boards/core_package/generate/sc_drivers/r_ostm/src/lld\r_ostm_lld_rza2m.c **** /******************************************************************************
 130:D:/Work/DeviceTester/amazon-freertos/lib/third_party/mcu_vendor/renesas/rz_mcu_boards/core_package/generate/sc_drivers/r_ostm/src/lld\r_ostm_lld_rza2m.c ****  * End of function is_valid_start_interrupt
 131:D:/Work/DeviceTester/amazon-freertos/lib/third_party/mcu_vendor/renesas/rz_mcu_boards/core_package/generate/sc_drivers/r_ostm/src/lld\r_ostm_lld_rza2m.c ****  ******************************************************************************/
 132:D:/Work/DeviceTester/amazon-freertos/lib/third_party/mcu_vendor/renesas/rz_mcu_boards/core_package/generate/sc_drivers/r_ostm/src/lld\r_ostm_lld_rza2m.c **** 
 133:D:/Work/DeviceTester/amazon-freertos/lib/third_party/mcu_vendor/renesas/rz_mcu_boards/core_package/generate/sc_drivers/r_ostm/src/lld\r_ostm_lld_rza2m.c **** /**
 134:D:/Work/DeviceTester/amazon-freertos/lib/third_party/mcu_vendor/renesas/rz_mcu_boards/core_package/generate/sc_drivers/r_ostm/src/lld\r_ostm_lld_rza2m.c ****  * @fn             is_valid_interrupt
 135:D:/Work/DeviceTester/amazon-freertos/lib/third_party/mcu_vendor/renesas/rz_mcu_boards/core_package/generate/sc_drivers/r_ostm/src/lld\r_ostm_lld_rza2m.c ****  * @brief          Check if desired interrupt parameter is valid or not
 136:D:/Work/DeviceTester/amazon-freertos/lib/third_party/mcu_vendor/renesas/rz_mcu_boards/core_package/generate/sc_drivers/r_ostm/src/lld\r_ostm_lld_rza2m.c ****  * @param[in]      interrupt: desired interrupt parameter
 137:D:/Work/DeviceTester/amazon-freertos/lib/third_party/mcu_vendor/renesas/rz_mcu_boards/core_package/generate/sc_drivers/r_ostm/src/lld\r_ostm_lld_rza2m.c ****  * @retval         true  valid interrupt parameter
 138:D:/Work/DeviceTester/amazon-freertos/lib/third_party/mcu_vendor/renesas/rz_mcu_boards/core_package/generate/sc_drivers/r_ostm/src/lld\r_ostm_lld_rza2m.c ****  * @retval         false invalid interrupt parameter
 139:D:/Work/DeviceTester/amazon-freertos/lib/third_party/mcu_vendor/renesas/rz_mcu_boards/core_package/generate/sc_drivers/r_ostm/src/lld\r_ostm_lld_rza2m.c ****  */
 140:D:/Work/DeviceTester/amazon-freertos/lib/third_party/mcu_vendor/renesas/rz_mcu_boards/core_package/generate/sc_drivers/r_ostm/src/lld\r_ostm_lld_rza2m.c **** static bool_t is_valid_interrupt(e_r_drv_intc_enable_t interrupt)
 141:D:/Work/DeviceTester/amazon-freertos/lib/third_party/mcu_vendor/renesas/rz_mcu_boards/core_package/generate/sc_drivers/r_ostm/src/lld\r_ostm_lld_rza2m.c **** {
 142:D:/Work/DeviceTester/amazon-freertos/lib/third_party/mcu_vendor/renesas/rz_mcu_boards/core_package/generate/sc_drivers/r_ostm/src/lld\r_ostm_lld_rza2m.c ****     return ((INTC_ENABLE == interrupt) || (INTC_DISABLE == interrupt));
 143:D:/Work/DeviceTester/amazon-freertos/lib/third_party/mcu_vendor/renesas/rz_mcu_boards/core_package/generate/sc_drivers/r_ostm/src/lld\r_ostm_lld_rza2m.c **** }
 144:D:/Work/DeviceTester/amazon-freertos/lib/third_party/mcu_vendor/renesas/rz_mcu_boards/core_package/generate/sc_drivers/r_ostm/src/lld\r_ostm_lld_rza2m.c **** /******************************************************************************
 145:D:/Work/DeviceTester/amazon-freertos/lib/third_party/mcu_vendor/renesas/rz_mcu_boards/core_package/generate/sc_drivers/r_ostm/src/lld\r_ostm_lld_rza2m.c ****  * End of function is_valid_interrupt
 146:D:/Work/DeviceTester/amazon-freertos/lib/third_party/mcu_vendor/renesas/rz_mcu_boards/core_package/generate/sc_drivers/r_ostm/src/lld\r_ostm_lld_rza2m.c ****  ******************************************************************************/
 147:D:/Work/DeviceTester/amazon-freertos/lib/third_party/mcu_vendor/renesas/rz_mcu_boards/core_package/generate/sc_drivers/r_ostm/src/lld\r_ostm_lld_rza2m.c **** 
 148:D:/Work/DeviceTester/amazon-freertos/lib/third_party/mcu_vendor/renesas/rz_mcu_boards/core_package/generate/sc_drivers/r_ostm/src/lld\r_ostm_lld_rza2m.c **** /**
 149:D:/Work/DeviceTester/amazon-freertos/lib/third_party/mcu_vendor/renesas/rz_mcu_boards/core_package/generate/sc_drivers/r_ostm/src/lld\r_ostm_lld_rza2m.c ****  * @fn             get_p1clk
 150:D:/Work/DeviceTester/amazon-freertos/lib/third_party/mcu_vendor/renesas/rz_mcu_boards/core_package/generate/sc_drivers/r_ostm/src/lld\r_ostm_lld_rza2m.c ****  * @brief          Interrogate the CPG driver to get the P1 clock frequency
 151:D:/Work/DeviceTester/amazon-freertos/lib/third_party/mcu_vendor/renesas/rz_mcu_boards/core_package/generate/sc_drivers/r_ostm/src/lld\r_ostm_lld_rza2m.c ****  * @param[out]     p1clk - the P1 clock frequency in KHz
 152:D:/Work/DeviceTester/amazon-freertos/lib/third_party/mcu_vendor/renesas/rz_mcu_boards/core_package/generate/sc_drivers/r_ostm/src/lld\r_ostm_lld_rza2m.c ****  * @retval         DRV_ERROR or DRV_SUCCESS
 153:D:/Work/DeviceTester/amazon-freertos/lib/third_party/mcu_vendor/renesas/rz_mcu_boards/core_package/generate/sc_drivers/r_ostm/src/lld\r_ostm_lld_rza2m.c ****  */
 154:D:/Work/DeviceTester/amazon-freertos/lib/third_party/mcu_vendor/renesas/rz_mcu_boards/core_package/generate/sc_drivers/r_ostm/src/lld\r_ostm_lld_rza2m.c **** static int_t get_p1clk(float64_t *p1clk)
 155:D:/Work/DeviceTester/amazon-freertos/lib/third_party/mcu_vendor/renesas/rz_mcu_boards/core_package/generate/sc_drivers/r_ostm/src/lld\r_ostm_lld_rza2m.c **** {
 156:D:/Work/DeviceTester/amazon-freertos/lib/third_party/mcu_vendor/renesas/rz_mcu_boards/core_package/generate/sc_drivers/r_ostm/src/lld\r_ostm_lld_rza2m.c ****     int_t cpg_handle;
 157:D:/Work/DeviceTester/amazon-freertos/lib/third_party/mcu_vendor/renesas/rz_mcu_boards/core_package/generate/sc_drivers/r_ostm/src/lld\r_ostm_lld_rza2m.c ****     int_t retval;
 158:D:/Work/DeviceTester/amazon-freertos/lib/third_party/mcu_vendor/renesas/rz_mcu_boards/core_package/generate/sc_drivers/r_ostm/src/lld\r_ostm_lld_rza2m.c ****     st_r_drv_cpg_get_clk_t cpg_get_clock_t;
 159:D:/Work/DeviceTester/amazon-freertos/lib/third_party/mcu_vendor/renesas/rz_mcu_boards/core_package/generate/sc_drivers/r_ostm/src/lld\r_ostm_lld_rza2m.c **** 
 160:D:/Work/DeviceTester/amazon-freertos/lib/third_party/mcu_vendor/renesas/rz_mcu_boards/core_package/generate/sc_drivers/r_ostm/src/lld\r_ostm_lld_rza2m.c ****     /* open the CPG driver */
 161:D:/Work/DeviceTester/amazon-freertos/lib/third_party/mcu_vendor/renesas/rz_mcu_boards/core_package/generate/sc_drivers/r_ostm/src/lld\r_ostm_lld_rza2m.c ****     cpg_handle = open(DEVICE_INDENTIFIER"cpg", O_RDWR);
 162:D:/Work/DeviceTester/amazon-freertos/lib/third_party/mcu_vendor/renesas/rz_mcu_boards/core_package/generate/sc_drivers/r_ostm/src/lld\r_ostm_lld_rza2m.c ****     if (cpg_handle < 0)
 163:D:/Work/DeviceTester/amazon-freertos/lib/third_party/mcu_vendor/renesas/rz_mcu_boards/core_package/generate/sc_drivers/r_ostm/src/lld\r_ostm_lld_rza2m.c ****     {
 164:D:/Work/DeviceTester/amazon-freertos/lib/third_party/mcu_vendor/renesas/rz_mcu_boards/core_package/generate/sc_drivers/r_ostm/src/lld\r_ostm_lld_rza2m.c ****         return (DRV_ERROR);
 165:D:/Work/DeviceTester/amazon-freertos/lib/third_party/mcu_vendor/renesas/rz_mcu_boards/core_package/generate/sc_drivers/r_ostm/src/lld\r_ostm_lld_rza2m.c ****     }
 166:D:/Work/DeviceTester/amazon-freertos/lib/third_party/mcu_vendor/renesas/rz_mcu_boards/core_package/generate/sc_drivers/r_ostm/src/lld\r_ostm_lld_rza2m.c **** 
 167:D:/Work/DeviceTester/amazon-freertos/lib/third_party/mcu_vendor/renesas/rz_mcu_boards/core_package/generate/sc_drivers/r_ostm/src/lld\r_ostm_lld_rza2m.c ****     /* interrogate the CPG driver for the P1 clock frequency */
 168:D:/Work/DeviceTester/amazon-freertos/lib/third_party/mcu_vendor/renesas/rz_mcu_boards/core_package/generate/sc_drivers/r_ostm/src/lld\r_ostm_lld_rza2m.c ****     cpg_get_clock_t.freq_src = CPG_FREQ_P1CLK;
 169:D:/Work/DeviceTester/amazon-freertos/lib/third_party/mcu_vendor/renesas/rz_mcu_boards/core_package/generate/sc_drivers/r_ostm/src/lld\r_ostm_lld_rza2m.c ****     retval = control(cpg_handle, CTL_CPG_GET_CLK, &cpg_get_clock_t);
 170:D:/Work/DeviceTester/amazon-freertos/lib/third_party/mcu_vendor/renesas/rz_mcu_boards/core_package/generate/sc_drivers/r_ostm/src/lld\r_ostm_lld_rza2m.c **** 
 171:D:/Work/DeviceTester/amazon-freertos/lib/third_party/mcu_vendor/renesas/rz_mcu_boards/core_package/generate/sc_drivers/r_ostm/src/lld\r_ostm_lld_rza2m.c ****     *p1clk = cpg_get_clock_t.clk_frequency_khz;
 172:D:/Work/DeviceTester/amazon-freertos/lib/third_party/mcu_vendor/renesas/rz_mcu_boards/core_package/generate/sc_drivers/r_ostm/src/lld\r_ostm_lld_rza2m.c **** 
 173:D:/Work/DeviceTester/amazon-freertos/lib/third_party/mcu_vendor/renesas/rz_mcu_boards/core_package/generate/sc_drivers/r_ostm/src/lld\r_ostm_lld_rza2m.c ****     /* close the CPG driver */
 174:D:/Work/DeviceTester/amazon-freertos/lib/third_party/mcu_vendor/renesas/rz_mcu_boards/core_package/generate/sc_drivers/r_ostm/src/lld\r_ostm_lld_rza2m.c ****     direct_close(cpg_handle);
 175:D:/Work/DeviceTester/amazon-freertos/lib/third_party/mcu_vendor/renesas/rz_mcu_boards/core_package/generate/sc_drivers/r_ostm/src/lld\r_ostm_lld_rza2m.c **** 
 176:D:/Work/DeviceTester/amazon-freertos/lib/third_party/mcu_vendor/renesas/rz_mcu_boards/core_package/generate/sc_drivers/r_ostm/src/lld\r_ostm_lld_rza2m.c ****     return (retval);
 177:D:/Work/DeviceTester/amazon-freertos/lib/third_party/mcu_vendor/renesas/rz_mcu_boards/core_package/generate/sc_drivers/r_ostm/src/lld\r_ostm_lld_rza2m.c **** }
 178:D:/Work/DeviceTester/amazon-freertos/lib/third_party/mcu_vendor/renesas/rz_mcu_boards/core_package/generate/sc_drivers/r_ostm/src/lld\r_ostm_lld_rza2m.c **** /******************************************************************************
 179:D:/Work/DeviceTester/amazon-freertos/lib/third_party/mcu_vendor/renesas/rz_mcu_boards/core_package/generate/sc_drivers/r_ostm/src/lld\r_ostm_lld_rza2m.c ****  * End of function get_p1clk
 180:D:/Work/DeviceTester/amazon-freertos/lib/third_party/mcu_vendor/renesas/rz_mcu_boards/core_package/generate/sc_drivers/r_ostm/src/lld\r_ostm_lld_rza2m.c ****  ******************************************************************************/
 181:D:/Work/DeviceTester/amazon-freertos/lib/third_party/mcu_vendor/renesas/rz_mcu_boards/core_package/generate/sc_drivers/r_ostm/src/lld\r_ostm_lld_rza2m.c **** 
 182:D:/Work/DeviceTester/amazon-freertos/lib/third_party/mcu_vendor/renesas/rz_mcu_boards/core_package/generate/sc_drivers/r_ostm/src/lld\r_ostm_lld_rza2m.c **** /**
 183:D:/Work/DeviceTester/amazon-freertos/lib/third_party/mcu_vendor/renesas/rz_mcu_boards/core_package/generate/sc_drivers/r_ostm/src/lld\r_ostm_lld_rza2m.c ****  * @fn             calc_interval
 184:D:/Work/DeviceTester/amazon-freertos/lib/third_party/mcu_vendor/renesas/rz_mcu_boards/core_package/generate/sc_drivers/r_ostm/src/lld\r_ostm_lld_rza2m.c ****  * @brief          Calculate compare match counter for using interval timer mode
 185:D:/Work/DeviceTester/amazon-freertos/lib/third_party/mcu_vendor/renesas/rz_mcu_boards/core_package/generate/sc_drivers/r_ostm/src/lld\r_ostm_lld_rza2m.c ****  * @param[in]      msec:      timer duration
 186:D:/Work/DeviceTester/amazon-freertos/lib/third_party/mcu_vendor/renesas/rz_mcu_boards/core_package/generate/sc_drivers/r_ostm/src/lld\r_ostm_lld_rza2m.c ****  * @param[out]     p_compare: compare value
 187:D:/Work/DeviceTester/amazon-freertos/lib/third_party/mcu_vendor/renesas/rz_mcu_boards/core_package/generate/sc_drivers/r_ostm/src/lld\r_ostm_lld_rza2m.c ****  * @retval         true  result fits in 32bit unsigned value
 188:D:/Work/DeviceTester/amazon-freertos/lib/third_party/mcu_vendor/renesas/rz_mcu_boards/core_package/generate/sc_drivers/r_ostm/src/lld\r_ostm_lld_rza2m.c ****  * @retval         false result overs out of 32bit unsigned value
 189:D:/Work/DeviceTester/amazon-freertos/lib/third_party/mcu_vendor/renesas/rz_mcu_boards/core_package/generate/sc_drivers/r_ostm/src/lld\r_ostm_lld_rza2m.c ****  */
 190:D:/Work/DeviceTester/amazon-freertos/lib/third_party/mcu_vendor/renesas/rz_mcu_boards/core_package/generate/sc_drivers/r_ostm/src/lld\r_ostm_lld_rza2m.c **** static int_t calc_interval(uint32_t msec, uint32_t *p_compare)
 191:D:/Work/DeviceTester/amazon-freertos/lib/third_party/mcu_vendor/renesas/rz_mcu_boards/core_package/generate/sc_drivers/r_ostm/src/lld\r_ostm_lld_rza2m.c **** {
 192:D:/Work/DeviceTester/amazon-freertos/lib/third_party/mcu_vendor/renesas/rz_mcu_boards/core_package/generate/sc_drivers/r_ostm/src/lld\r_ostm_lld_rza2m.c ****     int_t err;
 193:D:/Work/DeviceTester/amazon-freertos/lib/third_party/mcu_vendor/renesas/rz_mcu_boards/core_package/generate/sc_drivers/r_ostm/src/lld\r_ostm_lld_rza2m.c ****     float64_t p1clk;
 194:D:/Work/DeviceTester/amazon-freertos/lib/third_party/mcu_vendor/renesas/rz_mcu_boards/core_package/generate/sc_drivers/r_ostm/src/lld\r_ostm_lld_rza2m.c ****     uint64_t count;
 195:D:/Work/DeviceTester/amazon-freertos/lib/third_party/mcu_vendor/renesas/rz_mcu_boards/core_package/generate/sc_drivers/r_ostm/src/lld\r_ostm_lld_rza2m.c **** 
 196:D:/Work/DeviceTester/amazon-freertos/lib/third_party/mcu_vendor/renesas/rz_mcu_boards/core_package/generate/sc_drivers/r_ostm/src/lld\r_ostm_lld_rza2m.c ****     err = DRV_SUCCESS;
 197:D:/Work/DeviceTester/amazon-freertos/lib/third_party/mcu_vendor/renesas/rz_mcu_boards/core_package/generate/sc_drivers/r_ostm/src/lld\r_ostm_lld_rza2m.c **** 
 198:D:/Work/DeviceTester/amazon-freertos/lib/third_party/mcu_vendor/renesas/rz_mcu_boards/core_package/generate/sc_drivers/r_ostm/src/lld\r_ostm_lld_rza2m.c ****     /* get current P1CLK frequency */
 199:D:/Work/DeviceTester/amazon-freertos/lib/third_party/mcu_vendor/renesas/rz_mcu_boards/core_package/generate/sc_drivers/r_ostm/src/lld\r_ostm_lld_rza2m.c ****     if (get_p1clk(&p1clk) != DRV_SUCCESS)
 200:D:/Work/DeviceTester/amazon-freertos/lib/third_party/mcu_vendor/renesas/rz_mcu_boards/core_package/generate/sc_drivers/r_ostm/src/lld\r_ostm_lld_rza2m.c ****     {
 201:D:/Work/DeviceTester/amazon-freertos/lib/third_party/mcu_vendor/renesas/rz_mcu_boards/core_package/generate/sc_drivers/r_ostm/src/lld\r_ostm_lld_rza2m.c ****         return (DRV_ERROR);
 202:D:/Work/DeviceTester/amazon-freertos/lib/third_party/mcu_vendor/renesas/rz_mcu_boards/core_package/generate/sc_drivers/r_ostm/src/lld\r_ostm_lld_rza2m.c ****     }
 203:D:/Work/DeviceTester/amazon-freertos/lib/third_party/mcu_vendor/renesas/rz_mcu_boards/core_package/generate/sc_drivers/r_ostm/src/lld\r_ostm_lld_rza2m.c **** 
 204:D:/Work/DeviceTester/amazon-freertos/lib/third_party/mcu_vendor/renesas/rz_mcu_boards/core_package/generate/sc_drivers/r_ostm/src/lld\r_ostm_lld_rza2m.c ****     /* calculate compare register value for interval timer mode
 205:D:/Work/DeviceTester/amazon-freertos/lib/third_party/mcu_vendor/renesas/rz_mcu_boards/core_package/generate/sc_drivers/r_ostm/src/lld\r_ostm_lld_rza2m.c ****      * (P1CLK(KHz) * [interval duration]) - 1
 206:D:/Work/DeviceTester/amazon-freertos/lib/third_party/mcu_vendor/renesas/rz_mcu_boards/core_package/generate/sc_drivers/r_ostm/src/lld\r_ostm_lld_rza2m.c ****      * to keeping the accuracy, keep in 64bit float while multiply.
 207:D:/Work/DeviceTester/amazon-freertos/lib/third_party/mcu_vendor/renesas/rz_mcu_boards/core_package/generate/sc_drivers/r_ostm/src/lld\r_ostm_lld_rza2m.c ****      */
 208:D:/Work/DeviceTester/amazon-freertos/lib/third_party/mcu_vendor/renesas/rz_mcu_boards/core_package/generate/sc_drivers/r_ostm/src/lld\r_ostm_lld_rza2m.c ****     count = (uint64_t)((float64_t) msec * p1clk);
 209:D:/Work/DeviceTester/amazon-freertos/lib/third_party/mcu_vendor/renesas/rz_mcu_boards/core_package/generate/sc_drivers/r_ostm/src/lld\r_ostm_lld_rza2m.c ****     count--;
 210:D:/Work/DeviceTester/amazon-freertos/lib/third_party/mcu_vendor/renesas/rz_mcu_boards/core_package/generate/sc_drivers/r_ostm/src/lld\r_ostm_lld_rza2m.c **** 
 211:D:/Work/DeviceTester/amazon-freertos/lib/third_party/mcu_vendor/renesas/rz_mcu_boards/core_package/generate/sc_drivers/r_ostm/src/lld\r_ostm_lld_rza2m.c ****     /* check whether the result overflow or not */
 212:D:/Work/DeviceTester/amazon-freertos/lib/third_party/mcu_vendor/renesas/rz_mcu_boards/core_package/generate/sc_drivers/r_ostm/src/lld\r_ostm_lld_rza2m.c ****     if (count > UINT32_MAX)
 213:D:/Work/DeviceTester/amazon-freertos/lib/third_party/mcu_vendor/renesas/rz_mcu_boards/core_package/generate/sc_drivers/r_ostm/src/lld\r_ostm_lld_rza2m.c ****     {
 214:D:/Work/DeviceTester/amazon-freertos/lib/third_party/mcu_vendor/renesas/rz_mcu_boards/core_package/generate/sc_drivers/r_ostm/src/lld\r_ostm_lld_rza2m.c ****         err = DRV_ERROR;
 215:D:/Work/DeviceTester/amazon-freertos/lib/third_party/mcu_vendor/renesas/rz_mcu_boards/core_package/generate/sc_drivers/r_ostm/src/lld\r_ostm_lld_rza2m.c ****     }
 216:D:/Work/DeviceTester/amazon-freertos/lib/third_party/mcu_vendor/renesas/rz_mcu_boards/core_package/generate/sc_drivers/r_ostm/src/lld\r_ostm_lld_rza2m.c ****     else
 217:D:/Work/DeviceTester/amazon-freertos/lib/third_party/mcu_vendor/renesas/rz_mcu_boards/core_package/generate/sc_drivers/r_ostm/src/lld\r_ostm_lld_rza2m.c ****     {
 218:D:/Work/DeviceTester/amazon-freertos/lib/third_party/mcu_vendor/renesas/rz_mcu_boards/core_package/generate/sc_drivers/r_ostm/src/lld\r_ostm_lld_rza2m.c ****         /* only if result is fit in 32-bit unsigned value */
 219:D:/Work/DeviceTester/amazon-freertos/lib/third_party/mcu_vendor/renesas/rz_mcu_boards/core_package/generate/sc_drivers/r_ostm/src/lld\r_ostm_lld_rza2m.c ****         *p_compare = (uint32_t) count;
 220:D:/Work/DeviceTester/amazon-freertos/lib/third_party/mcu_vendor/renesas/rz_mcu_boards/core_package/generate/sc_drivers/r_ostm/src/lld\r_ostm_lld_rza2m.c ****     }
 221:D:/Work/DeviceTester/amazon-freertos/lib/third_party/mcu_vendor/renesas/rz_mcu_boards/core_package/generate/sc_drivers/r_ostm/src/lld\r_ostm_lld_rza2m.c **** 
 222:D:/Work/DeviceTester/amazon-freertos/lib/third_party/mcu_vendor/renesas/rz_mcu_boards/core_package/generate/sc_drivers/r_ostm/src/lld\r_ostm_lld_rza2m.c ****     return (err);
 223:D:/Work/DeviceTester/amazon-freertos/lib/third_party/mcu_vendor/renesas/rz_mcu_boards/core_package/generate/sc_drivers/r_ostm/src/lld\r_ostm_lld_rza2m.c **** }
 224:D:/Work/DeviceTester/amazon-freertos/lib/third_party/mcu_vendor/renesas/rz_mcu_boards/core_package/generate/sc_drivers/r_ostm/src/lld\r_ostm_lld_rza2m.c **** /******************************************************************************
 225:D:/Work/DeviceTester/amazon-freertos/lib/third_party/mcu_vendor/renesas/rz_mcu_boards/core_package/generate/sc_drivers/r_ostm/src/lld\r_ostm_lld_rza2m.c ****  * End of function calc_interval
 226:D:/Work/DeviceTester/amazon-freertos/lib/third_party/mcu_vendor/renesas/rz_mcu_boards/core_package/generate/sc_drivers/r_ostm/src/lld\r_ostm_lld_rza2m.c ****  ******************************************************************************/
 227:D:/Work/DeviceTester/amazon-freertos/lib/third_party/mcu_vendor/renesas/rz_mcu_boards/core_package/generate/sc_drivers/r_ostm/src/lld\r_ostm_lld_rza2m.c **** 
 228:D:/Work/DeviceTester/amazon-freertos/lib/third_party/mcu_vendor/renesas/rz_mcu_boards/core_package/generate/sc_drivers/r_ostm/src/lld\r_ostm_lld_rza2m.c **** /**
 229:D:/Work/DeviceTester/amazon-freertos/lib/third_party/mcu_vendor/renesas/rz_mcu_boards/core_package/generate/sc_drivers/r_ostm/src/lld\r_ostm_lld_rza2m.c ****  * @fn             calc_compare
 230:D:/Work/DeviceTester/amazon-freertos/lib/third_party/mcu_vendor/renesas/rz_mcu_boards/core_package/generate/sc_drivers/r_ostm/src/lld\r_ostm_lld_rza2m.c ****  * @brief          Calculate compare match counter for using free-run compare mode
 231:D:/Work/DeviceTester/amazon-freertos/lib/third_party/mcu_vendor/renesas/rz_mcu_boards/core_package/generate/sc_drivers/r_ostm/src/lld\r_ostm_lld_rza2m.c ****  * @param[in]      msec:      timer duration
 232:D:/Work/DeviceTester/amazon-freertos/lib/third_party/mcu_vendor/renesas/rz_mcu_boards/core_package/generate/sc_drivers/r_ostm/src/lld\r_ostm_lld_rza2m.c ****  * @param[out]     p_compare: compare value
 233:D:/Work/DeviceTester/amazon-freertos/lib/third_party/mcu_vendor/renesas/rz_mcu_boards/core_package/generate/sc_drivers/r_ostm/src/lld\r_ostm_lld_rza2m.c ****  * @retval         true  result fits in 32bit unsigned value
 234:D:/Work/DeviceTester/amazon-freertos/lib/third_party/mcu_vendor/renesas/rz_mcu_boards/core_package/generate/sc_drivers/r_ostm/src/lld\r_ostm_lld_rza2m.c ****  * @retval         false result overs out of 32bit unsigned value
 235:D:/Work/DeviceTester/amazon-freertos/lib/third_party/mcu_vendor/renesas/rz_mcu_boards/core_package/generate/sc_drivers/r_ostm/src/lld\r_ostm_lld_rza2m.c ****  */
 236:D:/Work/DeviceTester/amazon-freertos/lib/third_party/mcu_vendor/renesas/rz_mcu_boards/core_package/generate/sc_drivers/r_ostm/src/lld\r_ostm_lld_rza2m.c **** static int_t calc_compare(uint32_t msec, uint32_t *p_compare)
 237:D:/Work/DeviceTester/amazon-freertos/lib/third_party/mcu_vendor/renesas/rz_mcu_boards/core_package/generate/sc_drivers/r_ostm/src/lld\r_ostm_lld_rza2m.c **** {
  26              		.loc 1 237 0
  27              		.cfi_startproc
  28              		@ args = 0, pretend = 0, frame = 16
  29              		@ frame_needed = 0, uses_anonymous_args = 0
  30              	.LVL0:
  31 0000 70402DE9 		push	{r4, r5, r6, lr}
  32              		.cfi_def_cfa_offset 16
  33              		.cfi_offset 4, -16
  34              		.cfi_offset 5, -12
  35              		.cfi_offset 6, -8
  36              		.cfi_offset 14, -4
  37 0004 0150A0E1 		mov	r5, r1
  38 0008 048B2DED 		vpush.64	{d8, d9}
  39              		.cfi_def_cfa_offset 32
  40              		.cfi_offset 80, -32
  41              		.cfi_offset 81, -28
  42              		.cfi_offset 82, -24
  43              		.cfi_offset 83, -20
  44              	.LBB12:
  45              	.LBB13:
 161:D:/Work/DeviceTester/amazon-freertos/lib/third_party/mcu_vendor/renesas/rz_mcu_boards/core_package/generate/sc_drivers/r_ostm/src/lld\r_ostm_lld_rza2m.c ****     if (cpg_handle < 0)
  46              		.loc 1 161 0
  47 000c 0210A0E3 		mov	r1, #2
  48              	.LVL1:
  49              	.LBE13:
  50              	.LBE12:
  51              		.loc 1 237 0
  52 0010 10D04DE2 		sub	sp, sp, #16
  53              		.cfi_def_cfa_offset 48
  54              		.loc 1 237 0
  55 0014 100A08EE 		vmov	s16, r0	@ int
  56              	.LBB15:
  57              	.LBB14:
 161:D:/Work/DeviceTester/amazon-freertos/lib/third_party/mcu_vendor/renesas/rz_mcu_boards/core_package/generate/sc_drivers/r_ostm/src/lld\r_ostm_lld_rza2m.c ****     if (cpg_handle < 0)
  58              		.loc 1 161 0
  59 0018 78009FE5 		ldr	r0, .L7
  60              	.LVL2:
  61 001c FEFFFFEB 		bl	open
  62              	.LVL3:
 162:D:/Work/DeviceTester/amazon-freertos/lib/third_party/mcu_vendor/renesas/rz_mcu_boards/core_package/generate/sc_drivers/r_ostm/src/lld\r_ostm_lld_rza2m.c ****     {
  63              		.loc 1 162 0
  64 0020 006050E2 		subs	r6, r0, #0
  65 0024 170000BA 		blt	.L2
 168:D:/Work/DeviceTester/amazon-freertos/lib/third_party/mcu_vendor/renesas/rz_mcu_boards/core_package/generate/sc_drivers/r_ostm/src/lld\r_ostm_lld_rza2m.c ****     retval = control(cpg_handle, CTL_CPG_GET_CLK, &cpg_get_clock_t);
  66              		.loc 1 168 0
  67 0028 10208DE2 		add	r2, sp, #16
  68 002c 0430A0E3 		mov	r3, #4
  69 0030 103062E5 		strb	r3, [r2, #-16]!
 169:D:/Work/DeviceTester/amazon-freertos/lib/third_party/mcu_vendor/renesas/rz_mcu_boards/core_package/generate/sc_drivers/r_ostm/src/lld\r_ostm_lld_rza2m.c **** 
  70              		.loc 1 169 0
  71 0034 0610A0E3 		mov	r1, #6
  72 0038 FEFFFFEB 		bl	control
  73              	.LVL4:
  74 003c 0040A0E1 		mov	r4, r0
  75              	.LVL5:
 174:D:/Work/DeviceTester/amazon-freertos/lib/third_party/mcu_vendor/renesas/rz_mcu_boards/core_package/generate/sc_drivers/r_ostm/src/lld\r_ostm_lld_rza2m.c **** 
  76              		.loc 1 174 0
  77 0040 0600A0E1 		mov	r0, r6
  78              	.LVL6:
 171:D:/Work/DeviceTester/amazon-freertos/lib/third_party/mcu_vendor/renesas/rz_mcu_boards/core_package/generate/sc_drivers/r_ostm/src/lld\r_ostm_lld_rza2m.c **** 
  79              		.loc 1 171 0
  80 0044 029B9DED 		vldr.64	d9, [sp, #8]
  81              	.LVL7:
 174:D:/Work/DeviceTester/amazon-freertos/lib/third_party/mcu_vendor/renesas/rz_mcu_boards/core_package/generate/sc_drivers/r_ostm/src/lld\r_ostm_lld_rza2m.c **** 
  82              		.loc 1 174 0
  83 0048 FEFFFFEB 		bl	direct_close
  84              	.LVL8:
  85              	.LBE14:
  86              	.LBE15:
 238:D:/Work/DeviceTester/amazon-freertos/lib/third_party/mcu_vendor/renesas/rz_mcu_boards/core_package/generate/sc_drivers/r_ostm/src/lld\r_ostm_lld_rza2m.c ****     int_t err;
 239:D:/Work/DeviceTester/amazon-freertos/lib/third_party/mcu_vendor/renesas/rz_mcu_boards/core_package/generate/sc_drivers/r_ostm/src/lld\r_ostm_lld_rza2m.c ****     float64_t p1clk;
 240:D:/Work/DeviceTester/amazon-freertos/lib/third_party/mcu_vendor/renesas/rz_mcu_boards/core_package/generate/sc_drivers/r_ostm/src/lld\r_ostm_lld_rza2m.c ****     uint64_t count;
 241:D:/Work/DeviceTester/amazon-freertos/lib/third_party/mcu_vendor/renesas/rz_mcu_boards/core_package/generate/sc_drivers/r_ostm/src/lld\r_ostm_lld_rza2m.c **** 
 242:D:/Work/DeviceTester/amazon-freertos/lib/third_party/mcu_vendor/renesas/rz_mcu_boards/core_package/generate/sc_drivers/r_ostm/src/lld\r_ostm_lld_rza2m.c ****     err = DRV_SUCCESS;
 243:D:/Work/DeviceTester/amazon-freertos/lib/third_party/mcu_vendor/renesas/rz_mcu_boards/core_package/generate/sc_drivers/r_ostm/src/lld\r_ostm_lld_rza2m.c **** 
 244:D:/Work/DeviceTester/amazon-freertos/lib/third_party/mcu_vendor/renesas/rz_mcu_boards/core_package/generate/sc_drivers/r_ostm/src/lld\r_ostm_lld_rza2m.c ****     /* get current P1CLK frequency */
 245:D:/Work/DeviceTester/amazon-freertos/lib/third_party/mcu_vendor/renesas/rz_mcu_boards/core_package/generate/sc_drivers/r_ostm/src/lld\r_ostm_lld_rza2m.c ****     if (get_p1clk(&p1clk) != DRV_SUCCESS)
  87              		.loc 1 245 0
  88 004c 000054E3 		cmp	r4, #0
  89 0050 0C00001A 		bne	.L2
 246:D:/Work/DeviceTester/amazon-freertos/lib/third_party/mcu_vendor/renesas/rz_mcu_boards/core_package/generate/sc_drivers/r_ostm/src/lld\r_ostm_lld_rza2m.c ****     {
 247:D:/Work/DeviceTester/amazon-freertos/lib/third_party/mcu_vendor/renesas/rz_mcu_boards/core_package/generate/sc_drivers/r_ostm/src/lld\r_ostm_lld_rza2m.c ****         return (DRV_ERROR);
 248:D:/Work/DeviceTester/amazon-freertos/lib/third_party/mcu_vendor/renesas/rz_mcu_boards/core_package/generate/sc_drivers/r_ostm/src/lld\r_ostm_lld_rza2m.c ****     }
 249:D:/Work/DeviceTester/amazon-freertos/lib/third_party/mcu_vendor/renesas/rz_mcu_boards/core_package/generate/sc_drivers/r_ostm/src/lld\r_ostm_lld_rza2m.c **** 
 250:D:/Work/DeviceTester/amazon-freertos/lib/third_party/mcu_vendor/renesas/rz_mcu_boards/core_package/generate/sc_drivers/r_ostm/src/lld\r_ostm_lld_rza2m.c ****     /* calculate compare register value for free-run compare mode
 251:D:/Work/DeviceTester/amazon-freertos/lib/third_party/mcu_vendor/renesas/rz_mcu_boards/core_package/generate/sc_drivers/r_ostm/src/lld\r_ostm_lld_rza2m.c ****      * (P1CLK(KHz) * [interval duration]) - 1
 252:D:/Work/DeviceTester/amazon-freertos/lib/third_party/mcu_vendor/renesas/rz_mcu_boards/core_package/generate/sc_drivers/r_ostm/src/lld\r_ostm_lld_rza2m.c ****      * to keeping the accuracy, keep in 64bit float while multiply.
 253:D:/Work/DeviceTester/amazon-freertos/lib/third_party/mcu_vendor/renesas/rz_mcu_boards/core_package/generate/sc_drivers/r_ostm/src/lld\r_ostm_lld_rza2m.c ****      */
 254:D:/Work/DeviceTester/amazon-freertos/lib/third_party/mcu_vendor/renesas/rz_mcu_boards/core_package/generate/sc_drivers/r_ostm/src/lld\r_ostm_lld_rza2m.c ****     count = (uint64_t)((float64_t) msec * p1clk);
  90              		.loc 1 254 0
  91 0054 488BB8EE 		vcvt.f64.u32	d8, s16
  92              	.LVL9:
  93 0058 090B68EE 		vmul.f64	d16, d8, d9
  94 005c 300B51EC 		vmov	r0, r1, d16
  95 0060 FEFFFFEB 		bl	__aeabi_d2ulz
  96              	.LVL10:
 255:D:/Work/DeviceTester/amazon-freertos/lib/third_party/mcu_vendor/renesas/rz_mcu_boards/core_package/generate/sc_drivers/r_ostm/src/lld\r_ostm_lld_rza2m.c ****     count--;
  97              		.loc 1 255 0
  98 0064 010050E2 		subs	r0, r0, #1
  99              	.LVL11:
 256:D:/Work/DeviceTester/amazon-freertos/lib/third_party/mcu_vendor/renesas/rz_mcu_boards/core_package/generate/sc_drivers/r_ostm/src/lld\r_ostm_lld_rza2m.c **** 
 257:D:/Work/DeviceTester/amazon-freertos/lib/third_party/mcu_vendor/renesas/rz_mcu_boards/core_package/generate/sc_drivers/r_ostm/src/lld\r_ostm_lld_rza2m.c ****     /* check whether the result overflow or not */
 258:D:/Work/DeviceTester/amazon-freertos/lib/third_party/mcu_vendor/renesas/rz_mcu_boards/core_package/generate/sc_drivers/r_ostm/src/lld\r_ostm_lld_rza2m.c ****     if (count > UINT32_MAX)
 100              		.loc 1 258 0
 101 0068 0030A0E3 		mov	r3, #0
 255:D:/Work/DeviceTester/amazon-freertos/lib/third_party/mcu_vendor/renesas/rz_mcu_boards/core_package/generate/sc_drivers/r_ostm/src/lld\r_ostm_lld_rza2m.c ****     count--;
 102              		.loc 1 255 0
 103 006c 0010C1E2 		sbc	r1, r1, #0
 104              	.LVL12:
 105              		.loc 1 258 0
 106 0070 0020E0E3 		mvn	r2, #0
 107 0074 030051E1 		cmp	r1, r3
 108 0078 02005001 		cmpeq	r0, r2
 259:D:/Work/DeviceTester/amazon-freertos/lib/third_party/mcu_vendor/renesas/rz_mcu_boards/core_package/generate/sc_drivers/r_ostm/src/lld\r_ostm_lld_rza2m.c ****     {
 260:D:/Work/DeviceTester/amazon-freertos/lib/third_party/mcu_vendor/renesas/rz_mcu_boards/core_package/generate/sc_drivers/r_ostm/src/lld\r_ostm_lld_rza2m.c ****         err = DRV_ERROR;
 261:D:/Work/DeviceTester/amazon-freertos/lib/third_party/mcu_vendor/renesas/rz_mcu_boards/core_package/generate/sc_drivers/r_ostm/src/lld\r_ostm_lld_rza2m.c ****     }
 262:D:/Work/DeviceTester/amazon-freertos/lib/third_party/mcu_vendor/renesas/rz_mcu_boards/core_package/generate/sc_drivers/r_ostm/src/lld\r_ostm_lld_rza2m.c ****     else
 263:D:/Work/DeviceTester/amazon-freertos/lib/third_party/mcu_vendor/renesas/rz_mcu_boards/core_package/generate/sc_drivers/r_ostm/src/lld\r_ostm_lld_rza2m.c ****     {
 264:D:/Work/DeviceTester/amazon-freertos/lib/third_party/mcu_vendor/renesas/rz_mcu_boards/core_package/generate/sc_drivers/r_ostm/src/lld\r_ostm_lld_rza2m.c ****         /* only if result is fit in 32-bit unsigned value */
 265:D:/Work/DeviceTester/amazon-freertos/lib/third_party/mcu_vendor/renesas/rz_mcu_boards/core_package/generate/sc_drivers/r_ostm/src/lld\r_ostm_lld_rza2m.c ****         *p_compare = (uint32_t) count;
 109              		.loc 1 265 0
 110 007c 00008595 		strls	r0, [r5]
 242:D:/Work/DeviceTester/amazon-freertos/lib/third_party/mcu_vendor/renesas/rz_mcu_boards/core_package/generate/sc_drivers/r_ostm/src/lld\r_ostm_lld_rza2m.c **** 
 111              		.loc 1 242 0
 112 0080 0400A091 		movls	r0, r4
 113              	.LVL13:
 258:D:/Work/DeviceTester/amazon-freertos/lib/third_party/mcu_vendor/renesas/rz_mcu_boards/core_package/generate/sc_drivers/r_ostm/src/lld\r_ostm_lld_rza2m.c ****     {
 114              		.loc 1 258 0
 115 0084 0000009A 		bls	.L1
 116              	.LVL14:
 117              	.L2:
 247:D:/Work/DeviceTester/amazon-freertos/lib/third_party/mcu_vendor/renesas/rz_mcu_boards/core_package/generate/sc_drivers/r_ostm/src/lld\r_ostm_lld_rza2m.c ****     }
 118              		.loc 1 247 0
 119 0088 0000E0E3 		mvn	r0, #0
 120              	.L1:
 266:D:/Work/DeviceTester/amazon-freertos/lib/third_party/mcu_vendor/renesas/rz_mcu_boards/core_package/generate/sc_drivers/r_ostm/src/lld\r_ostm_lld_rza2m.c ****     }
 267:D:/Work/DeviceTester/amazon-freertos/lib/third_party/mcu_vendor/renesas/rz_mcu_boards/core_package/generate/sc_drivers/r_ostm/src/lld\r_ostm_lld_rza2m.c **** 
 268:D:/Work/DeviceTester/amazon-freertos/lib/third_party/mcu_vendor/renesas/rz_mcu_boards/core_package/generate/sc_drivers/r_ostm/src/lld\r_ostm_lld_rza2m.c ****     return (err);
 269:D:/Work/DeviceTester/amazon-freertos/lib/third_party/mcu_vendor/renesas/rz_mcu_boards/core_package/generate/sc_drivers/r_ostm/src/lld\r_ostm_lld_rza2m.c **** }
 121              		.loc 1 269 0
 122 008c 10D08DE2 		add	sp, sp, #16
 123              		.cfi_def_cfa_offset 32
 124              		@ sp needed
 125 0090 048BBDEC 		vldm	sp!, {d8-d9}
 126              		.cfi_restore 82
 127              		.cfi_restore 83
 128              		.cfi_restore 80
 129              		.cfi_restore 81
 130              		.cfi_def_cfa_offset 16
 131 0094 7080BDE8 		pop	{r4, r5, r6, pc}
 132              	.LVL15:
 133              	.L8:
 134              		.align	2
 135              	.L7:
 136 0098 00000000 		.word	.LC0
 137              		.cfi_endproc
 138              	.LFE7:
 140              		.set	calc_interval,calc_compare
 141              		.section	.text.R_OSTM_Init,"ax",%progbits
 142              		.align	2
 143              		.global	R_OSTM_Init
 144              		.syntax unified
 145              		.arm
 146              		.fpu neon
 148              	R_OSTM_Init:
 149              	.LFB9:
 270:D:/Work/DeviceTester/amazon-freertos/lib/third_party/mcu_vendor/renesas/rz_mcu_boards/core_package/generate/sc_drivers/r_ostm/src/lld\r_ostm_lld_rza2m.c **** /******************************************************************************
 271:D:/Work/DeviceTester/amazon-freertos/lib/third_party/mcu_vendor/renesas/rz_mcu_boards/core_package/generate/sc_drivers/r_ostm/src/lld\r_ostm_lld_rza2m.c ****  * End of function calc_compare
 272:D:/Work/DeviceTester/amazon-freertos/lib/third_party/mcu_vendor/renesas/rz_mcu_boards/core_package/generate/sc_drivers/r_ostm/src/lld\r_ostm_lld_rza2m.c ****  ******************************************************************************/
 273:D:/Work/DeviceTester/amazon-freertos/lib/third_party/mcu_vendor/renesas/rz_mcu_boards/core_package/generate/sc_drivers/r_ostm/src/lld\r_ostm_lld_rza2m.c **** 
 274:D:/Work/DeviceTester/amazon-freertos/lib/third_party/mcu_vendor/renesas/rz_mcu_boards/core_package/generate/sc_drivers/r_ostm/src/lld\r_ostm_lld_rza2m.c **** /**
 275:D:/Work/DeviceTester/amazon-freertos/lib/third_party/mcu_vendor/renesas/rz_mcu_boards/core_package/generate/sc_drivers/r_ostm/src/lld\r_ostm_lld_rza2m.c ****  * @fn         ostm_init_internal
 276:D:/Work/DeviceTester/amazon-freertos/lib/third_party/mcu_vendor/renesas/rz_mcu_boards/core_package/generate/sc_drivers/r_ostm/src/lld\r_ostm_lld_rza2m.c ****  * @brief      Configure the channel (internal)
 277:D:/Work/DeviceTester/amazon-freertos/lib/third_party/mcu_vendor/renesas/rz_mcu_boards/core_package/generate/sc_drivers/r_ostm/src/lld\r_ostm_lld_rza2m.c ****  * @param[in]  channel:     desired channel
 278:D:/Work/DeviceTester/amazon-freertos/lib/third_party/mcu_vendor/renesas/rz_mcu_boards/core_package/generate/sc_drivers/r_ostm/src/lld\r_ostm_lld_rza2m.c ****  * @param[in]  p_config:    configuration for the channel
 279:D:/Work/DeviceTester/amazon-freertos/lib/third_party/mcu_vendor/renesas/rz_mcu_boards/core_package/generate/sc_drivers/r_ostm/src/lld\r_ostm_lld_rza2m.c ****  * @retval     DRV_SUCCESS  Successful operation
 280:D:/Work/DeviceTester/amazon-freertos/lib/third_party/mcu_vendor/renesas/rz_mcu_boards/core_package/generate/sc_drivers/r_ostm/src/lld\r_ostm_lld_rza2m.c ****  * @retval     DRV_ERROR    Failure operation
 281:D:/Work/DeviceTester/amazon-freertos/lib/third_party/mcu_vendor/renesas/rz_mcu_boards/core_package/generate/sc_drivers/r_ostm/src/lld\r_ostm_lld_rza2m.c ****  */
 282:D:/Work/DeviceTester/amazon-freertos/lib/third_party/mcu_vendor/renesas/rz_mcu_boards/core_package/generate/sc_drivers/r_ostm/src/lld\r_ostm_lld_rza2m.c **** static int_t ostm_init_internal(e_r_drv_ostm_channel_t channel, const st_r_drv_ostm_config_t *p_con
 283:D:/Work/DeviceTester/amazon-freertos/lib/third_party/mcu_vendor/renesas/rz_mcu_boards/core_package/generate/sc_drivers/r_ostm/src/lld\r_ostm_lld_rza2m.c **** {
 284:D:/Work/DeviceTester/amazon-freertos/lib/third_party/mcu_vendor/renesas/rz_mcu_boards/core_package/generate/sc_drivers/r_ostm/src/lld\r_ostm_lld_rza2m.c ****     int_t err;
 285:D:/Work/DeviceTester/amazon-freertos/lib/third_party/mcu_vendor/renesas/rz_mcu_boards/core_package/generate/sc_drivers/r_ostm/src/lld\r_ostm_lld_rza2m.c ****     e_stb_err_t error_stb;
 286:D:/Work/DeviceTester/amazon-freertos/lib/third_party/mcu_vendor/renesas/rz_mcu_boards/core_package/generate/sc_drivers/r_ostm/src/lld\r_ostm_lld_rza2m.c ****     e_r_drv_intc_err_t error_intc;
 287:D:/Work/DeviceTester/amazon-freertos/lib/third_party/mcu_vendor/renesas/rz_mcu_boards/core_package/generate/sc_drivers/r_ostm/src/lld\r_ostm_lld_rza2m.c ****     uint32_t cmp_reg;
 288:D:/Work/DeviceTester/amazon-freertos/lib/third_party/mcu_vendor/renesas/rz_mcu_boards/core_package/generate/sc_drivers/r_ostm/src/lld\r_ostm_lld_rza2m.c **** 
 289:D:/Work/DeviceTester/amazon-freertos/lib/third_party/mcu_vendor/renesas/rz_mcu_boards/core_package/generate/sc_drivers/r_ostm/src/lld\r_ostm_lld_rza2m.c ****     err = DRV_SUCCESS;
 290:D:/Work/DeviceTester/amazon-freertos/lib/third_party/mcu_vendor/renesas/rz_mcu_boards/core_package/generate/sc_drivers/r_ostm/src/lld\r_ostm_lld_rza2m.c ****     error_stb = STB_SUCCESS;
 291:D:/Work/DeviceTester/amazon-freertos/lib/third_party/mcu_vendor/renesas/rz_mcu_boards/core_package/generate/sc_drivers/r_ostm/src/lld\r_ostm_lld_rza2m.c ****     error_intc = INTC_SUCCESS;
 292:D:/Work/DeviceTester/amazon-freertos/lib/third_party/mcu_vendor/renesas/rz_mcu_boards/core_package/generate/sc_drivers/r_ostm/src/lld\r_ostm_lld_rza2m.c **** 
 293:D:/Work/DeviceTester/amazon-freertos/lib/third_party/mcu_vendor/renesas/rz_mcu_boards/core_package/generate/sc_drivers/r_ostm/src/lld\r_ostm_lld_rza2m.c ****     /* Calculate OSTMnCMP register */
 294:D:/Work/DeviceTester/amazon-freertos/lib/third_party/mcu_vendor/renesas/rz_mcu_boards/core_package/generate/sc_drivers/r_ostm/src/lld\r_ostm_lld_rza2m.c ****     if (DRV_SUCCESS == err)
 295:D:/Work/DeviceTester/amazon-freertos/lib/third_party/mcu_vendor/renesas/rz_mcu_boards/core_package/generate/sc_drivers/r_ostm/src/lld\r_ostm_lld_rza2m.c ****     {
 296:D:/Work/DeviceTester/amazon-freertos/lib/third_party/mcu_vendor/renesas/rz_mcu_boards/core_package/generate/sc_drivers/r_ostm/src/lld\r_ostm_lld_rza2m.c ****         if (OSTM_TIME_MS == p_config->counter_format)
 297:D:/Work/DeviceTester/amazon-freertos/lib/third_party/mcu_vendor/renesas/rz_mcu_boards/core_package/generate/sc_drivers/r_ostm/src/lld\r_ostm_lld_rza2m.c ****         {
 298:D:/Work/DeviceTester/amazon-freertos/lib/third_party/mcu_vendor/renesas/rz_mcu_boards/core_package/generate/sc_drivers/r_ostm/src/lld\r_ostm_lld_rza2m.c ****             if (OSTM_MODE_INTERVAL == p_config->mode)
 299:D:/Work/DeviceTester/amazon-freertos/lib/third_party/mcu_vendor/renesas/rz_mcu_boards/core_package/generate/sc_drivers/r_ostm/src/lld\r_ostm_lld_rza2m.c ****             {
 300:D:/Work/DeviceTester/amazon-freertos/lib/third_party/mcu_vendor/renesas/rz_mcu_boards/core_package/generate/sc_drivers/r_ostm/src/lld\r_ostm_lld_rza2m.c ****                 err = calc_interval(p_config->time, &cmp_reg);
 301:D:/Work/DeviceTester/amazon-freertos/lib/third_party/mcu_vendor/renesas/rz_mcu_boards/core_package/generate/sc_drivers/r_ostm/src/lld\r_ostm_lld_rza2m.c ****             }
 302:D:/Work/DeviceTester/amazon-freertos/lib/third_party/mcu_vendor/renesas/rz_mcu_boards/core_package/generate/sc_drivers/r_ostm/src/lld\r_ostm_lld_rza2m.c ****             else /* OSTM_MODE_FREERUN */
 303:D:/Work/DeviceTester/amazon-freertos/lib/third_party/mcu_vendor/renesas/rz_mcu_boards/core_package/generate/sc_drivers/r_ostm/src/lld\r_ostm_lld_rza2m.c ****             {
 304:D:/Work/DeviceTester/amazon-freertos/lib/third_party/mcu_vendor/renesas/rz_mcu_boards/core_package/generate/sc_drivers/r_ostm/src/lld\r_ostm_lld_rza2m.c ****                 err = calc_compare(p_config->time, &cmp_reg);
 305:D:/Work/DeviceTester/amazon-freertos/lib/third_party/mcu_vendor/renesas/rz_mcu_boards/core_package/generate/sc_drivers/r_ostm/src/lld\r_ostm_lld_rza2m.c ****             }
 306:D:/Work/DeviceTester/amazon-freertos/lib/third_party/mcu_vendor/renesas/rz_mcu_boards/core_package/generate/sc_drivers/r_ostm/src/lld\r_ostm_lld_rza2m.c ****         }
 307:D:/Work/DeviceTester/amazon-freertos/lib/third_party/mcu_vendor/renesas/rz_mcu_boards/core_package/generate/sc_drivers/r_ostm/src/lld\r_ostm_lld_rza2m.c ****         else /* OSTM_TIME_COUNT */
 308:D:/Work/DeviceTester/amazon-freertos/lib/third_party/mcu_vendor/renesas/rz_mcu_boards/core_package/generate/sc_drivers/r_ostm/src/lld\r_ostm_lld_rza2m.c ****         {
 309:D:/Work/DeviceTester/amazon-freertos/lib/third_party/mcu_vendor/renesas/rz_mcu_boards/core_package/generate/sc_drivers/r_ostm/src/lld\r_ostm_lld_rza2m.c ****             cmp_reg = p_config->time;
 310:D:/Work/DeviceTester/amazon-freertos/lib/third_party/mcu_vendor/renesas/rz_mcu_boards/core_package/generate/sc_drivers/r_ostm/src/lld\r_ostm_lld_rza2m.c ****         }
 311:D:/Work/DeviceTester/amazon-freertos/lib/third_party/mcu_vendor/renesas/rz_mcu_boards/core_package/generate/sc_drivers/r_ostm/src/lld\r_ostm_lld_rza2m.c ****     }
 312:D:/Work/DeviceTester/amazon-freertos/lib/third_party/mcu_vendor/renesas/rz_mcu_boards/core_package/generate/sc_drivers/r_ostm/src/lld\r_ostm_lld_rza2m.c **** 
 313:D:/Work/DeviceTester/amazon-freertos/lib/third_party/mcu_vendor/renesas/rz_mcu_boards/core_package/generate/sc_drivers/r_ostm/src/lld\r_ostm_lld_rza2m.c ****     /* Start module */
 314:D:/Work/DeviceTester/amazon-freertos/lib/third_party/mcu_vendor/renesas/rz_mcu_boards/core_package/generate/sc_drivers/r_ostm/src/lld\r_ostm_lld_rza2m.c ****     if (DRV_SUCCESS == err)
 315:D:/Work/DeviceTester/amazon-freertos/lib/third_party/mcu_vendor/renesas/rz_mcu_boards/core_package/generate/sc_drivers/r_ostm/src/lld\r_ostm_lld_rza2m.c ****     {
 316:D:/Work/DeviceTester/amazon-freertos/lib/third_party/mcu_vendor/renesas/rz_mcu_boards/core_package/generate/sc_drivers/r_ostm/src/lld\r_ostm_lld_rza2m.c ****         error_stb = R_STB_StartModule(gs_ostm_module[channel]);
 317:D:/Work/DeviceTester/amazon-freertos/lib/third_party/mcu_vendor/renesas/rz_mcu_boards/core_package/generate/sc_drivers/r_ostm/src/lld\r_ostm_lld_rza2m.c **** 
 318:D:/Work/DeviceTester/amazon-freertos/lib/third_party/mcu_vendor/renesas/rz_mcu_boards/core_package/generate/sc_drivers/r_ostm/src/lld\r_ostm_lld_rza2m.c ****         if (error_stb != STB_SUCCESS)
 319:D:/Work/DeviceTester/amazon-freertos/lib/third_party/mcu_vendor/renesas/rz_mcu_boards/core_package/generate/sc_drivers/r_ostm/src/lld\r_ostm_lld_rza2m.c ****         {
 320:D:/Work/DeviceTester/amazon-freertos/lib/third_party/mcu_vendor/renesas/rz_mcu_boards/core_package/generate/sc_drivers/r_ostm/src/lld\r_ostm_lld_rza2m.c ****             err = DRV_ERROR;
 321:D:/Work/DeviceTester/amazon-freertos/lib/third_party/mcu_vendor/renesas/rz_mcu_boards/core_package/generate/sc_drivers/r_ostm/src/lld\r_ostm_lld_rza2m.c ****         }
 322:D:/Work/DeviceTester/amazon-freertos/lib/third_party/mcu_vendor/renesas/rz_mcu_boards/core_package/generate/sc_drivers/r_ostm/src/lld\r_ostm_lld_rza2m.c ****     }
 323:D:/Work/DeviceTester/amazon-freertos/lib/third_party/mcu_vendor/renesas/rz_mcu_boards/core_package/generate/sc_drivers/r_ostm/src/lld\r_ostm_lld_rza2m.c **** 
 324:D:/Work/DeviceTester/amazon-freertos/lib/third_party/mcu_vendor/renesas/rz_mcu_boards/core_package/generate/sc_drivers/r_ostm/src/lld\r_ostm_lld_rza2m.c ****     /* Setting OSTMnCTL (control) register */
 325:D:/Work/DeviceTester/amazon-freertos/lib/third_party/mcu_vendor/renesas/rz_mcu_boards/core_package/generate/sc_drivers/r_ostm/src/lld\r_ostm_lld_rza2m.c ****     if (DRV_SUCCESS == err)
 326:D:/Work/DeviceTester/amazon-freertos/lib/third_party/mcu_vendor/renesas/rz_mcu_boards/core_package/generate/sc_drivers/r_ostm/src/lld\r_ostm_lld_rza2m.c ****     {
 327:D:/Work/DeviceTester/amazon-freertos/lib/third_party/mcu_vendor/renesas/rz_mcu_boards/core_package/generate/sc_drivers/r_ostm/src/lld\r_ostm_lld_rza2m.c ****         /* Setting OSTMnCTL.OSTMnMD1 bit
 328:D:/Work/DeviceTester/amazon-freertos/lib/third_party/mcu_vendor/renesas/rz_mcu_boards/core_package/generate/sc_drivers/r_ostm/src/lld\r_ostm_lld_rza2m.c ****          * 1 for free-run mode or 0 for not */
 329:D:/Work/DeviceTester/amazon-freertos/lib/third_party/mcu_vendor/renesas/rz_mcu_boards/core_package/generate/sc_drivers/r_ostm/src/lld\r_ostm_lld_rza2m.c ****         if (OSTM_MODE_FREERUN == p_config->mode)
 330:D:/Work/DeviceTester/amazon-freertos/lib/third_party/mcu_vendor/renesas/rz_mcu_boards/core_package/generate/sc_drivers/r_ostm/src/lld\r_ostm_lld_rza2m.c ****         {
 331:D:/Work/DeviceTester/amazon-freertos/lib/third_party/mcu_vendor/renesas/rz_mcu_boards/core_package/generate/sc_drivers/r_ostm/src/lld\r_ostm_lld_rza2m.c ****             RZA_IO_RegWrite_8(&gsp_ostm_reg[channel]->OSTMnCTL.BYTE, 1, OSTM_OSTMnCTL_OSTMnMD1_SHIF
 332:D:/Work/DeviceTester/amazon-freertos/lib/third_party/mcu_vendor/renesas/rz_mcu_boards/core_package/generate/sc_drivers/r_ostm/src/lld\r_ostm_lld_rza2m.c ****         }
 333:D:/Work/DeviceTester/amazon-freertos/lib/third_party/mcu_vendor/renesas/rz_mcu_boards/core_package/generate/sc_drivers/r_ostm/src/lld\r_ostm_lld_rza2m.c ****         else /* OSTM_MODE_INTERVAL */
 334:D:/Work/DeviceTester/amazon-freertos/lib/third_party/mcu_vendor/renesas/rz_mcu_boards/core_package/generate/sc_drivers/r_ostm/src/lld\r_ostm_lld_rza2m.c ****         {
 335:D:/Work/DeviceTester/amazon-freertos/lib/third_party/mcu_vendor/renesas/rz_mcu_boards/core_package/generate/sc_drivers/r_ostm/src/lld\r_ostm_lld_rza2m.c ****             RZA_IO_RegWrite_8(&gsp_ostm_reg[channel]->OSTMnCTL.BYTE, 0, OSTM_OSTMnCTL_OSTMnMD1_SHIF
 336:D:/Work/DeviceTester/amazon-freertos/lib/third_party/mcu_vendor/renesas/rz_mcu_boards/core_package/generate/sc_drivers/r_ostm/src/lld\r_ostm_lld_rza2m.c ****         }
 337:D:/Work/DeviceTester/amazon-freertos/lib/third_party/mcu_vendor/renesas/rz_mcu_boards/core_package/generate/sc_drivers/r_ostm/src/lld\r_ostm_lld_rza2m.c **** 
 338:D:/Work/DeviceTester/amazon-freertos/lib/third_party/mcu_vendor/renesas/rz_mcu_boards/core_package/generate/sc_drivers/r_ostm/src/lld\r_ostm_lld_rza2m.c ****         /* Setting OSTMnCTL.OSTMnMD0 bit
 339:D:/Work/DeviceTester/amazon-freertos/lib/third_party/mcu_vendor/renesas/rz_mcu_boards/core_package/generate/sc_drivers/r_ostm/src/lld\r_ostm_lld_rza2m.c ****          * 1 for generates interruption if timer started or not */
 340:D:/Work/DeviceTester/amazon-freertos/lib/third_party/mcu_vendor/renesas/rz_mcu_boards/core_package/generate/sc_drivers/r_ostm/src/lld\r_ostm_lld_rza2m.c ****         if (OSTM_START_INTERRUPT_ON == p_config->start_generates_interruption)
 341:D:/Work/DeviceTester/amazon-freertos/lib/third_party/mcu_vendor/renesas/rz_mcu_boards/core_package/generate/sc_drivers/r_ostm/src/lld\r_ostm_lld_rza2m.c ****         {
 342:D:/Work/DeviceTester/amazon-freertos/lib/third_party/mcu_vendor/renesas/rz_mcu_boards/core_package/generate/sc_drivers/r_ostm/src/lld\r_ostm_lld_rza2m.c ****             RZA_IO_RegWrite_8(&gsp_ostm_reg[channel]->OSTMnCTL.BYTE, 1, OSTM_OSTMnCTL_OSTMnMD0_SHIF
 343:D:/Work/DeviceTester/amazon-freertos/lib/third_party/mcu_vendor/renesas/rz_mcu_boards/core_package/generate/sc_drivers/r_ostm/src/lld\r_ostm_lld_rza2m.c ****         }
 344:D:/Work/DeviceTester/amazon-freertos/lib/third_party/mcu_vendor/renesas/rz_mcu_boards/core_package/generate/sc_drivers/r_ostm/src/lld\r_ostm_lld_rza2m.c ****         else /* OSTM_START_INTERRUPT_OFF */
 345:D:/Work/DeviceTester/amazon-freertos/lib/third_party/mcu_vendor/renesas/rz_mcu_boards/core_package/generate/sc_drivers/r_ostm/src/lld\r_ostm_lld_rza2m.c ****         {
 346:D:/Work/DeviceTester/amazon-freertos/lib/third_party/mcu_vendor/renesas/rz_mcu_boards/core_package/generate/sc_drivers/r_ostm/src/lld\r_ostm_lld_rza2m.c ****             RZA_IO_RegWrite_8(&gsp_ostm_reg[channel]->OSTMnCTL.BYTE, 0, OSTM_OSTMnCTL_OSTMnMD0_SHIF
 347:D:/Work/DeviceTester/amazon-freertos/lib/third_party/mcu_vendor/renesas/rz_mcu_boards/core_package/generate/sc_drivers/r_ostm/src/lld\r_ostm_lld_rza2m.c ****         }
 348:D:/Work/DeviceTester/amazon-freertos/lib/third_party/mcu_vendor/renesas/rz_mcu_boards/core_package/generate/sc_drivers/r_ostm/src/lld\r_ostm_lld_rza2m.c **** 
 349:D:/Work/DeviceTester/amazon-freertos/lib/third_party/mcu_vendor/renesas/rz_mcu_boards/core_package/generate/sc_drivers/r_ostm/src/lld\r_ostm_lld_rza2m.c ****         /* Setting OSTMnCMP register */
 350:D:/Work/DeviceTester/amazon-freertos/lib/third_party/mcu_vendor/renesas/rz_mcu_boards/core_package/generate/sc_drivers/r_ostm/src/lld\r_ostm_lld_rza2m.c ****         RZA_IO_RegWrite_32(&gsp_ostm_reg[channel]->OSTMnCMP.LONG, cmp_reg, IOREG_NONSHIFT_ACCESS, I
 351:D:/Work/DeviceTester/amazon-freertos/lib/third_party/mcu_vendor/renesas/rz_mcu_boards/core_package/generate/sc_drivers/r_ostm/src/lld\r_ostm_lld_rza2m.c **** 
 352:D:/Work/DeviceTester/amazon-freertos/lib/third_party/mcu_vendor/renesas/rz_mcu_boards/core_package/generate/sc_drivers/r_ostm/src/lld\r_ostm_lld_rza2m.c ****         /* Interrupt controller setup */
 353:D:/Work/DeviceTester/amazon-freertos/lib/third_party/mcu_vendor/renesas/rz_mcu_boards/core_package/generate/sc_drivers/r_ostm/src/lld\r_ostm_lld_rza2m.c ****         if (INTC_ENABLE == p_config->int_enable)
 354:D:/Work/DeviceTester/amazon-freertos/lib/third_party/mcu_vendor/renesas/rz_mcu_boards/core_package/generate/sc_drivers/r_ostm/src/lld\r_ostm_lld_rza2m.c ****         {
 355:D:/Work/DeviceTester/amazon-freertos/lib/third_party/mcu_vendor/renesas/rz_mcu_boards/core_package/generate/sc_drivers/r_ostm/src/lld\r_ostm_lld_rza2m.c ****             /* Setting gsp_ostm_reg interrupt priority level */
 356:D:/Work/DeviceTester/amazon-freertos/lib/third_party/mcu_vendor/renesas/rz_mcu_boards/core_package/generate/sc_drivers/r_ostm/src/lld\r_ostm_lld_rza2m.c ****             error_intc = R_INTC_SetPriority(gs_intid[channel], p_config->int_priority);
 357:D:/Work/DeviceTester/amazon-freertos/lib/third_party/mcu_vendor/renesas/rz_mcu_boards/core_package/generate/sc_drivers/r_ostm/src/lld\r_ostm_lld_rza2m.c **** 
 358:D:/Work/DeviceTester/amazon-freertos/lib/third_party/mcu_vendor/renesas/rz_mcu_boards/core_package/generate/sc_drivers/r_ostm/src/lld\r_ostm_lld_rza2m.c ****             /* Check parameter (interrupt function) */
 359:D:/Work/DeviceTester/amazon-freertos/lib/third_party/mcu_vendor/renesas/rz_mcu_boards/core_package/generate/sc_drivers/r_ostm/src/lld\r_ostm_lld_rza2m.c ****             if (NULL == p_config->int_function)
 360:D:/Work/DeviceTester/amazon-freertos/lib/third_party/mcu_vendor/renesas/rz_mcu_boards/core_package/generate/sc_drivers/r_ostm/src/lld\r_ostm_lld_rza2m.c ****             {
 361:D:/Work/DeviceTester/amazon-freertos/lib/third_party/mcu_vendor/renesas/rz_mcu_boards/core_package/generate/sc_drivers/r_ostm/src/lld\r_ostm_lld_rza2m.c ****                 /* can not register driver function */
 362:D:/Work/DeviceTester/amazon-freertos/lib/third_party/mcu_vendor/renesas/rz_mcu_boards/core_package/generate/sc_drivers/r_ostm/src/lld\r_ostm_lld_rza2m.c ****                 error_intc = INTC_ERR_INVALID;
 363:D:/Work/DeviceTester/amazon-freertos/lib/third_party/mcu_vendor/renesas/rz_mcu_boards/core_package/generate/sc_drivers/r_ostm/src/lld\r_ostm_lld_rza2m.c ****             }
 364:D:/Work/DeviceTester/amazon-freertos/lib/third_party/mcu_vendor/renesas/rz_mcu_boards/core_package/generate/sc_drivers/r_ostm/src/lld\r_ostm_lld_rza2m.c **** 
 365:D:/Work/DeviceTester/amazon-freertos/lib/third_party/mcu_vendor/renesas/rz_mcu_boards/core_package/generate/sc_drivers/r_ostm/src/lld\r_ostm_lld_rza2m.c ****             /* Registering interrupt handler */
 366:D:/Work/DeviceTester/amazon-freertos/lib/third_party/mcu_vendor/renesas/rz_mcu_boards/core_package/generate/sc_drivers/r_ostm/src/lld\r_ostm_lld_rza2m.c ****             if (INTC_SUCCESS == error_intc)
 367:D:/Work/DeviceTester/amazon-freertos/lib/third_party/mcu_vendor/renesas/rz_mcu_boards/core_package/generate/sc_drivers/r_ostm/src/lld\r_ostm_lld_rza2m.c ****             {
 368:D:/Work/DeviceTester/amazon-freertos/lib/third_party/mcu_vendor/renesas/rz_mcu_boards/core_package/generate/sc_drivers/r_ostm/src/lld\r_ostm_lld_rza2m.c ****                 error_intc = R_INTC_RegistIntFunc(gs_intid[channel], p_config->int_function);
 369:D:/Work/DeviceTester/amazon-freertos/lib/third_party/mcu_vendor/renesas/rz_mcu_boards/core_package/generate/sc_drivers/r_ostm/src/lld\r_ostm_lld_rza2m.c ****             }
 370:D:/Work/DeviceTester/amazon-freertos/lib/third_party/mcu_vendor/renesas/rz_mcu_boards/core_package/generate/sc_drivers/r_ostm/src/lld\r_ostm_lld_rza2m.c **** 
 371:D:/Work/DeviceTester/amazon-freertos/lib/third_party/mcu_vendor/renesas/rz_mcu_boards/core_package/generate/sc_drivers/r_ostm/src/lld\r_ostm_lld_rza2m.c ****             /* Enable gsp_ostm_reg interrupt */
 372:D:/Work/DeviceTester/amazon-freertos/lib/third_party/mcu_vendor/renesas/rz_mcu_boards/core_package/generate/sc_drivers/r_ostm/src/lld\r_ostm_lld_rza2m.c ****             if (INTC_SUCCESS == error_intc)
 373:D:/Work/DeviceTester/amazon-freertos/lib/third_party/mcu_vendor/renesas/rz_mcu_boards/core_package/generate/sc_drivers/r_ostm/src/lld\r_ostm_lld_rza2m.c ****             {
 374:D:/Work/DeviceTester/amazon-freertos/lib/third_party/mcu_vendor/renesas/rz_mcu_boards/core_package/generate/sc_drivers/r_ostm/src/lld\r_ostm_lld_rza2m.c ****                 error_intc = R_INTC_Enable(gs_intid[channel]);
 375:D:/Work/DeviceTester/amazon-freertos/lib/third_party/mcu_vendor/renesas/rz_mcu_boards/core_package/generate/sc_drivers/r_ostm/src/lld\r_ostm_lld_rza2m.c ****             }
 376:D:/Work/DeviceTester/amazon-freertos/lib/third_party/mcu_vendor/renesas/rz_mcu_boards/core_package/generate/sc_drivers/r_ostm/src/lld\r_ostm_lld_rza2m.c **** 
 377:D:/Work/DeviceTester/amazon-freertos/lib/third_party/mcu_vendor/renesas/rz_mcu_boards/core_package/generate/sc_drivers/r_ostm/src/lld\r_ostm_lld_rza2m.c ****         }
 378:D:/Work/DeviceTester/amazon-freertos/lib/third_party/mcu_vendor/renesas/rz_mcu_boards/core_package/generate/sc_drivers/r_ostm/src/lld\r_ostm_lld_rza2m.c ****         else /* INTC_DISABLE */
 379:D:/Work/DeviceTester/amazon-freertos/lib/third_party/mcu_vendor/renesas/rz_mcu_boards/core_package/generate/sc_drivers/r_ostm/src/lld\r_ostm_lld_rza2m.c ****         {
 380:D:/Work/DeviceTester/amazon-freertos/lib/third_party/mcu_vendor/renesas/rz_mcu_boards/core_package/generate/sc_drivers/r_ostm/src/lld\r_ostm_lld_rza2m.c ****             /* Disable OSTM interrupt */
 381:D:/Work/DeviceTester/amazon-freertos/lib/third_party/mcu_vendor/renesas/rz_mcu_boards/core_package/generate/sc_drivers/r_ostm/src/lld\r_ostm_lld_rza2m.c ****             error_intc = R_INTC_Disable(gs_intid[channel]);
 382:D:/Work/DeviceTester/amazon-freertos/lib/third_party/mcu_vendor/renesas/rz_mcu_boards/core_package/generate/sc_drivers/r_ostm/src/lld\r_ostm_lld_rza2m.c ****         }
 383:D:/Work/DeviceTester/amazon-freertos/lib/third_party/mcu_vendor/renesas/rz_mcu_boards/core_package/generate/sc_drivers/r_ostm/src/lld\r_ostm_lld_rza2m.c **** 
 384:D:/Work/DeviceTester/amazon-freertos/lib/third_party/mcu_vendor/renesas/rz_mcu_boards/core_package/generate/sc_drivers/r_ostm/src/lld\r_ostm_lld_rza2m.c ****         /* Follow the INTC error state */
 385:D:/Work/DeviceTester/amazon-freertos/lib/third_party/mcu_vendor/renesas/rz_mcu_boards/core_package/generate/sc_drivers/r_ostm/src/lld\r_ostm_lld_rza2m.c ****         if (INTC_SUCCESS != error_intc)
 386:D:/Work/DeviceTester/amazon-freertos/lib/third_party/mcu_vendor/renesas/rz_mcu_boards/core_package/generate/sc_drivers/r_ostm/src/lld\r_ostm_lld_rza2m.c ****         {
 387:D:/Work/DeviceTester/amazon-freertos/lib/third_party/mcu_vendor/renesas/rz_mcu_boards/core_package/generate/sc_drivers/r_ostm/src/lld\r_ostm_lld_rza2m.c ****             err = DRV_ERROR;
 388:D:/Work/DeviceTester/amazon-freertos/lib/third_party/mcu_vendor/renesas/rz_mcu_boards/core_package/generate/sc_drivers/r_ostm/src/lld\r_ostm_lld_rza2m.c ****         }
 389:D:/Work/DeviceTester/amazon-freertos/lib/third_party/mcu_vendor/renesas/rz_mcu_boards/core_package/generate/sc_drivers/r_ostm/src/lld\r_ostm_lld_rza2m.c ****     }
 390:D:/Work/DeviceTester/amazon-freertos/lib/third_party/mcu_vendor/renesas/rz_mcu_boards/core_package/generate/sc_drivers/r_ostm/src/lld\r_ostm_lld_rza2m.c **** 
 391:D:/Work/DeviceTester/amazon-freertos/lib/third_party/mcu_vendor/renesas/rz_mcu_boards/core_package/generate/sc_drivers/r_ostm/src/lld\r_ostm_lld_rza2m.c ****     return (err);
 392:D:/Work/DeviceTester/amazon-freertos/lib/third_party/mcu_vendor/renesas/rz_mcu_boards/core_package/generate/sc_drivers/r_ostm/src/lld\r_ostm_lld_rza2m.c **** }
 393:D:/Work/DeviceTester/amazon-freertos/lib/third_party/mcu_vendor/renesas/rz_mcu_boards/core_package/generate/sc_drivers/r_ostm/src/lld\r_ostm_lld_rza2m.c **** /******************************************************************************
 394:D:/Work/DeviceTester/amazon-freertos/lib/third_party/mcu_vendor/renesas/rz_mcu_boards/core_package/generate/sc_drivers/r_ostm/src/lld\r_ostm_lld_rza2m.c ****  * End of function ostm_init_internal
 395:D:/Work/DeviceTester/amazon-freertos/lib/third_party/mcu_vendor/renesas/rz_mcu_boards/core_package/generate/sc_drivers/r_ostm/src/lld\r_ostm_lld_rza2m.c ****  ******************************************************************************/
 396:D:/Work/DeviceTester/amazon-freertos/lib/third_party/mcu_vendor/renesas/rz_mcu_boards/core_package/generate/sc_drivers/r_ostm/src/lld\r_ostm_lld_rza2m.c **** 
 397:D:/Work/DeviceTester/amazon-freertos/lib/third_party/mcu_vendor/renesas/rz_mcu_boards/core_package/generate/sc_drivers/r_ostm/src/lld\r_ostm_lld_rza2m.c **** /**
 398:D:/Work/DeviceTester/amazon-freertos/lib/third_party/mcu_vendor/renesas/rz_mcu_boards/core_package/generate/sc_drivers/r_ostm/src/lld\r_ostm_lld_rza2m.c ****  * @fn             R_OSTM_Init
 399:D:/Work/DeviceTester/amazon-freertos/lib/third_party/mcu_vendor/renesas/rz_mcu_boards/core_package/generate/sc_drivers/r_ostm/src/lld\r_ostm_lld_rza2m.c ****  * @brief          Configure the channel
 400:D:/Work/DeviceTester/amazon-freertos/lib/third_party/mcu_vendor/renesas/rz_mcu_boards/core_package/generate/sc_drivers/r_ostm/src/lld\r_ostm_lld_rza2m.c ****  * @param[in]      channel:     desired channel
 401:D:/Work/DeviceTester/amazon-freertos/lib/third_party/mcu_vendor/renesas/rz_mcu_boards/core_package/generate/sc_drivers/r_ostm/src/lld\r_ostm_lld_rza2m.c ****  * @param[in/out]  p_config:    configuration for the channel
 402:D:/Work/DeviceTester/amazon-freertos/lib/third_party/mcu_vendor/renesas/rz_mcu_boards/core_package/generate/sc_drivers/r_ostm/src/lld\r_ostm_lld_rza2m.c ****  * @retval         DRV_SUCCESS  Successful operation
 403:D:/Work/DeviceTester/amazon-freertos/lib/third_party/mcu_vendor/renesas/rz_mcu_boards/core_package/generate/sc_drivers/r_ostm/src/lld\r_ostm_lld_rza2m.c ****  * @retval         DRV_ERROR    Failure operation
 404:D:/Work/DeviceTester/amazon-freertos/lib/third_party/mcu_vendor/renesas/rz_mcu_boards/core_package/generate/sc_drivers/r_ostm/src/lld\r_ostm_lld_rza2m.c ****  */
 405:D:/Work/DeviceTester/amazon-freertos/lib/third_party/mcu_vendor/renesas/rz_mcu_boards/core_package/generate/sc_drivers/r_ostm/src/lld\r_ostm_lld_rza2m.c **** int_t R_OSTM_Init(e_r_drv_ostm_channel_t channel, const st_r_drv_ostm_config_t *p_config)
 406:D:/Work/DeviceTester/amazon-freertos/lib/third_party/mcu_vendor/renesas/rz_mcu_boards/core_package/generate/sc_drivers/r_ostm/src/lld\r_ostm_lld_rza2m.c **** {
 150              		.loc 1 406 0
 151              		.cfi_startproc
 152              		@ args = 0, pretend = 0, frame = 8
 153              		@ frame_needed = 0, uses_anonymous_args = 0
 154              	.LVL16:
 407:D:/Work/DeviceTester/amazon-freertos/lib/third_party/mcu_vendor/renesas/rz_mcu_boards/core_package/generate/sc_drivers/r_ostm/src/lld\r_ostm_lld_rza2m.c ****     int_t err;
 408:D:/Work/DeviceTester/amazon-freertos/lib/third_party/mcu_vendor/renesas/rz_mcu_boards/core_package/generate/sc_drivers/r_ostm/src/lld\r_ostm_lld_rza2m.c **** 
 409:D:/Work/DeviceTester/amazon-freertos/lib/third_party/mcu_vendor/renesas/rz_mcu_boards/core_package/generate/sc_drivers/r_ostm/src/lld\r_ostm_lld_rza2m.c ****     err = DRV_SUCCESS;
 410:D:/Work/DeviceTester/amazon-freertos/lib/third_party/mcu_vendor/renesas/rz_mcu_boards/core_package/generate/sc_drivers/r_ostm/src/lld\r_ostm_lld_rza2m.c **** 
 411:D:/Work/DeviceTester/amazon-freertos/lib/third_party/mcu_vendor/renesas/rz_mcu_boards/core_package/generate/sc_drivers/r_ostm/src/lld\r_ostm_lld_rza2m.c ****     /* Check parameter (channel) */
 412:D:/Work/DeviceTester/amazon-freertos/lib/third_party/mcu_vendor/renesas/rz_mcu_boards/core_package/generate/sc_drivers/r_ostm/src/lld\r_ostm_lld_rza2m.c ****     if (channel >= OSTM_CH_MAX)
 413:D:/Work/DeviceTester/amazon-freertos/lib/third_party/mcu_vendor/renesas/rz_mcu_boards/core_package/generate/sc_drivers/r_ostm/src/lld\r_ostm_lld_rza2m.c ****     {
 414:D:/Work/DeviceTester/amazon-freertos/lib/third_party/mcu_vendor/renesas/rz_mcu_boards/core_package/generate/sc_drivers/r_ostm/src/lld\r_ostm_lld_rza2m.c ****         err = DRV_ERROR;
 415:D:/Work/DeviceTester/amazon-freertos/lib/third_party/mcu_vendor/renesas/rz_mcu_boards/core_package/generate/sc_drivers/r_ostm/src/lld\r_ostm_lld_rza2m.c ****     }
 416:D:/Work/DeviceTester/amazon-freertos/lib/third_party/mcu_vendor/renesas/rz_mcu_boards/core_package/generate/sc_drivers/r_ostm/src/lld\r_ostm_lld_rza2m.c **** 
 417:D:/Work/DeviceTester/amazon-freertos/lib/third_party/mcu_vendor/renesas/rz_mcu_boards/core_package/generate/sc_drivers/r_ostm/src/lld\r_ostm_lld_rza2m.c ****     /* Check parameter (counter format) */
 418:D:/Work/DeviceTester/amazon-freertos/lib/third_party/mcu_vendor/renesas/rz_mcu_boards/core_package/generate/sc_drivers/r_ostm/src/lld\r_ostm_lld_rza2m.c ****     if (!is_valid_counter_format(p_config->counter_format))
 155              		.loc 1 418 0
 156 0000 01C0D1E5 		ldrb	ip, [r1, #1]	@ zero_extendqisi2
 406:D:/Work/DeviceTester/amazon-freertos/lib/third_party/mcu_vendor/renesas/rz_mcu_boards/core_package/generate/sc_drivers/r_ostm/src/lld\r_ostm_lld_rza2m.c ****     int_t err;
 157              		.loc 1 406 0
 158 0004 73402DE9 		push	{r0, r1, r4, r5, r6, lr}
 159              		.cfi_def_cfa_offset 24
 160              		.cfi_offset 4, -16
 161              		.cfi_offset 5, -12
 162              		.cfi_offset 6, -8
 163              		.cfi_offset 14, -4
 406:D:/Work/DeviceTester/amazon-freertos/lib/third_party/mcu_vendor/renesas/rz_mcu_boards/core_package/generate/sc_drivers/r_ostm/src/lld\r_ostm_lld_rza2m.c ****     int_t err;
 164              		.loc 1 406 0
 165 0008 0040A0E1 		mov	r4, r0
 166              		.loc 1 418 0
 167 000c 01005CE3 		cmp	ip, #1
 419:D:/Work/DeviceTester/amazon-freertos/lib/third_party/mcu_vendor/renesas/rz_mcu_boards/core_package/generate/sc_drivers/r_ostm/src/lld\r_ostm_lld_rza2m.c ****     {
 420:D:/Work/DeviceTester/amazon-freertos/lib/third_party/mcu_vendor/renesas/rz_mcu_boards/core_package/generate/sc_drivers/r_ostm/src/lld\r_ostm_lld_rza2m.c ****         err = DRV_ERROR;
 168              		.loc 1 420 0
 169 0010 0030E083 		mvnhi	r3, #0
 418:D:/Work/DeviceTester/amazon-freertos/lib/third_party/mcu_vendor/renesas/rz_mcu_boards/core_package/generate/sc_drivers/r_ostm/src/lld\r_ostm_lld_rza2m.c ****     {
 170              		.loc 1 418 0
 171 0014 0200008A 		bhi	.L10
 412:D:/Work/DeviceTester/amazon-freertos/lib/third_party/mcu_vendor/renesas/rz_mcu_boards/core_package/generate/sc_drivers/r_ostm/src/lld\r_ostm_lld_rza2m.c ****     {
 172              		.loc 1 412 0
 173 0018 020050E3 		cmp	r0, #2
 174 001c 0030A093 		movls	r3, #0
 175 0020 0030E083 		mvnhi	r3, #0
 176              	.L10:
 177              	.LVL17:
 421:D:/Work/DeviceTester/amazon-freertos/lib/third_party/mcu_vendor/renesas/rz_mcu_boards/core_package/generate/sc_drivers/r_ostm/src/lld\r_ostm_lld_rza2m.c ****     }
 422:D:/Work/DeviceTester/amazon-freertos/lib/third_party/mcu_vendor/renesas/rz_mcu_boards/core_package/generate/sc_drivers/r_ostm/src/lld\r_ostm_lld_rza2m.c **** 
 423:D:/Work/DeviceTester/amazon-freertos/lib/third_party/mcu_vendor/renesas/rz_mcu_boards/core_package/generate/sc_drivers/r_ostm/src/lld\r_ostm_lld_rza2m.c ****     /* Check parameter (mode) */
 424:D:/Work/DeviceTester/amazon-freertos/lib/third_party/mcu_vendor/renesas/rz_mcu_boards/core_package/generate/sc_drivers/r_ostm/src/lld\r_ostm_lld_rza2m.c ****     if (!is_valid_mode(p_config->mode))
 178              		.loc 1 424 0
 179 0024 0020D1E5 		ldrb	r2, [r1]	@ zero_extendqisi2
 425:D:/Work/DeviceTester/amazon-freertos/lib/third_party/mcu_vendor/renesas/rz_mcu_boards/core_package/generate/sc_drivers/r_ostm/src/lld\r_ostm_lld_rza2m.c ****     {
 426:D:/Work/DeviceTester/amazon-freertos/lib/third_party/mcu_vendor/renesas/rz_mcu_boards/core_package/generate/sc_drivers/r_ostm/src/lld\r_ostm_lld_rza2m.c ****         err = DRV_ERROR;
 427:D:/Work/DeviceTester/amazon-freertos/lib/third_party/mcu_vendor/renesas/rz_mcu_boards/core_package/generate/sc_drivers/r_ostm/src/lld\r_ostm_lld_rza2m.c ****     }
 428:D:/Work/DeviceTester/amazon-freertos/lib/third_party/mcu_vendor/renesas/rz_mcu_boards/core_package/generate/sc_drivers/r_ostm/src/lld\r_ostm_lld_rza2m.c **** 
 429:D:/Work/DeviceTester/amazon-freertos/lib/third_party/mcu_vendor/renesas/rz_mcu_boards/core_package/generate/sc_drivers/r_ostm/src/lld\r_ostm_lld_rza2m.c ****     /* Check parameter (start_interrupt) */
 430:D:/Work/DeviceTester/amazon-freertos/lib/third_party/mcu_vendor/renesas/rz_mcu_boards/core_package/generate/sc_drivers/r_ostm/src/lld\r_ostm_lld_rza2m.c ****     if (!is_valid_start_interrupt(p_config->start_generates_interruption))
 180              		.loc 1 430 0
 181 0028 0800D1E5 		ldrb	r0, [r1, #8]	@ zero_extendqisi2
 182              	.LVL18:
 426:D:/Work/DeviceTester/amazon-freertos/lib/third_party/mcu_vendor/renesas/rz_mcu_boards/core_package/generate/sc_drivers/r_ostm/src/lld\r_ostm_lld_rza2m.c ****     }
 183              		.loc 1 426 0
 184 002c 020052E3 		cmp	r2, #2
 185 0030 0030E023 		mvncs	r3, #0
 186              	.LVL19:
 431:D:/Work/DeviceTester/amazon-freertos/lib/third_party/mcu_vendor/renesas/rz_mcu_boards/core_package/generate/sc_drivers/r_ostm/src/lld\r_ostm_lld_rza2m.c ****     {
 432:D:/Work/DeviceTester/amazon-freertos/lib/third_party/mcu_vendor/renesas/rz_mcu_boards/core_package/generate/sc_drivers/r_ostm/src/lld\r_ostm_lld_rza2m.c ****         err = DRV_ERROR;
 187              		.loc 1 432 0
 188 0034 020050E3 		cmp	r0, #2
 433:D:/Work/DeviceTester/amazon-freertos/lib/third_party/mcu_vendor/renesas/rz_mcu_boards/core_package/generate/sc_drivers/r_ostm/src/lld\r_ostm_lld_rza2m.c ****     }
 434:D:/Work/DeviceTester/amazon-freertos/lib/third_party/mcu_vendor/renesas/rz_mcu_boards/core_package/generate/sc_drivers/r_ostm/src/lld\r_ostm_lld_rza2m.c **** 
 435:D:/Work/DeviceTester/amazon-freertos/lib/third_party/mcu_vendor/renesas/rz_mcu_boards/core_package/generate/sc_drivers/r_ostm/src/lld\r_ostm_lld_rza2m.c ****     /* Check parameter (interrupt) */
 436:D:/Work/DeviceTester/amazon-freertos/lib/third_party/mcu_vendor/renesas/rz_mcu_boards/core_package/generate/sc_drivers/r_ostm/src/lld\r_ostm_lld_rza2m.c ****     if (!is_valid_interrupt(p_config->int_enable))
 189              		.loc 1 436 0
 190 0038 0900D1E5 		ldrb	r0, [r1, #9]	@ zero_extendqisi2
 432:D:/Work/DeviceTester/amazon-freertos/lib/third_party/mcu_vendor/renesas/rz_mcu_boards/core_package/generate/sc_drivers/r_ostm/src/lld\r_ostm_lld_rza2m.c ****     }
 191              		.loc 1 432 0
 192 003c 0030E023 		mvncs	r3, #0
 193              	.LVL20:
 437:D:/Work/DeviceTester/amazon-freertos/lib/third_party/mcu_vendor/renesas/rz_mcu_boards/core_package/generate/sc_drivers/r_ostm/src/lld\r_ostm_lld_rza2m.c ****     {
 438:D:/Work/DeviceTester/amazon-freertos/lib/third_party/mcu_vendor/renesas/rz_mcu_boards/core_package/generate/sc_drivers/r_ostm/src/lld\r_ostm_lld_rza2m.c ****         err = DRV_ERROR;
 194              		.loc 1 438 0
 195 0040 020050E3 		cmp	r0, #2
 439:D:/Work/DeviceTester/amazon-freertos/lib/third_party/mcu_vendor/renesas/rz_mcu_boards/core_package/generate/sc_drivers/r_ostm/src/lld\r_ostm_lld_rza2m.c ****     }
 440:D:/Work/DeviceTester/amazon-freertos/lib/third_party/mcu_vendor/renesas/rz_mcu_boards/core_package/generate/sc_drivers/r_ostm/src/lld\r_ostm_lld_rza2m.c **** 
 441:D:/Work/DeviceTester/amazon-freertos/lib/third_party/mcu_vendor/renesas/rz_mcu_boards/core_package/generate/sc_drivers/r_ostm/src/lld\r_ostm_lld_rza2m.c ****     /* time must not be zero if we're in interval timer mode */
 442:D:/Work/DeviceTester/amazon-freertos/lib/third_party/mcu_vendor/renesas/rz_mcu_boards/core_package/generate/sc_drivers/r_ostm/src/lld\r_ostm_lld_rza2m.c ****     if ((0 == p_config->time) && (OSTM_MODE_INTERVAL == p_config->mode))
 196              		.loc 1 442 0
 197 0044 040091E5 		ldr	r0, [r1, #4]
 438:D:/Work/DeviceTester/amazon-freertos/lib/third_party/mcu_vendor/renesas/rz_mcu_boards/core_package/generate/sc_drivers/r_ostm/src/lld\r_ostm_lld_rza2m.c ****     }
 198              		.loc 1 438 0
 199 0048 0030E023 		mvncs	r3, #0
 200              	.LVL21:
 201              		.loc 1 442 0
 202 004c 000052E3 		cmp	r2, #0
 203 0050 00005003 		cmpeq	r0, #0
 204 0054 1400000A 		beq	.L31
 443:D:/Work/DeviceTester/amazon-freertos/lib/third_party/mcu_vendor/renesas/rz_mcu_boards/core_package/generate/sc_drivers/r_ostm/src/lld\r_ostm_lld_rza2m.c ****     {
 444:D:/Work/DeviceTester/amazon-freertos/lib/third_party/mcu_vendor/renesas/rz_mcu_boards/core_package/generate/sc_drivers/r_ostm/src/lld\r_ostm_lld_rza2m.c ****         err = DRV_ERROR;
 445:D:/Work/DeviceTester/amazon-freertos/lib/third_party/mcu_vendor/renesas/rz_mcu_boards/core_package/generate/sc_drivers/r_ostm/src/lld\r_ostm_lld_rza2m.c ****     }
 446:D:/Work/DeviceTester/amazon-freertos/lib/third_party/mcu_vendor/renesas/rz_mcu_boards/core_package/generate/sc_drivers/r_ostm/src/lld\r_ostm_lld_rza2m.c **** 
 447:D:/Work/DeviceTester/amazon-freertos/lib/third_party/mcu_vendor/renesas/rz_mcu_boards/core_package/generate/sc_drivers/r_ostm/src/lld\r_ostm_lld_rza2m.c ****     /* Calling internally defined initialising function */
 448:D:/Work/DeviceTester/amazon-freertos/lib/third_party/mcu_vendor/renesas/rz_mcu_boards/core_package/generate/sc_drivers/r_ostm/src/lld\r_ostm_lld_rza2m.c ****     if (DRV_SUCCESS == err)
 205              		.loc 1 448 0
 206 0058 000053E3 		cmp	r3, #0
 207 005c 1200001A 		bne	.L31
 208              	.LBB18:
 209              	.LBB19:
 296:D:/Work/DeviceTester/amazon-freertos/lib/third_party/mcu_vendor/renesas/rz_mcu_boards/core_package/generate/sc_drivers/r_ostm/src/lld\r_ostm_lld_rza2m.c ****         {
 210              		.loc 1 296 0
 211 0060 00005CE3 		cmp	ip, #0
 212 0064 0150A0E1 		mov	r5, r1
 213              	.LVL22:
 214 0068 0900001A 		bne	.L15
 298:D:/Work/DeviceTester/amazon-freertos/lib/third_party/mcu_vendor/renesas/rz_mcu_boards/core_package/generate/sc_drivers/r_ostm/src/lld\r_ostm_lld_rza2m.c ****             {
 215              		.loc 1 298 0
 216 006c 000052E3 		cmp	r2, #0
 300:D:/Work/DeviceTester/amazon-freertos/lib/third_party/mcu_vendor/renesas/rz_mcu_boards/core_package/generate/sc_drivers/r_ostm/src/lld\r_ostm_lld_rza2m.c ****             }
 217              		.loc 1 300 0
 218 0070 04108DE2 		add	r1, sp, #4
 219              	.LVL23:
 298:D:/Work/DeviceTester/amazon-freertos/lib/third_party/mcu_vendor/renesas/rz_mcu_boards/core_package/generate/sc_drivers/r_ostm/src/lld\r_ostm_lld_rza2m.c ****             {
 220              		.loc 1 298 0
 221 0074 0400001A 		bne	.L16
 300:D:/Work/DeviceTester/amazon-freertos/lib/third_party/mcu_vendor/renesas/rz_mcu_boards/core_package/generate/sc_drivers/r_ostm/src/lld\r_ostm_lld_rza2m.c ****             }
 222              		.loc 1 300 0
 223 0078 FEFFFFEB 		bl	calc_interval
 224              	.LVL24:
 225              	.L17:
 314:D:/Work/DeviceTester/amazon-freertos/lib/third_party/mcu_vendor/renesas/rz_mcu_boards/core_package/generate/sc_drivers/r_ostm/src/lld\r_ostm_lld_rza2m.c ****     {
 226              		.loc 1 314 0
 227 007c 000050E3 		cmp	r0, #0
 228 0080 0400000A 		beq	.L18
 229              	.LVL25:
 230              	.L9:
 231              	.LBE19:
 232              	.LBE18:
 449:D:/Work/DeviceTester/amazon-freertos/lib/third_party/mcu_vendor/renesas/rz_mcu_boards/core_package/generate/sc_drivers/r_ostm/src/lld\r_ostm_lld_rza2m.c ****     {
 450:D:/Work/DeviceTester/amazon-freertos/lib/third_party/mcu_vendor/renesas/rz_mcu_boards/core_package/generate/sc_drivers/r_ostm/src/lld\r_ostm_lld_rza2m.c ****         err = ostm_init_internal(channel, p_config);
 451:D:/Work/DeviceTester/amazon-freertos/lib/third_party/mcu_vendor/renesas/rz_mcu_boards/core_package/generate/sc_drivers/r_ostm/src/lld\r_ostm_lld_rza2m.c ****     }
 452:D:/Work/DeviceTester/amazon-freertos/lib/third_party/mcu_vendor/renesas/rz_mcu_boards/core_package/generate/sc_drivers/r_ostm/src/lld\r_ostm_lld_rza2m.c **** 
 453:D:/Work/DeviceTester/amazon-freertos/lib/third_party/mcu_vendor/renesas/rz_mcu_boards/core_package/generate/sc_drivers/r_ostm/src/lld\r_ostm_lld_rza2m.c ****     return (err);
 454:D:/Work/DeviceTester/amazon-freertos/lib/third_party/mcu_vendor/renesas/rz_mcu_boards/core_package/generate/sc_drivers/r_ostm/src/lld\r_ostm_lld_rza2m.c **** }
 233              		.loc 1 454 0
 234 0084 08D08DE2 		add	sp, sp, #8
 235              		.cfi_remember_state
 236              		.cfi_def_cfa_offset 16
 237              		@ sp needed
 238 0088 7080BDE8 		pop	{r4, r5, r6, pc}
 239              	.LVL26:
 240              	.L16:
 241              		.cfi_restore_state
 242              	.LBB22:
 243              	.LBB20:
 304:D:/Work/DeviceTester/amazon-freertos/lib/third_party/mcu_vendor/renesas/rz_mcu_boards/core_package/generate/sc_drivers/r_ostm/src/lld\r_ostm_lld_rza2m.c ****             }
 244              		.loc 1 304 0
 245 008c FEFFFFEB 		bl	calc_compare
 246              	.LVL27:
 247 0090 F9FFFFEA 		b	.L17
 248              	.LVL28:
 249              	.L15:
 309:D:/Work/DeviceTester/amazon-freertos/lib/third_party/mcu_vendor/renesas/rz_mcu_boards/core_package/generate/sc_drivers/r_ostm/src/lld\r_ostm_lld_rza2m.c ****         }
 250              		.loc 1 309 0
 251 0094 04008DE5 		str	r0, [sp, #4]
 252              	.LVL29:
 253              	.L18:
 316:D:/Work/DeviceTester/amazon-freertos/lib/third_party/mcu_vendor/renesas/rz_mcu_boards/core_package/generate/sc_drivers/r_ostm/src/lld\r_ostm_lld_rza2m.c **** 
 254              		.loc 1 316 0
 255 0098 F0309FE5 		ldr	r3, .L39
 256 009c 0400D3E7 		ldrb	r0, [r3, r4]	@ zero_extendqisi2
 257 00a0 FEFFFFEB 		bl	R_STB_StartModule
 258              	.LVL30:
 318:D:/Work/DeviceTester/amazon-freertos/lib/third_party/mcu_vendor/renesas/rz_mcu_boards/core_package/generate/sc_drivers/r_ostm/src/lld\r_ostm_lld_rza2m.c ****         {
 259              		.loc 1 318 0
 260 00a4 001050E2 		subs	r1, r0, #0
 261 00a8 0400000A 		beq	.L20
 262              	.LVL31:
 263              	.L31:
 264              	.LBE20:
 265              	.LBE22:
 266 00ac 0000E0E3 		mvn	r0, #0
 267              	.LVL32:
 453:D:/Work/DeviceTester/amazon-freertos/lib/third_party/mcu_vendor/renesas/rz_mcu_boards/core_package/generate/sc_drivers/r_ostm/src/lld\r_ostm_lld_rza2m.c **** }
 268              		.loc 1 453 0
 269 00b0 F3FFFFEA 		b	.L9
 270              	.LVL33:
 271              	.L24:
 272              	.LBB23:
 273              	.LBB21:
 381:D:/Work/DeviceTester/amazon-freertos/lib/third_party/mcu_vendor/renesas/rz_mcu_boards/core_package/generate/sc_drivers/r_ostm/src/lld\r_ostm_lld_rza2m.c ****         }
 274              		.loc 1 381 0
 275 00b4 B40093E1 		ldrh	r0, [r3, r4]
 276 00b8 FEFFFFEB 		bl	R_INTC_Disable
 277              	.LVL34:
 278 00bc 2F0000EA 		b	.L26
 279              	.LVL35:
 280              	.L20:
 329:D:/Work/DeviceTester/amazon-freertos/lib/third_party/mcu_vendor/renesas/rz_mcu_boards/core_package/generate/sc_drivers/r_ostm/src/lld\r_ostm_lld_rza2m.c ****         {
 281              		.loc 1 329 0
 282 00c0 0020D5E5 		ldrb	r2, [r5]	@ zero_extendqisi2
 283 00c4 C8609FE5 		ldr	r6, .L39+4
 284 00c8 010052E3 		cmp	r2, #1
 335:D:/Work/DeviceTester/amazon-freertos/lib/third_party/mcu_vendor/renesas/rz_mcu_boards/core_package/generate/sc_drivers/r_ostm/src/lld\r_ostm_lld_rza2m.c ****         }
 285              		.loc 1 335 0
 286 00cc 04019617 		ldrne	r0, [r6, r4, lsl #2]
 287              	.LVL36:
 288 00d0 0230A013 		movne	r3, #2
 289 00d4 0120A013 		movne	r2, #1
 329:D:/Work/DeviceTester/amazon-freertos/lib/third_party/mcu_vendor/renesas/rz_mcu_boards/core_package/generate/sc_drivers/r_ostm/src/lld\r_ostm_lld_rza2m.c ****         {
 290              		.loc 1 329 0
 331:D:/Work/DeviceTester/amazon-freertos/lib/third_party/mcu_vendor/renesas/rz_mcu_boards/core_package/generate/sc_drivers/r_ostm/src/lld\r_ostm_lld_rza2m.c ****         }
 291              		.loc 1 331 0
 292 00d8 04019607 		ldreq	r0, [r6, r4, lsl #2]
 293 00dc 0230A003 		moveq	r3, #2
 294 00e0 0210A001 		moveq	r1, r2
 295              	.L37:
 335:D:/Work/DeviceTester/amazon-freertos/lib/third_party/mcu_vendor/renesas/rz_mcu_boards/core_package/generate/sc_drivers/r_ostm/src/lld\r_ostm_lld_rza2m.c ****         }
 296              		.loc 1 335 0
 297 00e4 200080E2 		add	r0, r0, #32
 298 00e8 FEFFFFEB 		bl	RZA_IO_RegWrite_8
 299              	.LVL37:
 340:D:/Work/DeviceTester/amazon-freertos/lib/third_party/mcu_vendor/renesas/rz_mcu_boards/core_package/generate/sc_drivers/r_ostm/src/lld\r_ostm_lld_rza2m.c ****         {
 300              		.loc 1 340 0
 301 00ec 0830D5E5 		ldrb	r3, [r5, #8]	@ zero_extendqisi2
 342:D:/Work/DeviceTester/amazon-freertos/lib/third_party/mcu_vendor/renesas/rz_mcu_boards/core_package/generate/sc_drivers/r_ostm/src/lld\r_ostm_lld_rza2m.c ****         }
 302              		.loc 1 342 0
 303 00f0 040196E7 		ldr	r0, [r6, r4, lsl #2]
 340:D:/Work/DeviceTester/amazon-freertos/lib/third_party/mcu_vendor/renesas/rz_mcu_boards/core_package/generate/sc_drivers/r_ostm/src/lld\r_ostm_lld_rza2m.c ****         {
 304              		.loc 1 340 0
 305 00f4 010053E3 		cmp	r3, #1
 346:D:/Work/DeviceTester/amazon-freertos/lib/third_party/mcu_vendor/renesas/rz_mcu_boards/core_package/generate/sc_drivers/r_ostm/src/lld\r_ostm_lld_rza2m.c ****         }
 306              		.loc 1 346 0
 307 00f8 0020A013 		movne	r2, #0
 342:D:/Work/DeviceTester/amazon-freertos/lib/third_party/mcu_vendor/renesas/rz_mcu_boards/core_package/generate/sc_drivers/r_ostm/src/lld\r_ostm_lld_rza2m.c ****         }
 308              		.loc 1 342 0
 309 00fc 0310A001 		moveq	r1, r3
 346:D:/Work/DeviceTester/amazon-freertos/lib/third_party/mcu_vendor/renesas/rz_mcu_boards/core_package/generate/sc_drivers/r_ostm/src/lld\r_ostm_lld_rza2m.c ****         }
 310              		.loc 1 346 0
 311 0100 0210A011 		movne	r1, r2
 342:D:/Work/DeviceTester/amazon-freertos/lib/third_party/mcu_vendor/renesas/rz_mcu_boards/core_package/generate/sc_drivers/r_ostm/src/lld\r_ostm_lld_rza2m.c ****         }
 312              		.loc 1 342 0
 313 0104 0020A003 		moveq	r2, #0
 346:D:/Work/DeviceTester/amazon-freertos/lib/third_party/mcu_vendor/renesas/rz_mcu_boards/core_package/generate/sc_drivers/r_ostm/src/lld\r_ostm_lld_rza2m.c ****         }
 314              		.loc 1 346 0
 315 0108 0130A013 		movne	r3, #1
 316 010c 200080E2 		add	r0, r0, #32
 317 0110 FEFFFFEB 		bl	RZA_IO_RegWrite_8
 318              	.LVL38:
 350:D:/Work/DeviceTester/amazon-freertos/lib/third_party/mcu_vendor/renesas/rz_mcu_boards/core_package/generate/sc_drivers/r_ostm/src/lld\r_ostm_lld_rza2m.c **** 
 319              		.loc 1 350 0
 320 0114 0030E0E3 		mvn	r3, #0
 321 0118 040196E7 		ldr	r0, [r6, r4, lsl #2]
 322 011c 0020A0E3 		mov	r2, #0
 323 0120 04109DE5 		ldr	r1, [sp, #4]
 324 0124 FEFFFFEB 		bl	RZA_IO_RegWrite_32
 325              	.LVL39:
 353:D:/Work/DeviceTester/amazon-freertos/lib/third_party/mcu_vendor/renesas/rz_mcu_boards/core_package/generate/sc_drivers/r_ostm/src/lld\r_ostm_lld_rza2m.c ****         {
 326              		.loc 1 353 0
 327 0128 0930D5E5 		ldrb	r3, [r5, #9]	@ zero_extendqisi2
 328 012c 8440A0E1 		lsl	r4, r4, #1
 329              	.LVL40:
 330 0130 000053E3 		cmp	r3, #0
 331 0134 5C309FE5 		ldr	r3, .L39+8
 332 0138 DDFFFF1A 		bne	.L24
 356:D:/Work/DeviceTester/amazon-freertos/lib/third_party/mcu_vendor/renesas/rz_mcu_boards/core_package/generate/sc_drivers/r_ostm/src/lld\r_ostm_lld_rza2m.c **** 
 333              		.loc 1 356 0
 334 013c B44093E1 		ldrh	r4, [r3, r4]
 335 0140 0A10D5E5 		ldrb	r1, [r5, #10]	@ zero_extendqisi2
 336 0144 0400A0E1 		mov	r0, r4
 337 0148 FEFFFFEB 		bl	R_INTC_SetPriority
 338              	.LVL41:
 359:D:/Work/DeviceTester/amazon-freertos/lib/third_party/mcu_vendor/renesas/rz_mcu_boards/core_package/generate/sc_drivers/r_ostm/src/lld\r_ostm_lld_rza2m.c ****             {
 339              		.loc 1 359 0
 340 014c 0C1095E5 		ldr	r1, [r5, #12]
 366:D:/Work/DeviceTester/amazon-freertos/lib/third_party/mcu_vendor/renesas/rz_mcu_boards/core_package/generate/sc_drivers/r_ostm/src/lld\r_ostm_lld_rza2m.c ****             {
 341              		.loc 1 366 0
 342 0150 003091E2 		adds	r3, r1, #0
 343 0154 0130A013 		movne	r3, #1
 344 0158 000050E3 		cmp	r0, #0
 345 015c 0030A013 		movne	r3, #0
 346 0160 000053E3 		cmp	r3, #0
 347 0164 D0FFFF0A 		beq	.L31
 368:D:/Work/DeviceTester/amazon-freertos/lib/third_party/mcu_vendor/renesas/rz_mcu_boards/core_package/generate/sc_drivers/r_ostm/src/lld\r_ostm_lld_rza2m.c ****             }
 348              		.loc 1 368 0
 349 0168 0400A0E1 		mov	r0, r4
 350              	.LVL42:
 351 016c FEFFFFEB 		bl	R_INTC_RegistIntFunc
 352              	.LVL43:
 372:D:/Work/DeviceTester/amazon-freertos/lib/third_party/mcu_vendor/renesas/rz_mcu_boards/core_package/generate/sc_drivers/r_ostm/src/lld\r_ostm_lld_rza2m.c ****             {
 353              		.loc 1 372 0
 354 0170 000050E3 		cmp	r0, #0
 355 0174 CCFFFF1A 		bne	.L31
 374:D:/Work/DeviceTester/amazon-freertos/lib/third_party/mcu_vendor/renesas/rz_mcu_boards/core_package/generate/sc_drivers/r_ostm/src/lld\r_ostm_lld_rza2m.c ****             }
 356              		.loc 1 374 0
 357 0178 0400A0E1 		mov	r0, r4
 358              	.LVL44:
 359 017c FEFFFFEB 		bl	R_INTC_Enable
 360              	.LVL45:
 361              	.L26:
 385:D:/Work/DeviceTester/amazon-freertos/lib/third_party/mcu_vendor/renesas/rz_mcu_boards/core_package/generate/sc_drivers/r_ostm/src/lld\r_ostm_lld_rza2m.c ****         {
 362              		.loc 1 385 0
 363 0180 000090E2 		adds	r0, r0, #0
 364              	.LVL46:
 365 0184 0100A013 		movne	r0, #1
 366 0188 000060E2 		rsb	r0, r0, #0
 367              	.LVL47:
 368 018c BCFFFFEA 		b	.L9
 369              	.L40:
 370              		.align	2
 371              	.L39:
 372 0190 00000000 		.word	.LANCHOR0
 373 0194 00000000 		.word	.LANCHOR1
 374 0198 00000000 		.word	.LANCHOR2
 375              	.LBE21:
 376              	.LBE23:
 377              		.cfi_endproc
 378              	.LFE9:
 380              		.section	.text.R_OSTM_GetVersion,"ax",%progbits
 381              		.align	2
 382              		.global	R_OSTM_GetVersion
 383              		.syntax unified
 384              		.arm
 385              		.fpu neon
 387              	R_OSTM_GetVersion:
 388              	.LFB11:
 455:D:/Work/DeviceTester/amazon-freertos/lib/third_party/mcu_vendor/renesas/rz_mcu_boards/core_package/generate/sc_drivers/r_ostm/src/lld\r_ostm_lld_rza2m.c **** /******************************************************************************
 456:D:/Work/DeviceTester/amazon-freertos/lib/third_party/mcu_vendor/renesas/rz_mcu_boards/core_package/generate/sc_drivers/r_ostm/src/lld\r_ostm_lld_rza2m.c ****  * End of function R_OSTM_Init
 457:D:/Work/DeviceTester/amazon-freertos/lib/third_party/mcu_vendor/renesas/rz_mcu_boards/core_package/generate/sc_drivers/r_ostm/src/lld\r_ostm_lld_rza2m.c ****  ******************************************************************************/
 458:D:/Work/DeviceTester/amazon-freertos/lib/third_party/mcu_vendor/renesas/rz_mcu_boards/core_package/generate/sc_drivers/r_ostm/src/lld\r_ostm_lld_rza2m.c **** 
 459:D:/Work/DeviceTester/amazon-freertos/lib/third_party/mcu_vendor/renesas/rz_mcu_boards/core_package/generate/sc_drivers/r_ostm/src/lld\r_ostm_lld_rza2m.c **** /**
 460:D:/Work/DeviceTester/amazon-freertos/lib/third_party/mcu_vendor/renesas/rz_mcu_boards/core_package/generate/sc_drivers/r_ostm/src/lld\r_ostm_lld_rza2m.c ****  * @fn             R_OSTM_Close
 461:D:/Work/DeviceTester/amazon-freertos/lib/third_party/mcu_vendor/renesas/rz_mcu_boards/core_package/generate/sc_drivers/r_ostm/src/lld\r_ostm_lld_rza2m.c ****  * @brief          Close the OSTM channel
 462:D:/Work/DeviceTester/amazon-freertos/lib/third_party/mcu_vendor/renesas/rz_mcu_boards/core_package/generate/sc_drivers/r_ostm/src/lld\r_ostm_lld_rza2m.c ****  * @param[in]      channel:     desired channel
 463:D:/Work/DeviceTester/amazon-freertos/lib/third_party/mcu_vendor/renesas/rz_mcu_boards/core_package/generate/sc_drivers/r_ostm/src/lld\r_ostm_lld_rza2m.c ****  * @retval         DRV_SUCCESS  Successful operation
 464:D:/Work/DeviceTester/amazon-freertos/lib/third_party/mcu_vendor/renesas/rz_mcu_boards/core_package/generate/sc_drivers/r_ostm/src/lld\r_ostm_lld_rza2m.c ****  * @retval         DRV_ERROR    Failure operation
 465:D:/Work/DeviceTester/amazon-freertos/lib/third_party/mcu_vendor/renesas/rz_mcu_boards/core_package/generate/sc_drivers/r_ostm/src/lld\r_ostm_lld_rza2m.c ****  */
 466:D:/Work/DeviceTester/amazon-freertos/lib/third_party/mcu_vendor/renesas/rz_mcu_boards/core_package/generate/sc_drivers/r_ostm/src/lld\r_ostm_lld_rza2m.c **** int_t R_OSTM_Close(e_r_drv_ostm_channel_t channel)
 467:D:/Work/DeviceTester/amazon-freertos/lib/third_party/mcu_vendor/renesas/rz_mcu_boards/core_package/generate/sc_drivers/r_ostm/src/lld\r_ostm_lld_rza2m.c **** {
 468:D:/Work/DeviceTester/amazon-freertos/lib/third_party/mcu_vendor/renesas/rz_mcu_boards/core_package/generate/sc_drivers/r_ostm/src/lld\r_ostm_lld_rza2m.c ****     int_t err;
 469:D:/Work/DeviceTester/amazon-freertos/lib/third_party/mcu_vendor/renesas/rz_mcu_boards/core_package/generate/sc_drivers/r_ostm/src/lld\r_ostm_lld_rza2m.c ****     e_stb_err_t error_stb;
 470:D:/Work/DeviceTester/amazon-freertos/lib/third_party/mcu_vendor/renesas/rz_mcu_boards/core_package/generate/sc_drivers/r_ostm/src/lld\r_ostm_lld_rza2m.c ****     e_r_drv_intc_err_t error_intc;
 471:D:/Work/DeviceTester/amazon-freertos/lib/third_party/mcu_vendor/renesas/rz_mcu_boards/core_package/generate/sc_drivers/r_ostm/src/lld\r_ostm_lld_rza2m.c **** 
 472:D:/Work/DeviceTester/amazon-freertos/lib/third_party/mcu_vendor/renesas/rz_mcu_boards/core_package/generate/sc_drivers/r_ostm/src/lld\r_ostm_lld_rza2m.c ****     err = DRV_SUCCESS;
 473:D:/Work/DeviceTester/amazon-freertos/lib/third_party/mcu_vendor/renesas/rz_mcu_boards/core_package/generate/sc_drivers/r_ostm/src/lld\r_ostm_lld_rza2m.c **** 
 474:D:/Work/DeviceTester/amazon-freertos/lib/third_party/mcu_vendor/renesas/rz_mcu_boards/core_package/generate/sc_drivers/r_ostm/src/lld\r_ostm_lld_rza2m.c ****     /* Check parameter (channel) */
 475:D:/Work/DeviceTester/amazon-freertos/lib/third_party/mcu_vendor/renesas/rz_mcu_boards/core_package/generate/sc_drivers/r_ostm/src/lld\r_ostm_lld_rza2m.c ****     if (channel >= OSTM_CH_MAX)
 476:D:/Work/DeviceTester/amazon-freertos/lib/third_party/mcu_vendor/renesas/rz_mcu_boards/core_package/generate/sc_drivers/r_ostm/src/lld\r_ostm_lld_rza2m.c ****     {
 477:D:/Work/DeviceTester/amazon-freertos/lib/third_party/mcu_vendor/renesas/rz_mcu_boards/core_package/generate/sc_drivers/r_ostm/src/lld\r_ostm_lld_rza2m.c ****         err = DRV_ERROR;
 478:D:/Work/DeviceTester/amazon-freertos/lib/third_party/mcu_vendor/renesas/rz_mcu_boards/core_package/generate/sc_drivers/r_ostm/src/lld\r_ostm_lld_rza2m.c ****     }
 479:D:/Work/DeviceTester/amazon-freertos/lib/third_party/mcu_vendor/renesas/rz_mcu_boards/core_package/generate/sc_drivers/r_ostm/src/lld\r_ostm_lld_rza2m.c **** 
 480:D:/Work/DeviceTester/amazon-freertos/lib/third_party/mcu_vendor/renesas/rz_mcu_boards/core_package/generate/sc_drivers/r_ostm/src/lld\r_ostm_lld_rza2m.c ****     /* Stop the OSTM */
 481:D:/Work/DeviceTester/amazon-freertos/lib/third_party/mcu_vendor/renesas/rz_mcu_boards/core_package/generate/sc_drivers/r_ostm/src/lld\r_ostm_lld_rza2m.c ****     if (DRV_SUCCESS == err)
 482:D:/Work/DeviceTester/amazon-freertos/lib/third_party/mcu_vendor/renesas/rz_mcu_boards/core_package/generate/sc_drivers/r_ostm/src/lld\r_ostm_lld_rza2m.c ****     {
 483:D:/Work/DeviceTester/amazon-freertos/lib/third_party/mcu_vendor/renesas/rz_mcu_boards/core_package/generate/sc_drivers/r_ostm/src/lld\r_ostm_lld_rza2m.c ****         err = R_OSTM_Stop(channel);
 484:D:/Work/DeviceTester/amazon-freertos/lib/third_party/mcu_vendor/renesas/rz_mcu_boards/core_package/generate/sc_drivers/r_ostm/src/lld\r_ostm_lld_rza2m.c ****     }
 485:D:/Work/DeviceTester/amazon-freertos/lib/third_party/mcu_vendor/renesas/rz_mcu_boards/core_package/generate/sc_drivers/r_ostm/src/lld\r_ostm_lld_rza2m.c **** 
 486:D:/Work/DeviceTester/amazon-freertos/lib/third_party/mcu_vendor/renesas/rz_mcu_boards/core_package/generate/sc_drivers/r_ostm/src/lld\r_ostm_lld_rza2m.c ****     /* Disable interrupt of the OSTM */
 487:D:/Work/DeviceTester/amazon-freertos/lib/third_party/mcu_vendor/renesas/rz_mcu_boards/core_package/generate/sc_drivers/r_ostm/src/lld\r_ostm_lld_rza2m.c ****     if (DRV_SUCCESS == err)
 488:D:/Work/DeviceTester/amazon-freertos/lib/third_party/mcu_vendor/renesas/rz_mcu_boards/core_package/generate/sc_drivers/r_ostm/src/lld\r_ostm_lld_rza2m.c ****     {
 489:D:/Work/DeviceTester/amazon-freertos/lib/third_party/mcu_vendor/renesas/rz_mcu_boards/core_package/generate/sc_drivers/r_ostm/src/lld\r_ostm_lld_rza2m.c ****         error_intc = R_INTC_Disable(gs_intid[channel]);
 490:D:/Work/DeviceTester/amazon-freertos/lib/third_party/mcu_vendor/renesas/rz_mcu_boards/core_package/generate/sc_drivers/r_ostm/src/lld\r_ostm_lld_rza2m.c **** 
 491:D:/Work/DeviceTester/amazon-freertos/lib/third_party/mcu_vendor/renesas/rz_mcu_boards/core_package/generate/sc_drivers/r_ostm/src/lld\r_ostm_lld_rza2m.c ****         /* Follow the INTC error state */
 492:D:/Work/DeviceTester/amazon-freertos/lib/third_party/mcu_vendor/renesas/rz_mcu_boards/core_package/generate/sc_drivers/r_ostm/src/lld\r_ostm_lld_rza2m.c ****         if (INTC_SUCCESS != error_intc)
 493:D:/Work/DeviceTester/amazon-freertos/lib/third_party/mcu_vendor/renesas/rz_mcu_boards/core_package/generate/sc_drivers/r_ostm/src/lld\r_ostm_lld_rza2m.c ****         {
 494:D:/Work/DeviceTester/amazon-freertos/lib/third_party/mcu_vendor/renesas/rz_mcu_boards/core_package/generate/sc_drivers/r_ostm/src/lld\r_ostm_lld_rza2m.c ****             err = DRV_ERROR;
 495:D:/Work/DeviceTester/amazon-freertos/lib/third_party/mcu_vendor/renesas/rz_mcu_boards/core_package/generate/sc_drivers/r_ostm/src/lld\r_ostm_lld_rza2m.c ****         }
 496:D:/Work/DeviceTester/amazon-freertos/lib/third_party/mcu_vendor/renesas/rz_mcu_boards/core_package/generate/sc_drivers/r_ostm/src/lld\r_ostm_lld_rza2m.c ****     }
 497:D:/Work/DeviceTester/amazon-freertos/lib/third_party/mcu_vendor/renesas/rz_mcu_boards/core_package/generate/sc_drivers/r_ostm/src/lld\r_ostm_lld_rza2m.c **** 
 498:D:/Work/DeviceTester/amazon-freertos/lib/third_party/mcu_vendor/renesas/rz_mcu_boards/core_package/generate/sc_drivers/r_ostm/src/lld\r_ostm_lld_rza2m.c ****     /* Set module standby */
 499:D:/Work/DeviceTester/amazon-freertos/lib/third_party/mcu_vendor/renesas/rz_mcu_boards/core_package/generate/sc_drivers/r_ostm/src/lld\r_ostm_lld_rza2m.c ****     if (DRV_SUCCESS == err)
 500:D:/Work/DeviceTester/amazon-freertos/lib/third_party/mcu_vendor/renesas/rz_mcu_boards/core_package/generate/sc_drivers/r_ostm/src/lld\r_ostm_lld_rza2m.c ****     {
 501:D:/Work/DeviceTester/amazon-freertos/lib/third_party/mcu_vendor/renesas/rz_mcu_boards/core_package/generate/sc_drivers/r_ostm/src/lld\r_ostm_lld_rza2m.c ****         error_stb = R_STB_StopModule(gs_ostm_module[channel]);
 502:D:/Work/DeviceTester/amazon-freertos/lib/third_party/mcu_vendor/renesas/rz_mcu_boards/core_package/generate/sc_drivers/r_ostm/src/lld\r_ostm_lld_rza2m.c ****         if (STB_SUCCESS != error_stb)
 503:D:/Work/DeviceTester/amazon-freertos/lib/third_party/mcu_vendor/renesas/rz_mcu_boards/core_package/generate/sc_drivers/r_ostm/src/lld\r_ostm_lld_rza2m.c ****         {
 504:D:/Work/DeviceTester/amazon-freertos/lib/third_party/mcu_vendor/renesas/rz_mcu_boards/core_package/generate/sc_drivers/r_ostm/src/lld\r_ostm_lld_rza2m.c ****             err = DRV_ERROR;
 505:D:/Work/DeviceTester/amazon-freertos/lib/third_party/mcu_vendor/renesas/rz_mcu_boards/core_package/generate/sc_drivers/r_ostm/src/lld\r_ostm_lld_rza2m.c ****         }
 506:D:/Work/DeviceTester/amazon-freertos/lib/third_party/mcu_vendor/renesas/rz_mcu_boards/core_package/generate/sc_drivers/r_ostm/src/lld\r_ostm_lld_rza2m.c ****     }
 507:D:/Work/DeviceTester/amazon-freertos/lib/third_party/mcu_vendor/renesas/rz_mcu_boards/core_package/generate/sc_drivers/r_ostm/src/lld\r_ostm_lld_rza2m.c **** 
 508:D:/Work/DeviceTester/amazon-freertos/lib/third_party/mcu_vendor/renesas/rz_mcu_boards/core_package/generate/sc_drivers/r_ostm/src/lld\r_ostm_lld_rza2m.c ****     return (err);
 509:D:/Work/DeviceTester/amazon-freertos/lib/third_party/mcu_vendor/renesas/rz_mcu_boards/core_package/generate/sc_drivers/r_ostm/src/lld\r_ostm_lld_rza2m.c **** }
 510:D:/Work/DeviceTester/amazon-freertos/lib/third_party/mcu_vendor/renesas/rz_mcu_boards/core_package/generate/sc_drivers/r_ostm/src/lld\r_ostm_lld_rza2m.c **** /******************************************************************************
 511:D:/Work/DeviceTester/amazon-freertos/lib/third_party/mcu_vendor/renesas/rz_mcu_boards/core_package/generate/sc_drivers/r_ostm/src/lld\r_ostm_lld_rza2m.c ****  * End of function R_OSTM_Close
 512:D:/Work/DeviceTester/amazon-freertos/lib/third_party/mcu_vendor/renesas/rz_mcu_boards/core_package/generate/sc_drivers/r_ostm/src/lld\r_ostm_lld_rza2m.c ****  ******************************************************************************/
 513:D:/Work/DeviceTester/amazon-freertos/lib/third_party/mcu_vendor/renesas/rz_mcu_boards/core_package/generate/sc_drivers/r_ostm/src/lld\r_ostm_lld_rza2m.c **** 
 514:D:/Work/DeviceTester/amazon-freertos/lib/third_party/mcu_vendor/renesas/rz_mcu_boards/core_package/generate/sc_drivers/r_ostm/src/lld\r_ostm_lld_rza2m.c **** /**
 515:D:/Work/DeviceTester/amazon-freertos/lib/third_party/mcu_vendor/renesas/rz_mcu_boards/core_package/generate/sc_drivers/r_ostm/src/lld\r_ostm_lld_rza2m.c ****  * @fn             R_OSTM_GetVersion
 516:D:/Work/DeviceTester/amazon-freertos/lib/third_party/mcu_vendor/renesas/rz_mcu_boards/core_package/generate/sc_drivers/r_ostm/src/lld\r_ostm_lld_rza2m.c ****  * @brief          Obtains driver specific version information which is used for
 517:D:/Work/DeviceTester/amazon-freertos/lib/third_party/mcu_vendor/renesas/rz_mcu_boards/core_package/generate/sc_drivers/r_ostm/src/lld\r_ostm_lld_rza2m.c ****  *                 reporting
 518:D:/Work/DeviceTester/amazon-freertos/lib/third_party/mcu_vendor/renesas/rz_mcu_boards/core_package/generate/sc_drivers/r_ostm/src/lld\r_ostm_lld_rza2m.c ****  * @param[out]     drv_info_ptr: driver version information is populated into
 519:D:/Work/DeviceTester/amazon-freertos/lib/third_party/mcu_vendor/renesas/rz_mcu_boards/core_package/generate/sc_drivers/r_ostm/src/lld\r_ostm_lld_rza2m.c ****  *                               this structure
 520:D:/Work/DeviceTester/amazon-freertos/lib/third_party/mcu_vendor/renesas/rz_mcu_boards/core_package/generate/sc_drivers/r_ostm/src/lld\r_ostm_lld_rza2m.c ****  *                               @note the structure resources are created by
 521:D:/Work/DeviceTester/amazon-freertos/lib/third_party/mcu_vendor/renesas/rz_mcu_boards/core_package/generate/sc_drivers/r_ostm/src/lld\r_ostm_lld_rza2m.c ****  *                                     the application not this function.
 522:D:/Work/DeviceTester/amazon-freertos/lib/third_party/mcu_vendor/renesas/rz_mcu_boards/core_package/generate/sc_drivers/r_ostm/src/lld\r_ostm_lld_rza2m.c ****  * @retval         DRV_SUCCESS  Successful operation (always)
 523:D:/Work/DeviceTester/amazon-freertos/lib/third_party/mcu_vendor/renesas/rz_mcu_boards/core_package/generate/sc_drivers/r_ostm/src/lld\r_ostm_lld_rza2m.c ****  */
 524:D:/Work/DeviceTester/amazon-freertos/lib/third_party/mcu_vendor/renesas/rz_mcu_boards/core_package/generate/sc_drivers/r_ostm/src/lld\r_ostm_lld_rza2m.c **** int_t R_OSTM_GetVersion(st_ver_info_t *pVerInfo)
 525:D:/Work/DeviceTester/amazon-freertos/lib/third_party/mcu_vendor/renesas/rz_mcu_boards/core_package/generate/sc_drivers/r_ostm/src/lld\r_ostm_lld_rza2m.c **** {
 389              		.loc 1 525 0
 390              		.cfi_startproc
 391              		@ args = 0, pretend = 0, frame = 0
 392              		@ frame_needed = 0, uses_anonymous_args = 0
 393              		@ link register save eliminated.
 394              	.LVL48:
 526:D:/Work/DeviceTester/amazon-freertos/lib/third_party/mcu_vendor/renesas/rz_mcu_boards/core_package/generate/sc_drivers/r_ostm/src/lld\r_ostm_lld_rza2m.c ****     pVerInfo->lld.p_szdriver_name = gs_lld_info.p_szdriver_name;
 395              		.loc 1 526 0
 396 0000 20209FE5 		ldr	r2, .L42
 525:D:/Work/DeviceTester/amazon-freertos/lib/third_party/mcu_vendor/renesas/rz_mcu_boards/core_package/generate/sc_drivers/r_ostm/src/lld\r_ostm_lld_rza2m.c ****     pVerInfo->lld.p_szdriver_name = gs_lld_info.p_szdriver_name;
 397              		.loc 1 525 0
 398 0004 0030A0E1 		mov	r3, r0
 399              		.loc 1 526 0
 400 0008 142080E5 		str	r2, [r0, #20]
 527:D:/Work/DeviceTester/amazon-freertos/lib/third_party/mcu_vendor/renesas/rz_mcu_boards/core_package/generate/sc_drivers/r_ostm/src/lld\r_ostm_lld_rza2m.c ****     pVerInfo->lld.version.sub.major = gs_lld_info.version.sub.major;
 401              		.loc 1 527 0
 402 000c 0120A0E3 		mov	r2, #1
 403 0010 BE20C0E1 		strh	r2, [r0, #14]	@ movhi
 528:D:/Work/DeviceTester/amazon-freertos/lib/third_party/mcu_vendor/renesas/rz_mcu_boards/core_package/generate/sc_drivers/r_ostm/src/lld\r_ostm_lld_rza2m.c ****     pVerInfo->lld.version.sub.minor = gs_lld_info.version.sub.minor;
 404              		.loc 1 528 0
 405 0014 0320A0E3 		mov	r2, #3
 406 0018 BC20C0E1 		strh	r2, [r0, #12]	@ movhi
 529:D:/Work/DeviceTester/amazon-freertos/lib/third_party/mcu_vendor/renesas/rz_mcu_boards/core_package/generate/sc_drivers/r_ostm/src/lld\r_ostm_lld_rza2m.c ****     pVerInfo->lld.build = gs_lld_info.build;
 407              		.loc 1 529 0
 408 001c 0000A0E3 		mov	r0, #0
 409              	.LVL49:
 410 0020 100083E5 		str	r0, [r3, #16]
 530:D:/Work/DeviceTester/amazon-freertos/lib/third_party/mcu_vendor/renesas/rz_mcu_boards/core_package/generate/sc_drivers/r_ostm/src/lld\r_ostm_lld_rza2m.c **** 
 531:D:/Work/DeviceTester/amazon-freertos/lib/third_party/mcu_vendor/renesas/rz_mcu_boards/core_package/generate/sc_drivers/r_ostm/src/lld\r_ostm_lld_rza2m.c ****     return (DRV_SUCCESS);
 532:D:/Work/DeviceTester/amazon-freertos/lib/third_party/mcu_vendor/renesas/rz_mcu_boards/core_package/generate/sc_drivers/r_ostm/src/lld\r_ostm_lld_rza2m.c **** }
 411              		.loc 1 532 0
 412 0024 1EFF2FE1 		bx	lr
 413              	.L43:
 414              		.align	2
 415              	.L42:
 416 0028 00000000 		.word	.LC1
 417              		.cfi_endproc
 418              	.LFE11:
 420              		.section	.text.R_OSTM_GetCount,"ax",%progbits
 421              		.align	2
 422              		.global	R_OSTM_GetCount
 423              		.syntax unified
 424              		.arm
 425              		.fpu neon
 427              	R_OSTM_GetCount:
 428              	.LFB12:
 533:D:/Work/DeviceTester/amazon-freertos/lib/third_party/mcu_vendor/renesas/rz_mcu_boards/core_package/generate/sc_drivers/r_ostm/src/lld\r_ostm_lld_rza2m.c **** /******************************************************************************
 534:D:/Work/DeviceTester/amazon-freertos/lib/third_party/mcu_vendor/renesas/rz_mcu_boards/core_package/generate/sc_drivers/r_ostm/src/lld\r_ostm_lld_rza2m.c ****  * End of function R_OSTM_GetVersion
 535:D:/Work/DeviceTester/amazon-freertos/lib/third_party/mcu_vendor/renesas/rz_mcu_boards/core_package/generate/sc_drivers/r_ostm/src/lld\r_ostm_lld_rza2m.c ****  ******************************************************************************/
 536:D:/Work/DeviceTester/amazon-freertos/lib/third_party/mcu_vendor/renesas/rz_mcu_boards/core_package/generate/sc_drivers/r_ostm/src/lld\r_ostm_lld_rza2m.c **** 
 537:D:/Work/DeviceTester/amazon-freertos/lib/third_party/mcu_vendor/renesas/rz_mcu_boards/core_package/generate/sc_drivers/r_ostm/src/lld\r_ostm_lld_rza2m.c **** /**
 538:D:/Work/DeviceTester/amazon-freertos/lib/third_party/mcu_vendor/renesas/rz_mcu_boards/core_package/generate/sc_drivers/r_ostm/src/lld\r_ostm_lld_rza2m.c ****  * @fn             R_OSTM_GetCount
 539:D:/Work/DeviceTester/amazon-freertos/lib/third_party/mcu_vendor/renesas/rz_mcu_boards/core_package/generate/sc_drivers/r_ostm/src/lld\r_ostm_lld_rza2m.c ****  * @brief          Gets the count value for the specified OSTM channel
 540:D:/Work/DeviceTester/amazon-freertos/lib/third_party/mcu_vendor/renesas/rz_mcu_boards/core_package/generate/sc_drivers/r_ostm/src/lld\r_ostm_lld_rza2m.c ****  *                 @note does not stop the channel from running.
 541:D:/Work/DeviceTester/amazon-freertos/lib/third_party/mcu_vendor/renesas/rz_mcu_boards/core_package/generate/sc_drivers/r_ostm/src/lld\r_ostm_lld_rza2m.c ****  * @param[in]      channel:     desired channel
 542:D:/Work/DeviceTester/amazon-freertos/lib/third_party/mcu_vendor/renesas/rz_mcu_boards/core_package/generate/sc_drivers/r_ostm/src/lld\r_ostm_lld_rza2m.c ****  * @param[out]     p_data:      count value
 543:D:/Work/DeviceTester/amazon-freertos/lib/third_party/mcu_vendor/renesas/rz_mcu_boards/core_package/generate/sc_drivers/r_ostm/src/lld\r_ostm_lld_rza2m.c ****  * @retval         4            Successful operation
 544:D:/Work/DeviceTester/amazon-freertos/lib/third_party/mcu_vendor/renesas/rz_mcu_boards/core_package/generate/sc_drivers/r_ostm/src/lld\r_ostm_lld_rza2m.c ****  * @retval         DRV_ERROR    Failure operation
 545:D:/Work/DeviceTester/amazon-freertos/lib/third_party/mcu_vendor/renesas/rz_mcu_boards/core_package/generate/sc_drivers/r_ostm/src/lld\r_ostm_lld_rza2m.c ****  */
 546:D:/Work/DeviceTester/amazon-freertos/lib/third_party/mcu_vendor/renesas/rz_mcu_boards/core_package/generate/sc_drivers/r_ostm/src/lld\r_ostm_lld_rza2m.c **** int_t R_OSTM_GetCount(e_r_drv_ostm_channel_t channel, uint32_t * p_data)
 547:D:/Work/DeviceTester/amazon-freertos/lib/third_party/mcu_vendor/renesas/rz_mcu_boards/core_package/generate/sc_drivers/r_ostm/src/lld\r_ostm_lld_rza2m.c **** {
 429              		.loc 1 547 0
 430              		.cfi_startproc
 431              		@ args = 0, pretend = 0, frame = 0
 432              		@ frame_needed = 0, uses_anonymous_args = 0
 433              	.LVL50:
 548:D:/Work/DeviceTester/amazon-freertos/lib/third_party/mcu_vendor/renesas/rz_mcu_boards/core_package/generate/sc_drivers/r_ostm/src/lld\r_ostm_lld_rza2m.c ****     /* Check parameter (channel) */
 549:D:/Work/DeviceTester/amazon-freertos/lib/third_party/mcu_vendor/renesas/rz_mcu_boards/core_package/generate/sc_drivers/r_ostm/src/lld\r_ostm_lld_rza2m.c ****     if (channel >= OSTM_CH_MAX)
 434              		.loc 1 549 0
 435 0000 020050E3 		cmp	r0, #2
 436 0004 0A00008A 		bhi	.L46
 550:D:/Work/DeviceTester/amazon-freertos/lib/third_party/mcu_vendor/renesas/rz_mcu_boards/core_package/generate/sc_drivers/r_ostm/src/lld\r_ostm_lld_rza2m.c ****     {
 551:D:/Work/DeviceTester/amazon-freertos/lib/third_party/mcu_vendor/renesas/rz_mcu_boards/core_package/generate/sc_drivers/r_ostm/src/lld\r_ostm_lld_rza2m.c ****         return (DRV_ERROR);
 552:D:/Work/DeviceTester/amazon-freertos/lib/third_party/mcu_vendor/renesas/rz_mcu_boards/core_package/generate/sc_drivers/r_ostm/src/lld\r_ostm_lld_rza2m.c ****     }
 553:D:/Work/DeviceTester/amazon-freertos/lib/third_party/mcu_vendor/renesas/rz_mcu_boards/core_package/generate/sc_drivers/r_ostm/src/lld\r_ostm_lld_rza2m.c **** 
 554:D:/Work/DeviceTester/amazon-freertos/lib/third_party/mcu_vendor/renesas/rz_mcu_boards/core_package/generate/sc_drivers/r_ostm/src/lld\r_ostm_lld_rza2m.c ****     /* Get current counter */
 555:D:/Work/DeviceTester/amazon-freertos/lib/third_party/mcu_vendor/renesas/rz_mcu_boards/core_package/generate/sc_drivers/r_ostm/src/lld\r_ostm_lld_rza2m.c ****     *p_data = RZA_IO_RegRead_32(&gsp_ostm_reg[channel]->OSTMnCNT.LONG, IOREG_NONSHIFT_ACCESS, IOREG
 437              		.loc 1 555 0
 438 0008 2C309FE5 		ldr	r3, .L51
 439 000c 0020E0E3 		mvn	r2, #0
 547:D:/Work/DeviceTester/amazon-freertos/lib/third_party/mcu_vendor/renesas/rz_mcu_boards/core_package/generate/sc_drivers/r_ostm/src/lld\r_ostm_lld_rza2m.c ****     /* Check parameter (channel) */
 440              		.loc 1 547 0
 441 0010 10402DE9 		push	{r4, lr}
 442              		.cfi_def_cfa_offset 8
 443              		.cfi_offset 4, -8
 444              		.cfi_offset 14, -4
 445 0014 0140A0E1 		mov	r4, r1
 446              		.loc 1 555 0
 447 0018 0010A0E3 		mov	r1, #0
 448              	.LVL51:
 449 001c 000193E7 		ldr	r0, [r3, r0, lsl #2]
 450              	.LVL52:
 451 0020 040080E2 		add	r0, r0, #4
 452 0024 FEFFFFEB 		bl	RZA_IO_RegRead_32
 453              	.LVL53:
 454 0028 000084E5 		str	r0, [r4]
 556:D:/Work/DeviceTester/amazon-freertos/lib/third_party/mcu_vendor/renesas/rz_mcu_boards/core_package/generate/sc_drivers/r_ostm/src/lld\r_ostm_lld_rza2m.c **** 
 557:D:/Work/DeviceTester/amazon-freertos/lib/third_party/mcu_vendor/renesas/rz_mcu_boards/core_package/generate/sc_drivers/r_ostm/src/lld\r_ostm_lld_rza2m.c ****     return (sizeof(uint32_t));
 455              		.loc 1 557 0
 456 002c 0400A0E3 		mov	r0, #4
 457 0030 1080BDE8 		pop	{r4, pc}
 458              	.LVL54:
 459              	.L46:
 460              		.cfi_def_cfa_offset 0
 461              		.cfi_restore 4
 462              		.cfi_restore 14
 551:D:/Work/DeviceTester/amazon-freertos/lib/third_party/mcu_vendor/renesas/rz_mcu_boards/core_package/generate/sc_drivers/r_ostm/src/lld\r_ostm_lld_rza2m.c ****     }
 463              		.loc 1 551 0
 464 0034 0000E0E3 		mvn	r0, #0
 465              	.LVL55:
 466 0038 1EFF2FE1 		bx	lr
 467              	.L52:
 468              		.align	2
 469              	.L51:
 470 003c 00000000 		.word	.LANCHOR1
 471              		.cfi_endproc
 472              	.LFE12:
 474              		.section	.text.R_OSTM_Start,"ax",%progbits
 475              		.align	2
 476              		.global	R_OSTM_Start
 477              		.syntax unified
 478              		.arm
 479              		.fpu neon
 481              	R_OSTM_Start:
 482              	.LFB13:
 558:D:/Work/DeviceTester/amazon-freertos/lib/third_party/mcu_vendor/renesas/rz_mcu_boards/core_package/generate/sc_drivers/r_ostm/src/lld\r_ostm_lld_rza2m.c **** }
 559:D:/Work/DeviceTester/amazon-freertos/lib/third_party/mcu_vendor/renesas/rz_mcu_boards/core_package/generate/sc_drivers/r_ostm/src/lld\r_ostm_lld_rza2m.c **** /******************************************************************************
 560:D:/Work/DeviceTester/amazon-freertos/lib/third_party/mcu_vendor/renesas/rz_mcu_boards/core_package/generate/sc_drivers/r_ostm/src/lld\r_ostm_lld_rza2m.c ****  * End of function R_OSTM_GetCount
 561:D:/Work/DeviceTester/amazon-freertos/lib/third_party/mcu_vendor/renesas/rz_mcu_boards/core_package/generate/sc_drivers/r_ostm/src/lld\r_ostm_lld_rza2m.c ****  ******************************************************************************/
 562:D:/Work/DeviceTester/amazon-freertos/lib/third_party/mcu_vendor/renesas/rz_mcu_boards/core_package/generate/sc_drivers/r_ostm/src/lld\r_ostm_lld_rza2m.c **** 
 563:D:/Work/DeviceTester/amazon-freertos/lib/third_party/mcu_vendor/renesas/rz_mcu_boards/core_package/generate/sc_drivers/r_ostm/src/lld\r_ostm_lld_rza2m.c **** /**
 564:D:/Work/DeviceTester/amazon-freertos/lib/third_party/mcu_vendor/renesas/rz_mcu_boards/core_package/generate/sc_drivers/r_ostm/src/lld\r_ostm_lld_rza2m.c ****  * @fn             R_OSTM_Start
 565:D:/Work/DeviceTester/amazon-freertos/lib/third_party/mcu_vendor/renesas/rz_mcu_boards/core_package/generate/sc_drivers/r_ostm/src/lld\r_ostm_lld_rza2m.c ****  * @brief          Starts timer for specified channel
 566:D:/Work/DeviceTester/amazon-freertos/lib/third_party/mcu_vendor/renesas/rz_mcu_boards/core_package/generate/sc_drivers/r_ostm/src/lld\r_ostm_lld_rza2m.c ****  * @param[in]      channel:     desired channel
 567:D:/Work/DeviceTester/amazon-freertos/lib/third_party/mcu_vendor/renesas/rz_mcu_boards/core_package/generate/sc_drivers/r_ostm/src/lld\r_ostm_lld_rza2m.c ****  * @retval         DRV_SUCCESS  Successful operation
 568:D:/Work/DeviceTester/amazon-freertos/lib/third_party/mcu_vendor/renesas/rz_mcu_boards/core_package/generate/sc_drivers/r_ostm/src/lld\r_ostm_lld_rza2m.c ****  * @retval         DRV_ERROR    Failure operation
 569:D:/Work/DeviceTester/amazon-freertos/lib/third_party/mcu_vendor/renesas/rz_mcu_boards/core_package/generate/sc_drivers/r_ostm/src/lld\r_ostm_lld_rza2m.c ****  */
 570:D:/Work/DeviceTester/amazon-freertos/lib/third_party/mcu_vendor/renesas/rz_mcu_boards/core_package/generate/sc_drivers/r_ostm/src/lld\r_ostm_lld_rza2m.c **** int_t R_OSTM_Start(e_r_drv_ostm_channel_t channel)
 571:D:/Work/DeviceTester/amazon-freertos/lib/third_party/mcu_vendor/renesas/rz_mcu_boards/core_package/generate/sc_drivers/r_ostm/src/lld\r_ostm_lld_rza2m.c **** {
 483              		.loc 1 571 0
 484              		.cfi_startproc
 485              		@ args = 0, pretend = 0, frame = 0
 486              		@ frame_needed = 0, uses_anonymous_args = 0
 487              	.LVL56:
 572:D:/Work/DeviceTester/amazon-freertos/lib/third_party/mcu_vendor/renesas/rz_mcu_boards/core_package/generate/sc_drivers/r_ostm/src/lld\r_ostm_lld_rza2m.c ****     uint8_t dummy8;
 573:D:/Work/DeviceTester/amazon-freertos/lib/third_party/mcu_vendor/renesas/rz_mcu_boards/core_package/generate/sc_drivers/r_ostm/src/lld\r_ostm_lld_rza2m.c **** 
 574:D:/Work/DeviceTester/amazon-freertos/lib/third_party/mcu_vendor/renesas/rz_mcu_boards/core_package/generate/sc_drivers/r_ostm/src/lld\r_ostm_lld_rza2m.c ****     /* return error if a count of 0 has been configured when in interval timer mode */
 575:D:/Work/DeviceTester/amazon-freertos/lib/third_party/mcu_vendor/renesas/rz_mcu_boards/core_package/generate/sc_drivers/r_ostm/src/lld\r_ostm_lld_rza2m.c ****     if ((0 == RZA_IO_RegRead_8(&gsp_ostm_reg[channel]->OSTMnCTL.BYTE, OSTM_OSTMnCTL_OSTMnMD1_SHIFT,
 488              		.loc 1 575 0
 489 0000 84309FE5 		ldr	r3, .L62
 490 0004 0110A0E3 		mov	r1, #1
 571:D:/Work/DeviceTester/amazon-freertos/lib/third_party/mcu_vendor/renesas/rz_mcu_boards/core_package/generate/sc_drivers/r_ostm/src/lld\r_ostm_lld_rza2m.c ****     uint8_t dummy8;
 491              		.loc 1 571 0
 492 0008 70402DE9 		push	{r4, r5, r6, lr}
 493              		.cfi_def_cfa_offset 16
 494              		.cfi_offset 4, -16
 495              		.cfi_offset 5, -12
 496              		.cfi_offset 6, -8
 497              		.cfi_offset 14, -4
 498              		.loc 1 575 0
 499 000c 0220A0E3 		mov	r2, #2
 500 0010 004193E7 		ldr	r4, [r3, r0, lsl #2]
 501 0014 200084E2 		add	r0, r4, #32
 502              	.LVL57:
 503 0018 FEFFFFEB 		bl	RZA_IO_RegRead_8
 504              	.LVL58:
 505 001c 001050E2 		subs	r1, r0, #0
 506 0020 1200000A 		beq	.L54
 507              	.L57:
 576:D:/Work/DeviceTester/amazon-freertos/lib/third_party/mcu_vendor/renesas/rz_mcu_boards/core_package/generate/sc_drivers/r_ostm/src/lld\r_ostm_lld_rza2m.c ****             (0 == RZA_IO_RegRead_32(&gsp_ostm_reg[channel]->OSTMnCMP.LONG, IOREG_NONSHIFT_ACCESS, I
 577:D:/Work/DeviceTester/amazon-freertos/lib/third_party/mcu_vendor/renesas/rz_mcu_boards/core_package/generate/sc_drivers/r_ostm/src/lld\r_ostm_lld_rza2m.c ****     {
 578:D:/Work/DeviceTester/amazon-freertos/lib/third_party/mcu_vendor/renesas/rz_mcu_boards/core_package/generate/sc_drivers/r_ostm/src/lld\r_ostm_lld_rza2m.c ****         return (DRV_ERROR);
 579:D:/Work/DeviceTester/amazon-freertos/lib/third_party/mcu_vendor/renesas/rz_mcu_boards/core_package/generate/sc_drivers/r_ostm/src/lld\r_ostm_lld_rza2m.c ****     }
 580:D:/Work/DeviceTester/amazon-freertos/lib/third_party/mcu_vendor/renesas/rz_mcu_boards/core_package/generate/sc_drivers/r_ostm/src/lld\r_ostm_lld_rza2m.c **** 
 581:D:/Work/DeviceTester/amazon-freertos/lib/third_party/mcu_vendor/renesas/rz_mcu_boards/core_package/generate/sc_drivers/r_ostm/src/lld\r_ostm_lld_rza2m.c ****     RZA_IO_RegWrite_8(&gsp_ostm_reg[channel]->OSTMnTS.BYTE, 1, OSTM_OSTMnTS_OSTMnTS_SHIFT, OSTM_OST
 508              		.loc 1 581 0
 509 0024 145084E2 		add	r5, r4, #20
 510 0028 0130A0E3 		mov	r3, #1
 511 002c 0310A0E1 		mov	r1, r3
 512 0030 0020A0E3 		mov	r2, #0
 513 0034 0500A0E1 		mov	r0, r5
 582:D:/Work/DeviceTester/amazon-freertos/lib/third_party/mcu_vendor/renesas/rz_mcu_boards/core_package/generate/sc_drivers/r_ostm/src/lld\r_ostm_lld_rza2m.c ****     RZA_IO_RegRead_8(&gsp_ostm_reg[channel]->OSTMnTS.BYTE, IOREG_NONSHIFT_ACCESS, IOREG_NONMASK_ACC
 583:D:/Work/DeviceTester/amazon-freertos/lib/third_party/mcu_vendor/renesas/rz_mcu_boards/core_package/generate/sc_drivers/r_ostm/src/lld\r_ostm_lld_rza2m.c **** 
 584:D:/Work/DeviceTester/amazon-freertos/lib/third_party/mcu_vendor/renesas/rz_mcu_boards/core_package/generate/sc_drivers/r_ostm/src/lld\r_ostm_lld_rza2m.c ****     /* wait until OSTMn.OSTMnTE.BIT.OSTMnTE becomes "1" */
 585:D:/Work/DeviceTester/amazon-freertos/lib/third_party/mcu_vendor/renesas/rz_mcu_boards/core_package/generate/sc_drivers/r_ostm/src/lld\r_ostm_lld_rza2m.c ****     do
 586:D:/Work/DeviceTester/amazon-freertos/lib/third_party/mcu_vendor/renesas/rz_mcu_boards/core_package/generate/sc_drivers/r_ostm/src/lld\r_ostm_lld_rza2m.c ****     {
 587:D:/Work/DeviceTester/amazon-freertos/lib/third_party/mcu_vendor/renesas/rz_mcu_boards/core_package/generate/sc_drivers/r_ostm/src/lld\r_ostm_lld_rza2m.c ****         dummy8 = RZA_IO_RegRead_8(&gsp_ostm_reg[channel]->OSTMnTE.BYTE, OSTM_OSTMnTE_OSTMnTE_SHIFT,
 514              		.loc 1 587 0
 515 0038 104084E2 		add	r4, r4, #16
 581:D:/Work/DeviceTester/amazon-freertos/lib/third_party/mcu_vendor/renesas/rz_mcu_boards/core_package/generate/sc_drivers/r_ostm/src/lld\r_ostm_lld_rza2m.c ****     RZA_IO_RegRead_8(&gsp_ostm_reg[channel]->OSTMnTS.BYTE, IOREG_NONSHIFT_ACCESS, IOREG_NONMASK_ACC
 516              		.loc 1 581 0
 517 003c FEFFFFEB 		bl	RZA_IO_RegWrite_8
 518              	.LVL59:
 582:D:/Work/DeviceTester/amazon-freertos/lib/third_party/mcu_vendor/renesas/rz_mcu_boards/core_package/generate/sc_drivers/r_ostm/src/lld\r_ostm_lld_rza2m.c ****     RZA_IO_RegRead_8(&gsp_ostm_reg[channel]->OSTMnTS.BYTE, IOREG_NONSHIFT_ACCESS, IOREG_NONMASK_ACC
 519              		.loc 1 582 0
 520 0040 0020E0E3 		mvn	r2, #0
 521 0044 0010A0E3 		mov	r1, #0
 522 0048 0500A0E1 		mov	r0, r5
 523 004c FEFFFFEB 		bl	RZA_IO_RegRead_8
 524              	.LVL60:
 525              	.L55:
 526              		.loc 1 587 0 discriminator 1
 527 0050 0120A0E3 		mov	r2, #1
 528 0054 0010A0E3 		mov	r1, #0
 529 0058 0400A0E1 		mov	r0, r4
 530 005c FEFFFFEB 		bl	RZA_IO_RegRead_8
 531              	.LVL61:
 588:D:/Work/DeviceTester/amazon-freertos/lib/third_party/mcu_vendor/renesas/rz_mcu_boards/core_package/generate/sc_drivers/r_ostm/src/lld\r_ostm_lld_rza2m.c ****     }
 589:D:/Work/DeviceTester/amazon-freertos/lib/third_party/mcu_vendor/renesas/rz_mcu_boards/core_package/generate/sc_drivers/r_ostm/src/lld\r_ostm_lld_rza2m.c ****     while (0 == dummy8);
 532              		.loc 1 589 0 discriminator 1
 533 0060 000050E3 		cmp	r0, #0
 534 0064 F9FFFF0A 		beq	.L55
 590:D:/Work/DeviceTester/amazon-freertos/lib/third_party/mcu_vendor/renesas/rz_mcu_boards/core_package/generate/sc_drivers/r_ostm/src/lld\r_ostm_lld_rza2m.c **** 
 591:D:/Work/DeviceTester/amazon-freertos/lib/third_party/mcu_vendor/renesas/rz_mcu_boards/core_package/generate/sc_drivers/r_ostm/src/lld\r_ostm_lld_rza2m.c ****     return (DRV_SUCCESS);
 535              		.loc 1 591 0
 536 0068 0000A0E3 		mov	r0, #0
 537              	.LVL62:
 538 006c 7080BDE8 		pop	{r4, r5, r6, pc}
 539              	.L54:
 576:D:/Work/DeviceTester/amazon-freertos/lib/third_party/mcu_vendor/renesas/rz_mcu_boards/core_package/generate/sc_drivers/r_ostm/src/lld\r_ostm_lld_rza2m.c ****     {
 540              		.loc 1 576 0 discriminator 1
 541 0070 0020E0E3 		mvn	r2, #0
 542 0074 0400A0E1 		mov	r0, r4
 543 0078 FEFFFFEB 		bl	RZA_IO_RegRead_32
 544              	.LVL63:
 575:D:/Work/DeviceTester/amazon-freertos/lib/third_party/mcu_vendor/renesas/rz_mcu_boards/core_package/generate/sc_drivers/r_ostm/src/lld\r_ostm_lld_rza2m.c ****             (0 == RZA_IO_RegRead_32(&gsp_ostm_reg[channel]->OSTMnCMP.LONG, IOREG_NONSHIFT_ACCESS, I
 545              		.loc 1 575 0 discriminator 1
 546 007c 000050E3 		cmp	r0, #0
 547 0080 E7FFFF1A 		bne	.L57
 578:D:/Work/DeviceTester/amazon-freertos/lib/third_party/mcu_vendor/renesas/rz_mcu_boards/core_package/generate/sc_drivers/r_ostm/src/lld\r_ostm_lld_rza2m.c ****     }
 548              		.loc 1 578 0
 549 0084 0000E0E3 		mvn	r0, #0
 592:D:/Work/DeviceTester/amazon-freertos/lib/third_party/mcu_vendor/renesas/rz_mcu_boards/core_package/generate/sc_drivers/r_ostm/src/lld\r_ostm_lld_rza2m.c **** }
 550              		.loc 1 592 0
 551 0088 7080BDE8 		pop	{r4, r5, r6, pc}
 552              	.L63:
 553              		.align	2
 554              	.L62:
 555 008c 00000000 		.word	.LANCHOR1
 556              		.cfi_endproc
 557              	.LFE13:
 559              		.section	.text.R_OSTM_Stop,"ax",%progbits
 560              		.align	2
 561              		.global	R_OSTM_Stop
 562              		.syntax unified
 563              		.arm
 564              		.fpu neon
 566              	R_OSTM_Stop:
 567              	.LFB14:
 593:D:/Work/DeviceTester/amazon-freertos/lib/third_party/mcu_vendor/renesas/rz_mcu_boards/core_package/generate/sc_drivers/r_ostm/src/lld\r_ostm_lld_rza2m.c **** /******************************************************************************
 594:D:/Work/DeviceTester/amazon-freertos/lib/third_party/mcu_vendor/renesas/rz_mcu_boards/core_package/generate/sc_drivers/r_ostm/src/lld\r_ostm_lld_rza2m.c ****  * End of function R_OSTM_Start
 595:D:/Work/DeviceTester/amazon-freertos/lib/third_party/mcu_vendor/renesas/rz_mcu_boards/core_package/generate/sc_drivers/r_ostm/src/lld\r_ostm_lld_rza2m.c ****  ******************************************************************************/
 596:D:/Work/DeviceTester/amazon-freertos/lib/third_party/mcu_vendor/renesas/rz_mcu_boards/core_package/generate/sc_drivers/r_ostm/src/lld\r_ostm_lld_rza2m.c **** 
 597:D:/Work/DeviceTester/amazon-freertos/lib/third_party/mcu_vendor/renesas/rz_mcu_boards/core_package/generate/sc_drivers/r_ostm/src/lld\r_ostm_lld_rza2m.c **** /**
 598:D:/Work/DeviceTester/amazon-freertos/lib/third_party/mcu_vendor/renesas/rz_mcu_boards/core_package/generate/sc_drivers/r_ostm/src/lld\r_ostm_lld_rza2m.c ****  * @fn             R_OSTM_Stop
 599:D:/Work/DeviceTester/amazon-freertos/lib/third_party/mcu_vendor/renesas/rz_mcu_boards/core_package/generate/sc_drivers/r_ostm/src/lld\r_ostm_lld_rza2m.c ****  * @brief          Stops timer for specified channel
 600:D:/Work/DeviceTester/amazon-freertos/lib/third_party/mcu_vendor/renesas/rz_mcu_boards/core_package/generate/sc_drivers/r_ostm/src/lld\r_ostm_lld_rza2m.c ****  * @param[in]      channel:     desired channel
 601:D:/Work/DeviceTester/amazon-freertos/lib/third_party/mcu_vendor/renesas/rz_mcu_boards/core_package/generate/sc_drivers/r_ostm/src/lld\r_ostm_lld_rza2m.c ****  * @retval         DRV_SUCCESS  Successful operation always
 602:D:/Work/DeviceTester/amazon-freertos/lib/third_party/mcu_vendor/renesas/rz_mcu_boards/core_package/generate/sc_drivers/r_ostm/src/lld\r_ostm_lld_rza2m.c ****  */
 603:D:/Work/DeviceTester/amazon-freertos/lib/third_party/mcu_vendor/renesas/rz_mcu_boards/core_package/generate/sc_drivers/r_ostm/src/lld\r_ostm_lld_rza2m.c **** int_t R_OSTM_Stop(e_r_drv_ostm_channel_t channel)
 604:D:/Work/DeviceTester/amazon-freertos/lib/third_party/mcu_vendor/renesas/rz_mcu_boards/core_package/generate/sc_drivers/r_ostm/src/lld\r_ostm_lld_rza2m.c **** {
 568              		.loc 1 604 0
 569              		.cfi_startproc
 570              		@ args = 0, pretend = 0, frame = 0
 571              		@ frame_needed = 0, uses_anonymous_args = 0
 572              	.LVL64:
 605:D:/Work/DeviceTester/amazon-freertos/lib/third_party/mcu_vendor/renesas/rz_mcu_boards/core_package/generate/sc_drivers/r_ostm/src/lld\r_ostm_lld_rza2m.c ****     uint8_t dummy8;
 606:D:/Work/DeviceTester/amazon-freertos/lib/third_party/mcu_vendor/renesas/rz_mcu_boards/core_package/generate/sc_drivers/r_ostm/src/lld\r_ostm_lld_rza2m.c **** 
 607:D:/Work/DeviceTester/amazon-freertos/lib/third_party/mcu_vendor/renesas/rz_mcu_boards/core_package/generate/sc_drivers/r_ostm/src/lld\r_ostm_lld_rza2m.c ****     RZA_IO_RegWrite_8(&gsp_ostm_reg[channel]->OSTMnTT.BYTE, 1, OSTM_OSTMnTT_OSTMnTT_SHIFT, OSTM_OST
 573              		.loc 1 607 0
 574 0000 50309FE5 		ldr	r3, .L69
 575 0004 0020A0E3 		mov	r2, #0
 604:D:/Work/DeviceTester/amazon-freertos/lib/third_party/mcu_vendor/renesas/rz_mcu_boards/core_package/generate/sc_drivers/r_ostm/src/lld\r_ostm_lld_rza2m.c ****     uint8_t dummy8;
 576              		.loc 1 604 0
 577 0008 70402DE9 		push	{r4, r5, r6, lr}
 578              		.cfi_def_cfa_offset 16
 579              		.cfi_offset 4, -16
 580              		.cfi_offset 5, -12
 581              		.cfi_offset 6, -8
 582              		.cfi_offset 14, -4
 583              		.loc 1 607 0
 584 000c 004193E7 		ldr	r4, [r3, r0, lsl #2]
 585 0010 0130A0E3 		mov	r3, #1
 586 0014 0310A0E1 		mov	r1, r3
 587 0018 185084E2 		add	r5, r4, #24
 608:D:/Work/DeviceTester/amazon-freertos/lib/third_party/mcu_vendor/renesas/rz_mcu_boards/core_package/generate/sc_drivers/r_ostm/src/lld\r_ostm_lld_rza2m.c ****     RZA_IO_RegRead_8(&gsp_ostm_reg[channel]->OSTMnTT.BYTE, IOREG_NONSHIFT_ACCESS, IOREG_NONMASK_ACC
 609:D:/Work/DeviceTester/amazon-freertos/lib/third_party/mcu_vendor/renesas/rz_mcu_boards/core_package/generate/sc_drivers/r_ostm/src/lld\r_ostm_lld_rza2m.c **** 
 610:D:/Work/DeviceTester/amazon-freertos/lib/third_party/mcu_vendor/renesas/rz_mcu_boards/core_package/generate/sc_drivers/r_ostm/src/lld\r_ostm_lld_rza2m.c ****     /* wait until OSTMn.OSTMnTE.BIT.OSTMnTE becomes "0" */
 611:D:/Work/DeviceTester/amazon-freertos/lib/third_party/mcu_vendor/renesas/rz_mcu_boards/core_package/generate/sc_drivers/r_ostm/src/lld\r_ostm_lld_rza2m.c ****     do
 612:D:/Work/DeviceTester/amazon-freertos/lib/third_party/mcu_vendor/renesas/rz_mcu_boards/core_package/generate/sc_drivers/r_ostm/src/lld\r_ostm_lld_rza2m.c ****     {
 613:D:/Work/DeviceTester/amazon-freertos/lib/third_party/mcu_vendor/renesas/rz_mcu_boards/core_package/generate/sc_drivers/r_ostm/src/lld\r_ostm_lld_rza2m.c ****         dummy8 = RZA_IO_RegRead_8(&gsp_ostm_reg[channel]->OSTMnTE.BYTE, OSTM_OSTMnTE_OSTMnTE_SHIFT,
 588              		.loc 1 613 0
 589 001c 104084E2 		add	r4, r4, #16
 607:D:/Work/DeviceTester/amazon-freertos/lib/third_party/mcu_vendor/renesas/rz_mcu_boards/core_package/generate/sc_drivers/r_ostm/src/lld\r_ostm_lld_rza2m.c ****     RZA_IO_RegRead_8(&gsp_ostm_reg[channel]->OSTMnTT.BYTE, IOREG_NONSHIFT_ACCESS, IOREG_NONMASK_ACC
 590              		.loc 1 607 0
 591 0020 0500A0E1 		mov	r0, r5
 592              	.LVL65:
 593 0024 FEFFFFEB 		bl	RZA_IO_RegWrite_8
 594              	.LVL66:
 608:D:/Work/DeviceTester/amazon-freertos/lib/third_party/mcu_vendor/renesas/rz_mcu_boards/core_package/generate/sc_drivers/r_ostm/src/lld\r_ostm_lld_rza2m.c ****     RZA_IO_RegRead_8(&gsp_ostm_reg[channel]->OSTMnTT.BYTE, IOREG_NONSHIFT_ACCESS, IOREG_NONMASK_ACC
 595              		.loc 1 608 0
 596 0028 0020E0E3 		mvn	r2, #0
 597 002c 0010A0E3 		mov	r1, #0
 598 0030 0500A0E1 		mov	r0, r5
 599 0034 FEFFFFEB 		bl	RZA_IO_RegRead_8
 600              	.LVL67:
 601              	.L65:
 602              		.loc 1 613 0 discriminator 1
 603 0038 0120A0E3 		mov	r2, #1
 604 003c 0010A0E3 		mov	r1, #0
 605 0040 0400A0E1 		mov	r0, r4
 606 0044 FEFFFFEB 		bl	RZA_IO_RegRead_8
 607              	.LVL68:
 614:D:/Work/DeviceTester/amazon-freertos/lib/third_party/mcu_vendor/renesas/rz_mcu_boards/core_package/generate/sc_drivers/r_ostm/src/lld\r_ostm_lld_rza2m.c ****     }
 615:D:/Work/DeviceTester/amazon-freertos/lib/third_party/mcu_vendor/renesas/rz_mcu_boards/core_package/generate/sc_drivers/r_ostm/src/lld\r_ostm_lld_rza2m.c ****     while (1 == dummy8);
 608              		.loc 1 615 0 discriminator 1
 609 0048 010050E3 		cmp	r0, #1
 610 004c F9FFFF0A 		beq	.L65
 616:D:/Work/DeviceTester/amazon-freertos/lib/third_party/mcu_vendor/renesas/rz_mcu_boards/core_package/generate/sc_drivers/r_ostm/src/lld\r_ostm_lld_rza2m.c **** 
 617:D:/Work/DeviceTester/amazon-freertos/lib/third_party/mcu_vendor/renesas/rz_mcu_boards/core_package/generate/sc_drivers/r_ostm/src/lld\r_ostm_lld_rza2m.c ****     return (DRV_SUCCESS);
 618:D:/Work/DeviceTester/amazon-freertos/lib/third_party/mcu_vendor/renesas/rz_mcu_boards/core_package/generate/sc_drivers/r_ostm/src/lld\r_ostm_lld_rza2m.c **** }
 611              		.loc 1 618 0
 612 0050 0000A0E3 		mov	r0, #0
 613              	.LVL69:
 614 0054 7080BDE8 		pop	{r4, r5, r6, pc}
 615              	.L70:
 616              		.align	2
 617              	.L69:
 618 0058 00000000 		.word	.LANCHOR1
 619              		.cfi_endproc
 620              	.LFE14:
 622              		.section	.text.R_OSTM_Close,"ax",%progbits
 623              		.align	2
 624              		.global	R_OSTM_Close
 625              		.syntax unified
 626              		.arm
 627              		.fpu neon
 629              	R_OSTM_Close:
 630              	.LFB10:
 467:D:/Work/DeviceTester/amazon-freertos/lib/third_party/mcu_vendor/renesas/rz_mcu_boards/core_package/generate/sc_drivers/r_ostm/src/lld\r_ostm_lld_rza2m.c ****     int_t err;
 631              		.loc 1 467 0
 632              		.cfi_startproc
 633              		@ args = 0, pretend = 0, frame = 0
 634              		@ frame_needed = 0, uses_anonymous_args = 0
 635              	.LVL70:
 475:D:/Work/DeviceTester/amazon-freertos/lib/third_party/mcu_vendor/renesas/rz_mcu_boards/core_package/generate/sc_drivers/r_ostm/src/lld\r_ostm_lld_rza2m.c ****     {
 636              		.loc 1 475 0
 637 0000 020050E3 		cmp	r0, #2
 638 0004 1000009A 		bls	.L72
 467:D:/Work/DeviceTester/amazon-freertos/lib/third_party/mcu_vendor/renesas/rz_mcu_boards/core_package/generate/sc_drivers/r_ostm/src/lld\r_ostm_lld_rza2m.c ****     int_t err;
 639              		.loc 1 467 0
 640 0008 0000E0E3 		mvn	r0, #0
 641              	.LVL71:
 509:D:/Work/DeviceTester/amazon-freertos/lib/third_party/mcu_vendor/renesas/rz_mcu_boards/core_package/generate/sc_drivers/r_ostm/src/lld\r_ostm_lld_rza2m.c **** /******************************************************************************
 642              		.loc 1 509 0
 643 000c 1EFF2FE1 		bx	lr
 644              	.LVL72:
 645              	.L74:
 646              		.cfi_def_cfa_offset 8
 647              		.cfi_offset 4, -8
 648              		.cfi_offset 14, -4
 467:D:/Work/DeviceTester/amazon-freertos/lib/third_party/mcu_vendor/renesas/rz_mcu_boards/core_package/generate/sc_drivers/r_ostm/src/lld\r_ostm_lld_rza2m.c ****     int_t err;
 649              		.loc 1 467 0
 650 0010 0000E0E3 		mvn	r0, #0
 651              	.LVL73:
 652 0014 1080BDE8 		pop	{r4, pc}
 653              	.LVL74:
 654              	.L76:
 489:D:/Work/DeviceTester/amazon-freertos/lib/third_party/mcu_vendor/renesas/rz_mcu_boards/core_package/generate/sc_drivers/r_ostm/src/lld\r_ostm_lld_rza2m.c **** 
 655              		.loc 1 489 0
 656 0018 44209FE5 		ldr	r2, .L81
 657 001c 8430A0E1 		lsl	r3, r4, #1
 658 0020 B30092E1 		ldrh	r0, [r2, r3]
 659              	.LVL75:
 660 0024 FEFFFFEB 		bl	R_INTC_Disable
 661              	.LVL76:
 492:D:/Work/DeviceTester/amazon-freertos/lib/third_party/mcu_vendor/renesas/rz_mcu_boards/core_package/generate/sc_drivers/r_ostm/src/lld\r_ostm_lld_rza2m.c ****         {
 662              		.loc 1 492 0
 663 0028 000050E3 		cmp	r0, #0
 664 002c F7FFFF1A 		bne	.L74
 665              	.LVL77:
 501:D:/Work/DeviceTester/amazon-freertos/lib/third_party/mcu_vendor/renesas/rz_mcu_boards/core_package/generate/sc_drivers/r_ostm/src/lld\r_ostm_lld_rza2m.c ****         if (STB_SUCCESS != error_stb)
 666              		.loc 1 501 0
 667 0030 30309FE5 		ldr	r3, .L81+4
 668 0034 0400D3E7 		ldrb	r0, [r3, r4]	@ zero_extendqisi2
 669              	.LVL78:
 670 0038 FEFFFFEB 		bl	R_STB_StopModule
 671              	.LVL79:
 502:D:/Work/DeviceTester/amazon-freertos/lib/third_party/mcu_vendor/renesas/rz_mcu_boards/core_package/generate/sc_drivers/r_ostm/src/lld\r_ostm_lld_rza2m.c ****         {
 672              		.loc 1 502 0
 673 003c 000090E2 		adds	r0, r0, #0
 674              	.LVL80:
 675 0040 0100A013 		movne	r0, #1
 676 0044 000060E2 		rsb	r0, r0, #0
 509:D:/Work/DeviceTester/amazon-freertos/lib/third_party/mcu_vendor/renesas/rz_mcu_boards/core_package/generate/sc_drivers/r_ostm/src/lld\r_ostm_lld_rza2m.c **** /******************************************************************************
 677              		.loc 1 509 0
 678 0048 1080BDE8 		pop	{r4, pc}
 679              	.LVL81:
 680              	.L72:
 681              		.cfi_def_cfa_offset 0
 682              		.cfi_restore 4
 683              		.cfi_restore 14
 467:D:/Work/DeviceTester/amazon-freertos/lib/third_party/mcu_vendor/renesas/rz_mcu_boards/core_package/generate/sc_drivers/r_ostm/src/lld\r_ostm_lld_rza2m.c ****     int_t err;
 684              		.loc 1 467 0
 685 004c 10402DE9 		push	{r4, lr}
 686              		.cfi_def_cfa_offset 8
 687              		.cfi_offset 4, -8
 688              		.cfi_offset 14, -4
 689 0050 0040A0E1 		mov	r4, r0
 483:D:/Work/DeviceTester/amazon-freertos/lib/third_party/mcu_vendor/renesas/rz_mcu_boards/core_package/generate/sc_drivers/r_ostm/src/lld\r_ostm_lld_rza2m.c ****     }
 690              		.loc 1 483 0
 691 0054 FEFFFFEB 		bl	R_OSTM_Stop
 692              	.LVL82:
 487:D:/Work/DeviceTester/amazon-freertos/lib/third_party/mcu_vendor/renesas/rz_mcu_boards/core_package/generate/sc_drivers/r_ostm/src/lld\r_ostm_lld_rza2m.c ****     {
 693              		.loc 1 487 0
 694 0058 000050E3 		cmp	r0, #0
 695 005c EDFFFF0A 		beq	.L76
 696 0060 1080BDE8 		pop	{r4, pc}
 697              	.L82:
 698              		.align	2
 699              	.L81:
 700 0064 00000000 		.word	.LANCHOR2
 701 0068 00000000 		.word	.LANCHOR0
 702              		.cfi_endproc
 703              	.LFE10:
 705              		.section	.rodata.R_OSTM_GetVersion.str1.1,"aMS",%progbits,1
 706              	.LC1:
 707 0000 4C4C4420 		.ascii	"LLD EBK_RZA2M OSTM\000"
 707      45424B5F 
 707      525A4132 
 707      4D204F53 
 707      544D00
 708              		.section	.rodata.calc_compare.str1.1,"aMS",%progbits,1
 709              	.LC0:
 710 0000 5C5C2E5C 		.ascii	"\\\\.\\cpg\000"
 710      63706700 
 711              		.section	.rodata.gs_intid,"a",%progbits
 712              		.align	1
 713              		.set	.LANCHOR2,. + 0
 716              	gs_intid:
 717 0000 5800     		.short	88
 718 0002 5900     		.short	89
 719 0004 5A00     		.short	90
 720              		.section	.rodata.gs_ostm_module,"a",%progbits
 721              		.set	.LANCHOR0,. + 0
 724              	gs_ostm_module:
 725 0000 02       		.byte	2
 726 0001 03       		.byte	3
 727 0002 04       		.byte	4
 728              		.section	.rodata.gsp_ostm_reg,"a",%progbits
 729              		.align	2
 730              		.set	.LANCHOR1,. + 0
 733              	gsp_ostm_reg:
 734 0000 00B003E8 		.word	-402411520
 735 0004 00C003E8 		.word	-402407424
 736 0008 00D003E8 		.word	-402403328
 737              		.text
 738              	.Letext0:
 739              		.file 2 "c:\\program files (x86)\\gnu tools arm embedded\\6 2017-q2-update\\arm-none-eabi\\include
 740              		.file 3 "c:\\program files (x86)\\gnu tools arm embedded\\6 2017-q2-update\\arm-none-eabi\\include
 741              		.file 4 "c:\\program files (x86)\\gnu tools arm embedded\\6 2017-q2-update\\arm-none-eabi\\include
 742              		.file 5 "c:\\program files (x86)\\gnu tools arm embedded\\6 2017-q2-update\\lib\\gcc\\arm-none-eab
 743              		.file 6 "c:\\program files (x86)\\gnu tools arm embedded\\6 2017-q2-update\\arm-none-eabi\\include
 744              		.file 7 "c:\\program files (x86)\\gnu tools arm embedded\\6 2017-q2-update\\arm-none-eabi\\include
 745              		.file 8 "c:\\program files (x86)\\gnu tools arm embedded\\6 2017-q2-update\\arm-none-eabi\\include
 746              		.file 9 "c:\\program files (x86)\\gnu tools arm embedded\\6 2017-q2-update\\arm-none-eabi\\include
 747              		.file 10 "D:\\Work\\DeviceTester\\amazon-freertos\\lib\\third_party\\mcu_vendor\\renesas\\rz_mcu_b
 748              		.file 11 "D:\\Work\\DeviceTester\\amazon-freertos\\lib\\third_party\\mcu_vendor\\renesas\\rz_mcu_b
 749              		.file 12 "D:\\Work\\DeviceTester\\amazon-freertos\\lib\\third_party\\mcu_vendor\\renesas\\rz_mcu_b
 750              		.file 13 "D:\\Work\\DeviceTester\\amazon-freertos\\lib\\third_party\\mcu_vendor\\renesas\\rz_mcu_b
 751              		.file 14 "D:\\Work\\DeviceTester\\amazon-freertos\\lib\\third_party\\mcu_vendor\\renesas\\rz_mcu_b
 752              		.file 15 "c:\\program files (x86)\\gnu tools arm embedded\\6 2017-q2-update\\arm-none-eabi\\includ
 753              		.file 16 "c:\\program files (x86)\\gnu tools arm embedded\\6 2017-q2-update\\arm-none-eabi\\includ
 754              		.file 17 "D:\\Work\\DeviceTester\\amazon-freertos\\lib\\third_party\\mcu_vendor\\renesas\\rz_mcu_b
 755              		.file 18 "D:\\Work\\DeviceTester\\amazon-freertos\\lib\\third_party\\mcu_vendor\\renesas\\rz_mcu_b
 756              		.file 19 "D:\\Work\\DeviceTester\\amazon-freertos\\lib\\third_party\\mcu_vendor\\renesas\\rz_mcu_b
 757              		.file 20 "D:\\Work\\DeviceTester\\amazon-freertos\\lib\\third_party\\mcu_vendor\\renesas\\rz_mcu_b
 758              		.file 21 "D:\\Work\\DeviceTester\\amazon-freertos\\lib\\third_party\\mcu_vendor\\renesas\\rz_mcu_b
 759              		.file 22 "c:\\program files (x86)\\gnu tools arm embedded\\6 2017-q2-update\\arm-none-eabi\\includ
 760              		.file 23 "D:\\Work\\DeviceTester\\amazon-freertos\\lib\\third_party\\mcu_vendor\\renesas\\rz_mcu_b