   1              		.cpu cortex-a9
   2              		.eabi_attribute 28, 1
   3              		.eabi_attribute 20, 1
   4              		.eabi_attribute 21, 1
   5              		.eabi_attribute 23, 3
   6              		.eabi_attribute 24, 1
   7              		.eabi_attribute 25, 1
   8              		.eabi_attribute 26, 1
   9              		.eabi_attribute 30, 4
  10              		.eabi_attribute 34, 0
  11              		.eabi_attribute 18, 4
  12              		.file	"aws_greengrass_discovery.c"
  13              		.text
  14              	.Ltext0:
  15              		.cfi_sections	.debug_frame
  16              		.section	.text.prvGGDJsoneq,"ax",%progbits
  17              		.align	2
  18              		.syntax unified
  19              		.arm
  20              		.fpu neon
  22              	prvGGDJsoneq:
  23              	.LFB6:
  24              		.file 1 "D:/Work/DeviceTester/amazon-freertos/lib/greengrass/aws_greengrass_discovery.c"
   1:D:/Work/DeviceTester/amazon-freertos/lib/greengrass\aws_greengrass_discovery.c **** /*
   2:D:/Work/DeviceTester/amazon-freertos/lib/greengrass\aws_greengrass_discovery.c ****  * Amazon FreeRTOS Greengrass Discovery V1.0.3
   3:D:/Work/DeviceTester/amazon-freertos/lib/greengrass\aws_greengrass_discovery.c ****  * Copyright (C) 2017 Amazon.com, Inc. or its affiliates.  All Rights Reserved.
   4:D:/Work/DeviceTester/amazon-freertos/lib/greengrass\aws_greengrass_discovery.c ****  *
   5:D:/Work/DeviceTester/amazon-freertos/lib/greengrass\aws_greengrass_discovery.c ****  * Permission is hereby granted, free of charge, to any person obtaining a copy of
   6:D:/Work/DeviceTester/amazon-freertos/lib/greengrass\aws_greengrass_discovery.c ****  * this software and associated documentation files (the "Software"), to deal in
   7:D:/Work/DeviceTester/amazon-freertos/lib/greengrass\aws_greengrass_discovery.c ****  * the Software without restriction, including without limitation the rights to
   8:D:/Work/DeviceTester/amazon-freertos/lib/greengrass\aws_greengrass_discovery.c ****  * use, copy, modify, merge, publish, distribute, sublicense, and/or sell copies of
   9:D:/Work/DeviceTester/amazon-freertos/lib/greengrass\aws_greengrass_discovery.c ****  * the Software, and to permit persons to whom the Software is furnished to do so,
  10:D:/Work/DeviceTester/amazon-freertos/lib/greengrass\aws_greengrass_discovery.c ****  * subject to the following conditions:
  11:D:/Work/DeviceTester/amazon-freertos/lib/greengrass\aws_greengrass_discovery.c ****  *
  12:D:/Work/DeviceTester/amazon-freertos/lib/greengrass\aws_greengrass_discovery.c ****  * The above copyright notice and this permission notice shall be included in all
  13:D:/Work/DeviceTester/amazon-freertos/lib/greengrass\aws_greengrass_discovery.c ****  * copies or substantial portions of the Software.
  14:D:/Work/DeviceTester/amazon-freertos/lib/greengrass\aws_greengrass_discovery.c ****  *
  15:D:/Work/DeviceTester/amazon-freertos/lib/greengrass\aws_greengrass_discovery.c ****  * THE SOFTWARE IS PROVIDED "AS IS", WITHOUT WARRANTY OF ANY KIND, EXPRESS OR
  16:D:/Work/DeviceTester/amazon-freertos/lib/greengrass\aws_greengrass_discovery.c ****  * IMPLIED, INCLUDING BUT NOT LIMITED TO THE WARRANTIES OF MERCHANTABILITY, FITNESS
  17:D:/Work/DeviceTester/amazon-freertos/lib/greengrass\aws_greengrass_discovery.c ****  * FOR A PARTICULAR PURPOSE AND NONINFRINGEMENT. IN NO EVENT SHALL THE AUTHORS OR
  18:D:/Work/DeviceTester/amazon-freertos/lib/greengrass\aws_greengrass_discovery.c ****  * COPYRIGHT HOLDERS BE LIABLE FOR ANY CLAIM, DAMAGES OR OTHER LIABILITY, WHETHER
  19:D:/Work/DeviceTester/amazon-freertos/lib/greengrass\aws_greengrass_discovery.c ****  * IN AN ACTION OF CONTRACT, TORT OR OTHERWISE, ARISING FROM, OUT OF OR IN
  20:D:/Work/DeviceTester/amazon-freertos/lib/greengrass\aws_greengrass_discovery.c ****  * CONNECTION WITH THE SOFTWARE OR THE USE OR OTHER DEALINGS IN THE SOFTWARE.
  21:D:/Work/DeviceTester/amazon-freertos/lib/greengrass\aws_greengrass_discovery.c ****  *
  22:D:/Work/DeviceTester/amazon-freertos/lib/greengrass\aws_greengrass_discovery.c ****  * http://aws.amazon.com/freertos
  23:D:/Work/DeviceTester/amazon-freertos/lib/greengrass\aws_greengrass_discovery.c ****  * http://www.FreeRTOS.org
  24:D:/Work/DeviceTester/amazon-freertos/lib/greengrass\aws_greengrass_discovery.c ****  */
  25:D:/Work/DeviceTester/amazon-freertos/lib/greengrass\aws_greengrass_discovery.c **** 
  26:D:/Work/DeviceTester/amazon-freertos/lib/greengrass\aws_greengrass_discovery.c **** 
  27:D:/Work/DeviceTester/amazon-freertos/lib/greengrass\aws_greengrass_discovery.c **** /**
  28:D:/Work/DeviceTester/amazon-freertos/lib/greengrass\aws_greengrass_discovery.c ****  * @file aws_greengrass_discovery.c
  29:D:/Work/DeviceTester/amazon-freertos/lib/greengrass\aws_greengrass_discovery.c ****  * @brief API for Green grass Discovery. Provides API to Fetch and parse the
  30:D:/Work/DeviceTester/amazon-freertos/lib/greengrass\aws_greengrass_discovery.c ****  * JSON file that contains the greenGrass code info.
  31:D:/Work/DeviceTester/amazon-freertos/lib/greengrass\aws_greengrass_discovery.c ****  */
  32:D:/Work/DeviceTester/amazon-freertos/lib/greengrass\aws_greengrass_discovery.c **** 
  33:D:/Work/DeviceTester/amazon-freertos/lib/greengrass\aws_greengrass_discovery.c **** 
  34:D:/Work/DeviceTester/amazon-freertos/lib/greengrass\aws_greengrass_discovery.c **** /* FreeRTOS includes. */
  35:D:/Work/DeviceTester/amazon-freertos/lib/greengrass\aws_greengrass_discovery.c **** #include "FreeRTOS.h"
  36:D:/Work/DeviceTester/amazon-freertos/lib/greengrass\aws_greengrass_discovery.c **** #include "task.h"
  37:D:/Work/DeviceTester/amazon-freertos/lib/greengrass\aws_greengrass_discovery.c **** #include "queue.h"
  38:D:/Work/DeviceTester/amazon-freertos/lib/greengrass\aws_greengrass_discovery.c **** #include "semphr.h"
  39:D:/Work/DeviceTester/amazon-freertos/lib/greengrass\aws_greengrass_discovery.c **** 
  40:D:/Work/DeviceTester/amazon-freertos/lib/greengrass\aws_greengrass_discovery.c **** /* Secure sockets includes. */
  41:D:/Work/DeviceTester/amazon-freertos/lib/greengrass\aws_greengrass_discovery.c **** #include "aws_secure_sockets.h"
  42:D:/Work/DeviceTester/amazon-freertos/lib/greengrass\aws_greengrass_discovery.c **** 
  43:D:/Work/DeviceTester/amazon-freertos/lib/greengrass\aws_greengrass_discovery.c **** /* Greengrass includes. */
  44:D:/Work/DeviceTester/amazon-freertos/lib/greengrass\aws_greengrass_discovery.c **** #include "aws_ggd_config.h"
  45:D:/Work/DeviceTester/amazon-freertos/lib/greengrass\aws_greengrass_discovery.c **** #include "aws_ggd_config_defaults.h"
  46:D:/Work/DeviceTester/amazon-freertos/lib/greengrass\aws_greengrass_discovery.c **** #include "aws_greengrass_discovery.h"
  47:D:/Work/DeviceTester/amazon-freertos/lib/greengrass\aws_greengrass_discovery.c **** #include "aws_helper_secure_connect.h"
  48:D:/Work/DeviceTester/amazon-freertos/lib/greengrass\aws_greengrass_discovery.c **** #include "jsmn.h"
  49:D:/Work/DeviceTester/amazon-freertos/lib/greengrass\aws_greengrass_discovery.c **** 
  50:D:/Work/DeviceTester/amazon-freertos/lib/greengrass\aws_greengrass_discovery.c **** /* Standard includes. */
  51:D:/Work/DeviceTester/amazon-freertos/lib/greengrass\aws_greengrass_discovery.c **** #include <stdlib.h>
  52:D:/Work/DeviceTester/amazon-freertos/lib/greengrass\aws_greengrass_discovery.c **** #include <string.h>
  53:D:/Work/DeviceTester/amazon-freertos/lib/greengrass\aws_greengrass_discovery.c **** 
  54:D:/Work/DeviceTester/amazon-freertos/lib/greengrass\aws_greengrass_discovery.c **** /**
  55:D:/Work/DeviceTester/amazon-freertos/lib/greengrass\aws_greengrass_discovery.c ****  * @brief Discovery: Strings for JSON file parsing.
  56:D:/Work/DeviceTester/amazon-freertos/lib/greengrass\aws_greengrass_discovery.c ****  *
  57:D:/Work/DeviceTester/amazon-freertos/lib/greengrass\aws_greengrass_discovery.c ****  * Below are JSON file sections used by the parsing tool to recover
  58:D:/Work/DeviceTester/amazon-freertos/lib/greengrass\aws_greengrass_discovery.c ****  * the certificate and IP address.
  59:D:/Work/DeviceTester/amazon-freertos/lib/greengrass\aws_greengrass_discovery.c ****  */
  60:D:/Work/DeviceTester/amazon-freertos/lib/greengrass\aws_greengrass_discovery.c **** /** @{ */
  61:D:/Work/DeviceTester/amazon-freertos/lib/greengrass\aws_greengrass_discovery.c **** #define ggdJSON_FILE_GROUPID         "GGGroupId"
  62:D:/Work/DeviceTester/amazon-freertos/lib/greengrass\aws_greengrass_discovery.c **** #define ggdJSON_FILE_THING_ARN       "thingArn"
  63:D:/Work/DeviceTester/amazon-freertos/lib/greengrass\aws_greengrass_discovery.c **** #define ggdJSON_FILE_HOST_ADDRESS    "HostAddress"
  64:D:/Work/DeviceTester/amazon-freertos/lib/greengrass\aws_greengrass_discovery.c **** #define ggdJSON_FILE_CERTIFICATE     "CAs"
  65:D:/Work/DeviceTester/amazon-freertos/lib/greengrass\aws_greengrass_discovery.c **** #define ggdJSON_FILE_PORT_NUMBER     "PortNumber"
  66:D:/Work/DeviceTester/amazon-freertos/lib/greengrass\aws_greengrass_discovery.c **** /** @} */
  67:D:/Work/DeviceTester/amazon-freertos/lib/greengrass\aws_greengrass_discovery.c **** 
  68:D:/Work/DeviceTester/amazon-freertos/lib/greengrass\aws_greengrass_discovery.c **** /**
  69:D:/Work/DeviceTester/amazon-freertos/lib/greengrass\aws_greengrass_discovery.c ****  * @brief HTTP command to retrieve JSON file from the Cloud.
  70:D:/Work/DeviceTester/amazon-freertos/lib/greengrass\aws_greengrass_discovery.c ****  */
  71:D:/Work/DeviceTester/amazon-freertos/lib/greengrass\aws_greengrass_discovery.c **** #define ggdCLOUD_DISCOVERY_ADDRESS    \
  72:D:/Work/DeviceTester/amazon-freertos/lib/greengrass\aws_greengrass_discovery.c ****     "GET /greengrass/discover/thing/" \
  73:D:/Work/DeviceTester/amazon-freertos/lib/greengrass\aws_greengrass_discovery.c ****     clientcredentialIOT_THING_NAME    \
  74:D:/Work/DeviceTester/amazon-freertos/lib/greengrass\aws_greengrass_discovery.c ****     " HTTP/1.1\r\n\r\n"
  75:D:/Work/DeviceTester/amazon-freertos/lib/greengrass\aws_greengrass_discovery.c **** 
  76:D:/Work/DeviceTester/amazon-freertos/lib/greengrass\aws_greengrass_discovery.c **** #define ggJSON_CONVERTION_RADIX    10
  77:D:/Work/DeviceTester/amazon-freertos/lib/greengrass\aws_greengrass_discovery.c **** 
  78:D:/Work/DeviceTester/amazon-freertos/lib/greengrass\aws_greengrass_discovery.c **** /**
  79:D:/Work/DeviceTester/amazon-freertos/lib/greengrass\aws_greengrass_discovery.c ****  * @brief HTTP field to get the length of the JSON file.
  80:D:/Work/DeviceTester/amazon-freertos/lib/greengrass\aws_greengrass_discovery.c ****  *
  81:D:/Work/DeviceTester/amazon-freertos/lib/greengrass\aws_greengrass_discovery.c ****  * The server respond with the JSON file encapsulated in
  82:D:/Work/DeviceTester/amazon-freertos/lib/greengrass\aws_greengrass_discovery.c ****  * a HTTP header. The header is parsed bytes per bytes until
  83:D:/Work/DeviceTester/amazon-freertos/lib/greengrass\aws_greengrass_discovery.c ****  * "content-length:" is found. then the length string is stored
  84:D:/Work/DeviceTester/amazon-freertos/lib/greengrass\aws_greengrass_discovery.c ****  * into a temporary buffer of the ggJSON_PARSING_TMP_BUFFER_SIZE
  85:D:/Work/DeviceTester/amazon-freertos/lib/greengrass\aws_greengrass_discovery.c ****  * size. Then a string to int conversion is performed to get the size
  86:D:/Work/DeviceTester/amazon-freertos/lib/greengrass\aws_greengrass_discovery.c ****  * of the JSON file.
  87:D:/Work/DeviceTester/amazon-freertos/lib/greengrass\aws_greengrass_discovery.c ****  */
  88:D:/Work/DeviceTester/amazon-freertos/lib/greengrass\aws_greengrass_discovery.c **** /** @{ */
  89:D:/Work/DeviceTester/amazon-freertos/lib/greengrass\aws_greengrass_discovery.c **** #define ggdHTTP_CONTENT_LENGTH_STRING     "content-length:"
  90:D:/Work/DeviceTester/amazon-freertos/lib/greengrass\aws_greengrass_discovery.c **** #define ggJSON_PARSING_TMP_BUFFER_SIZE    10
  91:D:/Work/DeviceTester/amazon-freertos/lib/greengrass\aws_greengrass_discovery.c **** /** @} */
  92:D:/Work/DeviceTester/amazon-freertos/lib/greengrass\aws_greengrass_discovery.c **** 
  93:D:/Work/DeviceTester/amazon-freertos/lib/greengrass\aws_greengrass_discovery.c **** /**
  94:D:/Work/DeviceTester/amazon-freertos/lib/greengrass\aws_greengrass_discovery.c ****  * @brief Size of the IP address character string
  95:D:/Work/DeviceTester/amazon-freertos/lib/greengrass\aws_greengrass_discovery.c ****  *
  96:D:/Work/DeviceTester/amazon-freertos/lib/greengrass\aws_greengrass_discovery.c ****  * IP address is 15 character + the null termination.
  97:D:/Work/DeviceTester/amazon-freertos/lib/greengrass\aws_greengrass_discovery.c ****  */
  98:D:/Work/DeviceTester/amazon-freertos/lib/greengrass\aws_greengrass_discovery.c **** #define ggdJSON_IP_ADDRESS_SIZE    16
  99:D:/Work/DeviceTester/amazon-freertos/lib/greengrass\aws_greengrass_discovery.c **** 
 100:D:/Work/DeviceTester/amazon-freertos/lib/greengrass\aws_greengrass_discovery.c **** /**
 101:D:/Work/DeviceTester/amazon-freertos/lib/greengrass\aws_greengrass_discovery.c ****  * @brief Loop back IP
 102:D:/Work/DeviceTester/amazon-freertos/lib/greengrass\aws_greengrass_discovery.c ****  *
 103:D:/Work/DeviceTester/amazon-freertos/lib/greengrass\aws_greengrass_discovery.c ****  * Discarded when Parsing JSON file as potential IP to connect to.
 104:D:/Work/DeviceTester/amazon-freertos/lib/greengrass\aws_greengrass_discovery.c ****  */
 105:D:/Work/DeviceTester/amazon-freertos/lib/greengrass\aws_greengrass_discovery.c **** #define ggdLOOP_BACK_IP            "127.0.0.1"
 106:D:/Work/DeviceTester/amazon-freertos/lib/greengrass\aws_greengrass_discovery.c **** 
 107:D:/Work/DeviceTester/amazon-freertos/lib/greengrass\aws_greengrass_discovery.c **** /**
 108:D:/Work/DeviceTester/amazon-freertos/lib/greengrass\aws_greengrass_discovery.c ****  * @brief JSON parsing helper functions.
 109:D:/Work/DeviceTester/amazon-freertos/lib/greengrass\aws_greengrass_discovery.c ****  *
 110:D:/Work/DeviceTester/amazon-freertos/lib/greengrass\aws_greengrass_discovery.c ****  * The functions declared below are used to make parsing of JSON file a bit easier.
 111:D:/Work/DeviceTester/amazon-freertos/lib/greengrass\aws_greengrass_discovery.c ****  * The code is broken down into tiny functions to limit code complexity and limit
 112:D:/Work/DeviceTester/amazon-freertos/lib/greengrass\aws_greengrass_discovery.c ****  * duplicate code between auto connect and custom connect.
 113:D:/Work/DeviceTester/amazon-freertos/lib/greengrass\aws_greengrass_discovery.c ****  */
 114:D:/Work/DeviceTester/amazon-freertos/lib/greengrass\aws_greengrass_discovery.c **** /** @{ */
 115:D:/Work/DeviceTester/amazon-freertos/lib/greengrass\aws_greengrass_discovery.c **** static BaseType_t prvGGDJsoneq( const char * pcJson,     /*lint !e971 can use char without signed/u
 116:D:/Work/DeviceTester/amazon-freertos/lib/greengrass\aws_greengrass_discovery.c ****                                 const jsmntok_t * const pxTok,
 117:D:/Work/DeviceTester/amazon-freertos/lib/greengrass\aws_greengrass_discovery.c ****                                 const char * pcString ); /*lint !e971 can use char without signed/u
 118:D:/Work/DeviceTester/amazon-freertos/lib/greengrass\aws_greengrass_discovery.c **** static void prvCheckMatch( const char * pcJSONFile,      /*lint !e971 can use char without signed/u
 119:D:/Work/DeviceTester/amazon-freertos/lib/greengrass\aws_greengrass_discovery.c ****                            const jsmntok_t * pxTok,
 120:D:/Work/DeviceTester/amazon-freertos/lib/greengrass\aws_greengrass_discovery.c ****                            const uint32_t ulTokenIndex,
 121:D:/Work/DeviceTester/amazon-freertos/lib/greengrass\aws_greengrass_discovery.c ****                            BaseType_t * pxMatch,
 122:D:/Work/DeviceTester/amazon-freertos/lib/greengrass\aws_greengrass_discovery.c ****                            const char * pcMatchCategory,   /*lint !e971 can use char without signui
 123:D:/Work/DeviceTester/amazon-freertos/lib/greengrass\aws_greengrass_discovery.c ****                            const char * pcMatchString,     /*lint !e971 can use char without signed
 124:D:/Work/DeviceTester/amazon-freertos/lib/greengrass\aws_greengrass_discovery.c ****                            const BaseType_t xAutoSelectFlag );
 125:D:/Work/DeviceTester/amazon-freertos/lib/greengrass\aws_greengrass_discovery.c **** static BaseType_t prvGGDGetCertificate( char * pcJSONFile, /*lint !e971 can use char without signed
 126:D:/Work/DeviceTester/amazon-freertos/lib/greengrass\aws_greengrass_discovery.c ****                                         const HostParameters_t * pxHostParameters,
 127:D:/Work/DeviceTester/amazon-freertos/lib/greengrass\aws_greengrass_discovery.c ****                                         const BaseType_t xAutoSelectFlag,
 128:D:/Work/DeviceTester/amazon-freertos/lib/greengrass\aws_greengrass_discovery.c ****                                         const jsmntok_t * pxTok,
 129:D:/Work/DeviceTester/amazon-freertos/lib/greengrass\aws_greengrass_discovery.c ****                                         const uint32_t ulNbTokens,
 130:D:/Work/DeviceTester/amazon-freertos/lib/greengrass\aws_greengrass_discovery.c ****                                         GGD_HostAddressData_t * pxHostAddressData );
 131:D:/Work/DeviceTester/amazon-freertos/lib/greengrass\aws_greengrass_discovery.c **** static BaseType_t prvGGDGetIPOnInterface( char * pcJSONFile, /*lint !e971 can use char without sign
 132:D:/Work/DeviceTester/amazon-freertos/lib/greengrass\aws_greengrass_discovery.c ****                                           const uint8_t ucTargetInterface,
 133:D:/Work/DeviceTester/amazon-freertos/lib/greengrass\aws_greengrass_discovery.c ****                                           const jsmntok_t * pxTok,
 134:D:/Work/DeviceTester/amazon-freertos/lib/greengrass\aws_greengrass_discovery.c ****                                           const uint32_t ulNbTokens,
 135:D:/Work/DeviceTester/amazon-freertos/lib/greengrass\aws_greengrass_discovery.c ****                                           GGD_HostAddressData_t * pxHostAddressData,
 136:D:/Work/DeviceTester/amazon-freertos/lib/greengrass\aws_greengrass_discovery.c ****                                           uint32_t * pulTokenIndex,
 137:D:/Work/DeviceTester/amazon-freertos/lib/greengrass\aws_greengrass_discovery.c ****                                           uint8_t * pucCurrentInterface );
 138:D:/Work/DeviceTester/amazon-freertos/lib/greengrass\aws_greengrass_discovery.c **** static BaseType_t prvGGDGetCore( const char * pcJSONFile, /*lint !e971 can use char without signed/
 139:D:/Work/DeviceTester/amazon-freertos/lib/greengrass\aws_greengrass_discovery.c ****                                  const HostParameters_t * const pxHostParameters,
 140:D:/Work/DeviceTester/amazon-freertos/lib/greengrass\aws_greengrass_discovery.c ****                                  const BaseType_t xAutoSelectFlag,
 141:D:/Work/DeviceTester/amazon-freertos/lib/greengrass\aws_greengrass_discovery.c ****                                  const jsmntok_t * pxTok,
 142:D:/Work/DeviceTester/amazon-freertos/lib/greengrass\aws_greengrass_discovery.c ****                                  const uint32_t ulNbTokens,
 143:D:/Work/DeviceTester/amazon-freertos/lib/greengrass\aws_greengrass_discovery.c ****                                  uint32_t * pulTokenIndex );
 144:D:/Work/DeviceTester/amazon-freertos/lib/greengrass\aws_greengrass_discovery.c **** static BaseType_t prvIsIPvalid( const char * pcIP,
 145:D:/Work/DeviceTester/amazon-freertos/lib/greengrass\aws_greengrass_discovery.c ****                                 uint32_t ulIPlength );
 146:D:/Work/DeviceTester/amazon-freertos/lib/greengrass\aws_greengrass_discovery.c **** /** @} */
 147:D:/Work/DeviceTester/amazon-freertos/lib/greengrass\aws_greengrass_discovery.c **** 
 148:D:/Work/DeviceTester/amazon-freertos/lib/greengrass\aws_greengrass_discovery.c **** /**
 149:D:/Work/DeviceTester/amazon-freertos/lib/greengrass\aws_greengrass_discovery.c ****  * @brief Search for length field in server HTTP response
 150:D:/Work/DeviceTester/amazon-freertos/lib/greengrass\aws_greengrass_discovery.c ****  *
 151:D:/Work/DeviceTester/amazon-freertos/lib/greengrass\aws_greengrass_discovery.c ****  * Small helper function that return true when the
 152:D:/Work/DeviceTester/amazon-freertos/lib/greengrass\aws_greengrass_discovery.c ****  * length field is found in the html header.
 153:D:/Work/DeviceTester/amazon-freertos/lib/greengrass\aws_greengrass_discovery.c ****  */
 154:D:/Work/DeviceTester/amazon-freertos/lib/greengrass\aws_greengrass_discovery.c **** static BaseType_t prvCheckForContentLengthString( uint8_t * pucIndex,
 155:D:/Work/DeviceTester/amazon-freertos/lib/greengrass\aws_greengrass_discovery.c ****                                                   const char cNewChar ); /*lint !e971 can use char 
 156:D:/Work/DeviceTester/amazon-freertos/lib/greengrass\aws_greengrass_discovery.c **** 
 157:D:/Work/DeviceTester/amazon-freertos/lib/greengrass\aws_greengrass_discovery.c **** /*-----------------------------------------------------------*/
 158:D:/Work/DeviceTester/amazon-freertos/lib/greengrass\aws_greengrass_discovery.c **** 
 159:D:/Work/DeviceTester/amazon-freertos/lib/greengrass\aws_greengrass_discovery.c **** BaseType_t GGD_GetGGCIPandCertificate( char * pcBuffer, /*lint !e971 can use char without signed/un
 160:D:/Work/DeviceTester/amazon-freertos/lib/greengrass\aws_greengrass_discovery.c ****                                        const uint32_t ulBufferSize,
 161:D:/Work/DeviceTester/amazon-freertos/lib/greengrass\aws_greengrass_discovery.c ****                                        GGD_HostAddressData_t * pxHostAddressData )
 162:D:/Work/DeviceTester/amazon-freertos/lib/greengrass\aws_greengrass_discovery.c **** {
 163:D:/Work/DeviceTester/amazon-freertos/lib/greengrass\aws_greengrass_discovery.c ****     Socket_t xSocket;
 164:D:/Work/DeviceTester/amazon-freertos/lib/greengrass\aws_greengrass_discovery.c ****     uint32_t ulJSONFileSize = 0;
 165:D:/Work/DeviceTester/amazon-freertos/lib/greengrass\aws_greengrass_discovery.c ****     BaseType_t xJSONFileRetrieveCompleted = pdFALSE;
 166:D:/Work/DeviceTester/amazon-freertos/lib/greengrass\aws_greengrass_discovery.c ****     uint32_t ulByteRead = 0;
 167:D:/Work/DeviceTester/amazon-freertos/lib/greengrass\aws_greengrass_discovery.c ****     BaseType_t xStatus;
 168:D:/Work/DeviceTester/amazon-freertos/lib/greengrass\aws_greengrass_discovery.c **** 
 169:D:/Work/DeviceTester/amazon-freertos/lib/greengrass\aws_greengrass_discovery.c ****     configASSERT( pxHostAddressData != NULL );
 170:D:/Work/DeviceTester/amazon-freertos/lib/greengrass\aws_greengrass_discovery.c ****     configASSERT( pcBuffer != NULL );
 171:D:/Work/DeviceTester/amazon-freertos/lib/greengrass\aws_greengrass_discovery.c **** 
 172:D:/Work/DeviceTester/amazon-freertos/lib/greengrass\aws_greengrass_discovery.c ****     xStatus = GGD_JSONRequestStart( &xSocket );
 173:D:/Work/DeviceTester/amazon-freertos/lib/greengrass\aws_greengrass_discovery.c **** 
 174:D:/Work/DeviceTester/amazon-freertos/lib/greengrass\aws_greengrass_discovery.c ****     if( xStatus == pdPASS )
 175:D:/Work/DeviceTester/amazon-freertos/lib/greengrass\aws_greengrass_discovery.c ****     {
 176:D:/Work/DeviceTester/amazon-freertos/lib/greengrass\aws_greengrass_discovery.c ****         xStatus = GGD_JSONRequestGetSize( &xSocket, &ulJSONFileSize );
 177:D:/Work/DeviceTester/amazon-freertos/lib/greengrass\aws_greengrass_discovery.c ****     }
 178:D:/Work/DeviceTester/amazon-freertos/lib/greengrass\aws_greengrass_discovery.c **** 
 179:D:/Work/DeviceTester/amazon-freertos/lib/greengrass\aws_greengrass_discovery.c ****     if( xStatus == pdPASS )
 180:D:/Work/DeviceTester/amazon-freertos/lib/greengrass\aws_greengrass_discovery.c ****     {
 181:D:/Work/DeviceTester/amazon-freertos/lib/greengrass\aws_greengrass_discovery.c ****         /* Loop until the full JSON is retrieved. */
 182:D:/Work/DeviceTester/amazon-freertos/lib/greengrass\aws_greengrass_discovery.c ****         do {
 183:D:/Work/DeviceTester/amazon-freertos/lib/greengrass\aws_greengrass_discovery.c ****             xStatus = GGD_JSONRequestGetFile( &xSocket,
 184:D:/Work/DeviceTester/amazon-freertos/lib/greengrass\aws_greengrass_discovery.c ****                                               &pcBuffer[ulByteRead],
 185:D:/Work/DeviceTester/amazon-freertos/lib/greengrass\aws_greengrass_discovery.c ****                                               ulBufferSize - ulByteRead,
 186:D:/Work/DeviceTester/amazon-freertos/lib/greengrass\aws_greengrass_discovery.c ****                                               &ulByteRead,
 187:D:/Work/DeviceTester/amazon-freertos/lib/greengrass\aws_greengrass_discovery.c ****                                               &xJSONFileRetrieveCompleted,
 188:D:/Work/DeviceTester/amazon-freertos/lib/greengrass\aws_greengrass_discovery.c ****                                               ulJSONFileSize ); /*lint !e644 ulJSONFileSize has bee
 189:D:/Work/DeviceTester/amazon-freertos/lib/greengrass\aws_greengrass_discovery.c ****         } while ( ( xStatus == pdPASS ) && ( xJSONFileRetrieveCompleted != pdTRUE ) && ( ulBufferSi
 190:D:/Work/DeviceTester/amazon-freertos/lib/greengrass\aws_greengrass_discovery.c **** 
 191:D:/Work/DeviceTester/amazon-freertos/lib/greengrass\aws_greengrass_discovery.c ****         /* If the JSON file was not completely received and there
 192:D:/Work/DeviceTester/amazon-freertos/lib/greengrass\aws_greengrass_discovery.c ****          * is no space left in the buffer, it means that the buffer
 193:D:/Work/DeviceTester/amazon-freertos/lib/greengrass\aws_greengrass_discovery.c ****          * is not large enough to hold the complete GreenGrass
 194:D:/Work/DeviceTester/amazon-freertos/lib/greengrass\aws_greengrass_discovery.c ****          * Discovery document. The user should increase the size of
 195:D:/Work/DeviceTester/amazon-freertos/lib/greengrass\aws_greengrass_discovery.c ****          * the buffer. */
 196:D:/Work/DeviceTester/amazon-freertos/lib/greengrass\aws_greengrass_discovery.c ****         if( ( xJSONFileRetrieveCompleted == pdFALSE ) && ( ( ulBufferSize - ulByteRead ) ==  0 ) )
 197:D:/Work/DeviceTester/amazon-freertos/lib/greengrass\aws_greengrass_discovery.c ****         {
 198:D:/Work/DeviceTester/amazon-freertos/lib/greengrass\aws_greengrass_discovery.c ****             ggdconfigPRINT( "[ERROR] The supplied buffer is not large enough to hold the GreenGrass
 199:D:/Work/DeviceTester/amazon-freertos/lib/greengrass\aws_greengrass_discovery.c ****             ggdconfigPRINT( "[ERROR] Consider increasing the size of the supplied buffer. \r\n" );
 200:D:/Work/DeviceTester/amazon-freertos/lib/greengrass\aws_greengrass_discovery.c ****         }
 201:D:/Work/DeviceTester/amazon-freertos/lib/greengrass\aws_greengrass_discovery.c **** 
 202:D:/Work/DeviceTester/amazon-freertos/lib/greengrass\aws_greengrass_discovery.c ****         if( xSocket != SOCKETS_INVALID_SOCKET )             /* Check connection is closed. */
 203:D:/Work/DeviceTester/amazon-freertos/lib/greengrass\aws_greengrass_discovery.c ****         {
 204:D:/Work/DeviceTester/amazon-freertos/lib/greengrass\aws_greengrass_discovery.c ****             GGD_JSONRequestAbort( &xSocket );
 205:D:/Work/DeviceTester/amazon-freertos/lib/greengrass\aws_greengrass_discovery.c ****             xStatus = pdFAIL;
 206:D:/Work/DeviceTester/amazon-freertos/lib/greengrass\aws_greengrass_discovery.c ****         }
 207:D:/Work/DeviceTester/amazon-freertos/lib/greengrass\aws_greengrass_discovery.c **** 
 208:D:/Work/DeviceTester/amazon-freertos/lib/greengrass\aws_greengrass_discovery.c ****         if( xJSONFileRetrieveCompleted != pdTRUE )
 209:D:/Work/DeviceTester/amazon-freertos/lib/greengrass\aws_greengrass_discovery.c ****         {
 210:D:/Work/DeviceTester/amazon-freertos/lib/greengrass\aws_greengrass_discovery.c ****             xStatus = pdFAIL;
 211:D:/Work/DeviceTester/amazon-freertos/lib/greengrass\aws_greengrass_discovery.c ****         }
 212:D:/Work/DeviceTester/amazon-freertos/lib/greengrass\aws_greengrass_discovery.c ****     }
 213:D:/Work/DeviceTester/amazon-freertos/lib/greengrass\aws_greengrass_discovery.c **** 
 214:D:/Work/DeviceTester/amazon-freertos/lib/greengrass\aws_greengrass_discovery.c ****     if( xStatus == pdPASS )
 215:D:/Work/DeviceTester/amazon-freertos/lib/greengrass\aws_greengrass_discovery.c ****     {
 216:D:/Work/DeviceTester/amazon-freertos/lib/greengrass\aws_greengrass_discovery.c ****         xStatus = GGD_GetIPandCertificateFromJSON( pcBuffer,
 217:D:/Work/DeviceTester/amazon-freertos/lib/greengrass\aws_greengrass_discovery.c ****                                                    ulJSONFileSize,
 218:D:/Work/DeviceTester/amazon-freertos/lib/greengrass\aws_greengrass_discovery.c ****                                                    NULL,
 219:D:/Work/DeviceTester/amazon-freertos/lib/greengrass\aws_greengrass_discovery.c ****                                                    pxHostAddressData,
 220:D:/Work/DeviceTester/amazon-freertos/lib/greengrass\aws_greengrass_discovery.c ****                                                    pdTRUE );
 221:D:/Work/DeviceTester/amazon-freertos/lib/greengrass\aws_greengrass_discovery.c ****     }
 222:D:/Work/DeviceTester/amazon-freertos/lib/greengrass\aws_greengrass_discovery.c **** 
 223:D:/Work/DeviceTester/amazon-freertos/lib/greengrass\aws_greengrass_discovery.c ****     return xStatus;
 224:D:/Work/DeviceTester/amazon-freertos/lib/greengrass\aws_greengrass_discovery.c **** }
 225:D:/Work/DeviceTester/amazon-freertos/lib/greengrass\aws_greengrass_discovery.c **** /*-----------------------------------------------------------*/
 226:D:/Work/DeviceTester/amazon-freertos/lib/greengrass\aws_greengrass_discovery.c **** 
 227:D:/Work/DeviceTester/amazon-freertos/lib/greengrass\aws_greengrass_discovery.c **** BaseType_t GGD_JSONRequestStart( Socket_t * pxSocket )
 228:D:/Work/DeviceTester/amazon-freertos/lib/greengrass\aws_greengrass_discovery.c **** {
 229:D:/Work/DeviceTester/amazon-freertos/lib/greengrass\aws_greengrass_discovery.c ****     GGD_HostAddressData_t xHostAddressData;
 230:D:/Work/DeviceTester/amazon-freertos/lib/greengrass\aws_greengrass_discovery.c ****     BaseType_t xStatus;
 231:D:/Work/DeviceTester/amazon-freertos/lib/greengrass\aws_greengrass_discovery.c **** 
 232:D:/Work/DeviceTester/amazon-freertos/lib/greengrass\aws_greengrass_discovery.c ****     configASSERT( pxSocket != NULL );
 233:D:/Work/DeviceTester/amazon-freertos/lib/greengrass\aws_greengrass_discovery.c **** 
 234:D:/Work/DeviceTester/amazon-freertos/lib/greengrass\aws_greengrass_discovery.c ****     xHostAddressData.pcHostAddress = clientcredentialMQTT_BROKER_ENDPOINT; /*lint !e971 can use cha
 235:D:/Work/DeviceTester/amazon-freertos/lib/greengrass\aws_greengrass_discovery.c ****     xHostAddressData.pcCertificate = NULL;                                 /* Use default certifica
 236:D:/Work/DeviceTester/amazon-freertos/lib/greengrass\aws_greengrass_discovery.c ****     xHostAddressData.ulCertificateSize = 0;
 237:D:/Work/DeviceTester/amazon-freertos/lib/greengrass\aws_greengrass_discovery.c ****     xHostAddressData.usPort = clientcredentialGREENGRASS_DISCOVERY_PORT;
 238:D:/Work/DeviceTester/amazon-freertos/lib/greengrass\aws_greengrass_discovery.c **** 
 239:D:/Work/DeviceTester/amazon-freertos/lib/greengrass\aws_greengrass_discovery.c ****     /* Establish secure connection. */
 240:D:/Work/DeviceTester/amazon-freertos/lib/greengrass\aws_greengrass_discovery.c ****     xStatus = GGD_SecureConnect_Connect( &xHostAddressData,
 241:D:/Work/DeviceTester/amazon-freertos/lib/greengrass\aws_greengrass_discovery.c ****                                          pxSocket,
 242:D:/Work/DeviceTester/amazon-freertos/lib/greengrass\aws_greengrass_discovery.c ****                                          ggdconfigTCP_RECEIVE_TIMEOUT_MS,
 243:D:/Work/DeviceTester/amazon-freertos/lib/greengrass\aws_greengrass_discovery.c ****                                          ggdconfigTCP_SEND_TIMEOUT_MS );
 244:D:/Work/DeviceTester/amazon-freertos/lib/greengrass\aws_greengrass_discovery.c **** 
 245:D:/Work/DeviceTester/amazon-freertos/lib/greengrass\aws_greengrass_discovery.c ****     if( xStatus == pdPASS )
 246:D:/Work/DeviceTester/amazon-freertos/lib/greengrass\aws_greengrass_discovery.c ****     {
 247:D:/Work/DeviceTester/amazon-freertos/lib/greengrass\aws_greengrass_discovery.c ****         /* Send HTTP request over secure connection (HTTPS) to get the GGC JSON file. */
 248:D:/Work/DeviceTester/amazon-freertos/lib/greengrass\aws_greengrass_discovery.c ****         xStatus = GGD_SecureConnect_Send( ggdCLOUD_DISCOVERY_ADDRESS,
 249:D:/Work/DeviceTester/amazon-freertos/lib/greengrass\aws_greengrass_discovery.c ****                                           ( uint32_t ) sizeof( ggdCLOUD_DISCOVERY_ADDRESS ) - 1,
 250:D:/Work/DeviceTester/amazon-freertos/lib/greengrass\aws_greengrass_discovery.c ****                                           *pxSocket );
 251:D:/Work/DeviceTester/amazon-freertos/lib/greengrass\aws_greengrass_discovery.c **** 
 252:D:/Work/DeviceTester/amazon-freertos/lib/greengrass\aws_greengrass_discovery.c ****         if( xStatus == pdFAIL )
 253:D:/Work/DeviceTester/amazon-freertos/lib/greengrass\aws_greengrass_discovery.c ****         {
 254:D:/Work/DeviceTester/amazon-freertos/lib/greengrass\aws_greengrass_discovery.c ****             /* Don't forget to close the connection. */
 255:D:/Work/DeviceTester/amazon-freertos/lib/greengrass\aws_greengrass_discovery.c ****             GGD_SecureConnect_Disconnect( pxSocket );
 256:D:/Work/DeviceTester/amazon-freertos/lib/greengrass\aws_greengrass_discovery.c ****             ggdconfigPRINT( "JSON request failed\r\n" );
 257:D:/Work/DeviceTester/amazon-freertos/lib/greengrass\aws_greengrass_discovery.c ****         }
 258:D:/Work/DeviceTester/amazon-freertos/lib/greengrass\aws_greengrass_discovery.c ****     }
 259:D:/Work/DeviceTester/amazon-freertos/lib/greengrass\aws_greengrass_discovery.c ****     else
 260:D:/Work/DeviceTester/amazon-freertos/lib/greengrass\aws_greengrass_discovery.c ****     {
 261:D:/Work/DeviceTester/amazon-freertos/lib/greengrass\aws_greengrass_discovery.c ****         ggdconfigPRINT( "JSON request could not connect to end point\r\n" );
 262:D:/Work/DeviceTester/amazon-freertos/lib/greengrass\aws_greengrass_discovery.c ****     }
 263:D:/Work/DeviceTester/amazon-freertos/lib/greengrass\aws_greengrass_discovery.c **** 
 264:D:/Work/DeviceTester/amazon-freertos/lib/greengrass\aws_greengrass_discovery.c ****     return xStatus;
 265:D:/Work/DeviceTester/amazon-freertos/lib/greengrass\aws_greengrass_discovery.c **** }
 266:D:/Work/DeviceTester/amazon-freertos/lib/greengrass\aws_greengrass_discovery.c **** /*-----------------------------------------------------------*/
 267:D:/Work/DeviceTester/amazon-freertos/lib/greengrass\aws_greengrass_discovery.c **** 
 268:D:/Work/DeviceTester/amazon-freertos/lib/greengrass\aws_greengrass_discovery.c **** BaseType_t GGD_JSONRequestGetSize( Socket_t * pxSocket,
 269:D:/Work/DeviceTester/amazon-freertos/lib/greengrass\aws_greengrass_discovery.c ****                                    uint32_t * pulJSONFileSize )
 270:D:/Work/DeviceTester/amazon-freertos/lib/greengrass\aws_greengrass_discovery.c **** {
 271:D:/Work/DeviceTester/amazon-freertos/lib/greengrass\aws_greengrass_discovery.c ****     BaseType_t xStatus = pdFAIL;
 272:D:/Work/DeviceTester/amazon-freertos/lib/greengrass\aws_greengrass_discovery.c ****     BaseType_t xReadStatus = pdFAIL;
 273:D:/Work/DeviceTester/amazon-freertos/lib/greengrass\aws_greengrass_discovery.c ****     char cBuffer[ ggJSON_PARSING_TMP_BUFFER_SIZE ]; /*lint !e971 can use char without signed/unsign
 274:D:/Work/DeviceTester/amazon-freertos/lib/greengrass\aws_greengrass_discovery.c ****     char cReadChar;                                 /*lint !e971 can use char without signed/unsign
 275:D:/Work/DeviceTester/amazon-freertos/lib/greengrass\aws_greengrass_discovery.c ****     uint32_t ulReadSize;
 276:D:/Work/DeviceTester/amazon-freertos/lib/greengrass\aws_greengrass_discovery.c ****     uint8_t ucContentLengthIndex = 0;
 277:D:/Work/DeviceTester/amazon-freertos/lib/greengrass\aws_greengrass_discovery.c ****     uint8_t ucLengthStrIndex;
 278:D:/Work/DeviceTester/amazon-freertos/lib/greengrass\aws_greengrass_discovery.c **** 
 279:D:/Work/DeviceTester/amazon-freertos/lib/greengrass\aws_greengrass_discovery.c **** 
 280:D:/Work/DeviceTester/amazon-freertos/lib/greengrass\aws_greengrass_discovery.c ****     /****** Parse the header until the begining of the content length string is found. *****/
 281:D:/Work/DeviceTester/amazon-freertos/lib/greengrass\aws_greengrass_discovery.c ****     configASSERT( pxSocket != NULL );
 282:D:/Work/DeviceTester/amazon-freertos/lib/greengrass\aws_greengrass_discovery.c ****     configASSERT( pulJSONFileSize != NULL );
 283:D:/Work/DeviceTester/amazon-freertos/lib/greengrass\aws_greengrass_discovery.c ****     memset( cBuffer, 0, sizeof( cBuffer ) );
 284:D:/Work/DeviceTester/amazon-freertos/lib/greengrass\aws_greengrass_discovery.c **** 
 285:D:/Work/DeviceTester/amazon-freertos/lib/greengrass\aws_greengrass_discovery.c ****     do
 286:D:/Work/DeviceTester/amazon-freertos/lib/greengrass\aws_greengrass_discovery.c ****     {
 287:D:/Work/DeviceTester/amazon-freertos/lib/greengrass\aws_greengrass_discovery.c ****         xReadStatus = GGD_SecureConnect_Read( &cReadChar,
 288:D:/Work/DeviceTester/amazon-freertos/lib/greengrass\aws_greengrass_discovery.c ****                                               ( uint32_t ) 1,
 289:D:/Work/DeviceTester/amazon-freertos/lib/greengrass\aws_greengrass_discovery.c ****                                               *pxSocket,
 290:D:/Work/DeviceTester/amazon-freertos/lib/greengrass\aws_greengrass_discovery.c ****                                               &ulReadSize );
 291:D:/Work/DeviceTester/amazon-freertos/lib/greengrass\aws_greengrass_discovery.c **** 
 292:D:/Work/DeviceTester/amazon-freertos/lib/greengrass\aws_greengrass_discovery.c ****         /** Check if we have found the end of header. */
 293:D:/Work/DeviceTester/amazon-freertos/lib/greengrass\aws_greengrass_discovery.c ****         if( prvCheckForContentLengthString( &ucContentLengthIndex, cReadChar ) == pdTRUE )
 294:D:/Work/DeviceTester/amazon-freertos/lib/greengrass\aws_greengrass_discovery.c ****         {
 295:D:/Work/DeviceTester/amazon-freertos/lib/greengrass\aws_greengrass_discovery.c ****             xStatus = pdPASS;
 296:D:/Work/DeviceTester/amazon-freertos/lib/greengrass\aws_greengrass_discovery.c ****             break;
 297:D:/Work/DeviceTester/amazon-freertos/lib/greengrass\aws_greengrass_discovery.c ****         }
 298:D:/Work/DeviceTester/amazon-freertos/lib/greengrass\aws_greengrass_discovery.c ****     } while( ( xReadStatus == pdPASS ) && ( ulReadSize == ( uint32_t ) 1 ) );
 299:D:/Work/DeviceTester/amazon-freertos/lib/greengrass\aws_greengrass_discovery.c **** 
 300:D:/Work/DeviceTester/amazon-freertos/lib/greengrass\aws_greengrass_discovery.c ****     if( xStatus == pdPASS )
 301:D:/Work/DeviceTester/amazon-freertos/lib/greengrass\aws_greengrass_discovery.c ****     {
 302:D:/Work/DeviceTester/amazon-freertos/lib/greengrass\aws_greengrass_discovery.c ****         /****** Get JSON file Size. *****/
 303:D:/Work/DeviceTester/amazon-freertos/lib/greengrass\aws_greengrass_discovery.c ****         for( ucLengthStrIndex = ( uint8_t ) 0;
 304:D:/Work/DeviceTester/amazon-freertos/lib/greengrass\aws_greengrass_discovery.c ****              ucLengthStrIndex < ( uint8_t ) ggJSON_PARSING_TMP_BUFFER_SIZE;
 305:D:/Work/DeviceTester/amazon-freertos/lib/greengrass\aws_greengrass_discovery.c ****              ucLengthStrIndex++ )
 306:D:/Work/DeviceTester/amazon-freertos/lib/greengrass\aws_greengrass_discovery.c ****         {
 307:D:/Work/DeviceTester/amazon-freertos/lib/greengrass\aws_greengrass_discovery.c ****             xReadStatus = GGD_SecureConnect_Read( &cBuffer[ ucLengthStrIndex ],
 308:D:/Work/DeviceTester/amazon-freertos/lib/greengrass\aws_greengrass_discovery.c ****                                                   ( uint32_t ) 1,
 309:D:/Work/DeviceTester/amazon-freertos/lib/greengrass\aws_greengrass_discovery.c ****                                                   *pxSocket,
 310:D:/Work/DeviceTester/amazon-freertos/lib/greengrass\aws_greengrass_discovery.c ****                                                   &ulReadSize );
 311:D:/Work/DeviceTester/amazon-freertos/lib/greengrass\aws_greengrass_discovery.c **** 
 312:D:/Work/DeviceTester/amazon-freertos/lib/greengrass\aws_greengrass_discovery.c ****             if( ( xReadStatus == pdFAIL ) || ( ulReadSize != ( uint32_t ) 1 ) )
 313:D:/Work/DeviceTester/amazon-freertos/lib/greengrass\aws_greengrass_discovery.c ****             {
 314:D:/Work/DeviceTester/amazon-freertos/lib/greengrass\aws_greengrass_discovery.c ****                 ggdconfigPRINT( "JSON parsing could not get JSON file Size.\r\n" );
 315:D:/Work/DeviceTester/amazon-freertos/lib/greengrass\aws_greengrass_discovery.c ****                 xStatus = pdFAIL;
 316:D:/Work/DeviceTester/amazon-freertos/lib/greengrass\aws_greengrass_discovery.c ****                 break;
 317:D:/Work/DeviceTester/amazon-freertos/lib/greengrass\aws_greengrass_discovery.c ****             }
 318:D:/Work/DeviceTester/amazon-freertos/lib/greengrass\aws_greengrass_discovery.c ****         }
 319:D:/Work/DeviceTester/amazon-freertos/lib/greengrass\aws_greengrass_discovery.c ****     }
 320:D:/Work/DeviceTester/amazon-freertos/lib/greengrass\aws_greengrass_discovery.c **** 
 321:D:/Work/DeviceTester/amazon-freertos/lib/greengrass\aws_greengrass_discovery.c ****     if( xStatus == pdPASS )
 322:D:/Work/DeviceTester/amazon-freertos/lib/greengrass\aws_greengrass_discovery.c ****     {
 323:D:/Work/DeviceTester/amazon-freertos/lib/greengrass\aws_greengrass_discovery.c ****         /* Add 1 because at the end of the JSON file the escape character '\0' will be added. */
 324:D:/Work/DeviceTester/amazon-freertos/lib/greengrass\aws_greengrass_discovery.c ****         *pulJSONFileSize =
 325:D:/Work/DeviceTester/amazon-freertos/lib/greengrass\aws_greengrass_discovery.c ****             ( uint32_t ) strtoul( cBuffer, NULL, ggJSON_CONVERTION_RADIX )
 326:D:/Work/DeviceTester/amazon-freertos/lib/greengrass\aws_greengrass_discovery.c ****             + ( uint32_t ) 1; /*lint !e645 if code reaches here, cBuffer has been inialized. */
 327:D:/Work/DeviceTester/amazon-freertos/lib/greengrass\aws_greengrass_discovery.c **** 
 328:D:/Work/DeviceTester/amazon-freertos/lib/greengrass\aws_greengrass_discovery.c ****         /****** Go to the end of the header *****/
 329:D:/Work/DeviceTester/amazon-freertos/lib/greengrass\aws_greengrass_discovery.c ****         xStatus = pdFAIL;
 330:D:/Work/DeviceTester/amazon-freertos/lib/greengrass\aws_greengrass_discovery.c **** 
 331:D:/Work/DeviceTester/amazon-freertos/lib/greengrass\aws_greengrass_discovery.c ****         do
 332:D:/Work/DeviceTester/amazon-freertos/lib/greengrass\aws_greengrass_discovery.c ****         {
 333:D:/Work/DeviceTester/amazon-freertos/lib/greengrass\aws_greengrass_discovery.c ****             xReadStatus = GGD_SecureConnect_Read( &cBuffer[ 3 ],
 334:D:/Work/DeviceTester/amazon-freertos/lib/greengrass\aws_greengrass_discovery.c ****                                                   ( uint32_t ) 1,
 335:D:/Work/DeviceTester/amazon-freertos/lib/greengrass\aws_greengrass_discovery.c ****                                                   *pxSocket,
 336:D:/Work/DeviceTester/amazon-freertos/lib/greengrass\aws_greengrass_discovery.c ****                                                   &ulReadSize );
 337:D:/Work/DeviceTester/amazon-freertos/lib/greengrass\aws_greengrass_discovery.c **** 
 338:D:/Work/DeviceTester/amazon-freertos/lib/greengrass\aws_greengrass_discovery.c ****             /* Check if we have found the end of header. */
 339:D:/Work/DeviceTester/amazon-freertos/lib/greengrass\aws_greengrass_discovery.c ****             if( ( cBuffer[ 0 ] == '\r' ) &&
 340:D:/Work/DeviceTester/amazon-freertos/lib/greengrass\aws_greengrass_discovery.c ****                 ( cBuffer[ 1 ] == '\n' ) &&
 341:D:/Work/DeviceTester/amazon-freertos/lib/greengrass\aws_greengrass_discovery.c ****                 ( cBuffer[ 2 ] == '\r' ) &&
 342:D:/Work/DeviceTester/amazon-freertos/lib/greengrass\aws_greengrass_discovery.c ****                 ( cBuffer[ 3 ] == '\n' ) )
 343:D:/Work/DeviceTester/amazon-freertos/lib/greengrass\aws_greengrass_discovery.c ****             {
 344:D:/Work/DeviceTester/amazon-freertos/lib/greengrass\aws_greengrass_discovery.c ****                 xStatus = pdPASS;
 345:D:/Work/DeviceTester/amazon-freertos/lib/greengrass\aws_greengrass_discovery.c ****                 break;
 346:D:/Work/DeviceTester/amazon-freertos/lib/greengrass\aws_greengrass_discovery.c ****             }
 347:D:/Work/DeviceTester/amazon-freertos/lib/greengrass\aws_greengrass_discovery.c **** 
 348:D:/Work/DeviceTester/amazon-freertos/lib/greengrass\aws_greengrass_discovery.c ****             cBuffer[ 0 ] = cBuffer[ 1 ];
 349:D:/Work/DeviceTester/amazon-freertos/lib/greengrass\aws_greengrass_discovery.c ****             cBuffer[ 1 ] = cBuffer[ 2 ];
 350:D:/Work/DeviceTester/amazon-freertos/lib/greengrass\aws_greengrass_discovery.c ****             cBuffer[ 2 ] = cBuffer[ 3 ];
 351:D:/Work/DeviceTester/amazon-freertos/lib/greengrass\aws_greengrass_discovery.c ****         } while( ( xReadStatus == pdPASS ) && ( ulReadSize == ( uint32_t ) 1 ) );
 352:D:/Work/DeviceTester/amazon-freertos/lib/greengrass\aws_greengrass_discovery.c ****     }
 353:D:/Work/DeviceTester/amazon-freertos/lib/greengrass\aws_greengrass_discovery.c **** 
 354:D:/Work/DeviceTester/amazon-freertos/lib/greengrass\aws_greengrass_discovery.c ****     if( xStatus == pdFAIL )
 355:D:/Work/DeviceTester/amazon-freertos/lib/greengrass\aws_greengrass_discovery.c ****     {
 356:D:/Work/DeviceTester/amazon-freertos/lib/greengrass\aws_greengrass_discovery.c ****         /* Don't forget to close the connection. */
 357:D:/Work/DeviceTester/amazon-freertos/lib/greengrass\aws_greengrass_discovery.c ****         GGD_SecureConnect_Disconnect( pxSocket );
 358:D:/Work/DeviceTester/amazon-freertos/lib/greengrass\aws_greengrass_discovery.c ****         ggdconfigPRINT( "JSON parsing failed\r\n" );
 359:D:/Work/DeviceTester/amazon-freertos/lib/greengrass\aws_greengrass_discovery.c ****     }
 360:D:/Work/DeviceTester/amazon-freertos/lib/greengrass\aws_greengrass_discovery.c **** 
 361:D:/Work/DeviceTester/amazon-freertos/lib/greengrass\aws_greengrass_discovery.c ****     return xStatus;
 362:D:/Work/DeviceTester/amazon-freertos/lib/greengrass\aws_greengrass_discovery.c **** }
 363:D:/Work/DeviceTester/amazon-freertos/lib/greengrass\aws_greengrass_discovery.c **** /*-----------------------------------------------------------*/
 364:D:/Work/DeviceTester/amazon-freertos/lib/greengrass\aws_greengrass_discovery.c **** BaseType_t GGD_JSONRequestGetFile( Socket_t * pxSocket,
 365:D:/Work/DeviceTester/amazon-freertos/lib/greengrass\aws_greengrass_discovery.c ****                                    char * pcBuffer, /*lint !e971 can use char without signed/unsign
 366:D:/Work/DeviceTester/amazon-freertos/lib/greengrass\aws_greengrass_discovery.c ****                                    const uint32_t ulBufferSize,
 367:D:/Work/DeviceTester/amazon-freertos/lib/greengrass\aws_greengrass_discovery.c ****                                    uint32_t * pulByteRead,
 368:D:/Work/DeviceTester/amazon-freertos/lib/greengrass\aws_greengrass_discovery.c ****                                    BaseType_t * pxJSONFileRetrieveCompleted,
 369:D:/Work/DeviceTester/amazon-freertos/lib/greengrass\aws_greengrass_discovery.c ****                                    const uint32_t pulJSONFileSize )
 370:D:/Work/DeviceTester/amazon-freertos/lib/greengrass\aws_greengrass_discovery.c **** {
 371:D:/Work/DeviceTester/amazon-freertos/lib/greengrass\aws_greengrass_discovery.c ****     BaseType_t xStatus;
 372:D:/Work/DeviceTester/amazon-freertos/lib/greengrass\aws_greengrass_discovery.c ****     uint32_t ulDataSizeRead;
 373:D:/Work/DeviceTester/amazon-freertos/lib/greengrass\aws_greengrass_discovery.c **** 
 374:D:/Work/DeviceTester/amazon-freertos/lib/greengrass\aws_greengrass_discovery.c ****     configASSERT( pxSocket != NULL );
 375:D:/Work/DeviceTester/amazon-freertos/lib/greengrass\aws_greengrass_discovery.c ****     configASSERT( pulByteRead != NULL );
 376:D:/Work/DeviceTester/amazon-freertos/lib/greengrass\aws_greengrass_discovery.c ****     configASSERT( pxJSONFileRetrieveCompleted != NULL );
 377:D:/Work/DeviceTester/amazon-freertos/lib/greengrass\aws_greengrass_discovery.c ****     configASSERT( pcBuffer != NULL );
 378:D:/Work/DeviceTester/amazon-freertos/lib/greengrass\aws_greengrass_discovery.c **** 
 379:D:/Work/DeviceTester/amazon-freertos/lib/greengrass\aws_greengrass_discovery.c ****     *pxJSONFileRetrieveCompleted = pdFALSE;
 380:D:/Work/DeviceTester/amazon-freertos/lib/greengrass\aws_greengrass_discovery.c **** 
 381:D:/Work/DeviceTester/amazon-freertos/lib/greengrass\aws_greengrass_discovery.c ****     xStatus = GGD_SecureConnect_Read( pcBuffer,
 382:D:/Work/DeviceTester/amazon-freertos/lib/greengrass\aws_greengrass_discovery.c ****                                       ulBufferSize,
 383:D:/Work/DeviceTester/amazon-freertos/lib/greengrass\aws_greengrass_discovery.c ****                                       *pxSocket,
 384:D:/Work/DeviceTester/amazon-freertos/lib/greengrass\aws_greengrass_discovery.c ****                                       &ulDataSizeRead );
 385:D:/Work/DeviceTester/amazon-freertos/lib/greengrass\aws_greengrass_discovery.c **** 
 386:D:/Work/DeviceTester/amazon-freertos/lib/greengrass\aws_greengrass_discovery.c ****     if( xStatus == pdPASS )
 387:D:/Work/DeviceTester/amazon-freertos/lib/greengrass\aws_greengrass_discovery.c ****     {
 388:D:/Work/DeviceTester/amazon-freertos/lib/greengrass\aws_greengrass_discovery.c ****         *pulByteRead += ulDataSizeRead;
 389:D:/Work/DeviceTester/amazon-freertos/lib/greengrass\aws_greengrass_discovery.c **** 
 390:D:/Work/DeviceTester/amazon-freertos/lib/greengrass\aws_greengrass_discovery.c ****         /* We retrieved more than expected, this is failed. */
 391:D:/Work/DeviceTester/amazon-freertos/lib/greengrass\aws_greengrass_discovery.c ****         if( *pulByteRead > ( pulJSONFileSize - ( uint32_t ) 1 ) )
 392:D:/Work/DeviceTester/amazon-freertos/lib/greengrass\aws_greengrass_discovery.c ****         {
 393:D:/Work/DeviceTester/amazon-freertos/lib/greengrass\aws_greengrass_discovery.c ****             ggdconfigPRINT( "JSON parsing - Received %ld, expected at most %ld \r\n",
 394:D:/Work/DeviceTester/amazon-freertos/lib/greengrass\aws_greengrass_discovery.c ****                             *pulByteRead,
 395:D:/Work/DeviceTester/amazon-freertos/lib/greengrass\aws_greengrass_discovery.c ****                             pulJSONFileSize - ( uint32_t ) 1 );
 396:D:/Work/DeviceTester/amazon-freertos/lib/greengrass\aws_greengrass_discovery.c ****             xStatus = pdFAIL;
 397:D:/Work/DeviceTester/amazon-freertos/lib/greengrass\aws_greengrass_discovery.c ****         }
 398:D:/Work/DeviceTester/amazon-freertos/lib/greengrass\aws_greengrass_discovery.c ****     }
 399:D:/Work/DeviceTester/amazon-freertos/lib/greengrass\aws_greengrass_discovery.c **** 
 400:D:/Work/DeviceTester/amazon-freertos/lib/greengrass\aws_greengrass_discovery.c ****     if( xStatus == pdPASS )
 401:D:/Work/DeviceTester/amazon-freertos/lib/greengrass\aws_greengrass_discovery.c ****     {
 402:D:/Work/DeviceTester/amazon-freertos/lib/greengrass\aws_greengrass_discovery.c ****         /* We still have more to retrieve. */
 403:D:/Work/DeviceTester/amazon-freertos/lib/greengrass\aws_greengrass_discovery.c ****         if( *pulByteRead < ( pulJSONFileSize - ( uint32_t ) 1 ) )
 404:D:/Work/DeviceTester/amazon-freertos/lib/greengrass\aws_greengrass_discovery.c ****         {
 405:D:/Work/DeviceTester/amazon-freertos/lib/greengrass\aws_greengrass_discovery.c ****             *pxJSONFileRetrieveCompleted = pdFALSE;
 406:D:/Work/DeviceTester/amazon-freertos/lib/greengrass\aws_greengrass_discovery.c ****         }
 407:D:/Work/DeviceTester/amazon-freertos/lib/greengrass\aws_greengrass_discovery.c ****         else
 408:D:/Work/DeviceTester/amazon-freertos/lib/greengrass\aws_greengrass_discovery.c ****         {
 409:D:/Work/DeviceTester/amazon-freertos/lib/greengrass\aws_greengrass_discovery.c ****             /* Add the escape character. */
 410:D:/Work/DeviceTester/amazon-freertos/lib/greengrass\aws_greengrass_discovery.c ****             pcBuffer[ pulJSONFileSize - ( uint32_t ) 1 ] = '\0';
 411:D:/Work/DeviceTester/amazon-freertos/lib/greengrass\aws_greengrass_discovery.c ****             *pxJSONFileRetrieveCompleted = pdTRUE;
 412:D:/Work/DeviceTester/amazon-freertos/lib/greengrass\aws_greengrass_discovery.c ****         }
 413:D:/Work/DeviceTester/amazon-freertos/lib/greengrass\aws_greengrass_discovery.c ****     }
 414:D:/Work/DeviceTester/amazon-freertos/lib/greengrass\aws_greengrass_discovery.c **** 
 415:D:/Work/DeviceTester/amazon-freertos/lib/greengrass\aws_greengrass_discovery.c ****     if( xStatus == pdFAIL )
 416:D:/Work/DeviceTester/amazon-freertos/lib/greengrass\aws_greengrass_discovery.c ****     {
 417:D:/Work/DeviceTester/amazon-freertos/lib/greengrass\aws_greengrass_discovery.c ****         ggdconfigPRINT( "JSON parsing - JSON file retrieval failed\r\n" );
 418:D:/Work/DeviceTester/amazon-freertos/lib/greengrass\aws_greengrass_discovery.c ****         /* Don't forget to close the connection. */
 419:D:/Work/DeviceTester/amazon-freertos/lib/greengrass\aws_greengrass_discovery.c ****         GGD_SecureConnect_Disconnect( pxSocket );
 420:D:/Work/DeviceTester/amazon-freertos/lib/greengrass\aws_greengrass_discovery.c ****     }
 421:D:/Work/DeviceTester/amazon-freertos/lib/greengrass\aws_greengrass_discovery.c ****     else
 422:D:/Work/DeviceTester/amazon-freertos/lib/greengrass\aws_greengrass_discovery.c ****     {
 423:D:/Work/DeviceTester/amazon-freertos/lib/greengrass\aws_greengrass_discovery.c ****         if( *pxJSONFileRetrieveCompleted == pdTRUE )
 424:D:/Work/DeviceTester/amazon-freertos/lib/greengrass\aws_greengrass_discovery.c ****         {
 425:D:/Work/DeviceTester/amazon-freertos/lib/greengrass\aws_greengrass_discovery.c ****             GGD_SecureConnect_Disconnect( pxSocket );
 426:D:/Work/DeviceTester/amazon-freertos/lib/greengrass\aws_greengrass_discovery.c ****         }
 427:D:/Work/DeviceTester/amazon-freertos/lib/greengrass\aws_greengrass_discovery.c ****     }
 428:D:/Work/DeviceTester/amazon-freertos/lib/greengrass\aws_greengrass_discovery.c **** 
 429:D:/Work/DeviceTester/amazon-freertos/lib/greengrass\aws_greengrass_discovery.c ****     return xStatus;
 430:D:/Work/DeviceTester/amazon-freertos/lib/greengrass\aws_greengrass_discovery.c **** }
 431:D:/Work/DeviceTester/amazon-freertos/lib/greengrass\aws_greengrass_discovery.c **** /*-----------------------------------------------------------*/
 432:D:/Work/DeviceTester/amazon-freertos/lib/greengrass\aws_greengrass_discovery.c **** 
 433:D:/Work/DeviceTester/amazon-freertos/lib/greengrass\aws_greengrass_discovery.c **** void GGD_JSONRequestAbort( Socket_t * pxSocket )
 434:D:/Work/DeviceTester/amazon-freertos/lib/greengrass\aws_greengrass_discovery.c **** {
 435:D:/Work/DeviceTester/amazon-freertos/lib/greengrass\aws_greengrass_discovery.c ****     configASSERT( pxSocket != NULL );
 436:D:/Work/DeviceTester/amazon-freertos/lib/greengrass\aws_greengrass_discovery.c **** 
 437:D:/Work/DeviceTester/amazon-freertos/lib/greengrass\aws_greengrass_discovery.c ****     if( *pxSocket != SOCKETS_INVALID_SOCKET )
 438:D:/Work/DeviceTester/amazon-freertos/lib/greengrass\aws_greengrass_discovery.c ****     {
 439:D:/Work/DeviceTester/amazon-freertos/lib/greengrass\aws_greengrass_discovery.c ****         GGD_SecureConnect_Disconnect( pxSocket );
 440:D:/Work/DeviceTester/amazon-freertos/lib/greengrass\aws_greengrass_discovery.c ****     }
 441:D:/Work/DeviceTester/amazon-freertos/lib/greengrass\aws_greengrass_discovery.c **** }
 442:D:/Work/DeviceTester/amazon-freertos/lib/greengrass\aws_greengrass_discovery.c **** 
 443:D:/Work/DeviceTester/amazon-freertos/lib/greengrass\aws_greengrass_discovery.c **** /*-----------------------------------------------------------*/
 444:D:/Work/DeviceTester/amazon-freertos/lib/greengrass\aws_greengrass_discovery.c **** 
 445:D:/Work/DeviceTester/amazon-freertos/lib/greengrass\aws_greengrass_discovery.c **** BaseType_t GGD_GetIPandCertificateFromJSON( char * pcJSONFile, /*lint !e971 can use char without si
 446:D:/Work/DeviceTester/amazon-freertos/lib/greengrass\aws_greengrass_discovery.c ****                                             const uint32_t ulJSONFileSize,
 447:D:/Work/DeviceTester/amazon-freertos/lib/greengrass\aws_greengrass_discovery.c ****                                             const HostParameters_t * pxHostParameters,
 448:D:/Work/DeviceTester/amazon-freertos/lib/greengrass\aws_greengrass_discovery.c ****                                             GGD_HostAddressData_t * pxHostAddressData,
 449:D:/Work/DeviceTester/amazon-freertos/lib/greengrass\aws_greengrass_discovery.c ****                                             const BaseType_t xAutoSelectFlag )
 450:D:/Work/DeviceTester/amazon-freertos/lib/greengrass\aws_greengrass_discovery.c **** {
 451:D:/Work/DeviceTester/amazon-freertos/lib/greengrass\aws_greengrass_discovery.c ****     Socket_t xSocket;
 452:D:/Work/DeviceTester/amazon-freertos/lib/greengrass\aws_greengrass_discovery.c ****     BaseType_t xStatus;
 453:D:/Work/DeviceTester/amazon-freertos/lib/greengrass\aws_greengrass_discovery.c ****     jsmn_parser xParser;
 454:D:/Work/DeviceTester/amazon-freertos/lib/greengrass\aws_greengrass_discovery.c ****     jsmntok_t pxTok[ ggdconfigJSON_MAX_TOKENS ];
 455:D:/Work/DeviceTester/amazon-freertos/lib/greengrass\aws_greengrass_discovery.c ****     int32_t lNbTokens;
 456:D:/Work/DeviceTester/amazon-freertos/lib/greengrass\aws_greengrass_discovery.c ****     uint32_t ulTokenIndex = 0;
 457:D:/Work/DeviceTester/amazon-freertos/lib/greengrass\aws_greengrass_discovery.c ****     uint8_t ucCurrentInterface = 0, ucTargetInterface = 1;
 458:D:/Work/DeviceTester/amazon-freertos/lib/greengrass\aws_greengrass_discovery.c ****     BaseType_t xFoundGGC = pdFALSE;
 459:D:/Work/DeviceTester/amazon-freertos/lib/greengrass\aws_greengrass_discovery.c ****     BaseType_t xIsIPValid;
 460:D:/Work/DeviceTester/amazon-freertos/lib/greengrass\aws_greengrass_discovery.c **** 
 461:D:/Work/DeviceTester/amazon-freertos/lib/greengrass\aws_greengrass_discovery.c ****     configASSERT( pcJSONFile != NULL );
 462:D:/Work/DeviceTester/amazon-freertos/lib/greengrass\aws_greengrass_discovery.c ****     configASSERT( pxHostAddressData != NULL );
 463:D:/Work/DeviceTester/amazon-freertos/lib/greengrass\aws_greengrass_discovery.c **** 
 464:D:/Work/DeviceTester/amazon-freertos/lib/greengrass\aws_greengrass_discovery.c ****     if( xAutoSelectFlag == pdFALSE )
 465:D:/Work/DeviceTester/amazon-freertos/lib/greengrass\aws_greengrass_discovery.c ****     {
 466:D:/Work/DeviceTester/amazon-freertos/lib/greengrass\aws_greengrass_discovery.c ****         configASSERT( pxHostParameters != NULL );
 467:D:/Work/DeviceTester/amazon-freertos/lib/greengrass\aws_greengrass_discovery.c ****     }
 468:D:/Work/DeviceTester/amazon-freertos/lib/greengrass\aws_greengrass_discovery.c **** 
 469:D:/Work/DeviceTester/amazon-freertos/lib/greengrass\aws_greengrass_discovery.c ****     jsmn_init( &xParser );
 470:D:/Work/DeviceTester/amazon-freertos/lib/greengrass\aws_greengrass_discovery.c ****     /* From jsmn, parse the JSON file. */
 471:D:/Work/DeviceTester/amazon-freertos/lib/greengrass\aws_greengrass_discovery.c ****     lNbTokens = ( int32_t ) jsmn_parse( &xParser,
 472:D:/Work/DeviceTester/amazon-freertos/lib/greengrass\aws_greengrass_discovery.c ****                                         pcJSONFile, /*lint !e971 can use char without signed/unsign
 473:D:/Work/DeviceTester/amazon-freertos/lib/greengrass\aws_greengrass_discovery.c ****                                         ( size_t ) ulJSONFileSize,
 474:D:/Work/DeviceTester/amazon-freertos/lib/greengrass\aws_greengrass_discovery.c ****                                         pxTok,
 475:D:/Work/DeviceTester/amazon-freertos/lib/greengrass\aws_greengrass_discovery.c ****                                         ( unsigned int ) ggdconfigJSON_MAX_TOKENS ); /*lint !e961 r
 476:D:/Work/DeviceTester/amazon-freertos/lib/greengrass\aws_greengrass_discovery.c **** 
 477:D:/Work/DeviceTester/amazon-freertos/lib/greengrass\aws_greengrass_discovery.c ****     /* Manage the case. */
 478:D:/Work/DeviceTester/amazon-freertos/lib/greengrass\aws_greengrass_discovery.c ****     if( lNbTokens < 0 )
 479:D:/Work/DeviceTester/amazon-freertos/lib/greengrass\aws_greengrass_discovery.c ****     {
 480:D:/Work/DeviceTester/amazon-freertos/lib/greengrass\aws_greengrass_discovery.c ****         ggdconfigPRINT( "JSON parsing: Failed to parse JSON\r\n" );
 481:D:/Work/DeviceTester/amazon-freertos/lib/greengrass\aws_greengrass_discovery.c **** 
 482:D:/Work/DeviceTester/amazon-freertos/lib/greengrass\aws_greengrass_discovery.c ****         xStatus = pdFAIL;
 483:D:/Work/DeviceTester/amazon-freertos/lib/greengrass\aws_greengrass_discovery.c ****     }
 484:D:/Work/DeviceTester/amazon-freertos/lib/greengrass\aws_greengrass_discovery.c ****     else
 485:D:/Work/DeviceTester/amazon-freertos/lib/greengrass\aws_greengrass_discovery.c ****     {
 486:D:/Work/DeviceTester/amazon-freertos/lib/greengrass\aws_greengrass_discovery.c ****         xStatus = pdPASS;
 487:D:/Work/DeviceTester/amazon-freertos/lib/greengrass\aws_greengrass_discovery.c ****     }
 488:D:/Work/DeviceTester/amazon-freertos/lib/greengrass\aws_greengrass_discovery.c **** 
 489:D:/Work/DeviceTester/amazon-freertos/lib/greengrass\aws_greengrass_discovery.c ****     if( xStatus == pdPASS )
 490:D:/Work/DeviceTester/amazon-freertos/lib/greengrass\aws_greengrass_discovery.c ****     {
 491:D:/Work/DeviceTester/amazon-freertos/lib/greengrass\aws_greengrass_discovery.c ****         /* Look for the green grass group certificate. */
 492:D:/Work/DeviceTester/amazon-freertos/lib/greengrass\aws_greengrass_discovery.c ****         if( prvGGDGetCertificate( pcJSONFile,
 493:D:/Work/DeviceTester/amazon-freertos/lib/greengrass\aws_greengrass_discovery.c ****                                   pxHostParameters,
 494:D:/Work/DeviceTester/amazon-freertos/lib/greengrass\aws_greengrass_discovery.c ****                                   xAutoSelectFlag,
 495:D:/Work/DeviceTester/amazon-freertos/lib/greengrass\aws_greengrass_discovery.c ****                                   pxTok,
 496:D:/Work/DeviceTester/amazon-freertos/lib/greengrass\aws_greengrass_discovery.c ****                                   ( uint32_t ) lNbTokens, /*lint !e644 lNbTokens has been initializ
 497:D:/Work/DeviceTester/amazon-freertos/lib/greengrass\aws_greengrass_discovery.c ****                                   pxHostAddressData ) == pdFAIL )
 498:D:/Work/DeviceTester/amazon-freertos/lib/greengrass\aws_greengrass_discovery.c ****         {
 499:D:/Work/DeviceTester/amazon-freertos/lib/greengrass\aws_greengrass_discovery.c ****             ggdconfigPRINT( "JSON parsing: Couldn't find certificate\r\n" );
 500:D:/Work/DeviceTester/amazon-freertos/lib/greengrass\aws_greengrass_discovery.c **** 
 501:D:/Work/DeviceTester/amazon-freertos/lib/greengrass\aws_greengrass_discovery.c ****             xStatus = pdFAIL;
 502:D:/Work/DeviceTester/amazon-freertos/lib/greengrass\aws_greengrass_discovery.c ****         }
 503:D:/Work/DeviceTester/amazon-freertos/lib/greengrass\aws_greengrass_discovery.c ****     }
 504:D:/Work/DeviceTester/amazon-freertos/lib/greengrass\aws_greengrass_discovery.c **** 
 505:D:/Work/DeviceTester/amazon-freertos/lib/greengrass\aws_greengrass_discovery.c ****     if( xStatus == pdPASS )
 506:D:/Work/DeviceTester/amazon-freertos/lib/greengrass\aws_greengrass_discovery.c ****     {
 507:D:/Work/DeviceTester/amazon-freertos/lib/greengrass\aws_greengrass_discovery.c ****         /* Look for the green grass core, green grass core position is returned in ulTokenIndex. */
 508:D:/Work/DeviceTester/amazon-freertos/lib/greengrass\aws_greengrass_discovery.c ****         if( prvGGDGetCore( pcJSONFile,
 509:D:/Work/DeviceTester/amazon-freertos/lib/greengrass\aws_greengrass_discovery.c ****                            pxHostParameters,
 510:D:/Work/DeviceTester/amazon-freertos/lib/greengrass\aws_greengrass_discovery.c ****                            xAutoSelectFlag,
 511:D:/Work/DeviceTester/amazon-freertos/lib/greengrass\aws_greengrass_discovery.c ****                            pxTok,
 512:D:/Work/DeviceTester/amazon-freertos/lib/greengrass\aws_greengrass_discovery.c ****                            ( uint32_t ) lNbTokens,
 513:D:/Work/DeviceTester/amazon-freertos/lib/greengrass\aws_greengrass_discovery.c ****                            &ulTokenIndex ) == pdFAIL )
 514:D:/Work/DeviceTester/amazon-freertos/lib/greengrass\aws_greengrass_discovery.c ****         {
 515:D:/Work/DeviceTester/amazon-freertos/lib/greengrass\aws_greengrass_discovery.c ****             ggdconfigPRINT( "JSON parsing: Couldn't find Green Grass Core\r\n" );
 516:D:/Work/DeviceTester/amazon-freertos/lib/greengrass\aws_greengrass_discovery.c **** 
 517:D:/Work/DeviceTester/amazon-freertos/lib/greengrass\aws_greengrass_discovery.c ****             xStatus = pdFAIL;
 518:D:/Work/DeviceTester/amazon-freertos/lib/greengrass\aws_greengrass_discovery.c ****         }
 519:D:/Work/DeviceTester/amazon-freertos/lib/greengrass\aws_greengrass_discovery.c ****     }
 520:D:/Work/DeviceTester/amazon-freertos/lib/greengrass\aws_greengrass_discovery.c **** 
 521:D:/Work/DeviceTester/amazon-freertos/lib/greengrass\aws_greengrass_discovery.c ****     if( xStatus == pdPASS )
 522:D:/Work/DeviceTester/amazon-freertos/lib/greengrass\aws_greengrass_discovery.c ****     {
 523:D:/Work/DeviceTester/amazon-freertos/lib/greengrass\aws_greengrass_discovery.c ****         /* If autoSelectFlag is set to true, the code below will try
 524:D:/Work/DeviceTester/amazon-freertos/lib/greengrass\aws_greengrass_discovery.c ****          * to connect directly to the interface.
 525:D:/Work/DeviceTester/amazon-freertos/lib/greengrass\aws_greengrass_discovery.c ****          * If autoSelectFlag is set to false, the code below will try
 526:D:/Work/DeviceTester/amazon-freertos/lib/greengrass\aws_greengrass_discovery.c ****          * to connect to every interfaces. */
 527:D:/Work/DeviceTester/amazon-freertos/lib/greengrass\aws_greengrass_discovery.c ****         if( xAutoSelectFlag == pdFALSE )
 528:D:/Work/DeviceTester/amazon-freertos/lib/greengrass\aws_greengrass_discovery.c ****         {
 529:D:/Work/DeviceTester/amazon-freertos/lib/greengrass\aws_greengrass_discovery.c ****             if( prvGGDGetIPOnInterface( pcJSONFile,
 530:D:/Work/DeviceTester/amazon-freertos/lib/greengrass\aws_greengrass_discovery.c ****                                         pxHostParameters->ucInterface,
 531:D:/Work/DeviceTester/amazon-freertos/lib/greengrass\aws_greengrass_discovery.c ****                                         pxTok,
 532:D:/Work/DeviceTester/amazon-freertos/lib/greengrass\aws_greengrass_discovery.c ****                                         ( uint32_t ) lNbTokens,
 533:D:/Work/DeviceTester/amazon-freertos/lib/greengrass\aws_greengrass_discovery.c ****                                         pxHostAddressData,
 534:D:/Work/DeviceTester/amazon-freertos/lib/greengrass\aws_greengrass_discovery.c ****                                         &ulTokenIndex,
 535:D:/Work/DeviceTester/amazon-freertos/lib/greengrass\aws_greengrass_discovery.c ****                                         &ucCurrentInterface ) == pdFAIL )
 536:D:/Work/DeviceTester/amazon-freertos/lib/greengrass\aws_greengrass_discovery.c ****             {
 537:D:/Work/DeviceTester/amazon-freertos/lib/greengrass\aws_greengrass_discovery.c ****                 ggdconfigPRINT( "GGC - Can't find interface\r\n" );
 538:D:/Work/DeviceTester/amazon-freertos/lib/greengrass\aws_greengrass_discovery.c ****             }
 539:D:/Work/DeviceTester/amazon-freertos/lib/greengrass\aws_greengrass_discovery.c ****             else
 540:D:/Work/DeviceTester/amazon-freertos/lib/greengrass\aws_greengrass_discovery.c ****             {
 541:D:/Work/DeviceTester/amazon-freertos/lib/greengrass\aws_greengrass_discovery.c ****                 xFoundGGC = pdTRUE;
 542:D:/Work/DeviceTester/amazon-freertos/lib/greengrass\aws_greengrass_discovery.c ****             }
 543:D:/Work/DeviceTester/amazon-freertos/lib/greengrass\aws_greengrass_discovery.c ****         }
 544:D:/Work/DeviceTester/amazon-freertos/lib/greengrass\aws_greengrass_discovery.c ****         else
 545:D:/Work/DeviceTester/amazon-freertos/lib/greengrass\aws_greengrass_discovery.c ****         {
 546:D:/Work/DeviceTester/amazon-freertos/lib/greengrass\aws_greengrass_discovery.c ****             while( prvGGDGetIPOnInterface( pcJSONFile,
 547:D:/Work/DeviceTester/amazon-freertos/lib/greengrass\aws_greengrass_discovery.c ****                                            ucTargetInterface,
 548:D:/Work/DeviceTester/amazon-freertos/lib/greengrass\aws_greengrass_discovery.c ****                                            pxTok,
 549:D:/Work/DeviceTester/amazon-freertos/lib/greengrass\aws_greengrass_discovery.c ****                                            ( uint32_t ) lNbTokens,
 550:D:/Work/DeviceTester/amazon-freertos/lib/greengrass\aws_greengrass_discovery.c ****                                            pxHostAddressData,
 551:D:/Work/DeviceTester/amazon-freertos/lib/greengrass\aws_greengrass_discovery.c ****                                            &ulTokenIndex,
 552:D:/Work/DeviceTester/amazon-freertos/lib/greengrass\aws_greengrass_discovery.c ****                                            &ucCurrentInterface ) == pdPASS )
 553:D:/Work/DeviceTester/amazon-freertos/lib/greengrass\aws_greengrass_discovery.c ****             {
 554:D:/Work/DeviceTester/amazon-freertos/lib/greengrass\aws_greengrass_discovery.c ****                 xIsIPValid = prvIsIPvalid( ( const char * ) pxHostAddressData->pcHostAddress,
 555:D:/Work/DeviceTester/amazon-freertos/lib/greengrass\aws_greengrass_discovery.c ****                                            strlen( pxHostAddressData->pcHostAddress ) );
 556:D:/Work/DeviceTester/amazon-freertos/lib/greengrass\aws_greengrass_discovery.c **** 
 557:D:/Work/DeviceTester/amazon-freertos/lib/greengrass\aws_greengrass_discovery.c ****                 if( xIsIPValid == pdTRUE )
 558:D:/Work/DeviceTester/amazon-freertos/lib/greengrass\aws_greengrass_discovery.c ****                 {
 559:D:/Work/DeviceTester/amazon-freertos/lib/greengrass\aws_greengrass_discovery.c ****                     if( GGD_SecureConnect_Connect( pxHostAddressData,
 560:D:/Work/DeviceTester/amazon-freertos/lib/greengrass\aws_greengrass_discovery.c ****                                                    &xSocket,
 561:D:/Work/DeviceTester/amazon-freertos/lib/greengrass\aws_greengrass_discovery.c ****                                                    ggdconfigTCP_RECEIVE_TIMEOUT_MS,
 562:D:/Work/DeviceTester/amazon-freertos/lib/greengrass\aws_greengrass_discovery.c ****                                                    ggdconfigTCP_SEND_TIMEOUT_MS )
 563:D:/Work/DeviceTester/amazon-freertos/lib/greengrass\aws_greengrass_discovery.c ****                         == pdPASS )
 564:D:/Work/DeviceTester/amazon-freertos/lib/greengrass\aws_greengrass_discovery.c ****                     {
 565:D:/Work/DeviceTester/amazon-freertos/lib/greengrass\aws_greengrass_discovery.c ****                         xFoundGGC = pdTRUE;
 566:D:/Work/DeviceTester/amazon-freertos/lib/greengrass\aws_greengrass_discovery.c ****                         /* Interface found, disconnect. */
 567:D:/Work/DeviceTester/amazon-freertos/lib/greengrass\aws_greengrass_discovery.c ****                         GGD_SecureConnect_Disconnect( &xSocket );
 568:D:/Work/DeviceTester/amazon-freertos/lib/greengrass\aws_greengrass_discovery.c ****                         break;
 569:D:/Work/DeviceTester/amazon-freertos/lib/greengrass\aws_greengrass_discovery.c ****                     }
 570:D:/Work/DeviceTester/amazon-freertos/lib/greengrass\aws_greengrass_discovery.c ****                 }
 571:D:/Work/DeviceTester/amazon-freertos/lib/greengrass\aws_greengrass_discovery.c **** 
 572:D:/Work/DeviceTester/amazon-freertos/lib/greengrass\aws_greengrass_discovery.c ****                 ucTargetInterface++;
 573:D:/Work/DeviceTester/amazon-freertos/lib/greengrass\aws_greengrass_discovery.c ****             }
 574:D:/Work/DeviceTester/amazon-freertos/lib/greengrass\aws_greengrass_discovery.c ****         }
 575:D:/Work/DeviceTester/amazon-freertos/lib/greengrass\aws_greengrass_discovery.c **** 
 576:D:/Work/DeviceTester/amazon-freertos/lib/greengrass\aws_greengrass_discovery.c ****         if( xFoundGGC != pdTRUE )
 577:D:/Work/DeviceTester/amazon-freertos/lib/greengrass\aws_greengrass_discovery.c ****         {
 578:D:/Work/DeviceTester/amazon-freertos/lib/greengrass\aws_greengrass_discovery.c ****             ggdconfigPRINT( "GGD - Can't connect to greengrass Core\r\n" );
 579:D:/Work/DeviceTester/amazon-freertos/lib/greengrass\aws_greengrass_discovery.c **** 
 580:D:/Work/DeviceTester/amazon-freertos/lib/greengrass\aws_greengrass_discovery.c ****             xStatus = pdFAIL;
 581:D:/Work/DeviceTester/amazon-freertos/lib/greengrass\aws_greengrass_discovery.c ****         }
 582:D:/Work/DeviceTester/amazon-freertos/lib/greengrass\aws_greengrass_discovery.c ****     }
 583:D:/Work/DeviceTester/amazon-freertos/lib/greengrass\aws_greengrass_discovery.c **** 
 584:D:/Work/DeviceTester/amazon-freertos/lib/greengrass\aws_greengrass_discovery.c ****     return xStatus;
 585:D:/Work/DeviceTester/amazon-freertos/lib/greengrass\aws_greengrass_discovery.c **** }
 586:D:/Work/DeviceTester/amazon-freertos/lib/greengrass\aws_greengrass_discovery.c **** /*-----------------------------------------------------------*/
 587:D:/Work/DeviceTester/amazon-freertos/lib/greengrass\aws_greengrass_discovery.c **** 
 588:D:/Work/DeviceTester/amazon-freertos/lib/greengrass\aws_greengrass_discovery.c **** /* Return true if the string " pcString" is found inside the token pxTok in JSON file pcJson. */
 589:D:/Work/DeviceTester/amazon-freertos/lib/greengrass\aws_greengrass_discovery.c **** static BaseType_t prvGGDJsoneq( const char * pcJson,    /*lint !e971 can use char without signed/un
 590:D:/Work/DeviceTester/amazon-freertos/lib/greengrass\aws_greengrass_discovery.c ****                                 const jsmntok_t * const pxTok,
 591:D:/Work/DeviceTester/amazon-freertos/lib/greengrass\aws_greengrass_discovery.c ****                                 const char * pcString ) /*lint !e971 can use char without signed/un
 592:D:/Work/DeviceTester/amazon-freertos/lib/greengrass\aws_greengrass_discovery.c **** {
  25              		.loc 1 592 0
  26              		.cfi_startproc
  27              		@ args = 0, pretend = 0, frame = 0
  28              		@ frame_needed = 0, uses_anonymous_args = 0
  29              	.LVL0:
  30 0000 0130A0E1 		mov	r3, r1
 593:D:/Work/DeviceTester/amazon-freertos/lib/greengrass\aws_greengrass_discovery.c ****     uint32_t ulStringSize = ( uint32_t ) pxTok->end - ( uint32_t ) pxTok->start;
 594:D:/Work/DeviceTester/amazon-freertos/lib/greengrass\aws_greengrass_discovery.c ****     BaseType_t xStatus = pdFALSE;
 595:D:/Work/DeviceTester/amazon-freertos/lib/greengrass\aws_greengrass_discovery.c **** 
 596:D:/Work/DeviceTester/amazon-freertos/lib/greengrass\aws_greengrass_discovery.c ****     if( pxTok->type == JSMN_STRING )
  31              		.loc 1 596 0
  32 0004 0010D1E5 		ldrb	r1, [r1]	@ zero_extendqisi2
  33              	.LVL1:
  34 0008 030051E3 		cmp	r1, #3
  35 000c 1100001A 		bne	.L3
 592:D:/Work/DeviceTester/amazon-freertos/lib/greengrass\aws_greengrass_discovery.c ****     uint32_t ulStringSize = ( uint32_t ) pxTok->end - ( uint32_t ) pxTok->start;
  36              		.loc 1 592 0
  37 0010 F0412DE9 		push	{r4, r5, r6, r7, r8, lr}
  38              		.cfi_def_cfa_offset 24
  39              		.cfi_offset 4, -24
  40              		.cfi_offset 5, -20
  41              		.cfi_offset 6, -16
  42              		.cfi_offset 7, -12
  43              		.cfi_offset 8, -8
  44              		.cfi_offset 14, -4
  45 0014 0060A0E1 		mov	r6, r0
 593:D:/Work/DeviceTester/amazon-freertos/lib/greengrass\aws_greengrass_discovery.c ****     uint32_t ulStringSize = ( uint32_t ) pxTok->end - ( uint32_t ) pxTok->start;
  46              		.loc 1 593 0
  47 0018 047093E5 		ldr	r7, [r3, #4]
 597:D:/Work/DeviceTester/amazon-freertos/lib/greengrass\aws_greengrass_discovery.c ****     {
 598:D:/Work/DeviceTester/amazon-freertos/lib/greengrass\aws_greengrass_discovery.c ****         if( ( uint32_t ) strlen( pcString ) == ulStringSize )
  48              		.loc 1 598 0
  49 001c 0200A0E1 		mov	r0, r2
  50              	.LVL2:
  51 0020 0240A0E1 		mov	r4, r2
 593:D:/Work/DeviceTester/amazon-freertos/lib/greengrass\aws_greengrass_discovery.c ****     BaseType_t xStatus = pdFALSE;
  52              		.loc 1 593 0
  53 0024 085093E5 		ldr	r5, [r3, #8]
  54              		.loc 1 598 0
  55 0028 FEFFFFEB 		bl	strlen
  56              	.LVL3:
 593:D:/Work/DeviceTester/amazon-freertos/lib/greengrass\aws_greengrass_discovery.c ****     BaseType_t xStatus = pdFALSE;
  57              		.loc 1 593 0
  58 002c 075045E0 		sub	r5, r5, r7
  59              		.loc 1 598 0
  60 0030 000055E1 		cmp	r5, r0
  61 0034 0900001A 		bne	.L4
 599:D:/Work/DeviceTester/amazon-freertos/lib/greengrass\aws_greengrass_discovery.c ****         {
 600:D:/Work/DeviceTester/amazon-freertos/lib/greengrass\aws_greengrass_discovery.c ****             if( ( int16_t ) strncmp( &pcJson[ pxTok->start ],
  62              		.loc 1 600 0
  63 0038 0520A0E1 		mov	r2, r5
  64 003c 0410A0E1 		mov	r1, r4
  65 0040 070086E0 		add	r0, r6, r7
  66 0044 FEFFFFEB 		bl	strncmp
  67              	.LVL4:
  68 0048 7000BFE6 		sxth	r0, r0
  69 004c 100F6FE1 		clz	r0, r0
  70 0050 A002A0E1 		lsr	r0, r0, #5
  71 0054 F081BDE8 		pop	{r4, r5, r6, r7, r8, pc}
  72              	.LVL5:
  73              	.L3:
  74              		.cfi_def_cfa_offset 0
  75              		.cfi_restore 4
  76              		.cfi_restore 5
  77              		.cfi_restore 6
  78              		.cfi_restore 7
  79              		.cfi_restore 8
  80              		.cfi_restore 14
 594:D:/Work/DeviceTester/amazon-freertos/lib/greengrass\aws_greengrass_discovery.c **** 
  81              		.loc 1 594 0
  82 0058 0000A0E3 		mov	r0, #0
  83              	.LVL6:
  84 005c 1EFF2FE1 		bx	lr
  85              	.LVL7:
  86              	.L4:
  87              		.cfi_def_cfa_offset 24
  88              		.cfi_offset 4, -24
  89              		.cfi_offset 5, -20
  90              		.cfi_offset 6, -16
  91              		.cfi_offset 7, -12
  92              		.cfi_offset 8, -8
  93              		.cfi_offset 14, -4
  94 0060 0000A0E3 		mov	r0, #0
 601:D:/Work/DeviceTester/amazon-freertos/lib/greengrass\aws_greengrass_discovery.c ****                                      pcString,
 602:D:/Work/DeviceTester/amazon-freertos/lib/greengrass\aws_greengrass_discovery.c ****                                      ulStringSize ) == 0 )
 603:D:/Work/DeviceTester/amazon-freertos/lib/greengrass\aws_greengrass_discovery.c ****             {
 604:D:/Work/DeviceTester/amazon-freertos/lib/greengrass\aws_greengrass_discovery.c ****                 xStatus = pdTRUE;
 605:D:/Work/DeviceTester/amazon-freertos/lib/greengrass\aws_greengrass_discovery.c ****             }
 606:D:/Work/DeviceTester/amazon-freertos/lib/greengrass\aws_greengrass_discovery.c ****         }
 607:D:/Work/DeviceTester/amazon-freertos/lib/greengrass\aws_greengrass_discovery.c ****     }
 608:D:/Work/DeviceTester/amazon-freertos/lib/greengrass\aws_greengrass_discovery.c **** 
 609:D:/Work/DeviceTester/amazon-freertos/lib/greengrass\aws_greengrass_discovery.c ****     return xStatus;
 610:D:/Work/DeviceTester/amazon-freertos/lib/greengrass\aws_greengrass_discovery.c **** }
  95              		.loc 1 610 0
  96 0064 F081BDE8 		pop	{r4, r5, r6, r7, r8, pc}
  97              		.cfi_endproc
  98              	.LFE6:
 100              		.section	.text.prvGGDGetIPOnInterface,"ax",%progbits
 101              		.align	2
 102              		.syntax unified
 103              		.arm
 104              		.fpu neon
 106              	prvGGDGetIPOnInterface:
 107              	.LFB11:
 611:D:/Work/DeviceTester/amazon-freertos/lib/greengrass\aws_greengrass_discovery.c **** /*-----------------------------------------------------------*/
 612:D:/Work/DeviceTester/amazon-freertos/lib/greengrass\aws_greengrass_discovery.c **** 
 613:D:/Work/DeviceTester/amazon-freertos/lib/greengrass\aws_greengrass_discovery.c **** 
 614:D:/Work/DeviceTester/amazon-freertos/lib/greengrass\aws_greengrass_discovery.c **** static void prvCheckMatch( const char * pcJSONFile, /*lint !e971 can use char without signed/unsign
 615:D:/Work/DeviceTester/amazon-freertos/lib/greengrass\aws_greengrass_discovery.c ****                            const jsmntok_t * pxTok,
 616:D:/Work/DeviceTester/amazon-freertos/lib/greengrass\aws_greengrass_discovery.c ****                            const uint32_t ulTokenIndex,
 617:D:/Work/DeviceTester/amazon-freertos/lib/greengrass\aws_greengrass_discovery.c ****                            BaseType_t * pxMatch,
 618:D:/Work/DeviceTester/amazon-freertos/lib/greengrass\aws_greengrass_discovery.c ****                            const char * pcMatchCategory, /*lint !e971 can use char without signed/u
 619:D:/Work/DeviceTester/amazon-freertos/lib/greengrass\aws_greengrass_discovery.c ****                            const char * pcMatchString,   /*lint !e971 can use char without signed/u
 620:D:/Work/DeviceTester/amazon-freertos/lib/greengrass\aws_greengrass_discovery.c ****                            const BaseType_t xAutoSelectFlag )
 621:D:/Work/DeviceTester/amazon-freertos/lib/greengrass\aws_greengrass_discovery.c **** {
 622:D:/Work/DeviceTester/amazon-freertos/lib/greengrass\aws_greengrass_discovery.c ****     *pxMatch = prvGGDJsoneq( pcJSONFile, /*lint !e971 can use char without signed/unsigned. */
 623:D:/Work/DeviceTester/amazon-freertos/lib/greengrass\aws_greengrass_discovery.c ****                              &pxTok[ ulTokenIndex ],
 624:D:/Work/DeviceTester/amazon-freertos/lib/greengrass\aws_greengrass_discovery.c ****                              pcMatchCategory );
 625:D:/Work/DeviceTester/amazon-freertos/lib/greengrass\aws_greengrass_discovery.c **** 
 626:D:/Work/DeviceTester/amazon-freertos/lib/greengrass\aws_greengrass_discovery.c ****     if( *pxMatch == pdTRUE )
 627:D:/Work/DeviceTester/amazon-freertos/lib/greengrass\aws_greengrass_discovery.c ****     {
 628:D:/Work/DeviceTester/amazon-freertos/lib/greengrass\aws_greengrass_discovery.c ****         /* Is that the group we are looking for? */
 629:D:/Work/DeviceTester/amazon-freertos/lib/greengrass\aws_greengrass_discovery.c ****         if( xAutoSelectFlag != pdTRUE )
 630:D:/Work/DeviceTester/amazon-freertos/lib/greengrass\aws_greengrass_discovery.c ****         {
 631:D:/Work/DeviceTester/amazon-freertos/lib/greengrass\aws_greengrass_discovery.c ****             if( ( prvGGDJsoneq( pcJSONFile, /*lint !e971 can use char without signed/unsigned. */
 632:D:/Work/DeviceTester/amazon-freertos/lib/greengrass\aws_greengrass_discovery.c ****                                 &pxTok[ ulTokenIndex + ( uint32_t ) 1 ],
 633:D:/Work/DeviceTester/amazon-freertos/lib/greengrass\aws_greengrass_discovery.c ****                                 pcMatchString ) == pdTRUE ) )
 634:D:/Work/DeviceTester/amazon-freertos/lib/greengrass\aws_greengrass_discovery.c ****             {
 635:D:/Work/DeviceTester/amazon-freertos/lib/greengrass\aws_greengrass_discovery.c ****                 *pxMatch = pdTRUE;
 636:D:/Work/DeviceTester/amazon-freertos/lib/greengrass\aws_greengrass_discovery.c ****             }
 637:D:/Work/DeviceTester/amazon-freertos/lib/greengrass\aws_greengrass_discovery.c ****             else
 638:D:/Work/DeviceTester/amazon-freertos/lib/greengrass\aws_greengrass_discovery.c ****             {
 639:D:/Work/DeviceTester/amazon-freertos/lib/greengrass\aws_greengrass_discovery.c ****                 *pxMatch = pdFALSE;
 640:D:/Work/DeviceTester/amazon-freertos/lib/greengrass\aws_greengrass_discovery.c ****             }
 641:D:/Work/DeviceTester/amazon-freertos/lib/greengrass\aws_greengrass_discovery.c ****         }
 642:D:/Work/DeviceTester/amazon-freertos/lib/greengrass\aws_greengrass_discovery.c ****         else
 643:D:/Work/DeviceTester/amazon-freertos/lib/greengrass\aws_greengrass_discovery.c ****         {
 644:D:/Work/DeviceTester/amazon-freertos/lib/greengrass\aws_greengrass_discovery.c ****             *pxMatch = pdTRUE;
 645:D:/Work/DeviceTester/amazon-freertos/lib/greengrass\aws_greengrass_discovery.c ****         }
 646:D:/Work/DeviceTester/amazon-freertos/lib/greengrass\aws_greengrass_discovery.c ****     }
 647:D:/Work/DeviceTester/amazon-freertos/lib/greengrass\aws_greengrass_discovery.c **** }
 648:D:/Work/DeviceTester/amazon-freertos/lib/greengrass\aws_greengrass_discovery.c **** /*-----------------------------------------------------------*/
 649:D:/Work/DeviceTester/amazon-freertos/lib/greengrass\aws_greengrass_discovery.c **** 
 650:D:/Work/DeviceTester/amazon-freertos/lib/greengrass\aws_greengrass_discovery.c **** static BaseType_t prvGGDGetCore( const char * pcJSONFile, /*lint !e971 can use char without signed/
 651:D:/Work/DeviceTester/amazon-freertos/lib/greengrass\aws_greengrass_discovery.c ****                                  const HostParameters_t * const pxHostParameters,
 652:D:/Work/DeviceTester/amazon-freertos/lib/greengrass\aws_greengrass_discovery.c ****                                  const BaseType_t xAutoSelectFlag,
 653:D:/Work/DeviceTester/amazon-freertos/lib/greengrass\aws_greengrass_discovery.c ****                                  const jsmntok_t * pxTok,
 654:D:/Work/DeviceTester/amazon-freertos/lib/greengrass\aws_greengrass_discovery.c ****                                  const uint32_t ulNbTokens,
 655:D:/Work/DeviceTester/amazon-freertos/lib/greengrass\aws_greengrass_discovery.c ****                                  uint32_t * pulTokenIndex )
 656:D:/Work/DeviceTester/amazon-freertos/lib/greengrass\aws_greengrass_discovery.c **** {
 657:D:/Work/DeviceTester/amazon-freertos/lib/greengrass\aws_greengrass_discovery.c ****     BaseType_t xStatus = pdFAIL;
 658:D:/Work/DeviceTester/amazon-freertos/lib/greengrass\aws_greengrass_discovery.c ****     BaseType_t xMatchGroup = pdFALSE;
 659:D:/Work/DeviceTester/amazon-freertos/lib/greengrass\aws_greengrass_discovery.c ****     BaseType_t xMatchCore = pdFALSE;
 660:D:/Work/DeviceTester/amazon-freertos/lib/greengrass\aws_greengrass_discovery.c **** 
 661:D:/Work/DeviceTester/amazon-freertos/lib/greengrass\aws_greengrass_discovery.c ****     /* Look for the green grass core inside the group. */
 662:D:/Work/DeviceTester/amazon-freertos/lib/greengrass\aws_greengrass_discovery.c ****     for( *pulTokenIndex = 0; *pulTokenIndex < ulNbTokens; ( *pulTokenIndex )++ )
 663:D:/Work/DeviceTester/amazon-freertos/lib/greengrass\aws_greengrass_discovery.c ****     {
 664:D:/Work/DeviceTester/amazon-freertos/lib/greengrass\aws_greengrass_discovery.c ****         /* Check if group matches. */
 665:D:/Work/DeviceTester/amazon-freertos/lib/greengrass\aws_greengrass_discovery.c ****         if( xAutoSelectFlag == pdTRUE )
 666:D:/Work/DeviceTester/amazon-freertos/lib/greengrass\aws_greengrass_discovery.c ****         {
 667:D:/Work/DeviceTester/amazon-freertos/lib/greengrass\aws_greengrass_discovery.c ****             xMatchGroup = pdTRUE;
 668:D:/Work/DeviceTester/amazon-freertos/lib/greengrass\aws_greengrass_discovery.c ****             xMatchCore = pdTRUE;
 669:D:/Work/DeviceTester/amazon-freertos/lib/greengrass\aws_greengrass_discovery.c ****         }
 670:D:/Work/DeviceTester/amazon-freertos/lib/greengrass\aws_greengrass_discovery.c ****         else
 671:D:/Work/DeviceTester/amazon-freertos/lib/greengrass\aws_greengrass_discovery.c ****         {
 672:D:/Work/DeviceTester/amazon-freertos/lib/greengrass\aws_greengrass_discovery.c ****             if( xMatchGroup != pdTRUE )
 673:D:/Work/DeviceTester/amazon-freertos/lib/greengrass\aws_greengrass_discovery.c ****             {
 674:D:/Work/DeviceTester/amazon-freertos/lib/greengrass\aws_greengrass_discovery.c ****                 prvCheckMatch( pcJSONFile,
 675:D:/Work/DeviceTester/amazon-freertos/lib/greengrass\aws_greengrass_discovery.c ****                                pxTok,
 676:D:/Work/DeviceTester/amazon-freertos/lib/greengrass\aws_greengrass_discovery.c ****                                *pulTokenIndex,
 677:D:/Work/DeviceTester/amazon-freertos/lib/greengrass\aws_greengrass_discovery.c ****                                &xMatchGroup,
 678:D:/Work/DeviceTester/amazon-freertos/lib/greengrass\aws_greengrass_discovery.c ****                                ggdJSON_FILE_GROUPID,
 679:D:/Work/DeviceTester/amazon-freertos/lib/greengrass\aws_greengrass_discovery.c ****                                pxHostParameters->pcGroupName, /*lint !e971 can use char without sig
 680:D:/Work/DeviceTester/amazon-freertos/lib/greengrass\aws_greengrass_discovery.c ****                                xAutoSelectFlag );
 681:D:/Work/DeviceTester/amazon-freertos/lib/greengrass\aws_greengrass_discovery.c ****             }
 682:D:/Work/DeviceTester/amazon-freertos/lib/greengrass\aws_greengrass_discovery.c ****             else
 683:D:/Work/DeviceTester/amazon-freertos/lib/greengrass\aws_greengrass_discovery.c ****             {
 684:D:/Work/DeviceTester/amazon-freertos/lib/greengrass\aws_greengrass_discovery.c ****                 /* Check if core matches. */
 685:D:/Work/DeviceTester/amazon-freertos/lib/greengrass\aws_greengrass_discovery.c ****                 prvCheckMatch( pcJSONFile,
 686:D:/Work/DeviceTester/amazon-freertos/lib/greengrass\aws_greengrass_discovery.c ****                                pxTok,
 687:D:/Work/DeviceTester/amazon-freertos/lib/greengrass\aws_greengrass_discovery.c ****                                *pulTokenIndex,
 688:D:/Work/DeviceTester/amazon-freertos/lib/greengrass\aws_greengrass_discovery.c ****                                &xMatchCore,
 689:D:/Work/DeviceTester/amazon-freertos/lib/greengrass\aws_greengrass_discovery.c ****                                ggdJSON_FILE_THING_ARN,
 690:D:/Work/DeviceTester/amazon-freertos/lib/greengrass\aws_greengrass_discovery.c ****                                pxHostParameters->pcCoreAddress, /*lint !e971 can use char without s
 691:D:/Work/DeviceTester/amazon-freertos/lib/greengrass\aws_greengrass_discovery.c ****                                xAutoSelectFlag );
 692:D:/Work/DeviceTester/amazon-freertos/lib/greengrass\aws_greengrass_discovery.c ****             }
 693:D:/Work/DeviceTester/amazon-freertos/lib/greengrass\aws_greengrass_discovery.c ****         }
 694:D:/Work/DeviceTester/amazon-freertos/lib/greengrass\aws_greengrass_discovery.c **** 
 695:D:/Work/DeviceTester/amazon-freertos/lib/greengrass\aws_greengrass_discovery.c ****         /* We have a match! correct core and correct group! */
 696:D:/Work/DeviceTester/amazon-freertos/lib/greengrass\aws_greengrass_discovery.c ****         if( ( xMatchCore == pdTRUE ) && ( xMatchGroup == pdTRUE ) )
 697:D:/Work/DeviceTester/amazon-freertos/lib/greengrass\aws_greengrass_discovery.c ****         {
 698:D:/Work/DeviceTester/amazon-freertos/lib/greengrass\aws_greengrass_discovery.c ****             /* We have found the Core, now break and try to connect to the interface. */
 699:D:/Work/DeviceTester/amazon-freertos/lib/greengrass\aws_greengrass_discovery.c ****             xStatus = pdPASS;
 700:D:/Work/DeviceTester/amazon-freertos/lib/greengrass\aws_greengrass_discovery.c ****             break;
 701:D:/Work/DeviceTester/amazon-freertos/lib/greengrass\aws_greengrass_discovery.c ****         }
 702:D:/Work/DeviceTester/amazon-freertos/lib/greengrass\aws_greengrass_discovery.c ****     }
 703:D:/Work/DeviceTester/amazon-freertos/lib/greengrass\aws_greengrass_discovery.c **** 
 704:D:/Work/DeviceTester/amazon-freertos/lib/greengrass\aws_greengrass_discovery.c ****     /* Green grass core not found. */
 705:D:/Work/DeviceTester/amazon-freertos/lib/greengrass\aws_greengrass_discovery.c ****     return xStatus;
 706:D:/Work/DeviceTester/amazon-freertos/lib/greengrass\aws_greengrass_discovery.c **** }
 707:D:/Work/DeviceTester/amazon-freertos/lib/greengrass\aws_greengrass_discovery.c **** /*-----------------------------------------------------------*/
 708:D:/Work/DeviceTester/amazon-freertos/lib/greengrass\aws_greengrass_discovery.c **** 
 709:D:/Work/DeviceTester/amazon-freertos/lib/greengrass\aws_greengrass_discovery.c **** static BaseType_t prvGGDGetCertificate( char * pcJSONFile, /*lint !e971 can use char without signed
 710:D:/Work/DeviceTester/amazon-freertos/lib/greengrass\aws_greengrass_discovery.c ****                                         const HostParameters_t * pxHostParameters,
 711:D:/Work/DeviceTester/amazon-freertos/lib/greengrass\aws_greengrass_discovery.c ****                                         const BaseType_t xAutoSelectFlag,
 712:D:/Work/DeviceTester/amazon-freertos/lib/greengrass\aws_greengrass_discovery.c ****                                         const jsmntok_t * pxTok,
 713:D:/Work/DeviceTester/amazon-freertos/lib/greengrass\aws_greengrass_discovery.c ****                                         const uint32_t ulNbTokens,
 714:D:/Work/DeviceTester/amazon-freertos/lib/greengrass\aws_greengrass_discovery.c ****                                         GGD_HostAddressData_t * pxHostAddressData )
 715:D:/Work/DeviceTester/amazon-freertos/lib/greengrass\aws_greengrass_discovery.c **** {
 716:D:/Work/DeviceTester/amazon-freertos/lib/greengrass\aws_greengrass_discovery.c ****     BaseType_t xMatchGroup = pdFALSE;
 717:D:/Work/DeviceTester/amazon-freertos/lib/greengrass\aws_greengrass_discovery.c ****     uint32_t ulTokenIndex;
 718:D:/Work/DeviceTester/amazon-freertos/lib/greengrass\aws_greengrass_discovery.c ****     uint32_t ulReadIndex = 0, ulWriteIndex = 0;
 719:D:/Work/DeviceTester/amazon-freertos/lib/greengrass\aws_greengrass_discovery.c ****     BaseType_t xStatus = pdFAIL;
 720:D:/Work/DeviceTester/amazon-freertos/lib/greengrass\aws_greengrass_discovery.c **** 
 721:D:/Work/DeviceTester/amazon-freertos/lib/greengrass\aws_greengrass_discovery.c ****     /* Loop over all keys of the root object. */
 722:D:/Work/DeviceTester/amazon-freertos/lib/greengrass\aws_greengrass_discovery.c ****     for( ulTokenIndex = 0; ulTokenIndex < ulNbTokens; ulTokenIndex++ )
 723:D:/Work/DeviceTester/amazon-freertos/lib/greengrass\aws_greengrass_discovery.c ****     {
 724:D:/Work/DeviceTester/amazon-freertos/lib/greengrass\aws_greengrass_discovery.c ****         /* Check if group matches. */
 725:D:/Work/DeviceTester/amazon-freertos/lib/greengrass\aws_greengrass_discovery.c ****         if( xAutoSelectFlag == pdTRUE )
 726:D:/Work/DeviceTester/amazon-freertos/lib/greengrass\aws_greengrass_discovery.c ****         {
 727:D:/Work/DeviceTester/amazon-freertos/lib/greengrass\aws_greengrass_discovery.c ****             xMatchGroup = pdTRUE;
 728:D:/Work/DeviceTester/amazon-freertos/lib/greengrass\aws_greengrass_discovery.c ****         }
 729:D:/Work/DeviceTester/amazon-freertos/lib/greengrass\aws_greengrass_discovery.c **** 
 730:D:/Work/DeviceTester/amazon-freertos/lib/greengrass\aws_greengrass_discovery.c ****         if( xMatchGroup != pdTRUE )
 731:D:/Work/DeviceTester/amazon-freertos/lib/greengrass\aws_greengrass_discovery.c ****         {
 732:D:/Work/DeviceTester/amazon-freertos/lib/greengrass\aws_greengrass_discovery.c ****             prvCheckMatch( pcJSONFile, pxTok,
 733:D:/Work/DeviceTester/amazon-freertos/lib/greengrass\aws_greengrass_discovery.c ****                            ulTokenIndex,
 734:D:/Work/DeviceTester/amazon-freertos/lib/greengrass\aws_greengrass_discovery.c ****                            &xMatchGroup,
 735:D:/Work/DeviceTester/amazon-freertos/lib/greengrass\aws_greengrass_discovery.c ****                            ggdJSON_FILE_GROUPID,
 736:D:/Work/DeviceTester/amazon-freertos/lib/greengrass\aws_greengrass_discovery.c ****                            pxHostParameters->pcGroupName,
 737:D:/Work/DeviceTester/amazon-freertos/lib/greengrass\aws_greengrass_discovery.c ****                            xAutoSelectFlag );
 738:D:/Work/DeviceTester/amazon-freertos/lib/greengrass\aws_greengrass_discovery.c ****         }
 739:D:/Work/DeviceTester/amazon-freertos/lib/greengrass\aws_greengrass_discovery.c ****         else
 740:D:/Work/DeviceTester/amazon-freertos/lib/greengrass\aws_greengrass_discovery.c ****         {
 741:D:/Work/DeviceTester/amazon-freertos/lib/greengrass\aws_greengrass_discovery.c ****             if( prvGGDJsoneq( pcJSONFile, /*lint !e971 can use char without signed/unsigned. */
 742:D:/Work/DeviceTester/amazon-freertos/lib/greengrass\aws_greengrass_discovery.c ****                               &pxTok[ ulTokenIndex ],
 743:D:/Work/DeviceTester/amazon-freertos/lib/greengrass\aws_greengrass_discovery.c ****                               ggdJSON_FILE_CERTIFICATE ) == pdTRUE )
 744:D:/Work/DeviceTester/amazon-freertos/lib/greengrass\aws_greengrass_discovery.c ****             {
 745:D:/Work/DeviceTester/amazon-freertos/lib/greengrass\aws_greengrass_discovery.c ****                 pxHostAddressData->pcCertificate =
 746:D:/Work/DeviceTester/amazon-freertos/lib/greengrass\aws_greengrass_discovery.c ****                     &pcJSONFile[ pxTok[ ulTokenIndex + ( uint32_t ) 1 ].start ];
 747:D:/Work/DeviceTester/amazon-freertos/lib/greengrass\aws_greengrass_discovery.c ****                 /* Skip 2 brackets at the beginning that are not used in certificate. */
 748:D:/Work/DeviceTester/amazon-freertos/lib/greengrass\aws_greengrass_discovery.c ****                 pxHostAddressData->pcCertificate =
 749:D:/Work/DeviceTester/amazon-freertos/lib/greengrass\aws_greengrass_discovery.c ****                     &pxHostAddressData->pcCertificate[ 2 ];
 750:D:/Work/DeviceTester/amazon-freertos/lib/greengrass\aws_greengrass_discovery.c **** 
 751:D:/Work/DeviceTester/amazon-freertos/lib/greengrass\aws_greengrass_discovery.c ****                 /* Remove 2 that correspond to the skipped brackets. */
 752:D:/Work/DeviceTester/amazon-freertos/lib/greengrass\aws_greengrass_discovery.c ****                 pxHostAddressData->ulCertificateSize = ( ( uint32_t ) pxTok[ ulTokenIndex + ( uint3
 753:D:/Work/DeviceTester/amazon-freertos/lib/greengrass\aws_greengrass_discovery.c ****                                                          - ( uint32_t ) pxTok[ ulTokenIndex + ( uin
 754:D:/Work/DeviceTester/amazon-freertos/lib/greengrass\aws_greengrass_discovery.c ****                                                        - ( uint32_t ) 2;
 755:D:/Work/DeviceTester/amazon-freertos/lib/greengrass\aws_greengrass_discovery.c ****                 ulWriteIndex = 0;
 756:D:/Work/DeviceTester/amazon-freertos/lib/greengrass\aws_greengrass_discovery.c **** 
 757:D:/Work/DeviceTester/amazon-freertos/lib/greengrass\aws_greengrass_discovery.c ****                 /* This section will convert the certificate from the JSON file into a certificate 
 758:D:/Work/DeviceTester/amazon-freertos/lib/greengrass\aws_greengrass_discovery.c ****                  * given to the TLS service. For that all the \\ has to be replaced by \n. */
 759:D:/Work/DeviceTester/amazon-freertos/lib/greengrass\aws_greengrass_discovery.c ****                 ulReadIndex = 1;
 760:D:/Work/DeviceTester/amazon-freertos/lib/greengrass\aws_greengrass_discovery.c **** 
 761:D:/Work/DeviceTester/amazon-freertos/lib/greengrass\aws_greengrass_discovery.c ****                 do
 762:D:/Work/DeviceTester/amazon-freertos/lib/greengrass\aws_greengrass_discovery.c ****                 {
 763:D:/Work/DeviceTester/amazon-freertos/lib/greengrass\aws_greengrass_discovery.c ****                     if( ( pxHostAddressData->pcCertificate[ ulReadIndex - ( uint32_t ) 1 ] == '\\' 
 764:D:/Work/DeviceTester/amazon-freertos/lib/greengrass\aws_greengrass_discovery.c ****                         ( pxHostAddressData->pcCertificate[ ulReadIndex ] == 'n' ) )
 765:D:/Work/DeviceTester/amazon-freertos/lib/greengrass\aws_greengrass_discovery.c ****                     {
 766:D:/Work/DeviceTester/amazon-freertos/lib/greengrass\aws_greengrass_discovery.c ****                         pxHostAddressData->pcCertificate[ ulWriteIndex ] = '\n';
 767:D:/Work/DeviceTester/amazon-freertos/lib/greengrass\aws_greengrass_discovery.c ****                         ulReadIndex++;
 768:D:/Work/DeviceTester/amazon-freertos/lib/greengrass\aws_greengrass_discovery.c ****                     }
 769:D:/Work/DeviceTester/amazon-freertos/lib/greengrass\aws_greengrass_discovery.c ****                     else
 770:D:/Work/DeviceTester/amazon-freertos/lib/greengrass\aws_greengrass_discovery.c ****                     {
 771:D:/Work/DeviceTester/amazon-freertos/lib/greengrass\aws_greengrass_discovery.c ****                         pxHostAddressData->pcCertificate[ ulWriteIndex ] =
 772:D:/Work/DeviceTester/amazon-freertos/lib/greengrass\aws_greengrass_discovery.c ****                             pxHostAddressData->pcCertificate[ ulReadIndex - ( uint32_t ) 1 ];
 773:D:/Work/DeviceTester/amazon-freertos/lib/greengrass\aws_greengrass_discovery.c ****                     }
 774:D:/Work/DeviceTester/amazon-freertos/lib/greengrass\aws_greengrass_discovery.c **** 
 775:D:/Work/DeviceTester/amazon-freertos/lib/greengrass\aws_greengrass_discovery.c ****                     ulReadIndex++;
 776:D:/Work/DeviceTester/amazon-freertos/lib/greengrass\aws_greengrass_discovery.c ****                     ulWriteIndex++;
 777:D:/Work/DeviceTester/amazon-freertos/lib/greengrass\aws_greengrass_discovery.c ****                 } while( ulReadIndex < pxHostAddressData->ulCertificateSize );
 778:D:/Work/DeviceTester/amazon-freertos/lib/greengrass\aws_greengrass_discovery.c **** 
 779:D:/Work/DeviceTester/amazon-freertos/lib/greengrass\aws_greengrass_discovery.c ****                 pxHostAddressData->ulCertificateSize = ulWriteIndex;
 780:D:/Work/DeviceTester/amazon-freertos/lib/greengrass\aws_greengrass_discovery.c ****                 pxHostAddressData->pcCertificate[ ulWriteIndex - ( uint32_t ) 1 ] = '\0';
 781:D:/Work/DeviceTester/amazon-freertos/lib/greengrass\aws_greengrass_discovery.c **** 
 782:D:/Work/DeviceTester/amazon-freertos/lib/greengrass\aws_greengrass_discovery.c ****                 xStatus = pdPASS;
 783:D:/Work/DeviceTester/amazon-freertos/lib/greengrass\aws_greengrass_discovery.c ****             }
 784:D:/Work/DeviceTester/amazon-freertos/lib/greengrass\aws_greengrass_discovery.c ****         }
 785:D:/Work/DeviceTester/amazon-freertos/lib/greengrass\aws_greengrass_discovery.c ****     }
 786:D:/Work/DeviceTester/amazon-freertos/lib/greengrass\aws_greengrass_discovery.c **** 
 787:D:/Work/DeviceTester/amazon-freertos/lib/greengrass\aws_greengrass_discovery.c ****     return xStatus;
 788:D:/Work/DeviceTester/amazon-freertos/lib/greengrass\aws_greengrass_discovery.c **** }
 789:D:/Work/DeviceTester/amazon-freertos/lib/greengrass\aws_greengrass_discovery.c **** /*-----------------------------------------------------------*/
 790:D:/Work/DeviceTester/amazon-freertos/lib/greengrass\aws_greengrass_discovery.c **** 
 791:D:/Work/DeviceTester/amazon-freertos/lib/greengrass\aws_greengrass_discovery.c **** static BaseType_t prvIsIPvalid( const char * pcIP,
 792:D:/Work/DeviceTester/amazon-freertos/lib/greengrass\aws_greengrass_discovery.c ****                                 uint32_t ulIPlength )
 793:D:/Work/DeviceTester/amazon-freertos/lib/greengrass\aws_greengrass_discovery.c **** {
 794:D:/Work/DeviceTester/amazon-freertos/lib/greengrass\aws_greengrass_discovery.c ****     BaseType_t xStatus;
 795:D:/Work/DeviceTester/amazon-freertos/lib/greengrass\aws_greengrass_discovery.c **** 
 796:D:/Work/DeviceTester/amazon-freertos/lib/greengrass\aws_greengrass_discovery.c ****     ( void ) ulIPlength;
 797:D:/Work/DeviceTester/amazon-freertos/lib/greengrass\aws_greengrass_discovery.c **** 
 798:D:/Work/DeviceTester/amazon-freertos/lib/greengrass\aws_greengrass_discovery.c ****     if( strcmp( ggdLOOP_BACK_IP, pcIP ) != 0 )
 799:D:/Work/DeviceTester/amazon-freertos/lib/greengrass\aws_greengrass_discovery.c ****     {
 800:D:/Work/DeviceTester/amazon-freertos/lib/greengrass\aws_greengrass_discovery.c ****         xStatus = pdTRUE;
 801:D:/Work/DeviceTester/amazon-freertos/lib/greengrass\aws_greengrass_discovery.c ****     }
 802:D:/Work/DeviceTester/amazon-freertos/lib/greengrass\aws_greengrass_discovery.c ****     else
 803:D:/Work/DeviceTester/amazon-freertos/lib/greengrass\aws_greengrass_discovery.c ****     {
 804:D:/Work/DeviceTester/amazon-freertos/lib/greengrass\aws_greengrass_discovery.c ****         xStatus = pdFALSE;
 805:D:/Work/DeviceTester/amazon-freertos/lib/greengrass\aws_greengrass_discovery.c ****     }
 806:D:/Work/DeviceTester/amazon-freertos/lib/greengrass\aws_greengrass_discovery.c **** 
 807:D:/Work/DeviceTester/amazon-freertos/lib/greengrass\aws_greengrass_discovery.c ****     return xStatus;
 808:D:/Work/DeviceTester/amazon-freertos/lib/greengrass\aws_greengrass_discovery.c **** }
 809:D:/Work/DeviceTester/amazon-freertos/lib/greengrass\aws_greengrass_discovery.c **** 
 810:D:/Work/DeviceTester/amazon-freertos/lib/greengrass\aws_greengrass_discovery.c **** /*-----------------------------------------------------------*/
 811:D:/Work/DeviceTester/amazon-freertos/lib/greengrass\aws_greengrass_discovery.c **** 
 812:D:/Work/DeviceTester/amazon-freertos/lib/greengrass\aws_greengrass_discovery.c **** static BaseType_t prvGGDGetIPOnInterface( char * pcJSONFile, /*lint !e971 can use char without sign
 813:D:/Work/DeviceTester/amazon-freertos/lib/greengrass\aws_greengrass_discovery.c ****                                           const uint8_t ucTargetInterface,
 814:D:/Work/DeviceTester/amazon-freertos/lib/greengrass\aws_greengrass_discovery.c ****                                           const jsmntok_t * pxTok,
 815:D:/Work/DeviceTester/amazon-freertos/lib/greengrass\aws_greengrass_discovery.c ****                                           const uint32_t ulNbTokens,
 816:D:/Work/DeviceTester/amazon-freertos/lib/greengrass\aws_greengrass_discovery.c ****                                           GGD_HostAddressData_t * pxHostAddressData,
 817:D:/Work/DeviceTester/amazon-freertos/lib/greengrass\aws_greengrass_discovery.c ****                                           uint32_t * pulTokenIndex,
 818:D:/Work/DeviceTester/amazon-freertos/lib/greengrass\aws_greengrass_discovery.c ****                                           uint8_t * pucCurrentInterface )
 819:D:/Work/DeviceTester/amazon-freertos/lib/greengrass\aws_greengrass_discovery.c **** {
 108              		.loc 1 819 0
 109              		.cfi_startproc
 110              		@ args = 12, pretend = 0, frame = 8
 111              		@ frame_needed = 0, uses_anonymous_args = 0
 112              	.LVL8:
 113 0000 F74F2DE9 		push	{r0, r1, r2, r4, r5, r6, r7, r8, r9, r10, fp, lr}
 114              		.cfi_def_cfa_offset 48
 115              		.cfi_offset 4, -36
 116              		.cfi_offset 5, -32
 117              		.cfi_offset 6, -28
 118              		.cfi_offset 7, -24
 119              		.cfi_offset 8, -20
 120              		.cfi_offset 9, -16
 121              		.cfi_offset 10, -12
 122              		.cfi_offset 11, -8
 123              		.cfi_offset 14, -4
 820:D:/Work/DeviceTester/amazon-freertos/lib/greengrass\aws_greengrass_discovery.c ****     BaseType_t xStatus = pdFAIL;
 821:D:/Work/DeviceTester/amazon-freertos/lib/greengrass\aws_greengrass_discovery.c ****     BaseType_t xFoundIP = pdFALSE;
 822:D:/Work/DeviceTester/amazon-freertos/lib/greengrass\aws_greengrass_discovery.c ****     BaseType_t xFoundPort = pdFALSE;
 124              		.loc 1 822 0
 125 0004 0050A0E3 		mov	r5, #0
 819:D:/Work/DeviceTester/amazon-freertos/lib/greengrass\aws_greengrass_discovery.c ****     BaseType_t xStatus = pdFAIL;
 126              		.loc 1 819 0
 127 0008 34409DE5 		ldr	r4, [sp, #52]
 128 000c 0060A0E1 		mov	r6, r0
 129 0010 01B0A0E1 		mov	fp, r1
 130 0014 0290A0E1 		mov	r9, r2
 821:D:/Work/DeviceTester/amazon-freertos/lib/greengrass\aws_greengrass_discovery.c ****     BaseType_t xFoundPort = pdFALSE;
 131              		.loc 1 821 0
 132 0018 0570A0E1 		mov	r7, r5
 823:D:/Work/DeviceTester/amazon-freertos/lib/greengrass\aws_greengrass_discovery.c **** 
 824:D:/Work/DeviceTester/amazon-freertos/lib/greengrass\aws_greengrass_discovery.c ****     /* From the green grass core position. */
 825:D:/Work/DeviceTester/amazon-freertos/lib/greengrass\aws_greengrass_discovery.c ****     for( ; *pulTokenIndex < ulNbTokens; ( *pulTokenIndex )++ )
 826:D:/Work/DeviceTester/amazon-freertos/lib/greengrass\aws_greengrass_discovery.c ****     {
 827:D:/Work/DeviceTester/amazon-freertos/lib/greengrass\aws_greengrass_discovery.c ****         if( prvGGDJsoneq( pcJSONFile, &pxTok[ *pulTokenIndex ], /*lint !e971 can use char without s
 133              		.loc 1 827 0
 134 001c 14A0A0E3 		mov	r10, #20
 819:D:/Work/DeviceTester/amazon-freertos/lib/greengrass\aws_greengrass_discovery.c ****     BaseType_t xStatus = pdFAIL;
 135              		.loc 1 819 0
 136 0020 00308DE5 		str	r3, [sp]
 137              	.LVL9:
 138              	.L10:
 825:D:/Work/DeviceTester/amazon-freertos/lib/greengrass\aws_greengrass_discovery.c ****     {
 139              		.loc 1 825 0 discriminator 1
 140 0024 008094E5 		ldr	r8, [r4]
 141 0028 00309DE5 		ldr	r3, [sp]
 142 002c 030058E1 		cmp	r8, r3
 143 0030 0500003A 		bcc	.L15
 820:D:/Work/DeviceTester/amazon-freertos/lib/greengrass\aws_greengrass_discovery.c ****     BaseType_t xFoundIP = pdFALSE;
 144              		.loc 1 820 0
 145 0034 0000A0E3 		mov	r0, #0
 146              	.LVL10:
 147              	.L14:
 828:D:/Work/DeviceTester/amazon-freertos/lib/greengrass\aws_greengrass_discovery.c ****                           ggdJSON_FILE_HOST_ADDRESS ) == pdTRUE )
 829:D:/Work/DeviceTester/amazon-freertos/lib/greengrass\aws_greengrass_discovery.c ****         {
 830:D:/Work/DeviceTester/amazon-freertos/lib/greengrass\aws_greengrass_discovery.c ****             xFoundIP = pdTRUE;
 831:D:/Work/DeviceTester/amazon-freertos/lib/greengrass\aws_greengrass_discovery.c ****             pxHostAddressData->pcHostAddress =
 832:D:/Work/DeviceTester/amazon-freertos/lib/greengrass\aws_greengrass_discovery.c ****                 &pcJSONFile[ pxTok[ *pulTokenIndex + ( uint32_t ) 1 ].start ]; /*lint !e971 can use
 833:D:/Work/DeviceTester/amazon-freertos/lib/greengrass\aws_greengrass_discovery.c ****             pcJSONFile[ pxTok[ *pulTokenIndex + ( uint32_t ) 1 ].end ] = '\0'; /* End with a null  
 834:D:/Work/DeviceTester/amazon-freertos/lib/greengrass\aws_greengrass_discovery.c ****         }
 835:D:/Work/DeviceTester/amazon-freertos/lib/greengrass\aws_greengrass_discovery.c **** 
 836:D:/Work/DeviceTester/amazon-freertos/lib/greengrass\aws_greengrass_discovery.c ****         if( prvGGDJsoneq( pcJSONFile, &pxTok[ *pulTokenIndex ], /*lint !e971 can use char without s
 837:D:/Work/DeviceTester/amazon-freertos/lib/greengrass\aws_greengrass_discovery.c ****                           ggdJSON_FILE_PORT_NUMBER ) == pdTRUE )
 838:D:/Work/DeviceTester/amazon-freertos/lib/greengrass\aws_greengrass_discovery.c ****         {
 839:D:/Work/DeviceTester/amazon-freertos/lib/greengrass\aws_greengrass_discovery.c ****             pxHostAddressData->usPort = ( uint16_t ) strtoul( &pcJSONFile[ pxTok[ *pulTokenIndex + 
 840:D:/Work/DeviceTester/amazon-freertos/lib/greengrass\aws_greengrass_discovery.c ****             xFoundPort = pdTRUE;
 841:D:/Work/DeviceTester/amazon-freertos/lib/greengrass\aws_greengrass_discovery.c ****         }
 842:D:/Work/DeviceTester/amazon-freertos/lib/greengrass\aws_greengrass_discovery.c **** 
 843:D:/Work/DeviceTester/amazon-freertos/lib/greengrass\aws_greengrass_discovery.c ****         /* Get host IP address. */
 844:D:/Work/DeviceTester/amazon-freertos/lib/greengrass\aws_greengrass_discovery.c ****         if( ( xFoundIP == pdTRUE ) && ( xFoundPort == pdTRUE ) )
 845:D:/Work/DeviceTester/amazon-freertos/lib/greengrass\aws_greengrass_discovery.c ****         {
 846:D:/Work/DeviceTester/amazon-freertos/lib/greengrass\aws_greengrass_discovery.c ****             xFoundIP = pdFALSE;
 847:D:/Work/DeviceTester/amazon-freertos/lib/greengrass\aws_greengrass_discovery.c ****             xFoundPort = pdFALSE;
 848:D:/Work/DeviceTester/amazon-freertos/lib/greengrass\aws_greengrass_discovery.c ****             ( *pucCurrentInterface )++;
 849:D:/Work/DeviceTester/amazon-freertos/lib/greengrass\aws_greengrass_discovery.c **** 
 850:D:/Work/DeviceTester/amazon-freertos/lib/greengrass\aws_greengrass_discovery.c ****             if( *pucCurrentInterface == ucTargetInterface )
 851:D:/Work/DeviceTester/amazon-freertos/lib/greengrass\aws_greengrass_discovery.c ****             {
 852:D:/Work/DeviceTester/amazon-freertos/lib/greengrass\aws_greengrass_discovery.c ****                 xStatus = pdPASS;
 853:D:/Work/DeviceTester/amazon-freertos/lib/greengrass\aws_greengrass_discovery.c ****                 break;
 854:D:/Work/DeviceTester/amazon-freertos/lib/greengrass\aws_greengrass_discovery.c ****             }
 855:D:/Work/DeviceTester/amazon-freertos/lib/greengrass\aws_greengrass_discovery.c ****         }
 856:D:/Work/DeviceTester/amazon-freertos/lib/greengrass\aws_greengrass_discovery.c ****     }
 857:D:/Work/DeviceTester/amazon-freertos/lib/greengrass\aws_greengrass_discovery.c **** 
 858:D:/Work/DeviceTester/amazon-freertos/lib/greengrass\aws_greengrass_discovery.c ****     ( *pulTokenIndex )++; /* Increase index to avoid avoid a match next time the function is called
 148              		.loc 1 858 0
 149 0038 003094E5 		ldr	r3, [r4]
 150 003c 013083E2 		add	r3, r3, #1
 151 0040 003084E5 		str	r3, [r4]
 859:D:/Work/DeviceTester/amazon-freertos/lib/greengrass\aws_greengrass_discovery.c ****     return xStatus;
 860:D:/Work/DeviceTester/amazon-freertos/lib/greengrass\aws_greengrass_discovery.c **** }
 152              		.loc 1 860 0
 153 0044 0CD08DE2 		add	sp, sp, #12
 154              		.cfi_remember_state
 155              		.cfi_def_cfa_offset 36
 156              	.LVL11:
 157              		@ sp needed
 158 0048 F08FBDE8 		pop	{r4, r5, r6, r7, r8, r9, r10, fp, pc}
 159              	.LVL12:
 160              	.L15:
 161              		.cfi_restore_state
 827:D:/Work/DeviceTester/amazon-freertos/lib/greengrass\aws_greengrass_discovery.c ****                           ggdJSON_FILE_HOST_ADDRESS ) == pdTRUE )
 162              		.loc 1 827 0
 163 004c 9A0808E0 		mul	r8, r10, r8
 164 0050 C0209FE5 		ldr	r2, .L20
 165 0054 0600A0E1 		mov	r0, r6
 166 0058 081089E0 		add	r1, r9, r8
 167 005c FEFFFFEB 		bl	prvGGDJsoneq
 168              	.LVL13:
 169 0060 010050E3 		cmp	r0, #1
 170 0064 0900001A 		bne	.L11
 171              	.LVL14:
 832:D:/Work/DeviceTester/amazon-freertos/lib/greengrass\aws_greengrass_discovery.c ****             pcJSONFile[ pxTok[ *pulTokenIndex + ( uint32_t ) 1 ].end ] = '\0'; /* End with a null  
 172              		.loc 1 832 0
 173 0068 148088E2 		add	r8, r8, #20
 831:D:/Work/DeviceTester/amazon-freertos/lib/greengrass\aws_greengrass_discovery.c ****                 &pcJSONFile[ pxTok[ *pulTokenIndex + ( uint32_t ) 1 ].start ]; /*lint !e971 can use
 174              		.loc 1 831 0
 175 006c 30209DE5 		ldr	r2, [sp, #48]
 832:D:/Work/DeviceTester/amazon-freertos/lib/greengrass\aws_greengrass_discovery.c ****             pcJSONFile[ pxTok[ *pulTokenIndex + ( uint32_t ) 1 ].end ] = '\0'; /* End with a null  
 176              		.loc 1 832 0
 177 0070 088089E0 		add	r8, r9, r8
 830:D:/Work/DeviceTester/amazon-freertos/lib/greengrass\aws_greengrass_discovery.c ****             pxHostAddressData->pcHostAddress =
 178              		.loc 1 830 0
 179 0074 0070A0E1 		mov	r7, r0
 832:D:/Work/DeviceTester/amazon-freertos/lib/greengrass\aws_greengrass_discovery.c ****             pcJSONFile[ pxTok[ *pulTokenIndex + ( uint32_t ) 1 ].end ] = '\0'; /* End with a null  
 180              		.loc 1 832 0
 181 0078 043098E5 		ldr	r3, [r8, #4]
 182 007c 033086E0 		add	r3, r6, r3
 831:D:/Work/DeviceTester/amazon-freertos/lib/greengrass\aws_greengrass_discovery.c ****                 &pcJSONFile[ pxTok[ *pulTokenIndex + ( uint32_t ) 1 ].start ]; /*lint !e971 can use
 183              		.loc 1 831 0
 184 0080 003082E5 		str	r3, [r2]
 833:D:/Work/DeviceTester/amazon-freertos/lib/greengrass\aws_greengrass_discovery.c ****         }
 185              		.loc 1 833 0
 186 0084 0020A0E3 		mov	r2, #0
 187 0088 083098E5 		ldr	r3, [r8, #8]
 188 008c 0320C6E7 		strb	r2, [r6, r3]
 189              	.LVL15:
 190              	.L11:
 836:D:/Work/DeviceTester/amazon-freertos/lib/greengrass\aws_greengrass_discovery.c ****                           ggdJSON_FILE_PORT_NUMBER ) == pdTRUE )
 191              		.loc 1 836 0
 192 0090 008094E5 		ldr	r8, [r4]
 193 0094 0600A0E1 		mov	r0, r6
 194 0098 7C209FE5 		ldr	r2, .L20+4
 195 009c 9A9828E0 		mla	r8, r10, r8, r9
 196 00a0 0810A0E1 		mov	r1, r8
 197 00a4 FEFFFFEB 		bl	prvGGDJsoneq
 198              	.LVL16:
 199 00a8 010050E3 		cmp	r0, #1
 200 00ac 0900001A 		bne	.L12
 201 00b0 04008DE5 		str	r0, [sp, #4]
 839:D:/Work/DeviceTester/amazon-freertos/lib/greengrass\aws_greengrass_discovery.c ****             xFoundPort = pdTRUE;
 202              		.loc 1 839 0
 203 00b4 0A20A0E3 		mov	r2, #10
 204 00b8 180098E5 		ldr	r0, [r8, #24]
 205 00bc 0010A0E3 		mov	r1, #0
 206 00c0 000086E0 		add	r0, r6, r0
 207 00c4 FEFFFFEB 		bl	strtoul
 208              	.LVL17:
 209 00c8 30309DE5 		ldr	r3, [sp, #48]
 210 00cc BC00C3E1 		strh	r0, [r3, #12]	@ movhi
 211              	.LVL18:
 840:D:/Work/DeviceTester/amazon-freertos/lib/greengrass\aws_greengrass_discovery.c ****         }
 212              		.loc 1 840 0
 213 00d0 04309DE5 		ldr	r3, [sp, #4]
 214 00d4 0350A0E1 		mov	r5, r3
 215              	.LVL19:
 216              	.L12:
 844:D:/Work/DeviceTester/amazon-freertos/lib/greengrass\aws_greengrass_discovery.c ****         {
 217              		.loc 1 844 0
 218 00d8 050017E0 		ands	r0, r7, r5
 219 00dc 0900000A 		beq	.L13
 220              	.LVL20:
 848:D:/Work/DeviceTester/amazon-freertos/lib/greengrass\aws_greengrass_discovery.c **** 
 221              		.loc 1 848 0
 222 00e0 38309DE5 		ldr	r3, [sp, #56]
 223 00e4 38209DE5 		ldr	r2, [sp, #56]
 224 00e8 0030D3E5 		ldrb	r3, [r3]	@ zero_extendqisi2
 225 00ec 013083E2 		add	r3, r3, #1
 226 00f0 7330EFE6 		uxtb	r3, r3
 850:D:/Work/DeviceTester/amazon-freertos/lib/greengrass\aws_greengrass_discovery.c ****             {
 227              		.loc 1 850 0
 228 00f4 0B0053E1 		cmp	r3, fp
 848:D:/Work/DeviceTester/amazon-freertos/lib/greengrass\aws_greengrass_discovery.c **** 
 229              		.loc 1 848 0
 230 00f8 0030C2E5 		strb	r3, [r2]
 850:D:/Work/DeviceTester/amazon-freertos/lib/greengrass\aws_greengrass_discovery.c ****             {
 231              		.loc 1 850 0
 232 00fc CDFFFF0A 		beq	.L14
 847:D:/Work/DeviceTester/amazon-freertos/lib/greengrass\aws_greengrass_discovery.c ****             ( *pucCurrentInterface )++;
 233              		.loc 1 847 0
 234 0100 0050A0E3 		mov	r5, #0
 846:D:/Work/DeviceTester/amazon-freertos/lib/greengrass\aws_greengrass_discovery.c ****             xFoundPort = pdFALSE;
 235              		.loc 1 846 0
 236 0104 0570A0E1 		mov	r7, r5
 237              	.LVL21:
 238              	.L13:
 825:D:/Work/DeviceTester/amazon-freertos/lib/greengrass\aws_greengrass_discovery.c ****     {
 239              		.loc 1 825 0
 240 0108 003094E5 		ldr	r3, [r4]
 241 010c 013083E2 		add	r3, r3, #1
 242 0110 003084E5 		str	r3, [r4]
 243 0114 C2FFFFEA 		b	.L10
 244              	.L21:
 245              		.align	2
 246              	.L20:
 247 0118 00000000 		.word	.LC0
 248 011c 0C000000 		.word	.LC1
 249              		.cfi_endproc
 250              	.LFE11:
 252              		.section	.text.prvCheckMatch,"ax",%progbits
 253              		.align	2
 254              		.syntax unified
 255              		.arm
 256              		.fpu neon
 258              	prvCheckMatch:
 259              	.LFB7:
 621:D:/Work/DeviceTester/amazon-freertos/lib/greengrass\aws_greengrass_discovery.c ****     *pxMatch = prvGGDJsoneq( pcJSONFile, /*lint !e971 can use char without signed/unsigned. */
 260              		.loc 1 621 0
 261              		.cfi_startproc
 262              		@ args = 12, pretend = 0, frame = 0
 263              		@ frame_needed = 0, uses_anonymous_args = 0
 264              	.LVL22:
 265 0000 F0412DE9 		push	{r4, r5, r6, r7, r8, lr}
 266              		.cfi_def_cfa_offset 24
 267              		.cfi_offset 4, -24
 268              		.cfi_offset 5, -20
 269              		.cfi_offset 6, -16
 270              		.cfi_offset 7, -12
 271              		.cfi_offset 8, -8
 272              		.cfi_offset 14, -4
 623:D:/Work/DeviceTester/amazon-freertos/lib/greengrass\aws_greengrass_discovery.c ****                              pcMatchCategory );
 273              		.loc 1 623 0
 274 0004 1440A0E3 		mov	r4, #20
 275 0008 940204E0 		mul	r4, r4, r2
 621:D:/Work/DeviceTester/amazon-freertos/lib/greengrass\aws_greengrass_discovery.c ****     *pxMatch = prvGGDJsoneq( pcJSONFile, /*lint !e971 can use char without signed/unsigned. */
 276              		.loc 1 621 0
 277 000c 0160A0E1 		mov	r6, r1
 278 0010 0350A0E1 		mov	r5, r3
 279 0014 0070A0E1 		mov	r7, r0
 622:D:/Work/DeviceTester/amazon-freertos/lib/greengrass\aws_greengrass_discovery.c ****                              &pxTok[ ulTokenIndex ],
 280              		.loc 1 622 0
 281 0018 18209DE5 		ldr	r2, [sp, #24]
 282              	.LVL23:
 283 001c 041081E0 		add	r1, r1, r4
 284              	.LVL24:
 285 0020 FEFFFFEB 		bl	prvGGDJsoneq
 286              	.LVL25:
 626:D:/Work/DeviceTester/amazon-freertos/lib/greengrass\aws_greengrass_discovery.c ****     {
 287              		.loc 1 626 0
 288 0024 010050E3 		cmp	r0, #1
 622:D:/Work/DeviceTester/amazon-freertos/lib/greengrass\aws_greengrass_discovery.c ****                              &pxTok[ ulTokenIndex ],
 289              		.loc 1 622 0
 290 0028 000085E5 		str	r0, [r5]
 626:D:/Work/DeviceTester/amazon-freertos/lib/greengrass\aws_greengrass_discovery.c ****     {
 291              		.loc 1 626 0
 292 002c F081BD18 		popne	{r4, r5, r6, r7, r8, pc}
 629:D:/Work/DeviceTester/amazon-freertos/lib/greengrass\aws_greengrass_discovery.c ****         {
 293              		.loc 1 629 0
 294 0030 20309DE5 		ldr	r3, [sp, #32]
 295 0034 010053E3 		cmp	r3, #1
 296 0038 0700000A 		beq	.L24
 297              	.LVL26:
 298              	.LBB4:
 299              	.LBB5:
 631:D:/Work/DeviceTester/amazon-freertos/lib/greengrass\aws_greengrass_discovery.c ****                                 &pxTok[ ulTokenIndex + ( uint32_t ) 1 ],
 300              		.loc 1 631 0
 301 003c 141084E2 		add	r1, r4, #20
 302 0040 1C209DE5 		ldr	r2, [sp, #28]
 303 0044 011086E0 		add	r1, r6, r1
 304 0048 0700A0E1 		mov	r0, r7
 305 004c FEFFFFEB 		bl	prvGGDJsoneq
 306              	.LVL27:
 307 0050 010050E3 		cmp	r0, #1
 639:D:/Work/DeviceTester/amazon-freertos/lib/greengrass\aws_greengrass_discovery.c ****             }
 308              		.loc 1 639 0
 309 0054 0030A013 		movne	r3, #0
 631:D:/Work/DeviceTester/amazon-freertos/lib/greengrass\aws_greengrass_discovery.c ****                                 &pxTok[ ulTokenIndex + ( uint32_t ) 1 ],
 310              		.loc 1 631 0
 311 0058 0000001A 		bne	.L30
 312              	.LVL28:
 313              	.L24:
 635:D:/Work/DeviceTester/amazon-freertos/lib/greengrass\aws_greengrass_discovery.c ****             }
 314              		.loc 1 635 0
 315 005c 0130A0E3 		mov	r3, #1
 316              	.L30:
 639:D:/Work/DeviceTester/amazon-freertos/lib/greengrass\aws_greengrass_discovery.c ****             }
 317              		.loc 1 639 0
 318 0060 003085E5 		str	r3, [r5]
 319 0064 F081BDE8 		pop	{r4, r5, r6, r7, r8, pc}
 320              	.LBE5:
 321              	.LBE4:
 322              		.cfi_endproc
 323              	.LFE7:
 325              		.section	.text.prvGGDGetCore,"ax",%progbits
 326              		.align	2
 327              		.syntax unified
 328              		.arm
 329              		.fpu neon
 331              	prvGGDGetCore:
 332              	.LFB8:
 656:D:/Work/DeviceTester/amazon-freertos/lib/greengrass\aws_greengrass_discovery.c ****     BaseType_t xStatus = pdFAIL;
 333              		.loc 1 656 0
 334              		.cfi_startproc
 335              		@ args = 8, pretend = 0, frame = 8
 336              		@ frame_needed = 0, uses_anonymous_args = 0
 337              	.LVL29:
 338 0000 F04F2DE9 		push	{r4, r5, r6, r7, r8, r9, r10, fp, lr}
 339              		.cfi_def_cfa_offset 36
 340              		.cfi_offset 4, -36
 341              		.cfi_offset 5, -32
 342              		.cfi_offset 6, -28
 343              		.cfi_offset 7, -24
 344              		.cfi_offset 8, -20
 345              		.cfi_offset 9, -16
 346              		.cfi_offset 10, -12
 347              		.cfi_offset 11, -8
 348              		.cfi_offset 14, -4
 349 0004 1CD04DE2 		sub	sp, sp, #28
 350              		.cfi_def_cfa_offset 64
 685:D:/Work/DeviceTester/amazon-freertos/lib/greengrass\aws_greengrass_discovery.c ****                                pxTok,
 351              		.loc 1 685 0
 352 0008 B4A09FE5 		ldr	r10, .L42
 656:D:/Work/DeviceTester/amazon-freertos/lib/greengrass\aws_greengrass_discovery.c ****     BaseType_t xStatus = pdFAIL;
 353              		.loc 1 656 0
 354 000c 0070A0E1 		mov	r7, r0
 355 0010 0180A0E1 		mov	r8, r1
 356 0014 0240A0E1 		mov	r4, r2
 674:D:/Work/DeviceTester/amazon-freertos/lib/greengrass\aws_greengrass_discovery.c ****                                pxTok,
 357              		.loc 1 674 0
 358 0018 A8B09FE5 		ldr	fp, .L42+4
 656:D:/Work/DeviceTester/amazon-freertos/lib/greengrass\aws_greengrass_discovery.c ****     BaseType_t xStatus = pdFAIL;
 359              		.loc 1 656 0
 360 001c 0390A0E1 		mov	r9, r3
 361 0020 44509DE5 		ldr	r5, [sp, #68]
 658:D:/Work/DeviceTester/amazon-freertos/lib/greengrass\aws_greengrass_discovery.c ****     BaseType_t xMatchCore = pdFALSE;
 362              		.loc 1 658 0
 363 0024 0030A0E3 		mov	r3, #0
 364              	.LVL30:
 659:D:/Work/DeviceTester/amazon-freertos/lib/greengrass\aws_greengrass_discovery.c **** 
 365              		.loc 1 659 0
 366 0028 18608DE2 		add	r6, sp, #24
 658:D:/Work/DeviceTester/amazon-freertos/lib/greengrass\aws_greengrass_discovery.c ****     BaseType_t xMatchCore = pdFALSE;
 367              		.loc 1 658 0
 368 002c 10308DE5 		str	r3, [sp, #16]
 659:D:/Work/DeviceTester/amazon-freertos/lib/greengrass\aws_greengrass_discovery.c **** 
 369              		.loc 1 659 0
 370 0030 043026E5 		str	r3, [r6, #-4]!
 662:D:/Work/DeviceTester/amazon-freertos/lib/greengrass\aws_greengrass_discovery.c ****     {
 371              		.loc 1 662 0
 372 0034 003085E5 		str	r3, [r5]
 373              	.LVL31:
 374              	.L32:
 662:D:/Work/DeviceTester/amazon-freertos/lib/greengrass\aws_greengrass_discovery.c ****     {
 375              		.loc 1 662 0 is_stmt 0 discriminator 1
 376 0038 002095E5 		ldr	r2, [r5]
 377 003c 40309DE5 		ldr	r3, [sp, #64]
 378 0040 030052E1 		cmp	r2, r3
 379 0044 0200003A 		bcc	.L38
 657:D:/Work/DeviceTester/amazon-freertos/lib/greengrass\aws_greengrass_discovery.c ****     BaseType_t xMatchGroup = pdFALSE;
 380              		.loc 1 657 0 is_stmt 1
 381 0048 0000A0E3 		mov	r0, #0
 382              	.L31:
 706:D:/Work/DeviceTester/amazon-freertos/lib/greengrass\aws_greengrass_discovery.c **** /*-----------------------------------------------------------*/
 383              		.loc 1 706 0
 384 004c 1CD08DE2 		add	sp, sp, #28
 385              		.cfi_remember_state
 386              		.cfi_def_cfa_offset 36
 387              		@ sp needed
 388 0050 F08FBDE8 		pop	{r4, r5, r6, r7, r8, r9, r10, fp, pc}
 389              	.LVL32:
 390              	.L38:
 391              		.cfi_restore_state
 665:D:/Work/DeviceTester/amazon-freertos/lib/greengrass\aws_greengrass_discovery.c ****         {
 392              		.loc 1 665 0
 393 0054 010054E3 		cmp	r4, #1
 667:D:/Work/DeviceTester/amazon-freertos/lib/greengrass\aws_greengrass_discovery.c ****             xMatchCore = pdTRUE;
 394              		.loc 1 667 0
 395 0058 10408D05 		streq	r4, [sp, #16]
 668:D:/Work/DeviceTester/amazon-freertos/lib/greengrass\aws_greengrass_discovery.c ****         }
 396              		.loc 1 668 0
 397 005c 14408D05 		streq	r4, [sp, #20]
 665:D:/Work/DeviceTester/amazon-freertos/lib/greengrass\aws_greengrass_discovery.c ****         {
 398              		.loc 1 665 0
 399 0060 0D00000A 		beq	.L34
 672:D:/Work/DeviceTester/amazon-freertos/lib/greengrass\aws_greengrass_discovery.c ****             {
 400              		.loc 1 672 0
 401 0064 10309DE5 		ldr	r3, [sp, #16]
 685:D:/Work/DeviceTester/amazon-freertos/lib/greengrass\aws_greengrass_discovery.c ****                                pxTok,
 402              		.loc 1 685 0
 403 0068 0910A0E1 		mov	r1, r9
 674:D:/Work/DeviceTester/amazon-freertos/lib/greengrass\aws_greengrass_discovery.c ****                                pxTok,
 404              		.loc 1 674 0
 405 006c 08408DE5 		str	r4, [sp, #8]
 685:D:/Work/DeviceTester/amazon-freertos/lib/greengrass\aws_greengrass_discovery.c ****                                pxTok,
 406              		.loc 1 685 0
 407 0070 0700A0E1 		mov	r0, r7
 672:D:/Work/DeviceTester/amazon-freertos/lib/greengrass\aws_greengrass_discovery.c ****             {
 408              		.loc 1 672 0
 409 0074 010053E3 		cmp	r3, #1
 674:D:/Work/DeviceTester/amazon-freertos/lib/greengrass\aws_greengrass_discovery.c ****                                pxTok,
 410              		.loc 1 674 0
 411 0078 00309815 		ldrne	r3, [r8]
 685:D:/Work/DeviceTester/amazon-freertos/lib/greengrass\aws_greengrass_discovery.c ****                                pxTok,
 412              		.loc 1 685 0
 413 007c 04309805 		ldreq	r3, [r8, #4]
 674:D:/Work/DeviceTester/amazon-freertos/lib/greengrass\aws_greengrass_discovery.c ****                                pxTok,
 414              		.loc 1 674 0
 415 0080 00B08D15 		strne	fp, [sp]
 416 0084 04308D15 		strne	r3, [sp, #4]
 417 0088 10308D12 		addne	r3, sp, #16
 685:D:/Work/DeviceTester/amazon-freertos/lib/greengrass\aws_greengrass_discovery.c ****                                pxTok,
 418              		.loc 1 685 0
 419 008c 04308D05 		streq	r3, [sp, #4]
 420 0090 0630A001 		moveq	r3, r6
 421 0094 00A08D05 		streq	r10, [sp]
 422 0098 FEFFFFEB 		bl	prvCheckMatch
 423              	.LVL33:
 424              	.L34:
 696:D:/Work/DeviceTester/amazon-freertos/lib/greengrass\aws_greengrass_discovery.c ****         {
 425              		.loc 1 696 0
 426 009c 14309DE5 		ldr	r3, [sp, #20]
 427 00a0 010053E3 		cmp	r3, #1
 428 00a4 0200001A 		bne	.L36
 696:D:/Work/DeviceTester/amazon-freertos/lib/greengrass\aws_greengrass_discovery.c ****         {
 429              		.loc 1 696 0 is_stmt 0 discriminator 1
 430 00a8 10009DE5 		ldr	r0, [sp, #16]
 431 00ac 010050E3 		cmp	r0, #1
 432 00b0 E5FFFF0A 		beq	.L31
 433              	.L36:
 662:D:/Work/DeviceTester/amazon-freertos/lib/greengrass\aws_greengrass_discovery.c ****     {
 434              		.loc 1 662 0 is_stmt 1 discriminator 2
 435 00b4 003095E5 		ldr	r3, [r5]
 436 00b8 013083E2 		add	r3, r3, #1
 437 00bc 003085E5 		str	r3, [r5]
 438 00c0 DCFFFFEA 		b	.L32
 439              	.L43:
 440              		.align	2
 441              	.L42:
 442 00c4 0A000000 		.word	.LC3
 443 00c8 00000000 		.word	.LC2
 444              		.cfi_endproc
 445              	.LFE8:
 447              		.section	.text.prvGGDGetCertificate.isra.1,"ax",%progbits
 448              		.align	2
 449              		.syntax unified
 450              		.arm
 451              		.fpu neon
 453              	prvGGDGetCertificate.isra.1:
 454              	.LFB21:
 709:D:/Work/DeviceTester/amazon-freertos/lib/greengrass\aws_greengrass_discovery.c ****                                         const HostParameters_t * pxHostParameters,
 455              		.loc 1 709 0
 456              		.cfi_startproc
 457              		@ args = 8, pretend = 0, frame = 8
 458              		@ frame_needed = 0, uses_anonymous_args = 0
 459              	.LVL34:
 460 0000 F04F2DE9 		push	{r4, r5, r6, r7, r8, r9, r10, fp, lr}
 461              		.cfi_def_cfa_offset 36
 462              		.cfi_offset 4, -36
 463              		.cfi_offset 5, -32
 464              		.cfi_offset 6, -28
 465              		.cfi_offset 7, -24
 466              		.cfi_offset 8, -20
 467              		.cfi_offset 9, -16
 468              		.cfi_offset 10, -12
 469              		.cfi_offset 11, -8
 470              		.cfi_offset 14, -4
 471 0004 1CD04DE2 		sub	sp, sp, #28
 472              		.cfi_def_cfa_offset 64
 709:D:/Work/DeviceTester/amazon-freertos/lib/greengrass\aws_greengrass_discovery.c ****                                         const HostParameters_t * pxHostParameters,
 473              		.loc 1 709 0
 474 0008 44509DE5 		ldr	r5, [sp, #68]
 716:D:/Work/DeviceTester/amazon-freertos/lib/greengrass\aws_greengrass_discovery.c ****     uint32_t ulTokenIndex;
 475              		.loc 1 716 0
 476 000c 0040A0E3 		mov	r4, #0
 709:D:/Work/DeviceTester/amazon-freertos/lib/greengrass\aws_greengrass_discovery.c ****                                         const HostParameters_t * pxHostParameters,
 477              		.loc 1 709 0
 478 0010 0080A0E1 		mov	r8, r0
 479 0014 01B0A0E1 		mov	fp, r1
 480 0018 0290A0E1 		mov	r9, r2
 481 001c 03A0A0E1 		mov	r10, r3
 482 0020 0360A0E1 		mov	r6, r3
 722:D:/Work/DeviceTester/amazon-freertos/lib/greengrass\aws_greengrass_discovery.c ****     {
 483              		.loc 1 722 0
 484 0024 0470A0E1 		mov	r7, r4
 716:D:/Work/DeviceTester/amazon-freertos/lib/greengrass\aws_greengrass_discovery.c ****     uint32_t ulTokenIndex;
 485              		.loc 1 716 0
 486 0028 14408DE5 		str	r4, [sp, #20]
 487              	.LVL35:
 488              	.L45:
 722:D:/Work/DeviceTester/amazon-freertos/lib/greengrass\aws_greengrass_discovery.c ****     {
 489              		.loc 1 722 0
 490 002c 40309DE5 		ldr	r3, [sp, #64]
 491 0030 030057E1 		cmp	r7, r3
 492 0034 0200001A 		bne	.L52
 788:D:/Work/DeviceTester/amazon-freertos/lib/greengrass\aws_greengrass_discovery.c **** /*-----------------------------------------------------------*/
 493              		.loc 1 788 0
 494 0038 0400A0E1 		mov	r0, r4
 495 003c 1CD08DE2 		add	sp, sp, #28
 496              		.cfi_remember_state
 497              		.cfi_def_cfa_offset 36
 498              		@ sp needed
 499 0040 F08FBDE8 		pop	{r4, r5, r6, r7, r8, r9, r10, fp, pc}
 500              	.LVL36:
 501              	.L52:
 502              		.cfi_restore_state
 725:D:/Work/DeviceTester/amazon-freertos/lib/greengrass\aws_greengrass_discovery.c ****         {
 503              		.loc 1 725 0
 504 0044 010059E3 		cmp	r9, #1
 727:D:/Work/DeviceTester/amazon-freertos/lib/greengrass\aws_greengrass_discovery.c ****         }
 505              		.loc 1 727 0
 506 0048 14908D05 		streq	r9, [sp, #20]
 730:D:/Work/DeviceTester/amazon-freertos/lib/greengrass\aws_greengrass_discovery.c ****         {
 507              		.loc 1 730 0
 508 004c 14309DE5 		ldr	r3, [sp, #20]
 509 0050 010053E3 		cmp	r3, #1
 510 0054 0C00000A 		beq	.L47
 732:D:/Work/DeviceTester/amazon-freertos/lib/greengrass\aws_greengrass_discovery.c ****                            ulTokenIndex,
 511              		.loc 1 732 0
 512 0058 08908DE5 		str	r9, [sp, #8]
 513 005c 0720A0E1 		mov	r2, r7
 514 0060 00309BE5 		ldr	r3, [fp]
 515 0064 0A10A0E1 		mov	r1, r10
 516 0068 0800A0E1 		mov	r0, r8
 517 006c 04308DE5 		str	r3, [sp, #4]
 518 0070 B4309FE5 		ldr	r3, .L55
 519 0074 00308DE5 		str	r3, [sp]
 520 0078 14308DE2 		add	r3, sp, #20
 521 007c FEFFFFEB 		bl	prvCheckMatch
 522              	.LVL37:
 523              	.L48:
 722:D:/Work/DeviceTester/amazon-freertos/lib/greengrass\aws_greengrass_discovery.c ****     {
 524              		.loc 1 722 0
 525 0080 017087E2 		add	r7, r7, #1
 526              	.LVL38:
 527 0084 146086E2 		add	r6, r6, #20
 528 0088 E7FFFFEA 		b	.L45
 529              	.L47:
 741:D:/Work/DeviceTester/amazon-freertos/lib/greengrass\aws_greengrass_discovery.c ****                               &pxTok[ ulTokenIndex ],
 530              		.loc 1 741 0
 531 008c 9C209FE5 		ldr	r2, .L55+4
 532 0090 0610A0E1 		mov	r1, r6
 533 0094 0800A0E1 		mov	r0, r8
 534 0098 FEFFFFEB 		bl	prvGGDJsoneq
 535              	.LVL39:
 536 009c 010050E3 		cmp	r0, #1
 537 00a0 F6FFFF1A 		bne	.L48
 754:D:/Work/DeviceTester/amazon-freertos/lib/greengrass\aws_greengrass_discovery.c ****                 ulWriteIndex = 0;
 538              		.loc 1 754 0
 539 00a4 1C3096E5 		ldr	r3, [r6, #28]
 746:D:/Work/DeviceTester/amazon-freertos/lib/greengrass\aws_greengrass_discovery.c ****                 /* Skip 2 brackets at the beginning that are not used in certificate. */
 540              		.loc 1 746 0
 541 00a8 181096E5 		ldr	r1, [r6, #24]
 754:D:/Work/DeviceTester/amazon-freertos/lib/greengrass\aws_greengrass_discovery.c ****                 ulWriteIndex = 0;
 542              		.loc 1 754 0
 543 00ac 023043E2 		sub	r3, r3, #2
 544 00b0 013043E0 		sub	r3, r3, r1
 749:D:/Work/DeviceTester/amazon-freertos/lib/greengrass\aws_greengrass_discovery.c **** 
 545              		.loc 1 749 0
 546 00b4 022081E2 		add	r2, r1, #2
 752:D:/Work/DeviceTester/amazon-freertos/lib/greengrass\aws_greengrass_discovery.c ****                                                          - ( uint32_t ) pxTok[ ulTokenIndex + ( uin
 547              		.loc 1 752 0
 548 00b8 083085E5 		str	r3, [r5, #8]
 549              	.LVL40:
 755:D:/Work/DeviceTester/amazon-freertos/lib/greengrass\aws_greengrass_discovery.c **** 
 550              		.loc 1 755 0
 551 00bc 0030A0E3 		mov	r3, #0
 749:D:/Work/DeviceTester/amazon-freertos/lib/greengrass\aws_greengrass_discovery.c **** 
 552              		.loc 1 749 0
 553 00c0 022088E0 		add	r2, r8, r2
 748:D:/Work/DeviceTester/amazon-freertos/lib/greengrass\aws_greengrass_discovery.c ****                     &pxHostAddressData->pcCertificate[ 2 ];
 554              		.loc 1 748 0
 555 00c4 042085E5 		str	r2, [r5, #4]
 556              	.LVL41:
 557              	.L51:
 763:D:/Work/DeviceTester/amazon-freertos/lib/greengrass\aws_greengrass_discovery.c ****                         ( pxHostAddressData->pcCertificate[ ulReadIndex ] == 'n' ) )
 558              		.loc 1 763 0
 559 00c8 042095E5 		ldr	r2, [r5, #4]
 560 00cc 001082E0 		add	r1, r2, r0
 561 00d0 011051E5 		ldrb	r1, [r1, #-1]	@ zero_extendqisi2
 562 00d4 5C0051E3 		cmp	r1, #92
 563 00d8 0500001A 		bne	.L49
 564 00dc 00C0D2E7 		ldrb	ip, [r2, r0]	@ zero_extendqisi2
 565 00e0 6E005CE3 		cmp	ip, #110
 766:D:/Work/DeviceTester/amazon-freertos/lib/greengrass\aws_greengrass_discovery.c ****                         ulReadIndex++;
 566              		.loc 1 766 0
 567 00e4 0A10A003 		moveq	r1, #10
 767:D:/Work/DeviceTester/amazon-freertos/lib/greengrass\aws_greengrass_discovery.c ****                     }
 568              		.loc 1 767 0
 569 00e8 01008002 		addeq	r0, r0, #1
 570              	.LVL42:
 766:D:/Work/DeviceTester/amazon-freertos/lib/greengrass\aws_greengrass_discovery.c ****                         ulReadIndex++;
 571              		.loc 1 766 0
 572 00ec 0310C207 		strbeq	r1, [r2, r3]
 763:D:/Work/DeviceTester/amazon-freertos/lib/greengrass\aws_greengrass_discovery.c ****                         ( pxHostAddressData->pcCertificate[ ulReadIndex ] == 'n' ) )
 573              		.loc 1 763 0
 574 00f0 0000000A 		beq	.L50
 575              	.L49:
 771:D:/Work/DeviceTester/amazon-freertos/lib/greengrass\aws_greengrass_discovery.c ****                             pxHostAddressData->pcCertificate[ ulReadIndex - ( uint32_t ) 1 ];
 576              		.loc 1 771 0
 577 00f4 0310C2E7 		strb	r1, [r2, r3]
 578              	.L50:
 579              	.LVL43:
 777:D:/Work/DeviceTester/amazon-freertos/lib/greengrass\aws_greengrass_discovery.c **** 
 580              		.loc 1 777 0
 581 00f8 081095E5 		ldr	r1, [r5, #8]
 775:D:/Work/DeviceTester/amazon-freertos/lib/greengrass\aws_greengrass_discovery.c ****                     ulWriteIndex++;
 582              		.loc 1 775 0
 583 00fc 010080E2 		add	r0, r0, #1
 584              	.LVL44:
 776:D:/Work/DeviceTester/amazon-freertos/lib/greengrass\aws_greengrass_discovery.c ****                 } while( ulReadIndex < pxHostAddressData->ulCertificateSize );
 585              		.loc 1 776 0
 586 0100 012083E2 		add	r2, r3, #1
 587              	.LVL45:
 777:D:/Work/DeviceTester/amazon-freertos/lib/greengrass\aws_greengrass_discovery.c **** 
 588              		.loc 1 777 0
 589 0104 010050E1 		cmp	r0, r1
 590 0108 0500003A 		bcc	.L53
 779:D:/Work/DeviceTester/amazon-freertos/lib/greengrass\aws_greengrass_discovery.c ****                 pxHostAddressData->pcCertificate[ ulWriteIndex - ( uint32_t ) 1 ] = '\0';
 591              		.loc 1 779 0
 592 010c 082085E5 		str	r2, [r5, #8]
 780:D:/Work/DeviceTester/amazon-freertos/lib/greengrass\aws_greengrass_discovery.c **** 
 593              		.loc 1 780 0
 594 0110 0010A0E3 		mov	r1, #0
 595 0114 042095E5 		ldr	r2, [r5, #4]
 596              	.LVL46:
 782:D:/Work/DeviceTester/amazon-freertos/lib/greengrass\aws_greengrass_discovery.c ****             }
 597              		.loc 1 782 0
 598 0118 0140A0E3 		mov	r4, #1
 780:D:/Work/DeviceTester/amazon-freertos/lib/greengrass\aws_greengrass_discovery.c **** 
 599              		.loc 1 780 0
 600 011c 0310C2E7 		strb	r1, [r2, r3]
 601              	.LVL47:
 602 0120 D6FFFFEA 		b	.L48
 603              	.LVL48:
 604              	.L53:
 776:D:/Work/DeviceTester/amazon-freertos/lib/greengrass\aws_greengrass_discovery.c ****                 } while( ulReadIndex < pxHostAddressData->ulCertificateSize );
 605              		.loc 1 776 0
 606 0124 0230A0E1 		mov	r3, r2
 607 0128 E6FFFFEA 		b	.L51
 608              	.L56:
 609              		.align	2
 610              	.L55:
 611 012c 00000000 		.word	.LC2
 612 0130 00000000 		.word	.LC4
 613              		.cfi_endproc
 614              	.LFE21:
 616              		.section	.text.GGD_JSONRequestStart,"ax",%progbits
 617              		.align	2
 618              		.global	GGD_JSONRequestStart
 619              		.syntax unified
 620              		.arm
 621              		.fpu neon
 623              	GGD_JSONRequestStart:
 624              	.LFB1:
 228:D:/Work/DeviceTester/amazon-freertos/lib/greengrass\aws_greengrass_discovery.c ****     GGD_HostAddressData_t xHostAddressData;
 625              		.loc 1 228 0
 626              		.cfi_startproc
 627              		@ args = 0, pretend = 0, frame = 16
 628              		@ frame_needed = 0, uses_anonymous_args = 0
 629              	.LVL49:
 630 0000 30402DE9 		push	{r4, r5, lr}
 631              		.cfi_def_cfa_offset 12
 632              		.cfi_offset 4, -12
 633              		.cfi_offset 5, -8
 634              		.cfi_offset 14, -4
 232:D:/Work/DeviceTester/amazon-freertos/lib/greengrass\aws_greengrass_discovery.c **** 
 635              		.loc 1 232 0
 636 0004 005050E2 		subs	r5, r0, #0
 228:D:/Work/DeviceTester/amazon-freertos/lib/greengrass\aws_greengrass_discovery.c ****     GGD_HostAddressData_t xHostAddressData;
 637              		.loc 1 228 0
 638 0008 14D04DE2 		sub	sp, sp, #20
 639              		.cfi_def_cfa_offset 32
 232:D:/Work/DeviceTester/amazon-freertos/lib/greengrass\aws_greengrass_discovery.c **** 
 640              		.loc 1 232 0
 641 000c 0200001A 		bne	.L58
 642              	.LVL50:
 643              	.LBB8:
 644              	.LBB9:
 435:D:/Work/DeviceTester/amazon-freertos/lib/greengrass\aws_greengrass_discovery.c **** 
 645              		.loc 1 435 0
 646 0010 0110A0E3 		mov	r1, #1
 647 0014 74009FE5 		ldr	r0, .L63
 648              	.LVL51:
 649 0018 FEFFFFEB 		bl	longjmp
 650              	.LVL52:
 651              	.L58:
 652              	.LBE9:
 653              	.LBE8:
 234:D:/Work/DeviceTester/amazon-freertos/lib/greengrass\aws_greengrass_discovery.c ****     xHostAddressData.pcCertificate = NULL;                                 /* Use default certifica
 654              		.loc 1 234 0
 655 001c 70309FE5 		ldr	r3, .L63+4
 240:D:/Work/DeviceTester/amazon-freertos/lib/greengrass\aws_greengrass_discovery.c ****                                          pxSocket,
 656              		.loc 1 240 0
 657 0020 0510A0E1 		mov	r1, r5
 658 0024 0D00A0E1 		mov	r0, sp
 659              	.LVL53:
 234:D:/Work/DeviceTester/amazon-freertos/lib/greengrass\aws_greengrass_discovery.c ****     xHostAddressData.pcCertificate = NULL;                                 /* Use default certifica
 660              		.loc 1 234 0
 661 0028 00308DE5 		str	r3, [sp]
 235:D:/Work/DeviceTester/amazon-freertos/lib/greengrass\aws_greengrass_discovery.c ****     xHostAddressData.ulCertificateSize = 0;
 662              		.loc 1 235 0
 663 002c 0030A0E3 		mov	r3, #0
 664 0030 04308DE5 		str	r3, [sp, #4]
 236:D:/Work/DeviceTester/amazon-freertos/lib/greengrass\aws_greengrass_discovery.c ****     xHostAddressData.usPort = clientcredentialGREENGRASS_DISCOVERY_PORT;
 665              		.loc 1 236 0
 666 0034 08308DE5 		str	r3, [sp, #8]
 237:D:/Work/DeviceTester/amazon-freertos/lib/greengrass\aws_greengrass_discovery.c **** 
 667              		.loc 1 237 0
 668 0038 FB3002E3 		movw	r3, #8443
 669 003c BC30CDE1 		strh	r3, [sp, #12]	@ movhi
 240:D:/Work/DeviceTester/amazon-freertos/lib/greengrass\aws_greengrass_discovery.c ****                                          pxSocket,
 670              		.loc 1 240 0
 671 0040 883301E3 		movw	r3, #5000
 672 0044 0320A0E1 		mov	r2, r3
 673 0048 FEFFFFEB 		bl	GGD_SecureConnect_Connect
 674              	.LVL54:
 245:D:/Work/DeviceTester/amazon-freertos/lib/greengrass\aws_greengrass_discovery.c ****     {
 675              		.loc 1 245 0
 676 004c 010050E3 		cmp	r0, #1
 240:D:/Work/DeviceTester/amazon-freertos/lib/greengrass\aws_greengrass_discovery.c ****                                          pxSocket,
 677              		.loc 1 240 0
 678 0050 0040A0E1 		mov	r4, r0
 679              	.LVL55:
 261:D:/Work/DeviceTester/amazon-freertos/lib/greengrass\aws_greengrass_discovery.c ****     }
 680              		.loc 1 261 0
 681 0054 3C009F15 		ldrne	r0, .L63+8
 682              	.LVL56:
 245:D:/Work/DeviceTester/amazon-freertos/lib/greengrass\aws_greengrass_discovery.c ****     {
 683              		.loc 1 245 0
 684 0058 0800001A 		bne	.L62
 248:D:/Work/DeviceTester/amazon-freertos/lib/greengrass\aws_greengrass_discovery.c ****                                           ( uint32_t ) sizeof( ggdCLOUD_DISCOVERY_ADDRESS ) - 1,
 685              		.loc 1 248 0
 686 005c 002095E5 		ldr	r2, [r5]
 687 0060 4310A0E3 		mov	r1, #67
 688 0064 30009FE5 		ldr	r0, .L63+12
 689 0068 FEFFFFEB 		bl	GGD_SecureConnect_Send
 690              	.LVL57:
 252:D:/Work/DeviceTester/amazon-freertos/lib/greengrass\aws_greengrass_discovery.c ****         {
 691              		.loc 1 252 0
 692 006c 004050E2 		subs	r4, r0, #0
 693 0070 0300001A 		bne	.L57
 255:D:/Work/DeviceTester/amazon-freertos/lib/greengrass\aws_greengrass_discovery.c ****             ggdconfigPRINT( "JSON request failed\r\n" );
 694              		.loc 1 255 0
 695 0074 0500A0E1 		mov	r0, r5
 696              	.LVL58:
 697 0078 FEFFFFEB 		bl	GGD_SecureConnect_Disconnect
 698              	.LVL59:
 256:D:/Work/DeviceTester/amazon-freertos/lib/greengrass\aws_greengrass_discovery.c ****         }
 699              		.loc 1 256 0
 700 007c 1C009FE5 		ldr	r0, .L63+16
 701              	.L62:
 261:D:/Work/DeviceTester/amazon-freertos/lib/greengrass\aws_greengrass_discovery.c ****     }
 702              		.loc 1 261 0
 703 0080 FEFFFFEB 		bl	vLoggingPrintf
 704              	.LVL60:
 705              	.L57:
 265:D:/Work/DeviceTester/amazon-freertos/lib/greengrass\aws_greengrass_discovery.c **** /*-----------------------------------------------------------*/
 706              		.loc 1 265 0
 707 0084 0400A0E1 		mov	r0, r4
 708 0088 14D08DE2 		add	sp, sp, #20
 709              		.cfi_def_cfa_offset 12
 710              		@ sp needed
 711 008c 3080BDE8 		pop	{r4, r5, pc}
 712              	.LVL61:
 713              	.L64:
 714              		.align	2
 715              	.L63:
 716 0090 28000000 		.word	Unity+40
 717 0094 00000000 		.word	.LANCHOR0
 718 0098 5A000000 		.word	.LC7
 719 009c 00000000 		.word	.LC5
 720 00a0 44000000 		.word	.LC6
 721              		.cfi_endproc
 722              	.LFE1:
 724              		.section	.text.GGD_JSONRequestGetSize,"ax",%progbits
 725              		.align	2
 726              		.global	GGD_JSONRequestGetSize
 727              		.syntax unified
 728              		.arm
 729              		.fpu neon
 731              	GGD_JSONRequestGetSize:
 732              	.LFB2:
 270:D:/Work/DeviceTester/amazon-freertos/lib/greengrass\aws_greengrass_discovery.c ****     BaseType_t xStatus = pdFAIL;
 733              		.loc 1 270 0
 734              		.cfi_startproc
 735              		@ args = 0, pretend = 0, frame = 24
 736              		@ frame_needed = 0, uses_anonymous_args = 0
 737              	.LVL62:
 738 0000 F0402DE9 		push	{r4, r5, r6, r7, lr}
 739              		.cfi_def_cfa_offset 20
 740              		.cfi_offset 4, -20
 741              		.cfi_offset 5, -16
 742              		.cfi_offset 6, -12
 743              		.cfi_offset 7, -8
 744              		.cfi_offset 14, -4
 281:D:/Work/DeviceTester/amazon-freertos/lib/greengrass\aws_greengrass_discovery.c ****     configASSERT( pulJSONFileSize != NULL );
 745              		.loc 1 281 0
 746 0004 005050E2 		subs	r5, r0, #0
 270:D:/Work/DeviceTester/amazon-freertos/lib/greengrass\aws_greengrass_discovery.c ****     BaseType_t xStatus = pdFAIL;
 747              		.loc 1 270 0
 748 0008 1CD04DE2 		sub	sp, sp, #28
 749              		.cfi_def_cfa_offset 48
 281:D:/Work/DeviceTester/amazon-freertos/lib/greengrass\aws_greengrass_discovery.c ****     configASSERT( pulJSONFileSize != NULL );
 750              		.loc 1 281 0
 751 000c 0200001A 		bne	.L66
 752              	.L67:
 281:D:/Work/DeviceTester/amazon-freertos/lib/greengrass\aws_greengrass_discovery.c ****     configASSERT( pulJSONFileSize != NULL );
 753              		.loc 1 281 0 is_stmt 0 discriminator 1
 754 0010 0110A0E3 		mov	r1, #1
 755              	.LVL63:
 756 0014 58019FE5 		ldr	r0, .L96
 757              	.LVL64:
 758 0018 FEFFFFEB 		bl	longjmp
 759              	.LVL65:
 760              	.L66:
 282:D:/Work/DeviceTester/amazon-freertos/lib/greengrass\aws_greengrass_discovery.c ****     memset( cBuffer, 0, sizeof( cBuffer ) );
 761              		.loc 1 282 0 is_stmt 1
 762 001c 000051E3 		cmp	r1, #0
 763 0020 0160A0E1 		mov	r6, r1
 764 0024 F9FFFF0A 		beq	.L67
 765              	.LBB12:
 766              	.LBB13:
 861:D:/Work/DeviceTester/amazon-freertos/lib/greengrass\aws_greengrass_discovery.c **** /*-----------------------------------------------------------*/
 862:D:/Work/DeviceTester/amazon-freertos/lib/greengrass\aws_greengrass_discovery.c **** 
 863:D:/Work/DeviceTester/amazon-freertos/lib/greengrass\aws_greengrass_discovery.c **** static BaseType_t prvCheckForContentLengthString( uint8_t * pucIndex,
 864:D:/Work/DeviceTester/amazon-freertos/lib/greengrass\aws_greengrass_discovery.c ****                                                   const char cNewChar ) /*lint !e971 can use char w
 865:D:/Work/DeviceTester/amazon-freertos/lib/greengrass\aws_greengrass_discovery.c **** {
 866:D:/Work/DeviceTester/amazon-freertos/lib/greengrass\aws_greengrass_discovery.c ****     BaseType_t xMatch = pdFALSE;
 867:D:/Work/DeviceTester/amazon-freertos/lib/greengrass\aws_greengrass_discovery.c **** 
 868:D:/Work/DeviceTester/amazon-freertos/lib/greengrass\aws_greengrass_discovery.c ****     if( cNewChar == ggdHTTP_CONTENT_LENGTH_STRING[ *pucIndex ] )
 767              		.loc 1 868 0
 768 0028 48719FE5 		ldr	r7, .L96+4
 769              	.LBE13:
 770              	.LBE12:
 283:D:/Work/DeviceTester/amazon-freertos/lib/greengrass\aws_greengrass_discovery.c **** 
 771              		.loc 1 283 0
 772 002c 0040A0E3 		mov	r4, #0
 773 0030 0C408DE5 		str	r4, [sp, #12]
 774 0034 10408DE5 		str	r4, [sp, #16]
 775 0038 B441CDE1 		strh	r4, [sp, #20]	@ movhi
 776              	.LVL66:
 777              	.L70:
 287:D:/Work/DeviceTester/amazon-freertos/lib/greengrass\aws_greengrass_discovery.c ****                                               ( uint32_t ) 1,
 778              		.loc 1 287 0
 779 003c 08308DE2 		add	r3, sp, #8
 780 0040 002095E5 		ldr	r2, [r5]
 781 0044 0110A0E3 		mov	r1, #1
 782 0048 07008DE2 		add	r0, sp, #7
 783 004c FEFFFFEB 		bl	GGD_SecureConnect_Read
 784              	.LVL67:
 785              	.LBB15:
 786              	.LBB14:
 787              		.loc 1 868 0
 788 0050 0430D7E7 		ldrb	r3, [r7, r4]	@ zero_extendqisi2
 789 0054 0720DDE5 		ldrb	r2, [sp, #7]	@ zero_extendqisi2
 790 0058 030052E1 		cmp	r2, r3
 869:D:/Work/DeviceTester/amazon-freertos/lib/greengrass\aws_greengrass_discovery.c ****     {
 870:D:/Work/DeviceTester/amazon-freertos/lib/greengrass\aws_greengrass_discovery.c ****         ( *pucIndex )++;
 871:D:/Work/DeviceTester/amazon-freertos/lib/greengrass\aws_greengrass_discovery.c **** 
 872:D:/Work/DeviceTester/amazon-freertos/lib/greengrass\aws_greengrass_discovery.c ****         if( *pucIndex == ( uint8_t ) ( sizeof( ggdHTTP_CONTENT_LENGTH_STRING ) - ( uint8_t ) 1 ) ) 
 873:D:/Work/DeviceTester/amazon-freertos/lib/greengrass\aws_greengrass_discovery.c ****         {
 874:D:/Work/DeviceTester/amazon-freertos/lib/greengrass\aws_greengrass_discovery.c ****             xMatch = pdTRUE;
 875:D:/Work/DeviceTester/amazon-freertos/lib/greengrass\aws_greengrass_discovery.c ****         }
 876:D:/Work/DeviceTester/amazon-freertos/lib/greengrass\aws_greengrass_discovery.c ****     }
 877:D:/Work/DeviceTester/amazon-freertos/lib/greengrass\aws_greengrass_discovery.c ****     else
 878:D:/Work/DeviceTester/amazon-freertos/lib/greengrass\aws_greengrass_discovery.c ****     {
 879:D:/Work/DeviceTester/amazon-freertos/lib/greengrass\aws_greengrass_discovery.c ****         *pucIndex = 0;
 791              		.loc 1 879 0
 792 005c 0040A013 		movne	r4, #0
 793              	.LVL68:
 868:D:/Work/DeviceTester/amazon-freertos/lib/greengrass\aws_greengrass_discovery.c ****     {
 794              		.loc 1 868 0
 795 0060 3800001A 		bne	.L68
 870:D:/Work/DeviceTester/amazon-freertos/lib/greengrass\aws_greengrass_discovery.c **** 
 796              		.loc 1 870 0
 797 0064 014084E2 		add	r4, r4, #1
 798 0068 7440EFE6 		uxtb	r4, r4
 799              	.LVL69:
 872:D:/Work/DeviceTester/amazon-freertos/lib/greengrass\aws_greengrass_discovery.c ****         {
 800              		.loc 1 872 0
 801 006c 0F0054E3 		cmp	r4, #15
 802 0070 3400001A 		bne	.L68
 803 0074 0040A0E3 		mov	r4, #0
 804              	.LVL70:
 805              	.L75:
 806              	.LBE14:
 807              	.LBE15:
 307:D:/Work/DeviceTester/amazon-freertos/lib/greengrass\aws_greengrass_discovery.c ****                                                   ( uint32_t ) 1,
 808              		.loc 1 307 0
 809 0078 0C008DE2 		add	r0, sp, #12
 810              	.LVL71:
 811 007c 08308DE2 		add	r3, sp, #8
 812 0080 002095E5 		ldr	r2, [r5]
 813 0084 0110A0E3 		mov	r1, #1
 814 0088 040080E0 		add	r0, r0, r4
 815 008c FEFFFFEB 		bl	GGD_SecureConnect_Read
 816              	.LVL72:
 312:D:/Work/DeviceTester/amazon-freertos/lib/greengrass\aws_greengrass_discovery.c ****             {
 817              		.loc 1 312 0
 818 0090 000050E3 		cmp	r0, #0
 819 0094 0200000A 		beq	.L72
 312:D:/Work/DeviceTester/amazon-freertos/lib/greengrass\aws_greengrass_discovery.c ****             {
 820              		.loc 1 312 0 is_stmt 0 discriminator 1
 821 0098 08309DE5 		ldr	r3, [sp, #8]
 822 009c 010053E3 		cmp	r3, #1
 823 00a0 0200000A 		beq	.L73
 824              	.L72:
 314:D:/Work/DeviceTester/amazon-freertos/lib/greengrass\aws_greengrass_discovery.c ****                 xStatus = pdFAIL;
 825              		.loc 1 314 0 is_stmt 1
 826 00a4 D0009FE5 		ldr	r0, .L96+8
 827              	.LVL73:
 828 00a8 FEFFFFEB 		bl	vLoggingPrintf
 829              	.LVL74:
 316:D:/Work/DeviceTester/amazon-freertos/lib/greengrass\aws_greengrass_discovery.c ****             }
 830              		.loc 1 316 0
 831 00ac 2A0000EA 		b	.L74
 832              	.LVL75:
 833              	.L73:
 834 00b0 014084E2 		add	r4, r4, #1
 835              	.LVL76:
 303:D:/Work/DeviceTester/amazon-freertos/lib/greengrass\aws_greengrass_discovery.c ****              ucLengthStrIndex < ( uint8_t ) ggJSON_PARSING_TMP_BUFFER_SIZE;
 836              		.loc 1 303 0
 837 00b4 0A0054E3 		cmp	r4, #10
 838 00b8 EEFFFF1A 		bne	.L75
 839              	.LVL77:
 325:D:/Work/DeviceTester/amazon-freertos/lib/greengrass\aws_greengrass_discovery.c ****             + ( uint32_t ) 1; /*lint !e645 if code reaches here, cBuffer has been inialized. */
 840              		.loc 1 325 0
 841 00bc 0420A0E1 		mov	r2, r4
 842 00c0 0010A0E3 		mov	r1, #0
 843 00c4 0C008DE2 		add	r0, sp, #12
 844              	.LVL78:
 845 00c8 FEFFFFEB 		bl	strtoul
 846              	.LVL79:
 326:D:/Work/DeviceTester/amazon-freertos/lib/greengrass\aws_greengrass_discovery.c **** 
 847              		.loc 1 326 0
 848 00cc 010080E2 		add	r0, r0, #1
 324:D:/Work/DeviceTester/amazon-freertos/lib/greengrass\aws_greengrass_discovery.c ****             ( uint32_t ) strtoul( cBuffer, NULL, ggJSON_CONVERTION_RADIX )
 849              		.loc 1 324 0
 850 00d0 000086E5 		str	r0, [r6]
 851              	.LVL80:
 852              	.L79:
 333:D:/Work/DeviceTester/amazon-freertos/lib/greengrass\aws_greengrass_discovery.c ****                                                   ( uint32_t ) 1,
 853              		.loc 1 333 0
 854 00d4 08308DE2 		add	r3, sp, #8
 855 00d8 002095E5 		ldr	r2, [r5]
 856 00dc 0110A0E3 		mov	r1, #1
 857 00e0 0F008DE2 		add	r0, sp, #15
 858 00e4 FEFFFFEB 		bl	GGD_SecureConnect_Read
 859              	.LVL81:
 339:D:/Work/DeviceTester/amazon-freertos/lib/greengrass\aws_greengrass_discovery.c ****                 ( cBuffer[ 1 ] == '\n' ) &&
 860              		.loc 1 339 0
 861 00e8 0C30DDE5 		ldrb	r3, [sp, #12]	@ zero_extendqisi2
 862 00ec 0D10DDE5 		ldrb	r1, [sp, #13]	@ zero_extendqisi2
 863 00f0 0E20DDE5 		ldrb	r2, [sp, #14]	@ zero_extendqisi2
 864 00f4 0D0053E3 		cmp	r3, #13
 865 00f8 0F30DDE5 		ldrb	r3, [sp, #15]	@ zero_extendqisi2
 866 00fc 0500001A 		bne	.L77
 339:D:/Work/DeviceTester/amazon-freertos/lib/greengrass\aws_greengrass_discovery.c ****                 ( cBuffer[ 1 ] == '\n' ) &&
 867              		.loc 1 339 0 is_stmt 0 discriminator 1
 868 0100 0A0051E3 		cmp	r1, #10
 869 0104 0300001A 		bne	.L77
 340:D:/Work/DeviceTester/amazon-freertos/lib/greengrass\aws_greengrass_discovery.c ****                 ( cBuffer[ 2 ] == '\r' ) &&
 870              		.loc 1 340 0 is_stmt 1
 871 0108 0D0052E3 		cmp	r2, #13
 872 010c 0100001A 		bne	.L77
 341:D:/Work/DeviceTester/amazon-freertos/lib/greengrass\aws_greengrass_discovery.c ****                 ( cBuffer[ 3 ] == '\n' ) )
 873              		.loc 1 341 0
 874 0110 0A0053E3 		cmp	r3, #10
 875 0114 0800000A 		beq	.L82
 876              	.L77:
 351:D:/Work/DeviceTester/amazon-freertos/lib/greengrass\aws_greengrass_discovery.c ****     }
 877              		.loc 1 351 0
 878 0118 010050E3 		cmp	r0, #1
 348:D:/Work/DeviceTester/amazon-freertos/lib/greengrass\aws_greengrass_discovery.c ****             cBuffer[ 1 ] = cBuffer[ 2 ];
 879              		.loc 1 348 0
 880 011c 0C10CDE5 		strb	r1, [sp, #12]
 349:D:/Work/DeviceTester/amazon-freertos/lib/greengrass\aws_greengrass_discovery.c ****             cBuffer[ 2 ] = cBuffer[ 3 ];
 881              		.loc 1 349 0
 882 0120 0D20CDE5 		strb	r2, [sp, #13]
 350:D:/Work/DeviceTester/amazon-freertos/lib/greengrass\aws_greengrass_discovery.c ****         } while( ( xReadStatus == pdPASS ) && ( ulReadSize == ( uint32_t ) 1 ) );
 883              		.loc 1 350 0
 884 0124 0E30CDE5 		strb	r3, [sp, #14]
 351:D:/Work/DeviceTester/amazon-freertos/lib/greengrass\aws_greengrass_discovery.c ****     }
 885              		.loc 1 351 0
 886 0128 0B00001A 		bne	.L74
 351:D:/Work/DeviceTester/amazon-freertos/lib/greengrass\aws_greengrass_discovery.c ****     }
 887              		.loc 1 351 0 is_stmt 0 discriminator 1
 888 012c 08309DE5 		ldr	r3, [sp, #8]
 889 0130 010053E3 		cmp	r3, #1
 890 0134 E6FFFF0A 		beq	.L79
 891 0138 070000EA 		b	.L74
 892              	.L82:
 344:D:/Work/DeviceTester/amazon-freertos/lib/greengrass\aws_greengrass_discovery.c ****                 break;
 893              		.loc 1 344 0 is_stmt 1
 894 013c 0100A0E3 		mov	r0, #1
 895              	.LVL82:
 896              	.L65:
 362:D:/Work/DeviceTester/amazon-freertos/lib/greengrass\aws_greengrass_discovery.c **** /*-----------------------------------------------------------*/
 897              		.loc 1 362 0
 898 0140 1CD08DE2 		add	sp, sp, #28
 899              		.cfi_remember_state
 900              		.cfi_def_cfa_offset 20
 901              		@ sp needed
 902 0144 F080BDE8 		pop	{r4, r5, r6, r7, pc}
 903              	.LVL83:
 904              	.L68:
 905              		.cfi_restore_state
 298:D:/Work/DeviceTester/amazon-freertos/lib/greengrass\aws_greengrass_discovery.c **** 
 906              		.loc 1 298 0
 907 0148 010050E3 		cmp	r0, #1
 908 014c 0200001A 		bne	.L74
 298:D:/Work/DeviceTester/amazon-freertos/lib/greengrass\aws_greengrass_discovery.c **** 
 909              		.loc 1 298 0 is_stmt 0 discriminator 1
 910 0150 08309DE5 		ldr	r3, [sp, #8]
 911 0154 010053E3 		cmp	r3, #1
 912 0158 B7FFFF0A 		beq	.L70
 913              	.LVL84:
 914              	.L74:
 357:D:/Work/DeviceTester/amazon-freertos/lib/greengrass\aws_greengrass_discovery.c ****         ggdconfigPRINT( "JSON parsing failed\r\n" );
 915              		.loc 1 357 0 is_stmt 1
 916 015c 0500A0E1 		mov	r0, r5
 917 0160 FEFFFFEB 		bl	GGD_SecureConnect_Disconnect
 918              	.LVL85:
 358:D:/Work/DeviceTester/amazon-freertos/lib/greengrass\aws_greengrass_discovery.c ****     }
 919              		.loc 1 358 0
 920 0164 14009FE5 		ldr	r0, .L96+12
 921 0168 FEFFFFEB 		bl	vLoggingPrintf
 922              	.LVL86:
 923 016c 0000A0E3 		mov	r0, #0
 924 0170 F2FFFFEA 		b	.L65
 925              	.L97:
 926              		.align	2
 927              	.L96:
 928 0174 28000000 		.word	Unity+40
 929 0178 43000000 		.word	.LC8
 930 017c 00000000 		.word	.LC9
 931 0180 2D000000 		.word	.LC10
 932              		.cfi_endproc
 933              	.LFE2:
 935              		.section	.text.GGD_JSONRequestGetFile,"ax",%progbits
 936              		.align	2
 937              		.global	GGD_JSONRequestGetFile
 938              		.syntax unified
 939              		.arm
 940              		.fpu neon
 942              	GGD_JSONRequestGetFile:
 943              	.LFB3:
 370:D:/Work/DeviceTester/amazon-freertos/lib/greengrass\aws_greengrass_discovery.c ****     BaseType_t xStatus;
 944              		.loc 1 370 0
 945              		.cfi_startproc
 946              		@ args = 8, pretend = 0, frame = 8
 947              		@ frame_needed = 0, uses_anonymous_args = 0
 948              	.LVL87:
 949 0000 F7432DE9 		push	{r0, r1, r2, r4, r5, r6, r7, r8, r9, lr}
 950              		.cfi_def_cfa_offset 40
 951              		.cfi_offset 4, -28
 952              		.cfi_offset 5, -24
 953              		.cfi_offset 6, -20
 954              		.cfi_offset 7, -16
 955              		.cfi_offset 8, -12
 956              		.cfi_offset 9, -8
 957              		.cfi_offset 14, -4
 374:D:/Work/DeviceTester/amazon-freertos/lib/greengrass\aws_greengrass_discovery.c ****     configASSERT( pulByteRead != NULL );
 958              		.loc 1 374 0
 959 0004 006050E2 		subs	r6, r0, #0
 370:D:/Work/DeviceTester/amazon-freertos/lib/greengrass\aws_greengrass_discovery.c ****     BaseType_t xStatus;
 960              		.loc 1 370 0
 961 0008 28509DE5 		ldr	r5, [sp, #40]
 374:D:/Work/DeviceTester/amazon-freertos/lib/greengrass\aws_greengrass_discovery.c ****     configASSERT( pulByteRead != NULL );
 962              		.loc 1 374 0
 963 000c 0200001A 		bne	.L99
 964              	.L100:
 374:D:/Work/DeviceTester/amazon-freertos/lib/greengrass\aws_greengrass_discovery.c ****     configASSERT( pulByteRead != NULL );
 965              		.loc 1 374 0 is_stmt 0 discriminator 1
 966 0010 0110A0E3 		mov	r1, #1
 967              	.LVL88:
 968 0014 C0009FE5 		ldr	r0, .L122
 969              	.LVL89:
 970 0018 FEFFFFEB 		bl	longjmp
 971              	.LVL90:
 972              	.L99:
 375:D:/Work/DeviceTester/amazon-freertos/lib/greengrass\aws_greengrass_discovery.c ****     configASSERT( pxJSONFileRetrieveCompleted != NULL );
 973              		.loc 1 375 0 is_stmt 1
 974 001c 000053E3 		cmp	r3, #0
 975 0020 0390A0E1 		mov	r9, r3
 976 0024 F9FFFF0A 		beq	.L100
 376:D:/Work/DeviceTester/amazon-freertos/lib/greengrass\aws_greengrass_discovery.c ****     configASSERT( pcBuffer != NULL );
 977              		.loc 1 376 0
 978 0028 000055E3 		cmp	r5, #0
 979 002c F7FFFF0A 		beq	.L100
 377:D:/Work/DeviceTester/amazon-freertos/lib/greengrass\aws_greengrass_discovery.c **** 
 980              		.loc 1 377 0
 981 0030 000051E3 		cmp	r1, #0
 982 0034 0170A0E1 		mov	r7, r1
 983 0038 F4FFFF0A 		beq	.L100
 379:D:/Work/DeviceTester/amazon-freertos/lib/greengrass\aws_greengrass_discovery.c **** 
 984              		.loc 1 379 0
 985 003c 0080A0E3 		mov	r8, #0
 986 0040 0210A0E1 		mov	r1, r2
 987              	.LVL91:
 988 0044 008085E5 		str	r8, [r5]
 381:D:/Work/DeviceTester/amazon-freertos/lib/greengrass\aws_greengrass_discovery.c ****                                       ulBufferSize,
 989              		.loc 1 381 0
 990 0048 04308DE2 		add	r3, sp, #4
 991              	.LVL92:
 992 004c 002096E5 		ldr	r2, [r6]
 993              	.LVL93:
 994 0050 0700A0E1 		mov	r0, r7
 995              	.LVL94:
 996 0054 FEFFFFEB 		bl	GGD_SecureConnect_Read
 997              	.LVL95:
 386:D:/Work/DeviceTester/amazon-freertos/lib/greengrass\aws_greengrass_discovery.c ****     {
 998              		.loc 1 386 0
 999 0058 010050E3 		cmp	r0, #1
 381:D:/Work/DeviceTester/amazon-freertos/lib/greengrass\aws_greengrass_discovery.c ****                                       ulBufferSize,
 1000              		.loc 1 381 0
 1001 005c 0040A0E1 		mov	r4, r0
 1002              	.LVL96:
 386:D:/Work/DeviceTester/amazon-freertos/lib/greengrass\aws_greengrass_discovery.c ****     {
 1003              		.loc 1 386 0
 1004 0060 1A00001A 		bne	.L101
 388:D:/Work/DeviceTester/amazon-freertos/lib/greengrass\aws_greengrass_discovery.c **** 
 1005              		.loc 1 388 0
 1006 0064 001099E5 		ldr	r1, [r9]
 1007 0068 04309DE5 		ldr	r3, [sp, #4]
 391:D:/Work/DeviceTester/amazon-freertos/lib/greengrass\aws_greengrass_discovery.c ****         {
 1008              		.loc 1 391 0
 1009 006c 2C209DE5 		ldr	r2, [sp, #44]
 388:D:/Work/DeviceTester/amazon-freertos/lib/greengrass\aws_greengrass_discovery.c **** 
 1010              		.loc 1 388 0
 1011 0070 031081E0 		add	r1, r1, r3
 391:D:/Work/DeviceTester/amazon-freertos/lib/greengrass\aws_greengrass_discovery.c ****         {
 1012              		.loc 1 391 0
 1013 0074 012042E2 		sub	r2, r2, #1
 388:D:/Work/DeviceTester/amazon-freertos/lib/greengrass\aws_greengrass_discovery.c **** 
 1014              		.loc 1 388 0
 1015 0078 001089E5 		str	r1, [r9]
 391:D:/Work/DeviceTester/amazon-freertos/lib/greengrass\aws_greengrass_discovery.c ****         {
 1016              		.loc 1 391 0
 1017 007c 020051E1 		cmp	r1, r2
 1018 0080 0900009A 		bls	.L102
 393:D:/Work/DeviceTester/amazon-freertos/lib/greengrass\aws_greengrass_discovery.c ****                             *pulByteRead,
 1019              		.loc 1 393 0
 1020 0084 54009FE5 		ldr	r0, .L122+4
 1021              	.LVL97:
 1022 0088 FEFFFFEB 		bl	vLoggingPrintf
 1023              	.LVL98:
 1024              	.L103:
 417:D:/Work/DeviceTester/amazon-freertos/lib/greengrass\aws_greengrass_discovery.c ****         /* Don't forget to close the connection. */
 1025              		.loc 1 417 0
 1026 008c 50009FE5 		ldr	r0, .L122+8
 1027 0090 0040A0E3 		mov	r4, #0
 1028 0094 FEFFFFEB 		bl	vLoggingPrintf
 1029              	.LVL99:
 419:D:/Work/DeviceTester/amazon-freertos/lib/greengrass\aws_greengrass_discovery.c ****     }
 1030              		.loc 1 419 0
 1031 0098 0600A0E1 		mov	r0, r6
 1032 009c FEFFFFEB 		bl	GGD_SecureConnect_Disconnect
 1033              	.LVL100:
 1034              	.L98:
 430:D:/Work/DeviceTester/amazon-freertos/lib/greengrass\aws_greengrass_discovery.c **** /*-----------------------------------------------------------*/
 1035              		.loc 1 430 0
 1036 00a0 0400A0E1 		mov	r0, r4
 1037 00a4 0CD08DE2 		add	sp, sp, #12
 1038              		.cfi_remember_state
 1039              		.cfi_def_cfa_offset 28
 1040              		@ sp needed
 1041 00a8 F083BDE8 		pop	{r4, r5, r6, r7, r8, r9, pc}
 1042              	.LVL101:
 1043              	.L102:
 1044              		.cfi_restore_state
 405:D:/Work/DeviceTester/amazon-freertos/lib/greengrass\aws_greengrass_discovery.c ****         }
 1045              		.loc 1 405 0
 1046 00ac 00808535 		strcc	r8, [r5]
 403:D:/Work/DeviceTester/amazon-freertos/lib/greengrass\aws_greengrass_discovery.c ****         {
 1047              		.loc 1 403 0
 410:D:/Work/DeviceTester/amazon-freertos/lib/greengrass\aws_greengrass_discovery.c ****             *pxJSONFileRetrieveCompleted = pdTRUE;
 1048              		.loc 1 410 0
 1049 00b0 0280C727 		strbcs	r8, [r7, r2]
 411:D:/Work/DeviceTester/amazon-freertos/lib/greengrass\aws_greengrass_discovery.c ****         }
 1050              		.loc 1 411 0
 1051 00b4 00408525 		strcs	r4, [r5]
 1052              	.LVL102:
 1053              	.L104:
 423:D:/Work/DeviceTester/amazon-freertos/lib/greengrass\aws_greengrass_discovery.c ****         {
 1054              		.loc 1 423 0
 1055 00b8 003095E5 		ldr	r3, [r5]
 1056 00bc 010053E3 		cmp	r3, #1
 1057 00c0 F6FFFF1A 		bne	.L98
 425:D:/Work/DeviceTester/amazon-freertos/lib/greengrass\aws_greengrass_discovery.c ****         }
 1058              		.loc 1 425 0
 1059 00c4 0600A0E1 		mov	r0, r6
 1060 00c8 FEFFFFEB 		bl	GGD_SecureConnect_Disconnect
 1061              	.LVL103:
 429:D:/Work/DeviceTester/amazon-freertos/lib/greengrass\aws_greengrass_discovery.c **** }
 1062              		.loc 1 429 0
 1063 00cc F3FFFFEA 		b	.L98
 1064              	.LVL104:
 1065              	.L101:
 415:D:/Work/DeviceTester/amazon-freertos/lib/greengrass\aws_greengrass_discovery.c ****     {
 1066              		.loc 1 415 0
 1067 00d0 000050E3 		cmp	r0, #0
 1068 00d4 F7FFFF1A 		bne	.L104
 1069 00d8 EBFFFFEA 		b	.L103
 1070              	.L123:
 1071              		.align	2
 1072              	.L122:
 1073 00dc 28000000 		.word	Unity+40
 1074 00e0 00000000 		.word	.LC11
 1075 00e4 35000000 		.word	.LC12
 1076              		.cfi_endproc
 1077              	.LFE3:
 1079              		.section	.text.GGD_JSONRequestAbort,"ax",%progbits
 1080              		.align	2
 1081              		.global	GGD_JSONRequestAbort
 1082              		.syntax unified
 1083              		.arm
 1084              		.fpu neon
 1086              	GGD_JSONRequestAbort:
 1087              	.LFB4:
 434:D:/Work/DeviceTester/amazon-freertos/lib/greengrass\aws_greengrass_discovery.c ****     configASSERT( pxSocket != NULL );
 1088              		.loc 1 434 0
 1089              		.cfi_startproc
 1090              		@ args = 0, pretend = 0, frame = 0
 1091              		@ frame_needed = 0, uses_anonymous_args = 0
 1092              	.LVL105:
 435:D:/Work/DeviceTester/amazon-freertos/lib/greengrass\aws_greengrass_discovery.c **** 
 1093              		.loc 1 435 0
 1094 0000 003050E2 		subs	r3, r0, #0
 1095 0004 0300001A 		bne	.L125
 1096              	.LVL106:
 434:D:/Work/DeviceTester/amazon-freertos/lib/greengrass\aws_greengrass_discovery.c ****     configASSERT( pxSocket != NULL );
 1097              		.loc 1 434 0
 1098 0008 10402DE9 		push	{r4, lr}
 1099              		.cfi_def_cfa_offset 8
 1100              		.cfi_offset 4, -8
 1101              		.cfi_offset 14, -4
 1102              	.LBB18:
 1103              	.LBB19:
 435:D:/Work/DeviceTester/amazon-freertos/lib/greengrass\aws_greengrass_discovery.c **** 
 1104              		.loc 1 435 0
 1105 000c 0110A0E3 		mov	r1, #1
 1106 0010 10009FE5 		ldr	r0, .L130
 1107              	.LVL107:
 1108 0014 FEFFFFEB 		bl	longjmp
 1109              	.LVL108:
 1110              	.L125:
 1111              		.cfi_def_cfa_offset 0
 1112              		.cfi_restore 4
 1113              		.cfi_restore 14
 1114              	.LBE19:
 1115              	.LBE18:
 437:D:/Work/DeviceTester/amazon-freertos/lib/greengrass\aws_greengrass_discovery.c ****     {
 1116              		.loc 1 437 0
 1117 0018 003093E5 		ldr	r3, [r3]
 1118 001c 010073E3 		cmn	r3, #1
 1119 0020 1EFF2F01 		bxeq	lr
 439:D:/Work/DeviceTester/amazon-freertos/lib/greengrass\aws_greengrass_discovery.c ****     }
 1120              		.loc 1 439 0
 1121 0024 FEFFFFEA 		b	GGD_SecureConnect_Disconnect
 1122              	.LVL109:
 1123              	.L131:
 1124              		.align	2
 1125              	.L130:
 1126 0028 28000000 		.word	Unity+40
 1127              		.cfi_endproc
 1128              	.LFE4:
 1130              		.section	.text.GGD_GetIPandCertificateFromJSON,"ax",%progbits
 1131              		.align	2
 1132              		.global	GGD_GetIPandCertificateFromJSON
 1133              		.syntax unified
 1134              		.arm
 1135              		.fpu neon
 1137              	GGD_GetIPandCertificateFromJSON:
 1138              	.LFB5:
 450:D:/Work/DeviceTester/amazon-freertos/lib/greengrass\aws_greengrass_discovery.c ****     Socket_t xSocket;
 1139              		.loc 1 450 0
 1140              		.cfi_startproc
 1141              		@ args = 4, pretend = 0, frame = 2592
 1142              		@ frame_needed = 0, uses_anonymous_args = 0
 1143              	.LVL110:
 1144 0000 F04F2DE9 		push	{r4, r5, r6, r7, r8, r9, r10, fp, lr}
 1145              		.cfi_def_cfa_offset 36
 1146              		.cfi_offset 4, -36
 1147              		.cfi_offset 5, -32
 1148              		.cfi_offset 6, -28
 1149              		.cfi_offset 7, -24
 1150              		.cfi_offset 8, -20
 1151              		.cfi_offset 9, -16
 1152              		.cfi_offset 10, -12
 1153              		.cfi_offset 11, -8
 1154              		.cfi_offset 14, -4
 461:D:/Work/DeviceTester/amazon-freertos/lib/greengrass\aws_greengrass_discovery.c ****     configASSERT( pxHostAddressData != NULL );
 1155              		.loc 1 461 0
 1156 0004 006050E2 		subs	r6, r0, #0
 450:D:/Work/DeviceTester/amazon-freertos/lib/greengrass\aws_greengrass_discovery.c ****     Socket_t xSocket;
 1157              		.loc 1 450 0
 1158 0008 A3DE4DE2 		sub	sp, sp, #2608
 1159              		.cfi_def_cfa_offset 2644
 1160 000c 0340A0E1 		mov	r4, r3
 1161 0010 04D04DE2 		sub	sp, sp, #4
 1162              		.cfi_def_cfa_offset 2648
 456:D:/Work/DeviceTester/amazon-freertos/lib/greengrass\aws_greengrass_discovery.c ****     uint8_t ucCurrentInterface = 0, ucTargetInterface = 1;
 1163              		.loc 1 456 0
 1164 0014 0030A0E3 		mov	r3, #0
 1165              	.LVL111:
 450:D:/Work/DeviceTester/amazon-freertos/lib/greengrass\aws_greengrass_discovery.c ****     Socket_t xSocket;
 1166              		.loc 1 450 0
 1167 0018 58AA9DE5 		ldr	r10, [sp, #2648]
 456:D:/Work/DeviceTester/amazon-freertos/lib/greengrass\aws_greengrass_discovery.c ****     uint8_t ucCurrentInterface = 0, ucTargetInterface = 1;
 1168              		.loc 1 456 0
 1169 001c 20308DE5 		str	r3, [sp, #32]
 457:D:/Work/DeviceTester/amazon-freertos/lib/greengrass\aws_greengrass_discovery.c ****     BaseType_t xFoundGGC = pdFALSE;
 1170              		.loc 1 457 0
 1171 0020 1B30CDE5 		strb	r3, [sp, #27]
 1172              	.LVL112:
 461:D:/Work/DeviceTester/amazon-freertos/lib/greengrass\aws_greengrass_discovery.c ****     configASSERT( pxHostAddressData != NULL );
 1173              		.loc 1 461 0
 1174 0024 0200001A 		bne	.L133
 1175              	.L134:
 461:D:/Work/DeviceTester/amazon-freertos/lib/greengrass\aws_greengrass_discovery.c ****     configASSERT( pxHostAddressData != NULL );
 1176              		.loc 1 461 0 is_stmt 0 discriminator 1
 1177 0028 0110A0E3 		mov	r1, #1
 1178              	.LVL113:
 1179 002c 78019FE5 		ldr	r0, .L152
 1180              	.LVL114:
 1181 0030 FEFFFFEB 		bl	longjmp
 1182              	.LVL115:
 1183              	.L133:
 462:D:/Work/DeviceTester/amazon-freertos/lib/greengrass\aws_greengrass_discovery.c **** 
 1184              		.loc 1 462 0 is_stmt 1
 1185 0034 000054E3 		cmp	r4, #0
 1186 0038 FAFFFF0A 		beq	.L134
 466:D:/Work/DeviceTester/amazon-freertos/lib/greengrass\aws_greengrass_discovery.c ****     }
 1187              		.loc 1 466 0
 1188 003c 00005AE3 		cmp	r10, #0
 1189 0040 00005203 		cmpeq	r2, #0
 1190 0044 0290A0E1 		mov	r9, r2
 1191 0048 F6FFFF0A 		beq	.L134
 469:D:/Work/DeviceTester/amazon-freertos/lib/greengrass\aws_greengrass_discovery.c ****     /* From jsmn, parse the JSON file. */
 1192              		.loc 1 469 0
 1193 004c 24008DE2 		add	r0, sp, #36
 1194              	.LVL116:
 1195 0050 0170A0E1 		mov	r7, r1
 1196 0054 FEFFFFEB 		bl	jsmn_init
 1197              	.LVL117:
 471:D:/Work/DeviceTester/amazon-freertos/lib/greengrass\aws_greengrass_discovery.c ****                                         pcJSONFile, /*lint !e971 can use char without signed/unsign
 1198              		.loc 1 471 0
 1199 0058 8030A0E3 		mov	r3, #128
 1200 005c 0720A0E1 		mov	r2, r7
 1201 0060 00308DE5 		str	r3, [sp]
 1202 0064 0610A0E1 		mov	r1, r6
 1203 0068 30308DE2 		add	r3, sp, #48
 1204 006c 24008DE2 		add	r0, sp, #36
 1205 0070 FEFFFFEB 		bl	jsmn_parse
 1206              	.LVL118:
 478:D:/Work/DeviceTester/amazon-freertos/lib/greengrass\aws_greengrass_discovery.c ****     {
 1207              		.loc 1 478 0
 1208 0074 007050E2 		subs	r7, r0, #0
 1209              	.LVL119:
 480:D:/Work/DeviceTester/amazon-freertos/lib/greengrass\aws_greengrass_discovery.c **** 
 1210              		.loc 1 480 0
 1211 0078 30019FB5 		ldrlt	r0, .L152+4
 1212              	.LVL120:
 478:D:/Work/DeviceTester/amazon-freertos/lib/greengrass\aws_greengrass_discovery.c ****     {
 1213              		.loc 1 478 0
 1214 007c 190000BA 		blt	.L151
 1215              	.LVL121:
 492:D:/Work/DeviceTester/amazon-freertos/lib/greengrass\aws_greengrass_discovery.c ****                                   pxHostParameters,
 1216              		.loc 1 492 0
 1217 0080 04408DE5 		str	r4, [sp, #4]
 1218 0084 30308DE2 		add	r3, sp, #48
 1219 0088 00708DE5 		str	r7, [sp]
 1220 008c 0A20A0E1 		mov	r2, r10
 1221 0090 0910A0E1 		mov	r1, r9
 1222 0094 0600A0E1 		mov	r0, r6
 1223 0098 FEFFFFEB 		bl	prvGGDGetCertificate.isra.1
 1224              	.LVL122:
 1225 009c 005050E2 		subs	r5, r0, #0
 1226 00a0 0F00000A 		beq	.L141
 508:D:/Work/DeviceTester/amazon-freertos/lib/greengrass\aws_greengrass_discovery.c ****                            pxHostParameters,
 1227              		.loc 1 508 0
 1228 00a4 20808DE2 		add	r8, sp, #32
 1229 00a8 30308DE2 		add	r3, sp, #48
 1230 00ac 80018DE8 		stm	sp, {r7, r8}
 1231 00b0 0A20A0E1 		mov	r2, r10
 1232 00b4 0910A0E1 		mov	r1, r9
 1233 00b8 0600A0E1 		mov	r0, r6
 1234 00bc FEFFFFEB 		bl	prvGGDGetCore
 1235              	.LVL123:
 1236 00c0 005050E2 		subs	r5, r0, #0
 1237 00c4 0A00000A 		beq	.L142
 527:D:/Work/DeviceTester/amazon-freertos/lib/greengrass\aws_greengrass_discovery.c ****         {
 1238              		.loc 1 527 0
 1239 00c8 00005AE3 		cmp	r10, #0
 1240 00cc 1BA08DE2 		add	r10, sp, #27
 1241 00d0 0900000A 		beq	.L143
 1242 00d4 0150A0E3 		mov	r5, #1
 1243              	.LBB22:
 1244              	.LBB23:
 798:D:/Work/DeviceTester/amazon-freertos/lib/greengrass\aws_greengrass_discovery.c ****     {
 1245              		.loc 1 798 0
 1246 00d8 D4B09FE5 		ldr	fp, .L152+8
 1247              	.LBE23:
 1248              	.LBE22:
 559:D:/Work/DeviceTester/amazon-freertos/lib/greengrass\aws_greengrass_discovery.c ****                                                    &xSocket,
 1249              		.loc 1 559 0
 1250 00dc 049048E2 		sub	r9, r8, #4
 1251              	.LVL124:
 1252 00e0 140000EA 		b	.L144
 1253              	.LVL125:
 1254              	.L141:
 499:D:/Work/DeviceTester/amazon-freertos/lib/greengrass\aws_greengrass_discovery.c **** 
 1255              		.loc 1 499 0
 1256 00e4 CC009FE5 		ldr	r0, .L152+12
 1257              	.LVL126:
 1258              	.L151:
 578:D:/Work/DeviceTester/amazon-freertos/lib/greengrass\aws_greengrass_discovery.c **** 
 1259              		.loc 1 578 0
 1260 00e8 FEFFFFEB 		bl	vLoggingPrintf
 1261              	.LVL127:
 580:D:/Work/DeviceTester/amazon-freertos/lib/greengrass\aws_greengrass_discovery.c ****         }
 1262              		.loc 1 580 0
 1263 00ec 0030A0E3 		mov	r3, #0
 1264 00f0 290000EA 		b	.L132
 1265              	.LVL128:
 1266              	.L142:
 515:D:/Work/DeviceTester/amazon-freertos/lib/greengrass\aws_greengrass_discovery.c **** 
 1267              		.loc 1 515 0
 1268 00f4 C0009FE5 		ldr	r0, .L152+16
 1269 00f8 FAFFFFEA 		b	.L151
 1270              	.L143:
 529:D:/Work/DeviceTester/amazon-freertos/lib/greengrass\aws_greengrass_discovery.c ****                                         pxHostParameters->ucInterface,
 1271              		.loc 1 529 0
 1272 00fc 0810D9E5 		ldrb	r1, [r9, #8]	@ zero_extendqisi2
 1273 0100 0730A0E1 		mov	r3, r7
 1274 0104 10058DE8 		stm	sp, {r4, r8, r10}
 1275 0108 30208DE2 		add	r2, sp, #48
 1276 010c 0600A0E1 		mov	r0, r6
 1277 0110 FEFFFFEB 		bl	prvGGDGetIPOnInterface
 1278              	.LVL129:
 1279 0114 000050E3 		cmp	r0, #0
 1280 0118 0130A013 		movne	r3, #1
 1281 011c 1E00001A 		bne	.L132
 537:D:/Work/DeviceTester/amazon-freertos/lib/greengrass\aws_greengrass_discovery.c ****             }
 1282              		.loc 1 537 0
 1283 0120 98009FE5 		ldr	r0, .L152+20
 1284 0124 FEFFFFEB 		bl	vLoggingPrintf
 1285              	.LVL130:
 1286              	.L137:
 578:D:/Work/DeviceTester/amazon-freertos/lib/greengrass\aws_greengrass_discovery.c **** 
 1287              		.loc 1 578 0
 1288 0128 94009FE5 		ldr	r0, .L152+24
 1289 012c EDFFFFEA 		b	.L151
 1290              	.LVL131:
 1291              	.L139:
 572:D:/Work/DeviceTester/amazon-freertos/lib/greengrass\aws_greengrass_discovery.c ****             }
 1292              		.loc 1 572 0
 1293 0130 015085E2 		add	r5, r5, #1
 1294              	.LVL132:
 1295 0134 7550EFE6 		uxtb	r5, r5
 1296              	.LVL133:
 1297              	.L144:
 546:D:/Work/DeviceTester/amazon-freertos/lib/greengrass\aws_greengrass_discovery.c ****                                            ucTargetInterface,
 1298              		.loc 1 546 0
 1299 0138 10058DE8 		stm	sp, {r4, r8, r10}
 1300 013c 0730A0E1 		mov	r3, r7
 1301 0140 30208DE2 		add	r2, sp, #48
 1302 0144 0510A0E1 		mov	r1, r5
 1303 0148 0600A0E1 		mov	r0, r6
 1304 014c FEFFFFEB 		bl	prvGGDGetIPOnInterface
 1305              	.LVL134:
 1306 0150 010050E3 		cmp	r0, #1
 1307 0154 F3FFFF1A 		bne	.L137
 1308              	.LVL135:
 1309              	.LBB25:
 1310              	.LBB24:
 798:D:/Work/DeviceTester/amazon-freertos/lib/greengrass\aws_greengrass_discovery.c ****     {
 1311              		.loc 1 798 0
 1312 0158 001094E5 		ldr	r1, [r4]
 1313 015c 0B00A0E1 		mov	r0, fp
 1314 0160 FEFFFFEB 		bl	strcmp
 1315              	.LVL136:
 1316 0164 000050E3 		cmp	r0, #0
 1317 0168 F0FFFF0A 		beq	.L139
 1318              	.LBE24:
 1319              	.LBE25:
 559:D:/Work/DeviceTester/amazon-freertos/lib/greengrass\aws_greengrass_discovery.c ****                                                    &xSocket,
 1320              		.loc 1 559 0
 1321 016c 883301E3 		movw	r3, #5000
 1322 0170 0910A0E1 		mov	r1, r9
 1323 0174 0320A0E1 		mov	r2, r3
 1324 0178 0400A0E1 		mov	r0, r4
 1325 017c FEFFFFEB 		bl	GGD_SecureConnect_Connect
 1326              	.LVL137:
 1327 0180 010050E3 		cmp	r0, #1
 1328 0184 0030A0E1 		mov	r3, r0
 1329 0188 E8FFFF1A 		bne	.L139
 567:D:/Work/DeviceTester/amazon-freertos/lib/greengrass\aws_greengrass_discovery.c ****                         break;
 1330              		.loc 1 567 0
 1331 018c 0900A0E1 		mov	r0, r9
 1332 0190 14308DE5 		str	r3, [sp, #20]
 1333              	.LVL138:
 1334 0194 FEFFFFEB 		bl	GGD_SecureConnect_Disconnect
 1335              	.LVL139:
 568:D:/Work/DeviceTester/amazon-freertos/lib/greengrass\aws_greengrass_discovery.c ****                     }
 1336              		.loc 1 568 0
 1337 0198 14309DE5 		ldr	r3, [sp, #20]
 1338              	.LVL140:
 1339              	.L132:
 585:D:/Work/DeviceTester/amazon-freertos/lib/greengrass\aws_greengrass_discovery.c **** /*-----------------------------------------------------------*/
 1340              		.loc 1 585 0
 1341 019c 0300A0E1 		mov	r0, r3
 1342 01a0 A3DE8DE2 		add	sp, sp, #2608
 1343 01a4 04D08DE2 		add	sp, sp, #4
 1344              		.cfi_def_cfa_offset 36
 1345              		@ sp needed
 1346 01a8 F08FBDE8 		pop	{r4, r5, r6, r7, r8, r9, r10, fp, pc}
 1347              	.LVL141:
 1348              	.L153:
 1349              		.align	2
 1350              	.L152:
 1351 01ac 28000000 		.word	Unity+40
 1352 01b0 00000000 		.word	.LC13
 1353 01b4 9B000000 		.word	.LC17
 1354 01b8 25000000 		.word	.LC14
 1355 01bc 4F000000 		.word	.LC15
 1356 01c0 7E000000 		.word	.LC16
 1357 01c4 A5000000 		.word	.LC18
 1358              		.cfi_endproc
 1359              	.LFE5:
 1361              		.section	.text.GGD_GetGGCIPandCertificate,"ax",%progbits
 1362              		.align	2
 1363              		.global	GGD_GetGGCIPandCertificate
 1364              		.syntax unified
 1365              		.arm
 1366              		.fpu neon
 1368              	GGD_GetGGCIPandCertificate:
 1369              	.LFB0:
 162:D:/Work/DeviceTester/amazon-freertos/lib/greengrass\aws_greengrass_discovery.c ****     Socket_t xSocket;
 1370              		.loc 1 162 0
 1371              		.cfi_startproc
 1372              		@ args = 0, pretend = 0, frame = 16
 1373              		@ frame_needed = 0, uses_anonymous_args = 0
 1374              	.LVL142:
 1375 0000 F0412DE9 		push	{r4, r5, r6, r7, r8, lr}
 1376              		.cfi_def_cfa_offset 24
 1377              		.cfi_offset 4, -24
 1378              		.cfi_offset 5, -20
 1379              		.cfi_offset 6, -16
 1380              		.cfi_offset 7, -12
 1381              		.cfi_offset 8, -8
 1382              		.cfi_offset 14, -4
 169:D:/Work/DeviceTester/amazon-freertos/lib/greengrass\aws_greengrass_discovery.c ****     configASSERT( pcBuffer != NULL );
 1383              		.loc 1 169 0
 1384 0004 007052E2 		subs	r7, r2, #0
 162:D:/Work/DeviceTester/amazon-freertos/lib/greengrass\aws_greengrass_discovery.c ****     Socket_t xSocket;
 1385              		.loc 1 162 0
 1386 0008 18D04DE2 		sub	sp, sp, #24
 1387              		.cfi_def_cfa_offset 48
 164:D:/Work/DeviceTester/amazon-freertos/lib/greengrass\aws_greengrass_discovery.c ****     BaseType_t xJSONFileRetrieveCompleted = pdFALSE;
 1388              		.loc 1 164 0
 1389 000c 0030A0E3 		mov	r3, #0
 1390 0010 0C308DE5 		str	r3, [sp, #12]
 165:D:/Work/DeviceTester/amazon-freertos/lib/greengrass\aws_greengrass_discovery.c ****     uint32_t ulByteRead = 0;
 1391              		.loc 1 165 0
 1392 0014 10308DE5 		str	r3, [sp, #16]
 166:D:/Work/DeviceTester/amazon-freertos/lib/greengrass\aws_greengrass_discovery.c ****     BaseType_t xStatus;
 1393              		.loc 1 166 0
 1394 0018 14308DE5 		str	r3, [sp, #20]
 169:D:/Work/DeviceTester/amazon-freertos/lib/greengrass\aws_greengrass_discovery.c ****     configASSERT( pcBuffer != NULL );
 1395              		.loc 1 169 0
 1396 001c 0200001A 		bne	.L155
 1397              	.L156:
 169:D:/Work/DeviceTester/amazon-freertos/lib/greengrass\aws_greengrass_discovery.c ****     configASSERT( pcBuffer != NULL );
 1398              		.loc 1 169 0 is_stmt 0 discriminator 1
 1399 0020 0110A0E3 		mov	r1, #1
 1400              	.LVL143:
 1401 0024 04019FE5 		ldr	r0, .L174
 1402              	.LVL144:
 1403 0028 FEFFFFEB 		bl	longjmp
 1404              	.LVL145:
 1405              	.L155:
 170:D:/Work/DeviceTester/amazon-freertos/lib/greengrass\aws_greengrass_discovery.c **** 
 1406              		.loc 1 170 0 is_stmt 1
 1407 002c 000050E3 		cmp	r0, #0
 1408 0030 0050A0E1 		mov	r5, r0
 1409 0034 F9FFFF0A 		beq	.L156
 172:D:/Work/DeviceTester/amazon-freertos/lib/greengrass\aws_greengrass_discovery.c **** 
 1410              		.loc 1 172 0
 1411 0038 08008DE2 		add	r0, sp, #8
 1412              	.LVL146:
 1413 003c 0160A0E1 		mov	r6, r1
 1414 0040 FEFFFFEB 		bl	GGD_JSONRequestStart
 1415              	.LVL147:
 174:D:/Work/DeviceTester/amazon-freertos/lib/greengrass\aws_greengrass_discovery.c ****     {
 1416              		.loc 1 174 0
 1417 0044 010050E3 		cmp	r0, #1
 172:D:/Work/DeviceTester/amazon-freertos/lib/greengrass\aws_greengrass_discovery.c **** 
 1418              		.loc 1 172 0
 1419 0048 0040A0E1 		mov	r4, r0
 1420              	.LVL148:
 174:D:/Work/DeviceTester/amazon-freertos/lib/greengrass\aws_greengrass_discovery.c ****     {
 1421              		.loc 1 174 0
 1422 004c 3400001A 		bne	.L154
 176:D:/Work/DeviceTester/amazon-freertos/lib/greengrass\aws_greengrass_discovery.c ****     }
 1423              		.loc 1 176 0
 1424 0050 0C108DE2 		add	r1, sp, #12
 1425 0054 08008DE2 		add	r0, sp, #8
 1426              	.LVL149:
 1427 0058 FEFFFFEB 		bl	GGD_JSONRequestGetSize
 1428              	.LVL150:
 179:D:/Work/DeviceTester/amazon-freertos/lib/greengrass\aws_greengrass_discovery.c ****     {
 1429              		.loc 1 179 0
 1430 005c 010050E3 		cmp	r0, #1
 176:D:/Work/DeviceTester/amazon-freertos/lib/greengrass\aws_greengrass_discovery.c ****     }
 1431              		.loc 1 176 0
 1432 0060 0040A0E1 		mov	r4, r0
 1433              	.LVL151:
 179:D:/Work/DeviceTester/amazon-freertos/lib/greengrass\aws_greengrass_discovery.c ****     {
 1434              		.loc 1 179 0
 1435 0064 2E00001A 		bne	.L154
 183:D:/Work/DeviceTester/amazon-freertos/lib/greengrass\aws_greengrass_discovery.c ****                                               &pcBuffer[ulByteRead],
 1436              		.loc 1 183 0
 1437 0068 10808DE2 		add	r8, sp, #16
 1438              	.L159:
 183:D:/Work/DeviceTester/amazon-freertos/lib/greengrass\aws_greengrass_discovery.c ****                                               &pcBuffer[ulByteRead],
 1439              		.loc 1 183 0 is_stmt 0 discriminator 3
 1440 006c 14109DE5 		ldr	r1, [sp, #20]
 1441 0070 08008DE2 		add	r0, sp, #8
 1442              	.LVL152:
 1443 0074 0C309DE5 		ldr	r3, [sp, #12]
 1444 0078 00808DE5 		str	r8, [sp]
 1445 007c 012046E0 		sub	r2, r6, r1
 1446 0080 011085E0 		add	r1, r5, r1
 1447 0084 04308DE5 		str	r3, [sp, #4]
 1448 0088 14308DE2 		add	r3, sp, #20
 1449 008c FEFFFFEB 		bl	GGD_JSONRequestGetFile
 1450              	.LVL153:
 189:D:/Work/DeviceTester/amazon-freertos/lib/greengrass\aws_greengrass_discovery.c **** 
 1451              		.loc 1 189 0 is_stmt 1 discriminator 3
 1452 0090 010050E3 		cmp	r0, #1
 183:D:/Work/DeviceTester/amazon-freertos/lib/greengrass\aws_greengrass_discovery.c ****                                               &pcBuffer[ulByteRead],
 1453              		.loc 1 183 0 discriminator 3
 1454 0094 0040A0E1 		mov	r4, r0
 1455              	.LVL154:
 1456 0098 10309DE5 		ldr	r3, [sp, #16]
 189:D:/Work/DeviceTester/amazon-freertos/lib/greengrass\aws_greengrass_discovery.c **** 
 1457              		.loc 1 189 0 discriminator 3
 1458 009c 0400001A 		bne	.L158
 189:D:/Work/DeviceTester/amazon-freertos/lib/greengrass\aws_greengrass_discovery.c **** 
 1459              		.loc 1 189 0 is_stmt 0 discriminator 1
 1460 00a0 010053E3 		cmp	r3, #1
 1461 00a4 0B00000A 		beq	.L160
 189:D:/Work/DeviceTester/amazon-freertos/lib/greengrass\aws_greengrass_discovery.c **** 
 1462              		.loc 1 189 0 discriminator 2
 1463 00a8 14209DE5 		ldr	r2, [sp, #20]
 1464 00ac 020056E1 		cmp	r6, r2
 1465 00b0 EDFFFF1A 		bne	.L159
 1466              	.L158:
 196:D:/Work/DeviceTester/amazon-freertos/lib/greengrass\aws_greengrass_discovery.c ****         {
 1467              		.loc 1 196 0 is_stmt 1
 1468 00b4 000053E3 		cmp	r3, #0
 1469 00b8 0600001A 		bne	.L160
 196:D:/Work/DeviceTester/amazon-freertos/lib/greengrass\aws_greengrass_discovery.c ****         {
 1470              		.loc 1 196 0 is_stmt 0 discriminator 1
 1471 00bc 14309DE5 		ldr	r3, [sp, #20]
 1472 00c0 030056E1 		cmp	r6, r3
 1473 00c4 0300001A 		bne	.L160
 198:D:/Work/DeviceTester/amazon-freertos/lib/greengrass\aws_greengrass_discovery.c ****             ggdconfigPRINT( "[ERROR] Consider increasing the size of the supplied buffer. \r\n" );
 1474              		.loc 1 198 0 is_stmt 1
 1475 00c8 64009FE5 		ldr	r0, .L174+4
 1476              	.LVL155:
 1477 00cc FEFFFFEB 		bl	vLoggingPrintf
 1478              	.LVL156:
 199:D:/Work/DeviceTester/amazon-freertos/lib/greengrass\aws_greengrass_discovery.c ****         }
 1479              		.loc 1 199 0
 1480 00d0 60009FE5 		ldr	r0, .L174+8
 1481 00d4 FEFFFFEB 		bl	vLoggingPrintf
 1482              	.LVL157:
 1483              	.L160:
 202:D:/Work/DeviceTester/amazon-freertos/lib/greengrass\aws_greengrass_discovery.c ****         {
 1484              		.loc 1 202 0
 1485 00d8 08309DE5 		ldr	r3, [sp, #8]
 1486 00dc 010073E3 		cmn	r3, #1
 1487 00e0 0200000A 		beq	.L161
 205:D:/Work/DeviceTester/amazon-freertos/lib/greengrass\aws_greengrass_discovery.c ****         }
 1488              		.loc 1 205 0
 1489 00e4 0040A0E3 		mov	r4, #0
 1490              	.LVL158:
 204:D:/Work/DeviceTester/amazon-freertos/lib/greengrass\aws_greengrass_discovery.c ****             xStatus = pdFAIL;
 1491              		.loc 1 204 0
 1492 00e8 08008DE2 		add	r0, sp, #8
 1493 00ec FEFFFFEB 		bl	GGD_JSONRequestAbort
 1494              	.LVL159:
 1495              	.L161:
 208:D:/Work/DeviceTester/amazon-freertos/lib/greengrass\aws_greengrass_discovery.c ****         {
 1496              		.loc 1 208 0
 1497 00f0 10309DE5 		ldr	r3, [sp, #16]
 1498 00f4 010053E3 		cmp	r3, #1
 210:D:/Work/DeviceTester/amazon-freertos/lib/greengrass\aws_greengrass_discovery.c ****         }
 1499              		.loc 1 210 0
 1500 00f8 0040A013 		movne	r4, #0
 1501              	.LVL160:
 208:D:/Work/DeviceTester/amazon-freertos/lib/greengrass\aws_greengrass_discovery.c ****         {
 1502              		.loc 1 208 0
 1503 00fc 0800001A 		bne	.L154
 1504              	.LVL161:
 214:D:/Work/DeviceTester/amazon-freertos/lib/greengrass\aws_greengrass_discovery.c ****     {
 1505              		.loc 1 214 0
 1506 0100 010054E3 		cmp	r4, #1
 1507 0104 0600001A 		bne	.L154
 216:D:/Work/DeviceTester/amazon-freertos/lib/greengrass\aws_greengrass_discovery.c ****                                                    ulJSONFileSize,
 1508              		.loc 1 216 0
 1509 0108 00408DE5 		str	r4, [sp]
 1510 010c 0730A0E1 		mov	r3, r7
 1511 0110 0020A0E3 		mov	r2, #0
 1512 0114 0C109DE5 		ldr	r1, [sp, #12]
 1513 0118 0500A0E1 		mov	r0, r5
 1514 011c FEFFFFEB 		bl	GGD_GetIPandCertificateFromJSON
 1515              	.LVL162:
 1516 0120 0040A0E1 		mov	r4, r0
 1517              	.LVL163:
 1518              	.L154:
 224:D:/Work/DeviceTester/amazon-freertos/lib/greengrass\aws_greengrass_discovery.c **** /*-----------------------------------------------------------*/
 1519              		.loc 1 224 0
 1520 0124 0400A0E1 		mov	r0, r4
 1521 0128 18D08DE2 		add	sp, sp, #24
 1522              		.cfi_def_cfa_offset 24
 1523              		@ sp needed
 1524 012c F081BDE8 		pop	{r4, r5, r6, r7, r8, pc}
 1525              	.LVL164:
 1526              	.L175:
 1527              		.align	2
 1528              	.L174:
 1529 0130 28000000 		.word	Unity+40
 1530 0134 00000000 		.word	.LC19
 1531 0138 5E000000 		.word	.LC20
 1532              		.cfi_endproc
 1533              	.LFE0:
 1535              		.section	.text.test_prvCheckForContentLengthString,"ax",%progbits
 1536              		.align	2
 1537              		.global	test_prvCheckForContentLengthString
 1538              		.syntax unified
 1539              		.arm
 1540              		.fpu neon
 1542              	test_prvCheckForContentLengthString:
 1543              	.LFB13:
 1544              		.file 2 "D:\\Work\\DeviceTester\\amazon-freertos\\tests\\common\\include/aws_greengrass_discovery_
   1:D:\Work\DeviceTester\amazon-freertos\tests\common\include\aws_greengrass_discovery_test_access_define.h **** /*
   2:D:\Work\DeviceTester\amazon-freertos\tests\common\include\aws_greengrass_discovery_test_access_define.h ****  * Amazon FreeRTOS
   3:D:\Work\DeviceTester\amazon-freertos\tests\common\include\aws_greengrass_discovery_test_access_define.h ****  * Copyright (C) 2017 Amazon.com, Inc. or its affiliates.  All Rights Reserved.
   4:D:\Work\DeviceTester\amazon-freertos\tests\common\include\aws_greengrass_discovery_test_access_define.h ****  *
   5:D:\Work\DeviceTester\amazon-freertos\tests\common\include\aws_greengrass_discovery_test_access_define.h ****  * Permission is hereby granted, free of charge, to any person obtaining a copy of
   6:D:\Work\DeviceTester\amazon-freertos\tests\common\include\aws_greengrass_discovery_test_access_define.h ****  * this software and associated documentation files (the "Software"), to deal in
   7:D:\Work\DeviceTester\amazon-freertos\tests\common\include\aws_greengrass_discovery_test_access_define.h ****  * the Software without restriction, including without limitation the rights to
   8:D:\Work\DeviceTester\amazon-freertos\tests\common\include\aws_greengrass_discovery_test_access_define.h ****  * use, copy, modify, merge, publish, distribute, sublicense, and/or sell copies of
   9:D:\Work\DeviceTester\amazon-freertos\tests\common\include\aws_greengrass_discovery_test_access_define.h ****  * the Software, and to permit persons to whom the Software is furnished to do so,
  10:D:\Work\DeviceTester\amazon-freertos\tests\common\include\aws_greengrass_discovery_test_access_define.h ****  * subject to the following conditions:
  11:D:\Work\DeviceTester\amazon-freertos\tests\common\include\aws_greengrass_discovery_test_access_define.h ****  *
  12:D:\Work\DeviceTester\amazon-freertos\tests\common\include\aws_greengrass_discovery_test_access_define.h ****  * The above copyright notice and this permission notice shall be included in all
  13:D:\Work\DeviceTester\amazon-freertos\tests\common\include\aws_greengrass_discovery_test_access_define.h ****  * copies or substantial portions of the Software.
  14:D:\Work\DeviceTester\amazon-freertos\tests\common\include\aws_greengrass_discovery_test_access_define.h ****  *
  15:D:\Work\DeviceTester\amazon-freertos\tests\common\include\aws_greengrass_discovery_test_access_define.h ****  * THE SOFTWARE IS PROVIDED "AS IS", WITHOUT WARRANTY OF ANY KIND, EXPRESS OR
  16:D:\Work\DeviceTester\amazon-freertos\tests\common\include\aws_greengrass_discovery_test_access_define.h ****  * IMPLIED, INCLUDING BUT NOT LIMITED TO THE WARRANTIES OF MERCHANTABILITY, FITNESS
  17:D:\Work\DeviceTester\amazon-freertos\tests\common\include\aws_greengrass_discovery_test_access_define.h ****  * FOR A PARTICULAR PURPOSE AND NONINFRINGEMENT. IN NO EVENT SHALL THE AUTHORS OR
  18:D:\Work\DeviceTester\amazon-freertos\tests\common\include\aws_greengrass_discovery_test_access_define.h ****  * COPYRIGHT HOLDERS BE LIABLE FOR ANY CLAIM, DAMAGES OR OTHER LIABILITY, WHETHER
  19:D:\Work\DeviceTester\amazon-freertos\tests\common\include\aws_greengrass_discovery_test_access_define.h ****  * IN AN ACTION OF CONTRACT, TORT OR OTHERWISE, ARISING FROM, OUT OF OR IN
  20:D:\Work\DeviceTester\amazon-freertos\tests\common\include\aws_greengrass_discovery_test_access_define.h ****  * CONNECTION WITH THE SOFTWARE OR THE USE OR OTHER DEALINGS IN THE SOFTWARE.
  21:D:\Work\DeviceTester\amazon-freertos\tests\common\include\aws_greengrass_discovery_test_access_define.h ****  *
  22:D:\Work\DeviceTester\amazon-freertos\tests\common\include\aws_greengrass_discovery_test_access_define.h ****  * http://aws.amazon.com/freertos
  23:D:\Work\DeviceTester\amazon-freertos\tests\common\include\aws_greengrass_discovery_test_access_define.h ****  * http://www.FreeRTOS.org
  24:D:\Work\DeviceTester\amazon-freertos\tests\common\include\aws_greengrass_discovery_test_access_define.h ****  */
  25:D:\Work\DeviceTester\amazon-freertos\tests\common\include\aws_greengrass_discovery_test_access_define.h **** 
  26:D:\Work\DeviceTester\amazon-freertos\tests\common\include\aws_greengrass_discovery_test_access_define.h **** /**
  27:D:\Work\DeviceTester\amazon-freertos\tests\common\include\aws_greengrass_discovery_test_access_define.h ****  * @file aws_greengrass_test_access_define.h
  28:D:\Work\DeviceTester\amazon-freertos\tests\common\include\aws_greengrass_discovery_test_access_define.h ****  * @brief Functions warppers to access private methods in aws_greengrass_discovery.c.
  29:D:\Work\DeviceTester\amazon-freertos\tests\common\include\aws_greengrass_discovery_test_access_define.h ****  *
  30:D:\Work\DeviceTester\amazon-freertos\tests\common\include\aws_greengrass_discovery_test_access_define.h ****  * Needed for testing private functions.
  31:D:\Work\DeviceTester\amazon-freertos\tests\common\include\aws_greengrass_discovery_test_access_define.h ****  */
  32:D:\Work\DeviceTester\amazon-freertos\tests\common\include\aws_greengrass_discovery_test_access_define.h **** 
  33:D:\Work\DeviceTester\amazon-freertos\tests\common\include\aws_greengrass_discovery_test_access_define.h **** #ifndef _AWS_GREENGRASS_DISCOVERY_TEST_ACCESS_DEFINE_H_
  34:D:\Work\DeviceTester\amazon-freertos\tests\common\include\aws_greengrass_discovery_test_access_define.h **** #define _AWS_GREENGRASS_DISCOVERY_TEST_ACCESS_DEFINE_H_
  35:D:\Work\DeviceTester\amazon-freertos\tests\common\include\aws_greengrass_discovery_test_access_define.h **** 
  36:D:\Work\DeviceTester\amazon-freertos\tests\common\include\aws_greengrass_discovery_test_access_define.h **** /*-----------------------------------------------------------*/
  37:D:\Work\DeviceTester\amazon-freertos\tests\common\include\aws_greengrass_discovery_test_access_define.h **** 
  38:D:\Work\DeviceTester\amazon-freertos\tests\common\include\aws_greengrass_discovery_test_access_define.h **** BaseType_t test_prvCheckForContentLengthString( uint8_t * pucIndex,
  39:D:\Work\DeviceTester\amazon-freertos\tests\common\include\aws_greengrass_discovery_test_access_define.h ****                                                 const char cNewChar ) /*lint !e971 can use char wit
  40:D:\Work\DeviceTester\amazon-freertos\tests\common\include\aws_greengrass_discovery_test_access_define.h **** {
 1545              		.loc 2 40 0
 1546              		.cfi_startproc
 1547              		@ args = 0, pretend = 0, frame = 0
 1548              		@ frame_needed = 0, uses_anonymous_args = 0
 1549              		@ link register save eliminated.
 1550              	.LVL165:
 1551              	.LBB28:
 1552              	.LBB29:
 868:D:/Work/DeviceTester/amazon-freertos/lib/greengrass\aws_greengrass_discovery.c ****     {
 1553              		.loc 1 868 0
 1554 0000 0030D0E5 		ldrb	r3, [r0]	@ zero_extendqisi2
 1555 0004 2C209FE5 		ldr	r2, .L179
 1556 0008 0320D2E7 		ldrb	r2, [r2, r3]	@ zero_extendqisi2
 1557 000c 010052E1 		cmp	r2, r1
 870:D:/Work/DeviceTester/amazon-freertos/lib/greengrass\aws_greengrass_discovery.c **** 
 1558              		.loc 1 870 0
 1559 0010 01308302 		addeq	r3, r3, #1
 1560              		.loc 1 879 0
 1561 0014 0030A013 		movne	r3, #0
 870:D:/Work/DeviceTester/amazon-freertos/lib/greengrass\aws_greengrass_discovery.c **** 
 1562              		.loc 1 870 0
 1563 0018 7330EF06 		uxtbeq	r3, r3
 1564              		.loc 1 879 0
 1565 001c 0030C015 		strbne	r3, [r0]
 870:D:/Work/DeviceTester/amazon-freertos/lib/greengrass\aws_greengrass_discovery.c **** 
 1566              		.loc 1 870 0
 1567 0020 0030C005 		strbeq	r3, [r0]
 872:D:/Work/DeviceTester/amazon-freertos/lib/greengrass\aws_greengrass_discovery.c ****         {
 1568              		.loc 1 872 0
 1569 0024 0F004302 		subeq	r0, r3, #15
 1570              	.LVL166:
 1571 0028 100F6F01 		clzeq	r0, r0
 1572 002c A002A001 		lsreq	r0, r0, #5
 866:D:/Work/DeviceTester/amazon-freertos/lib/greengrass\aws_greengrass_discovery.c **** 
 1573              		.loc 1 866 0
 1574 0030 0300A011 		movne	r0, r3
 1575              	.LVL167:
 1576              	.LBE29:
 1577              	.LBE28:
  41:D:\Work\DeviceTester\amazon-freertos\tests\common\include\aws_greengrass_discovery_test_access_define.h ****     return prvCheckForContentLengthString( pucIndex,
  42:D:\Work\DeviceTester\amazon-freertos\tests\common\include\aws_greengrass_discovery_test_access_define.h ****                                            cNewChar );
  43:D:\Work\DeviceTester\amazon-freertos\tests\common\include\aws_greengrass_discovery_test_access_define.h **** }
 1578              		.loc 2 43 0
 1579 0034 1EFF2FE1 		bx	lr
 1580              	.L180:
 1581              		.align	2
 1582              	.L179:
 1583 0038 43000000 		.word	.LC8
 1584              		.cfi_endproc
 1585              	.LFE13:
 1587              		.section	.text.test_prvGGDJsoneq,"ax",%progbits
 1588              		.align	2
 1589              		.global	test_prvGGDJsoneq
 1590              		.syntax unified
 1591              		.arm
 1592              		.fpu neon
 1594              	test_prvGGDJsoneq:
 1595              	.LFB14:
  44:D:\Work\DeviceTester\amazon-freertos\tests\common\include\aws_greengrass_discovery_test_access_define.h **** 
  45:D:\Work\DeviceTester\amazon-freertos\tests\common\include\aws_greengrass_discovery_test_access_define.h **** /*-----------------------------------------------------------*/
  46:D:\Work\DeviceTester\amazon-freertos\tests\common\include\aws_greengrass_discovery_test_access_define.h **** 
  47:D:\Work\DeviceTester\amazon-freertos\tests\common\include\aws_greengrass_discovery_test_access_define.h **** BaseType_t test_prvGGDJsoneq( const char * pcJson, /*lint !e971 can use char without signed/unsigne
  48:D:\Work\DeviceTester\amazon-freertos\tests\common\include\aws_greengrass_discovery_test_access_define.h ****                               const jsmntok_t * const pxTok,
  49:D:\Work\DeviceTester\amazon-freertos\tests\common\include\aws_greengrass_discovery_test_access_define.h ****                               const char * pcString )
  50:D:\Work\DeviceTester\amazon-freertos\tests\common\include\aws_greengrass_discovery_test_access_define.h **** {
 1596              		.loc 2 50 0
 1597              		.cfi_startproc
 1598              		@ args = 0, pretend = 0, frame = 0
 1599              		@ frame_needed = 0, uses_anonymous_args = 0
 1600              		@ link register save eliminated.
 1601              	.LVL168:
  51:D:\Work\DeviceTester\amazon-freertos\tests\common\include\aws_greengrass_discovery_test_access_define.h ****     return prvGGDJsoneq( pcJson,
 1602              		.loc 2 51 0
 1603 0000 FEFFFFEA 		b	prvGGDJsoneq
 1604              	.LVL169:
 1605              		.cfi_endproc
 1606              	.LFE14:
 1608              		.section	.text.test_prvCheckMatch,"ax",%progbits
 1609              		.align	2
 1610              		.global	test_prvCheckMatch
 1611              		.syntax unified
 1612              		.arm
 1613              		.fpu neon
 1615              	test_prvCheckMatch:
 1616              	.LFB15:
  52:D:\Work\DeviceTester\amazon-freertos\tests\common\include\aws_greengrass_discovery_test_access_define.h ****                          pxTok,
  53:D:\Work\DeviceTester\amazon-freertos\tests\common\include\aws_greengrass_discovery_test_access_define.h ****                          pcString );
  54:D:\Work\DeviceTester\amazon-freertos\tests\common\include\aws_greengrass_discovery_test_access_define.h **** }
  55:D:\Work\DeviceTester\amazon-freertos\tests\common\include\aws_greengrass_discovery_test_access_define.h **** 
  56:D:\Work\DeviceTester\amazon-freertos\tests\common\include\aws_greengrass_discovery_test_access_define.h **** /*-----------------------------------------------------------*/
  57:D:\Work\DeviceTester\amazon-freertos\tests\common\include\aws_greengrass_discovery_test_access_define.h **** 
  58:D:\Work\DeviceTester\amazon-freertos\tests\common\include\aws_greengrass_discovery_test_access_define.h **** void test_prvCheckMatch( const char * pcJSONFile, /*lint !e971 can use char without signed/unsigned
  59:D:\Work\DeviceTester\amazon-freertos\tests\common\include\aws_greengrass_discovery_test_access_define.h ****                          const jsmntok_t * pxTok,
  60:D:\Work\DeviceTester\amazon-freertos\tests\common\include\aws_greengrass_discovery_test_access_define.h ****                          const uint32_t ulTokenIndex,
  61:D:\Work\DeviceTester\amazon-freertos\tests\common\include\aws_greengrass_discovery_test_access_define.h ****                          BaseType_t * pxMatch,
  62:D:\Work\DeviceTester\amazon-freertos\tests\common\include\aws_greengrass_discovery_test_access_define.h ****                          const char * pcMatchCategory, /*lint !e971 can use char without signuint32
  63:D:\Work\DeviceTester\amazon-freertos\tests\common\include\aws_greengrass_discovery_test_access_define.h ****                          const char * pcMatchString,   /*lint !e971 can use char without signed/uns
  64:D:\Work\DeviceTester\amazon-freertos\tests\common\include\aws_greengrass_discovery_test_access_define.h ****                          const BaseType_t xAutoConnectFlag )
  65:D:\Work\DeviceTester\amazon-freertos\tests\common\include\aws_greengrass_discovery_test_access_define.h **** {
 1617              		.loc 2 65 0
 1618              		.cfi_startproc
 1619              		@ args = 12, pretend = 0, frame = 0
 1620              		@ frame_needed = 0, uses_anonymous_args = 0
 1621              		@ link register save eliminated.
 1622              	.LVL170:
  66:D:\Work\DeviceTester\amazon-freertos\tests\common\include\aws_greengrass_discovery_test_access_define.h ****     prvCheckMatch( pcJSONFile,
 1623              		.loc 2 66 0
 1624 0000 FEFFFFEA 		b	prvCheckMatch
 1625              	.LVL171:
 1626              		.cfi_endproc
 1627              	.LFE15:
 1629              		.section	.text.test_prvGGDGetCertificate,"ax",%progbits
 1630              		.align	2
 1631              		.global	test_prvGGDGetCertificate
 1632              		.syntax unified
 1633              		.arm
 1634              		.fpu neon
 1636              	test_prvGGDGetCertificate:
 1637              	.LFB16:
  67:D:\Work\DeviceTester\amazon-freertos\tests\common\include\aws_greengrass_discovery_test_access_define.h ****                    pxTok,
  68:D:\Work\DeviceTester\amazon-freertos\tests\common\include\aws_greengrass_discovery_test_access_define.h ****                    ulTokenIndex,
  69:D:\Work\DeviceTester\amazon-freertos\tests\common\include\aws_greengrass_discovery_test_access_define.h ****                    pxMatch,
  70:D:\Work\DeviceTester\amazon-freertos\tests\common\include\aws_greengrass_discovery_test_access_define.h ****                    pcMatchCategory,
  71:D:\Work\DeviceTester\amazon-freertos\tests\common\include\aws_greengrass_discovery_test_access_define.h ****                    pcMatchString,
  72:D:\Work\DeviceTester\amazon-freertos\tests\common\include\aws_greengrass_discovery_test_access_define.h ****                    xAutoConnectFlag );
  73:D:\Work\DeviceTester\amazon-freertos\tests\common\include\aws_greengrass_discovery_test_access_define.h **** }
  74:D:\Work\DeviceTester\amazon-freertos\tests\common\include\aws_greengrass_discovery_test_access_define.h **** 
  75:D:\Work\DeviceTester\amazon-freertos\tests\common\include\aws_greengrass_discovery_test_access_define.h **** /*-----------------------------------------------------------*/
  76:D:\Work\DeviceTester\amazon-freertos\tests\common\include\aws_greengrass_discovery_test_access_define.h **** 
  77:D:\Work\DeviceTester\amazon-freertos\tests\common\include\aws_greengrass_discovery_test_access_define.h **** BaseType_t test_prvGGDGetCertificate( char * pcJSONFile, /*lint !e971 can use char without signed/u
  78:D:\Work\DeviceTester\amazon-freertos\tests\common\include\aws_greengrass_discovery_test_access_define.h ****                                       const HostParameters_t * pxHostParameters,
  79:D:\Work\DeviceTester\amazon-freertos\tests\common\include\aws_greengrass_discovery_test_access_define.h ****                                       const BaseType_t xAutoConnectFlag,
  80:D:\Work\DeviceTester\amazon-freertos\tests\common\include\aws_greengrass_discovery_test_access_define.h ****                                       const jsmntok_t * pxTok,
  81:D:\Work\DeviceTester\amazon-freertos\tests\common\include\aws_greengrass_discovery_test_access_define.h ****                                       const uint32_t ulNbTokens,
  82:D:\Work\DeviceTester\amazon-freertos\tests\common\include\aws_greengrass_discovery_test_access_define.h ****                                       GGD_HostAddressData_t * pxHostAddressData )
  83:D:\Work\DeviceTester\amazon-freertos\tests\common\include\aws_greengrass_discovery_test_access_define.h **** {
 1638              		.loc 2 83 0
 1639              		.cfi_startproc
 1640              		@ args = 8, pretend = 0, frame = 0
 1641              		@ frame_needed = 0, uses_anonymous_args = 0
 1642              		@ link register save eliminated.
 1643              	.LVL172:
  84:D:\Work\DeviceTester\amazon-freertos\tests\common\include\aws_greengrass_discovery_test_access_define.h ****     return prvGGDGetCertificate( pcJSONFile,
 1644              		.loc 2 84 0
 1645 0000 FEFFFFEA 		b	prvGGDGetCertificate.isra.1
 1646              	.LVL173:
 1647              		.cfi_endproc
 1648              	.LFE16:
 1650              		.section	.text.test_prvGGDGetIPOnInterface,"ax",%progbits
 1651              		.align	2
 1652              		.global	test_prvGGDGetIPOnInterface
 1653              		.syntax unified
 1654              		.arm
 1655              		.fpu neon
 1657              	test_prvGGDGetIPOnInterface:
 1658              	.LFB17:
  85:D:\Work\DeviceTester\amazon-freertos\tests\common\include\aws_greengrass_discovery_test_access_define.h ****                                  pxHostParameters,
  86:D:\Work\DeviceTester\amazon-freertos\tests\common\include\aws_greengrass_discovery_test_access_define.h ****                                  xAutoConnectFlag,
  87:D:\Work\DeviceTester\amazon-freertos\tests\common\include\aws_greengrass_discovery_test_access_define.h ****                                  pxTok,
  88:D:\Work\DeviceTester\amazon-freertos\tests\common\include\aws_greengrass_discovery_test_access_define.h ****                                  ulNbTokens,
  89:D:\Work\DeviceTester\amazon-freertos\tests\common\include\aws_greengrass_discovery_test_access_define.h ****                                  pxHostAddressData );
  90:D:\Work\DeviceTester\amazon-freertos\tests\common\include\aws_greengrass_discovery_test_access_define.h **** }
  91:D:\Work\DeviceTester\amazon-freertos\tests\common\include\aws_greengrass_discovery_test_access_define.h **** 
  92:D:\Work\DeviceTester\amazon-freertos\tests\common\include\aws_greengrass_discovery_test_access_define.h **** /*-----------------------------------------------------------*/
  93:D:\Work\DeviceTester\amazon-freertos\tests\common\include\aws_greengrass_discovery_test_access_define.h **** 
  94:D:\Work\DeviceTester\amazon-freertos\tests\common\include\aws_greengrass_discovery_test_access_define.h **** BaseType_t test_prvGGDGetIPOnInterface( char * pcJSONFile, /*lint !e971 can use char without signed
  95:D:\Work\DeviceTester\amazon-freertos\tests\common\include\aws_greengrass_discovery_test_access_define.h ****                                         const uint8_t ucTargetInterface,
  96:D:\Work\DeviceTester\amazon-freertos\tests\common\include\aws_greengrass_discovery_test_access_define.h ****                                         const jsmntok_t * pxTok,
  97:D:\Work\DeviceTester\amazon-freertos\tests\common\include\aws_greengrass_discovery_test_access_define.h ****                                         const uint32_t ulNbTokens,
  98:D:\Work\DeviceTester\amazon-freertos\tests\common\include\aws_greengrass_discovery_test_access_define.h ****                                         GGD_HostAddressData_t * pxHostAddressData,
  99:D:\Work\DeviceTester\amazon-freertos\tests\common\include\aws_greengrass_discovery_test_access_define.h ****                                         uint32_t * pulTokenIndex,
 100:D:\Work\DeviceTester\amazon-freertos\tests\common\include\aws_greengrass_discovery_test_access_define.h ****                                         uint8_t * pusCurrentInterface )
 101:D:\Work\DeviceTester\amazon-freertos\tests\common\include\aws_greengrass_discovery_test_access_define.h **** {
 1659              		.loc 2 101 0
 1660              		.cfi_startproc
 1661              		@ args = 12, pretend = 0, frame = 0
 1662              		@ frame_needed = 0, uses_anonymous_args = 0
 1663              		@ link register save eliminated.
 1664              	.LVL174:
 102:D:\Work\DeviceTester\amazon-freertos\tests\common\include\aws_greengrass_discovery_test_access_define.h ****     return prvGGDGetIPOnInterface( pcJSONFile,
 1665              		.loc 2 102 0
 1666 0000 FEFFFFEA 		b	prvGGDGetIPOnInterface
 1667              	.LVL175:
 1668              		.cfi_endproc
 1669              	.LFE17:
 1671              		.section	.text.test_prvGGDGetCore,"ax",%progbits
 1672              		.align	2
 1673              		.global	test_prvGGDGetCore
 1674              		.syntax unified
 1675              		.arm
 1676              		.fpu neon
 1678              	test_prvGGDGetCore:
 1679              	.LFB18:
 103:D:\Work\DeviceTester\amazon-freertos\tests\common\include\aws_greengrass_discovery_test_access_define.h ****                                    ucTargetInterface,
 104:D:\Work\DeviceTester\amazon-freertos\tests\common\include\aws_greengrass_discovery_test_access_define.h ****                                    pxTok,
 105:D:\Work\DeviceTester\amazon-freertos\tests\common\include\aws_greengrass_discovery_test_access_define.h ****                                    ulNbTokens,
 106:D:\Work\DeviceTester\amazon-freertos\tests\common\include\aws_greengrass_discovery_test_access_define.h ****                                    pxHostAddressData,
 107:D:\Work\DeviceTester\amazon-freertos\tests\common\include\aws_greengrass_discovery_test_access_define.h ****                                    pulTokenIndex,
 108:D:\Work\DeviceTester\amazon-freertos\tests\common\include\aws_greengrass_discovery_test_access_define.h ****                                    pusCurrentInterface );
 109:D:\Work\DeviceTester\amazon-freertos\tests\common\include\aws_greengrass_discovery_test_access_define.h **** }
 110:D:\Work\DeviceTester\amazon-freertos\tests\common\include\aws_greengrass_discovery_test_access_define.h **** 
 111:D:\Work\DeviceTester\amazon-freertos\tests\common\include\aws_greengrass_discovery_test_access_define.h **** /*-----------------------------------------------------------*/
 112:D:\Work\DeviceTester\amazon-freertos\tests\common\include\aws_greengrass_discovery_test_access_define.h **** 
 113:D:\Work\DeviceTester\amazon-freertos\tests\common\include\aws_greengrass_discovery_test_access_define.h **** BaseType_t test_prvGGDGetCore( const char * pcJSONFile, /*lint !e971 can use char without signed/un
 114:D:\Work\DeviceTester\amazon-freertos\tests\common\include\aws_greengrass_discovery_test_access_define.h ****                                const HostParameters_t * const pxHostParameters,
 115:D:\Work\DeviceTester\amazon-freertos\tests\common\include\aws_greengrass_discovery_test_access_define.h ****                                const BaseType_t xAutoConnectFlag,
 116:D:\Work\DeviceTester\amazon-freertos\tests\common\include\aws_greengrass_discovery_test_access_define.h ****                                const jsmntok_t * pxTok,
 117:D:\Work\DeviceTester\amazon-freertos\tests\common\include\aws_greengrass_discovery_test_access_define.h ****                                const uint32_t ulNbTokens,
 118:D:\Work\DeviceTester\amazon-freertos\tests\common\include\aws_greengrass_discovery_test_access_define.h ****                                uint32_t * pulTokenIndex )
 119:D:\Work\DeviceTester\amazon-freertos\tests\common\include\aws_greengrass_discovery_test_access_define.h **** {
 1680              		.loc 2 119 0
 1681              		.cfi_startproc
 1682              		@ args = 8, pretend = 0, frame = 0
 1683              		@ frame_needed = 0, uses_anonymous_args = 0
 1684              		@ link register save eliminated.
 1685              	.LVL176:
 120:D:\Work\DeviceTester\amazon-freertos\tests\common\include\aws_greengrass_discovery_test_access_define.h ****     return prvGGDGetCore( pcJSONFile,
 1686              		.loc 2 120 0
 1687 0000 FEFFFFEA 		b	prvGGDGetCore
 1688              	.LVL177:
 1689              		.cfi_endproc
 1690              	.LFE18:
 1692              		.section	.text.test_prvIsIPvalid,"ax",%progbits
 1693              		.align	2
 1694              		.global	test_prvIsIPvalid
 1695              		.syntax unified
 1696              		.arm
 1697              		.fpu neon
 1699              	test_prvIsIPvalid:
 1700              	.LFB19:
 121:D:\Work\DeviceTester\amazon-freertos\tests\common\include\aws_greengrass_discovery_test_access_define.h ****                           pxHostParameters,
 122:D:\Work\DeviceTester\amazon-freertos\tests\common\include\aws_greengrass_discovery_test_access_define.h ****                           xAutoConnectFlag,
 123:D:\Work\DeviceTester\amazon-freertos\tests\common\include\aws_greengrass_discovery_test_access_define.h ****                           pxTok,
 124:D:\Work\DeviceTester\amazon-freertos\tests\common\include\aws_greengrass_discovery_test_access_define.h ****                           ulNbTokens,
 125:D:\Work\DeviceTester\amazon-freertos\tests\common\include\aws_greengrass_discovery_test_access_define.h ****                           pulTokenIndex );
 126:D:\Work\DeviceTester\amazon-freertos\tests\common\include\aws_greengrass_discovery_test_access_define.h **** }
 127:D:\Work\DeviceTester\amazon-freertos\tests\common\include\aws_greengrass_discovery_test_access_define.h **** 
 128:D:\Work\DeviceTester\amazon-freertos\tests\common\include\aws_greengrass_discovery_test_access_define.h **** /*-----------------------------------------------------------*/
 129:D:\Work\DeviceTester\amazon-freertos\tests\common\include\aws_greengrass_discovery_test_access_define.h **** 
 130:D:\Work\DeviceTester\amazon-freertos\tests\common\include\aws_greengrass_discovery_test_access_define.h **** BaseType_t test_prvIsIPvalid( const char * pcIP,
 131:D:\Work\DeviceTester\amazon-freertos\tests\common\include\aws_greengrass_discovery_test_access_define.h ****                               uint32_t ulIPlength )
 132:D:\Work\DeviceTester\amazon-freertos\tests\common\include\aws_greengrass_discovery_test_access_define.h **** {
 1701              		.loc 2 132 0
 1702              		.cfi_startproc
 1703              		@ args = 0, pretend = 0, frame = 0
 1704              		@ frame_needed = 0, uses_anonymous_args = 0
 1705              	.LVL178:
 1706              	.LBB32:
 1707              	.LBB33:
 798:D:/Work/DeviceTester/amazon-freertos/lib/greengrass\aws_greengrass_discovery.c ****     {
 1708              		.loc 1 798 0
 1709 0000 0010A0E1 		mov	r1, r0
 1710              	.LVL179:
 1711              	.LBE33:
 1712              	.LBE32:
 1713              		.loc 2 132 0
 1714 0004 10402DE9 		push	{r4, lr}
 1715              		.cfi_def_cfa_offset 8
 1716              		.cfi_offset 4, -8
 1717              		.cfi_offset 14, -4
 1718              	.LBB35:
 1719              	.LBB34:
 798:D:/Work/DeviceTester/amazon-freertos/lib/greengrass\aws_greengrass_discovery.c ****     {
 1720              		.loc 1 798 0
 1721 0008 0C009FE5 		ldr	r0, .L188
 1722              	.LVL180:
 1723 000c FEFFFFEB 		bl	strcmp
 1724              	.LVL181:
 1725              	.LBE34:
 1726              	.LBE35:
 133:D:\Work\DeviceTester\amazon-freertos\tests\common\include\aws_greengrass_discovery_test_access_define.h ****     return prvIsIPvalid( pcIP, ulIPlength );
 134:D:\Work\DeviceTester\amazon-freertos\tests\common\include\aws_greengrass_discovery_test_access_define.h **** }
 1727              		.loc 2 134 0
 1728 0010 000090E2 		adds	r0, r0, #0
 1729 0014 0100A013 		movne	r0, #1
 1730 0018 1080BDE8 		pop	{r4, pc}
 1731              	.L189:
 1732              		.align	2
 1733              	.L188:
 1734 001c 9B000000 		.word	.LC17
 1735              		.cfi_endproc
 1736              	.LFE19:
 1738              		.section	.rodata.GGD_GetGGCIPandCertificate.str1.1,"aMS",%progbits,1
 1739              	.LC19:
 1740 0000 5B455252 		.ascii	"[ERROR] The supplied buffer is not large enough to "
 1740      4F525D20 
 1740      54686520 
 1740      73757070 
 1740      6C696564 
 1741 0033 686F6C64 		.ascii	"hold the GreenGrass discovery document. \015\012\000"
 1741      20746865 
 1741      20477265 
 1741      656E4772 
 1741      61737320 
 1742              	.LC20:
 1743 005e 5B455252 		.ascii	"[ERROR] Consider increasing the size of the supplie"
 1743      4F525D20 
 1743      436F6E73 
 1743      69646572 
 1743      20696E63 
 1744 0091 64206275 		.ascii	"d buffer. \015\012\000"
 1744      66666572 
 1744      2E200D0A 
 1744      00
 1745              		.section	.rodata.GGD_GetIPandCertificateFromJSON.str1.1,"aMS",%progbits,1
 1746              	.LC13:
 1747 0000 4A534F4E 		.ascii	"JSON parsing: Failed to parse JSON\015\012\000"
 1747      20706172 
 1747      73696E67 
 1747      3A204661 
 1747      696C6564 
 1748              	.LC14:
 1749 0025 4A534F4E 		.ascii	"JSON parsing: Couldn't find certificate\015\012\000"
 1749      20706172 
 1749      73696E67 
 1749      3A20436F 
 1749      756C646E 
 1750              	.LC15:
 1751 004f 4A534F4E 		.ascii	"JSON parsing: Couldn't find Green Grass Core\015\012"
 1751      20706172 
 1751      73696E67 
 1751      3A20436F 
 1751      756C646E 
 1752 007d 00       		.ascii	"\000"
 1753              	.LC16:
 1754 007e 47474320 		.ascii	"GGC - Can't find interface\015\012\000"
 1754      2D204361 
 1754      6E277420 
 1754      66696E64 
 1754      20696E74 
 1755              	.LC17:
 1756 009b 3132372E 		.ascii	"127.0.0.1\000"
 1756      302E302E 
 1756      3100
 1757              	.LC18:
 1758 00a5 47474420 		.ascii	"GGD - Can't connect to greengrass Core\015\012\000"
 1758      2D204361 
 1758      6E277420 
 1758      636F6E6E 
 1758      65637420 
 1759              		.section	.rodata.GGD_JSONRequestGetFile.str1.1,"aMS",%progbits,1
 1760              	.LC11:
 1761 0000 4A534F4E 		.ascii	"JSON parsing - Received %ld, expected at most %ld \015"
 1761      20706172 
 1761      73696E67 
 1761      202D2052 
 1761      65636569 
 1762 0033 0A00     		.ascii	"\012\000"
 1763              	.LC12:
 1764 0035 4A534F4E 		.ascii	"JSON parsing - JSON file retrieval failed\015\012\000"
 1764      20706172 
 1764      73696E67 
 1764      202D204A 
 1764      534F4E20 
 1765              		.section	.rodata.GGD_JSONRequestGetSize.str1.1,"aMS",%progbits,1
 1766              	.LC9:
 1767 0000 4A534F4E 		.ascii	"JSON parsing could not get JSON file Size.\015\012\000"
 1767      20706172 
 1767      73696E67 
 1767      20636F75 
 1767      6C64206E 
 1768              	.LC10:
 1769 002d 4A534F4E 		.ascii	"JSON parsing failed\015\012\000"
 1769      20706172 
 1769      73696E67 
 1769      20666169 
 1769      6C65640D 
 1770              	.LC8:
 1771 0043 636F6E74 		.ascii	"content-length:\000"
 1771      656E742D 
 1771      6C656E67 
 1771      74683A00 
 1772              		.section	.rodata.GGD_JSONRequestStart.str1.1,"aMS",%progbits,1
 1773              	.LC5:
 1774 0000 47455420 		.ascii	"GET /greengrass/discover/thing/idt-6287306328291364"
 1774      2F677265 
 1774      656E6772 
 1774      6173732F 
 1774      64697363 
 1775 0033 35383420 		.ascii	"584 HTTP/1.1\015\012\015\012\000"
 1775      48545450 
 1775      2F312E31 
 1775      0D0A0D0A 
 1775      00
 1776              	.LC6:
 1777 0044 4A534F4E 		.ascii	"JSON request failed\015\012\000"
 1777      20726571 
 1777      75657374 
 1777      20666169 
 1777      6C65640D 
 1778              	.LC7:
 1779 005a 4A534F4E 		.ascii	"JSON request could not connect to end point\015\012"
 1779      20726571 
 1779      75657374 
 1779      20636F75 
 1779      6C64206E 
 1780 0087 00       		.ascii	"\000"
 1781              		.section	.rodata.clientcredentialMQTT_BROKER_ENDPOINT,"a",%progbits
 1782              		.set	.LANCHOR0,. + 0
 1785              	clientcredentialMQTT_BROKER_ENDPOINT:
 1786 0000 61333369 		.ascii	"a33i4lqfcxqo2.iot.ap-northeast-1.amazonaws.com\000"
 1786      346C7166 
 1786      6378716F 
 1786      322E696F 
 1786      742E6170 
 1787              		.section	.rodata.prvGGDGetCertificate.isra.1.str1.1,"aMS",%progbits,1
 1788              	.LC4:
 1789 0000 43417300 		.ascii	"CAs\000"
 1790              		.section	.rodata.prvGGDGetCore.str1.1,"aMS",%progbits,1
 1791              	.LC2:
 1792 0000 47474772 		.ascii	"GGGroupId\000"
 1792      6F757049 
 1792      6400
 1793              	.LC3:
 1794 000a 7468696E 		.ascii	"thingArn\000"
 1794      6741726E 
 1794      00
 1795              		.section	.rodata.prvGGDGetIPOnInterface.str1.1,"aMS",%progbits,1
 1796              	.LC0:
 1797 0000 486F7374 		.ascii	"HostAddress\000"
 1797      41646472 
 1797      65737300 
 1798              	.LC1:
 1799 000c 506F7274 		.ascii	"PortNumber\000"
 1799      4E756D62 
 1799      657200
 1800              		.text
 1801              	.Letext0:
 1802              		.file 3 "c:\\program files (x86)\\gnu tools arm embedded\\6 2017-q2-update\\lib\\gcc\\arm-none-eab
 1803              		.file 4 "c:\\program files (x86)\\gnu tools arm embedded\\6 2017-q2-update\\arm-none-eabi\\include
 1804              		.file 5 "c:\\program files (x86)\\gnu tools arm embedded\\6 2017-q2-update\\arm-none-eabi\\include
 1805              		.file 6 "c:\\program files (x86)\\gnu tools arm embedded\\6 2017-q2-update\\arm-none-eabi\\include
 1806              		.file 7 "c:\\program files (x86)\\gnu tools arm embedded\\6 2017-q2-update\\arm-none-eabi\\include
 1807              		.file 8 "c:\\program files (x86)\\gnu tools arm embedded\\6 2017-q2-update\\arm-none-eabi\\include
 1808              		.file 9 "c:\\program files (x86)\\gnu tools arm embedded\\6 2017-q2-update\\arm-none-eabi\\include
 1809              		.file 10 "c:\\program files (x86)\\gnu tools arm embedded\\6 2017-q2-update\\arm-none-eabi\\includ
 1810              		.file 11 "D:\\Work\\DeviceTester\\amazon-freertos\\lib\\third_party\\unity\\src/unity_internals.h"
 1811              		.file 12 "D:\\Work\\DeviceTester\\amazon-freertos\\lib\\FreeRTOS\\portable\\GCC\\ARM_CA9_RZA2M/por
 1812              		.file 13 "D:\\Work\\DeviceTester\\amazon-freertos\\lib\\include/aws_secure_sockets.h"
 1813              		.file 14 "D:\\Work\\DeviceTester\\amazon-freertos\\tests\\common\\include/aws_clientcredential_key
 1814              		.file 15 "D:\\Work\\DeviceTester\\amazon-freertos\\lib\\include/aws_greengrass_discovery.h"
 1815              		.file 16 "D:\\Work\\DeviceTester\\amazon-freertos\\lib\\third_party\\jsmn/jsmn.h"
 1816              		.file 17 "c:\\program files (x86)\\gnu tools arm embedded\\6 2017-q2-update\\arm-none-eabi\\includ
 1817              		.file 18 "D:\\Work\\DeviceTester\\amazon-freertos\\tests\\common\\include/aws_clientcredential.h"
 1818              		.file 19 "c:\\program files (x86)\\gnu tools arm embedded\\6 2017-q2-update\\arm-none-eabi\\includ
 1819              		.file 20 "c:\\program files (x86)\\gnu tools arm embedded\\6 2017-q2-update\\arm-none-eabi\\includ
 1820              		.file 21 "D:\\Work\\DeviceTester\\amazon-freertos\\tests\\renesas\\rza2m-gr-mango\\common\\config_
 1821              		.file 22 "D:\\Work\\DeviceTester\\amazon-freertos\\lib\\include\\private/aws_helper_secure_connect