   1              		.cpu cortex-a9
   2              		.eabi_attribute 28, 1
   3              		.eabi_attribute 20, 1
   4              		.eabi_attribute 21, 1
   5              		.eabi_attribute 23, 3
   6              		.eabi_attribute 24, 1
   7              		.eabi_attribute 25, 1
   8              		.eabi_attribute 26, 1
   9              		.eabi_attribute 30, 4
  10              		.eabi_attribute 34, 0
  11              		.eabi_attribute 18, 4
  12              		.file	"aws_helper_secure_connect.c"
  13              		.text
  14              	.Ltext0:
  15              		.cfi_sections	.debug_frame
  16              		.section	.text.GGD_SecureConnect_Disconnect,"ax",%progbits
  17              		.align	2
  18              		.global	GGD_SecureConnect_Disconnect
  19              		.syntax unified
  20              		.arm
  21              		.fpu neon
  23              	GGD_SecureConnect_Disconnect:
  24              	.LFB1:
  25              		.file 1 "D:/Work/DeviceTester/amazon-freertos/lib/greengrass/aws_helper_secure_connect.c"
   1:D:/Work/DeviceTester/amazon-freertos/lib/greengrass\aws_helper_secure_connect.c **** /*
   2:D:/Work/DeviceTester/amazon-freertos/lib/greengrass\aws_helper_secure_connect.c ****  * Amazon FreeRTOS Greengrass Discovery V1.0.3
   3:D:/Work/DeviceTester/amazon-freertos/lib/greengrass\aws_helper_secure_connect.c ****  * Copyright (C) 2017 Amazon.com, Inc. or its affiliates.  All Rights Reserved.
   4:D:/Work/DeviceTester/amazon-freertos/lib/greengrass\aws_helper_secure_connect.c ****  *
   5:D:/Work/DeviceTester/amazon-freertos/lib/greengrass\aws_helper_secure_connect.c ****  * Permission is hereby granted, free of charge, to any person obtaining a copy of
   6:D:/Work/DeviceTester/amazon-freertos/lib/greengrass\aws_helper_secure_connect.c ****  * this software and associated documentation files (the "Software"), to deal in
   7:D:/Work/DeviceTester/amazon-freertos/lib/greengrass\aws_helper_secure_connect.c ****  * the Software without restriction, including without limitation the rights to
   8:D:/Work/DeviceTester/amazon-freertos/lib/greengrass\aws_helper_secure_connect.c ****  * use, copy, modify, merge, publish, distribute, sublicense, and/or sell copies of
   9:D:/Work/DeviceTester/amazon-freertos/lib/greengrass\aws_helper_secure_connect.c ****  * the Software, and to permit persons to whom the Software is furnished to do so,
  10:D:/Work/DeviceTester/amazon-freertos/lib/greengrass\aws_helper_secure_connect.c ****  * subject to the following conditions:
  11:D:/Work/DeviceTester/amazon-freertos/lib/greengrass\aws_helper_secure_connect.c ****  *
  12:D:/Work/DeviceTester/amazon-freertos/lib/greengrass\aws_helper_secure_connect.c ****  * The above copyright notice and this permission notice shall be included in all
  13:D:/Work/DeviceTester/amazon-freertos/lib/greengrass\aws_helper_secure_connect.c ****  * copies or substantial portions of the Software.
  14:D:/Work/DeviceTester/amazon-freertos/lib/greengrass\aws_helper_secure_connect.c ****  *
  15:D:/Work/DeviceTester/amazon-freertos/lib/greengrass\aws_helper_secure_connect.c ****  * THE SOFTWARE IS PROVIDED "AS IS", WITHOUT WARRANTY OF ANY KIND, EXPRESS OR
  16:D:/Work/DeviceTester/amazon-freertos/lib/greengrass\aws_helper_secure_connect.c ****  * IMPLIED, INCLUDING BUT NOT LIMITED TO THE WARRANTIES OF MERCHANTABILITY, FITNESS
  17:D:/Work/DeviceTester/amazon-freertos/lib/greengrass\aws_helper_secure_connect.c ****  * FOR A PARTICULAR PURPOSE AND NONINFRINGEMENT. IN NO EVENT SHALL THE AUTHORS OR
  18:D:/Work/DeviceTester/amazon-freertos/lib/greengrass\aws_helper_secure_connect.c ****  * COPYRIGHT HOLDERS BE LIABLE FOR ANY CLAIM, DAMAGES OR OTHER LIABILITY, WHETHER
  19:D:/Work/DeviceTester/amazon-freertos/lib/greengrass\aws_helper_secure_connect.c ****  * IN AN ACTION OF CONTRACT, TORT OR OTHERWISE, ARISING FROM, OUT OF OR IN
  20:D:/Work/DeviceTester/amazon-freertos/lib/greengrass\aws_helper_secure_connect.c ****  * CONNECTION WITH THE SOFTWARE OR THE USE OR OTHER DEALINGS IN THE SOFTWARE.
  21:D:/Work/DeviceTester/amazon-freertos/lib/greengrass\aws_helper_secure_connect.c ****  *
  22:D:/Work/DeviceTester/amazon-freertos/lib/greengrass\aws_helper_secure_connect.c ****  * http://aws.amazon.com/freertos
  23:D:/Work/DeviceTester/amazon-freertos/lib/greengrass\aws_helper_secure_connect.c ****  * http://www.FreeRTOS.org
  24:D:/Work/DeviceTester/amazon-freertos/lib/greengrass\aws_helper_secure_connect.c ****  */
  25:D:/Work/DeviceTester/amazon-freertos/lib/greengrass\aws_helper_secure_connect.c **** 
  26:D:/Work/DeviceTester/amazon-freertos/lib/greengrass\aws_helper_secure_connect.c **** 
  27:D:/Work/DeviceTester/amazon-freertos/lib/greengrass\aws_helper_secure_connect.c **** /**
  28:D:/Work/DeviceTester/amazon-freertos/lib/greengrass\aws_helper_secure_connect.c ****  * @file aws_helper_secure_connect.c
  29:D:/Work/DeviceTester/amazon-freertos/lib/greengrass\aws_helper_secure_connect.c ****  * @brief Secure connection wrapper
  30:D:/Work/DeviceTester/amazon-freertos/lib/greengrass\aws_helper_secure_connect.c ****  *
  31:D:/Work/DeviceTester/amazon-freertos/lib/greengrass\aws_helper_secure_connect.c ****  * API used by green grass discovery to help establishing
  32:D:/Work/DeviceTester/amazon-freertos/lib/greengrass\aws_helper_secure_connect.c ****  * secure connect with a given host
  33:D:/Work/DeviceTester/amazon-freertos/lib/greengrass\aws_helper_secure_connect.c ****  */
  34:D:/Work/DeviceTester/amazon-freertos/lib/greengrass\aws_helper_secure_connect.c **** 
  35:D:/Work/DeviceTester/amazon-freertos/lib/greengrass\aws_helper_secure_connect.c **** /* SOCKETS includes. */
  36:D:/Work/DeviceTester/amazon-freertos/lib/greengrass\aws_helper_secure_connect.c **** #include "FreeRTOS.h"
  37:D:/Work/DeviceTester/amazon-freertos/lib/greengrass\aws_helper_secure_connect.c **** #include "task.h"
  38:D:/Work/DeviceTester/amazon-freertos/lib/greengrass\aws_helper_secure_connect.c **** #include "queue.h"
  39:D:/Work/DeviceTester/amazon-freertos/lib/greengrass\aws_helper_secure_connect.c **** #include "semphr.h"
  40:D:/Work/DeviceTester/amazon-freertos/lib/greengrass\aws_helper_secure_connect.c **** 
  41:D:/Work/DeviceTester/amazon-freertos/lib/greengrass\aws_helper_secure_connect.c **** /* Helper interface includes. */
  42:D:/Work/DeviceTester/amazon-freertos/lib/greengrass\aws_helper_secure_connect.c **** #include "aws_helper_secure_connect.h"
  43:D:/Work/DeviceTester/amazon-freertos/lib/greengrass\aws_helper_secure_connect.c **** #include "aws_ggd_config.h"
  44:D:/Work/DeviceTester/amazon-freertos/lib/greengrass\aws_helper_secure_connect.c **** #include "aws_ggd_config_defaults.h"
  45:D:/Work/DeviceTester/amazon-freertos/lib/greengrass\aws_helper_secure_connect.c **** 
  46:D:/Work/DeviceTester/amazon-freertos/lib/greengrass\aws_helper_secure_connect.c **** /* Standard includes. */
  47:D:/Work/DeviceTester/amazon-freertos/lib/greengrass\aws_helper_secure_connect.c **** #include <string.h>
  48:D:/Work/DeviceTester/amazon-freertos/lib/greengrass\aws_helper_secure_connect.c **** 
  49:D:/Work/DeviceTester/amazon-freertos/lib/greengrass\aws_helper_secure_connect.c **** #define helperMAX_IP_ADDRESS_OCTETS    4u
  50:D:/Work/DeviceTester/amazon-freertos/lib/greengrass\aws_helper_secure_connect.c **** 
  51:D:/Work/DeviceTester/amazon-freertos/lib/greengrass\aws_helper_secure_connect.c **** /**
  52:D:/Work/DeviceTester/amazon-freertos/lib/greengrass\aws_helper_secure_connect.c ****  * @brief This function return non 0 if it is an IP and 0 if it isn't
  53:D:/Work/DeviceTester/amazon-freertos/lib/greengrass\aws_helper_secure_connect.c ****  */
  54:D:/Work/DeviceTester/amazon-freertos/lib/greengrass\aws_helper_secure_connect.c **** static uint32_t prvIsIPaddress( const char * pcIPAddress );
  55:D:/Work/DeviceTester/amazon-freertos/lib/greengrass\aws_helper_secure_connect.c **** 
  56:D:/Work/DeviceTester/amazon-freertos/lib/greengrass\aws_helper_secure_connect.c **** /*-----------------------------------------------------------*/
  57:D:/Work/DeviceTester/amazon-freertos/lib/greengrass\aws_helper_secure_connect.c **** 
  58:D:/Work/DeviceTester/amazon-freertos/lib/greengrass\aws_helper_secure_connect.c **** BaseType_t GGD_SecureConnect_Connect( const GGD_HostAddressData_t * pxHostAddressData,
  59:D:/Work/DeviceTester/amazon-freertos/lib/greengrass\aws_helper_secure_connect.c ****                                       Socket_t * pxSocket,
  60:D:/Work/DeviceTester/amazon-freertos/lib/greengrass\aws_helper_secure_connect.c ****                                       uint32_t ulReceiveTimeOut,
  61:D:/Work/DeviceTester/amazon-freertos/lib/greengrass\aws_helper_secure_connect.c ****                                       uint32_t ulSendTimeOut )
  62:D:/Work/DeviceTester/amazon-freertos/lib/greengrass\aws_helper_secure_connect.c **** {
  63:D:/Work/DeviceTester/amazon-freertos/lib/greengrass\aws_helper_secure_connect.c ****     const TickType_t xReceiveTimeOut = pdMS_TO_TICKS( ulReceiveTimeOut );
  64:D:/Work/DeviceTester/amazon-freertos/lib/greengrass\aws_helper_secure_connect.c ****     const TickType_t xSendTimeOut = pdMS_TO_TICKS( ulSendTimeOut );
  65:D:/Work/DeviceTester/amazon-freertos/lib/greengrass\aws_helper_secure_connect.c ****     SocketsSockaddr_t xServerAddress;
  66:D:/Work/DeviceTester/amazon-freertos/lib/greengrass\aws_helper_secure_connect.c ****     size_t xURLLength;
  67:D:/Work/DeviceTester/amazon-freertos/lib/greengrass\aws_helper_secure_connect.c ****     BaseType_t xIsIPAddress;
  68:D:/Work/DeviceTester/amazon-freertos/lib/greengrass\aws_helper_secure_connect.c ****     BaseType_t xStatus;
  69:D:/Work/DeviceTester/amazon-freertos/lib/greengrass\aws_helper_secure_connect.c **** 
  70:D:/Work/DeviceTester/amazon-freertos/lib/greengrass\aws_helper_secure_connect.c ****     configASSERT( pxHostAddressData != NULL );
  71:D:/Work/DeviceTester/amazon-freertos/lib/greengrass\aws_helper_secure_connect.c ****     configASSERT( pxSocket != NULL );
  72:D:/Work/DeviceTester/amazon-freertos/lib/greengrass\aws_helper_secure_connect.c **** 
  73:D:/Work/DeviceTester/amazon-freertos/lib/greengrass\aws_helper_secure_connect.c ****     /* Calculate the length of the supplied URL. */
  74:D:/Work/DeviceTester/amazon-freertos/lib/greengrass\aws_helper_secure_connect.c ****     xURLLength = strlen( pxHostAddressData->pcHostAddress );
  75:D:/Work/DeviceTester/amazon-freertos/lib/greengrass\aws_helper_secure_connect.c **** 
  76:D:/Work/DeviceTester/amazon-freertos/lib/greengrass\aws_helper_secure_connect.c ****     /* Ensure that the length of the specified URL is
  77:D:/Work/DeviceTester/amazon-freertos/lib/greengrass\aws_helper_secure_connect.c ****      * within the permitted limits. */
  78:D:/Work/DeviceTester/amazon-freertos/lib/greengrass\aws_helper_secure_connect.c ****     if( xURLLength <= ( size_t ) securesocketsMAX_DNS_NAME_LENGTH )
  79:D:/Work/DeviceTester/amazon-freertos/lib/greengrass\aws_helper_secure_connect.c ****     {
  80:D:/Work/DeviceTester/amazon-freertos/lib/greengrass\aws_helper_secure_connect.c ****         /* Create the socket. */
  81:D:/Work/DeviceTester/amazon-freertos/lib/greengrass\aws_helper_secure_connect.c ****         *pxSocket = SOCKETS_Socket( SOCKETS_AF_INET,
  82:D:/Work/DeviceTester/amazon-freertos/lib/greengrass\aws_helper_secure_connect.c ****                                     SOCKETS_SOCK_STREAM,
  83:D:/Work/DeviceTester/amazon-freertos/lib/greengrass\aws_helper_secure_connect.c ****                                     SOCKETS_IPPROTO_TCP );
  84:D:/Work/DeviceTester/amazon-freertos/lib/greengrass\aws_helper_secure_connect.c **** 
  85:D:/Work/DeviceTester/amazon-freertos/lib/greengrass\aws_helper_secure_connect.c ****         if( *pxSocket == SOCKETS_INVALID_SOCKET )
  86:D:/Work/DeviceTester/amazon-freertos/lib/greengrass\aws_helper_secure_connect.c ****         {
  87:D:/Work/DeviceTester/amazon-freertos/lib/greengrass\aws_helper_secure_connect.c ****             xStatus = pdFAIL;
  88:D:/Work/DeviceTester/amazon-freertos/lib/greengrass\aws_helper_secure_connect.c ****         }
  89:D:/Work/DeviceTester/amazon-freertos/lib/greengrass\aws_helper_secure_connect.c ****         else
  90:D:/Work/DeviceTester/amazon-freertos/lib/greengrass\aws_helper_secure_connect.c ****         {
  91:D:/Work/DeviceTester/amazon-freertos/lib/greengrass\aws_helper_secure_connect.c ****             xStatus = pdPASS;
  92:D:/Work/DeviceTester/amazon-freertos/lib/greengrass\aws_helper_secure_connect.c ****         }
  93:D:/Work/DeviceTester/amazon-freertos/lib/greengrass\aws_helper_secure_connect.c **** 
  94:D:/Work/DeviceTester/amazon-freertos/lib/greengrass\aws_helper_secure_connect.c ****         if( xStatus == pdPASS )
  95:D:/Work/DeviceTester/amazon-freertos/lib/greengrass\aws_helper_secure_connect.c ****         {
  96:D:/Work/DeviceTester/amazon-freertos/lib/greengrass\aws_helper_secure_connect.c ****             if( prvIsIPaddress( pxHostAddressData->pcHostAddress ) == ( uint32_t ) 0 )
  97:D:/Work/DeviceTester/amazon-freertos/lib/greengrass\aws_helper_secure_connect.c ****             {
  98:D:/Work/DeviceTester/amazon-freertos/lib/greengrass\aws_helper_secure_connect.c ****                 xIsIPAddress = pdFALSE;
  99:D:/Work/DeviceTester/amazon-freertos/lib/greengrass\aws_helper_secure_connect.c ****             }
 100:D:/Work/DeviceTester/amazon-freertos/lib/greengrass\aws_helper_secure_connect.c ****             else
 101:D:/Work/DeviceTester/amazon-freertos/lib/greengrass\aws_helper_secure_connect.c ****             {
 102:D:/Work/DeviceTester/amazon-freertos/lib/greengrass\aws_helper_secure_connect.c ****                 xIsIPAddress = pdTRUE;
 103:D:/Work/DeviceTester/amazon-freertos/lib/greengrass\aws_helper_secure_connect.c ****             }
 104:D:/Work/DeviceTester/amazon-freertos/lib/greengrass\aws_helper_secure_connect.c **** 
 105:D:/Work/DeviceTester/amazon-freertos/lib/greengrass\aws_helper_secure_connect.c ****             xServerAddress.ucLength = sizeof( SocketsSockaddr_t );
 106:D:/Work/DeviceTester/amazon-freertos/lib/greengrass\aws_helper_secure_connect.c ****             xServerAddress.usPort = SOCKETS_htons( pxHostAddressData->usPort );
 107:D:/Work/DeviceTester/amazon-freertos/lib/greengrass\aws_helper_secure_connect.c ****             xServerAddress.ulAddress =
 108:D:/Work/DeviceTester/amazon-freertos/lib/greengrass\aws_helper_secure_connect.c ****                 SOCKETS_GetHostByName( pxHostAddressData->pcHostAddress );
 109:D:/Work/DeviceTester/amazon-freertos/lib/greengrass\aws_helper_secure_connect.c ****             xServerAddress.ucSocketDomain = SOCKETS_AF_INET;
 110:D:/Work/DeviceTester/amazon-freertos/lib/greengrass\aws_helper_secure_connect.c **** 
 111:D:/Work/DeviceTester/amazon-freertos/lib/greengrass\aws_helper_secure_connect.c ****             /* Set send timeout for the socket. */
 112:D:/Work/DeviceTester/amazon-freertos/lib/greengrass\aws_helper_secure_connect.c ****             ( void ) SOCKETS_SetSockOpt( *pxSocket,
 113:D:/Work/DeviceTester/amazon-freertos/lib/greengrass\aws_helper_secure_connect.c ****                                          0,
 114:D:/Work/DeviceTester/amazon-freertos/lib/greengrass\aws_helper_secure_connect.c ****                                          SOCKETS_SO_SNDTIMEO,
 115:D:/Work/DeviceTester/amazon-freertos/lib/greengrass\aws_helper_secure_connect.c ****                                          &xSendTimeOut,
 116:D:/Work/DeviceTester/amazon-freertos/lib/greengrass\aws_helper_secure_connect.c ****                                          sizeof( xSendTimeOut ) );
 117:D:/Work/DeviceTester/amazon-freertos/lib/greengrass\aws_helper_secure_connect.c **** 
 118:D:/Work/DeviceTester/amazon-freertos/lib/greengrass\aws_helper_secure_connect.c ****             /* Set receive timeout for the socket. */
 119:D:/Work/DeviceTester/amazon-freertos/lib/greengrass\aws_helper_secure_connect.c ****             ( void ) SOCKETS_SetSockOpt( *pxSocket,
 120:D:/Work/DeviceTester/amazon-freertos/lib/greengrass\aws_helper_secure_connect.c ****                                          0,
 121:D:/Work/DeviceTester/amazon-freertos/lib/greengrass\aws_helper_secure_connect.c ****                                          SOCKETS_SO_RCVTIMEO,
 122:D:/Work/DeviceTester/amazon-freertos/lib/greengrass\aws_helper_secure_connect.c ****                                          &xReceiveTimeOut,
 123:D:/Work/DeviceTester/amazon-freertos/lib/greengrass\aws_helper_secure_connect.c ****                                          sizeof( xReceiveTimeOut ) );
 124:D:/Work/DeviceTester/amazon-freertos/lib/greengrass\aws_helper_secure_connect.c **** 
 125:D:/Work/DeviceTester/amazon-freertos/lib/greengrass\aws_helper_secure_connect.c ****             /* Set secure connection. */
 126:D:/Work/DeviceTester/amazon-freertos/lib/greengrass\aws_helper_secure_connect.c ****             ( void ) SOCKETS_SetSockOpt( *pxSocket,
 127:D:/Work/DeviceTester/amazon-freertos/lib/greengrass\aws_helper_secure_connect.c ****                                          0,
 128:D:/Work/DeviceTester/amazon-freertos/lib/greengrass\aws_helper_secure_connect.c ****                                          SOCKETS_SO_REQUIRE_TLS,
 129:D:/Work/DeviceTester/amazon-freertos/lib/greengrass\aws_helper_secure_connect.c ****                                          NULL,
 130:D:/Work/DeviceTester/amazon-freertos/lib/greengrass\aws_helper_secure_connect.c ****                                          ( size_t ) 0 );
 131:D:/Work/DeviceTester/amazon-freertos/lib/greengrass\aws_helper_secure_connect.c **** 
 132:D:/Work/DeviceTester/amazon-freertos/lib/greengrass\aws_helper_secure_connect.c ****             if( pxHostAddressData->pcCertificate != NULL )
 133:D:/Work/DeviceTester/amazon-freertos/lib/greengrass\aws_helper_secure_connect.c ****             {
 134:D:/Work/DeviceTester/amazon-freertos/lib/greengrass\aws_helper_secure_connect.c ****                 if( SOCKETS_SetSockOpt( *pxSocket,
 135:D:/Work/DeviceTester/amazon-freertos/lib/greengrass\aws_helper_secure_connect.c ****                                         0,
 136:D:/Work/DeviceTester/amazon-freertos/lib/greengrass\aws_helper_secure_connect.c ****                                         SOCKETS_SO_TRUSTED_SERVER_CERTIFICATE,
 137:D:/Work/DeviceTester/amazon-freertos/lib/greengrass\aws_helper_secure_connect.c ****                                         pxHostAddressData->pcCertificate,
 138:D:/Work/DeviceTester/amazon-freertos/lib/greengrass\aws_helper_secure_connect.c ****                                         ( size_t ) pxHostAddressData->ulCertificateSize )
 139:D:/Work/DeviceTester/amazon-freertos/lib/greengrass\aws_helper_secure_connect.c ****                     != SOCKETS_ERROR_NONE )
 140:D:/Work/DeviceTester/amazon-freertos/lib/greengrass\aws_helper_secure_connect.c ****                 {
 141:D:/Work/DeviceTester/amazon-freertos/lib/greengrass\aws_helper_secure_connect.c ****                     xStatus = pdFAIL;
 142:D:/Work/DeviceTester/amazon-freertos/lib/greengrass\aws_helper_secure_connect.c ****                 }
 143:D:/Work/DeviceTester/amazon-freertos/lib/greengrass\aws_helper_secure_connect.c ****             }
 144:D:/Work/DeviceTester/amazon-freertos/lib/greengrass\aws_helper_secure_connect.c **** 
 145:D:/Work/DeviceTester/amazon-freertos/lib/greengrass\aws_helper_secure_connect.c ****             if( xIsIPAddress == pdFALSE )
 146:D:/Work/DeviceTester/amazon-freertos/lib/greengrass\aws_helper_secure_connect.c ****             {
 147:D:/Work/DeviceTester/amazon-freertos/lib/greengrass\aws_helper_secure_connect.c ****                 if( SOCKETS_SetSockOpt( *pxSocket,
 148:D:/Work/DeviceTester/amazon-freertos/lib/greengrass\aws_helper_secure_connect.c ****                                         0,
 149:D:/Work/DeviceTester/amazon-freertos/lib/greengrass\aws_helper_secure_connect.c ****                                         SOCKETS_SO_SERVER_NAME_INDICATION,
 150:D:/Work/DeviceTester/amazon-freertos/lib/greengrass\aws_helper_secure_connect.c ****                                         pxHostAddressData->pcHostAddress,
 151:D:/Work/DeviceTester/amazon-freertos/lib/greengrass\aws_helper_secure_connect.c ****                                         ( size_t ) 1 + xURLLength )
 152:D:/Work/DeviceTester/amazon-freertos/lib/greengrass\aws_helper_secure_connect.c ****                     != SOCKETS_ERROR_NONE )
 153:D:/Work/DeviceTester/amazon-freertos/lib/greengrass\aws_helper_secure_connect.c ****                 {
 154:D:/Work/DeviceTester/amazon-freertos/lib/greengrass\aws_helper_secure_connect.c ****                     xStatus = pdFAIL;
 155:D:/Work/DeviceTester/amazon-freertos/lib/greengrass\aws_helper_secure_connect.c ****                 }
 156:D:/Work/DeviceTester/amazon-freertos/lib/greengrass\aws_helper_secure_connect.c ****             }
 157:D:/Work/DeviceTester/amazon-freertos/lib/greengrass\aws_helper_secure_connect.c **** 
 158:D:/Work/DeviceTester/amazon-freertos/lib/greengrass\aws_helper_secure_connect.c ****             /* Establish the TCP connection. */
 159:D:/Work/DeviceTester/amazon-freertos/lib/greengrass\aws_helper_secure_connect.c ****             if( pdPASS == xStatus )
 160:D:/Work/DeviceTester/amazon-freertos/lib/greengrass\aws_helper_secure_connect.c ****             {
 161:D:/Work/DeviceTester/amazon-freertos/lib/greengrass\aws_helper_secure_connect.c ****                 if( ( SOCKETS_Connect( *pxSocket,
 162:D:/Work/DeviceTester/amazon-freertos/lib/greengrass\aws_helper_secure_connect.c ****                                        &xServerAddress,
 163:D:/Work/DeviceTester/amazon-freertos/lib/greengrass\aws_helper_secure_connect.c ****                                        ( uint32_t ) sizeof( xServerAddress ) )
 164:D:/Work/DeviceTester/amazon-freertos/lib/greengrass\aws_helper_secure_connect.c ****                       != SOCKETS_ERROR_NONE ) )
 165:D:/Work/DeviceTester/amazon-freertos/lib/greengrass\aws_helper_secure_connect.c ****                 {
 166:D:/Work/DeviceTester/amazon-freertos/lib/greengrass\aws_helper_secure_connect.c ****                     GGD_SecureConnect_Disconnect( pxSocket );
 167:D:/Work/DeviceTester/amazon-freertos/lib/greengrass\aws_helper_secure_connect.c ****                     xStatus = pdFAIL;
 168:D:/Work/DeviceTester/amazon-freertos/lib/greengrass\aws_helper_secure_connect.c ****                 }
 169:D:/Work/DeviceTester/amazon-freertos/lib/greengrass\aws_helper_secure_connect.c ****             }
 170:D:/Work/DeviceTester/amazon-freertos/lib/greengrass\aws_helper_secure_connect.c ****         }
 171:D:/Work/DeviceTester/amazon-freertos/lib/greengrass\aws_helper_secure_connect.c ****     }
 172:D:/Work/DeviceTester/amazon-freertos/lib/greengrass\aws_helper_secure_connect.c ****     else
 173:D:/Work/DeviceTester/amazon-freertos/lib/greengrass\aws_helper_secure_connect.c ****     {
 174:D:/Work/DeviceTester/amazon-freertos/lib/greengrass\aws_helper_secure_connect.c ****         ggdconfigPRINT( "Malformed URL\r\n" );
 175:D:/Work/DeviceTester/amazon-freertos/lib/greengrass\aws_helper_secure_connect.c ****         xStatus = pdFAIL;
 176:D:/Work/DeviceTester/amazon-freertos/lib/greengrass\aws_helper_secure_connect.c ****     }
 177:D:/Work/DeviceTester/amazon-freertos/lib/greengrass\aws_helper_secure_connect.c **** 
 178:D:/Work/DeviceTester/amazon-freertos/lib/greengrass\aws_helper_secure_connect.c ****     return xStatus;
 179:D:/Work/DeviceTester/amazon-freertos/lib/greengrass\aws_helper_secure_connect.c **** }
 180:D:/Work/DeviceTester/amazon-freertos/lib/greengrass\aws_helper_secure_connect.c **** /*-----------------------------------------------------------*/
 181:D:/Work/DeviceTester/amazon-freertos/lib/greengrass\aws_helper_secure_connect.c **** 
 182:D:/Work/DeviceTester/amazon-freertos/lib/greengrass\aws_helper_secure_connect.c **** void GGD_SecureConnect_Disconnect( Socket_t * pxSocket )
 183:D:/Work/DeviceTester/amazon-freertos/lib/greengrass\aws_helper_secure_connect.c **** {
  26              		.loc 1 183 0
  27              		.cfi_startproc
  28              		@ args = 0, pretend = 0, frame = 16
  29              		@ frame_needed = 0, uses_anonymous_args = 0
  30              	.LVL0:
  31 0000 1F402DE9 		push	{r0, r1, r2, r3, r4, lr}
  32              		.cfi_def_cfa_offset 24
  33              		.cfi_offset 4, -8
  34              		.cfi_offset 14, -4
 184:D:/Work/DeviceTester/amazon-freertos/lib/greengrass\aws_helper_secure_connect.c ****     const TickType_t xShortDelay = pdMS_TO_TICKS( 10 );
 185:D:/Work/DeviceTester/amazon-freertos/lib/greengrass\aws_helper_secure_connect.c ****     TickType_t xTicksToWait = xShortDelay * ( TickType_t ) 100;
 186:D:/Work/DeviceTester/amazon-freertos/lib/greengrass\aws_helper_secure_connect.c ****     TimeOut_t xTimeOut;
 187:D:/Work/DeviceTester/amazon-freertos/lib/greengrass\aws_helper_secure_connect.c ****     char cBuf; /*lint !e971 can use char without signed/unsigned. */
 188:D:/Work/DeviceTester/amazon-freertos/lib/greengrass\aws_helper_secure_connect.c **** 
 189:D:/Work/DeviceTester/amazon-freertos/lib/greengrass\aws_helper_secure_connect.c ****     configASSERT( pxSocket != NULL );
  35              		.loc 1 189 0
  36 0004 004050E2 		subs	r4, r0, #0
 185:D:/Work/DeviceTester/amazon-freertos/lib/greengrass\aws_helper_secure_connect.c ****     TimeOut_t xTimeOut;
  37              		.loc 1 185 0
  38 0008 FA3FA0E3 		mov	r3, #1000
  39 000c 04308DE5 		str	r3, [sp, #4]
  40              		.loc 1 189 0
  41 0010 0200001A 		bne	.L2
  42              	.L3:
  43              		.loc 1 189 0 is_stmt 0 discriminator 1
  44 0014 0110A0E3 		mov	r1, #1
  45 0018 94009FE5 		ldr	r0, .L14
  46              	.LVL1:
  47 001c FEFFFFEB 		bl	longjmp
  48              	.LVL2:
  49              	.L2:
 190:D:/Work/DeviceTester/amazon-freertos/lib/greengrass\aws_helper_secure_connect.c ****     configASSERT( *pxSocket != SOCKETS_INVALID_SOCKET );
  50              		.loc 1 190 0 is_stmt 1
  51 0020 003094E5 		ldr	r3, [r4]
  52 0024 010073E3 		cmn	r3, #1
  53 0028 F9FFFF0A 		beq	.L3
 191:D:/Work/DeviceTester/amazon-freertos/lib/greengrass\aws_helper_secure_connect.c ****     ggdconfigPRINT( "About to close socket.\r\n" );
  54              		.loc 1 191 0
  55 002c 84009FE5 		ldr	r0, .L14+4
  56              	.LVL3:
  57 0030 FEFFFFEB 		bl	vLoggingPrintf
  58              	.LVL4:
 192:D:/Work/DeviceTester/amazon-freertos/lib/greengrass\aws_helper_secure_connect.c **** 
 193:D:/Work/DeviceTester/amazon-freertos/lib/greengrass\aws_helper_secure_connect.c ****     /* Initialize xTimeOut.  This records the time at which this function was
 194:D:/Work/DeviceTester/amazon-freertos/lib/greengrass\aws_helper_secure_connect.c ****      * entered. */
 195:D:/Work/DeviceTester/amazon-freertos/lib/greengrass\aws_helper_secure_connect.c ****     vTaskSetTimeOutState( &xTimeOut );
  59              		.loc 1 195 0
  60 0034 08008DE2 		add	r0, sp, #8
  61 0038 FEFFFFEB 		bl	vTaskSetTimeOutState
  62              	.LVL5:
 196:D:/Work/DeviceTester/amazon-freertos/lib/greengrass\aws_helper_secure_connect.c **** 
 197:D:/Work/DeviceTester/amazon-freertos/lib/greengrass\aws_helper_secure_connect.c ****     /* Shutdown the connection. */
 198:D:/Work/DeviceTester/amazon-freertos/lib/greengrass\aws_helper_secure_connect.c ****     ( void ) SOCKETS_Shutdown( *pxSocket, ( uint32_t ) SOCKETS_SHUT_RDWR );
  63              		.loc 1 198 0
  64 003c 0210A0E3 		mov	r1, #2
  65 0040 000094E5 		ldr	r0, [r4]
  66 0044 FEFFFFEB 		bl	SOCKETS_Shutdown
  67              	.LVL6:
  68              	.L4:
 199:D:/Work/DeviceTester/amazon-freertos/lib/greengrass\aws_helper_secure_connect.c **** 
 200:D:/Work/DeviceTester/amazon-freertos/lib/greengrass\aws_helper_secure_connect.c ****     /* Wait for the socket to disconnect gracefully (indicated by a
 201:D:/Work/DeviceTester/amazon-freertos/lib/greengrass\aws_helper_secure_connect.c ****      * SOCKETS_EINVAL error) before closing the socket. */
 202:D:/Work/DeviceTester/amazon-freertos/lib/greengrass\aws_helper_secure_connect.c ****     while( SOCKETS_Recv( *pxSocket, &cBuf, sizeof( cBuf ), ( uint32_t ) 0 ) >= 0 )
  69              		.loc 1 202 0
  70 0048 0030A0E3 		mov	r3, #0
  71 004c 0120A0E3 		mov	r2, #1
  72 0050 03108DE2 		add	r1, sp, #3
  73 0054 000094E5 		ldr	r0, [r4]
  74 0058 FEFFFFEB 		bl	SOCKETS_Recv
  75              	.LVL7:
  76 005c 000050E3 		cmp	r0, #0
  77 0060 060000BA 		blt	.L6
 203:D:/Work/DeviceTester/amazon-freertos/lib/greengrass\aws_helper_secure_connect.c ****     {
 204:D:/Work/DeviceTester/amazon-freertos/lib/greengrass\aws_helper_secure_connect.c ****         vTaskDelay( xShortDelay );
  78              		.loc 1 204 0
  79 0064 0A00A0E3 		mov	r0, #10
  80 0068 FEFFFFEB 		bl	vTaskDelay
  81              	.LVL8:
 205:D:/Work/DeviceTester/amazon-freertos/lib/greengrass\aws_helper_secure_connect.c **** 
 206:D:/Work/DeviceTester/amazon-freertos/lib/greengrass\aws_helper_secure_connect.c ****         if( xTaskCheckForTimeOut( &xTimeOut, &xTicksToWait ) != pdFALSE )
  82              		.loc 1 206 0
  83 006c 04108DE2 		add	r1, sp, #4
  84 0070 08008DE2 		add	r0, sp, #8
  85 0074 FEFFFFEB 		bl	xTaskCheckForTimeOut
  86              	.LVL9:
  87 0078 000050E3 		cmp	r0, #0
  88 007c F1FFFF0A 		beq	.L4
  89              	.L6:
 207:D:/Work/DeviceTester/amazon-freertos/lib/greengrass\aws_helper_secure_connect.c ****         {
 208:D:/Work/DeviceTester/amazon-freertos/lib/greengrass\aws_helper_secure_connect.c ****             /* Timed out before the wanted number of bytes were available, exit
 209:D:/Work/DeviceTester/amazon-freertos/lib/greengrass\aws_helper_secure_connect.c ****              * the loop. */
 210:D:/Work/DeviceTester/amazon-freertos/lib/greengrass\aws_helper_secure_connect.c ****             break;
 211:D:/Work/DeviceTester/amazon-freertos/lib/greengrass\aws_helper_secure_connect.c ****         }
 212:D:/Work/DeviceTester/amazon-freertos/lib/greengrass\aws_helper_secure_connect.c ****     }
 213:D:/Work/DeviceTester/amazon-freertos/lib/greengrass\aws_helper_secure_connect.c **** 
 214:D:/Work/DeviceTester/amazon-freertos/lib/greengrass\aws_helper_secure_connect.c ****     /* Close the socket. */
 215:D:/Work/DeviceTester/amazon-freertos/lib/greengrass\aws_helper_secure_connect.c ****     ( void ) SOCKETS_Close( *pxSocket );
  90              		.loc 1 215 0
  91 0080 000094E5 		ldr	r0, [r4]
  92 0084 FEFFFFEB 		bl	SOCKETS_Close
  93              	.LVL10:
 216:D:/Work/DeviceTester/amazon-freertos/lib/greengrass\aws_helper_secure_connect.c ****     *pxSocket = SOCKETS_INVALID_SOCKET;
  94              		.loc 1 216 0
  95 0088 0030E0E3 		mvn	r3, #0
 217:D:/Work/DeviceTester/amazon-freertos/lib/greengrass\aws_helper_secure_connect.c ****     ggdconfigPRINT( "Socket closed.\r\n" );
  96              		.loc 1 217 0
  97 008c 28009FE5 		ldr	r0, .L14+8
 216:D:/Work/DeviceTester/amazon-freertos/lib/greengrass\aws_helper_secure_connect.c ****     *pxSocket = SOCKETS_INVALID_SOCKET;
  98              		.loc 1 216 0
  99 0090 003084E5 		str	r3, [r4]
 100              		.loc 1 217 0
 101 0094 FEFFFFEB 		bl	vLoggingPrintf
 102              	.LVL11:
 218:D:/Work/DeviceTester/amazon-freertos/lib/greengrass\aws_helper_secure_connect.c **** 
 219:D:/Work/DeviceTester/amazon-freertos/lib/greengrass\aws_helper_secure_connect.c ****     #if ( INCLUDE_uxTaskGetStackHighWaterMark == 1 )
 220:D:/Work/DeviceTester/amazon-freertos/lib/greengrass\aws_helper_secure_connect.c ****         {
 221:D:/Work/DeviceTester/amazon-freertos/lib/greengrass\aws_helper_secure_connect.c ****             configPRINTF( (
 103              		.loc 1 221 0
 104 0098 0000A0E3 		mov	r0, #0
 105 009c FEFFFFEB 		bl	uxTaskGetStackHighWaterMark
 106              	.LVL12:
 107 00a0 0010A0E1 		mov	r1, r0
 108 00a4 14009FE5 		ldr	r0, .L14+12
 109 00a8 FEFFFFEB 		bl	vLoggingPrintf
 110              	.LVL13:
 222:D:/Work/DeviceTester/amazon-freertos/lib/greengrass\aws_helper_secure_connect.c ****                               "Stack high watermark for discovery helper task: %u.\r\n",
 223:D:/Work/DeviceTester/amazon-freertos/lib/greengrass\aws_helper_secure_connect.c ****                               uxTaskGetStackHighWaterMark( NULL ) ) );
 224:D:/Work/DeviceTester/amazon-freertos/lib/greengrass\aws_helper_secure_connect.c ****         }
 225:D:/Work/DeviceTester/amazon-freertos/lib/greengrass\aws_helper_secure_connect.c ****     #endif
 226:D:/Work/DeviceTester/amazon-freertos/lib/greengrass\aws_helper_secure_connect.c **** }
 111              		.loc 1 226 0
 112 00ac 10D08DE2 		add	sp, sp, #16
 113              		.cfi_def_cfa_offset 8
 114              		@ sp needed
 115 00b0 1080BDE8 		pop	{r4, pc}
 116              	.LVL14:
 117              	.L15:
 118              		.align	2
 119              	.L14:
 120 00b4 28000000 		.word	Unity+40
 121 00b8 00000000 		.word	.LC0
 122 00bc 19000000 		.word	.LC1
 123 00c0 2A000000 		.word	.LC2
 124              		.cfi_endproc
 125              	.LFE1:
 127              		.section	.text.GGD_SecureConnect_Connect,"ax",%progbits
 128              		.align	2
 129              		.global	GGD_SecureConnect_Connect
 130              		.syntax unified
 131              		.arm
 132              		.fpu neon
 134              	GGD_SecureConnect_Connect:
 135              	.LFB0:
  62:D:/Work/DeviceTester/amazon-freertos/lib/greengrass\aws_helper_secure_connect.c ****     const TickType_t xReceiveTimeOut = pdMS_TO_TICKS( ulReceiveTimeOut );
 136              		.loc 1 62 0
 137              		.cfi_startproc
 138              		@ args = 0, pretend = 0, frame = 16
 139              		@ frame_needed = 0, uses_anonymous_args = 0
 140              	.LVL15:
 141 0000 F0472DE9 		push	{r4, r5, r6, r7, r8, r9, r10, lr}
 142              		.cfi_def_cfa_offset 32
 143              		.cfi_offset 4, -32
 144              		.cfi_offset 5, -28
 145              		.cfi_offset 6, -24
 146              		.cfi_offset 7, -20
 147              		.cfi_offset 8, -16
 148              		.cfi_offset 9, -12
 149              		.cfi_offset 10, -8
 150              		.cfi_offset 14, -4
 151 0004 0150A0E1 		mov	r5, r1
  63:D:/Work/DeviceTester/amazon-freertos/lib/greengrass\aws_helper_secure_connect.c ****     const TickType_t xSendTimeOut = pdMS_TO_TICKS( ulSendTimeOut );
 152              		.loc 1 63 0
 153 0008 FA1FA0E3 		mov	r1, #1000
 154              	.LVL16:
 155 000c 64C29FE5 		ldr	ip, .L57
 156 0010 910202E0 		mul	r2, r1, r2
 157              	.LVL17:
  62:D:/Work/DeviceTester/amazon-freertos/lib/greengrass\aws_helper_secure_connect.c ****     const TickType_t xReceiveTimeOut = pdMS_TO_TICKS( ulReceiveTimeOut );
 158              		.loc 1 62 0
 159 0014 18D04DE2 		sub	sp, sp, #24
 160              		.cfi_def_cfa_offset 56
  64:D:/Work/DeviceTester/amazon-freertos/lib/greengrass\aws_helper_secure_connect.c ****     SocketsSockaddr_t xServerAddress;
 161              		.loc 1 64 0
 162 0018 910303E0 		mul	r3, r1, r3
 163              	.LVL18:
  63:D:/Work/DeviceTester/amazon-freertos/lib/greengrass\aws_helper_secure_connect.c ****     const TickType_t xSendTimeOut = pdMS_TO_TICKS( ulSendTimeOut );
 164              		.loc 1 63 0
 165 001c 926C87E0 		umull	r6, r7, r2, ip
  70:D:/Work/DeviceTester/amazon-freertos/lib/greengrass\aws_helper_secure_connect.c ****     configASSERT( pxSocket != NULL );
 166              		.loc 1 70 0
 167 0020 006050E2 		subs	r6, r0, #0
  63:D:/Work/DeviceTester/amazon-freertos/lib/greengrass\aws_helper_secure_connect.c ****     const TickType_t xSendTimeOut = pdMS_TO_TICKS( ulSendTimeOut );
 168              		.loc 1 63 0
 169 0024 2723A0E1 		lsr	r2, r7, #6
 170 0028 08208DE5 		str	r2, [sp, #8]
  64:D:/Work/DeviceTester/amazon-freertos/lib/greengrass\aws_helper_secure_connect.c ****     SocketsSockaddr_t xServerAddress;
 171              		.loc 1 64 0
 172 002c 932C83E0 		umull	r2, r3, r3, ip
 173 0030 2333A0E1 		lsr	r3, r3, #6
 174 0034 0C308DE5 		str	r3, [sp, #12]
  70:D:/Work/DeviceTester/amazon-freertos/lib/greengrass\aws_helper_secure_connect.c ****     configASSERT( pxSocket != NULL );
 175              		.loc 1 70 0
 176 0038 0200001A 		bne	.L17
 177              	.L18:
  70:D:/Work/DeviceTester/amazon-freertos/lib/greengrass\aws_helper_secure_connect.c ****     configASSERT( pxSocket != NULL );
 178              		.loc 1 70 0 is_stmt 0 discriminator 1
 179 003c 0110A0E3 		mov	r1, #1
 180 0040 34029FE5 		ldr	r0, .L57+4
 181              	.LVL19:
 182 0044 FEFFFFEB 		bl	longjmp
 183              	.LVL20:
 184              	.L17:
  71:D:/Work/DeviceTester/amazon-freertos/lib/greengrass\aws_helper_secure_connect.c **** 
 185              		.loc 1 71 0 is_stmt 1
 186 0048 000055E3 		cmp	r5, #0
 187 004c FAFFFF0A 		beq	.L18
  74:D:/Work/DeviceTester/amazon-freertos/lib/greengrass\aws_helper_secure_connect.c **** 
 188              		.loc 1 74 0
 189 0050 000096E5 		ldr	r0, [r6]
 190              	.LVL21:
 191 0054 FEFFFFEB 		bl	strlen
 192              	.LVL22:
  78:D:/Work/DeviceTester/amazon-freertos/lib/greengrass\aws_helper_secure_connect.c ****     {
 193              		.loc 1 78 0
 194 0058 FD0050E3 		cmp	r0, #253
  74:D:/Work/DeviceTester/amazon-freertos/lib/greengrass\aws_helper_secure_connect.c **** 
 195              		.loc 1 74 0
 196 005c 0070A0E1 		mov	r7, r0
 197              	.LVL23:
  78:D:/Work/DeviceTester/amazon-freertos/lib/greengrass\aws_helper_secure_connect.c ****     {
 198              		.loc 1 78 0
 199 0060 2B00008A 		bhi	.L19
  81:D:/Work/DeviceTester/amazon-freertos/lib/greengrass\aws_helper_secure_connect.c ****                                     SOCKETS_SOCK_STREAM,
 200              		.loc 1 81 0
 201 0064 0620A0E3 		mov	r2, #6
 202 0068 0110A0E3 		mov	r1, #1
 203 006c 0200A0E3 		mov	r0, #2
 204              	.LVL24:
 205 0070 FEFFFFEB 		bl	SOCKETS_Socket
 206              	.LVL25:
  85:D:/Work/DeviceTester/amazon-freertos/lib/greengrass\aws_helper_secure_connect.c ****         {
 207              		.loc 1 85 0
 208 0074 010070E3 		cmn	r0, #1
  81:D:/Work/DeviceTester/amazon-freertos/lib/greengrass\aws_helper_secure_connect.c ****                                     SOCKETS_SOCK_STREAM,
 209              		.loc 1 81 0
 210 0078 000085E5 		str	r0, [r5]
  85:D:/Work/DeviceTester/amazon-freertos/lib/greengrass\aws_helper_secure_connect.c ****         {
 211              		.loc 1 85 0
 212 007c 2700001A 		bne	.L20
 213              	.LVL26:
 214              	.L56:
 175:D:/Work/DeviceTester/amazon-freertos/lib/greengrass\aws_helper_secure_connect.c ****     }
 215              		.loc 1 175 0
 216 0080 0000A0E3 		mov	r0, #0
 217              	.LVL27:
 218              	.L16:
 179:D:/Work/DeviceTester/amazon-freertos/lib/greengrass\aws_helper_secure_connect.c **** /*-----------------------------------------------------------*/
 219              		.loc 1 179 0
 220 0084 18D08DE2 		add	sp, sp, #24
 221              		.cfi_remember_state
 222              		.cfi_def_cfa_offset 32
 223              		@ sp needed
 224 0088 F087BDE8 		pop	{r4, r5, r6, r7, r8, r9, r10, pc}
 225              	.LVL28:
 226              	.L22:
 227              		.cfi_restore_state
 228 008c 994222E0 		mla	r2, r9, r2, r4
 229              	.LVL29:
 230              	.LBB4:
 231              	.LBB5:
 227:D:/Work/DeviceTester/amazon-freertos/lib/greengrass\aws_helper_secure_connect.c **** /*-----------------------------------------------------------*/
 228:D:/Work/DeviceTester/amazon-freertos/lib/greengrass\aws_helper_secure_connect.c **** 
 229:D:/Work/DeviceTester/amazon-freertos/lib/greengrass\aws_helper_secure_connect.c **** 
 230:D:/Work/DeviceTester/amazon-freertos/lib/greengrass\aws_helper_secure_connect.c **** BaseType_t GGD_SecureConnect_Send( const char * pcPayload, /*lint !e971 can use char without signed
 231:D:/Work/DeviceTester/amazon-freertos/lib/greengrass\aws_helper_secure_connect.c ****                                    const uint32_t ulPayloadSize,
 232:D:/Work/DeviceTester/amazon-freertos/lib/greengrass\aws_helper_secure_connect.c ****                                    const Socket_t xSocket )
 233:D:/Work/DeviceTester/amazon-freertos/lib/greengrass\aws_helper_secure_connect.c **** {
 234:D:/Work/DeviceTester/amazon-freertos/lib/greengrass\aws_helper_secure_connect.c ****     BaseType_t xStatus = pdFAIL;
 235:D:/Work/DeviceTester/amazon-freertos/lib/greengrass\aws_helper_secure_connect.c ****     uint32_t ulBytesSent = 0;
 236:D:/Work/DeviceTester/amazon-freertos/lib/greengrass\aws_helper_secure_connect.c ****     int32_t lSendRetVal;
 237:D:/Work/DeviceTester/amazon-freertos/lib/greengrass\aws_helper_secure_connect.c **** 
 238:D:/Work/DeviceTester/amazon-freertos/lib/greengrass\aws_helper_secure_connect.c ****     configASSERT( pcPayload != NULL );
 239:D:/Work/DeviceTester/amazon-freertos/lib/greengrass\aws_helper_secure_connect.c **** 
 240:D:/Work/DeviceTester/amazon-freertos/lib/greengrass\aws_helper_secure_connect.c ****     /* Keep re-trying until timeout or any error
 241:D:/Work/DeviceTester/amazon-freertos/lib/greengrass\aws_helper_secure_connect.c ****      * other than SOCKETS_EWOULDBLOCK occurs. */
 242:D:/Work/DeviceTester/amazon-freertos/lib/greengrass\aws_helper_secure_connect.c **** 
 243:D:/Work/DeviceTester/amazon-freertos/lib/greengrass\aws_helper_secure_connect.c ****     if( ulPayloadSize > 0 )
 244:D:/Work/DeviceTester/amazon-freertos/lib/greengrass\aws_helper_secure_connect.c ****     {
 245:D:/Work/DeviceTester/amazon-freertos/lib/greengrass\aws_helper_secure_connect.c ****         while( ulBytesSent < ulPayloadSize )
 246:D:/Work/DeviceTester/amazon-freertos/lib/greengrass\aws_helper_secure_connect.c ****         {
 247:D:/Work/DeviceTester/amazon-freertos/lib/greengrass\aws_helper_secure_connect.c ****             /* Try sending the remaining data. */
 248:D:/Work/DeviceTester/amazon-freertos/lib/greengrass\aws_helper_secure_connect.c ****             lSendRetVal = SOCKETS_Send( xSocket,
 249:D:/Work/DeviceTester/amazon-freertos/lib/greengrass\aws_helper_secure_connect.c ****                                         ( const unsigned char * ) &pcPayload[ ulBytesSent ],
 250:D:/Work/DeviceTester/amazon-freertos/lib/greengrass\aws_helper_secure_connect.c ****                                         ( size_t ) ( ulPayloadSize - ulBytesSent ),
 251:D:/Work/DeviceTester/amazon-freertos/lib/greengrass\aws_helper_secure_connect.c ****                                         ( uint32_t ) 0 );
 252:D:/Work/DeviceTester/amazon-freertos/lib/greengrass\aws_helper_secure_connect.c **** 
 253:D:/Work/DeviceTester/amazon-freertos/lib/greengrass\aws_helper_secure_connect.c ****             /* A negative return value from SOCKETS_Send
 254:D:/Work/DeviceTester/amazon-freertos/lib/greengrass\aws_helper_secure_connect.c ****              * means some error occurred. */
 255:D:/Work/DeviceTester/amazon-freertos/lib/greengrass\aws_helper_secure_connect.c ****             if( lSendRetVal < 0 )
 256:D:/Work/DeviceTester/amazon-freertos/lib/greengrass\aws_helper_secure_connect.c ****             {
 257:D:/Work/DeviceTester/amazon-freertos/lib/greengrass\aws_helper_secure_connect.c ****                 break;
 258:D:/Work/DeviceTester/amazon-freertos/lib/greengrass\aws_helper_secure_connect.c ****             }
 259:D:/Work/DeviceTester/amazon-freertos/lib/greengrass\aws_helper_secure_connect.c ****             else
 260:D:/Work/DeviceTester/amazon-freertos/lib/greengrass\aws_helper_secure_connect.c ****             {
 261:D:/Work/DeviceTester/amazon-freertos/lib/greengrass\aws_helper_secure_connect.c ****                 /* Update the count of sent bytes. */
 262:D:/Work/DeviceTester/amazon-freertos/lib/greengrass\aws_helper_secure_connect.c ****                 ulBytesSent += ( uint32_t ) lSendRetVal;
 263:D:/Work/DeviceTester/amazon-freertos/lib/greengrass\aws_helper_secure_connect.c ****             }
 264:D:/Work/DeviceTester/amazon-freertos/lib/greengrass\aws_helper_secure_connect.c ****         }
 265:D:/Work/DeviceTester/amazon-freertos/lib/greengrass\aws_helper_secure_connect.c **** 
 266:D:/Work/DeviceTester/amazon-freertos/lib/greengrass\aws_helper_secure_connect.c ****         if( ulBytesSent == ulPayloadSize )
 267:D:/Work/DeviceTester/amazon-freertos/lib/greengrass\aws_helper_secure_connect.c ****         {
 268:D:/Work/DeviceTester/amazon-freertos/lib/greengrass\aws_helper_secure_connect.c ****             xStatus = pdPASS;
 269:D:/Work/DeviceTester/amazon-freertos/lib/greengrass\aws_helper_secure_connect.c ****         }
 270:D:/Work/DeviceTester/amazon-freertos/lib/greengrass\aws_helper_secure_connect.c ****         else
 271:D:/Work/DeviceTester/amazon-freertos/lib/greengrass\aws_helper_secure_connect.c ****         {
 272:D:/Work/DeviceTester/amazon-freertos/lib/greengrass\aws_helper_secure_connect.c ****             ggdconfigPRINT( "SecureConnect - error sending secure data to network\r\n" );
 273:D:/Work/DeviceTester/amazon-freertos/lib/greengrass\aws_helper_secure_connect.c ****             xStatus = pdFAIL;
 274:D:/Work/DeviceTester/amazon-freertos/lib/greengrass\aws_helper_secure_connect.c ****         }
 275:D:/Work/DeviceTester/amazon-freertos/lib/greengrass\aws_helper_secure_connect.c ****     }
 276:D:/Work/DeviceTester/amazon-freertos/lib/greengrass\aws_helper_secure_connect.c ****     else
 277:D:/Work/DeviceTester/amazon-freertos/lib/greengrass\aws_helper_secure_connect.c ****     {
 278:D:/Work/DeviceTester/amazon-freertos/lib/greengrass\aws_helper_secure_connect.c ****         xStatus = pdPASS;
 279:D:/Work/DeviceTester/amazon-freertos/lib/greengrass\aws_helper_secure_connect.c ****     }
 280:D:/Work/DeviceTester/amazon-freertos/lib/greengrass\aws_helper_secure_connect.c **** 
 281:D:/Work/DeviceTester/amazon-freertos/lib/greengrass\aws_helper_secure_connect.c ****     return xStatus;
 282:D:/Work/DeviceTester/amazon-freertos/lib/greengrass\aws_helper_secure_connect.c **** }
 283:D:/Work/DeviceTester/amazon-freertos/lib/greengrass\aws_helper_secure_connect.c **** /*-----------------------------------------------------------*/
 284:D:/Work/DeviceTester/amazon-freertos/lib/greengrass\aws_helper_secure_connect.c **** 
 285:D:/Work/DeviceTester/amazon-freertos/lib/greengrass\aws_helper_secure_connect.c **** BaseType_t GGD_SecureConnect_Read( char * pcBuffer, /*lint !e971 can use char without signed/unsign
 286:D:/Work/DeviceTester/amazon-freertos/lib/greengrass\aws_helper_secure_connect.c ****                                    const uint32_t ulBufferSize,
 287:D:/Work/DeviceTester/amazon-freertos/lib/greengrass\aws_helper_secure_connect.c ****                                    const Socket_t xSocket,
 288:D:/Work/DeviceTester/amazon-freertos/lib/greengrass\aws_helper_secure_connect.c ****                                    uint32_t * pulDataRecvSize )
 289:D:/Work/DeviceTester/amazon-freertos/lib/greengrass\aws_helper_secure_connect.c **** {
 290:D:/Work/DeviceTester/amazon-freertos/lib/greengrass\aws_helper_secure_connect.c ****     int32_t lTmpStatus = 0;
 291:D:/Work/DeviceTester/amazon-freertos/lib/greengrass\aws_helper_secure_connect.c ****     BaseType_t xStatus = pdFAIL;
 292:D:/Work/DeviceTester/amazon-freertos/lib/greengrass\aws_helper_secure_connect.c ****     uint16_t usNbRetry;
 293:D:/Work/DeviceTester/amazon-freertos/lib/greengrass\aws_helper_secure_connect.c **** 
 294:D:/Work/DeviceTester/amazon-freertos/lib/greengrass\aws_helper_secure_connect.c ****     configASSERT( pulDataRecvSize != NULL );
 295:D:/Work/DeviceTester/amazon-freertos/lib/greengrass\aws_helper_secure_connect.c ****     configASSERT( pcBuffer != NULL );
 296:D:/Work/DeviceTester/amazon-freertos/lib/greengrass\aws_helper_secure_connect.c **** 
 297:D:/Work/DeviceTester/amazon-freertos/lib/greengrass\aws_helper_secure_connect.c ****     for( usNbRetry = 0; usNbRetry < ( uint16_t ) ggdconfigTCP_RECEIVE_RETRY; usNbRetry++ )
 298:D:/Work/DeviceTester/amazon-freertos/lib/greengrass\aws_helper_secure_connect.c ****     {
 299:D:/Work/DeviceTester/amazon-freertos/lib/greengrass\aws_helper_secure_connect.c ****         lTmpStatus = SOCKETS_Recv( xSocket, ( unsigned char * ) pcBuffer,
 300:D:/Work/DeviceTester/amazon-freertos/lib/greengrass\aws_helper_secure_connect.c ****                                    ( uint32_t ) ulBufferSize,
 301:D:/Work/DeviceTester/amazon-freertos/lib/greengrass\aws_helper_secure_connect.c ****                                    ( uint32_t ) 0 );
 302:D:/Work/DeviceTester/amazon-freertos/lib/greengrass\aws_helper_secure_connect.c **** 
 303:D:/Work/DeviceTester/amazon-freertos/lib/greengrass\aws_helper_secure_connect.c ****         /* Check if it is a Timeout. */
 304:D:/Work/DeviceTester/amazon-freertos/lib/greengrass\aws_helper_secure_connect.c ****         if( lTmpStatus != 0 )
 305:D:/Work/DeviceTester/amazon-freertos/lib/greengrass\aws_helper_secure_connect.c ****         {
 306:D:/Work/DeviceTester/amazon-freertos/lib/greengrass\aws_helper_secure_connect.c ****             if( lTmpStatus < 0 )
 307:D:/Work/DeviceTester/amazon-freertos/lib/greengrass\aws_helper_secure_connect.c ****             {
 308:D:/Work/DeviceTester/amazon-freertos/lib/greengrass\aws_helper_secure_connect.c ****                 ggdconfigPRINT( "SecureConnect - recv error, %d\r\n", lTmpStatus );
 309:D:/Work/DeviceTester/amazon-freertos/lib/greengrass\aws_helper_secure_connect.c **** 
 310:D:/Work/DeviceTester/amazon-freertos/lib/greengrass\aws_helper_secure_connect.c ****                 xStatus = pdFAIL;
 311:D:/Work/DeviceTester/amazon-freertos/lib/greengrass\aws_helper_secure_connect.c ****             }
 312:D:/Work/DeviceTester/amazon-freertos/lib/greengrass\aws_helper_secure_connect.c ****             else
 313:D:/Work/DeviceTester/amazon-freertos/lib/greengrass\aws_helper_secure_connect.c ****             {
 314:D:/Work/DeviceTester/amazon-freertos/lib/greengrass\aws_helper_secure_connect.c ****                 xStatus = pdPASS;
 315:D:/Work/DeviceTester/amazon-freertos/lib/greengrass\aws_helper_secure_connect.c ****             }
 316:D:/Work/DeviceTester/amazon-freertos/lib/greengrass\aws_helper_secure_connect.c **** 
 317:D:/Work/DeviceTester/amazon-freertos/lib/greengrass\aws_helper_secure_connect.c ****             /* If it is not a timeout, break. */
 318:D:/Work/DeviceTester/amazon-freertos/lib/greengrass\aws_helper_secure_connect.c ****             break;
 319:D:/Work/DeviceTester/amazon-freertos/lib/greengrass\aws_helper_secure_connect.c ****         }
 320:D:/Work/DeviceTester/amazon-freertos/lib/greengrass\aws_helper_secure_connect.c ****         else
 321:D:/Work/DeviceTester/amazon-freertos/lib/greengrass\aws_helper_secure_connect.c ****         {
 322:D:/Work/DeviceTester/amazon-freertos/lib/greengrass\aws_helper_secure_connect.c ****             /* It is a timeout, retry. */
 323:D:/Work/DeviceTester/amazon-freertos/lib/greengrass\aws_helper_secure_connect.c ****             ggdconfigPRINT( "SecureConnect - recv Timeout\r\n" );
 324:D:/Work/DeviceTester/amazon-freertos/lib/greengrass\aws_helper_secure_connect.c ****         }
 325:D:/Work/DeviceTester/amazon-freertos/lib/greengrass\aws_helper_secure_connect.c ****     }
 326:D:/Work/DeviceTester/amazon-freertos/lib/greengrass\aws_helper_secure_connect.c **** 
 327:D:/Work/DeviceTester/amazon-freertos/lib/greengrass\aws_helper_secure_connect.c ****     if( usNbRetry == ( uint16_t ) ggdconfigTCP_RECEIVE_RETRY )
 328:D:/Work/DeviceTester/amazon-freertos/lib/greengrass\aws_helper_secure_connect.c ****     {
 329:D:/Work/DeviceTester/amazon-freertos/lib/greengrass\aws_helper_secure_connect.c ****         ggdconfigPRINT( "SecureConnect - recv number of Timeout exceeded\r\n" );
 330:D:/Work/DeviceTester/amazon-freertos/lib/greengrass\aws_helper_secure_connect.c ****         xStatus = pdFAIL;
 331:D:/Work/DeviceTester/amazon-freertos/lib/greengrass\aws_helper_secure_connect.c ****     }
 332:D:/Work/DeviceTester/amazon-freertos/lib/greengrass\aws_helper_secure_connect.c **** 
 333:D:/Work/DeviceTester/amazon-freertos/lib/greengrass\aws_helper_secure_connect.c ****     *pulDataRecvSize = ( uint32_t ) lTmpStatus;
 334:D:/Work/DeviceTester/amazon-freertos/lib/greengrass\aws_helper_secure_connect.c **** 
 335:D:/Work/DeviceTester/amazon-freertos/lib/greengrass\aws_helper_secure_connect.c ****     return xStatus;
 336:D:/Work/DeviceTester/amazon-freertos/lib/greengrass\aws_helper_secure_connect.c **** }
 337:D:/Work/DeviceTester/amazon-freertos/lib/greengrass\aws_helper_secure_connect.c **** /*-----------------------------------------------------------*/
 338:D:/Work/DeviceTester/amazon-freertos/lib/greengrass\aws_helper_secure_connect.c **** 
 339:D:/Work/DeviceTester/amazon-freertos/lib/greengrass\aws_helper_secure_connect.c **** 
 340:D:/Work/DeviceTester/amazon-freertos/lib/greengrass\aws_helper_secure_connect.c **** static uint32_t prvIsIPaddress( const char * pcIPAddress )
 341:D:/Work/DeviceTester/amazon-freertos/lib/greengrass\aws_helper_secure_connect.c **** {
 342:D:/Work/DeviceTester/amazon-freertos/lib/greengrass\aws_helper_secure_connect.c ****     const uint32_t ulDecimalBase = 10u;
 343:D:/Work/DeviceTester/amazon-freertos/lib/greengrass\aws_helper_secure_connect.c ****     uint8_t ucOctet[ helperMAX_IP_ADDRESS_OCTETS ];
 344:D:/Work/DeviceTester/amazon-freertos/lib/greengrass\aws_helper_secure_connect.c ****     const char * pcPointerOnEntering;
 345:D:/Work/DeviceTester/amazon-freertos/lib/greengrass\aws_helper_secure_connect.c ****     uint32_t ulReturn = 0UL, ulValue;
 346:D:/Work/DeviceTester/amazon-freertos/lib/greengrass\aws_helper_secure_connect.c ****     UBaseType_t uxOctetNumber;
 347:D:/Work/DeviceTester/amazon-freertos/lib/greengrass\aws_helper_secure_connect.c ****     BaseType_t xResult = pdPASS;
 348:D:/Work/DeviceTester/amazon-freertos/lib/greengrass\aws_helper_secure_connect.c **** 
 349:D:/Work/DeviceTester/amazon-freertos/lib/greengrass\aws_helper_secure_connect.c ****     for( uxOctetNumber = 0u; uxOctetNumber < helperMAX_IP_ADDRESS_OCTETS; uxOctetNumber++ )
 350:D:/Work/DeviceTester/amazon-freertos/lib/greengrass\aws_helper_secure_connect.c ****     {
 351:D:/Work/DeviceTester/amazon-freertos/lib/greengrass\aws_helper_secure_connect.c ****         ulValue = 0UL;
 352:D:/Work/DeviceTester/amazon-freertos/lib/greengrass\aws_helper_secure_connect.c ****         pcPointerOnEntering = pcIPAddress;
 353:D:/Work/DeviceTester/amazon-freertos/lib/greengrass\aws_helper_secure_connect.c **** 
 354:D:/Work/DeviceTester/amazon-freertos/lib/greengrass\aws_helper_secure_connect.c ****         while( ( *pcIPAddress >= '0' ) && ( *pcIPAddress <= '9' ) )
 355:D:/Work/DeviceTester/amazon-freertos/lib/greengrass\aws_helper_secure_connect.c ****         {
 356:D:/Work/DeviceTester/amazon-freertos/lib/greengrass\aws_helper_secure_connect.c ****             /* Move previous read characters into the next decimal
 357:D:/Work/DeviceTester/amazon-freertos/lib/greengrass\aws_helper_secure_connect.c ****              * position. */
 358:D:/Work/DeviceTester/amazon-freertos/lib/greengrass\aws_helper_secure_connect.c ****             ulValue *= ulDecimalBase;
 359:D:/Work/DeviceTester/amazon-freertos/lib/greengrass\aws_helper_secure_connect.c **** 
 360:D:/Work/DeviceTester/amazon-freertos/lib/greengrass\aws_helper_secure_connect.c ****             /* Add the binary value of the ascii character. */
 361:D:/Work/DeviceTester/amazon-freertos/lib/greengrass\aws_helper_secure_connect.c ****             ulValue += ( ( uint32_t ) ( *pcIPAddress ) - ( uint32_t ) '0' );
 232              		.loc 1 361 0
 233 0090 302042E2 		sub	r2, r2, #48
 234              	.LVL30:
 235              	.L26:
 236 0094 0E10A0E1 		mov	r1, lr
 237              	.LVL31:
 354:D:/Work/DeviceTester/amazon-freertos/lib/greengrass\aws_helper_secure_connect.c ****         {
 238              		.loc 1 354 0
 239 0098 0140DEE4 		ldrb	r4, [lr], #1	@ zero_extendqisi2
 240 009c 30A044E2 		sub	r10, r4, #48
 241 00a0 09005AE3 		cmp	r10, #9
 242 00a4 F8FFFF9A 		bls	.L22
 243              	.LVL32:
 362:D:/Work/DeviceTester/amazon-freertos/lib/greengrass\aws_helper_secure_connect.c **** 
 363:D:/Work/DeviceTester/amazon-freertos/lib/greengrass\aws_helper_secure_connect.c ****             /* Move to next character in the string. */
 364:D:/Work/DeviceTester/amazon-freertos/lib/greengrass\aws_helper_secure_connect.c ****             pcIPAddress++;
 365:D:/Work/DeviceTester/amazon-freertos/lib/greengrass\aws_helper_secure_connect.c ****         }
 366:D:/Work/DeviceTester/amazon-freertos/lib/greengrass\aws_helper_secure_connect.c **** 
 367:D:/Work/DeviceTester/amazon-freertos/lib/greengrass\aws_helper_secure_connect.c ****         /* Check characters were read. */
 368:D:/Work/DeviceTester/amazon-freertos/lib/greengrass\aws_helper_secure_connect.c ****         if( pcIPAddress == pcPointerOnEntering )
 369:D:/Work/DeviceTester/amazon-freertos/lib/greengrass\aws_helper_secure_connect.c ****         {
 370:D:/Work/DeviceTester/amazon-freertos/lib/greengrass\aws_helper_secure_connect.c ****             xResult = pdFAIL;
 371:D:/Work/DeviceTester/amazon-freertos/lib/greengrass\aws_helper_secure_connect.c ****         }
 372:D:/Work/DeviceTester/amazon-freertos/lib/greengrass\aws_helper_secure_connect.c **** 
 373:D:/Work/DeviceTester/amazon-freertos/lib/greengrass\aws_helper_secure_connect.c ****         /* Check the value fits in an 8-bit number. */
 374:D:/Work/DeviceTester/amazon-freertos/lib/greengrass\aws_helper_secure_connect.c ****         if( ulValue > 0xffUL )
 244              		.loc 1 374 0
 245 00a8 FF0052E3 		cmp	r2, #255
 246 00ac 0800008A 		bhi	.L39
 375:D:/Work/DeviceTester/amazon-freertos/lib/greengrass\aws_helper_secure_connect.c ****         {
 376:D:/Work/DeviceTester/amazon-freertos/lib/greengrass\aws_helper_secure_connect.c ****             xResult = pdFAIL;
 377:D:/Work/DeviceTester/amazon-freertos/lib/greengrass\aws_helper_secure_connect.c ****         }
 378:D:/Work/DeviceTester/amazon-freertos/lib/greengrass\aws_helper_secure_connect.c ****         else
 379:D:/Work/DeviceTester/amazon-freertos/lib/greengrass\aws_helper_secure_connect.c ****         {
 380:D:/Work/DeviceTester/amazon-freertos/lib/greengrass\aws_helper_secure_connect.c ****             ucOctet[ uxOctetNumber ] = ( uint8_t ) ulValue;
 381:D:/Work/DeviceTester/amazon-freertos/lib/greengrass\aws_helper_secure_connect.c **** 
 382:D:/Work/DeviceTester/amazon-freertos/lib/greengrass\aws_helper_secure_connect.c ****             /* Check the next character is as expected. */
 383:D:/Work/DeviceTester/amazon-freertos/lib/greengrass\aws_helper_secure_connect.c ****             if( uxOctetNumber < ( helperMAX_IP_ADDRESS_OCTETS - 1u ) )
 247              		.loc 1 383 0
 248 00b0 030053E3 		cmp	r3, #3
 380:D:/Work/DeviceTester/amazon-freertos/lib/greengrass\aws_helper_secure_connect.c **** 
 249              		.loc 1 380 0
 250 00b4 0820C3E7 		strb	r2, [r3, r8]
 251              		.loc 1 383 0
 252 00b8 6800000A 		beq	.L24
 384:D:/Work/DeviceTester/amazon-freertos/lib/greengrass\aws_helper_secure_connect.c ****             {
 385:D:/Work/DeviceTester/amazon-freertos/lib/greengrass\aws_helper_secure_connect.c ****                 if( *pcIPAddress != '.' )
 253              		.loc 1 385 0
 254 00bc 2E0054E3 		cmp	r4, #46
 255 00c0 0300001A 		bne	.L39
 386:D:/Work/DeviceTester/amazon-freertos/lib/greengrass\aws_helper_secure_connect.c ****                 {
 387:D:/Work/DeviceTester/amazon-freertos/lib/greengrass\aws_helper_secure_connect.c ****                     xResult = pdFAIL;
 388:D:/Work/DeviceTester/amazon-freertos/lib/greengrass\aws_helper_secure_connect.c ****                 }
 389:D:/Work/DeviceTester/amazon-freertos/lib/greengrass\aws_helper_secure_connect.c ****                 else
 390:D:/Work/DeviceTester/amazon-freertos/lib/greengrass\aws_helper_secure_connect.c ****                 {
 391:D:/Work/DeviceTester/amazon-freertos/lib/greengrass\aws_helper_secure_connect.c ****                     /* Move past the dot. */
 392:D:/Work/DeviceTester/amazon-freertos/lib/greengrass\aws_helper_secure_connect.c ****                     pcIPAddress++;
 393:D:/Work/DeviceTester/amazon-freertos/lib/greengrass\aws_helper_secure_connect.c ****                 }
 394:D:/Work/DeviceTester/amazon-freertos/lib/greengrass\aws_helper_secure_connect.c ****             }
 395:D:/Work/DeviceTester/amazon-freertos/lib/greengrass\aws_helper_secure_connect.c ****         }
 396:D:/Work/DeviceTester/amazon-freertos/lib/greengrass\aws_helper_secure_connect.c **** 
 397:D:/Work/DeviceTester/amazon-freertos/lib/greengrass\aws_helper_secure_connect.c ****         if( xResult == pdFAIL )
 256              		.loc 1 397 0
 257 00c4 0C0051E1 		cmp	r1, ip
 392:D:/Work/DeviceTester/amazon-freertos/lib/greengrass\aws_helper_secure_connect.c ****                 }
 258              		.loc 1 392 0
 259 00c8 0E20A0E1 		mov	r2, lr
 260              	.LVL33:
 261              		.loc 1 397 0
 262 00cc 0B00001A 		bne	.L25
 263              	.LVL34:
 264              	.L37:
 265 00d0 0210A0E1 		mov	r1, r2
 266              	.LVL35:
 267              	.L39:
 385:D:/Work/DeviceTester/amazon-freertos/lib/greengrass\aws_helper_secure_connect.c ****                 {
 268              		.loc 1 385 0
 269 00d4 0020A0E3 		mov	r2, #0
 270              	.L23:
 271              	.LVL36:
 398:D:/Work/DeviceTester/amazon-freertos/lib/greengrass\aws_helper_secure_connect.c ****         {
 399:D:/Work/DeviceTester/amazon-freertos/lib/greengrass\aws_helper_secure_connect.c ****             /* No point going on. */
 400:D:/Work/DeviceTester/amazon-freertos/lib/greengrass\aws_helper_secure_connect.c ****             break;
 401:D:/Work/DeviceTester/amazon-freertos/lib/greengrass\aws_helper_secure_connect.c ****         }
 402:D:/Work/DeviceTester/amazon-freertos/lib/greengrass\aws_helper_secure_connect.c ****     }
 403:D:/Work/DeviceTester/amazon-freertos/lib/greengrass\aws_helper_secure_connect.c **** 
 404:D:/Work/DeviceTester/amazon-freertos/lib/greengrass\aws_helper_secure_connect.c ****     if( *pcIPAddress != ( char ) 0 )
 272              		.loc 1 404 0
 273 00d8 0040D1E5 		ldrb	r4, [r1]	@ zero_extendqisi2
 274 00dc 000054E3 		cmp	r4, #0
 275 00e0 2C00001A 		bne	.L27
 405:D:/Work/DeviceTester/amazon-freertos/lib/greengrass\aws_helper_secure_connect.c ****     {
 406:D:/Work/DeviceTester/amazon-freertos/lib/greengrass\aws_helper_secure_connect.c ****         /* Expected the end of the string. */
 407:D:/Work/DeviceTester/amazon-freertos/lib/greengrass\aws_helper_secure_connect.c ****         xResult = pdFAIL;
 408:D:/Work/DeviceTester/amazon-freertos/lib/greengrass\aws_helper_secure_connect.c ****     }
 409:D:/Work/DeviceTester/amazon-freertos/lib/greengrass\aws_helper_secure_connect.c **** 
 410:D:/Work/DeviceTester/amazon-freertos/lib/greengrass\aws_helper_secure_connect.c ****     if( uxOctetNumber != helperMAX_IP_ADDRESS_OCTETS )
 276              		.loc 1 410 0
 277 00e4 040053E3 		cmp	r3, #4
 278 00e8 2D00001A 		bne	.L28
 411:D:/Work/DeviceTester/amazon-freertos/lib/greengrass\aws_helper_secure_connect.c ****     {
 412:D:/Work/DeviceTester/amazon-freertos/lib/greengrass\aws_helper_secure_connect.c ****         /* Didn't read enough octets. */
 413:D:/Work/DeviceTester/amazon-freertos/lib/greengrass\aws_helper_secure_connect.c ****         xResult = pdFAIL;
 414:D:/Work/DeviceTester/amazon-freertos/lib/greengrass\aws_helper_secure_connect.c ****     }
 415:D:/Work/DeviceTester/amazon-freertos/lib/greengrass\aws_helper_secure_connect.c **** 
 416:D:/Work/DeviceTester/amazon-freertos/lib/greengrass\aws_helper_secure_connect.c ****     if( xResult == pdPASS )
 279              		.loc 1 416 0
 280 00ec 010052E3 		cmp	r2, #1
 417:D:/Work/DeviceTester/amazon-freertos/lib/greengrass\aws_helper_secure_connect.c ****     {
 418:D:/Work/DeviceTester/amazon-freertos/lib/greengrass\aws_helper_secure_connect.c ****         ulReturn = SOCKETS_inet_addr_quick( ucOctet[ 0 ], ucOctet[ 1 ], ucOctet[ 2 ], ucOctet[ 3 ] 
 281              		.loc 1 418 0
 282 00f0 10409D05 		ldreq	r4, [sp, #16]
 416:D:/Work/DeviceTester/amazon-freertos/lib/greengrass\aws_helper_secure_connect.c ****     {
 283              		.loc 1 416 0
 284 00f4 2A00000A 		beq	.L28
 285              	.LVL37:
 286              	.L29:
 287              	.LBE5:
 288              	.LBE4:
  98:D:/Work/DeviceTester/amazon-freertos/lib/greengrass\aws_helper_secure_connect.c ****             }
 289              		.loc 1 98 0
 290 00f8 0040A0E3 		mov	r4, #0
 291 00fc 2A0000EA 		b	.L34
 292              	.LVL38:
 293              	.L25:
 294              	.LBB10:
 295              	.LBB6:
 349:D:/Work/DeviceTester/amazon-freertos/lib/greengrass\aws_helper_secure_connect.c ****     {
 296              		.loc 1 349 0
 297 0100 013083E2 		add	r3, r3, #1
 298              	.LVL39:
 392:D:/Work/DeviceTester/amazon-freertos/lib/greengrass\aws_helper_secure_connect.c ****                 }
 299              		.loc 1 392 0
 300 0104 0EC0A0E1 		mov	ip, lr
 301              	.LVL40:
 302              	.L33:
 303 0108 0CE0A0E1 		mov	lr, ip
 304              	.LBE6:
 305              	.LBE10:
  62:D:/Work/DeviceTester/amazon-freertos/lib/greengrass\aws_helper_secure_connect.c ****     const TickType_t xReceiveTimeOut = pdMS_TO_TICKS( ulReceiveTimeOut );
 306              		.loc 1 62 0
 307 010c 0020A0E3 		mov	r2, #0
 308 0110 DFFFFFEA 		b	.L26
 309              	.LVL41:
 310              	.L19:
 174:D:/Work/DeviceTester/amazon-freertos/lib/greengrass\aws_helper_secure_connect.c ****         xStatus = pdFAIL;
 311              		.loc 1 174 0
 312 0114 64019FE5 		ldr	r0, .L57+8
 313              	.LVL42:
 314 0118 FEFFFFEB 		bl	vLoggingPrintf
 315              	.LVL43:
 316 011c D7FFFFEA 		b	.L56
 317              	.L20:
 318              	.LVL44:
  96:D:/Work/DeviceTester/amazon-freertos/lib/greengrass\aws_helper_secure_connect.c ****             {
 319              		.loc 1 96 0
 320 0120 000096E5 		ldr	r0, [r6]
 321              	.LVL45:
 322              	.LBB11:
 323              	.LBB7:
 349:D:/Work/DeviceTester/amazon-freertos/lib/greengrass\aws_helper_secure_connect.c ****     {
 324              		.loc 1 349 0
 325 0124 0030A0E3 		mov	r3, #0
 358:D:/Work/DeviceTester/amazon-freertos/lib/greengrass\aws_helper_secure_connect.c **** 
 326              		.loc 1 358 0
 327 0128 0A90A0E3 		mov	r9, #10
 380:D:/Work/DeviceTester/amazon-freertos/lib/greengrass\aws_helper_secure_connect.c **** 
 328              		.loc 1 380 0
 329 012c 10808DE2 		add	r8, sp, #16
 330              	.LBE7:
 331              	.LBE11:
  96:D:/Work/DeviceTester/amazon-freertos/lib/greengrass\aws_helper_secure_connect.c ****             {
 332              		.loc 1 96 0
 333 0130 00C0A0E1 		mov	ip, r0
 334 0134 F3FFFFEA 		b	.L33
 335              	.LVL46:
 336              	.L31:
 145:D:/Work/DeviceTester/amazon-freertos/lib/greengrass\aws_helper_secure_connect.c ****             {
 337              		.loc 1 145 0
 338 0138 000054E3 		cmp	r4, #0
 339 013c CFFFFF1A 		bne	.L56
 340              	.LVL47:
 341              	.L35:
 147:D:/Work/DeviceTester/amazon-freertos/lib/greengrass\aws_helper_secure_connect.c ****                                         0,
 342              		.loc 1 147 0
 343 0140 017087E2 		add	r7, r7, #1
 344              	.LVL48:
 345 0144 0620A0E3 		mov	r2, #6
 346 0148 00708DE5 		str	r7, [sp]
 347 014c 0010A0E3 		mov	r1, #0
 348 0150 003096E5 		ldr	r3, [r6]
 349 0154 000095E5 		ldr	r0, [r5]
 350 0158 FEFFFFEB 		bl	SOCKETS_SetSockOpt
 351              	.LVL49:
 159:D:/Work/DeviceTester/amazon-freertos/lib/greengrass\aws_helper_secure_connect.c ****             {
 352              		.loc 1 159 0
 353 015c 000050E3 		cmp	r0, #0
 354 0160 0040A013 		movne	r4, #0
 355 0164 01400402 		andeq	r4, r4, #1
 356              	.LVL50:
 357 0168 000054E3 		cmp	r4, #0
 358 016c C3FFFF0A 		beq	.L56
 359              	.LVL51:
 360              	.L36:
 161:D:/Work/DeviceTester/amazon-freertos/lib/greengrass\aws_helper_secure_connect.c ****                                        &xServerAddress,
 361              		.loc 1 161 0
 362 0170 0820A0E3 		mov	r2, #8
 363 0174 10108DE2 		add	r1, sp, #16
 364 0178 000095E5 		ldr	r0, [r5]
 365 017c FEFFFFEB 		bl	SOCKETS_Connect
 366              	.LVL52:
 367 0180 000050E3 		cmp	r0, #0
 368 0184 0100A003 		moveq	r0, #1
 369 0188 BDFFFF0A 		beq	.L16
 166:D:/Work/DeviceTester/amazon-freertos/lib/greengrass\aws_helper_secure_connect.c ****                     xStatus = pdFAIL;
 370              		.loc 1 166 0
 371 018c 0500A0E1 		mov	r0, r5
 372 0190 FEFFFFEB 		bl	GGD_SecureConnect_Disconnect
 373              	.LVL53:
 374 0194 B9FFFFEA 		b	.L56
 375              	.LVL54:
 376              	.L27:
 377              	.LBB12:
 378              	.LBB8:
 410:D:/Work/DeviceTester/amazon-freertos/lib/greengrass\aws_helper_secure_connect.c ****     {
 379              		.loc 1 410 0
 380 0198 040053E3 		cmp	r3, #4
 345:D:/Work/DeviceTester/amazon-freertos/lib/greengrass\aws_helper_secure_connect.c ****     UBaseType_t uxOctetNumber;
 381              		.loc 1 345 0
 382 019c 0040A013 		movne	r4, #0
 410:D:/Work/DeviceTester/amazon-freertos/lib/greengrass\aws_helper_secure_connect.c ****     {
 383              		.loc 1 410 0
 384 01a0 D4FFFF0A 		beq	.L29
 385              	.LVL55:
 386              	.L28:
 387              	.LBE8:
 388              	.LBE12:
  96:D:/Work/DeviceTester/amazon-freertos/lib/greengrass\aws_helper_secure_connect.c ****             {
 389              		.loc 1 96 0
 390 01a4 004094E2 		adds	r4, r4, #0
 391 01a8 0140A013 		movne	r4, #1
 392              	.L34:
 393              	.LVL56:
 106:D:/Work/DeviceTester/amazon-freertos/lib/greengrass\aws_helper_secure_connect.c ****             xServerAddress.ulAddress =
 394              		.loc 1 106 0
 395 01ac BC20D6E1 		ldrh	r2, [r6, #12]
 105:D:/Work/DeviceTester/amazon-freertos/lib/greengrass\aws_helper_secure_connect.c ****             xServerAddress.usPort = SOCKETS_htons( pxHostAddressData->usPort );
 396              		.loc 1 105 0
 397 01b0 0890A0E3 		mov	r9, #8
 112:D:/Work/DeviceTester/amazon-freertos/lib/greengrass\aws_helper_secure_connect.c ****                                          0,
 398              		.loc 1 112 0
 399 01b4 0480A0E3 		mov	r8, #4
 105:D:/Work/DeviceTester/amazon-freertos/lib/greengrass\aws_helper_secure_connect.c ****             xServerAddress.usPort = SOCKETS_htons( pxHostAddressData->usPort );
 400              		.loc 1 105 0
 401 01b8 1090CDE5 		strb	r9, [sp, #16]
 106:D:/Work/DeviceTester/amazon-freertos/lib/greengrass\aws_helper_secure_connect.c ****             xServerAddress.ulAddress =
 402              		.loc 1 106 0
 403 01bc 3239A0E1 		lsr	r3, r2, r9
 404 01c0 123983E1 		orr	r3, r3, r2, lsl r9
 405 01c4 B231CDE1 		strh	r3, [sp, #18]	@ movhi
 108:D:/Work/DeviceTester/amazon-freertos/lib/greengrass\aws_helper_secure_connect.c ****             xServerAddress.ucSocketDomain = SOCKETS_AF_INET;
 406              		.loc 1 108 0
 407 01c8 FEFFFFEB 		bl	SOCKETS_GetHostByName
 408              	.LVL57:
 109:D:/Work/DeviceTester/amazon-freertos/lib/greengrass\aws_helper_secure_connect.c **** 
 409              		.loc 1 109 0
 410 01cc 0230A0E3 		mov	r3, #2
 107:D:/Work/DeviceTester/amazon-freertos/lib/greengrass\aws_helper_secure_connect.c ****                 SOCKETS_GetHostByName( pxHostAddressData->pcHostAddress );
 411              		.loc 1 107 0
 412 01d0 14008DE5 		str	r0, [sp, #20]
 109:D:/Work/DeviceTester/amazon-freertos/lib/greengrass\aws_helper_secure_connect.c **** 
 413              		.loc 1 109 0
 414 01d4 1130CDE5 		strb	r3, [sp, #17]
 112:D:/Work/DeviceTester/amazon-freertos/lib/greengrass\aws_helper_secure_connect.c ****                                          0,
 415              		.loc 1 112 0
 416 01d8 0120A0E3 		mov	r2, #1
 417 01dc 00808DE5 		str	r8, [sp]
 418 01e0 0C308DE2 		add	r3, sp, #12
 419 01e4 0010A0E3 		mov	r1, #0
 420 01e8 000095E5 		ldr	r0, [r5]
 421 01ec FEFFFFEB 		bl	SOCKETS_SetSockOpt
 422              	.LVL58:
 119:D:/Work/DeviceTester/amazon-freertos/lib/greengrass\aws_helper_secure_connect.c ****                                          0,
 423              		.loc 1 119 0
 424 01f0 0020A0E3 		mov	r2, #0
 425 01f4 00808DE5 		str	r8, [sp]
 426 01f8 0210A0E1 		mov	r1, r2
 126:D:/Work/DeviceTester/amazon-freertos/lib/greengrass\aws_helper_secure_connect.c ****                                          0,
 427              		.loc 1 126 0
 428 01fc 0080A0E3 		mov	r8, #0
 119:D:/Work/DeviceTester/amazon-freertos/lib/greengrass\aws_helper_secure_connect.c ****                                          0,
 429              		.loc 1 119 0
 430 0200 09308DE0 		add	r3, sp, r9
 431 0204 000095E5 		ldr	r0, [r5]
 432 0208 FEFFFFEB 		bl	SOCKETS_SetSockOpt
 433              	.LVL59:
 126:D:/Work/DeviceTester/amazon-freertos/lib/greengrass\aws_helper_secure_connect.c ****                                          0,
 434              		.loc 1 126 0
 435 020c 0830A0E1 		mov	r3, r8
 436 0210 00808DE5 		str	r8, [sp]
 437 0214 0920A0E1 		mov	r2, r9
 438 0218 0810A0E1 		mov	r1, r8
 439 021c 000095E5 		ldr	r0, [r5]
 440 0220 FEFFFFEB 		bl	SOCKETS_SetSockOpt
 441              	.LVL60:
 132:D:/Work/DeviceTester/amazon-freertos/lib/greengrass\aws_helper_secure_connect.c ****             {
 442              		.loc 1 132 0
 443 0224 043096E5 		ldr	r3, [r6, #4]
 444 0228 080053E1 		cmp	r3, r8
 445 022c 0700000A 		beq	.L30
 134:D:/Work/DeviceTester/amazon-freertos/lib/greengrass\aws_helper_secure_connect.c ****                                         0,
 446              		.loc 1 134 0
 447 0230 082096E5 		ldr	r2, [r6, #8]
 448 0234 0810A0E1 		mov	r1, r8
 449 0238 000095E5 		ldr	r0, [r5]
 450 023c 00208DE5 		str	r2, [sp]
 451 0240 0720A0E3 		mov	r2, #7
 452 0244 FEFFFFEB 		bl	SOCKETS_SetSockOpt
 453              	.LVL61:
 454 0248 080050E1 		cmp	r0, r8
 455 024c B9FFFF1A 		bne	.L31
 456              	.L30:
 145:D:/Work/DeviceTester/amazon-freertos/lib/greengrass\aws_helper_secure_connect.c ****             {
 457              		.loc 1 145 0
 458 0250 000054E3 		cmp	r4, #0
 459 0254 0140A003 		moveq	r4, #1
 460              	.LVL62:
 461 0258 B8FFFF0A 		beq	.L35
 462 025c C3FFFFEA 		b	.L36
 463              	.LVL63:
 464              	.L24:
 465              	.LBB13:
 466              	.LBB9:
 397:D:/Work/DeviceTester/amazon-freertos/lib/greengrass\aws_helper_secure_connect.c ****         {
 467              		.loc 1 397 0
 468 0260 0C0051E1 		cmp	r1, ip
 469 0264 0430A013 		movne	r3, #4
 470              	.LVL64:
 471 0268 0120A013 		movne	r2, #1
 472              	.LVL65:
 473 026c 99FFFF1A 		bne	.L23
 474 0270 0C20A0E1 		mov	r2, ip
 475 0274 95FFFFEA 		b	.L37
 476              	.L58:
 477              		.align	2
 478              	.L57:
 479 0278 D34D6210 		.word	274877907
 480 027c 28000000 		.word	Unity+40
 481 0280 00000000 		.word	.LC3
 482              	.LBE9:
 483              	.LBE13:
 484              		.cfi_endproc
 485              	.LFE0:
 487              		.section	.text.GGD_SecureConnect_Send,"ax",%progbits
 488              		.align	2
 489              		.global	GGD_SecureConnect_Send
 490              		.syntax unified
 491              		.arm
 492              		.fpu neon
 494              	GGD_SecureConnect_Send:
 495              	.LFB2:
 233:D:/Work/DeviceTester/amazon-freertos/lib/greengrass\aws_helper_secure_connect.c ****     BaseType_t xStatus = pdFAIL;
 496              		.loc 1 233 0
 497              		.cfi_startproc
 498              		@ args = 0, pretend = 0, frame = 0
 499              		@ frame_needed = 0, uses_anonymous_args = 0
 500              	.LVL66:
 501 0000 F0412DE9 		push	{r4, r5, r6, r7, r8, lr}
 502              		.cfi_def_cfa_offset 24
 503              		.cfi_offset 4, -24
 504              		.cfi_offset 5, -20
 505              		.cfi_offset 6, -16
 506              		.cfi_offset 7, -12
 507              		.cfi_offset 8, -8
 508              		.cfi_offset 14, -4
 238:D:/Work/DeviceTester/amazon-freertos/lib/greengrass\aws_helper_secure_connect.c **** 
 509              		.loc 1 238 0
 510 0004 006050E2 		subs	r6, r0, #0
 511 0008 0200001A 		bne	.L60
 238:D:/Work/DeviceTester/amazon-freertos/lib/greengrass\aws_helper_secure_connect.c **** 
 512              		.loc 1 238 0 is_stmt 0 discriminator 1
 513 000c 0110A0E3 		mov	r1, #1
 514              	.LVL67:
 515 0010 5C009FE5 		ldr	r0, .L71
 516              	.LVL68:
 517 0014 FEFFFFEB 		bl	longjmp
 518              	.LVL69:
 519              	.L60:
 243:D:/Work/DeviceTester/amazon-freertos/lib/greengrass\aws_helper_secure_connect.c ****     {
 520              		.loc 1 243 0 is_stmt 1
 521 0018 000051E3 		cmp	r1, #0
 522 001c 0150A0E1 		mov	r5, r1
 523 0020 0270A011 		movne	r7, r2
 524 0024 0040A013 		movne	r4, #0
 525 0028 0D00001A 		bne	.L62
 526              	.LVL70:
 527              	.L61:
 278:D:/Work/DeviceTester/amazon-freertos/lib/greengrass\aws_helper_secure_connect.c ****     }
 528              		.loc 1 278 0
 529 002c 0100A0E3 		mov	r0, #1
 530 0030 F081BDE8 		pop	{r4, r5, r6, r7, r8, pc}
 531              	.LVL71:
 532              	.L65:
 248:D:/Work/DeviceTester/amazon-freertos/lib/greengrass\aws_helper_secure_connect.c ****                                         ( const unsigned char * ) &pcPayload[ ulBytesSent ],
 533              		.loc 1 248 0
 534 0034 0030A0E3 		mov	r3, #0
 535 0038 042045E0 		sub	r2, r5, r4
 536 003c 041086E0 		add	r1, r6, r4
 537 0040 0700A0E1 		mov	r0, r7
 538 0044 FEFFFFEB 		bl	SOCKETS_Send
 539              	.LVL72:
 255:D:/Work/DeviceTester/amazon-freertos/lib/greengrass\aws_helper_secure_connect.c ****             {
 540              		.loc 1 255 0
 541 0048 000050E3 		cmp	r0, #0
 542 004c 030000AA 		bge	.L64
 543              	.LVL73:
 544              	.L66:
 272:D:/Work/DeviceTester/amazon-freertos/lib/greengrass\aws_helper_secure_connect.c ****             xStatus = pdFAIL;
 545              		.loc 1 272 0
 546 0050 20009FE5 		ldr	r0, .L71+4
 547 0054 FEFFFFEB 		bl	vLoggingPrintf
 548              	.LVL74:
 273:D:/Work/DeviceTester/amazon-freertos/lib/greengrass\aws_helper_secure_connect.c ****         }
 549              		.loc 1 273 0
 550 0058 0000A0E3 		mov	r0, #0
 551 005c F081BDE8 		pop	{r4, r5, r6, r7, r8, pc}
 552              	.LVL75:
 553              	.L64:
 262:D:/Work/DeviceTester/amazon-freertos/lib/greengrass\aws_helper_secure_connect.c ****             }
 554              		.loc 1 262 0
 555 0060 004084E0 		add	r4, r4, r0
 556              	.LVL76:
 557              	.L62:
 245:D:/Work/DeviceTester/amazon-freertos/lib/greengrass\aws_helper_secure_connect.c ****         {
 558              		.loc 1 245 0
 559 0064 050054E1 		cmp	r4, r5
 560 0068 F1FFFF3A 		bcc	.L65
 266:D:/Work/DeviceTester/amazon-freertos/lib/greengrass\aws_helper_secure_connect.c ****         {
 561              		.loc 1 266 0
 562 006c EEFFFF0A 		beq	.L61
 563 0070 F6FFFFEA 		b	.L66
 564              	.L72:
 565              		.align	2
 566              	.L71:
 567 0074 28000000 		.word	Unity+40
 568 0078 00000000 		.word	.LC4
 569              		.cfi_endproc
 570              	.LFE2:
 572              		.section	.text.GGD_SecureConnect_Read,"ax",%progbits
 573              		.align	2
 574              		.global	GGD_SecureConnect_Read
 575              		.syntax unified
 576              		.arm
 577              		.fpu neon
 579              	GGD_SecureConnect_Read:
 580              	.LFB3:
 289:D:/Work/DeviceTester/amazon-freertos/lib/greengrass\aws_helper_secure_connect.c ****     int32_t lTmpStatus = 0;
 581              		.loc 1 289 0
 582              		.cfi_startproc
 583              		@ args = 0, pretend = 0, frame = 0
 584              		@ frame_needed = 0, uses_anonymous_args = 0
 585              	.LVL77:
 586 0000 F0472DE9 		push	{r4, r5, r6, r7, r8, r9, r10, lr}
 587              		.cfi_def_cfa_offset 32
 588              		.cfi_offset 4, -32
 589              		.cfi_offset 5, -28
 590              		.cfi_offset 6, -24
 591              		.cfi_offset 7, -20
 592              		.cfi_offset 8, -16
 593              		.cfi_offset 9, -12
 594              		.cfi_offset 10, -8
 595              		.cfi_offset 14, -4
 294:D:/Work/DeviceTester/amazon-freertos/lib/greengrass\aws_helper_secure_connect.c ****     configASSERT( pcBuffer != NULL );
 596              		.loc 1 294 0
 597 0004 007053E2 		subs	r7, r3, #0
 598 0008 0200001A 		bne	.L74
 599              	.L75:
 294:D:/Work/DeviceTester/amazon-freertos/lib/greengrass\aws_helper_secure_connect.c ****     configASSERT( pcBuffer != NULL );
 600              		.loc 1 294 0 is_stmt 0 discriminator 1
 601 000c 0110A0E3 		mov	r1, #1
 602              	.LVL78:
 603 0010 80009FE5 		ldr	r0, .L88
 604              	.LVL79:
 605 0014 FEFFFFEB 		bl	longjmp
 606              	.LVL80:
 607              	.L74:
 295:D:/Work/DeviceTester/amazon-freertos/lib/greengrass\aws_helper_secure_connect.c **** 
 608              		.loc 1 295 0 is_stmt 1
 609 0018 000050E3 		cmp	r0, #0
 610 001c 0060A0E1 		mov	r6, r0
 611 0020 F9FFFF0A 		beq	.L75
 323:D:/Work/DeviceTester/amazon-freertos/lib/greengrass\aws_helper_secure_connect.c ****         }
 612              		.loc 1 323 0
 613 0024 70809FE5 		ldr	r8, .L88+4
 614 0028 0190A0E1 		mov	r9, r1
 615 002c 02A0A0E1 		mov	r10, r2
 616 0030 0340A0E3 		mov	r4, #3
 617              	.LVL81:
 618              	.L78:
 299:D:/Work/DeviceTester/amazon-freertos/lib/greengrass\aws_helper_secure_connect.c ****                                    ( uint32_t ) ulBufferSize,
 619              		.loc 1 299 0
 620 0034 0030A0E3 		mov	r3, #0
 621 0038 0920A0E1 		mov	r2, r9
 622 003c 0610A0E1 		mov	r1, r6
 623 0040 0A00A0E1 		mov	r0, r10
 624 0044 FEFFFFEB 		bl	SOCKETS_Recv
 625              	.LVL82:
 304:D:/Work/DeviceTester/amazon-freertos/lib/greengrass\aws_helper_secure_connect.c ****         {
 626              		.loc 1 304 0
 627 0048 005050E2 		subs	r5, r0, #0
 628 004c 0700000A 		beq	.L76
 314:D:/Work/DeviceTester/amazon-freertos/lib/greengrass\aws_helper_secure_connect.c ****             }
 629              		.loc 1 314 0
 630 0050 0100A0A3 		movge	r0, #1
 631              	.LVL83:
 306:D:/Work/DeviceTester/amazon-freertos/lib/greengrass\aws_helper_secure_connect.c ****             {
 632              		.loc 1 306 0
 633 0054 030000AA 		bge	.L77
 308:D:/Work/DeviceTester/amazon-freertos/lib/greengrass\aws_helper_secure_connect.c **** 
 634              		.loc 1 308 0
 635 0058 40009FE5 		ldr	r0, .L88+8
 636 005c 0510A0E1 		mov	r1, r5
 637 0060 FEFFFFEB 		bl	vLoggingPrintf
 638              	.LVL84:
 310:D:/Work/DeviceTester/amazon-freertos/lib/greengrass\aws_helper_secure_connect.c ****             }
 639              		.loc 1 310 0
 640 0064 0000A0E3 		mov	r0, #0
 641              	.LVL85:
 642              	.L77:
 333:D:/Work/DeviceTester/amazon-freertos/lib/greengrass\aws_helper_secure_connect.c **** 
 643              		.loc 1 333 0
 644 0068 005087E5 		str	r5, [r7]
 336:D:/Work/DeviceTester/amazon-freertos/lib/greengrass\aws_helper_secure_connect.c **** /*-----------------------------------------------------------*/
 645              		.loc 1 336 0
 646 006c F087BDE8 		pop	{r4, r5, r6, r7, r8, r9, r10, pc}
 647              	.LVL86:
 648              	.L76:
 649 0070 014044E2 		sub	r4, r4, #1
 650              	.LVL87:
 323:D:/Work/DeviceTester/amazon-freertos/lib/greengrass\aws_helper_secure_connect.c ****         }
 651              		.loc 1 323 0 discriminator 2
 652 0074 0800A0E1 		mov	r0, r8
 653              	.LVL88:
 654 0078 7440FFE6 		uxth	r4, r4
 655 007c FEFFFFEB 		bl	vLoggingPrintf
 656              	.LVL89:
 297:D:/Work/DeviceTester/amazon-freertos/lib/greengrass\aws_helper_secure_connect.c ****     {
 657              		.loc 1 297 0 discriminator 2
 658 0080 000054E3 		cmp	r4, #0
 659 0084 EAFFFF1A 		bne	.L78
 329:D:/Work/DeviceTester/amazon-freertos/lib/greengrass\aws_helper_secure_connect.c ****         xStatus = pdFAIL;
 660              		.loc 1 329 0
 661 0088 14009FE5 		ldr	r0, .L88+12
 662 008c FEFFFFEB 		bl	vLoggingPrintf
 663              	.LVL90:
 330:D:/Work/DeviceTester/amazon-freertos/lib/greengrass\aws_helper_secure_connect.c ****     }
 664              		.loc 1 330 0
 665 0090 0500A0E1 		mov	r0, r5
 666 0094 F3FFFFEA 		b	.L77
 667              	.L89:
 668              		.align	2
 669              	.L88:
 670 0098 28000000 		.word	Unity+40
 671 009c 21000000 		.word	.LC6
 672 00a0 00000000 		.word	.LC5
 673 00a4 40000000 		.word	.LC7
 674              		.cfi_endproc
 675              	.LFE3:
 677              		.section	.rodata.GGD_SecureConnect_Connect.str1.1,"aMS",%progbits,1
 678              	.LC3:
 679 0000 4D616C66 		.ascii	"Malformed URL\015\012\000"
 679      6F726D65 
 679      64205552 
 679      4C0D0A00 
 680              		.section	.rodata.GGD_SecureConnect_Disconnect.str1.1,"aMS",%progbits,1
 681              	.LC0:
 682 0000 41626F75 		.ascii	"About to close socket.\015\012\000"
 682      7420746F 
 682      20636C6F 
 682      73652073 
 682      6F636B65 
 683              	.LC1:
 684 0019 536F636B 		.ascii	"Socket closed.\015\012\000"
 684      65742063 
 684      6C6F7365 
 684      642E0D0A 
 684      00
 685              	.LC2:
 686 002a 53746163 		.ascii	"Stack high watermark for discovery helper task: %u."
 686      6B206869 
 686      67682077 
 686      61746572 
 686      6D61726B 
 687 005d 0D0A00   		.ascii	"\015\012\000"
 688              		.section	.rodata.GGD_SecureConnect_Read.str1.1,"aMS",%progbits,1
 689              	.LC5:
 690 0000 53656375 		.ascii	"SecureConnect - recv error, %d\015\012\000"
 690      7265436F 
 690      6E6E6563 
 690      74202D20 
 690      72656376 
 691              	.LC6:
 692 0021 53656375 		.ascii	"SecureConnect - recv Timeout\015\012\000"
 692      7265436F 
 692      6E6E6563 
 692      74202D20 
 692      72656376 
 693              	.LC7:
 694 0040 53656375 		.ascii	"SecureConnect - recv number of Timeout exceeded\015"
 694      7265436F 
 694      6E6E6563 
 694      74202D20 
 694      72656376 
 695 0070 0A00     		.ascii	"\012\000"
 696              		.section	.rodata.GGD_SecureConnect_Send.str1.1,"aMS",%progbits,1
 697              	.LC4:
 698 0000 53656375 		.ascii	"SecureConnect - error sending secure data to networ"
 698      7265436F 
 698      6E6E6563 
 698      74202D20 
 698      6572726F 
 699 0033 6B0D0A00 		.ascii	"k\015\012\000"
 700              		.text
 701              	.Letext0:
 702              		.file 2 "c:\\program files (x86)\\gnu tools arm embedded\\6 2017-q2-update\\lib\\gcc\\arm-none-eab
 703              		.file 3 "c:\\program files (x86)\\gnu tools arm embedded\\6 2017-q2-update\\arm-none-eabi\\include
 704              		.file 4 "c:\\program files (x86)\\gnu tools arm embedded\\6 2017-q2-update\\arm-none-eabi\\include
 705              		.file 5 "c:\\program files (x86)\\gnu tools arm embedded\\6 2017-q2-update\\arm-none-eabi\\include
 706              		.file 6 "c:\\program files (x86)\\gnu tools arm embedded\\6 2017-q2-update\\arm-none-eabi\\include
 707              		.file 7 "c:\\program files (x86)\\gnu tools arm embedded\\6 2017-q2-update\\arm-none-eabi\\include
 708              		.file 8 "c:\\program files (x86)\\gnu tools arm embedded\\6 2017-q2-update\\arm-none-eabi\\include
 709              		.file 9 "c:\\program files (x86)\\gnu tools arm embedded\\6 2017-q2-update\\arm-none-eabi\\include
 710              		.file 10 "D:\\Work\\DeviceTester\\amazon-freertos\\lib\\third_party\\unity\\src/unity_internals.h"
 711              		.file 11 "D:\\Work\\DeviceTester\\amazon-freertos\\lib\\FreeRTOS\\portable\\GCC\\ARM_CA9_RZA2M/por
 712              		.file 12 "D:\\Work\\DeviceTester\\amazon-freertos\\lib\\include/task.h"
 713              		.file 13 "D:\\Work\\DeviceTester\\amazon-freertos\\tests\\common\\include/aws_clientcredential_key
 714              		.file 14 "D:\\Work\\DeviceTester\\amazon-freertos\\lib\\include/aws_secure_sockets.h"
 715              		.file 15 "D:\\Work\\DeviceTester\\amazon-freertos\\lib\\include/aws_greengrass_discovery.h"
 716              		.file 16 "D:\\Work\\DeviceTester\\amazon-freertos\\tests\\common\\include/aws_clientcredential.h"
 717              		.file 17 "c:\\program files (x86)\\gnu tools arm embedded\\6 2017-q2-update\\arm-none-eabi\\includ
 718              		.file 18 "D:\\Work\\DeviceTester\\amazon-freertos\\tests\\renesas\\rza2m-gr-mango\\common\\config_
 719              		.file 19 "c:\\program files (x86)\\gnu tools arm embedded\\6 2017-q2-update\\arm-none-eabi\\includ