   1              		.cpu cortex-a9
   2              		.eabi_attribute 28, 1
   3              		.eabi_attribute 20, 1
   4              		.eabi_attribute 21, 1
   5              		.eabi_attribute 23, 3
   6              		.eabi_attribute 24, 1
   7              		.eabi_attribute 25, 1
   8              		.eabi_attribute 26, 1
   9              		.eabi_attribute 30, 4
  10              		.eabi_attribute 34, 0
  11              		.eabi_attribute 18, 4
  12              		.file	"aws_test_ota_pal.c"
  13              		.text
  14              	.Ltext0:
  15              		.cfi_sections	.debug_frame
  16              		.section	.text.TEST_Full_OTA_PAL_SETUP,"ax",%progbits
  17              		.align	2
  18              		.global	TEST_Full_OTA_PAL_SETUP
  19              		.syntax unified
  20              		.arm
  21              		.fpu neon
  23              	TEST_Full_OTA_PAL_SETUP:
  24              	.LFB1:
  25              		.file 1 "D:/Work/DeviceTester/amazon-freertos/tests/common/ota/aws_test_ota_pal.c"
   1:D:/Work/DeviceTester/amazon-freertos/tests/common/ota\aws_test_ota_pal.c **** /*
   2:D:/Work/DeviceTester/amazon-freertos/tests/common/ota\aws_test_ota_pal.c ****  * Amazon FreeRTOS OTA AFQP V1.1.4
   3:D:/Work/DeviceTester/amazon-freertos/tests/common/ota\aws_test_ota_pal.c ****  * Copyright (C) 2017 Amazon.com, Inc. or its affiliates.  All Rights Reserved.
   4:D:/Work/DeviceTester/amazon-freertos/tests/common/ota\aws_test_ota_pal.c ****  *
   5:D:/Work/DeviceTester/amazon-freertos/tests/common/ota\aws_test_ota_pal.c ****  * Permission is hereby granted, free of charge, to any person obtaining a copy of
   6:D:/Work/DeviceTester/amazon-freertos/tests/common/ota\aws_test_ota_pal.c ****  * this software and associated documentation files (the "Software"), to deal in
   7:D:/Work/DeviceTester/amazon-freertos/tests/common/ota\aws_test_ota_pal.c ****  * the Software without restriction, including without limitation the rights to
   8:D:/Work/DeviceTester/amazon-freertos/tests/common/ota\aws_test_ota_pal.c ****  * use, copy, modify, merge, publish, distribute, sublicense, and/or sell copies of
   9:D:/Work/DeviceTester/amazon-freertos/tests/common/ota\aws_test_ota_pal.c ****  * the Software, and to permit persons to whom the Software is furnished to do so,
  10:D:/Work/DeviceTester/amazon-freertos/tests/common/ota\aws_test_ota_pal.c ****  * subject to the following conditions:
  11:D:/Work/DeviceTester/amazon-freertos/tests/common/ota\aws_test_ota_pal.c ****  *
  12:D:/Work/DeviceTester/amazon-freertos/tests/common/ota\aws_test_ota_pal.c ****  * The above copyright notice and this permission notice shall be included in all
  13:D:/Work/DeviceTester/amazon-freertos/tests/common/ota\aws_test_ota_pal.c ****  * copies or substantial portions of the Software.
  14:D:/Work/DeviceTester/amazon-freertos/tests/common/ota\aws_test_ota_pal.c ****  *
  15:D:/Work/DeviceTester/amazon-freertos/tests/common/ota\aws_test_ota_pal.c ****  * THE SOFTWARE IS PROVIDED "AS IS", WITHOUT WARRANTY OF ANY KIND, EXPRESS OR
  16:D:/Work/DeviceTester/amazon-freertos/tests/common/ota\aws_test_ota_pal.c ****  * IMPLIED, INCLUDING BUT NOT LIMITED TO THE WARRANTIES OF MERCHANTABILITY, FITNESS
  17:D:/Work/DeviceTester/amazon-freertos/tests/common/ota\aws_test_ota_pal.c ****  * FOR A PARTICULAR PURPOSE AND NONINFRINGEMENT. IN NO EVENT SHALL THE AUTHORS OR
  18:D:/Work/DeviceTester/amazon-freertos/tests/common/ota\aws_test_ota_pal.c ****  * COPYRIGHT HOLDERS BE LIABLE FOR ANY CLAIM, DAMAGES OR OTHER LIABILITY, WHETHER
  19:D:/Work/DeviceTester/amazon-freertos/tests/common/ota\aws_test_ota_pal.c ****  * IN AN ACTION OF CONTRACT, TORT OR OTHERWISE, ARISING FROM, OUT OF OR IN
  20:D:/Work/DeviceTester/amazon-freertos/tests/common/ota\aws_test_ota_pal.c ****  * CONNECTION WITH THE SOFTWARE OR THE USE OR OTHER DEALINGS IN THE SOFTWARE.
  21:D:/Work/DeviceTester/amazon-freertos/tests/common/ota\aws_test_ota_pal.c ****  *
  22:D:/Work/DeviceTester/amazon-freertos/tests/common/ota\aws_test_ota_pal.c ****  * http://aws.amazon.com/freertos
  23:D:/Work/DeviceTester/amazon-freertos/tests/common/ota\aws_test_ota_pal.c ****  * http://www.FreeRTOS.org
  24:D:/Work/DeviceTester/amazon-freertos/tests/common/ota\aws_test_ota_pal.c ****  */
  25:D:/Work/DeviceTester/amazon-freertos/tests/common/ota\aws_test_ota_pal.c **** 
  26:D:/Work/DeviceTester/amazon-freertos/tests/common/ota\aws_test_ota_pal.c **** /* Standard includes. */
  27:D:/Work/DeviceTester/amazon-freertos/tests/common/ota\aws_test_ota_pal.c **** #include <stdint.h>
  28:D:/Work/DeviceTester/amazon-freertos/tests/common/ota\aws_test_ota_pal.c **** #include <stdbool.h>
  29:D:/Work/DeviceTester/amazon-freertos/tests/common/ota\aws_test_ota_pal.c **** #include <string.h>
  30:D:/Work/DeviceTester/amazon-freertos/tests/common/ota\aws_test_ota_pal.c **** #include <stdio.h>
  31:D:/Work/DeviceTester/amazon-freertos/tests/common/ota\aws_test_ota_pal.c **** 
  32:D:/Work/DeviceTester/amazon-freertos/tests/common/ota\aws_test_ota_pal.c **** /* FreeRTOS includes. */
  33:D:/Work/DeviceTester/amazon-freertos/tests/common/ota\aws_test_ota_pal.c **** #include "FreeRTOS.h"
  34:D:/Work/DeviceTester/amazon-freertos/tests/common/ota\aws_test_ota_pal.c **** 
  35:D:/Work/DeviceTester/amazon-freertos/tests/common/ota\aws_test_ota_pal.c **** #include "unity_fixture.h"
  36:D:/Work/DeviceTester/amazon-freertos/tests/common/ota\aws_test_ota_pal.c **** #include "unity.h"
  37:D:/Work/DeviceTester/amazon-freertos/tests/common/ota\aws_test_ota_pal.c **** #include "aws_ota_pal_test_access_declare.h"
  38:D:/Work/DeviceTester/amazon-freertos/tests/common/ota\aws_test_ota_pal.c **** #include "aws_ota_pal.h"
  39:D:/Work/DeviceTester/amazon-freertos/tests/common/ota\aws_test_ota_pal.c **** #include "aws_ota_agent.h"
  40:D:/Work/DeviceTester/amazon-freertos/tests/common/ota\aws_test_ota_pal.c **** #include "aws_pkcs11.h"
  41:D:/Work/DeviceTester/amazon-freertos/tests/common/ota\aws_test_ota_pal.c **** #include "aws_ota_codesigner_certificate.h"
  42:D:/Work/DeviceTester/amazon-freertos/tests/common/ota\aws_test_ota_pal.c **** #include "aws_test_ota_config.h"
  43:D:/Work/DeviceTester/amazon-freertos/tests/common/ota\aws_test_ota_pal.c **** 
  44:D:/Work/DeviceTester/amazon-freertos/tests/common/ota\aws_test_ota_pal.c **** /* The Texas Instruments CC3220SF has special requirements on its file system security.
  45:D:/Work/DeviceTester/amazon-freertos/tests/common/ota\aws_test_ota_pal.c ****  * We enable code specially for testing the OTA PAL layer for this device. */
  46:D:/Work/DeviceTester/amazon-freertos/tests/common/ota\aws_test_ota_pal.c **** #ifdef CC3220sf
  47:D:/Work/DeviceTester/amazon-freertos/tests/common/ota\aws_test_ota_pal.c ****     #include <ti/drivers/net/wifi/simplelink.h>
  48:D:/Work/DeviceTester/amazon-freertos/tests/common/ota\aws_test_ota_pal.c **** #endif
  49:D:/Work/DeviceTester/amazon-freertos/tests/common/ota\aws_test_ota_pal.c **** 
  50:D:/Work/DeviceTester/amazon-freertos/tests/common/ota\aws_test_ota_pal.c **** /* For the prvPAL_WriteBlock_WriteManyBlocks test this is the number of blocks of
  51:D:/Work/DeviceTester/amazon-freertos/tests/common/ota\aws_test_ota_pal.c ****  * ucDummyData to write to the non-volatile memory. */
  52:D:/Work/DeviceTester/amazon-freertos/tests/common/ota\aws_test_ota_pal.c **** #define testotapalNUM_WRITE_BLOCKS         10
  53:D:/Work/DeviceTester/amazon-freertos/tests/common/ota\aws_test_ota_pal.c **** 
  54:D:/Work/DeviceTester/amazon-freertos/tests/common/ota\aws_test_ota_pal.c **** /* For the prvPAL_WriteBlock_WriteManyBlocks test this the delay time in ms following
  55:D:/Work/DeviceTester/amazon-freertos/tests/common/ota\aws_test_ota_pal.c ****  * the block write loop. */
  56:D:/Work/DeviceTester/amazon-freertos/tests/common/ota\aws_test_ota_pal.c **** #define testotapalWRITE_BLOCKS_DELAY_MS    5000
  57:D:/Work/DeviceTester/amazon-freertos/tests/common/ota\aws_test_ota_pal.c **** 
  58:D:/Work/DeviceTester/amazon-freertos/tests/common/ota\aws_test_ota_pal.c **** /*
  59:D:/Work/DeviceTester/amazon-freertos/tests/common/ota\aws_test_ota_pal.c ****  * @brief: This dummy data is prepended by a SHA1 hash generated from the rsa-sha1-signer
  60:D:/Work/DeviceTester/amazon-freertos/tests/common/ota\aws_test_ota_pal.c ****  * certificate and keys in tests/common/ota/test_files.
  61:D:/Work/DeviceTester/amazon-freertos/tests/common/ota\aws_test_ota_pal.c ****  *
  62:D:/Work/DeviceTester/amazon-freertos/tests/common/ota\aws_test_ota_pal.c ****  * The RSA SHA256 signature and ECDSA 256 signature are generated from this entire data
  63:D:/Work/DeviceTester/amazon-freertos/tests/common/ota\aws_test_ota_pal.c ****  * block as is.
  64:D:/Work/DeviceTester/amazon-freertos/tests/common/ota\aws_test_ota_pal.c ****  */
  65:D:/Work/DeviceTester/amazon-freertos/tests/common/ota\aws_test_ota_pal.c **** static uint8_t ucDummyData[] =
  66:D:/Work/DeviceTester/amazon-freertos/tests/common/ota\aws_test_ota_pal.c **** {
  67:D:/Work/DeviceTester/amazon-freertos/tests/common/ota\aws_test_ota_pal.c ****     0x83, 0x0b, 0xf0, 0x6a, 0x81, 0xd6, 0xca, 0xd7, 0x08, 0x22, 0x0d, 0x6a,
  68:D:/Work/DeviceTester/amazon-freertos/tests/common/ota\aws_test_ota_pal.c ****     0x33, 0xfa, 0x31, 0x9f, 0xa9, 0x5f, 0xb5, 0x26, 0x00, 0x01, 0x02, 0x03,
  69:D:/Work/DeviceTester/amazon-freertos/tests/common/ota\aws_test_ota_pal.c ****     0x04, 0x05, 0x06, 0x07, 0x08, 0x09, 0x0a, 0x0c, 0x0c, 0x0d, 0x0e, 0x0f,
  70:D:/Work/DeviceTester/amazon-freertos/tests/common/ota\aws_test_ota_pal.c ****     0x10, 0x11, 0x12, 0x13, 0x14, 0x15, 0x16, 0x17, 0x18, 0x19, 0x1a, 0x1b,
  71:D:/Work/DeviceTester/amazon-freertos/tests/common/ota\aws_test_ota_pal.c ****     0x1c, 0x1d, 0x1e, 0x1f, 0x20, 0x21, 0x22, 0x23, 0x24, 0x25, 0x26, 0x27,
  72:D:/Work/DeviceTester/amazon-freertos/tests/common/ota\aws_test_ota_pal.c ****     0x28, 0x29, 0x2a, 0x2b, 0x2c, 0x2d, 0x2e, 0x2f, 0x30, 0x31, 0x32, 0x33,
  73:D:/Work/DeviceTester/amazon-freertos/tests/common/ota\aws_test_ota_pal.c ****     0x34, 0x35, 0x36, 0x37, 0x38, 0x39, 0x3a, 0x3b, 0x3c, 0x3d, 0x3e, 0x3f
  74:D:/Work/DeviceTester/amazon-freertos/tests/common/ota\aws_test_ota_pal.c **** };
  75:D:/Work/DeviceTester/amazon-freertos/tests/common/ota\aws_test_ota_pal.c **** 
  76:D:/Work/DeviceTester/amazon-freertos/tests/common/ota\aws_test_ota_pal.c **** /* Global static OTA file context used in every test. This context is reset to all zeros
  77:D:/Work/DeviceTester/amazon-freertos/tests/common/ota\aws_test_ota_pal.c ****  * before every test. */
  78:D:/Work/DeviceTester/amazon-freertos/tests/common/ota\aws_test_ota_pal.c **** static OTA_FileContext_t xOtaFile;
  79:D:/Work/DeviceTester/amazon-freertos/tests/common/ota\aws_test_ota_pal.c **** 
  80:D:/Work/DeviceTester/amazon-freertos/tests/common/ota\aws_test_ota_pal.c **** #ifdef CC3220sf
  81:D:/Work/DeviceTester/amazon-freertos/tests/common/ota\aws_test_ota_pal.c ****     /**
  82:D:/Work/DeviceTester/amazon-freertos/tests/common/ota\aws_test_ota_pal.c ****      * @brief In the Texas Instruments CC3220(SF) device, we need to restore mcuflashimage.bin to f
  83:D:/Work/DeviceTester/amazon-freertos/tests/common/ota\aws_test_ota_pal.c ****      * that increase the number of security alerts.
  84:D:/Work/DeviceTester/amazon-freertos/tests/common/ota\aws_test_ota_pal.c ****      */
  85:D:/Work/DeviceTester/amazon-freertos/tests/common/ota\aws_test_ota_pal.c ****     static void prvResetTiCc3220ToFactoryImage()
  86:D:/Work/DeviceTester/amazon-freertos/tests/common/ota\aws_test_ota_pal.c ****     {
  87:D:/Work/DeviceTester/amazon-freertos/tests/common/ota\aws_test_ota_pal.c ****         int32_t lResult, lRetVal, lExtendedError;
  88:D:/Work/DeviceTester/amazon-freertos/tests/common/ota\aws_test_ota_pal.c ****         SlFsRetToFactoryCommand_t xRetToFactoryCommand;
  89:D:/Work/DeviceTester/amazon-freertos/tests/common/ota\aws_test_ota_pal.c **** 
  90:D:/Work/DeviceTester/amazon-freertos/tests/common/ota\aws_test_ota_pal.c ****         xRetToFactoryCommand.Operation = SL_FS_FACTORY_RET_TO_IMAGE;
  91:D:/Work/DeviceTester/amazon-freertos/tests/common/ota\aws_test_ota_pal.c ****         lResult = sl_FsCtl( ( SlFsCtl_e ) SL_FS_CTL_RESTORE, 0, NULL, ( _u8 * ) &xRetToFactoryComma
  92:D:/Work/DeviceTester/amazon-freertos/tests/common/ota\aws_test_ota_pal.c **** 
  93:D:/Work/DeviceTester/amazon-freertos/tests/common/ota\aws_test_ota_pal.c ****         if( ( _i32 ) lResult < 0 )
  94:D:/Work/DeviceTester/amazon-freertos/tests/common/ota\aws_test_ota_pal.c ****         {
  95:D:/Work/DeviceTester/amazon-freertos/tests/common/ota\aws_test_ota_pal.c ****             /*Pay attention, for this function the lResult is composed from Signed lRetVal & extend
  96:D:/Work/DeviceTester/amazon-freertos/tests/common/ota\aws_test_ota_pal.c ****             lRetVal = ( _i16 ) lResult >> 16;
  97:D:/Work/DeviceTester/amazon-freertos/tests/common/ota\aws_test_ota_pal.c ****             lExtendedError = ( _u16 ) lResult & 0xFFFF;
  98:D:/Work/DeviceTester/amazon-freertos/tests/common/ota\aws_test_ota_pal.c ****             configPRINTF( ( "Error SL_FS_FACTORY_RET_TO_IMAGE, 5d, %d\r\n", lRetVal, lExtendedError
  99:D:/Work/DeviceTester/amazon-freertos/tests/common/ota\aws_test_ota_pal.c ****             return;
 100:D:/Work/DeviceTester/amazon-freertos/tests/common/ota\aws_test_ota_pal.c ****         }
 101:D:/Work/DeviceTester/amazon-freertos/tests/common/ota\aws_test_ota_pal.c **** 
 102:D:/Work/DeviceTester/amazon-freertos/tests/common/ota\aws_test_ota_pal.c ****         /* Reset the network processor. */
 103:D:/Work/DeviceTester/amazon-freertos/tests/common/ota\aws_test_ota_pal.c ****         sl_Stop( 0 );
 104:D:/Work/DeviceTester/amazon-freertos/tests/common/ota\aws_test_ota_pal.c ****         vTaskDelay( pdMS_TO_TICKS( 1000 ) );
 105:D:/Work/DeviceTester/amazon-freertos/tests/common/ota\aws_test_ota_pal.c ****         sl_Start( NULL, NULL, NULL );
 106:D:/Work/DeviceTester/amazon-freertos/tests/common/ota\aws_test_ota_pal.c ****     }
 107:D:/Work/DeviceTester/amazon-freertos/tests/common/ota\aws_test_ota_pal.c **** #endif /* ifdef CC3220sf */
 108:D:/Work/DeviceTester/amazon-freertos/tests/common/ota\aws_test_ota_pal.c **** 
 109:D:/Work/DeviceTester/amazon-freertos/tests/common/ota\aws_test_ota_pal.c **** /**
 110:D:/Work/DeviceTester/amazon-freertos/tests/common/ota\aws_test_ota_pal.c ****  * @brief Test group definition.
 111:D:/Work/DeviceTester/amazon-freertos/tests/common/ota\aws_test_ota_pal.c ****  */
 112:D:/Work/DeviceTester/amazon-freertos/tests/common/ota\aws_test_ota_pal.c **** TEST_GROUP( Full_OTA_PAL );
 113:D:/Work/DeviceTester/amazon-freertos/tests/common/ota\aws_test_ota_pal.c **** 
 114:D:/Work/DeviceTester/amazon-freertos/tests/common/ota\aws_test_ota_pal.c **** TEST_SETUP( Full_OTA_PAL )
 115:D:/Work/DeviceTester/amazon-freertos/tests/common/ota\aws_test_ota_pal.c **** {
  26              		.loc 1 115 0
  27              		.cfi_startproc
  28              		@ args = 0, pretend = 0, frame = 0
  29              		@ frame_needed = 0, uses_anonymous_args = 0
  30              		@ link register save eliminated.
 116:D:/Work/DeviceTester/amazon-freertos/tests/common/ota\aws_test_ota_pal.c ****     /* Always reset the OTA file context before each test. */
 117:D:/Work/DeviceTester/amazon-freertos/tests/common/ota\aws_test_ota_pal.c ****     memset( &xOtaFile, 0, sizeof( xOtaFile ) );
  31              		.loc 1 117 0
  32 0000 3C20A0E3 		mov	r2, #60
  33 0004 0010A0E3 		mov	r1, #0
  34 0008 00009FE5 		ldr	r0, .L2
  35 000c FEFFFFEA 		b	memset
  36              	.LVL0:
  37              	.L3:
  38              		.align	2
  39              	.L2:
  40 0010 00000000 		.word	.LANCHOR0
  41              		.cfi_endproc
  42              	.LFE1:
  44              		.section	.text.TEST_Full_OTA_PAL_TEAR_DOWN,"ax",%progbits
  45              		.align	2
  46              		.global	TEST_Full_OTA_PAL_TEAR_DOWN
  47              		.syntax unified
  48              		.arm
  49              		.fpu neon
  51              	TEST_Full_OTA_PAL_TEAR_DOWN:
  52              	.LFB2:
 118:D:/Work/DeviceTester/amazon-freertos/tests/common/ota\aws_test_ota_pal.c **** }
 119:D:/Work/DeviceTester/amazon-freertos/tests/common/ota\aws_test_ota_pal.c **** 
 120:D:/Work/DeviceTester/amazon-freertos/tests/common/ota\aws_test_ota_pal.c **** TEST_TEAR_DOWN( Full_OTA_PAL )
 121:D:/Work/DeviceTester/amazon-freertos/tests/common/ota\aws_test_ota_pal.c **** {
  53              		.loc 1 121 0
  54              		.cfi_startproc
  55              		@ args = 0, pretend = 0, frame = 0
  56              		@ frame_needed = 0, uses_anonymous_args = 0
  57 0000 10402DE9 		push	{r4, lr}
  58              		.cfi_def_cfa_offset 8
  59              		.cfi_offset 4, -8
  60              		.cfi_offset 14, -4
 122:D:/Work/DeviceTester/amazon-freertos/tests/common/ota\aws_test_ota_pal.c ****     #ifdef CC3220sf
 123:D:/Work/DeviceTester/amazon-freertos/tests/common/ota\aws_test_ota_pal.c ****         prvResetTiCc3220ToFactoryImage();
 124:D:/Work/DeviceTester/amazon-freertos/tests/common/ota\aws_test_ota_pal.c ****     #else
 125:D:/Work/DeviceTester/amazon-freertos/tests/common/ota\aws_test_ota_pal.c ****         OTA_Err_t xOtaStatus;
 126:D:/Work/DeviceTester/amazon-freertos/tests/common/ota\aws_test_ota_pal.c **** 
 127:D:/Work/DeviceTester/amazon-freertos/tests/common/ota\aws_test_ota_pal.c ****         /* We want to abort the OTA file after every test. This closes the OtaFile. */
 128:D:/Work/DeviceTester/amazon-freertos/tests/common/ota\aws_test_ota_pal.c ****         xOtaStatus = prvPAL_Abort( &xOtaFile );
  61              		.loc 1 128 0
  62 0004 14009FE5 		ldr	r0, .L7
  63 0008 FEFFFFEB 		bl	prvPAL_Abort
  64              	.LVL1:
 129:D:/Work/DeviceTester/amazon-freertos/tests/common/ota\aws_test_ota_pal.c **** 
 130:D:/Work/DeviceTester/amazon-freertos/tests/common/ota\aws_test_ota_pal.c ****         if( kOTA_Err_None != xOtaStatus )
  65              		.loc 1 130 0
  66 000c 001050E2 		subs	r1, r0, #0
  67 0010 1080BD08 		popeq	{r4, pc}
 131:D:/Work/DeviceTester/amazon-freertos/tests/common/ota\aws_test_ota_pal.c ****         {
 132:D:/Work/DeviceTester/amazon-freertos/tests/common/ota\aws_test_ota_pal.c ****             configPRINTF( ( "Error aborting xOtaFile with code: %d", xOtaStatus ) );
  68              		.loc 1 132 0
  69 0014 08009FE5 		ldr	r0, .L7+4
  70              	.LVL2:
 133:D:/Work/DeviceTester/amazon-freertos/tests/common/ota\aws_test_ota_pal.c ****         }
 134:D:/Work/DeviceTester/amazon-freertos/tests/common/ota\aws_test_ota_pal.c ****     #endif /* ifdef CC3220sf */
 135:D:/Work/DeviceTester/amazon-freertos/tests/common/ota\aws_test_ota_pal.c **** }
  71              		.loc 1 135 0
  72 0018 1040BDE8 		pop	{r4, lr}
  73              		.cfi_restore 14
  74              		.cfi_restore 4
  75              		.cfi_def_cfa_offset 0
 132:D:/Work/DeviceTester/amazon-freertos/tests/common/ota\aws_test_ota_pal.c ****         }
  76              		.loc 1 132 0
  77 001c FEFFFFEA 		b	vLoggingPrintf
  78              	.LVL3:
  79              	.L8:
  80              		.align	2
  81              	.L7:
  82 0020 00000000 		.word	.LANCHOR0
  83 0024 00000000 		.word	.LC0
  84              		.cfi_endproc
  85              	.LFE2:
  87              		.section	.text.TEST_Full_OTA_PAL_prvPAL_CreateFileForRx_CreateAnyFile_,"ax",%progbits
  88              		.align	2
  89              		.global	TEST_Full_OTA_PAL_prvPAL_CreateFileForRx_CreateAnyFile_
  90              		.syntax unified
  91              		.arm
  92              		.fpu neon
  94              	TEST_Full_OTA_PAL_prvPAL_CreateFileForRx_CreateAnyFile_:
  95              	.LFB16:
 136:D:/Work/DeviceTester/amazon-freertos/tests/common/ota\aws_test_ota_pal.c **** 
 137:D:/Work/DeviceTester/amazon-freertos/tests/common/ota\aws_test_ota_pal.c **** TEST_GROUP_RUNNER( Full_OTA_PAL )
 138:D:/Work/DeviceTester/amazon-freertos/tests/common/ota\aws_test_ota_pal.c **** {
 139:D:/Work/DeviceTester/amazon-freertos/tests/common/ota\aws_test_ota_pal.c ****     RUN_TEST_CASE( Full_OTA_PAL, prvPAL_CloseFile_ValidSignature );
 140:D:/Work/DeviceTester/amazon-freertos/tests/common/ota\aws_test_ota_pal.c ****     /* RUN_TEST_CASE( Full_OTA_PAL, prvPAL_CloseFile_NullParameters ); */ /* Not supported yet. */
 141:D:/Work/DeviceTester/amazon-freertos/tests/common/ota\aws_test_ota_pal.c ****     RUN_TEST_CASE( Full_OTA_PAL, prvPAL_CloseFile_InvalidSignatureBlockWritten );
 142:D:/Work/DeviceTester/amazon-freertos/tests/common/ota\aws_test_ota_pal.c ****     RUN_TEST_CASE( Full_OTA_PAL, prvPAL_CloseFile_InvalidSignatureNoBlockWritten );
 143:D:/Work/DeviceTester/amazon-freertos/tests/common/ota\aws_test_ota_pal.c ****     #if ( otatestpalUSE_FILE_SYSTEM == 1 )
 144:D:/Work/DeviceTester/amazon-freertos/tests/common/ota\aws_test_ota_pal.c ****         RUN_TEST_CASE( Full_OTA_PAL, prvPAL_CloseFile_NonexistingCodeSignerCertificate );
 145:D:/Work/DeviceTester/amazon-freertos/tests/common/ota\aws_test_ota_pal.c ****     #endif
 146:D:/Work/DeviceTester/amazon-freertos/tests/common/ota\aws_test_ota_pal.c **** 
 147:D:/Work/DeviceTester/amazon-freertos/tests/common/ota\aws_test_ota_pal.c ****     RUN_TEST_CASE( Full_OTA_PAL, prvPAL_CreateFileForRx_CreateAnyFile );
 148:D:/Work/DeviceTester/amazon-freertos/tests/common/ota\aws_test_ota_pal.c ****     /* RUN_TEST_CASE( Full_OTA_PAL, prvPAL_CreateFileForRx_NullParameters ) */ /* Not supported yet
 149:D:/Work/DeviceTester/amazon-freertos/tests/common/ota\aws_test_ota_pal.c **** 
 150:D:/Work/DeviceTester/amazon-freertos/tests/common/ota\aws_test_ota_pal.c ****     /* Other failure case testing for prvPAL_CreateFileForRx() is not possible
 151:D:/Work/DeviceTester/amazon-freertos/tests/common/ota\aws_test_ota_pal.c ****      * because the MCU's underlying non-volatile memory will have to be mocked
 152:D:/Work/DeviceTester/amazon-freertos/tests/common/ota\aws_test_ota_pal.c ****      * to return failures for creating a new file. */
 153:D:/Work/DeviceTester/amazon-freertos/tests/common/ota\aws_test_ota_pal.c **** 
 154:D:/Work/DeviceTester/amazon-freertos/tests/common/ota\aws_test_ota_pal.c ****     /* RUN_TEST_CASE( Full_OTA_PAL, prvPAL_Abort_NullFileContext ); */ /* Not supported yet. */
 155:D:/Work/DeviceTester/amazon-freertos/tests/common/ota\aws_test_ota_pal.c ****     RUN_TEST_CASE( Full_OTA_PAL, prvPAL_Abort_OpenFile );
 156:D:/Work/DeviceTester/amazon-freertos/tests/common/ota\aws_test_ota_pal.c ****     RUN_TEST_CASE( Full_OTA_PAL, prvPAL_Abort_FileWithBlockWritten );
 157:D:/Work/DeviceTester/amazon-freertos/tests/common/ota\aws_test_ota_pal.c ****     RUN_TEST_CASE( Full_OTA_PAL, prvPAL_Abort_NullFileHandle );
 158:D:/Work/DeviceTester/amazon-freertos/tests/common/ota\aws_test_ota_pal.c ****     RUN_TEST_CASE( Full_OTA_PAL, prvPAL_Abort_NonExistentFile );
 159:D:/Work/DeviceTester/amazon-freertos/tests/common/ota\aws_test_ota_pal.c **** 
 160:D:/Work/DeviceTester/amazon-freertos/tests/common/ota\aws_test_ota_pal.c ****     /* RUN_TEST_CASE( Full_OTA_PAL, prvPAL_WriteBlock_NullParameters ); */ /* Not supported yet. */
 161:D:/Work/DeviceTester/amazon-freertos/tests/common/ota\aws_test_ota_pal.c ****     RUN_TEST_CASE( Full_OTA_PAL, prvPAL_WriteBlock_WriteSingleByte );
 162:D:/Work/DeviceTester/amazon-freertos/tests/common/ota\aws_test_ota_pal.c ****     RUN_TEST_CASE( Full_OTA_PAL, prvPAL_WriteBlock_WriteManyBlocks );
 163:D:/Work/DeviceTester/amazon-freertos/tests/common/ota\aws_test_ota_pal.c **** 
 164:D:/Work/DeviceTester/amazon-freertos/tests/common/ota\aws_test_ota_pal.c ****     #ifdef WIN32
 165:D:/Work/DeviceTester/amazon-freertos/tests/common/ota\aws_test_ota_pal.c ****         /* This test resets the device so it is not valid for an MCU. */
 166:D:/Work/DeviceTester/amazon-freertos/tests/common/ota\aws_test_ota_pal.c ****         RUN_TEST_CASE( Full_OTA_PAL, prvPAL_ActivateNewImage );
 167:D:/Work/DeviceTester/amazon-freertos/tests/common/ota\aws_test_ota_pal.c ****     #endif
 168:D:/Work/DeviceTester/amazon-freertos/tests/common/ota\aws_test_ota_pal.c **** 
 169:D:/Work/DeviceTester/amazon-freertos/tests/common/ota\aws_test_ota_pal.c ****     RUN_TEST_CASE( Full_OTA_PAL, prvPAL_SetPlatformImageState_SelfTestImageState );
 170:D:/Work/DeviceTester/amazon-freertos/tests/common/ota\aws_test_ota_pal.c ****     RUN_TEST_CASE( Full_OTA_PAL, prvPAL_SetPlatformImageState_InvalidImageState );
 171:D:/Work/DeviceTester/amazon-freertos/tests/common/ota\aws_test_ota_pal.c ****     RUN_TEST_CASE( Full_OTA_PAL, prvPAL_SetPlatformImageState_UnknownImageState );
 172:D:/Work/DeviceTester/amazon-freertos/tests/common/ota\aws_test_ota_pal.c ****     RUN_TEST_CASE( Full_OTA_PAL, prvPAL_SetPlatformImageState_RejectImageState );
 173:D:/Work/DeviceTester/amazon-freertos/tests/common/ota\aws_test_ota_pal.c ****     #ifndef WIN32
 174:D:/Work/DeviceTester/amazon-freertos/tests/common/ota\aws_test_ota_pal.c ****         /* This test is not supported on WinSim because we simply record the image state passed in 
 175:D:/Work/DeviceTester/amazon-freertos/tests/common/ota\aws_test_ota_pal.c ****         RUN_TEST_CASE( Full_OTA_PAL, prvPAL_SetPlatformImageState_AcceptedImageStateButImageNotClos
 176:D:/Work/DeviceTester/amazon-freertos/tests/common/ota\aws_test_ota_pal.c **** 
 177:D:/Work/DeviceTester/amazon-freertos/tests/common/ota\aws_test_ota_pal.c ****         /* The successful setting of an image with the accepted state is not supported because that
 178:D:/Work/DeviceTester/amazon-freertos/tests/common/ota\aws_test_ota_pal.c ****          * an image that was written, verified, and rebooted. */
 179:D:/Work/DeviceTester/amazon-freertos/tests/common/ota\aws_test_ota_pal.c ****     #endif
 180:D:/Work/DeviceTester/amazon-freertos/tests/common/ota\aws_test_ota_pal.c **** 
 181:D:/Work/DeviceTester/amazon-freertos/tests/common/ota\aws_test_ota_pal.c ****     RUN_TEST_CASE( Full_OTA_PAL, prvPAL_GetPlatformImageState_InvalidImageStateFromFileCloseFailure
 182:D:/Work/DeviceTester/amazon-freertos/tests/common/ota\aws_test_ota_pal.c **** 
 183:D:/Work/DeviceTester/amazon-freertos/tests/common/ota\aws_test_ota_pal.c ****     #if ( otatestpalREAD_AND_ASSUME_CERTIFICATE_SUPPORTED == 1 )
 184:D:/Work/DeviceTester/amazon-freertos/tests/common/ota\aws_test_ota_pal.c ****         RUN_TEST_CASE( Full_OTA_PAL, prvPAL_ReadAndAssumeCertificate_ExistingFile );
 185:D:/Work/DeviceTester/amazon-freertos/tests/common/ota\aws_test_ota_pal.c ****         #if ( otatestpalUSE_FILE_SYSTEM == 1 )
 186:D:/Work/DeviceTester/amazon-freertos/tests/common/ota\aws_test_ota_pal.c ****             RUN_TEST_CASE( Full_OTA_PAL, prvPAL_ReadAndAssumeCertificate_NonexistentFile );
 187:D:/Work/DeviceTester/amazon-freertos/tests/common/ota\aws_test_ota_pal.c ****         #endif
 188:D:/Work/DeviceTester/amazon-freertos/tests/common/ota\aws_test_ota_pal.c ****         /* RUN_TEST_CASE( Full_OTA_PAL, prvPAL_ReadAndAssumeCertificate_NullParameters ); */ /* Not
 189:D:/Work/DeviceTester/amazon-freertos/tests/common/ota\aws_test_ota_pal.c ****     #endif
 190:D:/Work/DeviceTester/amazon-freertos/tests/common/ota\aws_test_ota_pal.c **** 
 191:D:/Work/DeviceTester/amazon-freertos/tests/common/ota\aws_test_ota_pal.c ****     #if ( otatestpalCHECK_FILE_SIGNATURE_SUPPORTED == 1 )
 192:D:/Work/DeviceTester/amazon-freertos/tests/common/ota\aws_test_ota_pal.c ****         RUN_TEST_CASE( Full_OTA_PAL, prvPAL_CheckFileSignature_ValidSignature );
 193:D:/Work/DeviceTester/amazon-freertos/tests/common/ota\aws_test_ota_pal.c ****         RUN_TEST_CASE( Full_OTA_PAL, prvPAL_CheckFileSignature_InvalidSignatureBlockWritten );
 194:D:/Work/DeviceTester/amazon-freertos/tests/common/ota\aws_test_ota_pal.c ****         RUN_TEST_CASE( Full_OTA_PAL, prvPAL_CheckFileSignature_InvalidSignatureNoBlockWritten );
 195:D:/Work/DeviceTester/amazon-freertos/tests/common/ota\aws_test_ota_pal.c ****         #if ( otatestpalUSE_FILE_SYSTEM == 1 )
 196:D:/Work/DeviceTester/amazon-freertos/tests/common/ota\aws_test_ota_pal.c ****             RUN_TEST_CASE( Full_OTA_PAL, prvPAL_CheckFileSignature_NonexistingCodeSignerCertificate
 197:D:/Work/DeviceTester/amazon-freertos/tests/common/ota\aws_test_ota_pal.c ****         #endif
 198:D:/Work/DeviceTester/amazon-freertos/tests/common/ota\aws_test_ota_pal.c ****         /* RUN_TEST_CASE( Full_OTA_PAL, prvPAL_CheckFileSignature_NullParameters ); */ /* Not suppo
 199:D:/Work/DeviceTester/amazon-freertos/tests/common/ota\aws_test_ota_pal.c ****     #endif
 200:D:/Work/DeviceTester/amazon-freertos/tests/common/ota\aws_test_ota_pal.c **** 
 201:D:/Work/DeviceTester/amazon-freertos/tests/common/ota\aws_test_ota_pal.c ****     #if ( otatestpalREAD_CERTIFICATE_FROM_NVM_WITH_PKCS11 == 1 )
 202:D:/Work/DeviceTester/amazon-freertos/tests/common/ota\aws_test_ota_pal.c **** 
 203:D:/Work/DeviceTester/amazon-freertos/tests/common/ota\aws_test_ota_pal.c ****         /* This test must run last.  It provisions the code sign certificate,
 204:D:/Work/DeviceTester/amazon-freertos/tests/common/ota\aws_test_ota_pal.c ****          * and other tests exercise the non-flash verison.*/
 205:D:/Work/DeviceTester/amazon-freertos/tests/common/ota\aws_test_ota_pal.c ****         RUN_TEST_CASE( Full_OTA_PAL, prvPAL_CloseFile_ValidSignatureKeyInFlash );
 206:D:/Work/DeviceTester/amazon-freertos/tests/common/ota\aws_test_ota_pal.c ****     #endif
 207:D:/Work/DeviceTester/amazon-freertos/tests/common/ota\aws_test_ota_pal.c **** }
 208:D:/Work/DeviceTester/amazon-freertos/tests/common/ota\aws_test_ota_pal.c **** 
 209:D:/Work/DeviceTester/amazon-freertos/tests/common/ota\aws_test_ota_pal.c **** /**
 210:D:/Work/DeviceTester/amazon-freertos/tests/common/ota\aws_test_ota_pal.c ****  * @brief Test prvPAL_CloseFile with a valid signature and signature verification
 211:D:/Work/DeviceTester/amazon-freertos/tests/common/ota\aws_test_ota_pal.c ****  * certificate. Verify the success.
 212:D:/Work/DeviceTester/amazon-freertos/tests/common/ota\aws_test_ota_pal.c ****  */
 213:D:/Work/DeviceTester/amazon-freertos/tests/common/ota\aws_test_ota_pal.c **** TEST( Full_OTA_PAL, prvPAL_CloseFile_ValidSignature )
 214:D:/Work/DeviceTester/amazon-freertos/tests/common/ota\aws_test_ota_pal.c **** {
 215:D:/Work/DeviceTester/amazon-freertos/tests/common/ota\aws_test_ota_pal.c ****     OTA_Err_t xOtaStatus;
 216:D:/Work/DeviceTester/amazon-freertos/tests/common/ota\aws_test_ota_pal.c ****     Sig256_t xSig = { 0 };
 217:D:/Work/DeviceTester/amazon-freertos/tests/common/ota\aws_test_ota_pal.c **** 
 218:D:/Work/DeviceTester/amazon-freertos/tests/common/ota\aws_test_ota_pal.c ****     /* We use a dummy file name here because closing the system designated bootable
 219:D:/Work/DeviceTester/amazon-freertos/tests/common/ota\aws_test_ota_pal.c ****      * image with content that is not runnable may cause issues. */
 220:D:/Work/DeviceTester/amazon-freertos/tests/common/ota\aws_test_ota_pal.c ****     xOtaFile.pucFilePath = ( uint8_t * ) ( "test_happy_path_image.bin" );
 221:D:/Work/DeviceTester/amazon-freertos/tests/common/ota\aws_test_ota_pal.c ****     xOtaStatus = prvPAL_CreateFileForRx( &xOtaFile );
 222:D:/Work/DeviceTester/amazon-freertos/tests/common/ota\aws_test_ota_pal.c ****     TEST_ASSERT_EQUAL( kOTA_Err_None, xOtaStatus );
 223:D:/Work/DeviceTester/amazon-freertos/tests/common/ota\aws_test_ota_pal.c **** 
 224:D:/Work/DeviceTester/amazon-freertos/tests/common/ota\aws_test_ota_pal.c ****     /* We still want to close the file if the test fails somewhere here. */
 225:D:/Work/DeviceTester/amazon-freertos/tests/common/ota\aws_test_ota_pal.c ****     if( TEST_PROTECT() )
 226:D:/Work/DeviceTester/amazon-freertos/tests/common/ota\aws_test_ota_pal.c ****     {
 227:D:/Work/DeviceTester/amazon-freertos/tests/common/ota\aws_test_ota_pal.c ****         /* Write data to the file. */
 228:D:/Work/DeviceTester/amazon-freertos/tests/common/ota\aws_test_ota_pal.c ****         xOtaStatus = prvPAL_WriteBlock( &xOtaFile,
 229:D:/Work/DeviceTester/amazon-freertos/tests/common/ota\aws_test_ota_pal.c ****                                         0,
 230:D:/Work/DeviceTester/amazon-freertos/tests/common/ota\aws_test_ota_pal.c ****                                         ucDummyData,
 231:D:/Work/DeviceTester/amazon-freertos/tests/common/ota\aws_test_ota_pal.c ****                                         sizeof( ucDummyData ) );
 232:D:/Work/DeviceTester/amazon-freertos/tests/common/ota\aws_test_ota_pal.c ****         TEST_ASSERT_EQUAL( sizeof( ucDummyData ), xOtaStatus );
 233:D:/Work/DeviceTester/amazon-freertos/tests/common/ota\aws_test_ota_pal.c **** 
 234:D:/Work/DeviceTester/amazon-freertos/tests/common/ota\aws_test_ota_pal.c ****         xOtaFile.pxSignature = &xSig;
 235:D:/Work/DeviceTester/amazon-freertos/tests/common/ota\aws_test_ota_pal.c ****         xOtaFile.pxSignature->usSize = ucValidSignatureLength;
 236:D:/Work/DeviceTester/amazon-freertos/tests/common/ota\aws_test_ota_pal.c ****         memcpy( xOtaFile.pxSignature->ucData, ucValidSignature, ucValidSignatureLength );
 237:D:/Work/DeviceTester/amazon-freertos/tests/common/ota\aws_test_ota_pal.c ****         xOtaFile.pucCertFilepath = ( uint8_t * ) otatestpalCERTIFICATE_FILE;
 238:D:/Work/DeviceTester/amazon-freertos/tests/common/ota\aws_test_ota_pal.c **** 
 239:D:/Work/DeviceTester/amazon-freertos/tests/common/ota\aws_test_ota_pal.c ****         xOtaStatus = prvPAL_CloseFile( &xOtaFile );
 240:D:/Work/DeviceTester/amazon-freertos/tests/common/ota\aws_test_ota_pal.c ****         TEST_ASSERT_EQUAL_INT( kOTA_Err_None, xOtaStatus );
 241:D:/Work/DeviceTester/amazon-freertos/tests/common/ota\aws_test_ota_pal.c ****     }
 242:D:/Work/DeviceTester/amazon-freertos/tests/common/ota\aws_test_ota_pal.c **** }
 243:D:/Work/DeviceTester/amazon-freertos/tests/common/ota\aws_test_ota_pal.c **** 
 244:D:/Work/DeviceTester/amazon-freertos/tests/common/ota\aws_test_ota_pal.c **** extern CK_RV xProvisionCertificate( CK_SESSION_HANDLE xSession,
 245:D:/Work/DeviceTester/amazon-freertos/tests/common/ota\aws_test_ota_pal.c ****                                     uint8_t * pucCodeSignCertificate,
 246:D:/Work/DeviceTester/amazon-freertos/tests/common/ota\aws_test_ota_pal.c ****                                     size_t xCertificateLength,
 247:D:/Work/DeviceTester/amazon-freertos/tests/common/ota\aws_test_ota_pal.c ****                                     uint8_t * pucLabel,
 248:D:/Work/DeviceTester/amazon-freertos/tests/common/ota\aws_test_ota_pal.c ****                                     CK_OBJECT_HANDLE_PTR xObjectHandle );
 249:D:/Work/DeviceTester/amazon-freertos/tests/common/ota\aws_test_ota_pal.c **** 
 250:D:/Work/DeviceTester/amazon-freertos/tests/common/ota\aws_test_ota_pal.c **** CK_RV prvImportCodeSigningCertificate( const uint8_t * pucCertificate,
 251:D:/Work/DeviceTester/amazon-freertos/tests/common/ota\aws_test_ota_pal.c ****                                        size_t xCertificateLength,
 252:D:/Work/DeviceTester/amazon-freertos/tests/common/ota\aws_test_ota_pal.c ****                                        uint8_t * pucLabel )
 253:D:/Work/DeviceTester/amazon-freertos/tests/common/ota\aws_test_ota_pal.c **** {
 254:D:/Work/DeviceTester/amazon-freertos/tests/common/ota\aws_test_ota_pal.c ****     /* Find the certificate */
 255:D:/Work/DeviceTester/amazon-freertos/tests/common/ota\aws_test_ota_pal.c ****     CK_OBJECT_HANDLE xHandle;
 256:D:/Work/DeviceTester/amazon-freertos/tests/common/ota\aws_test_ota_pal.c ****     CK_RV xResult;
 257:D:/Work/DeviceTester/amazon-freertos/tests/common/ota\aws_test_ota_pal.c ****     CK_FUNCTION_LIST_PTR xFunctionList;
 258:D:/Work/DeviceTester/amazon-freertos/tests/common/ota\aws_test_ota_pal.c ****     CK_SLOT_ID xSlotId;
 259:D:/Work/DeviceTester/amazon-freertos/tests/common/ota\aws_test_ota_pal.c ****     CK_ULONG xCount = 1;
 260:D:/Work/DeviceTester/amazon-freertos/tests/common/ota\aws_test_ota_pal.c ****     CK_SESSION_HANDLE xSession;
 261:D:/Work/DeviceTester/amazon-freertos/tests/common/ota\aws_test_ota_pal.c ****     CK_BBOOL xSessionOpen = CK_FALSE;
 262:D:/Work/DeviceTester/amazon-freertos/tests/common/ota\aws_test_ota_pal.c **** 
 263:D:/Work/DeviceTester/amazon-freertos/tests/common/ota\aws_test_ota_pal.c ****     xResult = C_GetFunctionList( &xFunctionList );
 264:D:/Work/DeviceTester/amazon-freertos/tests/common/ota\aws_test_ota_pal.c **** 
 265:D:/Work/DeviceTester/amazon-freertos/tests/common/ota\aws_test_ota_pal.c ****     if( CKR_OK == xResult )
 266:D:/Work/DeviceTester/amazon-freertos/tests/common/ota\aws_test_ota_pal.c ****     {
 267:D:/Work/DeviceTester/amazon-freertos/tests/common/ota\aws_test_ota_pal.c ****         xResult = xFunctionList->C_Initialize( NULL );
 268:D:/Work/DeviceTester/amazon-freertos/tests/common/ota\aws_test_ota_pal.c ****     }
 269:D:/Work/DeviceTester/amazon-freertos/tests/common/ota\aws_test_ota_pal.c **** 
 270:D:/Work/DeviceTester/amazon-freertos/tests/common/ota\aws_test_ota_pal.c ****     if( ( CKR_OK == xResult ) || ( CKR_CRYPTOKI_ALREADY_INITIALIZED == xResult ) )
 271:D:/Work/DeviceTester/amazon-freertos/tests/common/ota\aws_test_ota_pal.c ****     {
 272:D:/Work/DeviceTester/amazon-freertos/tests/common/ota\aws_test_ota_pal.c ****         xResult = xFunctionList->C_GetSlotList( CK_TRUE, &xSlotId, &xCount );
 273:D:/Work/DeviceTester/amazon-freertos/tests/common/ota\aws_test_ota_pal.c ****     }
 274:D:/Work/DeviceTester/amazon-freertos/tests/common/ota\aws_test_ota_pal.c **** 
 275:D:/Work/DeviceTester/amazon-freertos/tests/common/ota\aws_test_ota_pal.c ****     if( CKR_OK == xResult )
 276:D:/Work/DeviceTester/amazon-freertos/tests/common/ota\aws_test_ota_pal.c ****     {
 277:D:/Work/DeviceTester/amazon-freertos/tests/common/ota\aws_test_ota_pal.c ****         xResult = xFunctionList->C_OpenSession( xSlotId, CKF_SERIAL_SESSION, NULL, NULL, &xSession 
 278:D:/Work/DeviceTester/amazon-freertos/tests/common/ota\aws_test_ota_pal.c ****     }
 279:D:/Work/DeviceTester/amazon-freertos/tests/common/ota\aws_test_ota_pal.c **** 
 280:D:/Work/DeviceTester/amazon-freertos/tests/common/ota\aws_test_ota_pal.c ****     if( CKR_OK == xResult )
 281:D:/Work/DeviceTester/amazon-freertos/tests/common/ota\aws_test_ota_pal.c ****     {
 282:D:/Work/DeviceTester/amazon-freertos/tests/common/ota\aws_test_ota_pal.c ****         xSessionOpen = CK_TRUE;
 283:D:/Work/DeviceTester/amazon-freertos/tests/common/ota\aws_test_ota_pal.c ****         xResult = xProvisionCertificate( xSession,
 284:D:/Work/DeviceTester/amazon-freertos/tests/common/ota\aws_test_ota_pal.c ****                                          ( uint8_t * ) pucCertificate,
 285:D:/Work/DeviceTester/amazon-freertos/tests/common/ota\aws_test_ota_pal.c ****                                          xCertificateLength,
 286:D:/Work/DeviceTester/amazon-freertos/tests/common/ota\aws_test_ota_pal.c ****                                          pucLabel,
 287:D:/Work/DeviceTester/amazon-freertos/tests/common/ota\aws_test_ota_pal.c ****                                          &xHandle );
 288:D:/Work/DeviceTester/amazon-freertos/tests/common/ota\aws_test_ota_pal.c ****     }
 289:D:/Work/DeviceTester/amazon-freertos/tests/common/ota\aws_test_ota_pal.c **** 
 290:D:/Work/DeviceTester/amazon-freertos/tests/common/ota\aws_test_ota_pal.c ****     if( xSessionOpen == CK_TRUE )
 291:D:/Work/DeviceTester/amazon-freertos/tests/common/ota\aws_test_ota_pal.c ****     {
 292:D:/Work/DeviceTester/amazon-freertos/tests/common/ota\aws_test_ota_pal.c ****         xResult = xFunctionList->C_CloseSession( xSession );
 293:D:/Work/DeviceTester/amazon-freertos/tests/common/ota\aws_test_ota_pal.c ****     }
 294:D:/Work/DeviceTester/amazon-freertos/tests/common/ota\aws_test_ota_pal.c **** 
 295:D:/Work/DeviceTester/amazon-freertos/tests/common/ota\aws_test_ota_pal.c ****     return xResult;
 296:D:/Work/DeviceTester/amazon-freertos/tests/common/ota\aws_test_ota_pal.c **** }
 297:D:/Work/DeviceTester/amazon-freertos/tests/common/ota\aws_test_ota_pal.c **** 
 298:D:/Work/DeviceTester/amazon-freertos/tests/common/ota\aws_test_ota_pal.c **** /**
 299:D:/Work/DeviceTester/amazon-freertos/tests/common/ota\aws_test_ota_pal.c ****  * @brief Test prvPAL_CloseFile with a valid signature and signature verification
 300:D:/Work/DeviceTester/amazon-freertos/tests/common/ota\aws_test_ota_pal.c ****  * certificate when the code verification key has already been imported to flash.
 301:D:/Work/DeviceTester/amazon-freertos/tests/common/ota\aws_test_ota_pal.c ****  * Verify the success.
 302:D:/Work/DeviceTester/amazon-freertos/tests/common/ota\aws_test_ota_pal.c ****  */
 303:D:/Work/DeviceTester/amazon-freertos/tests/common/ota\aws_test_ota_pal.c **** TEST( Full_OTA_PAL, prvPAL_CloseFile_ValidSignatureKeyInFlash )
 304:D:/Work/DeviceTester/amazon-freertos/tests/common/ota\aws_test_ota_pal.c **** {
 305:D:/Work/DeviceTester/amazon-freertos/tests/common/ota\aws_test_ota_pal.c ****     OTA_Err_t xOtaStatus;
 306:D:/Work/DeviceTester/amazon-freertos/tests/common/ota\aws_test_ota_pal.c ****     Sig256_t xSig = { 0 };
 307:D:/Work/DeviceTester/amazon-freertos/tests/common/ota\aws_test_ota_pal.c ****     CK_RV xResult;
 308:D:/Work/DeviceTester/amazon-freertos/tests/common/ota\aws_test_ota_pal.c **** 
 309:D:/Work/DeviceTester/amazon-freertos/tests/common/ota\aws_test_ota_pal.c ****     /* Import the code signing certificate into NVM using the PKCS #11 module. */
 310:D:/Work/DeviceTester/amazon-freertos/tests/common/ota\aws_test_ota_pal.c ****     xResult = prvImportCodeSigningCertificate( signingcredentialSIGNING_CERTIFICATE_PEM,
 311:D:/Work/DeviceTester/amazon-freertos/tests/common/ota\aws_test_ota_pal.c ****                                                sizeof( signingcredentialSIGNING_CERTIFICATE_PEM ),
 312:D:/Work/DeviceTester/amazon-freertos/tests/common/ota\aws_test_ota_pal.c ****                                                pkcs11configLABEL_CODE_VERIFICATION_KEY );
 313:D:/Work/DeviceTester/amazon-freertos/tests/common/ota\aws_test_ota_pal.c ****     TEST_ASSERT_EQUAL( CKR_OK, xResult );
 314:D:/Work/DeviceTester/amazon-freertos/tests/common/ota\aws_test_ota_pal.c **** 
 315:D:/Work/DeviceTester/amazon-freertos/tests/common/ota\aws_test_ota_pal.c ****     /* We use a dummy file name here because closing the system designated bootable
 316:D:/Work/DeviceTester/amazon-freertos/tests/common/ota\aws_test_ota_pal.c ****      * image with content that is not runnable may cause issues. */
 317:D:/Work/DeviceTester/amazon-freertos/tests/common/ota\aws_test_ota_pal.c ****     /* xOtaFile.pucFilePath = otatestpalFIRMWARE_FILE; */
 318:D:/Work/DeviceTester/amazon-freertos/tests/common/ota\aws_test_ota_pal.c ****     xOtaFile.pucFilePath = ( uint8_t * ) ( "test_happy_path_image.bin" );
 319:D:/Work/DeviceTester/amazon-freertos/tests/common/ota\aws_test_ota_pal.c ****     xOtaStatus = prvPAL_CreateFileForRx( &xOtaFile );
 320:D:/Work/DeviceTester/amazon-freertos/tests/common/ota\aws_test_ota_pal.c ****     TEST_ASSERT_EQUAL( kOTA_Err_None, xOtaStatus );
 321:D:/Work/DeviceTester/amazon-freertos/tests/common/ota\aws_test_ota_pal.c **** 
 322:D:/Work/DeviceTester/amazon-freertos/tests/common/ota\aws_test_ota_pal.c ****     /* We still want to close the file if the test fails somewhere here. */
 323:D:/Work/DeviceTester/amazon-freertos/tests/common/ota\aws_test_ota_pal.c ****     if( TEST_PROTECT() )
 324:D:/Work/DeviceTester/amazon-freertos/tests/common/ota\aws_test_ota_pal.c ****     {
 325:D:/Work/DeviceTester/amazon-freertos/tests/common/ota\aws_test_ota_pal.c ****         /* Write data to the file. */
 326:D:/Work/DeviceTester/amazon-freertos/tests/common/ota\aws_test_ota_pal.c ****         xOtaStatus = prvPAL_WriteBlock( &xOtaFile,
 327:D:/Work/DeviceTester/amazon-freertos/tests/common/ota\aws_test_ota_pal.c ****                                         0,
 328:D:/Work/DeviceTester/amazon-freertos/tests/common/ota\aws_test_ota_pal.c ****                                         ucDummyData,
 329:D:/Work/DeviceTester/amazon-freertos/tests/common/ota\aws_test_ota_pal.c ****                                         sizeof( ucDummyData ) );
 330:D:/Work/DeviceTester/amazon-freertos/tests/common/ota\aws_test_ota_pal.c ****         TEST_ASSERT_EQUAL( sizeof( ucDummyData ), xOtaStatus );
 331:D:/Work/DeviceTester/amazon-freertos/tests/common/ota\aws_test_ota_pal.c **** 
 332:D:/Work/DeviceTester/amazon-freertos/tests/common/ota\aws_test_ota_pal.c ****         xOtaFile.pxSignature = &xSig;
 333:D:/Work/DeviceTester/amazon-freertos/tests/common/ota\aws_test_ota_pal.c ****         xOtaFile.pxSignature->usSize = ucValidSignatureLength;
 334:D:/Work/DeviceTester/amazon-freertos/tests/common/ota\aws_test_ota_pal.c ****         memcpy( xOtaFile.pxSignature->ucData, ucValidSignature, ucValidSignatureLength );
 335:D:/Work/DeviceTester/amazon-freertos/tests/common/ota\aws_test_ota_pal.c ****         /* The PKCS #11 label is used to retrieve the code signing certificate. */
 336:D:/Work/DeviceTester/amazon-freertos/tests/common/ota\aws_test_ota_pal.c ****         xOtaFile.pucCertFilepath = ( uint8_t * ) pkcs11configLABEL_CODE_VERIFICATION_KEY;
 337:D:/Work/DeviceTester/amazon-freertos/tests/common/ota\aws_test_ota_pal.c **** 
 338:D:/Work/DeviceTester/amazon-freertos/tests/common/ota\aws_test_ota_pal.c ****         xOtaStatus = prvPAL_CloseFile( &xOtaFile );
 339:D:/Work/DeviceTester/amazon-freertos/tests/common/ota\aws_test_ota_pal.c ****         TEST_ASSERT_EQUAL_INT( kOTA_Err_None, xOtaStatus );
 340:D:/Work/DeviceTester/amazon-freertos/tests/common/ota\aws_test_ota_pal.c ****     }
 341:D:/Work/DeviceTester/amazon-freertos/tests/common/ota\aws_test_ota_pal.c **** }
 342:D:/Work/DeviceTester/amazon-freertos/tests/common/ota\aws_test_ota_pal.c **** 
 343:D:/Work/DeviceTester/amazon-freertos/tests/common/ota\aws_test_ota_pal.c **** 
 344:D:/Work/DeviceTester/amazon-freertos/tests/common/ota\aws_test_ota_pal.c **** /**
 345:D:/Work/DeviceTester/amazon-freertos/tests/common/ota\aws_test_ota_pal.c ****  * @brief Call prvPAL_CloseFile with an invalid signature in the file context.
 346:D:/Work/DeviceTester/amazon-freertos/tests/common/ota\aws_test_ota_pal.c ****  * The close is called after we have a written a block of dummy data to the file.
 347:D:/Work/DeviceTester/amazon-freertos/tests/common/ota\aws_test_ota_pal.c ****  * Verify the correct OTA Agent level error code is returned from prvPAL_CloseFile.
 348:D:/Work/DeviceTester/amazon-freertos/tests/common/ota\aws_test_ota_pal.c ****  */
 349:D:/Work/DeviceTester/amazon-freertos/tests/common/ota\aws_test_ota_pal.c **** TEST( Full_OTA_PAL, prvPAL_CloseFile_InvalidSignatureBlockWritten )
 350:D:/Work/DeviceTester/amazon-freertos/tests/common/ota\aws_test_ota_pal.c **** {
 351:D:/Work/DeviceTester/amazon-freertos/tests/common/ota\aws_test_ota_pal.c ****     OTA_Err_t xOtaStatus;
 352:D:/Work/DeviceTester/amazon-freertos/tests/common/ota\aws_test_ota_pal.c ****     Sig256_t xSig = { 0 };
 353:D:/Work/DeviceTester/amazon-freertos/tests/common/ota\aws_test_ota_pal.c **** 
 354:D:/Work/DeviceTester/amazon-freertos/tests/common/ota\aws_test_ota_pal.c ****     /* Create a local file using the PAL. */
 355:D:/Work/DeviceTester/amazon-freertos/tests/common/ota\aws_test_ota_pal.c ****     xOtaFile.pucFilePath = ( uint8_t * ) otatestpalFIRMWARE_FILE;
 356:D:/Work/DeviceTester/amazon-freertos/tests/common/ota\aws_test_ota_pal.c ****     xOtaStatus = prvPAL_CreateFileForRx( &xOtaFile );
 357:D:/Work/DeviceTester/amazon-freertos/tests/common/ota\aws_test_ota_pal.c ****     TEST_ASSERT_EQUAL( kOTA_Err_None, xOtaStatus );
 358:D:/Work/DeviceTester/amazon-freertos/tests/common/ota\aws_test_ota_pal.c **** 
 359:D:/Work/DeviceTester/amazon-freertos/tests/common/ota\aws_test_ota_pal.c ****     /* We still want to close the file if the test fails somewhere here. */
 360:D:/Work/DeviceTester/amazon-freertos/tests/common/ota\aws_test_ota_pal.c ****     if( TEST_PROTECT() )
 361:D:/Work/DeviceTester/amazon-freertos/tests/common/ota\aws_test_ota_pal.c ****     {
 362:D:/Work/DeviceTester/amazon-freertos/tests/common/ota\aws_test_ota_pal.c ****         /* Write data to the file. */
 363:D:/Work/DeviceTester/amazon-freertos/tests/common/ota\aws_test_ota_pal.c ****         xOtaStatus = prvPAL_WriteBlock( &xOtaFile,
 364:D:/Work/DeviceTester/amazon-freertos/tests/common/ota\aws_test_ota_pal.c ****                                         0,
 365:D:/Work/DeviceTester/amazon-freertos/tests/common/ota\aws_test_ota_pal.c ****                                         ucDummyData,
 366:D:/Work/DeviceTester/amazon-freertos/tests/common/ota\aws_test_ota_pal.c ****                                         sizeof( ucDummyData ) );
 367:D:/Work/DeviceTester/amazon-freertos/tests/common/ota\aws_test_ota_pal.c ****         TEST_ASSERT_EQUAL( sizeof( ucDummyData ), xOtaStatus );
 368:D:/Work/DeviceTester/amazon-freertos/tests/common/ota\aws_test_ota_pal.c **** 
 369:D:/Work/DeviceTester/amazon-freertos/tests/common/ota\aws_test_ota_pal.c ****         /* Fill out an incorrect signature. */
 370:D:/Work/DeviceTester/amazon-freertos/tests/common/ota\aws_test_ota_pal.c ****         xOtaFile.pxSignature = &xSig;
 371:D:/Work/DeviceTester/amazon-freertos/tests/common/ota\aws_test_ota_pal.c ****         xOtaFile.pxSignature->usSize = ucInvalidSignatureLength;
 372:D:/Work/DeviceTester/amazon-freertos/tests/common/ota\aws_test_ota_pal.c ****         memcpy( xOtaFile.pxSignature->ucData, ucInvalidSignature, ucInvalidSignatureLength );
 373:D:/Work/DeviceTester/amazon-freertos/tests/common/ota\aws_test_ota_pal.c ****         xOtaFile.pucCertFilepath = ( uint8_t * ) otatestpalCERTIFICATE_FILE;
 374:D:/Work/DeviceTester/amazon-freertos/tests/common/ota\aws_test_ota_pal.c **** 
 375:D:/Work/DeviceTester/amazon-freertos/tests/common/ota\aws_test_ota_pal.c ****         /* Try to close the file. */
 376:D:/Work/DeviceTester/amazon-freertos/tests/common/ota\aws_test_ota_pal.c ****         xOtaStatus = prvPAL_CloseFile( &xOtaFile );
 377:D:/Work/DeviceTester/amazon-freertos/tests/common/ota\aws_test_ota_pal.c **** 
 378:D:/Work/DeviceTester/amazon-freertos/tests/common/ota\aws_test_ota_pal.c ****         if( ( kOTA_Err_BadSignerCert != ( xOtaStatus & ~kOTA_PAL_ErrMask ) ) &&
 379:D:/Work/DeviceTester/amazon-freertos/tests/common/ota\aws_test_ota_pal.c ****             ( kOTA_Err_SignatureCheckFailed != ( xOtaStatus & ~kOTA_PAL_ErrMask ) ) &&
 380:D:/Work/DeviceTester/amazon-freertos/tests/common/ota\aws_test_ota_pal.c ****             ( kOTA_Err_FileClose != ( xOtaStatus & ~kOTA_PAL_ErrMask ) ) )
 381:D:/Work/DeviceTester/amazon-freertos/tests/common/ota\aws_test_ota_pal.c ****         {
 382:D:/Work/DeviceTester/amazon-freertos/tests/common/ota\aws_test_ota_pal.c ****             TEST_ASSERT_TRUE( 0 );
 383:D:/Work/DeviceTester/amazon-freertos/tests/common/ota\aws_test_ota_pal.c ****         }
 384:D:/Work/DeviceTester/amazon-freertos/tests/common/ota\aws_test_ota_pal.c ****     }
 385:D:/Work/DeviceTester/amazon-freertos/tests/common/ota\aws_test_ota_pal.c **** }
 386:D:/Work/DeviceTester/amazon-freertos/tests/common/ota\aws_test_ota_pal.c **** 
 387:D:/Work/DeviceTester/amazon-freertos/tests/common/ota\aws_test_ota_pal.c **** /**
 388:D:/Work/DeviceTester/amazon-freertos/tests/common/ota\aws_test_ota_pal.c ****  * @brief Call prvPAL_CloseFile with an invalid signature in the file context.
 389:D:/Work/DeviceTester/amazon-freertos/tests/common/ota\aws_test_ota_pal.c ****  * The close is called when no blocks have been written to the file.
 390:D:/Work/DeviceTester/amazon-freertos/tests/common/ota\aws_test_ota_pal.c ****  * Verify the correct OTA Agent level error code is returned from prvPAL_CloseFile.
 391:D:/Work/DeviceTester/amazon-freertos/tests/common/ota\aws_test_ota_pal.c ****  */
 392:D:/Work/DeviceTester/amazon-freertos/tests/common/ota\aws_test_ota_pal.c **** TEST( Full_OTA_PAL, prvPAL_CloseFile_InvalidSignatureNoBlockWritten )
 393:D:/Work/DeviceTester/amazon-freertos/tests/common/ota\aws_test_ota_pal.c **** {
 394:D:/Work/DeviceTester/amazon-freertos/tests/common/ota\aws_test_ota_pal.c ****     OTA_Err_t xOtaStatus;
 395:D:/Work/DeviceTester/amazon-freertos/tests/common/ota\aws_test_ota_pal.c ****     Sig256_t xSig = { 0 };
 396:D:/Work/DeviceTester/amazon-freertos/tests/common/ota\aws_test_ota_pal.c **** 
 397:D:/Work/DeviceTester/amazon-freertos/tests/common/ota\aws_test_ota_pal.c ****     /* Create a local file using the PAL. */
 398:D:/Work/DeviceTester/amazon-freertos/tests/common/ota\aws_test_ota_pal.c ****     xOtaFile.pucFilePath = ( uint8_t * ) otatestpalFIRMWARE_FILE;
 399:D:/Work/DeviceTester/amazon-freertos/tests/common/ota\aws_test_ota_pal.c ****     xOtaStatus = prvPAL_CreateFileForRx( &xOtaFile );
 400:D:/Work/DeviceTester/amazon-freertos/tests/common/ota\aws_test_ota_pal.c ****     TEST_ASSERT_EQUAL( kOTA_Err_None, xOtaStatus );
 401:D:/Work/DeviceTester/amazon-freertos/tests/common/ota\aws_test_ota_pal.c **** 
 402:D:/Work/DeviceTester/amazon-freertos/tests/common/ota\aws_test_ota_pal.c ****     /* Fill out an incorrect signature. */
 403:D:/Work/DeviceTester/amazon-freertos/tests/common/ota\aws_test_ota_pal.c ****     xOtaFile.pxSignature = &xSig;
 404:D:/Work/DeviceTester/amazon-freertos/tests/common/ota\aws_test_ota_pal.c ****     xOtaFile.pxSignature->usSize = ucInvalidSignatureLength;
 405:D:/Work/DeviceTester/amazon-freertos/tests/common/ota\aws_test_ota_pal.c ****     memcpy( xOtaFile.pxSignature->ucData, ucInvalidSignature, ucInvalidSignatureLength );
 406:D:/Work/DeviceTester/amazon-freertos/tests/common/ota\aws_test_ota_pal.c ****     xOtaFile.pucCertFilepath = ( uint8_t * ) otatestpalCERTIFICATE_FILE;
 407:D:/Work/DeviceTester/amazon-freertos/tests/common/ota\aws_test_ota_pal.c **** 
 408:D:/Work/DeviceTester/amazon-freertos/tests/common/ota\aws_test_ota_pal.c ****     /* We still want to close the file if the test fails somewhere here. */
 409:D:/Work/DeviceTester/amazon-freertos/tests/common/ota\aws_test_ota_pal.c ****     if( TEST_PROTECT() )
 410:D:/Work/DeviceTester/amazon-freertos/tests/common/ota\aws_test_ota_pal.c ****     {
 411:D:/Work/DeviceTester/amazon-freertos/tests/common/ota\aws_test_ota_pal.c ****         /* Try to close the file. */
 412:D:/Work/DeviceTester/amazon-freertos/tests/common/ota\aws_test_ota_pal.c ****         xOtaStatus = prvPAL_CloseFile( &xOtaFile );
 413:D:/Work/DeviceTester/amazon-freertos/tests/common/ota\aws_test_ota_pal.c **** 
 414:D:/Work/DeviceTester/amazon-freertos/tests/common/ota\aws_test_ota_pal.c ****         if( ( kOTA_Err_BadSignerCert != ( xOtaStatus & ~kOTA_PAL_ErrMask ) ) &&
 415:D:/Work/DeviceTester/amazon-freertos/tests/common/ota\aws_test_ota_pal.c ****             ( kOTA_Err_SignatureCheckFailed != ( xOtaStatus & ~kOTA_PAL_ErrMask ) ) &&
 416:D:/Work/DeviceTester/amazon-freertos/tests/common/ota\aws_test_ota_pal.c ****             ( kOTA_Err_FileClose != ( xOtaStatus & ~kOTA_PAL_ErrMask ) ) )
 417:D:/Work/DeviceTester/amazon-freertos/tests/common/ota\aws_test_ota_pal.c ****         {
 418:D:/Work/DeviceTester/amazon-freertos/tests/common/ota\aws_test_ota_pal.c ****             TEST_ASSERT_TRUE( 0 );
 419:D:/Work/DeviceTester/amazon-freertos/tests/common/ota\aws_test_ota_pal.c ****         }
 420:D:/Work/DeviceTester/amazon-freertos/tests/common/ota\aws_test_ota_pal.c ****     }
 421:D:/Work/DeviceTester/amazon-freertos/tests/common/ota\aws_test_ota_pal.c **** }
 422:D:/Work/DeviceTester/amazon-freertos/tests/common/ota\aws_test_ota_pal.c **** 
 423:D:/Work/DeviceTester/amazon-freertos/tests/common/ota\aws_test_ota_pal.c **** /**
 424:D:/Work/DeviceTester/amazon-freertos/tests/common/ota\aws_test_ota_pal.c ****  * @brief Call prvPAL_CloseFile with a signature verification certificate path does
 425:D:/Work/DeviceTester/amazon-freertos/tests/common/ota\aws_test_ota_pal.c ****  * not exist in the system. Verify the correct OTA Agent level error code is returned
 426:D:/Work/DeviceTester/amazon-freertos/tests/common/ota\aws_test_ota_pal.c ****  * from prvPAL_CloseFile.
 427:D:/Work/DeviceTester/amazon-freertos/tests/common/ota\aws_test_ota_pal.c ****  *
 428:D:/Work/DeviceTester/amazon-freertos/tests/common/ota\aws_test_ota_pal.c ****  * @note This test is only valid if your device uses a file system in your non-volatile memory.
 429:D:/Work/DeviceTester/amazon-freertos/tests/common/ota\aws_test_ota_pal.c ****  * Some devices may revert to using aws_codesigner_certificate.h if a file is not found, but
 430:D:/Work/DeviceTester/amazon-freertos/tests/common/ota\aws_test_ota_pal.c ****  * that option is not being enforced.
 431:D:/Work/DeviceTester/amazon-freertos/tests/common/ota\aws_test_ota_pal.c ****  */
 432:D:/Work/DeviceTester/amazon-freertos/tests/common/ota\aws_test_ota_pal.c **** TEST( Full_OTA_PAL, prvPAL_CloseFile_NonexistingCodeSignerCertificate )
 433:D:/Work/DeviceTester/amazon-freertos/tests/common/ota\aws_test_ota_pal.c **** {
 434:D:/Work/DeviceTester/amazon-freertos/tests/common/ota\aws_test_ota_pal.c ****     OTA_Err_t xOtaStatus;
 435:D:/Work/DeviceTester/amazon-freertos/tests/common/ota\aws_test_ota_pal.c ****     Sig256_t xSig = { 0 };
 436:D:/Work/DeviceTester/amazon-freertos/tests/common/ota\aws_test_ota_pal.c **** 
 437:D:/Work/DeviceTester/amazon-freertos/tests/common/ota\aws_test_ota_pal.c ****     memset( &xOtaFile, 0, sizeof( xOtaFile ) );
 438:D:/Work/DeviceTester/amazon-freertos/tests/common/ota\aws_test_ota_pal.c **** 
 439:D:/Work/DeviceTester/amazon-freertos/tests/common/ota\aws_test_ota_pal.c ****     /* Create a local file using the PAL. */
 440:D:/Work/DeviceTester/amazon-freertos/tests/common/ota\aws_test_ota_pal.c ****     xOtaFile.pucFilePath = ( uint8_t * ) otatestpalFIRMWARE_FILE;
 441:D:/Work/DeviceTester/amazon-freertos/tests/common/ota\aws_test_ota_pal.c ****     xOtaStatus = prvPAL_CreateFileForRx( &xOtaFile );
 442:D:/Work/DeviceTester/amazon-freertos/tests/common/ota\aws_test_ota_pal.c ****     TEST_ASSERT_EQUAL( kOTA_Err_None, xOtaStatus );
 443:D:/Work/DeviceTester/amazon-freertos/tests/common/ota\aws_test_ota_pal.c **** 
 444:D:/Work/DeviceTester/amazon-freertos/tests/common/ota\aws_test_ota_pal.c ****     /* We still want to close the file if the test fails somewhere here. */
 445:D:/Work/DeviceTester/amazon-freertos/tests/common/ota\aws_test_ota_pal.c ****     if( TEST_PROTECT() )
 446:D:/Work/DeviceTester/amazon-freertos/tests/common/ota\aws_test_ota_pal.c ****     {
 447:D:/Work/DeviceTester/amazon-freertos/tests/common/ota\aws_test_ota_pal.c ****         /* Write data to the file. */
 448:D:/Work/DeviceTester/amazon-freertos/tests/common/ota\aws_test_ota_pal.c ****         xOtaStatus = prvPAL_WriteBlock( &xOtaFile,
 449:D:/Work/DeviceTester/amazon-freertos/tests/common/ota\aws_test_ota_pal.c ****                                         0,
 450:D:/Work/DeviceTester/amazon-freertos/tests/common/ota\aws_test_ota_pal.c ****                                         ucDummyData,
 451:D:/Work/DeviceTester/amazon-freertos/tests/common/ota\aws_test_ota_pal.c ****                                         sizeof( ucDummyData ) );
 452:D:/Work/DeviceTester/amazon-freertos/tests/common/ota\aws_test_ota_pal.c ****         TEST_ASSERT_EQUAL( sizeof( ucDummyData ), xOtaStatus );
 453:D:/Work/DeviceTester/amazon-freertos/tests/common/ota\aws_test_ota_pal.c **** 
 454:D:/Work/DeviceTester/amazon-freertos/tests/common/ota\aws_test_ota_pal.c ****         /* Check the signature (not expected to be valid in this case). */
 455:D:/Work/DeviceTester/amazon-freertos/tests/common/ota\aws_test_ota_pal.c ****         xOtaFile.pxSignature = &xSig;
 456:D:/Work/DeviceTester/amazon-freertos/tests/common/ota\aws_test_ota_pal.c ****         xOtaFile.pxSignature->usSize = ucValidSignatureLength;
 457:D:/Work/DeviceTester/amazon-freertos/tests/common/ota\aws_test_ota_pal.c ****         memcpy( xOtaFile.pxSignature->ucData, ucValidSignature, ucValidSignatureLength );
 458:D:/Work/DeviceTester/amazon-freertos/tests/common/ota\aws_test_ota_pal.c ****         xOtaFile.pucCertFilepath = ( uint8_t * ) ( "nonexistingfile.crt" );
 459:D:/Work/DeviceTester/amazon-freertos/tests/common/ota\aws_test_ota_pal.c **** 
 460:D:/Work/DeviceTester/amazon-freertos/tests/common/ota\aws_test_ota_pal.c ****         xOtaStatus = prvPAL_CloseFile( &xOtaFile );
 461:D:/Work/DeviceTester/amazon-freertos/tests/common/ota\aws_test_ota_pal.c **** 
 462:D:/Work/DeviceTester/amazon-freertos/tests/common/ota\aws_test_ota_pal.c ****         if( ( kOTA_Err_BadSignerCert != ( xOtaStatus & ~kOTA_PAL_ErrMask ) ) &&
 463:D:/Work/DeviceTester/amazon-freertos/tests/common/ota\aws_test_ota_pal.c ****             ( kOTA_Err_SignatureCheckFailed != ( xOtaStatus & ~kOTA_PAL_ErrMask ) ) &&
 464:D:/Work/DeviceTester/amazon-freertos/tests/common/ota\aws_test_ota_pal.c ****             ( kOTA_Err_FileClose != ( xOtaStatus & ~kOTA_PAL_ErrMask ) ) )
 465:D:/Work/DeviceTester/amazon-freertos/tests/common/ota\aws_test_ota_pal.c ****         {
 466:D:/Work/DeviceTester/amazon-freertos/tests/common/ota\aws_test_ota_pal.c ****             TEST_ASSERT_TRUE( 0 );
 467:D:/Work/DeviceTester/amazon-freertos/tests/common/ota\aws_test_ota_pal.c ****         }
 468:D:/Work/DeviceTester/amazon-freertos/tests/common/ota\aws_test_ota_pal.c ****     }
 469:D:/Work/DeviceTester/amazon-freertos/tests/common/ota\aws_test_ota_pal.c **** }
 470:D:/Work/DeviceTester/amazon-freertos/tests/common/ota\aws_test_ota_pal.c **** 
 471:D:/Work/DeviceTester/amazon-freertos/tests/common/ota\aws_test_ota_pal.c **** /**
 472:D:/Work/DeviceTester/amazon-freertos/tests/common/ota\aws_test_ota_pal.c ****  * @brief Create a file with any name, and verify success.
 473:D:/Work/DeviceTester/amazon-freertos/tests/common/ota\aws_test_ota_pal.c ****  */
 474:D:/Work/DeviceTester/amazon-freertos/tests/common/ota\aws_test_ota_pal.c **** TEST( Full_OTA_PAL, prvPAL_CreateFileForRx_CreateAnyFile )
 475:D:/Work/DeviceTester/amazon-freertos/tests/common/ota\aws_test_ota_pal.c **** {
  96              		.loc 1 475 0
  97              		.cfi_startproc
  98              		@ args = 0, pretend = 0, frame = 0
  99              		@ frame_needed = 0, uses_anonymous_args = 0
 100 0000 13402DE9 		push	{r0, r1, r4, lr}
 101              		.cfi_def_cfa_offset 16
 102              		.cfi_offset 4, -8
 103              		.cfi_offset 14, -4
 476:D:/Work/DeviceTester/amazon-freertos/tests/common/ota\aws_test_ota_pal.c ****     OTA_Err_t xOtaStatus;
 477:D:/Work/DeviceTester/amazon-freertos/tests/common/ota\aws_test_ota_pal.c **** 
 478:D:/Work/DeviceTester/amazon-freertos/tests/common/ota\aws_test_ota_pal.c ****     memset( &xOtaFile, 0, sizeof( OTA_FileContext_t ) );
 104              		.loc 1 478 0
 105 0004 3C20A0E3 		mov	r2, #60
 106 0008 3C409FE5 		ldr	r4, .L11
 107 000c 0010A0E3 		mov	r1, #0
 108 0010 0400A0E1 		mov	r0, r4
 109 0014 FEFFFFEB 		bl	memset
 110              	.LVL4:
 479:D:/Work/DeviceTester/amazon-freertos/tests/common/ota\aws_test_ota_pal.c **** 
 480:D:/Work/DeviceTester/amazon-freertos/tests/common/ota\aws_test_ota_pal.c ****     /* TEST: Create a local file using the PAL. Verify error in close. */
 481:D:/Work/DeviceTester/amazon-freertos/tests/common/ota\aws_test_ota_pal.c ****     xOtaFile.pucFilePath = ( uint8_t * ) otatestpalFIRMWARE_FILE;
 111              		.loc 1 481 0
 112 0018 30309FE5 		ldr	r3, .L11+4
 482:D:/Work/DeviceTester/amazon-freertos/tests/common/ota\aws_test_ota_pal.c ****     xOtaStatus = prvPAL_CreateFileForRx( &xOtaFile );
 113              		.loc 1 482 0
 114 001c 0400A0E1 		mov	r0, r4
 481:D:/Work/DeviceTester/amazon-freertos/tests/common/ota\aws_test_ota_pal.c ****     xOtaStatus = prvPAL_CreateFileForRx( &xOtaFile );
 115              		.loc 1 481 0
 116 0020 003084E5 		str	r3, [r4]
 117              		.loc 1 482 0
 118 0024 FEFFFFEB 		bl	prvPAL_CreateFileForRx
 119              	.LVL5:
 483:D:/Work/DeviceTester/amazon-freertos/tests/common/ota\aws_test_ota_pal.c ****     TEST_ASSERT_EQUAL( kOTA_Err_None, xOtaStatus );
 120              		.loc 1 483 0
 121 0028 0020A0E3 		mov	r2, #0
 122 002c 1430A0E3 		mov	r3, #20
 123 0030 00308DE5 		str	r3, [sp]
 124 0034 0010A0E1 		mov	r1, r0
 125 0038 E33100E3 		movw	r3, #483
 126 003c 0200A0E1 		mov	r0, r2
 127              	.LVL6:
 128 0040 FEFFFFEB 		bl	UnityAssertEqualNumber
 129              	.LVL7:
 484:D:/Work/DeviceTester/amazon-freertos/tests/common/ota\aws_test_ota_pal.c **** }
 130              		.loc 1 484 0
 131 0044 08D08DE2 		add	sp, sp, #8
 132              		.cfi_def_cfa_offset 8
 133              		@ sp needed
 134 0048 1080BDE8 		pop	{r4, pc}
 135              	.L12:
 136              		.align	2
 137              	.L11:
 138 004c 00000000 		.word	.LANCHOR0
 139 0050 00000000 		.word	.LC1
 140              		.cfi_endproc
 141              	.LFE16:
 143              		.section	.text.TEST_Full_OTA_PAL_prvPAL_Abort_OpenFile_,"ax",%progbits
 144              		.align	2
 145              		.global	TEST_Full_OTA_PAL_prvPAL_Abort_OpenFile_
 146              		.syntax unified
 147              		.arm
 148              		.fpu neon
 150              	TEST_Full_OTA_PAL_prvPAL_Abort_OpenFile_:
 151              	.LFB18:
 485:D:/Work/DeviceTester/amazon-freertos/tests/common/ota\aws_test_ota_pal.c **** 
 486:D:/Work/DeviceTester/amazon-freertos/tests/common/ota\aws_test_ota_pal.c **** /**
 487:D:/Work/DeviceTester/amazon-freertos/tests/common/ota\aws_test_ota_pal.c ****  * @brief Abort on an open file. Verify success.
 488:D:/Work/DeviceTester/amazon-freertos/tests/common/ota\aws_test_ota_pal.c ****  */
 489:D:/Work/DeviceTester/amazon-freertos/tests/common/ota\aws_test_ota_pal.c **** TEST( Full_OTA_PAL, prvPAL_Abort_OpenFile )
 490:D:/Work/DeviceTester/amazon-freertos/tests/common/ota\aws_test_ota_pal.c **** {
 152              		.loc 1 490 0
 153              		.cfi_startproc
 154              		@ args = 0, pretend = 0, frame = 0
 155              		@ frame_needed = 0, uses_anonymous_args = 0
 156 0000 37402DE9 		push	{r0, r1, r2, r4, r5, lr}
 157              		.cfi_def_cfa_offset 24
 158              		.cfi_offset 4, -12
 159              		.cfi_offset 5, -8
 160              		.cfi_offset 14, -4
 491:D:/Work/DeviceTester/amazon-freertos/tests/common/ota\aws_test_ota_pal.c ****     OTA_Err_t xOtaStatus;
 492:D:/Work/DeviceTester/amazon-freertos/tests/common/ota\aws_test_ota_pal.c **** 
 493:D:/Work/DeviceTester/amazon-freertos/tests/common/ota\aws_test_ota_pal.c ****     xOtaFile.pucFilePath = ( uint8_t * ) otatestpalFIRMWARE_FILE;
 494:D:/Work/DeviceTester/amazon-freertos/tests/common/ota\aws_test_ota_pal.c **** 
 495:D:/Work/DeviceTester/amazon-freertos/tests/common/ota\aws_test_ota_pal.c ****     /* Create a local file using the PAL. */
 496:D:/Work/DeviceTester/amazon-freertos/tests/common/ota\aws_test_ota_pal.c ****     xOtaStatus = prvPAL_CreateFileForRx( &xOtaFile );
 497:D:/Work/DeviceTester/amazon-freertos/tests/common/ota\aws_test_ota_pal.c ****     TEST_ASSERT_EQUAL( kOTA_Err_None, xOtaStatus );
 161              		.loc 1 497 0
 162 0004 1450A0E3 		mov	r5, #20
 493:D:/Work/DeviceTester/amazon-freertos/tests/common/ota\aws_test_ota_pal.c **** 
 163              		.loc 1 493 0
 164 0008 64409FE5 		ldr	r4, .L15
 165 000c 64309FE5 		ldr	r3, .L15+4
 496:D:/Work/DeviceTester/amazon-freertos/tests/common/ota\aws_test_ota_pal.c ****     TEST_ASSERT_EQUAL( kOTA_Err_None, xOtaStatus );
 166              		.loc 1 496 0
 167 0010 0400A0E1 		mov	r0, r4
 493:D:/Work/DeviceTester/amazon-freertos/tests/common/ota\aws_test_ota_pal.c **** 
 168              		.loc 1 493 0
 169 0014 003084E5 		str	r3, [r4]
 496:D:/Work/DeviceTester/amazon-freertos/tests/common/ota\aws_test_ota_pal.c ****     TEST_ASSERT_EQUAL( kOTA_Err_None, xOtaStatus );
 170              		.loc 1 496 0
 171 0018 FEFFFFEB 		bl	prvPAL_CreateFileForRx
 172              	.LVL8:
 173              		.loc 1 497 0
 174 001c 0020A0E3 		mov	r2, #0
 175 0020 0010A0E1 		mov	r1, r0
 176 0024 F13100E3 		movw	r3, #497
 177 0028 0200A0E1 		mov	r0, r2
 178              	.LVL9:
 179 002c 00508DE5 		str	r5, [sp]
 180 0030 FEFFFFEB 		bl	UnityAssertEqualNumber
 181              	.LVL10:
 498:D:/Work/DeviceTester/amazon-freertos/tests/common/ota\aws_test_ota_pal.c **** 
 499:D:/Work/DeviceTester/amazon-freertos/tests/common/ota\aws_test_ota_pal.c ****     /* Signal that the download is being aborted. */
 500:D:/Work/DeviceTester/amazon-freertos/tests/common/ota\aws_test_ota_pal.c ****     xOtaStatus = prvPAL_Abort( &xOtaFile );
 182              		.loc 1 500 0
 183 0034 0400A0E1 		mov	r0, r4
 184 0038 FEFFFFEB 		bl	prvPAL_Abort
 185              	.LVL11:
 501:D:/Work/DeviceTester/amazon-freertos/tests/common/ota\aws_test_ota_pal.c ****     TEST_ASSERT_EQUAL_INT( kOTA_Err_None, xOtaStatus );
 186              		.loc 1 501 0
 187 003c 0020A0E3 		mov	r2, #0
 188 0040 0010A0E1 		mov	r1, r0
 189 0044 00508DE5 		str	r5, [sp]
 190 0048 0200A0E1 		mov	r0, r2
 191              	.LVL12:
 192 004c F53100E3 		movw	r3, #501
 193 0050 FEFFFFEB 		bl	UnityAssertEqualNumber
 194              	.LVL13:
 502:D:/Work/DeviceTester/amazon-freertos/tests/common/ota\aws_test_ota_pal.c **** 
 503:D:/Work/DeviceTester/amazon-freertos/tests/common/ota\aws_test_ota_pal.c ****     /* Verify that the file handle is null. */
 504:D:/Work/DeviceTester/amazon-freertos/tests/common/ota\aws_test_ota_pal.c ****     TEST_ASSERT_EQUAL_INT( NULL, xOtaFile.pucFile );
 195              		.loc 1 504 0
 196 0054 0020A0E3 		mov	r2, #0
 197 0058 00508DE5 		str	r5, [sp]
 198 005c 7E3FA0E3 		mov	r3, #504
 199 0060 041094E5 		ldr	r1, [r4, #4]
 200 0064 0200A0E1 		mov	r0, r2
 201 0068 FEFFFFEB 		bl	UnityAssertEqualNumber
 202              	.LVL14:
 505:D:/Work/DeviceTester/amazon-freertos/tests/common/ota\aws_test_ota_pal.c **** }
 203              		.loc 1 505 0
 204 006c 0CD08DE2 		add	sp, sp, #12
 205              		.cfi_def_cfa_offset 12
 206              		@ sp needed
 207 0070 3080BDE8 		pop	{r4, r5, pc}
 208              	.L16:
 209              		.align	2
 210              	.L15:
 211 0074 00000000 		.word	.LANCHOR0
 212 0078 00000000 		.word	.LC1
 213              		.cfi_endproc
 214              	.LFE18:
 216              		.section	.text.TEST_Full_OTA_PAL_prvPAL_Abort_NullFileHandle_,"ax",%progbits
 217              		.align	2
 218              		.global	TEST_Full_OTA_PAL_prvPAL_Abort_NullFileHandle_
 219              		.syntax unified
 220              		.arm
 221              		.fpu neon
 223              	TEST_Full_OTA_PAL_prvPAL_Abort_NullFileHandle_:
 224              	.LFB22:
 506:D:/Work/DeviceTester/amazon-freertos/tests/common/ota\aws_test_ota_pal.c **** 
 507:D:/Work/DeviceTester/amazon-freertos/tests/common/ota\aws_test_ota_pal.c **** /**
 508:D:/Work/DeviceTester/amazon-freertos/tests/common/ota\aws_test_ota_pal.c ****  * @brief Abort after writing a block to an open file. Verify success.
 509:D:/Work/DeviceTester/amazon-freertos/tests/common/ota\aws_test_ota_pal.c ****  */
 510:D:/Work/DeviceTester/amazon-freertos/tests/common/ota\aws_test_ota_pal.c **** TEST( Full_OTA_PAL, prvPAL_Abort_FileWithBlockWritten )
 511:D:/Work/DeviceTester/amazon-freertos/tests/common/ota\aws_test_ota_pal.c **** {
 512:D:/Work/DeviceTester/amazon-freertos/tests/common/ota\aws_test_ota_pal.c ****     OTA_Err_t xOtaStatus;
 513:D:/Work/DeviceTester/amazon-freertos/tests/common/ota\aws_test_ota_pal.c **** 
 514:D:/Work/DeviceTester/amazon-freertos/tests/common/ota\aws_test_ota_pal.c ****     xOtaFile.pucFilePath = ( uint8_t * ) otatestpalFIRMWARE_FILE;
 515:D:/Work/DeviceTester/amazon-freertos/tests/common/ota\aws_test_ota_pal.c **** 
 516:D:/Work/DeviceTester/amazon-freertos/tests/common/ota\aws_test_ota_pal.c ****     /* Create a local file again using the PAL. */
 517:D:/Work/DeviceTester/amazon-freertos/tests/common/ota\aws_test_ota_pal.c ****     xOtaStatus = prvPAL_CreateFileForRx( &xOtaFile );
 518:D:/Work/DeviceTester/amazon-freertos/tests/common/ota\aws_test_ota_pal.c ****     TEST_ASSERT_EQUAL( kOTA_Err_None, xOtaStatus );
 519:D:/Work/DeviceTester/amazon-freertos/tests/common/ota\aws_test_ota_pal.c **** 
 520:D:/Work/DeviceTester/amazon-freertos/tests/common/ota\aws_test_ota_pal.c ****     /* We still want to close the file if the test fails here. */
 521:D:/Work/DeviceTester/amazon-freertos/tests/common/ota\aws_test_ota_pal.c ****     if( TEST_PROTECT() )
 522:D:/Work/DeviceTester/amazon-freertos/tests/common/ota\aws_test_ota_pal.c ****     {
 523:D:/Work/DeviceTester/amazon-freertos/tests/common/ota\aws_test_ota_pal.c ****         /* Write data to the file. */
 524:D:/Work/DeviceTester/amazon-freertos/tests/common/ota\aws_test_ota_pal.c ****         xOtaStatus = prvPAL_WriteBlock( &xOtaFile,
 525:D:/Work/DeviceTester/amazon-freertos/tests/common/ota\aws_test_ota_pal.c ****                                         0,
 526:D:/Work/DeviceTester/amazon-freertos/tests/common/ota\aws_test_ota_pal.c ****                                         ucDummyData,
 527:D:/Work/DeviceTester/amazon-freertos/tests/common/ota\aws_test_ota_pal.c ****                                         sizeof( ucDummyData ) );
 528:D:/Work/DeviceTester/amazon-freertos/tests/common/ota\aws_test_ota_pal.c ****         TEST_ASSERT_EQUAL( sizeof( ucDummyData ), xOtaStatus );
 529:D:/Work/DeviceTester/amazon-freertos/tests/common/ota\aws_test_ota_pal.c ****     }
 530:D:/Work/DeviceTester/amazon-freertos/tests/common/ota\aws_test_ota_pal.c **** 
 531:D:/Work/DeviceTester/amazon-freertos/tests/common/ota\aws_test_ota_pal.c ****     /* Signal that the download is being aborted. */
 532:D:/Work/DeviceTester/amazon-freertos/tests/common/ota\aws_test_ota_pal.c ****     xOtaStatus = prvPAL_Abort( &xOtaFile );
 533:D:/Work/DeviceTester/amazon-freertos/tests/common/ota\aws_test_ota_pal.c ****     TEST_ASSERT_EQUAL_INT( kOTA_Err_None, xOtaStatus );
 534:D:/Work/DeviceTester/amazon-freertos/tests/common/ota\aws_test_ota_pal.c **** 
 535:D:/Work/DeviceTester/amazon-freertos/tests/common/ota\aws_test_ota_pal.c ****     /* Verify that the file handle is null. */
 536:D:/Work/DeviceTester/amazon-freertos/tests/common/ota\aws_test_ota_pal.c ****     TEST_ASSERT_EQUAL_INT( NULL, xOtaFile.pucFile );
 537:D:/Work/DeviceTester/amazon-freertos/tests/common/ota\aws_test_ota_pal.c **** }
 538:D:/Work/DeviceTester/amazon-freertos/tests/common/ota\aws_test_ota_pal.c **** 
 539:D:/Work/DeviceTester/amazon-freertos/tests/common/ota\aws_test_ota_pal.c **** /**
 540:D:/Work/DeviceTester/amazon-freertos/tests/common/ota\aws_test_ota_pal.c ****  * @brief Call prvPAL_Abort on a NULL file handle. Verify there is no error.
 541:D:/Work/DeviceTester/amazon-freertos/tests/common/ota\aws_test_ota_pal.c ****  */
 542:D:/Work/DeviceTester/amazon-freertos/tests/common/ota\aws_test_ota_pal.c **** TEST( Full_OTA_PAL, prvPAL_Abort_NullFileHandle )
 543:D:/Work/DeviceTester/amazon-freertos/tests/common/ota\aws_test_ota_pal.c **** {
 225              		.loc 1 543 0
 226              		.cfi_startproc
 227              		@ args = 0, pretend = 0, frame = 0
 228              		@ frame_needed = 0, uses_anonymous_args = 0
 229 0000 13402DE9 		push	{r0, r1, r4, lr}
 230              		.cfi_def_cfa_offset 16
 231              		.cfi_offset 4, -8
 232              		.cfi_offset 14, -4
 544:D:/Work/DeviceTester/amazon-freertos/tests/common/ota\aws_test_ota_pal.c ****     OTA_Err_t xOtaStatus;
 545:D:/Work/DeviceTester/amazon-freertos/tests/common/ota\aws_test_ota_pal.c **** 
 546:D:/Work/DeviceTester/amazon-freertos/tests/common/ota\aws_test_ota_pal.c ****     xOtaFile.pucFilePath = ( uint8_t * ) otatestpalFIRMWARE_FILE;
 547:D:/Work/DeviceTester/amazon-freertos/tests/common/ota\aws_test_ota_pal.c **** 
 548:D:/Work/DeviceTester/amazon-freertos/tests/common/ota\aws_test_ota_pal.c ****     xOtaFile.lFileHandle = 0;
 233              		.loc 1 548 0
 234 0004 0040A0E3 		mov	r4, #0
 546:D:/Work/DeviceTester/amazon-freertos/tests/common/ota\aws_test_ota_pal.c **** 
 235              		.loc 1 546 0
 236 0008 30009FE5 		ldr	r0, .L19
 237 000c 30309FE5 		ldr	r3, .L19+4
 238              		.loc 1 548 0
 239 0010 044080E5 		str	r4, [r0, #4]
 546:D:/Work/DeviceTester/amazon-freertos/tests/common/ota\aws_test_ota_pal.c **** 
 240              		.loc 1 546 0
 241 0014 003080E5 		str	r3, [r0]
 549:D:/Work/DeviceTester/amazon-freertos/tests/common/ota\aws_test_ota_pal.c ****     xOtaStatus = prvPAL_Abort( &xOtaFile );
 242              		.loc 1 549 0
 243 0018 FEFFFFEB 		bl	prvPAL_Abort
 244              	.LVL15:
 550:D:/Work/DeviceTester/amazon-freertos/tests/common/ota\aws_test_ota_pal.c ****     TEST_ASSERT_EQUAL_INT( kOTA_Err_None, xOtaStatus );
 245              		.loc 1 550 0
 246 001c 1430A0E3 		mov	r3, #20
 247 0020 0010A0E1 		mov	r1, r0
 248 0024 00308DE5 		str	r3, [sp]
 249 0028 0420A0E1 		mov	r2, r4
 250 002c 263200E3 		movw	r3, #550
 251 0030 0400A0E1 		mov	r0, r4
 252              	.LVL16:
 253 0034 FEFFFFEB 		bl	UnityAssertEqualNumber
 254              	.LVL17:
 551:D:/Work/DeviceTester/amazon-freertos/tests/common/ota\aws_test_ota_pal.c **** }
 255              		.loc 1 551 0
 256 0038 08D08DE2 		add	sp, sp, #8
 257              		.cfi_def_cfa_offset 8
 258              		@ sp needed
 259 003c 1080BDE8 		pop	{r4, pc}
 260              	.L20:
 261              		.align	2
 262              	.L19:
 263 0040 00000000 		.word	.LANCHOR0
 264 0044 00000000 		.word	.LC1
 265              		.cfi_endproc
 266              	.LFE22:
 268              		.section	.text.TEST_Full_OTA_PAL_prvPAL_Abort_NonExistentFile_,"ax",%progbits
 269              		.align	2
 270              		.global	TEST_Full_OTA_PAL_prvPAL_Abort_NonExistentFile_
 271              		.syntax unified
 272              		.arm
 273              		.fpu neon
 275              	TEST_Full_OTA_PAL_prvPAL_Abort_NonExistentFile_:
 276              	.LFB24:
 552:D:/Work/DeviceTester/amazon-freertos/tests/common/ota\aws_test_ota_pal.c **** 
 553:D:/Work/DeviceTester/amazon-freertos/tests/common/ota\aws_test_ota_pal.c **** /**
 554:D:/Work/DeviceTester/amazon-freertos/tests/common/ota\aws_test_ota_pal.c ****  * @brief Verify there is no error for aborting a file that doesn't exist.
 555:D:/Work/DeviceTester/amazon-freertos/tests/common/ota\aws_test_ota_pal.c ****  */
 556:D:/Work/DeviceTester/amazon-freertos/tests/common/ota\aws_test_ota_pal.c **** TEST( Full_OTA_PAL, prvPAL_Abort_NonExistentFile )
 557:D:/Work/DeviceTester/amazon-freertos/tests/common/ota\aws_test_ota_pal.c **** {
 277              		.loc 1 557 0
 278              		.cfi_startproc
 279              		@ args = 0, pretend = 0, frame = 0
 280              		@ frame_needed = 0, uses_anonymous_args = 0
 281 0000 07402DE9 		push	{r0, r1, r2, lr}
 282              		.cfi_def_cfa_offset 16
 283              		.cfi_offset 14, -4
 558:D:/Work/DeviceTester/amazon-freertos/tests/common/ota\aws_test_ota_pal.c ****     OTA_Err_t xOtaStatus;
 559:D:/Work/DeviceTester/amazon-freertos/tests/common/ota\aws_test_ota_pal.c **** 
 560:D:/Work/DeviceTester/amazon-freertos/tests/common/ota\aws_test_ota_pal.c ****     xOtaFile.pucFilePath = ( uint8_t * ) otatestpalFIRMWARE_FILE;
 561:D:/Work/DeviceTester/amazon-freertos/tests/common/ota\aws_test_ota_pal.c **** 
 562:D:/Work/DeviceTester/amazon-freertos/tests/common/ota\aws_test_ota_pal.c ****     xOtaFile.pucFilePath = ( uint8_t * ) ( "nonexistingfile.bin" );
 284              		.loc 1 562 0
 285 0004 2C309FE5 		ldr	r3, .L23
 286 0008 2C009FE5 		ldr	r0, .L23+4
 287 000c 003080E5 		str	r3, [r0]
 563:D:/Work/DeviceTester/amazon-freertos/tests/common/ota\aws_test_ota_pal.c ****     xOtaStatus = prvPAL_Abort( &xOtaFile );
 288              		.loc 1 563 0
 289 0010 FEFFFFEB 		bl	prvPAL_Abort
 290              	.LVL18:
 564:D:/Work/DeviceTester/amazon-freertos/tests/common/ota\aws_test_ota_pal.c ****     TEST_ASSERT_EQUAL_INT( kOTA_Err_None, ( xOtaStatus & ~kOTA_PAL_ErrMask ) );
 291              		.loc 1 564 0
 292 0014 0020A0E3 		mov	r2, #0
 293 0018 1430A0E3 		mov	r3, #20
 294 001c 00308DE5 		str	r3, [sp]
 295 0020 FF1400E2 		and	r1, r0, #-16777216
 296 0024 8D3FA0E3 		mov	r3, #564
 297 0028 0200A0E1 		mov	r0, r2
 298              	.LVL19:
 299 002c FEFFFFEB 		bl	UnityAssertEqualNumber
 300              	.LVL20:
 565:D:/Work/DeviceTester/amazon-freertos/tests/common/ota\aws_test_ota_pal.c **** }
 301              		.loc 1 565 0
 302 0030 0CD08DE2 		add	sp, sp, #12
 303              		.cfi_def_cfa_offset 4
 304              		@ sp needed
 305 0034 04F09DE4 		ldr	pc, [sp], #4
 306              	.L24:
 307              		.align	2
 308              	.L23:
 309 0038 00000000 		.word	.LC2
 310 003c 00000000 		.word	.LANCHOR0
 311              		.cfi_endproc
 312              	.LFE24:
 314              		.section	.text.TEST_Full_OTA_PAL_prvPAL_Abort_FileWithBlockWritten_,"ax",%progbits
 315              		.align	2
 316              		.global	TEST_Full_OTA_PAL_prvPAL_Abort_FileWithBlockWritten_
 317              		.syntax unified
 318              		.arm
 319              		.fpu neon
 321              	TEST_Full_OTA_PAL_prvPAL_Abort_FileWithBlockWritten_:
 322              	.LFB20:
 511:D:/Work/DeviceTester/amazon-freertos/tests/common/ota\aws_test_ota_pal.c ****     OTA_Err_t xOtaStatus;
 323              		.loc 1 511 0
 324              		.cfi_startproc
 325              		@ args = 0, pretend = 0, frame = 0
 326              		@ frame_needed = 0, uses_anonymous_args = 0
 327 0000 37402DE9 		push	{r0, r1, r2, r4, r5, lr}
 328              		.cfi_def_cfa_offset 24
 329              		.cfi_offset 4, -12
 330              		.cfi_offset 5, -8
 331              		.cfi_offset 14, -4
 514:D:/Work/DeviceTester/amazon-freertos/tests/common/ota\aws_test_ota_pal.c **** 
 332              		.loc 1 514 0
 333 0004 AC309FE5 		ldr	r3, .L31
 334 0008 AC009FE5 		ldr	r0, .L31+4
 335 000c 003080E5 		str	r3, [r0]
 517:D:/Work/DeviceTester/amazon-freertos/tests/common/ota\aws_test_ota_pal.c ****     TEST_ASSERT_EQUAL( kOTA_Err_None, xOtaStatus );
 336              		.loc 1 517 0
 337 0010 FEFFFFEB 		bl	prvPAL_CreateFileForRx
 338              	.LVL21:
 518:D:/Work/DeviceTester/amazon-freertos/tests/common/ota\aws_test_ota_pal.c **** 
 339              		.loc 1 518 0
 340 0014 0020A0E3 		mov	r2, #0
 341 0018 1430A0E3 		mov	r3, #20
 342 001c 00308DE5 		str	r3, [sp]
 343 0020 0010A0E1 		mov	r1, r0
 344 0024 063200E3 		movw	r3, #518
 345 0028 0200A0E1 		mov	r0, r2
 346              	.LVL22:
 347 002c FEFFFFEB 		bl	UnityAssertEqualNumber
 348              	.LVL23:
 521:D:/Work/DeviceTester/amazon-freertos/tests/common/ota\aws_test_ota_pal.c ****     {
 349              		.loc 1 521 0
 350 0030 88009FE5 		ldr	r0, .L31+8
 351 0034 FEFFFFEB 		bl	setjmp
 352              	.LVL24:
 353 0038 004050E2 		subs	r4, r0, #0
 354 003c 0B00001A 		bne	.L28
 524:D:/Work/DeviceTester/amazon-freertos/tests/common/ota\aws_test_ota_pal.c ****                                         0,
 355              		.loc 1 524 0
 356 0040 5430A0E3 		mov	r3, #84
 357 0044 78209FE5 		ldr	r2, .L31+12
 358 0048 0410A0E1 		mov	r1, r4
 359 004c 68009FE5 		ldr	r0, .L31+4
 360 0050 FEFFFFEB 		bl	prvPAL_WriteBlock
 361              	.LVL25:
 528:D:/Work/DeviceTester/amazon-freertos/tests/common/ota\aws_test_ota_pal.c ****     }
 362              		.loc 1 528 0
 363 0054 1430A0E3 		mov	r3, #20
 364 0058 0010A0E1 		mov	r1, r0
 365 005c 00308DE5 		str	r3, [sp]
 366 0060 0420A0E1 		mov	r2, r4
 367 0064 213EA0E3 		mov	r3, #528
 368 0068 5400A0E3 		mov	r0, #84
 369              	.LVL26:
 370 006c FEFFFFEB 		bl	UnityAssertEqualNumber
 371              	.LVL27:
 372              	.L28:
 532:D:/Work/DeviceTester/amazon-freertos/tests/common/ota\aws_test_ota_pal.c ****     TEST_ASSERT_EQUAL_INT( kOTA_Err_None, xOtaStatus );
 373              		.loc 1 532 0
 374 0070 44409FE5 		ldr	r4, .L31+4
 533:D:/Work/DeviceTester/amazon-freertos/tests/common/ota\aws_test_ota_pal.c **** 
 375              		.loc 1 533 0
 376 0074 1450A0E3 		mov	r5, #20
 532:D:/Work/DeviceTester/amazon-freertos/tests/common/ota\aws_test_ota_pal.c ****     TEST_ASSERT_EQUAL_INT( kOTA_Err_None, xOtaStatus );
 377              		.loc 1 532 0
 378 0078 0400A0E1 		mov	r0, r4
 379 007c FEFFFFEB 		bl	prvPAL_Abort
 380              	.LVL28:
 533:D:/Work/DeviceTester/amazon-freertos/tests/common/ota\aws_test_ota_pal.c **** 
 381              		.loc 1 533 0
 382 0080 0020A0E3 		mov	r2, #0
 532:D:/Work/DeviceTester/amazon-freertos/tests/common/ota\aws_test_ota_pal.c ****     TEST_ASSERT_EQUAL_INT( kOTA_Err_None, xOtaStatus );
 383              		.loc 1 532 0
 384 0084 0010A0E1 		mov	r1, r0
 385              	.LVL29:
 533:D:/Work/DeviceTester/amazon-freertos/tests/common/ota\aws_test_ota_pal.c **** 
 386              		.loc 1 533 0
 387 0088 00508DE5 		str	r5, [sp]
 388 008c 0200A0E1 		mov	r0, r2
 389              	.LVL30:
 390 0090 153200E3 		movw	r3, #533
 391 0094 FEFFFFEB 		bl	UnityAssertEqualNumber
 392              	.LVL31:
 536:D:/Work/DeviceTester/amazon-freertos/tests/common/ota\aws_test_ota_pal.c **** }
 393              		.loc 1 536 0
 394 0098 0020A0E3 		mov	r2, #0
 395 009c 00508DE5 		str	r5, [sp]
 396 00a0 863FA0E3 		mov	r3, #536
 397 00a4 041094E5 		ldr	r1, [r4, #4]
 398 00a8 0200A0E1 		mov	r0, r2
 399 00ac FEFFFFEB 		bl	UnityAssertEqualNumber
 400              	.LVL32:
 537:D:/Work/DeviceTester/amazon-freertos/tests/common/ota\aws_test_ota_pal.c **** 
 401              		.loc 1 537 0
 402 00b0 0CD08DE2 		add	sp, sp, #12
 403              		.cfi_def_cfa_offset 12
 404              		@ sp needed
 405 00b4 3080BDE8 		pop	{r4, r5, pc}
 406              	.L32:
 407              		.align	2
 408              	.L31:
 409 00b8 00000000 		.word	.LC1
 410 00bc 00000000 		.word	.LANCHOR0
 411 00c0 28000000 		.word	Unity+40
 412 00c4 00000000 		.word	.LANCHOR1
 413              		.cfi_endproc
 414              	.LFE20:
 416              		.section	.text.TEST_Full_OTA_PAL_prvPAL_WriteBlock_WriteSingleByte_,"ax",%progbits
 417              		.align	2
 418              		.global	TEST_Full_OTA_PAL_prvPAL_WriteBlock_WriteSingleByte_
 419              		.syntax unified
 420              		.arm
 421              		.fpu neon
 423              	TEST_Full_OTA_PAL_prvPAL_WriteBlock_WriteSingleByte_:
 424              	.LFB26:
 566:D:/Work/DeviceTester/amazon-freertos/tests/common/ota\aws_test_ota_pal.c **** 
 567:D:/Work/DeviceTester/amazon-freertos/tests/common/ota\aws_test_ota_pal.c **** /**
 568:D:/Work/DeviceTester/amazon-freertos/tests/common/ota\aws_test_ota_pal.c ****  * Write one byte of data and verify success.
 569:D:/Work/DeviceTester/amazon-freertos/tests/common/ota\aws_test_ota_pal.c ****  */
 570:D:/Work/DeviceTester/amazon-freertos/tests/common/ota\aws_test_ota_pal.c **** TEST( Full_OTA_PAL, prvPAL_WriteBlock_WriteSingleByte )
 571:D:/Work/DeviceTester/amazon-freertos/tests/common/ota\aws_test_ota_pal.c **** {
 425              		.loc 1 571 0
 426              		.cfi_startproc
 427              		@ args = 0, pretend = 0, frame = 8
 428              		@ frame_needed = 0, uses_anonymous_args = 0
 429 0000 1F402DE9 		push	{r0, r1, r2, r3, r4, lr}
 430              		.cfi_def_cfa_offset 24
 431              		.cfi_offset 4, -8
 432              		.cfi_offset 14, -4
 572:D:/Work/DeviceTester/amazon-freertos/tests/common/ota\aws_test_ota_pal.c ****     OTA_Err_t xOtaStatus;
 573:D:/Work/DeviceTester/amazon-freertos/tests/common/ota\aws_test_ota_pal.c ****     int16_t sNumBytesWritten;
 574:D:/Work/DeviceTester/amazon-freertos/tests/common/ota\aws_test_ota_pal.c ****     uint8_t ucData = 0xAA;
 433              		.loc 1 574 0
 434 0004 5530E0E3 		mvn	r3, #85
 435 0008 0F30CDE5 		strb	r3, [sp, #15]
 575:D:/Work/DeviceTester/amazon-freertos/tests/common/ota\aws_test_ota_pal.c **** 
 576:D:/Work/DeviceTester/amazon-freertos/tests/common/ota\aws_test_ota_pal.c ****     /* TEST: Write a byte of data. */
 577:D:/Work/DeviceTester/amazon-freertos/tests/common/ota\aws_test_ota_pal.c ****     xOtaFile.pucFilePath = ( uint8_t * ) otatestpalFIRMWARE_FILE;
 436              		.loc 1 577 0
 437 000c 6C009FE5 		ldr	r0, .L37
 438 0010 6C309FE5 		ldr	r3, .L37+4
 439 0014 003080E5 		str	r3, [r0]
 578:D:/Work/DeviceTester/amazon-freertos/tests/common/ota\aws_test_ota_pal.c ****     xOtaStatus = prvPAL_CreateFileForRx( &xOtaFile );
 440              		.loc 1 578 0
 441 0018 FEFFFFEB 		bl	prvPAL_CreateFileForRx
 442              	.LVL33:
 579:D:/Work/DeviceTester/amazon-freertos/tests/common/ota\aws_test_ota_pal.c ****     TEST_ASSERT_EQUAL( kOTA_Err_None, xOtaStatus );
 443              		.loc 1 579 0
 444 001c 0020A0E3 		mov	r2, #0
 445 0020 1430A0E3 		mov	r3, #20
 446 0024 00308DE5 		str	r3, [sp]
 447 0028 0010A0E1 		mov	r1, r0
 448 002c 433200E3 		movw	r3, #579
 449 0030 0200A0E1 		mov	r0, r2
 450              	.LVL34:
 451 0034 FEFFFFEB 		bl	UnityAssertEqualNumber
 452              	.LVL35:
 580:D:/Work/DeviceTester/amazon-freertos/tests/common/ota\aws_test_ota_pal.c **** 
 581:D:/Work/DeviceTester/amazon-freertos/tests/common/ota\aws_test_ota_pal.c ****     if( TEST_PROTECT() )
 453              		.loc 1 581 0
 454 0038 48009FE5 		ldr	r0, .L37+8
 455 003c FEFFFFEB 		bl	setjmp
 456              	.LVL36:
 457 0040 004050E2 		subs	r4, r0, #0
 458 0044 0B00001A 		bne	.L33
 582:D:/Work/DeviceTester/amazon-freertos/tests/common/ota\aws_test_ota_pal.c ****     {
 583:D:/Work/DeviceTester/amazon-freertos/tests/common/ota\aws_test_ota_pal.c ****         sNumBytesWritten = prvPAL_WriteBlock( &xOtaFile, 0, &ucData, 1 );
 459              		.loc 1 583 0
 460 0048 0130A0E3 		mov	r3, #1
 461 004c 0F208DE2 		add	r2, sp, #15
 462 0050 0410A0E1 		mov	r1, r4
 463 0054 24009FE5 		ldr	r0, .L37
 464 0058 FEFFFFEB 		bl	prvPAL_WriteBlock
 465              	.LVL37:
 584:D:/Work/DeviceTester/amazon-freertos/tests/common/ota\aws_test_ota_pal.c ****         TEST_ASSERT_EQUAL_INT( 1, sNumBytesWritten );
 466              		.loc 1 584 0
 467 005c 1430A0E3 		mov	r3, #20
 468 0060 0010A0E1 		mov	r1, r0
 469 0064 00308DE5 		str	r3, [sp]
 470 0068 0420A0E1 		mov	r2, r4
 471 006c 923FA0E3 		mov	r3, #584
 472 0070 0100A0E3 		mov	r0, #1
 473              	.LVL38:
 474 0074 FEFFFFEB 		bl	UnityAssertEqualNumber
 475              	.LVL39:
 476              	.L33:
 585:D:/Work/DeviceTester/amazon-freertos/tests/common/ota\aws_test_ota_pal.c ****     }
 586:D:/Work/DeviceTester/amazon-freertos/tests/common/ota\aws_test_ota_pal.c **** }
 477              		.loc 1 586 0
 478 0078 10D08DE2 		add	sp, sp, #16
 479              		.cfi_def_cfa_offset 8
 480              		@ sp needed
 481 007c 1080BDE8 		pop	{r4, pc}
 482              	.L38:
 483              		.align	2
 484              	.L37:
 485 0080 00000000 		.word	.LANCHOR0
 486 0084 00000000 		.word	.LC1
 487 0088 28000000 		.word	Unity+40
 488              		.cfi_endproc
 489              	.LFE26:
 491              		.section	.text.TEST_Full_OTA_PAL_prvPAL_CloseFile_ValidSignature_,"ax",%progbits
 492              		.align	2
 493              		.global	TEST_Full_OTA_PAL_prvPAL_CloseFile_ValidSignature_
 494              		.syntax unified
 495              		.arm
 496              		.fpu neon
 498              	TEST_Full_OTA_PAL_prvPAL_CloseFile_ValidSignature_:
 499              	.LFB5:
 214:D:/Work/DeviceTester/amazon-freertos/tests/common/ota\aws_test_ota_pal.c ****     OTA_Err_t xOtaStatus;
 500              		.loc 1 214 0
 501              		.cfi_startproc
 502              		@ args = 0, pretend = 0, frame = 264
 503              		@ frame_needed = 0, uses_anonymous_args = 0
 504 0000 70402DE9 		push	{r4, r5, r6, lr}
 505              		.cfi_def_cfa_offset 16
 506              		.cfi_offset 4, -16
 507              		.cfi_offset 5, -12
 508              		.cfi_offset 6, -8
 509              		.cfi_offset 14, -4
 510 0004 11DE4DE2 		sub	sp, sp, #272
 511              		.cfi_def_cfa_offset 288
 216:D:/Work/DeviceTester/amazon-freertos/tests/common/ota\aws_test_ota_pal.c **** 
 512              		.loc 1 216 0
 513 0008 022100E3 		movw	r2, #258
 514 000c 0010A0E3 		mov	r1, #0
 515 0010 0C008DE2 		add	r0, sp, #12
 516 0014 FEFFFFEB 		bl	memset
 517              	.LVL40:
 220:D:/Work/DeviceTester/amazon-freertos/tests/common/ota\aws_test_ota_pal.c ****     xOtaStatus = prvPAL_CreateFileForRx( &xOtaFile );
 518              		.loc 1 220 0
 519 0018 B4309FE5 		ldr	r3, .L43
 520 001c B4009FE5 		ldr	r0, .L43+4
 521 0020 003080E5 		str	r3, [r0]
 221:D:/Work/DeviceTester/amazon-freertos/tests/common/ota\aws_test_ota_pal.c ****     TEST_ASSERT_EQUAL( kOTA_Err_None, xOtaStatus );
 522              		.loc 1 221 0
 523 0024 FEFFFFEB 		bl	prvPAL_CreateFileForRx
 524              	.LVL41:
 222:D:/Work/DeviceTester/amazon-freertos/tests/common/ota\aws_test_ota_pal.c **** 
 525              		.loc 1 222 0
 526 0028 0020A0E3 		mov	r2, #0
 527 002c 1430A0E3 		mov	r3, #20
 528 0030 00308DE5 		str	r3, [sp]
 529 0034 0010A0E1 		mov	r1, r0
 530 0038 DE30A0E3 		mov	r3, #222
 531 003c 0200A0E1 		mov	r0, r2
 532              	.LVL42:
 533 0040 FEFFFFEB 		bl	UnityAssertEqualNumber
 534              	.LVL43:
 225:D:/Work/DeviceTester/amazon-freertos/tests/common/ota\aws_test_ota_pal.c ****     {
 535              		.loc 1 225 0
 536 0044 90009FE5 		ldr	r0, .L43+8
 537 0048 FEFFFFEB 		bl	setjmp
 538              	.LVL44:
 539 004c 005050E2 		subs	r5, r0, #0
 540 0050 1D00001A 		bne	.L39
 228:D:/Work/DeviceTester/amazon-freertos/tests/common/ota\aws_test_ota_pal.c ****                                         0,
 541              		.loc 1 228 0
 542 0054 7C409FE5 		ldr	r4, .L43+4
 543 0058 5430A0E3 		mov	r3, #84
 544 005c 7C209FE5 		ldr	r2, .L43+12
 545 0060 0510A0E1 		mov	r1, r5
 232:D:/Work/DeviceTester/amazon-freertos/tests/common/ota\aws_test_ota_pal.c **** 
 546              		.loc 1 232 0
 547 0064 1460A0E3 		mov	r6, #20
 228:D:/Work/DeviceTester/amazon-freertos/tests/common/ota\aws_test_ota_pal.c ****                                         0,
 548              		.loc 1 228 0
 549 0068 0400A0E1 		mov	r0, r4
 550 006c FEFFFFEB 		bl	prvPAL_WriteBlock
 551              	.LVL45:
 232:D:/Work/DeviceTester/amazon-freertos/tests/common/ota\aws_test_ota_pal.c **** 
 552              		.loc 1 232 0
 553 0070 E830A0E3 		mov	r3, #232
 554 0074 0010A0E1 		mov	r1, r0
 555 0078 0520A0E1 		mov	r2, r5
 556 007c 5400A0E3 		mov	r0, #84
 557              	.LVL46:
 558 0080 00608DE5 		str	r6, [sp]
 559 0084 FEFFFFEB 		bl	UnityAssertEqualNumber
 560              	.LVL47:
 235:D:/Work/DeviceTester/amazon-freertos/tests/common/ota\aws_test_ota_pal.c ****         memcpy( xOtaFile.pxSignature->ucData, ucValidSignature, ucValidSignatureLength );
 561              		.loc 1 235 0
 562 0088 4620A0E3 		mov	r2, #70
 234:D:/Work/DeviceTester/amazon-freertos/tests/common/ota\aws_test_ota_pal.c ****         xOtaFile.pxSignature->usSize = ucValidSignatureLength;
 563              		.loc 1 234 0
 564 008c 0C308DE2 		add	r3, sp, #12
 236:D:/Work/DeviceTester/amazon-freertos/tests/common/ota\aws_test_ota_pal.c ****         xOtaFile.pucCertFilepath = ( uint8_t * ) otatestpalCERTIFICATE_FILE;
 565              		.loc 1 236 0
 566 0090 4C109FE5 		ldr	r1, .L43+16
 567 0094 0E008DE2 		add	r0, sp, #14
 235:D:/Work/DeviceTester/amazon-freertos/tests/common/ota\aws_test_ota_pal.c ****         memcpy( xOtaFile.pxSignature->ucData, ucValidSignature, ucValidSignatureLength );
 568              		.loc 1 235 0
 569 0098 BC20CDE1 		strh	r2, [sp, #12]	@ movhi
 234:D:/Work/DeviceTester/amazon-freertos/tests/common/ota\aws_test_ota_pal.c ****         xOtaFile.pxSignature->usSize = ucValidSignatureLength;
 570              		.loc 1 234 0
 571 009c 283084E5 		str	r3, [r4, #40]
 236:D:/Work/DeviceTester/amazon-freertos/tests/common/ota\aws_test_ota_pal.c ****         xOtaFile.pucCertFilepath = ( uint8_t * ) otatestpalCERTIFICATE_FILE;
 572              		.loc 1 236 0
 573 00a0 FEFFFFEB 		bl	memcpy
 574              	.LVL48:
 237:D:/Work/DeviceTester/amazon-freertos/tests/common/ota\aws_test_ota_pal.c **** 
 575              		.loc 1 237 0
 576 00a4 3C309FE5 		ldr	r3, .L43+20
 239:D:/Work/DeviceTester/amazon-freertos/tests/common/ota\aws_test_ota_pal.c ****         TEST_ASSERT_EQUAL_INT( kOTA_Err_None, xOtaStatus );
 577              		.loc 1 239 0
 578 00a8 0400A0E1 		mov	r0, r4
 237:D:/Work/DeviceTester/amazon-freertos/tests/common/ota\aws_test_ota_pal.c **** 
 579              		.loc 1 237 0
 580 00ac 303084E5 		str	r3, [r4, #48]
 239:D:/Work/DeviceTester/amazon-freertos/tests/common/ota\aws_test_ota_pal.c ****         TEST_ASSERT_EQUAL_INT( kOTA_Err_None, xOtaStatus );
 581              		.loc 1 239 0
 582 00b0 FEFFFFEB 		bl	prvPAL_CloseFile
 583              	.LVL49:
 240:D:/Work/DeviceTester/amazon-freertos/tests/common/ota\aws_test_ota_pal.c ****     }
 584              		.loc 1 240 0
 585 00b4 00608DE5 		str	r6, [sp]
 586 00b8 0010A0E1 		mov	r1, r0
 587 00bc F030A0E3 		mov	r3, #240
 588 00c0 0520A0E1 		mov	r2, r5
 589 00c4 0500A0E1 		mov	r0, r5
 590              	.LVL50:
 591 00c8 FEFFFFEB 		bl	UnityAssertEqualNumber
 592              	.LVL51:
 593              	.L39:
 242:D:/Work/DeviceTester/amazon-freertos/tests/common/ota\aws_test_ota_pal.c **** 
 594              		.loc 1 242 0
 595 00cc 11DE8DE2 		add	sp, sp, #272
 596              		.cfi_def_cfa_offset 16
 597              		@ sp needed
 598 00d0 7080BDE8 		pop	{r4, r5, r6, pc}
 599              	.L44:
 600              		.align	2
 601              	.L43:
 602 00d4 00000000 		.word	.LC3
 603 00d8 00000000 		.word	.LANCHOR0
 604 00dc 28000000 		.word	Unity+40
 605 00e0 00000000 		.word	.LANCHOR1
 606 00e4 00000000 		.word	.LANCHOR2
 607 00e8 1A000000 		.word	.LC4
 608              		.cfi_endproc
 609              	.LFE5:
 611              		.section	.text.TEST_Full_OTA_PAL_prvPAL_CloseFile_InvalidSignatureBlockWritten_,"ax",%progbits
 612              		.align	2
 613              		.global	TEST_Full_OTA_PAL_prvPAL_CloseFile_InvalidSignatureBlockWritten_
 614              		.syntax unified
 615              		.arm
 616              		.fpu neon
 618              	TEST_Full_OTA_PAL_prvPAL_CloseFile_InvalidSignatureBlockWritten_:
 619              	.LFB10:
 350:D:/Work/DeviceTester/amazon-freertos/tests/common/ota\aws_test_ota_pal.c ****     OTA_Err_t xOtaStatus;
 620              		.loc 1 350 0
 621              		.cfi_startproc
 622              		@ args = 0, pretend = 0, frame = 264
 623              		@ frame_needed = 0, uses_anonymous_args = 0
 624 0000 30402DE9 		push	{r4, r5, lr}
 625              		.cfi_def_cfa_offset 12
 626              		.cfi_offset 4, -12
 627              		.cfi_offset 5, -8
 628              		.cfi_offset 14, -4
 629 0004 45DF4DE2 		sub	sp, sp, #276
 630              		.cfi_def_cfa_offset 288
 352:D:/Work/DeviceTester/amazon-freertos/tests/common/ota\aws_test_ota_pal.c **** 
 631              		.loc 1 352 0
 632 0008 022100E3 		movw	r2, #258
 633 000c 0010A0E3 		mov	r1, #0
 634 0010 0C008DE2 		add	r0, sp, #12
 635 0014 FEFFFFEB 		bl	memset
 636              	.LVL52:
 355:D:/Work/DeviceTester/amazon-freertos/tests/common/ota\aws_test_ota_pal.c ****     xOtaStatus = prvPAL_CreateFileForRx( &xOtaFile );
 637              		.loc 1 355 0
 638 0018 BC309FE5 		ldr	r3, .L49
 639 001c BC009FE5 		ldr	r0, .L49+4
 640 0020 003080E5 		str	r3, [r0]
 356:D:/Work/DeviceTester/amazon-freertos/tests/common/ota\aws_test_ota_pal.c ****     TEST_ASSERT_EQUAL( kOTA_Err_None, xOtaStatus );
 641              		.loc 1 356 0
 642 0024 FEFFFFEB 		bl	prvPAL_CreateFileForRx
 643              	.LVL53:
 357:D:/Work/DeviceTester/amazon-freertos/tests/common/ota\aws_test_ota_pal.c **** 
 644              		.loc 1 357 0
 645 0028 0020A0E3 		mov	r2, #0
 646 002c 1430A0E3 		mov	r3, #20
 647 0030 00308DE5 		str	r3, [sp]
 648 0034 0010A0E1 		mov	r1, r0
 649 0038 653100E3 		movw	r3, #357
 650 003c 0200A0E1 		mov	r0, r2
 651              	.LVL54:
 652 0040 FEFFFFEB 		bl	UnityAssertEqualNumber
 653              	.LVL55:
 360:D:/Work/DeviceTester/amazon-freertos/tests/common/ota\aws_test_ota_pal.c ****     {
 654              		.loc 1 360 0
 655 0044 98009FE5 		ldr	r0, .L49+8
 656 0048 FEFFFFEB 		bl	setjmp
 657              	.LVL56:
 658 004c 005050E2 		subs	r5, r0, #0
 659 0050 1F00001A 		bne	.L45
 363:D:/Work/DeviceTester/amazon-freertos/tests/common/ota\aws_test_ota_pal.c ****                                         0,
 660              		.loc 1 363 0
 661 0054 84409FE5 		ldr	r4, .L49+4
 662 0058 5430A0E3 		mov	r3, #84
 663 005c 84209FE5 		ldr	r2, .L49+12
 664 0060 0510A0E1 		mov	r1, r5
 665 0064 0400A0E1 		mov	r0, r4
 666 0068 FEFFFFEB 		bl	prvPAL_WriteBlock
 667              	.LVL57:
 367:D:/Work/DeviceTester/amazon-freertos/tests/common/ota\aws_test_ota_pal.c **** 
 668              		.loc 1 367 0
 669 006c 1430A0E3 		mov	r3, #20
 670 0070 0010A0E1 		mov	r1, r0
 671 0074 00308DE5 		str	r3, [sp]
 672 0078 0520A0E1 		mov	r2, r5
 673 007c 6F3100E3 		movw	r3, #367
 674 0080 5400A0E3 		mov	r0, #84
 675              	.LVL58:
 676 0084 FEFFFFEB 		bl	UnityAssertEqualNumber
 677              	.LVL59:
 370:D:/Work/DeviceTester/amazon-freertos/tests/common/ota\aws_test_ota_pal.c ****         xOtaFile.pxSignature->usSize = ucInvalidSignatureLength;
 678              		.loc 1 370 0
 679 0088 0C308DE2 		add	r3, sp, #12
 371:D:/Work/DeviceTester/amazon-freertos/tests/common/ota\aws_test_ota_pal.c ****         memcpy( xOtaFile.pxSignature->ucData, ucInvalidSignature, ucInvalidSignatureLength );
 680              		.loc 1 371 0
 681 008c 4620A0E3 		mov	r2, #70
 372:D:/Work/DeviceTester/amazon-freertos/tests/common/ota\aws_test_ota_pal.c ****         xOtaFile.pucCertFilepath = ( uint8_t * ) otatestpalCERTIFICATE_FILE;
 682              		.loc 1 372 0
 683 0090 54109FE5 		ldr	r1, .L49+16
 684 0094 0E008DE2 		add	r0, sp, #14
 370:D:/Work/DeviceTester/amazon-freertos/tests/common/ota\aws_test_ota_pal.c ****         xOtaFile.pxSignature->usSize = ucInvalidSignatureLength;
 685              		.loc 1 370 0
 686 0098 283084E5 		str	r3, [r4, #40]
 371:D:/Work/DeviceTester/amazon-freertos/tests/common/ota\aws_test_ota_pal.c ****         memcpy( xOtaFile.pxSignature->ucData, ucInvalidSignature, ucInvalidSignatureLength );
 687              		.loc 1 371 0
 688 009c BC20CDE1 		strh	r2, [sp, #12]	@ movhi
 372:D:/Work/DeviceTester/amazon-freertos/tests/common/ota\aws_test_ota_pal.c ****         xOtaFile.pucCertFilepath = ( uint8_t * ) otatestpalCERTIFICATE_FILE;
 689              		.loc 1 372 0
 690 00a0 FEFFFFEB 		bl	memcpy
 691              	.LVL60:
 373:D:/Work/DeviceTester/amazon-freertos/tests/common/ota\aws_test_ota_pal.c **** 
 692              		.loc 1 373 0
 693 00a4 44309FE5 		ldr	r3, .L49+20
 376:D:/Work/DeviceTester/amazon-freertos/tests/common/ota\aws_test_ota_pal.c **** 
 694              		.loc 1 376 0
 695 00a8 0400A0E1 		mov	r0, r4
 373:D:/Work/DeviceTester/amazon-freertos/tests/common/ota\aws_test_ota_pal.c **** 
 696              		.loc 1 373 0
 697 00ac 303084E5 		str	r3, [r4, #48]
 376:D:/Work/DeviceTester/amazon-freertos/tests/common/ota\aws_test_ota_pal.c **** 
 698              		.loc 1 376 0
 699 00b0 FEFFFFEB 		bl	prvPAL_CloseFile
 700              	.LVL61:
 378:D:/Work/DeviceTester/amazon-freertos/tests/common/ota\aws_test_ota_pal.c ****             ( kOTA_Err_SignatureCheckFailed != ( xOtaStatus & ~kOTA_PAL_ErrMask ) ) &&
 701              		.loc 1 378 0
 702 00b4 FF3400E2 		and	r3, r0, #-16777216
 703 00b8 EF0400E2 		and	r0, r0, #-285212672
 704              	.LVL62:
 379:D:/Work/DeviceTester/amazon-freertos/tests/common/ota\aws_test_ota_pal.c ****             ( kOTA_Err_FileClose != ( xOtaStatus & ~kOTA_PAL_ErrMask ) ) )
 705              		.loc 1 379 0
 706 00bc 020453E3 		cmp	r3, #33554432
 707 00c0 01045013 		cmpne	r0, #16777216
 708 00c4 0200000A 		beq	.L45
 382:D:/Work/DeviceTester/amazon-freertos/tests/common/ota\aws_test_ota_pal.c ****         }
 709              		.loc 1 382 0 discriminator 1
 710 00c8 7E1100E3 		movw	r1, #382
 711 00cc 20009FE5 		ldr	r0, .L49+24
 712 00d0 FEFFFFEB 		bl	UnityFail
 713              	.LVL63:
 714              	.L45:
 385:D:/Work/DeviceTester/amazon-freertos/tests/common/ota\aws_test_ota_pal.c **** 
 715              		.loc 1 385 0
 716 00d4 45DF8DE2 		add	sp, sp, #276
 717              		.cfi_def_cfa_offset 12
 718              		@ sp needed
 719 00d8 3080BDE8 		pop	{r4, r5, pc}
 720              	.L50:
 721              		.align	2
 722              	.L49:
 723 00dc 00000000 		.word	.LC1
 724 00e0 00000000 		.word	.LANCHOR0
 725 00e4 28000000 		.word	Unity+40
 726 00e8 00000000 		.word	.LANCHOR1
 727 00ec 00000000 		.word	.LANCHOR3
 728 00f0 1A000000 		.word	.LC4
 729 00f4 00000000 		.word	.LC5
 730              		.cfi_endproc
 731              	.LFE10:
 733              		.section	.text.TEST_Full_OTA_PAL_prvPAL_CloseFile_InvalidSignatureNoBlockWritten_,"ax",%progbits
 734              		.align	2
 735              		.global	TEST_Full_OTA_PAL_prvPAL_CloseFile_InvalidSignatureNoBlockWritten_
 736              		.syntax unified
 737              		.arm
 738              		.fpu neon
 740              	TEST_Full_OTA_PAL_prvPAL_CloseFile_InvalidSignatureNoBlockWritten_:
 741              	.LFB12:
 393:D:/Work/DeviceTester/amazon-freertos/tests/common/ota\aws_test_ota_pal.c ****     OTA_Err_t xOtaStatus;
 742              		.loc 1 393 0
 743              		.cfi_startproc
 744              		@ args = 0, pretend = 0, frame = 264
 745              		@ frame_needed = 0, uses_anonymous_args = 0
 746 0000 30402DE9 		push	{r4, r5, lr}
 747              		.cfi_def_cfa_offset 12
 748              		.cfi_offset 4, -12
 749              		.cfi_offset 5, -8
 750              		.cfi_offset 14, -4
 751 0004 45DF4DE2 		sub	sp, sp, #276
 752              		.cfi_def_cfa_offset 288
 395:D:/Work/DeviceTester/amazon-freertos/tests/common/ota\aws_test_ota_pal.c **** 
 753              		.loc 1 395 0
 754 0008 0C508DE2 		add	r5, sp, #12
 398:D:/Work/DeviceTester/amazon-freertos/tests/common/ota\aws_test_ota_pal.c ****     xOtaStatus = prvPAL_CreateFileForRx( &xOtaFile );
 755              		.loc 1 398 0
 756 000c 98409FE5 		ldr	r4, .L55
 395:D:/Work/DeviceTester/amazon-freertos/tests/common/ota\aws_test_ota_pal.c **** 
 757              		.loc 1 395 0
 758 0010 022100E3 		movw	r2, #258
 759 0014 0010A0E3 		mov	r1, #0
 760 0018 0500A0E1 		mov	r0, r5
 761 001c FEFFFFEB 		bl	memset
 762              	.LVL64:
 398:D:/Work/DeviceTester/amazon-freertos/tests/common/ota\aws_test_ota_pal.c ****     xOtaStatus = prvPAL_CreateFileForRx( &xOtaFile );
 763              		.loc 1 398 0
 764 0020 88309FE5 		ldr	r3, .L55+4
 399:D:/Work/DeviceTester/amazon-freertos/tests/common/ota\aws_test_ota_pal.c ****     TEST_ASSERT_EQUAL( kOTA_Err_None, xOtaStatus );
 765              		.loc 1 399 0
 766 0024 0400A0E1 		mov	r0, r4
 398:D:/Work/DeviceTester/amazon-freertos/tests/common/ota\aws_test_ota_pal.c ****     xOtaStatus = prvPAL_CreateFileForRx( &xOtaFile );
 767              		.loc 1 398 0
 768 0028 003084E5 		str	r3, [r4]
 399:D:/Work/DeviceTester/amazon-freertos/tests/common/ota\aws_test_ota_pal.c ****     TEST_ASSERT_EQUAL( kOTA_Err_None, xOtaStatus );
 769              		.loc 1 399 0
 770 002c FEFFFFEB 		bl	prvPAL_CreateFileForRx
 771              	.LVL65:
 400:D:/Work/DeviceTester/amazon-freertos/tests/common/ota\aws_test_ota_pal.c **** 
 772              		.loc 1 400 0
 773 0030 0020A0E3 		mov	r2, #0
 774 0034 1430A0E3 		mov	r3, #20
 775 0038 00308DE5 		str	r3, [sp]
 776 003c 0010A0E1 		mov	r1, r0
 777 0040 193EA0E3 		mov	r3, #400
 778 0044 0200A0E1 		mov	r0, r2
 779              	.LVL66:
 780 0048 FEFFFFEB 		bl	UnityAssertEqualNumber
 781              	.LVL67:
 404:D:/Work/DeviceTester/amazon-freertos/tests/common/ota\aws_test_ota_pal.c ****     memcpy( xOtaFile.pxSignature->ucData, ucInvalidSignature, ucInvalidSignatureLength );
 782              		.loc 1 404 0
 783 004c 4620A0E3 		mov	r2, #70
 405:D:/Work/DeviceTester/amazon-freertos/tests/common/ota\aws_test_ota_pal.c ****     xOtaFile.pucCertFilepath = ( uint8_t * ) otatestpalCERTIFICATE_FILE;
 784              		.loc 1 405 0
 785 0050 5C109FE5 		ldr	r1, .L55+8
 786 0054 0E008DE2 		add	r0, sp, #14
 403:D:/Work/DeviceTester/amazon-freertos/tests/common/ota\aws_test_ota_pal.c ****     xOtaFile.pxSignature->usSize = ucInvalidSignatureLength;
 787              		.loc 1 403 0
 788 0058 285084E5 		str	r5, [r4, #40]
 404:D:/Work/DeviceTester/amazon-freertos/tests/common/ota\aws_test_ota_pal.c ****     memcpy( xOtaFile.pxSignature->ucData, ucInvalidSignature, ucInvalidSignatureLength );
 789              		.loc 1 404 0
 790 005c B020C5E1 		strh	r2, [r5]	@ movhi
 405:D:/Work/DeviceTester/amazon-freertos/tests/common/ota\aws_test_ota_pal.c ****     xOtaFile.pucCertFilepath = ( uint8_t * ) otatestpalCERTIFICATE_FILE;
 791              		.loc 1 405 0
 792 0060 FEFFFFEB 		bl	memcpy
 793              	.LVL68:
 406:D:/Work/DeviceTester/amazon-freertos/tests/common/ota\aws_test_ota_pal.c **** 
 794              		.loc 1 406 0
 795 0064 4C309FE5 		ldr	r3, .L55+12
 409:D:/Work/DeviceTester/amazon-freertos/tests/common/ota\aws_test_ota_pal.c ****     {
 796              		.loc 1 409 0
 797 0068 4C009FE5 		ldr	r0, .L55+16
 406:D:/Work/DeviceTester/amazon-freertos/tests/common/ota\aws_test_ota_pal.c **** 
 798              		.loc 1 406 0
 799 006c 303084E5 		str	r3, [r4, #48]
 409:D:/Work/DeviceTester/amazon-freertos/tests/common/ota\aws_test_ota_pal.c ****     {
 800              		.loc 1 409 0
 801 0070 FEFFFFEB 		bl	setjmp
 802              	.LVL69:
 803 0074 000050E3 		cmp	r0, #0
 804 0078 0900001A 		bne	.L51
 412:D:/Work/DeviceTester/amazon-freertos/tests/common/ota\aws_test_ota_pal.c **** 
 805              		.loc 1 412 0
 806 007c 0400A0E1 		mov	r0, r4
 807 0080 FEFFFFEB 		bl	prvPAL_CloseFile
 808              	.LVL70:
 414:D:/Work/DeviceTester/amazon-freertos/tests/common/ota\aws_test_ota_pal.c ****             ( kOTA_Err_SignatureCheckFailed != ( xOtaStatus & ~kOTA_PAL_ErrMask ) ) &&
 809              		.loc 1 414 0
 810 0084 FF3400E2 		and	r3, r0, #-16777216
 811 0088 EF0400E2 		and	r0, r0, #-285212672
 812              	.LVL71:
 415:D:/Work/DeviceTester/amazon-freertos/tests/common/ota\aws_test_ota_pal.c ****             ( kOTA_Err_FileClose != ( xOtaStatus & ~kOTA_PAL_ErrMask ) ) )
 813              		.loc 1 415 0
 814 008c 020453E3 		cmp	r3, #33554432
 815 0090 01045013 		cmpne	r0, #16777216
 816 0094 0200000A 		beq	.L51
 418:D:/Work/DeviceTester/amazon-freertos/tests/common/ota\aws_test_ota_pal.c ****         }
 817              		.loc 1 418 0 discriminator 1
 818 0098 A21100E3 		movw	r1, #418
 819 009c 1C009FE5 		ldr	r0, .L55+20
 820 00a0 FEFFFFEB 		bl	UnityFail
 821              	.LVL72:
 822              	.L51:
 421:D:/Work/DeviceTester/amazon-freertos/tests/common/ota\aws_test_ota_pal.c **** 
 823              		.loc 1 421 0
 824 00a4 45DF8DE2 		add	sp, sp, #276
 825              		.cfi_def_cfa_offset 12
 826              		@ sp needed
 827 00a8 3080BDE8 		pop	{r4, r5, pc}
 828              	.L56:
 829              		.align	2
 830              	.L55:
 831 00ac 00000000 		.word	.LANCHOR0
 832 00b0 00000000 		.word	.LC1
 833 00b4 00000000 		.word	.LANCHOR3
 834 00b8 1A000000 		.word	.LC4
 835 00bc 28000000 		.word	Unity+40
 836 00c0 00000000 		.word	.LC5
 837              		.cfi_endproc
 838              	.LFE12:
 840              		.section	.text.TEST_Full_OTA_PAL_prvPAL_CloseFile_NonexistingCodeSignerCertificate_,"ax",%progbits
 841              		.align	2
 842              		.global	TEST_Full_OTA_PAL_prvPAL_CloseFile_NonexistingCodeSignerCertificate_
 843              		.syntax unified
 844              		.arm
 845              		.fpu neon
 847              	TEST_Full_OTA_PAL_prvPAL_CloseFile_NonexistingCodeSignerCertificate_:
 848              	.LFB14:
 433:D:/Work/DeviceTester/amazon-freertos/tests/common/ota\aws_test_ota_pal.c ****     OTA_Err_t xOtaStatus;
 849              		.loc 1 433 0
 850              		.cfi_startproc
 851              		@ args = 0, pretend = 0, frame = 264
 852              		@ frame_needed = 0, uses_anonymous_args = 0
 853 0000 30402DE9 		push	{r4, r5, lr}
 854              		.cfi_def_cfa_offset 12
 855              		.cfi_offset 4, -12
 856              		.cfi_offset 5, -8
 857              		.cfi_offset 14, -4
 858 0004 45DF4DE2 		sub	sp, sp, #276
 859              		.cfi_def_cfa_offset 288
 437:D:/Work/DeviceTester/amazon-freertos/tests/common/ota\aws_test_ota_pal.c **** 
 860              		.loc 1 437 0
 861 0008 DC409FE5 		ldr	r4, .L61
 435:D:/Work/DeviceTester/amazon-freertos/tests/common/ota\aws_test_ota_pal.c **** 
 862              		.loc 1 435 0
 863 000c 022100E3 		movw	r2, #258
 864 0010 0010A0E3 		mov	r1, #0
 865 0014 0C008DE2 		add	r0, sp, #12
 866 0018 FEFFFFEB 		bl	memset
 867              	.LVL73:
 437:D:/Work/DeviceTester/amazon-freertos/tests/common/ota\aws_test_ota_pal.c **** 
 868              		.loc 1 437 0
 869 001c 3C20A0E3 		mov	r2, #60
 870 0020 0010A0E3 		mov	r1, #0
 871 0024 0400A0E1 		mov	r0, r4
 872 0028 FEFFFFEB 		bl	memset
 873              	.LVL74:
 440:D:/Work/DeviceTester/amazon-freertos/tests/common/ota\aws_test_ota_pal.c ****     xOtaStatus = prvPAL_CreateFileForRx( &xOtaFile );
 874              		.loc 1 440 0
 875 002c BC309FE5 		ldr	r3, .L61+4
 441:D:/Work/DeviceTester/amazon-freertos/tests/common/ota\aws_test_ota_pal.c ****     TEST_ASSERT_EQUAL( kOTA_Err_None, xOtaStatus );
 876              		.loc 1 441 0
 877 0030 0400A0E1 		mov	r0, r4
 440:D:/Work/DeviceTester/amazon-freertos/tests/common/ota\aws_test_ota_pal.c ****     xOtaStatus = prvPAL_CreateFileForRx( &xOtaFile );
 878              		.loc 1 440 0
 879 0034 003084E5 		str	r3, [r4]
 441:D:/Work/DeviceTester/amazon-freertos/tests/common/ota\aws_test_ota_pal.c ****     TEST_ASSERT_EQUAL( kOTA_Err_None, xOtaStatus );
 880              		.loc 1 441 0
 881 0038 FEFFFFEB 		bl	prvPAL_CreateFileForRx
 882              	.LVL75:
 442:D:/Work/DeviceTester/amazon-freertos/tests/common/ota\aws_test_ota_pal.c **** 
 883              		.loc 1 442 0
 884 003c 0020A0E3 		mov	r2, #0
 885 0040 1430A0E3 		mov	r3, #20
 886 0044 00308DE5 		str	r3, [sp]
 887 0048 0010A0E1 		mov	r1, r0
 888 004c BA3100E3 		movw	r3, #442
 889 0050 0200A0E1 		mov	r0, r2
 890              	.LVL76:
 891 0054 FEFFFFEB 		bl	UnityAssertEqualNumber
 892              	.LVL77:
 445:D:/Work/DeviceTester/amazon-freertos/tests/common/ota\aws_test_ota_pal.c ****     {
 893              		.loc 1 445 0
 894 0058 94009FE5 		ldr	r0, .L61+8
 895 005c FEFFFFEB 		bl	setjmp
 896              	.LVL78:
 897 0060 005050E2 		subs	r5, r0, #0
 898 0064 1E00001A 		bne	.L57
 448:D:/Work/DeviceTester/amazon-freertos/tests/common/ota\aws_test_ota_pal.c ****                                         0,
 899              		.loc 1 448 0
 900 0068 5430A0E3 		mov	r3, #84
 901 006c 84209FE5 		ldr	r2, .L61+12
 902 0070 0510A0E1 		mov	r1, r5
 903 0074 0400A0E1 		mov	r0, r4
 904 0078 FEFFFFEB 		bl	prvPAL_WriteBlock
 905              	.LVL79:
 452:D:/Work/DeviceTester/amazon-freertos/tests/common/ota\aws_test_ota_pal.c **** 
 906              		.loc 1 452 0
 907 007c 1430A0E3 		mov	r3, #20
 908 0080 0010A0E1 		mov	r1, r0
 909 0084 00308DE5 		str	r3, [sp]
 910 0088 0520A0E1 		mov	r2, r5
 911 008c 713FA0E3 		mov	r3, #452
 912 0090 5400A0E3 		mov	r0, #84
 913              	.LVL80:
 914 0094 FEFFFFEB 		bl	UnityAssertEqualNumber
 915              	.LVL81:
 455:D:/Work/DeviceTester/amazon-freertos/tests/common/ota\aws_test_ota_pal.c ****         xOtaFile.pxSignature->usSize = ucValidSignatureLength;
 916              		.loc 1 455 0
 917 0098 0C308DE2 		add	r3, sp, #12
 456:D:/Work/DeviceTester/amazon-freertos/tests/common/ota\aws_test_ota_pal.c ****         memcpy( xOtaFile.pxSignature->ucData, ucValidSignature, ucValidSignatureLength );
 918              		.loc 1 456 0
 919 009c 4620A0E3 		mov	r2, #70
 457:D:/Work/DeviceTester/amazon-freertos/tests/common/ota\aws_test_ota_pal.c ****         xOtaFile.pucCertFilepath = ( uint8_t * ) ( "nonexistingfile.crt" );
 920              		.loc 1 457 0
 921 00a0 54109FE5 		ldr	r1, .L61+16
 922 00a4 0E008DE2 		add	r0, sp, #14
 455:D:/Work/DeviceTester/amazon-freertos/tests/common/ota\aws_test_ota_pal.c ****         xOtaFile.pxSignature->usSize = ucValidSignatureLength;
 923              		.loc 1 455 0
 924 00a8 283084E5 		str	r3, [r4, #40]
 456:D:/Work/DeviceTester/amazon-freertos/tests/common/ota\aws_test_ota_pal.c ****         memcpy( xOtaFile.pxSignature->ucData, ucValidSignature, ucValidSignatureLength );
 925              		.loc 1 456 0
 926 00ac BC20CDE1 		strh	r2, [sp, #12]	@ movhi
 457:D:/Work/DeviceTester/amazon-freertos/tests/common/ota\aws_test_ota_pal.c ****         xOtaFile.pucCertFilepath = ( uint8_t * ) ( "nonexistingfile.crt" );
 927              		.loc 1 457 0
 928 00b0 FEFFFFEB 		bl	memcpy
 929              	.LVL82:
 458:D:/Work/DeviceTester/amazon-freertos/tests/common/ota\aws_test_ota_pal.c **** 
 930              		.loc 1 458 0
 931 00b4 44309FE5 		ldr	r3, .L61+20
 460:D:/Work/DeviceTester/amazon-freertos/tests/common/ota\aws_test_ota_pal.c **** 
 932              		.loc 1 460 0
 933 00b8 0400A0E1 		mov	r0, r4
 458:D:/Work/DeviceTester/amazon-freertos/tests/common/ota\aws_test_ota_pal.c **** 
 934              		.loc 1 458 0
 935 00bc 303084E5 		str	r3, [r4, #48]
 460:D:/Work/DeviceTester/amazon-freertos/tests/common/ota\aws_test_ota_pal.c **** 
 936              		.loc 1 460 0
 937 00c0 FEFFFFEB 		bl	prvPAL_CloseFile
 938              	.LVL83:
 462:D:/Work/DeviceTester/amazon-freertos/tests/common/ota\aws_test_ota_pal.c ****             ( kOTA_Err_SignatureCheckFailed != ( xOtaStatus & ~kOTA_PAL_ErrMask ) ) &&
 939              		.loc 1 462 0
 940 00c4 FF3400E2 		and	r3, r0, #-16777216
 941 00c8 EF0400E2 		and	r0, r0, #-285212672
 942              	.LVL84:
 463:D:/Work/DeviceTester/amazon-freertos/tests/common/ota\aws_test_ota_pal.c ****             ( kOTA_Err_FileClose != ( xOtaStatus & ~kOTA_PAL_ErrMask ) ) )
 943              		.loc 1 463 0
 944 00cc 020453E3 		cmp	r3, #33554432
 945 00d0 01045013 		cmpne	r0, #16777216
 946 00d4 0200000A 		beq	.L57
 466:D:/Work/DeviceTester/amazon-freertos/tests/common/ota\aws_test_ota_pal.c ****         }
 947              		.loc 1 466 0 discriminator 1
 948 00d8 D21100E3 		movw	r1, #466
 949 00dc 20009FE5 		ldr	r0, .L61+24
 950 00e0 FEFFFFEB 		bl	UnityFail
 951              	.LVL85:
 952              	.L57:
 469:D:/Work/DeviceTester/amazon-freertos/tests/common/ota\aws_test_ota_pal.c **** 
 953              		.loc 1 469 0
 954 00e4 45DF8DE2 		add	sp, sp, #276
 955              		.cfi_def_cfa_offset 12
 956              		@ sp needed
 957 00e8 3080BDE8 		pop	{r4, r5, pc}
 958              	.L62:
 959              		.align	2
 960              	.L61:
 961 00ec 00000000 		.word	.LANCHOR0
 962 00f0 00000000 		.word	.LC1
 963 00f4 28000000 		.word	Unity+40
 964 00f8 00000000 		.word	.LANCHOR1
 965 00fc 00000000 		.word	.LANCHOR2
 966 0100 00000000 		.word	.LC6
 967 0104 00000000 		.word	.LC5
 968              		.cfi_endproc
 969              	.LFE14:
 971              		.section	.text.TEST_Full_OTA_PAL_prvPAL_CheckFileSignature_InvalidSignatureNoBlockWritten_,"ax",%p
 972              		.align	2
 973              		.global	TEST_Full_OTA_PAL_prvPAL_CheckFileSignature_InvalidSignatureNoBlockWritten_
 974              		.syntax unified
 975              		.arm
 976              		.fpu neon
 978              	TEST_Full_OTA_PAL_prvPAL_CheckFileSignature_InvalidSignatureNoBlockWritten_:
 979              	.LFB54:
 587:D:/Work/DeviceTester/amazon-freertos/tests/common/ota\aws_test_ota_pal.c **** 
 588:D:/Work/DeviceTester/amazon-freertos/tests/common/ota\aws_test_ota_pal.c **** /**
 589:D:/Work/DeviceTester/amazon-freertos/tests/common/ota\aws_test_ota_pal.c ****  * @brief Write many blocks of data to a file opened in the device. Verify success.
 590:D:/Work/DeviceTester/amazon-freertos/tests/common/ota\aws_test_ota_pal.c ****  */
 591:D:/Work/DeviceTester/amazon-freertos/tests/common/ota\aws_test_ota_pal.c **** TEST( Full_OTA_PAL, prvPAL_WriteBlock_WriteManyBlocks )
 592:D:/Work/DeviceTester/amazon-freertos/tests/common/ota\aws_test_ota_pal.c **** {
 593:D:/Work/DeviceTester/amazon-freertos/tests/common/ota\aws_test_ota_pal.c ****     OTA_Err_t xOtaStatus;
 594:D:/Work/DeviceTester/amazon-freertos/tests/common/ota\aws_test_ota_pal.c ****     int16_t sNumBytesWritten;
 595:D:/Work/DeviceTester/amazon-freertos/tests/common/ota\aws_test_ota_pal.c **** 
 596:D:/Work/DeviceTester/amazon-freertos/tests/common/ota\aws_test_ota_pal.c ****     xOtaFile.pucFilePath = ( uint8_t * ) otatestpalFIRMWARE_FILE;
 597:D:/Work/DeviceTester/amazon-freertos/tests/common/ota\aws_test_ota_pal.c **** 
 598:D:/Work/DeviceTester/amazon-freertos/tests/common/ota\aws_test_ota_pal.c ****     /* TEST: Write many bytes of data. */
 599:D:/Work/DeviceTester/amazon-freertos/tests/common/ota\aws_test_ota_pal.c **** 
 600:D:/Work/DeviceTester/amazon-freertos/tests/common/ota\aws_test_ota_pal.c ****     xOtaFile.pucFilePath = ( uint8_t * ) otatestpalFIRMWARE_FILE;
 601:D:/Work/DeviceTester/amazon-freertos/tests/common/ota\aws_test_ota_pal.c ****     xOtaStatus = prvPAL_CreateFileForRx( &xOtaFile );
 602:D:/Work/DeviceTester/amazon-freertos/tests/common/ota\aws_test_ota_pal.c ****     TEST_ASSERT_EQUAL( kOTA_Err_None, xOtaStatus );
 603:D:/Work/DeviceTester/amazon-freertos/tests/common/ota\aws_test_ota_pal.c **** 
 604:D:/Work/DeviceTester/amazon-freertos/tests/common/ota\aws_test_ota_pal.c ****     if( TEST_PROTECT() )
 605:D:/Work/DeviceTester/amazon-freertos/tests/common/ota\aws_test_ota_pal.c ****     {
 606:D:/Work/DeviceTester/amazon-freertos/tests/common/ota\aws_test_ota_pal.c ****         int lIndex = 0;
 607:D:/Work/DeviceTester/amazon-freertos/tests/common/ota\aws_test_ota_pal.c **** 
 608:D:/Work/DeviceTester/amazon-freertos/tests/common/ota\aws_test_ota_pal.c ****         for( lIndex = 0; lIndex < testotapalNUM_WRITE_BLOCKS; lIndex++ )
 609:D:/Work/DeviceTester/amazon-freertos/tests/common/ota\aws_test_ota_pal.c ****         {
 610:D:/Work/DeviceTester/amazon-freertos/tests/common/ota\aws_test_ota_pal.c ****             sNumBytesWritten = prvPAL_WriteBlock( &xOtaFile, lIndex * sizeof( ucDummyData ), ucDumm
 611:D:/Work/DeviceTester/amazon-freertos/tests/common/ota\aws_test_ota_pal.c ****             TEST_ASSERT_EQUAL_INT( sizeof( ucDummyData ), sNumBytesWritten );
 612:D:/Work/DeviceTester/amazon-freertos/tests/common/ota\aws_test_ota_pal.c ****         }
 613:D:/Work/DeviceTester/amazon-freertos/tests/common/ota\aws_test_ota_pal.c **** 
 614:D:/Work/DeviceTester/amazon-freertos/tests/common/ota\aws_test_ota_pal.c ****         /* Sufficient delay for flash write to complete. */
 615:D:/Work/DeviceTester/amazon-freertos/tests/common/ota\aws_test_ota_pal.c ****         vTaskDelay( pdMS_TO_TICKS( testotapalWRITE_BLOCKS_DELAY_MS ) );
 616:D:/Work/DeviceTester/amazon-freertos/tests/common/ota\aws_test_ota_pal.c ****     }
 617:D:/Work/DeviceTester/amazon-freertos/tests/common/ota\aws_test_ota_pal.c **** }
 618:D:/Work/DeviceTester/amazon-freertos/tests/common/ota\aws_test_ota_pal.c **** 
 619:D:/Work/DeviceTester/amazon-freertos/tests/common/ota\aws_test_ota_pal.c **** /**
 620:D:/Work/DeviceTester/amazon-freertos/tests/common/ota\aws_test_ota_pal.c ****  * Call prvPAL_ActivateNewImage() and verify success. This function is expected to
 621:D:/Work/DeviceTester/amazon-freertos/tests/common/ota\aws_test_ota_pal.c ****  * reset the device, so this test is only supported on the Windows Simulator environment.
 622:D:/Work/DeviceTester/amazon-freertos/tests/common/ota\aws_test_ota_pal.c ****  * The Windows Simulator environment does not reset.
 623:D:/Work/DeviceTester/amazon-freertos/tests/common/ota\aws_test_ota_pal.c ****  */
 624:D:/Work/DeviceTester/amazon-freertos/tests/common/ota\aws_test_ota_pal.c **** TEST( Full_OTA_PAL, prvPAL_ActivateNewImage )
 625:D:/Work/DeviceTester/amazon-freertos/tests/common/ota\aws_test_ota_pal.c **** {
 626:D:/Work/DeviceTester/amazon-freertos/tests/common/ota\aws_test_ota_pal.c ****     OTA_Err_t xOtaStatus = prvPAL_ActivateNewImage();
 627:D:/Work/DeviceTester/amazon-freertos/tests/common/ota\aws_test_ota_pal.c **** 
 628:D:/Work/DeviceTester/amazon-freertos/tests/common/ota\aws_test_ota_pal.c ****     TEST_ASSERT_EQUAL_INT( kOTA_Err_None, xOtaStatus );
 629:D:/Work/DeviceTester/amazon-freertos/tests/common/ota\aws_test_ota_pal.c **** }
 630:D:/Work/DeviceTester/amazon-freertos/tests/common/ota\aws_test_ota_pal.c **** 
 631:D:/Work/DeviceTester/amazon-freertos/tests/common/ota\aws_test_ota_pal.c **** /**
 632:D:/Work/DeviceTester/amazon-freertos/tests/common/ota\aws_test_ota_pal.c ****  * @brief Set the platform state to self-test and verify success.
 633:D:/Work/DeviceTester/amazon-freertos/tests/common/ota\aws_test_ota_pal.c ****  */
 634:D:/Work/DeviceTester/amazon-freertos/tests/common/ota\aws_test_ota_pal.c **** TEST( Full_OTA_PAL, prvPAL_SetPlatformImageState_SelfTestImageState )
 635:D:/Work/DeviceTester/amazon-freertos/tests/common/ota\aws_test_ota_pal.c **** {
 636:D:/Work/DeviceTester/amazon-freertos/tests/common/ota\aws_test_ota_pal.c ****     OTA_Err_t xOtaStatus;
 637:D:/Work/DeviceTester/amazon-freertos/tests/common/ota\aws_test_ota_pal.c **** 
 638:D:/Work/DeviceTester/amazon-freertos/tests/common/ota\aws_test_ota_pal.c ****     OTA_ImageState_t eImageState = eOTA_ImageState_Unknown;
 639:D:/Work/DeviceTester/amazon-freertos/tests/common/ota\aws_test_ota_pal.c **** 
 640:D:/Work/DeviceTester/amazon-freertos/tests/common/ota\aws_test_ota_pal.c ****     /* Create a local file again using the PAL. */
 641:D:/Work/DeviceTester/amazon-freertos/tests/common/ota\aws_test_ota_pal.c ****     xOtaFile.pucFilePath = ( uint8_t * ) otatestpalFIRMWARE_FILE;
 642:D:/Work/DeviceTester/amazon-freertos/tests/common/ota\aws_test_ota_pal.c ****     xOtaStatus = prvPAL_CreateFileForRx( &xOtaFile );
 643:D:/Work/DeviceTester/amazon-freertos/tests/common/ota\aws_test_ota_pal.c ****     TEST_ASSERT_EQUAL( kOTA_Err_None, xOtaStatus );
 644:D:/Work/DeviceTester/amazon-freertos/tests/common/ota\aws_test_ota_pal.c **** 
 645:D:/Work/DeviceTester/amazon-freertos/tests/common/ota\aws_test_ota_pal.c ****     /* We still want to close the file if the test fails. */
 646:D:/Work/DeviceTester/amazon-freertos/tests/common/ota\aws_test_ota_pal.c ****     if( TEST_PROTECT() )
 647:D:/Work/DeviceTester/amazon-freertos/tests/common/ota\aws_test_ota_pal.c ****     {
 648:D:/Work/DeviceTester/amazon-freertos/tests/common/ota\aws_test_ota_pal.c ****         /* Write data to the file. */
 649:D:/Work/DeviceTester/amazon-freertos/tests/common/ota\aws_test_ota_pal.c ****         xOtaStatus = prvPAL_WriteBlock( &xOtaFile,
 650:D:/Work/DeviceTester/amazon-freertos/tests/common/ota\aws_test_ota_pal.c ****                                         0,
 651:D:/Work/DeviceTester/amazon-freertos/tests/common/ota\aws_test_ota_pal.c ****                                         ucDummyData,
 652:D:/Work/DeviceTester/amazon-freertos/tests/common/ota\aws_test_ota_pal.c ****                                         sizeof( ucDummyData ) );
 653:D:/Work/DeviceTester/amazon-freertos/tests/common/ota\aws_test_ota_pal.c ****         TEST_ASSERT_EQUAL( sizeof( ucDummyData ), xOtaStatus );
 654:D:/Work/DeviceTester/amazon-freertos/tests/common/ota\aws_test_ota_pal.c **** 
 655:D:/Work/DeviceTester/amazon-freertos/tests/common/ota\aws_test_ota_pal.c ****         /* Set the image state. */
 656:D:/Work/DeviceTester/amazon-freertos/tests/common/ota\aws_test_ota_pal.c ****         eImageState = eOTA_ImageState_Testing;
 657:D:/Work/DeviceTester/amazon-freertos/tests/common/ota\aws_test_ota_pal.c ****         xOtaStatus = prvPAL_SetPlatformImageState( eImageState );
 658:D:/Work/DeviceTester/amazon-freertos/tests/common/ota\aws_test_ota_pal.c ****         TEST_ASSERT_EQUAL_INT( kOTA_Err_None, xOtaStatus );
 659:D:/Work/DeviceTester/amazon-freertos/tests/common/ota\aws_test_ota_pal.c **** 
 660:D:/Work/DeviceTester/amazon-freertos/tests/common/ota\aws_test_ota_pal.c ****         /* Verify that image state was saved correctly. */
 661:D:/Work/DeviceTester/amazon-freertos/tests/common/ota\aws_test_ota_pal.c **** 
 662:D:/Work/DeviceTester/amazon-freertos/tests/common/ota\aws_test_ota_pal.c ****         /* [**]All platforms need a reboot of a successfully close image in order to return
 663:D:/Work/DeviceTester/amazon-freertos/tests/common/ota\aws_test_ota_pal.c ****          * eOTA_PAL_ImageState_PendingCommit from prvPAL_GetPlatformImageState(). So this cannot be
 664:D:/Work/DeviceTester/amazon-freertos/tests/common/ota\aws_test_ota_pal.c ****          */
 665:D:/Work/DeviceTester/amazon-freertos/tests/common/ota\aws_test_ota_pal.c **** 
 666:D:/Work/DeviceTester/amazon-freertos/tests/common/ota\aws_test_ota_pal.c ****         /*ePalImageState = prvPAL_GetPlatformImageState();
 667:D:/Work/DeviceTester/amazon-freertos/tests/common/ota\aws_test_ota_pal.c ****          * TEST_ASSERT_EQUAL_INT( eOTA_PAL_ImageState_PendingCommit, ePalImageState ); */
 668:D:/Work/DeviceTester/amazon-freertos/tests/common/ota\aws_test_ota_pal.c ****     }
 669:D:/Work/DeviceTester/amazon-freertos/tests/common/ota\aws_test_ota_pal.c **** }
 670:D:/Work/DeviceTester/amazon-freertos/tests/common/ota\aws_test_ota_pal.c **** 
 671:D:/Work/DeviceTester/amazon-freertos/tests/common/ota\aws_test_ota_pal.c **** /**
 672:D:/Work/DeviceTester/amazon-freertos/tests/common/ota\aws_test_ota_pal.c ****  * @brief Set an invalid platform image state exceeding the range and verify success.
 673:D:/Work/DeviceTester/amazon-freertos/tests/common/ota\aws_test_ota_pal.c ****  */
 674:D:/Work/DeviceTester/amazon-freertos/tests/common/ota\aws_test_ota_pal.c **** TEST( Full_OTA_PAL, prvPAL_SetPlatformImageState_InvalidImageState )
 675:D:/Work/DeviceTester/amazon-freertos/tests/common/ota\aws_test_ota_pal.c **** {
 676:D:/Work/DeviceTester/amazon-freertos/tests/common/ota\aws_test_ota_pal.c ****     OTA_Err_t xOtaStatus;
 677:D:/Work/DeviceTester/amazon-freertos/tests/common/ota\aws_test_ota_pal.c ****     OTA_ImageState_t eImageState = eOTA_ImageState_Unknown;
 678:D:/Work/DeviceTester/amazon-freertos/tests/common/ota\aws_test_ota_pal.c **** 
 679:D:/Work/DeviceTester/amazon-freertos/tests/common/ota\aws_test_ota_pal.c ****     /* Create a local file again using the PAL. */
 680:D:/Work/DeviceTester/amazon-freertos/tests/common/ota\aws_test_ota_pal.c ****     xOtaFile.pucFilePath = ( uint8_t * ) otatestpalFIRMWARE_FILE;
 681:D:/Work/DeviceTester/amazon-freertos/tests/common/ota\aws_test_ota_pal.c ****     xOtaStatus = prvPAL_CreateFileForRx( &xOtaFile );
 682:D:/Work/DeviceTester/amazon-freertos/tests/common/ota\aws_test_ota_pal.c ****     TEST_ASSERT_EQUAL( kOTA_Err_None, xOtaStatus );
 683:D:/Work/DeviceTester/amazon-freertos/tests/common/ota\aws_test_ota_pal.c **** 
 684:D:/Work/DeviceTester/amazon-freertos/tests/common/ota\aws_test_ota_pal.c ****     /* We still want to close the file if the test fails. */
 685:D:/Work/DeviceTester/amazon-freertos/tests/common/ota\aws_test_ota_pal.c ****     if( TEST_PROTECT() )
 686:D:/Work/DeviceTester/amazon-freertos/tests/common/ota\aws_test_ota_pal.c ****     {
 687:D:/Work/DeviceTester/amazon-freertos/tests/common/ota\aws_test_ota_pal.c ****         /* Write data to the file. */
 688:D:/Work/DeviceTester/amazon-freertos/tests/common/ota\aws_test_ota_pal.c ****         xOtaStatus = prvPAL_WriteBlock( &xOtaFile,
 689:D:/Work/DeviceTester/amazon-freertos/tests/common/ota\aws_test_ota_pal.c ****                                         0,
 690:D:/Work/DeviceTester/amazon-freertos/tests/common/ota\aws_test_ota_pal.c ****                                         ucDummyData,
 691:D:/Work/DeviceTester/amazon-freertos/tests/common/ota\aws_test_ota_pal.c ****                                         sizeof( ucDummyData ) );
 692:D:/Work/DeviceTester/amazon-freertos/tests/common/ota\aws_test_ota_pal.c ****         TEST_ASSERT_EQUAL( sizeof( ucDummyData ), xOtaStatus );
 693:D:/Work/DeviceTester/amazon-freertos/tests/common/ota\aws_test_ota_pal.c **** 
 694:D:/Work/DeviceTester/amazon-freertos/tests/common/ota\aws_test_ota_pal.c ****         /* Try to set an invalid image state. */
 695:D:/Work/DeviceTester/amazon-freertos/tests/common/ota\aws_test_ota_pal.c ****         eImageState = eOTA_LastImageState + 1;
 696:D:/Work/DeviceTester/amazon-freertos/tests/common/ota\aws_test_ota_pal.c ****         xOtaStatus = prvPAL_SetPlatformImageState( eImageState );
 697:D:/Work/DeviceTester/amazon-freertos/tests/common/ota\aws_test_ota_pal.c ****         TEST_ASSERT_EQUAL( kOTA_Err_BadImageState, ( xOtaStatus & ~kOTA_PAL_ErrMask ) );
 698:D:/Work/DeviceTester/amazon-freertos/tests/common/ota\aws_test_ota_pal.c ****     }
 699:D:/Work/DeviceTester/amazon-freertos/tests/common/ota\aws_test_ota_pal.c **** }
 700:D:/Work/DeviceTester/amazon-freertos/tests/common/ota\aws_test_ota_pal.c **** 
 701:D:/Work/DeviceTester/amazon-freertos/tests/common/ota\aws_test_ota_pal.c **** /**
 702:D:/Work/DeviceTester/amazon-freertos/tests/common/ota\aws_test_ota_pal.c ****  * @brief Set the image state to unknown and verify a failure.
 703:D:/Work/DeviceTester/amazon-freertos/tests/common/ota\aws_test_ota_pal.c ****  */
 704:D:/Work/DeviceTester/amazon-freertos/tests/common/ota\aws_test_ota_pal.c **** TEST( Full_OTA_PAL, prvPAL_SetPlatformImageState_UnknownImageState )
 705:D:/Work/DeviceTester/amazon-freertos/tests/common/ota\aws_test_ota_pal.c **** {
 706:D:/Work/DeviceTester/amazon-freertos/tests/common/ota\aws_test_ota_pal.c ****     OTA_Err_t xOtaStatus;
 707:D:/Work/DeviceTester/amazon-freertos/tests/common/ota\aws_test_ota_pal.c ****     OTA_ImageState_t eImageState = eOTA_ImageState_Unknown;
 708:D:/Work/DeviceTester/amazon-freertos/tests/common/ota\aws_test_ota_pal.c **** 
 709:D:/Work/DeviceTester/amazon-freertos/tests/common/ota\aws_test_ota_pal.c ****     /* Create a local file again using the PAL. */
 710:D:/Work/DeviceTester/amazon-freertos/tests/common/ota\aws_test_ota_pal.c ****     xOtaFile.pucFilePath = ( uint8_t * ) otatestpalFIRMWARE_FILE;
 711:D:/Work/DeviceTester/amazon-freertos/tests/common/ota\aws_test_ota_pal.c ****     xOtaStatus = prvPAL_CreateFileForRx( &xOtaFile );
 712:D:/Work/DeviceTester/amazon-freertos/tests/common/ota\aws_test_ota_pal.c ****     TEST_ASSERT_EQUAL( kOTA_Err_None, xOtaStatus );
 713:D:/Work/DeviceTester/amazon-freertos/tests/common/ota\aws_test_ota_pal.c **** 
 714:D:/Work/DeviceTester/amazon-freertos/tests/common/ota\aws_test_ota_pal.c ****     /* We still want to close the file if the test fails. */
 715:D:/Work/DeviceTester/amazon-freertos/tests/common/ota\aws_test_ota_pal.c ****     if( TEST_PROTECT() )
 716:D:/Work/DeviceTester/amazon-freertos/tests/common/ota\aws_test_ota_pal.c ****     {
 717:D:/Work/DeviceTester/amazon-freertos/tests/common/ota\aws_test_ota_pal.c ****         /* Write data to the file. */
 718:D:/Work/DeviceTester/amazon-freertos/tests/common/ota\aws_test_ota_pal.c ****         xOtaStatus = prvPAL_WriteBlock( &xOtaFile,
 719:D:/Work/DeviceTester/amazon-freertos/tests/common/ota\aws_test_ota_pal.c ****                                         0,
 720:D:/Work/DeviceTester/amazon-freertos/tests/common/ota\aws_test_ota_pal.c ****                                         ucDummyData,
 721:D:/Work/DeviceTester/amazon-freertos/tests/common/ota\aws_test_ota_pal.c ****                                         sizeof( ucDummyData ) );
 722:D:/Work/DeviceTester/amazon-freertos/tests/common/ota\aws_test_ota_pal.c ****         TEST_ASSERT_EQUAL( sizeof( ucDummyData ), xOtaStatus );
 723:D:/Work/DeviceTester/amazon-freertos/tests/common/ota\aws_test_ota_pal.c **** 
 724:D:/Work/DeviceTester/amazon-freertos/tests/common/ota\aws_test_ota_pal.c ****         /* Try to set an invalid image state. */
 725:D:/Work/DeviceTester/amazon-freertos/tests/common/ota\aws_test_ota_pal.c ****         eImageState = eOTA_ImageState_Unknown;
 726:D:/Work/DeviceTester/amazon-freertos/tests/common/ota\aws_test_ota_pal.c ****         xOtaStatus = prvPAL_SetPlatformImageState( eImageState );
 727:D:/Work/DeviceTester/amazon-freertos/tests/common/ota\aws_test_ota_pal.c ****         TEST_ASSERT_EQUAL( kOTA_Err_BadImageState, ( xOtaStatus & ~kOTA_PAL_ErrMask ) );
 728:D:/Work/DeviceTester/amazon-freertos/tests/common/ota\aws_test_ota_pal.c ****     }
 729:D:/Work/DeviceTester/amazon-freertos/tests/common/ota\aws_test_ota_pal.c **** }
 730:D:/Work/DeviceTester/amazon-freertos/tests/common/ota\aws_test_ota_pal.c **** 
 731:D:/Work/DeviceTester/amazon-freertos/tests/common/ota\aws_test_ota_pal.c **** /**
 732:D:/Work/DeviceTester/amazon-freertos/tests/common/ota\aws_test_ota_pal.c ****  * @brief Set the image state to accepted with an image that was never closed. We are
 733:D:/Work/DeviceTester/amazon-freertos/tests/common/ota\aws_test_ota_pal.c ****  * expecting an error in this case.
 734:D:/Work/DeviceTester/amazon-freertos/tests/common/ota\aws_test_ota_pal.c ****  * Verify the correct OTA Agent level error code is returned from prvPAL_SetPlatformImageState.
 735:D:/Work/DeviceTester/amazon-freertos/tests/common/ota\aws_test_ota_pal.c ****  */
 736:D:/Work/DeviceTester/amazon-freertos/tests/common/ota\aws_test_ota_pal.c **** TEST( Full_OTA_PAL, prvPAL_SetPlatformImageState_AcceptedImageStateButImageNotClosed )
 737:D:/Work/DeviceTester/amazon-freertos/tests/common/ota\aws_test_ota_pal.c **** {
 738:D:/Work/DeviceTester/amazon-freertos/tests/common/ota\aws_test_ota_pal.c ****     OTA_Err_t xOtaStatus;
 739:D:/Work/DeviceTester/amazon-freertos/tests/common/ota\aws_test_ota_pal.c ****     OTA_ImageState_t eImageState = eOTA_ImageState_Unknown;
 740:D:/Work/DeviceTester/amazon-freertos/tests/common/ota\aws_test_ota_pal.c **** 
 741:D:/Work/DeviceTester/amazon-freertos/tests/common/ota\aws_test_ota_pal.c ****     /* Create a local file again using the PAL. */
 742:D:/Work/DeviceTester/amazon-freertos/tests/common/ota\aws_test_ota_pal.c ****     xOtaFile.pucFilePath = ( uint8_t * ) otatestpalFIRMWARE_FILE;
 743:D:/Work/DeviceTester/amazon-freertos/tests/common/ota\aws_test_ota_pal.c ****     xOtaStatus = prvPAL_CreateFileForRx( &xOtaFile );
 744:D:/Work/DeviceTester/amazon-freertos/tests/common/ota\aws_test_ota_pal.c ****     TEST_ASSERT_EQUAL( kOTA_Err_None, xOtaStatus );
 745:D:/Work/DeviceTester/amazon-freertos/tests/common/ota\aws_test_ota_pal.c **** 
 746:D:/Work/DeviceTester/amazon-freertos/tests/common/ota\aws_test_ota_pal.c ****     /* We still want to close the file if the test fails. */
 747:D:/Work/DeviceTester/amazon-freertos/tests/common/ota\aws_test_ota_pal.c ****     if( TEST_PROTECT() )
 748:D:/Work/DeviceTester/amazon-freertos/tests/common/ota\aws_test_ota_pal.c ****     {
 749:D:/Work/DeviceTester/amazon-freertos/tests/common/ota\aws_test_ota_pal.c ****         /* Write data to the file. */
 750:D:/Work/DeviceTester/amazon-freertos/tests/common/ota\aws_test_ota_pal.c ****         xOtaStatus = prvPAL_WriteBlock( &xOtaFile,
 751:D:/Work/DeviceTester/amazon-freertos/tests/common/ota\aws_test_ota_pal.c ****                                         0,
 752:D:/Work/DeviceTester/amazon-freertos/tests/common/ota\aws_test_ota_pal.c ****                                         ucDummyData,
 753:D:/Work/DeviceTester/amazon-freertos/tests/common/ota\aws_test_ota_pal.c ****                                         sizeof( ucDummyData ) );
 754:D:/Work/DeviceTester/amazon-freertos/tests/common/ota\aws_test_ota_pal.c ****         TEST_ASSERT_EQUAL( sizeof( ucDummyData ), xOtaStatus );
 755:D:/Work/DeviceTester/amazon-freertos/tests/common/ota\aws_test_ota_pal.c **** 
 756:D:/Work/DeviceTester/amazon-freertos/tests/common/ota\aws_test_ota_pal.c ****         eImageState = eOTA_ImageState_Accepted;
 757:D:/Work/DeviceTester/amazon-freertos/tests/common/ota\aws_test_ota_pal.c ****         xOtaStatus = prvPAL_SetPlatformImageState( eImageState );
 758:D:/Work/DeviceTester/amazon-freertos/tests/common/ota\aws_test_ota_pal.c ****         TEST_ASSERT_EQUAL_INT( kOTA_Err_CommitFailed, ( xOtaStatus & ~kOTA_PAL_ErrMask ) );
 759:D:/Work/DeviceTester/amazon-freertos/tests/common/ota\aws_test_ota_pal.c ****     }
 760:D:/Work/DeviceTester/amazon-freertos/tests/common/ota\aws_test_ota_pal.c **** }
 761:D:/Work/DeviceTester/amazon-freertos/tests/common/ota\aws_test_ota_pal.c **** 
 762:D:/Work/DeviceTester/amazon-freertos/tests/common/ota\aws_test_ota_pal.c **** /**
 763:D:/Work/DeviceTester/amazon-freertos/tests/common/ota\aws_test_ota_pal.c ****  * @brief Set platform image state to rejected and verify success.
 764:D:/Work/DeviceTester/amazon-freertos/tests/common/ota\aws_test_ota_pal.c ****  * We cannot test a reject failed without mocking the underlying non volatile memory.
 765:D:/Work/DeviceTester/amazon-freertos/tests/common/ota\aws_test_ota_pal.c ****  */
 766:D:/Work/DeviceTester/amazon-freertos/tests/common/ota\aws_test_ota_pal.c **** TEST( Full_OTA_PAL, prvPAL_SetPlatformImageState_RejectImageState )
 767:D:/Work/DeviceTester/amazon-freertos/tests/common/ota\aws_test_ota_pal.c **** {
 768:D:/Work/DeviceTester/amazon-freertos/tests/common/ota\aws_test_ota_pal.c ****     OTA_Err_t xOtaStatus;
 769:D:/Work/DeviceTester/amazon-freertos/tests/common/ota\aws_test_ota_pal.c ****     OTA_ImageState_t eImageState = eOTA_ImageState_Unknown;
 770:D:/Work/DeviceTester/amazon-freertos/tests/common/ota\aws_test_ota_pal.c **** 
 771:D:/Work/DeviceTester/amazon-freertos/tests/common/ota\aws_test_ota_pal.c ****     /* Create a local file again using the PAL. */
 772:D:/Work/DeviceTester/amazon-freertos/tests/common/ota\aws_test_ota_pal.c ****     xOtaFile.pucFilePath = ( uint8_t * ) otatestpalFIRMWARE_FILE;
 773:D:/Work/DeviceTester/amazon-freertos/tests/common/ota\aws_test_ota_pal.c ****     xOtaStatus = prvPAL_CreateFileForRx( &xOtaFile );
 774:D:/Work/DeviceTester/amazon-freertos/tests/common/ota\aws_test_ota_pal.c ****     TEST_ASSERT_EQUAL( kOTA_Err_None, xOtaStatus );
 775:D:/Work/DeviceTester/amazon-freertos/tests/common/ota\aws_test_ota_pal.c **** 
 776:D:/Work/DeviceTester/amazon-freertos/tests/common/ota\aws_test_ota_pal.c ****     /* We still want to close the file if the test fails. */
 777:D:/Work/DeviceTester/amazon-freertos/tests/common/ota\aws_test_ota_pal.c ****     if( TEST_PROTECT() )
 778:D:/Work/DeviceTester/amazon-freertos/tests/common/ota\aws_test_ota_pal.c ****     {
 779:D:/Work/DeviceTester/amazon-freertos/tests/common/ota\aws_test_ota_pal.c ****         /* Write data to the file. */
 780:D:/Work/DeviceTester/amazon-freertos/tests/common/ota\aws_test_ota_pal.c ****         xOtaStatus = prvPAL_WriteBlock( &xOtaFile,
 781:D:/Work/DeviceTester/amazon-freertos/tests/common/ota\aws_test_ota_pal.c ****                                         0,
 782:D:/Work/DeviceTester/amazon-freertos/tests/common/ota\aws_test_ota_pal.c ****                                         ucDummyData,
 783:D:/Work/DeviceTester/amazon-freertos/tests/common/ota\aws_test_ota_pal.c ****                                         sizeof( ucDummyData ) );
 784:D:/Work/DeviceTester/amazon-freertos/tests/common/ota\aws_test_ota_pal.c ****         TEST_ASSERT_EQUAL( sizeof( ucDummyData ), xOtaStatus );
 785:D:/Work/DeviceTester/amazon-freertos/tests/common/ota\aws_test_ota_pal.c **** 
 786:D:/Work/DeviceTester/amazon-freertos/tests/common/ota\aws_test_ota_pal.c ****         eImageState = eOTA_ImageState_Rejected;
 787:D:/Work/DeviceTester/amazon-freertos/tests/common/ota\aws_test_ota_pal.c ****         xOtaStatus = prvPAL_SetPlatformImageState( eImageState );
 788:D:/Work/DeviceTester/amazon-freertos/tests/common/ota\aws_test_ota_pal.c ****         TEST_ASSERT_EQUAL_INT( kOTA_Err_None, ( xOtaStatus & ~kOTA_PAL_ErrMask ) );
 789:D:/Work/DeviceTester/amazon-freertos/tests/common/ota\aws_test_ota_pal.c ****     }
 790:D:/Work/DeviceTester/amazon-freertos/tests/common/ota\aws_test_ota_pal.c **** }
 791:D:/Work/DeviceTester/amazon-freertos/tests/common/ota\aws_test_ota_pal.c **** 
 792:D:/Work/DeviceTester/amazon-freertos/tests/common/ota\aws_test_ota_pal.c **** /**
 793:D:/Work/DeviceTester/amazon-freertos/tests/common/ota\aws_test_ota_pal.c ****  * @brief Set the platform image state to aborted.
 794:D:/Work/DeviceTester/amazon-freertos/tests/common/ota\aws_test_ota_pal.c ****  * We cannot test a abort failed without mocking the underlyin non-volatile memory.
 795:D:/Work/DeviceTester/amazon-freertos/tests/common/ota\aws_test_ota_pal.c ****  */
 796:D:/Work/DeviceTester/amazon-freertos/tests/common/ota\aws_test_ota_pal.c **** TEST( Full_OTA_PAL, prvPAL_SetPlatformImageState_AbortImageState )
 797:D:/Work/DeviceTester/amazon-freertos/tests/common/ota\aws_test_ota_pal.c **** {
 798:D:/Work/DeviceTester/amazon-freertos/tests/common/ota\aws_test_ota_pal.c ****     OTA_Err_t xOtaStatus;
 799:D:/Work/DeviceTester/amazon-freertos/tests/common/ota\aws_test_ota_pal.c ****     OTA_ImageState_t eImageState = eOTA_ImageState_Unknown;
 800:D:/Work/DeviceTester/amazon-freertos/tests/common/ota\aws_test_ota_pal.c **** 
 801:D:/Work/DeviceTester/amazon-freertos/tests/common/ota\aws_test_ota_pal.c ****     /* Create a local file again using the PAL. */
 802:D:/Work/DeviceTester/amazon-freertos/tests/common/ota\aws_test_ota_pal.c ****     xOtaFile.pucFilePath = ( uint8_t * ) otatestpalFIRMWARE_FILE;
 803:D:/Work/DeviceTester/amazon-freertos/tests/common/ota\aws_test_ota_pal.c ****     xOtaStatus = prvPAL_CreateFileForRx( &xOtaFile );
 804:D:/Work/DeviceTester/amazon-freertos/tests/common/ota\aws_test_ota_pal.c ****     TEST_ASSERT_EQUAL( kOTA_Err_None, xOtaStatus );
 805:D:/Work/DeviceTester/amazon-freertos/tests/common/ota\aws_test_ota_pal.c **** 
 806:D:/Work/DeviceTester/amazon-freertos/tests/common/ota\aws_test_ota_pal.c ****     /* We still want to close the file if the test fails. */
 807:D:/Work/DeviceTester/amazon-freertos/tests/common/ota\aws_test_ota_pal.c ****     if( TEST_PROTECT() )
 808:D:/Work/DeviceTester/amazon-freertos/tests/common/ota\aws_test_ota_pal.c ****     {
 809:D:/Work/DeviceTester/amazon-freertos/tests/common/ota\aws_test_ota_pal.c ****         /* Write data to the file. */
 810:D:/Work/DeviceTester/amazon-freertos/tests/common/ota\aws_test_ota_pal.c ****         xOtaStatus = prvPAL_WriteBlock( &xOtaFile,
 811:D:/Work/DeviceTester/amazon-freertos/tests/common/ota\aws_test_ota_pal.c ****                                         0,
 812:D:/Work/DeviceTester/amazon-freertos/tests/common/ota\aws_test_ota_pal.c ****                                         ucDummyData,
 813:D:/Work/DeviceTester/amazon-freertos/tests/common/ota\aws_test_ota_pal.c ****                                         sizeof( ucDummyData ) );
 814:D:/Work/DeviceTester/amazon-freertos/tests/common/ota\aws_test_ota_pal.c ****         TEST_ASSERT_EQUAL( sizeof( ucDummyData ), xOtaStatus );
 815:D:/Work/DeviceTester/amazon-freertos/tests/common/ota\aws_test_ota_pal.c **** 
 816:D:/Work/DeviceTester/amazon-freertos/tests/common/ota\aws_test_ota_pal.c ****         eImageState = eOTA_ImageState_Aborted;
 817:D:/Work/DeviceTester/amazon-freertos/tests/common/ota\aws_test_ota_pal.c ****         xOtaStatus = prvPAL_SetPlatformImageState( eImageState );
 818:D:/Work/DeviceTester/amazon-freertos/tests/common/ota\aws_test_ota_pal.c ****         TEST_ASSERT_EQUAL_INT( kOTA_Err_None, ( xOtaStatus & ~kOTA_PAL_ErrMask ) );
 819:D:/Work/DeviceTester/amazon-freertos/tests/common/ota\aws_test_ota_pal.c ****     }
 820:D:/Work/DeviceTester/amazon-freertos/tests/common/ota\aws_test_ota_pal.c **** }
 821:D:/Work/DeviceTester/amazon-freertos/tests/common/ota\aws_test_ota_pal.c **** 
 822:D:/Work/DeviceTester/amazon-freertos/tests/common/ota\aws_test_ota_pal.c **** /**
 823:D:/Work/DeviceTester/amazon-freertos/tests/common/ota\aws_test_ota_pal.c ****  * @brief Verify that the current image received is in the invalid state after a
 824:D:/Work/DeviceTester/amazon-freertos/tests/common/ota\aws_test_ota_pal.c ****  * failure to close the file because of a bad signature.
 825:D:/Work/DeviceTester/amazon-freertos/tests/common/ota\aws_test_ota_pal.c ****  */
 826:D:/Work/DeviceTester/amazon-freertos/tests/common/ota\aws_test_ota_pal.c **** TEST( Full_OTA_PAL, prvPAL_GetPlatformImageState_InvalidImageStateFromFileCloseFailure )
 827:D:/Work/DeviceTester/amazon-freertos/tests/common/ota\aws_test_ota_pal.c **** {
 828:D:/Work/DeviceTester/amazon-freertos/tests/common/ota\aws_test_ota_pal.c ****     OTA_Err_t xOtaStatus;
 829:D:/Work/DeviceTester/amazon-freertos/tests/common/ota\aws_test_ota_pal.c ****     Sig256_t xSig = { 0 };
 830:D:/Work/DeviceTester/amazon-freertos/tests/common/ota\aws_test_ota_pal.c ****     OTA_PAL_ImageState_t ePalImageState = eOTA_PAL_ImageState_Unknown;
 831:D:/Work/DeviceTester/amazon-freertos/tests/common/ota\aws_test_ota_pal.c **** 
 832:D:/Work/DeviceTester/amazon-freertos/tests/common/ota\aws_test_ota_pal.c ****     /* TEST: Invalid image returned from prvPAL_GetPlatformImageState(). Using a failure to close. 
 833:D:/Work/DeviceTester/amazon-freertos/tests/common/ota\aws_test_ota_pal.c ****     /* Create a local file again using the PAL. */
 834:D:/Work/DeviceTester/amazon-freertos/tests/common/ota\aws_test_ota_pal.c ****     xOtaFile.pucFilePath = ( uint8_t * ) otatestpalFIRMWARE_FILE;
 835:D:/Work/DeviceTester/amazon-freertos/tests/common/ota\aws_test_ota_pal.c ****     xOtaStatus = prvPAL_CreateFileForRx( &xOtaFile );
 836:D:/Work/DeviceTester/amazon-freertos/tests/common/ota\aws_test_ota_pal.c ****     TEST_ASSERT_EQUAL( kOTA_Err_None, xOtaStatus );
 837:D:/Work/DeviceTester/amazon-freertos/tests/common/ota\aws_test_ota_pal.c **** 
 838:D:/Work/DeviceTester/amazon-freertos/tests/common/ota\aws_test_ota_pal.c ****     /* We still want to close the file if the test fails. */
 839:D:/Work/DeviceTester/amazon-freertos/tests/common/ota\aws_test_ota_pal.c ****     if( TEST_PROTECT() )
 840:D:/Work/DeviceTester/amazon-freertos/tests/common/ota\aws_test_ota_pal.c ****     {
 841:D:/Work/DeviceTester/amazon-freertos/tests/common/ota\aws_test_ota_pal.c ****         /* Write data to the file. */
 842:D:/Work/DeviceTester/amazon-freertos/tests/common/ota\aws_test_ota_pal.c ****         xOtaStatus = prvPAL_WriteBlock( &xOtaFile,
 843:D:/Work/DeviceTester/amazon-freertos/tests/common/ota\aws_test_ota_pal.c ****                                         0,
 844:D:/Work/DeviceTester/amazon-freertos/tests/common/ota\aws_test_ota_pal.c ****                                         ucDummyData,
 845:D:/Work/DeviceTester/amazon-freertos/tests/common/ota\aws_test_ota_pal.c ****                                         sizeof( ucDummyData ) );
 846:D:/Work/DeviceTester/amazon-freertos/tests/common/ota\aws_test_ota_pal.c ****         TEST_ASSERT_EQUAL( sizeof( ucDummyData ), xOtaStatus );
 847:D:/Work/DeviceTester/amazon-freertos/tests/common/ota\aws_test_ota_pal.c **** 
 848:D:/Work/DeviceTester/amazon-freertos/tests/common/ota\aws_test_ota_pal.c ****         /* Check the signature. */
 849:D:/Work/DeviceTester/amazon-freertos/tests/common/ota\aws_test_ota_pal.c ****         xOtaFile.pxSignature = &xSig;
 850:D:/Work/DeviceTester/amazon-freertos/tests/common/ota\aws_test_ota_pal.c ****         xOtaFile.pxSignature->usSize = ucInvalidSignatureLength;
 851:D:/Work/DeviceTester/amazon-freertos/tests/common/ota\aws_test_ota_pal.c ****         memcpy( xOtaFile.pxSignature->ucData, ucInvalidSignature, ucInvalidSignatureLength );
 852:D:/Work/DeviceTester/amazon-freertos/tests/common/ota\aws_test_ota_pal.c ****         xOtaFile.pucCertFilepath = ( uint8_t * ) otatestpalCERTIFICATE_FILE;
 853:D:/Work/DeviceTester/amazon-freertos/tests/common/ota\aws_test_ota_pal.c **** 
 854:D:/Work/DeviceTester/amazon-freertos/tests/common/ota\aws_test_ota_pal.c ****         xOtaStatus = prvPAL_CloseFile( &xOtaFile );
 855:D:/Work/DeviceTester/amazon-freertos/tests/common/ota\aws_test_ota_pal.c **** 
 856:D:/Work/DeviceTester/amazon-freertos/tests/common/ota\aws_test_ota_pal.c ****         if( ( kOTA_Err_BadSignerCert != ( xOtaStatus & ~kOTA_PAL_ErrMask ) ) &&
 857:D:/Work/DeviceTester/amazon-freertos/tests/common/ota\aws_test_ota_pal.c ****             ( kOTA_Err_SignatureCheckFailed != ( xOtaStatus & ~kOTA_PAL_ErrMask ) ) &&
 858:D:/Work/DeviceTester/amazon-freertos/tests/common/ota\aws_test_ota_pal.c ****             ( kOTA_Err_FileClose != ( xOtaStatus & ~kOTA_PAL_ErrMask ) ) )
 859:D:/Work/DeviceTester/amazon-freertos/tests/common/ota\aws_test_ota_pal.c ****         {
 860:D:/Work/DeviceTester/amazon-freertos/tests/common/ota\aws_test_ota_pal.c ****             TEST_ASSERT_TRUE( 0 );
 861:D:/Work/DeviceTester/amazon-freertos/tests/common/ota\aws_test_ota_pal.c ****         }
 862:D:/Work/DeviceTester/amazon-freertos/tests/common/ota\aws_test_ota_pal.c **** 
 863:D:/Work/DeviceTester/amazon-freertos/tests/common/ota\aws_test_ota_pal.c ****         /* The file failed to close, so it is invalid or in an unknown state. */
 864:D:/Work/DeviceTester/amazon-freertos/tests/common/ota\aws_test_ota_pal.c ****         ePalImageState = prvPAL_GetPlatformImageState();
 865:D:/Work/DeviceTester/amazon-freertos/tests/common/ota\aws_test_ota_pal.c ****         TEST_ASSERT( ( eOTA_PAL_ImageState_Invalid == ePalImageState ) || ( eOTA_PAL_ImageState_Unk
 866:D:/Work/DeviceTester/amazon-freertos/tests/common/ota\aws_test_ota_pal.c ****     }
 867:D:/Work/DeviceTester/amazon-freertos/tests/common/ota\aws_test_ota_pal.c **** }
 868:D:/Work/DeviceTester/amazon-freertos/tests/common/ota\aws_test_ota_pal.c **** 
 869:D:/Work/DeviceTester/amazon-freertos/tests/common/ota\aws_test_ota_pal.c **** #if ( otatestpalREAD_AND_ASSUME_CERTIFICATE_SUPPORTED == 1 )
 870:D:/Work/DeviceTester/amazon-freertos/tests/common/ota\aws_test_ota_pal.c **** 
 871:D:/Work/DeviceTester/amazon-freertos/tests/common/ota\aws_test_ota_pal.c **** /**
 872:D:/Work/DeviceTester/amazon-freertos/tests/common/ota\aws_test_ota_pal.c ****  * @brief Call prvPAL_ReadAndAssumeCertificate with an existing certificate file
 873:D:/Work/DeviceTester/amazon-freertos/tests/common/ota\aws_test_ota_pal.c ****  * path. Some OTA PAL implementations may use aws_codesigner_certificate.h, in
 874:D:/Work/DeviceTester/amazon-freertos/tests/common/ota\aws_test_ota_pal.c ****  * which case this test should still pass.
 875:D:/Work/DeviceTester/amazon-freertos/tests/common/ota\aws_test_ota_pal.c ****  */
 876:D:/Work/DeviceTester/amazon-freertos/tests/common/ota\aws_test_ota_pal.c ****     TEST( Full_OTA_PAL, prvPAL_ReadAndAssumeCertificate_ExistingFile )
 877:D:/Work/DeviceTester/amazon-freertos/tests/common/ota\aws_test_ota_pal.c ****     {
 878:D:/Work/DeviceTester/amazon-freertos/tests/common/ota\aws_test_ota_pal.c ****         uint8_t * pucSignerCert = NULL;
 879:D:/Work/DeviceTester/amazon-freertos/tests/common/ota\aws_test_ota_pal.c ****         uint8_t * pucCertName = ( uint8_t * ) otatestpalCERTIFICATE_FILE;
 880:D:/Work/DeviceTester/amazon-freertos/tests/common/ota\aws_test_ota_pal.c ****         uint32_t ulSignerCertSize = 0;
 881:D:/Work/DeviceTester/amazon-freertos/tests/common/ota\aws_test_ota_pal.c **** 
 882:D:/Work/DeviceTester/amazon-freertos/tests/common/ota\aws_test_ota_pal.c ****         pucSignerCert = test_prvPAL_ReadAndAssumeCertificate( pucCertName, &ulSignerCertSize );
 883:D:/Work/DeviceTester/amazon-freertos/tests/common/ota\aws_test_ota_pal.c **** 
 884:D:/Work/DeviceTester/amazon-freertos/tests/common/ota\aws_test_ota_pal.c ****         /* Verify that the signer certificate returned is not NULL. */
 885:D:/Work/DeviceTester/amazon-freertos/tests/common/ota\aws_test_ota_pal.c ****         TEST_ASSERT_MESSAGE( pucSignerCert != NULL, "The returned certificate is NULL." );
 886:D:/Work/DeviceTester/amazon-freertos/tests/common/ota\aws_test_ota_pal.c **** 
 887:D:/Work/DeviceTester/amazon-freertos/tests/common/ota\aws_test_ota_pal.c ****         /* Verify the signer certificate size. The certificates are one of the expected certificate
 888:D:/Work/DeviceTester/amazon-freertos/tests/common/ota\aws_test_ota_pal.c ****          * in test/common/ota/test_files. */
 889:D:/Work/DeviceTester/amazon-freertos/tests/common/ota\aws_test_ota_pal.c ****         TEST_ASSERT_GREATER_THAN( 0, ulSignerCertSize );
 890:D:/Work/DeviceTester/amazon-freertos/tests/common/ota\aws_test_ota_pal.c **** 
 891:D:/Work/DeviceTester/amazon-freertos/tests/common/ota\aws_test_ota_pal.c ****         /* Free the certificate file memory. */
 892:D:/Work/DeviceTester/amazon-freertos/tests/common/ota\aws_test_ota_pal.c ****         vPortFree( pucSignerCert );
 893:D:/Work/DeviceTester/amazon-freertos/tests/common/ota\aws_test_ota_pal.c ****     }
 894:D:/Work/DeviceTester/amazon-freertos/tests/common/ota\aws_test_ota_pal.c **** 
 895:D:/Work/DeviceTester/amazon-freertos/tests/common/ota\aws_test_ota_pal.c **** /**
 896:D:/Work/DeviceTester/amazon-freertos/tests/common/ota\aws_test_ota_pal.c ****  * @brief Call test_prvPAL_ReadAndAssumeCertificate with a non existing certificate file
 897:D:/Work/DeviceTester/amazon-freertos/tests/common/ota\aws_test_ota_pal.c ****  * path. This test is valid only for devices that abstract their non-volatile memory
 898:D:/Work/DeviceTester/amazon-freertos/tests/common/ota\aws_test_ota_pal.c ****  * with a file system.
 899:D:/Work/DeviceTester/amazon-freertos/tests/common/ota\aws_test_ota_pal.c ****  */
 900:D:/Work/DeviceTester/amazon-freertos/tests/common/ota\aws_test_ota_pal.c ****     TEST( Full_OTA_PAL, prvPAL_ReadAndAssumeCertificate_NonexistentFile )
 901:D:/Work/DeviceTester/amazon-freertos/tests/common/ota\aws_test_ota_pal.c ****     {
 902:D:/Work/DeviceTester/amazon-freertos/tests/common/ota\aws_test_ota_pal.c ****         uint8_t * pucSignerCert = NULL;
 903:D:/Work/DeviceTester/amazon-freertos/tests/common/ota\aws_test_ota_pal.c ****         uint8_t * pucCertName = ( uint8_t * ) ( "non-existing-file.pem" );
 904:D:/Work/DeviceTester/amazon-freertos/tests/common/ota\aws_test_ota_pal.c ****         uint32_t ulSignerCertSize = 0;
 905:D:/Work/DeviceTester/amazon-freertos/tests/common/ota\aws_test_ota_pal.c **** 
 906:D:/Work/DeviceTester/amazon-freertos/tests/common/ota\aws_test_ota_pal.c ****         pucSignerCert = test_prvPAL_ReadAndAssumeCertificate( pucCertName, &ulSignerCertSize );
 907:D:/Work/DeviceTester/amazon-freertos/tests/common/ota\aws_test_ota_pal.c **** 
 908:D:/Work/DeviceTester/amazon-freertos/tests/common/ota\aws_test_ota_pal.c ****         /* Verify that the signer certificate returned is NULL. */
 909:D:/Work/DeviceTester/amazon-freertos/tests/common/ota\aws_test_ota_pal.c ****         TEST_ASSERT_MESSAGE( pucSignerCert == NULL, "The returned certificate is NULL." );
 910:D:/Work/DeviceTester/amazon-freertos/tests/common/ota\aws_test_ota_pal.c ****         /* Verify the signer certificate size is zero. */
 911:D:/Work/DeviceTester/amazon-freertos/tests/common/ota\aws_test_ota_pal.c ****         TEST_ASSERT_EQUAL_INT( 0, ulSignerCertSize );
 912:D:/Work/DeviceTester/amazon-freertos/tests/common/ota\aws_test_ota_pal.c ****     }
 913:D:/Work/DeviceTester/amazon-freertos/tests/common/ota\aws_test_ota_pal.c **** #endif /* if ( otatestpalREAD_AND_ASSUME_CERTIFICATE_SUPPORTED == 1 ) */
 914:D:/Work/DeviceTester/amazon-freertos/tests/common/ota\aws_test_ota_pal.c **** 
 915:D:/Work/DeviceTester/amazon-freertos/tests/common/ota\aws_test_ota_pal.c **** #if ( otatestpalCHECK_FILE_SIGNATURE_SUPPORTED == 1 )
 916:D:/Work/DeviceTester/amazon-freertos/tests/common/ota\aws_test_ota_pal.c **** 
 917:D:/Work/DeviceTester/amazon-freertos/tests/common/ota\aws_test_ota_pal.c **** /**
 918:D:/Work/DeviceTester/amazon-freertos/tests/common/ota\aws_test_ota_pal.c ****  * @brief Call prvPAL_CheckFileSignature with a valid signature on the data block written and
 919:D:/Work/DeviceTester/amazon-freertos/tests/common/ota\aws_test_ota_pal.c ****  * expect no errors are returned.
 920:D:/Work/DeviceTester/amazon-freertos/tests/common/ota\aws_test_ota_pal.c ****  */
 921:D:/Work/DeviceTester/amazon-freertos/tests/common/ota\aws_test_ota_pal.c ****     TEST( Full_OTA_PAL, prvPAL_CheckFileSignature_ValidSignature )
 922:D:/Work/DeviceTester/amazon-freertos/tests/common/ota\aws_test_ota_pal.c ****     {
 923:D:/Work/DeviceTester/amazon-freertos/tests/common/ota\aws_test_ota_pal.c ****         OTA_Err_t xOtaStatus;
 924:D:/Work/DeviceTester/amazon-freertos/tests/common/ota\aws_test_ota_pal.c ****         Sig256_t xSig = { 0 };
 925:D:/Work/DeviceTester/amazon-freertos/tests/common/ota\aws_test_ota_pal.c **** 
 926:D:/Work/DeviceTester/amazon-freertos/tests/common/ota\aws_test_ota_pal.c ****         /* Create a local file using the PAL. */
 927:D:/Work/DeviceTester/amazon-freertos/tests/common/ota\aws_test_ota_pal.c ****         xOtaFile.pucFilePath = ( uint8_t * ) otatestpalFIRMWARE_FILE;
 928:D:/Work/DeviceTester/amazon-freertos/tests/common/ota\aws_test_ota_pal.c ****         xOtaStatus = prvPAL_CreateFileForRx( &xOtaFile );
 929:D:/Work/DeviceTester/amazon-freertos/tests/common/ota\aws_test_ota_pal.c ****         TEST_ASSERT_EQUAL( kOTA_Err_None, xOtaStatus );
 930:D:/Work/DeviceTester/amazon-freertos/tests/common/ota\aws_test_ota_pal.c **** 
 931:D:/Work/DeviceTester/amazon-freertos/tests/common/ota\aws_test_ota_pal.c ****         /* We still want to close the file if the test fails. */
 932:D:/Work/DeviceTester/amazon-freertos/tests/common/ota\aws_test_ota_pal.c ****         if( TEST_PROTECT() )
 933:D:/Work/DeviceTester/amazon-freertos/tests/common/ota\aws_test_ota_pal.c ****         {
 934:D:/Work/DeviceTester/amazon-freertos/tests/common/ota\aws_test_ota_pal.c ****             /* Write data to the file. */
 935:D:/Work/DeviceTester/amazon-freertos/tests/common/ota\aws_test_ota_pal.c ****             xOtaStatus = prvPAL_WriteBlock( &xOtaFile,
 936:D:/Work/DeviceTester/amazon-freertos/tests/common/ota\aws_test_ota_pal.c ****                                             0,
 937:D:/Work/DeviceTester/amazon-freertos/tests/common/ota\aws_test_ota_pal.c ****                                             ucDummyData,
 938:D:/Work/DeviceTester/amazon-freertos/tests/common/ota\aws_test_ota_pal.c ****                                             sizeof( ucDummyData ) );
 939:D:/Work/DeviceTester/amazon-freertos/tests/common/ota\aws_test_ota_pal.c ****             TEST_ASSERT_EQUAL( sizeof( ucDummyData ), xOtaStatus );
 940:D:/Work/DeviceTester/amazon-freertos/tests/common/ota\aws_test_ota_pal.c **** 
 941:D:/Work/DeviceTester/amazon-freertos/tests/common/ota\aws_test_ota_pal.c ****             xOtaFile.pxSignature = &xSig;
 942:D:/Work/DeviceTester/amazon-freertos/tests/common/ota\aws_test_ota_pal.c ****             xOtaFile.pxSignature->usSize = ucValidSignatureLength;
 943:D:/Work/DeviceTester/amazon-freertos/tests/common/ota\aws_test_ota_pal.c ****             memcpy( xOtaFile.pxSignature->ucData, ucValidSignature, ucValidSignatureLength );
 944:D:/Work/DeviceTester/amazon-freertos/tests/common/ota\aws_test_ota_pal.c ****             xOtaFile.pucCertFilepath = ( uint8_t * ) otatestpalCERTIFICATE_FILE;
 945:D:/Work/DeviceTester/amazon-freertos/tests/common/ota\aws_test_ota_pal.c **** 
 946:D:/Work/DeviceTester/amazon-freertos/tests/common/ota\aws_test_ota_pal.c ****             xOtaStatus = test_prvPAL_CheckFileSignature( &xOtaFile );
 947:D:/Work/DeviceTester/amazon-freertos/tests/common/ota\aws_test_ota_pal.c ****             TEST_ASSERT_EQUAL_INT( kOTA_Err_None, xOtaStatus );
 948:D:/Work/DeviceTester/amazon-freertos/tests/common/ota\aws_test_ota_pal.c ****         }
 949:D:/Work/DeviceTester/amazon-freertos/tests/common/ota\aws_test_ota_pal.c ****     }
 950:D:/Work/DeviceTester/amazon-freertos/tests/common/ota\aws_test_ota_pal.c **** 
 951:D:/Work/DeviceTester/amazon-freertos/tests/common/ota\aws_test_ota_pal.c **** /**
 952:D:/Work/DeviceTester/amazon-freertos/tests/common/ota\aws_test_ota_pal.c ****  * @brief prvPAL_CheckFileSignature with an invalid signature on the data block
 953:D:/Work/DeviceTester/amazon-freertos/tests/common/ota\aws_test_ota_pal.c ****  * written. Verify the signature check fails.
 954:D:/Work/DeviceTester/amazon-freertos/tests/common/ota\aws_test_ota_pal.c ****  */
 955:D:/Work/DeviceTester/amazon-freertos/tests/common/ota\aws_test_ota_pal.c ****     TEST( Full_OTA_PAL, prvPAL_CheckFileSignature_InvalidSignatureBlockWritten )
 956:D:/Work/DeviceTester/amazon-freertos/tests/common/ota\aws_test_ota_pal.c ****     {
 957:D:/Work/DeviceTester/amazon-freertos/tests/common/ota\aws_test_ota_pal.c ****         OTA_Err_t xOtaStatus;
 958:D:/Work/DeviceTester/amazon-freertos/tests/common/ota\aws_test_ota_pal.c ****         Sig256_t xSig = { 0 };
 959:D:/Work/DeviceTester/amazon-freertos/tests/common/ota\aws_test_ota_pal.c **** 
 960:D:/Work/DeviceTester/amazon-freertos/tests/common/ota\aws_test_ota_pal.c ****         /* Create a local file using the PAL. */
 961:D:/Work/DeviceTester/amazon-freertos/tests/common/ota\aws_test_ota_pal.c ****         xOtaFile.pucFilePath = ( uint8_t * ) otatestpalFIRMWARE_FILE;
 962:D:/Work/DeviceTester/amazon-freertos/tests/common/ota\aws_test_ota_pal.c ****         xOtaStatus = prvPAL_CreateFileForRx( &xOtaFile );
 963:D:/Work/DeviceTester/amazon-freertos/tests/common/ota\aws_test_ota_pal.c ****         TEST_ASSERT_EQUAL( kOTA_Err_None, xOtaStatus );
 964:D:/Work/DeviceTester/amazon-freertos/tests/common/ota\aws_test_ota_pal.c **** 
 965:D:/Work/DeviceTester/amazon-freertos/tests/common/ota\aws_test_ota_pal.c ****         /* We still want to close the file if the test fails. */
 966:D:/Work/DeviceTester/amazon-freertos/tests/common/ota\aws_test_ota_pal.c ****         if( TEST_PROTECT() )
 967:D:/Work/DeviceTester/amazon-freertos/tests/common/ota\aws_test_ota_pal.c ****         {
 968:D:/Work/DeviceTester/amazon-freertos/tests/common/ota\aws_test_ota_pal.c ****             /* Write data to the file. */
 969:D:/Work/DeviceTester/amazon-freertos/tests/common/ota\aws_test_ota_pal.c ****             xOtaStatus = prvPAL_WriteBlock( &xOtaFile,
 970:D:/Work/DeviceTester/amazon-freertos/tests/common/ota\aws_test_ota_pal.c ****                                             0,
 971:D:/Work/DeviceTester/amazon-freertos/tests/common/ota\aws_test_ota_pal.c ****                                             ucDummyData,
 972:D:/Work/DeviceTester/amazon-freertos/tests/common/ota\aws_test_ota_pal.c ****                                             sizeof( ucDummyData ) );
 973:D:/Work/DeviceTester/amazon-freertos/tests/common/ota\aws_test_ota_pal.c ****             TEST_ASSERT_EQUAL( sizeof( ucDummyData ), xOtaStatus );
 974:D:/Work/DeviceTester/amazon-freertos/tests/common/ota\aws_test_ota_pal.c **** 
 975:D:/Work/DeviceTester/amazon-freertos/tests/common/ota\aws_test_ota_pal.c ****             /* Fill out an incorrect signature. */
 976:D:/Work/DeviceTester/amazon-freertos/tests/common/ota\aws_test_ota_pal.c ****             xOtaFile.pxSignature = &xSig;
 977:D:/Work/DeviceTester/amazon-freertos/tests/common/ota\aws_test_ota_pal.c ****             xOtaFile.pxSignature->usSize = ucInvalidSignatureLength;
 978:D:/Work/DeviceTester/amazon-freertos/tests/common/ota\aws_test_ota_pal.c ****             memcpy( xOtaFile.pxSignature->ucData, ucInvalidSignature, ucInvalidSignatureLength );
 979:D:/Work/DeviceTester/amazon-freertos/tests/common/ota\aws_test_ota_pal.c ****             xOtaFile.pucCertFilepath = ( uint8_t * ) otatestpalCERTIFICATE_FILE;
 980:D:/Work/DeviceTester/amazon-freertos/tests/common/ota\aws_test_ota_pal.c **** 
 981:D:/Work/DeviceTester/amazon-freertos/tests/common/ota\aws_test_ota_pal.c ****             /* Check the signature. */
 982:D:/Work/DeviceTester/amazon-freertos/tests/common/ota\aws_test_ota_pal.c ****             xOtaStatus = test_prvPAL_CheckFileSignature( &xOtaFile );
 983:D:/Work/DeviceTester/amazon-freertos/tests/common/ota\aws_test_ota_pal.c **** 
 984:D:/Work/DeviceTester/amazon-freertos/tests/common/ota\aws_test_ota_pal.c ****             if( ( kOTA_Err_BadSignerCert != ( xOtaStatus & ~kOTA_PAL_ErrMask ) ) &&
 985:D:/Work/DeviceTester/amazon-freertos/tests/common/ota\aws_test_ota_pal.c ****                 ( kOTA_Err_SignatureCheckFailed != ( xOtaStatus & ~kOTA_PAL_ErrMask ) ) )
 986:D:/Work/DeviceTester/amazon-freertos/tests/common/ota\aws_test_ota_pal.c ****             {
 987:D:/Work/DeviceTester/amazon-freertos/tests/common/ota\aws_test_ota_pal.c ****                 TEST_ASSERT_TRUE( 0 );
 988:D:/Work/DeviceTester/amazon-freertos/tests/common/ota\aws_test_ota_pal.c ****             }
 989:D:/Work/DeviceTester/amazon-freertos/tests/common/ota\aws_test_ota_pal.c ****         }
 990:D:/Work/DeviceTester/amazon-freertos/tests/common/ota\aws_test_ota_pal.c ****     }
 991:D:/Work/DeviceTester/amazon-freertos/tests/common/ota\aws_test_ota_pal.c **** 
 992:D:/Work/DeviceTester/amazon-freertos/tests/common/ota\aws_test_ota_pal.c ****     TEST( Full_OTA_PAL, prvPAL_CheckFileSignature_InvalidSignatureNoBlockWritten )
 993:D:/Work/DeviceTester/amazon-freertos/tests/common/ota\aws_test_ota_pal.c ****     {
 980              		.loc 1 993 0
 981              		.cfi_startproc
 982              		@ args = 0, pretend = 0, frame = 264
 983              		@ frame_needed = 0, uses_anonymous_args = 0
 984 0000 10402DE9 		push	{r4, lr}
 985              		.cfi_def_cfa_offset 8
 986              		.cfi_offset 4, -8
 987              		.cfi_offset 14, -4
 988 0004 11DE4DE2 		sub	sp, sp, #272
 989              		.cfi_def_cfa_offset 280
 994:D:/Work/DeviceTester/amazon-freertos/tests/common/ota\aws_test_ota_pal.c ****         OTA_Err_t xOtaStatus;
 995:D:/Work/DeviceTester/amazon-freertos/tests/common/ota\aws_test_ota_pal.c ****         Sig256_t xSig = { 0 };
 990              		.loc 1 995 0
 991 0008 022100E3 		movw	r2, #258
 992 000c 0010A0E3 		mov	r1, #0
 993 0010 0C008DE2 		add	r0, sp, #12
 994 0014 FEFFFFEB 		bl	memset
 995              	.LVL86:
 996:D:/Work/DeviceTester/amazon-freertos/tests/common/ota\aws_test_ota_pal.c **** 
 997:D:/Work/DeviceTester/amazon-freertos/tests/common/ota\aws_test_ota_pal.c ****         /* Create a local file using the PAL. */
 998:D:/Work/DeviceTester/amazon-freertos/tests/common/ota\aws_test_ota_pal.c ****         xOtaFile.pucFilePath = ( uint8_t * ) otatestpalFIRMWARE_FILE;
 996              		.loc 1 998 0
 997 0018 88309FE5 		ldr	r3, .L67
 998 001c 88009FE5 		ldr	r0, .L67+4
 999 0020 003080E5 		str	r3, [r0]
 999:D:/Work/DeviceTester/amazon-freertos/tests/common/ota\aws_test_ota_pal.c ****         xOtaStatus = prvPAL_CreateFileForRx( &xOtaFile );
 1000              		.loc 1 999 0
 1001 0024 FEFFFFEB 		bl	prvPAL_CreateFileForRx
 1002              	.LVL87:
1000:D:/Work/DeviceTester/amazon-freertos/tests/common/ota\aws_test_ota_pal.c ****         TEST_ASSERT_EQUAL( kOTA_Err_None, xOtaStatus );
 1003              		.loc 1 1000 0
 1004 0028 0020A0E3 		mov	r2, #0
 1005 002c 1430A0E3 		mov	r3, #20
 1006 0030 00308DE5 		str	r3, [sp]
 1007 0034 0010A0E1 		mov	r1, r0
 1008 0038 FA3FA0E3 		mov	r3, #1000
 1009 003c 0200A0E1 		mov	r0, r2
 1010              	.LVL88:
 1011 0040 FEFFFFEB 		bl	UnityAssertEqualNumber
 1012              	.LVL89:
1001:D:/Work/DeviceTester/amazon-freertos/tests/common/ota\aws_test_ota_pal.c **** 
1002:D:/Work/DeviceTester/amazon-freertos/tests/common/ota\aws_test_ota_pal.c ****         /* We still want to close the file if the test fails. */
1003:D:/Work/DeviceTester/amazon-freertos/tests/common/ota\aws_test_ota_pal.c ****         if( TEST_PROTECT() )
 1013              		.loc 1 1003 0
 1014 0044 64009FE5 		ldr	r0, .L67+8
 1015 0048 FEFFFFEB 		bl	setjmp
 1016              	.LVL90:
 1017 004c 000050E3 		cmp	r0, #0
 1018 0050 1200001A 		bne	.L63
1004:D:/Work/DeviceTester/amazon-freertos/tests/common/ota\aws_test_ota_pal.c ****         {
1005:D:/Work/DeviceTester/amazon-freertos/tests/common/ota\aws_test_ota_pal.c ****             /* Fill out an incorrect signature. */
1006:D:/Work/DeviceTester/amazon-freertos/tests/common/ota\aws_test_ota_pal.c ****             xOtaFile.pxSignature = &xSig;
 1019              		.loc 1 1006 0
 1020 0054 50409FE5 		ldr	r4, .L67+4
 1021 0058 0C308DE2 		add	r3, sp, #12
1007:D:/Work/DeviceTester/amazon-freertos/tests/common/ota\aws_test_ota_pal.c ****             xOtaFile.pxSignature->usSize = ucInvalidSignatureLength;
 1022              		.loc 1 1007 0
 1023 005c 4620A0E3 		mov	r2, #70
1008:D:/Work/DeviceTester/amazon-freertos/tests/common/ota\aws_test_ota_pal.c ****             memcpy( xOtaFile.pxSignature->ucData, ucInvalidSignature, ucInvalidSignatureLength );
 1024              		.loc 1 1008 0
 1025 0060 4C109FE5 		ldr	r1, .L67+12
 1026 0064 0E008DE2 		add	r0, sp, #14
1007:D:/Work/DeviceTester/amazon-freertos/tests/common/ota\aws_test_ota_pal.c ****             xOtaFile.pxSignature->usSize = ucInvalidSignatureLength;
 1027              		.loc 1 1007 0
 1028 0068 BC20CDE1 		strh	r2, [sp, #12]	@ movhi
1006:D:/Work/DeviceTester/amazon-freertos/tests/common/ota\aws_test_ota_pal.c ****             xOtaFile.pxSignature->usSize = ucInvalidSignatureLength;
 1029              		.loc 1 1006 0
 1030 006c 283084E5 		str	r3, [r4, #40]
 1031              		.loc 1 1008 0
 1032 0070 FEFFFFEB 		bl	memcpy
 1033              	.LVL91:
1009:D:/Work/DeviceTester/amazon-freertos/tests/common/ota\aws_test_ota_pal.c ****             xOtaFile.pucCertFilepath = ( uint8_t * ) otatestpalCERTIFICATE_FILE;
 1034              		.loc 1 1009 0
 1035 0074 3C309FE5 		ldr	r3, .L67+16
1010:D:/Work/DeviceTester/amazon-freertos/tests/common/ota\aws_test_ota_pal.c **** 
1011:D:/Work/DeviceTester/amazon-freertos/tests/common/ota\aws_test_ota_pal.c ****             /* Try to close the file. */
1012:D:/Work/DeviceTester/amazon-freertos/tests/common/ota\aws_test_ota_pal.c ****             xOtaStatus = prvPAL_CloseFile( &xOtaFile );
 1036              		.loc 1 1012 0
 1037 0078 0400A0E1 		mov	r0, r4
1009:D:/Work/DeviceTester/amazon-freertos/tests/common/ota\aws_test_ota_pal.c ****             xOtaFile.pucCertFilepath = ( uint8_t * ) otatestpalCERTIFICATE_FILE;
 1038              		.loc 1 1009 0
 1039 007c 303084E5 		str	r3, [r4, #48]
 1040              		.loc 1 1012 0
 1041 0080 FEFFFFEB 		bl	prvPAL_CloseFile
 1042              	.LVL92:
1013:D:/Work/DeviceTester/amazon-freertos/tests/common/ota\aws_test_ota_pal.c **** 
1014:D:/Work/DeviceTester/amazon-freertos/tests/common/ota\aws_test_ota_pal.c ****             if( ( kOTA_Err_BadSignerCert != ( xOtaStatus & ~kOTA_PAL_ErrMask ) ) &&
 1043              		.loc 1 1014 0
 1044 0084 FF0400E2 		and	r0, r0, #-16777216
 1045              	.LVL93:
 1046 0088 FF0480E2 		add	r0, r0, #-16777216
 1047 008c FE0410E3 		tst	r0, #-33554432
 1048 0090 0200000A 		beq	.L63
1015:D:/Work/DeviceTester/amazon-freertos/tests/common/ota\aws_test_ota_pal.c ****                 ( kOTA_Err_SignatureCheckFailed != ( xOtaStatus & ~kOTA_PAL_ErrMask ) ) )
1016:D:/Work/DeviceTester/amazon-freertos/tests/common/ota\aws_test_ota_pal.c ****             {
1017:D:/Work/DeviceTester/amazon-freertos/tests/common/ota\aws_test_ota_pal.c ****                 TEST_ASSERT_TRUE( 0 );
 1049              		.loc 1 1017 0 discriminator 1
 1050 0094 F91300E3 		movw	r1, #1017
 1051 0098 1C009FE5 		ldr	r0, .L67+20
 1052 009c FEFFFFEB 		bl	UnityFail
 1053              	.LVL94:
 1054              	.L63:
1018:D:/Work/DeviceTester/amazon-freertos/tests/common/ota\aws_test_ota_pal.c ****             }
1019:D:/Work/DeviceTester/amazon-freertos/tests/common/ota\aws_test_ota_pal.c ****         }
1020:D:/Work/DeviceTester/amazon-freertos/tests/common/ota\aws_test_ota_pal.c ****     }
 1055              		.loc 1 1020 0
 1056 00a0 11DE8DE2 		add	sp, sp, #272
 1057              		.cfi_def_cfa_offset 8
 1058              		@ sp needed
 1059 00a4 1080BDE8 		pop	{r4, pc}
 1060              	.L68:
 1061              		.align	2
 1062              	.L67:
 1063 00a8 00000000 		.word	.LC1
 1064 00ac 00000000 		.word	.LANCHOR0
 1065 00b0 28000000 		.word	Unity+40
 1066 00b4 00000000 		.word	.LANCHOR3
 1067 00b8 1A000000 		.word	.LC4
 1068 00bc 00000000 		.word	.LC5
 1069              		.cfi_endproc
 1070              	.LFE54:
 1072              		.section	.text.TEST_Full_OTA_PAL_prvPAL_WriteBlock_WriteManyBlocks_,"ax",%progbits
 1073              		.align	2
 1074              		.global	TEST_Full_OTA_PAL_prvPAL_WriteBlock_WriteManyBlocks_
 1075              		.syntax unified
 1076              		.arm
 1077              		.fpu neon
 1079              	TEST_Full_OTA_PAL_prvPAL_WriteBlock_WriteManyBlocks_:
 1080              	.LFB28:
 592:D:/Work/DeviceTester/amazon-freertos/tests/common/ota\aws_test_ota_pal.c ****     OTA_Err_t xOtaStatus;
 1081              		.loc 1 592 0
 1082              		.cfi_startproc
 1083              		@ args = 0, pretend = 0, frame = 0
 1084              		@ frame_needed = 0, uses_anonymous_args = 0
 1085 0000 F7402DE9 		push	{r0, r1, r2, r4, r5, r6, r7, lr}
 1086              		.cfi_def_cfa_offset 32
 1087              		.cfi_offset 4, -20
 1088              		.cfi_offset 5, -16
 1089              		.cfi_offset 6, -12
 1090              		.cfi_offset 7, -8
 1091              		.cfi_offset 14, -4
 596:D:/Work/DeviceTester/amazon-freertos/tests/common/ota\aws_test_ota_pal.c **** 
 1092              		.loc 1 596 0
 1093 0004 8C309FE5 		ldr	r3, .L75
 1094 0008 8C009FE5 		ldr	r0, .L75+4
 1095 000c 003080E5 		str	r3, [r0]
 601:D:/Work/DeviceTester/amazon-freertos/tests/common/ota\aws_test_ota_pal.c ****     TEST_ASSERT_EQUAL( kOTA_Err_None, xOtaStatus );
 1096              		.loc 1 601 0
 1097 0010 FEFFFFEB 		bl	prvPAL_CreateFileForRx
 1098              	.LVL95:
 602:D:/Work/DeviceTester/amazon-freertos/tests/common/ota\aws_test_ota_pal.c **** 
 1099              		.loc 1 602 0
 1100 0014 0020A0E3 		mov	r2, #0
 1101 0018 1430A0E3 		mov	r3, #20
 1102 001c 00308DE5 		str	r3, [sp]
 1103 0020 0010A0E1 		mov	r1, r0
 1104 0024 5A3200E3 		movw	r3, #602
 1105 0028 0200A0E1 		mov	r0, r2
 1106              	.LVL96:
 1107 002c FEFFFFEB 		bl	UnityAssertEqualNumber
 1108              	.LVL97:
 604:D:/Work/DeviceTester/amazon-freertos/tests/common/ota\aws_test_ota_pal.c ****     {
 1109              		.loc 1 604 0
 1110 0030 68009FE5 		ldr	r0, .L75+8
 1111 0034 FEFFFFEB 		bl	setjmp
 1112              	.LVL98:
 1113 0038 004050E2 		subs	r4, r0, #0
 1114 003c 1300001A 		bne	.L69
 1115              	.LBB2:
 610:D:/Work/DeviceTester/amazon-freertos/tests/common/ota\aws_test_ota_pal.c ****             TEST_ASSERT_EQUAL_INT( sizeof( ucDummyData ), sNumBytesWritten );
 1116              		.loc 1 610 0
 1117 0040 5C709FE5 		ldr	r7, .L75+12
 1118 0044 5450A0E3 		mov	r5, #84
 1119 0048 4C609FE5 		ldr	r6, .L75+4
 1120              	.L71:
 1121 004c 0410A0E1 		mov	r1, r4
 1122 0050 0530A0E1 		mov	r3, r5
 1123 0054 0720A0E1 		mov	r2, r7
 1124 0058 0600A0E1 		mov	r0, r6
 1125 005c FEFFFFEB 		bl	prvPAL_WriteBlock
 1126              	.LVL99:
 611:D:/Work/DeviceTester/amazon-freertos/tests/common/ota\aws_test_ota_pal.c ****         }
 1127              		.loc 1 611 0
 1128 0060 1430A0E3 		mov	r3, #20
 1129 0064 0010A0E1 		mov	r1, r0
 1130 0068 00308DE5 		str	r3, [sp]
 1131 006c 0020A0E3 		mov	r2, #0
 1132 0070 633200E3 		movw	r3, #611
 1133 0074 0500A0E1 		mov	r0, r5
 1134              	.LVL100:
 1135 0078 544084E2 		add	r4, r4, #84
 1136 007c FEFFFFEB 		bl	UnityAssertEqualNumber
 1137              	.LVL101:
 608:D:/Work/DeviceTester/amazon-freertos/tests/common/ota\aws_test_ota_pal.c ****         {
 1138              		.loc 1 608 0
 1139 0080 D20F54E3 		cmp	r4, #840
 1140 0084 F0FFFF1A 		bne	.L71
 615:D:/Work/DeviceTester/amazon-freertos/tests/common/ota\aws_test_ota_pal.c ****     }
 1141              		.loc 1 615 0
 1142 0088 880301E3 		movw	r0, #5000
 1143 008c FEFFFFEB 		bl	vTaskDelay
 1144              	.LVL102:
 1145              	.L69:
 1146              	.LBE2:
 617:D:/Work/DeviceTester/amazon-freertos/tests/common/ota\aws_test_ota_pal.c **** 
 1147              		.loc 1 617 0
 1148 0090 0CD08DE2 		add	sp, sp, #12
 1149              		.cfi_def_cfa_offset 20
 1150              		@ sp needed
 1151 0094 F080BDE8 		pop	{r4, r5, r6, r7, pc}
 1152              	.L76:
 1153              		.align	2
 1154              	.L75:
 1155 0098 00000000 		.word	.LC1
 1156 009c 00000000 		.word	.LANCHOR0
 1157 00a0 28000000 		.word	Unity+40
 1158 00a4 00000000 		.word	.LANCHOR1
 1159              		.cfi_endproc
 1160              	.LFE28:
 1162              		.section	.text.TEST_Full_OTA_PAL_prvPAL_ActivateNewImage_,"ax",%progbits
 1163              		.align	2
 1164              		.global	TEST_Full_OTA_PAL_prvPAL_ActivateNewImage_
 1165              		.syntax unified
 1166              		.arm
 1167              		.fpu neon
 1169              	TEST_Full_OTA_PAL_prvPAL_ActivateNewImage_:
 1170              	.LFB30:
 625:D:/Work/DeviceTester/amazon-freertos/tests/common/ota\aws_test_ota_pal.c ****     OTA_Err_t xOtaStatus = prvPAL_ActivateNewImage();
 1171              		.loc 1 625 0
 1172              		.cfi_startproc
 1173              		@ args = 0, pretend = 0, frame = 0
 1174              		@ frame_needed = 0, uses_anonymous_args = 0
 1175 0000 07402DE9 		push	{r0, r1, r2, lr}
 1176              		.cfi_def_cfa_offset 16
 1177              		.cfi_offset 14, -4
 626:D:/Work/DeviceTester/amazon-freertos/tests/common/ota\aws_test_ota_pal.c **** 
 1178              		.loc 1 626 0
 1179 0004 FEFFFFEB 		bl	prvPAL_ActivateNewImage
 1180              	.LVL103:
 628:D:/Work/DeviceTester/amazon-freertos/tests/common/ota\aws_test_ota_pal.c **** }
 1181              		.loc 1 628 0
 1182 0008 0020A0E3 		mov	r2, #0
 1183 000c 1430A0E3 		mov	r3, #20
 1184 0010 00308DE5 		str	r3, [sp]
 1185 0014 0010A0E1 		mov	r1, r0
 1186 0018 9D3FA0E3 		mov	r3, #628
 1187 001c 0200A0E1 		mov	r0, r2
 1188              	.LVL104:
 1189 0020 FEFFFFEB 		bl	UnityAssertEqualNumber
 1190              	.LVL105:
 629:D:/Work/DeviceTester/amazon-freertos/tests/common/ota\aws_test_ota_pal.c **** 
 1191              		.loc 1 629 0
 1192 0024 0CD08DE2 		add	sp, sp, #12
 1193              		.cfi_def_cfa_offset 4
 1194              		@ sp needed
 1195 0028 04F09DE4 		ldr	pc, [sp], #4
 1196              		.cfi_endproc
 1197              	.LFE30:
 1199              		.section	.text.TEST_Full_OTA_PAL_prvPAL_SetPlatformImageState_SelfTestImageState_,"ax",%progbits
 1200              		.align	2
 1201              		.global	TEST_Full_OTA_PAL_prvPAL_SetPlatformImageState_SelfTestImageState_
 1202              		.syntax unified
 1203              		.arm
 1204              		.fpu neon
 1206              	TEST_Full_OTA_PAL_prvPAL_SetPlatformImageState_SelfTestImageState_:
 1207              	.LFB32:
 635:D:/Work/DeviceTester/amazon-freertos/tests/common/ota\aws_test_ota_pal.c ****     OTA_Err_t xOtaStatus;
 1208              		.loc 1 635 0
 1209              		.cfi_startproc
 1210              		@ args = 0, pretend = 0, frame = 0
 1211              		@ frame_needed = 0, uses_anonymous_args = 0
 1212              	.LVL106:
 1213 0000 37402DE9 		push	{r0, r1, r2, r4, r5, lr}
 1214              		.cfi_def_cfa_offset 24
 1215              		.cfi_offset 4, -12
 1216              		.cfi_offset 5, -8
 1217              		.cfi_offset 14, -4
 641:D:/Work/DeviceTester/amazon-freertos/tests/common/ota\aws_test_ota_pal.c ****     xOtaStatus = prvPAL_CreateFileForRx( &xOtaFile );
 1218              		.loc 1 641 0
 1219 0004 8C309FE5 		ldr	r3, .L83
 1220 0008 8C009FE5 		ldr	r0, .L83+4
 1221 000c 003080E5 		str	r3, [r0]
 642:D:/Work/DeviceTester/amazon-freertos/tests/common/ota\aws_test_ota_pal.c ****     TEST_ASSERT_EQUAL( kOTA_Err_None, xOtaStatus );
 1222              		.loc 1 642 0
 1223 0010 FEFFFFEB 		bl	prvPAL_CreateFileForRx
 1224              	.LVL107:
 643:D:/Work/DeviceTester/amazon-freertos/tests/common/ota\aws_test_ota_pal.c **** 
 1225              		.loc 1 643 0
 1226 0014 0020A0E3 		mov	r2, #0
 1227 0018 1430A0E3 		mov	r3, #20
 1228 001c 00308DE5 		str	r3, [sp]
 1229 0020 0010A0E1 		mov	r1, r0
 1230 0024 833200E3 		movw	r3, #643
 1231 0028 0200A0E1 		mov	r0, r2
 1232              	.LVL108:
 1233 002c FEFFFFEB 		bl	UnityAssertEqualNumber
 1234              	.LVL109:
 646:D:/Work/DeviceTester/amazon-freertos/tests/common/ota\aws_test_ota_pal.c ****     {
 1235              		.loc 1 646 0
 1236 0030 68009FE5 		ldr	r0, .L83+8
 1237 0034 FEFFFFEB 		bl	setjmp
 1238              	.LVL110:
 1239 0038 004050E2 		subs	r4, r0, #0
 1240 003c 1300001A 		bne	.L79
 649:D:/Work/DeviceTester/amazon-freertos/tests/common/ota\aws_test_ota_pal.c ****                                         0,
 1241              		.loc 1 649 0
 1242 0040 5430A0E3 		mov	r3, #84
 1243 0044 58209FE5 		ldr	r2, .L83+12
 1244 0048 0410A0E1 		mov	r1, r4
 653:D:/Work/DeviceTester/amazon-freertos/tests/common/ota\aws_test_ota_pal.c **** 
 1245              		.loc 1 653 0
 1246 004c 1450A0E3 		mov	r5, #20
 649:D:/Work/DeviceTester/amazon-freertos/tests/common/ota\aws_test_ota_pal.c ****                                         0,
 1247              		.loc 1 649 0
 1248 0050 44009FE5 		ldr	r0, .L83+4
 1249 0054 FEFFFFEB 		bl	prvPAL_WriteBlock
 1250              	.LVL111:
 653:D:/Work/DeviceTester/amazon-freertos/tests/common/ota\aws_test_ota_pal.c **** 
 1251              		.loc 1 653 0
 1252 0058 8D3200E3 		movw	r3, #653
 1253 005c 0010A0E1 		mov	r1, r0
 1254 0060 0420A0E1 		mov	r2, r4
 1255 0064 5400A0E3 		mov	r0, #84
 1256              	.LVL112:
 1257 0068 00508DE5 		str	r5, [sp]
 1258 006c FEFFFFEB 		bl	UnityAssertEqualNumber
 1259              	.LVL113:
 657:D:/Work/DeviceTester/amazon-freertos/tests/common/ota\aws_test_ota_pal.c ****         TEST_ASSERT_EQUAL_INT( kOTA_Err_None, xOtaStatus );
 1260              		.loc 1 657 0
 1261 0070 0100A0E3 		mov	r0, #1
 1262 0074 FEFFFFEB 		bl	prvPAL_SetPlatformImageState
 1263              	.LVL114:
 658:D:/Work/DeviceTester/amazon-freertos/tests/common/ota\aws_test_ota_pal.c **** 
 1264              		.loc 1 658 0
 1265 0078 00508DE5 		str	r5, [sp]
 1266 007c 0010A0E1 		mov	r1, r0
 1267 0080 923200E3 		movw	r3, #658
 1268 0084 0420A0E1 		mov	r2, r4
 1269 0088 0400A0E1 		mov	r0, r4
 1270              	.LVL115:
 1271 008c FEFFFFEB 		bl	UnityAssertEqualNumber
 1272              	.LVL116:
 1273              	.L79:
 669:D:/Work/DeviceTester/amazon-freertos/tests/common/ota\aws_test_ota_pal.c **** 
 1274              		.loc 1 669 0
 1275 0090 0CD08DE2 		add	sp, sp, #12
 1276              		.cfi_def_cfa_offset 12
 1277              		@ sp needed
 1278 0094 3080BDE8 		pop	{r4, r5, pc}
 1279              	.L84:
 1280              		.align	2
 1281              	.L83:
 1282 0098 00000000 		.word	.LC1
 1283 009c 00000000 		.word	.LANCHOR0
 1284 00a0 28000000 		.word	Unity+40
 1285 00a4 00000000 		.word	.LANCHOR1
 1286              		.cfi_endproc
 1287              	.LFE32:
 1289              		.section	.text.TEST_Full_OTA_PAL_prvPAL_SetPlatformImageState_InvalidImageState_,"ax",%progbits
 1290              		.align	2
 1291              		.global	TEST_Full_OTA_PAL_prvPAL_SetPlatformImageState_InvalidImageState_
 1292              		.syntax unified
 1293              		.arm
 1294              		.fpu neon
 1296              	TEST_Full_OTA_PAL_prvPAL_SetPlatformImageState_InvalidImageState_:
 1297              	.LFB34:
 675:D:/Work/DeviceTester/amazon-freertos/tests/common/ota\aws_test_ota_pal.c ****     OTA_Err_t xOtaStatus;
 1298              		.loc 1 675 0
 1299              		.cfi_startproc
 1300              		@ args = 0, pretend = 0, frame = 0
 1301              		@ frame_needed = 0, uses_anonymous_args = 0
 1302              	.LVL117:
 1303 0000 37402DE9 		push	{r0, r1, r2, r4, r5, lr}
 1304              		.cfi_def_cfa_offset 24
 1305              		.cfi_offset 4, -12
 1306              		.cfi_offset 5, -8
 1307              		.cfi_offset 14, -4
 680:D:/Work/DeviceTester/amazon-freertos/tests/common/ota\aws_test_ota_pal.c ****     xOtaStatus = prvPAL_CreateFileForRx( &xOtaFile );
 1308              		.loc 1 680 0
 1309 0004 8C309FE5 		ldr	r3, .L89
 1310 0008 8C009FE5 		ldr	r0, .L89+4
 1311 000c 003080E5 		str	r3, [r0]
 681:D:/Work/DeviceTester/amazon-freertos/tests/common/ota\aws_test_ota_pal.c ****     TEST_ASSERT_EQUAL( kOTA_Err_None, xOtaStatus );
 1312              		.loc 1 681 0
 1313 0010 FEFFFFEB 		bl	prvPAL_CreateFileForRx
 1314              	.LVL118:
 682:D:/Work/DeviceTester/amazon-freertos/tests/common/ota\aws_test_ota_pal.c **** 
 1315              		.loc 1 682 0
 1316 0014 0020A0E3 		mov	r2, #0
 1317 0018 1430A0E3 		mov	r3, #20
 1318 001c 00308DE5 		str	r3, [sp]
 1319 0020 0010A0E1 		mov	r1, r0
 1320 0024 AA3200E3 		movw	r3, #682
 1321 0028 0200A0E1 		mov	r0, r2
 1322              	.LVL119:
 1323 002c FEFFFFEB 		bl	UnityAssertEqualNumber
 1324              	.LVL120:
 685:D:/Work/DeviceTester/amazon-freertos/tests/common/ota\aws_test_ota_pal.c ****     {
 1325              		.loc 1 685 0
 1326 0030 68009FE5 		ldr	r0, .L89+8
 1327 0034 FEFFFFEB 		bl	setjmp
 1328              	.LVL121:
 1329 0038 004050E2 		subs	r4, r0, #0
 1330 003c 1300001A 		bne	.L85
 688:D:/Work/DeviceTester/amazon-freertos/tests/common/ota\aws_test_ota_pal.c ****                                         0,
 1331              		.loc 1 688 0
 1332 0040 5430A0E3 		mov	r3, #84
 1333 0044 58209FE5 		ldr	r2, .L89+12
 1334 0048 0410A0E1 		mov	r1, r4
 692:D:/Work/DeviceTester/amazon-freertos/tests/common/ota\aws_test_ota_pal.c **** 
 1335              		.loc 1 692 0
 1336 004c 1450A0E3 		mov	r5, #20
 688:D:/Work/DeviceTester/amazon-freertos/tests/common/ota\aws_test_ota_pal.c ****                                         0,
 1337              		.loc 1 688 0
 1338 0050 44009FE5 		ldr	r0, .L89+4
 1339 0054 FEFFFFEB 		bl	prvPAL_WriteBlock
 1340              	.LVL122:
 692:D:/Work/DeviceTester/amazon-freertos/tests/common/ota\aws_test_ota_pal.c **** 
 1341              		.loc 1 692 0
 1342 0058 AD3FA0E3 		mov	r3, #692
 1343 005c 0010A0E1 		mov	r1, r0
 1344 0060 0420A0E1 		mov	r2, r4
 1345 0064 5400A0E3 		mov	r0, #84
 1346              	.LVL123:
 1347 0068 00508DE5 		str	r5, [sp]
 1348 006c FEFFFFEB 		bl	UnityAssertEqualNumber
 1349              	.LVL124:
 696:D:/Work/DeviceTester/amazon-freertos/tests/common/ota\aws_test_ota_pal.c ****         TEST_ASSERT_EQUAL( kOTA_Err_BadImageState, ( xOtaStatus & ~kOTA_PAL_ErrMask ) );
 1350              		.loc 1 696 0
 1351 0070 0500A0E3 		mov	r0, #5
 1352 0074 FEFFFFEB 		bl	prvPAL_SetPlatformImageState
 1353              	.LVL125:
 697:D:/Work/DeviceTester/amazon-freertos/tests/common/ota\aws_test_ota_pal.c ****     }
 1354              		.loc 1 697 0
 1355 0078 00508DE5 		str	r5, [sp]
 1356 007c FF1400E2 		and	r1, r0, #-16777216
 1357 0080 B93200E3 		movw	r3, #697
 1358 0084 0420A0E1 		mov	r2, r4
 1359 0088 0904A0E3 		mov	r0, #150994944
 1360              	.LVL126:
 1361 008c FEFFFFEB 		bl	UnityAssertEqualNumber
 1362              	.LVL127:
 1363              	.L85:
 699:D:/Work/DeviceTester/amazon-freertos/tests/common/ota\aws_test_ota_pal.c **** 
 1364              		.loc 1 699 0
 1365 0090 0CD08DE2 		add	sp, sp, #12
 1366              		.cfi_def_cfa_offset 12
 1367              		@ sp needed
 1368 0094 3080BDE8 		pop	{r4, r5, pc}
 1369              	.L90:
 1370              		.align	2
 1371              	.L89:
 1372 0098 00000000 		.word	.LC1
 1373 009c 00000000 		.word	.LANCHOR0
 1374 00a0 28000000 		.word	Unity+40
 1375 00a4 00000000 		.word	.LANCHOR1
 1376              		.cfi_endproc
 1377              	.LFE34:
 1379              		.section	.text.TEST_Full_OTA_PAL_prvPAL_SetPlatformImageState_UnknownImageState_,"ax",%progbits
 1380              		.align	2
 1381              		.global	TEST_Full_OTA_PAL_prvPAL_SetPlatformImageState_UnknownImageState_
 1382              		.syntax unified
 1383              		.arm
 1384              		.fpu neon
 1386              	TEST_Full_OTA_PAL_prvPAL_SetPlatformImageState_UnknownImageState_:
 1387              	.LFB36:
 705:D:/Work/DeviceTester/amazon-freertos/tests/common/ota\aws_test_ota_pal.c ****     OTA_Err_t xOtaStatus;
 1388              		.loc 1 705 0
 1389              		.cfi_startproc
 1390              		@ args = 0, pretend = 0, frame = 0
 1391              		@ frame_needed = 0, uses_anonymous_args = 0
 1392              	.LVL128:
 1393 0000 37402DE9 		push	{r0, r1, r2, r4, r5, lr}
 1394              		.cfi_def_cfa_offset 24
 1395              		.cfi_offset 4, -12
 1396              		.cfi_offset 5, -8
 1397              		.cfi_offset 14, -4
 710:D:/Work/DeviceTester/amazon-freertos/tests/common/ota\aws_test_ota_pal.c ****     xOtaStatus = prvPAL_CreateFileForRx( &xOtaFile );
 1398              		.loc 1 710 0
 1399 0004 8C309FE5 		ldr	r3, .L95
 1400 0008 8C009FE5 		ldr	r0, .L95+4
 1401 000c 003080E5 		str	r3, [r0]
 711:D:/Work/DeviceTester/amazon-freertos/tests/common/ota\aws_test_ota_pal.c ****     TEST_ASSERT_EQUAL( kOTA_Err_None, xOtaStatus );
 1402              		.loc 1 711 0
 1403 0010 FEFFFFEB 		bl	prvPAL_CreateFileForRx
 1404              	.LVL129:
 712:D:/Work/DeviceTester/amazon-freertos/tests/common/ota\aws_test_ota_pal.c **** 
 1405              		.loc 1 712 0
 1406 0014 0020A0E3 		mov	r2, #0
 1407 0018 1430A0E3 		mov	r3, #20
 1408 001c 00308DE5 		str	r3, [sp]
 1409 0020 0010A0E1 		mov	r1, r0
 1410 0024 B23FA0E3 		mov	r3, #712
 1411 0028 0200A0E1 		mov	r0, r2
 1412              	.LVL130:
 1413 002c FEFFFFEB 		bl	UnityAssertEqualNumber
 1414              	.LVL131:
 715:D:/Work/DeviceTester/amazon-freertos/tests/common/ota\aws_test_ota_pal.c ****     {
 1415              		.loc 1 715 0
 1416 0030 68009FE5 		ldr	r0, .L95+8
 1417 0034 FEFFFFEB 		bl	setjmp
 1418              	.LVL132:
 1419 0038 004050E2 		subs	r4, r0, #0
 1420 003c 1300001A 		bne	.L91
 718:D:/Work/DeviceTester/amazon-freertos/tests/common/ota\aws_test_ota_pal.c ****                                         0,
 1421              		.loc 1 718 0
 1422 0040 5430A0E3 		mov	r3, #84
 1423 0044 58209FE5 		ldr	r2, .L95+12
 1424 0048 0410A0E1 		mov	r1, r4
 722:D:/Work/DeviceTester/amazon-freertos/tests/common/ota\aws_test_ota_pal.c **** 
 1425              		.loc 1 722 0
 1426 004c 1450A0E3 		mov	r5, #20
 718:D:/Work/DeviceTester/amazon-freertos/tests/common/ota\aws_test_ota_pal.c ****                                         0,
 1427              		.loc 1 718 0
 1428 0050 44009FE5 		ldr	r0, .L95+4
 1429 0054 FEFFFFEB 		bl	prvPAL_WriteBlock
 1430              	.LVL133:
 722:D:/Work/DeviceTester/amazon-freertos/tests/common/ota\aws_test_ota_pal.c **** 
 1431              		.loc 1 722 0
 1432 0058 D23200E3 		movw	r3, #722
 1433 005c 0010A0E1 		mov	r1, r0
 1434 0060 0420A0E1 		mov	r2, r4
 1435 0064 5400A0E3 		mov	r0, #84
 1436              	.LVL134:
 1437 0068 00508DE5 		str	r5, [sp]
 1438 006c FEFFFFEB 		bl	UnityAssertEqualNumber
 1439              	.LVL135:
 726:D:/Work/DeviceTester/amazon-freertos/tests/common/ota\aws_test_ota_pal.c ****         TEST_ASSERT_EQUAL( kOTA_Err_BadImageState, ( xOtaStatus & ~kOTA_PAL_ErrMask ) );
 1440              		.loc 1 726 0
 1441 0070 0400A0E1 		mov	r0, r4
 1442 0074 FEFFFFEB 		bl	prvPAL_SetPlatformImageState
 1443              	.LVL136:
 727:D:/Work/DeviceTester/amazon-freertos/tests/common/ota\aws_test_ota_pal.c ****     }
 1444              		.loc 1 727 0
 1445 0078 00508DE5 		str	r5, [sp]
 1446 007c FF1400E2 		and	r1, r0, #-16777216
 1447 0080 D73200E3 		movw	r3, #727
 1448 0084 0420A0E1 		mov	r2, r4
 1449 0088 0904A0E3 		mov	r0, #150994944
 1450              	.LVL137:
 1451 008c FEFFFFEB 		bl	UnityAssertEqualNumber
 1452              	.LVL138:
 1453              	.L91:
 729:D:/Work/DeviceTester/amazon-freertos/tests/common/ota\aws_test_ota_pal.c **** 
 1454              		.loc 1 729 0
 1455 0090 0CD08DE2 		add	sp, sp, #12
 1456              		.cfi_def_cfa_offset 12
 1457              		@ sp needed
 1458 0094 3080BDE8 		pop	{r4, r5, pc}
 1459              	.L96:
 1460              		.align	2
 1461              	.L95:
 1462 0098 00000000 		.word	.LC1
 1463 009c 00000000 		.word	.LANCHOR0
 1464 00a0 28000000 		.word	Unity+40
 1465 00a4 00000000 		.word	.LANCHOR1
 1466              		.cfi_endproc
 1467              	.LFE36:
 1469              		.section	.text.TEST_Full_OTA_PAL_prvPAL_SetPlatformImageState_AcceptedImageStateButImageNotClosed_
 1470              		.align	2
 1471              		.global	TEST_Full_OTA_PAL_prvPAL_SetPlatformImageState_AcceptedImageStateButImageNotClosed_
 1472              		.syntax unified
 1473              		.arm
 1474              		.fpu neon
 1476              	TEST_Full_OTA_PAL_prvPAL_SetPlatformImageState_AcceptedImageStateButImageNotClosed_:
 1477              	.LFB38:
 737:D:/Work/DeviceTester/amazon-freertos/tests/common/ota\aws_test_ota_pal.c ****     OTA_Err_t xOtaStatus;
 1478              		.loc 1 737 0
 1479              		.cfi_startproc
 1480              		@ args = 0, pretend = 0, frame = 0
 1481              		@ frame_needed = 0, uses_anonymous_args = 0
 1482              	.LVL139:
 1483 0000 37402DE9 		push	{r0, r1, r2, r4, r5, lr}
 1484              		.cfi_def_cfa_offset 24
 1485              		.cfi_offset 4, -12
 1486              		.cfi_offset 5, -8
 1487              		.cfi_offset 14, -4
 742:D:/Work/DeviceTester/amazon-freertos/tests/common/ota\aws_test_ota_pal.c ****     xOtaStatus = prvPAL_CreateFileForRx( &xOtaFile );
 1488              		.loc 1 742 0
 1489 0004 8C309FE5 		ldr	r3, .L101
 1490 0008 8C009FE5 		ldr	r0, .L101+4
 1491 000c 003080E5 		str	r3, [r0]
 743:D:/Work/DeviceTester/amazon-freertos/tests/common/ota\aws_test_ota_pal.c ****     TEST_ASSERT_EQUAL( kOTA_Err_None, xOtaStatus );
 1492              		.loc 1 743 0
 1493 0010 FEFFFFEB 		bl	prvPAL_CreateFileForRx
 1494              	.LVL140:
 744:D:/Work/DeviceTester/amazon-freertos/tests/common/ota\aws_test_ota_pal.c **** 
 1495              		.loc 1 744 0
 1496 0014 0020A0E3 		mov	r2, #0
 1497 0018 1430A0E3 		mov	r3, #20
 1498 001c 00308DE5 		str	r3, [sp]
 1499 0020 0010A0E1 		mov	r1, r0
 1500 0024 BA3FA0E3 		mov	r3, #744
 1501 0028 0200A0E1 		mov	r0, r2
 1502              	.LVL141:
 1503 002c FEFFFFEB 		bl	UnityAssertEqualNumber
 1504              	.LVL142:
 747:D:/Work/DeviceTester/amazon-freertos/tests/common/ota\aws_test_ota_pal.c ****     {
 1505              		.loc 1 747 0
 1506 0030 68009FE5 		ldr	r0, .L101+8
 1507 0034 FEFFFFEB 		bl	setjmp
 1508              	.LVL143:
 1509 0038 004050E2 		subs	r4, r0, #0
 1510 003c 1300001A 		bne	.L97
 750:D:/Work/DeviceTester/amazon-freertos/tests/common/ota\aws_test_ota_pal.c ****                                         0,
 1511              		.loc 1 750 0
 1512 0040 5430A0E3 		mov	r3, #84
 1513 0044 58209FE5 		ldr	r2, .L101+12
 1514 0048 0410A0E1 		mov	r1, r4
 754:D:/Work/DeviceTester/amazon-freertos/tests/common/ota\aws_test_ota_pal.c **** 
 1515              		.loc 1 754 0
 1516 004c 1450A0E3 		mov	r5, #20
 750:D:/Work/DeviceTester/amazon-freertos/tests/common/ota\aws_test_ota_pal.c ****                                         0,
 1517              		.loc 1 750 0
 1518 0050 44009FE5 		ldr	r0, .L101+4
 1519 0054 FEFFFFEB 		bl	prvPAL_WriteBlock
 1520              	.LVL144:
 754:D:/Work/DeviceTester/amazon-freertos/tests/common/ota\aws_test_ota_pal.c **** 
 1521              		.loc 1 754 0
 1522 0058 F23200E3 		movw	r3, #754
 1523 005c 0010A0E1 		mov	r1, r0
 1524 0060 0420A0E1 		mov	r2, r4
 1525 0064 5400A0E3 		mov	r0, #84
 1526              	.LVL145:
 1527 0068 00508DE5 		str	r5, [sp]
 1528 006c FEFFFFEB 		bl	UnityAssertEqualNumber
 1529              	.LVL146:
 757:D:/Work/DeviceTester/amazon-freertos/tests/common/ota\aws_test_ota_pal.c ****         TEST_ASSERT_EQUAL_INT( kOTA_Err_CommitFailed, ( xOtaStatus & ~kOTA_PAL_ErrMask ) );
 1530              		.loc 1 757 0
 1531 0070 0200A0E3 		mov	r0, #2
 1532 0074 FEFFFFEB 		bl	prvPAL_SetPlatformImageState
 1533              	.LVL147:
 758:D:/Work/DeviceTester/amazon-freertos/tests/common/ota\aws_test_ota_pal.c ****     }
 1534              		.loc 1 758 0
 1535 0078 00508DE5 		str	r5, [sp]
 1536 007c FF1400E2 		and	r1, r0, #-16777216
 1537 0080 F63200E3 		movw	r3, #758
 1538 0084 0420A0E1 		mov	r2, r4
 1539 0088 0504A0E3 		mov	r0, #83886080
 1540              	.LVL148:
 1541 008c FEFFFFEB 		bl	UnityAssertEqualNumber
 1542              	.LVL149:
 1543              	.L97:
 760:D:/Work/DeviceTester/amazon-freertos/tests/common/ota\aws_test_ota_pal.c **** 
 1544              		.loc 1 760 0
 1545 0090 0CD08DE2 		add	sp, sp, #12
 1546              		.cfi_def_cfa_offset 12
 1547              		@ sp needed
 1548 0094 3080BDE8 		pop	{r4, r5, pc}
 1549              	.L102:
 1550              		.align	2
 1551              	.L101:
 1552 0098 00000000 		.word	.LC1
 1553 009c 00000000 		.word	.LANCHOR0
 1554 00a0 28000000 		.word	Unity+40
 1555 00a4 00000000 		.word	.LANCHOR1
 1556              		.cfi_endproc
 1557              	.LFE38:
 1559              		.section	.text.TEST_Full_OTA_PAL_prvPAL_SetPlatformImageState_RejectImageState_,"ax",%progbits
 1560              		.align	2
 1561              		.global	TEST_Full_OTA_PAL_prvPAL_SetPlatformImageState_RejectImageState_
 1562              		.syntax unified
 1563              		.arm
 1564              		.fpu neon
 1566              	TEST_Full_OTA_PAL_prvPAL_SetPlatformImageState_RejectImageState_:
 1567              	.LFB40:
 767:D:/Work/DeviceTester/amazon-freertos/tests/common/ota\aws_test_ota_pal.c ****     OTA_Err_t xOtaStatus;
 1568              		.loc 1 767 0
 1569              		.cfi_startproc
 1570              		@ args = 0, pretend = 0, frame = 0
 1571              		@ frame_needed = 0, uses_anonymous_args = 0
 1572              	.LVL150:
 1573 0000 37402DE9 		push	{r0, r1, r2, r4, r5, lr}
 1574              		.cfi_def_cfa_offset 24
 1575              		.cfi_offset 4, -12
 1576              		.cfi_offset 5, -8
 1577              		.cfi_offset 14, -4
 772:D:/Work/DeviceTester/amazon-freertos/tests/common/ota\aws_test_ota_pal.c ****     xOtaStatus = prvPAL_CreateFileForRx( &xOtaFile );
 1578              		.loc 1 772 0
 1579 0004 8C309FE5 		ldr	r3, .L107
 1580 0008 8C009FE5 		ldr	r0, .L107+4
 1581 000c 003080E5 		str	r3, [r0]
 773:D:/Work/DeviceTester/amazon-freertos/tests/common/ota\aws_test_ota_pal.c ****     TEST_ASSERT_EQUAL( kOTA_Err_None, xOtaStatus );
 1582              		.loc 1 773 0
 1583 0010 FEFFFFEB 		bl	prvPAL_CreateFileForRx
 1584              	.LVL151:
 774:D:/Work/DeviceTester/amazon-freertos/tests/common/ota\aws_test_ota_pal.c **** 
 1585              		.loc 1 774 0
 1586 0014 0020A0E3 		mov	r2, #0
 1587 0018 1430A0E3 		mov	r3, #20
 1588 001c 00308DE5 		str	r3, [sp]
 1589 0020 0010A0E1 		mov	r1, r0
 1590 0024 063300E3 		movw	r3, #774
 1591 0028 0200A0E1 		mov	r0, r2
 1592              	.LVL152:
 1593 002c FEFFFFEB 		bl	UnityAssertEqualNumber
 1594              	.LVL153:
 777:D:/Work/DeviceTester/amazon-freertos/tests/common/ota\aws_test_ota_pal.c ****     {
 1595              		.loc 1 777 0
 1596 0030 68009FE5 		ldr	r0, .L107+8
 1597 0034 FEFFFFEB 		bl	setjmp
 1598              	.LVL154:
 1599 0038 004050E2 		subs	r4, r0, #0
 1600 003c 1300001A 		bne	.L103
 780:D:/Work/DeviceTester/amazon-freertos/tests/common/ota\aws_test_ota_pal.c ****                                         0,
 1601              		.loc 1 780 0
 1602 0040 5430A0E3 		mov	r3, #84
 1603 0044 58209FE5 		ldr	r2, .L107+12
 1604 0048 0410A0E1 		mov	r1, r4
 784:D:/Work/DeviceTester/amazon-freertos/tests/common/ota\aws_test_ota_pal.c **** 
 1605              		.loc 1 784 0
 1606 004c 1450A0E3 		mov	r5, #20
 780:D:/Work/DeviceTester/amazon-freertos/tests/common/ota\aws_test_ota_pal.c ****                                         0,
 1607              		.loc 1 780 0
 1608 0050 44009FE5 		ldr	r0, .L107+4
 1609 0054 FEFFFFEB 		bl	prvPAL_WriteBlock
 1610              	.LVL155:
 784:D:/Work/DeviceTester/amazon-freertos/tests/common/ota\aws_test_ota_pal.c **** 
 1611              		.loc 1 784 0
 1612 0058 313EA0E3 		mov	r3, #784
 1613 005c 0010A0E1 		mov	r1, r0
 1614 0060 0420A0E1 		mov	r2, r4
 1615 0064 5400A0E3 		mov	r0, #84
 1616              	.LVL156:
 1617 0068 00508DE5 		str	r5, [sp]
 1618 006c FEFFFFEB 		bl	UnityAssertEqualNumber
 1619              	.LVL157:
 787:D:/Work/DeviceTester/amazon-freertos/tests/common/ota\aws_test_ota_pal.c ****         TEST_ASSERT_EQUAL_INT( kOTA_Err_None, ( xOtaStatus & ~kOTA_PAL_ErrMask ) );
 1620              		.loc 1 787 0
 1621 0070 0300A0E3 		mov	r0, #3
 1622 0074 FEFFFFEB 		bl	prvPAL_SetPlatformImageState
 1623              	.LVL158:
 788:D:/Work/DeviceTester/amazon-freertos/tests/common/ota\aws_test_ota_pal.c ****     }
 1624              		.loc 1 788 0
 1625 0078 00508DE5 		str	r5, [sp]
 1626 007c FF1400E2 		and	r1, r0, #-16777216
 1627 0080 C53FA0E3 		mov	r3, #788
 1628 0084 0420A0E1 		mov	r2, r4
 1629 0088 0400A0E1 		mov	r0, r4
 1630              	.LVL159:
 1631 008c FEFFFFEB 		bl	UnityAssertEqualNumber
 1632              	.LVL160:
 1633              	.L103:
 790:D:/Work/DeviceTester/amazon-freertos/tests/common/ota\aws_test_ota_pal.c **** 
 1634              		.loc 1 790 0
 1635 0090 0CD08DE2 		add	sp, sp, #12
 1636              		.cfi_def_cfa_offset 12
 1637              		@ sp needed
 1638 0094 3080BDE8 		pop	{r4, r5, pc}
 1639              	.L108:
 1640              		.align	2
 1641              	.L107:
 1642 0098 00000000 		.word	.LC1
 1643 009c 00000000 		.word	.LANCHOR0
 1644 00a0 28000000 		.word	Unity+40
 1645 00a4 00000000 		.word	.LANCHOR1
 1646              		.cfi_endproc
 1647              	.LFE40:
 1649              		.section	.text.TEST_Full_OTA_PAL_prvPAL_SetPlatformImageState_AbortImageState_,"ax",%progbits
 1650              		.align	2
 1651              		.global	TEST_Full_OTA_PAL_prvPAL_SetPlatformImageState_AbortImageState_
 1652              		.syntax unified
 1653              		.arm
 1654              		.fpu neon
 1656              	TEST_Full_OTA_PAL_prvPAL_SetPlatformImageState_AbortImageState_:
 1657              	.LFB42:
 797:D:/Work/DeviceTester/amazon-freertos/tests/common/ota\aws_test_ota_pal.c ****     OTA_Err_t xOtaStatus;
 1658              		.loc 1 797 0
 1659              		.cfi_startproc
 1660              		@ args = 0, pretend = 0, frame = 0
 1661              		@ frame_needed = 0, uses_anonymous_args = 0
 1662              	.LVL161:
 1663 0000 37402DE9 		push	{r0, r1, r2, r4, r5, lr}
 1664              		.cfi_def_cfa_offset 24
 1665              		.cfi_offset 4, -12
 1666              		.cfi_offset 5, -8
 1667              		.cfi_offset 14, -4
 802:D:/Work/DeviceTester/amazon-freertos/tests/common/ota\aws_test_ota_pal.c ****     xOtaStatus = prvPAL_CreateFileForRx( &xOtaFile );
 1668              		.loc 1 802 0
 1669 0004 8C309FE5 		ldr	r3, .L113
 1670 0008 8C009FE5 		ldr	r0, .L113+4
 1671 000c 003080E5 		str	r3, [r0]
 803:D:/Work/DeviceTester/amazon-freertos/tests/common/ota\aws_test_ota_pal.c ****     TEST_ASSERT_EQUAL( kOTA_Err_None, xOtaStatus );
 1672              		.loc 1 803 0
 1673 0010 FEFFFFEB 		bl	prvPAL_CreateFileForRx
 1674              	.LVL162:
 804:D:/Work/DeviceTester/amazon-freertos/tests/common/ota\aws_test_ota_pal.c **** 
 1675              		.loc 1 804 0
 1676 0014 0020A0E3 		mov	r2, #0
 1677 0018 1430A0E3 		mov	r3, #20
 1678 001c 00308DE5 		str	r3, [sp]
 1679 0020 0010A0E1 		mov	r1, r0
 1680 0024 C93FA0E3 		mov	r3, #804
 1681 0028 0200A0E1 		mov	r0, r2
 1682              	.LVL163:
 1683 002c FEFFFFEB 		bl	UnityAssertEqualNumber
 1684              	.LVL164:
 807:D:/Work/DeviceTester/amazon-freertos/tests/common/ota\aws_test_ota_pal.c ****     {
 1685              		.loc 1 807 0
 1686 0030 68009FE5 		ldr	r0, .L113+8
 1687 0034 FEFFFFEB 		bl	setjmp
 1688              	.LVL165:
 1689 0038 004050E2 		subs	r4, r0, #0
 1690 003c 1300001A 		bne	.L109
 810:D:/Work/DeviceTester/amazon-freertos/tests/common/ota\aws_test_ota_pal.c ****                                         0,
 1691              		.loc 1 810 0
 1692 0040 5430A0E3 		mov	r3, #84
 1693 0044 58209FE5 		ldr	r2, .L113+12
 1694 0048 0410A0E1 		mov	r1, r4
 814:D:/Work/DeviceTester/amazon-freertos/tests/common/ota\aws_test_ota_pal.c **** 
 1695              		.loc 1 814 0
 1696 004c 1450A0E3 		mov	r5, #20
 810:D:/Work/DeviceTester/amazon-freertos/tests/common/ota\aws_test_ota_pal.c ****                                         0,
 1697              		.loc 1 810 0
 1698 0050 44009FE5 		ldr	r0, .L113+4
 1699 0054 FEFFFFEB 		bl	prvPAL_WriteBlock
 1700              	.LVL166:
 814:D:/Work/DeviceTester/amazon-freertos/tests/common/ota\aws_test_ota_pal.c **** 
 1701              		.loc 1 814 0
 1702 0058 2E3300E3 		movw	r3, #814
 1703 005c 0010A0E1 		mov	r1, r0
 1704 0060 0420A0E1 		mov	r2, r4
 1705 0064 5400A0E3 		mov	r0, #84
 1706              	.LVL167:
 1707 0068 00508DE5 		str	r5, [sp]
 1708 006c FEFFFFEB 		bl	UnityAssertEqualNumber
 1709              	.LVL168:
 817:D:/Work/DeviceTester/amazon-freertos/tests/common/ota\aws_test_ota_pal.c ****         TEST_ASSERT_EQUAL_INT( kOTA_Err_None, ( xOtaStatus & ~kOTA_PAL_ErrMask ) );
 1710              		.loc 1 817 0
 1711 0070 0400A0E3 		mov	r0, #4
 1712 0074 FEFFFFEB 		bl	prvPAL_SetPlatformImageState
 1713              	.LVL169:
 818:D:/Work/DeviceTester/amazon-freertos/tests/common/ota\aws_test_ota_pal.c ****     }
 1714              		.loc 1 818 0
 1715 0078 00508DE5 		str	r5, [sp]
 1716 007c FF1400E2 		and	r1, r0, #-16777216
 1717 0080 323300E3 		movw	r3, #818
 1718 0084 0420A0E1 		mov	r2, r4
 1719 0088 0400A0E1 		mov	r0, r4
 1720              	.LVL170:
 1721 008c FEFFFFEB 		bl	UnityAssertEqualNumber
 1722              	.LVL171:
 1723              	.L109:
 820:D:/Work/DeviceTester/amazon-freertos/tests/common/ota\aws_test_ota_pal.c **** 
 1724              		.loc 1 820 0
 1725 0090 0CD08DE2 		add	sp, sp, #12
 1726              		.cfi_def_cfa_offset 12
 1727              		@ sp needed
 1728 0094 3080BDE8 		pop	{r4, r5, pc}
 1729              	.L114:
 1730              		.align	2
 1731              	.L113:
 1732 0098 00000000 		.word	.LC1
 1733 009c 00000000 		.word	.LANCHOR0
 1734 00a0 28000000 		.word	Unity+40
 1735 00a4 00000000 		.word	.LANCHOR1
 1736              		.cfi_endproc
 1737              	.LFE42:
 1739              		.section	.text.TEST_Full_OTA_PAL_prvPAL_GetPlatformImageState_InvalidImageStateFromFileCloseFailur
 1740              		.align	2
 1741              		.global	TEST_Full_OTA_PAL_prvPAL_GetPlatformImageState_InvalidImageStateFromFileCloseFailure_
 1742              		.syntax unified
 1743              		.arm
 1744              		.fpu neon
 1746              	TEST_Full_OTA_PAL_prvPAL_GetPlatformImageState_InvalidImageStateFromFileCloseFailure_:
 1747              	.LFB44:
 827:D:/Work/DeviceTester/amazon-freertos/tests/common/ota\aws_test_ota_pal.c ****     OTA_Err_t xOtaStatus;
 1748              		.loc 1 827 0
 1749              		.cfi_startproc
 1750              		@ args = 0, pretend = 0, frame = 264
 1751              		@ frame_needed = 0, uses_anonymous_args = 0
 1752 0000 30402DE9 		push	{r4, r5, lr}
 1753              		.cfi_def_cfa_offset 12
 1754              		.cfi_offset 4, -12
 1755              		.cfi_offset 5, -8
 1756              		.cfi_offset 14, -4
 1757 0004 45DF4DE2 		sub	sp, sp, #276
 1758              		.cfi_def_cfa_offset 288
 829:D:/Work/DeviceTester/amazon-freertos/tests/common/ota\aws_test_ota_pal.c ****     OTA_PAL_ImageState_t ePalImageState = eOTA_PAL_ImageState_Unknown;
 1759              		.loc 1 829 0
 1760 0008 022100E3 		movw	r2, #258
 1761 000c 0010A0E3 		mov	r1, #0
 1762 0010 0C008DE2 		add	r0, sp, #12
 1763 0014 FEFFFFEB 		bl	memset
 1764              	.LVL172:
 834:D:/Work/DeviceTester/amazon-freertos/tests/common/ota\aws_test_ota_pal.c ****     xOtaStatus = prvPAL_CreateFileForRx( &xOtaFile );
 1765              		.loc 1 834 0
 1766 0018 DC309FE5 		ldr	r3, .L123
 1767 001c DC009FE5 		ldr	r0, .L123+4
 1768 0020 003080E5 		str	r3, [r0]
 835:D:/Work/DeviceTester/amazon-freertos/tests/common/ota\aws_test_ota_pal.c ****     TEST_ASSERT_EQUAL( kOTA_Err_None, xOtaStatus );
 1769              		.loc 1 835 0
 1770 0024 FEFFFFEB 		bl	prvPAL_CreateFileForRx
 1771              	.LVL173:
 836:D:/Work/DeviceTester/amazon-freertos/tests/common/ota\aws_test_ota_pal.c **** 
 1772              		.loc 1 836 0
 1773 0028 0020A0E3 		mov	r2, #0
 1774 002c 1430A0E3 		mov	r3, #20
 1775 0030 00308DE5 		str	r3, [sp]
 1776 0034 0010A0E1 		mov	r1, r0
 1777 0038 D13FA0E3 		mov	r3, #836
 1778 003c 0200A0E1 		mov	r0, r2
 1779              	.LVL174:
 1780 0040 FEFFFFEB 		bl	UnityAssertEqualNumber
 1781              	.LVL175:
 839:D:/Work/DeviceTester/amazon-freertos/tests/common/ota\aws_test_ota_pal.c ****     {
 1782              		.loc 1 839 0
 1783 0044 B8009FE5 		ldr	r0, .L123+8
 1784 0048 FEFFFFEB 		bl	setjmp
 1785              	.LVL176:
 1786 004c 005050E2 		subs	r5, r0, #0
 1787 0050 2300001A 		bne	.L115
 842:D:/Work/DeviceTester/amazon-freertos/tests/common/ota\aws_test_ota_pal.c ****                                         0,
 1788              		.loc 1 842 0
 1789 0054 A4409FE5 		ldr	r4, .L123+4
 1790 0058 5430A0E3 		mov	r3, #84
 1791 005c A4209FE5 		ldr	r2, .L123+12
 1792 0060 0510A0E1 		mov	r1, r5
 1793 0064 0400A0E1 		mov	r0, r4
 1794 0068 FEFFFFEB 		bl	prvPAL_WriteBlock
 1795              	.LVL177:
 846:D:/Work/DeviceTester/amazon-freertos/tests/common/ota\aws_test_ota_pal.c **** 
 1796              		.loc 1 846 0
 1797 006c 1430A0E3 		mov	r3, #20
 1798 0070 0010A0E1 		mov	r1, r0
 1799 0074 00308DE5 		str	r3, [sp]
 1800 0078 0520A0E1 		mov	r2, r5
 1801 007c 4E3300E3 		movw	r3, #846
 1802 0080 5400A0E3 		mov	r0, #84
 1803              	.LVL178:
 1804 0084 FEFFFFEB 		bl	UnityAssertEqualNumber
 1805              	.LVL179:
 849:D:/Work/DeviceTester/amazon-freertos/tests/common/ota\aws_test_ota_pal.c ****         xOtaFile.pxSignature->usSize = ucInvalidSignatureLength;
 1806              		.loc 1 849 0
 1807 0088 0C308DE2 		add	r3, sp, #12
 850:D:/Work/DeviceTester/amazon-freertos/tests/common/ota\aws_test_ota_pal.c ****         memcpy( xOtaFile.pxSignature->ucData, ucInvalidSignature, ucInvalidSignatureLength );
 1808              		.loc 1 850 0
 1809 008c 4620A0E3 		mov	r2, #70
 851:D:/Work/DeviceTester/amazon-freertos/tests/common/ota\aws_test_ota_pal.c ****         xOtaFile.pucCertFilepath = ( uint8_t * ) otatestpalCERTIFICATE_FILE;
 1810              		.loc 1 851 0
 1811 0090 74109FE5 		ldr	r1, .L123+16
 1812 0094 0E008DE2 		add	r0, sp, #14
 849:D:/Work/DeviceTester/amazon-freertos/tests/common/ota\aws_test_ota_pal.c ****         xOtaFile.pxSignature->usSize = ucInvalidSignatureLength;
 1813              		.loc 1 849 0
 1814 0098 283084E5 		str	r3, [r4, #40]
 850:D:/Work/DeviceTester/amazon-freertos/tests/common/ota\aws_test_ota_pal.c ****         memcpy( xOtaFile.pxSignature->ucData, ucInvalidSignature, ucInvalidSignatureLength );
 1815              		.loc 1 850 0
 1816 009c BC20CDE1 		strh	r2, [sp, #12]	@ movhi
 851:D:/Work/DeviceTester/amazon-freertos/tests/common/ota\aws_test_ota_pal.c ****         xOtaFile.pucCertFilepath = ( uint8_t * ) otatestpalCERTIFICATE_FILE;
 1817              		.loc 1 851 0
 1818 00a0 FEFFFFEB 		bl	memcpy
 1819              	.LVL180:
 852:D:/Work/DeviceTester/amazon-freertos/tests/common/ota\aws_test_ota_pal.c **** 
 1820              		.loc 1 852 0
 1821 00a4 64309FE5 		ldr	r3, .L123+20
 854:D:/Work/DeviceTester/amazon-freertos/tests/common/ota\aws_test_ota_pal.c **** 
 1822              		.loc 1 854 0
 1823 00a8 0400A0E1 		mov	r0, r4
 852:D:/Work/DeviceTester/amazon-freertos/tests/common/ota\aws_test_ota_pal.c **** 
 1824              		.loc 1 852 0
 1825 00ac 303084E5 		str	r3, [r4, #48]
 854:D:/Work/DeviceTester/amazon-freertos/tests/common/ota\aws_test_ota_pal.c **** 
 1826              		.loc 1 854 0
 1827 00b0 FEFFFFEB 		bl	prvPAL_CloseFile
 1828              	.LVL181:
 856:D:/Work/DeviceTester/amazon-freertos/tests/common/ota\aws_test_ota_pal.c ****             ( kOTA_Err_SignatureCheckFailed != ( xOtaStatus & ~kOTA_PAL_ErrMask ) ) &&
 1829              		.loc 1 856 0
 1830 00b4 FF3400E2 		and	r3, r0, #-16777216
 1831 00b8 EF0400E2 		and	r0, r0, #-285212672
 1832              	.LVL182:
 857:D:/Work/DeviceTester/amazon-freertos/tests/common/ota\aws_test_ota_pal.c ****             ( kOTA_Err_FileClose != ( xOtaStatus & ~kOTA_PAL_ErrMask ) ) )
 1833              		.loc 1 857 0
 1834 00bc 020453E3 		cmp	r3, #33554432
 1835 00c0 01045013 		cmpne	r0, #16777216
 1836 00c4 0800001A 		bne	.L117
 1837              	.L119:
 864:D:/Work/DeviceTester/amazon-freertos/tests/common/ota\aws_test_ota_pal.c ****         TEST_ASSERT( ( eOTA_PAL_ImageState_Invalid == ePalImageState ) || ( eOTA_PAL_ImageState_Unk
 1838              		.loc 1 864 0
 1839 00c8 FEFFFFEB 		bl	prvPAL_GetPlatformImageState
 1840              	.LVL183:
 865:D:/Work/DeviceTester/amazon-freertos/tests/common/ota\aws_test_ota_pal.c ****     }
 1841              		.loc 1 865 0
 1842 00cc 000050E3 		cmp	r0, #0
 1843 00d0 03005013 		cmpne	r0, #3
 1844 00d4 0200000A 		beq	.L115
 865:D:/Work/DeviceTester/amazon-freertos/tests/common/ota\aws_test_ota_pal.c ****     }
 1845              		.loc 1 865 0 is_stmt 0 discriminator 1
 1846 00d8 611300E3 		movw	r1, #865
 1847 00dc 30009FE5 		ldr	r0, .L123+24
 1848              	.LVL184:
 1849 00e0 FEFFFFEB 		bl	UnityFail
 1850              	.LVL185:
 1851              	.L115:
 867:D:/Work/DeviceTester/amazon-freertos/tests/common/ota\aws_test_ota_pal.c **** 
 1852              		.loc 1 867 0 is_stmt 1
 1853 00e4 45DF8DE2 		add	sp, sp, #276
 1854              		.cfi_remember_state
 1855              		.cfi_def_cfa_offset 12
 1856              		@ sp needed
 1857 00e8 3080BDE8 		pop	{r4, r5, pc}
 1858              	.LVL186:
 1859              	.L117:
 1860              		.cfi_restore_state
 860:D:/Work/DeviceTester/amazon-freertos/tests/common/ota\aws_test_ota_pal.c ****         }
 1861              		.loc 1 860 0 discriminator 1
 1862 00ec D71FA0E3 		mov	r1, #860
 1863 00f0 20009FE5 		ldr	r0, .L123+28
 1864 00f4 FEFFFFEB 		bl	UnityFail
 1865              	.LVL187:
 1866 00f8 F2FFFFEA 		b	.L119
 1867              	.L124:
 1868              		.align	2
 1869              	.L123:
 1870 00fc 00000000 		.word	.LC1
 1871 0100 00000000 		.word	.LANCHOR0
 1872 0104 28000000 		.word	Unity+40
 1873 0108 00000000 		.word	.LANCHOR1
 1874 010c 00000000 		.word	.LANCHOR3
 1875 0110 1A000000 		.word	.LC4
 1876 0114 00000000 		.word	.LC7
 1877 0118 00000000 		.word	.LC5
 1878              		.cfi_endproc
 1879              	.LFE44:
 1881              		.section	.text.TEST_Full_OTA_PAL_prvPAL_ReadAndAssumeCertificate_NonexistentFile_,"ax",%progbits
 1882              		.align	2
 1883              		.global	TEST_Full_OTA_PAL_prvPAL_ReadAndAssumeCertificate_NonexistentFile_
 1884              		.syntax unified
 1885              		.arm
 1886              		.fpu neon
 1888              	TEST_Full_OTA_PAL_prvPAL_ReadAndAssumeCertificate_NonexistentFile_:
 1889              	.LFB48:
 901:D:/Work/DeviceTester/amazon-freertos/tests/common/ota\aws_test_ota_pal.c ****         uint8_t * pucSignerCert = NULL;
 1890              		.loc 1 901 0
 1891              		.cfi_startproc
 1892              		@ args = 0, pretend = 0, frame = 8
 1893              		@ frame_needed = 0, uses_anonymous_args = 0
 1894              	.LVL188:
 1895 0000 1F402DE9 		push	{r0, r1, r2, r3, r4, lr}
 1896              		.cfi_def_cfa_offset 24
 1897              		.cfi_offset 14, -4
 904:D:/Work/DeviceTester/amazon-freertos/tests/common/ota\aws_test_ota_pal.c **** 
 1898              		.loc 1 904 0
 1899 0004 0030A0E3 		mov	r3, #0
 1900 0008 10108DE2 		add	r1, sp, #16
 906:D:/Work/DeviceTester/amazon-freertos/tests/common/ota\aws_test_ota_pal.c **** 
 1901              		.loc 1 906 0
 1902 000c 3C009FE5 		ldr	r0, .L131
 904:D:/Work/DeviceTester/amazon-freertos/tests/common/ota\aws_test_ota_pal.c **** 
 1903              		.loc 1 904 0
 1904 0010 043021E5 		str	r3, [r1, #-4]!
 906:D:/Work/DeviceTester/amazon-freertos/tests/common/ota\aws_test_ota_pal.c **** 
 1905              		.loc 1 906 0
 1906 0014 FEFFFFEB 		bl	test_prvPAL_ReadAndAssumeCertificate
 1907              	.LVL189:
 909:D:/Work/DeviceTester/amazon-freertos/tests/common/ota\aws_test_ota_pal.c ****         /* Verify the signer certificate size is zero. */
 1908              		.loc 1 909 0
 1909 0018 000050E3 		cmp	r0, #0
 1910 001c 0200000A 		beq	.L126
 909:D:/Work/DeviceTester/amazon-freertos/tests/common/ota\aws_test_ota_pal.c ****         /* Verify the signer certificate size is zero. */
 1911              		.loc 1 909 0 is_stmt 0 discriminator 1
 1912 0020 8D1300E3 		movw	r1, #909
 1913 0024 28009FE5 		ldr	r0, .L131+4
 1914              	.LVL190:
 1915 0028 FEFFFFEB 		bl	UnityFail
 1916              	.LVL191:
 1917              	.L126:
 911:D:/Work/DeviceTester/amazon-freertos/tests/common/ota\aws_test_ota_pal.c ****     }
 1918              		.loc 1 911 0 is_stmt 1
 1919 002c 0020A0E3 		mov	r2, #0
 1920 0030 1430A0E3 		mov	r3, #20
 1921 0034 00308DE5 		str	r3, [sp]
 1922 0038 0200A0E1 		mov	r0, r2
 1923 003c 8F3300E3 		movw	r3, #911
 1924 0040 0C109DE5 		ldr	r1, [sp, #12]
 1925 0044 FEFFFFEB 		bl	UnityAssertEqualNumber
 1926              	.LVL192:
 912:D:/Work/DeviceTester/amazon-freertos/tests/common/ota\aws_test_ota_pal.c **** #endif /* if ( otatestpalREAD_AND_ASSUME_CERTIFICATE_SUPPORTED == 1 ) */
 1927              		.loc 1 912 0
 1928 0048 14D08DE2 		add	sp, sp, #20
 1929              		.cfi_def_cfa_offset 4
 1930              		@ sp needed
 1931 004c 04F09DE4 		ldr	pc, [sp], #4
 1932              	.L132:
 1933              		.align	2
 1934              	.L131:
 1935 0050 00000000 		.word	.LC8
 1936 0054 16000000 		.word	.LC9
 1937              		.cfi_endproc
 1938              	.LFE48:
 1940              		.section	.text.TEST_Full_OTA_PAL_prvPAL_ReadAndAssumeCertificate_ExistingFile_,"ax",%progbits
 1941              		.align	2
 1942              		.global	TEST_Full_OTA_PAL_prvPAL_ReadAndAssumeCertificate_ExistingFile_
 1943              		.syntax unified
 1944              		.arm
 1945              		.fpu neon
 1947              	TEST_Full_OTA_PAL_prvPAL_ReadAndAssumeCertificate_ExistingFile_:
 1948              	.LFB46:
 877:D:/Work/DeviceTester/amazon-freertos/tests/common/ota\aws_test_ota_pal.c ****         uint8_t * pucSignerCert = NULL;
 1949              		.loc 1 877 0
 1950              		.cfi_startproc
 1951              		@ args = 0, pretend = 0, frame = 8
 1952              		@ frame_needed = 0, uses_anonymous_args = 0
 1953              	.LVL193:
 1954 0000 1F402DE9 		push	{r0, r1, r2, r3, r4, lr}
 1955              		.cfi_def_cfa_offset 24
 1956              		.cfi_offset 4, -8
 1957              		.cfi_offset 14, -4
 880:D:/Work/DeviceTester/amazon-freertos/tests/common/ota\aws_test_ota_pal.c **** 
 1958              		.loc 1 880 0
 1959 0004 0030A0E3 		mov	r3, #0
 1960 0008 10108DE2 		add	r1, sp, #16
 882:D:/Work/DeviceTester/amazon-freertos/tests/common/ota\aws_test_ota_pal.c **** 
 1961              		.loc 1 882 0
 1962 000c 44009FE5 		ldr	r0, .L136
 880:D:/Work/DeviceTester/amazon-freertos/tests/common/ota\aws_test_ota_pal.c **** 
 1963              		.loc 1 880 0
 1964 0010 043021E5 		str	r3, [r1, #-4]!
 882:D:/Work/DeviceTester/amazon-freertos/tests/common/ota\aws_test_ota_pal.c **** 
 1965              		.loc 1 882 0
 1966 0014 FEFFFFEB 		bl	test_prvPAL_ReadAndAssumeCertificate
 1967              	.LVL194:
 885:D:/Work/DeviceTester/amazon-freertos/tests/common/ota\aws_test_ota_pal.c **** 
 1968              		.loc 1 885 0
 1969 0018 004050E2 		subs	r4, r0, #0
 1970 001c 0200001A 		bne	.L134
 885:D:/Work/DeviceTester/amazon-freertos/tests/common/ota\aws_test_ota_pal.c **** 
 1971              		.loc 1 885 0 is_stmt 0 discriminator 1
 1972 0020 751300E3 		movw	r1, #885
 1973 0024 30009FE5 		ldr	r0, .L136+4
 1974              	.LVL195:
 1975 0028 FEFFFFEB 		bl	UnityFail
 1976              	.LVL196:
 1977              	.L134:
 889:D:/Work/DeviceTester/amazon-freertos/tests/common/ota\aws_test_ota_pal.c **** 
 1978              		.loc 1 889 0 is_stmt 1
 1979 002c 0020A0E3 		mov	r2, #0
 1980 0030 1430A0E3 		mov	r3, #20
 1981 0034 0200A0E1 		mov	r0, r2
 1982 0038 00308DE5 		str	r3, [sp]
 1983 003c 0C109DE5 		ldr	r1, [sp, #12]
 1984 0040 793300E3 		movw	r3, #889
 1985 0044 FEFFFFEB 		bl	UnityAssertGreaterNumber
 1986              	.LVL197:
 892:D:/Work/DeviceTester/amazon-freertos/tests/common/ota\aws_test_ota_pal.c ****     }
 1987              		.loc 1 892 0
 1988 0048 0400A0E1 		mov	r0, r4
 1989 004c FEFFFFEB 		bl	vPortFree
 1990              	.LVL198:
 893:D:/Work/DeviceTester/amazon-freertos/tests/common/ota\aws_test_ota_pal.c **** 
 1991              		.loc 1 893 0
 1992 0050 10D08DE2 		add	sp, sp, #16
 1993              		.cfi_def_cfa_offset 8
 1994              		@ sp needed
 1995 0054 1080BDE8 		pop	{r4, pc}
 1996              	.LVL199:
 1997              	.L137:
 1998              		.align	2
 1999              	.L136:
 2000 0058 1A000000 		.word	.LC4
 2001 005c 16000000 		.word	.LC9
 2002              		.cfi_endproc
 2003              	.LFE46:
 2005              		.section	.text.TEST_Full_OTA_PAL_prvPAL_CheckFileSignature_ValidSignature_,"ax",%progbits
 2006              		.align	2
 2007              		.global	TEST_Full_OTA_PAL_prvPAL_CheckFileSignature_ValidSignature_
 2008              		.syntax unified
 2009              		.arm
 2010              		.fpu neon
 2012              	TEST_Full_OTA_PAL_prvPAL_CheckFileSignature_ValidSignature_:
 2013              	.LFB50:
 922:D:/Work/DeviceTester/amazon-freertos/tests/common/ota\aws_test_ota_pal.c ****         OTA_Err_t xOtaStatus;
 2014              		.loc 1 922 0
 2015              		.cfi_startproc
 2016              		@ args = 0, pretend = 0, frame = 264
 2017              		@ frame_needed = 0, uses_anonymous_args = 0
 2018 0000 70402DE9 		push	{r4, r5, r6, lr}
 2019              		.cfi_def_cfa_offset 16
 2020              		.cfi_offset 4, -16
 2021              		.cfi_offset 5, -12
 2022              		.cfi_offset 6, -8
 2023              		.cfi_offset 14, -4
 2024 0004 11DE4DE2 		sub	sp, sp, #272
 2025              		.cfi_def_cfa_offset 288
 924:D:/Work/DeviceTester/amazon-freertos/tests/common/ota\aws_test_ota_pal.c **** 
 2026              		.loc 1 924 0
 2027 0008 022100E3 		movw	r2, #258
 2028 000c 0010A0E3 		mov	r1, #0
 2029 0010 0C008DE2 		add	r0, sp, #12
 2030 0014 FEFFFFEB 		bl	memset
 2031              	.LVL200:
 927:D:/Work/DeviceTester/amazon-freertos/tests/common/ota\aws_test_ota_pal.c ****         xOtaStatus = prvPAL_CreateFileForRx( &xOtaFile );
 2032              		.loc 1 927 0
 2033 0018 B4309FE5 		ldr	r3, .L142
 2034 001c B4009FE5 		ldr	r0, .L142+4
 2035 0020 003080E5 		str	r3, [r0]
 928:D:/Work/DeviceTester/amazon-freertos/tests/common/ota\aws_test_ota_pal.c ****         TEST_ASSERT_EQUAL( kOTA_Err_None, xOtaStatus );
 2036              		.loc 1 928 0
 2037 0024 FEFFFFEB 		bl	prvPAL_CreateFileForRx
 2038              	.LVL201:
 929:D:/Work/DeviceTester/amazon-freertos/tests/common/ota\aws_test_ota_pal.c **** 
 2039              		.loc 1 929 0
 2040 0028 0020A0E3 		mov	r2, #0
 2041 002c 1430A0E3 		mov	r3, #20
 2042 0030 00308DE5 		str	r3, [sp]
 2043 0034 0010A0E1 		mov	r1, r0
 2044 0038 A13300E3 		movw	r3, #929
 2045 003c 0200A0E1 		mov	r0, r2
 2046              	.LVL202:
 2047 0040 FEFFFFEB 		bl	UnityAssertEqualNumber
 2048              	.LVL203:
 932:D:/Work/DeviceTester/amazon-freertos/tests/common/ota\aws_test_ota_pal.c ****         {
 2049              		.loc 1 932 0
 2050 0044 90009FE5 		ldr	r0, .L142+8
 2051 0048 FEFFFFEB 		bl	setjmp
 2052              	.LVL204:
 2053 004c 005050E2 		subs	r5, r0, #0
 2054 0050 1D00001A 		bne	.L138
 935:D:/Work/DeviceTester/amazon-freertos/tests/common/ota\aws_test_ota_pal.c ****                                             0,
 2055              		.loc 1 935 0
 2056 0054 7C409FE5 		ldr	r4, .L142+4
 2057 0058 5430A0E3 		mov	r3, #84
 2058 005c 7C209FE5 		ldr	r2, .L142+12
 2059 0060 0510A0E1 		mov	r1, r5
 939:D:/Work/DeviceTester/amazon-freertos/tests/common/ota\aws_test_ota_pal.c **** 
 2060              		.loc 1 939 0
 2061 0064 1460A0E3 		mov	r6, #20
 935:D:/Work/DeviceTester/amazon-freertos/tests/common/ota\aws_test_ota_pal.c ****                                             0,
 2062              		.loc 1 935 0
 2063 0068 0400A0E1 		mov	r0, r4
 2064 006c FEFFFFEB 		bl	prvPAL_WriteBlock
 2065              	.LVL205:
 939:D:/Work/DeviceTester/amazon-freertos/tests/common/ota\aws_test_ota_pal.c **** 
 2066              		.loc 1 939 0
 2067 0070 AB3300E3 		movw	r3, #939
 2068 0074 0010A0E1 		mov	r1, r0
 2069 0078 0520A0E1 		mov	r2, r5
 2070 007c 5400A0E3 		mov	r0, #84
 2071              	.LVL206:
 2072 0080 00608DE5 		str	r6, [sp]
 2073 0084 FEFFFFEB 		bl	UnityAssertEqualNumber
 2074              	.LVL207:
 942:D:/Work/DeviceTester/amazon-freertos/tests/common/ota\aws_test_ota_pal.c ****             memcpy( xOtaFile.pxSignature->ucData, ucValidSignature, ucValidSignatureLength );
 2075              		.loc 1 942 0
 2076 0088 4620A0E3 		mov	r2, #70
 941:D:/Work/DeviceTester/amazon-freertos/tests/common/ota\aws_test_ota_pal.c ****             xOtaFile.pxSignature->usSize = ucValidSignatureLength;
 2077              		.loc 1 941 0
 2078 008c 0C308DE2 		add	r3, sp, #12
 943:D:/Work/DeviceTester/amazon-freertos/tests/common/ota\aws_test_ota_pal.c ****             xOtaFile.pucCertFilepath = ( uint8_t * ) otatestpalCERTIFICATE_FILE;
 2079              		.loc 1 943 0
 2080 0090 4C109FE5 		ldr	r1, .L142+16
 2081 0094 0E008DE2 		add	r0, sp, #14
 942:D:/Work/DeviceTester/amazon-freertos/tests/common/ota\aws_test_ota_pal.c ****             memcpy( xOtaFile.pxSignature->ucData, ucValidSignature, ucValidSignatureLength );
 2082              		.loc 1 942 0
 2083 0098 BC20CDE1 		strh	r2, [sp, #12]	@ movhi
 941:D:/Work/DeviceTester/amazon-freertos/tests/common/ota\aws_test_ota_pal.c ****             xOtaFile.pxSignature->usSize = ucValidSignatureLength;
 2084              		.loc 1 941 0
 2085 009c 283084E5 		str	r3, [r4, #40]
 943:D:/Work/DeviceTester/amazon-freertos/tests/common/ota\aws_test_ota_pal.c ****             xOtaFile.pucCertFilepath = ( uint8_t * ) otatestpalCERTIFICATE_FILE;
 2086              		.loc 1 943 0
 2087 00a0 FEFFFFEB 		bl	memcpy
 2088              	.LVL208:
 944:D:/Work/DeviceTester/amazon-freertos/tests/common/ota\aws_test_ota_pal.c **** 
 2089              		.loc 1 944 0
 2090 00a4 3C309FE5 		ldr	r3, .L142+20
 946:D:/Work/DeviceTester/amazon-freertos/tests/common/ota\aws_test_ota_pal.c ****             TEST_ASSERT_EQUAL_INT( kOTA_Err_None, xOtaStatus );
 2091              		.loc 1 946 0
 2092 00a8 0400A0E1 		mov	r0, r4
 944:D:/Work/DeviceTester/amazon-freertos/tests/common/ota\aws_test_ota_pal.c **** 
 2093              		.loc 1 944 0
 2094 00ac 303084E5 		str	r3, [r4, #48]
 946:D:/Work/DeviceTester/amazon-freertos/tests/common/ota\aws_test_ota_pal.c ****             TEST_ASSERT_EQUAL_INT( kOTA_Err_None, xOtaStatus );
 2095              		.loc 1 946 0
 2096 00b0 FEFFFFEB 		bl	test_prvPAL_CheckFileSignature
 2097              	.LVL209:
 947:D:/Work/DeviceTester/amazon-freertos/tests/common/ota\aws_test_ota_pal.c ****         }
 2098              		.loc 1 947 0
 2099 00b4 00608DE5 		str	r6, [sp]
 2100 00b8 0010A0E1 		mov	r1, r0
 2101 00bc B33300E3 		movw	r3, #947
 2102 00c0 0520A0E1 		mov	r2, r5
 2103 00c4 0500A0E1 		mov	r0, r5
 2104              	.LVL210:
 2105 00c8 FEFFFFEB 		bl	UnityAssertEqualNumber
 2106              	.LVL211:
 2107              	.L138:
 949:D:/Work/DeviceTester/amazon-freertos/tests/common/ota\aws_test_ota_pal.c **** 
 2108              		.loc 1 949 0
 2109 00cc 11DE8DE2 		add	sp, sp, #272
 2110              		.cfi_def_cfa_offset 16
 2111              		@ sp needed
 2112 00d0 7080BDE8 		pop	{r4, r5, r6, pc}
 2113              	.L143:
 2114              		.align	2
 2115              	.L142:
 2116 00d4 00000000 		.word	.LC1
 2117 00d8 00000000 		.word	.LANCHOR0
 2118 00dc 28000000 		.word	Unity+40
 2119 00e0 00000000 		.word	.LANCHOR1
 2120 00e4 00000000 		.word	.LANCHOR2
 2121 00e8 1A000000 		.word	.LC4
 2122              		.cfi_endproc
 2123              	.LFE50:
 2125              		.section	.text.TEST_Full_OTA_PAL_prvPAL_CheckFileSignature_InvalidSignatureBlockWritten_,"ax",%pro
 2126              		.align	2
 2127              		.global	TEST_Full_OTA_PAL_prvPAL_CheckFileSignature_InvalidSignatureBlockWritten_
 2128              		.syntax unified
 2129              		.arm
 2130              		.fpu neon
 2132              	TEST_Full_OTA_PAL_prvPAL_CheckFileSignature_InvalidSignatureBlockWritten_:
 2133              	.LFB52:
 956:D:/Work/DeviceTester/amazon-freertos/tests/common/ota\aws_test_ota_pal.c ****         OTA_Err_t xOtaStatus;
 2134              		.loc 1 956 0
 2135              		.cfi_startproc
 2136              		@ args = 0, pretend = 0, frame = 264
 2137              		@ frame_needed = 0, uses_anonymous_args = 0
 2138 0000 30402DE9 		push	{r4, r5, lr}
 2139              		.cfi_def_cfa_offset 12
 2140              		.cfi_offset 4, -12
 2141              		.cfi_offset 5, -8
 2142              		.cfi_offset 14, -4
 2143 0004 45DF4DE2 		sub	sp, sp, #276
 2144              		.cfi_def_cfa_offset 288
 958:D:/Work/DeviceTester/amazon-freertos/tests/common/ota\aws_test_ota_pal.c **** 
 2145              		.loc 1 958 0
 2146 0008 022100E3 		movw	r2, #258
 2147 000c 0010A0E3 		mov	r1, #0
 2148 0010 0C008DE2 		add	r0, sp, #12
 2149 0014 FEFFFFEB 		bl	memset
 2150              	.LVL212:
 961:D:/Work/DeviceTester/amazon-freertos/tests/common/ota\aws_test_ota_pal.c ****         xOtaStatus = prvPAL_CreateFileForRx( &xOtaFile );
 2151              		.loc 1 961 0
 2152 0018 B8309FE5 		ldr	r3, .L148
 2153 001c B8009FE5 		ldr	r0, .L148+4
 2154 0020 003080E5 		str	r3, [r0]
 962:D:/Work/DeviceTester/amazon-freertos/tests/common/ota\aws_test_ota_pal.c ****         TEST_ASSERT_EQUAL( kOTA_Err_None, xOtaStatus );
 2155              		.loc 1 962 0
 2156 0024 FEFFFFEB 		bl	prvPAL_CreateFileForRx
 2157              	.LVL213:
 963:D:/Work/DeviceTester/amazon-freertos/tests/common/ota\aws_test_ota_pal.c **** 
 2158              		.loc 1 963 0
 2159 0028 0020A0E3 		mov	r2, #0
 2160 002c 1430A0E3 		mov	r3, #20
 2161 0030 00308DE5 		str	r3, [sp]
 2162 0034 0010A0E1 		mov	r1, r0
 2163 0038 C33300E3 		movw	r3, #963
 2164 003c 0200A0E1 		mov	r0, r2
 2165              	.LVL214:
 2166 0040 FEFFFFEB 		bl	UnityAssertEqualNumber
 2167              	.LVL215:
 966:D:/Work/DeviceTester/amazon-freertos/tests/common/ota\aws_test_ota_pal.c ****         {
 2168              		.loc 1 966 0
 2169 0044 94009FE5 		ldr	r0, .L148+8
 2170 0048 FEFFFFEB 		bl	setjmp
 2171              	.LVL216:
 2172 004c 005050E2 		subs	r5, r0, #0
 2173 0050 1E00001A 		bne	.L144
 969:D:/Work/DeviceTester/amazon-freertos/tests/common/ota\aws_test_ota_pal.c ****                                             0,
 2174              		.loc 1 969 0
 2175 0054 80409FE5 		ldr	r4, .L148+4
 2176 0058 5430A0E3 		mov	r3, #84
 2177 005c 80209FE5 		ldr	r2, .L148+12
 2178 0060 0510A0E1 		mov	r1, r5
 2179 0064 0400A0E1 		mov	r0, r4
 2180 0068 FEFFFFEB 		bl	prvPAL_WriteBlock
 2181              	.LVL217:
 973:D:/Work/DeviceTester/amazon-freertos/tests/common/ota\aws_test_ota_pal.c **** 
 2182              		.loc 1 973 0
 2183 006c 1430A0E3 		mov	r3, #20
 2184 0070 0010A0E1 		mov	r1, r0
 2185 0074 00308DE5 		str	r3, [sp]
 2186 0078 0520A0E1 		mov	r2, r5
 2187 007c CD3300E3 		movw	r3, #973
 2188 0080 5400A0E3 		mov	r0, #84
 2189              	.LVL218:
 2190 0084 FEFFFFEB 		bl	UnityAssertEqualNumber
 2191              	.LVL219:
 976:D:/Work/DeviceTester/amazon-freertos/tests/common/ota\aws_test_ota_pal.c ****             xOtaFile.pxSignature->usSize = ucInvalidSignatureLength;
 2192              		.loc 1 976 0
 2193 0088 0C308DE2 		add	r3, sp, #12
 977:D:/Work/DeviceTester/amazon-freertos/tests/common/ota\aws_test_ota_pal.c ****             memcpy( xOtaFile.pxSignature->ucData, ucInvalidSignature, ucInvalidSignatureLength );
 2194              		.loc 1 977 0
 2195 008c 4620A0E3 		mov	r2, #70
 978:D:/Work/DeviceTester/amazon-freertos/tests/common/ota\aws_test_ota_pal.c ****             xOtaFile.pucCertFilepath = ( uint8_t * ) otatestpalCERTIFICATE_FILE;
 2196              		.loc 1 978 0
 2197 0090 50109FE5 		ldr	r1, .L148+16
 2198 0094 0E008DE2 		add	r0, sp, #14
 976:D:/Work/DeviceTester/amazon-freertos/tests/common/ota\aws_test_ota_pal.c ****             xOtaFile.pxSignature->usSize = ucInvalidSignatureLength;
 2199              		.loc 1 976 0
 2200 0098 283084E5 		str	r3, [r4, #40]
 977:D:/Work/DeviceTester/amazon-freertos/tests/common/ota\aws_test_ota_pal.c ****             memcpy( xOtaFile.pxSignature->ucData, ucInvalidSignature, ucInvalidSignatureLength );
 2201              		.loc 1 977 0
 2202 009c BC20CDE1 		strh	r2, [sp, #12]	@ movhi
 978:D:/Work/DeviceTester/amazon-freertos/tests/common/ota\aws_test_ota_pal.c ****             xOtaFile.pucCertFilepath = ( uint8_t * ) otatestpalCERTIFICATE_FILE;
 2203              		.loc 1 978 0
 2204 00a0 FEFFFFEB 		bl	memcpy
 2205              	.LVL220:
 979:D:/Work/DeviceTester/amazon-freertos/tests/common/ota\aws_test_ota_pal.c **** 
 2206              		.loc 1 979 0
 2207 00a4 40309FE5 		ldr	r3, .L148+20
 982:D:/Work/DeviceTester/amazon-freertos/tests/common/ota\aws_test_ota_pal.c **** 
 2208              		.loc 1 982 0
 2209 00a8 0400A0E1 		mov	r0, r4
 979:D:/Work/DeviceTester/amazon-freertos/tests/common/ota\aws_test_ota_pal.c **** 
 2210              		.loc 1 979 0
 2211 00ac 303084E5 		str	r3, [r4, #48]
 982:D:/Work/DeviceTester/amazon-freertos/tests/common/ota\aws_test_ota_pal.c **** 
 2212              		.loc 1 982 0
 2213 00b0 FEFFFFEB 		bl	test_prvPAL_CheckFileSignature
 2214              	.LVL221:
 984:D:/Work/DeviceTester/amazon-freertos/tests/common/ota\aws_test_ota_pal.c ****                 ( kOTA_Err_SignatureCheckFailed != ( xOtaStatus & ~kOTA_PAL_ErrMask ) ) )
 2215              		.loc 1 984 0
 2216 00b4 FF0400E2 		and	r0, r0, #-16777216
 2217              	.LVL222:
 2218 00b8 FF0480E2 		add	r0, r0, #-16777216
 2219 00bc FE0410E3 		tst	r0, #-33554432
 2220 00c0 0200000A 		beq	.L144
 987:D:/Work/DeviceTester/amazon-freertos/tests/common/ota\aws_test_ota_pal.c ****             }
 2221              		.loc 1 987 0 discriminator 1
 2222 00c4 DB1300E3 		movw	r1, #987
 2223 00c8 20009FE5 		ldr	r0, .L148+24
 2224 00cc FEFFFFEB 		bl	UnityFail
 2225              	.LVL223:
 2226              	.L144:
 990:D:/Work/DeviceTester/amazon-freertos/tests/common/ota\aws_test_ota_pal.c **** 
 2227              		.loc 1 990 0
 2228 00d0 45DF8DE2 		add	sp, sp, #276
 2229              		.cfi_def_cfa_offset 12
 2230              		@ sp needed
 2231 00d4 3080BDE8 		pop	{r4, r5, pc}
 2232              	.L149:
 2233              		.align	2
 2234              	.L148:
 2235 00d8 00000000 		.word	.LC1
 2236 00dc 00000000 		.word	.LANCHOR0
 2237 00e0 28000000 		.word	Unity+40
 2238 00e4 00000000 		.word	.LANCHOR1
 2239 00e8 00000000 		.word	.LANCHOR3
 2240 00ec 1A000000 		.word	.LC4
 2241 00f0 00000000 		.word	.LC5
 2242              		.cfi_endproc
 2243              	.LFE52:
 2245              		.section	.text.TEST_Full_OTA_PAL_prvPAL_CheckFileSignature_NonexistingCodeSignerCertificate_,"ax",
 2246              		.align	2
 2247              		.global	TEST_Full_OTA_PAL_prvPAL_CheckFileSignature_NonexistingCodeSignerCertificate_
 2248              		.syntax unified
 2249              		.arm
 2250              		.fpu neon
 2252              	TEST_Full_OTA_PAL_prvPAL_CheckFileSignature_NonexistingCodeSignerCertificate_:
 2253              	.LFB56:
1021:D:/Work/DeviceTester/amazon-freertos/tests/common/ota\aws_test_ota_pal.c **** 
1022:D:/Work/DeviceTester/amazon-freertos/tests/common/ota\aws_test_ota_pal.c ****     TEST( Full_OTA_PAL, prvPAL_CheckFileSignature_NonexistingCodeSignerCertificate )
1023:D:/Work/DeviceTester/amazon-freertos/tests/common/ota\aws_test_ota_pal.c ****     {
 2254              		.loc 1 1023 0
 2255              		.cfi_startproc
 2256              		@ args = 0, pretend = 0, frame = 264
 2257              		@ frame_needed = 0, uses_anonymous_args = 0
 2258 0000 30402DE9 		push	{r4, r5, lr}
 2259              		.cfi_def_cfa_offset 12
 2260              		.cfi_offset 4, -12
 2261              		.cfi_offset 5, -8
 2262              		.cfi_offset 14, -4
 2263 0004 45DF4DE2 		sub	sp, sp, #276
 2264              		.cfi_def_cfa_offset 288
1024:D:/Work/DeviceTester/amazon-freertos/tests/common/ota\aws_test_ota_pal.c ****         OTA_Err_t xOtaStatus;
1025:D:/Work/DeviceTester/amazon-freertos/tests/common/ota\aws_test_ota_pal.c ****         Sig256_t xSig = { 0 };
 2265              		.loc 1 1025 0
 2266 0008 022100E3 		movw	r2, #258
 2267 000c 0010A0E3 		mov	r1, #0
 2268 0010 0C008DE2 		add	r0, sp, #12
 2269 0014 FEFFFFEB 		bl	memset
 2270              	.LVL224:
1026:D:/Work/DeviceTester/amazon-freertos/tests/common/ota\aws_test_ota_pal.c **** 
1027:D:/Work/DeviceTester/amazon-freertos/tests/common/ota\aws_test_ota_pal.c ****         /* Create a local file using the PAL. */
1028:D:/Work/DeviceTester/amazon-freertos/tests/common/ota\aws_test_ota_pal.c ****         xOtaFile.pucFilePath = ( uint8_t * ) otatestpalFIRMWARE_FILE;
 2271              		.loc 1 1028 0
 2272 0018 B8309FE5 		ldr	r3, .L154
 2273 001c B8009FE5 		ldr	r0, .L154+4
 2274 0020 003080E5 		str	r3, [r0]
1029:D:/Work/DeviceTester/amazon-freertos/tests/common/ota\aws_test_ota_pal.c ****         xOtaStatus = prvPAL_CreateFileForRx( &xOtaFile );
 2275              		.loc 1 1029 0
 2276 0024 FEFFFFEB 		bl	prvPAL_CreateFileForRx
 2277              	.LVL225:
1030:D:/Work/DeviceTester/amazon-freertos/tests/common/ota\aws_test_ota_pal.c ****         TEST_ASSERT_EQUAL( kOTA_Err_None, xOtaStatus );
 2278              		.loc 1 1030 0
 2279 0028 0020A0E3 		mov	r2, #0
 2280 002c 1430A0E3 		mov	r3, #20
 2281 0030 00308DE5 		str	r3, [sp]
 2282 0034 0010A0E1 		mov	r1, r0
 2283 0038 063400E3 		movw	r3, #1030
 2284 003c 0200A0E1 		mov	r0, r2
 2285              	.LVL226:
 2286 0040 FEFFFFEB 		bl	UnityAssertEqualNumber
 2287              	.LVL227:
1031:D:/Work/DeviceTester/amazon-freertos/tests/common/ota\aws_test_ota_pal.c **** 
1032:D:/Work/DeviceTester/amazon-freertos/tests/common/ota\aws_test_ota_pal.c ****         /* We still want to close the file if the test fails. */
1033:D:/Work/DeviceTester/amazon-freertos/tests/common/ota\aws_test_ota_pal.c ****         if( TEST_PROTECT() )
 2288              		.loc 1 1033 0
 2289 0044 94009FE5 		ldr	r0, .L154+8
 2290 0048 FEFFFFEB 		bl	setjmp
 2291              	.LVL228:
 2292 004c 005050E2 		subs	r5, r0, #0
 2293 0050 1E00001A 		bne	.L150
1034:D:/Work/DeviceTester/amazon-freertos/tests/common/ota\aws_test_ota_pal.c ****         {
1035:D:/Work/DeviceTester/amazon-freertos/tests/common/ota\aws_test_ota_pal.c ****             /* Write data to the file. */
1036:D:/Work/DeviceTester/amazon-freertos/tests/common/ota\aws_test_ota_pal.c ****             xOtaStatus = prvPAL_WriteBlock( &xOtaFile,
 2294              		.loc 1 1036 0
 2295 0054 80409FE5 		ldr	r4, .L154+4
 2296 0058 5430A0E3 		mov	r3, #84
 2297 005c 80209FE5 		ldr	r2, .L154+12
 2298 0060 0510A0E1 		mov	r1, r5
 2299 0064 0400A0E1 		mov	r0, r4
 2300 0068 FEFFFFEB 		bl	prvPAL_WriteBlock
 2301              	.LVL229:
1037:D:/Work/DeviceTester/amazon-freertos/tests/common/ota\aws_test_ota_pal.c ****                                             0,
1038:D:/Work/DeviceTester/amazon-freertos/tests/common/ota\aws_test_ota_pal.c ****                                             ucDummyData,
1039:D:/Work/DeviceTester/amazon-freertos/tests/common/ota\aws_test_ota_pal.c ****                                             sizeof( ucDummyData ) );
1040:D:/Work/DeviceTester/amazon-freertos/tests/common/ota\aws_test_ota_pal.c ****             TEST_ASSERT_EQUAL( sizeof( ucDummyData ), xOtaStatus );
 2302              		.loc 1 1040 0
 2303 006c 1430A0E3 		mov	r3, #20
 2304 0070 0010A0E1 		mov	r1, r0
 2305 0074 00308DE5 		str	r3, [sp]
 2306 0078 0520A0E1 		mov	r2, r5
 2307 007c 413EA0E3 		mov	r3, #1040
 2308 0080 5400A0E3 		mov	r0, #84
 2309              	.LVL230:
 2310 0084 FEFFFFEB 		bl	UnityAssertEqualNumber
 2311              	.LVL231:
1041:D:/Work/DeviceTester/amazon-freertos/tests/common/ota\aws_test_ota_pal.c **** 
1042:D:/Work/DeviceTester/amazon-freertos/tests/common/ota\aws_test_ota_pal.c ****             /* Check the signature (not expected to be valid in this case). */
1043:D:/Work/DeviceTester/amazon-freertos/tests/common/ota\aws_test_ota_pal.c ****             xOtaFile.pxSignature = &xSig;
 2312              		.loc 1 1043 0
 2313 0088 0C308DE2 		add	r3, sp, #12
1044:D:/Work/DeviceTester/amazon-freertos/tests/common/ota\aws_test_ota_pal.c ****             xOtaFile.pxSignature->usSize = ucValidSignatureLength;
 2314              		.loc 1 1044 0
 2315 008c 4620A0E3 		mov	r2, #70
1045:D:/Work/DeviceTester/amazon-freertos/tests/common/ota\aws_test_ota_pal.c ****             memcpy( xOtaFile.pxSignature->ucData, ucValidSignature, ucValidSignatureLength );
 2316              		.loc 1 1045 0
 2317 0090 50109FE5 		ldr	r1, .L154+16
 2318 0094 0E008DE2 		add	r0, sp, #14
1043:D:/Work/DeviceTester/amazon-freertos/tests/common/ota\aws_test_ota_pal.c ****             xOtaFile.pxSignature->usSize = ucValidSignatureLength;
 2319              		.loc 1 1043 0
 2320 0098 283084E5 		str	r3, [r4, #40]
1044:D:/Work/DeviceTester/amazon-freertos/tests/common/ota\aws_test_ota_pal.c ****             xOtaFile.pxSignature->usSize = ucValidSignatureLength;
 2321              		.loc 1 1044 0
 2322 009c BC20CDE1 		strh	r2, [sp, #12]	@ movhi
 2323              		.loc 1 1045 0
 2324 00a0 FEFFFFEB 		bl	memcpy
 2325              	.LVL232:
1046:D:/Work/DeviceTester/amazon-freertos/tests/common/ota\aws_test_ota_pal.c ****             xOtaFile.pucCertFilepath = ( uint8_t * ) ( "nonexistingfile.crt" );
 2326              		.loc 1 1046 0
 2327 00a4 40309FE5 		ldr	r3, .L154+20
1047:D:/Work/DeviceTester/amazon-freertos/tests/common/ota\aws_test_ota_pal.c **** 
1048:D:/Work/DeviceTester/amazon-freertos/tests/common/ota\aws_test_ota_pal.c ****             xOtaStatus = test_prvPAL_CheckFileSignature( &xOtaFile );
 2328              		.loc 1 1048 0
 2329 00a8 0400A0E1 		mov	r0, r4
1046:D:/Work/DeviceTester/amazon-freertos/tests/common/ota\aws_test_ota_pal.c ****             xOtaFile.pucCertFilepath = ( uint8_t * ) ( "nonexistingfile.crt" );
 2330              		.loc 1 1046 0
 2331 00ac 303084E5 		str	r3, [r4, #48]
 2332              		.loc 1 1048 0
 2333 00b0 FEFFFFEB 		bl	test_prvPAL_CheckFileSignature
 2334              	.LVL233:
1049:D:/Work/DeviceTester/amazon-freertos/tests/common/ota\aws_test_ota_pal.c **** 
1050:D:/Work/DeviceTester/amazon-freertos/tests/common/ota\aws_test_ota_pal.c ****             if( ( kOTA_Err_BadSignerCert != ( xOtaStatus & ~kOTA_PAL_ErrMask ) ) &&
 2335              		.loc 1 1050 0
 2336 00b4 FF0400E2 		and	r0, r0, #-16777216
 2337              	.LVL234:
 2338 00b8 FF0480E2 		add	r0, r0, #-16777216
 2339 00bc FE0410E3 		tst	r0, #-33554432
 2340 00c0 0200000A 		beq	.L150
1051:D:/Work/DeviceTester/amazon-freertos/tests/common/ota\aws_test_ota_pal.c ****                 ( kOTA_Err_SignatureCheckFailed != ( xOtaStatus & ~kOTA_PAL_ErrMask ) ) )
1052:D:/Work/DeviceTester/amazon-freertos/tests/common/ota\aws_test_ota_pal.c ****             {
1053:D:/Work/DeviceTester/amazon-freertos/tests/common/ota\aws_test_ota_pal.c ****                 TEST_ASSERT_TRUE( 0 );
 2341              		.loc 1 1053 0 discriminator 1
 2342 00c4 1D1400E3 		movw	r1, #1053
 2343 00c8 20009FE5 		ldr	r0, .L154+24
 2344 00cc FEFFFFEB 		bl	UnityFail
 2345              	.LVL235:
 2346              	.L150:
1054:D:/Work/DeviceTester/amazon-freertos/tests/common/ota\aws_test_ota_pal.c ****             }
1055:D:/Work/DeviceTester/amazon-freertos/tests/common/ota\aws_test_ota_pal.c ****         }
1056:D:/Work/DeviceTester/amazon-freertos/tests/common/ota\aws_test_ota_pal.c ****     }
 2347              		.loc 1 1056 0
 2348 00d0 45DF8DE2 		add	sp, sp, #276
 2349              		.cfi_def_cfa_offset 12
 2350              		@ sp needed
 2351 00d4 3080BDE8 		pop	{r4, r5, pc}
 2352              	.L155:
 2353              		.align	2
 2354              	.L154:
 2355 00d8 00000000 		.word	.LC1
 2356 00dc 00000000 		.word	.LANCHOR0
 2357 00e0 28000000 		.word	Unity+40
 2358 00e4 00000000 		.word	.LANCHOR1
 2359 00e8 00000000 		.word	.LANCHOR2
 2360 00ec 00000000 		.word	.LC6
 2361 00f0 00000000 		.word	.LC5
 2362              		.cfi_endproc
 2363              	.LFE56:
 2365              		.section	.text.TEST_Full_OTA_PAL_prvPAL_CloseFile_ValidSignature_run,"ax",%progbits
 2366              		.align	2
 2367              		.global	TEST_Full_OTA_PAL_prvPAL_CloseFile_ValidSignature_run
 2368              		.syntax unified
 2369              		.arm
 2370              		.fpu neon
 2372              	TEST_Full_OTA_PAL_prvPAL_CloseFile_ValidSignature_run:
 2373              	.LFB4:
 213:D:/Work/DeviceTester/amazon-freertos/tests/common/ota\aws_test_ota_pal.c **** {
 2374              		.loc 1 213 0
 2375              		.cfi_startproc
 2376              		@ args = 0, pretend = 0, frame = 0
 2377              		@ frame_needed = 0, uses_anonymous_args = 0
 2378 0000 1F402DE9 		push	{r0, r1, r2, r3, r4, lr}
 2379              		.cfi_def_cfa_offset 24
 2380              		.cfi_offset 14, -4
 213:D:/Work/DeviceTester/amazon-freertos/tests/common/ota\aws_test_ota_pal.c **** {
 2381              		.loc 1 213 0
 2382 0004 D530A0E3 		mov	r3, #213
 2383 0008 0C308DE5 		str	r3, [sp, #12]
 2384 000c 2C309FE5 		ldr	r3, .L158
 2385 0010 2C209FE5 		ldr	r2, .L158+4
 2386 0014 2C109FE5 		ldr	r1, .L158+8
 2387 0018 08308DE5 		str	r3, [sp, #8]
 2388 001c 28309FE5 		ldr	r3, .L158+12
 2389 0020 28009FE5 		ldr	r0, .L158+16
 2390 0024 04308DE5 		str	r3, [sp, #4]
 2391 0028 24309FE5 		ldr	r3, .L158+20
 2392 002c 00308DE5 		str	r3, [sp]
 2393 0030 20309FE5 		ldr	r3, .L158+24
