   1              		.cpu cortex-a9
   2              		.eabi_attribute 28, 1
   3              		.eabi_attribute 20, 1
   4              		.eabi_attribute 21, 1
   5              		.eabi_attribute 23, 3
   6              		.eabi_attribute 24, 1
   7              		.eabi_attribute 25, 1
   8              		.eabi_attribute 26, 1
   9              		.eabi_attribute 30, 4
  10              		.eabi_attribute 34, 0
  11              		.eabi_attribute 18, 4
  12              		.file	"aws_test_ota_pal.c"
  13              		.text
  14              	.Ltext0:
  15              		.cfi_sections	.debug_frame
  16              		.section	.text.TEST_Full_OTA_PAL_SETUP,"ax",%progbits
  17              		.align	2
  18              		.global	TEST_Full_OTA_PAL_SETUP
  19              		.syntax unified
  20              		.arm
  21              		.fpu neon
  23              	TEST_Full_OTA_PAL_SETUP:
  24              	.LFB1:
  25              		.file 1 "D:/Work/DeviceTester/amazon-freertos/tests/common/ota/aws_test_ota_pal.c"
   1:D:/Work/DeviceTester/amazon-freertos/tests/common/ota\aws_test_ota_pal.c **** /*
   2:D:/Work/DeviceTester/amazon-freertos/tests/common/ota\aws_test_ota_pal.c ****  * Amazon FreeRTOS OTA AFQP V1.1.4
   3:D:/Work/DeviceTester/amazon-freertos/tests/common/ota\aws_test_ota_pal.c ****  * Copyright (C) 2017 Amazon.com, Inc. or its affiliates.  All Rights Reserved.
   4:D:/Work/DeviceTester/amazon-freertos/tests/common/ota\aws_test_ota_pal.c ****  *
   5:D:/Work/DeviceTester/amazon-freertos/tests/common/ota\aws_test_ota_pal.c ****  * Permission is hereby granted, free of charge, to any person obtaining a copy of
   6:D:/Work/DeviceTester/amazon-freertos/tests/common/ota\aws_test_ota_pal.c ****  * this software and associated documentation files (the "Software"), to deal in
   7:D:/Work/DeviceTester/amazon-freertos/tests/common/ota\aws_test_ota_pal.c ****  * the Software without restriction, including without limitation the rights to
   8:D:/Work/DeviceTester/amazon-freertos/tests/common/ota\aws_test_ota_pal.c ****  * use, copy, modify, merge, publish, distribute, sublicense, and/or sell copies of
   9:D:/Work/DeviceTester/amazon-freertos/tests/common/ota\aws_test_ota_pal.c ****  * the Software, and to permit persons to whom the Software is furnished to do so,
  10:D:/Work/DeviceTester/amazon-freertos/tests/common/ota\aws_test_ota_pal.c ****  * subject to the following conditions:
  11:D:/Work/DeviceTester/amazon-freertos/tests/common/ota\aws_test_ota_pal.c ****  *
  12:D:/Work/DeviceTester/amazon-freertos/tests/common/ota\aws_test_ota_pal.c ****  * The above copyright notice and this permission notice shall be included in all
  13:D:/Work/DeviceTester/amazon-freertos/tests/common/ota\aws_test_ota_pal.c ****  * copies or substantial portions of the Software.
  14:D:/Work/DeviceTester/amazon-freertos/tests/common/ota\aws_test_ota_pal.c ****  *
  15:D:/Work/DeviceTester/amazon-freertos/tests/common/ota\aws_test_ota_pal.c ****  * THE SOFTWARE IS PROVIDED "AS IS", WITHOUT WARRANTY OF ANY KIND, EXPRESS OR
  16:D:/Work/DeviceTester/amazon-freertos/tests/common/ota\aws_test_ota_pal.c ****  * IMPLIED, INCLUDING BUT NOT LIMITED TO THE WARRANTIES OF MERCHANTABILITY, FITNESS
  17:D:/Work/DeviceTester/amazon-freertos/tests/common/ota\aws_test_ota_pal.c ****  * FOR A PARTICULAR PURPOSE AND NONINFRINGEMENT. IN NO EVENT SHALL THE AUTHORS OR
  18:D:/Work/DeviceTester/amazon-freertos/tests/common/ota\aws_test_ota_pal.c ****  * COPYRIGHT HOLDERS BE LIABLE FOR ANY CLAIM, DAMAGES OR OTHER LIABILITY, WHETHER
  19:D:/Work/DeviceTester/amazon-freertos/tests/common/ota\aws_test_ota_pal.c ****  * IN AN ACTION OF CONTRACT, TORT OR OTHERWISE, ARISING FROM, OUT OF OR IN
  20:D:/Work/DeviceTester/amazon-freertos/tests/common/ota\aws_test_ota_pal.c ****  * CONNECTION WITH THE SOFTWARE OR THE USE OR OTHER DEALINGS IN THE SOFTWARE.
  21:D:/Work/DeviceTester/amazon-freertos/tests/common/ota\aws_test_ota_pal.c ****  *
  22:D:/Work/DeviceTester/amazon-freertos/tests/common/ota\aws_test_ota_pal.c ****  * http://aws.amazon.com/freertos
  23:D:/Work/DeviceTester/amazon-freertos/tests/common/ota\aws_test_ota_pal.c ****  * http://www.FreeRTOS.org
  24:D:/Work/DeviceTester/amazon-freertos/tests/common/ota\aws_test_ota_pal.c ****  */
  25:D:/Work/DeviceTester/amazon-freertos/tests/common/ota\aws_test_ota_pal.c **** 
  26:D:/Work/DeviceTester/amazon-freertos/tests/common/ota\aws_test_ota_pal.c **** /* Standard includes. */
  27:D:/Work/DeviceTester/amazon-freertos/tests/common/ota\aws_test_ota_pal.c **** #include <stdint.h>
  28:D:/Work/DeviceTester/amazon-freertos/tests/common/ota\aws_test_ota_pal.c **** #include <stdbool.h>
  29:D:/Work/DeviceTester/amazon-freertos/tests/common/ota\aws_test_ota_pal.c **** #include <string.h>
  30:D:/Work/DeviceTester/amazon-freertos/tests/common/ota\aws_test_ota_pal.c **** #include <stdio.h>
  31:D:/Work/DeviceTester/amazon-freertos/tests/common/ota\aws_test_ota_pal.c **** 
  32:D:/Work/DeviceTester/amazon-freertos/tests/common/ota\aws_test_ota_pal.c **** /* FreeRTOS includes. */
  33:D:/Work/DeviceTester/amazon-freertos/tests/common/ota\aws_test_ota_pal.c **** #include "FreeRTOS.h"
  34:D:/Work/DeviceTester/amazon-freertos/tests/common/ota\aws_test_ota_pal.c **** 
  35:D:/Work/DeviceTester/amazon-freertos/tests/common/ota\aws_test_ota_pal.c **** #include "unity_fixture.h"
  36:D:/Work/DeviceTester/amazon-freertos/tests/common/ota\aws_test_ota_pal.c **** #include "unity.h"
  37:D:/Work/DeviceTester/amazon-freertos/tests/common/ota\aws_test_ota_pal.c **** #include "aws_ota_pal_test_access_declare.h"
  38:D:/Work/DeviceTester/amazon-freertos/tests/common/ota\aws_test_ota_pal.c **** #include "aws_ota_pal.h"
  39:D:/Work/DeviceTester/amazon-freertos/tests/common/ota\aws_test_ota_pal.c **** #include "aws_ota_agent.h"
  40:D:/Work/DeviceTester/amazon-freertos/tests/common/ota\aws_test_ota_pal.c **** #include "aws_pkcs11.h"
  41:D:/Work/DeviceTester/amazon-freertos/tests/common/ota\aws_test_ota_pal.c **** #include "aws_ota_codesigner_certificate.h"
  42:D:/Work/DeviceTester/amazon-freertos/tests/common/ota\aws_test_ota_pal.c **** #include "aws_test_ota_config.h"
  43:D:/Work/DeviceTester/amazon-freertos/tests/common/ota\aws_test_ota_pal.c **** 
  44:D:/Work/DeviceTester/amazon-freertos/tests/common/ota\aws_test_ota_pal.c **** /* The Texas Instruments CC3220SF has special requirements on its file system security.
  45:D:/Work/DeviceTester/amazon-freertos/tests/common/ota\aws_test_ota_pal.c ****  * We enable code specially for testing the OTA PAL layer for this device. */
  46:D:/Work/DeviceTester/amazon-freertos/tests/common/ota\aws_test_ota_pal.c **** #ifdef CC3220sf
  47:D:/Work/DeviceTester/amazon-freertos/tests/common/ota\aws_test_ota_pal.c ****     #include <ti/drivers/net/wifi/simplelink.h>
  48:D:/Work/DeviceTester/amazon-freertos/tests/common/ota\aws_test_ota_pal.c **** #endif
  49:D:/Work/DeviceTester/amazon-freertos/tests/common/ota\aws_test_ota_pal.c **** 
  50:D:/Work/DeviceTester/amazon-freertos/tests/common/ota\aws_test_ota_pal.c **** /* For the prvPAL_WriteBlock_WriteManyBlocks test this is the number of blocks of
  51:D:/Work/DeviceTester/amazon-freertos/tests/common/ota\aws_test_ota_pal.c ****  * ucDummyData to write to the non-volatile memory. */
  52:D:/Work/DeviceTester/amazon-freertos/tests/common/ota\aws_test_ota_pal.c **** #define testotapalNUM_WRITE_BLOCKS         10
  53:D:/Work/DeviceTester/amazon-freertos/tests/common/ota\aws_test_ota_pal.c **** 
  54:D:/Work/DeviceTester/amazon-freertos/tests/common/ota\aws_test_ota_pal.c **** /* For the prvPAL_WriteBlock_WriteManyBlocks test this the delay time in ms following
  55:D:/Work/DeviceTester/amazon-freertos/tests/common/ota\aws_test_ota_pal.c ****  * the block write loop. */
  56:D:/Work/DeviceTester/amazon-freertos/tests/common/ota\aws_test_ota_pal.c **** #define testotapalWRITE_BLOCKS_DELAY_MS    5000
  57:D:/Work/DeviceTester/amazon-freertos/tests/common/ota\aws_test_ota_pal.c **** 
  58:D:/Work/DeviceTester/amazon-freertos/tests/common/ota\aws_test_ota_pal.c **** /*
  59:D:/Work/DeviceTester/amazon-freertos/tests/common/ota\aws_test_ota_pal.c ****  * @brief: This dummy data is prepended by a SHA1 hash generated from the rsa-sha1-signer
  60:D:/Work/DeviceTester/amazon-freertos/tests/common/ota\aws_test_ota_pal.c ****  * certificate and keys in tests/common/ota/test_files.
  61:D:/Work/DeviceTester/amazon-freertos/tests/common/ota\aws_test_ota_pal.c ****  *
  62:D:/Work/DeviceTester/amazon-freertos/tests/common/ota\aws_test_ota_pal.c ****  * The RSA SHA256 signature and ECDSA 256 signature are generated from this entire data
  63:D:/Work/DeviceTester/amazon-freertos/tests/common/ota\aws_test_ota_pal.c ****  * block as is.
  64:D:/Work/DeviceTester/amazon-freertos/tests/common/ota\aws_test_ota_pal.c ****  */
  65:D:/Work/DeviceTester/amazon-freertos/tests/common/ota\aws_test_ota_pal.c **** static uint8_t ucDummyData[] =
  66:D:/Work/DeviceTester/amazon-freertos/tests/common/ota\aws_test_ota_pal.c **** {
  67:D:/Work/DeviceTester/amazon-freertos/tests/common/ota\aws_test_ota_pal.c ****     0x83, 0x0b, 0xf0, 0x6a, 0x81, 0xd6, 0xca, 0xd7, 0x08, 0x22, 0x0d, 0x6a,
  68:D:/Work/DeviceTester/amazon-freertos/tests/common/ota\aws_test_ota_pal.c ****     0x33, 0xfa, 0x31, 0x9f, 0xa9, 0x5f, 0xb5, 0x26, 0x00, 0x01, 0x02, 0x03,
  69:D:/Work/DeviceTester/amazon-freertos/tests/common/ota\aws_test_ota_pal.c ****     0x04, 0x05, 0x06, 0x07, 0x08, 0x09, 0x0a, 0x0c, 0x0c, 0x0d, 0x0e, 0x0f,
  70:D:/Work/DeviceTester/amazon-freertos/tests/common/ota\aws_test_ota_pal.c ****     0x10, 0x11, 0x12, 0x13, 0x14, 0x15, 0x16, 0x17, 0x18, 0x19, 0x1a, 0x1b,
  71:D:/Work/DeviceTester/amazon-freertos/tests/common/ota\aws_test_ota_pal.c ****     0x1c, 0x1d, 0x1e, 0x1f, 0x20, 0x21, 0x22, 0x23, 0x24, 0x25, 0x26, 0x27,
  72:D:/Work/DeviceTester/amazon-freertos/tests/common/ota\aws_test_ota_pal.c ****     0x28, 0x29, 0x2a, 0x2b, 0x2c, 0x2d, 0x2e, 0x2f, 0x30, 0x31, 0x32, 0x33,
  73:D:/Work/DeviceTester/amazon-freertos/tests/common/ota\aws_test_ota_pal.c ****     0x34, 0x35, 0x36, 0x37, 0x38, 0x39, 0x3a, 0x3b, 0x3c, 0x3d, 0x3e, 0x3f
  74:D:/Work/DeviceTester/amazon-freertos/tests/common/ota\aws_test_ota_pal.c **** };
  75:D:/Work/DeviceTester/amazon-freertos/tests/common/ota\aws_test_ota_pal.c **** 
  76:D:/Work/DeviceTester/amazon-freertos/tests/common/ota\aws_test_ota_pal.c **** /* Global static OTA file context used in every test. This context is reset to all zeros
  77:D:/Work/DeviceTester/amazon-freertos/tests/common/ota\aws_test_ota_pal.c ****  * before every test. */
  78:D:/Work/DeviceTester/amazon-freertos/tests/common/ota\aws_test_ota_pal.c **** static OTA_FileContext_t xOtaFile;
  79:D:/Work/DeviceTester/amazon-freertos/tests/common/ota\aws_test_ota_pal.c **** 
  80:D:/Work/DeviceTester/amazon-freertos/tests/common/ota\aws_test_ota_pal.c **** #ifdef CC3220sf
  81:D:/Work/DeviceTester/amazon-freertos/tests/common/ota\aws_test_ota_pal.c ****     /**
  82:D:/Work/DeviceTester/amazon-freertos/tests/common/ota\aws_test_ota_pal.c ****      * @brief In the Texas Instruments CC3220(SF) device, we need to restore mcuflashimage.bin to f
  83:D:/Work/DeviceTester/amazon-freertos/tests/common/ota\aws_test_ota_pal.c ****      * that increase the number of security alerts.
  84:D:/Work/DeviceTester/amazon-freertos/tests/common/ota\aws_test_ota_pal.c ****      */
  85:D:/Work/DeviceTester/amazon-freertos/tests/common/ota\aws_test_ota_pal.c ****     static void prvResetTiCc3220ToFactoryImage()
  86:D:/Work/DeviceTester/amazon-freertos/tests/common/ota\aws_test_ota_pal.c ****     {
  87:D:/Work/DeviceTester/amazon-freertos/tests/common/ota\aws_test_ota_pal.c ****         int32_t lResult, lRetVal, lExtendedError;
  88:D:/Work/DeviceTester/amazon-freertos/tests/common/ota\aws_test_ota_pal.c ****         SlFsRetToFactoryCommand_t xRetToFactoryCommand;
  89:D:/Work/DeviceTester/amazon-freertos/tests/common/ota\aws_test_ota_pal.c **** 
  90:D:/Work/DeviceTester/amazon-freertos/tests/common/ota\aws_test_ota_pal.c ****         xRetToFactoryCommand.Operation = SL_FS_FACTORY_RET_TO_IMAGE;
  91:D:/Work/DeviceTester/amazon-freertos/tests/common/ota\aws_test_ota_pal.c ****         lResult = sl_FsCtl( ( SlFsCtl_e ) SL_FS_CTL_RESTORE, 0, NULL, ( _u8 * ) &xRetToFactoryComma
  92:D:/Work/DeviceTester/amazon-freertos/tests/common/ota\aws_test_ota_pal.c **** 
  93:D:/Work/DeviceTester/amazon-freertos/tests/common/ota\aws_test_ota_pal.c ****         if( ( _i32 ) lResult < 0 )
  94:D:/Work/DeviceTester/amazon-freertos/tests/common/ota\aws_test_ota_pal.c ****         {
  95:D:/Work/DeviceTester/amazon-freertos/tests/common/ota\aws_test_ota_pal.c ****             /*Pay attention, for this function the lResult is composed from Signed lRetVal & extend
  96:D:/Work/DeviceTester/amazon-freertos/tests/common/ota\aws_test_ota_pal.c ****             lRetVal = ( _i16 ) lResult >> 16;
  97:D:/Work/DeviceTester/amazon-freertos/tests/common/ota\aws_test_ota_pal.c ****             lExtendedError = ( _u16 ) lResult & 0xFFFF;
  98:D:/Work/DeviceTester/amazon-freertos/tests/common/ota\aws_test_ota_pal.c ****             configPRINTF( ( "Error SL_FS_FACTORY_RET_TO_IMAGE, 5d, %d\r\n", lRetVal, lExtendedError
  99:D:/Work/DeviceTester/amazon-freertos/tests/common/ota\aws_test_ota_pal.c ****             return;
 100:D:/Work/DeviceTester/amazon-freertos/tests/common/ota\aws_test_ota_pal.c ****         }
 101:D:/Work/DeviceTester/amazon-freertos/tests/common/ota\aws_test_ota_pal.c **** 
 102:D:/Work/DeviceTester/amazon-freertos/tests/common/ota\aws_test_ota_pal.c ****         /* Reset the network processor. */
 103:D:/Work/DeviceTester/amazon-freertos/tests/common/ota\aws_test_ota_pal.c ****         sl_Stop( 0 );
 104:D:/Work/DeviceTester/amazon-freertos/tests/common/ota\aws_test_ota_pal.c ****         vTaskDelay( pdMS_TO_TICKS( 1000 ) );
 105:D:/Work/DeviceTester/amazon-freertos/tests/common/ota\aws_test_ota_pal.c ****         sl_Start( NULL, NULL, NULL );
 106:D:/Work/DeviceTester/amazon-freertos/tests/common/ota\aws_test_ota_pal.c ****     }
 107:D:/Work/DeviceTester/amazon-freertos/tests/common/ota\aws_test_ota_pal.c **** #endif /* ifdef CC3220sf */
 108:D:/Work/DeviceTester/amazon-freertos/tests/common/ota\aws_test_ota_pal.c **** 
 109:D:/Work/DeviceTester/amazon-freertos/tests/common/ota\aws_test_ota_pal.c **** /**
 110:D:/Work/DeviceTester/amazon-freertos/tests/common/ota\aws_test_ota_pal.c ****  * @brief Test group definition.
 111:D:/Work/DeviceTester/amazon-freertos/tests/common/ota\aws_test_ota_pal.c ****  */
 112:D:/Work/DeviceTester/amazon-freertos/tests/common/ota\aws_test_ota_pal.c **** TEST_GROUP( Full_OTA_PAL );
 113:D:/Work/DeviceTester/amazon-freertos/tests/common/ota\aws_test_ota_pal.c **** 
 114:D:/Work/DeviceTester/amazon-freertos/tests/common/ota\aws_test_ota_pal.c **** TEST_SETUP( Full_OTA_PAL )
 115:D:/Work/DeviceTester/amazon-freertos/tests/common/ota\aws_test_ota_pal.c **** {
  26              		.loc 1 115 0
  27              		.cfi_startproc
  28              		@ args = 0, pretend = 0, frame = 0
  29              		@ frame_needed = 0, uses_anonymous_args = 0
  30              		@ link register save eliminated.
 116:D:/Work/DeviceTester/amazon-freertos/tests/common/ota\aws_test_ota_pal.c ****     /* Always reset the OTA file context before each test. */
 117:D:/Work/DeviceTester/amazon-freertos/tests/common/ota\aws_test_ota_pal.c ****     memset( &xOtaFile, 0, sizeof( xOtaFile ) );
  31              		.loc 1 117 0
  32 0000 3C20A0E3 		mov	r2, #60
  33 0004 0010A0E3 		mov	r1, #0
  34 0008 00009FE5 		ldr	r0, .L2
  35 000c FEFFFFEA 		b	memset
  36              	.LVL0:
  37              	.L3:
  38              		.align	2
  39              	.L2:
  40 0010 00000000 		.word	.LANCHOR0
  41              		.cfi_endproc
  42              	.LFE1:
  44              		.section	.text.TEST_Full_OTA_PAL_TEAR_DOWN,"ax",%progbits
  45              		.align	2
  46              		.global	TEST_Full_OTA_PAL_TEAR_DOWN
  47              		.syntax unified
  48              		.arm
  49              		.fpu neon
  51              	TEST_Full_OTA_PAL_TEAR_DOWN:
  52              	.LFB2:
 118:D:/Work/DeviceTester/amazon-freertos/tests/common/ota\aws_test_ota_pal.c **** }
 119:D:/Work/DeviceTester/amazon-freertos/tests/common/ota\aws_test_ota_pal.c **** 
 120:D:/Work/DeviceTester/amazon-freertos/tests/common/ota\aws_test_ota_pal.c **** TEST_TEAR_DOWN( Full_OTA_PAL )
 121:D:/Work/DeviceTester/amazon-freertos/tests/common/ota\aws_test_ota_pal.c **** {
  53              		.loc 1 121 0
  54              		.cfi_startproc
  55              		@ args = 0, pretend = 0, frame = 0
  56              		@ frame_needed = 0, uses_anonymous_args = 0
  57 0000 10402DE9 		push	{r4, lr}
  58              		.cfi_def_cfa_offset 8
  59              		.cfi_offset 4, -8
  60              		.cfi_offset 14, -4
 122:D:/Work/DeviceTester/amazon-freertos/tests/common/ota\aws_test_ota_pal.c ****     #ifdef CC3220sf
 123:D:/Work/DeviceTester/amazon-freertos/tests/common/ota\aws_test_ota_pal.c ****         prvResetTiCc3220ToFactoryImage();
 124:D:/Work/DeviceTester/amazon-freertos/tests/common/ota\aws_test_ota_pal.c ****     #else
 125:D:/Work/DeviceTester/amazon-freertos/tests/common/ota\aws_test_ota_pal.c ****         OTA_Err_t xOtaStatus;
 126:D:/Work/DeviceTester/amazon-freertos/tests/common/ota\aws_test_ota_pal.c **** 
 127:D:/Work/DeviceTester/amazon-freertos/tests/common/ota\aws_test_ota_pal.c ****         /* We want to abort the OTA file after every test. This closes the OtaFile. */
 128:D:/Work/DeviceTester/amazon-freertos/tests/common/ota\aws_test_ota_pal.c ****         xOtaStatus = prvPAL_Abort( &xOtaFile );
  61              		.loc 1 128 0
  62 0004 14009FE5 		ldr	r0, .L7
  63 0008 FEFFFFEB 		bl	prvPAL_Abort
  64              	.LVL1:
 129:D:/Work/DeviceTester/amazon-freertos/tests/common/ota\aws_test_ota_pal.c **** 
 130:D:/Work/DeviceTester/amazon-freertos/tests/common/ota\aws_test_ota_pal.c ****         if( kOTA_Err_None != xOtaStatus )
  65              		.loc 1 130 0
  66 000c 001050E2 		subs	r1, r0, #0
  67 0010 1080BD08 		popeq	{r4, pc}
 131:D:/Work/DeviceTester/amazon-freertos/tests/common/ota\aws_test_ota_pal.c ****         {
 132:D:/Work/DeviceTester/amazon-freertos/tests/common/ota\aws_test_ota_pal.c ****             configPRINTF( ( "Error aborting xOtaFile with code: %d", xOtaStatus ) );
  68              		.loc 1 132 0
  69 0014 08009FE5 		ldr	r0, .L7+4
  70              	.LVL2:
 133:D:/Work/DeviceTester/amazon-freertos/tests/common/ota\aws_test_ota_pal.c ****         }
 134:D:/Work/DeviceTester/amazon-freertos/tests/common/ota\aws_test_ota_pal.c ****     #endif /* ifdef CC3220sf */
 135:D:/Work/DeviceTester/amazon-freertos/tests/common/ota\aws_test_ota_pal.c **** }
  71              		.loc 1 135 0
  72 0018 1040BDE8 		pop	{r4, lr}
  73              		.cfi_restore 14
  74              		.cfi_restore 4
  75              		.cfi_def_cfa_offset 0
 132:D:/Work/DeviceTester/amazon-freertos/tests/common/ota\aws_test_ota_pal.c ****         }
  76              		.loc 1 132 0
  77 001c FEFFFFEA 		b	vLoggingPrintf
  78              	.LVL3:
  79              	.L8:
  80              		.align	2
  81              	.L7:
  82 0020 00000000 		.word	.LANCHOR0
  83 0024 00000000 		.word	.LC0
  84              		.cfi_endproc
  85              	.LFE2:
  87              		.section	.text.TEST_Full_OTA_PAL_prvPAL_CreateFileForRx_CreateAnyFile_,"ax",%progbits
  88              		.align	2
  89              		.global	TEST_Full_OTA_PAL_prvPAL_CreateFileForRx_CreateAnyFile_
  90              		.syntax unified
  91              		.arm
  92              		.fpu neon
  94              	TEST_Full_OTA_PAL_prvPAL_CreateFileForRx_CreateAnyFile_:
  95              	.LFB16:
 136:D:/Work/DeviceTester/amazon-freertos/tests/common/ota\aws_test_ota_pal.c **** 
 137:D:/Work/DeviceTester/amazon-freertos/tests/common/ota\aws_test_ota_pal.c **** TEST_GROUP_RUNNER( Full_OTA_PAL )
 138:D:/Work/DeviceTester/amazon-freertos/tests/common/ota\aws_test_ota_pal.c **** {
 139:D:/Work/DeviceTester/amazon-freertos/tests/common/ota\aws_test_ota_pal.c ****     RUN_TEST_CASE( Full_OTA_PAL, prvPAL_CloseFile_ValidSignature );
 140:D:/Work/DeviceTester/amazon-freertos/tests/common/ota\aws_test_ota_pal.c ****     /* RUN_TEST_CASE( Full_OTA_PAL, prvPAL_CloseFile_NullParameters ); */ /* Not supported yet. */
 141:D:/Work/DeviceTester/amazon-freertos/tests/common/ota\aws_test_ota_pal.c ****     RUN_TEST_CASE( Full_OTA_PAL, prvPAL_CloseFile_InvalidSignatureBlockWritten );
 142:D:/Work/DeviceTester/amazon-freertos/tests/common/ota\aws_test_ota_pal.c ****     RUN_TEST_CASE( Full_OTA_PAL, prvPAL_CloseFile_InvalidSignatureNoBlockWritten );
 143:D:/Work/DeviceTester/amazon-freertos/tests/common/ota\aws_test_ota_pal.c ****     #if ( otatestpalUSE_FILE_SYSTEM == 1 )
 144:D:/Work/DeviceTester/amazon-freertos/tests/common/ota\aws_test_ota_pal.c ****         RUN_TEST_CASE( Full_OTA_PAL, prvPAL_CloseFile_NonexistingCodeSignerCertificate );
 145:D:/Work/DeviceTester/amazon-freertos/tests/common/ota\aws_test_ota_pal.c ****     #endif
 146:D:/Work/DeviceTester/amazon-freertos/tests/common/ota\aws_test_ota_pal.c **** 
 147:D:/Work/DeviceTester/amazon-freertos/tests/common/ota\aws_test_ota_pal.c ****     RUN_TEST_CASE( Full_OTA_PAL, prvPAL_CreateFileForRx_CreateAnyFile );
 148:D:/Work/DeviceTester/amazon-freertos/tests/common/ota\aws_test_ota_pal.c ****     /* RUN_TEST_CASE( Full_OTA_PAL, prvPAL_CreateFileForRx_NullParameters ) */ /* Not supported yet
 149:D:/Work/DeviceTester/amazon-freertos/tests/common/ota\aws_test_ota_pal.c **** 
 150:D:/Work/DeviceTester/amazon-freertos/tests/common/ota\aws_test_ota_pal.c ****     /* Other failure case testing for prvPAL_CreateFileForRx() is not possible
 151:D:/Work/DeviceTester/amazon-freertos/tests/common/ota\aws_test_ota_pal.c ****      * because the MCU's underlying non-volatile memory will have to be mocked
 152:D:/Work/DeviceTester/amazon-freertos/tests/common/ota\aws_test_ota_pal.c ****      * to return failures for creating a new file. */
 153:D:/Work/DeviceTester/amazon-freertos/tests/common/ota\aws_test_ota_pal.c **** 
 154:D:/Work/DeviceTester/amazon-freertos/tests/common/ota\aws_test_ota_pal.c ****     /* RUN_TEST_CASE( Full_OTA_PAL, prvPAL_Abort_NullFileContext ); */ /* Not supported yet. */
 155:D:/Work/DeviceTester/amazon-freertos/tests/common/ota\aws_test_ota_pal.c ****     RUN_TEST_CASE( Full_OTA_PAL, prvPAL_Abort_OpenFile );
 156:D:/Work/DeviceTester/amazon-freertos/tests/common/ota\aws_test_ota_pal.c ****     RUN_TEST_CASE( Full_OTA_PAL, prvPAL_Abort_FileWithBlockWritten );
 157:D:/Work/DeviceTester/amazon-freertos/tests/common/ota\aws_test_ota_pal.c ****     RUN_TEST_CASE( Full_OTA_PAL, prvPAL_Abort_NullFileHandle );
 158:D:/Work/DeviceTester/amazon-freertos/tests/common/ota\aws_test_ota_pal.c ****     RUN_TEST_CASE( Full_OTA_PAL, prvPAL_Abort_NonExistentFile );
 159:D:/Work/DeviceTester/amazon-freertos/tests/common/ota\aws_test_ota_pal.c **** 
 160:D:/Work/DeviceTester/amazon-freertos/tests/common/ota\aws_test_ota_pal.c ****     /* RUN_TEST_CASE( Full_OTA_PAL, prvPAL_WriteBlock_NullParameters ); */ /* Not supported yet. */
 161:D:/Work/DeviceTester/amazon-freertos/tests/common/ota\aws_test_ota_pal.c ****     RUN_TEST_CASE( Full_OTA_PAL, prvPAL_WriteBlock_WriteSingleByte );
 162:D:/Work/DeviceTester/amazon-freertos/tests/common/ota\aws_test_ota_pal.c ****     RUN_TEST_CASE( Full_OTA_PAL, prvPAL_WriteBlock_WriteManyBlocks );
 163:D:/Work/DeviceTester/amazon-freertos/tests/common/ota\aws_test_ota_pal.c **** 
 164:D:/Work/DeviceTester/amazon-freertos/tests/common/ota\aws_test_ota_pal.c ****     #ifdef WIN32
 165:D:/Work/DeviceTester/amazon-freertos/tests/common/ota\aws_test_ota_pal.c ****         /* This test resets the device so it is not valid for an MCU. */
 166:D:/Work/DeviceTester/amazon-freertos/tests/common/ota\aws_test_ota_pal.c ****         RUN_TEST_CASE( Full_OTA_PAL, prvPAL_ActivateNewImage );
 167:D:/Work/DeviceTester/amazon-freertos/tests/common/ota\aws_test_ota_pal.c ****     #endif
 168:D:/Work/DeviceTester/amazon-freertos/tests/common/ota\aws_test_ota_pal.c **** 
 169:D:/Work/DeviceTester/amazon-freertos/tests/common/ota\aws_test_ota_pal.c ****     RUN_TEST_CASE( Full_OTA_PAL, prvPAL_SetPlatformImageState_SelfTestImageState );
 170:D:/Work/DeviceTester/amazon-freertos/tests/common/ota\aws_test_ota_pal.c ****     RUN_TEST_CASE( Full_OTA_PAL, prvPAL_SetPlatformImageState_InvalidImageState );
 171:D:/Work/DeviceTester/amazon-freertos/tests/common/ota\aws_test_ota_pal.c ****     RUN_TEST_CASE( Full_OTA_PAL, prvPAL_SetPlatformImageState_UnknownImageState );
 172:D:/Work/DeviceTester/amazon-freertos/tests/common/ota\aws_test_ota_pal.c ****     RUN_TEST_CASE( Full_OTA_PAL, prvPAL_SetPlatformImageState_RejectImageState );
 173:D:/Work/DeviceTester/amazon-freertos/tests/common/ota\aws_test_ota_pal.c ****     #ifndef WIN32
 174:D:/Work/DeviceTester/amazon-freertos/tests/common/ota\aws_test_ota_pal.c ****         /* This test is not supported on WinSim because we simply record the image state passed in 
 175:D:/Work/DeviceTester/amazon-freertos/tests/common/ota\aws_test_ota_pal.c ****         RUN_TEST_CASE( Full_OTA_PAL, prvPAL_SetPlatformImageState_AcceptedImageStateButImageNotClos
 176:D:/Work/DeviceTester/amazon-freertos/tests/common/ota\aws_test_ota_pal.c **** 
 177:D:/Work/DeviceTester/amazon-freertos/tests/common/ota\aws_test_ota_pal.c ****         /* The successful setting of an image with the accepted state is not supported because that
 178:D:/Work/DeviceTester/amazon-freertos/tests/common/ota\aws_test_ota_pal.c ****          * an image that was written, verified, and rebooted. */
 179:D:/Work/DeviceTester/amazon-freertos/tests/common/ota\aws_test_ota_pal.c ****     #endif
 180:D:/Work/DeviceTester/amazon-freertos/tests/common/ota\aws_test_ota_pal.c **** 
 181:D:/Work/DeviceTester/amazon-freertos/tests/common/ota\aws_test_ota_pal.c ****     RUN_TEST_CASE( Full_OTA_PAL, prvPAL_GetPlatformImageState_InvalidImageStateFromFileCloseFailure
 182:D:/Work/DeviceTester/amazon-freertos/tests/common/ota\aws_test_ota_pal.c **** 
 183:D:/Work/DeviceTester/amazon-freertos/tests/common/ota\aws_test_ota_pal.c ****     #if ( otatestpalREAD_AND_ASSUME_CERTIFICATE_SUPPORTED == 1 )
 184:D:/Work/DeviceTester/amazon-freertos/tests/common/ota\aws_test_ota_pal.c ****         RUN_TEST_CASE( Full_OTA_PAL, prvPAL_ReadAndAssumeCertificate_ExistingFile );
 185:D:/Work/DeviceTester/amazon-freertos/tests/common/ota\aws_test_ota_pal.c ****         #if ( otatestpalUSE_FILE_SYSTEM == 1 )
 186:D:/Work/DeviceTester/amazon-freertos/tests/common/ota\aws_test_ota_pal.c ****             RUN_TEST_CASE( Full_OTA_PAL, prvPAL_ReadAndAssumeCertificate_NonexistentFile );
 187:D:/Work/DeviceTester/amazon-freertos/tests/common/ota\aws_test_ota_pal.c ****         #endif
 188:D:/Work/DeviceTester/amazon-freertos/tests/common/ota\aws_test_ota_pal.c ****         /* RUN_TEST_CASE( Full_OTA_PAL, prvPAL_ReadAndAssumeCertificate_NullParameters ); */ /* Not
 189:D:/Work/DeviceTester/amazon-freertos/tests/common/ota\aws_test_ota_pal.c ****     #endif
 190:D:/Work/DeviceTester/amazon-freertos/tests/common/ota\aws_test_ota_pal.c **** 
 191:D:/Work/DeviceTester/amazon-freertos/tests/common/ota\aws_test_ota_pal.c ****     #if ( otatestpalCHECK_FILE_SIGNATURE_SUPPORTED == 1 )
 192:D:/Work/DeviceTester/amazon-freertos/tests/common/ota\aws_test_ota_pal.c ****         RUN_TEST_CASE( Full_OTA_PAL, prvPAL_CheckFileSignature_ValidSignature );
 193:D:/Work/DeviceTester/amazon-freertos/tests/common/ota\aws_test_ota_pal.c ****         RUN_TEST_CASE( Full_OTA_PAL, prvPAL_CheckFileSignature_InvalidSignatureBlockWritten );
 194:D:/Work/DeviceTester/amazon-freertos/tests/common/ota\aws_test_ota_pal.c ****         RUN_TEST_CASE( Full_OTA_PAL, prvPAL_CheckFileSignature_InvalidSignatureNoBlockWritten );
 195:D:/Work/DeviceTester/amazon-freertos/tests/common/ota\aws_test_ota_pal.c ****         #if ( otatestpalUSE_FILE_SYSTEM == 1 )
 196:D:/Work/DeviceTester/amazon-freertos/tests/common/ota\aws_test_ota_pal.c ****             RUN_TEST_CASE( Full_OTA_PAL, prvPAL_CheckFileSignature_NonexistingCodeSignerCertificate
 197:D:/Work/DeviceTester/amazon-freertos/tests/common/ota\aws_test_ota_pal.c ****         #endif
 198:D:/Work/DeviceTester/amazon-freertos/tests/common/ota\aws_test_ota_pal.c ****         /* RUN_TEST_CASE( Full_OTA_PAL, prvPAL_CheckFileSignature_NullParameters ); */ /* Not suppo
 199:D:/Work/DeviceTester/amazon-freertos/tests/common/ota\aws_test_ota_pal.c ****     #endif
 200:D:/Work/DeviceTester/amazon-freertos/tests/common/ota\aws_test_ota_pal.c **** 
 201:D:/Work/DeviceTester/amazon-freertos/tests/common/ota\aws_test_ota_pal.c ****     #if ( otatestpalREAD_CERTIFICATE_FROM_NVM_WITH_PKCS11 == 1 )
 202:D:/Work/DeviceTester/amazon-freertos/tests/common/ota\aws_test_ota_pal.c **** 
 203:D:/Work/DeviceTester/amazon-freertos/tests/common/ota\aws_test_ota_pal.c ****         /* This test must run last.  It provisions the code sign certificate,
 204:D:/Work/DeviceTester/amazon-freertos/tests/common/ota\aws_test_ota_pal.c ****          * and other tests exercise the non-flash verison.*/
 205:D:/Work/DeviceTester/amazon-freertos/tests/common/ota\aws_test_ota_pal.c ****         RUN_TEST_CASE( Full_OTA_PAL, prvPAL_CloseFile_ValidSignatureKeyInFlash );
 206:D:/Work/DeviceTester/amazon-freertos/tests/common/ota\aws_test_ota_pal.c ****     #endif
 207:D:/Work/DeviceTester/amazon-freertos/tests/common/ota\aws_test_ota_pal.c **** }
 208:D:/Work/DeviceTester/amazon-freertos/tests/common/ota\aws_test_ota_pal.c **** 
 209:D:/Work/DeviceTester/amazon-freertos/tests/common/ota\aws_test_ota_pal.c **** /**
 210:D:/Work/DeviceTester/amazon-freertos/tests/common/ota\aws_test_ota_pal.c ****  * @brief Test prvPAL_CloseFile with a valid signature and signature verification
 211:D:/Work/DeviceTester/amazon-freertos/tests/common/ota\aws_test_ota_pal.c ****  * certificate. Verify the success.
 212:D:/Work/DeviceTester/amazon-freertos/tests/common/ota\aws_test_ota_pal.c ****  */
 213:D:/Work/DeviceTester/amazon-freertos/tests/common/ota\aws_test_ota_pal.c **** TEST( Full_OTA_PAL, prvPAL_CloseFile_ValidSignature )
 214:D:/Work/DeviceTester/amazon-freertos/tests/common/ota\aws_test_ota_pal.c **** {
 215:D:/Work/DeviceTester/amazon-freertos/tests/common/ota\aws_test_ota_pal.c ****     OTA_Err_t xOtaStatus;
 216:D:/Work/DeviceTester/amazon-freertos/tests/common/ota\aws_test_ota_pal.c ****     Sig256_t xSig = { 0 };
 217:D:/Work/DeviceTester/amazon-freertos/tests/common/ota\aws_test_ota_pal.c **** 
 218:D:/Work/DeviceTester/amazon-freertos/tests/common/ota\aws_test_ota_pal.c ****     /* We use a dummy file name here because closing the system designated bootable
 219:D:/Work/DeviceTester/amazon-freertos/tests/common/ota\aws_test_ota_pal.c ****      * image with content that is not runnable may cause issues. */
 220:D:/Work/DeviceTester/amazon-freertos/tests/common/ota\aws_test_ota_pal.c ****     xOtaFile.pucFilePath = ( uint8_t * ) ( "test_happy_path_image.bin" );
 221:D:/Work/DeviceTester/amazon-freertos/tests/common/ota\aws_test_ota_pal.c ****     xOtaStatus = prvPAL_CreateFileForRx( &xOtaFile );
 222:D:/Work/DeviceTester/amazon-freertos/tests/common/ota\aws_test_ota_pal.c ****     TEST_ASSERT_EQUAL( kOTA_Err_None, xOtaStatus );
 223:D:/Work/DeviceTester/amazon-freertos/tests/common/ota\aws_test_ota_pal.c **** 
 224:D:/Work/DeviceTester/amazon-freertos/tests/common/ota\aws_test_ota_pal.c ****     /* We still want to close the file if the test fails somewhere here. */
 225:D:/Work/DeviceTester/amazon-freertos/tests/common/ota\aws_test_ota_pal.c ****     if( TEST_PROTECT() )
 226:D:/Work/DeviceTester/amazon-freertos/tests/common/ota\aws_test_ota_pal.c ****     {
 227:D:/Work/DeviceTester/amazon-freertos/tests/common/ota\aws_test_ota_pal.c ****         /* Write data to the file. */
 228:D:/Work/DeviceTester/amazon-freertos/tests/common/ota\aws_test_ota_pal.c ****         xOtaStatus = prvPAL_WriteBlock( &xOtaFile,
 229:D:/Work/DeviceTester/amazon-freertos/tests/common/ota\aws_test_ota_pal.c ****                                         0,
 230:D:/Work/DeviceTester/amazon-freertos/tests/common/ota\aws_test_ota_pal.c ****                                         ucDummyData,
 231:D:/Work/DeviceTester/amazon-freertos/tests/common/ota\aws_test_ota_pal.c ****                                         sizeof( ucDummyData ) );
 232:D:/Work/DeviceTester/amazon-freertos/tests/common/ota\aws_test_ota_pal.c ****         TEST_ASSERT_EQUAL( sizeof( ucDummyData ), xOtaStatus );
 233:D:/Work/DeviceTester/amazon-freertos/tests/common/ota\aws_test_ota_pal.c **** 
 234:D:/Work/DeviceTester/amazon-freertos/tests/common/ota\aws_test_ota_pal.c ****         xOtaFile.pxSignature = &xSig;
 235:D:/Work/DeviceTester/amazon-freertos/tests/common/ota\aws_test_ota_pal.c ****         xOtaFile.pxSignature->usSize = ucValidSignatureLength;
 236:D:/Work/DeviceTester/amazon-freertos/tests/common/ota\aws_test_ota_pal.c ****         memcpy( xOtaFile.pxSignature->ucData, ucValidSignature, ucValidSignatureLength );
 237:D:/Work/DeviceTester/amazon-freertos/tests/common/ota\aws_test_ota_pal.c ****         xOtaFile.pucCertFilepath = ( uint8_t * ) otatestpalCERTIFICATE_FILE;
 238:D:/Work/DeviceTester/amazon-freertos/tests/common/ota\aws_test_ota_pal.c **** 
 239:D:/Work/DeviceTester/amazon-freertos/tests/common/ota\aws_test_ota_pal.c ****         xOtaStatus = prvPAL_CloseFile( &xOtaFile );
 240:D:/Work/DeviceTester/amazon-freertos/tests/common/ota\aws_test_ota_pal.c ****         TEST_ASSERT_EQUAL_INT( kOTA_Err_None, xOtaStatus );
 241:D:/Work/DeviceTester/amazon-freertos/tests/common/ota\aws_test_ota_pal.c ****     }
 242:D:/Work/DeviceTester/amazon-freertos/tests/common/ota\aws_test_ota_pal.c **** }
 243:D:/Work/DeviceTester/amazon-freertos/tests/common/ota\aws_test_ota_pal.c **** 
 244:D:/Work/DeviceTester/amazon-freertos/tests/common/ota\aws_test_ota_pal.c **** extern CK_RV xProvisionCertificate( CK_SESSION_HANDLE xSession,
 245:D:/Work/DeviceTester/amazon-freertos/tests/common/ota\aws_test_ota_pal.c ****                                     uint8_t * pucCodeSignCertificate,
 246:D:/Work/DeviceTester/amazon-freertos/tests/common/ota\aws_test_ota_pal.c ****                                     size_t xCertificateLength,
 247:D:/Work/DeviceTester/amazon-freertos/tests/common/ota\aws_test_ota_pal.c ****                                     uint8_t * pucLabel,
 248:D:/Work/DeviceTester/amazon-freertos/tests/common/ota\aws_test_ota_pal.c ****                                     CK_OBJECT_HANDLE_PTR xObjectHandle );
 249:D:/Work/DeviceTester/amazon-freertos/tests/common/ota\aws_test_ota_pal.c **** 
 250:D:/Work/DeviceTester/amazon-freertos/tests/common/ota\aws_test_ota_pal.c **** CK_RV prvImportCodeSigningCertificate( const uint8_t * pucCertificate,
 251:D:/Work/DeviceTester/amazon-freertos/tests/common/ota\aws_test_ota_pal.c ****                                        size_t xCertificateLength,
 252:D:/Work/DeviceTester/amazon-freertos/tests/common/ota\aws_test_ota_pal.c ****                                        uint8_t * pucLabel )
 253:D:/Work/DeviceTester/amazon-freertos/tests/common/ota\aws_test_ota_pal.c **** {
 254:D:/Work/DeviceTester/amazon-freertos/tests/common/ota\aws_test_ota_pal.c ****     /* Find the certificate */
 255:D:/Work/DeviceTester/amazon-freertos/tests/common/ota\aws_test_ota_pal.c ****     CK_OBJECT_HANDLE xHandle;
 256:D:/Work/DeviceTester/amazon-freertos/tests/common/ota\aws_test_ota_pal.c ****     CK_RV xResult;
 257:D:/Work/DeviceTester/amazon-freertos/tests/common/ota\aws_test_ota_pal.c ****     CK_FUNCTION_LIST_PTR xFunctionList;
 258:D:/Work/DeviceTester/amazon-freertos/tests/common/ota\aws_test_ota_pal.c ****     CK_SLOT_ID xSlotId;
 259:D:/Work/DeviceTester/amazon-freertos/tests/common/ota\aws_test_ota_pal.c ****     CK_ULONG xCount = 1;
 260:D:/Work/DeviceTester/amazon-freertos/tests/common/ota\aws_test_ota_pal.c ****     CK_SESSION_HANDLE xSession;
 261:D:/Work/DeviceTester/amazon-freertos/tests/common/ota\aws_test_ota_pal.c ****     CK_BBOOL xSessionOpen = CK_FALSE;
 262:D:/Work/DeviceTester/amazon-freertos/tests/common/ota\aws_test_ota_pal.c **** 
 263:D:/Work/DeviceTester/amazon-freertos/tests/common/ota\aws_test_ota_pal.c ****     xResult = C_GetFunctionList( &xFunctionList );
 264:D:/Work/DeviceTester/amazon-freertos/tests/common/ota\aws_test_ota_pal.c **** 
 265:D:/Work/DeviceTester/amazon-freertos/tests/common/ota\aws_test_ota_pal.c ****     if( CKR_OK == xResult )
 266:D:/Work/DeviceTester/amazon-freertos/tests/common/ota\aws_test_ota_pal.c ****     {
 267:D:/Work/DeviceTester/amazon-freertos/tests/common/ota\aws_test_ota_pal.c ****         xResult = xFunctionList->C_Initialize( NULL );
 268:D:/Work/DeviceTester/amazon-freertos/tests/common/ota\aws_test_ota_pal.c ****     }
 269:D:/Work/DeviceTester/amazon-freertos/tests/common/ota\aws_test_ota_pal.c **** 
 270:D:/Work/DeviceTester/amazon-freertos/tests/common/ota\aws_test_ota_pal.c ****     if( ( CKR_OK == xResult ) || ( CKR_CRYPTOKI_ALREADY_INITIALIZED == xResult ) )
 271:D:/Work/DeviceTester/amazon-freertos/tests/common/ota\aws_test_ota_pal.c ****     {
 272:D:/Work/DeviceTester/amazon-freertos/tests/common/ota\aws_test_ota_pal.c ****         xResult = xFunctionList->C_GetSlotList( CK_TRUE, &xSlotId, &xCount );
 273:D:/Work/DeviceTester/amazon-freertos/tests/common/ota\aws_test_ota_pal.c ****     }
 274:D:/Work/DeviceTester/amazon-freertos/tests/common/ota\aws_test_ota_pal.c **** 
 275:D:/Work/DeviceTester/amazon-freertos/tests/common/ota\aws_test_ota_pal.c ****     if( CKR_OK == xResult )
 276:D:/Work/DeviceTester/amazon-freertos/tests/common/ota\aws_test_ota_pal.c ****     {
 277:D:/Work/DeviceTester/amazon-freertos/tests/common/ota\aws_test_ota_pal.c ****         xResult = xFunctionList->C_OpenSession( xSlotId, CKF_SERIAL_SESSION, NULL, NULL, &xSession 
 278:D:/Work/DeviceTester/amazon-freertos/tests/common/ota\aws_test_ota_pal.c ****     }
 279:D:/Work/DeviceTester/amazon-freertos/tests/common/ota\aws_test_ota_pal.c **** 
 280:D:/Work/DeviceTester/amazon-freertos/tests/common/ota\aws_test_ota_pal.c ****     if( CKR_OK == xResult )
 281:D:/Work/DeviceTester/amazon-freertos/tests/common/ota\aws_test_ota_pal.c ****     {
 282:D:/Work/DeviceTester/amazon-freertos/tests/common/ota\aws_test_ota_pal.c ****         xSessionOpen = CK_TRUE;
 283:D:/Work/DeviceTester/amazon-freertos/tests/common/ota\aws_test_ota_pal.c ****         xResult = xProvisionCertificate( xSession,
 284:D:/Work/DeviceTester/amazon-freertos/tests/common/ota\aws_test_ota_pal.c ****                                          ( uint8_t * ) pucCertificate,
 285:D:/Work/DeviceTester/amazon-freertos/tests/common/ota\aws_test_ota_pal.c ****                                          xCertificateLength,
 286:D:/Work/DeviceTester/amazon-freertos/tests/common/ota\aws_test_ota_pal.c ****                                          pucLabel,
 287:D:/Work/DeviceTester/amazon-freertos/tests/common/ota\aws_test_ota_pal.c ****                                          &xHandle );
 288:D:/Work/DeviceTester/amazon-freertos/tests/common/ota\aws_test_ota_pal.c ****     }
 289:D:/Work/DeviceTester/amazon-freertos/tests/common/ota\aws_test_ota_pal.c **** 
 290:D:/Work/DeviceTester/amazon-freertos/tests/common/ota\aws_test_ota_pal.c ****     if( xSessionOpen == CK_TRUE )
 291:D:/Work/DeviceTester/amazon-freertos/tests/common/ota\aws_test_ota_pal.c ****     {
 292:D:/Work/DeviceTester/amazon-freertos/tests/common/ota\aws_test_ota_pal.c ****         xResult = xFunctionList->C_CloseSession( xSession );
 293:D:/Work/DeviceTester/amazon-freertos/tests/common/ota\aws_test_ota_pal.c ****     }
 294:D:/Work/DeviceTester/amazon-freertos/tests/common/ota\aws_test_ota_pal.c **** 
 295:D:/Work/DeviceTester/amazon-freertos/tests/common/ota\aws_test_ota_pal.c ****     return xResult;
 296:D:/Work/DeviceTester/amazon-freertos/tests/common/ota\aws_test_ota_pal.c **** }
 297:D:/Work/DeviceTester/amazon-freertos/tests/common/ota\aws_test_ota_pal.c **** 
 298:D:/Work/DeviceTester/amazon-freertos/tests/common/ota\aws_test_ota_pal.c **** /**
 299:D:/Work/DeviceTester/amazon-freertos/tests/common/ota\aws_test_ota_pal.c ****  * @brief Test prvPAL_CloseFile with a valid signature and signature verification
 300:D:/Work/DeviceTester/amazon-freertos/tests/common/ota\aws_test_ota_pal.c ****  * certificate when the code verification key has already been imported to flash.
 301:D:/Work/DeviceTester/amazon-freertos/tests/common/ota\aws_test_ota_pal.c ****  * Verify the success.
 302:D:/Work/DeviceTester/amazon-freertos/tests/common/ota\aws_test_ota_pal.c ****  */
 303:D:/Work/DeviceTester/amazon-freertos/tests/common/ota\aws_test_ota_pal.c **** TEST( Full_OTA_PAL, prvPAL_CloseFile_ValidSignatureKeyInFlash )
 304:D:/Work/DeviceTester/amazon-freertos/tests/common/ota\aws_test_ota_pal.c **** {
 305:D:/Work/DeviceTester/amazon-freertos/tests/common/ota\aws_test_ota_pal.c ****     OTA_Err_t xOtaStatus;
 306:D:/Work/DeviceTester/amazon-freertos/tests/common/ota\aws_test_ota_pal.c ****     Sig256_t xSig = { 0 };
 307:D:/Work/DeviceTester/amazon-freertos/tests/common/ota\aws_test_ota_pal.c ****     CK_RV xResult;
 308:D:/Work/DeviceTester/amazon-freertos/tests/common/ota\aws_test_ota_pal.c **** 
 309:D:/Work/DeviceTester/amazon-freertos/tests/common/ota\aws_test_ota_pal.c ****     /* Import the code signing certificate into NVM using the PKCS #11 module. */
 310:D:/Work/DeviceTester/amazon-freertos/tests/common/ota\aws_test_ota_pal.c ****     xResult = prvImportCodeSigningCertificate( signingcredentialSIGNING_CERTIFICATE_PEM,
 311:D:/Work/DeviceTester/amazon-freertos/tests/common/ota\aws_test_ota_pal.c ****                                                sizeof( signingcredentialSIGNING_CERTIFICATE_PEM ),
 312:D:/Work/DeviceTester/amazon-freertos/tests/common/ota\aws_test_ota_pal.c ****                                                pkcs11configLABEL_CODE_VERIFICATION_KEY );
 313:D:/Work/DeviceTester/amazon-freertos/tests/common/ota\aws_test_ota_pal.c ****     TEST_ASSERT_EQUAL( CKR_OK, xResult );
 314:D:/Work/DeviceTester/amazon-freertos/tests/common/ota\aws_test_ota_pal.c **** 
 315:D:/Work/DeviceTester/amazon-freertos/tests/common/ota\aws_test_ota_pal.c ****     /* We use a dummy file name here because closing the system designated bootable
 316:D:/Work/DeviceTester/amazon-freertos/tests/common/ota\aws_test_ota_pal.c ****      * image with content that is not runnable may cause issues. */
 317:D:/Work/DeviceTester/amazon-freertos/tests/common/ota\aws_test_ota_pal.c ****     /* xOtaFile.pucFilePath = otatestpalFIRMWARE_FILE; */
 318:D:/Work/DeviceTester/amazon-freertos/tests/common/ota\aws_test_ota_pal.c ****     xOtaFile.pucFilePath = ( uint8_t * ) ( "test_happy_path_image.bin" );
 319:D:/Work/DeviceTester/amazon-freertos/tests/common/ota\aws_test_ota_pal.c ****     xOtaStatus = prvPAL_CreateFileForRx( &xOtaFile );
 320:D:/Work/DeviceTester/amazon-freertos/tests/common/ota\aws_test_ota_pal.c ****     TEST_ASSERT_EQUAL( kOTA_Err_None, xOtaStatus );
 321:D:/Work/DeviceTester/amazon-freertos/tests/common/ota\aws_test_ota_pal.c **** 
 322:D:/Work/DeviceTester/amazon-freertos/tests/common/ota\aws_test_ota_pal.c ****     /* We still want to close the file if the test fails somewhere here. */
 323:D:/Work/DeviceTester/amazon-freertos/tests/common/ota\aws_test_ota_pal.c ****     if( TEST_PROTECT() )
 324:D:/Work/DeviceTester/amazon-freertos/tests/common/ota\aws_test_ota_pal.c ****     {
 325:D:/Work/DeviceTester/amazon-freertos/tests/common/ota\aws_test_ota_pal.c ****         /* Write data to the file. */
 326:D:/Work/DeviceTester/amazon-freertos/tests/common/ota\aws_test_ota_pal.c ****         xOtaStatus = prvPAL_WriteBlock( &xOtaFile,
 327:D:/Work/DeviceTester/amazon-freertos/tests/common/ota\aws_test_ota_pal.c ****                                         0,
 328:D:/Work/DeviceTester/amazon-freertos/tests/common/ota\aws_test_ota_pal.c ****                                         ucDummyData,
 329:D:/Work/DeviceTester/amazon-freertos/tests/common/ota\aws_test_ota_pal.c ****                                         sizeof( ucDummyData ) );
 330:D:/Work/DeviceTester/amazon-freertos/tests/common/ota\aws_test_ota_pal.c ****         TEST_ASSERT_EQUAL( sizeof( ucDummyData ), xOtaStatus );
 331:D:/Work/DeviceTester/amazon-freertos/tests/common/ota\aws_test_ota_pal.c **** 
 332:D:/Work/DeviceTester/amazon-freertos/tests/common/ota\aws_test_ota_pal.c ****         xOtaFile.pxSignature = &xSig;
 333:D:/Work/DeviceTester/amazon-freertos/tests/common/ota\aws_test_ota_pal.c ****         xOtaFile.pxSignature->usSize = ucValidSignatureLength;
 334:D:/Work/DeviceTester/amazon-freertos/tests/common/ota\aws_test_ota_pal.c ****         memcpy( xOtaFile.pxSignature->ucData, ucValidSignature, ucValidSignatureLength );
 335:D:/Work/DeviceTester/amazon-freertos/tests/common/ota\aws_test_ota_pal.c ****         /* The PKCS #11 label is used to retrieve the code signing certificate. */
 336:D:/Work/DeviceTester/amazon-freertos/tests/common/ota\aws_test_ota_pal.c ****         xOtaFile.pucCertFilepath = ( uint8_t * ) pkcs11configLABEL_CODE_VERIFICATION_KEY;
 337:D:/Work/DeviceTester/amazon-freertos/tests/common/ota\aws_test_ota_pal.c **** 
 338:D:/Work/DeviceTester/amazon-freertos/tests/common/ota\aws_test_ota_pal.c ****         xOtaStatus = prvPAL_CloseFile( &xOtaFile );
 339:D:/Work/DeviceTester/amazon-freertos/tests/common/ota\aws_test_ota_pal.c ****         TEST_ASSERT_EQUAL_INT( kOTA_Err_None, xOtaStatus );
 340:D:/Work/DeviceTester/amazon-freertos/tests/common/ota\aws_test_ota_pal.c ****     }
 341:D:/Work/DeviceTester/amazon-freertos/tests/common/ota\aws_test_ota_pal.c **** }
 342:D:/Work/DeviceTester/amazon-freertos/tests/common/ota\aws_test_ota_pal.c **** 
 343:D:/Work/DeviceTester/amazon-freertos/tests/common/ota\aws_test_ota_pal.c **** 
 344:D:/Work/DeviceTester/amazon-freertos/tests/common/ota\aws_test_ota_pal.c **** /**
 345:D:/Work/DeviceTester/amazon-freertos/tests/common/ota\aws_test_ota_pal.c ****  * @brief Call prvPAL_CloseFile with an invalid signature in the file context.
 346:D:/Work/DeviceTester/amazon-freertos/tests/common/ota\aws_test_ota_pal.c ****  * The close is called after we have a written a block of dummy data to the file.
 347:D:/Work/DeviceTester/amazon-freertos/tests/common/ota\aws_test_ota_pal.c ****  * Verify the correct OTA Agent level error code is returned from prvPAL_CloseFile.
 348:D:/Work/DeviceTester/amazon-freertos/tests/common/ota\aws_test_ota_pal.c ****  */
 349:D:/Work/DeviceTester/amazon-freertos/tests/common/ota\aws_test_ota_pal.c **** TEST( Full_OTA_PAL, prvPAL_CloseFile_InvalidSignatureBlockWritten )
 350:D:/Work/DeviceTester/amazon-freertos/tests/common/ota\aws_test_ota_pal.c **** {
 351:D:/Work/DeviceTester/amazon-freertos/tests/common/ota\aws_test_ota_pal.c ****     OTA_Err_t xOtaStatus;
 352:D:/Work/DeviceTester/amazon-freertos/tests/common/ota\aws_test_ota_pal.c ****     Sig256_t xSig = { 0 };
 353:D:/Work/DeviceTester/amazon-freertos/tests/common/ota\aws_test_ota_pal.c **** 
 354:D:/Work/DeviceTester/amazon-freertos/tests/common/ota\aws_test_ota_pal.c ****     /* Create a local file using the PAL. */
 355:D:/Work/DeviceTester/amazon-freertos/tests/common/ota\aws_test_ota_pal.c ****     xOtaFile.pucFilePath = ( uint8_t * ) otatestpalFIRMWARE_FILE;
 356:D:/Work/DeviceTester/amazon-freertos/tests/common/ota\aws_test_ota_pal.c ****     xOtaStatus = prvPAL_CreateFileForRx( &xOtaFile );
 357:D:/Work/DeviceTester/amazon-freertos/tests/common/ota\aws_test_ota_pal.c ****     TEST_ASSERT_EQUAL( kOTA_Err_None, xOtaStatus );
 358:D:/Work/DeviceTester/amazon-freertos/tests/common/ota\aws_test_ota_pal.c **** 
 359:D:/Work/DeviceTester/amazon-freertos/tests/common/ota\aws_test_ota_pal.c ****     /* We still want to close the file if the test fails somewhere here. */
 360:D:/Work/DeviceTester/amazon-freertos/tests/common/ota\aws_test_ota_pal.c ****     if( TEST_PROTECT() )
 361:D:/Work/DeviceTester/amazon-freertos/tests/common/ota\aws_test_ota_pal.c ****     {
 362:D:/Work/DeviceTester/amazon-freertos/tests/common/ota\aws_test_ota_pal.c ****         /* Write data to the file. */
 363:D:/Work/DeviceTester/amazon-freertos/tests/common/ota\aws_test_ota_pal.c ****         xOtaStatus = prvPAL_WriteBlock( &xOtaFile,
 364:D:/Work/DeviceTester/amazon-freertos/tests/common/ota\aws_test_ota_pal.c ****                                         0,
 365:D:/Work/DeviceTester/amazon-freertos/tests/common/ota\aws_test_ota_pal.c ****                                         ucDummyData,
 366:D:/Work/DeviceTester/amazon-freertos/tests/common/ota\aws_test_ota_pal.c ****                                         sizeof( ucDummyData ) );
 367:D:/Work/DeviceTester/amazon-freertos/tests/common/ota\aws_test_ota_pal.c ****         TEST_ASSERT_EQUAL( sizeof( ucDummyData ), xOtaStatus );
 368:D:/Work/DeviceTester/amazon-freertos/tests/common/ota\aws_test_ota_pal.c **** 
 369:D:/Work/DeviceTester/amazon-freertos/tests/common/ota\aws_test_ota_pal.c ****         /* Fill out an incorrect signature. */
 370:D:/Work/DeviceTester/amazon-freertos/tests/common/ota\aws_test_ota_pal.c ****         xOtaFile.pxSignature = &xSig;
 371:D:/Work/DeviceTester/amazon-freertos/tests/common/ota\aws_test_ota_pal.c ****         xOtaFile.pxSignature->usSize = ucInvalidSignatureLength;
 372:D:/Work/DeviceTester/amazon-freertos/tests/common/ota\aws_test_ota_pal.c ****         memcpy( xOtaFile.pxSignature->ucData, ucInvalidSignature, ucInvalidSignatureLength );
 373:D:/Work/DeviceTester/amazon-freertos/tests/common/ota\aws_test_ota_pal.c ****         xOtaFile.pucCertFilepath = ( uint8_t * ) otatestpalCERTIFICATE_FILE;
 374:D:/Work/DeviceTester/amazon-freertos/tests/common/ota\aws_test_ota_pal.c **** 
 375:D:/Work/DeviceTester/amazon-freertos/tests/common/ota\aws_test_ota_pal.c ****         /* Try to close the file. */
 376:D:/Work/DeviceTester/amazon-freertos/tests/common/ota\aws_test_ota_pal.c ****         xOtaStatus = prvPAL_CloseFile( &xOtaFile );
 377:D:/Work/DeviceTester/amazon-freertos/tests/common/ota\aws_test_ota_pal.c **** 
 378:D:/Work/DeviceTester/amazon-freertos/tests/common/ota\aws_test_ota_pal.c ****         if( ( kOTA_Err_BadSignerCert != ( xOtaStatus & ~kOTA_PAL_ErrMask ) ) &&
 379:D:/Work/DeviceTester/amazon-freertos/tests/common/ota\aws_test_ota_pal.c ****             ( kOTA_Err_SignatureCheckFailed != ( xOtaStatus & ~kOTA_PAL_ErrMask ) ) &&
 380:D:/Work/DeviceTester/amazon-freertos/tests/common/ota\aws_test_ota_pal.c ****             ( kOTA_Err_FileClose != ( xOtaStatus & ~kOTA_PAL_ErrMask ) ) )
 381:D:/Work/DeviceTester/amazon-freertos/tests/common/ota\aws_test_ota_pal.c ****         {
 382:D:/Work/DeviceTester/amazon-freertos/tests/common/ota\aws_test_ota_pal.c ****             TEST_ASSERT_TRUE( 0 );
 383:D:/Work/DeviceTester/amazon-freertos/tests/common/ota\aws_test_ota_pal.c ****         }
 384:D:/Work/DeviceTester/amazon-freertos/tests/common/ota\aws_test_ota_pal.c ****     }
 385:D:/Work/DeviceTester/amazon-freertos/tests/common/ota\aws_test_ota_pal.c **** }
 386:D:/Work/DeviceTester/amazon-freertos/tests/common/ota\aws_test_ota_pal.c **** 
 387:D:/Work/DeviceTester/amazon-freertos/tests/common/ota\aws_test_ota_pal.c **** /**
 388:D:/Work/DeviceTester/amazon-freertos/tests/common/ota\aws_test_ota_pal.c ****  * @brief Call prvPAL_CloseFile with an invalid signature in the file context.
 389:D:/Work/DeviceTester/amazon-freertos/tests/common/ota\aws_test_ota_pal.c ****  * The close is called when no blocks have been written to the file.
 390:D:/Work/DeviceTester/amazon-freertos/tests/common/ota\aws_test_ota_pal.c ****  * Verify the correct OTA Agent level error code is returned from prvPAL_CloseFile.
 391:D:/Work/DeviceTester/amazon-freertos/tests/common/ota\aws_test_ota_pal.c ****  */
 392:D:/Work/DeviceTester/amazon-freertos/tests/common/ota\aws_test_ota_pal.c **** TEST( Full_OTA_PAL, prvPAL_CloseFile_InvalidSignatureNoBlockWritten )
 393:D:/Work/DeviceTester/amazon-freertos/tests/common/ota\aws_test_ota_pal.c **** {
 394:D:/Work/DeviceTester/amazon-freertos/tests/common/ota\aws_test_ota_pal.c ****     OTA_Err_t xOtaStatus;
 395:D:/Work/DeviceTester/amazon-freertos/tests/common/ota\aws_test_ota_pal.c ****     Sig256_t xSig = { 0 };
 396:D:/Work/DeviceTester/amazon-freertos/tests/common/ota\aws_test_ota_pal.c **** 
 397:D:/Work/DeviceTester/amazon-freertos/tests/common/ota\aws_test_ota_pal.c ****     /* Create a local file using the PAL. */
 398:D:/Work/DeviceTester/amazon-freertos/tests/common/ota\aws_test_ota_pal.c ****     xOtaFile.pucFilePath = ( uint8_t * ) otatestpalFIRMWARE_FILE;
 399:D:/Work/DeviceTester/amazon-freertos/tests/common/ota\aws_test_ota_pal.c ****     xOtaStatus = prvPAL_CreateFileForRx( &xOtaFile );
 400:D:/Work/DeviceTester/amazon-freertos/tests/common/ota\aws_test_ota_pal.c ****     TEST_ASSERT_EQUAL( kOTA_Err_None, xOtaStatus );
 401:D:/Work/DeviceTester/amazon-freertos/tests/common/ota\aws_test_ota_pal.c **** 
 402:D:/Work/DeviceTester/amazon-freertos/tests/common/ota\aws_test_ota_pal.c ****     /* Fill out an incorrect signature. */
 403:D:/Work/DeviceTester/amazon-freertos/tests/common/ota\aws_test_ota_pal.c ****     xOtaFile.pxSignature = &xSig;
 404:D:/Work/DeviceTester/amazon-freertos/tests/common/ota\aws_test_ota_pal.c ****     xOtaFile.pxSignature->usSize = ucInvalidSignatureLength;
 405:D:/Work/DeviceTester/amazon-freertos/tests/common/ota\aws_test_ota_pal.c ****     memcpy( xOtaFile.pxSignature->ucData, ucInvalidSignature, ucInvalidSignatureLength );
 406:D:/Work/DeviceTester/amazon-freertos/tests/common/ota\aws_test_ota_pal.c ****     xOtaFile.pucCertFilepath = ( uint8_t * ) otatestpalCERTIFICATE_FILE;
 407:D:/Work/DeviceTester/amazon-freertos/tests/common/ota\aws_test_ota_pal.c **** 
 408:D:/Work/DeviceTester/amazon-freertos/tests/common/ota\aws_test_ota_pal.c ****     /* We still want to close the file if the test fails somewhere here. */
 409:D:/Work/DeviceTester/amazon-freertos/tests/common/ota\aws_test_ota_pal.c ****     if( TEST_PROTECT() )
 410:D:/Work/DeviceTester/amazon-freertos/tests/common/ota\aws_test_ota_pal.c ****     {
 411:D:/Work/DeviceTester/amazon-freertos/tests/common/ota\aws_test_ota_pal.c ****         /* Try to close the file. */
 412:D:/Work/DeviceTester/amazon-freertos/tests/common/ota\aws_test_ota_pal.c ****         xOtaStatus = prvPAL_CloseFile( &xOtaFile );
 413:D:/Work/DeviceTester/amazon-freertos/tests/common/ota\aws_test_ota_pal.c **** 
 414:D:/Work/DeviceTester/amazon-freertos/tests/common/ota\aws_test_ota_pal.c ****         if( ( kOTA_Err_BadSignerCert != ( xOtaStatus & ~kOTA_PAL_ErrMask ) ) &&
 415:D:/Work/DeviceTester/amazon-freertos/tests/common/ota\aws_test_ota_pal.c ****             ( kOTA_Err_SignatureCheckFailed != ( xOtaStatus & ~kOTA_PAL_ErrMask ) ) &&
 416:D:/Work/DeviceTester/amazon-freertos/tests/common/ota\aws_test_ota_pal.c ****             ( kOTA_Err_FileClose != ( xOtaStatus & ~kOTA_PAL_ErrMask ) ) )
 417:D:/Work/DeviceTester/amazon-freertos/tests/common/ota\aws_test_ota_pal.c ****         {
 418:D:/Work/DeviceTester/amazon-freertos/tests/common/ota\aws_test_ota_pal.c ****             TEST_ASSERT_TRUE( 0 );
 419:D:/Work/DeviceTester/amazon-freertos/tests/common/ota\aws_test_ota_pal.c ****         }
 420:D:/Work/DeviceTester/amazon-freertos/tests/common/ota\aws_test_ota_pal.c ****     }
 421:D:/Work/DeviceTester/amazon-freertos/tests/common/ota\aws_test_ota_pal.c **** }
 422:D:/Work/DeviceTester/amazon-freertos/tests/common/ota\aws_test_ota_pal.c **** 
 423:D:/Work/DeviceTester/amazon-freertos/tests/common/ota\aws_test_ota_pal.c **** /**
 424:D:/Work/DeviceTester/amazon-freertos/tests/common/ota\aws_test_ota_pal.c ****  * @brief Call prvPAL_CloseFile with a signature verification certificate path does
 425:D:/Work/DeviceTester/amazon-freertos/tests/common/ota\aws_test_ota_pal.c ****  * not exist in the system. Verify the correct OTA Agent level error code is returned
 426:D:/Work/DeviceTester/amazon-freertos/tests/common/ota\aws_test_ota_pal.c ****  * from prvPAL_CloseFile.
 427:D:/Work/DeviceTester/amazon-freertos/tests/common/ota\aws_test_ota_pal.c ****  *
 428:D:/Work/DeviceTester/amazon-freertos/tests/common/ota\aws_test_ota_pal.c ****  * @note This test is only valid if your device uses a file system in your non-volatile memory.
 429:D:/Work/DeviceTester/amazon-freertos/tests/common/ota\aws_test_ota_pal.c ****  * Some devices may revert to using aws_codesigner_certificate.h if a file is not found, but
 430:D:/Work/DeviceTester/amazon-freertos/tests/common/ota\aws_test_ota_pal.c ****  * that option is not being enforced.
 431:D:/Work/DeviceTester/amazon-freertos/tests/common/ota\aws_test_ota_pal.c ****  */
 432:D:/Work/DeviceTester/amazon-freertos/tests/common/ota\aws_test_ota_pal.c **** TEST( Full_OTA_PAL, prvPAL_CloseFile_NonexistingCodeSignerCertificate )
 433:D:/Work/DeviceTester/amazon-freertos/tests/common/ota\aws_test_ota_pal.c **** {
 434:D:/Work/DeviceTester/amazon-freertos/tests/common/ota\aws_test_ota_pal.c ****     OTA_Err_t xOtaStatus;
 435:D:/Work/DeviceTester/amazon-freertos/tests/common/ota\aws_test_ota_pal.c ****     Sig256_t xSig = { 0 };
 436:D:/Work/DeviceTester/amazon-freertos/tests/common/ota\aws_test_ota_pal.c **** 
 437:D:/Work/DeviceTester/amazon-freertos/tests/common/ota\aws_test_ota_pal.c ****     memset( &xOtaFile, 0, sizeof( xOtaFile ) );
 438:D:/Work/DeviceTester/amazon-freertos/tests/common/ota\aws_test_ota_pal.c **** 
 439:D:/Work/DeviceTester/amazon-freertos/tests/common/ota\aws_test_ota_pal.c ****     /* Create a local file using the PAL. */
 440:D:/Work/DeviceTester/amazon-freertos/tests/common/ota\aws_test_ota_pal.c ****     xOtaFile.pucFilePath = ( uint8_t * ) otatestpalFIRMWARE_FILE;
 441:D:/Work/DeviceTester/amazon-freertos/tests/common/ota\aws_test_ota_pal.c ****     xOtaStatus = prvPAL_CreateFileForRx( &xOtaFile );
 442:D:/Work/DeviceTester/amazon-freertos/tests/common/ota\aws_test_ota_pal.c ****     TEST_ASSERT_EQUAL( kOTA_Err_None, xOtaStatus );
 443:D:/Work/DeviceTester/amazon-freertos/tests/common/ota\aws_test_ota_pal.c **** 
 444:D:/Work/DeviceTester/amazon-freertos/tests/common/ota\aws_test_ota_pal.c ****     /* We still want to close the file if the test fails somewhere here. */
 445:D:/Work/DeviceTester/amazon-freertos/tests/common/ota\aws_test_ota_pal.c ****     if( TEST_PROTECT() )
 446:D:/Work/DeviceTester/amazon-freertos/tests/common/ota\aws_test_ota_pal.c ****     {
 447:D:/Work/DeviceTester/amazon-freertos/tests/common/ota\aws_test_ota_pal.c ****         /* Write data to the file. */
 448:D:/Work/DeviceTester/amazon-freertos/tests/common/ota\aws_test_ota_pal.c ****         xOtaStatus = prvPAL_WriteBlock( &xOtaFile,
 449:D:/Work/DeviceTester/amazon-freertos/tests/common/ota\aws_test_ota_pal.c ****                                         0,
 450:D:/Work/DeviceTester/amazon-freertos/tests/common/ota\aws_test_ota_pal.c ****                                         ucDummyData,
 451:D:/Work/DeviceTester/amazon-freertos/tests/common/ota\aws_test_ota_pal.c ****                                         sizeof( ucDummyData ) );
 452:D:/Work/DeviceTester/amazon-freertos/tests/common/ota\aws_test_ota_pal.c ****         TEST_ASSERT_EQUAL( sizeof( ucDummyData ), xOtaStatus );
 453:D:/Work/DeviceTester/amazon-freertos/tests/common/ota\aws_test_ota_pal.c **** 
 454:D:/Work/DeviceTester/amazon-freertos/tests/common/ota\aws_test_ota_pal.c ****         /* Check the signature (not expected to be valid in this case). */
 455:D:/Work/DeviceTester/amazon-freertos/tests/common/ota\aws_test_ota_pal.c ****         xOtaFile.pxSignature = &xSig;
 456:D:/Work/DeviceTester/amazon-freertos/tests/common/ota\aws_test_ota_pal.c ****         xOtaFile.pxSignature->usSize = ucValidSignatureLength;
 457:D:/Work/DeviceTester/amazon-freertos/tests/common/ota\aws_test_ota_pal.c ****         memcpy( xOtaFile.pxSignature->ucData, ucValidSignature, ucValidSignatureLength );
 458:D:/Work/DeviceTester/amazon-freertos/tests/common/ota\aws_test_ota_pal.c ****         xOtaFile.pucCertFilepath = ( uint8_t * ) ( "nonexistingfile.crt" );
 459:D:/Work/DeviceTester/amazon-freertos/tests/common/ota\aws_test_ota_pal.c **** 
 460:D:/Work/DeviceTester/amazon-freertos/tests/common/ota\aws_test_ota_pal.c ****         xOtaStatus = prvPAL_CloseFile( &xOtaFile );
 461:D:/Work/DeviceTester/amazon-freertos/tests/common/ota\aws_test_ota_pal.c **** 
 462:D:/Work/DeviceTester/amazon-freertos/tests/common/ota\aws_test_ota_pal.c ****         if( ( kOTA_Err_BadSignerCert != ( xOtaStatus & ~kOTA_PAL_ErrMask ) ) &&
 463:D:/Work/DeviceTester/amazon-freertos/tests/common/ota\aws_test_ota_pal.c ****             ( kOTA_Err_SignatureCheckFailed != ( xOtaStatus & ~kOTA_PAL_ErrMask ) ) &&
 464:D:/Work/DeviceTester/amazon-freertos/tests/common/ota\aws_test_ota_pal.c ****             ( kOTA_Err_FileClose != ( xOtaStatus & ~kOTA_PAL_ErrMask ) ) )
 465:D:/Work/DeviceTester/amazon-freertos/tests/common/ota\aws_test_ota_pal.c ****         {
 466:D:/Work/DeviceTester/amazon-freertos/tests/common/ota\aws_test_ota_pal.c ****             TEST_ASSERT_TRUE( 0 );
 467:D:/Work/DeviceTester/amazon-freertos/tests/common/ota\aws_test_ota_pal.c ****         }
 468:D:/Work/DeviceTester/amazon-freertos/tests/common/ota\aws_test_ota_pal.c ****     }
 469:D:/Work/DeviceTester/amazon-freertos/tests/common/ota\aws_test_ota_pal.c **** }
 470:D:/Work/DeviceTester/amazon-freertos/tests/common/ota\aws_test_ota_pal.c **** 
 471:D:/Work/DeviceTester/amazon-freertos/tests/common/ota\aws_test_ota_pal.c **** /**
 472:D:/Work/DeviceTester/amazon-freertos/tests/common/ota\aws_test_ota_pal.c ****  * @brief Create a file with any name, and verify success.
 473:D:/Work/DeviceTester/amazon-freertos/tests/common/ota\aws_test_ota_pal.c ****  */
 474:D:/Work/DeviceTester/amazon-freertos/tests/common/ota\aws_test_ota_pal.c **** TEST( Full_OTA_PAL, prvPAL_CreateFileForRx_CreateAnyFile )
 475:D:/Work/DeviceTester/amazon-freertos/tests/common/ota\aws_test_ota_pal.c **** {
  96              		.loc 1 475 0
  97              		.cfi_startproc
  98              		@ args = 0, pretend = 0, frame = 0
  99              		@ frame_needed = 0, uses_anonymous_args = 0
 100 0000 13402DE9 		push	{r0, r1, r4, lr}
 101              		.cfi_def_cfa_offset 16
 102              		.cfi_offset 4, -8
 103              		.cfi_offset 14, -4
 476:D:/Work/DeviceTester/amazon-freertos/tests/common/ota\aws_test_ota_pal.c ****     OTA_Err_t xOtaStatus;
 477:D:/Work/DeviceTester/amazon-freertos/tests/common/ota\aws_test_ota_pal.c **** 
 478:D:/Work/DeviceTester/amazon-freertos/tests/common/ota\aws_test_ota_pal.c ****     memset( &xOtaFile, 0, sizeof( OTA_FileContext_t ) );
 104              		.loc 1 478 0
 105 0004 3C20A0E3 		mov	r2, #60
 106 0008 3C409FE5 		ldr	r4, .L11
 107 000c 0010A0E3 		mov	r1, #0
 108 0010 0400A0E1 		mov	r0, r4
 109 0014 FEFFFFEB 		bl	memset
 110              	.LVL4:
 479:D:/Work/DeviceTester/amazon-freertos/tests/common/ota\aws_test_ota_pal.c **** 
 480:D:/Work/DeviceTester/amazon-freertos/tests/common/ota\aws_test_ota_pal.c ****     /* TEST: Create a local file using the PAL. Verify error in close. */
 481:D:/Work/DeviceTester/amazon-freertos/tests/common/ota\aws_test_ota_pal.c ****     xOtaFile.pucFilePath = ( uint8_t * ) otatestpalFIRMWARE_FILE;
 111              		.loc 1 481 0
 112 0018 30309FE5 		ldr	r3, .L11+4
 482:D:/Work/DeviceTester/amazon-freertos/tests/common/ota\aws_test_ota_pal.c ****     xOtaStatus = prvPAL_CreateFileForRx( &xOtaFile );
 113              		.loc 1 482 0
 114 001c 0400A0E1 		mov	r0, r4
 481:D:/Work/DeviceTester/amazon-freertos/tests/common/ota\aws_test_ota_pal.c ****     xOtaStatus = prvPAL_CreateFileForRx( &xOtaFile );
 115              		.loc 1 481 0
 116 0020 003084E5 		str	r3, [r4]
 117              		.loc 1 482 0
 118 0024 FEFFFFEB 		bl	prvPAL_CreateFileForRx
 119              	.LVL5:
 483:D:/Work/DeviceTester/amazon-freertos/tests/common/ota\aws_test_ota_pal.c ****     TEST_ASSERT_EQUAL( kOTA_Err_None, xOtaStatus );
 120              		.loc 1 483 0
 121 0028 0020A0E3 		mov	r2, #0
 122 002c 1430A0E3 		mov	r3, #20
 123 0030 00308DE5 		str	r3, [sp]
 124 0034 0010A0E1 		mov	r1, r0
 125 0038 E33100E3 		movw	r3, #483
 126 003c 0200A0E1 		mov	r0, r2
 127              	.LVL6:
 128 0040 FEFFFFEB 		bl	UnityAssertEqualNumber
 129              	.LVL7:
 484:D:/Work/DeviceTester/amazon-freertos/tests/common/ota\aws_test_ota_pal.c **** }
 130              		.loc 1 484 0
 131 0044 08D08DE2 		add	sp, sp, #8
 132              		.cfi_def_cfa_offset 8
 133              		@ sp needed
 134 0048 1080BDE8 		pop	{r4, pc}
 135              	.L12:
 136              		.align	2
 137              	.L11:
 138 004c 00000000 		.word	.LANCHOR0
 139 0050 00000000 		.word	.LC1
 140              		.cfi_endproc
 141              	.LFE16:
 143              		.section	.text.TEST_Full_OTA_PAL_prvPAL_Abort_OpenFile_,"ax",%progbits
 144              		.align	2
 145              		.global	TEST_Full_OTA_PAL_prvPAL_Abort_OpenFile_
 146              		.syntax unified
 147              		.arm
 148              		.fpu neon
 150              	TEST_Full_OTA_PAL_prvPAL_Abort_OpenFile_:
 151              	.LFB18:
 485:D:/Work/DeviceTester/amazon-freertos/tests/common/ota\aws_test_ota_pal.c **** 
 486:D:/Work/DeviceTester/amazon-freertos/tests/common/ota\aws_test_ota_pal.c **** /**
 487:D:/Work/DeviceTester/amazon-freertos/tests/common/ota\aws_test_ota_pal.c ****  * @brief Abort on an open file. Verify success.
 488:D:/Work/DeviceTester/amazon-freertos/tests/common/ota\aws_test_ota_pal.c ****  */
 489:D:/Work/DeviceTester/amazon-freertos/tests/common/ota\aws_test_ota_pal.c **** TEST( Full_OTA_PAL, prvPAL_Abort_OpenFile )
 490:D:/Work/DeviceTester/amazon-freertos/tests/common/ota\aws_test_ota_pal.c **** {
 152              		.loc 1 490 0
 153              		.cfi_startproc
 154              		@ args = 0, pretend = 0, frame = 0
 155              		@ frame_needed = 0, uses_anonymous_args = 0
 156 0000 37402DE9 		push	{r0, r1, r2, r4, r5, lr}
 157              		.cfi_def_cfa_offset 24
 158              		.cfi_offset 4, -12
 159              		.cfi_offset 5, -8
 160              		.cfi_offset 14, -4
 491:D:/Work/DeviceTester/amazon-freertos/tests/common/ota\aws_test_ota_pal.c ****     OTA_Err_t xOtaStatus;
 492:D:/Work/DeviceTester/amazon-freertos/tests/common/ota\aws_test_ota_pal.c **** 
 493:D:/Work/DeviceTester/amazon-freertos/tests/common/ota\aws_test_ota_pal.c ****     xOtaFile.pucFilePath = ( uint8_t * ) otatestpalFIRMWARE_FILE;
 494:D:/Work/DeviceTester/amazon-freertos/tests/common/ota\aws_test_ota_pal.c **** 
 495:D:/Work/DeviceTester/amazon-freertos/tests/common/ota\aws_test_ota_pal.c ****     /* Create a local file using the PAL. */
 496:D:/Work/DeviceTester/amazon-freertos/tests/common/ota\aws_test_ota_pal.c ****     xOtaStatus = prvPAL_CreateFileForRx( &xOtaFile );
 497:D:/Work/DeviceTester/amazon-freertos/tests/common/ota\aws_test_ota_pal.c ****     TEST_ASSERT_EQUAL( kOTA_Err_None, xOtaStatus );
 161              		.loc 1 497 0
 162 0004 1450A0E3 		mov	r5, #20
 493:D:/Work/DeviceTester/amazon-freertos/tests/common/ota\aws_test_ota_pal.c **** 
 163              		.loc 1 493 0
 164 0008 64409FE5 		ldr	r4, .L15
 165 000c 64309FE5 		ldr	r3, .L15+4
 496:D:/Work/DeviceTester/amazon-freertos/tests/common/ota\aws_test_ota_pal.c ****     TEST_ASSERT_EQUAL( kOTA_Err_None, xOtaStatus );
 166              		.loc 1 496 0
 167 0010 0400A0E1 		mov	r0, r4
 493:D:/Work/DeviceTester/amazon-freertos/tests/common/ota\aws_test_ota_pal.c **** 
 168              		.loc 1 493 0
 169 0014 003084E5 		str	r3, [r4]
 496:D:/Work/DeviceTester/amazon-freertos/tests/common/ota\aws_test_ota_pal.c ****     TEST_ASSERT_EQUAL( kOTA_Err_None, xOtaStatus );
 170              		.loc 1 496 0
 171 0018 FEFFFFEB 		bl	prvPAL_CreateFileForRx
 172              	.LVL8:
 173              		.loc 1 497 0
 174 001c 0020A0E3 		mov	r2, #0
 175 0020 0010A0E1 		mov	r1, r0
 176 0024 F13100E3 		movw	r3, #497
 177 0028 0200A0E1 		mov	r0, r2
 178              	.LVL9:
 179 002c 00508DE5 		str	r5, [sp]
 180 0030 FEFFFFEB 		bl	UnityAssertEqualNumber
 181              	.LVL10:
 498:D:/Work/DeviceTester/amazon-freertos/tests/common/ota\aws_test_ota_pal.c **** 
 499:D:/Work/DeviceTester/amazon-freertos/tests/common/ota\aws_test_ota_pal.c ****     /* Signal that the download is being aborted. */
 500:D:/Work/DeviceTester/amazon-freertos/tests/common/ota\aws_test_ota_pal.c ****     xOtaStatus = prvPAL_Abort( &xOtaFile );
 182              		.loc 1 500 0
 183 0034 0400A0E1 		mov	r0, r4
 184 0038 FEFFFFEB 		bl	prvPAL_Abort
 185              	.LVL11:
 501:D:/Work/DeviceTester/amazon-freertos/tests/common/ota\aws_test_ota_pal.c ****     TEST_ASSERT_EQUAL_INT( kOTA_Err_None, xOtaStatus );
 186              		.loc 1 501 0
 187 003c 0020A0E3 		mov	r2, #0
 188 0040 0010A0E1 		mov	r1, r0
 189 0044 00508DE5 		str	r5, [sp]
 190 0048 0200A0E1 		mov	r0, r2
 191              	.LVL12:
 192 004c F53100E3 		movw	r3, #501
 193 0050 FEFFFFEB 		bl	UnityAssertEqualNumber
 194              	.LVL13:
 502:D:/Work/DeviceTester/amazon-freertos/tests/common/ota\aws_test_ota_pal.c **** 
 503:D:/Work/DeviceTester/amazon-freertos/tests/common/ota\aws_test_ota_pal.c ****     /* Verify that the file handle is null. */
 504:D:/Work/DeviceTester/amazon-freertos/tests/common/ota\aws_test_ota_pal.c ****     TEST_ASSERT_EQUAL_INT( NULL, xOtaFile.pucFile );
 195              		.loc 1 504 0
 196 0054 0020A0E3 		mov	r2, #0
 197 0058 00508DE5 		str	r5, [sp]
 198 005c 7E3FA0E3 		mov	r3, #504
 199 0060 041094E5 		ldr	r1, [r4, #4]
 200 0064 0200A0E1 		mov	r0, r2
 201 0068 FEFFFFEB 		bl	UnityAssertEqualNumber
 202              	.LVL14:
 505:D:/Work/DeviceTester/amazon-freertos/tests/common/ota\aws_test_ota_pal.c **** }
 203              		.loc 1 505 0
 204 006c 0CD08DE2 		add	sp, sp, #12
 205              		.cfi_def_cfa_offset 12
 206              		@ sp needed
 207 0070 3080BDE8 		pop	{r4, r5, pc}
 208              	.L16:
 209              		.align	2
 210              	.L15:
 211 0074 00000000 		.word	.LANCHOR0
 212 0078 00000000 		.word	.LC1
 213              		.cfi_endproc
 214              	.LFE18:
 216              		.section	.text.TEST_Full_OTA_PAL_prvPAL_Abort_NullFileHandle_,"ax",%progbits
 217              		.align	2
 218              		.global	TEST_Full_OTA_PAL_prvPAL_Abort_NullFileHandle_
 219              		.syntax unified
 220              		.arm
 221              		.fpu neon
 223              	TEST_Full_OTA_PAL_prvPAL_Abort_NullFileHandle_:
 224              	.LFB22:
 506:D:/Work/DeviceTester/amazon-freertos/tests/common/ota\aws_test_ota_pal.c **** 
 507:D:/Work/DeviceTester/amazon-freertos/tests/common/ota\aws_test_ota_pal.c **** /**
 508:D:/Work/DeviceTester/amazon-freertos/tests/common/ota\aws_test_ota_pal.c ****  * @brief Abort after writing a block to an open file. Verify success.
 509:D:/Work/DeviceTester/amazon-freertos/tests/common/ota\aws_test_ota_pal.c ****  */
 510:D:/Work/DeviceTester/amazon-freertos/tests/common/ota\aws_test_ota_pal.c **** TEST( Full_OTA_PAL, prvPAL_Abort_FileWithBlockWritten )
 511:D:/Work/DeviceTester/amazon-freertos/tests/common/ota\aws_test_ota_pal.c **** {
 512:D:/Work/DeviceTester/amazon-freertos/tests/common/ota\aws_test_ota_pal.c ****     OTA_Err_t xOtaStatus;
 513:D:/Work/DeviceTester/amazon-freertos/tests/common/ota\aws_test_ota_pal.c **** 
 514:D:/Work/DeviceTester/amazon-freertos/tests/common/ota\aws_test_ota_pal.c ****     xOtaFile.pucFilePath = ( uint8_t * ) otatestpalFIRMWARE_FILE;
 515:D:/Work/DeviceTester/amazon-freertos/tests/common/ota\aws_test_ota_pal.c **** 
 516:D:/Work/DeviceTester/amazon-freertos/tests/common/ota\aws_test_ota_pal.c ****     /* Create a local file again using the PAL. */
 517:D:/Work/DeviceTester/amazon-freertos/tests/common/ota\aws_test_ota_pal.c ****     xOtaStatus = prvPAL_CreateFileForRx( &xOtaFile );
 518:D:/Work/DeviceTester/amazon-freertos/tests/common/ota\aws_test_ota_pal.c ****     TEST_ASSERT_EQUAL( kOTA_Err_None, xOtaStatus );
 519:D:/Work/DeviceTester/amazon-freertos/tests/common/ota\aws_test_ota_pal.c **** 
 520:D:/Work/DeviceTester/amazon-freertos/tests/common/ota\aws_test_ota_pal.c ****     /* We still want to close the file if the test fails here. */
 521:D:/Work/DeviceTester/amazon-freertos/tests/common/ota\aws_test_ota_pal.c ****     if( TEST_PROTECT() )
 522:D:/Work/DeviceTester/amazon-freertos/tests/common/ota\aws_test_ota_pal.c ****     {
 523:D:/Work/DeviceTester/amazon-freertos/tests/common/ota\aws_test_ota_pal.c ****         /* Write data to the file. */
 524:D:/Work/DeviceTester/amazon-freertos/tests/common/ota\aws_test_ota_pal.c ****         xOtaStatus = prvPAL_WriteBlock( &xOtaFile,
 525:D:/Work/DeviceTester/amazon-freertos/tests/common/ota\aws_test_ota_pal.c ****                                         0,
 526:D:/Work/DeviceTester/amazon-freertos/tests/common/ota\aws_test_ota_pal.c ****                                         ucDummyData,
 527:D:/Work/DeviceTester/amazon-freertos/tests/common/ota\aws_test_ota_pal.c ****                                         sizeof( ucDummyData ) );
 528:D:/Work/DeviceTester/amazon-freertos/tests/common/ota\aws_test_ota_pal.c ****         TEST_ASSERT_EQUAL( sizeof( ucDummyData ), xOtaStatus );
 529:D:/Work/DeviceTester/amazon-freertos/tests/common/ota\aws_test_ota_pal.c ****     }
 530:D:/Work/DeviceTester/amazon-freertos/tests/common/ota\aws_test_ota_pal.c **** 
 531:D:/Work/DeviceTester/amazon-freertos/tests/common/ota\aws_test_ota_pal.c ****     /* Signal that the download is being aborted. */
 532:D:/Work/DeviceTester/amazon-freertos/tests/common/ota\aws_test_ota_pal.c ****     xOtaStatus = prvPAL_Abort( &xOtaFile );
 533:D:/Work/DeviceTester/amazon-freertos/tests/common/ota\aws_test_ota_pal.c ****     TEST_ASSERT_EQUAL_INT( kOTA_Err_None, xOtaStatus );
 534:D:/Work/DeviceTester/amazon-freertos/tests/common/ota\aws_test_ota_pal.c **** 
 535:D:/Work/DeviceTester/amazon-freertos/tests/common/ota\aws_test_ota_pal.c ****     /* Verify that the file handle is null. */
 536:D:/Work/DeviceTester/amazon-freertos/tests/common/ota\aws_test_ota_pal.c ****     TEST_ASSERT_EQUAL_INT( NULL, xOtaFile.pucFile );
 537:D:/Work/DeviceTester/amazon-freertos/tests/common/ota\aws_test_ota_pal.c **** }
 538:D:/Work/DeviceTester/amazon-freertos/tests/common/ota\aws_test_ota_pal.c **** 
 539:D:/Work/DeviceTester/amazon-freertos/tests/common/ota\aws_test_ota_pal.c **** /**
 540:D:/Work/DeviceTester/amazon-freertos/tests/common/ota\aws_test_ota_pal.c ****  * @brief Call prvPAL_Abort on a NULL file handle. Verify there is no error.
 541:D:/Work/DeviceTester/amazon-freertos/tests/common/ota\aws_test_ota_pal.c ****  */
 542:D:/Work/DeviceTester/amazon-freertos/tests/common/ota\aws_test_ota_pal.c **** TEST( Full_OTA_PAL, prvPAL_Abort_NullFileHandle )
 543:D:/Work/DeviceTester/amazon-freertos/tests/common/ota\aws_test_ota_pal.c **** {
 225              		.loc 1 543 0
 226              		.cfi_startproc
 227              		@ args = 0, pretend = 0, frame = 0
 228              		@ frame_needed = 0, uses_anonymous_args = 0
 229 0000 13402DE9 		push	{r0, r1, r4, lr}
 230              		.cfi_def_cfa_offset 16
 231              		.cfi_offset 4, -8
 232              		.cfi_offset 14, -4
 544:D:/Work/DeviceTester/amazon-freertos/tests/common/ota\aws_test_ota_pal.c ****     OTA_Err_t xOtaStatus;
 545:D:/Work/DeviceTester/amazon-freertos/tests/common/ota\aws_test_ota_pal.c **** 
 546:D:/Work/DeviceTester/amazon-freertos/tests/common/ota\aws_test_ota_pal.c ****     xOtaFile.pucFilePath = ( uint8_t * ) otatestpalFIRMWARE_FILE;
 547:D:/Work/DeviceTester/amazon-freertos/tests/common/ota\aws_test_ota_pal.c **** 
 548:D:/Work/DeviceTester/amazon-freertos/tests/common/ota\aws_test_ota_pal.c ****     xOtaFile.lFileHandle = 0;
 233              		.loc 1 548 0
 234 0004 0040A0E3 		mov	r4, #0
 546:D:/Work/DeviceTester/amazon-freertos/tests/common/ota\aws_test_ota_pal.c **** 
 235              		.loc 1 546 0
 236 0008 30009FE5 		ldr	r0, .L19
 237 000c 30309FE5 		ldr	r3, .L19+4
 238              		.loc 1 548 0
 239 0010 044080E5 		str	r4, [r0, #4]
 546:D:/Work/DeviceTester/amazon-freertos/tests/common/ota\aws_test_ota_pal.c **** 
 240              		.loc 1 546 0
 241 0014 003080E5 		str	r3, [r0]
 549:D:/Work/DeviceTester/amazon-freertos/tests/common/ota\aws_test_ota_pal.c ****     xOtaStatus = prvPAL_Abort( &xOtaFile );
 242              		.loc 1 549 0
 243 0018 FEFFFFEB 		bl	prvPAL_Abort
 244              	.LVL15:
 550:D:/Work/DeviceTester/amazon-freertos/tests/common/ota\aws_test_ota_pal.c ****     TEST_ASSERT_EQUAL_INT( kOTA_Err_None, xOtaStatus );
 245              		.loc 1 550 0
 246 001c 1430A0E3 		mov	r3, #20
 247 0020 0010A0E1 		mov	r1, r0
 248 0024 00308DE5 		str	r3, [sp]
 249 0028 0420A0E1 		mov	r2, r4
 250 002c 263200E3 		movw	r3, #550
 251 0030 0400A0E1 		mov	r0, r4
 252              	.LVL16:
 253 0034 FEFFFFEB 		bl	UnityAssertEqualNumber
 254              	.LVL17:
 551:D:/Work/DeviceTester/amazon-freertos/tests/common/ota\aws_test_ota_pal.c **** }
 255              		.loc 1 551 0
 256 0038 08D08DE2 		add	sp, sp, #8
 257              		.cfi_def_cfa_offset 8
 258              		@ sp needed
 259 003c 1080BDE8 		pop	{r4, pc}
 260              	.L20:
 261              		.align	2
 262              	.L19:
 263 0040 00000000 		.word	.LANCHOR0
 264 0044 00000000 		.word	.LC1
 265              		.cfi_endproc
 266              	.LFE22:
 268              		.section	.text.TEST_Full_OTA_PAL_prvPAL_Abort_NonExistentFile_,"ax",%progbits
 269              		.align	2
 270              		.global	TEST_Full_OTA_PAL_prvPAL_Abort_NonExistentFile_
 271              		.syntax unified
 272              		.arm
 273              		.fpu neon
 275              	TEST_Full_OTA_PAL_prvPAL_Abort_NonExistentFile_:
 276              	.LFB24:
 552:D:/Work/DeviceTester/amazon-freertos/tests/common/ota\aws_test_ota_pal.c **** 
 553:D:/Work/DeviceTester/amazon-freertos/tests/common/ota\aws_test_ota_pal.c **** /**
 554:D:/Work/DeviceTester/amazon-freertos/tests/common/ota\aws_test_ota_pal.c ****  * @brief Verify there is no error for aborting a file that doesn't exist.
 555:D:/Work/DeviceTester/amazon-freertos/tests/common/ota\aws_test_ota_pal.c ****  */
 556:D:/Work/DeviceTester/amazon-freertos/tests/common/ota\aws_test_ota_pal.c **** TEST( Full_OTA_PAL, prvPAL_Abort_NonExistentFile )
 557:D:/Work/DeviceTester/amazon-freertos/tests/common/ota\aws_test_ota_pal.c **** {
 277              		.loc 1 557 0
 278              		.cfi_startproc
 279              		@ args = 0, pretend = 0, frame = 0
 280              		@ frame_needed = 0, uses_anonymous_args = 0
 281 0000 07402DE9 		push	{r0, r1, r2, lr}
 282              		.cfi_def_cfa_offset 16
 283              		.cfi_offset 14, -4
 558:D:/Work/DeviceTester/amazon-freertos/tests/common/ota\aws_test_ota_pal.c ****     OTA_Err_t xOtaStatus;
 559:D:/Work/DeviceTester/amazon-freertos/tests/common/ota\aws_test_ota_pal.c **** 
 560:D:/Work/DeviceTester/amazon-freertos/tests/common/ota\aws_test_ota_pal.c ****     xOtaFile.pucFilePath = ( uint8_t * ) otatestpalFIRMWARE_FILE;
 561:D:/Work/DeviceTester/amazon-freertos/tests/common/ota\aws_test_ota_pal.c **** 
 562:D:/Work/DeviceTester/amazon-freertos/tests/common/ota\aws_test_ota_pal.c ****     xOtaFile.pucFilePath = ( uint8_t * ) ( "nonexistingfile.bin" );
 284              		.loc 1 562 0
 285 0004 2C309FE5 		ldr	r3, .L23
 286 0008 2C009FE5 		ldr	r0, .L23+4
 287 000c 003080E5 		str	r3, [r0]
 563:D:/Work/DeviceTester/amazon-freertos/tests/common/ota\aws_test_ota_pal.c ****     xOtaStatus = prvPAL_Abort( &xOtaFile );
 288              		.loc 1 563 0
 289 0010 FEFFFFEB 		bl	prvPAL_Abort
 290              	.LVL18:
 564:D:/Work/DeviceTester/amazon-freertos/tests/common/ota\aws_test_ota_pal.c ****     TEST_ASSERT_EQUAL_INT( kOTA_Err_None, ( xOtaStatus & ~kOTA_PAL_ErrMask ) );
 291              		.loc 1 564 0
 292 0014 0020A0E3 		mov	r2, #0
 293 0018 1430A0E3 		mov	r3, #20
 294 001c 00308DE5 		str	r3, [sp]
 295 0020 FF1400E2 		and	r1, r0, #-16777216
 296 0024 8D3FA0E3 		mov	r3, #564
 297 0028 0200A0E1 		mov	r0, r2
 298              	.LVL19:
 299 002c FEFFFFEB 		bl	UnityAssertEqualNumber
 300              	.LVL20:
 565:D:/Work/DeviceTester/amazon-freertos/tests/common/ota\aws_test_ota_pal.c **** }
 301              		.loc 1 565 0
 302 0030 0CD08DE2 		add	sp, sp, #12
 303              		.cfi_def_cfa_offset 4
 304              		@ sp needed
 305 0034 04F09DE4 		ldr	pc, [sp], #4
 306              	.L24:
 307              		.align	2
 308              	.L23:
 309 0038 00000000 		.word	.LC2
 310 003c 00000000 		.word	.LANCHOR0
 311              		.cfi_endproc
 312              	.LFE24:
 314              		.section	.text.TEST_Full_OTA_PAL_prvPAL_Abort_FileWithBlockWritten_,"ax",%progbits
 315              		.align	2
 316              		.global	TEST_Full_OTA_PAL_prvPAL_Abort_FileWithBlockWritten_
 317              		.syntax unified
 318              		.arm
 319              		.fpu neon
 321              	TEST_Full_OTA_PAL_prvPAL_Abort_FileWithBlockWritten_:
 322              	.LFB20:
 511:D:/Work/DeviceTester/amazon-freertos/tests/common/ota\aws_test_ota_pal.c ****     OTA_Err_t xOtaStatus;
 323              		.loc 1 511 0
 324              		.cfi_startproc
 325              		@ args = 0, pretend = 0, frame = 0
 326              		@ frame_needed = 0, uses_anonymous_args = 0
 327 0000 37402DE9 		push	{r0, r1, r2, r4, r5, lr}
 328              		.cfi_def_cfa_offset 24
 329              		.cfi_offset 4, -12
 330              		.cfi_offset 5, -8
 331              		.cfi_offset 14, -4
 514:D:/Work/DeviceTester/amazon-freertos/tests/common/ota\aws_test_ota_pal.c **** 
 332              		.loc 1 514 0
 333 0004 AC309FE5 		ldr	r3, .L31
 334 0008 AC009FE5 		ldr	r0, .L31+4
 335 000c 003080E5 		str	r3, [r0]
 517:D:/Work/DeviceTester/amazon-freertos/tests/common/ota\aws_test_ota_pal.c ****     TEST_ASSERT_EQUAL( kOTA_Err_None, xOtaStatus );
 336              		.loc 1 517 0
 337 0010 FEFFFFEB 		bl	prvPAL_CreateFileForRx
 338              	.LVL21:
 518:D:/Work/DeviceTester/amazon-freertos/tests/common/ota\aws_test_ota_pal.c **** 
 339              		.loc 1 518 0
 340 0014 0020A0E3 		mov	r2, #0
 341 0018 1430A0E3 		mov	r3, #20
 342 001c 00308DE5 		str	r3, [sp]
 343 0020 0010A0E1 		mov	r1, r0
 344 0024 063200E3 		movw	r3, #518
 345 0028 0200A0E1 		mov	r0, r2
 346              	.LVL22:
 347 002c FEFFFFEB 		bl	UnityAssertEqualNumber
 348              	.LVL23:
 521:D:/Work/DeviceTester/amazon-freertos/tests/common/ota\aws_test_ota_pal.c ****     {
 349              		.loc 1 521 0
 350 0030 88009FE5 		ldr	r0, .L31+8
 351 0034 FEFFFFEB 		bl	setjmp
 352              	.LVL24:
 353 0038 004050E2 		subs	r4, r0, #0
 354 003c 0B00001A 		bne	.L28
 524:D:/Work/DeviceTester/amazon-freertos/tests/common/ota\aws_test_ota_pal.c ****                                         0,
 355              		.loc 1 524 0
 356 0040 5430A0E3 		mov	r3, #84
 357 0044 78209FE5 		ldr	r2, .L31+12
 358 0048 0410A0E1 		mov	r1, r4
 359 004c 68009FE5 		ldr	r0, .L31+4
 360 0050 FEFFFFEB 		bl	prvPAL_WriteBlock
 361              	.LVL25:
 528:D:/Work/DeviceTester/amazon-freertos/tests/common/ota\aws_test_ota_pal.c ****     }
 362              		.loc 1 528 0
 363 0054 1430A0E3 		mov	r3, #20
 364 0058 0010A0E1 		mov	r1, r0
 365 005c 00308DE5 		str	r3, [sp]
 366 0060 0420A0E1 		mov	r2, r4
 367 0064 213EA0E3 		mov	r3, #528
 368 0068 5400A0E3 		mov	r0, #84
 369              	.LVL26:
 370 006c FEFFFFEB 		bl	UnityAssertEqualNumber
 371              	.LVL27:
 372              	.L28:
 532:D:/Work/DeviceTester/amazon-freertos/tests/common/ota\aws_test_ota_pal.c ****     TEST_ASSERT_EQUAL_INT( kOTA_Err_None, xOtaStatus );
 373              		.loc 1 532 0
 374 0070 44409FE5 		ldr	r4, .L31+4
 533:D:/Work/DeviceTester/amazon-freertos/tests/common/ota\aws_test_ota_pal.c **** 
 375              		.loc 1 533 0
 376 0074 1450A0E3 		mov	r5, #20
 532:D:/Work/DeviceTester/amazon-freertos/tests/common/ota\aws_test_ota_pal.c ****     TEST_ASSERT_EQUAL_INT( kOTA_Err_None, xOtaStatus );
 377              		.loc 1 532 0
 378 0078 0400A0E1 		mov	r0, r4
 379 007c FEFFFFEB 		bl	prvPAL_Abort
 380              	.LVL28:
 533:D:/Work/DeviceTester/amazon-freertos/tests/common/ota\aws_test_ota_pal.c **** 
 381              		.loc 1 533 0
 382 0080 0020A0E3 		mov	r2, #0
 532:D:/Work/DeviceTester/amazon-freertos/tests/common/ota\aws_test_ota_pal.c ****     TEST_ASSERT_EQUAL_INT( kOTA_Err_None, xOtaStatus );
 383              		.loc 1 532 0
 384 0084 0010A0E1 		mov	r1, r0
 385              	.LVL29:
 533:D:/Work/DeviceTester/amazon-freertos/tests/common/ota\aws_test_ota_pal.c **** 
 386              		.loc 1 533 0
 387 0088 00508DE5 		str	r5, [sp]
 388 008c 0200A0E1 		mov	r0, r2
 389              	.LVL30:
 390 0090 153200E3 		movw	r3, #533
 391 0094 FEFFFFEB 		bl	UnityAssertEqualNumber
 392              	.LVL31:
 536:D:/Work/DeviceTester/amazon-freertos/tests/common/ota\aws_test_ota_pal.c **** }
 393              		.loc 1 536 0
 394 0098 0020A0E3 		mov	r2, #0
 395 009c 00508DE5 		str	r5, [sp]
 396 00a0 863FA0E3 		mov	r3, #536
 397 00a4 041094E5 		ldr	r1, [r4, #4]
 398 00a8 0200A0E1 		mov	r0, r2
 399 00ac FEFFFFEB 		bl	UnityAssertEqualNumber
 400              	.LVL32:
 537:D:/Work/DeviceTester/amazon-freertos/tests/common/ota\aws_test_ota_pal.c **** 
 401              		.loc 1 537 0
 402 00b0 0CD08DE2 		add	sp, sp, #12
 403              		.cfi_def_cfa_offset 12
 404              		@ sp needed
 405 00b4 3080BDE8 		pop	{r4, r5, pc}
 406              	.L32:
 407              		.align	2
 408              	.L31:
 409 00b8 00000000 		.word	.LC1
 410 00bc 00000000 		.word	.LANCHOR0
 411 00c0 28000000 		.word	Unity+40
 412 00c4 00000000 		.word	.LANCHOR1
 413              		.cfi_endproc
 414              	.LFE20:
 416              		.section	.text.TEST_Full_OTA_PAL_prvPAL_WriteBlock_WriteSingleByte_,"ax",%progbits
 417              		.align	2
 418              		.global	TEST_Full_OTA_PAL_prvPAL_WriteBlock_WriteSingleByte_
 419              		.syntax unified
 420              		.arm
 421              		.fpu neon
 423              	TEST_Full_OTA_PAL_prvPAL_WriteBlock_WriteSingleByte_:
 424              	.LFB26:
 566:D:/Work/DeviceTester/amazon-freertos/tests/common/ota\aws_test_ota_pal.c **** 
 567:D:/Work/DeviceTester/amazon-freertos/tests/common/ota\aws_test_ota_pal.c **** /**
 568:D:/Work/DeviceTester/amazon-freertos/tests/common/ota\aws_test_ota_pal.c ****  * Write one byte of data and verify success.
 569:D:/Work/DeviceTester/amazon-freertos/tests/common/ota\aws_test_ota_pal.c ****  */
 570:D:/Work/DeviceTester/amazon-freertos/tests/common/ota\aws_test_ota_pal.c **** TEST( Full_OTA_PAL, prvPAL_WriteBlock_WriteSingleByte )
 571:D:/Work/DeviceTester/amazon-freertos/tests/common/ota\aws_test_ota_pal.c **** {
 425              		.loc 1 571 0
 426              		.cfi_startproc
 427              		@ args = 0, pretend = 0, frame = 8
 428              		@ frame_needed = 0, uses_anonymous_args = 0
 429 0000 1F402DE9 		push	{r0, r1, r2, r3, r4, lr}
 430              		.cfi_def_cfa_offset 24
 431              		.cfi_offset 4, -8
 432              		.cfi_offset 14, -4
 572:D:/Work/DeviceTester/amazon-freertos/tests/common/ota\aws_test_ota_pal.c ****     OTA_Err_t xOtaStatus;
 573:D:/Work/DeviceTester/amazon-freertos/tests/common/ota\aws_test_ota_pal.c ****     int16_t sNumBytesWritten;
 574:D:/Work/DeviceTester/amazon-freertos/tests/common/ota\aws_test_ota_pal.c ****     uint8_t ucData = 0xAA;
 433              		.loc 1 574 0
 434 0004 5530E0E3 		mvn	r3, #85
 435 0008 0F30CDE5 		strb	r3, [sp, #15]
 575:D:/Work/DeviceTester/amazon-freertos/tests/common/ota\aws_test_ota_pal.c **** 
 576:D:/Work/DeviceTester/amazon-freertos/tests/common/ota\aws_test_ota_pal.c ****     /* TEST: Write a byte of data. */
 577:D:/Work/DeviceTester/amazon-freertos/tests/common/ota\aws_test_ota_pal.c ****     xOtaFile.pucFilePath = ( uint8_t * ) otatestpalFIRMWARE_FILE;
 436              		.loc 1 577 0
 437 000c 6C009FE5 		ldr	r0, .L37
 438 0010 6C309FE5 		ldr	r3, .L37+4
 439 0014 003080E5 		str	r3, [r0]
 578:D:/Work/DeviceTester/amazon-freertos/tests/common/ota\aws_test_ota_pal.c ****     xOtaStatus = prvPAL_CreateFileForRx( &xOtaFile );
 440              		.loc 1 578 0
 441 0018 FEFFFFEB 		bl	prvPAL_CreateFileForRx
 442              	.LVL33:
 579:D:/Work/DeviceTester/amazon-freertos/tests/common/ota\aws_test_ota_pal.c ****     TEST_ASSERT_EQUAL( kOTA_Err_None, xOtaStatus );
 443              		.loc 1 579 0
 444 001c 0020A0E3 		mov	r2, #0
 445 0020 1430A0E3 		mov	r3, #20
 446 0024 00308DE5 		str	r3, [sp]
 447 0028 0010A0E1 		mov	r1, r0
 448 002c 433200E3 		movw	r3, #579
 449 0030 0200A0E1 		mov	r0, r2
 450              	.LVL34:
 451 0034 FEFFFFEB 		bl	UnityAssertEqualNumber
 452              	.LVL35:
 580:D:/Work/DeviceTester/amazon-freertos/tests/common/ota\aws_test_ota_pal.c **** 
 581:D:/Work/DeviceTester/amazon-freertos/tests/common/ota\aws_test_ota_pal.c ****     if( TEST_PROTECT() )
 453              		.loc 1 581 0
 454 0038 48009FE5 		ldr	r0, .L37+8
 455 003c FEFFFFEB 		bl	setjmp
 456              	.LVL36:
 457 0040 004050E2 		subs	r4, r0, #0
 458 0044 0B00001A 		bne	.L33
 582:D:/Work/DeviceTester/amazon-freertos/tests/common/ota\aws_test_ota_pal.c ****     {
 583:D:/Work/DeviceTester/amazon-freertos/tests/common/ota\aws_test_ota_pal.c ****         sNumBytesWritten = prvPAL_WriteBlock( &xOtaFile, 0, &ucData, 1 );
 459              		.loc 1 583 0
 460 0048 0130A0E3 		mov	r3, #1
 461 004c 0F208DE2 		add	r2, sp, #15
 462 0050 0410A0E1 		mov	r1, r4
 463 0054 24009FE5 		ldr	r0, .L37
 464 0058 FEFFFFEB 		bl	prvPAL_WriteBlock
 465              	.LVL37:
 584:D:/Work/DeviceTester/amazon-freertos/tests/common/ota\aws_test_ota_pal.c ****         TEST_ASSERT_EQUAL_INT( 1, sNumBytesWritten );
 466              		.loc 1 584 0
 467 005c 1430A0E3 		mov	r3, #20
 468 0060 0010A0E1 		mov	r1, r0
 469 0064 00308DE5 		str	r3, [sp]
 470 0068 0420A0E1 		mov	r2, r4
 471 006c 923FA0E3 		mov	r3, #584
 472 0070 0100A0E3 		mov	r0, #1
 473              	.LVL38:
 474 0074 FEFFFFEB 		bl	UnityAssertEqualNumber
 475              	.LVL39:
 476              	.L33:
 585:D:/Work/DeviceTester/amazon-freertos/tests/common/ota\aws_test_ota_pal.c ****     }
 586:D:/Work/DeviceTester/amazon-freertos/tests/common/ota\aws_test_ota_pal.c **** }
 477              		.loc 1 586 0
 478 0078 10D08DE2 		add	sp, sp, #16
 479              		.cfi_def_cfa_offset 8
 480              		@ sp needed
 481 007c 1080BDE8 		pop	{r4, pc}
 482              	.L38:
 483              		.align	2
 484              	.L37:
 485 0080 00000000 		.word	.LANCHOR0
 486 0084 00000000 		.word	.LC1
 487 0088 28000000 		.word	Unity+40
 488              		.cfi_endproc
 489              	.LFE26:
 491              		.section	.text.TEST_Full_OTA_PAL_prvPAL_CloseFile_ValidSignature_,"ax",%progbits
 492              		.align	2
 493              		.global	TEST_Full_OTA_PAL_prvPAL_CloseFile_ValidSignature_
 494              		.syntax unified
 495              		.arm
 496              		.fpu neon
 498              	TEST_Full_OTA_PAL_prvPAL_CloseFile_ValidSignature_:
 499              	.LFB5:
 214:D:/Work/DeviceTester/amazon-freertos/tests/common/ota\aws_test_ota_pal.c ****     OTA_Err_t xOtaStatus;
 500              		.loc 1 214 0
 501              		.cfi_startproc
 502              		@ args = 0, pretend = 0, frame = 264
 503              		@ frame_needed = 0, uses_anonymous_args = 0
 504 0000 70402DE9 		push	{r4, r5, r6, lr}
 505              		.cfi_def_cfa_offset 16
 506              		.cfi_offset 4, -16
 507              		.cfi_offset 5, -12
 508              		.cfi_offset 6, -8
 509              		.cfi_offset 14, -4
 510 0004 11DE4DE2 		sub	sp, sp, #272
 511              		.cfi_def_cfa_offset 288
 216:D:/Work/DeviceTester/amazon-freertos/tests/common/ota\aws_test_ota_pal.c **** 
 512              		.loc 1 216 0
 513 0008 022100E3 		movw	r2, #258
 514 000c 0010A0E3 		mov	r1, #0
 515 0010 0C008DE2 		add	r0, sp, #12
 516 0014 FEFFFFEB 		bl	memset
 517              	.LVL40:
 220:D:/Work/DeviceTester/amazon-freertos/tests/common/ota\aws_test_ota_pal.c ****     xOtaStatus = prvPAL_CreateFileForRx( &xOtaFile );
 518              		.loc 1 220 0
 519 0018 B4309FE5 		ldr	r3, .L43
 520 001c B4009FE5 		ldr	r0, .L43+4
 521 0020 003080E5 		str	r3, [r0]
 221:D:/Work/DeviceTester/amazon-freertos/tests/common/ota\aws_test_ota_pal.c ****     TEST_ASSERT_EQUAL( kOTA_Err_None, xOtaStatus );
 522              		.loc 1 221 0
 523 0024 FEFFFFEB 		bl	prvPAL_CreateFileForRx
 524              	.LVL41:
 222:D:/Work/DeviceTester/amazon-freertos/tests/common/ota\aws_test_ota_pal.c **** 
 525              		.loc 1 222 0
 526 0028 0020A0E3 		mov	r2, #0
 527 002c 1430A0E3 		mov	r3, #20
 528 0030 00308DE5 		str	r3, [sp]
 529 0034 0010A0E1 		mov	r1, r0
 530 0038 DE30A0E3 		mov	r3, #222
 531 003c 0200A0E1 		mov	r0, r2
 532              	.LVL42:
 533 0040 FEFFFFEB 		bl	UnityAssertEqualNumber
 534              	.LVL43:
 225:D:/Work/DeviceTester/amazon-freertos/tests/common/ota\aws_test_ota_pal.c ****     {
 535              		.loc 1 225 0
 536 0044 90009FE5 		ldr	r0, .L43+8
 537 0048 FEFFFFEB 		bl	setjmp
 538              	.LVL44:
 539 004c 005050E2 		subs	r5, r0, #0
 540 0050 1D00001A 		bne	.L39
 228:D:/Work/DeviceTester/amazon-freertos/tests/common/ota\aws_test_ota_pal.c ****                                         0,
 541              		.loc 1 228 0
 542 0054 7C409FE5 		ldr	r4, .L43+4
 543 0058 5430A0E3 		mov	r3, #84
 544 005c 7C209FE5 		ldr	r2, .L43+12
 545 0060 0510A0E1 		mov	r1, r5
 232:D:/Work/DeviceTester/amazon-freertos/tests/common/ota\aws_test_ota_pal.c **** 
 546              		.loc 1 232 0
 547 0064 1460A0E3 		mov	r6, #20
 228:D:/Work/DeviceTester/amazon-freertos/tests/common/ota\aws_test_ota_pal.c ****                                         0,
 548              		.loc 1 228 0
 549 0068 0400A0E1 		mov	r0, r4
 550 006c FEFFFFEB 		bl	prvPAL_WriteBlock
 551              	.LVL45:
 232:D:/Work/DeviceTester/amazon-freertos/tests/common/ota\aws_test_ota_pal.c **** 
 552              		.loc 1 232 0
 553 0070 E830A0E3 		mov	r3, #232
 554 0074 0010A0E1 		mov	r1, r0
 555 0078 0520A0E1 		mov	r2, r5
 556 007c 5400A0E3 		mov	r0, #84
 557              	.LVL46:
 558 0080 00608DE5 		str	r6, [sp]
 559 0084 FEFFFFEB 		bl	UnityAssertEqualNumber
 560              	.LVL47:
 235:D:/Work/DeviceTester/amazon-freertos/tests/common/ota\aws_test_ota_pal.c ****         memcpy( xOtaFile.pxSignature->ucData, ucValidSignature, ucValidSignatureLength );
 561              		.loc 1 235 0
 562 0088 4620A0E3 		mov	r2, #70
 234:D:/Work/DeviceTester/amazon-freertos/tests/common/ota\aws_test_ota_pal.c ****         xOtaFile.pxSignature->usSize = ucValidSignatureLength;
 563              		.loc 1 234 0
 564 008c 0C308DE2 		add	r3, sp, #12
 236:D:/Work/DeviceTester/amazon-freertos/tests/common/ota\aws_test_ota_pal.c ****         xOtaFile.pucCertFilepath = ( uint8_t * ) otatestpalCERTIFICATE_FILE;
 565              		.loc 1 236 0
 566 0090 4C109FE5 		ldr	r1, .L43+16
 567 0094 0E008DE2 		add	r0, sp, #14
 235:D:/Work/DeviceTester/amazon-freertos/tests/common/ota\aws_test_ota_pal.c ****         memcpy( xOtaFile.pxSignature->ucData, ucValidSignature, ucValidSignatureLength );
 568              		.loc 1 235 0
 569 0098 BC20CDE1 		strh	r2, [sp, #12]	@ movhi
 234:D:/Work/DeviceTester/amazon-freertos/tests/common/ota\aws_test_ota_pal.c ****         xOtaFile.pxSignature->usSize = ucValidSignatureLength;
 570              		.loc 1 234 0
 571 009c 283084E5 		str	r3, [r4, #40]
 236:D:/Work/DeviceTester/amazon-freertos/tests/common/ota\aws_test_ota_pal.c ****         xOtaFile.pucCertFilepath = ( uint8_t * ) otatestpalCERTIFICATE_FILE;
 572              		.loc 1 236 0
 573 00a0 FEFFFFEB 		bl	memcpy
 574              	.LVL48:
 237:D:/Work/DeviceTester/amazon-freertos/tests/common/ota\aws_test_ota_pal.c **** 
 575              		.loc 1 237 0
 576 00a4 3C309FE5 		ldr	r3, .L43+20
 239:D:/Work/DeviceTester/amazon-freertos/tests/common/ota\aws_test_ota_pal.c ****         TEST_ASSERT_EQUAL_INT( kOTA_Err_None, xOtaStatus );
 577              		.loc 1 239 0
 578 00a8 0400A0E1 		mov	r0, r4
 237:D:/Work/DeviceTester/amazon-freertos/tests/common/ota\aws_test_ota_pal.c **** 
 579              		.loc 1 237 0
 580 00ac 303084E5 		str	r3, [r4, #48]
 239:D:/Work/DeviceTester/amazon-freertos/tests/common/ota\aws_test_ota_pal.c ****         TEST_ASSERT_EQUAL_INT( kOTA_Err_None, xOtaStatus );
 581              		.loc 1 239 0
 582 00b0 FEFFFFEB 		bl	prvPAL_CloseFile
 583              	.LVL49:
 240:D:/Work/DeviceTester/amazon-freertos/tests/common/ota\aws_test_ota_pal.c ****     }
 584              		.loc 1 240 0
 585 00b4 00608DE5 		str	r6, [sp]
 586 00b8 0010A0E1 		mov	r1, r0
 587 00bc F030A0E3 		mov	r3, #240
 588 00c0 0520A0E1 		mov	r2, r5
 589 00c4 0500A0E1 		mov	r0, r5
 590              	.LVL50:
 591 00c8 FEFFFFEB 		bl	UnityAssertEqualNumber
 592              	.LVL51:
 593              	.L39:
 242:D:/Work/DeviceTester/amazon-freertos/tests/common/ota\aws_test_ota_pal.c **** 
 594              		.loc 1 242 0
 595 00cc 11DE8DE2 		add	sp, sp, #272
 596              		.cfi_def_cfa_offset 16
 597              		@ sp needed
 598 00d0 7080BDE8 		pop	{r4, r5, r6, pc}
 599              	.L44:
 600              		.align	2
 601              	.L43:
 602 00d4 00000000 		.word	.LC3
 603 00d8 00000000 		.word	.LANCHOR0
 604 00dc 28000000 		.word	Unity+40
 605 00e0 00000000 		.word	.LANCHOR1
 606 00e4 00000000 		.word	.LANCHOR2
 607 00e8 1A000000 		.word	.LC4
 608              		.cfi_endproc
 609              	.LFE5:
 611              		.section	.text.TEST_Full_OTA_PAL_prvPAL_CloseFile_InvalidSignatureBlockWritten_,"ax",%progbits
 612              		.align	2
 613              		.global	TEST_Full_OTA_PAL_prvPAL_CloseFile_InvalidSignatureBlockWritten_
 614              		.syntax unified
 615              		.arm
 616              		.fpu neon
 618              	TEST_Full_OTA_PAL_prvPAL_CloseFile_InvalidSignatureBlockWritten_:
 619              	.LFB10:
 350:D:/Work/DeviceTester/amazon-freertos/tests/common/ota\aws_test_ota_pal.c ****     OTA_Err_t xOtaStatus;
 620              		.loc 1 350 0
 621              		.cfi_startproc
 622              		@ args = 0, pretend = 0, frame = 264
 623              		@ frame_needed = 0, uses_anonymous_args = 0
 624 0000 30402DE9 		push	{r4, r5, lr}
 625              		.cfi_def_cfa_offset 12
 626              		.cfi_offset 4, -12
 627              		.cfi_offset 5, -8
 628              		.cfi_offset 14, -4
 629 0004 45DF4DE2 		sub	sp, sp, #276
 630              		.cfi_def_cfa_offset 288
 352:D:/Work/DeviceTester/amazon-freertos/tests/common/ota\aws_test_ota_pal.c **** 
 631              		.loc 1 352 0
 632 0008 022100E3 		movw	r2, #258
 633 000c 0010A0E3 		mov	r1, #0
 634 0010 0C008DE2 		add	r0, sp, #12
 635 0014 FEFFFFEB 		bl	memset
 636              	.LVL52:
 355:D:/Work/DeviceTester/amazon-freertos/tests/common/ota\aws_test_ota_pal.c ****     xOtaStatus = prvPAL_CreateFileForRx( &xOtaFile );
 637              		.loc 1 355 0
 638 0018 BC309FE5 		ldr	r3, .L49
 639 001c BC009FE5 		ldr	r0, .L49+4
 640 0020 003080E5 		str	r3, [r0]
 356:D:/Work/DeviceTester/amazon-freertos/tests/common/ota\aws_test_ota_pal.c ****     TEST_ASSERT_EQUAL( kOTA_Err_None, xOtaStatus );
 641              		.loc 1 356 0
 642 0024 FEFFFFEB 		bl	prvPAL_CreateFileForRx
 643              	.LVL53:
 357:D:/Work/DeviceTester/amazon-freertos/tests/common/ota\aws_test_ota_pal.c **** 
 644              		.loc 1 357 0
 645 0028 0020A0E3 		mov	r2, #0
 646 002c 1430A0E3 		mov	r3, #20
 647 0030 00308DE5 		str	r3, [sp]
 648 0034 0010A0E1 		mov	r1, r0
 649 0038 653100E3 		movw	r3, #357
 650 003c 0200A0E1 		mov	r0, r2
 651              	.LVL54:
 652 0040 FEFFFFEB 		bl	UnityAssertEqualNumber
 653              	.LVL55:
 360:D:/Work/DeviceTester/amazon-freertos/tests/common/ota\aws_test_ota_pal.c ****     {
 654              		.loc 1 360 0
 655 0044 98009FE5 		ldr	r0, .L49+8
 656 0048 FEFFFFEB 		bl	setjmp
 657              	.LVL56:
 658 004c 005050E2 		subs	r5, r0, #0
 659 0050 1F00001A 		bne	.L45
 363:D:/Work/DeviceTester/amazon-freertos/tests/common/ota\aws_test_ota_pal.c ****                                         0,
 660              		.loc 1 363 0
 661 0054 84409FE5 		ldr	r4, .L49+4
 662 0058 5430A0E3 		mov	r3, #84
 663 005c 84209FE5 		ldr	r2, .L49+12
 664 0060 0510A0E1 		mov	r1, r5
 665 0064 0400A0E1 		mov	r0, r4
 666 0068 FEFFFFEB 		bl	prvPAL_WriteBlock
 667              	.LVL57:
 367:D:/Work/DeviceTester/amazon-freertos/tests/common/ota\aws_test_ota_pal.c **** 
 668              		.loc 1 367 0
 669 006c 1430A0E3 		mov	r3, #20
 670 0070 0010A0E1 		mov	r1, r0
 671 0074 00308DE5 		str	r3, [sp]
 672 0078 0520A0E1 		mov	r2, r5
 673 007c 6F3100E3 		movw	r3, #367
 674 0080 5400A0E3 		mov	r0, #84
 675              	.LVL58:
 676 0084 FEFFFFEB 		bl	UnityAssertEqualNumber
 677              	.LVL59:
 370:D:/Work/DeviceTester/amazon-freertos/tests/common/ota\aws_test_ota_pal.c ****         xOtaFile.pxSignature->usSize = ucInvalidSignatureLength;
 678              		.loc 1 370 0
 679 0088 0C308DE2 		add	r3, sp, #12
 371:D:/Work/DeviceTester/amazon-freertos/tests/common/ota\aws_test_ota_pal.c ****         memcpy( xOtaFile.pxSignature->ucData, ucInvalidSignature, ucInvalidSignatureLength );
 680              		.loc 1 371 0
 681 008c 4620A0E3 		mov	r2, #70
 372:D:/Work/DeviceTester/amazon-freertos/tests/common/ota\aws_test_ota_pal.c ****         xOtaFile.pucCertFilepath = ( uint8_t * ) otatestpalCERTIFICATE_FILE;
 682              		.loc 1 372 0
 683 0090 54109FE5 		ldr	r1, .L49+16
 684 0094 0E008DE2 		add	r0, sp, #14
 370:D:/Work/DeviceTester/amazon-freertos/tests/common/ota\aws_test_ota_pal.c ****         xOtaFile.pxSignature->usSize = ucInvalidSignatureLength;
 685              		.loc 1 370 0
 686 0098 283084E5 		str	r3, [r4, #40]
 371:D:/Work/DeviceTester/amazon-freertos/tests/common/ota\aws_test_ota_pal.c ****         memcpy( xOtaFile.pxSignature->ucData, ucInvalidSignature, ucInvalidSignatureLength );
 687              		.loc 1 371 0
 688 009c BC20CDE1 		strh	r2, [sp, #12]	@ movhi
 372:D:/Work/DeviceTester/amazon-freertos/tests/common/ota\aws_test_ota_pal.c ****         xOtaFile.pucCertFilepath = ( uint8_t * ) otatestpalCERTIFICATE_FILE;
 689              		.loc 1 372 0
 690 00a0 FEFFFFEB 		bl	memcpy
 691              	.LVL60:
 373:D:/Work/DeviceTester/amazon-freertos/tests/common/ota\aws_test_ota_pal.c **** 
 692              		.loc 1 373 0
 693 00a4 44309FE5 		ldr	r3, .L49+20
 376:D:/Work/DeviceTester/amazon-freertos/tests/common/ota\aws_test_ota_pal.c **** 
 694              		.loc 1 376 0
 695 00a8 0400A0E1 		mov	r0, r4
 373:D:/Work/DeviceTester/amazon-freertos/tests/common/ota\aws_test_ota_pal.c **** 
 696              		.loc 1 373 0
 697 00ac 303084E5 		str	r3, [r4, #48]
 376:D:/Work/DeviceTester/amazon-freertos/tests/common/ota\aws_test_ota_pal.c **** 
 698              		.loc 1 376 0
 699 00b0 FEFFFFEB 		bl	prvPAL_CloseFile
 700              	.LVL61:
 378:D:/Work/DeviceTester/amazon-freertos/tests/common/ota\aws_test_ota_pal.c ****             ( kOTA_Err_SignatureCheckFailed != ( xOtaStatus & ~kOTA_PAL_ErrMask ) ) &&
 701              		.loc 1 378 0
 702 00b4 FF3400E2 		and	r3, r0, #-16777216
 703 00b8 EF0400E2 		and	r0, r0, #-285212672
 704              	.LVL62:
 379:D:/Work/DeviceTester/amazon-freertos/tests/common/ota\aws_test_ota_pal.c ****             ( kOTA_Err_FileClose != ( xOtaStatus & ~kOTA_PAL_ErrMask ) ) )
 705              		.loc 1 379 0
 706 00bc 020453E3 		cmp	r3, #33554432
 707 00c0 01045013 		cmpne	r0, #16777216
 708 00c4 0200000A 		beq	.L45
 382:D:/Work/DeviceTester/amazon-freertos/tests/common/ota\aws_test_ota_pal.c ****         }
 709              		.loc 1 382 0 discriminator 1
 710 00c8 7E1100E3 		movw	r1, #382
 711 00cc 20009FE5 		ldr	r0, .L49+24
 712 00d0 FEFFFFEB 		bl	UnityFail
 713              	.LVL63:
 714              	.L45:
 385:D:/Work/DeviceTester/amazon-freertos/tests/common/ota\aws_test_ota_pal.c **** 
 715              		.loc 1 385 0
 716 00d4 45DF8DE2 		add	sp, sp, #276
 717              		.cfi_def_cfa_offset 12
 718              		@ sp needed
 719 00d8 3080BDE8 		pop	{r4, r5, pc}
 720              	.L50:
 721              		.align	2
 722              	.L49:
 723 00dc 00000000 		.word	.LC1
 724 00e0 00000000 		.word	.LANCHOR0
 725 00e4 28000000 		.word	Unity+40
 726 00e8 00000000 		.word	.LANCHOR1
 727 00ec 00000000 		.word	.LANCHOR3
 728 00f0 1A000000 		.word	.LC4
 729 00f4 00000000 		.word	.LC5
 730              		.cfi_endproc
 731              	.LFE10:
 733              		.section	.text.TEST_Full_OTA_PAL_prvPAL_CloseFile_InvalidSignatureNoBlockWritten_,"ax",%progbits
 734              		.align	2
 735              		.global	TEST_Full_OTA_PAL_prvPAL_CloseFile_InvalidSignatureNoBlockWritten_
 736              		.syntax unified
 737              		.arm
 738              		.fpu neon
 740              	TEST_Full_OTA_PAL_prvPAL_CloseFile_InvalidSignatureNoBlockWritten_:
 741              	.LFB12:
 393:D:/Work/DeviceTester/amazon-freertos/tests/common/ota\aws_test_ota_pal.c ****     OTA_Err_t xOtaStatus;
 742              		.loc 1 393 0
 743              		.cfi_startproc
 744              		@ args = 0, pretend = 0, frame = 264
 745              		@ frame_needed = 0, uses_anonymous_args = 0
 746 0000 30402DE9 		push	{r4, r5, lr}
 747              		.cfi_def_cfa_offset 12
 748              		.cfi_offset 4, -12
 749              		.cfi_offset 5, -8
 750              		.cfi_offset 14, -4
 751 0004 45DF4DE2 		sub	sp, sp, #276
 752              		.cfi_def_cfa_offset 288
 395:D:/Work/DeviceTester/amazon-freertos/tests/common/ota\aws_test_ota_pal.c **** 
 753              		.loc 1 395 0
 754 0008 0C508DE2 		add	r5, sp, #12
 398:D:/Work/DeviceTester/amazon-freertos/tests/common/ota\aws_test_ota_pal.c ****     xOtaStatus = prvPAL_CreateFileForRx( &xOtaFile );
 755              		.loc 1 398 0
 756 000c 98409FE5 		ldr	r4, .L55
 395:D:/Work/DeviceTester/amazon-freertos/tests/common/ota\aws_test_ota_pal.c **** 
 757              		.loc 1 395 0
 758 0010 022100E3 		movw	r2, #258
 759 0014 0010A0E3 		mov	r1, #0
 760 0018 0500A0E1 		mov	r0, r5
 761 001c FEFFFFEB 		bl	memset
 762              	.LVL64:
 398:D:/Work/DeviceTester/amazon-freertos/tests/common/ota\aws_test_ota_pal.c ****     xOtaStatus = prvPAL_CreateFileForRx( &xOtaFile );
 763              		.loc 1 398 0
 764 0020 88309FE5 		ldr	r3, .L55+4
 399:D:/Work/DeviceTester/amazon-freertos/tests/common/ota\aws_test_ota_pal.c ****     TEST_ASSERT_EQUAL( kOTA_Err_None, xOtaStatus );
 765              		.loc 1 399 0
 766 0024 0400A0E1 		mov	r0, r4
 398:D:/Work/DeviceTester/amazon-freertos/tests/common/ota\aws_test_ota_pal.c ****     xOtaStatus = prvPAL_CreateFileForRx( &xOtaFile );
 767              		.loc 1 398 0
 768 0028 003084E5 		str	r3, [r4]
 399:D:/Work/DeviceTester/amazon-freertos/tests/common/ota\aws_test_ota_pal.c ****     TEST_ASSERT_EQUAL( kOTA_Err_None, xOtaStatus );
 769              		.loc 1 399 0
 770 002c FEFFFFEB 		bl	prvPAL_CreateFileForRx
 771              	.LVL65:
 400:D:/Work/DeviceTester/amazon-freertos/tests/common/ota\aws_test_ota_pal.c **** 
 772              		.loc 1 400 0
 773 0030 0020A0E3 		mov	r2, #0
 774 0034 1430A0E3 		mov	r3, #20
 775 0038 00308DE5 		str	r3, [sp]
 776 003c 0010A0E1 		mov	r1, r0
 777 0040 193EA0E3 		mov	r3, #400
 778 0044 0200A0E1 		mov	r0, r2
 779              	.LVL66:
 780 0048 FEFFFFEB 		bl	UnityAssertEqualNumber
 781              	.LVL67:
 404:D:/Work/DeviceTester/amazon-freertos/tests/common/ota\aws_test_ota_pal.c ****     memcpy( xOtaFile.pxSignature->ucData, ucInvalidSignature, ucInvalidSignatureLength );
 782              		.loc 1 404 0
 783 004c 4620A0E3 		mov	r2, #70
 405:D:/Work/DeviceTester/amazon-freertos/tests/common/ota\aws_test_ota_pal.c ****     xOtaFile.pucCertFilepath = ( uint8_t * ) otatestpalCERTIFICATE_FILE;
 784              		.loc 1 405 0
 785 0050 5C109FE5 		ldr	r1, .L55+8
 786 0054 0E008DE2 		add	r0, sp, #14
 403:D:/Work/DeviceTester/amazon-freertos/tests/common/ota\aws_test_ota_pal.c ****     xOtaFile.pxSignature->usSize = ucInvalidSignatureLength;
 787              		.loc 1 403 0
 788 0058 285084E5 		str	r5, [r4, #40]
 404:D:/Work/DeviceTester/amazon-freertos/tests/common/ota\aws_test_ota_pal.c ****     memcpy( xOtaFile.pxSignature->ucData, ucInvalidSignature, ucInvalidSignatureLength );
 789              		.loc 1 404 0
 790 005c B020C5E1 		strh	r2, [r5]	@ movhi
 405:D:/Work/DeviceTester/amazon-freertos/tests/common/ota\aws_test_ota_pal.c ****     xOtaFile.pucCertFilepath = ( uint8_t * ) otatestpalCERTIFICATE_FILE;
 791              		.loc 1 405 0
 792 0060 FEFFFFEB 		bl	memcpy
 793              	.LVL68:
 406:D:/Work/DeviceTester/amazon-freertos/tests/common/ota\aws_test_ota_pal.c **** 
 794              		.loc 1 406 0
 795 0064 4C309FE5 		ldr	r3, .L55+12
 409:D:/Work/DeviceTester/amazon-freertos/tests/common/ota\aws_test_ota_pal.c ****     {
 796              		.loc 1 409 0
 797 0068 4C009FE5 		ldr	r0, .L55+16
 406:D:/Work/DeviceTester/amazon-freertos/tests/common/ota\aws_test_ota_pal.c **** 
 798              		.loc 1 406 0
 799 006c 303084E5 		str	r3, [r4, #48]
 409:D:/Work/DeviceTester/amazon-freertos/tests/common/ota\aws_test_ota_pal.c ****     {
 800              		.loc 1 409 0
 801 0070 FEFFFFEB 		bl	setjmp
 802              	.LVL69:
 803 0074 000050E3 		cmp	r0, #0
 804 0078 0900001A 		bne	.L51
 412:D:/Work/DeviceTester/amazon-freertos/tests/common/ota\aws_test_ota_pal.c **** 
 805              		.loc 1 412 0
 806 007c 0400A0E1 		mov	r0, r4
 807 0080 FEFFFFEB 		bl	prvPAL_CloseFile
 808              	.LVL70:
 414:D:/Work/DeviceTester/amazon-freertos/tests/common/ota\aws_test_ota_pal.c ****             ( kOTA_Err_SignatureCheckFailed != ( xOtaStatus & ~kOTA_PAL_ErrMask ) ) &&
 809              		.loc 1 414 0
 810 0084 FF3400E2 		and	r3, r0, #-16777216
 811 0088 EF0400E2 		and	r0, r0, #-285212672
 812              	.LVL71:
 415:D:/Work/DeviceTester/amazon-freertos/tests/common/ota\aws_test_ota_pal.c ****             ( kOTA_Err_FileClose != ( xOtaStatus & ~kOTA_PAL_ErrMask ) ) )
 813              		.loc 1 415 0
 814 008c 020453E3 		cmp	r3, #33554432
 815 0090 01045013 		cmpne	r0, #16777216
 816 0094 0200000A 		beq	.L51
 418:D:/Work/DeviceTester/amazon-freertos/tests/common/ota\aws_test_ota_pal.c ****         }
 817              		.loc 1 418 0 discriminator 1
 818 0098 A21100E3 		movw	r1, #418
 819 009c 1C009FE5 		ldr	r0, .L55+20
 820 00a0 FEFFFFEB 		bl	UnityFail
 821              	.LVL72:
 822              	.L51:
 421:D:/Work/DeviceTester/amazon-freertos/tests/common/ota\aws_test_ota_pal.c **** 
 823              		.loc 1 421 0
 824 00a4 45DF8DE2 		add	sp, sp, #276
 825              		.cfi_def_cfa_offset 12
 826              		@ sp needed
 827 00a8 3080BDE8 		pop	{r4, r5, pc}
 828              	.L56:
 829              		.align	2
 830              	.L55:
 831 00ac 00000000 		.word	.LANCHOR0
 832 00b0 00000000 		.word	.LC1
 833 00b4 00000000 		.word	.LANCHOR3
 834 00b8 1A000000 		.word	.LC4
 835 00bc 28000000 		.word	Unity+40
 836 00c0 00000000 		.word	.LC5
 837              		.cfi_endproc
 838              	.LFE12:
 840              		.section	.text.TEST_Full_OTA_PAL_prvPAL_CloseFile_NonexistingCodeSignerCertificate_,"ax",%progbits
 841              		.align	2
 842              		.global	TEST_Full_OTA_PAL_prvPAL_CloseFile_NonexistingCodeSignerCertificate_
 843              		.syntax unified
 844              		.arm
 845              		.fpu neon
 847              	TEST_Full_OTA_PAL_prvPAL_CloseFile_NonexistingCodeSignerCertificate_:
 848              	.LFB14:
 433:D:/Work/DeviceTester/amazon-freertos/tests/common/ota\aws_test_ota_pal.c ****     OTA_Err_t xOtaStatus;
 849              		.loc 1 433 0
 850              		.cfi_startproc
 851              		@ args = 0, pretend = 0, frame = 264
 852              		@ frame_needed = 0, uses_anonymous_args = 0
 853 0000 30402DE9 		push	{r4, r5, lr}
 854              		.cfi_def_cfa_offset 12
 855              		.cfi_offset 4, -12
 856              		.cfi_offset 5, -8
 857              		.cfi_offset 14, -4
 858 0004 45DF4DE2 		sub	sp, sp, #276
 859              		.cfi_def_cfa_offset 288
 437:D:/Work/DeviceTester/amazon-freertos/tests/common/ota\aws_test_ota_pal.c **** 
 860              		.loc 1 437 0
 861 0008 DC409FE5 		ldr	r4, .L61
 435:D:/Work/DeviceTester/amazon-freertos/tests/common/ota\aws_test_ota_pal.c **** 
 862              		.loc 1 435 0
 863 000c 022100E3 		movw	r2, #258
 864 0010 0010A0E3 		mov	r1, #0
 865 0014 0C008DE2 		add	r0, sp, #12
 866 0018 FEFFFFEB 		bl	memset
 867              	.LVL73:
 437:D:/Work/DeviceTester/amazon-freertos/tests/common/ota\aws_test_ota_pal.c **** 
 868              		.loc 1 437 0
 869 001c 3C20A0E3 		mov	r2, #60
 870 0020 0010A0E3 		mov	r1, #0
 871 0024 0400A0E1 		mov	r0, r4
 872 0028 FEFFFFEB 		bl	memset
 873              	.LVL74:
 440:D:/Work/DeviceTester/amazon-freertos/tests/common/ota\aws_test_ota_pal.c ****     xOtaStatus = prvPAL_CreateFileForRx( &xOtaFile );
 874              		.loc 1 440 0
 875 002c BC309FE5 		ldr	r3, .L61+4
 441:D:/Work/DeviceTester/amazon-freertos/tests/common/ota\aws_test_ota_pal.c ****     TEST_ASSERT_EQUAL( kOTA_Err_None, xOtaStatus );
 876              		.loc 1 441 0
 877 0030 0400A0E1 		mov	r0, r4
 440:D:/Work/DeviceTester/amazon-freertos/tests/common/ota\aws_test_ota_pal.c ****     xOtaStatus = prvPAL_CreateFileForRx( &xOtaFile );
 878              		.loc 1 440 0
 879 0034 003084E5 		str	r3, [r4]
 441:D:/Work/DeviceTester/amazon-freertos/tests/common/ota\aws_test_ota_pal.c ****     TEST_ASSERT_EQUAL( kOTA_Err_None, xOtaStatus );
 880              		.loc 1 441 0
 881 0038 FEFFFFEB 		bl	prvPAL_CreateFileForRx
 882              	.LVL75:
 442:D:/Work/DeviceTester/amazon-freertos/tests/common/ota\aws_test_ota_pal.c **** 
 883              		.loc 1 442 0
 884 003c 0020A0E3 		mov	r2, #0
 885 0040 1430A0E3 		mov	r3, #20
 886 0044 00308DE5 		str	r3, [sp]
 887 0048 0010A0E1 		mov	r1, r0
 888 004c BA3100E3 		movw	r3, #442
 889 0050 0200A0E1 		mov	r0, r2
 890              	.LVL76:
 891 0054 FEFFFFEB 		bl	UnityAssertEqualNumber
 892              	.LVL77:
 445:D:/Work/DeviceTester/amazon-freertos/tests/common/ota\aws_test_ota_pal.c ****     {
 893              		.loc 1 445 0
 894 0058 94009FE5 		ldr	r0, .L61+8
 895 005c FEFFFFEB 		bl	setjmp
 896              	.LVL78:
 897 0060 005050E2 		subs	r5, r0, #0
 898 0064 1E00001A 		bne	.L57
 448:D:/Work/DeviceTester/amazon-freertos/tests/common/ota\aws_test_ota_pal.c ****                                         0,
 899              		.loc 1 448 0
 900 0068 5430A0E3 		mov	r3, #84
 901 006c 84209FE5 		ldr	r2, .L61+12
 902 0070 0510A0E1 		mov	r1, r5
 903 0074 0400A0E1 		mov	r0, r4
 904 0078 FEFFFFEB 		bl	prvPAL_WriteBlock
 905              	.LVL79:
 452:D:/Work/DeviceTester/amazon-freertos/tests/common/ota\aws_test_ota_pal.c **** 
 906              		.loc 1 452 0
 907 007c 1430A0E3 		mov	r3, #20
 908 0080 0010A0E1 		mov	r1, r0
 909 0084 00308DE5 		str	r3, [sp]
 910 0088 0520A0E1 		mov	r2, r5
 911 008c 713FA0E3 		mov	r3, #452
 912 0090 5400A0E3 		mov	r0, #84
 913              	.LVL80:
 914 0094 FEFFFFEB 		bl	UnityAssertEqualNumber
 915              	.LVL81:
 455:D:/Work/DeviceTester/amazon-freertos/tests/common/ota\aws_test_ota_pal.c ****         xOtaFile.pxSignature->usSize = ucValidSignatureLength;
 916              		.loc 1 455 0
 917 0098 0C308DE2 		add	r3, sp, #12
 456:D:/Work/DeviceTester/amazon-freertos/tests/common/ota\aws_test_ota_pal.c ****         memcpy( xOtaFile.pxSignature->ucData, ucValidSignature, ucValidSignatureLength );
 918              		.loc 1 456 0
 919 009c 4620A0E3 		mov	r2, #70
 457:D:/Work/DeviceTester/amazon-freertos/tests/common/ota\aws_test_ota_pal.c ****         xOtaFile.pucCertFilepath = ( uint8_t * ) ( "nonexistingfile.crt" );
 920              		.loc 1 457 0
 921 00a0 54109FE5 		ldr	r1, .L61+16
 922 00a4 0E008DE2 		add	r0, sp, #14
 455:D:/Work/DeviceTester/amazon-freertos/tests/common/ota\aws_test_ota_pal.c ****         xOtaFile.pxSignature->usSize = ucValidSignatureLength;
 923              		.loc 1 455 0
 924 00a8 283084E5 		str	r3, [r4, #40]
 456:D:/Work/DeviceTester/amazon-freertos/tests/common/ota\aws_test_ota_pal.c ****         memcpy( xOtaFile.pxSignature->ucData, ucValidSignature, ucValidSignatureLength );
 925              		.loc 1 456 0
 926 00ac BC20CDE1 		strh	r2, [sp, #12]	@ movhi
 457:D:/Work/DeviceTester/amazon-freertos/tests/common/ota\aws_test_ota_pal.c ****         xOtaFile.pucCertFilepath = ( uint8_t * ) ( "nonexistingfile.crt" );
 927              		.loc 1 457 0
 928 00b0 FEFFFFEB 		bl	memcpy
 929              	.LVL82:
 458:D:/Work/DeviceTester/amazon-freertos/tests/common/ota\aws_test_ota_pal.c **** 
 930              		.loc 1 458 0
 931 00b4 44309FE5 		ldr	r3, .L61+20
 460:D:/Work/DeviceTester/amazon-freertos/tests/common/ota\aws_test_ota_pal.c **** 
 932              		.loc 1 460 0
 933 00b8 0400A0E1 		mov	r0, r4
 458:D:/Work/DeviceTester/amazon-freertos/tests/common/ota\aws_test_ota_pal.c **** 
 934              		.loc 1 458 0
 935 00bc 303084E5 		str	r3, [r4, #48]
 460:D:/Work/DeviceTester/amazon-freertos/tests/common/ota\aws_test_ota_pal.c **** 
 936              		.loc 1 460 0
 937 00c0 FEFFFFEB 		bl	prvPAL_CloseFile
 938              	.LVL83:
 462:D:/Work/DeviceTester/amazon-freertos/tests/common/ota\aws_test_ota_pal.c ****             ( kOTA_Err_SignatureCheckFailed != ( xOtaStatus & ~kOTA_PAL_ErrMask ) ) &&
 939              		.loc 1 462 0
 940 00c4 FF3400E2 		and	r3, r0, #-16777216
 941 00c8 EF0400E2 		and	r0, r0, #-285212672
 942              	.LVL84:
 463:D:/Work/DeviceTester/amazon-freertos/tests/common/ota\aws_test_ota_pal.c ****             ( kOTA_Err_FileClose != ( xOtaStatus & ~kOTA_PAL_ErrMask ) ) )
 943              		.loc 1 463 0
 944 00cc 020453E3 		cmp	r3, #33554432
 945 00d0 01045013 		cmpne	r0, #16777216
 946 00d4 0200000A 		beq	.L57
 466:D:/Work/DeviceTester/amazon-freertos/tests/common/ota\aws_test_ota_pal.c ****         }
 947              		.loc 1 466 0 discriminator 1
 948 00d8 D21100E3 		movw	r1, #466
 949 00dc 20009FE5 		ldr	r0, .L61+24
 950 00e0 FEFFFFEB 		bl	UnityFail
 951              	.LVL85:
 952              	.L57:
 469:D:/Work/DeviceTester/amazon-freertos/tests/common/ota\aws_test_ota_pal.c **** 
 953              		.loc 1 469 0
 954 00e4 45DF8DE2 		add	sp, sp, #276
 955              		.cfi_def_cfa_offset 12
 956              		@ sp needed
 957 00e8 3080BDE8 		pop	{r4, r5, pc}
 958              	.L62:
 959              		.align	2
 960              	.L61:
 961 00ec 00000000 		.word	.LANCHOR0
 962 00f0 00000000 		.word	.LC1
 963 00f4 28000000 		.word	Unity+40
 964 00f8 00000000 		.word	.LANCHOR1
 965 00fc 00000000 		.word	.LANCHOR2
 966 0100 00000000 		.word	.LC6
 967 0104 00000000 		.word	.LC5
 968              		.cfi_endproc
 969              	.LFE14:
 971              		.section	.text.TEST_Full_OTA_PAL_prvPAL_CheckFileSignature_InvalidSignatureNoBlockWritten_,"ax",%p
 972              		.align	2
 973              		.global	TEST_Full_OTA_PAL_prvPAL_CheckFileSignature_InvalidSignatureNoBlockWritten_
 974              		.syntax unified
 975              		.arm
 976              		.fpu neon
 978              	TEST_Full_OTA_PAL_prvPAL_CheckFileSignature_InvalidSignatureNoBlockWritten_:
 979              	.LFB54:
 587:D:/Work/DeviceTester/amazon-freertos/tests/common/ota\aws_test_ota_pal.c **** 
 588:D:/Work/DeviceTester/amazon-freertos/tests/common/ota\aws_test_ota_pal.c **** /**
 589:D:/Work/DeviceTester/amazon-freertos/tests/common/ota\aws_test_ota_pal.c ****  * @brief Write many blocks of data to a file opened in the device. Verify success.
 590:D:/Work/DeviceTester/amazon-freertos/tests/common/ota\aws_test_ota_pal.c ****  */
 591:D:/Work/DeviceTester/amazon-freertos/tests/common/ota\aws_test_ota_pal.c **** TEST( Full_OTA_PAL, prvPAL_WriteBlock_WriteManyBlocks )
 592:D:/Work/DeviceTester/amazon-freertos/tests/common/ota\aws_test_ota_pal.c **** {
 593:D:/Work/DeviceTester/amazon-freertos/tests/common/ota\aws_test_ota_pal.c ****     OTA_Err_t xOtaStatus;
 594:D:/Work/DeviceTester/amazon-freertos/tests/common/ota\aws_test_ota_pal.c ****     int16_t sNumBytesWritten;
 595:D:/Work/DeviceTester/amazon-freertos/tests/common/ota\aws_test_ota_pal.c **** 
 596:D:/Work/DeviceTester/amazon-freertos/tests/common/ota\aws_test_ota_pal.c ****     xOtaFile.pucFilePath = ( uint8_t * ) otatestpalFIRMWARE_FILE;
 597:D:/Work/DeviceTester/amazon-freertos/tests/common/ota\aws_test_ota_pal.c **** 
 598:D:/Work/DeviceTester/amazon-freertos/tests/common/ota\aws_test_ota_pal.c ****     /* TEST: Write many bytes of data. */
 599:D:/Work/DeviceTester/amazon-freertos/tests/common/ota\aws_test_ota_pal.c **** 
 600:D:/Work/DeviceTester/amazon-freertos/tests/common/ota\aws_test_ota_pal.c ****     xOtaFile.pucFilePath = ( uint8_t * ) otatestpalFIRMWARE_FILE;
 601:D:/Work/DeviceTester/amazon-freertos/tests/common/ota\aws_test_ota_pal.c ****     xOtaStatus = prvPAL_CreateFileForRx( &xOtaFile );
 602:D:/Work/DeviceTester/amazon-freertos/tests/common/ota\aws_test_ota_pal.c ****     TEST_ASSERT_EQUAL( kOTA_Err_None, xOtaStatus );
 603:D:/Work/DeviceTester/amazon-freertos/tests/common/ota\aws_test_ota_pal.c **** 
 604:D:/Work/DeviceTester/amazon-freertos/tests/common/ota\aws_test_ota_pal.c ****     if( TEST_PROTECT() )
 605:D:/Work/DeviceTester/amazon-freertos/tests/common/ota\aws_test_ota_pal.c ****     {
 606:D:/Work/DeviceTester/amazon-freertos/tests/common/ota\aws_test_ota_pal.c ****         int lIndex = 0;
 607:D:/Work/DeviceTester/amazon-freertos/tests/common/ota\aws_test_ota_pal.c **** 
 608:D:/Work/DeviceTester/amazon-freertos/tests/common/ota\aws_test_ota_pal.c ****         for( lIndex = 0; lIndex < testotapalNUM_WRITE_BLOCKS; lIndex++ )
 609:D:/Work/DeviceTester/amazon-freertos/tests/common/ota\aws_test_ota_pal.c ****         {
 610:D:/Work/DeviceTester/amazon-freertos/tests/common/ota\aws_test_ota_pal.c ****             sNumBytesWritten = prvPAL_WriteBlock( &xOtaFile, lIndex * sizeof( ucDummyData ), ucDumm
 611:D:/Work/DeviceTester/amazon-freertos/tests/common/ota\aws_test_ota_pal.c ****             TEST_ASSERT_EQUAL_INT( sizeof( ucDummyData ), sNumBytesWritten );
 612:D:/Work/DeviceTester/amazon-freertos/tests/common/ota\aws_test_ota_pal.c ****         }
 613:D:/Work/DeviceTester/amazon-freertos/tests/common/ota\aws_test_ota_pal.c **** 
 614:D:/Work/DeviceTester/amazon-freertos/tests/common/ota\aws_test_ota_pal.c ****         /* Sufficient delay for flash write to complete. */
 615:D:/Work/DeviceTester/amazon-freertos/tests/common/ota\aws_test_ota_pal.c ****         vTaskDelay( pdMS_TO_TICKS( testotapalWRITE_BLOCKS_DELAY_MS ) );
 616:D:/Work/DeviceTester/amazon-freertos/tests/common/ota\aws_test_ota_pal.c ****     }
 617:D:/Work/DeviceTester/amazon-freertos/tests/common/ota\aws_test_ota_pal.c **** }
 618:D:/Work/DeviceTester/amazon-freertos/tests/common/ota\aws_test_ota_pal.c **** 
 619:D:/Work/DeviceTester/amazon-freertos/tests/common/ota\aws_test_ota_pal.c **** /**
 620:D:/Work/DeviceTester/amazon-freertos/tests/common/ota\aws_test_ota_pal.c ****  * Call prvPAL_ActivateNewImage() and verify success. This function is expected to
 621:D:/Work/DeviceTester/amazon-freertos/tests/common/ota\aws_test_ota_pal.c ****  * reset the device, so this test is only supported on the Windows Simulator environment.
 622:D:/Work/DeviceTester/amazon-freertos/tests/common/ota\aws_test_ota_pal.c ****  * The Windows Simulator environment does not reset.
 623:D:/Work/DeviceTester/amazon-freertos/tests/common/ota\aws_test_ota_pal.c ****  */
 624:D:/Work/DeviceTester/amazon-freertos/tests/common/ota\aws_test_ota_pal.c **** TEST( Full_OTA_PAL, prvPAL_ActivateNewImage )
 625:D:/Work/DeviceTester/amazon-freertos/tests/common/ota\aws_test_ota_pal.c **** {
 626:D:/Work/DeviceTester/amazon-freertos/tests/common/ota\aws_test_ota_pal.c ****     OTA_Err_t xOtaStatus = prvPAL_ActivateNewImage();
 627:D:/Work/DeviceTester/amazon-freertos/tests/common/ota\aws_test_ota_pal.c **** 
 628:D:/Work/DeviceTester/amazon-freertos/tests/common/ota\aws_test_ota_pal.c ****     TEST_ASSERT_EQUAL_INT( kOTA_Err_None, xOtaStatus );
 629:D:/Work/DeviceTester/amazon-freertos/tests/common/ota\aws_test_ota_pal.c **** }
 630:D:/Work/DeviceTester/amazon-freertos/tests/common/ota\aws_test_ota_pal.c **** 
 631:D:/Work/DeviceTester/amazon-freertos/tests/common/ota\aws_test_ota_pal.c **** /**
 632:D:/Work/DeviceTester/amazon-freertos/tests/common/ota\aws_test_ota_pal.c ****  * @brief Set the platform state to self-test and verify success.
 633:D:/Work/DeviceTester/amazon-freertos/tests/common/ota\aws_test_ota_pal.c ****  */
 634:D:/Work/DeviceTester/amazon-freertos/tests/common/ota\aws_test_ota_pal.c **** TEST( Full_OTA_PAL, prvPAL_SetPlatformImageState_SelfTestImageState )
 635:D:/Work/DeviceTester/amazon-freertos/tests/common/ota\aws_test_ota_pal.c **** {
 636:D:/Work/DeviceTester/amazon-freertos/tests/common/ota\aws_test_ota_pal.c ****     OTA_Err_t xOtaStatus;
 637:D:/Work/DeviceTester/amazon-freertos/tests/common/ota\aws_test_ota_pal.c **** 
 638:D:/Work/DeviceTester/amazon-freertos/tests/common/ota\aws_test_ota_pal.c ****     OTA_ImageState_t eImageState = eOTA_ImageState_Unknown;
 639:D:/Work/DeviceTester/amazon-freertos/tests/common/ota\aws_test_ota_pal.c **** 
 640:D:/Work/DeviceTester/amazon-freertos/tests/common/ota\aws_test_ota_pal.c ****     /* Create a local file again using the PAL. */
 641:D:/Work/DeviceTester/amazon-freertos/tests/common/ota\aws_test_ota_pal.c ****     xOtaFile.pucFilePath = ( uint8_t * ) otatestpalFIRMWARE_FILE;
 642:D:/Work/DeviceTester/amazon-freertos/tests/common/ota\aws_test_ota_pal.c ****     xOtaStatus = prvPAL_CreateFileForRx( &xOtaFile );
 643:D:/Work/DeviceTester/amazon-freertos/tests/common/ota\aws_test_ota_pal.c ****     TEST_ASSERT_EQUAL( kOTA_Err_None, xOtaStatus );
 644:D:/Work/DeviceTester/amazon-freertos/tests/common/ota\aws_test_ota_pal.c **** 
 645:D:/Work/DeviceTester/amazon-freertos/tests/common/ota\aws_test_ota_pal.c ****     /* We still want to close the file if the test fails. */
 646:D:/Work/DeviceTester/amazon-freertos/tests/common/ota\aws_test_ota_pal.c ****     if( TEST_PROTECT() )
 647:D:/Work/DeviceTester/amazon-freertos/tests/common/ota\aws_test_ota_pal.c ****     {
 648:D:/Work/DeviceTester/amazon-freertos/tests/common/ota\aws_test_ota_pal.c ****         /* Write data to the file. */
 649:D:/Work/DeviceTester/amazon-freertos/tests/common/ota\aws_test_ota_pal.c ****         xOtaStatus = prvPAL_WriteBlock( &xOtaFile,
 650:D:/Work/DeviceTester/amazon-freertos/tests/common/ota\aws_test_ota_pal.c ****                                         0,
 651:D:/Work/DeviceTester/amazon-freertos/tests/common/ota\aws_test_ota_pal.c ****                                         ucDummyData,
 652:D:/Work/DeviceTester/amazon-freertos/tests/common/ota\aws_test_ota_pal.c ****                                         sizeof( ucDummyData ) );
 653:D:/Work/DeviceTester/amazon-freertos/tests/common/ota\aws_test_ota_pal.c ****         TEST_ASSERT_EQUAL( sizeof( ucDummyData ), xOtaStatus );
 654:D:/Work/DeviceTester/amazon-freertos/tests/common/ota\aws_test_ota_pal.c **** 
 655:D:/Work/DeviceTester/amazon-freertos/tests/common/ota\aws_test_ota_pal.c ****         /* Set the image state. */
 656:D:/Work/DeviceTester/amazon-freertos/tests/common/ota\aws_test_ota_pal.c ****         eImageState = eOTA_ImageState_Testing;
 657:D:/Work/DeviceTester/amazon-freertos/tests/common/ota\aws_test_ota_pal.c ****         xOtaStatus = prvPAL_SetPlatformImageState( eImageState );
 658:D:/Work/DeviceTester/amazon-freertos/tests/common/ota\aws_test_ota_pal.c ****         TEST_ASSERT_EQUAL_INT( kOTA_Err_None, xOtaStatus );
 659:D:/Work/DeviceTester/amazon-freertos/tests/common/ota\aws_test_ota_pal.c **** 
 660:D:/Work/DeviceTester/amazon-freertos/tests/common/ota\aws_test_ota_pal.c ****         /* Verify that image state was saved correctly. */
 661:D:/Work/DeviceTester/amazon-freertos/tests/common/ota\aws_test_ota_pal.c **** 
 662:D:/Work/DeviceTester/amazon-freertos/tests/common/ota\aws_test_ota_pal.c ****         /* [**]All platforms need a reboot of a successfully close image in order to return
 663:D:/Work/DeviceTester/amazon-freertos/tests/common/ota\aws_test_ota_pal.c ****          * eOTA_PAL_ImageState_PendingCommit from prvPAL_GetPlatformImageState(). So this cannot be
 664:D:/Work/DeviceTester/amazon-freertos/tests/common/ota\aws_test_ota_pal.c ****          */
 665:D:/Work/DeviceTester/amazon-freertos/tests/common/ota\aws_test_ota_pal.c **** 
 666:D:/Work/DeviceTester/amazon-freertos/tests/common/ota\aws_test_ota_pal.c ****         /*ePalImageState = prvPAL_GetPlatformImageState();
 667:D:/Work/DeviceTester/amazon-freertos/tests/common/ota\aws_test_ota_pal.c ****          * TEST_ASSERT_EQUAL_INT( eOTA_PAL_ImageState_PendingCommit, ePalImageState ); */
 668:D:/Work/DeviceTester/amazon-freertos/tests/common/ota\aws_test_ota_pal.c ****     }
 669:D:/Work/DeviceTester/amazon-freertos/tests/common/ota\aws_test_ota_pal.c **** }
 670:D:/Work/DeviceTester/amazon-freertos/tests/common/ota\aws_test_ota_pal.c **** 
 671:D:/Work/DeviceTester/amazon-freertos/tests/common/ota\aws_test_ota_pal.c **** /**
 672:D:/Work/DeviceTester/amazon-freertos/tests/common/ota\aws_test_ota_pal.c ****  * @brief Set an invalid platform image state exceeding the range and verify success.
 673:D:/Work/DeviceTester/amazon-freertos/tests/common/ota\aws_test_ota_pal.c ****  */
 674:D:/Work/DeviceTester/amazon-freertos/tests/common/ota\aws_test_ota_pal.c **** TEST( Full_OTA_PAL, prvPAL_SetPlatformImageState_InvalidImageState )
 675:D:/Work/DeviceTester/amazon-freertos/tests/common/ota\aws_test_ota_pal.c **** {
 676:D:/Work/DeviceTester/amazon-freertos/tests/common/ota\aws_test_ota_pal.c ****     OTA_Err_t xOtaStatus;
 677:D:/Work/DeviceTester/amazon-freertos/tests/common/ota\aws_test_ota_pal.c ****     OTA_ImageState_t eImageState = eOTA_ImageState_Unknown;
 678:D:/Work/DeviceTester/amazon-freertos/tests/common/ota\aws_test_ota_pal.c **** 
 679:D:/Work/DeviceTester/amazon-freertos/tests/common/ota\aws_test_ota_pal.c ****     /* Create a local file again using the PAL. */
 680:D:/Work/DeviceTester/amazon-freertos/tests/common/ota\aws_test_ota_pal.c ****     xOtaFile.pucFilePath = ( uint8_t * ) otatestpalFIRMWARE_FILE;
 681:D:/Work/DeviceTester/amazon-freertos/tests/common/ota\aws_test_ota_pal.c ****     xOtaStatus = prvPAL_CreateFileForRx( &xOtaFile );
 682:D:/Work/DeviceTester/amazon-freertos/tests/common/ota\aws_test_ota_pal.c ****     TEST_ASSERT_EQUAL( kOTA_Err_None, xOtaStatus );
 683:D:/Work/DeviceTester/amazon-freertos/tests/common/ota\aws_test_ota_pal.c **** 
 684:D:/Work/DeviceTester/amazon-freertos/tests/common/ota\aws_test_ota_pal.c ****     /* We still want to close the file if the test fails. */
 685:D:/Work/DeviceTester/amazon-freertos/tests/common/ota\aws_test_ota_pal.c ****     if( TEST_PROTECT() )
 686:D:/Work/DeviceTester/amazon-freertos/tests/common/ota\aws_test_ota_pal.c ****     {
 687:D:/Work/DeviceTester/amazon-freertos/tests/common/ota\aws_test_ota_pal.c ****         /* Write data to the file. */
 688:D:/Work/DeviceTester/amazon-freertos/tests/common/ota\aws_test_ota_pal.c ****         xOtaStatus = prvPAL_WriteBlock( &xOtaFile,
 689:D:/Work/DeviceTester/amazon-freertos/tests/common/ota\aws_test_ota_pal.c ****                                         0,
 690:D:/Work/DeviceTester/amazon-freertos/tests/common/ota\aws_test_ota_pal.c ****                                         ucDummyData,
 691:D:/Work/DeviceTester/amazon-freertos/tests/common/ota\aws_test_ota_pal.c ****                                         sizeof( ucDummyData ) );
 692:D:/Work/DeviceTester/amazon-freertos/tests/common/ota\aws_test_ota_pal.c ****         TEST_ASSERT_EQUAL( sizeof( ucDummyData ), xOtaStatus );
 693:D:/Work/DeviceTester/amazon-freertos/tests/common/ota\aws_test_ota_pal.c **** 
 694:D:/Work/DeviceTester/amazon-freertos/tests/common/ota\aws_test_ota_pal.c ****         /* Try to set an invalid image state. */
 695:D:/Work/DeviceTester/amazon-freertos/tests/common/ota\aws_test_ota_pal.c ****         eImageState = eOTA_LastImageState + 1;
 696:D:/Work/DeviceTester/amazon-freertos/tests/common/ota\aws_test_ota_pal.c ****         xOtaStatus = prvPAL_SetPlatformImageState( eImageState );
 697:D:/Work/DeviceTester/amazon-freertos/tests/common/ota\aws_test_ota_pal.c ****         TEST_ASSERT_EQUAL( kOTA_Err_BadImageState, ( xOtaStatus & ~kOTA_PAL_ErrMask ) );
 698:D:/Work/DeviceTester/amazon-freertos/tests/common/ota\aws_test_ota_pal.c ****     }
 699:D:/Work/DeviceTester/amazon-freertos/tests/common/ota\aws_test_ota_pal.c **** }
 700:D:/Work/DeviceTester/amazon-freertos/tests/common/ota\aws_test_ota_pal.c **** 
 701:D:/Work/DeviceTester/amazon-freertos/tests/common/ota\aws_test_ota_pal.c **** /**
 702:D:/Work/DeviceTester/amazon-freertos/tests/common/ota\aws_test_ota_pal.c ****  * @brief Set the image state to unknown and verify a failure.
 703:D:/Work/DeviceTester/amazon-freertos/tests/common/ota\aws_test_ota_pal.c ****  */
 704:D:/Work/DeviceTester/amazon-freertos/tests/common/ota\aws_test_ota_pal.c **** TEST( Full_OTA_PAL, prvPAL_SetPlatformImageState_UnknownImageState )
 705:D:/Work/DeviceTester/amazon-freertos/tests/common/ota\aws_test_ota_pal.c **** {
 706:D:/Work/DeviceTester/amazon-freertos/tests/common/ota\aws_test_ota_pal.c ****     OTA_Err_t xOtaStatus;
 707:D:/Work/DeviceTester/amazon-freertos/tests/common/ota\aws_test_ota_pal.c ****     OTA_ImageState_t eImageState = eOTA_ImageState_Unknown;
 708:D:/Work/DeviceTester/amazon-freertos/tests/common/ota\aws_test_ota_pal.c **** 
 709:D:/Work/DeviceTester/amazon-freertos/tests/common/ota\aws_test_ota_pal.c ****     /* Create a local file again using the PAL. */
 710:D:/Work/DeviceTester/amazon-freertos/tests/common/ota\aws_test_ota_pal.c ****     xOtaFile.pucFilePath = ( uint8_t * ) otatestpalFIRMWARE_FILE;
 711:D:/Work/DeviceTester/amazon-freertos/tests/common/ota\aws_test_ota_pal.c ****     xOtaStatus = prvPAL_CreateFileForRx( &xOtaFile );
 712:D:/Work/DeviceTester/amazon-freertos/tests/common/ota\aws_test_ota_pal.c ****     TEST_ASSERT_EQUAL( kOTA_Err_None, xOtaStatus );
 713:D:/Work/DeviceTester/amazon-freertos/tests/common/ota\aws_test_ota_pal.c **** 
 714:D:/Work/DeviceTester/amazon-freertos/tests/common/ota\aws_test_ota_pal.c ****     /* We still want to close the file if the test fails. */
 715:D:/Work/DeviceTester/amazon-freertos/tests/common/ota\aws_test_ota_pal.c ****     if( TEST_PROTECT() )
 716:D:/Work/DeviceTester/amazon-freertos/tests/common/ota\aws_test_ota_pal.c ****     {
 717:D:/Work/DeviceTester/amazon-freertos/tests/common/ota\aws_test_ota_pal.c ****         /* Write data to the file. */
 718:D:/Work/DeviceTester/amazon-freertos/tests/common/ota\aws_test_ota_pal.c ****         xOtaStatus = prvPAL_WriteBlock( &xOtaFile,
 719:D:/Work/DeviceTester/amazon-freertos/tests/common/ota\aws_test_ota_pal.c ****                                         0,
 720:D:/Work/DeviceTester/amazon-freertos/tests/common/ota\aws_test_ota_pal.c ****                                         ucDummyData,
 721:D:/Work/DeviceTester/amazon-freertos/tests/common/ota\aws_test_ota_pal.c ****                                         sizeof( ucDummyData ) );
 722:D:/Work/DeviceTester/amazon-freertos/tests/common/ota\aws_test_ota_pal.c ****         TEST_ASSERT_EQUAL( sizeof( ucDummyData ), xOtaStatus );
 723:D:/Work/DeviceTester/amazon-freertos/tests/common/ota\aws_test_ota_pal.c **** 
 724:D:/Work/DeviceTester/amazon-freertos/tests/common/ota\aws_test_ota_pal.c ****         /* Try to set an invalid image state. */
 725:D:/Work/DeviceTester/amazon-freertos/tests/common/ota\aws_test_ota_pal.c ****         eImageState = eOTA_ImageState_Unknown;
 726:D:/Work/DeviceTester/amazon-freertos/tests/common/ota\aws_test_ota_pal.c ****         xOtaStatus = prvPAL_SetPlatformImageState( eImageState );
 727:D:/Work/DeviceTester/amazon-freertos/tests/common/ota\aws_test_ota_pal.c ****         TEST_ASSERT_EQUAL( kOTA_Err_BadImageState, ( xOtaStatus & ~kOTA_PAL_ErrMask ) );
 728:D:/Work/DeviceTester/amazon-freertos/tests/common/ota\aws_test_ota_pal.c ****     }
 729:D:/Work/DeviceTester/amazon-freertos/tests/common/ota\aws_test_ota_pal.c **** }
 730:D:/Work/DeviceTester/amazon-freertos/tests/common/ota\aws_test_ota_pal.c **** 
 731:D:/Work/DeviceTester/amazon-freertos/tests/common/ota\aws_test_ota_pal.c **** /**
 732:D:/Work/DeviceTester/amazon-freertos/tests/common/ota\aws_test_ota_pal.c ****  * @brief Set the image state to accepted with an image that was never closed. We are
 733:D:/Work/DeviceTester/amazon-freertos/tests/common/ota\aws_test_ota_pal.c ****  * expecting an error in this case.
 734:D:/Work/DeviceTester/amazon-freertos/tests/common/ota\aws_test_ota_pal.c ****  * Verify the correct OTA Agent level error code is returned from prvPAL_SetPlatformImageState.
 735:D:/Work/DeviceTester/amazon-freertos/tests/common/ota\aws_test_ota_pal.c ****  */
 736:D:/Work/DeviceTester/amazon-freertos/tests/common/ota\aws_test_ota_pal.c **** TEST( Full_OTA_PAL, prvPAL_SetPlatformImageState_AcceptedImageStateButImageNotClosed )
 737:D:/Work/DeviceTester/amazon-freertos/tests/common/ota\aws_test_ota_pal.c **** {
 738:D:/Work/DeviceTester/amazon-freertos/tests/common/ota\aws_test_ota_pal.c ****     OTA_Err_t xOtaStatus;
 739:D:/Work/DeviceTester/amazon-freertos/tests/common/ota\aws_test_ota_pal.c ****     OTA_ImageState_t eImageState = eOTA_ImageState_Unknown;
 740:D:/Work/DeviceTester/amazon-freertos/tests/common/ota\aws_test_ota_pal.c **** 
 741:D:/Work/DeviceTester/amazon-freertos/tests/common/ota\aws_test_ota_pal.c ****     /* Create a local file again using the PAL. */
 742:D:/Work/DeviceTester/amazon-freertos/tests/common/ota\aws_test_ota_pal.c ****     xOtaFile.pucFilePath = ( uint8_t * ) otatestpalFIRMWARE_FILE;
 743:D:/Work/DeviceTester/amazon-freertos/tests/common/ota\aws_test_ota_pal.c ****     xOtaStatus = prvPAL_CreateFileForRx( &xOtaFile );
 744:D:/Work/DeviceTester/amazon-freertos/tests/common/ota\aws_test_ota_pal.c ****     TEST_ASSERT_EQUAL( kOTA_Err_None, xOtaStatus );
 745:D:/Work/DeviceTester/amazon-freertos/tests/common/ota\aws_test_ota_pal.c **** 
 746:D:/Work/DeviceTester/amazon-freertos/tests/common/ota\aws_test_ota_pal.c ****     /* We still want to close the file if the test fails. */
 747:D:/Work/DeviceTester/amazon-freertos/tests/common/ota\aws_test_ota_pal.c ****     if( TEST_PROTECT() )
 748:D:/Work/DeviceTester/amazon-freertos/tests/common/ota\aws_test_ota_pal.c ****     {
 749:D:/Work/DeviceTester/amazon-freertos/tests/common/ota\aws_test_ota_pal.c ****         /* Write data to the file. */
 750:D:/Work/DeviceTester/amazon-freertos/tests/common/ota\aws_test_ota_pal.c ****         xOtaStatus = prvPAL_WriteBlock( &xOtaFile,
 751:D:/Work/DeviceTester/amazon-freertos/tests/common/ota\aws_test_ota_pal.c ****                                         0,
 752:D:/Work/DeviceTester/amazon-freertos/tests/common/ota\aws_test_ota_pal.c ****                                         ucDummyData,
 753:D:/Work/DeviceTester/amazon-freertos/tests/common/ota\aws_test_ota_pal.c ****                                         sizeof( ucDummyData ) );
 754:D:/Work/DeviceTester/amazon-freertos/tests/common/ota\aws_test_ota_pal.c ****         TEST_ASSERT_EQUAL( sizeof( ucDummyData ), xOtaStatus );
 755:D:/Work/DeviceTester/amazon-freertos/tests/common/ota\aws_test_ota_pal.c **** 
 756:D:/Work/DeviceTester/amazon-freertos/tests/common/ota\aws_test_ota_pal.c ****         eImageState = eOTA_ImageState_Accepted;
 757:D:/Work/DeviceTester/amazon-freertos/tests/common/ota\aws_test_ota_pal.c ****         xOtaStatus = prvPAL_SetPlatformImageState( eImageState );
 758:D:/Work/DeviceTester/amazon-freertos/tests/common/ota\aws_test_ota_pal.c ****         TEST_ASSERT_EQUAL_INT( kOTA_Err_CommitFailed, ( xOtaStatus & ~kOTA_PAL_ErrMask ) );
 759:D:/Work/DeviceTester/amazon-freertos/tests/common/ota\aws_test_ota_pal.c ****     }
 760:D:/Work/DeviceTester/amazon-freertos/tests/common/ota\aws_test_ota_pal.c **** }
 761:D:/Work/DeviceTester/amazon-freertos/tests/common/ota\aws_test_ota_pal.c **** 
 762:D:/Work/DeviceTester/amazon-freertos/tests/common/ota\aws_test_ota_pal.c **** /**
 763:D:/Work/DeviceTester/amazon-freertos/tests/common/ota\aws_test_ota_pal.c ****  * @brief Set platform image state to rejected and verify success.
 764:D:/Work/DeviceTester/amazon-freertos/tests/common/ota\aws_test_ota_pal.c ****  * We cannot test a reject failed without mocking the underlying non volatile memory.
 765:D:/Work/DeviceTester/amazon-freertos/tests/common/ota\aws_test_ota_pal.c ****  */
 766:D:/Work/DeviceTester/amazon-freertos/tests/common/ota\aws_test_ota_pal.c **** TEST( Full_OTA_PAL, prvPAL_SetPlatformImageState_RejectImageState )
 767:D:/Work/DeviceTester/amazon-freertos/tests/common/ota\aws_test_ota_pal.c **** {
 768:D:/Work/DeviceTester/amazon-freertos/tests/common/ota\aws_test_ota_pal.c ****     OTA_Err_t xOtaStatus;
 769:D:/Work/DeviceTester/amazon-freertos/tests/common/ota\aws_test_ota_pal.c ****     OTA_ImageState_t eImageState = eOTA_ImageState_Unknown;
 770:D:/Work/DeviceTester/amazon-freertos/tests/common/ota\aws_test_ota_pal.c **** 
 771:D:/Work/DeviceTester/amazon-freertos/tests/common/ota\aws_test_ota_pal.c ****     /* Create a local file again using the PAL. */
 772:D:/Work/DeviceTester/amazon-freertos/tests/common/ota\aws_test_ota_pal.c ****     xOtaFile.pucFilePath = ( uint8_t * ) otatestpalFIRMWARE_FILE;
 773:D:/Work/DeviceTester/amazon-freertos/tests/common/ota\aws_test_ota_pal.c ****     xOtaStatus = prvPAL_CreateFileForRx( &xOtaFile );
 774:D:/Work/DeviceTester/amazon-freertos/tests/common/ota\aws_test_ota_pal.c ****     TEST_ASSERT_EQUAL( kOTA_Err_None, xOtaStatus );
 775:D:/Work/DeviceTester/amazon-freertos/tests/common/ota\aws_test_ota_pal.c **** 
 776:D:/Work/DeviceTester/amazon-freertos/tests/common/ota\aws_test_ota_pal.c ****     /* We still want to close the file if the test fails. */
 777:D:/Work/DeviceTester/amazon-freertos/tests/common/ota\aws_test_ota_pal.c ****     if( TEST_PROTECT() )
 778:D:/Work/DeviceTester/amazon-freertos/tests/common/ota\aws_test_ota_pal.c ****     {
 779:D:/Work/DeviceTester/amazon-freertos/tests/common/ota\aws_test_ota_pal.c ****         /* Write data to the file. */
 780:D:/Work/DeviceTester/amazon-freertos/tests/common/ota\aws_test_ota_pal.c ****         xOtaStatus = prvPAL_WriteBlock( &xOtaFile,
 781:D:/Work/DeviceTester/amazon-freertos/tests/common/ota\aws_test_ota_pal.c ****                                         0,
 782:D:/Work/DeviceTester/amazon-freertos/tests/common/ota\aws_test_ota_pal.c ****                                         ucDummyData,
 783:D:/Work/DeviceTester/amazon-freertos/tests/common/ota\aws_test_ota_pal.c ****                                         sizeof( ucDummyData ) );
 784:D:/Work/DeviceTester/amazon-freertos/tests/common/ota\aws_test_ota_pal.c ****         TEST_ASSERT_EQUAL( sizeof( ucDummyData ), xOtaStatus );
 785:D:/Work/DeviceTester/amazon-freertos/tests/common/ota\aws_test_ota_pal.c **** 
 786:D:/Work/DeviceTester/amazon-freertos/tests/common/ota\aws_test_ota_pal.c ****         eImageState = eOTA_ImageState_Rejected;
 787:D:/Work/DeviceTester/amazon-freertos/tests/common/ota\aws_test_ota_pal.c ****         xOtaStatus = prvPAL_SetPlatformImageState( eImageState );
 788:D:/Work/DeviceTester/amazon-freertos/tests/common/ota\aws_test_ota_pal.c ****         TEST_ASSERT_EQUAL_INT( kOTA_Err_None, ( xOtaStatus & ~kOTA_PAL_ErrMask ) );
 789:D:/Work/DeviceTester/amazon-freertos/tests/common/ota\aws_test_ota_pal.c ****     }
 790:D:/Work/DeviceTester/amazon-freertos/tests/common/ota\aws_test_ota_pal.c **** }
 791:D:/Work/DeviceTester/amazon-freertos/tests/common/ota\aws_test_ota_pal.c **** 
 792:D:/Work/DeviceTester/amazon-freertos/tests/common/ota\aws_test_ota_pal.c **** /**
 793:D:/Work/DeviceTester/amazon-freertos/tests/common/ota\aws_test_ota_pal.c ****  * @brief Set the platform image state to aborted.
 794:D:/Work/DeviceTester/amazon-freertos/tests/common/ota\aws_test_ota_pal.c ****  * We cannot test a abort failed without mocking the underlyin non-volatile memory.
 795:D:/Work/DeviceTester/amazon-freertos/tests/common/ota\aws_test_ota_pal.c ****  */
 796:D:/Work/DeviceTester/amazon-freertos/tests/common/ota\aws_test_ota_pal.c **** TEST( Full_OTA_PAL, prvPAL_SetPlatformImageState_AbortImageState )
 797:D:/Work/DeviceTester/amazon-freertos/tests/common/ota\aws_test_ota_pal.c **** {
 798:D:/Work/DeviceTester/amazon-freertos/tests/common/ota\aws_test_ota_pal.c ****     OTA_Err_t xOtaStatus;
 799:D:/Work/DeviceTester/amazon-freertos/tests/common/ota\aws_test_ota_pal.c ****     OTA_ImageState_t eImageState = eOTA_ImageState_Unknown;
 800:D:/Work/DeviceTester/amazon-freertos/tests/common/ota\aws_test_ota_pal.c **** 
 801:D:/Work/DeviceTester/amazon-freertos/tests/common/ota\aws_test_ota_pal.c ****     /* Create a local file again using the PAL. */
 802:D:/Work/DeviceTester/amazon-freertos/tests/common/ota\aws_test_ota_pal.c ****     xOtaFile.pucFilePath = ( uint8_t * ) otatestpalFIRMWARE_FILE;
 803:D:/Work/DeviceTester/amazon-freertos/tests/common/ota\aws_test_ota_pal.c ****     xOtaStatus = prvPAL_CreateFileForRx( &xOtaFile );
 804:D:/Work/DeviceTester/amazon-freertos/tests/common/ota\aws_test_ota_pal.c ****     TEST_ASSERT_EQUAL( kOTA_Err_None, xOtaStatus );
 805:D:/Work/DeviceTester/amazon-freertos/tests/common/ota\aws_test_ota_pal.c **** 
 806:D:/Work/DeviceTester/amazon-freertos/tests/common/ota\aws_test_ota_pal.c ****     /* We still want to close the file if the test fails. */
 807:D:/Work/DeviceTester/amazon-freertos/tests/common/ota\aws_test_ota_pal.c ****     if( TEST_PROTECT() )
 808:D:/Work/DeviceTester/amazon-freertos/tests/common/ota\aws_test_ota_pal.c ****     {
 809:D:/Work/DeviceTester/amazon-freertos/tests/common/ota\aws_test_ota_pal.c ****         /* Write data to the file. */
 810:D:/Work/DeviceTester/amazon-freertos/tests/common/ota\aws_test_ota_pal.c ****         xOtaStatus = prvPAL_WriteBlock( &xOtaFile,
 811:D:/Work/DeviceTester/amazon-freertos/tests/common/ota\aws_test_ota_pal.c ****                                         0,
 812:D:/Work/DeviceTester/amazon-freertos/tests/common/ota\aws_test_ota_pal.c ****                                         ucDummyData,
 813:D:/Work/DeviceTester/amazon-freertos/tests/common/ota\aws_test_ota_pal.c ****                                         sizeof( ucDummyData ) );
 814:D:/Work/DeviceTester/amazon-freertos/tests/common/ota\aws_test_ota_pal.c ****         TEST_ASSERT_EQUAL( sizeof( ucDummyData ), xOtaStatus );
 815:D:/Work/DeviceTester/amazon-freertos/tests/common/ota\aws_test_ota_pal.c **** 
 816:D:/Work/DeviceTester/amazon-freertos/tests/common/ota\aws_test_ota_pal.c ****         eImageState = eOTA_ImageState_Aborted;
 817:D:/Work/DeviceTester/amazon-freertos/tests/common/ota\aws_test_ota_pal.c ****         xOtaStatus = prvPAL_SetPlatformImageState( eImageState );
 818:D:/Work/DeviceTester/amazon-freertos/tests/common/ota\aws_test_ota_pal.c ****         TEST_ASSERT_EQUAL_INT( kOTA_Err_None, ( xOtaStatus & ~kOTA_PAL_ErrMask ) );
 819:D:/Work/DeviceTester/amazon-freertos/tests/common/ota\aws_test_ota_pal.c ****     }
 820:D:/Work/DeviceTester/amazon-freertos/tests/common/ota\aws_test_ota_pal.c **** }
 821:D:/Work/DeviceTester/amazon-freertos/tests/common/ota\aws_test_ota_pal.c **** 
 822:D:/Work/DeviceTester/amazon-freertos/tests/common/ota\aws_test_ota_pal.c **** /**
 823:D:/Work/DeviceTester/amazon-freertos/tests/common/ota\aws_test_ota_pal.c ****  * @brief Verify that the current image received is in the invalid state after a
 824:D:/Work/DeviceTester/amazon-freertos/tests/common/ota\aws_test_ota_pal.c ****  * failure to close the file because of a bad signature.
 825:D:/Work/DeviceTester/amazon-freertos/tests/common/ota\aws_test_ota_pal.c ****  */
 826:D:/Work/DeviceTester/amazon-freertos/tests/common/ota\aws_test_ota_pal.c **** TEST( Full_OTA_PAL, prvPAL_GetPlatformImageState_InvalidImageStateFromFileCloseFailure )
 827:D:/Work/DeviceTester/amazon-freertos/tests/common/ota\aws_test_ota_pal.c **** {
 828:D:/Work/DeviceTester/amazon-freertos/tests/common/ota\aws_test_ota_pal.c ****     OTA_Err_t xOtaStatus;
 829:D:/Work/DeviceTester/amazon-freertos/tests/common/ota\aws_test_ota_pal.c ****     Sig256_t xSig = { 0 };
 830:D:/Work/DeviceTester/amazon-freertos/tests/common/ota\aws_test_ota_pal.c ****     OTA_PAL_ImageState_t ePalImageState = eOTA_PAL_ImageState_Unknown;
 831:D:/Work/DeviceTester/amazon-freertos/tests/common/ota\aws_test_ota_pal.c **** 
 832:D:/Work/DeviceTester/amazon-freertos/tests/common/ota\aws_test_ota_pal.c ****     /* TEST: Invalid image returned from prvPAL_GetPlatformImageState(). Using a failure to close. 
 833:D:/Work/DeviceTester/amazon-freertos/tests/common/ota\aws_test_ota_pal.c ****     /* Create a local file again using the PAL. */
 834:D:/Work/DeviceTester/amazon-freertos/tests/common/ota\aws_test_ota_pal.c ****     xOtaFile.pucFilePath = ( uint8_t * ) otatestpalFIRMWARE_FILE;
 835:D:/Work/DeviceTester/amazon-freertos/tests/common/ota\aws_test_ota_pal.c ****     xOtaStatus = prvPAL_CreateFileForRx( &xOtaFile );
 836:D:/Work/DeviceTester/amazon-freertos/tests/common/ota\aws_test_ota_pal.c ****     TEST_ASSERT_EQUAL( kOTA_Err_None, xOtaStatus );
 837:D:/Work/DeviceTester/amazon-freertos/tests/common/ota\aws_test_ota_pal.c **** 
 838:D:/Work/DeviceTester/amazon-freertos/tests/common/ota\aws_test_ota_pal.c ****     /* We still want to close the file if the test fails. */
 839:D:/Work/DeviceTester/amazon-freertos/tests/common/ota\aws_test_ota_pal.c ****     if( TEST_PROTECT() )
 840:D:/Work/DeviceTester/amazon-freertos/tests/common/ota\aws_test_ota_pal.c ****     {
 841:D:/Work/DeviceTester/amazon-freertos/tests/common/ota\aws_test_ota_pal.c ****         /* Write data to the file. */
 842:D:/Work/DeviceTester/amazon-freertos/tests/common/ota\aws_test_ota_pal.c ****         xOtaStatus = prvPAL_WriteBlock( &xOtaFile,
 843:D:/Work/DeviceTester/amazon-freertos/tests/common/ota\aws_test_ota_pal.c ****                                         0,
 844:D:/Work/DeviceTester/amazon-freertos/tests/common/ota\aws_test_ota_pal.c ****                                         ucDummyData,
 845:D:/Work/DeviceTester/amazon-freertos/tests/common/ota\aws_test_ota_pal.c ****                                         sizeof( ucDummyData ) );
 846:D:/Work/DeviceTester/amazon-freertos/tests/common/ota\aws_test_ota_pal.c ****         TEST_ASSERT_EQUAL( sizeof( ucDummyData ), xOtaStatus );
 847:D:/Work/DeviceTester/amazon-freertos/tests/common/ota\aws_test_ota_pal.c **** 
 848:D:/Work/DeviceTester/amazon-freertos/tests/common/ota\aws_test_ota_pal.c ****         /* Check the signature. */
 849:D:/Work/DeviceTester/amazon-freertos/tests/common/ota\aws_test_ota_pal.c ****         xOtaFile.pxSignature = &xSig;
 850:D:/Work/DeviceTester/amazon-freertos/tests/common/ota\aws_test_ota_pal.c ****         xOtaFile.pxSignature->usSize = ucInvalidSignatureLength;
 851:D:/Work/DeviceTester/amazon-freertos/tests/common/ota\aws_test_ota_pal.c ****         memcpy( xOtaFile.pxSignature->ucData, ucInvalidSignature, ucInvalidSignatureLength );
 852:D:/Work/DeviceTester/amazon-freertos/tests/common/ota\aws_test_ota_pal.c ****         xOtaFile.pucCertFilepath = ( uint8_t * ) otatestpalCERTIFICATE_FILE;
 853:D:/Work/DeviceTester/amazon-freertos/tests/common/ota\aws_test_ota_pal.c **** 
 854:D:/Work/DeviceTester/amazon-freertos/tests/common/ota\aws_test_ota_pal.c ****         xOtaStatus = prvPAL_CloseFile( &xOtaFile );
 855:D:/Work/DeviceTester/amazon-freertos/tests/common/ota\aws_test_ota_pal.c **** 
 856:D:/Work/DeviceTester/amazon-freertos/tests/common/ota\aws_test_ota_pal.c ****         if( ( kOTA_Err_BadSignerCert != ( xOtaStatus & ~kOTA_PAL_ErrMask ) ) &&
 857:D:/Work/DeviceTester/amazon-freertos/tests/common/ota\aws_test_ota_pal.c ****             ( kOTA_Err_SignatureCheckFailed != ( xOtaStatus & ~kOTA_PAL_ErrMask ) ) &&
 858:D:/Work/DeviceTester/amazon-freertos/tests/common/ota\aws_test_ota_pal.c ****             ( kOTA_Err_FileClose != ( xOtaStatus & ~kOTA_PAL_ErrMask ) ) )
 859:D:/Work/DeviceTester/amazon-freertos/tests/common/ota\aws_test_ota_pal.c ****         {
 860:D:/Work/DeviceTester/amazon-freertos/tests/common/ota\aws_test_ota_pal.c ****             TEST_ASSERT_TRUE( 0 );
 861:D:/Work/DeviceTester/amazon-freertos/tests/common/ota\aws_test_ota_pal.c ****         }
 862:D:/Work/DeviceTester/amazon-freertos/tests/common/ota\aws_test_ota_pal.c **** 
 863:D:/Work/DeviceTester/amazon-freertos/tests/common/ota\aws_test_ota_pal.c ****         /* The file failed to close, so it is invalid or in an unknown state. */
 864:D:/Work/DeviceTester/amazon-freertos/tests/common/ota\aws_test_ota_pal.c ****         ePalImageState = prvPAL_GetPlatformImageState();
 865:D:/Work/DeviceTester/amazon-freertos/tests/common/ota\aws_test_ota_pal.c ****         TEST_ASSERT( ( eOTA_PAL_ImageState_Invalid == ePalImageState ) || ( eOTA_PAL_ImageState_Unk
 866:D:/Work/DeviceTester/amazon-freertos/tests/common/ota\aws_test_ota_pal.c ****     }
 867:D:/Work/DeviceTester/amazon-freertos/tests/common/ota\aws_test_ota_pal.c **** }
 868:D:/Work/DeviceTester/amazon-freertos/tests/common/ota\aws_test_ota_pal.c **** 
 869:D:/Work/DeviceTester/amazon-freertos/tests/common/ota\aws_test_ota_pal.c **** #if ( otatestpalREAD_AND_ASSUME_CERTIFICATE_SUPPORTED == 1 )
 870:D:/Work/DeviceTester/amazon-freertos/tests/common/ota\aws_test_ota_pal.c **** 
 871:D:/Work/DeviceTester/amazon-freertos/tests/common/ota\aws_test_ota_pal.c **** /**
 872:D:/Work/DeviceTester/amazon-freertos/tests/common/ota\aws_test_ota_pal.c ****  * @brief Call prvPAL_ReadAndAssumeCertificate with an existing certificate file
 873:D:/Work/DeviceTester/amazon-freertos/tests/common/ota\aws_test_ota_pal.c ****  * path. Some OTA PAL implementations may use aws_codesigner_certificate.h, in
 874:D:/Work/DeviceTester/amazon-freertos/tests/common/ota\aws_test_ota_pal.c ****  * which case this test should still pass.
 875:D:/Work/DeviceTester/amazon-freertos/tests/common/ota\aws_test_ota_pal.c ****  */
 876:D:/Work/DeviceTester/amazon-freertos/tests/common/ota\aws_test_ota_pal.c ****     TEST( Full_OTA_PAL, prvPAL_ReadAndAssumeCertificate_ExistingFile )
 877:D:/Work/DeviceTester/amazon-freertos/tests/common/ota\aws_test_ota_pal.c ****     {
 878:D:/Work/DeviceTester/amazon-freertos/tests/common/ota\aws_test_ota_pal.c ****         uint8_t * pucSignerCert = NULL;
 879:D:/Work/DeviceTester/amazon-freertos/tests/common/ota\aws_test_ota_pal.c ****         uint8_t * pucCertName = ( uint8_t * ) otatestpalCERTIFICATE_FILE;
 880:D:/Work/DeviceTester/amazon-freertos/tests/common/ota\aws_test_ota_pal.c ****         uint32_t ulSignerCertSize = 0;
 881:D:/Work/DeviceTester/amazon-freertos/tests/common/ota\aws_test_ota_pal.c **** 
 882:D:/Work/DeviceTester/amazon-freertos/tests/common/ota\aws_test_ota_pal.c ****         pucSignerCert = test_prvPAL_ReadAndAssumeCertificate( pucCertName, &ulSignerCertSize );
 883:D:/Work/DeviceTester/amazon-freertos/tests/common/ota\aws_test_ota_pal.c **** 
 884:D:/Work/DeviceTester/amazon-freertos/tests/common/ota\aws_test_ota_pal.c ****         /* Verify that the signer certificate returned is not NULL. */
 885:D:/Work/DeviceTester/amazon-freertos/tests/common/ota\aws_test_ota_pal.c ****         TEST_ASSERT_MESSAGE( pucSignerCert != NULL, "The returned certificate is NULL." );
 886:D:/Work/DeviceTester/amazon-freertos/tests/common/ota\aws_test_ota_pal.c **** 
 887:D:/Work/DeviceTester/amazon-freertos/tests/common/ota\aws_test_ota_pal.c ****         /* Verify the signer certificate size. The certificates are one of the expected certificate
 888:D:/Work/DeviceTester/amazon-freertos/tests/common/ota\aws_test_ota_pal.c ****          * in test/common/ota/test_files. */
 889:D:/Work/DeviceTester/amazon-freertos/tests/common/ota\aws_test_ota_pal.c ****         TEST_ASSERT_GREATER_THAN( 0, ulSignerCertSize );
 890:D:/Work/DeviceTester/amazon-freertos/tests/common/ota\aws_test_ota_pal.c **** 
 891:D:/Work/DeviceTester/amazon-freertos/tests/common/ota\aws_test_ota_pal.c ****         /* Free the certificate file memory. */
 892:D:/Work/DeviceTester/amazon-freertos/tests/common/ota\aws_test_ota_pal.c ****         vPortFree( pucSignerCert );
 893:D:/Work/DeviceTester/amazon-freertos/tests/common/ota\aws_test_ota_pal.c ****     }
 894:D:/Work/DeviceTester/amazon-freertos/tests/common/ota\aws_test_ota_pal.c **** 
 895:D:/Work/DeviceTester/amazon-freertos/tests/common/ota\aws_test_ota_pal.c **** /**
 896:D:/Work/DeviceTester/amazon-freertos/tests/common/ota\aws_test_ota_pal.c ****  * @brief Call test_prvPAL_ReadAndAssumeCertificate with a non existing certificate file
 897:D:/Work/DeviceTester/amazon-freertos/tests/common/ota\aws_test_ota_pal.c ****  * path. This test is valid only for devices that abstract their non-volatile memory
 898:D:/Work/DeviceTester/amazon-freertos/tests/common/ota\aws_test_ota_pal.c ****  * with a file system.
 899:D:/Work/DeviceTester/amazon-freertos/tests/common/ota\aws_test_ota_pal.c ****  */
 900:D:/Work/DeviceTester/amazon-freertos/tests/common/ota\aws_test_ota_pal.c ****     TEST( Full_OTA_PAL, prvPAL_ReadAndAssumeCertificate_NonexistentFile )
 901:D:/Work/DeviceTester/amazon-freertos/tests/common/ota\aws_test_ota_pal.c ****     {
 902:D:/Work/DeviceTester/amazon-freertos/tests/common/ota\aws_test_ota_pal.c ****         uint8_t * pucSignerCert = NULL;
 903:D:/Work/DeviceTester/amazon-freertos/tests/common/ota\aws_test_ota_pal.c ****         uint8_t * pucCertName = ( uint8_t * ) ( "non-existing-file.pem" );
 904:D:/Work/DeviceTester/amazon-freertos/tests/common/ota\aws_test_ota_pal.c ****         uint32_t ulSignerCertSize = 0;
 905:D:/Work/DeviceTester/amazon-freertos/tests/common/ota\aws_test_ota_pal.c **** 
 906:D:/Work/DeviceTester/amazon-freertos/tests/common/ota\aws_test_ota_pal.c ****         pucSignerCert = test_prvPAL_ReadAndAssumeCertificate( pucCertName, &ulSignerCertSize );
 907:D:/Work/DeviceTester/amazon-freertos/tests/common/ota\aws_test_ota_pal.c **** 
 908:D:/Work/DeviceTester/amazon-freertos/tests/common/ota\aws_test_ota_pal.c ****         /* Verify that the signer certificate returned is NULL. */
 909:D:/Work/DeviceTester/amazon-freertos/tests/common/ota\aws_test_ota_pal.c ****         TEST_ASSERT_MESSAGE( pucSignerCert == NULL, "The returned certificate is NULL." );
 910:D:/Work/DeviceTester/amazon-freertos/tests/common/ota\aws_test_ota_pal.c ****         /* Verify the signer certificate size is zero. */
 911:D:/Work/DeviceTester/amazon-freertos/tests/common/ota\aws_test_ota_pal.c ****         TEST_ASSERT_EQUAL_INT( 0, ulSignerCertSize );
 912:D:/Work/DeviceTester/amazon-freertos/tests/common/ota\aws_test_ota_pal.c ****     }
 913:D:/Work/DeviceTester/amazon-freertos/tests/common/ota\aws_test_ota_pal.c **** #endif /* if ( otatestpalREAD_AND_ASSUME_CERTIFICATE_SUPPORTED == 1 ) */
 914:D:/Work/DeviceTester/amazon-freertos/tests/common/ota\aws_test_ota_pal.c **** 
 915:D:/Work/DeviceTester/amazon-freertos/tests/common/ota\aws_test_ota_pal.c **** #if ( otatestpalCHECK_FILE_SIGNATURE_SUPPORTED == 1 )
 916:D:/Work/DeviceTester/amazon-freertos/tests/common/ota\aws_test_ota_pal.c **** 
 917:D:/Work/DeviceTester/amazon-freertos/tests/common/ota\aws_test_ota_pal.c **** /**
 918:D:/Work/DeviceTester/amazon-freertos/tests/common/ota\aws_test_ota_pal.c ****  * @brief Call prvPAL_CheckFileSignature with a valid signature on the data block written and
 919:D:/Work/DeviceTester/amazon-freertos/tests/common/ota\aws_test_ota_pal.c ****  * expect no errors are returned.
 920:D:/Work/DeviceTester/amazon-freertos/tests/common/ota\aws_test_ota_pal.c ****  */
 921:D:/Work/DeviceTester/amazon-freertos/tests/common/ota\aws_test_ota_pal.c ****     TEST( Full_OTA_PAL, prvPAL_CheckFileSignature_ValidSignature )
 922:D:/Work/DeviceTester/amazon-freertos/tests/common/ota\aws_test_ota_pal.c ****     {
 923:D:/Work/DeviceTester/amazon-freertos/tests/common/ota\aws_test_ota_pal.c ****         OTA_Err_t xOtaStatus;
 924:D:/Work/DeviceTester/amazon-freertos/tests/common/ota\aws_test_ota_pal.c ****         Sig256_t xSig = { 0 };
 925:D:/Work/DeviceTester/amazon-freertos/tests/common/ota\aws_test_ota_pal.c **** 
 926:D:/Work/DeviceTester/amazon-freertos/tests/common/ota\aws_test_ota_pal.c ****         /* Create a local file using the PAL. */
 927:D:/Work/DeviceTester/amazon-freertos/tests/common/ota\aws_test_ota_pal.c ****         xOtaFile.pucFilePath = ( uint8_t * ) otatestpalFIRMWARE_FILE;
 928:D:/Work/DeviceTester/amazon-freertos/tests/common/ota\aws_test_ota_pal.c ****         xOtaStatus = prvPAL_CreateFileForRx( &xOtaFile );
 929:D:/Work/DeviceTester/amazon-freertos/tests/common/ota\aws_test_ota_pal.c ****         TEST_ASSERT_EQUAL( kOTA_Err_None, xOtaStatus );
 930:D:/Work/DeviceTester/amazon-freertos/tests/common/ota\aws_test_ota_pal.c **** 
 931:D:/Work/DeviceTester/amazon-freertos/tests/common/ota\aws_test_ota_pal.c ****         /* We still want to close the file if the test fails. */
 932:D:/Work/DeviceTester/amazon-freertos/tests/common/ota\aws_test_ota_pal.c ****         if( TEST_PROTECT() )
 933:D:/Work/DeviceTester/amazon-freertos/tests/common/ota\aws_test_ota_pal.c ****         {
 934:D:/Work/DeviceTester/amazon-freertos/tests/common/ota\aws_test_ota_pal.c ****             /* Write data to the file. */
 935:D:/Work/DeviceTester/amazon-freertos/tests/common/ota\aws_test_ota_pal.c ****             xOtaStatus = prvPAL_WriteBlock( &xOtaFile,
 936:D:/Work/DeviceTester/amazon-freertos/tests/common/ota\aws_test_ota_pal.c ****                                             0,
 937:D:/Work/DeviceTester/amazon-freertos/tests/common/ota\aws_test_ota_pal.c ****                                             ucDummyData,
 938:D:/Work/DeviceTester/amazon-freertos/tests/common/ota\aws_test_ota_pal.c ****                                             sizeof( ucDummyData ) );
 939:D:/Work/DeviceTester/amazon-freertos/tests/common/ota\aws_test_ota_pal.c ****             TEST_ASSERT_EQUAL( sizeof( ucDummyData ), xOtaStatus );
 940:D:/Work/DeviceTester/amazon-freertos/tests/common/ota\aws_test_ota_pal.c **** 
 941:D:/Work/DeviceTester/amazon-freertos/tests/common/ota\aws_test_ota_pal.c ****             xOtaFile.pxSignature = &xSig;
 942:D:/Work/DeviceTester/amazon-freertos/tests/common/ota\aws_test_ota_pal.c ****             xOtaFile.pxSignature->usSize = ucValidSignatureLength;
 943:D:/Work/DeviceTester/amazon-freertos/tests/common/ota\aws_test_ota_pal.c ****             memcpy( xOtaFile.pxSignature->ucData, ucValidSignature, ucValidSignatureLength );
 944:D:/Work/DeviceTester/amazon-freertos/tests/common/ota\aws_test_ota_pal.c ****             xOtaFile.pucCertFilepath = ( uint8_t * ) otatestpalCERTIFICATE_FILE;
 945:D:/Work/DeviceTester/amazon-freertos/tests/common/ota\aws_test_ota_pal.c **** 
 946:D:/Work/DeviceTester/amazon-freertos/tests/common/ota\aws_test_ota_pal.c ****             xOtaStatus = test_prvPAL_CheckFileSignature( &xOtaFile );
 947:D:/Work/DeviceTester/amazon-freertos/tests/common/ota\aws_test_ota_pal.c ****             TEST_ASSERT_EQUAL_INT( kOTA_Err_None, xOtaStatus );
 948:D:/Work/DeviceTester/amazon-freertos/tests/common/ota\aws_test_ota_pal.c ****         }
 949:D:/Work/DeviceTester/amazon-freertos/tests/common/ota\aws_test_ota_pal.c ****     }
 950:D:/Work/DeviceTester/amazon-freertos/tests/common/ota\aws_test_ota_pal.c **** 
 951:D:/Work/DeviceTester/amazon-freertos/tests/common/ota\aws_test_ota_pal.c **** /**
 952:D:/Work/DeviceTester/amazon-freertos/tests/common/ota\aws_test_ota_pal.c ****  * @brief prvPAL_CheckFileSignature with an invalid signature on the data block
 953:D:/Work/DeviceTester/amazon-freertos/tests/common/ota\aws_test_ota_pal.c ****  * written. Verify the signature check fails.
 954:D:/Work/DeviceTester/amazon-freertos/tests/common/ota\aws_test_ota_pal.c ****  */
 955:D:/Work/DeviceTester/amazon-freertos/tests/common/ota\aws_test_ota_pal.c ****     TEST( Full_OTA_PAL, prvPAL_CheckFileSignature_InvalidSignatureBlockWritten )
 956:D:/Work/DeviceTester/amazon-freertos/tests/common/ota\aws_test_ota_pal.c ****     {
 957:D:/Work/DeviceTester/amazon-freertos/tests/common/ota\aws_test_ota_pal.c ****         OTA_Err_t xOtaStatus;
 958:D:/Work/DeviceTester/amazon-freertos/tests/common/ota\aws_test_ota_pal.c ****         Sig256_t xSig = { 0 };
 959:D:/Work/DeviceTester/amazon-freertos/tests/common/ota\aws_test_ota_pal.c **** 
 960:D:/Work/DeviceTester/amazon-freertos/tests/common/ota\aws_test_ota_pal.c ****         /* Create a local file using the PAL. */
 961:D:/Work/DeviceTester/amazon-freertos/tests/common/ota\aws_test_ota_pal.c ****         xOtaFile.pucFilePath = ( uint8_t * ) otatestpalFIRMWARE_FILE;
 962:D:/Work/DeviceTester/amazon-freertos/tests/common/ota\aws_test_ota_pal.c ****         xOtaStatus = prvPAL_CreateFileForRx( &xOtaFile );
 963:D:/Work/DeviceTester/amazon-freertos/tests/common/ota\aws_test_ota_pal.c ****         TEST_ASSERT_EQUAL( kOTA_Err_None, xOtaStatus );
 964:D:/Work/DeviceTester/amazon-freertos/tests/common/ota\aws_test_ota_pal.c **** 
 965:D:/Work/DeviceTester/amazon-freertos/tests/common/ota\aws_test_ota_pal.c ****         /* We still want to close the file if the test fails. */
 966:D:/Work/DeviceTester/amazon-freertos/tests/common/ota\aws_test_ota_pal.c ****         if( TEST_PROTECT() )
 967:D:/Work/DeviceTester/amazon-freertos/tests/common/ota\aws_test_ota_pal.c ****         {
 968:D:/Work/DeviceTester/amazon-freertos/tests/common/ota\aws_test_ota_pal.c ****             /* Write data to the file. */
 969:D:/Work/DeviceTester/amazon-freertos/tests/common/ota\aws_test_ota_pal.c ****             xOtaStatus = prvPAL_WriteBlock( &xOtaFile,
 970:D:/Work/DeviceTester/amazon-freertos/tests/common/ota\aws_test_ota_pal.c ****                                             0,
 971:D:/Work/DeviceTester/amazon-freertos/tests/common/ota\aws_test_ota_pal.c ****                                             ucDummyData,
 972:D:/Work/DeviceTester/amazon-freertos/tests/common/ota\aws_test_ota_pal.c ****                                             sizeof( ucDummyData ) );
 973:D:/Work/DeviceTester/amazon-freertos/tests/common/ota\aws_test_ota_pal.c ****             TEST_ASSERT_EQUAL( sizeof( ucDummyData ), xOtaStatus );
 974:D:/Work/DeviceTester/amazon-freertos/tests/common/ota\aws_test_ota_pal.c **** 
 975:D:/Work/DeviceTester/amazon-freertos/tests/common/ota\aws_test_ota_pal.c ****             /* Fill out an incorrect signature. */
 976:D:/Work/DeviceTester/amazon-freertos/tests/common/ota\aws_test_ota_pal.c ****             xOtaFile.pxSignature = &xSig;
 977:D:/Work/DeviceTester/amazon-freertos/tests/common/ota\aws_test_ota_pal.c ****             xOtaFile.pxSignature->usSize = ucInvalidSignatureLength;
 978:D:/Work/DeviceTester/amazon-freertos/tests/common/ota\aws_test_ota_pal.c ****             memcpy( xOtaFile.pxSignature->ucData, ucInvalidSignature, ucInvalidSignatureLength );
 979:D:/Work/DeviceTester/amazon-freertos/tests/common/ota\aws_test_ota_pal.c ****             xOtaFile.pucCertFilepath = ( uint8_t * ) otatestpalCERTIFICATE_FILE;
 980:D:/Work/DeviceTester/amazon-freertos/tests/common/ota\aws_test_ota_pal.c **** 
 981:D:/Work/DeviceTester/amazon-freertos/tests/common/ota\aws_test_ota_pal.c ****             /* Check the signature. */
 982:D:/Work/DeviceTester/amazon-freertos/tests/common/ota\aws_test_ota_pal.c ****             xOtaStatus = test_prvPAL_CheckFileSignature( &xOtaFile );
 983:D:/Work/DeviceTester/amazon-freertos/tests/common/ota\aws_test_ota_pal.c **** 
 984:D:/Work/DeviceTester/amazon-freertos/tests/common/ota\aws_test_ota_pal.c ****             if( ( kOTA_Err_BadSignerCert != ( xOtaStatus & ~kOTA_PAL_ErrMask ) ) &&
 985:D:/Work/DeviceTester/amazon-freertos/tests/common/ota\aws_test_ota_pal.c ****                 ( kOTA_Err_SignatureCheckFailed != ( xOtaStatus & ~kOTA_PAL_ErrMask ) ) )
 986:D:/Work/DeviceTester/amazon-freertos/tests/common/ota\aws_test_ota_pal.c ****             {
 987:D:/Work/DeviceTester/amazon-freertos/tests/common/ota\aws_test_ota_pal.c ****                 TEST_ASSERT_TRUE( 0 );
 988:D:/Work/DeviceTester/amazon-freertos/tests/common/ota\aws_test_ota_pal.c ****             }
 989:D:/Work/DeviceTester/amazon-freertos/tests/common/ota\aws_test_ota_pal.c ****         }
 990:D:/Work/DeviceTester/amazon-freertos/tests/common/ota\aws_test_ota_pal.c ****     }
 991:D:/Work/DeviceTester/amazon-freertos/tests/common/ota\aws_test_ota_pal.c **** 
 992:D:/Work/DeviceTester/amazon-freertos/tests/common/ota\aws_test_ota_pal.c ****     TEST( Full_OTA_PAL, prvPAL_CheckFileSignature_InvalidSignatureNoBlockWritten )
 993:D:/Work/DeviceTester/amazon-freertos/tests/common/ota\aws_test_ota_pal.c ****     {
 980              		.loc 1 993 0
 981              		.cfi_startproc
 982              		@ args = 0, pretend = 0, frame = 264
 983              		@ frame_needed = 0, uses_anonymous_args = 0
 984 0000 10402DE9 		push	{r4, lr}
 985              		.cfi_def_cfa_offset 8
 986              		.cfi_offset 4, -8
 987              		.cfi_offset 14, -4
 988 0004 11DE4DE2 		sub	sp, sp, #272
 989              		.cfi_def_cfa_offset 280
 994:D:/Work/DeviceTester/amazon-freertos/tests/common/ota\aws_test_ota_pal.c ****         OTA_Err_t xOtaStatus;
 995:D:/Work/DeviceTester/amazon-freertos/tests/common/ota\aws_test_ota_pal.c ****         Sig256_t xSig = { 0 };
 990              		.loc 1 995 0
 991 0008 022100E3 		movw	r2, #258
 992 000c 0010A0E3 		mov	r1, #0
 993 0010 0C008DE2 		add	r0, sp, #12
 994 0014 FEFFFFEB 		bl	memset
 995              	.LVL86:
 996:D:/Work/DeviceTester/amazon-freertos/tests/common/ota\aws_test_ota_pal.c **** 
 997:D:/Work/DeviceTester/amazon-freertos/tests/common/ota\aws_test_ota_pal.c ****         /* Create a local file using the PAL. */
 998:D:/Work/DeviceTester/amazon-freertos/tests/common/ota\aws_test_ota_pal.c ****         xOtaFile.pucFilePath = ( uint8_t * ) otatestpalFIRMWARE_FILE;
 996              		.loc 1 998 0
 997 0018 88309FE5 		ldr	r3, .L67
 998 001c 88009FE5 		ldr	r0, .L67+4
 999 0020 003080E5 		str	r3, [r0]
 999:D:/Work/DeviceTester/amazon-freertos/tests/common/ota\aws_test_ota_pal.c ****         xOtaStatus = prvPAL_CreateFileForRx( &xOtaFile );
 1000              		.loc 1 999 0
 1001 0024 FEFFFFEB 		bl	prvPAL_CreateFileForRx
 1002              	.LVL87:
1000:D:/Work/DeviceTester/amazon-freertos/tests/common/ota\aws_test_ota_pal.c ****         TEST_ASSERT_EQUAL( kOTA_Err_None, xOtaStatus );
 1003              		.loc 1 1000 0
 1004 0028 0020A0E3 		mov	r2, #0
 1005 002c 1430A0E3 		mov	r3, #20
 1006 0030 00308DE5 		str	r3, [sp]
 1007 0034 0010A0E1 		mov	r1, r0
 1008 0038 FA3FA0E3 		mov	r3, #1000
 1009 003c 0200A0E1 		mov	r0, r2
 1010              	.LVL88:
 1011 0040 FEFFFFEB 		bl	UnityAssertEqualNumber
 1012              	.LVL89:
1001:D:/Work/DeviceTester/amazon-freertos/tests/common/ota\aws_test_ota_pal.c **** 
1002:D:/Work/DeviceTester/amazon-freertos/tests/common/ota\aws_test_ota_pal.c ****         /* We still want to close the file if the test fails. */
1003:D:/Work/DeviceTester/amazon-freertos/tests/common/ota\aws_test_ota_pal.c ****         if( TEST_PROTECT() )
 1013              		.loc 1 1003 0
 1014 0044 64009FE5 		ldr	r0, .L67+8
 1015 0048 FEFFFFEB 		bl	setjmp
 1016              	.LVL90:
 1017 004c 000050E3 		cmp	r0, #0
 1018 0050 1200001A 		bne	.L63
1004:D:/Work/DeviceTester/amazon-freertos/tests/common/ota\aws_test_ota_pal.c ****         {
1005:D:/Work/DeviceTester/amazon-freertos/tests/common/ota\aws_test_ota_pal.c ****             /* Fill out an incorrect signature. */
1006:D:/Work/DeviceTester/amazon-freertos/tests/common/ota\aws_test_ota_pal.c ****             xOtaFile.pxSignature = &xSig;
 1019              		.loc 1 1006 0
 1020 0054 50409FE5 		ldr	r4, .L67+4
 1021 0058 0C308DE2 		add	r3, sp, #12
1007:D:/Work/DeviceTester/amazon-freertos/tests/common/ota\aws_test_ota_pal.c ****             xOtaFile.pxSignature->usSize = ucInvalidSignatureLength;
 1022              		.loc 1 1007 0
 1023 005c 4620A0E3 		mov	r2, #70
1008:D:/Work/DeviceTester/amazon-freertos/tests/common/ota\aws_test_ota_pal.c ****             memcpy( xOtaFile.pxSignature->ucData, ucInvalidSignature, ucInvalidSignatureLength );
 1024              		.loc 1 1008 0
 1025 0060 4C109FE5 		ldr	r1, .L67+12
 1026 0064 0E008DE2 		add	r0, sp, #14
1007:D:/Work/DeviceTester/amazon-freertos/tests/common/ota\aws_test_ota_pal.c ****             xOtaFile.pxSignature->usSize = ucInvalidSignatureLength;
 1027              		.loc 1 1007 0
 1028 0068 BC20CDE1 		strh	r2, [sp, #12]	@ movhi
1006:D:/Work/DeviceTester/amazon-freertos/tests/common/ota\aws_test_ota_pal.c ****             xOtaFile.pxSignature->usSize = ucInvalidSignatureLength;
 1029              		.loc 1 1006 0
 1030 006c 283084E5 		str	r3, [r4, #40]
 1031              		.loc 1 1008 0
 1032 0070 FEFFFFEB 		bl	memcpy
 1033              	.LVL91:
1009:D:/Work/DeviceTester/amazon-freertos/tests/common/ota\aws_test_ota_pal.c ****             xOtaFile.pucCertFilepath = ( uint8_t * ) otatestpalCERTIFICATE_FILE;
 1034              		.loc 1 1009 0
 1035 0074 3C309FE5 		ldr	r3, .L67+16
1010:D:/Work/DeviceTester/amazon-freertos/tests/common/ota\aws_test_ota_pal.c **** 
1011:D:/Work/DeviceTester/amazon-freertos/tests/common/ota\aws_test_ota_pal.c ****             /* Try to close the file. */
1012:D:/Work/DeviceTester/amazon-freertos/tests/common/ota\aws_test_ota_pal.c ****             xOtaStatus = prvPAL_CloseFile( &xOtaFile );
 1036              		.loc 1 1012 0
 1037 0078 0400A0E1 		mov	r0, r4
1009:D:/Work/DeviceTester/amazon-freertos/tests/common/ota\aws_test_ota_pal.c ****             xOtaFile.pucCertFilepath = ( uint8_t * ) otatestpalCERTIFICATE_FILE;
 1038              		.loc 1 1009 0
 1039 007c 303084E5 		str	r3, [r4, #48]
 1040              		.loc 1 1012 0
 1041 0080 FEFFFFEB 		bl	prvPAL_CloseFile
 1042              	.LVL92:
1013:D:/Work/DeviceTester/amazon-freertos/tests/common/ota\aws_test_ota_pal.c **** 
1014:D:/Work/DeviceTester/amazon-freertos/tests/common/ota\aws_test_ota_pal.c ****             if( ( kOTA_Err_BadSignerCert != ( xOtaStatus & ~kOTA_PAL_ErrMask ) ) &&
 1043              		.loc 1 1014 0
 1044 0084 FF0400E2 		and	r0, r0, #-16777216
 1045              	.LVL93:
 1046 0088 FF0480E2 		add	r0, r0, #-16777216
 1047 008c FE0410E3 		tst	r0, #-33554432
 1048 0090 0200000A 		beq	.L63
1015:D:/Work/DeviceTester/amazon-freertos/tests/common/ota\aws_test_ota_pal.c ****                 ( kOTA_Err_SignatureCheckFailed != ( xOtaStatus & ~kOTA_PAL_ErrMask ) ) )
1016:D:/Work/DeviceTester/amazon-freertos/tests/common/ota\aws_test_ota_pal.c ****             {
1017:D:/Work/DeviceTester/amazon-freertos/tests/common/ota\aws_test_ota_pal.c ****                 TEST_ASSERT_TRUE( 0 );
 1049              		.loc 1 1017 0 discriminator 1
 1050 0094 F91300E3 		movw	r1, #1017
 1051 0098 1C009FE5 		ldr	r0, .L67+20
 1052 009c FEFFFFEB 		bl	UnityFail
 1053              	.LVL94:
 1054              	.L63:
1018:D:/Work/DeviceTester/amazon-freertos/tests/common/ota\aws_test_ota_pal.c ****             }
1019:D:/Work/DeviceTester/amazon-freertos/tests/common/ota\aws_test_ota_pal.c ****         }
1020:D:/Work/DeviceTester/amazon-freertos/tests/common/ota\aws_test_ota_pal.c ****     }
 1055              		.loc 1 1020 0
 1056 00a0 11DE8DE2 		add	sp, sp, #272
 1057              		.cfi_def_cfa_offset 8
 1058              		@ sp needed
 1059 00a4 1080BDE8 		pop	{r4, pc}
 1060              	.L68:
 1061              		.align	2
 1062              	.L67:
 1063 00a8 00000000 		.word	.LC1
 1064 00ac 00000000 		.word	.LANCHOR0
 1065 00b0 28000000 		.word	Unity+40
 1066 00b4 00000000 		.word	.LANCHOR3
 1067 00b8 1A000000 		.word	.LC4
 1068 00bc 00000000 		.word	.LC5
 1069              		.cfi_endproc
 1070              	.LFE54:
 1072              		.section	.text.TEST_Full_OTA_PAL_prvPAL_WriteBlock_WriteManyBlocks_,"ax",%progbits
 1073              		.align	2
 1074              		.global	TEST_Full_OTA_PAL_prvPAL_WriteBlock_WriteManyBlocks_
 1075              		.syntax unified
 1076              		.arm
 1077              		.fpu neon
 1079              	TEST_Full_OTA_PAL_prvPAL_WriteBlock_WriteManyBlocks_:
 1080              	.LFB28:
 592:D:/Work/DeviceTester/amazon-freertos/tests/common/ota\aws_test_ota_pal.c ****     OTA_Err_t xOtaStatus;
 1081              		.loc 1 592 0
 1082              		.cfi_startproc
 1083              		@ args = 0, pretend = 0, frame = 0
 1084              		@ frame_needed = 0, uses_anonymous_args = 0
 1085 0000 F7402DE9 		push	{r0, r1, r2, r4, r5, r6, r7, lr}
 1086              		.cfi_def_cfa_offset 32
 1087              		.cfi_offset 4, -20
 1088              		.cfi_offset 5, -16
 1089              		.cfi_offset 6, -12
 1090              		.cfi_offset 7, -8
 1091              		.cfi_offset 14, -4
 596:D:/Work/DeviceTester/amazon-freertos/tests/common/ota\aws_test_ota_pal.c **** 
 1092              		.loc 1 596 0
 1093 0004 8C309FE5 		ldr	r3, .L75
 1094 0008 8C009FE5 		ldr	r0, .L75+4
 1095 000c 003080E5 		str	r3, [r0]
 601:D:/Work/DeviceTester/amazon-freertos/tests/common/ota\aws_test_ota_pal.c ****     TEST_ASSERT_EQUAL( kOTA_Err_None, xOtaStatus );
 1096              		.loc 1 601 0
 1097 0010 FEFFFFEB 		bl	prvPAL_CreateFileForRx
 1098              	.LVL95:
 602:D:/Work/DeviceTester/amazon-freertos/tests/common/ota\aws_test_ota_pal.c **** 
 1099              		.loc 1 602 0
 1100 0014 0020A0E3 		mov	r2, #0
 1101 0018 1430A0E3 		mov	r3, #20
 1102 001c 00308DE5 		str	r3, [sp]
 1103 0020 0010A0E1 		mov	r1, r0
 1104 0024 5A3200E3 		movw	r3, #602
 1105 0028 0200A0E1 		mov	r0, r2
 1106              	.LVL96:
 1107 002c FEFFFFEB 		bl	UnityAssertEqualNumber
 1108              	.LVL97:
 604:D:/Work/DeviceTester/amazon-freertos/tests/common/ota\aws_test_ota_pal.c ****     {
 1109              		.loc 1 604 0
 1110 0030 68009FE5 		ldr	r0, .L75+8
 1111 0034 FEFFFFEB 		bl	setjmp
 1112              	.LVL98:
 1113 0038 004050E2 		subs	r4, r0, #0
 1114 003c 1300001A 		bne	.L69
 1115              	.LBB2:
 610:D:/Work/DeviceTester/amazon-freertos/tests/common/ota\aws_test_ota_pal.c ****             TEST_ASSERT_EQUAL_INT( sizeof( ucDummyData ), sNumBytesWritten );
 1116              		.loc 1 610 0
 1117 0040 5C709FE5 		ldr	r7, .L75+12
 1118 0044 5450A0E3 		mov	r5, #84
 1119 0048 4C609FE5 		ldr	r6, .L75+4
 1120              	.L71:
 1121 004c 0410A0E1 		mov	r1, r4
 1122 0050 0530A0E1 		mov	r3, r5
 1123 0054 0720A0E1 		mov	r2, r7
 1124 0058 0600A0E1 		mov	r0, r6
 1125 005c FEFFFFEB 		bl	prvPAL_WriteBlock
 1126              	.LVL99:
 611:D:/Work/DeviceTester/amazon-freertos/tests/common/ota\aws_test_ota_pal.c ****         }
 1127              		.loc 1 611 0
 1128 0060 1430A0E3 		mov	r3, #20
 1129 0064 0010A0E1 		mov	r1, r0
 1130 0068 00308DE5 		str	r3, [sp]
 1131 006c 0020A0E3 		mov	r2, #0
 1132 0070 633200E3 		movw	r3, #611
 1133 0074 0500A0E1 		mov	r0, r5
 1134              	.LVL100:
 1135 0078 544084E2 		add	r4, r4, #84
 1136 007c FEFFFFEB 		bl	UnityAssertEqualNumber
 1137              	.LVL101:
 608:D:/Work/DeviceTester/amazon-freertos/tests/common/ota\aws_test_ota_pal.c ****         {
 1138              		.loc 1 608 0
 1139 0080 D20F54E3 		cmp	r4, #840
 1140 0084 F0FFFF1A 		bne	.L71
 615:D:/Work/DeviceTester/amazon-freertos/tests/common/ota\aws_test_ota_pal.c ****     }
 1141              		.loc 1 615 0
 1142 0088 880301E3 		movw	r0, #5000
 1143 008c FEFFFFEB 		bl	vTaskDelay
 1144              	.LVL102:
 1145              	.L69:
 1146              	.LBE2:
 617:D:/Work/DeviceTester/amazon-freertos/tests/common/ota\aws_test_ota_pal.c **** 
 1147              		.loc 1 617 0
 1148 0090 0CD08DE2 		add	sp, sp, #12
 1149              		.cfi_def_cfa_offset 20
 1150              		@ sp needed
 1151 0094 F080BDE8 		pop	{r4, r5, r6, r7, pc}
 1152              	.L76:
 1153              		.align	2
 1154              	.L75:
 1155 0098 00000000 		.word	.LC1
 1156 009c 00000000 		.word	.LANCHOR0
 1157 00a0 28000000 		.word	Unity+40
 1158 00a4 00000000 		.word	.LANCHOR1
 1159              		.cfi_endproc
 1160              	.LFE28:
 1162              		.section	.text.TEST_Full_OTA_PAL_prvPAL_ActivateNewImage_,"ax",%progbits
 1163              		.align	2
 1164              		.global	TEST_Full_OTA_PAL_prvPAL_ActivateNewImage_
 1165              		.syntax unified
 1166              		.arm
 1167              		.fpu neon
 1169              	TEST_Full_OTA_PAL_prvPAL_ActivateNewImage_:
 1170              	.LFB30:
 625:D:/Work/DeviceTester/amazon-freertos/tests/common/ota\aws_test_ota_pal.c ****     OTA_Err_t xOtaStatus = prvPAL_ActivateNewImage();
 1171              		.loc 1 625 0
 1172              		.cfi_startproc
 1173              		@ args = 0, pretend = 0, frame = 0
 1174              		@ frame_needed = 0, uses_anonymous_args = 0
 1175 0000 07402DE9 		push	{r0, r1, r2, lr}
 1176              		.cfi_def_cfa_offset 16
 1177              		.cfi_offset 14, -4
 626:D:/Work/DeviceTester/amazon-freertos/tests/common/ota\aws_test_ota_pal.c **** 
 1178              		.loc 1 626 0
 1179 0004 FEFFFFEB 		bl	prvPAL_ActivateNewImage
 1180              	.LVL103:
 628:D:/Work/DeviceTester/amazon-freertos/tests/common/ota\aws_test_ota_pal.c **** }
 1181              		.loc 1 628 0
 1182 0008 0020A0E3 		mov	r2, #0
 1183 000c 1430A0E3 		mov	r3, #20
 1184 0010 00308DE5 		str	r3, [sp]
 1185 0014 0010A0E1 		mov	r1, r0
 1186 0018 9D3FA0E3 		mov	r3, #628
 1187 001c 0200A0E1 		mov	r0, r2
 1188              	.LVL104:
 1189 0020 FEFFFFEB 		bl	UnityAssertEqualNumber
 1190              	.LVL105:
 629:D:/Work/DeviceTester/amazon-freertos/tests/common/ota\aws_test_ota_pal.c **** 
 1191              		.loc 1 629 0
 1192 0024 0CD08DE2 		add	sp, sp, #12
 1193              		.cfi_def_cfa_offset 4
 1194              		@ sp needed
 1195 0028 04F09DE4 		ldr	pc, [sp], #4
 1196              		.cfi_endproc
 1197              	.LFE30:
 1199              		.section	.text.TEST_Full_OTA_PAL_prvPAL_SetPlatformImageState_SelfTestImageState_,"ax",%progbits
 1200              		.align	2
 1201              		.global	TEST_Full_OTA_PAL_prvPAL_SetPlatformImageState_SelfTestImageState_
 1202              		.syntax unified
 1203              		.arm
 1204              		.fpu neon
 1206              	TEST_Full_OTA_PAL_prvPAL_SetPlatformImageState_SelfTestImageState_:
 1207              	.LFB32:
 635:D:/Work/DeviceTester/amazon-freertos/tests/common/ota\aws_test_ota_pal.c ****     OTA_Err_t xOtaStatus;
 1208              		.loc 1 635 0
 1209              		.cfi_startproc
 1210              		@ args = 0, pretend = 0, frame = 0
 1211              		@ frame_needed = 0, uses_anonymous_args = 0
 1212              	.LVL106:
 1213 0000 37402DE9 		push	{r0, r1, r2, r4, r5, lr}
 1214              		.cfi_def_cfa_offset 24
 1215              		.cfi_offset 4, -12
 1216              		.cfi_offset 5, -8
 1217              		.cfi_offset 14, -4
 641:D:/Work/DeviceTester/amazon-freertos/tests/common/ota\aws_test_ota_pal.c ****     xOtaStatus = prvPAL_CreateFileForRx( &xOtaFile );
 1218              		.loc 1 641 0
 1219 0004 8C309FE5 		ldr	r3, .L83
 1220 0008 8C009FE5 		ldr	r0, .L83+4
 1221 000c 003080E5 		str	r3, [r0]
 642:D:/Work/DeviceTester/amazon-freertos/tests/common/ota\aws_test_ota_pal.c ****     TEST_ASSERT_EQUAL( kOTA_Err_None, xOtaStatus );
 1222              		.loc 1 642 0
 1223 0010 FEFFFFEB 		bl	prvPAL_CreateFileForRx
 1224              	.LVL107:
 643:D:/Work/DeviceTester/amazon-freertos/tests/common/ota\aws_test_ota_pal.c **** 
 1225              		.loc 1 643 0
 1226 0014 0020A0E3 		mov	r2, #0
 1227 0018 1430A0E3 		mov	r3, #20
 1228 001c 00308DE5 		str	r3, [sp]
 1229 0020 0010A0E1 		mov	r1, r0
 1230 0024 833200E3 		movw	r3, #643
 1231 0028 0200A0E1 		mov	r0, r2
 1232              	.LVL108:
 1233 002c FEFFFFEB 		bl	UnityAssertEqualNumber
 1234              	.LVL109:
 646:D:/Work/DeviceTester/amazon-freertos/tests/common/ota\aws_test_ota_pal.c ****     {
 1235              		.loc 1 646 0
 1236 0030 68009FE5 		ldr	r0, .L83+8
 1237 0034 FEFFFFEB 		bl	setjmp
 1238              	.LVL110:
 1239 0038 004050E2 		subs	r4, r0, #0
 1240 003c 1300001A 		bne	.L79
 649:D:/Work/DeviceTester/amazon-freertos/tests/common/ota\aws_test_ota_pal.c ****                                         0,
 1241              		.loc 1 649 0
 1242 0040 5430A0E3 		mov	r3, #84
 1243 0044 58209FE5 		ldr	r2, .L83+12
 1244 0048 0410A0E1 		mov	r1, r4
 653:D:/Work/DeviceTester/amazon-freertos/tests/common/ota\aws_test_ota_pal.c **** 
 1245              		.loc 1 653 0
 1246 004c 1450A0E3 		mov	r5, #20
 649:D:/Work/DeviceTester/amazon-freertos/tests/common/ota\aws_test_ota_pal.c ****                                         0,
 1247              		.loc 1 649 0
 1248 0050 44009FE5 		ldr	r0, .L83+4
 1249 0054 FEFFFFEB 		bl	prvPAL_WriteBlock
 1250              	.LVL111:
 653:D:/Work/DeviceTester/amazon-freertos/tests/common/ota\aws_test_ota_pal.c **** 
 1251              		.loc 1 653 0
 1252 0058 8D3200E3 		movw	r3, #653
 1253 005c 0010A0E1 		mov	r1, r0
 1254 0060 0420A0E1 		mov	r2, r4
 1255 0064 5400A0E3 		mov	r0, #84
 1256              	.LVL112:
 1257 0068 00508DE5 		str	r5, [sp]
 1258 006c FEFFFFEB 		bl	UnityAssertEqualNumber
 1259              	.LVL113:
 657:D:/Work/DeviceTester/amazon-freertos/tests/common/ota\aws_test_ota_pal.c ****         TEST_ASSERT_EQUAL_INT( kOTA_Err_None, xOtaStatus );
 1260              		.loc 1 657 0
 1261 0070 0100A0E3 		mov	r0, #1
 1262 0074 FEFFFFEB 		bl	prvPAL_SetPlatformImageState
 1263              	.LVL114:
 658:D:/Work/DeviceTester/amazon-freertos/tests/common/ota\aws_test_ota_pal.c **** 
 1264              		.loc 1 658 0
 1265 0078 00508DE5 		str	r5, [sp]
 1266 007c 0010A0E1 		mov	r1, r0
 1267 0080 923200E3 		movw	r3, #658
 1268 0084 0420A0E1 		mov	r2, r4
 1269 0088 0400A0E1 		mov	r0, r4
 1270              	.LVL115:
 1271 008c FEFFFFEB 		bl	UnityAssertEqualNumber
 1272              	.LVL116:
 1273              	.L79:
 669:D:/Work/DeviceTester/amazon-freertos/tests/common/ota\aws_test_ota_pal.c **** 
 1274              		.loc 1 669 0
 1275 0090 0CD08DE2 		add	sp, sp, #12
 1276              		.cfi_def_cfa_offset 12
 1277              		@ sp needed
 1278 0094 3080BDE8 		pop	{r4, r5, pc}
 1279              	.L84:
 1280              		.align	2
 1281              	.L83:
 1282 0098 00000000 		.word	.LC1
 1283 009c 00000000 		.word	.LANCHOR0
 1284 00a0 28000000 		.word	Unity+40
 1285 00a4 00000000 		.word	.LANCHOR1
 1286              		.cfi_endproc
 1287              	.LFE32:
 1289              		.section	.text.TEST_Full_OTA_PAL_prvPAL_SetPlatformImageState_InvalidImageState_,"ax",%progbits
 1290              		.align	2
 1291              		.global	TEST_Full_OTA_PAL_prvPAL_SetPlatformImageState_InvalidImageState_
 1292              		.syntax unified
 1293              		.arm
 1294              		.fpu neon
 1296              	TEST_Full_OTA_PAL_prvPAL_SetPlatformImageState_InvalidImageState_:
 1297              	.LFB34:
 675:D:/Work/DeviceTester/amazon-freertos/tests/common/ota\aws_test_ota_pal.c ****     OTA_Err_t xOtaStatus;
 1298              		.loc 1 675 0
 1299              		.cfi_startproc
 1300              		@ args = 0, pretend = 0, frame = 0
 1301              		@ frame_needed = 0, uses_anonymous_args = 0
 1302              	.LVL117:
 1303 0000 37402DE9 		push	{r0, r1, r2, r4, r5, lr}
 1304              		.cfi_def_cfa_offset 24
 1305              		.cfi_offset 4, -12
 1306              		.cfi_offset 5, -8
 1307              		.cfi_offset 14, -4
 680:D:/Work/DeviceTester/amazon-freertos/tests/common/ota\aws_test_ota_pal.c ****     xOtaStatus = prvPAL_CreateFileForRx( &xOtaFile );
 1308              		.loc 1 680 0
 1309 0004 8C309FE5 		ldr	r3, .L89
 1310 0008 8C009FE5 		ldr	r0, .L89+4
 1311 000c 003080E5 		str	r3, [r0]
 681:D:/Work/DeviceTester/amazon-freertos/tests/common/ota\aws_test_ota_pal.c ****     TEST_ASSERT_EQUAL( kOTA_Err_None, xOtaStatus );
 1312              		.loc 1 681 0
 1313 0010 FEFFFFEB 		bl	prvPAL_CreateFileForRx
 1314              	.LVL118:
 682:D:/Work/DeviceTester/amazon-freertos/tests/common/ota\aws_test_ota_pal.c **** 
 1315              		.loc 1 682 0
 1316 0014 0020A0E3 		mov	r2, #0
 1317 0018 1430A0E3 		mov	r3, #20
 1318 001c 00308DE5 		str	r3, [sp]
 1319 0020 0010A0E1 		mov	r1, r0
 1320 0024 AA3200E3 		movw	r3, #682
 1321 0028 0200A0E1 		mov	r0, r2
 1322              	.LVL119:
 1323 002c FEFFFFEB 		bl	UnityAssertEqualNumber
 1324              	.LVL120:
 685:D:/Work/DeviceTester/amazon-freertos/tests/common/ota\aws_test_ota_pal.c ****     {
 1325              		.loc 1 685 0
 1326 0030 68009FE5 		ldr	r0, .L89+8
 1327 0034 FEFFFFEB 		bl	setjmp
 1328              	.LVL121:
 1329 0038 004050E2 		subs	r4, r0, #0
 1330 003c 1300001A 		bne	.L85
 688:D:/Work/DeviceTester/amazon-freertos/tests/common/ota\aws_test_ota_pal.c ****                                         0,
 1331              		.loc 1 688 0
 1332 0040 5430A0E3 		mov	r3, #84
 1333 0044 58209FE5 		ldr	r2, .L89+12
 1334 0048 0410A0E1 		mov	r1, r4
 692:D:/Work/DeviceTester/amazon-freertos/tests/common/ota\aws_test_ota_pal.c **** 
 1335              		.loc 1 692 0
 1336 004c 1450A0E3 		mov	r5, #20
 688:D:/Work/DeviceTester/amazon-freertos/tests/common/ota\aws_test_ota_pal.c ****                                         0,
 1337              		.loc 1 688 0
 1338 0050 44009FE5 		ldr	r0, .L89+4
 1339 0054 FEFFFFEB 		bl	prvPAL_WriteBlock
 1340              	.LVL122:
 692:D:/Work/DeviceTester/amazon-freertos/tests/common/ota\aws_test_ota_pal.c **** 
 1341              		.loc 1 692 0
 1342 0058 AD3FA0E3 		mov	r3, #692
 1343 005c 0010A0E1 		mov	r1, r0
 1344 0060 0420A0E1 		mov	r2, r4
 1345 0064 5400A0E3 		mov	r0, #84
 1346              	.LVL123:
 1347 0068 00508DE5 		str	r5, [sp]
 1348 006c FEFFFFEB 		bl	UnityAssertEqualNumber
 1349              	.LVL124:
 696:D:/Work/DeviceTester/amazon-freertos/tests/common/ota\aws_test_ota_pal.c ****         TEST_ASSERT_EQUAL( kOTA_Err_BadImageState, ( xOtaStatus & ~kOTA_PAL_ErrMask ) );
 1350              		.loc 1 696 0
 1351 0070 0500A0E3 		mov	r0, #5
 1352 0074 FEFFFFEB 		bl	prvPAL_SetPlatformImageState
 1353              	.LVL125:
 697:D:/Work/DeviceTester/amazon-freertos/tests/common/ota\aws_test_ota_pal.c ****     }
 1354              		.loc 1 697 0
 1355 0078 00508DE5 		str	r5, [sp]
 1356 007c FF1400E2 		and	r1, r0, #-16777216
 1357 0080 B93200E3 		movw	r3, #697
 1358 0084 0420A0E1 		mov	r2, r4
 1359 0088 0904A0E3 		mov	r0, #150994944
 1360              	.LVL126:
 1361 008c FEFFFFEB 		bl	UnityAssertEqualNumber
 1362              	.LVL127:
 1363              	.L85:
 699:D:/Work/DeviceTester/amazon-freertos/tests/common/ota\aws_test_ota_pal.c **** 
 1364              		.loc 1 699 0
 1365 0090 0CD08DE2 		add	sp, sp, #12
 1366              		.cfi_def_cfa_offset 12
 1367              		@ sp needed
 1368 0094 3080BDE8 		pop	{r4, r5, pc}
 1369              	.L90:
 1370              		.align	2
 1371              	.L89:
 1372 0098 00000000 		.word	.LC1
 1373 009c 00000000 		.word	.LANCHOR0
 1374 00a0 28000000 		.word	Unity+40
 1375 00a4 00000000 		.word	.LANCHOR1
 1376              		.cfi_endproc
 1377              	.LFE34:
 1379              		.section	.text.TEST_Full_OTA_PAL_prvPAL_SetPlatformImageState_UnknownImageState_,"ax",%progbits
 1380              		.align	2
 1381              		.global	TEST_Full_OTA_PAL_prvPAL_SetPlatformImageState_UnknownImageState_
 1382              		.syntax unified
 1383              		.arm
 1384              		.fpu neon
 1386              	TEST_Full_OTA_PAL_prvPAL_SetPlatformImageState_UnknownImageState_:
 1387              	.LFB36:
 705:D:/Work/DeviceTester/amazon-freertos/tests/common/ota\aws_test_ota_pal.c ****     OTA_Err_t xOtaStatus;
 1388              		.loc 1 705 0
 1389              		.cfi_startproc
 1390              		@ args = 0, pretend = 0, frame = 0
 1391              		@ frame_needed = 0, uses_anonymous_args = 0
 1392              	.LVL128:
 1393 0000 37402DE9 		push	{r0, r1, r2, r4, r5, lr}
 1394              		.cfi_def_cfa_offset 24
 1395              		.cfi_offset 4, -12
 1396              		.cfi_offset 5, -8
 1397              		.cfi_offset 14, -4
 710:D:/Work/DeviceTester/amazon-freertos/tests/common/ota\aws_test_ota_pal.c ****     xOtaStatus = prvPAL_CreateFileForRx( &xOtaFile );
 1398              		.loc 1 710 0
 1399 0004 8C309FE5 		ldr	r3, .L95
 1400 0008 8C009FE5 		ldr	r0, .L95+4
 1401 000c 003080E5 		str	r3, [r0]
 711:D:/Work/DeviceTester/amazon-freertos/tests/common/ota\aws_test_ota_pal.c ****     TEST_ASSERT_EQUAL( kOTA_Err_None, xOtaStatus );
 1402              		.loc 1 711 0
 1403 0010 FEFFFFEB 		bl	prvPAL_CreateFileForRx
 1404              	.LVL129:
 712:D:/Work/DeviceTester/amazon-freertos/tests/common/ota\aws_test_ota_pal.c **** 
 1405              		.loc 1 712 0
 1406 0014 0020A0E3 		mov	r2, #0
 1407 0018 1430A0E3 		mov	r3, #20
 1408 001c 00308DE5 		str	r3, [sp]
 1409 0020 0010A0E1 		mov	r1, r0
 1410 0024 B23FA0E3 		mov	r3, #712
 1411 0028 0200A0E1 		mov	r0, r2
 1412              	.LVL130:
 1413 002c FEFFFFEB 		bl	UnityAssertEqualNumber
 1414              	.LVL131:
 715:D:/Work/DeviceTester/amazon-freertos/tests/common/ota\aws_test_ota_pal.c ****     {
 1415              		.loc 1 715 0
 1416 0030 68009FE5 		ldr	r0, .L95+8
 1417 0034 FEFFFFEB 		bl	setjmp
 1418              	.LVL132:
 1419 0038 004050E2 		subs	r4, r0, #0
 1420 003c 1300001A 		bne	.L91
 718:D:/Work/DeviceTester/amazon-freertos/tests/common/ota\aws_test_ota_pal.c ****                                         0,
 1421              		.loc 1 718 0
 1422 0040 5430A0E3 		mov	r3, #84
 1423 0044 58209FE5 		ldr	r2, .L95+12
 1424 0048 0410A0E1 		mov	r1, r4
 722:D:/Work/DeviceTester/amazon-freertos/tests/common/ota\aws_test_ota_pal.c **** 
 1425              		.loc 1 722 0
 1426 004c 1450A0E3 		mov	r5, #20
 718:D:/Work/DeviceTester/amazon-freertos/tests/common/ota\aws_test_ota_pal.c ****                                         0,
 1427              		.loc 1 718 0
 1428 0050 44009FE5 		ldr	r0, .L95+4
 1429 0054 FEFFFFEB 		bl	prvPAL_WriteBlock
 1430              	.LVL133:
 722:D:/Work/DeviceTester/amazon-freertos/tests/common/ota\aws_test_ota_pal.c **** 
 1431              		.loc 1 722 0
 1432 0058 D23200E3 		movw	r3, #722
 1433 005c 0010A0E1 		mov	r1, r0
 1434 0060 0420A0E1 		mov	r2, r4
 1435 0064 5400A0E3 		mov	r0, #84
 1436              	.LVL134:
 1437 0068 00508DE5 		str	r5, [sp]
 1438 006c FEFFFFEB 		bl	UnityAssertEqualNumber
 1439              	.LVL135:
 726:D:/Work/DeviceTester/amazon-freertos/tests/common/ota\aws_test_ota_pal.c ****         TEST_ASSERT_EQUAL( kOTA_Err_BadImageState, ( xOtaStatus & ~kOTA_PAL_ErrMask ) );
 1440              		.loc 1 726 0
 1441 0070 0400A0E1 		mov	r0, r4
 1442 0074 FEFFFFEB 		bl	prvPAL_SetPlatformImageState
 1443              	.LVL136:
 727:D:/Work/DeviceTester/amazon-freertos/tests/common/ota\aws_test_ota_pal.c ****     }
 1444              		.loc 1 727 0
 1445 0078 00508DE5 		str	r5, [sp]
 1446 007c FF1400E2 		and	r1, r0, #-16777216
 1447 0080 D73200E3 		movw	r3, #727
 1448 0084 0420A0E1 		mov	r2, r4
 1449 0088 0904A0E3 		mov	r0, #150994944
 1450              	.LVL137:
 1451 008c FEFFFFEB 		bl	UnityAssertEqualNumber
 1452              	.LVL138:
 1453              	.L91:
 729:D:/Work/DeviceTester/amazon-freertos/tests/common/ota\aws_test_ota_pal.c **** 
 1454              		.loc 1 729 0
 1455 0090 0CD08DE2 		add	sp, sp, #12
 1456              		.cfi_def_cfa_offset 12
 1457              		@ sp needed
 1458 0094 3080BDE8 		pop	{r4, r5, pc}
 1459              	.L96:
 1460              		.align	2
 1461              	.L95:
 1462 0098 00000000 		.word	.LC1
 1463 009c 00000000 		.word	.LANCHOR0
 1464 00a0 28000000 		.word	Unity+40
 1465 00a4 00000000 		.word	.LANCHOR1
 1466              		.cfi_endproc
 1467              	.LFE36:
 1469              		.section	.text.TEST_Full_OTA_PAL_prvPAL_SetPlatformImageState_AcceptedImageStateButImageNotClosed_
 1470              		.align	2
 1471              		.global	TEST_Full_OTA_PAL_prvPAL_SetPlatformImageState_AcceptedImageStateButImageNotClosed_
 1472              		.syntax unified
 1473              		.arm
 1474              		.fpu neon
 1476              	TEST_Full_OTA_PAL_prvPAL_SetPlatformImageState_AcceptedImageStateButImageNotClosed_:
 1477              	.LFB38:
 737:D:/Work/DeviceTester/amazon-freertos/tests/common/ota\aws_test_ota_pal.c ****     OTA_Err_t xOtaStatus;
 1478              		.loc 1 737 0
 1479              		.cfi_startproc
 1480              		@ args = 0, pretend = 0, frame = 0
 1481              		@ frame_needed = 0, uses_anonymous_args = 0
 1482              	.LVL139:
 1483 0000 37402DE9 		push	{r0, r1, r2, r4, r5, lr}
 1484              		.cfi_def_cfa_offset 24
 1485              		.cfi_offset 4, -12
 1486              		.cfi_offset 5, -8
 1487              		.cfi_offset 14, -4
 742:D:/Work/DeviceTester/amazon-freertos/tests/common/ota\aws_test_ota_pal.c ****     xOtaStatus = prvPAL_CreateFileForRx( &xOtaFile );
 1488              		.loc 1 742 0
 1489 0004 8C309FE5 		ldr	r3, .L101
 1490 0008 8C009FE5 		ldr	r0, .L101+4
 1491 000c 003080E5 		str	r3, [r0]
 743:D:/Work/DeviceTester/amazon-freertos/tests/common/ota\aws_test_ota_pal.c ****     TEST_ASSERT_EQUAL( kOTA_Err_None, xOtaStatus );
 1492              		.loc 1 743 0
 1493 0010 FEFFFFEB 		bl	prvPAL_CreateFileForRx
 1494              	.LVL140:
 744:D:/Work/DeviceTester/amazon-freertos/tests/common/ota\aws_test_ota_pal.c **** 
 1495              		.loc 1 744 0
 1496 0014 0020A0E3 		mov	r2, #0
 1497 0018 1430A0E3 		mov	r3, #20
 1498 001c 00308DE5 		str	r3, [sp]
 1499 0020 0010A0E1 		mov	r1, r0
 1500 0024 BA3FA0E3 		mov	r3, #744
 1501 0028 0200A0E1 		mov	r0, r2
 1502              	.LVL141:
 1503 002c FEFFFFEB 		bl	UnityAssertEqualNumber
 1504              	.LVL142:
 747:D:/Work/DeviceTester/amazon-freertos/tests/common/ota\aws_test_ota_pal.c ****     {
 1505              		.loc 1 747 0
 1506 0030 68009FE5 		ldr	r0, .L101+8
 1507 0034 FEFFFFEB 		bl	setjmp
 1508              	.LVL143:
 1509 0038 004050E2 		subs	r4, r0, #0
 1510 003c 1300001A 		bne	.L97
 750:D:/Work/DeviceTester/amazon-freertos/tests/common/ota\aws_test_ota_pal.c ****                                         0,
 1511              		.loc 1 750 0
 1512 0040 5430A0E3 		mov	r3, #84
 1513 0044 58209FE5 		ldr	r2, .L101+12
 1514 0048 0410A0E1 		mov	r1, r4
 754:D:/Work/DeviceTester/amazon-freertos/tests/common/ota\aws_test_ota_pal.c **** 
 1515              		.loc 1 754 0
 1516 004c 1450A0E3 		mov	r5, #20
 750:D:/Work/DeviceTester/amazon-freertos/tests/common/ota\aws_test_ota_pal.c ****                                         0,
 1517              		.loc 1 750 0
 1518 0050 44009FE5 		ldr	r0, .L101+4
 1519 0054 FEFFFFEB 		bl	prvPAL_WriteBlock
 1520              	.LVL144:
 754:D:/Work/DeviceTester/amazon-freertos/tests/common/ota\aws_test_ota_pal.c **** 
 1521              		.loc 1 754 0
 1522 0058 F23200E3 		movw	r3, #754
 1523 005c 0010A0E1 		mov	r1, r0
 1524 0060 0420A0E1 		mov	r2, r4
 1525 0064 5400A0E3 		mov	r0, #84
 1526              	.LVL145:
 1527 0068 00508DE5 		str	r5, [sp]
 1528 006c FEFFFFEB 		bl	UnityAssertEqualNumber
 1529              	.LVL146:
 757:D:/Work/DeviceTester/amazon-freertos/tests/common/ota\aws_test_ota_pal.c ****         TEST_ASSERT_EQUAL_INT( kOTA_Err_CommitFailed, ( xOtaStatus & ~kOTA_PAL_ErrMask ) );
 1530              		.loc 1 757 0
 1531 0070 0200A0E3 		mov	r0, #2
 1532 0074 FEFFFFEB 		bl	prvPAL_SetPlatformImageState
 1533              	.LVL147:
 758:D:/Work/DeviceTester/amazon-freertos/tests/common/ota\aws_test_ota_pal.c ****     }
 1534              		.loc 1 758 0
 1535 0078 00508DE5 		str	r5, [sp]
 1536 007c FF1400E2 		and	r1, r0, #-16777216
 1537 0080 F63200E3 		movw	r3, #758
 1538 0084 0420A0E1 		mov	r2, r4
 1539 0088 0504A0E3 		mov	r0, #83886080
 1540              	.LVL148:
 1541 008c FEFFFFEB 		bl	UnityAssertEqualNumber
 1542              	.LVL149:
 1543              	.L97:
 760:D:/Work/DeviceTester/amazon-freertos/tests/common/ota\aws_test_ota_pal.c **** 
 1544              		.loc 1 760 0
 1545 0090 0CD08DE2 		add	sp, sp, #12
 1546              		.cfi_def_cfa_offset 12
 1547              		@ sp needed
 1548 0094 3080BDE8 		pop	{r4, r5, pc}
 1549              	.L102:
 1550              		.align	2
 1551              	.L101:
 1552 0098 00000000 		.word	.LC1
 1553 009c 00000000 		.word	.LANCHOR0
 1554 00a0 28000000 		.word	Unity+40
 1555 00a4 00000000 		.word	.LANCHOR1
 1556              		.cfi_endproc
 1557              	.LFE38:
 1559              		.section	.text.TEST_Full_OTA_PAL_prvPAL_SetPlatformImageState_RejectImageState_,"ax",%progbits
 1560              		.align	2
 1561              		.global	TEST_Full_OTA_PAL_prvPAL_SetPlatformImageState_RejectImageState_
 1562              		.syntax unified
 1563              		.arm
 1564              		.fpu neon
 1566              	TEST_Full_OTA_PAL_prvPAL_SetPlatformImageState_RejectImageState_:
 1567              	.LFB40:
 767:D:/Work/DeviceTester/amazon-freertos/tests/common/ota\aws_test_ota_pal.c ****     OTA_Err_t xOtaStatus;
 1568              		.loc 1 767 0
 1569              		.cfi_startproc
 1570              		@ args = 0, pretend = 0, frame = 0
 1571              		@ frame_needed = 0, uses_anonymous_args = 0
 1572              	.LVL150:
 1573 0000 37402DE9 		push	{r0, r1, r2, r4, r5, lr}
 1574              		.cfi_def_cfa_offset 24
 1575              		.cfi_offset 4, -12
 1576              		.cfi_offset 5, -8
 1577              		.cfi_offset 14, -4
 772:D:/Work/DeviceTester/amazon-freertos/tests/common/ota\aws_test_ota_pal.c ****     xOtaStatus = prvPAL_CreateFileForRx( &xOtaFile );
 1578              		.loc 1 772 0
 1579 0004 8C309FE5 		ldr	r3, .L107
 1580 0008 8C009FE5 		ldr	r0, .L107+4
 1581 000c 003080E5 		str	r3, [r0]
 773:D:/Work/DeviceTester/amazon-freertos/tests/common/ota\aws_test_ota_pal.c ****     TEST_ASSERT_EQUAL( kOTA_Err_None, xOtaStatus );
 1582              		.loc 1 773 0
 1583 0010 FEFFFFEB 		bl	prvPAL_CreateFileForRx
 1584              	.LVL151:
 774:D:/Work/DeviceTester/amazon-freertos/tests/common/ota\aws_test_ota_pal.c **** 
 1585              		.loc 1 774 0
 1586 0014 0020A0E3 		mov	r2, #0
 1587 0018 1430A0E3 		mov	r3, #20
 1588 001c 00308DE5 		str	r3, [sp]
 1589 0020 0010A0E1 		mov	r1, r0
 1590 0024 063300E3 		movw	r3, #774
 1591 0028 0200A0E1 		mov	r0, r2
 1592              	.LVL152:
 1593 002c FEFFFFEB 		bl	UnityAssertEqualNumber
 1594              	.LVL153:
 777:D:/Work/DeviceTester/amazon-freertos/tests/common/ota\aws_test_ota_pal.c ****     {
 1595              		.loc 1 777 0
 1596 0030 68009FE5 		ldr	r0, .L107+8
 1597 0034 FEFFFFEB 		bl	setjmp
 1598              	.LVL154:
 1599 0038 004050E2 		subs	r4, r0, #0
 1600 003c 1300001A 		bne	.L103
 780:D:/Work/DeviceTester/amazon-freertos/tests/common/ota\aws_test_ota_pal.c ****                                         0,
 1601              		.loc 1 780 0
 1602 0040 5430A0E3 		mov	r3, #84
 1603 0044 58209FE5 		ldr	r2, .L107+12
 1604 0048 0410A0E1 		mov	r1, r4
 784:D:/Work/DeviceTester/amazon-freertos/tests/common/ota\aws_test_ota_pal.c **** 
 1605              		.loc 1 784 0
 1606 004c 1450A0E3 		mov	r5, #20
 780:D:/Work/DeviceTester/amazon-freertos/tests/common/ota\aws_test_ota_pal.c ****                                         0,
 1607              		.loc 1 780 0
 1608 0050 44009FE5 		ldr	r0, .L107+4
 1609 0054 FEFFFFEB 		bl	prvPAL_WriteBlock
 1610              	.LVL155:
 784:D:/Work/DeviceTester/amazon-freertos/tests/common/ota\aws_test_ota_pal.c **** 
 1611              		.loc 1 784 0
 1612 0058 313EA0E3 		mov	r3, #784
 1613 005c 0010A0E1 		mov	r1, r0
 1614 0060 0420A0E1 		mov	r2, r4
 1615 0064 5400A0E3 		mov	r0, #84
 1616              	.LVL156:
 1617 0068 00508DE5 		str	r5, [sp]
 1618 006c FEFFFFEB 		bl	UnityAssertEqualNumber
 1619              	.LVL157:
 787:D:/Work/DeviceTester/amazon-freertos/tests/common/ota\aws_test_ota_pal.c ****         TEST_ASSERT_EQUAL_INT( kOTA_Err_None, ( xOtaStatus & ~kOTA_PAL_ErrMask ) );
 1620              		.loc 1 787 0
 1621 0070 0300A0E3 		mov	r0, #3
 1622 0074 FEFFFFEB 		bl	prvPAL_SetPlatformImageState
 1623              	.LVL158:
 788:D:/Work/DeviceTester/amazon-freertos/tests/common/ota\aws_test_ota_pal.c ****     }
 1624              		.loc 1 788 0
 1625 0078 00508DE5 		str	r5, [sp]
 1626 007c FF1400E2 		and	r1, r0, #-16777216
 1627 0080 C53FA0E3 		mov	r3, #788
 1628 0084 0420A0E1 		mov	r2, r4
 1629 0088 0400A0E1 		mov	r0, r4
 1630              	.LVL159:
 1631 008c FEFFFFEB 		bl	UnityAssertEqualNumber
 1632              	.LVL160:
 1633              	.L103:
 790:D:/Work/DeviceTester/amazon-freertos/tests/common/ota\aws_test_ota_pal.c **** 
 1634              		.loc 1 790 0
 1635 0090 0CD08DE2 		add	sp, sp, #12
 1636              		.cfi_def_cfa_offset 12
 1637              		@ sp needed
 1638 0094 3080BDE8 		pop	{r4, r5, pc}
 1639              	.L108:
 1640              		.align	2
 1641              	.L107:
 1642 0098 00000000 		.word	.LC1
 1643 009c 00000000 		.word	.LANCHOR0
 1644 00a0 28000000 		.word	Unity+40
 1645 00a4 00000000 		.word	.LANCHOR1
 1646              		.cfi_endproc
 1647              	.LFE40:
 1649              		.section	.text.TEST_Full_OTA_PAL_prvPAL_SetPlatformImageState_AbortImageState_,"ax",%progbits
 1650              		.align	2
 1651              		.global	TEST_Full_OTA_PAL_prvPAL_SetPlatformImageState_AbortImageState_
 1652              		.syntax unified
 1653              		.arm
 1654              		.fpu neon
 1656              	TEST_Full_OTA_PAL_prvPAL_SetPlatformImageState_AbortImageState_:
 1657              	.LFB42:
 797:D:/Work/DeviceTester/amazon-freertos/tests/common/ota\aws_test_ota_pal.c ****     OTA_Err_t xOtaStatus;
 1658              		.loc 1 797 0
 1659              		.cfi_startproc
 1660              		@ args = 0, pretend = 0, frame = 0
 1661              		@ frame_needed = 0, uses_anonymous_args = 0
 1662              	.LVL161:
 1663 0000 37402DE9 		push	{r0, r1, r2, r4, r5, lr}
 1664              		.cfi_def_cfa_offset 24
 1665              		.cfi_offset 4, -12
 1666              		.cfi_offset 5, -8
 1667              		.cfi_offset 14, -4
 802:D:/Work/DeviceTester/amazon-freertos/tests/common/ota\aws_test_ota_pal.c ****     xOtaStatus = prvPAL_CreateFileForRx( &xOtaFile );
 1668              		.loc 1 802 0
 1669 0004 8C309FE5 		ldr	r3, .L113
 1670 0008 8C009FE5 		ldr	r0, .L113+4
 1671 000c 003080E5 		str	r3, [r0]
 803:D:/Work/DeviceTester/amazon-freertos/tests/common/ota\aws_test_ota_pal.c ****     TEST_ASSERT_EQUAL( kOTA_Err_None, xOtaStatus );
 1672              		.loc 1 803 0
 1673 0010 FEFFFFEB 		bl	prvPAL_CreateFileForRx
 1674              	.LVL162:
 804:D:/Work/DeviceTester/amazon-freertos/tests/common/ota\aws_test_ota_pal.c **** 
 1675              		.loc 1 804 0
 1676 0014 0020A0E3 		mov	r2, #0
 1677 0018 1430A0E3 		mov	r3, #20
 1678 001c 00308DE5 		str	r3, [sp]
 1679 0020 0010A0E1 		mov	r1, r0
 1680 0024 C93FA0E3 		mov	r3, #804
 1681 0028 0200A0E1 		mov	r0, r2
 1682              	.LVL163:
 1683 002c FEFFFFEB 		bl	UnityAssertEqualNumber
 1684              	.LVL164:
 807:D:/Work/DeviceTester/amazon-freertos/tests/common/ota\aws_test_ota_pal.c ****     {
 1685              		.loc 1 807 0
 1686 0030 68009FE5 		ldr	r0, .L113+8
 1687 0034 FEFFFFEB 		bl	setjmp
 1688              	.LVL165:
 1689 0038 004050E2 		subs	r4, r0, #0
 1690 003c 1300001A 		bne	.L109
 810:D:/Work/DeviceTester/amazon-freertos/tests/common/ota\aws_test_ota_pal.c ****                                         0,
 1691              		.loc 1 810 0
 1692 0040 5430A0E3 		mov	r3, #84
 1693 0044 58209FE5 		ldr	r2, .L113+12
 1694 0048 0410A0E1 		mov	r1, r4
 814:D:/Work/DeviceTester/amazon-freertos/tests/common/ota\aws_test_ota_pal.c **** 
 1695              		.loc 1 814 0
 1696 004c 1450A0E3 		mov	r5, #20
 810:D:/Work/DeviceTester/amazon-freertos/tests/common/ota\aws_test_ota_pal.c ****                                         0,
 1697              		.loc 1 810 0
 1698 0050 44009FE5 		ldr	r0, .L113+4
 1699 0054 FEFFFFEB 		bl	prvPAL_WriteBlock
 1700              	.LVL166:
 814:D:/Work/DeviceTester/amazon-freertos/tests/common/ota\aws_test_ota_pal.c **** 
 1701              		.loc 1 814 0
 1702 0058 2E3300E3 		movw	r3, #814
 1703 005c 0010A0E1 		mov	r1, r0
 1704 0060 0420A0E1 		mov	r2, r4
 1705 0064 5400A0E3 		mov	r0, #84
 1706              	.LVL167:
 1707 0068 00508DE5 		str	r5, [sp]
 1708 006c FEFFFFEB 		bl	UnityAssertEqualNumber
 1709              	.LVL168:
 817:D:/Work/DeviceTester/amazon-freertos/tests/common/ota\aws_test_ota_pal.c ****         TEST_ASSERT_EQUAL_INT( kOTA_Err_None, ( xOtaStatus & ~kOTA_PAL_ErrMask ) );
 1710              		.loc 1 817 0
 1711 0070 0400A0E3 		mov	r0, #4
 1712 0074 FEFFFFEB 		bl	prvPAL_SetPlatformImageState
 1713              	.LVL169:
 818:D:/Work/DeviceTester/amazon-freertos/tests/common/ota\aws_test_ota_pal.c ****     }
 1714              		.loc 1 818 0
 1715 0078 00508DE5 		str	r5, [sp]
 1716 007c FF1400E2 		and	r1, r0, #-16777216
 1717 0080 323300E3 		movw	r3, #818
 1718 0084 0420A0E1 		mov	r2, r4
 1719 0088 0400A0E1 		mov	r0, r4
 1720              	.LVL170:
 1721 008c FEFFFFEB 		bl	UnityAssertEqualNumber
 1722              	.LVL171:
 1723              	.L109:
 820:D:/Work/DeviceTester/amazon-freertos/tests/common/ota\aws_test_ota_pal.c **** 
 1724              		.loc 1 820 0
 1725 0090 0CD08DE2 		add	sp, sp, #12
 1726              		.cfi_def_cfa_offset 12
 1727              		@ sp needed
 1728 0094 3080BDE8 		pop	{r4, r5, pc}
 1729              	.L114:
 1730              		.align	2
 1731              	.L113:
 1732 0098 00000000 		.word	.LC1
 1733 009c 00000000 		.word	.LANCHOR0
 1734 00a0 28000000 		.word	Unity+40
 1735 00a4 00000000 		.word	.LANCHOR1
 1736              		.cfi_endproc
 1737              	.LFE42:
 1739              		.section	.text.TEST_Full_OTA_PAL_prvPAL_GetPlatformImageState_InvalidImageStateFromFileCloseFailur
 1740              		.align	2
 1741              		.global	TEST_Full_OTA_PAL_prvPAL_GetPlatformImageState_InvalidImageStateFromFileCloseFailure_
 1742              		.syntax unified
 1743              		.arm
 1744              		.fpu neon
 1746              	TEST_Full_OTA_PAL_prvPAL_GetPlatformImageState_InvalidImageStateFromFileCloseFailure_:
 1747              	.LFB44:
 827:D:/Work/DeviceTester/amazon-freertos/tests/common/ota\aws_test_ota_pal.c ****     OTA_Err_t xOtaStatus;
 1748              		.loc 1 827 0
 1749              		.cfi_startproc
 1750              		@ args = 0, pretend = 0, frame = 264
 1751              		@ frame_needed = 0, uses_anonymous_args = 0
 1752 0000 30402DE9 		push	{r4, r5, lr}
 1753              		.cfi_def_cfa_offset 12
 1754              		.cfi_offset 4, -12
 1755              		.cfi_offset 5, -8
 1756              		.cfi_offset 14, -4
 1757 0004 45DF4DE2 		sub	sp, sp, #276
 1758              		.cfi_def_cfa_offset 288
 829:D:/Work/DeviceTester/amazon-freertos/tests/common/ota\aws_test_ota_pal.c ****     OTA_PAL_ImageState_t ePalImageState = eOTA_PAL_ImageState_Unknown;
 1759              		.loc 1 829 0
 1760 0008 022100E3 		movw	r2, #258
 1761 000c 0010A0E3 		mov	r1, #0
 1762 0010 0C008DE2 		add	r0, sp, #12
 1763 0014 FEFFFFEB 		bl	memset
 1764              	.LVL172:
 834:D:/Work/DeviceTester/amazon-freertos/tests/common/ota\aws_test_ota_pal.c ****     xOtaStatus = prvPAL_CreateFileForRx( &xOtaFile );
 1765              		.loc 1 834 0
 1766 0018 DC309FE5 		ldr	r3, .L123
 1767 001c DC009FE5 		ldr	r0, .L123+4
 1768 0020 003080E5 		str	r3, [r0]
 835:D:/Work/DeviceTester/amazon-freertos/tests/common/ota\aws_test_ota_pal.c ****     TEST_ASSERT_EQUAL( kOTA_Err_None, xOtaStatus );
 1769              		.loc 1 835 0
 1770 0024 FEFFFFEB 		bl	prvPAL_CreateFileForRx
 1771              	.LVL173:
 836:D:/Work/DeviceTester/amazon-freertos/tests/common/ota\aws_test_ota_pal.c **** 
 1772              		.loc 1 836 0
 1773 0028 0020A0E3 		mov	r2, #0
 1774 002c 1430A0E3 		mov	r3, #20
 1775 0030 00308DE5 		str	r3, [sp]
 1776 0034 0010A0E1 		mov	r1, r0
 1777 0038 D13FA0E3 		mov	r3, #836
 1778 003c 0200A0E1 		mov	r0, r2
 1779              	.LVL174:
 1780 0040 FEFFFFEB 		bl	UnityAssertEqualNumber
 1781              	.LVL175:
 839:D:/Work/DeviceTester/amazon-freertos/tests/common/ota\aws_test_ota_pal.c ****     {
 1782              		.loc 1 839 0
 1783 0044 B8009FE5 		ldr	r0, .L123+8
 1784 0048 FEFFFFEB 		bl	setjmp
 1785              	.LVL176:
 1786 004c 005050E2 		subs	r5, r0, #0
 1787 0050 2300001A 		bne	.L115
 842:D:/Work/DeviceTester/amazon-freertos/tests/common/ota\aws_test_ota_pal.c ****                                         0,
 1788              		.loc 1 842 0
 1789 0054 A4409FE5 		ldr	r4, .L123+4
 1790 0058 5430A0E3 		mov	r3, #84
 1791 005c A4209FE5 		ldr	r2, .L123+12
 1792 0060 0510A0E1 		mov	r1, r5
 1793 0064 0400A0E1 		mov	r0, r4
 1794 0068 FEFFFFEB 		bl	prvPAL_WriteBlock
 1795              	.LVL177:
 846:D:/Work/DeviceTester/amazon-freertos/tests/common/ota\aws_test_ota_pal.c **** 
 1796              		.loc 1 846 0
 1797 006c 1430A0E3 		mov	r3, #20
 1798 0070 0010A0E1 		mov	r1, r0
 1799 0074 00308DE5 		str	r3, [sp]
 1800 0078 0520A0E1 		mov	r2, r5
 1801 007c 4E3300E3 		movw	r3, #846
 1802 0080 5400A0E3 		mov	r0, #84
 1803              	.LVL178:
 1804 0084 FEFFFFEB 		bl	UnityAssertEqualNumber
 1805              	.LVL179:
 849:D:/Work/DeviceTester/amazon-freertos/tests/common/ota\aws_test_ota_pal.c ****         xOtaFile.pxSignature->usSize = ucInvalidSignatureLength;
 1806              		.loc 1 849 0
 1807 0088 0C308DE2 		add	r3, sp, #12
 850:D:/Work/DeviceTester/amazon-freertos/tests/common/ota\aws_test_ota_pal.c ****         memcpy( xOtaFile.pxSignature->ucData, ucInvalidSignature, ucInvalidSignatureLength );
 1808              		.loc 1 850 0
 1809 008c 4620A0E3 		mov	r2, #70
 851:D:/Work/DeviceTester/amazon-freertos/tests/common/ota\aws_test_ota_pal.c ****         xOtaFile.pucCertFilepath = ( uint8_t * ) otatestpalCERTIFICATE_FILE;
 1810              		.loc 1 851 0
 1811 0090 74109FE5 		ldr	r1, .L123+16
 1812 0094 0E008DE2 		add	r0, sp, #14
 849:D:/Work/DeviceTester/amazon-freertos/tests/common/ota\aws_test_ota_pal.c ****         xOtaFile.pxSignature->usSize = ucInvalidSignatureLength;
 1813              		.loc 1 849 0
 1814 0098 283084E5 		str	r3, [r4, #40]
 850:D:/Work/DeviceTester/amazon-freertos/tests/common/ota\aws_test_ota_pal.c ****         memcpy( xOtaFile.pxSignature->ucData, ucInvalidSignature, ucInvalidSignatureLength );
 1815              		.loc 1 850 0
 1816 009c BC20CDE1 		strh	r2, [sp, #12]	@ movhi
 851:D:/Work/DeviceTester/amazon-freertos/tests/common/ota\aws_test_ota_pal.c ****         xOtaFile.pucCertFilepath = ( uint8_t * ) otatestpalCERTIFICATE_FILE;
 1817              		.loc 1 851 0
 1818 00a0 FEFFFFEB 		bl	memcpy
 1819              	.LVL180:
 852:D:/Work/DeviceTester/amazon-freertos/tests/common/ota\aws_test_ota_pal.c **** 
 1820              		.loc 1 852 0
 1821 00a4 64309FE5 		ldr	r3, .L123+20
 854:D:/Work/DeviceTester/amazon-freertos/tests/common/ota\aws_test_ota_pal.c **** 
 1822              		.loc 1 854 0
 1823 00a8 0400A0E1 		mov	r0, r4
 852:D:/Work/DeviceTester/amazon-freertos/tests/common/ota\aws_test_ota_pal.c **** 
 1824              		.loc 1 852 0
 1825 00ac 303084E5 		str	r3, [r4, #48]
 854:D:/Work/DeviceTester/amazon-freertos/tests/common/ota\aws_test_ota_pal.c **** 
 1826              		.loc 1 854 0
 1827 00b0 FEFFFFEB 		bl	prvPAL_CloseFile
 1828              	.LVL181:
 856:D:/Work/DeviceTester/amazon-freertos/tests/common/ota\aws_test_ota_pal.c ****             ( kOTA_Err_SignatureCheckFailed != ( xOtaStatus & ~kOTA_PAL_ErrMask ) ) &&
 1829              		.loc 1 856 0
 1830 00b4 FF3400E2 		and	r3, r0, #-16777216
 1831 00b8 EF0400E2 		and	r0, r0, #-285212672
 1832              	.LVL182:
 857:D:/Work/DeviceTester/amazon-freertos/tests/common/ota\aws_test_ota_pal.c ****             ( kOTA_Err_FileClose != ( xOtaStatus & ~kOTA_PAL_ErrMask ) ) )
 1833              		.loc 1 857 0
 1834 00bc 020453E3 		cmp	r3, #33554432
 1835 00c0 01045013 		cmpne	r0, #16777216
 1836 00c4 0800001A 		bne	.L117
 1837              	.L119:
 864:D:/Work/DeviceTester/amazon-freertos/tests/common/ota\aws_test_ota_pal.c ****         TEST_ASSERT( ( eOTA_PAL_ImageState_Invalid == ePalImageState ) || ( eOTA_PAL_ImageState_Unk
 1838              		.loc 1 864 0
 1839 00c8 FEFFFFEB 		bl	prvPAL_GetPlatformImageState
 1840              	.LVL183:
 865:D:/Work/DeviceTester/amazon-freertos/tests/common/ota\aws_test_ota_pal.c ****     }
 1841              		.loc 1 865 0
 1842 00cc 000050E3 		cmp	r0, #0
 1843 00d0 03005013 		cmpne	r0, #3
 1844 00d4 0200000A 		beq	.L115
 865:D:/Work/DeviceTester/amazon-freertos/tests/common/ota\aws_test_ota_pal.c ****     }
 1845              		.loc 1 865 0 is_stmt 0 discriminator 1
 1846 00d8 611300E3 		movw	r1, #865
 1847 00dc 30009FE5 		ldr	r0, .L123+24
 1848              	.LVL184:
 1849 00e0 FEFFFFEB 		bl	UnityFail
 1850              	.LVL185:
 1851              	.L115:
 867:D:/Work/DeviceTester/amazon-freertos/tests/common/ota\aws_test_ota_pal.c **** 
 1852              		.loc 1 867 0 is_stmt 1
 1853 00e4 45DF8DE2 		add	sp, sp, #276
 1854              		.cfi_remember_state
 1855              		.cfi_def_cfa_offset 12
 1856              		@ sp needed
 1857 00e8 3080BDE8 		pop	{r4, r5, pc}
 1858              	.LVL186:
 1859              	.L117:
 1860              		.cfi_restore_state
 860:D:/Work/DeviceTester/amazon-freertos/tests/common/ota\aws_test_ota_pal.c ****         }
 1861              		.loc 1 860 0 discriminator 1
 1862 00ec D71FA0E3 		mov	r1, #860
 1863 00f0 20009FE5 		ldr	r0, .L123+28
 1864 00f4 FEFFFFEB 		bl	UnityFail
 1865              	.LVL187:
 1866 00f8 F2FFFFEA 		b	.L119
 1867              	.L124:
 1868              		.align	2
 1869              	.L123:
 1870 00fc 00000000 		.word	.LC1
 1871 0100 00000000 		.word	.LANCHOR0
 1872 0104 28000000 		.word	Unity+40
 1873 0108 00000000 		.word	.LANCHOR1
 1874 010c 00000000 		.word	.LANCHOR3
 1875 0110 1A000000 		.word	.LC4
 1876 0114 00000000 		.word	.LC7
 1877 0118 00000000 		.word	.LC5
 1878              		.cfi_endproc
 1879              	.LFE44:
 1881              		.section	.text.TEST_Full_OTA_PAL_prvPAL_ReadAndAssumeCertificate_NonexistentFile_,"ax",%progbits
 1882              		.align	2
 1883              		.global	TEST_Full_OTA_PAL_prvPAL_ReadAndAssumeCertificate_NonexistentFile_
 1884              		.syntax unified
 1885              		.arm
 1886              		.fpu neon
 1888              	TEST_Full_OTA_PAL_prvPAL_ReadAndAssumeCertificate_NonexistentFile_:
 1889              	.LFB48:
 901:D:/Work/DeviceTester/amazon-freertos/tests/common/ota\aws_test_ota_pal.c ****         uint8_t * pucSignerCert = NULL;
 1890              		.loc 1 901 0
 1891              		.cfi_startproc
 1892              		@ args = 0, pretend = 0, frame = 8
 1893              		@ frame_needed = 0, uses_anonymous_args = 0
 1894              	.LVL188:
 1895 0000 1F402DE9 		push	{r0, r1, r2, r3, r4, lr}
 1896              		.cfi_def_cfa_offset 24
 1897              		.cfi_offset 14, -4
 904:D:/Work/DeviceTester/amazon-freertos/tests/common/ota\aws_test_ota_pal.c **** 
 1898              		.loc 1 904 0
 1899 0004 0030A0E3 		mov	r3, #0
 1900 0008 10108DE2 		add	r1, sp, #16
 906:D:/Work/DeviceTester/amazon-freertos/tests/common/ota\aws_test_ota_pal.c **** 
 1901              		.loc 1 906 0
 1902 000c 3C009FE5 		ldr	r0, .L131
 904:D:/Work/DeviceTester/amazon-freertos/tests/common/ota\aws_test_ota_pal.c **** 
 1903              		.loc 1 904 0
 1904 0010 043021E5 		str	r3, [r1, #-4]!
 906:D:/Work/DeviceTester/amazon-freertos/tests/common/ota\aws_test_ota_pal.c **** 
 1905              		.loc 1 906 0
 1906 0014 FEFFFFEB 		bl	test_prvPAL_ReadAndAssumeCertificate
 1907              	.LVL189:
 909:D:/Work/DeviceTester/amazon-freertos/tests/common/ota\aws_test_ota_pal.c ****         /* Verify the signer certificate size is zero. */
 1908              		.loc 1 909 0
 1909 0018 000050E3 		cmp	r0, #0
 1910 001c 0200000A 		beq	.L126
 909:D:/Work/DeviceTester/amazon-freertos/tests/common/ota\aws_test_ota_pal.c ****         /* Verify the signer certificate size is zero. */
 1911              		.loc 1 909 0 is_stmt 0 discriminator 1
 1912 0020 8D1300E3 		movw	r1, #909
 1913 0024 28009FE5 		ldr	r0, .L131+4
 1914              	.LVL190:
 1915 0028 FEFFFFEB 		bl	UnityFail
 1916              	.LVL191:
 1917              	.L126:
 911:D:/Work/DeviceTester/amazon-freertos/tests/common/ota\aws_test_ota_pal.c ****     }
 1918              		.loc 1 911 0 is_stmt 1
 1919 002c 0020A0E3 		mov	r2, #0
 1920 0030 1430A0E3 		mov	r3, #20
 1921 0034 00308DE5 		str	r3, [sp]
 1922 0038 0200A0E1 		mov	r0, r2
 1923 003c 8F3300E3 		movw	r3, #911
 1924 0040 0C109DE5 		ldr	r1, [sp, #12]
 1925 0044 FEFFFFEB 		bl	UnityAssertEqualNumber
 1926              	.LVL192:
 912:D:/Work/DeviceTester/amazon-freertos/tests/common/ota\aws_test_ota_pal.c **** #endif /* if ( otatestpalREAD_AND_ASSUME_CERTIFICATE_SUPPORTED == 1 ) */
 1927              		.loc 1 912 0
 1928 0048 14D08DE2 		add	sp, sp, #20
 1929              		.cfi_def_cfa_offset 4
 1930              		@ sp needed
 1931 004c 04F09DE4 		ldr	pc, [sp], #4
 1932              	.L132:
 1933              		.align	2
 1934              	.L131:
 1935 0050 00000000 		.word	.LC8
 1936 0054 16000000 		.word	.LC9
 1937              		.cfi_endproc
 1938              	.LFE48:
 1940              		.section	.text.TEST_Full_OTA_PAL_prvPAL_ReadAndAssumeCertificate_ExistingFile_,"ax",%progbits
 1941              		.align	2
 1942              		.global	TEST_Full_OTA_PAL_prvPAL_ReadAndAssumeCertificate_ExistingFile_
 1943              		.syntax unified
 1944              		.arm
 1945              		.fpu neon
 1947              	TEST_Full_OTA_PAL_prvPAL_ReadAndAssumeCertificate_ExistingFile_:
 1948              	.LFB46:
 877:D:/Work/DeviceTester/amazon-freertos/tests/common/ota\aws_test_ota_pal.c ****         uint8_t * pucSignerCert = NULL;
 1949              		.loc 1 877 0
 1950              		.cfi_startproc
 1951              		@ args = 0, pretend = 0, frame = 8
 1952              		@ frame_needed = 0, uses_anonymous_args = 0
 1953              	.LVL193:
 1954 0000 1F402DE9 		push	{r0, r1, r2, r3, r4, lr}
 1955              		.cfi_def_cfa_offset 24
 1956              		.cfi_offset 4, -8
 1957              		.cfi_offset 14, -4
 880:D:/Work/DeviceTester/amazon-freertos/tests/common/ota\aws_test_ota_pal.c **** 
 1958              		.loc 1 880 0
 1959 0004 0030A0E3 		mov	r3, #0
 1960 0008 10108DE2 		add	r1, sp, #16
 882:D:/Work/DeviceTester/amazon-freertos/tests/common/ota\aws_test_ota_pal.c **** 
 1961              		.loc 1 882 0
 1962 000c 44009FE5 		ldr	r0, .L136
 880:D:/Work/DeviceTester/amazon-freertos/tests/common/ota\aws_test_ota_pal.c **** 
 1963              		.loc 1 880 0
 1964 0010 043021E5 		str	r3, [r1, #-4]!
 882:D:/Work/DeviceTester/amazon-freertos/tests/common/ota\aws_test_ota_pal.c **** 
 1965              		.loc 1 882 0
 1966 0014 FEFFFFEB 		bl	test_prvPAL_ReadAndAssumeCertificate
 1967              	.LVL194:
 885:D:/Work/DeviceTester/amazon-freertos/tests/common/ota\aws_test_ota_pal.c **** 
 1968              		.loc 1 885 0
 1969 0018 004050E2 		subs	r4, r0, #0
 1970 001c 0200001A 		bne	.L134
 885:D:/Work/DeviceTester/amazon-freertos/tests/common/ota\aws_test_ota_pal.c **** 
 1971              		.loc 1 885 0 is_stmt 0 discriminator 1
 1972 0020 751300E3 		movw	r1, #885
 1973 0024 30009FE5 		ldr	r0, .L136+4
 1974              	.LVL195:
 1975 0028 FEFFFFEB 		bl	UnityFail
 1976              	.LVL196:
 1977              	.L134:
 889:D:/Work/DeviceTester/amazon-freertos/tests/common/ota\aws_test_ota_pal.c **** 
 1978              		.loc 1 889 0 is_stmt 1
 1979 002c 0020A0E3 		mov	r2, #0
 1980 0030 1430A0E3 		mov	r3, #20
 1981 0034 0200A0E1 		mov	r0, r2
 1982 0038 00308DE5 		str	r3, [sp]
 1983 003c 0C109DE5 		ldr	r1, [sp, #12]
 1984 0040 793300E3 		movw	r3, #889
 1985 0044 FEFFFFEB 		bl	UnityAssertGreaterNumber
 1986              	.LVL197:
 892:D:/Work/DeviceTester/amazon-freertos/tests/common/ota\aws_test_ota_pal.c ****     }
 1987              		.loc 1 892 0
 1988 0048 0400A0E1 		mov	r0, r4
 1989 004c FEFFFFEB 		bl	vPortFree
 1990              	.LVL198:
 893:D:/Work/DeviceTester/amazon-freertos/tests/common/ota\aws_test_ota_pal.c **** 
 1991              		.loc 1 893 0
 1992 0050 10D08DE2 		add	sp, sp, #16
 1993              		.cfi_def_cfa_offset 8
 1994              		@ sp needed
 1995 0054 1080BDE8 		pop	{r4, pc}
 1996              	.LVL199:
 1997              	.L137:
 1998              		.align	2
 1999              	.L136:
 2000 0058 1A000000 		.word	.LC4
 2001 005c 16000000 		.word	.LC9
 2002              		.cfi_endproc
 2003              	.LFE46:
 2005              		.section	.text.TEST_Full_OTA_PAL_prvPAL_CheckFileSignature_ValidSignature_,"ax",%progbits
 2006              		.align	2
 2007              		.global	TEST_Full_OTA_PAL_prvPAL_CheckFileSignature_ValidSignature_
 2008              		.syntax unified
 2009              		.arm
 2010              		.fpu neon
 2012              	TEST_Full_OTA_PAL_prvPAL_CheckFileSignature_ValidSignature_:
 2013              	.LFB50:
 922:D:/Work/DeviceTester/amazon-freertos/tests/common/ota\aws_test_ota_pal.c ****         OTA_Err_t xOtaStatus;
 2014              		.loc 1 922 0
 2015              		.cfi_startproc
 2016              		@ args = 0, pretend = 0, frame = 264
 2017              		@ frame_needed = 0, uses_anonymous_args = 0
 2018 0000 70402DE9 		push	{r4, r5, r6, lr}
 2019              		.cfi_def_cfa_offset 16
 2020              		.cfi_offset 4, -16
 2021              		.cfi_offset 5, -12
 2022              		.cfi_offset 6, -8
 2023              		.cfi_offset 14, -4
 2024 0004 11DE4DE2 		sub	sp, sp, #272
 2025              		.cfi_def_cfa_offset 288
 924:D:/Work/DeviceTester/amazon-freertos/tests/common/ota\aws_test_ota_pal.c **** 
 2026              		.loc 1 924 0
 2027 0008 022100E3 		movw	r2, #258
 2028 000c 0010A0E3 		mov	r1, #0
 2029 0010 0C008DE2 		add	r0, sp, #12
 2030 0014 FEFFFFEB 		bl	memset
 2031              	.LVL200:
 927:D:/Work/DeviceTester/amazon-freertos/tests/common/ota\aws_test_ota_pal.c ****         xOtaStatus = prvPAL_CreateFileForRx( &xOtaFile );
 2032              		.loc 1 927 0
 2033 0018 B4309FE5 		ldr	r3, .L142
 2034 001c B4009FE5 		ldr	r0, .L142+4
 2035 0020 003080E5 		str	r3, [r0]
 928:D:/Work/DeviceTester/amazon-freertos/tests/common/ota\aws_test_ota_pal.c ****         TEST_ASSERT_EQUAL( kOTA_Err_None, xOtaStatus );
 2036              		.loc 1 928 0
 2037 0024 FEFFFFEB 		bl	prvPAL_CreateFileForRx
 2038              	.LVL201:
 929:D:/Work/DeviceTester/amazon-freertos/tests/common/ota\aws_test_ota_pal.c **** 
 2039              		.loc 1 929 0
 2040 0028 0020A0E3 		mov	r2, #0
 2041 002c 1430A0E3 		mov	r3, #20
 2042 0030 00308DE5 		str	r3, [sp]
 2043 0034 0010A0E1 		mov	r1, r0
 2044 0038 A13300E3 		movw	r3, #929
 2045 003c 0200A0E1 		mov	r0, r2
 2046              	.LVL202:
 2047 0040 FEFFFFEB 		bl	UnityAssertEqualNumber
 2048              	.LVL203:
 932:D:/Work/DeviceTester/amazon-freertos/tests/common/ota\aws_test_ota_pal.c ****         {
 2049              		.loc 1 932 0
 2050 0044 90009FE5 		ldr	r0, .L142+8
 2051 0048 FEFFFFEB 		bl	setjmp
 2052              	.LVL204:
 2053 004c 005050E2 		subs	r5, r0, #0
 2054 0050 1D00001A 		bne	.L138
 935:D:/Work/DeviceTester/amazon-freertos/tests/common/ota\aws_test_ota_pal.c ****                                             0,
 2055              		.loc 1 935 0
 2056 0054 7C409FE5 		ldr	r4, .L142+4
 2057 0058 5430A0E3 		mov	r3, #84
 2058 005c 7C209FE5 		ldr	r2, .L142+12
 2059 0060 0510A0E1 		mov	r1, r5
 939:D:/Work/DeviceTester/amazon-freertos/tests/common/ota\aws_test_ota_pal.c **** 
 2060              		.loc 1 939 0
 2061 0064 1460A0E3 		mov	r6, #20
 935:D:/Work/DeviceTester/amazon-freertos/tests/common/ota\aws_test_ota_pal.c ****                                             0,
 2062              		.loc 1 935 0
 2063 0068 0400A0E1 		mov	r0, r4
 2064 006c FEFFFFEB 		bl	prvPAL_WriteBlock
 2065              	.LVL205:
 939:D:/Work/DeviceTester/amazon-freertos/tests/common/ota\aws_test_ota_pal.c **** 
 2066              		.loc 1 939 0
 2067 0070 AB3300E3 		movw	r3, #939
 2068 0074 0010A0E1 		mov	r1, r0
 2069 0078 0520A0E1 		mov	r2, r5
 2070 007c 5400A0E3 		mov	r0, #84
 2071              	.LVL206:
 2072 0080 00608DE5 		str	r6, [sp]
 2073 0084 FEFFFFEB 		bl	UnityAssertEqualNumber
 2074              	.LVL207:
 942:D:/Work/DeviceTester/amazon-freertos/tests/common/ota\aws_test_ota_pal.c ****             memcpy( xOtaFile.pxSignature->ucData, ucValidSignature, ucValidSignatureLength );
 2075              		.loc 1 942 0
 2076 0088 4620A0E3 		mov	r2, #70
 941:D:/Work/DeviceTester/amazon-freertos/tests/common/ota\aws_test_ota_pal.c ****             xOtaFile.pxSignature->usSize = ucValidSignatureLength;
 2077              		.loc 1 941 0
 2078 008c 0C308DE2 		add	r3, sp, #12
 943:D:/Work/DeviceTester/amazon-freertos/tests/common/ota\aws_test_ota_pal.c ****             xOtaFile.pucCertFilepath = ( uint8_t * ) otatestpalCERTIFICATE_FILE;
 2079              		.loc 1 943 0
 2080 0090 4C109FE5 		ldr	r1, .L142+16
 2081 0094 0E008DE2 		add	r0, sp, #14
 942:D:/Work/DeviceTester/amazon-freertos/tests/common/ota\aws_test_ota_pal.c ****             memcpy( xOtaFile.pxSignature->ucData, ucValidSignature, ucValidSignatureLength );
 2082              		.loc 1 942 0
 2083 0098 BC20CDE1 		strh	r2, [sp, #12]	@ movhi
 941:D:/Work/DeviceTester/amazon-freertos/tests/common/ota\aws_test_ota_pal.c ****             xOtaFile.pxSignature->usSize = ucValidSignatureLength;
 2084              		.loc 1 941 0
 2085 009c 283084E5 		str	r3, [r4, #40]
 943:D:/Work/DeviceTester/amazon-freertos/tests/common/ota\aws_test_ota_pal.c ****             xOtaFile.pucCertFilepath = ( uint8_t * ) otatestpalCERTIFICATE_FILE;
 2086              		.loc 1 943 0
 2087 00a0 FEFFFFEB 		bl	memcpy
 2088              	.LVL208:
 944:D:/Work/DeviceTester/amazon-freertos/tests/common/ota\aws_test_ota_pal.c **** 
 2089              		.loc 1 944 0
 2090 00a4 3C309FE5 		ldr	r3, .L142+20
 946:D:/Work/DeviceTester/amazon-freertos/tests/common/ota\aws_test_ota_pal.c ****             TEST_ASSERT_EQUAL_INT( kOTA_Err_None, xOtaStatus );
 2091              		.loc 1 946 0
 2092 00a8 0400A0E1 		mov	r0, r4
 944:D:/Work/DeviceTester/amazon-freertos/tests/common/ota\aws_test_ota_pal.c **** 
 2093              		.loc 1 944 0
 2094 00ac 303084E5 		str	r3, [r4, #48]
 946:D:/Work/DeviceTester/amazon-freertos/tests/common/ota\aws_test_ota_pal.c ****             TEST_ASSERT_EQUAL_INT( kOTA_Err_None, xOtaStatus );
 2095              		.loc 1 946 0
 2096 00b0 FEFFFFEB 		bl	test_prvPAL_CheckFileSignature
 2097              	.LVL209:
 947:D:/Work/DeviceTester/amazon-freertos/tests/common/ota\aws_test_ota_pal.c ****         }
 2098              		.loc 1 947 0
 2099 00b4 00608DE5 		str	r6, [sp]
 2100 00b8 0010A0E1 		mov	r1, r0
 2101 00bc B33300E3 		movw	r3, #947
 2102 00c0 0520A0E1 		mov	r2, r5
 2103 00c4 0500A0E1 		mov	r0, r5
 2104              	.LVL210:
 2105 00c8 FEFFFFEB 		bl	UnityAssertEqualNumber
 2106              	.LVL211:
 2107              	.L138:
 949:D:/Work/DeviceTester/amazon-freertos/tests/common/ota\aws_test_ota_pal.c **** 
 2108              		.loc 1 949 0
 2109 00cc 11DE8DE2 		add	sp, sp, #272
 2110              		.cfi_def_cfa_offset 16
 2111              		@ sp needed
 2112 00d0 7080BDE8 		pop	{r4, r5, r6, pc}
 2113              	.L143:
 2114              		.align	2
 2115              	.L142:
 2116 00d4 00000000 		.word	.LC1
 2117 00d8 00000000 		.word	.LANCHOR0
 2118 00dc 28000000 		.word	Unity+40
 2119 00e0 00000000 		.word	.LANCHOR1
 2120 00e4 00000000 		.word	.LANCHOR2
 2121 00e8 1A000000 		.word	.LC4
 2122              		.cfi_endproc
 2123              	.LFE50:
 2125              		.section	.text.TEST_Full_OTA_PAL_prvPAL_CheckFileSignature_InvalidSignatureBlockWritten_,"ax",%pro
 2126              		.align	2
 2127              		.global	TEST_Full_OTA_PAL_prvPAL_CheckFileSignature_InvalidSignatureBlockWritten_
 2128              		.syntax unified
 2129              		.arm
 2130              		.fpu neon
 2132              	TEST_Full_OTA_PAL_prvPAL_CheckFileSignature_InvalidSignatureBlockWritten_:
 2133              	.LFB52:
 956:D:/Work/DeviceTester/amazon-freertos/tests/common/ota\aws_test_ota_pal.c ****         OTA_Err_t xOtaStatus;
 2134              		.loc 1 956 0
 2135              		.cfi_startproc
 2136              		@ args = 0, pretend = 0, frame = 264
 2137              		@ frame_needed = 0, uses_anonymous_args = 0
 2138 0000 30402DE9 		push	{r4, r5, lr}
 2139              		.cfi_def_cfa_offset 12
 2140              		.cfi_offset 4, -12
 2141              		.cfi_offset 5, -8
 2142              		.cfi_offset 14, -4
 2143 0004 45DF4DE2 		sub	sp, sp, #276
 2144              		.cfi_def_cfa_offset 288
 958:D:/Work/DeviceTester/amazon-freertos/tests/common/ota\aws_test_ota_pal.c **** 
 2145              		.loc 1 958 0
 2146 0008 022100E3 		movw	r2, #258
 2147 000c 0010A0E3 		mov	r1, #0
 2148 0010 0C008DE2 		add	r0, sp, #12
 2149 0014 FEFFFFEB 		bl	memset
 2150              	.LVL212:
 961:D:/Work/DeviceTester/amazon-freertos/tests/common/ota\aws_test_ota_pal.c ****         xOtaStatus = prvPAL_CreateFileForRx( &xOtaFile );
 2151              		.loc 1 961 0
 2152 0018 B8309FE5 		ldr	r3, .L148
 2153 001c B8009FE5 		ldr	r0, .L148+4
 2154 0020 003080E5 		str	r3, [r0]
 962:D:/Work/DeviceTester/amazon-freertos/tests/common/ota\aws_test_ota_pal.c ****         TEST_ASSERT_EQUAL( kOTA_Err_None, xOtaStatus );
 2155              		.loc 1 962 0
 2156 0024 FEFFFFEB 		bl	prvPAL_CreateFileForRx
 2157              	.LVL213:
 963:D:/Work/DeviceTester/amazon-freertos/tests/common/ota\aws_test_ota_pal.c **** 
 2158              		.loc 1 963 0
 2159 0028 0020A0E3 		mov	r2, #0
 2160 002c 1430A0E3 		mov	r3, #20
 2161 0030 00308DE5 		str	r3, [sp]
 2162 0034 0010A0E1 		mov	r1, r0
 2163 0038 C33300E3 		movw	r3, #963
 2164 003c 0200A0E1 		mov	r0, r2
 2165              	.LVL214:
 2166 0040 FEFFFFEB 		bl	UnityAssertEqualNumber
 2167              	.LVL215:
 966:D:/Work/DeviceTester/amazon-freertos/tests/common/ota\aws_test_ota_pal.c ****         {
 2168              		.loc 1 966 0
 2169 0044 94009FE5 		ldr	r0, .L148+8
 2170 0048 FEFFFFEB 		bl	setjmp
 2171              	.LVL216:
 2172 004c 005050E2 		subs	r5, r0, #0
 2173 0050 1E00001A 		bne	.L144
 969:D:/Work/DeviceTester/amazon-freertos/tests/common/ota\aws_test_ota_pal.c ****                                             0,
 2174              		.loc 1 969 0
 2175 0054 80409FE5 		ldr	r4, .L148+4
 2176 0058 5430A0E3 		mov	r3, #84
 2177 005c 80209FE5 		ldr	r2, .L148+12
 2178 0060 0510A0E1 		mov	r1, r5
 2179 0064 0400A0E1 		mov	r0, r4
 2180 0068 FEFFFFEB 		bl	prvPAL_WriteBlock
 2181              	.LVL217:
 973:D:/Work/DeviceTester/amazon-freertos/tests/common/ota\aws_test_ota_pal.c **** 
 2182              		.loc 1 973 0
 2183 006c 1430A0E3 		mov	r3, #20
 2184 0070 0010A0E1 		mov	r1, r0
 2185 0074 00308DE5 		str	r3, [sp]
 2186 0078 0520A0E1 		mov	r2, r5
 2187 007c CD3300E3 		movw	r3, #973
 2188 0080 5400A0E3 		mov	r0, #84
 2189              	.LVL218:
 2190 0084 FEFFFFEB 		bl	UnityAssertEqualNumber
 2191              	.LVL219:
 976:D:/Work/DeviceTester/amazon-freertos/tests/common/ota\aws_test_ota_pal.c ****             xOtaFile.pxSignature->usSize = ucInvalidSignatureLength;
 2192              		.loc 1 976 0
 2193 0088 0C308DE2 		add	r3, sp, #12
 977:D:/Work/DeviceTester/amazon-freertos/tests/common/ota\aws_test_ota_pal.c ****             memcpy( xOtaFile.pxSignature->ucData, ucInvalidSignature, ucInvalidSignatureLength );
 2194              		.loc 1 977 0
 2195 008c 4620A0E3 		mov	r2, #70
 978:D:/Work/DeviceTester/amazon-freertos/tests/common/ota\aws_test_ota_pal.c ****             xOtaFile.pucCertFilepath = ( uint8_t * ) otatestpalCERTIFICATE_FILE;
 2196              		.loc 1 978 0
 2197 0090 50109FE5 		ldr	r1, .L148+16
 2198 0094 0E008DE2 		add	r0, sp, #14
 976:D:/Work/DeviceTester/amazon-freertos/tests/common/ota\aws_test_ota_pal.c ****             xOtaFile.pxSignature->usSize = ucInvalidSignatureLength;
 2199              		.loc 1 976 0
 2200 0098 283084E5 		str	r3, [r4, #40]
 977:D:/Work/DeviceTester/amazon-freertos/tests/common/ota\aws_test_ota_pal.c ****             memcpy( xOtaFile.pxSignature->ucData, ucInvalidSignature, ucInvalidSignatureLength );
 2201              		.loc 1 977 0
 2202 009c BC20CDE1 		strh	r2, [sp, #12]	@ movhi
 978:D:/Work/DeviceTester/amazon-freertos/tests/common/ota\aws_test_ota_pal.c ****             xOtaFile.pucCertFilepath = ( uint8_t * ) otatestpalCERTIFICATE_FILE;
 2203              		.loc 1 978 0
 2204 00a0 FEFFFFEB 		bl	memcpy
 2205              	.LVL220:
 979:D:/Work/DeviceTester/amazon-freertos/tests/common/ota\aws_test_ota_pal.c **** 
 2206              		.loc 1 979 0
 2207 00a4 40309FE5 		ldr	r3, .L148+20
 982:D:/Work/DeviceTester/amazon-freertos/tests/common/ota\aws_test_ota_pal.c **** 
 2208              		.loc 1 982 0
 2209 00a8 0400A0E1 		mov	r0, r4
 979:D:/Work/DeviceTester/amazon-freertos/tests/common/ota\aws_test_ota_pal.c **** 
 2210              		.loc 1 979 0
 2211 00ac 303084E5 		str	r3, [r4, #48]
 982:D:/Work/DeviceTester/amazon-freertos/tests/common/ota\aws_test_ota_pal.c **** 
 2212              		.loc 1 982 0
 2213 00b0 FEFFFFEB 		bl	test_prvPAL_CheckFileSignature
 2214              	.LVL221:
 984:D:/Work/DeviceTester/amazon-freertos/tests/common/ota\aws_test_ota_pal.c ****                 ( kOTA_Err_SignatureCheckFailed != ( xOtaStatus & ~kOTA_PAL_ErrMask ) ) )
 2215              		.loc 1 984 0
 2216 00b4 FF0400E2 		and	r0, r0, #-16777216
 2217              	.LVL222:
 2218 00b8 FF0480E2 		add	r0, r0, #-16777216
 2219 00bc FE0410E3 		tst	r0, #-33554432
 2220 00c0 0200000A 		beq	.L144
 987:D:/Work/DeviceTester/amazon-freertos/tests/common/ota\aws_test_ota_pal.c ****             }
 2221              		.loc 1 987 0 discriminator 1
 2222 00c4 DB1300E3 		movw	r1, #987
 2223 00c8 20009FE5 		ldr	r0, .L148+24
 2224 00cc FEFFFFEB 		bl	UnityFail
 2225              	.LVL223:
 2226              	.L144:
 990:D:/Work/DeviceTester/amazon-freertos/tests/common/ota\aws_test_ota_pal.c **** 
 2227              		.loc 1 990 0
 2228 00d0 45DF8DE2 		add	sp, sp, #276
 2229              		.cfi_def_cfa_offset 12
 2230              		@ sp needed
 2231 00d4 3080BDE8 		pop	{r4, r5, pc}
 2232              	.L149:
 2233              		.align	2
 2234              	.L148:
 2235 00d8 00000000 		.word	.LC1
 2236 00dc 00000000 		.word	.LANCHOR0
 2237 00e0 28000000 		.word	Unity+40
 2238 00e4 00000000 		.word	.LANCHOR1
 2239 00e8 00000000 		.word	.LANCHOR3
 2240 00ec 1A000000 		.word	.LC4
 2241 00f0 00000000 		.word	.LC5
 2242              		.cfi_endproc
 2243              	.LFE52:
 2245              		.section	.text.TEST_Full_OTA_PAL_prvPAL_CheckFileSignature_NonexistingCodeSignerCertificate_,"ax",
 2246              		.align	2
 2247              		.global	TEST_Full_OTA_PAL_prvPAL_CheckFileSignature_NonexistingCodeSignerCertificate_
 2248              		.syntax unified
 2249              		.arm
 2250              		.fpu neon
 2252              	TEST_Full_OTA_PAL_prvPAL_CheckFileSignature_NonexistingCodeSignerCertificate_:
 2253              	.LFB56:
1021:D:/Work/DeviceTester/amazon-freertos/tests/common/ota\aws_test_ota_pal.c **** 
1022:D:/Work/DeviceTester/amazon-freertos/tests/common/ota\aws_test_ota_pal.c ****     TEST( Full_OTA_PAL, prvPAL_CheckFileSignature_NonexistingCodeSignerCertificate )
1023:D:/Work/DeviceTester/amazon-freertos/tests/common/ota\aws_test_ota_pal.c ****     {
 2254              		.loc 1 1023 0
 2255              		.cfi_startproc
 2256              		@ args = 0, pretend = 0, frame = 264
 2257              		@ frame_needed = 0, uses_anonymous_args = 0
 2258 0000 30402DE9 		push	{r4, r5, lr}
 2259              		.cfi_def_cfa_offset 12
 2260              		.cfi_offset 4, -12
 2261              		.cfi_offset 5, -8
 2262              		.cfi_offset 14, -4
 2263 0004 45DF4DE2 		sub	sp, sp, #276
 2264              		.cfi_def_cfa_offset 288
1024:D:/Work/DeviceTester/amazon-freertos/tests/common/ota\aws_test_ota_pal.c ****         OTA_Err_t xOtaStatus;
1025:D:/Work/DeviceTester/amazon-freertos/tests/common/ota\aws_test_ota_pal.c ****         Sig256_t xSig = { 0 };
 2265              		.loc 1 1025 0
 2266 0008 022100E3 		movw	r2, #258
 2267 000c 0010A0E3 		mov	r1, #0
 2268 0010 0C008DE2 		add	r0, sp, #12
 2269 0014 FEFFFFEB 		bl	memset
 2270              	.LVL224:
1026:D:/Work/DeviceTester/amazon-freertos/tests/common/ota\aws_test_ota_pal.c **** 
1027:D:/Work/DeviceTester/amazon-freertos/tests/common/ota\aws_test_ota_pal.c ****         /* Create a local file using the PAL. */
1028:D:/Work/DeviceTester/amazon-freertos/tests/common/ota\aws_test_ota_pal.c ****         xOtaFile.pucFilePath = ( uint8_t * ) otatestpalFIRMWARE_FILE;
 2271              		.loc 1 1028 0
 2272 0018 B8309FE5 		ldr	r3, .L154
 2273 001c B8009FE5 		ldr	r0, .L154+4
 2274 0020 003080E5 		str	r3, [r0]
1029:D:/Work/DeviceTester/amazon-freertos/tests/common/ota\aws_test_ota_pal.c ****         xOtaStatus = prvPAL_CreateFileForRx( &xOtaFile );
 2275              		.loc 1 1029 0
 2276 0024 FEFFFFEB 		bl	prvPAL_CreateFileForRx
 2277              	.LVL225:
1030:D:/Work/DeviceTester/amazon-freertos/tests/common/ota\aws_test_ota_pal.c ****         TEST_ASSERT_EQUAL( kOTA_Err_None, xOtaStatus );
 2278              		.loc 1 1030 0
 2279 0028 0020A0E3 		mov	r2, #0
 2280 002c 1430A0E3 		mov	r3, #20
 2281 0030 00308DE5 		str	r3, [sp]
 2282 0034 0010A0E1 		mov	r1, r0
 2283 0038 063400E3 		movw	r3, #1030
 2284 003c 0200A0E1 		mov	r0, r2
 2285              	.LVL226:
 2286 0040 FEFFFFEB 		bl	UnityAssertEqualNumber
 2287              	.LVL227:
1031:D:/Work/DeviceTester/amazon-freertos/tests/common/ota\aws_test_ota_pal.c **** 
1032:D:/Work/DeviceTester/amazon-freertos/tests/common/ota\aws_test_ota_pal.c ****         /* We still want to close the file if the test fails. */
1033:D:/Work/DeviceTester/amazon-freertos/tests/common/ota\aws_test_ota_pal.c ****         if( TEST_PROTECT() )
 2288              		.loc 1 1033 0
 2289 0044 94009FE5 		ldr	r0, .L154+8
 2290 0048 FEFFFFEB 		bl	setjmp
 2291              	.LVL228:
 2292 004c 005050E2 		subs	r5, r0, #0
 2293 0050 1E00001A 		bne	.L150
1034:D:/Work/DeviceTester/amazon-freertos/tests/common/ota\aws_test_ota_pal.c ****         {
1035:D:/Work/DeviceTester/amazon-freertos/tests/common/ota\aws_test_ota_pal.c ****             /* Write data to the file. */
1036:D:/Work/DeviceTester/amazon-freertos/tests/common/ota\aws_test_ota_pal.c ****             xOtaStatus = prvPAL_WriteBlock( &xOtaFile,
 2294              		.loc 1 1036 0
 2295 0054 80409FE5 		ldr	r4, .L154+4
 2296 0058 5430A0E3 		mov	r3, #84
 2297 005c 80209FE5 		ldr	r2, .L154+12
 2298 0060 0510A0E1 		mov	r1, r5
 2299 0064 0400A0E1 		mov	r0, r4
 2300 0068 FEFFFFEB 		bl	prvPAL_WriteBlock
 2301              	.LVL229:
1037:D:/Work/DeviceTester/amazon-freertos/tests/common/ota\aws_test_ota_pal.c ****                                             0,
1038:D:/Work/DeviceTester/amazon-freertos/tests/common/ota\aws_test_ota_pal.c ****                                             ucDummyData,
1039:D:/Work/DeviceTester/amazon-freertos/tests/common/ota\aws_test_ota_pal.c ****                                             sizeof( ucDummyData ) );
1040:D:/Work/DeviceTester/amazon-freertos/tests/common/ota\aws_test_ota_pal.c ****             TEST_ASSERT_EQUAL( sizeof( ucDummyData ), xOtaStatus );
 2302              		.loc 1 1040 0
 2303 006c 1430A0E3 		mov	r3, #20
 2304 0070 0010A0E1 		mov	r1, r0
 2305 0074 00308DE5 		str	r3, [sp]
 2306 0078 0520A0E1 		mov	r2, r5
 2307 007c 413EA0E3 		mov	r3, #1040
 2308 0080 5400A0E3 		mov	r0, #84
 2309              	.LVL230:
 2310 0084 FEFFFFEB 		bl	UnityAssertEqualNumber
 2311              	.LVL231:
1041:D:/Work/DeviceTester/amazon-freertos/tests/common/ota\aws_test_ota_pal.c **** 
1042:D:/Work/DeviceTester/amazon-freertos/tests/common/ota\aws_test_ota_pal.c ****             /* Check the signature (not expected to be valid in this case). */
1043:D:/Work/DeviceTester/amazon-freertos/tests/common/ota\aws_test_ota_pal.c ****             xOtaFile.pxSignature = &xSig;
 2312              		.loc 1 1043 0
 2313 0088 0C308DE2 		add	r3, sp, #12
1044:D:/Work/DeviceTester/amazon-freertos/tests/common/ota\aws_test_ota_pal.c ****             xOtaFile.pxSignature->usSize = ucValidSignatureLength;
 2314              		.loc 1 1044 0
 2315 008c 4620A0E3 		mov	r2, #70
1045:D:/Work/DeviceTester/amazon-freertos/tests/common/ota\aws_test_ota_pal.c ****             memcpy( xOtaFile.pxSignature->ucData, ucValidSignature, ucValidSignatureLength );
 2316              		.loc 1 1045 0
 2317 0090 50109FE5 		ldr	r1, .L154+16
 2318 0094 0E008DE2 		add	r0, sp, #14
1043:D:/Work/DeviceTester/amazon-freertos/tests/common/ota\aws_test_ota_pal.c ****             xOtaFile.pxSignature->usSize = ucValidSignatureLength;
 2319              		.loc 1 1043 0
 2320 0098 283084E5 		str	r3, [r4, #40]
1044:D:/Work/DeviceTester/amazon-freertos/tests/common/ota\aws_test_ota_pal.c ****             xOtaFile.pxSignature->usSize = ucValidSignatureLength;
 2321              		.loc 1 1044 0
 2322 009c BC20CDE1 		strh	r2, [sp, #12]	@ movhi
 2323              		.loc 1 1045 0
 2324 00a0 FEFFFFEB 		bl	memcpy
 2325              	.LVL232:
1046:D:/Work/DeviceTester/amazon-freertos/tests/common/ota\aws_test_ota_pal.c ****             xOtaFile.pucCertFilepath = ( uint8_t * ) ( "nonexistingfile.crt" );
 2326              		.loc 1 1046 0
 2327 00a4 40309FE5 		ldr	r3, .L154+20
1047:D:/Work/DeviceTester/amazon-freertos/tests/common/ota\aws_test_ota_pal.c **** 
1048:D:/Work/DeviceTester/amazon-freertos/tests/common/ota\aws_test_ota_pal.c ****             xOtaStatus = test_prvPAL_CheckFileSignature( &xOtaFile );
 2328              		.loc 1 1048 0
 2329 00a8 0400A0E1 		mov	r0, r4
1046:D:/Work/DeviceTester/amazon-freertos/tests/common/ota\aws_test_ota_pal.c ****             xOtaFile.pucCertFilepath = ( uint8_t * ) ( "nonexistingfile.crt" );
 2330              		.loc 1 1046 0
 2331 00ac 303084E5 		str	r3, [r4, #48]
 2332              		.loc 1 1048 0
 2333 00b0 FEFFFFEB 		bl	test_prvPAL_CheckFileSignature
 2334              	.LVL233:
1049:D:/Work/DeviceTester/amazon-freertos/tests/common/ota\aws_test_ota_pal.c **** 
1050:D:/Work/DeviceTester/amazon-freertos/tests/common/ota\aws_test_ota_pal.c ****             if( ( kOTA_Err_BadSignerCert != ( xOtaStatus & ~kOTA_PAL_ErrMask ) ) &&
 2335              		.loc 1 1050 0
 2336 00b4 FF0400E2 		and	r0, r0, #-16777216
 2337              	.LVL234:
 2338 00b8 FF0480E2 		add	r0, r0, #-16777216
 2339 00bc FE0410E3 		tst	r0, #-33554432
 2340 00c0 0200000A 		beq	.L150
1051:D:/Work/DeviceTester/amazon-freertos/tests/common/ota\aws_test_ota_pal.c ****                 ( kOTA_Err_SignatureCheckFailed != ( xOtaStatus & ~kOTA_PAL_ErrMask ) ) )
1052:D:/Work/DeviceTester/amazon-freertos/tests/common/ota\aws_test_ota_pal.c ****             {
1053:D:/Work/DeviceTester/amazon-freertos/tests/common/ota\aws_test_ota_pal.c ****                 TEST_ASSERT_TRUE( 0 );
 2341              		.loc 1 1053 0 discriminator 1
 2342 00c4 1D1400E3 		movw	r1, #1053
 2343 00c8 20009FE5 		ldr	r0, .L154+24
 2344 00cc FEFFFFEB 		bl	UnityFail
 2345              	.LVL235:
 2346              	.L150:
1054:D:/Work/DeviceTester/amazon-freertos/tests/common/ota\aws_test_ota_pal.c ****             }
1055:D:/Work/DeviceTester/amazon-freertos/tests/common/ota\aws_test_ota_pal.c ****         }
1056:D:/Work/DeviceTester/amazon-freertos/tests/common/ota\aws_test_ota_pal.c ****     }
 2347              		.loc 1 1056 0
 2348 00d0 45DF8DE2 		add	sp, sp, #276
 2349              		.cfi_def_cfa_offset 12
 2350              		@ sp needed
 2351 00d4 3080BDE8 		pop	{r4, r5, pc}
 2352              	.L155:
 2353              		.align	2
 2354              	.L154:
 2355 00d8 00000000 		.word	.LC1
 2356 00dc 00000000 		.word	.LANCHOR0
 2357 00e0 28000000 		.word	Unity+40
 2358 00e4 00000000 		.word	.LANCHOR1
 2359 00e8 00000000 		.word	.LANCHOR2
 2360 00ec 00000000 		.word	.LC6
 2361 00f0 00000000 		.word	.LC5
 2362              		.cfi_endproc
 2363              	.LFE56:
 2365              		.section	.text.TEST_Full_OTA_PAL_prvPAL_CloseFile_ValidSignature_run,"ax",%progbits
 2366              		.align	2
 2367              		.global	TEST_Full_OTA_PAL_prvPAL_CloseFile_ValidSignature_run
 2368              		.syntax unified
 2369              		.arm
 2370              		.fpu neon
 2372              	TEST_Full_OTA_PAL_prvPAL_CloseFile_ValidSignature_run:
 2373              	.LFB4:
 213:D:/Work/DeviceTester/amazon-freertos/tests/common/ota\aws_test_ota_pal.c **** {
 2374              		.loc 1 213 0
 2375              		.cfi_startproc
 2376              		@ args = 0, pretend = 0, frame = 0
 2377              		@ frame_needed = 0, uses_anonymous_args = 0
 2378 0000 1F402DE9 		push	{r0, r1, r2, r3, r4, lr}
 2379              		.cfi_def_cfa_offset 24
 2380              		.cfi_offset 14, -4
 213:D:/Work/DeviceTester/amazon-freertos/tests/common/ota\aws_test_ota_pal.c **** {
 2381              		.loc 1 213 0
 2382 0004 D530A0E3 		mov	r3, #213
 2383 0008 0C308DE5 		str	r3, [sp, #12]
 2384 000c 2C309FE5 		ldr	r3, .L158
 2385 0010 2C209FE5 		ldr	r2, .L158+4
 2386 0014 2C109FE5 		ldr	r1, .L158+8
 2387 0018 08308DE5 		str	r3, [sp, #8]
 2388 001c 28309FE5 		ldr	r3, .L158+12
 2389 0020 28009FE5 		ldr	r0, .L158+16
 2390 0024 04308DE5 		str	r3, [sp, #4]
 2391 0028 24309FE5 		ldr	r3, .L158+20
 2392 002c 00308DE5 		str	r3, [sp]
 2393 0030 20309FE5 		ldr	r3, .L158+24
 2394 0034 FEFFFFEB 		bl	UnityTestRunner
 2395              	.LVL236:
 2396 0038 14D08DE2 		add	sp, sp, #20
 2397              		.cfi_def_cfa_offset 4
 2398              		@ sp needed
 2399 003c 04F09DE4 		ldr	pc, [sp], #4
 2400              	.L159:
 2401              		.align	2
 2402              	.L158:
 2403 0040 34000000 		.word	.LC11
 2404 0044 00000000 		.word	TEST_Full_OTA_PAL_TEAR_DOWN
 2405 0048 00000000 		.word	TEST_Full_OTA_PAL_prvPAL_CloseFile_ValidSignature_
 2406 004c 7D000000 		.word	.LC12
 2407 0050 00000000 		.word	TEST_Full_OTA_PAL_SETUP
 2408 0054 9D000000 		.word	.LC13
 2409 0058 00000000 		.word	.LC10
 2410              		.cfi_endproc
 2411              	.LFE4:
 2413              		.section	.text.prvImportCodeSigningCertificate,"ax",%progbits
 2414              		.align	2
 2415              		.global	prvImportCodeSigningCertificate
 2416              		.syntax unified
 2417              		.arm
 2418              		.fpu neon
 2420              	prvImportCodeSigningCertificate:
 2421              	.LFB6:
 253:D:/Work/DeviceTester/amazon-freertos/tests/common/ota\aws_test_ota_pal.c ****     /* Find the certificate */
 2422              		.loc 1 253 0
 2423              		.cfi_startproc
 2424              		@ args = 0, pretend = 0, frame = 24
 2425              		@ frame_needed = 0, uses_anonymous_args = 0
 2426              	.LVL237:
 2427 0000 F0402DE9 		push	{r4, r5, r6, r7, lr}
 2428              		.cfi_def_cfa_offset 20
 2429              		.cfi_offset 4, -20
 2430              		.cfi_offset 5, -16
 2431              		.cfi_offset 6, -12
 2432              		.cfi_offset 7, -8
 2433              		.cfi_offset 14, -4
 2434 0004 24D04DE2 		sub	sp, sp, #36
 2435              		.cfi_def_cfa_offset 56
 259:D:/Work/DeviceTester/amazon-freertos/tests/common/ota\aws_test_ota_pal.c ****     CK_SESSION_HANDLE xSession;
 2436              		.loc 1 259 0
 2437 0008 0130A0E3 		mov	r3, #1
 253:D:/Work/DeviceTester/amazon-freertos/tests/common/ota\aws_test_ota_pal.c ****     /* Find the certificate */
 2438              		.loc 1 253 0
 2439 000c 0040A0E1 		mov	r4, r0
 263:D:/Work/DeviceTester/amazon-freertos/tests/common/ota\aws_test_ota_pal.c **** 
 2440              		.loc 1 263 0
 2441 0010 10008DE2 		add	r0, sp, #16
 2442              	.LVL238:
 253:D:/Work/DeviceTester/amazon-freertos/tests/common/ota\aws_test_ota_pal.c ****     /* Find the certificate */
 2443              		.loc 1 253 0
 2444 0014 0150A0E1 		mov	r5, r1
 259:D:/Work/DeviceTester/amazon-freertos/tests/common/ota\aws_test_ota_pal.c ****     CK_SESSION_HANDLE xSession;
 2445              		.loc 1 259 0
 2446 0018 18308DE5 		str	r3, [sp, #24]
 2447              	.LVL239:
 253:D:/Work/DeviceTester/amazon-freertos/tests/common/ota\aws_test_ota_pal.c ****     /* Find the certificate */
 2448              		.loc 1 253 0
 2449 001c 0260A0E1 		mov	r6, r2
 263:D:/Work/DeviceTester/amazon-freertos/tests/common/ota\aws_test_ota_pal.c **** 
 2450              		.loc 1 263 0
 2451 0020 FEFFFFEB 		bl	C_GetFunctionList
 2452              	.LVL240:
 265:D:/Work/DeviceTester/amazon-freertos/tests/common/ota\aws_test_ota_pal.c ****     {
 2453              		.loc 1 265 0
 2454 0024 003050E2 		subs	r3, r0, #0
 2455 0028 0300001A 		bne	.L161
 267:D:/Work/DeviceTester/amazon-freertos/tests/common/ota\aws_test_ota_pal.c ****     }
 2456              		.loc 1 267 0
 2457 002c 10309DE5 		ldr	r3, [sp, #16]
 2458 0030 043093E5 		ldr	r3, [r3, #4]
 2459 0034 33FF2FE1 		blx	r3
 2460              	.LVL241:
 2461 0038 0030A0E1 		mov	r3, r0
 2462              	.LVL242:
 2463              	.L161:
 270:D:/Work/DeviceTester/amazon-freertos/tests/common/ota\aws_test_ota_pal.c ****     {
 2464              		.loc 1 270 0
 2465 003c 912100E3 		movw	r2, #401
 2466 0040 020053E1 		cmp	r3, r2
 2467 0044 00005313 		cmpne	r3, #0
 2468 0048 1D00001A 		bne	.L160
 272:D:/Work/DeviceTester/amazon-freertos/tests/common/ota\aws_test_ota_pal.c ****     }
 2469              		.loc 1 272 0
 2470 004c 10309DE5 		ldr	r3, [sp, #16]
 2471 0050 18208DE2 		add	r2, sp, #24
 2472 0054 14108DE2 		add	r1, sp, #20
 2473 0058 0100A0E3 		mov	r0, #1
 2474              	.LVL243:
 2475 005c 143093E5 		ldr	r3, [r3, #20]
 2476 0060 33FF2FE1 		blx	r3
 2477              	.LVL244:
 275:D:/Work/DeviceTester/amazon-freertos/tests/common/ota\aws_test_ota_pal.c ****     {
 2478              		.loc 1 275 0
 2479 0064 003050E2 		subs	r3, r0, #0
 2480 0068 1500001A 		bne	.L160
 277:D:/Work/DeviceTester/amazon-freertos/tests/common/ota\aws_test_ota_pal.c ****     }
 2481              		.loc 1 277 0
 2482 006c 1C208DE2 		add	r2, sp, #28
 2483 0070 0410A0E3 		mov	r1, #4
 2484 0074 00208DE5 		str	r2, [sp]
 2485 0078 10209DE5 		ldr	r2, [sp, #16]
 2486 007c 14009DE5 		ldr	r0, [sp, #20]
 2487              	.LVL245:
 2488 0080 347092E5 		ldr	r7, [r2, #52]
 2489 0084 0320A0E1 		mov	r2, r3
 2490 0088 37FF2FE1 		blx	r7
 2491              	.LVL246:
 280:D:/Work/DeviceTester/amazon-freertos/tests/common/ota\aws_test_ota_pal.c ****     {
 2492              		.loc 1 280 0
 2493 008c 003050E2 		subs	r3, r0, #0
 2494 0090 0B00001A 		bne	.L160
 2495              	.LVL247:
 283:D:/Work/DeviceTester/amazon-freertos/tests/common/ota\aws_test_ota_pal.c ****                                          ( uint8_t * ) pucCertificate,
 2496              		.loc 1 283 0
 2497 0094 0C308DE2 		add	r3, sp, #12
 2498 0098 0520A0E1 		mov	r2, r5
 2499 009c 00308DE5 		str	r3, [sp]
 2500 00a0 0410A0E1 		mov	r1, r4
 2501 00a4 0630A0E1 		mov	r3, r6
 2502 00a8 1C009DE5 		ldr	r0, [sp, #28]
 2503              	.LVL248:
 2504 00ac FEFFFFEB 		bl	xProvisionCertificate
 2505              	.LVL249:
 292:D:/Work/DeviceTester/amazon-freertos/tests/common/ota\aws_test_ota_pal.c ****     }
 2506              		.loc 1 292 0
 2507 00b0 10309DE5 		ldr	r3, [sp, #16]
 2508 00b4 1C009DE5 		ldr	r0, [sp, #28]
 2509 00b8 383093E5 		ldr	r3, [r3, #56]
 2510 00bc 33FF2FE1 		blx	r3
 2511              	.LVL250:
 2512 00c0 0030A0E1 		mov	r3, r0
 2513              	.LVL251:
 2514              	.L160:
 296:D:/Work/DeviceTester/amazon-freertos/tests/common/ota\aws_test_ota_pal.c **** 
 2515              		.loc 1 296 0
 2516 00c4 0300A0E1 		mov	r0, r3
 2517              	.LVL252:
 2518 00c8 24D08DE2 		add	sp, sp, #36
 2519              		.cfi_def_cfa_offset 20
 2520              		@ sp needed
 2521 00cc F080BDE8 		pop	{r4, r5, r6, r7, pc}
 2522              		.cfi_endproc
 2523              	.LFE6:
 2525              		.section	.text.TEST_Full_OTA_PAL_prvPAL_CloseFile_ValidSignatureKeyInFlash_,"ax",%progbits
 2526              		.align	2
 2527              		.global	TEST_Full_OTA_PAL_prvPAL_CloseFile_ValidSignatureKeyInFlash_
 2528              		.syntax unified
 2529              		.arm
 2530              		.fpu neon
 2532              	TEST_Full_OTA_PAL_prvPAL_CloseFile_ValidSignatureKeyInFlash_:
 2533              	.LFB8:
 304:D:/Work/DeviceTester/amazon-freertos/tests/common/ota\aws_test_ota_pal.c ****     OTA_Err_t xOtaStatus;
 2534              		.loc 1 304 0
 2535              		.cfi_startproc
 2536              		@ args = 0, pretend = 0, frame = 264
 2537              		@ frame_needed = 0, uses_anonymous_args = 0
 2538 0000 70402DE9 		push	{r4, r5, r6, lr}
 2539              		.cfi_def_cfa_offset 16
 2540              		.cfi_offset 4, -16
 2541              		.cfi_offset 5, -12
 2542              		.cfi_offset 6, -8
 2543              		.cfi_offset 14, -4
 2544 0004 11DE4DE2 		sub	sp, sp, #272
 2545              		.cfi_def_cfa_offset 288
 306:D:/Work/DeviceTester/amazon-freertos/tests/common/ota\aws_test_ota_pal.c ****     CK_RV xResult;
 2546              		.loc 1 306 0
 2547 0008 022100E3 		movw	r2, #258
 2548 000c 0010A0E3 		mov	r1, #0
 2549 0010 0C008DE2 		add	r0, sp, #12
 313:D:/Work/DeviceTester/amazon-freertos/tests/common/ota\aws_test_ota_pal.c **** 
 2550              		.loc 1 313 0
 2551 0014 1440A0E3 		mov	r4, #20
 306:D:/Work/DeviceTester/amazon-freertos/tests/common/ota\aws_test_ota_pal.c ****     CK_RV xResult;
 2552              		.loc 1 306 0
 2553 0018 FEFFFFEB 		bl	memset
 2554              	.LVL253:
 310:D:/Work/DeviceTester/amazon-freertos/tests/common/ota\aws_test_ota_pal.c ****                                                sizeof( signingcredentialSIGNING_CERTIFICATE_PEM ),
 2555              		.loc 1 310 0
 2556 001c D8209FE5 		ldr	r2, .L171
 2557 0020 E11FA0E3 		mov	r1, #900
 2558 0024 D4009FE5 		ldr	r0, .L171+4
 2559 0028 FEFFFFEB 		bl	prvImportCodeSigningCertificate
 2560              	.LVL254:
 313:D:/Work/DeviceTester/amazon-freertos/tests/common/ota\aws_test_ota_pal.c **** 
 2561              		.loc 1 313 0
 2562 002c 0020A0E3 		mov	r2, #0
 2563 0030 0010A0E1 		mov	r1, r0
 2564 0034 00408DE5 		str	r4, [sp]
 2565 0038 0200A0E1 		mov	r0, r2
 2566              	.LVL255:
 2567 003c 393100E3 		movw	r3, #313
 2568 0040 FEFFFFEB 		bl	UnityAssertEqualNumber
 2569              	.LVL256:
 318:D:/Work/DeviceTester/amazon-freertos/tests/common/ota\aws_test_ota_pal.c ****     xOtaStatus = prvPAL_CreateFileForRx( &xOtaFile );
 2570              		.loc 1 318 0
 2571 0044 B8309FE5 		ldr	r3, .L171+8
 2572 0048 B8009FE5 		ldr	r0, .L171+12
 2573 004c 003080E5 		str	r3, [r0]
 319:D:/Work/DeviceTester/amazon-freertos/tests/common/ota\aws_test_ota_pal.c ****     TEST_ASSERT_EQUAL( kOTA_Err_None, xOtaStatus );
 2574              		.loc 1 319 0
 2575 0050 FEFFFFEB 		bl	prvPAL_CreateFileForRx
 2576              	.LVL257:
 320:D:/Work/DeviceTester/amazon-freertos/tests/common/ota\aws_test_ota_pal.c **** 
 2577              		.loc 1 320 0
 2578 0054 0020A0E3 		mov	r2, #0
 2579 0058 0010A0E1 		mov	r1, r0
 2580 005c 00408DE5 		str	r4, [sp]
 2581 0060 0200A0E1 		mov	r0, r2
 2582              	.LVL258:
 2583 0064 053DA0E3 		mov	r3, #320
 2584 0068 FEFFFFEB 		bl	UnityAssertEqualNumber
 2585              	.LVL259:
 323:D:/Work/DeviceTester/amazon-freertos/tests/common/ota\aws_test_ota_pal.c ****     {
 2586              		.loc 1 323 0
 2587 006c 98009FE5 		ldr	r0, .L171+16
 2588 0070 FEFFFFEB 		bl	setjmp
 2589              	.LVL260:
 2590 0074 005050E2 		subs	r5, r0, #0
 2591 0078 1D00001A 		bne	.L167
 326:D:/Work/DeviceTester/amazon-freertos/tests/common/ota\aws_test_ota_pal.c ****                                         0,
 2592              		.loc 1 326 0
 2593 007c 84409FE5 		ldr	r4, .L171+12
 2594 0080 5430A0E3 		mov	r3, #84
 2595 0084 84209FE5 		ldr	r2, .L171+20
 2596 0088 0510A0E1 		mov	r1, r5
 330:D:/Work/DeviceTester/amazon-freertos/tests/common/ota\aws_test_ota_pal.c **** 
 2597              		.loc 1 330 0
 2598 008c 1460A0E3 		mov	r6, #20
 326:D:/Work/DeviceTester/amazon-freertos/tests/common/ota\aws_test_ota_pal.c ****                                         0,
 2599              		.loc 1 326 0
 2600 0090 0400A0E1 		mov	r0, r4
 2601 0094 FEFFFFEB 		bl	prvPAL_WriteBlock
 2602              	.LVL261:
 330:D:/Work/DeviceTester/amazon-freertos/tests/common/ota\aws_test_ota_pal.c **** 
 2603              		.loc 1 330 0
 2604 0098 4A3100E3 		movw	r3, #330
 2605 009c 0010A0E1 		mov	r1, r0
 2606 00a0 0520A0E1 		mov	r2, r5
 2607 00a4 5400A0E3 		mov	r0, #84
 2608              	.LVL262:
 2609 00a8 00608DE5 		str	r6, [sp]
 2610 00ac FEFFFFEB 		bl	UnityAssertEqualNumber
 2611              	.LVL263:
 333:D:/Work/DeviceTester/amazon-freertos/tests/common/ota\aws_test_ota_pal.c ****         memcpy( xOtaFile.pxSignature->ucData, ucValidSignature, ucValidSignatureLength );
 2612              		.loc 1 333 0
 2613 00b0 4620A0E3 		mov	r2, #70
 332:D:/Work/DeviceTester/amazon-freertos/tests/common/ota\aws_test_ota_pal.c ****         xOtaFile.pxSignature->usSize = ucValidSignatureLength;
 2614              		.loc 1 332 0
 2615 00b4 0C308DE2 		add	r3, sp, #12
 334:D:/Work/DeviceTester/amazon-freertos/tests/common/ota\aws_test_ota_pal.c ****         /* The PKCS #11 label is used to retrieve the code signing certificate. */
 2616              		.loc 1 334 0
 2617 00b8 54109FE5 		ldr	r1, .L171+24
 2618 00bc 0E008DE2 		add	r0, sp, #14
 333:D:/Work/DeviceTester/amazon-freertos/tests/common/ota\aws_test_ota_pal.c ****         memcpy( xOtaFile.pxSignature->ucData, ucValidSignature, ucValidSignatureLength );
 2619              		.loc 1 333 0
 2620 00c0 BC20CDE1 		strh	r2, [sp, #12]	@ movhi
 332:D:/Work/DeviceTester/amazon-freertos/tests/common/ota\aws_test_ota_pal.c ****         xOtaFile.pxSignature->usSize = ucValidSignatureLength;
 2621              		.loc 1 332 0
 2622 00c4 283084E5 		str	r3, [r4, #40]
 334:D:/Work/DeviceTester/amazon-freertos/tests/common/ota\aws_test_ota_pal.c ****         /* The PKCS #11 label is used to retrieve the code signing certificate. */
 2623              		.loc 1 334 0
 2624 00c8 FEFFFFEB 		bl	memcpy
 2625              	.LVL264:
 336:D:/Work/DeviceTester/amazon-freertos/tests/common/ota\aws_test_ota_pal.c **** 
 2626              		.loc 1 336 0
 2627 00cc 28309FE5 		ldr	r3, .L171
 338:D:/Work/DeviceTester/amazon-freertos/tests/common/ota\aws_test_ota_pal.c ****         TEST_ASSERT_EQUAL_INT( kOTA_Err_None, xOtaStatus );
 2628              		.loc 1 338 0
 2629 00d0 0400A0E1 		mov	r0, r4
 336:D:/Work/DeviceTester/amazon-freertos/tests/common/ota\aws_test_ota_pal.c **** 
 2630              		.loc 1 336 0
 2631 00d4 303084E5 		str	r3, [r4, #48]
 338:D:/Work/DeviceTester/amazon-freertos/tests/common/ota\aws_test_ota_pal.c ****         TEST_ASSERT_EQUAL_INT( kOTA_Err_None, xOtaStatus );
 2632              		.loc 1 338 0
 2633 00d8 FEFFFFEB 		bl	prvPAL_CloseFile
 2634              	.LVL265:
 339:D:/Work/DeviceTester/amazon-freertos/tests/common/ota\aws_test_ota_pal.c ****     }
 2635              		.loc 1 339 0
 2636 00dc 00608DE5 		str	r6, [sp]
 2637 00e0 0010A0E1 		mov	r1, r0
 2638 00e4 533100E3 		movw	r3, #339
 2639 00e8 0520A0E1 		mov	r2, r5
 2640 00ec 0500A0E1 		mov	r0, r5
 2641              	.LVL266:
 2642 00f0 FEFFFFEB 		bl	UnityAssertEqualNumber
 2643              	.LVL267:
 2644              	.L167:
 341:D:/Work/DeviceTester/amazon-freertos/tests/common/ota\aws_test_ota_pal.c **** 
 2645              		.loc 1 341 0
 2646 00f4 11DE8DE2 		add	sp, sp, #272
 2647              		.cfi_def_cfa_offset 16
 2648              		@ sp needed
 2649 00f8 7080BDE8 		pop	{r4, r5, r6, pc}
 2650              	.L172:
 2651              		.align	2
 2652              	.L171:
 2653 00fc 00000000 		.word	.LC14
 2654 0100 00000000 		.word	.LANCHOR4
 2655 0104 00000000 		.word	.LC3
 2656 0108 00000000 		.word	.LANCHOR0
 2657 010c 28000000 		.word	Unity+40
 2658 0110 00000000 		.word	.LANCHOR1
 2659 0114 00000000 		.word	.LANCHOR2
 2660              		.cfi_endproc
 2661              	.LFE8:
 2663              		.section	.text.TEST_Full_OTA_PAL_prvPAL_CloseFile_ValidSignatureKeyInFlash_run,"ax",%progbits
 2664              		.align	2
 2665              		.global	TEST_Full_OTA_PAL_prvPAL_CloseFile_ValidSignatureKeyInFlash_run
 2666              		.syntax unified
 2667              		.arm
 2668              		.fpu neon
 2670              	TEST_Full_OTA_PAL_prvPAL_CloseFile_ValidSignatureKeyInFlash_run:
 2671              	.LFB7:
 303:D:/Work/DeviceTester/amazon-freertos/tests/common/ota\aws_test_ota_pal.c **** {
 2672              		.loc 1 303 0
 2673              		.cfi_startproc
 2674              		@ args = 0, pretend = 0, frame = 0
 2675              		@ frame_needed = 0, uses_anonymous_args = 0
 2676 0000 1F402DE9 		push	{r0, r1, r2, r3, r4, lr}
 2677              		.cfi_def_cfa_offset 24
 2678              		.cfi_offset 14, -4
 303:D:/Work/DeviceTester/amazon-freertos/tests/common/ota\aws_test_ota_pal.c **** {
 2679              		.loc 1 303 0
 2680 0004 2F3100E3 		movw	r3, #303
 2681 0008 0C308DE5 		str	r3, [sp, #12]
 2682 000c 2C309FE5 		ldr	r3, .L175
 2683 0010 2C209FE5 		ldr	r2, .L175+4
 2684 0014 2C109FE5 		ldr	r1, .L175+8
 2685 0018 08308DE5 		str	r3, [sp, #8]
 2686 001c 28309FE5 		ldr	r3, .L175+12
 2687 0020 28009FE5 		ldr	r0, .L175+16
 2688 0024 04308DE5 		str	r3, [sp, #4]
 2689 0028 24309FE5 		ldr	r3, .L175+20
 2690 002c 00308DE5 		str	r3, [sp]
 2691 0030 20309FE5 		ldr	r3, .L175+24
 2692 0034 FEFFFFEB 		bl	UnityTestRunner
 2693              	.LVL268:
 2694 0038 14D08DE2 		add	sp, sp, #20
 2695              		.cfi_def_cfa_offset 4
 2696              		@ sp needed
 2697 003c 04F09DE4 		ldr	pc, [sp], #4
 2698              	.L176:
 2699              		.align	2
 2700              	.L175:
 2701 0040 34000000 		.word	.LC11
 2702 0044 00000000 		.word	TEST_Full_OTA_PAL_TEAR_DOWN
 2703 0048 00000000 		.word	TEST_Full_OTA_PAL_prvPAL_CloseFile_ValidSignatureKeyInFlash_
 2704 004c 3E000000 		.word	.LC16
 2705 0050 00000000 		.word	TEST_Full_OTA_PAL_SETUP
 2706 0054 9D000000 		.word	.LC13
 2707 0058 00000000 		.word	.LC15
 2708              		.cfi_endproc
 2709              	.LFE7:
 2711              		.section	.text.TEST_Full_OTA_PAL_prvPAL_CloseFile_InvalidSignatureBlockWritten_run,"ax",%progbits
 2712              		.align	2
 2713              		.global	TEST_Full_OTA_PAL_prvPAL_CloseFile_InvalidSignatureBlockWritten_run
 2714              		.syntax unified
 2715              		.arm
 2716              		.fpu neon
 2718              	TEST_Full_OTA_PAL_prvPAL_CloseFile_InvalidSignatureBlockWritten_run:
 2719              	.LFB9:
 349:D:/Work/DeviceTester/amazon-freertos/tests/common/ota\aws_test_ota_pal.c **** {
 2720              		.loc 1 349 0
 2721              		.cfi_startproc
 2722              		@ args = 0, pretend = 0, frame = 0
 2723              		@ frame_needed = 0, uses_anonymous_args = 0
 2724 0000 1F402DE9 		push	{r0, r1, r2, r3, r4, lr}
 2725              		.cfi_def_cfa_offset 24
 2726              		.cfi_offset 14, -4
 349:D:/Work/DeviceTester/amazon-freertos/tests/common/ota\aws_test_ota_pal.c **** {
 2727              		.loc 1 349 0
 2728 0004 5D3100E3 		movw	r3, #349
 2729 0008 0C308DE5 		str	r3, [sp, #12]
 2730 000c 2C309FE5 		ldr	r3, .L179
 2731 0010 2C209FE5 		ldr	r2, .L179+4
 2732 0014 2C109FE5 		ldr	r1, .L179+8
 2733 0018 08308DE5 		str	r3, [sp, #8]
 2734 001c 28309FE5 		ldr	r3, .L179+12
 2735 0020 28009FE5 		ldr	r0, .L179+16
 2736 0024 04308DE5 		str	r3, [sp, #4]
 2737 0028 24309FE5 		ldr	r3, .L179+20
 2738 002c 00308DE5 		str	r3, [sp]
 2739 0030 20309FE5 		ldr	r3, .L179+24
 2740 0034 FEFFFFEB 		bl	UnityTestRunner
 2741              	.LVL269:
 2742 0038 14D08DE2 		add	sp, sp, #20
 2743              		.cfi_def_cfa_offset 4
 2744              		@ sp needed
 2745 003c 04F09DE4 		ldr	pc, [sp], #4
 2746              	.L180:
 2747              		.align	2
 2748              	.L179:
 2749 0040 34000000 		.word	.LC11
 2750 0044 00000000 		.word	TEST_Full_OTA_PAL_TEAR_DOWN
 2751 0048 00000000 		.word	TEST_Full_OTA_PAL_prvPAL_CloseFile_InvalidSignatureBlockWritten_
 2752 004c 42000000 		.word	.LC18
 2753 0050 00000000 		.word	TEST_Full_OTA_PAL_SETUP
 2754 0054 9D000000 		.word	.LC13
 2755 0058 00000000 		.word	.LC17
 2756              		.cfi_endproc
 2757              	.LFE9:
 2759              		.section	.text.TEST_Full_OTA_PAL_prvPAL_CloseFile_InvalidSignatureNoBlockWritten_run,"ax",%progbit
 2760              		.align	2
 2761              		.global	TEST_Full_OTA_PAL_prvPAL_CloseFile_InvalidSignatureNoBlockWritten_run
 2762              		.syntax unified
 2763              		.arm
 2764              		.fpu neon
 2766              	TEST_Full_OTA_PAL_prvPAL_CloseFile_InvalidSignatureNoBlockWritten_run:
 2767              	.LFB11:
 392:D:/Work/DeviceTester/amazon-freertos/tests/common/ota\aws_test_ota_pal.c **** {
 2768              		.loc 1 392 0
 2769              		.cfi_startproc
 2770              		@ args = 0, pretend = 0, frame = 0
 2771              		@ frame_needed = 0, uses_anonymous_args = 0
 2772 0000 1F402DE9 		push	{r0, r1, r2, r3, r4, lr}
 2773              		.cfi_def_cfa_offset 24
 2774              		.cfi_offset 14, -4
 392:D:/Work/DeviceTester/amazon-freertos/tests/common/ota\aws_test_ota_pal.c **** {
 2775              		.loc 1 392 0
 2776 0004 623FA0E3 		mov	r3, #392
 2777 0008 0C308DE5 		str	r3, [sp, #12]
 2778 000c 2C309FE5 		ldr	r3, .L183
 2779 0010 2C209FE5 		ldr	r2, .L183+4
 2780 0014 2C109FE5 		ldr	r1, .L183+8
 2781 0018 08308DE5 		str	r3, [sp, #8]
 2782 001c 28309FE5 		ldr	r3, .L183+12
 2783 0020 28009FE5 		ldr	r0, .L183+16
 2784 0024 04308DE5 		str	r3, [sp, #4]
 2785 0028 24309FE5 		ldr	r3, .L183+20
 2786 002c 00308DE5 		str	r3, [sp]
 2787 0030 20309FE5 		ldr	r3, .L183+24
 2788 0034 FEFFFFEB 		bl	UnityTestRunner
 2789              	.LVL270:
 2790 0038 14D08DE2 		add	sp, sp, #20
 2791              		.cfi_def_cfa_offset 4
 2792              		@ sp needed
 2793 003c 04F09DE4 		ldr	pc, [sp], #4
 2794              	.L184:
 2795              		.align	2
 2796              	.L183:
 2797 0040 34000000 		.word	.LC11
 2798 0044 00000000 		.word	TEST_Full_OTA_PAL_TEAR_DOWN
 2799 0048 00000000 		.word	TEST_Full_OTA_PAL_prvPAL_CloseFile_InvalidSignatureNoBlockWritten_
 2800 004c 44000000 		.word	.LC20
 2801 0050 00000000 		.word	TEST_Full_OTA_PAL_SETUP
 2802 0054 9D000000 		.word	.LC13
 2803 0058 00000000 		.word	.LC19
 2804              		.cfi_endproc
 2805              	.LFE11:
 2807              		.section	.text.TEST_Full_OTA_PAL_prvPAL_CloseFile_NonexistingCodeSignerCertificate_run,"ax",%progb
 2808              		.align	2
 2809              		.global	TEST_Full_OTA_PAL_prvPAL_CloseFile_NonexistingCodeSignerCertificate_run
 2810              		.syntax unified
 2811              		.arm
 2812              		.fpu neon
 2814              	TEST_Full_OTA_PAL_prvPAL_CloseFile_NonexistingCodeSignerCertificate_run:
 2815              	.LFB13:
 432:D:/Work/DeviceTester/amazon-freertos/tests/common/ota\aws_test_ota_pal.c **** {
 2816              		.loc 1 432 0
 2817              		.cfi_startproc
 2818              		@ args = 0, pretend = 0, frame = 0
 2819              		@ frame_needed = 0, uses_anonymous_args = 0
 2820 0000 1F402DE9 		push	{r0, r1, r2, r3, r4, lr}
 2821              		.cfi_def_cfa_offset 24
 2822              		.cfi_offset 14, -4
 432:D:/Work/DeviceTester/amazon-freertos/tests/common/ota\aws_test_ota_pal.c **** {
 2823              		.loc 1 432 0
 2824 0004 1B3EA0E3 		mov	r3, #432
 2825 0008 0C308DE5 		str	r3, [sp, #12]
 2826 000c 2C309FE5 		ldr	r3, .L187
 2827 0010 2C209FE5 		ldr	r2, .L187+4
 2828 0014 2C109FE5 		ldr	r1, .L187+8
 2829 0018 08308DE5 		str	r3, [sp, #8]
 2830 001c 28309FE5 		ldr	r3, .L187+12
 2831 0020 28009FE5 		ldr	r0, .L187+16
 2832 0024 04308DE5 		str	r3, [sp, #4]
 2833 0028 24309FE5 		ldr	r3, .L187+20
 2834 002c 00308DE5 		str	r3, [sp]
 2835 0030 20309FE5 		ldr	r3, .L187+24
 2836 0034 FEFFFFEB 		bl	UnityTestRunner
 2837              	.LVL271:
 2838 0038 14D08DE2 		add	sp, sp, #20
 2839              		.cfi_def_cfa_offset 4
 2840              		@ sp needed
 2841 003c 04F09DE4 		ldr	pc, [sp], #4
 2842              	.L188:
 2843              		.align	2
 2844              	.L187:
 2845 0040 34000000 		.word	.LC11
 2846 0044 00000000 		.word	TEST_Full_OTA_PAL_TEAR_DOWN
 2847 0048 00000000 		.word	TEST_Full_OTA_PAL_prvPAL_CloseFile_NonexistingCodeSignerCertificate_
 2848 004c 46000000 		.word	.LC22
 2849 0050 00000000 		.word	TEST_Full_OTA_PAL_SETUP
 2850 0054 9D000000 		.word	.LC13
 2851 0058 00000000 		.word	.LC21
 2852              		.cfi_endproc
 2853              	.LFE13:
 2855              		.section	.text.TEST_Full_OTA_PAL_prvPAL_CreateFileForRx_CreateAnyFile_run,"ax",%progbits
 2856              		.align	2
 2857              		.global	TEST_Full_OTA_PAL_prvPAL_CreateFileForRx_CreateAnyFile_run
 2858              		.syntax unified
 2859              		.arm
 2860              		.fpu neon
 2862              	TEST_Full_OTA_PAL_prvPAL_CreateFileForRx_CreateAnyFile_run:
 2863              	.LFB15:
 474:D:/Work/DeviceTester/amazon-freertos/tests/common/ota\aws_test_ota_pal.c **** {
 2864              		.loc 1 474 0
 2865              		.cfi_startproc
 2866              		@ args = 0, pretend = 0, frame = 0
 2867              		@ frame_needed = 0, uses_anonymous_args = 0
 2868 0000 1F402DE9 		push	{r0, r1, r2, r3, r4, lr}
 2869              		.cfi_def_cfa_offset 24
 2870              		.cfi_offset 14, -4
 474:D:/Work/DeviceTester/amazon-freertos/tests/common/ota\aws_test_ota_pal.c **** {
 2871              		.loc 1 474 0
 2872 0004 DA3100E3 		movw	r3, #474
 2873 0008 0C308DE5 		str	r3, [sp, #12]
 2874 000c 2C309FE5 		ldr	r3, .L191
 2875 0010 2C209FE5 		ldr	r2, .L191+4
 2876 0014 2C109FE5 		ldr	r1, .L191+8
 2877 0018 08308DE5 		str	r3, [sp, #8]
 2878 001c 28309FE5 		ldr	r3, .L191+12
 2879 0020 28009FE5 		ldr	r0, .L191+16
 2880 0024 04308DE5 		str	r3, [sp, #4]
 2881 0028 24309FE5 		ldr	r3, .L191+20
 2882 002c 00308DE5 		str	r3, [sp]
 2883 0030 20309FE5 		ldr	r3, .L191+24
 2884 0034 FEFFFFEB 		bl	UnityTestRunner
 2885              	.LVL272:
 2886 0038 14D08DE2 		add	sp, sp, #20
 2887              		.cfi_def_cfa_offset 4
 2888              		@ sp needed
 2889 003c 04F09DE4 		ldr	pc, [sp], #4
 2890              	.L192:
 2891              		.align	2
 2892              	.L191:
 2893 0040 34000000 		.word	.LC11
 2894 0044 00000000 		.word	TEST_Full_OTA_PAL_TEAR_DOWN
 2895 0048 00000000 		.word	TEST_Full_OTA_PAL_prvPAL_CreateFileForRx_CreateAnyFile_
 2896 004c 39000000 		.word	.LC24
 2897 0050 00000000 		.word	TEST_Full_OTA_PAL_SETUP
 2898 0054 9D000000 		.word	.LC13
 2899 0058 00000000 		.word	.LC23
 2900              		.cfi_endproc
 2901              	.LFE15:
 2903              		.section	.text.TEST_Full_OTA_PAL_prvPAL_Abort_OpenFile_run,"ax",%progbits
 2904              		.align	2
 2905              		.global	TEST_Full_OTA_PAL_prvPAL_Abort_OpenFile_run
 2906              		.syntax unified
 2907              		.arm
 2908              		.fpu neon
 2910              	TEST_Full_OTA_PAL_prvPAL_Abort_OpenFile_run:
 2911              	.LFB17:
 489:D:/Work/DeviceTester/amazon-freertos/tests/common/ota\aws_test_ota_pal.c **** {
 2912              		.loc 1 489 0
 2913              		.cfi_startproc
 2914              		@ args = 0, pretend = 0, frame = 0
 2915              		@ frame_needed = 0, uses_anonymous_args = 0
 2916 0000 1F402DE9 		push	{r0, r1, r2, r3, r4, lr}
 2917              		.cfi_def_cfa_offset 24
 2918              		.cfi_offset 14, -4
 489:D:/Work/DeviceTester/amazon-freertos/tests/common/ota\aws_test_ota_pal.c **** {
 2919              		.loc 1 489 0
 2920 0004 E93100E3 		movw	r3, #489
 2921 0008 0C308DE5 		str	r3, [sp, #12]
 2922 000c 2C309FE5 		ldr	r3, .L195
 2923 0010 2C209FE5 		ldr	r2, .L195+4
 2924 0014 2C109FE5 		ldr	r1, .L195+8
 2925 0018 08308DE5 		str	r3, [sp, #8]
 2926 001c 28309FE5 		ldr	r3, .L195+12
 2927 0020 28009FE5 		ldr	r0, .L195+16
 2928 0024 04308DE5 		str	r3, [sp, #4]
 2929 0028 24309FE5 		ldr	r3, .L195+20
 2930 002c 00308DE5 		str	r3, [sp]
 2931 0030 20309FE5 		ldr	r3, .L195+24
 2932 0034 FEFFFFEB 		bl	UnityTestRunner
 2933              	.LVL273:
 2934 0038 14D08DE2 		add	sp, sp, #20
 2935              		.cfi_def_cfa_offset 4
 2936              		@ sp needed
 2937 003c 04F09DE4 		ldr	pc, [sp], #4
 2938              	.L196:
 2939              		.align	2
 2940              	.L195:
 2941 0040 34000000 		.word	.LC11
 2942 0044 00000000 		.word	TEST_Full_OTA_PAL_TEAR_DOWN
 2943 0048 00000000 		.word	TEST_Full_OTA_PAL_prvPAL_Abort_OpenFile_
 2944 004c 2A000000 		.word	.LC26
 2945 0050 00000000 		.word	TEST_Full_OTA_PAL_SETUP
 2946 0054 9D000000 		.word	.LC13
 2947 0058 00000000 		.word	.LC25
 2948              		.cfi_endproc
 2949              	.LFE17:
 2951              		.section	.text.TEST_Full_OTA_PAL_prvPAL_Abort_FileWithBlockWritten_run,"ax",%progbits
 2952              		.align	2
 2953              		.global	TEST_Full_OTA_PAL_prvPAL_Abort_FileWithBlockWritten_run
 2954              		.syntax unified
 2955              		.arm
 2956              		.fpu neon
 2958              	TEST_Full_OTA_PAL_prvPAL_Abort_FileWithBlockWritten_run:
 2959              	.LFB19:
 510:D:/Work/DeviceTester/amazon-freertos/tests/common/ota\aws_test_ota_pal.c **** {
 2960              		.loc 1 510 0
 2961              		.cfi_startproc
 2962              		@ args = 0, pretend = 0, frame = 0
 2963              		@ frame_needed = 0, uses_anonymous_args = 0
 2964 0000 1F402DE9 		push	{r0, r1, r2, r3, r4, lr}
 2965              		.cfi_def_cfa_offset 24
 2966              		.cfi_offset 14, -4
 510:D:/Work/DeviceTester/amazon-freertos/tests/common/ota\aws_test_ota_pal.c **** {
 2967              		.loc 1 510 0
 2968 0004 FE3100E3 		movw	r3, #510
 2969 0008 0C308DE5 		str	r3, [sp, #12]
 2970 000c 2C309FE5 		ldr	r3, .L199
 2971 0010 2C209FE5 		ldr	r2, .L199+4
 2972 0014 2C109FE5 		ldr	r1, .L199+8
 2973 0018 08308DE5 		str	r3, [sp, #8]
 2974 001c 28309FE5 		ldr	r3, .L199+12
 2975 0020 28009FE5 		ldr	r0, .L199+16
 2976 0024 04308DE5 		str	r3, [sp, #4]
 2977 0028 24309FE5 		ldr	r3, .L199+20
 2978 002c 00308DE5 		str	r3, [sp]
 2979 0030 20309FE5 		ldr	r3, .L199+24
 2980 0034 FEFFFFEB 		bl	UnityTestRunner
 2981              	.LVL274:
 2982 0038 14D08DE2 		add	sp, sp, #20
 2983              		.cfi_def_cfa_offset 4
 2984              		@ sp needed
 2985 003c 04F09DE4 		ldr	pc, [sp], #4
 2986              	.L200:
 2987              		.align	2
 2988              	.L199:
 2989 0040 34000000 		.word	.LC11
 2990 0044 00000000 		.word	TEST_Full_OTA_PAL_TEAR_DOWN
 2991 0048 00000000 		.word	TEST_Full_OTA_PAL_prvPAL_Abort_FileWithBlockWritten_
 2992 004c 36000000 		.word	.LC28
 2993 0050 00000000 		.word	TEST_Full_OTA_PAL_SETUP
 2994 0054 9D000000 		.word	.LC13
 2995 0058 00000000 		.word	.LC27
 2996              		.cfi_endproc
 2997              	.LFE19:
 2999              		.section	.text.TEST_Full_OTA_PAL_prvPAL_Abort_NullFileHandle_run,"ax",%progbits
 3000              		.align	2
 3001              		.global	TEST_Full_OTA_PAL_prvPAL_Abort_NullFileHandle_run
 3002              		.syntax unified
 3003              		.arm
 3004              		.fpu neon
 3006              	TEST_Full_OTA_PAL_prvPAL_Abort_NullFileHandle_run:
 3007              	.LFB21:
 542:D:/Work/DeviceTester/amazon-freertos/tests/common/ota\aws_test_ota_pal.c **** {
 3008              		.loc 1 542 0
 3009              		.cfi_startproc
 3010              		@ args = 0, pretend = 0, frame = 0
 3011              		@ frame_needed = 0, uses_anonymous_args = 0
 3012 0000 1F402DE9 		push	{r0, r1, r2, r3, r4, lr}
 3013              		.cfi_def_cfa_offset 24
 3014              		.cfi_offset 14, -4
 542:D:/Work/DeviceTester/amazon-freertos/tests/common/ota\aws_test_ota_pal.c **** {
 3015              		.loc 1 542 0
 3016 0004 1E3200E3 		movw	r3, #542
 3017 0008 0C308DE5 		str	r3, [sp, #12]
 3018 000c 2C309FE5 		ldr	r3, .L203
 3019 0010 2C209FE5 		ldr	r2, .L203+4
 3020 0014 2C109FE5 		ldr	r1, .L203+8
 3021 0018 08308DE5 		str	r3, [sp, #8]
 3022 001c 28309FE5 		ldr	r3, .L203+12
 3023 0020 28009FE5 		ldr	r0, .L203+16
 3024 0024 04308DE5 		str	r3, [sp, #4]
 3025 0028 24309FE5 		ldr	r3, .L203+20
 3026 002c 00308DE5 		str	r3, [sp]
 3027 0030 20309FE5 		ldr	r3, .L203+24
 3028 0034 FEFFFFEB 		bl	UnityTestRunner
 3029              	.LVL275:
 3030 0038 14D08DE2 		add	sp, sp, #20
 3031              		.cfi_def_cfa_offset 4
 3032              		@ sp needed
 3033 003c 04F09DE4 		ldr	pc, [sp], #4
 3034              	.L204:
 3035              		.align	2
 3036              	.L203:
 3037 0040 34000000 		.word	.LC11
 3038 0044 00000000 		.word	TEST_Full_OTA_PAL_TEAR_DOWN
 3039 0048 00000000 		.word	TEST_Full_OTA_PAL_prvPAL_Abort_NullFileHandle_
 3040 004c 30000000 		.word	.LC30
 3041 0050 00000000 		.word	TEST_Full_OTA_PAL_SETUP
 3042 0054 9D000000 		.word	.LC13
 3043 0058 00000000 		.word	.LC29
 3044              		.cfi_endproc
 3045              	.LFE21:
 3047              		.section	.text.TEST_Full_OTA_PAL_prvPAL_Abort_NonExistentFile_run,"ax",%progbits
 3048              		.align	2
 3049              		.global	TEST_Full_OTA_PAL_prvPAL_Abort_NonExistentFile_run
 3050              		.syntax unified
 3051              		.arm
 3052              		.fpu neon
 3054              	TEST_Full_OTA_PAL_prvPAL_Abort_NonExistentFile_run:
 3055              	.LFB23:
 556:D:/Work/DeviceTester/amazon-freertos/tests/common/ota\aws_test_ota_pal.c **** {
 3056              		.loc 1 556 0
 3057              		.cfi_startproc
 3058              		@ args = 0, pretend = 0, frame = 0
 3059              		@ frame_needed = 0, uses_anonymous_args = 0
 3060 0000 1F402DE9 		push	{r0, r1, r2, r3, r4, lr}
 3061              		.cfi_def_cfa_offset 24
 3062              		.cfi_offset 14, -4
 556:D:/Work/DeviceTester/amazon-freertos/tests/common/ota\aws_test_ota_pal.c **** {
 3063              		.loc 1 556 0
 3064 0004 8B3FA0E3 		mov	r3, #556
 3065 0008 0C308DE5 		str	r3, [sp, #12]
 3066 000c 2C309FE5 		ldr	r3, .L207
 3067 0010 2C209FE5 		ldr	r2, .L207+4
 3068 0014 2C109FE5 		ldr	r1, .L207+8
 3069 0018 08308DE5 		str	r3, [sp, #8]
 3070 001c 28309FE5 		ldr	r3, .L207+12
 3071 0020 28009FE5 		ldr	r0, .L207+16
 3072 0024 04308DE5 		str	r3, [sp, #4]
 3073 0028 24309FE5 		ldr	r3, .L207+20
 3074 002c 00308DE5 		str	r3, [sp]
 3075 0030 20309FE5 		ldr	r3, .L207+24
 3076 0034 FEFFFFEB 		bl	UnityTestRunner
 3077              	.LVL276:
 3078 0038 14D08DE2 		add	sp, sp, #20
 3079              		.cfi_def_cfa_offset 4
 3080              		@ sp needed
 3081 003c 04F09DE4 		ldr	pc, [sp], #4
 3082              	.L208:
 3083              		.align	2
 3084              	.L207:
 3085 0040 34000000 		.word	.LC11
 3086 0044 00000000 		.word	TEST_Full_OTA_PAL_TEAR_DOWN
 3087 0048 00000000 		.word	TEST_Full_OTA_PAL_prvPAL_Abort_NonExistentFile_
 3088 004c 31000000 		.word	.LC32
 3089 0050 00000000 		.word	TEST_Full_OTA_PAL_SETUP
 3090 0054 9D000000 		.word	.LC13
 3091 0058 00000000 		.word	.LC31
 3092              		.cfi_endproc
 3093              	.LFE23:
 3095              		.section	.text.TEST_Full_OTA_PAL_prvPAL_WriteBlock_WriteSingleByte_run,"ax",%progbits
 3096              		.align	2
 3097              		.global	TEST_Full_OTA_PAL_prvPAL_WriteBlock_WriteSingleByte_run
 3098              		.syntax unified
 3099              		.arm
 3100              		.fpu neon
 3102              	TEST_Full_OTA_PAL_prvPAL_WriteBlock_WriteSingleByte_run:
 3103              	.LFB25:
 570:D:/Work/DeviceTester/amazon-freertos/tests/common/ota\aws_test_ota_pal.c **** {
 3104              		.loc 1 570 0
 3105              		.cfi_startproc
 3106              		@ args = 0, pretend = 0, frame = 0
 3107              		@ frame_needed = 0, uses_anonymous_args = 0
 3108 0000 1F402DE9 		push	{r0, r1, r2, r3, r4, lr}
 3109              		.cfi_def_cfa_offset 24
 3110              		.cfi_offset 14, -4
 570:D:/Work/DeviceTester/amazon-freertos/tests/common/ota\aws_test_ota_pal.c **** {
 3111              		.loc 1 570 0
 3112 0004 3A3200E3 		movw	r3, #570
 3113 0008 0C308DE5 		str	r3, [sp, #12]
 3114 000c 2C309FE5 		ldr	r3, .L211
 3115 0010 2C209FE5 		ldr	r2, .L211+4
 3116 0014 2C109FE5 		ldr	r1, .L211+8
 3117 0018 08308DE5 		str	r3, [sp, #8]
 3118 001c 28309FE5 		ldr	r3, .L211+12
 3119 0020 28009FE5 		ldr	r0, .L211+16
 3120 0024 04308DE5 		str	r3, [sp, #4]
 3121 0028 24309FE5 		ldr	r3, .L211+20
 3122 002c 00308DE5 		str	r3, [sp]
 3123 0030 20309FE5 		ldr	r3, .L211+24
 3124 0034 FEFFFFEB 		bl	UnityTestRunner
 3125              	.LVL277:
 3126 0038 14D08DE2 		add	sp, sp, #20
 3127              		.cfi_def_cfa_offset 4
 3128              		@ sp needed
 3129 003c 04F09DE4 		ldr	pc, [sp], #4
 3130              	.L212:
 3131              		.align	2
 3132              	.L211:
 3133 0040 34000000 		.word	.LC11
 3134 0044 00000000 		.word	TEST_Full_OTA_PAL_TEAR_DOWN
 3135 0048 00000000 		.word	TEST_Full_OTA_PAL_prvPAL_WriteBlock_WriteSingleByte_
 3136 004c 36000000 		.word	.LC34
 3137 0050 00000000 		.word	TEST_Full_OTA_PAL_SETUP
 3138 0054 9D000000 		.word	.LC13
 3139 0058 00000000 		.word	.LC33
 3140              		.cfi_endproc
 3141              	.LFE25:
 3143              		.section	.text.TEST_Full_OTA_PAL_prvPAL_WriteBlock_WriteManyBlocks_run,"ax",%progbits
 3144              		.align	2
 3145              		.global	TEST_Full_OTA_PAL_prvPAL_WriteBlock_WriteManyBlocks_run
 3146              		.syntax unified
 3147              		.arm
 3148              		.fpu neon
 3150              	TEST_Full_OTA_PAL_prvPAL_WriteBlock_WriteManyBlocks_run:
 3151              	.LFB27:
 591:D:/Work/DeviceTester/amazon-freertos/tests/common/ota\aws_test_ota_pal.c **** {
 3152              		.loc 1 591 0
 3153              		.cfi_startproc
 3154              		@ args = 0, pretend = 0, frame = 0
 3155              		@ frame_needed = 0, uses_anonymous_args = 0
 3156 0000 1F402DE9 		push	{r0, r1, r2, r3, r4, lr}
 3157              		.cfi_def_cfa_offset 24
 3158              		.cfi_offset 14, -4
 591:D:/Work/DeviceTester/amazon-freertos/tests/common/ota\aws_test_ota_pal.c **** {
 3159              		.loc 1 591 0
 3160 0004 4F3200E3 		movw	r3, #591
 3161 0008 0C308DE5 		str	r3, [sp, #12]
 3162 000c 2C309FE5 		ldr	r3, .L215
 3163 0010 2C209FE5 		ldr	r2, .L215+4
 3164 0014 2C109FE5 		ldr	r1, .L215+8
 3165 0018 08308DE5 		str	r3, [sp, #8]
 3166 001c 28309FE5 		ldr	r3, .L215+12
 3167 0020 28009FE5 		ldr	r0, .L215+16
 3168 0024 04308DE5 		str	r3, [sp, #4]
 3169 0028 24309FE5 		ldr	r3, .L215+20
 3170 002c 00308DE5 		str	r3, [sp]
 3171 0030 20309FE5 		ldr	r3, .L215+24
 3172 0034 FEFFFFEB 		bl	UnityTestRunner
 3173              	.LVL278:
 3174 0038 14D08DE2 		add	sp, sp, #20
 3175              		.cfi_def_cfa_offset 4
 3176              		@ sp needed
 3177 003c 04F09DE4 		ldr	pc, [sp], #4
 3178              	.L216:
 3179              		.align	2
 3180              	.L215:
 3181 0040 34000000 		.word	.LC11
 3182 0044 00000000 		.word	TEST_Full_OTA_PAL_TEAR_DOWN
 3183 0048 00000000 		.word	TEST_Full_OTA_PAL_prvPAL_WriteBlock_WriteManyBlocks_
 3184 004c 36000000 		.word	.LC36
 3185 0050 00000000 		.word	TEST_Full_OTA_PAL_SETUP
 3186 0054 9D000000 		.word	.LC13
 3187 0058 00000000 		.word	.LC35
 3188              		.cfi_endproc
 3189              	.LFE27:
 3191              		.section	.text.TEST_Full_OTA_PAL_prvPAL_ActivateNewImage_run,"ax",%progbits
 3192              		.align	2
 3193              		.global	TEST_Full_OTA_PAL_prvPAL_ActivateNewImage_run
 3194              		.syntax unified
 3195              		.arm
 3196              		.fpu neon
 3198              	TEST_Full_OTA_PAL_prvPAL_ActivateNewImage_run:
 3199              	.LFB29:
 624:D:/Work/DeviceTester/amazon-freertos/tests/common/ota\aws_test_ota_pal.c **** {
 3200              		.loc 1 624 0
 3201              		.cfi_startproc
 3202              		@ args = 0, pretend = 0, frame = 0
 3203              		@ frame_needed = 0, uses_anonymous_args = 0
 3204 0000 1F402DE9 		push	{r0, r1, r2, r3, r4, lr}
 3205              		.cfi_def_cfa_offset 24
 3206              		.cfi_offset 14, -4
 624:D:/Work/DeviceTester/amazon-freertos/tests/common/ota\aws_test_ota_pal.c **** {
 3207              		.loc 1 624 0
 3208 0004 273EA0E3 		mov	r3, #624
 3209 0008 0C308DE5 		str	r3, [sp, #12]
 3210 000c 2C309FE5 		ldr	r3, .L219
 3211 0010 2C209FE5 		ldr	r2, .L219+4
 3212 0014 2C109FE5 		ldr	r1, .L219+8
 3213 0018 08308DE5 		str	r3, [sp, #8]
 3214 001c 28309FE5 		ldr	r3, .L219+12
 3215 0020 28009FE5 		ldr	r0, .L219+16
 3216 0024 04308DE5 		str	r3, [sp, #4]
 3217 0028 24309FE5 		ldr	r3, .L219+20
 3218 002c 00308DE5 		str	r3, [sp]
 3219 0030 20309FE5 		ldr	r3, .L219+24
 3220 0034 FEFFFFEB 		bl	UnityTestRunner
 3221              	.LVL279:
 3222 0038 14D08DE2 		add	sp, sp, #20
 3223              		.cfi_def_cfa_offset 4
 3224              		@ sp needed
 3225 003c 04F09DE4 		ldr	pc, [sp], #4
 3226              	.L220:
 3227              		.align	2
 3228              	.L219:
 3229 0040 34000000 		.word	.LC11
 3230 0044 00000000 		.word	TEST_Full_OTA_PAL_TEAR_DOWN
 3231 0048 00000000 		.word	TEST_Full_OTA_PAL_prvPAL_ActivateNewImage_
 3232 004c 2C000000 		.word	.LC38
 3233 0050 00000000 		.word	TEST_Full_OTA_PAL_SETUP
 3234 0054 9D000000 		.word	.LC13
 3235 0058 00000000 		.word	.LC37
 3236              		.cfi_endproc
 3237              	.LFE29:
 3239              		.section	.text.TEST_Full_OTA_PAL_prvPAL_SetPlatformImageState_SelfTestImageState_run,"ax",%progbit
 3240              		.align	2
 3241              		.global	TEST_Full_OTA_PAL_prvPAL_SetPlatformImageState_SelfTestImageState_run
 3242              		.syntax unified
 3243              		.arm
 3244              		.fpu neon
 3246              	TEST_Full_OTA_PAL_prvPAL_SetPlatformImageState_SelfTestImageState_run:
 3247              	.LFB31:
 634:D:/Work/DeviceTester/amazon-freertos/tests/common/ota\aws_test_ota_pal.c **** {
 3248              		.loc 1 634 0
 3249              		.cfi_startproc
 3250              		@ args = 0, pretend = 0, frame = 0
 3251              		@ frame_needed = 0, uses_anonymous_args = 0
 3252 0000 1F402DE9 		push	{r0, r1, r2, r3, r4, lr}
 3253              		.cfi_def_cfa_offset 24
 3254              		.cfi_offset 14, -4
 634:D:/Work/DeviceTester/amazon-freertos/tests/common/ota\aws_test_ota_pal.c **** {
 3255              		.loc 1 634 0
 3256 0004 7A3200E3 		movw	r3, #634
 3257 0008 0C308DE5 		str	r3, [sp, #12]
 3258 000c 2C309FE5 		ldr	r3, .L223
 3259 0010 2C209FE5 		ldr	r2, .L223+4
 3260 0014 2C109FE5 		ldr	r1, .L223+8
 3261 0018 08308DE5 		str	r3, [sp, #8]
 3262 001c 28309FE5 		ldr	r3, .L223+12
 3263 0020 28009FE5 		ldr	r0, .L223+16
 3264 0024 04308DE5 		str	r3, [sp, #4]
 3265 0028 24309FE5 		ldr	r3, .L223+20
 3266 002c 00308DE5 		str	r3, [sp]
 3267 0030 20309FE5 		ldr	r3, .L223+24
 3268 0034 FEFFFFEB 		bl	UnityTestRunner
 3269              	.LVL280:
 3270 0038 14D08DE2 		add	sp, sp, #20
 3271              		.cfi_def_cfa_offset 4
 3272              		@ sp needed
 3273 003c 04F09DE4 		ldr	pc, [sp], #4
 3274              	.L224:
 3275              		.align	2
 3276              	.L223:
 3277 0040 34000000 		.word	.LC11
 3278 0044 00000000 		.word	TEST_Full_OTA_PAL_TEAR_DOWN
 3279 0048 00000000 		.word	TEST_Full_OTA_PAL_prvPAL_SetPlatformImageState_SelfTestImageState_
 3280 004c 44000000 		.word	.LC40
 3281 0050 00000000 		.word	TEST_Full_OTA_PAL_SETUP
 3282 0054 9D000000 		.word	.LC13
 3283 0058 00000000 		.word	.LC39
 3284              		.cfi_endproc
 3285              	.LFE31:
 3287              		.section	.text.TEST_Full_OTA_PAL_prvPAL_SetPlatformImageState_InvalidImageState_run,"ax",%progbits
 3288              		.align	2
 3289              		.global	TEST_Full_OTA_PAL_prvPAL_SetPlatformImageState_InvalidImageState_run
 3290              		.syntax unified
 3291              		.arm
 3292              		.fpu neon
 3294              	TEST_Full_OTA_PAL_prvPAL_SetPlatformImageState_InvalidImageState_run:
 3295              	.LFB33:
 674:D:/Work/DeviceTester/amazon-freertos/tests/common/ota\aws_test_ota_pal.c **** {
 3296              		.loc 1 674 0
 3297              		.cfi_startproc
 3298              		@ args = 0, pretend = 0, frame = 0
 3299              		@ frame_needed = 0, uses_anonymous_args = 0
 3300 0000 1F402DE9 		push	{r0, r1, r2, r3, r4, lr}
 3301              		.cfi_def_cfa_offset 24
 3302              		.cfi_offset 14, -4
 674:D:/Work/DeviceTester/amazon-freertos/tests/common/ota\aws_test_ota_pal.c **** {
 3303              		.loc 1 674 0
 3304 0004 A23200E3 		movw	r3, #674
 3305 0008 0C308DE5 		str	r3, [sp, #12]
 3306 000c 2C309FE5 		ldr	r3, .L227
 3307 0010 2C209FE5 		ldr	r2, .L227+4
 3308 0014 2C109FE5 		ldr	r1, .L227+8
 3309 0018 08308DE5 		str	r3, [sp, #8]
 3310 001c 28309FE5 		ldr	r3, .L227+12
 3311 0020 28009FE5 		ldr	r0, .L227+16
 3312 0024 04308DE5 		str	r3, [sp, #4]
 3313 0028 24309FE5 		ldr	r3, .L227+20
 3314 002c 00308DE5 		str	r3, [sp]
 3315 0030 20309FE5 		ldr	r3, .L227+24
 3316 0034 FEFFFFEB 		bl	UnityTestRunner
 3317              	.LVL281:
 3318 0038 14D08DE2 		add	sp, sp, #20
 3319              		.cfi_def_cfa_offset 4
 3320              		@ sp needed
 3321 003c 04F09DE4 		ldr	pc, [sp], #4
 3322              	.L228:
 3323              		.align	2
 3324              	.L227:
 3325 0040 34000000 		.word	.LC11
 3326 0044 00000000 		.word	TEST_Full_OTA_PAL_TEAR_DOWN
 3327 0048 00000000 		.word	TEST_Full_OTA_PAL_prvPAL_SetPlatformImageState_InvalidImageState_
 3328 004c 43000000 		.word	.LC42
 3329 0050 00000000 		.word	TEST_Full_OTA_PAL_SETUP
 3330 0054 9D000000 		.word	.LC13
 3331 0058 00000000 		.word	.LC41
 3332              		.cfi_endproc
 3333              	.LFE33:
 3335              		.section	.text.TEST_Full_OTA_PAL_prvPAL_SetPlatformImageState_UnknownImageState_run,"ax",%progbits
 3336              		.align	2
 3337              		.global	TEST_Full_OTA_PAL_prvPAL_SetPlatformImageState_UnknownImageState_run
 3338              		.syntax unified
 3339              		.arm
 3340              		.fpu neon
 3342              	TEST_Full_OTA_PAL_prvPAL_SetPlatformImageState_UnknownImageState_run:
 3343              	.LFB35:
 704:D:/Work/DeviceTester/amazon-freertos/tests/common/ota\aws_test_ota_pal.c **** {
 3344              		.loc 1 704 0
 3345              		.cfi_startproc
 3346              		@ args = 0, pretend = 0, frame = 0
 3347              		@ frame_needed = 0, uses_anonymous_args = 0
 3348 0000 1F402DE9 		push	{r0, r1, r2, r3, r4, lr}
 3349              		.cfi_def_cfa_offset 24
 3350              		.cfi_offset 14, -4
 704:D:/Work/DeviceTester/amazon-freertos/tests/common/ota\aws_test_ota_pal.c **** {
 3351              		.loc 1 704 0
 3352 0004 0B3DA0E3 		mov	r3, #704
 3353 0008 0C308DE5 		str	r3, [sp, #12]
 3354 000c 2C309FE5 		ldr	r3, .L231
 3355 0010 2C209FE5 		ldr	r2, .L231+4
 3356 0014 2C109FE5 		ldr	r1, .L231+8
 3357 0018 08308DE5 		str	r3, [sp, #8]
 3358 001c 28309FE5 		ldr	r3, .L231+12
 3359 0020 28009FE5 		ldr	r0, .L231+16
 3360 0024 04308DE5 		str	r3, [sp, #4]
 3361 0028 24309FE5 		ldr	r3, .L231+20
 3362 002c 00308DE5 		str	r3, [sp]
 3363 0030 20309FE5 		ldr	r3, .L231+24
 3364 0034 FEFFFFEB 		bl	UnityTestRunner
 3365              	.LVL282:
 3366 0038 14D08DE2 		add	sp, sp, #20
 3367              		.cfi_def_cfa_offset 4
 3368              		@ sp needed
 3369 003c 04F09DE4 		ldr	pc, [sp], #4
 3370              	.L232:
 3371              		.align	2
 3372              	.L231:
 3373 0040 34000000 		.word	.LC11
 3374 0044 00000000 		.word	TEST_Full_OTA_PAL_TEAR_DOWN
 3375 0048 00000000 		.word	TEST_Full_OTA_PAL_prvPAL_SetPlatformImageState_UnknownImageState_
 3376 004c 43000000 		.word	.LC44
 3377 0050 00000000 		.word	TEST_Full_OTA_PAL_SETUP
 3378 0054 9D000000 		.word	.LC13
 3379 0058 00000000 		.word	.LC43
 3380              		.cfi_endproc
 3381              	.LFE35:
 3383              		.section	.text.TEST_Full_OTA_PAL_prvPAL_SetPlatformImageState_AcceptedImageStateButImageNotClosed_
 3384              		.align	2
 3385              		.global	TEST_Full_OTA_PAL_prvPAL_SetPlatformImageState_AcceptedImageStateButImageNotClosed_run
 3386              		.syntax unified
 3387              		.arm
 3388              		.fpu neon
 3390              	TEST_Full_OTA_PAL_prvPAL_SetPlatformImageState_AcceptedImageStateButImageNotClosed_run:
 3391              	.LFB37:
 736:D:/Work/DeviceTester/amazon-freertos/tests/common/ota\aws_test_ota_pal.c **** {
 3392              		.loc 1 736 0
 3393              		.cfi_startproc
 3394              		@ args = 0, pretend = 0, frame = 0
 3395              		@ frame_needed = 0, uses_anonymous_args = 0
 3396 0000 1F402DE9 		push	{r0, r1, r2, r3, r4, lr}
 3397              		.cfi_def_cfa_offset 24
 3398              		.cfi_offset 14, -4
 736:D:/Work/DeviceTester/amazon-freertos/tests/common/ota\aws_test_ota_pal.c **** {
 3399              		.loc 1 736 0
 3400 0004 2E3EA0E3 		mov	r3, #736
 3401 0008 0C308DE5 		str	r3, [sp, #12]
 3402 000c 2C309FE5 		ldr	r3, .L235
 3403 0010 2C209FE5 		ldr	r2, .L235+4
 3404 0014 2C109FE5 		ldr	r1, .L235+8
 3405 0018 08308DE5 		str	r3, [sp, #8]
 3406 001c 28309FE5 		ldr	r3, .L235+12
 3407 0020 28009FE5 		ldr	r0, .L235+16
 3408 0024 04308DE5 		str	r3, [sp, #4]
 3409 0028 24309FE5 		ldr	r3, .L235+20
 3410 002c 00308DE5 		str	r3, [sp]
 3411 0030 20309FE5 		ldr	r3, .L235+24
 3412 0034 FEFFFFEB 		bl	UnityTestRunner
 3413              	.LVL283:
 3414 0038 14D08DE2 		add	sp, sp, #20
 3415              		.cfi_def_cfa_offset 4
 3416              		@ sp needed
 3417 003c 04F09DE4 		ldr	pc, [sp], #4
 3418              	.L236:
 3419              		.align	2
 3420              	.L235:
 3421 0040 34000000 		.word	.LC11
 3422 0044 00000000 		.word	TEST_Full_OTA_PAL_TEAR_DOWN
 3423 0048 00000000 		.word	TEST_Full_OTA_PAL_prvPAL_SetPlatformImageState_AcceptedImageStateButImageNotClosed_
 3424 004c 55000000 		.word	.LC46
 3425 0050 00000000 		.word	TEST_Full_OTA_PAL_SETUP
 3426 0054 9D000000 		.word	.LC13
 3427 0058 00000000 		.word	.LC45
 3428              		.cfi_endproc
 3429              	.LFE37:
 3431              		.section	.text.TEST_Full_OTA_PAL_prvPAL_SetPlatformImageState_RejectImageState_run,"ax",%progbits
 3432              		.align	2
 3433              		.global	TEST_Full_OTA_PAL_prvPAL_SetPlatformImageState_RejectImageState_run
 3434              		.syntax unified
 3435              		.arm
 3436              		.fpu neon
 3438              	TEST_Full_OTA_PAL_prvPAL_SetPlatformImageState_RejectImageState_run:
 3439              	.LFB39:
 766:D:/Work/DeviceTester/amazon-freertos/tests/common/ota\aws_test_ota_pal.c **** {
 3440              		.loc 1 766 0
 3441              		.cfi_startproc
 3442              		@ args = 0, pretend = 0, frame = 0
 3443              		@ frame_needed = 0, uses_anonymous_args = 0
 3444 0000 1F402DE9 		push	{r0, r1, r2, r3, r4, lr}
 3445              		.cfi_def_cfa_offset 24
 3446              		.cfi_offset 14, -4
 766:D:/Work/DeviceTester/amazon-freertos/tests/common/ota\aws_test_ota_pal.c **** {
 3447              		.loc 1 766 0
 3448 0004 FE3200E3 		movw	r3, #766
 3449 0008 0C308DE5 		str	r3, [sp, #12]
 3450 000c 2C309FE5 		ldr	r3, .L239
 3451 0010 2C209FE5 		ldr	r2, .L239+4
 3452 0014 2C109FE5 		ldr	r1, .L239+8
 3453 0018 08308DE5 		str	r3, [sp, #8]
 3454 001c 28309FE5 		ldr	r3, .L239+12
 3455 0020 28009FE5 		ldr	r0, .L239+16
 3456 0024 04308DE5 		str	r3, [sp, #4]
 3457 0028 24309FE5 		ldr	r3, .L239+20
 3458 002c 00308DE5 		str	r3, [sp]
 3459 0030 20309FE5 		ldr	r3, .L239+24
 3460 0034 FEFFFFEB 		bl	UnityTestRunner
 3461              	.LVL284:
 3462 0038 14D08DE2 		add	sp, sp, #20
 3463              		.cfi_def_cfa_offset 4
 3464              		@ sp needed
 3465 003c 04F09DE4 		ldr	pc, [sp], #4
 3466              	.L240:
 3467              		.align	2
 3468              	.L239:
 3469 0040 34000000 		.word	.LC11
 3470 0044 00000000 		.word	TEST_Full_OTA_PAL_TEAR_DOWN
 3471 0048 00000000 		.word	TEST_Full_OTA_PAL_prvPAL_SetPlatformImageState_RejectImageState_
 3472 004c 42000000 		.word	.LC48
 3473 0050 00000000 		.word	TEST_Full_OTA_PAL_SETUP
 3474 0054 9D000000 		.word	.LC13
 3475 0058 00000000 		.word	.LC47
 3476              		.cfi_endproc
 3477              	.LFE39:
 3479              		.section	.text.TEST_Full_OTA_PAL_prvPAL_SetPlatformImageState_AbortImageState_run,"ax",%progbits
 3480              		.align	2
 3481              		.global	TEST_Full_OTA_PAL_prvPAL_SetPlatformImageState_AbortImageState_run
 3482              		.syntax unified
 3483              		.arm
 3484              		.fpu neon
 3486              	TEST_Full_OTA_PAL_prvPAL_SetPlatformImageState_AbortImageState_run:
 3487              	.LFB41:
 796:D:/Work/DeviceTester/amazon-freertos/tests/common/ota\aws_test_ota_pal.c **** {
 3488              		.loc 1 796 0
 3489              		.cfi_startproc
 3490              		@ args = 0, pretend = 0, frame = 0
 3491              		@ frame_needed = 0, uses_anonymous_args = 0
 3492 0000 1F402DE9 		push	{r0, r1, r2, r3, r4, lr}
 3493              		.cfi_def_cfa_offset 24
 3494              		.cfi_offset 14, -4
 796:D:/Work/DeviceTester/amazon-freertos/tests/common/ota\aws_test_ota_pal.c **** {
 3495              		.loc 1 796 0
 3496 0004 C73FA0E3 		mov	r3, #796
 3497 0008 0C308DE5 		str	r3, [sp, #12]
 3498 000c 2C309FE5 		ldr	r3, .L243
 3499 0010 2C209FE5 		ldr	r2, .L243+4
 3500 0014 2C109FE5 		ldr	r1, .L243+8
 3501 0018 08308DE5 		str	r3, [sp, #8]
 3502 001c 28309FE5 		ldr	r3, .L243+12
 3503 0020 28009FE5 		ldr	r0, .L243+16
 3504 0024 04308DE5 		str	r3, [sp, #4]
 3505 0028 24309FE5 		ldr	r3, .L243+20
 3506 002c 00308DE5 		str	r3, [sp]
 3507 0030 20309FE5 		ldr	r3, .L243+24
 3508 0034 FEFFFFEB 		bl	UnityTestRunner
 3509              	.LVL285:
 3510 0038 14D08DE2 		add	sp, sp, #20
 3511              		.cfi_def_cfa_offset 4
 3512              		@ sp needed
 3513 003c 04F09DE4 		ldr	pc, [sp], #4
 3514              	.L244:
 3515              		.align	2
 3516              	.L243:
 3517 0040 34000000 		.word	.LC11
 3518 0044 00000000 		.word	TEST_Full_OTA_PAL_TEAR_DOWN
 3519 0048 00000000 		.word	TEST_Full_OTA_PAL_prvPAL_SetPlatformImageState_AbortImageState_
 3520 004c 41000000 		.word	.LC50
 3521 0050 00000000 		.word	TEST_Full_OTA_PAL_SETUP
 3522 0054 9D000000 		.word	.LC13
 3523 0058 00000000 		.word	.LC49
 3524              		.cfi_endproc
 3525              	.LFE41:
 3527              		.section	.text.TEST_Full_OTA_PAL_prvPAL_GetPlatformImageState_InvalidImageStateFromFileCloseFailur
 3528              		.align	2
 3529              		.global	TEST_Full_OTA_PAL_prvPAL_GetPlatformImageState_InvalidImageStateFromFileCloseFailure_run
 3530              		.syntax unified
 3531              		.arm
 3532              		.fpu neon
 3534              	TEST_Full_OTA_PAL_prvPAL_GetPlatformImageState_InvalidImageStateFromFileCloseFailure_run:
 3535              	.LFB43:
 826:D:/Work/DeviceTester/amazon-freertos/tests/common/ota\aws_test_ota_pal.c **** {
 3536              		.loc 1 826 0
 3537              		.cfi_startproc
 3538              		@ args = 0, pretend = 0, frame = 0
 3539              		@ frame_needed = 0, uses_anonymous_args = 0
 3540 0000 1F402DE9 		push	{r0, r1, r2, r3, r4, lr}
 3541              		.cfi_def_cfa_offset 24
 3542              		.cfi_offset 14, -4
 826:D:/Work/DeviceTester/amazon-freertos/tests/common/ota\aws_test_ota_pal.c **** {
 3543              		.loc 1 826 0
 3544 0004 3A3300E3 		movw	r3, #826
 3545 0008 0C308DE5 		str	r3, [sp, #12]
 3546 000c 2C309FE5 		ldr	r3, .L247
 3547 0010 2C209FE5 		ldr	r2, .L247+4
 3548 0014 2C109FE5 		ldr	r1, .L247+8
 3549 0018 08308DE5 		str	r3, [sp, #8]
 3550 001c 28309FE5 		ldr	r3, .L247+12
 3551 0020 28009FE5 		ldr	r0, .L247+16
 3552 0024 04308DE5 		str	r3, [sp, #4]
 3553 0028 24309FE5 		ldr	r3, .L247+20
 3554 002c 00308DE5 		str	r3, [sp]
 3555 0030 20309FE5 		ldr	r3, .L247+24
 3556 0034 FEFFFFEB 		bl	UnityTestRunner
 3557              	.LVL286:
 3558 0038 14D08DE2 		add	sp, sp, #20
 3559              		.cfi_def_cfa_offset 4
 3560              		@ sp needed
 3561 003c 04F09DE4 		ldr	pc, [sp], #4
 3562              	.L248:
 3563              		.align	2
 3564              	.L247:
 3565 0040 34000000 		.word	.LC11
 3566 0044 00000000 		.word	TEST_Full_OTA_PAL_TEAR_DOWN
 3567 0048 00000000 		.word	TEST_Full_OTA_PAL_prvPAL_GetPlatformImageState_InvalidImageStateFromFileCloseFailure_
 3568 004c 57000000 		.word	.LC52
 3569 0050 00000000 		.word	TEST_Full_OTA_PAL_SETUP
 3570 0054 9D000000 		.word	.LC13
 3571 0058 00000000 		.word	.LC51
 3572              		.cfi_endproc
 3573              	.LFE43:
 3575              		.section	.text.TEST_Full_OTA_PAL_prvPAL_ReadAndAssumeCertificate_ExistingFile_run,"ax",%progbits
 3576              		.align	2
 3577              		.global	TEST_Full_OTA_PAL_prvPAL_ReadAndAssumeCertificate_ExistingFile_run
 3578              		.syntax unified
 3579              		.arm
 3580              		.fpu neon
 3582              	TEST_Full_OTA_PAL_prvPAL_ReadAndAssumeCertificate_ExistingFile_run:
 3583              	.LFB45:
 876:D:/Work/DeviceTester/amazon-freertos/tests/common/ota\aws_test_ota_pal.c ****     {
 3584              		.loc 1 876 0
 3585              		.cfi_startproc
 3586              		@ args = 0, pretend = 0, frame = 0
 3587              		@ frame_needed = 0, uses_anonymous_args = 0
 3588 0000 1F402DE9 		push	{r0, r1, r2, r3, r4, lr}
 3589              		.cfi_def_cfa_offset 24
 3590              		.cfi_offset 14, -4
 876:D:/Work/DeviceTester/amazon-freertos/tests/common/ota\aws_test_ota_pal.c ****     {
 3591              		.loc 1 876 0
 3592 0004 DB3FA0E3 		mov	r3, #876
 3593 0008 0C308DE5 		str	r3, [sp, #12]
 3594 000c 2C309FE5 		ldr	r3, .L251
 3595 0010 2C209FE5 		ldr	r2, .L251+4
 3596 0014 2C109FE5 		ldr	r1, .L251+8
 3597 0018 08308DE5 		str	r3, [sp, #8]
 3598 001c 28309FE5 		ldr	r3, .L251+12
 3599 0020 28009FE5 		ldr	r0, .L251+16
 3600 0024 04308DE5 		str	r3, [sp, #4]
 3601 0028 24309FE5 		ldr	r3, .L251+20
 3602 002c 00308DE5 		str	r3, [sp]
 3603 0030 20309FE5 		ldr	r3, .L251+24
 3604 0034 FEFFFFEB 		bl	UnityTestRunner
 3605              	.LVL287:
 3606 0038 14D08DE2 		add	sp, sp, #20
 3607              		.cfi_def_cfa_offset 4
 3608              		@ sp needed
 3609 003c 04F09DE4 		ldr	pc, [sp], #4
 3610              	.L252:
 3611              		.align	2
 3612              	.L251:
 3613 0040 34000000 		.word	.LC11
 3614 0044 00000000 		.word	TEST_Full_OTA_PAL_TEAR_DOWN
 3615 0048 00000000 		.word	TEST_Full_OTA_PAL_prvPAL_ReadAndAssumeCertificate_ExistingFile_
 3616 004c 41000000 		.word	.LC54
 3617 0050 00000000 		.word	TEST_Full_OTA_PAL_SETUP
 3618 0054 9D000000 		.word	.LC13
 3619 0058 00000000 		.word	.LC53
 3620              		.cfi_endproc
 3621              	.LFE45:
 3623              		.section	.text.TEST_Full_OTA_PAL_prvPAL_ReadAndAssumeCertificate_NonexistentFile_run,"ax",%progbit
 3624              		.align	2
 3625              		.global	TEST_Full_OTA_PAL_prvPAL_ReadAndAssumeCertificate_NonexistentFile_run
 3626              		.syntax unified
 3627              		.arm
 3628              		.fpu neon
 3630              	TEST_Full_OTA_PAL_prvPAL_ReadAndAssumeCertificate_NonexistentFile_run:
 3631              	.LFB47:
 900:D:/Work/DeviceTester/amazon-freertos/tests/common/ota\aws_test_ota_pal.c ****     {
 3632              		.loc 1 900 0
 3633              		.cfi_startproc
 3634              		@ args = 0, pretend = 0, frame = 0
 3635              		@ frame_needed = 0, uses_anonymous_args = 0
 3636 0000 1F402DE9 		push	{r0, r1, r2, r3, r4, lr}
 3637              		.cfi_def_cfa_offset 24
 3638              		.cfi_offset 14, -4
 900:D:/Work/DeviceTester/amazon-freertos/tests/common/ota\aws_test_ota_pal.c ****     {
 3639              		.loc 1 900 0
 3640 0004 E13FA0E3 		mov	r3, #900
 3641 0008 0C308DE5 		str	r3, [sp, #12]
 3642 000c 2C309FE5 		ldr	r3, .L255
 3643 0010 2C209FE5 		ldr	r2, .L255+4
 3644 0014 2C109FE5 		ldr	r1, .L255+8
 3645 0018 08308DE5 		str	r3, [sp, #8]
 3646 001c 28309FE5 		ldr	r3, .L255+12
 3647 0020 28009FE5 		ldr	r0, .L255+16
 3648 0024 04308DE5 		str	r3, [sp, #4]
 3649 0028 24309FE5 		ldr	r3, .L255+20
 3650 002c 00308DE5 		str	r3, [sp]
 3651 0030 20309FE5 		ldr	r3, .L255+24
 3652 0034 FEFFFFEB 		bl	UnityTestRunner
 3653              	.LVL288:
 3654 0038 14D08DE2 		add	sp, sp, #20
 3655              		.cfi_def_cfa_offset 4
 3656              		@ sp needed
 3657 003c 04F09DE4 		ldr	pc, [sp], #4
 3658              	.L256:
 3659              		.align	2
 3660              	.L255:
 3661 0040 34000000 		.word	.LC11
 3662 0044 00000000 		.word	TEST_Full_OTA_PAL_TEAR_DOWN
 3663 0048 00000000 		.word	TEST_Full_OTA_PAL_prvPAL_ReadAndAssumeCertificate_NonexistentFile_
 3664 004c 44000000 		.word	.LC56
 3665 0050 00000000 		.word	TEST_Full_OTA_PAL_SETUP
 3666 0054 9D000000 		.word	.LC13
 3667 0058 00000000 		.word	.LC55
 3668              		.cfi_endproc
 3669              	.LFE47:
 3671              		.section	.text.TEST_Full_OTA_PAL_prvPAL_CheckFileSignature_ValidSignature_run,"ax",%progbits
 3672              		.align	2
 3673              		.global	TEST_Full_OTA_PAL_prvPAL_CheckFileSignature_ValidSignature_run
 3674              		.syntax unified
 3675              		.arm
 3676              		.fpu neon
 3678              	TEST_Full_OTA_PAL_prvPAL_CheckFileSignature_ValidSignature_run:
 3679              	.LFB49:
 921:D:/Work/DeviceTester/amazon-freertos/tests/common/ota\aws_test_ota_pal.c ****     {
 3680              		.loc 1 921 0
 3681              		.cfi_startproc
 3682              		@ args = 0, pretend = 0, frame = 0
 3683              		@ frame_needed = 0, uses_anonymous_args = 0
 3684 0000 1F402DE9 		push	{r0, r1, r2, r3, r4, lr}
 3685              		.cfi_def_cfa_offset 24
 3686              		.cfi_offset 14, -4
 921:D:/Work/DeviceTester/amazon-freertos/tests/common/ota\aws_test_ota_pal.c ****     {
 3687              		.loc 1 921 0
 3688 0004 993300E3 		movw	r3, #921
 3689 0008 0C308DE5 		str	r3, [sp, #12]
 3690 000c 2C309FE5 		ldr	r3, .L259
 3691 0010 2C209FE5 		ldr	r2, .L259+4
 3692 0014 2C109FE5 		ldr	r1, .L259+8
 3693 0018 08308DE5 		str	r3, [sp, #8]
 3694 001c 28309FE5 		ldr	r3, .L259+12
 3695 0020 28009FE5 		ldr	r0, .L259+16
 3696 0024 04308DE5 		str	r3, [sp, #4]
 3697 0028 24309FE5 		ldr	r3, .L259+20
 3698 002c 00308DE5 		str	r3, [sp]
 3699 0030 20309FE5 		ldr	r3, .L259+24
 3700 0034 FEFFFFEB 		bl	UnityTestRunner
 3701              	.LVL289:
 3702 0038 14D08DE2 		add	sp, sp, #20
 3703              		.cfi_def_cfa_offset 4
 3704              		@ sp needed
 3705 003c 04F09DE4 		ldr	pc, [sp], #4
 3706              	.L260:
 3707              		.align	2
 3708              	.L259:
 3709 0040 34000000 		.word	.LC11
 3710 0044 00000000 		.word	TEST_Full_OTA_PAL_TEAR_DOWN
 3711 0048 00000000 		.word	TEST_Full_OTA_PAL_prvPAL_CheckFileSignature_ValidSignature_
 3712 004c 3D000000 		.word	.LC58
 3713 0050 00000000 		.word	TEST_Full_OTA_PAL_SETUP
 3714 0054 9D000000 		.word	.LC13
 3715 0058 00000000 		.word	.LC57
 3716              		.cfi_endproc
 3717              	.LFE49:
 3719              		.section	.text.TEST_Full_OTA_PAL_prvPAL_CheckFileSignature_InvalidSignatureBlockWritten_run,"ax",%
 3720              		.align	2
 3721              		.global	TEST_Full_OTA_PAL_prvPAL_CheckFileSignature_InvalidSignatureBlockWritten_run
 3722              		.syntax unified
 3723              		.arm
 3724              		.fpu neon
 3726              	TEST_Full_OTA_PAL_prvPAL_CheckFileSignature_InvalidSignatureBlockWritten_run:
 3727              	.LFB51:
 955:D:/Work/DeviceTester/amazon-freertos/tests/common/ota\aws_test_ota_pal.c ****     {
 3728              		.loc 1 955 0
 3729              		.cfi_startproc
 3730              		@ args = 0, pretend = 0, frame = 0
 3731              		@ frame_needed = 0, uses_anonymous_args = 0
 3732 0000 1F402DE9 		push	{r0, r1, r2, r3, r4, lr}
 3733              		.cfi_def_cfa_offset 24
 3734              		.cfi_offset 14, -4
 955:D:/Work/DeviceTester/amazon-freertos/tests/common/ota\aws_test_ota_pal.c ****     {
 3735              		.loc 1 955 0
 3736 0004 BB3300E3 		movw	r3, #955
 3737 0008 0C308DE5 		str	r3, [sp, #12]
 3738 000c 2C309FE5 		ldr	r3, .L263
 3739 0010 2C209FE5 		ldr	r2, .L263+4
 3740 0014 2C109FE5 		ldr	r1, .L263+8
 3741 0018 08308DE5 		str	r3, [sp, #8]
 3742 001c 28309FE5 		ldr	r3, .L263+12
 3743 0020 28009FE5 		ldr	r0, .L263+16
 3744 0024 04308DE5 		str	r3, [sp, #4]
 3745 0028 24309FE5 		ldr	r3, .L263+20
 3746 002c 00308DE5 		str	r3, [sp]
 3747 0030 20309FE5 		ldr	r3, .L263+24
 3748 0034 FEFFFFEB 		bl	UnityTestRunner
 3749              	.LVL290:
 3750 0038 14D08DE2 		add	sp, sp, #20
 3751              		.cfi_def_cfa_offset 4
 3752              		@ sp needed
 3753 003c 04F09DE4 		ldr	pc, [sp], #4
 3754              	.L264:
 3755              		.align	2
 3756              	.L263:
 3757 0040 34000000 		.word	.LC11
 3758 0044 00000000 		.word	TEST_Full_OTA_PAL_TEAR_DOWN
 3759 0048 00000000 		.word	TEST_Full_OTA_PAL_prvPAL_CheckFileSignature_InvalidSignatureBlockWritten_
 3760 004c 4B000000 		.word	.LC60
 3761 0050 00000000 		.word	TEST_Full_OTA_PAL_SETUP
 3762 0054 9D000000 		.word	.LC13
 3763 0058 00000000 		.word	.LC59
 3764              		.cfi_endproc
 3765              	.LFE51:
 3767              		.section	.text.TEST_Full_OTA_PAL_prvPAL_CheckFileSignature_InvalidSignatureNoBlockWritten_run,"ax"
 3768              		.align	2
 3769              		.global	TEST_Full_OTA_PAL_prvPAL_CheckFileSignature_InvalidSignatureNoBlockWritten_run
 3770              		.syntax unified
 3771              		.arm
 3772              		.fpu neon
 3774              	TEST_Full_OTA_PAL_prvPAL_CheckFileSignature_InvalidSignatureNoBlockWritten_run:
 3775              	.LFB53:
 992:D:/Work/DeviceTester/amazon-freertos/tests/common/ota\aws_test_ota_pal.c ****     {
 3776              		.loc 1 992 0
 3777              		.cfi_startproc
 3778              		@ args = 0, pretend = 0, frame = 0
 3779              		@ frame_needed = 0, uses_anonymous_args = 0
 3780 0000 1F402DE9 		push	{r0, r1, r2, r3, r4, lr}
 3781              		.cfi_def_cfa_offset 24
 3782              		.cfi_offset 14, -4
 992:D:/Work/DeviceTester/amazon-freertos/tests/common/ota\aws_test_ota_pal.c ****     {
 3783              		.loc 1 992 0
 3784 0004 3E3EA0E3 		mov	r3, #992
 3785 0008 0C308DE5 		str	r3, [sp, #12]
 3786 000c 2C309FE5 		ldr	r3, .L267
 3787 0010 2C209FE5 		ldr	r2, .L267+4
 3788 0014 2C109FE5 		ldr	r1, .L267+8
 3789 0018 08308DE5 		str	r3, [sp, #8]
 3790 001c 28309FE5 		ldr	r3, .L267+12
 3791 0020 28009FE5 		ldr	r0, .L267+16
 3792 0024 04308DE5 		str	r3, [sp, #4]
 3793 0028 24309FE5 		ldr	r3, .L267+20
 3794 002c 00308DE5 		str	r3, [sp]
 3795 0030 20309FE5 		ldr	r3, .L267+24
 3796 0034 FEFFFFEB 		bl	UnityTestRunner
 3797              	.LVL291:
 3798 0038 14D08DE2 		add	sp, sp, #20
 3799              		.cfi_def_cfa_offset 4
 3800              		@ sp needed
 3801 003c 04F09DE4 		ldr	pc, [sp], #4
 3802              	.L268:
 3803              		.align	2
 3804              	.L267:
 3805 0040 34000000 		.word	.LC11
 3806 0044 00000000 		.word	TEST_Full_OTA_PAL_TEAR_DOWN
 3807 0048 00000000 		.word	TEST_Full_OTA_PAL_prvPAL_CheckFileSignature_InvalidSignatureNoBlockWritten_
 3808 004c 4D000000 		.word	.LC62
 3809 0050 00000000 		.word	TEST_Full_OTA_PAL_SETUP
 3810 0054 9D000000 		.word	.LC13
 3811 0058 00000000 		.word	.LC61
 3812              		.cfi_endproc
 3813              	.LFE53:
 3815              		.section	.text.TEST_Full_OTA_PAL_GROUP_RUNNER,"ax",%progbits
 3816              		.align	2
 3817              		.global	TEST_Full_OTA_PAL_GROUP_RUNNER
 3818              		.syntax unified
 3819              		.arm
 3820              		.fpu neon
 3822              	TEST_Full_OTA_PAL_GROUP_RUNNER:
 3823              	.LFB3:
 138:D:/Work/DeviceTester/amazon-freertos/tests/common/ota\aws_test_ota_pal.c ****     RUN_TEST_CASE( Full_OTA_PAL, prvPAL_CloseFile_ValidSignature );
 3824              		.loc 1 138 0
 3825              		.cfi_startproc
 3826              		@ args = 0, pretend = 0, frame = 0
 3827              		@ frame_needed = 0, uses_anonymous_args = 0
 3828 0000 10402DE9 		push	{r4, lr}
 3829              		.cfi_def_cfa_offset 8
 3830              		.cfi_offset 4, -8
 3831              		.cfi_offset 14, -4
 3832              	.LBB3:
 139:D:/Work/DeviceTester/amazon-freertos/tests/common/ota\aws_test_ota_pal.c ****     /* RUN_TEST_CASE( Full_OTA_PAL, prvPAL_CloseFile_NullParameters ); */ /* Not supported yet. */
 3833              		.loc 1 139 0
 3834 0004 FEFFFFEB 		bl	TEST_Full_OTA_PAL_prvPAL_CloseFile_ValidSignature_run
 3835              	.LVL292:
 3836              	.LBE3:
 3837              	.LBB4:
 141:D:/Work/DeviceTester/amazon-freertos/tests/common/ota\aws_test_ota_pal.c ****     RUN_TEST_CASE( Full_OTA_PAL, prvPAL_CloseFile_InvalidSignatureNoBlockWritten );
 3838              		.loc 1 141 0
 3839 0008 FEFFFFEB 		bl	TEST_Full_OTA_PAL_prvPAL_CloseFile_InvalidSignatureBlockWritten_run
 3840              	.LVL293:
 3841              	.LBE4:
 3842              	.LBB5:
 142:D:/Work/DeviceTester/amazon-freertos/tests/common/ota\aws_test_ota_pal.c ****     #if ( otatestpalUSE_FILE_SYSTEM == 1 )
 3843              		.loc 1 142 0
 3844 000c FEFFFFEB 		bl	TEST_Full_OTA_PAL_prvPAL_CloseFile_InvalidSignatureNoBlockWritten_run
 3845              	.LVL294:
 3846              	.LBE5:
 3847              	.LBB6:
 147:D:/Work/DeviceTester/amazon-freertos/tests/common/ota\aws_test_ota_pal.c ****     /* RUN_TEST_CASE( Full_OTA_PAL, prvPAL_CreateFileForRx_NullParameters ) */ /* Not supported yet
 3848              		.loc 1 147 0
 3849 0010 FEFFFFEB 		bl	TEST_Full_OTA_PAL_prvPAL_CreateFileForRx_CreateAnyFile_run
 3850              	.LVL295:
 3851              	.LBE6:
 3852              	.LBB7:
 155:D:/Work/DeviceTester/amazon-freertos/tests/common/ota\aws_test_ota_pal.c ****     RUN_TEST_CASE( Full_OTA_PAL, prvPAL_Abort_FileWithBlockWritten );
 3853              		.loc 1 155 0
 3854 0014 FEFFFFEB 		bl	TEST_Full_OTA_PAL_prvPAL_Abort_OpenFile_run
 3855              	.LVL296:
 3856              	.LBE7:
 3857              	.LBB8:
 156:D:/Work/DeviceTester/amazon-freertos/tests/common/ota\aws_test_ota_pal.c ****     RUN_TEST_CASE( Full_OTA_PAL, prvPAL_Abort_NullFileHandle );
 3858              		.loc 1 156 0
 3859 0018 FEFFFFEB 		bl	TEST_Full_OTA_PAL_prvPAL_Abort_FileWithBlockWritten_run
 3860              	.LVL297:
 3861              	.LBE8:
 3862              	.LBB9:
 157:D:/Work/DeviceTester/amazon-freertos/tests/common/ota\aws_test_ota_pal.c ****     RUN_TEST_CASE( Full_OTA_PAL, prvPAL_Abort_NonExistentFile );
 3863              		.loc 1 157 0
 3864 001c FEFFFFEB 		bl	TEST_Full_OTA_PAL_prvPAL_Abort_NullFileHandle_run
 3865              	.LVL298:
 3866              	.LBE9:
 3867              	.LBB10:
 158:D:/Work/DeviceTester/amazon-freertos/tests/common/ota\aws_test_ota_pal.c **** 
 3868              		.loc 1 158 0
 3869 0020 FEFFFFEB 		bl	TEST_Full_OTA_PAL_prvPAL_Abort_NonExistentFile_run
 3870              	.LVL299:
 3871              	.LBE10:
 3872              	.LBB11:
 161:D:/Work/DeviceTester/amazon-freertos/tests/common/ota\aws_test_ota_pal.c ****     RUN_TEST_CASE( Full_OTA_PAL, prvPAL_WriteBlock_WriteManyBlocks );
 3873              		.loc 1 161 0
 3874 0024 FEFFFFEB 		bl	TEST_Full_OTA_PAL_prvPAL_WriteBlock_WriteSingleByte_run
 3875              	.LVL300:
 3876              	.LBE11:
 3877              	.LBB12:
 162:D:/Work/DeviceTester/amazon-freertos/tests/common/ota\aws_test_ota_pal.c **** 
 3878              		.loc 1 162 0
 3879 0028 FEFFFFEB 		bl	TEST_Full_OTA_PAL_prvPAL_WriteBlock_WriteManyBlocks_run
 3880              	.LVL301:
 3881              	.LBE12:
 3882              	.LBB13:
 169:D:/Work/DeviceTester/amazon-freertos/tests/common/ota\aws_test_ota_pal.c ****     RUN_TEST_CASE( Full_OTA_PAL, prvPAL_SetPlatformImageState_InvalidImageState );
 3883              		.loc 1 169 0
 3884 002c FEFFFFEB 		bl	TEST_Full_OTA_PAL_prvPAL_SetPlatformImageState_SelfTestImageState_run
 3885              	.LVL302:
 3886              	.LBE13:
 3887              	.LBB14:
 170:D:/Work/DeviceTester/amazon-freertos/tests/common/ota\aws_test_ota_pal.c ****     RUN_TEST_CASE( Full_OTA_PAL, prvPAL_SetPlatformImageState_UnknownImageState );
 3888              		.loc 1 170 0
 3889 0030 FEFFFFEB 		bl	TEST_Full_OTA_PAL_prvPAL_SetPlatformImageState_InvalidImageState_run
 3890              	.LVL303:
 3891              	.LBE14:
 3892              	.LBB15:
 171:D:/Work/DeviceTester/amazon-freertos/tests/common/ota\aws_test_ota_pal.c ****     RUN_TEST_CASE( Full_OTA_PAL, prvPAL_SetPlatformImageState_RejectImageState );
 3893              		.loc 1 171 0
 3894 0034 FEFFFFEB 		bl	TEST_Full_OTA_PAL_prvPAL_SetPlatformImageState_UnknownImageState_run
 3895              	.LVL304:
 3896              	.LBE15:
 3897              	.LBB16:
 172:D:/Work/DeviceTester/amazon-freertos/tests/common/ota\aws_test_ota_pal.c ****     #ifndef WIN32
 3898              		.loc 1 172 0
 3899 0038 FEFFFFEB 		bl	TEST_Full_OTA_PAL_prvPAL_SetPlatformImageState_RejectImageState_run
 3900              	.LVL305:
 3901              	.LBE16:
 3902              	.LBB17:
 175:D:/Work/DeviceTester/amazon-freertos/tests/common/ota\aws_test_ota_pal.c **** 
 3903              		.loc 1 175 0
 3904 003c FEFFFFEB 		bl	TEST_Full_OTA_PAL_prvPAL_SetPlatformImageState_AcceptedImageStateButImageNotClosed_run
 3905              	.LVL306:
 3906              	.LBE17:
 3907              	.LBB18:
 181:D:/Work/DeviceTester/amazon-freertos/tests/common/ota\aws_test_ota_pal.c **** 
 3908              		.loc 1 181 0
 3909 0040 FEFFFFEB 		bl	TEST_Full_OTA_PAL_prvPAL_GetPlatformImageState_InvalidImageStateFromFileCloseFailure_run
 3910              	.LVL307:
 3911              	.LBE18:
 3912              	.LBB19:
 184:D:/Work/DeviceTester/amazon-freertos/tests/common/ota\aws_test_ota_pal.c ****         #if ( otatestpalUSE_FILE_SYSTEM == 1 )
 3913              		.loc 1 184 0
 3914 0044 FEFFFFEB 		bl	TEST_Full_OTA_PAL_prvPAL_ReadAndAssumeCertificate_ExistingFile_run
 3915              	.LVL308:
 3916              	.LBE19:
 3917              	.LBB20:
 192:D:/Work/DeviceTester/amazon-freertos/tests/common/ota\aws_test_ota_pal.c ****         RUN_TEST_CASE( Full_OTA_PAL, prvPAL_CheckFileSignature_InvalidSignatureBlockWritten );
 3918              		.loc 1 192 0
 3919 0048 FEFFFFEB 		bl	TEST_Full_OTA_PAL_prvPAL_CheckFileSignature_ValidSignature_run
 3920              	.LVL309:
 3921              	.LBE20:
 3922              	.LBB21:
 193:D:/Work/DeviceTester/amazon-freertos/tests/common/ota\aws_test_ota_pal.c ****         RUN_TEST_CASE( Full_OTA_PAL, prvPAL_CheckFileSignature_InvalidSignatureNoBlockWritten );
 3923              		.loc 1 193 0
 3924 004c FEFFFFEB 		bl	TEST_Full_OTA_PAL_prvPAL_CheckFileSignature_InvalidSignatureBlockWritten_run
 3925              	.LVL310:
 3926              	.LBE21:
 3927              	.LBB22:
 194:D:/Work/DeviceTester/amazon-freertos/tests/common/ota\aws_test_ota_pal.c ****         #if ( otatestpalUSE_FILE_SYSTEM == 1 )
 3928              		.loc 1 194 0
 3929 0050 FEFFFFEB 		bl	TEST_Full_OTA_PAL_prvPAL_CheckFileSignature_InvalidSignatureNoBlockWritten_run
 3930              	.LVL311:
 3931              	.LBE22:
 207:D:/Work/DeviceTester/amazon-freertos/tests/common/ota\aws_test_ota_pal.c **** 
 3932              		.loc 1 207 0
 3933 0054 1040BDE8 		pop	{r4, lr}
 3934              		.cfi_restore 14
 3935              		.cfi_restore 4
 3936              		.cfi_def_cfa_offset 0
 3937              	.LBB23:
 205:D:/Work/DeviceTester/amazon-freertos/tests/common/ota\aws_test_ota_pal.c ****     #endif
 3938              		.loc 1 205 0
 3939 0058 FEFFFFEA 		b	TEST_Full_OTA_PAL_prvPAL_CloseFile_ValidSignatureKeyInFlash_run
 3940              	.LVL312:
 3941              	.LBE23:
 3942              		.cfi_endproc
 3943              	.LFE3:
 3945              		.section	.text.TEST_Full_OTA_PAL_prvPAL_CheckFileSignature_NonexistingCodeSignerCertificate_run,"a
 3946              		.align	2
 3947              		.global	TEST_Full_OTA_PAL_prvPAL_CheckFileSignature_NonexistingCodeSignerCertificate_run
 3948              		.syntax unified
 3949              		.arm
 3950              		.fpu neon
 3952              	TEST_Full_OTA_PAL_prvPAL_CheckFileSignature_NonexistingCodeSignerCertificate_run:
 3953              	.LFB55:
1022:D:/Work/DeviceTester/amazon-freertos/tests/common/ota\aws_test_ota_pal.c ****     {
 3954              		.loc 1 1022 0
 3955              		.cfi_startproc
 3956              		@ args = 0, pretend = 0, frame = 0
 3957              		@ frame_needed = 0, uses_anonymous_args = 0
 3958 0000 1F402DE9 		push	{r0, r1, r2, r3, r4, lr}
 3959              		.cfi_def_cfa_offset 24
 3960              		.cfi_offset 14, -4
1022:D:/Work/DeviceTester/amazon-freertos/tests/common/ota\aws_test_ota_pal.c ****     {
 3961              		.loc 1 1022 0
 3962 0004 FE3300E3 		movw	r3, #1022
 3963 0008 0C308DE5 		str	r3, [sp, #12]
 3964 000c 2C309FE5 		ldr	r3, .L273
 3965 0010 2C209FE5 		ldr	r2, .L273+4
 3966 0014 2C109FE5 		ldr	r1, .L273+8
 3967 0018 08308DE5 		str	r3, [sp, #8]
 3968 001c 28309FE5 		ldr	r3, .L273+12
 3969 0020 28009FE5 		ldr	r0, .L273+16
 3970 0024 04308DE5 		str	r3, [sp, #4]
 3971 0028 24309FE5 		ldr	r3, .L273+20
 3972 002c 00308DE5 		str	r3, [sp]
 3973 0030 20309FE5 		ldr	r3, .L273+24
 3974 0034 FEFFFFEB 		bl	UnityTestRunner
 3975              	.LVL313:
 3976 0038 14D08DE2 		add	sp, sp, #20
 3977              		.cfi_def_cfa_offset 4
 3978              		@ sp needed
 3979 003c 04F09DE4 		ldr	pc, [sp], #4
 3980              	.L274:
 3981              		.align	2
 3982              	.L273:
 3983 0040 34000000 		.word	.LC11
 3984 0044 00000000 		.word	TEST_Full_OTA_PAL_TEAR_DOWN
 3985 0048 00000000 		.word	TEST_Full_OTA_PAL_prvPAL_CheckFileSignature_NonexistingCodeSignerCertificate_
 3986 004c 4F000000 		.word	.LC64
 3987 0050 00000000 		.word	TEST_Full_OTA_PAL_SETUP
 3988 0054 9D000000 		.word	.LC13
 3989 0058 00000000 		.word	.LC63
 3990              		.cfi_endproc
 3991              	.LFE55:
 3993              		.section	.bss.xOtaFile,"aw",%nobits
 3994              		.align	2
 3995              		.set	.LANCHOR0,. + 0
 3998              	xOtaFile:
 3999 0000 00000000 		.space	60
 3999      00000000 
 3999      00000000 
 3999      00000000 
 3999      00000000 
 4000              		.section	.data.ucDummyData,"aw",%progbits
 4001              		.set	.LANCHOR1,. + 0
 4004              	ucDummyData:
 4005 0000 83       		.byte	-125
 4006 0001 0B       		.byte	11
 4007 0002 F0       		.byte	-16
 4008 0003 6A       		.byte	106
 4009 0004 81       		.byte	-127
 4010 0005 D6       		.byte	-42
 4011 0006 CA       		.byte	-54
 4012 0007 D7       		.byte	-41
 4013 0008 08       		.byte	8
 4014 0009 22       		.byte	34
 4015 000a 0D       		.byte	13
 4016 000b 6A       		.byte	106
 4017 000c 33       		.byte	51
 4018 000d FA       		.byte	-6
 4019 000e 31       		.byte	49
 4020 000f 9F       		.byte	-97
 4021 0010 A9       		.byte	-87
 4022 0011 5F       		.byte	95
 4023 0012 B5       		.byte	-75
 4024 0013 26       		.byte	38
 4025 0014 00       		.byte	0
 4026 0015 01       		.byte	1
 4027 0016 02       		.byte	2
 4028 0017 03       		.byte	3
 4029 0018 04       		.byte	4
 4030 0019 05       		.byte	5
 4031 001a 06       		.byte	6
 4032 001b 07       		.byte	7
 4033 001c 08       		.byte	8
 4034 001d 09       		.byte	9
 4035 001e 0A       		.byte	10
 4036 001f 0C       		.byte	12
 4037 0020 0C       		.byte	12
 4038 0021 0D       		.byte	13
 4039 0022 0E       		.byte	14
 4040 0023 0F       		.byte	15
 4041 0024 10       		.byte	16
 4042 0025 11       		.byte	17
 4043 0026 12       		.byte	18
 4044 0027 13       		.byte	19
 4045 0028 14       		.byte	20
 4046 0029 15       		.byte	21
 4047 002a 16       		.byte	22
 4048 002b 17       		.byte	23
 4049 002c 18       		.byte	24
 4050 002d 19       		.byte	25
 4051 002e 1A       		.byte	26
 4052 002f 1B       		.byte	27
 4053 0030 1C       		.byte	28
 4054 0031 1D       		.byte	29
 4055 0032 1E       		.byte	30
 4056 0033 1F       		.byte	31
 4057 0034 20       		.byte	32
 4058 0035 21       		.byte	33
 4059 0036 22       		.byte	34
 4060 0037 23       		.byte	35
 4061 0038 24       		.byte	36
 4062 0039 25       		.byte	37
 4063 003a 26       		.byte	38
 4064 003b 27       		.byte	39
 4065 003c 28       		.byte	40
 4066 003d 29       		.byte	41
 4067 003e 2A       		.byte	42
 4068 003f 2B       		.byte	43
 4069 0040 2C       		.byte	44
 4070 0041 2D       		.byte	45
 4071 0042 2E       		.byte	46
 4072 0043 2F       		.byte	47
 4073 0044 30       		.byte	48
 4074 0045 31       		.byte	49
 4075 0046 32       		.byte	50
 4076 0047 33       		.byte	51
 4077 0048 34       		.byte	52
 4078 0049 35       		.byte	53
 4079 004a 36       		.byte	54
 4080 004b 37       		.byte	55
 4081 004c 38       		.byte	56
 4082 004d 39       		.byte	57
 4083 004e 3A       		.byte	58
 4084 004f 3B       		.byte	59
 4085 0050 3C       		.byte	60
 4086 0051 3D       		.byte	61
 4087 0052 3E       		.byte	62
 4088 0053 3F       		.byte	63
 4089              		.section	.rodata.TEST_Full_OTA_PAL_TEAR_DOWN.str1.1,"aMS",%progbits,1
 4090              	.LC0:
 4091 0000 4572726F 		.ascii	"Error aborting xOtaFile with code: %d\000"
 4091      72206162 
 4091      6F727469 
 4091      6E672078 
 4091      4F746146 
 4092              		.section	.rodata.TEST_Full_OTA_PAL_prvPAL_Abort_FileWithBlockWritten_run.str1.1,"aMS",%progbits,1
 4093              	.LC27:
 4094 0000 54455354 		.ascii	"TEST(Full_OTA_PAL, prvPAL_Abort_FileWithBlockWritte"
 4094      2846756C 
 4094      6C5F4F54 
 4094      415F5041 
 4094      4C2C2070 
 4095 0033 6E2900   		.ascii	"n)\000"
 4096              	.LC28:
 4097 0036 70727650 		.ascii	"prvPAL_Abort_FileWithBlockWritten\000"
 4097      414C5F41 
 4097      626F7274 
 4097      5F46696C 
 4097      65576974 
 4098              		.section	.rodata.TEST_Full_OTA_PAL_prvPAL_Abort_NonExistentFile_.str1.1,"aMS",%progbits,1
 4099              	.LC2:
 4100 0000 6E6F6E65 		.ascii	"nonexistingfile.bin\000"
 4100      78697374 
 4100      696E6766 
 4100      696C652E 
 4100      62696E00 
 4101              		.section	.rodata.TEST_Full_OTA_PAL_prvPAL_Abort_NonExistentFile_run.str1.1,"aMS",%progbits,1
 4102              	.LC31:
 4103 0000 54455354 		.ascii	"TEST(Full_OTA_PAL, prvPAL_Abort_NonExistentFile)\000"
 4103      2846756C 
 4103      6C5F4F54 
 4103      415F5041 
 4103      4C2C2070 
 4104              	.LC32:
 4105 0031 70727650 		.ascii	"prvPAL_Abort_NonExistentFile\000"
 4105      414C5F41 
 4105      626F7274 
 4105      5F4E6F6E 
 4105      45786973 
 4106              		.section	.rodata.TEST_Full_OTA_PAL_prvPAL_Abort_NullFileHandle_run.str1.1,"aMS",%progbits,1
 4107              	.LC29:
 4108 0000 54455354 		.ascii	"TEST(Full_OTA_PAL, prvPAL_Abort_NullFileHandle)\000"
 4108      2846756C 
 4108      6C5F4F54 
 4108      415F5041 
 4108      4C2C2070 
 4109              	.LC30:
 4110 0030 70727650 		.ascii	"prvPAL_Abort_NullFileHandle\000"
 4110      414C5F41 
 4110      626F7274 
 4110      5F4E756C 
 4110      6C46696C 
 4111              		.section	.rodata.TEST_Full_OTA_PAL_prvPAL_Abort_OpenFile_run.str1.1,"aMS",%progbits,1
 4112              	.LC25:
 4113 0000 54455354 		.ascii	"TEST(Full_OTA_PAL, prvPAL_Abort_OpenFile)\000"
 4113      2846756C 
 4113      6C5F4F54 
 4113      415F5041 
 4113      4C2C2070 
 4114              	.LC26:
 4115 002a 70727650 		.ascii	"prvPAL_Abort_OpenFile\000"
 4115      414C5F41 
 4115      626F7274 
 4115      5F4F7065 
 4115      6E46696C 
 4116              		.section	.rodata.TEST_Full_OTA_PAL_prvPAL_ActivateNewImage_run.str1.1,"aMS",%progbits,1
 4117              	.LC37:
 4118 0000 54455354 		.ascii	"TEST(Full_OTA_PAL, prvPAL_ActivateNewImage)\000"
 4118      2846756C 
 4118      6C5F4F54 
 4118      415F5041 
 4118      4C2C2070 
 4119              	.LC38:
 4120 002c 70727650 		.ascii	"prvPAL_ActivateNewImage\000"
 4120      414C5F41 
 4120      63746976 
 4120      6174654E 
 4120      6577496D 
 4121              		.section	.rodata.TEST_Full_OTA_PAL_prvPAL_CheckFileSignature_InvalidSignatureBlockWritten_run.str1
 4122              	.LC59:
 4123 0000 54455354 		.ascii	"TEST(Full_OTA_PAL, prvPAL_CheckFileSignature_Invali"
 4123      2846756C 
 4123      6C5F4F54 
 4123      415F5041 
 4123      4C2C2070 
 4124 0033 64536967 		.ascii	"dSignatureBlockWritten)\000"
 4124      6E617475 
 4124      7265426C 
 4124      6F636B57 
 4124      72697474 
 4125              	.LC60:
 4126 004b 70727650 		.ascii	"prvPAL_CheckFileSignature_InvalidSignatureBlockWrit"
 4126      414C5F43 
 4126      6865636B 
 4126      46696C65 
 4126      5369676E 
 4127 007e 74656E00 		.ascii	"ten\000"
 4128              		.section	.rodata.TEST_Full_OTA_PAL_prvPAL_CheckFileSignature_InvalidSignatureNoBlockWritten_run.st
 4129              	.LC61:
 4130 0000 54455354 		.ascii	"TEST(Full_OTA_PAL, prvPAL_CheckFileSignature_Invali"
 4130      2846756C 
 4130      6C5F4F54 
 4130      415F5041 
 4130      4C2C2070 
 4131 0033 64536967 		.ascii	"dSignatureNoBlockWritten)\000"
 4131      6E617475 
 4131      72654E6F 
 4131      426C6F63 
 4131      6B577269 
 4132              	.LC62:
 4133 004d 70727650 		.ascii	"prvPAL_CheckFileSignature_InvalidSignatureNoBlockWr"
 4133      414C5F43 
 4133      6865636B 
 4133      46696C65 
 4133      5369676E 
 4134 0080 69747465 		.ascii	"itten\000"
 4134      6E00
 4135              		.section	.rodata.TEST_Full_OTA_PAL_prvPAL_CheckFileSignature_NonexistingCodeSignerCertificate_run.
 4136              	.LC63:
 4137 0000 54455354 		.ascii	"TEST(Full_OTA_PAL, prvPAL_CheckFileSignature_Nonexi"
 4137      2846756C 
 4137      6C5F4F54 
 4137      415F5041 
 4137      4C2C2070 
 4138 0033 7374696E 		.ascii	"stingCodeSignerCertificate)\000"
 4138      67436F64 
 4138      65536967 
 4138      6E657243 
 4138      65727469 
 4139              	.LC64:
 4140 004f 70727650 		.ascii	"prvPAL_CheckFileSignature_NonexistingCodeSignerCert"
 4140      414C5F43 
 4140      6865636B 
 4140      46696C65 
 4140      5369676E 
 4141 0082 69666963 		.ascii	"ificate\000"
 4141      61746500 
 4142              		.section	.rodata.TEST_Full_OTA_PAL_prvPAL_CheckFileSignature_ValidSignature_run.str1.1,"aMS",%prog
 4143              	.LC57:
 4144 0000 54455354 		.ascii	"TEST(Full_OTA_PAL, prvPAL_CheckFileSignature_ValidS"
 4144      2846756C 
 4144      6C5F4F54 
 4144      415F5041 
 4144      4C2C2070 
 4145 0033 69676E61 		.ascii	"ignature)\000"
 4145      74757265 
 4145      2900
 4146              	.LC58:
 4147 003d 70727650 		.ascii	"prvPAL_CheckFileSignature_ValidSignature\000"
 4147      414C5F43 
 4147      6865636B 
 4147      46696C65 
 4147      5369676E 
 4148              		.section	.rodata.TEST_Full_OTA_PAL_prvPAL_CloseFile_InvalidSignatureBlockWritten_.str1.1,"aMS",%pr
 4149              	.LC5:
 4150 0000 20457870 		.ascii	" Expected TRUE Was FALSE\000"
 4150      65637465 
 4150      64205452 
 4150      55452057 
 4150      61732046 
 4151              		.section	.rodata.TEST_Full_OTA_PAL_prvPAL_CloseFile_InvalidSignatureBlockWritten_run.str1.1,"aMS",
 4152              	.LC17:
 4153 0000 54455354 		.ascii	"TEST(Full_OTA_PAL, prvPAL_CloseFile_InvalidSignatur"
 4153      2846756C 
 4153      6C5F4F54 
 4153      415F5041 
 4153      4C2C2070 
 4154 0033 65426C6F 		.ascii	"eBlockWritten)\000"
 4154      636B5772 
 4154      69747465 
 4154      6E2900
 4155              	.LC18:
 4156 0042 70727650 		.ascii	"prvPAL_CloseFile_InvalidSignatureBlockWritten\000"
 4156      414C5F43 
 4156      6C6F7365 
 4156      46696C65 
 4156      5F496E76 
 4157              		.section	.rodata.TEST_Full_OTA_PAL_prvPAL_CloseFile_InvalidSignatureNoBlockWritten_run.str1.1,"aMS
 4158              	.LC19:
 4159 0000 54455354 		.ascii	"TEST(Full_OTA_PAL, prvPAL_CloseFile_InvalidSignatur"
 4159      2846756C 
 4159      6C5F4F54 
 4159      415F5041 
 4159      4C2C2070 
 4160 0033 654E6F42 		.ascii	"eNoBlockWritten)\000"
 4160      6C6F636B 
 4160      57726974 
 4160      74656E29 
 4160      00
 4161              	.LC20:
 4162 0044 70727650 		.ascii	"prvPAL_CloseFile_InvalidSignatureNoBlockWritten\000"
 4162      414C5F43 
 4162      6C6F7365 
 4162      46696C65 
 4162      5F496E76 
 4163              		.section	.rodata.TEST_Full_OTA_PAL_prvPAL_CloseFile_NonexistingCodeSignerCertificate_.str1.1,"aMS"
 4164              	.LC6:
 4165 0000 6E6F6E65 		.ascii	"nonexistingfile.crt\000"
 4165      78697374 
 4165      696E6766 
 4165      696C652E 
 4165      63727400 
 4166              		.section	.rodata.TEST_Full_OTA_PAL_prvPAL_CloseFile_NonexistingCodeSignerCertificate_run.str1.1,"a
 4167              	.LC21:
 4168 0000 54455354 		.ascii	"TEST(Full_OTA_PAL, prvPAL_CloseFile_NonexistingCode"
 4168      2846756C 
 4168      6C5F4F54 
 4168      415F5041 
 4168      4C2C2070 
 4169 0033 5369676E 		.ascii	"SignerCertificate)\000"
 4169      65724365 
 4169      72746966 
 4169      69636174 
 4169      652900
 4170              	.LC22:
 4171 0046 70727650 		.ascii	"prvPAL_CloseFile_NonexistingCodeSignerCertificate\000"
 4171      414C5F43 
 4171      6C6F7365 
 4171      46696C65 
 4171      5F4E6F6E 
 4172              		.section	.rodata.TEST_Full_OTA_PAL_prvPAL_CloseFile_ValidSignatureKeyInFlash_.str1.1,"aMS",%progbi
 4173              	.LC14:
 4174 0000 436F6465 		.ascii	"Code Verify Key\000"
 4174      20566572 
 4174      69667920 
 4174      4B657900 
 4175              		.section	.rodata.TEST_Full_OTA_PAL_prvPAL_CloseFile_ValidSignatureKeyInFlash_run.str1.1,"aMS",%pro
 4176              	.LC15:
 4177 0000 54455354 		.ascii	"TEST(Full_OTA_PAL, prvPAL_CloseFile_ValidSignatureK"
 4177      2846756C 
 4177      6C5F4F54 
 4177      415F5041 
 4177      4C2C2070 
 4178 0033 6579496E 		.ascii	"eyInFlash)\000"
 4178      466C6173 
 4178      682900
 4179              	.LC16:
 4180 003e 70727650 		.ascii	"prvPAL_CloseFile_ValidSignatureKeyInFlash\000"
 4180      414C5F43 
 4180      6C6F7365 
 4180      46696C65 
 4180      5F56616C 
 4181              		.section	.rodata.TEST_Full_OTA_PAL_prvPAL_CloseFile_ValidSignature_.str1.1,"aMS",%progbits,1
 4182              	.LC3:
 4183 0000 74657374 		.ascii	"test_happy_path_image.bin\000"
 4183      5F686170 
 4183      70795F70 
 4183      6174685F 
 4183      696D6167 
 4184              	.LC4:
 4185 001a 65636473 		.ascii	"ecdsa-sha256-signer.crt.pem\000"
 4185      612D7368 
 4185      61323536 
 4185      2D736967 
 4185      6E65722E 
 4186              		.section	.rodata.TEST_Full_OTA_PAL_prvPAL_CloseFile_ValidSignature_run.str1.1,"aMS",%progbits,1
 4187              	.LC10:
 4188 0000 54455354 		.ascii	"TEST(Full_OTA_PAL, prvPAL_CloseFile_ValidSignature)"
 4188      2846756C 
 4188      6C5F4F54 
 4188      415F5041 
 4188      4C2C2070 
 4189 0033 00       		.ascii	"\000"
 4190              	.LC11:
 4191 0034 443A2F57 		.ascii	"D:/Work/DeviceTester/amazon-freertos/tests/common/o"
 4191      6F726B2F 
 4191      44657669 
 4191      63655465 
 4191      73746572 
 4192 0067 74612F61 		.ascii	"ta/aws_test_ota_pal.c\000"
 4192      77735F74 
 4192      6573745F 
 4192      6F74615F 
 4192      70616C2E 
 4193              	.LC12:
 4194 007d 70727650 		.ascii	"prvPAL_CloseFile_ValidSignature\000"
 4194      414C5F43 
 4194      6C6F7365 
 4194      46696C65 
 4194      5F56616C 
 4195              	.LC13:
 4196 009d 46756C6C 		.ascii	"Full_OTA_PAL\000"
 4196      5F4F5441 
 4196      5F50414C 
 4196      00
 4197              		.section	.rodata.TEST_Full_OTA_PAL_prvPAL_CreateFileForRx_CreateAnyFile_.str1.1,"aMS",%progbits,1
 4198              	.LC1:
 4199 0000 64756D6D 		.ascii	"dummy.bin\000"
 4199      792E6269 
 4199      6E00
 4200              		.section	.rodata.TEST_Full_OTA_PAL_prvPAL_CreateFileForRx_CreateAnyFile_run.str1.1,"aMS",%progbits
 4201              	.LC23:
 4202 0000 54455354 		.ascii	"TEST(Full_OTA_PAL, prvPAL_CreateFileForRx_CreateAny"
 4202      2846756C 
 4202      6C5F4F54 
 4202      415F5041 
 4202      4C2C2070 
 4203 0033 46696C65 		.ascii	"File)\000"
 4203      2900
 4204              	.LC24:
 4205 0039 70727650 		.ascii	"prvPAL_CreateFileForRx_CreateAnyFile\000"
 4205      414C5F43 
 4205      72656174 
 4205      6546696C 
 4205      65466F72 
 4206              		.section	.rodata.TEST_Full_OTA_PAL_prvPAL_GetPlatformImageState_InvalidImageStateFromFileCloseFail
 4207              	.LC7:
 4208 0000 20457870 		.ascii	" Expression Evaluated To FALSE\000"
 4208      72657373 
 4208      696F6E20 
 4208      4576616C 
 4208      75617465 
 4209              		.section	.rodata.TEST_Full_OTA_PAL_prvPAL_GetPlatformImageState_InvalidImageStateFromFileCloseFail
 4210              	.LC51:
 4211 0000 54455354 		.ascii	"TEST(Full_OTA_PAL, prvPAL_GetPlatformImageState_Inv"
 4211      2846756C 
 4211      6C5F4F54 
 4211      415F5041 
 4211      4C2C2070 
 4212 0033 616C6964 		.ascii	"alidImageStateFromFileCloseFailure)\000"
 4212      496D6167 
 4212      65537461 
 4212      74654672 
 4212      6F6D4669 
 4213              	.LC52:
 4214 0057 70727650 		.ascii	"prvPAL_GetPlatformImageState_InvalidImageStateFromF"
 4214      414C5F47 
 4214      6574506C 
 4214      6174666F 
 4214      726D496D 
 4215 008a 696C6543 		.ascii	"ileCloseFailure\000"
 4215      6C6F7365 
 4215      4661696C 
 4215      75726500 
 4216              		.section	.rodata.TEST_Full_OTA_PAL_prvPAL_ReadAndAssumeCertificate_ExistingFile_run.str1.1,"aMS",%
 4217              	.LC53:
 4218 0000 54455354 		.ascii	"TEST(Full_OTA_PAL, prvPAL_ReadAndAssumeCertificate_"
 4218      2846756C 
 4218      6C5F4F54 
 4218      415F5041 
 4218      4C2C2070 
 4219 0033 45786973 		.ascii	"ExistingFile)\000"
 4219      74696E67 
 4219      46696C65 
 4219      2900
 4220              	.LC54:
 4221 0041 70727650 		.ascii	"prvPAL_ReadAndAssumeCertificate_ExistingFile\000"
 4221      414C5F52 
 4221      65616441 
 4221      6E644173 
 4221      73756D65 
 4222              		.section	.rodata.TEST_Full_OTA_PAL_prvPAL_ReadAndAssumeCertificate_NonexistentFile_.str1.1,"aMS",%
 4223              	.LC8:
 4224 0000 6E6F6E2D 		.ascii	"non-existing-file.pem\000"
 4224      65786973 
 4224      74696E67 
 4224      2D66696C 
 4224      652E7065 
 4225              	.LC9:
 4226 0016 54686520 		.ascii	"The returned certificate is NULL.\000"
 4226      72657475 
 4226      726E6564 
 4226      20636572 
 4226      74696669 
 4227              		.section	.rodata.TEST_Full_OTA_PAL_prvPAL_ReadAndAssumeCertificate_NonexistentFile_run.str1.1,"aMS
 4228              	.LC55:
 4229 0000 54455354 		.ascii	"TEST(Full_OTA_PAL, prvPAL_ReadAndAssumeCertificate_"
 4229      2846756C 
 4229      6C5F4F54 
 4229      415F5041 
 4229      4C2C2070 
 4230 0033 4E6F6E65 		.ascii	"NonexistentFile)\000"
 4230      78697374 
 4230      656E7446 
 4230      696C6529 
 4230      00
 4231              	.LC56:
 4232 0044 70727650 		.ascii	"prvPAL_ReadAndAssumeCertificate_NonexistentFile\000"
 4232      414C5F52 
 4232      65616441 
 4232      6E644173 
 4232      73756D65 
 4233              		.section	.rodata.TEST_Full_OTA_PAL_prvPAL_SetPlatformImageState_AbortImageState_run.str1.1,"aMS",%
 4234              	.LC49:
 4235 0000 54455354 		.ascii	"TEST(Full_OTA_PAL, prvPAL_SetPlatformImageState_Abo"
 4235      2846756C 
 4235      6C5F4F54 
 4235      415F5041 
 4235      4C2C2070 
 4236 0033 7274496D 		.ascii	"rtImageState)\000"
 4236      61676553 
 4236      74617465 
 4236      2900
 4237              	.LC50:
 4238 0041 70727650 		.ascii	"prvPAL_SetPlatformImageState_AbortImageState\000"
 4238      414C5F53 
 4238      6574506C 
 4238      6174666F 
 4238      726D496D 
 4239              		.section	.rodata.TEST_Full_OTA_PAL_prvPAL_SetPlatformImageState_AcceptedImageStateButImageNotClose
 4240              	.LC45:
 4241 0000 54455354 		.ascii	"TEST(Full_OTA_PAL, prvPAL_SetPlatformImageState_Acc"
 4241      2846756C 
 4241      6C5F4F54 
 4241      415F5041 
 4241      4C2C2070 
 4242 0033 65707465 		.ascii	"eptedImageStateButImageNotClosed)\000"
 4242      64496D61 
 4242      67655374 
 4242      61746542 
 4242      7574496D 
 4243              	.LC46:
 4244 0055 70727650 		.ascii	"prvPAL_SetPlatformImageState_AcceptedImageStateButI"
 4244      414C5F53 
 4244      6574506C 
 4244      6174666F 
 4244      726D496D 
 4245 0088 6D616765 		.ascii	"mageNotClosed\000"
 4245      4E6F7443 
 4245      6C6F7365 
 4245      6400
 4246              		.section	.rodata.TEST_Full_OTA_PAL_prvPAL_SetPlatformImageState_InvalidImageState_run.str1.1,"aMS"
 4247              	.LC41:
 4248 0000 54455354 		.ascii	"TEST(Full_OTA_PAL, prvPAL_SetPlatformImageState_Inv"
 4248      2846756C 
 4248      6C5F4F54 
 4248      415F5041 
 4248      4C2C2070 
 4249 0033 616C6964 		.ascii	"alidImageState)\000"
 4249      496D6167 
 4249      65537461 
 4249      74652900 
 4250              	.LC42:
 4251 0043 70727650 		.ascii	"prvPAL_SetPlatformImageState_InvalidImageState\000"
 4251      414C5F53 
 4251      6574506C 
 4251      6174666F 
 4251      726D496D 
 4252              		.section	.rodata.TEST_Full_OTA_PAL_prvPAL_SetPlatformImageState_RejectImageState_run.str1.1,"aMS",
 4253              	.LC47:
 4254 0000 54455354 		.ascii	"TEST(Full_OTA_PAL, prvPAL_SetPlatformImageState_Rej"
 4254      2846756C 
 4254      6C5F4F54 
 4254      415F5041 
 4254      4C2C2070 
 4255 0033 65637449 		.ascii	"ectImageState)\000"
 4255      6D616765 
 4255      53746174 
 4255      652900
 4256              	.LC48:
 4257 0042 70727650 		.ascii	"prvPAL_SetPlatformImageState_RejectImageState\000"
 4257      414C5F53 
 4257      6574506C 
 4257      6174666F 
 4257      726D496D 
 4258              		.section	.rodata.TEST_Full_OTA_PAL_prvPAL_SetPlatformImageState_SelfTestImageState_run.str1.1,"aMS
 4259              	.LC39:
 4260 0000 54455354 		.ascii	"TEST(Full_OTA_PAL, prvPAL_SetPlatformImageState_Sel"
 4260      2846756C 
 4260      6C5F4F54 
 4260      415F5041 
 4260      4C2C2070 
 4261 0033 66546573 		.ascii	"fTestImageState)\000"
 4261      74496D61 
 4261      67655374 
 4261      61746529 
 4261      00
 4262              	.LC40:
 4263 0044 70727650 		.ascii	"prvPAL_SetPlatformImageState_SelfTestImageState\000"
 4263      414C5F53 
 4263      6574506C 
 4263      6174666F 
 4263      726D496D 
 4264              		.section	.rodata.TEST_Full_OTA_PAL_prvPAL_SetPlatformImageState_UnknownImageState_run.str1.1,"aMS"
 4265              	.LC43:
 4266 0000 54455354 		.ascii	"TEST(Full_OTA_PAL, prvPAL_SetPlatformImageState_Unk"
 4266      2846756C 
 4266      6C5F4F54 
 4266      415F5041 
 4266      4C2C2070 
 4267 0033 6E6F776E 		.ascii	"nownImageState)\000"
 4267      496D6167 
 4267      65537461 
 4267      74652900 
 4268              	.LC44:
 4269 0043 70727650 		.ascii	"prvPAL_SetPlatformImageState_UnknownImageState\000"
 4269      414C5F53 
 4269      6574506C 
 4269      6174666F 
 4269      726D496D 
 4270              		.section	.rodata.TEST_Full_OTA_PAL_prvPAL_WriteBlock_WriteManyBlocks_run.str1.1,"aMS",%progbits,1
 4271              	.LC35:
 4272 0000 54455354 		.ascii	"TEST(Full_OTA_PAL, prvPAL_WriteBlock_WriteManyBlock"
 4272      2846756C 
 4272      6C5F4F54 
 4272      415F5041 
 4272      4C2C2070 
 4273 0033 732900   		.ascii	"s)\000"
 4274              	.LC36:
 4275 0036 70727650 		.ascii	"prvPAL_WriteBlock_WriteManyBlocks\000"
 4275      414C5F57 
 4275      72697465 
 4275      426C6F63 
 4275      6B5F5772 
 4276              		.section	.rodata.TEST_Full_OTA_PAL_prvPAL_WriteBlock_WriteSingleByte_run.str1.1,"aMS",%progbits,1
 4277              	.LC33:
 4278 0000 54455354 		.ascii	"TEST(Full_OTA_PAL, prvPAL_WriteBlock_WriteSingleByt"
 4278      2846756C 
 4278      6C5F4F54 
 4278      415F5041 
 4278      4C2C2070 
 4279 0033 652900   		.ascii	"e)\000"
 4280              	.LC34:
 4281 0036 70727650 		.ascii	"prvPAL_WriteBlock_WriteSingleByte\000"
 4281      414C5F57 
 4281      72697465 
 4281      426C6F63 
 4281      6B5F5772 
 4282              		.section	.rodata.signingcredentialSIGNING_CERTIFICATE_PEM,"a",%progbits
 4283              		.set	.LANCHOR4,. + 0
 4286              	signingcredentialSIGNING_CERTIFICATE_PEM:
 4287 0000 2D2D2D2D 		.ascii	"-----BEGIN CERTIFICATE-----\012MIICbDCCAhECFBcot3kD"
 4287      2D424547 
 4287      494E2043 
 4287      45525449 
 4287      46494341 
 4288 0030 386C4B73 		.ascii	"8lKsRx/XZeUEKSj9lCwUMAoGCCqGSM49BAMCMIG3MQsw\012CQY"
 4288      52782F58 
 4288      5A655545 
 4288      4B536A39 
 4288      6C437755 
 4289 0060 44565151 		.ascii	"DVQQGEwJKUDEOMAwGA1UECAwFVG9reW8xEDAOBgNVBAcMB0tvZG"
 4289      4745774A 
 4289      4B554445 
 4289      4F4D4177 
 4289      47413155 
 4290 0093 4670636D 		.ascii	"FpcmExHDAa\012BgNVBAoME1JlbmVzYXMgRWxlY3Ryb25pY3MxJ"
 4290      45784844 
 4290      41610A42 
 4290      674E5642 
 4290      416F4D45 
 4291 00c3 6A416B42 		.ascii	"jAkBgNVBAsMHVNvZnR3YXJlIERl\012dmVsb3BtZW50IERpdmlz"
 4291      674E5642 
 4291      41734D48 
 4291      564E765A 
 4291      6E523359 
 4292 00f3 61573975 		.ascii	"aW9uMREwDwYDVQQDDAhIYWdpbW90bzEtMCsGCSqGSIb3\012DQE"
 4292      4D524577 
 4292      44775944 
 4292      56515144 
 4292      44416849 
 4293 0123 4A415259 		.ascii	"JARYecnlvaGVpLmhhZ2ltb3RvLnZ4QHJlbmVzYXMuY29tMB4XDT"
 4293      65636E6C 
 4293      76614756 
 4293      704C6D68 
 4293      685A326C 
 4294 0156 49774D44 		.ascii	"IwMDQxNTAw\012NDExNVoXDTMwMDQxMzAwNDExNVowgbcxCzAJB"
 4294      51784E54 
 4294      41770A4E 
 4294      4445784E 
 4294      566F5844 
 4295 0186 674E5642 		.ascii	"gNVBAYTAkpQMQ4wDAYDVQQIDAVU\012b2t5bzEQMA4GA1UEBwwH"
 4295      41595441 
 4295      6B70514D 
 4295      51347744 
 4295      41594456 
 4296 01b6 5332396B 		.ascii	"S29kYWlyYTEcMBoGA1UECgwTUmVuZXNhcyBFbGVjdHJv\012bml"
 4296      59576C79 
 4296      59544563 
 4296      4D426F47 
 4296      41315545 
 4297 01e6 6A637A45 		.ascii	"jczEmMCQGA1UECwwdU29mdHdhcmUgRGV2ZWxvcG1lbnQgRGl2aX"
 4297      6D4D4351 
 4297      47413155 
 4297      45437777 
 4297      64553239 
 4298 0219 4E706232 		.ascii	"Npb24xETAP\012BgNVBAMMCEhhZ2ltb3RvMS0wKwYJKoZIhvcNA"
 4298      34784554 
 4298      41500A42 
 4298      674E5642 
 4298      414D4D43 
 4299 0249 516B4246 		.ascii	"QkBFh5yeW9oZWkuaGFnaW1vdG8u\012dnhAcmVuZXNhcy5jb20w"
 4299      68357965 
 4299      57396F5A 
 4299      576B7561 
 4299      47466E61 
 4300 0279 57544154 		.ascii	"WTATBgcqhkjOPQIBBggqhkjOPQMBBwNCAAQd6+7JBu59\012rLf"
 4300      42676371 
 4300      686B6A4F 
 4300      50514942 
 4300      42676771 
 4301 02a9 676F4250 		.ascii	"goBPOSot30XrIEgpvAFgxiso9ndzY231adDcjyTfgRQM3tDCp3A"
 4301      4F536F74 
 4301      33305872 
 4301      49456770 
 4301      76414667 
 4302 02dc 34684D6F 		.ascii	"4hMoJEOVK+\012v0KhYsFH2O3bMAoGCCqGSM49BAMCA0kAMEYCI"
 4302      4A454F56 
 4302      4B2B0A76 
 4302      304B6859 
 4302      73464832 
 4303 030c 51444848 		.ascii	"QDHHOAbUPSt8FMw01SrkQeyVy6Q\0125XAdhqteHjtciRPyOwIh"
 4303      4F416255 
 4303      50537438 
 4303      464D7730 
 4303      3153726B 
 4304 033c 41503449 		.ascii	"AP4I9O8359rqWMa0Mu4bExhIe94IbCJ/sX9sf9fTUCNa\012---"
 4304      394F3833 
 4304      35397271 
 4304      574D6130 
 4304      4D753462 
 4305 036c 2D2D454E 		.ascii	"--END CERTIFICATE-----\012\000"
 4305      44204345 
 4305      52544946 
 4305      49434154 
 4305      452D2D2D 
 4306              		.section	.rodata.ucInvalidSignature,"a",%progbits
 4307              		.set	.LANCHOR3,. + 0
 4310              	ucInvalidSignature:
 4311 0000 30       		.byte	48
 4312 0001 44       		.byte	68
 4313 0002 02       		.byte	2
 4314 0003 20       		.byte	32
 4315 0004 75       		.byte	117
 4316 0005 DE       		.byte	-34
 4317 0006 A8       		.byte	-88
 4318 0007 1F       		.byte	31
 4319 0008 CA       		.byte	-54
 4320 0009 EC       		.byte	-20
 4321 000a FF       		.byte	-1
 4322 000b 16       		.byte	22
 4323 000c BB       		.byte	-69
 4324 000d 38       		.byte	56
 4325 000e 4B       		.byte	75
 4326 000f E3       		.byte	-29
 4327 0010 14       		.byte	20
 4328 0011 E7       		.byte	-25
 4329 0012 FB       		.byte	-5
 4330 0013 68       		.byte	104
 4331 0014 F5       		.byte	-11
 4332 0015 3E       		.byte	62
 4333 0016 86       		.byte	-122
 4334 0017 A2       		.byte	-94
 4335 0018 71       		.byte	113
 4336 0019 BA       		.byte	-70
 4337 001a 9E       		.byte	-98
 4338 001b 5E       		.byte	94
 4339 001c 50       		.byte	80
 4340 001d BF       		.byte	-65
 4341 001e B2       		.byte	-78
 4342 001f 7A       		.byte	122
 4343 0020 9E       		.byte	-98
 4344 0021 00       		.byte	0
 4345 0022 C6       		.byte	-58
 4346 0023 4D       		.byte	77
 4347 0024 02       		.byte	2
 4348 0025 20       		.byte	32
 4349 0026 19       		.byte	25
 4350 0027 72       		.byte	114
 4351 0028 42       		.byte	66
 4352 0029 85       		.byte	-123
 4353 002a 2A       		.byte	42
 4354 002b AC       		.byte	-84
 4355 002c DF       		.byte	-33
 4356 002d 5A       		.byte	90
 4357 002e 5E       		.byte	94
 4358 002f FA       		.byte	-6
 4359 0030 AD       		.byte	-83
 4360 0031 49       		.byte	73
 4361 0032 17       		.byte	23
 4362 0033 5B       		.byte	91
 4363 0034 CE       		.byte	-50
 4364 0035 5B       		.byte	91
 4365 0036 65       		.byte	101
 4366 0037 75       		.byte	117
 4367 0038 08       		.byte	8
 4368 0039 47       		.byte	71
 4369 003a 3E       		.byte	62
 4370 003b 55       		.byte	85
 4371 003c F9       		.byte	-7
 4372 003d 0E       		.byte	14
 4373 003e DF       		.byte	-33
 4374 003f 9E       		.byte	-98
 4375 0040 8C       		.byte	-116
 4376 0041 DC       		.byte	-36
 4377 0042 95       		.byte	-107
 4378 0043 DF       		.byte	-33
 4379 0044 63       		.byte	99
 4380 0045 D2       		.byte	-46
 4381              		.section	.rodata.ucValidSignature,"a",%progbits
 4382              		.set	.LANCHOR2,. + 0
 4385              	ucValidSignature:
 4386 0000 30       		.byte	48
 4387 0001 44       		.byte	68
 4388 0002 02       		.byte	2
 4389 0003 20       		.byte	32
 4390 0004 15       		.byte	21
 4391 0005 6A       		.byte	106
 4392 0006 68       		.byte	104
 4393 0007 98       		.byte	-104
 4394 0008 F0       		.byte	-16
 4395 0009 4E       		.byte	78
 4396 000a 1E       		.byte	30
 4397 000b 12       		.byte	18
 4398 000c 4C       		.byte	76
 4399 000d C4       		.byte	-60
 4400 000e F1       		.byte	-15
 4401 000f 05       		.byte	5
 4402 0010 22       		.byte	34
 4403 0011 36       		.byte	54
 4404 0012 FD       		.byte	-3
 4405 0013 B4       		.byte	-76
 4406 0014 E5       		.byte	-27
 4407 0015 5D       		.byte	93
 4408 0016 83       		.byte	-125
 4409 0017 08       		.byte	8
 4410 0018 2A       		.byte	42
 4411 0019 F3       		.byte	-13
 4412 001a A6       		.byte	-90
 4413 001b 7D       		.byte	125
 4414 001c 32       		.byte	50
 4415 001d 6B       		.byte	107
 4416 001e FF       		.byte	-1
 4417 001f 85       		.byte	-123
 4418 0020 27       		.byte	39
 4419 0021 14       		.byte	20
 4420 0022 9B       		.byte	-101
 4421 0023 BF       		.byte	-65
 4422 0024 02       		.byte	2
 4423 0025 20       		.byte	32
 4424 0026 26       		.byte	38
 4425 0027 7D       		.byte	125
 4426 0028 5F       		.byte	95
 4427 0029 4D       		.byte	77
 4428 002a 12       		.byte	18
 4429 002b AB       		.byte	-85
 4430 002c EC       		.byte	-20
 4431 002d 17       		.byte	23
 4432 002e D8       		.byte	-40
 4433 002f 45       		.byte	69
 4434 0030 C6       		.byte	-58
 4435 0031 3D       		.byte	61
 4436 0032 8E       		.byte	-114
 4437 0033 D8       		.byte	-40
 4438 0034 8D       		.byte	-115
 4439 0035 3F       		.byte	63
 4440 0036 28       		.byte	40
 4441 0037 26       		.byte	38
 4442 0038 FD       		.byte	-3
 4443 0039 CE       		.byte	-50
 4444 003a 32       		.byte	50
 4445 003b 34       		.byte	52
 4446 003c 17       		.byte	23
 4447 003d 05       		.byte	5
 4448 003e 47       		.byte	71
 4449 003f B2       		.byte	-78
 4450 0040 F6       		.byte	-10
 4451 0041 84       		.byte	-124
 4452 0042 D5       		.byte	-43
 4453 0043 68       		.byte	104
 4454 0044 3E       		.byte	62
 4455 0045 36       		.byte	54
 4456              		.text
 4457              	.Letext0:
 4458              		.file 2 "c:\\program files (x86)\\gnu tools arm embedded\\6 2017-q2-update\\arm-none-eabi\\include
 4459              		.file 3 "c:\\program files (x86)\\gnu tools arm embedded\\6 2017-q2-update\\arm-none-eabi\\include
 4460              		.file 4 "c:\\program files (x86)\\gnu tools arm embedded\\6 2017-q2-update\\lib\\gcc\\arm-none-eab
 4461              		.file 5 "c:\\program files (x86)\\gnu tools arm embedded\\6 2017-q2-update\\arm-none-eabi\\include
 4462              		.file 6 "c:\\program files (x86)\\gnu tools arm embedded\\6 2017-q2-update\\arm-none-eabi\\include
 4463              		.file 7 "c:\\program files (x86)\\gnu tools arm embedded\\6 2017-q2-update\\arm-none-eabi\\include
 4464              		.file 8 "c:\\program files (x86)\\gnu tools arm embedded\\6 2017-q2-update\\arm-none-eabi\\include
 4465              		.file 9 "c:\\program files (x86)\\gnu tools arm embedded\\6 2017-q2-update\\arm-none-eabi\\include
 4466              		.file 10 "D:\\Work\\DeviceTester\\amazon-freertos\\lib\\third_party\\unity\\src/unity_internals.h"
 4467              		.file 11 "D:\\Work\\DeviceTester\\amazon-freertos\\lib\\FreeRTOS\\portable\\GCC\\ARM_CA9_RZA2M/por
 4468              		.file 12 "c:\\program files (x86)\\gnu tools arm embedded\\6 2017-q2-update\\arm-none-eabi\\includ
 4469              		.file 13 "D:\\Work\\DeviceTester\\amazon-freertos\\lib\\third_party\\unity\\extras\\fixture\\src/u
 4470              		.file 14 "D:\\Work\\DeviceTester\\amazon-freertos\\lib\\include/timers.h"
 4471              		.file 15 "D:\\Work\\DeviceTester\\amazon-freertos\\lib\\include/aws_ota_agent.h"
 4472              		.file 16 "D:\\Work\\DeviceTester\\amazon-freertos\\tests\\common\\ota/aws_test_ota_pal_ecdsa_sha25
 4473              		.file 17 "D:\\Work\\DeviceTester\\amazon-freertos\\lib\\include\\private/aws_ota_pal.h"
 4474              		.file 18 "D:\\Work\\DeviceTester\\amazon-freertos\\lib\\third_party\\pkcs11/pkcs11t.h"
 4475              		.file 19 "D:\\Work\\DeviceTester\\amazon-freertos\\lib\\third_party\\pkcs11/pkcs11.h"
 4476              		.file 20 "D:\\Work\\DeviceTester\\amazon-freertos\\lib\\third_party\\pkcs11/pkcs11f.h"
 4477              		.file 21 "D:\\Work\\DeviceTester\\amazon-freertos\\tests\\common\\include/aws_ota_codesigner_certi
 4478              		.file 22 "c:\\program files (x86)\\gnu tools arm embedded\\6 2017-q2-update\\arm-none-eabi\\includ
 4479              		.file 23 "D:\\Work\\DeviceTester\\amazon-freertos\\tests\\common\\include/aws_ota_pal_test_access_
 4480              		.file 24 "D:\\Work\\DeviceTester\\amazon-freertos\\lib\\include\\private/portable.h"
 4481              		.file 25 "D:\\Work\\DeviceTester\\amazon-freertos\\lib\\include/task.h"
 4482              		.file 26 "D:\\Work\\DeviceTester\\amazon-freertos\\tests\\common\\include/aws_logging_task.h"
DEFINED SYMBOLS
                            *ABS*:00000000 aws_test_ota_pal.c
C:\Users\a5089698\AppData\Local\Temp\ccDuj5fg.s:17     .text.TEST_Full_OTA_PAL_SETUP:00000000 $a
C:\Users\a5089698\AppData\Local\Temp\ccDuj5fg.s:23     .text.TEST_Full_OTA_PAL_SETUP:00000000 TEST_Full_OTA_PAL_SETUP
C:\Users\a5089698\AppData\Local\Temp\ccDuj5fg.s:40     .text.TEST_Full_OTA_PAL_SETUP:00000010 $d
C:\Users\a5089698\AppData\Local\Temp\ccDuj5fg.s:45     .text.TEST_Full_OTA_PAL_TEAR_DOWN:00000000 $a
C:\Users\a5089698\AppData\Local\Temp\ccDuj5fg.s:51     .text.TEST_Full_OTA_PAL_TEAR_DOWN:00000000 TEST_Full_OTA_PAL_TEAR_DOWN
C:\Users\a5089698\AppData\Local\Temp\ccDuj5fg.s:82     .text.TEST_Full_OTA_PAL_TEAR_DOWN:00000020 $d
C:\Users\a5089698\AppData\Local\Temp\ccDuj5fg.s:88     .text.TEST_Full_OTA_PAL_prvPAL_CreateFileForRx_CreateAnyFile_:00000000 $a
C:\Users\a5089698\AppData\Local\Temp\ccDuj5fg.s:94     .text.TEST_Full_OTA_PAL_prvPAL_CreateFileForRx_CreateAnyFile_:00000000 TEST_Full_OTA_PAL_prvPAL_CreateFileForRx_CreateAnyFile_
C:\Users\a5089698\AppData\Local\Temp\ccDuj5fg.s:138    .text.TEST_Full_OTA_PAL_prvPAL_CreateFileForRx_CreateAnyFile_:0000004c $d
C:\Users\a5089698\AppData\Local\Temp\ccDuj5fg.s:144    .text.TEST_Full_OTA_PAL_prvPAL_Abort_OpenFile_:00000000 $a
C:\Users\a5089698\AppData\Local\Temp\ccDuj5fg.s:150    .text.TEST_Full_OTA_PAL_prvPAL_Abort_OpenFile_:00000000 TEST_Full_OTA_PAL_prvPAL_Abort_OpenFile_
C:\Users\a5089698\AppData\Local\Temp\ccDuj5fg.s:211    .text.TEST_Full_OTA_PAL_prvPAL_Abort_OpenFile_:00000074 $d
C:\Users\a5089698\AppData\Local\Temp\ccDuj5fg.s:217    .text.TEST_Full_OTA_PAL_prvPAL_Abort_NullFileHandle_:00000000 $a
C:\Users\a5089698\AppData\Local\Temp\ccDuj5fg.s:223    .text.TEST_Full_OTA_PAL_prvPAL_Abort_NullFileHandle_:00000000 TEST_Full_OTA_PAL_prvPAL_Abort_NullFileHandle_
C:\Users\a5089698\AppData\Local\Temp\ccDuj5fg.s:263    .text.TEST_Full_OTA_PAL_prvPAL_Abort_NullFileHandle_:00000040 $d
C:\Users\a5089698\AppData\Local\Temp\ccDuj5fg.s:269    .text.TEST_Full_OTA_PAL_prvPAL_Abort_NonExistentFile_:00000000 $a
C:\Users\a5089698\AppData\Local\Temp\ccDuj5fg.s:275    .text.TEST_Full_OTA_PAL_prvPAL_Abort_NonExistentFile_:00000000 TEST_Full_OTA_PAL_prvPAL_Abort_NonExistentFile_
C:\Users\a5089698\AppData\Local\Temp\ccDuj5fg.s:309    .text.TEST_Full_OTA_PAL_prvPAL_Abort_NonExistentFile_:00000038 $d
C:\Users\a5089698\AppData\Local\Temp\ccDuj5fg.s:315    .text.TEST_Full_OTA_PAL_prvPAL_Abort_FileWithBlockWritten_:00000000 $a
C:\Users\a5089698\AppData\Local\Temp\ccDuj5fg.s:321    .text.TEST_Full_OTA_PAL_prvPAL_Abort_FileWithBlockWritten_:00000000 TEST_Full_OTA_PAL_prvPAL_Abort_FileWithBlockWritten_
C:\Users\a5089698\AppData\Local\Temp\ccDuj5fg.s:409    .text.TEST_Full_OTA_PAL_prvPAL_Abort_FileWithBlockWritten_:000000b8 $d
C:\Users\a5089698\AppData\Local\Temp\ccDuj5fg.s:417    .text.TEST_Full_OTA_PAL_prvPAL_WriteBlock_WriteSingleByte_:00000000 $a
C:\Users\a5089698\AppData\Local\Temp\ccDuj5fg.s:423    .text.TEST_Full_OTA_PAL_prvPAL_WriteBlock_WriteSingleByte_:00000000 TEST_Full_OTA_PAL_prvPAL_WriteBlock_WriteSingleByte_
C:\Users\a5089698\AppData\Local\Temp\ccDuj5fg.s:485    .text.TEST_Full_OTA_PAL_prvPAL_WriteBlock_WriteSingleByte_:00000080 $d
C:\Users\a5089698\AppData\Local\Temp\ccDuj5fg.s:492    .text.TEST_Full_OTA_PAL_prvPAL_CloseFile_ValidSignature_:00000000 $a
C:\Users\a5089698\AppData\Local\Temp\ccDuj5fg.s:498    .text.TEST_Full_OTA_PAL_prvPAL_CloseFile_ValidSignature_:00000000 TEST_Full_OTA_PAL_prvPAL_CloseFile_ValidSignature_
C:\Users\a5089698\AppData\Local\Temp\ccDuj5fg.s:602    .text.TEST_Full_OTA_PAL_prvPAL_CloseFile_ValidSignature_:000000d4 $d
C:\Users\a5089698\AppData\Local\Temp\ccDuj5fg.s:612    .text.TEST_Full_OTA_PAL_prvPAL_CloseFile_InvalidSignatureBlockWritten_:00000000 $a
C:\Users\a5089698\AppData\Local\Temp\ccDuj5fg.s:618    .text.TEST_Full_OTA_PAL_prvPAL_CloseFile_InvalidSignatureBlockWritten_:00000000 TEST_Full_OTA_PAL_prvPAL_CloseFile_InvalidSignatureBlockWritten_
C:\Users\a5089698\AppData\Local\Temp\ccDuj5fg.s:723    .text.TEST_Full_OTA_PAL_prvPAL_CloseFile_InvalidSignatureBlockWritten_:000000dc $d
C:\Users\a5089698\AppData\Local\Temp\ccDuj5fg.s:734    .text.TEST_Full_OTA_PAL_prvPAL_CloseFile_InvalidSignatureNoBlockWritten_:00000000 $a
C:\Users\a5089698\AppData\Local\Temp\ccDuj5fg.s:740    .text.TEST_Full_OTA_PAL_prvPAL_CloseFile_InvalidSignatureNoBlockWritten_:00000000 TEST_Full_OTA_PAL_prvPAL_CloseFile_InvalidSignatureNoBlockWritten_
C:\Users\a5089698\AppData\Local\Temp\ccDuj5fg.s:831    .text.TEST_Full_OTA_PAL_prvPAL_CloseFile_InvalidSignatureNoBlockWritten_:000000ac $d
C:\Users\a5089698\AppData\Local\Temp\ccDuj5fg.s:841    .text.TEST_Full_OTA_PAL_prvPAL_CloseFile_NonexistingCodeSignerCertificate_:00000000 $a
C:\Users\a5089698\AppData\Local\Temp\ccDuj5fg.s:847    .text.TEST_Full_OTA_PAL_prvPAL_CloseFile_NonexistingCodeSignerCertificate_:00000000 TEST_Full_OTA_PAL_prvPAL_CloseFile_NonexistingCodeSignerCertificate_
C:\Users\a5089698\AppData\Local\Temp\ccDuj5fg.s:961    .text.TEST_Full_OTA_PAL_prvPAL_CloseFile_NonexistingCodeSignerCertificate_:000000ec $d
C:\Users\a5089698\AppData\Local\Temp\ccDuj5fg.s:972    .text.TEST_Full_OTA_PAL_prvPAL_CheckFileSignature_InvalidSignatureNoBlockWritten_:00000000 $a
C:\Users\a5089698\AppData\Local\Temp\ccDuj5fg.s:978    .text.TEST_Full_OTA_PAL_prvPAL_CheckFileSignature_InvalidSignatureNoBlockWritten_:00000000 TEST_Full_OTA_PAL_prvPAL_CheckFileSignature_InvalidSignatureNoBlockWritten_
C:\Users\a5089698\AppData\Local\Temp\ccDuj5fg.s:1063   .text.TEST_Full_OTA_PAL_prvPAL_CheckFileSignature_InvalidSignatureNoBlockWritten_:000000a8 $d
C:\Users\a5089698\AppData\Local\Temp\ccDuj5fg.s:1073   .text.TEST_Full_OTA_PAL_prvPAL_WriteBlock_WriteManyBlocks_:00000000 $a
C:\Users\a5089698\AppData\Local\Temp\ccDuj5fg.s:1079   .text.TEST_Full_OTA_PAL_prvPAL_WriteBlock_WriteManyBlocks_:00000000 TEST_Full_OTA_PAL_prvPAL_WriteBlock_WriteManyBlocks_
C:\Users\a5089698\AppData\Local\Temp\ccDuj5fg.s:1155   .text.TEST_Full_OTA_PAL_prvPAL_WriteBlock_WriteManyBlocks_:00000098 $d
C:\Users\a5089698\AppData\Local\Temp\ccDuj5fg.s:1163   .text.TEST_Full_OTA_PAL_prvPAL_ActivateNewImage_:00000000 $a
C:\Users\a5089698\AppData\Local\Temp\ccDuj5fg.s:1169   .text.TEST_Full_OTA_PAL_prvPAL_ActivateNewImage_:00000000 TEST_Full_OTA_PAL_prvPAL_ActivateNewImage_
C:\Users\a5089698\AppData\Local\Temp\ccDuj5fg.s:1200   .text.TEST_Full_OTA_PAL_prvPAL_SetPlatformImageState_SelfTestImageState_:00000000 $a
C:\Users\a5089698\AppData\Local\Temp\ccDuj5fg.s:1206   .text.TEST_Full_OTA_PAL_prvPAL_SetPlatformImageState_SelfTestImageState_:00000000 TEST_Full_OTA_PAL_prvPAL_SetPlatformImageState_SelfTestImageState_
C:\Users\a5089698\AppData\Local\Temp\ccDuj5fg.s:1282   .text.TEST_Full_OTA_PAL_prvPAL_SetPlatformImageState_SelfTestImageState_:00000098 $d
C:\Users\a5089698\AppData\Local\Temp\ccDuj5fg.s:1290   .text.TEST_Full_OTA_PAL_prvPAL_SetPlatformImageState_InvalidImageState_:00000000 $a
C:\Users\a5089698\AppData\Local\Temp\ccDuj5fg.s:1296   .text.TEST_Full_OTA_PAL_prvPAL_SetPlatformImageState_InvalidImageState_:00000000 TEST_Full_OTA_PAL_prvPAL_SetPlatformImageState_InvalidImageState_
C:\Users\a5089698\AppData\Local\Temp\ccDuj5fg.s:1372   .text.TEST_Full_OTA_PAL_prvPAL_SetPlatformImageState_InvalidImageState_:00000098 $d
C:\Users\a5089698\AppData\Local\Temp\ccDuj5fg.s:1380   .text.TEST_Full_OTA_PAL_prvPAL_SetPlatformImageState_UnknownImageState_:00000000 $a
C:\Users\a5089698\AppData\Local\Temp\ccDuj5fg.s:1386   .text.TEST_Full_OTA_PAL_prvPAL_SetPlatformImageState_UnknownImageState_:00000000 TEST_Full_OTA_PAL_prvPAL_SetPlatformImageState_UnknownImageState_
C:\Users\a5089698\AppData\Local\Temp\ccDuj5fg.s:1462   .text.TEST_Full_OTA_PAL_prvPAL_SetPlatformImageState_UnknownImageState_:00000098 $d
C:\Users\a5089698\AppData\Local\Temp\ccDuj5fg.s:1470   .text.TEST_Full_OTA_PAL_prvPAL_SetPlatformImageState_AcceptedImageStateButImageNotClosed_:00000000 $a
C:\Users\a5089698\AppData\Local\Temp\ccDuj5fg.s:1476   .text.TEST_Full_OTA_PAL_prvPAL_SetPlatformImageState_AcceptedImageStateButImageNotClosed_:00000000 TEST_Full_OTA_PAL_prvPAL_SetPlatformImageState_AcceptedImageStateButImageNotClosed_
C:\Users\a5089698\AppData\Local\Temp\ccDuj5fg.s:1552   .text.TEST_Full_OTA_PAL_prvPAL_SetPlatformImageState_AcceptedImageStateButImageNotClosed_:00000098 $d
C:\Users\a5089698\AppData\Local\Temp\ccDuj5fg.s:1560   .text.TEST_Full_OTA_PAL_prvPAL_SetPlatformImageState_RejectImageState_:00000000 $a
C:\Users\a5089698\AppData\Local\Temp\ccDuj5fg.s:1566   .text.TEST_Full_OTA_PAL_prvPAL_SetPlatformImageState_RejectImageState_:00000000 TEST_Full_OTA_PAL_prvPAL_SetPlatformImageState_RejectImageState_
C:\Users\a5089698\AppData\Local\Temp\ccDuj5fg.s:1642   .text.TEST_Full_OTA_PAL_prvPAL_SetPlatformImageState_RejectImageState_:00000098 $d
C:\Users\a5089698\AppData\Local\Temp\ccDuj5fg.s:1650   .text.TEST_Full_OTA_PAL_prvPAL_SetPlatformImageState_AbortImageState_:00000000 $a
C:\Users\a5089698\AppData\Local\Temp\ccDuj5fg.s:1656   .text.TEST_Full_OTA_PAL_prvPAL_SetPlatformImageState_AbortImageState_:00000000 TEST_Full_OTA_PAL_prvPAL_SetPlatformImageState_AbortImageState_
C:\Users\a5089698\AppData\Local\Temp\ccDuj5fg.s:1732   .text.TEST_Full_OTA_PAL_prvPAL_SetPlatformImageState_AbortImageState_:00000098 $d
C:\Users\a5089698\AppData\Local\Temp\ccDuj5fg.s:1740   .text.TEST_Full_OTA_PAL_prvPAL_GetPlatformImageState_InvalidImageStateFromFileCloseFailure_:00000000 $a
C:\Users\a5089698\AppData\Local\Temp\ccDuj5fg.s:1746   .text.TEST_Full_OTA_PAL_prvPAL_GetPlatformImageState_InvalidImageStateFromFileCloseFailure_:00000000 TEST_Full_OTA_PAL_prvPAL_GetPlatformImageState_InvalidImageStateFromFileCloseFailure_
C:\Users\a5089698\AppData\Local\Temp\ccDuj5fg.s:1870   .text.TEST_Full_OTA_PAL_prvPAL_GetPlatformImageState_InvalidImageStateFromFileCloseFailure_:000000fc $d
C:\Users\a5089698\AppData\Local\Temp\ccDuj5fg.s:1882   .text.TEST_Full_OTA_PAL_prvPAL_ReadAndAssumeCertificate_NonexistentFile_:00000000 $a
C:\Users\a5089698\AppData\Local\Temp\ccDuj5fg.s:1888   .text.TEST_Full_OTA_PAL_prvPAL_ReadAndAssumeCertificate_NonexistentFile_:00000000 TEST_Full_OTA_PAL_prvPAL_ReadAndAssumeCertificate_NonexistentFile_
C:\Users\a5089698\AppData\Local\Temp\ccDuj5fg.s:1935   .text.TEST_Full_OTA_PAL_prvPAL_ReadAndAssumeCertificate_NonexistentFile_:00000050 $d
C:\Users\a5089698\AppData\Local\Temp\ccDuj5fg.s:1941   .text.TEST_Full_OTA_PAL_prvPAL_ReadAndAssumeCertificate_ExistingFile_:00000000 $a
C:\Users\a5089698\AppData\Local\Temp\ccDuj5fg.s:1947   .text.TEST_Full_OTA_PAL_prvPAL_ReadAndAssumeCertificate_ExistingFile_:00000000 TEST_Full_OTA_PAL_prvPAL_ReadAndAssumeCertificate_ExistingFile_
C:\Users\a5089698\AppData\Local\Temp\ccDuj5fg.s:2000   .text.TEST_Full_OTA_PAL_prvPAL_ReadAndAssumeCertificate_ExistingFile_:00000058 $d
C:\Users\a5089698\AppData\Local\Temp\ccDuj5fg.s:2006   .text.TEST_Full_OTA_PAL_prvPAL_CheckFileSignature_ValidSignature_:00000000 $a
C:\Users\a5089698\AppData\Local\Temp\ccDuj5fg.s:2012   .text.TEST_Full_OTA_PAL_prvPAL_CheckFileSignature_ValidSignature_:00000000 TEST_Full_OTA_PAL_prvPAL_CheckFileSignature_ValidSignature_
C:\Users\a5089698\AppData\Local\Temp\ccDuj5fg.s:2116   .text.TEST_Full_OTA_PAL_prvPAL_CheckFileSignature_ValidSignature_:000000d4 $d
C:\Users\a5089698\AppData\Local\Temp\ccDuj5fg.s:2126   .text.TEST_Full_OTA_PAL_prvPAL_CheckFileSignature_InvalidSignatureBlockWritten_:00000000 $a
C:\Users\a5089698\AppData\Local\Temp\ccDuj5fg.s:2132   .text.TEST_Full_OTA_PAL_prvPAL_CheckFileSignature_InvalidSignatureBlockWritten_:00000000 TEST_Full_OTA_PAL_prvPAL_CheckFileSignature_InvalidSignatureBlockWritten_
C:\Users\a5089698\AppData\Local\Temp\ccDuj5fg.s:2235   .text.TEST_Full_OTA_PAL_prvPAL_CheckFileSignature_InvalidSignatureBlockWritten_:000000d8 $d
C:\Users\a5089698\AppData\Local\Temp\ccDuj5fg.s:2246   .text.TEST_Full_OTA_PAL_prvPAL_CheckFileSignature_NonexistingCodeSignerCertificate_:00000000 $a
C:\Users\a5089698\AppData\Local\Temp\ccDuj5fg.s:2252   .text.TEST_Full_OTA_PAL_prvPAL_CheckFileSignature_NonexistingCodeSignerCertificate_:00000000 TEST_Full_OTA_PAL_prvPAL_CheckFileSignature_NonexistingCodeSignerCertificate_
C:\Users\a5089698\AppData\Local\Temp\ccDuj5fg.s:2355   .text.TEST_Full_OTA_PAL_prvPAL_CheckFileSignature_NonexistingCodeSignerCertificate_:000000d8 $d
C:\Users\a5089698\AppData\Local\Temp\ccDuj5fg.s:2366   .text.TEST_Full_OTA_PAL_prvPAL_CloseFile_ValidSignature_run:00000000 $a
C:\Users\a5089698\AppData\Local\Temp\ccDuj5fg.s:2372   .text.TEST_Full_OTA_PAL_prvPAL_CloseFile_ValidSignature_run:00000000 TEST_Full_OTA_PAL_prvPAL_CloseFile_ValidSignature_run
C:\Users\a5089698\AppData\Local\Temp\ccDuj5fg.s:2403   .text.TEST_Full_OTA_PAL_prvPAL_CloseFile_ValidSignature_run:00000040 $d
C:\Users\a5089698\AppData\Local\Temp\ccDuj5fg.s:2414   .text.prvImportCodeSigningCertificate:00000000 $a
C:\Users\a5089698\AppData\Local\Temp\ccDuj5fg.s:2420   .text.prvImportCodeSigningCertificate:00000000 prvImportCodeSigningCertificate
C:\Users\a5089698\AppData\Local\Temp\ccDuj5fg.s:2526   .text.TEST_Full_OTA_PAL_prvPAL_CloseFile_ValidSignatureKeyInFlash_:00000000 $a
C:\Users\a5089698\AppData\Local\Temp\ccDuj5fg.s:2532   .text.TEST_Full_OTA_PAL_prvPAL_CloseFile_ValidSignatureKeyInFlash_:00000000 TEST_Full_OTA_PAL_prvPAL_CloseFile_ValidSignatureKeyInFlash_
C:\Users\a5089698\AppData\Local\Temp\ccDuj5fg.s:2653   .text.TEST_Full_OTA_PAL_prvPAL_CloseFile_ValidSignatureKeyInFlash_:000000fc $d
C:\Users\a5089698\AppData\Local\Temp\ccDuj5fg.s:2664   .text.TEST_Full_OTA_PAL_prvPAL_CloseFile_ValidSignatureKeyInFlash_run:00000000 $a
C:\Users\a5089698\AppData\Local\Temp\ccDuj5fg.s:2670   .text.TEST_Full_OTA_PAL_prvPAL_CloseFile_ValidSignatureKeyInFlash_run:00000000 TEST_Full_OTA_PAL_prvPAL_CloseFile_ValidSignatureKeyInFlash_run
C:\Users\a5089698\AppData\Local\Temp\ccDuj5fg.s:2701   .text.TEST_Full_OTA_PAL_prvPAL_CloseFile_ValidSignatureKeyInFlash_run:00000040 $d
C:\Users\a5089698\AppData\Local\Temp\ccDuj5fg.s:2712   .text.TEST_Full_OTA_PAL_prvPAL_CloseFile_InvalidSignatureBlockWritten_run:00000000 $a
C:\Users\a5089698\AppData\Local\Temp\ccDuj5fg.s:2718   .text.TEST_Full_OTA_PAL_prvPAL_CloseFile_InvalidSignatureBlockWritten_run:00000000 TEST_Full_OTA_PAL_prvPAL_CloseFile_InvalidSignatureBlockWritten_run
C:\Users\a5089698\AppData\Local\Temp\ccDuj5fg.s:2749   .text.TEST_Full_OTA_PAL_prvPAL_CloseFile_InvalidSignatureBlockWritten_run:00000040 $d
C:\Users\a5089698\AppData\Local\Temp\ccDuj5fg.s:2760   .text.TEST_Full_OTA_PAL_prvPAL_CloseFile_InvalidSignatureNoBlockWritten_run:00000000 $a
C:\Users\a5089698\AppData\Local\Temp\ccDuj5fg.s:2766   .text.TEST_Full_OTA_PAL_prvPAL_CloseFile_InvalidSignatureNoBlockWritten_run:00000000 TEST_Full_OTA_PAL_prvPAL_CloseFile_InvalidSignatureNoBlockWritten_run
C:\Users\a5089698\AppData\Local\Temp\ccDuj5fg.s:2797   .text.TEST_Full_OTA_PAL_prvPAL_CloseFile_InvalidSignatureNoBlockWritten_run:00000040 $d
C:\Users\a5089698\AppData\Local\Temp\ccDuj5fg.s:2808   .text.TEST_Full_OTA_PAL_prvPAL_CloseFile_NonexistingCodeSignerCertificate_run:00000000 $a
C:\Users\a5089698\AppData\Local\Temp\ccDuj5fg.s:2814   .text.TEST_Full_OTA_PAL_prvPAL_CloseFile_NonexistingCodeSignerCertificate_run:00000000 TEST_Full_OTA_PAL_prvPAL_CloseFile_NonexistingCodeSignerCertificate_run
C:\Users\a5089698\AppData\Local\Temp\ccDuj5fg.s:2845   .text.TEST_Full_OTA_PAL_prvPAL_CloseFile_NonexistingCodeSignerCertificate_run:00000040 $d
C:\Users\a5089698\AppData\Local\Temp\ccDuj5fg.s:2856   .text.TEST_Full_OTA_PAL_prvPAL_CreateFileForRx_CreateAnyFile_run:00000000 $a
C:\Users\a5089698\AppData\Local\Temp\ccDuj5fg.s:2862   .text.TEST_Full_OTA_PAL_prvPAL_CreateFileForRx_CreateAnyFile_run:00000000 TEST_Full_OTA_PAL_prvPAL_CreateFileForRx_CreateAnyFile_run
C:\Users\a5089698\AppData\Local\Temp\ccDuj5fg.s:2893   .text.TEST_Full_OTA_PAL_prvPAL_CreateFileForRx_CreateAnyFile_run:00000040 $d
C:\Users\a5089698\AppData\Local\Temp\ccDuj5fg.s:2904   .text.TEST_Full_OTA_PAL_prvPAL_Abort_OpenFile_run:00000000 $a
C:\Users\a5089698\AppData\Local\Temp\ccDuj5fg.s:2910   .text.TEST_Full_OTA_PAL_prvPAL_Abort_OpenFile_run:00000000 TEST_Full_OTA_PAL_prvPAL_Abort_OpenFile_run
C:\Users\a5089698\AppData\Local\Temp\ccDuj5fg.s:2941   .text.TEST_Full_OTA_PAL_prvPAL_Abort_OpenFile_run:00000040 $d
C:\Users\a5089698\AppData\Local\Temp\ccDuj5fg.s:2952   .text.TEST_Full_OTA_PAL_prvPAL_Abort_FileWithBlockWritten_run:00000000 $a
C:\Users\a5089698\AppData\Local\Temp\ccDuj5fg.s:2958   .text.TEST_Full_OTA_PAL_prvPAL_Abort_FileWithBlockWritten_run:00000000 TEST_Full_OTA_PAL_prvPAL_Abort_FileWithBlockWritten_run
C:\Users\a5089698\AppData\Local\Temp\ccDuj5fg.s:2989   .text.TEST_Full_OTA_PAL_prvPAL_Abort_FileWithBlockWritten_run:00000040 $d
C:\Users\a5089698\AppData\Local\Temp\ccDuj5fg.s:3000   .text.TEST_Full_OTA_PAL_prvPAL_Abort_NullFileHandle_run:00000000 $a
C:\Users\a5089698\AppData\Local\Temp\ccDuj5fg.s:3006   .text.TEST_Full_OTA_PAL_prvPAL_Abort_NullFileHandle_run:00000000 TEST_Full_OTA_PAL_prvPAL_Abort_NullFileHandle_run
C:\Users\a5089698\AppData\Local\Temp\ccDuj5fg.s:3037   .text.TEST_Full_OTA_PAL_prvPAL_Abort_NullFileHandle_run:00000040 $d
C:\Users\a5089698\AppData\Local\Temp\ccDuj5fg.s:3048   .text.TEST_Full_OTA_PAL_prvPAL_Abort_NonExistentFile_run:00000000 $a
C:\Users\a5089698\AppData\Local\Temp\ccDuj5fg.s:3054   .text.TEST_Full_OTA_PAL_prvPAL_Abort_NonExistentFile_run:00000000 TEST_Full_OTA_PAL_prvPAL_Abort_NonExistentFile_run
C:\Users\a5089698\AppData\Local\Temp\ccDuj5fg.s:3085   .text.TEST_Full_OTA_PAL_prvPAL_Abort_NonExistentFile_run:00000040 $d
C:\Users\a5089698\AppData\Local\Temp\ccDuj5fg.s:3096   .text.TEST_Full_OTA_PAL_prvPAL_WriteBlock_WriteSingleByte_run:00000000 $a
C:\Users\a5089698\AppData\Local\Temp\ccDuj5fg.s:3102   .text.TEST_Full_OTA_PAL_prvPAL_WriteBlock_WriteSingleByte_run:00000000 TEST_Full_OTA_PAL_prvPAL_WriteBlock_WriteSingleByte_run
C:\Users\a5089698\AppData\Local\Temp\ccDuj5fg.s:3133   .text.TEST_Full_OTA_PAL_prvPAL_WriteBlock_WriteSingleByte_run:00000040 $d
C:\Users\a5089698\AppData\Local\Temp\ccDuj5fg.s:3144   .text.TEST_Full_OTA_PAL_prvPAL_WriteBlock_WriteManyBlocks_run:00000000 $a
C:\Users\a5089698\AppData\Local\Temp\ccDuj5fg.s:3150   .text.TEST_Full_OTA_PAL_prvPAL_WriteBlock_WriteManyBlocks_run:00000000 TEST_Full_OTA_PAL_prvPAL_WriteBlock_WriteManyBlocks_run
C:\Users\a5089698\AppData\Local\Temp\ccDuj5fg.s:3181   .text.TEST_Full_OTA_PAL_prvPAL_WriteBlock_WriteManyBlocks_run:00000040 $d
C:\Users\a5089698\AppData\Local\Temp\ccDuj5fg.s:3192   .text.TEST_Full_OTA_PAL_prvPAL_ActivateNewImage_run:00000000 $a
C:\Users\a5089698\AppData\Local\Temp\ccDuj5fg.s:3198   .text.TEST_Full_OTA_PAL_prvPAL_ActivateNewImage_run:00000000 TEST_Full_OTA_PAL_prvPAL_ActivateNewImage_run
C:\Users\a5089698\AppData\Local\Temp\ccDuj5fg.s:3229   .text.TEST_Full_OTA_PAL_prvPAL_ActivateNewImage_run:00000040 $d
C:\Users\a5089698\AppData\Local\Temp\ccDuj5fg.s:3240   .text.TEST_Full_OTA_PAL_prvPAL_SetPlatformImageState_SelfTestImageState_run:00000000 $a
C:\Users\a5089698\AppData\Local\Temp\ccDuj5fg.s:3246   .text.TEST_Full_OTA_PAL_prvPAL_SetPlatformImageState_SelfTestImageState_run:00000000 TEST_Full_OTA_PAL_prvPAL_SetPlatformImageState_SelfTestImageState_run
C:\Users\a5089698\AppData\Local\Temp\ccDuj5fg.s:3277   .text.TEST_Full_OTA_PAL_prvPAL_SetPlatformImageState_SelfTestImageState_run:00000040 $d
C:\Users\a5089698\AppData\Local\Temp\ccDuj5fg.s:3288   .text.TEST_Full_OTA_PAL_prvPAL_SetPlatformImageState_InvalidImageState_run:00000000 $a
C:\Users\a5089698\AppData\Local\Temp\ccDuj5fg.s:3294   .text.TEST_Full_OTA_PAL_prvPAL_SetPlatformImageState_InvalidImageState_run:00000000 TEST_Full_OTA_PAL_prvPAL_SetPlatformImageState_InvalidImageState_run
C:\Users\a5089698\AppData\Local\Temp\ccDuj5fg.s:3325   .text.TEST_Full_OTA_PAL_prvPAL_SetPlatformImageState_InvalidImageState_run:00000040 $d
C:\Users\a5089698\AppData\Local\Temp\ccDuj5fg.s:3336   .text.TEST_Full_OTA_PAL_prvPAL_SetPlatformImageState_UnknownImageState_run:00000000 $a
C:\Users\a5089698\AppData\Local\Temp\ccDuj5fg.s:3342   .text.TEST_Full_OTA_PAL_prvPAL_SetPlatformImageState_UnknownImageState_run:00000000 TEST_Full_OTA_PAL_prvPAL_SetPlatformImageState_UnknownImageState_run
C:\Users\a5089698\AppData\Local\Temp\ccDuj5fg.s:3373   .text.TEST_Full_OTA_PAL_prvPAL_SetPlatformImageState_UnknownImageState_run:00000040 $d
C:\Users\a5089698\AppData\Local\Temp\ccDuj5fg.s:3384   .text.TEST_Full_OTA_PAL_prvPAL_SetPlatformImageState_AcceptedImageStateButImageNotClosed_run:00000000 $a
C:\Users\a5089698\AppData\Local\Temp\ccDuj5fg.s:3390   .text.TEST_Full_OTA_PAL_prvPAL_SetPlatformImageState_AcceptedImageStateButImageNotClosed_run:00000000 TEST_Full_OTA_PAL_prvPAL_SetPlatformImageState_AcceptedImageStateButImageNotClosed_run
C:\Users\a5089698\AppData\Local\Temp\ccDuj5fg.s:3421   .text.TEST_Full_OTA_PAL_prvPAL_SetPlatformImageState_AcceptedImageStateButImageNotClosed_run:00000040 $d
C:\Users\a5089698\AppData\Local\Temp\ccDuj5fg.s:3432   .text.TEST_Full_OTA_PAL_prvPAL_SetPlatformImageState_RejectImageState_run:00000000 $a
C:\Users\a5089698\AppData\Local\Temp\ccDuj5fg.s:3438   .text.TEST_Full_OTA_PAL_prvPAL_SetPlatformImageState_RejectImageState_run:00000000 TEST_Full_OTA_PAL_prvPAL_SetPlatformImageState_RejectImageState_run
C:\Users\a5089698\AppData\Local\Temp\ccDuj5fg.s:3469   .text.TEST_Full_OTA_PAL_prvPAL_SetPlatformImageState_RejectImageState_run:00000040 $d
C:\Users\a5089698\AppData\Local\Temp\ccDuj5fg.s:3480   .text.TEST_Full_OTA_PAL_prvPAL_SetPlatformImageState_AbortImageState_run:00000000 $a
C:\Users\a5089698\AppData\Local\Temp\ccDuj5fg.s:3486   .text.TEST_Full_OTA_PAL_prvPAL_SetPlatformImageState_AbortImageState_run:00000000 TEST_Full_OTA_PAL_prvPAL_SetPlatformImageState_AbortImageState_run
C:\Users\a5089698\AppData\Local\Temp\ccDuj5fg.s:3517   .text.TEST_Full_OTA_PAL_prvPAL_SetPlatformImageState_AbortImageState_run:00000040 $d
C:\Users\a5089698\AppData\Local\Temp\ccDuj5fg.s:3528   .text.TEST_Full_OTA_PAL_prvPAL_GetPlatformImageState_InvalidImageStateFromFileCloseFailure_run:00000000 $a
C:\Users\a5089698\AppData\Local\Temp\ccDuj5fg.s:3534   .text.TEST_Full_OTA_PAL_prvPAL_GetPlatformImageState_InvalidImageStateFromFileCloseFailure_run:00000000 TEST_Full_OTA_PAL_prvPAL_GetPlatformImageState_InvalidImageStateFromFileCloseFailure_run
C:\Users\a5089698\AppData\Local\Temp\ccDuj5fg.s:3565   .text.TEST_Full_OTA_PAL_prvPAL_GetPlatformImageState_InvalidImageStateFromFileCloseFailure_run:00000040 $d
C:\Users\a5089698\AppData\Local\Temp\ccDuj5fg.s:3576   .text.TEST_Full_OTA_PAL_prvPAL_ReadAndAssumeCertificate_ExistingFile_run:00000000 $a
C:\Users\a5089698\AppData\Local\Temp\ccDuj5fg.s:3582   .text.TEST_Full_OTA_PAL_prvPAL_ReadAndAssumeCertificate_ExistingFile_run:00000000 TEST_Full_OTA_PAL_prvPAL_ReadAndAssumeCertificate_ExistingFile_run
C:\Users\a5089698\AppData\Local\Temp\ccDuj5fg.s:3613   .text.TEST_Full_OTA_PAL_prvPAL_ReadAndAssumeCertificate_ExistingFile_run:00000040 $d
C:\Users\a5089698\AppData\Local\Temp\ccDuj5fg.s:3624   .text.TEST_Full_OTA_PAL_prvPAL_ReadAndAssumeCertificate_NonexistentFile_run:00000000 $a
C:\Users\a5089698\AppData\Local\Temp\ccDuj5fg.s:3630   .text.TEST_Full_OTA_PAL_prvPAL_ReadAndAssumeCertificate_NonexistentFile_run:00000000 TEST_Full_OTA_PAL_prvPAL_ReadAndAssumeCertificate_NonexistentFile_run
C:\Users\a5089698\AppData\Local\Temp\ccDuj5fg.s:3661   .text.TEST_Full_OTA_PAL_prvPAL_ReadAndAssumeCertificate_NonexistentFile_run:00000040 $d
C:\Users\a5089698\AppData\Local\Temp\ccDuj5fg.s:3672   .text.TEST_Full_OTA_PAL_prvPAL_CheckFileSignature_ValidSignature_run:00000000 $a
C:\Users\a5089698\AppData\Local\Temp\ccDuj5fg.s:3678   .text.TEST_Full_OTA_PAL_prvPAL_CheckFileSignature_ValidSignature_run:00000000 TEST_Full_OTA_PAL_prvPAL_CheckFileSignature_ValidSignature_run
C:\Users\a5089698\AppData\Local\Temp\ccDuj5fg.s:3709   .text.TEST_Full_OTA_PAL_prvPAL_CheckFileSignature_ValidSignature_run:00000040 $d
C:\Users\a5089698\AppData\Local\Temp\ccDuj5fg.s:3720   .text.TEST_Full_OTA_PAL_prvPAL_CheckFileSignature_InvalidSignatureBlockWritten_run:00000000 $a
C:\Users\a5089698\AppData\Local\Temp\ccDuj5fg.s:3726   .text.TEST_Full_OTA_PAL_prvPAL_CheckFileSignature_InvalidSignatureBlockWritten_run:00000000 TEST_Full_OTA_PAL_prvPAL_CheckFileSignature_InvalidSignatureBlockWritten_run
C:\Users\a5089698\AppData\Local\Temp\ccDuj5fg.s:3757   .text.TEST_Full_OTA_PAL_prvPAL_CheckFileSignature_InvalidSignatureBlockWritten_run:00000040 $d
C:\Users\a5089698\AppData\Local\Temp\ccDuj5fg.s:3768   .text.TEST_Full_OTA_PAL_prvPAL_CheckFileSignature_InvalidSignatureNoBlockWritten_run:00000000 $a
C:\Users\a5089698\AppData\Local\Temp\ccDuj5fg.s:3774   .text.TEST_Full_OTA_PAL_prvPAL_CheckFileSignature_InvalidSignatureNoBlockWritten_run:00000000 TEST_Full_OTA_PAL_prvPAL_CheckFileSignature_InvalidSignatureNoBlockWritten_run
C:\Users\a5089698\AppData\Local\Temp\ccDuj5fg.s:3805   .text.TEST_Full_OTA_PAL_prvPAL_CheckFileSignature_InvalidSignatureNoBlockWritten_run:00000040 $d
C:\Users\a5089698\AppData\Local\Temp\ccDuj5fg.s:3816   .text.TEST_Full_OTA_PAL_GROUP_RUNNER:00000000 $a
C:\Users\a5089698\AppData\Local\Temp\ccDuj5fg.s:3822   .text.TEST_Full_OTA_PAL_GROUP_RUNNER:00000000 TEST_Full_OTA_PAL_GROUP_RUNNER
C:\Users\a5089698\AppData\Local\Temp\ccDuj5fg.s:3946   .text.TEST_Full_OTA_PAL_prvPAL_CheckFileSignature_NonexistingCodeSignerCertificate_run:00000000 $a
C:\Users\a5089698\AppData\Local\Temp\ccDuj5fg.s:3952   .text.TEST_Full_OTA_PAL_prvPAL_CheckFileSignature_NonexistingCodeSignerCertificate_run:00000000 TEST_Full_OTA_PAL_prvPAL_CheckFileSignature_NonexistingCodeSignerCertificate_run
C:\Users\a5089698\AppData\Local\Temp\ccDuj5fg.s:3983   .text.TEST_Full_OTA_PAL_prvPAL_CheckFileSignature_NonexistingCodeSignerCertificate_run:00000040 $d
C:\Users\a5089698\AppData\Local\Temp\ccDuj5fg.s:3994   .bss.xOtaFile:00000000 $d
C:\Users\a5089698\AppData\Local\Temp\ccDuj5fg.s:3998   .bss.xOtaFile:00000000 xOtaFile
C:\Users\a5089698\AppData\Local\Temp\ccDuj5fg.s:4004   .data.ucDummyData:00000000 ucDummyData
C:\Users\a5089698\AppData\Local\Temp\ccDuj5fg.s:4286   .rodata.signingcredentialSIGNING_CERTIFICATE_PEM:00000000 signingcredentialSIGNING_CERTIFICATE_PEM
C:\Users\a5089698\AppData\Local\Temp\ccDuj5fg.s:4310   .rodata.ucInvalidSignature:00000000 ucInvalidSignature
C:\Users\a5089698\AppData\Local\Temp\ccDuj5fg.s:4385   .rodata.ucValidSignature:00000000 ucValidSignature
                     .debug_frame:00000010 $d

UNDEFINED SYMBOLS
memset
prvPAL_Abort
vLoggingPrintf
prvPAL_CreateFileForRx
UnityAssertEqualNumber
setjmp
prvPAL_WriteBlock
Unity
memcpy
prvPAL_CloseFile
UnityFail
vTaskDelay
prvPAL_ActivateNewImage
prvPAL_SetPlatformImageState
prvPAL_GetPlatformImageState
test_prvPAL_ReadAndAssumeCertificate
UnityAssertGreaterNumber
vPortFree
test_prvPAL_CheckFileSignature
UnityTestRunner
C_GetFunctionList
xProvisionCertificate
