   1              		.cpu cortex-a9
   2              		.eabi_attribute 28, 1
   3              		.eabi_attribute 20, 1
   4              		.eabi_attribute 21, 1
   5              		.eabi_attribute 23, 3
   6              		.eabi_attribute 24, 1
   7              		.eabi_attribute 25, 1
   8              		.eabi_attribute 26, 1
   9              		.eabi_attribute 30, 4
  10              		.eabi_attribute 34, 0
  11              		.eabi_attribute 18, 4
  12              		.file	"cborpretty.c"
  13              		.text
  14              	.Ltext0:
  15              		.cfi_sections	.debug_frame
  16              		.global	__aeabi_d2ulz
  17              		.global	__aeabi_ul2d
  18              		.section	.text.value_to_pretty,"ax",%progbits
  19              		.align	2
  20              		.syntax unified
  21              		.arm
  22              		.fpu neon
  24              	value_to_pretty:
  25              	.LFB55:
  26              		.file 1 "D:/Work/DeviceTester/amazon-freertos/lib/third_party/tinycbor/cborpretty.c"
   1:D:/Work/DeviceTester/amazon-freertos/lib/third_party/tinycbor\cborpretty.c **** /****************************************************************************
   2:D:/Work/DeviceTester/amazon-freertos/lib/third_party/tinycbor\cborpretty.c **** **
   3:D:/Work/DeviceTester/amazon-freertos/lib/third_party/tinycbor\cborpretty.c **** ** Copyright (C) 2016 Intel Corporation
   4:D:/Work/DeviceTester/amazon-freertos/lib/third_party/tinycbor\cborpretty.c **** **
   5:D:/Work/DeviceTester/amazon-freertos/lib/third_party/tinycbor\cborpretty.c **** ** Permission is hereby granted, free of charge, to any person obtaining a copy
   6:D:/Work/DeviceTester/amazon-freertos/lib/third_party/tinycbor\cborpretty.c **** ** of this software and associated documentation files (the "Software"), to deal
   7:D:/Work/DeviceTester/amazon-freertos/lib/third_party/tinycbor\cborpretty.c **** ** in the Software without restriction, including without limitation the rights
   8:D:/Work/DeviceTester/amazon-freertos/lib/third_party/tinycbor\cborpretty.c **** ** to use, copy, modify, merge, publish, distribute, sublicense, and/or sell
   9:D:/Work/DeviceTester/amazon-freertos/lib/third_party/tinycbor\cborpretty.c **** ** copies of the Software, and to permit persons to whom the Software is
  10:D:/Work/DeviceTester/amazon-freertos/lib/third_party/tinycbor\cborpretty.c **** ** furnished to do so, subject to the following conditions:
  11:D:/Work/DeviceTester/amazon-freertos/lib/third_party/tinycbor\cborpretty.c **** **
  12:D:/Work/DeviceTester/amazon-freertos/lib/third_party/tinycbor\cborpretty.c **** ** The above copyright notice and this permission notice shall be included in
  13:D:/Work/DeviceTester/amazon-freertos/lib/third_party/tinycbor\cborpretty.c **** ** all copies or substantial portions of the Software.
  14:D:/Work/DeviceTester/amazon-freertos/lib/third_party/tinycbor\cborpretty.c **** **
  15:D:/Work/DeviceTester/amazon-freertos/lib/third_party/tinycbor\cborpretty.c **** ** THE SOFTWARE IS PROVIDED "AS IS", WITHOUT WARRANTY OF ANY KIND, EXPRESS OR
  16:D:/Work/DeviceTester/amazon-freertos/lib/third_party/tinycbor\cborpretty.c **** ** IMPLIED, INCLUDING BUT NOT LIMITED TO THE WARRANTIES OF MERCHANTABILITY,
  17:D:/Work/DeviceTester/amazon-freertos/lib/third_party/tinycbor\cborpretty.c **** ** FITNESS FOR A PARTICULAR PURPOSE AND NONINFRINGEMENT. IN NO EVENT SHALL THE
  18:D:/Work/DeviceTester/amazon-freertos/lib/third_party/tinycbor\cborpretty.c **** ** AUTHORS OR COPYRIGHT HOLDERS BE LIABLE FOR ANY CLAIM, DAMAGES OR OTHER
  19:D:/Work/DeviceTester/amazon-freertos/lib/third_party/tinycbor\cborpretty.c **** ** LIABILITY, WHETHER IN AN ACTION OF CONTRACT, TORT OR OTHERWISE, ARISING FROM,
  20:D:/Work/DeviceTester/amazon-freertos/lib/third_party/tinycbor\cborpretty.c **** ** OUT OF OR IN CONNECTION WITH THE SOFTWARE OR THE USE OR OTHER DEALINGS IN
  21:D:/Work/DeviceTester/amazon-freertos/lib/third_party/tinycbor\cborpretty.c **** ** THE SOFTWARE.
  22:D:/Work/DeviceTester/amazon-freertos/lib/third_party/tinycbor\cborpretty.c **** **
  23:D:/Work/DeviceTester/amazon-freertos/lib/third_party/tinycbor\cborpretty.c **** ****************************************************************************/
  24:D:/Work/DeviceTester/amazon-freertos/lib/third_party/tinycbor\cborpretty.c **** 
  25:D:/Work/DeviceTester/amazon-freertos/lib/third_party/tinycbor\cborpretty.c **** #define _BSD_SOURCE 1
  26:D:/Work/DeviceTester/amazon-freertos/lib/third_party/tinycbor\cborpretty.c **** #define _DEFAULT_SOURCE 1
  27:D:/Work/DeviceTester/amazon-freertos/lib/third_party/tinycbor\cborpretty.c **** #ifndef __STDC_LIMIT_MACROS
  28:D:/Work/DeviceTester/amazon-freertos/lib/third_party/tinycbor\cborpretty.c **** #  define __STDC_LIMIT_MACROS 1
  29:D:/Work/DeviceTester/amazon-freertos/lib/third_party/tinycbor\cborpretty.c **** #endif
  30:D:/Work/DeviceTester/amazon-freertos/lib/third_party/tinycbor\cborpretty.c **** 
  31:D:/Work/DeviceTester/amazon-freertos/lib/third_party/tinycbor\cborpretty.c **** #if !defined(__STDC_HOSTED__) || (__STDC_HOSTED__-0 == 1 && !defined(__RX))
  32:D:/Work/DeviceTester/amazon-freertos/lib/third_party/tinycbor\cborpretty.c **** 
  33:D:/Work/DeviceTester/amazon-freertos/lib/third_party/tinycbor\cborpretty.c **** #include "cbor.h"
  34:D:/Work/DeviceTester/amazon-freertos/lib/third_party/tinycbor\cborpretty.c **** #include "compilersupport_p.h"
  35:D:/Work/DeviceTester/amazon-freertos/lib/third_party/tinycbor\cborpretty.c **** #include "math_support_p.h"
  36:D:/Work/DeviceTester/amazon-freertos/lib/third_party/tinycbor\cborpretty.c **** 
  37:D:/Work/DeviceTester/amazon-freertos/lib/third_party/tinycbor\cborpretty.c **** #include <float.h>
  38:D:/Work/DeviceTester/amazon-freertos/lib/third_party/tinycbor\cborpretty.c **** #include <inttypes.h>
  39:D:/Work/DeviceTester/amazon-freertos/lib/third_party/tinycbor\cborpretty.c **** #include <math.h>
  40:D:/Work/DeviceTester/amazon-freertos/lib/third_party/tinycbor\cborpretty.c **** #include <stdio.h>
  41:D:/Work/DeviceTester/amazon-freertos/lib/third_party/tinycbor\cborpretty.c **** #include <stdlib.h>
  42:D:/Work/DeviceTester/amazon-freertos/lib/third_party/tinycbor\cborpretty.c **** #include <string.h>
  43:D:/Work/DeviceTester/amazon-freertos/lib/third_party/tinycbor\cborpretty.c **** 
  44:D:/Work/DeviceTester/amazon-freertos/lib/third_party/tinycbor\cborpretty.c **** /**
  45:D:/Work/DeviceTester/amazon-freertos/lib/third_party/tinycbor\cborpretty.c ****  * \defgroup CborPretty Converting CBOR to text
  46:D:/Work/DeviceTester/amazon-freertos/lib/third_party/tinycbor\cborpretty.c ****  * \brief Group of functions used to convert CBOR to text form.
  47:D:/Work/DeviceTester/amazon-freertos/lib/third_party/tinycbor\cborpretty.c ****  *
  48:D:/Work/DeviceTester/amazon-freertos/lib/third_party/tinycbor\cborpretty.c ****  * This group contains two functions that are can be used to convert one
  49:D:/Work/DeviceTester/amazon-freertos/lib/third_party/tinycbor\cborpretty.c ****  * CborValue object to a text representation. This module attempts to follow
  50:D:/Work/DeviceTester/amazon-freertos/lib/third_party/tinycbor\cborpretty.c ****  * the recommendations from RFC 7049 section 6 "Diagnostic Notation", though it
  51:D:/Work/DeviceTester/amazon-freertos/lib/third_party/tinycbor\cborpretty.c ****  * has a few differences. They are noted below.
  52:D:/Work/DeviceTester/amazon-freertos/lib/third_party/tinycbor\cborpretty.c ****  *
  53:D:/Work/DeviceTester/amazon-freertos/lib/third_party/tinycbor\cborpretty.c ****  * TinyCBOR does not provide a way to convert from the text representation back
  54:D:/Work/DeviceTester/amazon-freertos/lib/third_party/tinycbor\cborpretty.c ****  * to encoded form. To produce a text form meant to be parsed, CborToJson is
  55:D:/Work/DeviceTester/amazon-freertos/lib/third_party/tinycbor\cborpretty.c ****  * recommended instead.
  56:D:/Work/DeviceTester/amazon-freertos/lib/third_party/tinycbor\cborpretty.c ****  *
  57:D:/Work/DeviceTester/amazon-freertos/lib/third_party/tinycbor\cborpretty.c ****  * Either of the functions in this section will attempt to convert exactly one
  58:D:/Work/DeviceTester/amazon-freertos/lib/third_party/tinycbor\cborpretty.c ****  * CborValue object to text. Those functions may return any error documented
  59:D:/Work/DeviceTester/amazon-freertos/lib/third_party/tinycbor\cborpretty.c ****  * for the functions for CborParsing. In addition, if the C standard library
  60:D:/Work/DeviceTester/amazon-freertos/lib/third_party/tinycbor\cborpretty.c ****  * stream functions return with error, the text conversion will return with
  61:D:/Work/DeviceTester/amazon-freertos/lib/third_party/tinycbor\cborpretty.c ****  * error CborErrorIO.
  62:D:/Work/DeviceTester/amazon-freertos/lib/third_party/tinycbor\cborpretty.c ****  *
  63:D:/Work/DeviceTester/amazon-freertos/lib/third_party/tinycbor\cborpretty.c ****  * These functions also perform UTF-8 validation in CBOR text strings. If they
  64:D:/Work/DeviceTester/amazon-freertos/lib/third_party/tinycbor\cborpretty.c ****  * encounter a sequence of bytes that not permitted in UTF-8, they will return
  65:D:/Work/DeviceTester/amazon-freertos/lib/third_party/tinycbor\cborpretty.c ****  * CborErrorInvalidUtf8TextString. That includes encoding of surrogate points
  66:D:/Work/DeviceTester/amazon-freertos/lib/third_party/tinycbor\cborpretty.c ****  * in UTF-8.
  67:D:/Work/DeviceTester/amazon-freertos/lib/third_party/tinycbor\cborpretty.c ****  *
  68:D:/Work/DeviceTester/amazon-freertos/lib/third_party/tinycbor\cborpretty.c ****  * \warning The output type produced by these functions is not guaranteed to
  69:D:/Work/DeviceTester/amazon-freertos/lib/third_party/tinycbor\cborpretty.c ****  * remain stable. A future update of TinyCBOR may produce different output for
  70:D:/Work/DeviceTester/amazon-freertos/lib/third_party/tinycbor\cborpretty.c ****  * the same input and parsers may be unable to handle them.
  71:D:/Work/DeviceTester/amazon-freertos/lib/third_party/tinycbor\cborpretty.c ****  *
  72:D:/Work/DeviceTester/amazon-freertos/lib/third_party/tinycbor\cborpretty.c ****  * \sa CborParsing, CborToJson, cbor_parser_init()
  73:D:/Work/DeviceTester/amazon-freertos/lib/third_party/tinycbor\cborpretty.c ****  */
  74:D:/Work/DeviceTester/amazon-freertos/lib/third_party/tinycbor\cborpretty.c **** 
  75:D:/Work/DeviceTester/amazon-freertos/lib/third_party/tinycbor\cborpretty.c **** /**
  76:D:/Work/DeviceTester/amazon-freertos/lib/third_party/tinycbor\cborpretty.c ****  * \addtogroup CborPretty
  77:D:/Work/DeviceTester/amazon-freertos/lib/third_party/tinycbor\cborpretty.c ****  * @{
  78:D:/Work/DeviceTester/amazon-freertos/lib/third_party/tinycbor\cborpretty.c ****  * <h2 class="groupheader">Text format</h2>
  79:D:/Work/DeviceTester/amazon-freertos/lib/third_party/tinycbor\cborpretty.c ****  *
  80:D:/Work/DeviceTester/amazon-freertos/lib/third_party/tinycbor\cborpretty.c ****  * As described in RFC 7049 section 6 "Diagnostic Notation", the format is
  81:D:/Work/DeviceTester/amazon-freertos/lib/third_party/tinycbor\cborpretty.c ****  * largely borrowed from JSON, but modified to suit CBOR's different data
  82:D:/Work/DeviceTester/amazon-freertos/lib/third_party/tinycbor\cborpretty.c ****  * types. TinyCBOR makes further modifications to distinguish different, but
  83:D:/Work/DeviceTester/amazon-freertos/lib/third_party/tinycbor\cborpretty.c ****  * similar values.
  84:D:/Work/DeviceTester/amazon-freertos/lib/third_party/tinycbor\cborpretty.c ****  *
  85:D:/Work/DeviceTester/amazon-freertos/lib/third_party/tinycbor\cborpretty.c ****  * CBOR values are currently encoded as follows:
  86:D:/Work/DeviceTester/amazon-freertos/lib/third_party/tinycbor\cborpretty.c ****  * \par Integrals (unsigned and negative)
  87:D:/Work/DeviceTester/amazon-freertos/lib/third_party/tinycbor\cborpretty.c ****  *      Base-10 (decimal) text representation of the value
  88:D:/Work/DeviceTester/amazon-freertos/lib/third_party/tinycbor\cborpretty.c ****  * \par Byte strings:
  89:D:/Work/DeviceTester/amazon-freertos/lib/third_party/tinycbor\cborpretty.c ****  *      <tt>"h'"</tt> followed by the Base16 (hex) representation of the binary data, followed by a
  90:D:/Work/DeviceTester/amazon-freertos/lib/third_party/tinycbor\cborpretty.c ****  * \par Text strings:
  91:D:/Work/DeviceTester/amazon-freertos/lib/third_party/tinycbor\cborpretty.c ****  *      C-style escaped string in quotes, with C11/C++11 escaping of Unicode codepoints above U+007
  92:D:/Work/DeviceTester/amazon-freertos/lib/third_party/tinycbor\cborpretty.c ****  * \par Tags:
  93:D:/Work/DeviceTester/amazon-freertos/lib/third_party/tinycbor\cborpretty.c ****  *      Tag value, with the tagged value in parentheses. No special encoding of the tagged value is
  94:D:/Work/DeviceTester/amazon-freertos/lib/third_party/tinycbor\cborpretty.c ****  * \par Simple types:
  95:D:/Work/DeviceTester/amazon-freertos/lib/third_party/tinycbor\cborpretty.c ****  *      <tt>"simple(nn)"</tt> where \c nn is the simple value
  96:D:/Work/DeviceTester/amazon-freertos/lib/third_party/tinycbor\cborpretty.c ****  * \par Null:
  97:D:/Work/DeviceTester/amazon-freertos/lib/third_party/tinycbor\cborpretty.c ****  *      \c null
  98:D:/Work/DeviceTester/amazon-freertos/lib/third_party/tinycbor\cborpretty.c ****  * \par Undefined:
  99:D:/Work/DeviceTester/amazon-freertos/lib/third_party/tinycbor\cborpretty.c ****  *      \c undefined
 100:D:/Work/DeviceTester/amazon-freertos/lib/third_party/tinycbor\cborpretty.c ****  * \par Booleans:
 101:D:/Work/DeviceTester/amazon-freertos/lib/third_party/tinycbor\cborpretty.c ****  *      \c true or \c false
 102:D:/Work/DeviceTester/amazon-freertos/lib/third_party/tinycbor\cborpretty.c ****  * \par Floating point:
 103:D:/Work/DeviceTester/amazon-freertos/lib/third_party/tinycbor\cborpretty.c ****  *      If NaN or infinite, the actual words \c NaN or \c infinite.
 104:D:/Work/DeviceTester/amazon-freertos/lib/third_party/tinycbor\cborpretty.c ****  *      Otherwise, the decimal representation with as many digits as necessary to ensure no loss of
 105:D:/Work/DeviceTester/amazon-freertos/lib/third_party/tinycbor\cborpretty.c ****  *      with float values suffixed by "f" and half-float values suffixed by "f16" (doubles have no 
 106:D:/Work/DeviceTester/amazon-freertos/lib/third_party/tinycbor\cborpretty.c ****  * \par Arrays:
 107:D:/Work/DeviceTester/amazon-freertos/lib/third_party/tinycbor\cborpretty.c ****  *      Comma-separated list of elements, enclosed in square brackets ("[" and "]").
 108:D:/Work/DeviceTester/amazon-freertos/lib/third_party/tinycbor\cborpretty.c ****  *     If the array length is indeterminate, an underscore ("_") appears immediately after the open
 109:D:/Work/DeviceTester/amazon-freertos/lib/third_party/tinycbor\cborpretty.c ****  * \par Maps:
 110:D:/Work/DeviceTester/amazon-freertos/lib/third_party/tinycbor\cborpretty.c ****  *      Comma-separated list of key-value pairs, with the key and value separated
 111:D:/Work/DeviceTester/amazon-freertos/lib/third_party/tinycbor\cborpretty.c ****  *      by a colon (":"), enclosed in curly braces ("{" and "}").
 112:D:/Work/DeviceTester/amazon-freertos/lib/third_party/tinycbor\cborpretty.c ****  *      If the map length is indeterminate, an underscore ("_") appears immediately after the openi
 113:D:/Work/DeviceTester/amazon-freertos/lib/third_party/tinycbor\cborpretty.c ****  */
 114:D:/Work/DeviceTester/amazon-freertos/lib/third_party/tinycbor\cborpretty.c **** 
 115:D:/Work/DeviceTester/amazon-freertos/lib/third_party/tinycbor\cborpretty.c **** static int hexDump(FILE *out, const uint8_t *buffer, size_t n)
 116:D:/Work/DeviceTester/amazon-freertos/lib/third_party/tinycbor\cborpretty.c **** {
 117:D:/Work/DeviceTester/amazon-freertos/lib/third_party/tinycbor\cborpretty.c ****     while (n--) {
 118:D:/Work/DeviceTester/amazon-freertos/lib/third_party/tinycbor\cborpretty.c ****         int r = fprintf(out, "%02" PRIx8, *buffer++);
 119:D:/Work/DeviceTester/amazon-freertos/lib/third_party/tinycbor\cborpretty.c ****         if (r < 0)
 120:D:/Work/DeviceTester/amazon-freertos/lib/third_party/tinycbor\cborpretty.c ****             return r;
 121:D:/Work/DeviceTester/amazon-freertos/lib/third_party/tinycbor\cborpretty.c ****     }
 122:D:/Work/DeviceTester/amazon-freertos/lib/third_party/tinycbor\cborpretty.c ****     return 0;   /* should be n * 2, but we don't have the original n anymore */
 123:D:/Work/DeviceTester/amazon-freertos/lib/third_party/tinycbor\cborpretty.c **** }
 124:D:/Work/DeviceTester/amazon-freertos/lib/third_party/tinycbor\cborpretty.c **** 
 125:D:/Work/DeviceTester/amazon-freertos/lib/third_party/tinycbor\cborpretty.c **** /* This function decodes buffer as UTF-8 and prints as escaped UTF-16.
 126:D:/Work/DeviceTester/amazon-freertos/lib/third_party/tinycbor\cborpretty.c ****  * On UTF-8 decoding error, it returns CborErrorInvalidUtf8TextString */
 127:D:/Work/DeviceTester/amazon-freertos/lib/third_party/tinycbor\cborpretty.c **** static CborError utf8EscapedDump(FILE *out, const char *buffer, size_t n)
 128:D:/Work/DeviceTester/amazon-freertos/lib/third_party/tinycbor\cborpretty.c **** {
 129:D:/Work/DeviceTester/amazon-freertos/lib/third_party/tinycbor\cborpretty.c ****     uint32_t uc;
 130:D:/Work/DeviceTester/amazon-freertos/lib/third_party/tinycbor\cborpretty.c ****     while (n--) {
 131:D:/Work/DeviceTester/amazon-freertos/lib/third_party/tinycbor\cborpretty.c ****         uc = (uint8_t)*buffer++;
 132:D:/Work/DeviceTester/amazon-freertos/lib/third_party/tinycbor\cborpretty.c ****         if (uc < 0x80) {
 133:D:/Work/DeviceTester/amazon-freertos/lib/third_party/tinycbor\cborpretty.c ****             /* single-byte UTF-8 */
 134:D:/Work/DeviceTester/amazon-freertos/lib/third_party/tinycbor\cborpretty.c ****             if (uc < 0x7f && uc >= 0x20 && uc != '\\' && uc != '"') {
 135:D:/Work/DeviceTester/amazon-freertos/lib/third_party/tinycbor\cborpretty.c ****                 if (fprintf(out, "%c", (char)uc) < 0)
 136:D:/Work/DeviceTester/amazon-freertos/lib/third_party/tinycbor\cborpretty.c ****                     return CborErrorIO;
 137:D:/Work/DeviceTester/amazon-freertos/lib/third_party/tinycbor\cborpretty.c ****                 continue;
 138:D:/Work/DeviceTester/amazon-freertos/lib/third_party/tinycbor\cborpretty.c ****             }
 139:D:/Work/DeviceTester/amazon-freertos/lib/third_party/tinycbor\cborpretty.c **** 
 140:D:/Work/DeviceTester/amazon-freertos/lib/third_party/tinycbor\cborpretty.c ****             /* print as an escape sequence */
 141:D:/Work/DeviceTester/amazon-freertos/lib/third_party/tinycbor\cborpretty.c ****             char escaped = (char)uc;
 142:D:/Work/DeviceTester/amazon-freertos/lib/third_party/tinycbor\cborpretty.c ****             switch (uc) {
 143:D:/Work/DeviceTester/amazon-freertos/lib/third_party/tinycbor\cborpretty.c ****             case '"':
 144:D:/Work/DeviceTester/amazon-freertos/lib/third_party/tinycbor\cborpretty.c ****             case '\\':
 145:D:/Work/DeviceTester/amazon-freertos/lib/third_party/tinycbor\cborpretty.c ****                 break;
 146:D:/Work/DeviceTester/amazon-freertos/lib/third_party/tinycbor\cborpretty.c ****             case '\b':
 147:D:/Work/DeviceTester/amazon-freertos/lib/third_party/tinycbor\cborpretty.c ****                 escaped = 'b';
 148:D:/Work/DeviceTester/amazon-freertos/lib/third_party/tinycbor\cborpretty.c ****                 break;
 149:D:/Work/DeviceTester/amazon-freertos/lib/third_party/tinycbor\cborpretty.c ****             case '\f':
 150:D:/Work/DeviceTester/amazon-freertos/lib/third_party/tinycbor\cborpretty.c ****                 escaped = 'f';
 151:D:/Work/DeviceTester/amazon-freertos/lib/third_party/tinycbor\cborpretty.c ****                 break;
 152:D:/Work/DeviceTester/amazon-freertos/lib/third_party/tinycbor\cborpretty.c ****             case '\n':
 153:D:/Work/DeviceTester/amazon-freertos/lib/third_party/tinycbor\cborpretty.c ****                 escaped = 'n';
 154:D:/Work/DeviceTester/amazon-freertos/lib/third_party/tinycbor\cborpretty.c ****                 break;
 155:D:/Work/DeviceTester/amazon-freertos/lib/third_party/tinycbor\cborpretty.c ****             case '\r':
 156:D:/Work/DeviceTester/amazon-freertos/lib/third_party/tinycbor\cborpretty.c ****                 escaped = 'r';
 157:D:/Work/DeviceTester/amazon-freertos/lib/third_party/tinycbor\cborpretty.c ****                 break;
 158:D:/Work/DeviceTester/amazon-freertos/lib/third_party/tinycbor\cborpretty.c ****             case '\t':
 159:D:/Work/DeviceTester/amazon-freertos/lib/third_party/tinycbor\cborpretty.c ****                 escaped = 't';
 160:D:/Work/DeviceTester/amazon-freertos/lib/third_party/tinycbor\cborpretty.c ****                 break;
 161:D:/Work/DeviceTester/amazon-freertos/lib/third_party/tinycbor\cborpretty.c ****             default:
 162:D:/Work/DeviceTester/amazon-freertos/lib/third_party/tinycbor\cborpretty.c ****                 goto print_utf16;
 163:D:/Work/DeviceTester/amazon-freertos/lib/third_party/tinycbor\cborpretty.c ****             }
 164:D:/Work/DeviceTester/amazon-freertos/lib/third_party/tinycbor\cborpretty.c ****             if (fprintf(out, "\\%c", escaped) < 0)
 165:D:/Work/DeviceTester/amazon-freertos/lib/third_party/tinycbor\cborpretty.c ****                 return CborErrorIO;
 166:D:/Work/DeviceTester/amazon-freertos/lib/third_party/tinycbor\cborpretty.c ****             continue;
 167:D:/Work/DeviceTester/amazon-freertos/lib/third_party/tinycbor\cborpretty.c ****         }
 168:D:/Work/DeviceTester/amazon-freertos/lib/third_party/tinycbor\cborpretty.c **** 
 169:D:/Work/DeviceTester/amazon-freertos/lib/third_party/tinycbor\cborpretty.c ****         /* multi-byte UTF-8, decode it */
 170:D:/Work/DeviceTester/amazon-freertos/lib/third_party/tinycbor\cborpretty.c ****         unsigned charsNeeded;
 171:D:/Work/DeviceTester/amazon-freertos/lib/third_party/tinycbor\cborpretty.c ****         uint32_t min_uc;
 172:D:/Work/DeviceTester/amazon-freertos/lib/third_party/tinycbor\cborpretty.c ****         if (unlikely(uc <= 0xC1))
 173:D:/Work/DeviceTester/amazon-freertos/lib/third_party/tinycbor\cborpretty.c ****             return CborErrorInvalidUtf8TextString;
 174:D:/Work/DeviceTester/amazon-freertos/lib/third_party/tinycbor\cborpretty.c ****         if (uc < 0xE0) {
 175:D:/Work/DeviceTester/amazon-freertos/lib/third_party/tinycbor\cborpretty.c ****             /* two-byte UTF-8 */
 176:D:/Work/DeviceTester/amazon-freertos/lib/third_party/tinycbor\cborpretty.c ****             charsNeeded = 2;
 177:D:/Work/DeviceTester/amazon-freertos/lib/third_party/tinycbor\cborpretty.c ****             min_uc = 0x80;
 178:D:/Work/DeviceTester/amazon-freertos/lib/third_party/tinycbor\cborpretty.c ****             uc &= 0x1f;
 179:D:/Work/DeviceTester/amazon-freertos/lib/third_party/tinycbor\cborpretty.c ****         } else if (uc < 0xF0) {
 180:D:/Work/DeviceTester/amazon-freertos/lib/third_party/tinycbor\cborpretty.c ****             /* three-byte UTF-8 */
 181:D:/Work/DeviceTester/amazon-freertos/lib/third_party/tinycbor\cborpretty.c ****             charsNeeded = 3;
 182:D:/Work/DeviceTester/amazon-freertos/lib/third_party/tinycbor\cborpretty.c ****             min_uc = 0x800;
 183:D:/Work/DeviceTester/amazon-freertos/lib/third_party/tinycbor\cborpretty.c ****             uc &= 0x0f;
 184:D:/Work/DeviceTester/amazon-freertos/lib/third_party/tinycbor\cborpretty.c ****         } else if (uc < 0xF5) {
 185:D:/Work/DeviceTester/amazon-freertos/lib/third_party/tinycbor\cborpretty.c ****             /* four-byte UTF-8 */
 186:D:/Work/DeviceTester/amazon-freertos/lib/third_party/tinycbor\cborpretty.c ****             charsNeeded = 4;
 187:D:/Work/DeviceTester/amazon-freertos/lib/third_party/tinycbor\cborpretty.c ****             min_uc = 0x10000;
 188:D:/Work/DeviceTester/amazon-freertos/lib/third_party/tinycbor\cborpretty.c ****             uc &= 0x07;
 189:D:/Work/DeviceTester/amazon-freertos/lib/third_party/tinycbor\cborpretty.c ****         } else {
 190:D:/Work/DeviceTester/amazon-freertos/lib/third_party/tinycbor\cborpretty.c ****             return CborErrorInvalidUtf8TextString;
 191:D:/Work/DeviceTester/amazon-freertos/lib/third_party/tinycbor\cborpretty.c ****         }
 192:D:/Work/DeviceTester/amazon-freertos/lib/third_party/tinycbor\cborpretty.c **** 
 193:D:/Work/DeviceTester/amazon-freertos/lib/third_party/tinycbor\cborpretty.c ****         if (n < charsNeeded - 1)
 194:D:/Work/DeviceTester/amazon-freertos/lib/third_party/tinycbor\cborpretty.c ****             return CborErrorInvalidUtf8TextString;
 195:D:/Work/DeviceTester/amazon-freertos/lib/third_party/tinycbor\cborpretty.c ****         n -= charsNeeded - 1;
 196:D:/Work/DeviceTester/amazon-freertos/lib/third_party/tinycbor\cborpretty.c **** 
 197:D:/Work/DeviceTester/amazon-freertos/lib/third_party/tinycbor\cborpretty.c ****         /* first continuation character */
 198:D:/Work/DeviceTester/amazon-freertos/lib/third_party/tinycbor\cborpretty.c ****         uint8_t b = (uint8_t)*buffer++;
 199:D:/Work/DeviceTester/amazon-freertos/lib/third_party/tinycbor\cborpretty.c ****         if ((b & 0xc0) != 0x80)
 200:D:/Work/DeviceTester/amazon-freertos/lib/third_party/tinycbor\cborpretty.c ****             return CborErrorInvalidUtf8TextString;
 201:D:/Work/DeviceTester/amazon-freertos/lib/third_party/tinycbor\cborpretty.c ****         uc <<= 6;
 202:D:/Work/DeviceTester/amazon-freertos/lib/third_party/tinycbor\cborpretty.c ****         uc |= b & 0x3f;
 203:D:/Work/DeviceTester/amazon-freertos/lib/third_party/tinycbor\cborpretty.c **** 
 204:D:/Work/DeviceTester/amazon-freertos/lib/third_party/tinycbor\cborpretty.c ****         if (charsNeeded > 2) {
 205:D:/Work/DeviceTester/amazon-freertos/lib/third_party/tinycbor\cborpretty.c ****             /* second continuation character */
 206:D:/Work/DeviceTester/amazon-freertos/lib/third_party/tinycbor\cborpretty.c ****             b = (uint8_t)*buffer++;
 207:D:/Work/DeviceTester/amazon-freertos/lib/third_party/tinycbor\cborpretty.c ****             if ((b & 0xc0) != 0x80)
 208:D:/Work/DeviceTester/amazon-freertos/lib/third_party/tinycbor\cborpretty.c ****                 return CborErrorInvalidUtf8TextString;
 209:D:/Work/DeviceTester/amazon-freertos/lib/third_party/tinycbor\cborpretty.c ****             uc <<= 6;
 210:D:/Work/DeviceTester/amazon-freertos/lib/third_party/tinycbor\cborpretty.c ****             uc |= b & 0x3f;
 211:D:/Work/DeviceTester/amazon-freertos/lib/third_party/tinycbor\cborpretty.c **** 
 212:D:/Work/DeviceTester/amazon-freertos/lib/third_party/tinycbor\cborpretty.c ****             if (charsNeeded > 3) {
 213:D:/Work/DeviceTester/amazon-freertos/lib/third_party/tinycbor\cborpretty.c ****                 /* third continuation character */
 214:D:/Work/DeviceTester/amazon-freertos/lib/third_party/tinycbor\cborpretty.c ****                 b = (uint8_t)*buffer++;
 215:D:/Work/DeviceTester/amazon-freertos/lib/third_party/tinycbor\cborpretty.c ****                 if ((b & 0xc0) != 0x80)
 216:D:/Work/DeviceTester/amazon-freertos/lib/third_party/tinycbor\cborpretty.c ****                     return CborErrorInvalidUtf8TextString;
 217:D:/Work/DeviceTester/amazon-freertos/lib/third_party/tinycbor\cborpretty.c ****                 uc <<= 6;
 218:D:/Work/DeviceTester/amazon-freertos/lib/third_party/tinycbor\cborpretty.c ****                 uc |= b & 0x3f;
 219:D:/Work/DeviceTester/amazon-freertos/lib/third_party/tinycbor\cborpretty.c ****             }
 220:D:/Work/DeviceTester/amazon-freertos/lib/third_party/tinycbor\cborpretty.c ****         }
 221:D:/Work/DeviceTester/amazon-freertos/lib/third_party/tinycbor\cborpretty.c **** 
 222:D:/Work/DeviceTester/amazon-freertos/lib/third_party/tinycbor\cborpretty.c ****         /* overlong sequence? surrogate pair? out or range? */
 223:D:/Work/DeviceTester/amazon-freertos/lib/third_party/tinycbor\cborpretty.c ****         if (uc < min_uc || uc - 0xd800U < 2048U || uc > 0x10ffff)
 224:D:/Work/DeviceTester/amazon-freertos/lib/third_party/tinycbor\cborpretty.c ****             return CborErrorInvalidUtf8TextString;
 225:D:/Work/DeviceTester/amazon-freertos/lib/third_party/tinycbor\cborpretty.c **** 
 226:D:/Work/DeviceTester/amazon-freertos/lib/third_party/tinycbor\cborpretty.c ****         /* now print the sequence */
 227:D:/Work/DeviceTester/amazon-freertos/lib/third_party/tinycbor\cborpretty.c ****         if (charsNeeded > 3) {
 228:D:/Work/DeviceTester/amazon-freertos/lib/third_party/tinycbor\cborpretty.c ****             /* needs surrogate pairs */
 229:D:/Work/DeviceTester/amazon-freertos/lib/third_party/tinycbor\cborpretty.c ****             if (fprintf(out, "\\u%04" PRIX32 "\\u%04" PRIX32,
 230:D:/Work/DeviceTester/amazon-freertos/lib/third_party/tinycbor\cborpretty.c ****                         (uc >> 10) + 0xd7c0,    /* high surrogate */
 231:D:/Work/DeviceTester/amazon-freertos/lib/third_party/tinycbor\cborpretty.c ****                         (uc % 0x0400) + 0xdc00) < 0)
 232:D:/Work/DeviceTester/amazon-freertos/lib/third_party/tinycbor\cborpretty.c ****                 return CborErrorIO;
 233:D:/Work/DeviceTester/amazon-freertos/lib/third_party/tinycbor\cborpretty.c ****         } else {
 234:D:/Work/DeviceTester/amazon-freertos/lib/third_party/tinycbor\cborpretty.c **** print_utf16:
 235:D:/Work/DeviceTester/amazon-freertos/lib/third_party/tinycbor\cborpretty.c ****             /* no surrogate pair needed */
 236:D:/Work/DeviceTester/amazon-freertos/lib/third_party/tinycbor\cborpretty.c ****             if (fprintf(out, "\\u%04" PRIX32, uc) < 0)
 237:D:/Work/DeviceTester/amazon-freertos/lib/third_party/tinycbor\cborpretty.c ****                 return CborErrorIO;
 238:D:/Work/DeviceTester/amazon-freertos/lib/third_party/tinycbor\cborpretty.c ****         }
 239:D:/Work/DeviceTester/amazon-freertos/lib/third_party/tinycbor\cborpretty.c ****     }
 240:D:/Work/DeviceTester/amazon-freertos/lib/third_party/tinycbor\cborpretty.c ****     return CborNoError;
 241:D:/Work/DeviceTester/amazon-freertos/lib/third_party/tinycbor\cborpretty.c **** }
 242:D:/Work/DeviceTester/amazon-freertos/lib/third_party/tinycbor\cborpretty.c **** 
 243:D:/Work/DeviceTester/amazon-freertos/lib/third_party/tinycbor\cborpretty.c **** static CborError value_to_pretty(FILE *out, CborValue *it);
 244:D:/Work/DeviceTester/amazon-freertos/lib/third_party/tinycbor\cborpretty.c **** static CborError container_to_pretty(FILE *out, CborValue *it, CborType containerType)
 245:D:/Work/DeviceTester/amazon-freertos/lib/third_party/tinycbor\cborpretty.c **** {
 246:D:/Work/DeviceTester/amazon-freertos/lib/third_party/tinycbor\cborpretty.c ****     const char *comma = "";
 247:D:/Work/DeviceTester/amazon-freertos/lib/third_party/tinycbor\cborpretty.c ****     while (!cbor_value_at_end(it)) {
 248:D:/Work/DeviceTester/amazon-freertos/lib/third_party/tinycbor\cborpretty.c ****         if (fprintf(out, "%s", comma) < 0)
 249:D:/Work/DeviceTester/amazon-freertos/lib/third_party/tinycbor\cborpretty.c ****             return CborErrorIO;
 250:D:/Work/DeviceTester/amazon-freertos/lib/third_party/tinycbor\cborpretty.c ****         comma = ", ";
 251:D:/Work/DeviceTester/amazon-freertos/lib/third_party/tinycbor\cborpretty.c **** 
 252:D:/Work/DeviceTester/amazon-freertos/lib/third_party/tinycbor\cborpretty.c ****         CborError err = value_to_pretty(out, it);
 253:D:/Work/DeviceTester/amazon-freertos/lib/third_party/tinycbor\cborpretty.c ****         if (err)
 254:D:/Work/DeviceTester/amazon-freertos/lib/third_party/tinycbor\cborpretty.c ****             return err;
 255:D:/Work/DeviceTester/amazon-freertos/lib/third_party/tinycbor\cborpretty.c **** 
 256:D:/Work/DeviceTester/amazon-freertos/lib/third_party/tinycbor\cborpretty.c ****         if (containerType == CborArrayType)
 257:D:/Work/DeviceTester/amazon-freertos/lib/third_party/tinycbor\cborpretty.c ****             continue;
 258:D:/Work/DeviceTester/amazon-freertos/lib/third_party/tinycbor\cborpretty.c **** 
 259:D:/Work/DeviceTester/amazon-freertos/lib/third_party/tinycbor\cborpretty.c ****         /* map: that was the key, so get the value */
 260:D:/Work/DeviceTester/amazon-freertos/lib/third_party/tinycbor\cborpretty.c ****         if (fprintf(out, ": ") < 0)
 261:D:/Work/DeviceTester/amazon-freertos/lib/third_party/tinycbor\cborpretty.c ****             return CborErrorIO;
 262:D:/Work/DeviceTester/amazon-freertos/lib/third_party/tinycbor\cborpretty.c ****         err = value_to_pretty(out, it);
 263:D:/Work/DeviceTester/amazon-freertos/lib/third_party/tinycbor\cborpretty.c ****         if (err)
 264:D:/Work/DeviceTester/amazon-freertos/lib/third_party/tinycbor\cborpretty.c ****             return err;
 265:D:/Work/DeviceTester/amazon-freertos/lib/third_party/tinycbor\cborpretty.c ****     }
 266:D:/Work/DeviceTester/amazon-freertos/lib/third_party/tinycbor\cborpretty.c ****     return CborNoError;
 267:D:/Work/DeviceTester/amazon-freertos/lib/third_party/tinycbor\cborpretty.c **** }
 268:D:/Work/DeviceTester/amazon-freertos/lib/third_party/tinycbor\cborpretty.c **** 
 269:D:/Work/DeviceTester/amazon-freertos/lib/third_party/tinycbor\cborpretty.c **** static CborError value_to_pretty(FILE *out, CborValue *it)
 270:D:/Work/DeviceTester/amazon-freertos/lib/third_party/tinycbor\cborpretty.c **** {
  27              		.loc 1 270 0
  28              		.cfi_startproc
  29              		@ args = 0, pretend = 0, frame = 24
  30              		@ frame_needed = 0, uses_anonymous_args = 0
  31              	.LVL0:
  32 0000 F04F2DE9 		push	{r4, r5, r6, r7, r8, r9, r10, fp, lr}
  33              		.cfi_def_cfa_offset 36
  34              		.cfi_offset 4, -36
  35              		.cfi_offset 5, -32
  36              		.cfi_offset 6, -28
  37              		.cfi_offset 7, -24
  38              		.cfi_offset 8, -20
  39              		.cfi_offset 9, -16
  40              		.cfi_offset 10, -12
  41              		.cfi_offset 11, -8
  42              		.cfi_offset 14, -4
  43 0004 0160A0E1 		mov	r6, r1
  44 0008 048B2DED 		vpush.64	{d8, d9}
  45              		.cfi_def_cfa_offset 52
  46              		.cfi_offset 80, -52
  47              		.cfi_offset 81, -48
  48              		.cfi_offset 82, -44
  49              		.cfi_offset 83, -40
  50 000c 2CD04DE2 		sub	sp, sp, #44
  51              		.cfi_def_cfa_offset 96
  52 0010 0E70D1E5 		ldrb	r7, [r1, #14]	@ zero_extendqisi2
  53              	.LVL1:
 271:D:/Work/DeviceTester/amazon-freertos/lib/third_party/tinycbor\cborpretty.c ****     CborError err;
 272:D:/Work/DeviceTester/amazon-freertos/lib/third_party/tinycbor\cborpretty.c ****     CborType type = cbor_value_get_type(it);
 273:D:/Work/DeviceTester/amazon-freertos/lib/third_party/tinycbor\cborpretty.c ****     switch (type) {
  54              		.loc 1 273 0
  55 0014 E00057E3 		cmp	r7, #224
  56 0018 6801000A 		beq	.L3
  57 001c 0050A0E1 		mov	r5, r0
  58 0020 1200008A 		bhi	.L4
  59 0024 600057E3 		cmp	r7, #96
  60 0028 AC00000A 		beq	.L5
  61 002c 0700008A 		bhi	.L6
  62 0030 000057E3 		cmp	r7, #0
  63 0034 6D00000A 		beq	.L7
  64 0038 400057E3 		cmp	r7, #64
  65 003c 8200000A 		beq	.L8
  66              	.LVL2:
  67              	.L2:
 274:D:/Work/DeviceTester/amazon-freertos/lib/third_party/tinycbor\cborpretty.c ****     case CborArrayType:
 275:D:/Work/DeviceTester/amazon-freertos/lib/third_party/tinycbor\cborpretty.c ****     case CborMapType: {
 276:D:/Work/DeviceTester/amazon-freertos/lib/third_party/tinycbor\cborpretty.c ****         /* recursive type */
 277:D:/Work/DeviceTester/amazon-freertos/lib/third_party/tinycbor\cborpretty.c ****         CborValue recursed;
 278:D:/Work/DeviceTester/amazon-freertos/lib/third_party/tinycbor\cborpretty.c **** 
 279:D:/Work/DeviceTester/amazon-freertos/lib/third_party/tinycbor\cborpretty.c ****         if (fprintf(out, type == CborArrayType ? "[" : "{") < 0)
 280:D:/Work/DeviceTester/amazon-freertos/lib/third_party/tinycbor\cborpretty.c ****             return CborErrorIO;
 281:D:/Work/DeviceTester/amazon-freertos/lib/third_party/tinycbor\cborpretty.c ****         if (!cbor_value_is_length_known(it)) {
 282:D:/Work/DeviceTester/amazon-freertos/lib/third_party/tinycbor\cborpretty.c ****             if (fprintf(out, "_ ") < 0)
 283:D:/Work/DeviceTester/amazon-freertos/lib/third_party/tinycbor\cborpretty.c ****                 return CborErrorIO;
 284:D:/Work/DeviceTester/amazon-freertos/lib/third_party/tinycbor\cborpretty.c ****         }
 285:D:/Work/DeviceTester/amazon-freertos/lib/third_party/tinycbor\cborpretty.c **** 
 286:D:/Work/DeviceTester/amazon-freertos/lib/third_party/tinycbor\cborpretty.c ****         err = cbor_value_enter_container(it, &recursed);
 287:D:/Work/DeviceTester/amazon-freertos/lib/third_party/tinycbor\cborpretty.c ****         if (err) {
 288:D:/Work/DeviceTester/amazon-freertos/lib/third_party/tinycbor\cborpretty.c ****             it->ptr = recursed.ptr;
 289:D:/Work/DeviceTester/amazon-freertos/lib/third_party/tinycbor\cborpretty.c ****             return err;       /* parse error */
 290:D:/Work/DeviceTester/amazon-freertos/lib/third_party/tinycbor\cborpretty.c ****         }
 291:D:/Work/DeviceTester/amazon-freertos/lib/third_party/tinycbor\cborpretty.c ****         err = container_to_pretty(out, &recursed, type);
 292:D:/Work/DeviceTester/amazon-freertos/lib/third_party/tinycbor\cborpretty.c ****         if (err) {
 293:D:/Work/DeviceTester/amazon-freertos/lib/third_party/tinycbor\cborpretty.c ****             it->ptr = recursed.ptr;
 294:D:/Work/DeviceTester/amazon-freertos/lib/third_party/tinycbor\cborpretty.c ****             return err;       /* parse error */
 295:D:/Work/DeviceTester/amazon-freertos/lib/third_party/tinycbor\cborpretty.c ****         }
 296:D:/Work/DeviceTester/amazon-freertos/lib/third_party/tinycbor\cborpretty.c ****         err = cbor_value_leave_container(it, &recursed);
 297:D:/Work/DeviceTester/amazon-freertos/lib/third_party/tinycbor\cborpretty.c ****         if (err)
 298:D:/Work/DeviceTester/amazon-freertos/lib/third_party/tinycbor\cborpretty.c ****             return err;       /* parse error */
 299:D:/Work/DeviceTester/amazon-freertos/lib/third_party/tinycbor\cborpretty.c **** 
 300:D:/Work/DeviceTester/amazon-freertos/lib/third_party/tinycbor\cborpretty.c ****         if (fprintf(out, type == CborArrayType ? "]" : "}") < 0)
 301:D:/Work/DeviceTester/amazon-freertos/lib/third_party/tinycbor\cborpretty.c ****             return CborErrorIO;
 302:D:/Work/DeviceTester/amazon-freertos/lib/third_party/tinycbor\cborpretty.c ****         return CborNoError;
 303:D:/Work/DeviceTester/amazon-freertos/lib/third_party/tinycbor\cborpretty.c ****     }
 304:D:/Work/DeviceTester/amazon-freertos/lib/third_party/tinycbor\cborpretty.c **** 
 305:D:/Work/DeviceTester/amazon-freertos/lib/third_party/tinycbor\cborpretty.c ****     case CborIntegerType: {
 306:D:/Work/DeviceTester/amazon-freertos/lib/third_party/tinycbor\cborpretty.c ****         uint64_t val;
 307:D:/Work/DeviceTester/amazon-freertos/lib/third_party/tinycbor\cborpretty.c ****         cbor_value_get_raw_integer(it, &val);    /* can't fail */
 308:D:/Work/DeviceTester/amazon-freertos/lib/third_party/tinycbor\cborpretty.c **** 
 309:D:/Work/DeviceTester/amazon-freertos/lib/third_party/tinycbor\cborpretty.c ****         if (cbor_value_is_unsigned_integer(it)) {
 310:D:/Work/DeviceTester/amazon-freertos/lib/third_party/tinycbor\cborpretty.c ****             if (fprintf(out, "%" PRIu64, val) < 0)
 311:D:/Work/DeviceTester/amazon-freertos/lib/third_party/tinycbor\cborpretty.c ****                 return CborErrorIO;
 312:D:/Work/DeviceTester/amazon-freertos/lib/third_party/tinycbor\cborpretty.c ****         } else {
 313:D:/Work/DeviceTester/amazon-freertos/lib/third_party/tinycbor\cborpretty.c ****             /* CBOR stores the negative number X as -1 - X
 314:D:/Work/DeviceTester/amazon-freertos/lib/third_party/tinycbor\cborpretty.c ****              * (that is, -1 is stored as 0, -2 as 1 and so forth) */
 315:D:/Work/DeviceTester/amazon-freertos/lib/third_party/tinycbor\cborpretty.c ****             if (++val) {                /* unsigned overflow may happen */
 316:D:/Work/DeviceTester/amazon-freertos/lib/third_party/tinycbor\cborpretty.c ****                 if (fprintf(out, "-%" PRIu64, val) < 0)
 317:D:/Work/DeviceTester/amazon-freertos/lib/third_party/tinycbor\cborpretty.c ****                     return CborErrorIO;
 318:D:/Work/DeviceTester/amazon-freertos/lib/third_party/tinycbor\cborpretty.c ****             } else {
 319:D:/Work/DeviceTester/amazon-freertos/lib/third_party/tinycbor\cborpretty.c ****                 /* overflown
 320:D:/Work/DeviceTester/amazon-freertos/lib/third_party/tinycbor\cborpretty.c ****                  *   0xffff`ffff`ffff`ffff + 1 =
 321:D:/Work/DeviceTester/amazon-freertos/lib/third_party/tinycbor\cborpretty.c ****                  * 0x1`0000`0000`0000`0000 = 18446744073709551616 (2^64) */
 322:D:/Work/DeviceTester/amazon-freertos/lib/third_party/tinycbor\cborpretty.c ****                 if (fprintf(out, "-18446744073709551616") < 0)
 323:D:/Work/DeviceTester/amazon-freertos/lib/third_party/tinycbor\cborpretty.c ****                     return CborErrorIO;
 324:D:/Work/DeviceTester/amazon-freertos/lib/third_party/tinycbor\cborpretty.c ****             }
 325:D:/Work/DeviceTester/amazon-freertos/lib/third_party/tinycbor\cborpretty.c ****         }
 326:D:/Work/DeviceTester/amazon-freertos/lib/third_party/tinycbor\cborpretty.c ****         break;
 327:D:/Work/DeviceTester/amazon-freertos/lib/third_party/tinycbor\cborpretty.c ****     }
 328:D:/Work/DeviceTester/amazon-freertos/lib/third_party/tinycbor\cborpretty.c **** 
 329:D:/Work/DeviceTester/amazon-freertos/lib/third_party/tinycbor\cborpretty.c ****     case CborByteStringType:{
 330:D:/Work/DeviceTester/amazon-freertos/lib/third_party/tinycbor\cborpretty.c ****         size_t n = 0;
 331:D:/Work/DeviceTester/amazon-freertos/lib/third_party/tinycbor\cborpretty.c ****         uint8_t *buffer;
 332:D:/Work/DeviceTester/amazon-freertos/lib/third_party/tinycbor\cborpretty.c ****         err = cbor_value_dup_byte_string(it, &buffer, &n, it);
 333:D:/Work/DeviceTester/amazon-freertos/lib/third_party/tinycbor\cborpretty.c ****         if (err)
 334:D:/Work/DeviceTester/amazon-freertos/lib/third_party/tinycbor\cborpretty.c ****             return err;
 335:D:/Work/DeviceTester/amazon-freertos/lib/third_party/tinycbor\cborpretty.c **** 
 336:D:/Work/DeviceTester/amazon-freertos/lib/third_party/tinycbor\cborpretty.c ****         bool failed = fprintf(out, "h'") < 0 || hexDump(out, buffer, n) < 0 || fprintf(out, "'") < 
 337:D:/Work/DeviceTester/amazon-freertos/lib/third_party/tinycbor\cborpretty.c ****         free(buffer);
 338:D:/Work/DeviceTester/amazon-freertos/lib/third_party/tinycbor\cborpretty.c ****         return failed ? CborErrorIO : CborNoError;
 339:D:/Work/DeviceTester/amazon-freertos/lib/third_party/tinycbor\cborpretty.c ****     }
 340:D:/Work/DeviceTester/amazon-freertos/lib/third_party/tinycbor\cborpretty.c **** 
 341:D:/Work/DeviceTester/amazon-freertos/lib/third_party/tinycbor\cborpretty.c ****     case CborTextStringType: {
 342:D:/Work/DeviceTester/amazon-freertos/lib/third_party/tinycbor\cborpretty.c ****         size_t n = 0;
 343:D:/Work/DeviceTester/amazon-freertos/lib/third_party/tinycbor\cborpretty.c ****         char *buffer;
 344:D:/Work/DeviceTester/amazon-freertos/lib/third_party/tinycbor\cborpretty.c ****         err = cbor_value_dup_text_string(it, &buffer, &n, it);
 345:D:/Work/DeviceTester/amazon-freertos/lib/third_party/tinycbor\cborpretty.c ****         if (err)
 346:D:/Work/DeviceTester/amazon-freertos/lib/third_party/tinycbor\cborpretty.c ****             return err;
 347:D:/Work/DeviceTester/amazon-freertos/lib/third_party/tinycbor\cborpretty.c **** 
 348:D:/Work/DeviceTester/amazon-freertos/lib/third_party/tinycbor\cborpretty.c ****         err = CborNoError;
 349:D:/Work/DeviceTester/amazon-freertos/lib/third_party/tinycbor\cborpretty.c ****         bool failed = fprintf(out, "\"") < 0
 350:D:/Work/DeviceTester/amazon-freertos/lib/third_party/tinycbor\cborpretty.c ****                       || (err = utf8EscapedDump(out, buffer, n)) != CborNoError
 351:D:/Work/DeviceTester/amazon-freertos/lib/third_party/tinycbor\cborpretty.c ****                       || fprintf(out, "\"") < 0;
 352:D:/Work/DeviceTester/amazon-freertos/lib/third_party/tinycbor\cborpretty.c ****         free(buffer);
 353:D:/Work/DeviceTester/amazon-freertos/lib/third_party/tinycbor\cborpretty.c ****         return err != CborNoError ? err :
 354:D:/Work/DeviceTester/amazon-freertos/lib/third_party/tinycbor\cborpretty.c ****                                     failed ? CborErrorIO : CborNoError;
 355:D:/Work/DeviceTester/amazon-freertos/lib/third_party/tinycbor\cborpretty.c ****     }
 356:D:/Work/DeviceTester/amazon-freertos/lib/third_party/tinycbor\cborpretty.c **** 
 357:D:/Work/DeviceTester/amazon-freertos/lib/third_party/tinycbor\cborpretty.c ****     case CborTagType: {
 358:D:/Work/DeviceTester/amazon-freertos/lib/third_party/tinycbor\cborpretty.c ****         CborTag tag;
 359:D:/Work/DeviceTester/amazon-freertos/lib/third_party/tinycbor\cborpretty.c ****         cbor_value_get_tag(it, &tag);       /* can't fail */
 360:D:/Work/DeviceTester/amazon-freertos/lib/third_party/tinycbor\cborpretty.c ****         if (fprintf(out, "%" PRIu64 "(", tag) < 0)
 361:D:/Work/DeviceTester/amazon-freertos/lib/third_party/tinycbor\cborpretty.c ****             return CborErrorIO;
 362:D:/Work/DeviceTester/amazon-freertos/lib/third_party/tinycbor\cborpretty.c ****         err = cbor_value_advance_fixed(it);
 363:D:/Work/DeviceTester/amazon-freertos/lib/third_party/tinycbor\cborpretty.c ****         if (err)
 364:D:/Work/DeviceTester/amazon-freertos/lib/third_party/tinycbor\cborpretty.c ****             return err;
 365:D:/Work/DeviceTester/amazon-freertos/lib/third_party/tinycbor\cborpretty.c ****         err = value_to_pretty(out, it);
 366:D:/Work/DeviceTester/amazon-freertos/lib/third_party/tinycbor\cborpretty.c ****         if (err)
 367:D:/Work/DeviceTester/amazon-freertos/lib/third_party/tinycbor\cborpretty.c ****             return err;
 368:D:/Work/DeviceTester/amazon-freertos/lib/third_party/tinycbor\cborpretty.c ****         if (fprintf(out, ")") < 0)
 369:D:/Work/DeviceTester/amazon-freertos/lib/third_party/tinycbor\cborpretty.c ****             return CborErrorIO;
 370:D:/Work/DeviceTester/amazon-freertos/lib/third_party/tinycbor\cborpretty.c ****         return CborNoError;
 371:D:/Work/DeviceTester/amazon-freertos/lib/third_party/tinycbor\cborpretty.c ****     }
 372:D:/Work/DeviceTester/amazon-freertos/lib/third_party/tinycbor\cborpretty.c **** 
 373:D:/Work/DeviceTester/amazon-freertos/lib/third_party/tinycbor\cborpretty.c ****     case CborSimpleType: {
 374:D:/Work/DeviceTester/amazon-freertos/lib/third_party/tinycbor\cborpretty.c ****         uint8_t simple_type;
 375:D:/Work/DeviceTester/amazon-freertos/lib/third_party/tinycbor\cborpretty.c ****         cbor_value_get_simple_type(it, &simple_type);  /* can't fail */
 376:D:/Work/DeviceTester/amazon-freertos/lib/third_party/tinycbor\cborpretty.c ****         if (fprintf(out, "simple(%" PRIu8 ")", simple_type) < 0)
 377:D:/Work/DeviceTester/amazon-freertos/lib/third_party/tinycbor\cborpretty.c ****             return CborErrorIO;
 378:D:/Work/DeviceTester/amazon-freertos/lib/third_party/tinycbor\cborpretty.c ****         break;
 379:D:/Work/DeviceTester/amazon-freertos/lib/third_party/tinycbor\cborpretty.c ****     }
 380:D:/Work/DeviceTester/amazon-freertos/lib/third_party/tinycbor\cborpretty.c **** 
 381:D:/Work/DeviceTester/amazon-freertos/lib/third_party/tinycbor\cborpretty.c ****     case CborNullType:
 382:D:/Work/DeviceTester/amazon-freertos/lib/third_party/tinycbor\cborpretty.c ****         if (fprintf(out, "null") < 0)
 383:D:/Work/DeviceTester/amazon-freertos/lib/third_party/tinycbor\cborpretty.c ****             return CborErrorIO;
 384:D:/Work/DeviceTester/amazon-freertos/lib/third_party/tinycbor\cborpretty.c ****         break;
 385:D:/Work/DeviceTester/amazon-freertos/lib/third_party/tinycbor\cborpretty.c **** 
 386:D:/Work/DeviceTester/amazon-freertos/lib/third_party/tinycbor\cborpretty.c ****     case CborUndefinedType:
 387:D:/Work/DeviceTester/amazon-freertos/lib/third_party/tinycbor\cborpretty.c ****         if (fprintf(out, "undefined") < 0)
 388:D:/Work/DeviceTester/amazon-freertos/lib/third_party/tinycbor\cborpretty.c ****             return CborErrorIO;
 389:D:/Work/DeviceTester/amazon-freertos/lib/third_party/tinycbor\cborpretty.c ****         break;
 390:D:/Work/DeviceTester/amazon-freertos/lib/third_party/tinycbor\cborpretty.c **** 
 391:D:/Work/DeviceTester/amazon-freertos/lib/third_party/tinycbor\cborpretty.c ****     case CborBooleanType: {
 392:D:/Work/DeviceTester/amazon-freertos/lib/third_party/tinycbor\cborpretty.c ****         bool val;
 393:D:/Work/DeviceTester/amazon-freertos/lib/third_party/tinycbor\cborpretty.c ****         cbor_value_get_boolean(it, &val);       /* can't fail */
 394:D:/Work/DeviceTester/amazon-freertos/lib/third_party/tinycbor\cborpretty.c ****         if (fprintf(out, val ? "true" : "false") < 0)
 395:D:/Work/DeviceTester/amazon-freertos/lib/third_party/tinycbor\cborpretty.c ****             return CborErrorIO;
 396:D:/Work/DeviceTester/amazon-freertos/lib/third_party/tinycbor\cborpretty.c ****         break;
 397:D:/Work/DeviceTester/amazon-freertos/lib/third_party/tinycbor\cborpretty.c ****     }
 398:D:/Work/DeviceTester/amazon-freertos/lib/third_party/tinycbor\cborpretty.c **** 
 399:D:/Work/DeviceTester/amazon-freertos/lib/third_party/tinycbor\cborpretty.c ****     case CborDoubleType: {
 400:D:/Work/DeviceTester/amazon-freertos/lib/third_party/tinycbor\cborpretty.c ****         const char *suffix;
 401:D:/Work/DeviceTester/amazon-freertos/lib/third_party/tinycbor\cborpretty.c ****         double val;
 402:D:/Work/DeviceTester/amazon-freertos/lib/third_party/tinycbor\cborpretty.c ****         if (false) {
 403:D:/Work/DeviceTester/amazon-freertos/lib/third_party/tinycbor\cborpretty.c ****             float f;
 404:D:/Work/DeviceTester/amazon-freertos/lib/third_party/tinycbor\cborpretty.c ****     case CborFloatType:
 405:D:/Work/DeviceTester/amazon-freertos/lib/third_party/tinycbor\cborpretty.c ****             cbor_value_get_float(it, &f);
 406:D:/Work/DeviceTester/amazon-freertos/lib/third_party/tinycbor\cborpretty.c ****             val = f;
 407:D:/Work/DeviceTester/amazon-freertos/lib/third_party/tinycbor\cborpretty.c ****             suffix = "f";
 408:D:/Work/DeviceTester/amazon-freertos/lib/third_party/tinycbor\cborpretty.c ****         } else if (false) {
 409:D:/Work/DeviceTester/amazon-freertos/lib/third_party/tinycbor\cborpretty.c ****             uint16_t f16;
 410:D:/Work/DeviceTester/amazon-freertos/lib/third_party/tinycbor\cborpretty.c ****     case CborHalfFloatType:
 411:D:/Work/DeviceTester/amazon-freertos/lib/third_party/tinycbor\cborpretty.c ****             cbor_value_get_half_float(it, &f16);
 412:D:/Work/DeviceTester/amazon-freertos/lib/third_party/tinycbor\cborpretty.c ****             val = decode_half(f16);
 413:D:/Work/DeviceTester/amazon-freertos/lib/third_party/tinycbor\cborpretty.c ****             suffix = "f16";
 414:D:/Work/DeviceTester/amazon-freertos/lib/third_party/tinycbor\cborpretty.c ****         } else {
 415:D:/Work/DeviceTester/amazon-freertos/lib/third_party/tinycbor\cborpretty.c ****             cbor_value_get_double(it, &val);
 416:D:/Work/DeviceTester/amazon-freertos/lib/third_party/tinycbor\cborpretty.c ****             suffix = "";
 417:D:/Work/DeviceTester/amazon-freertos/lib/third_party/tinycbor\cborpretty.c ****         }
 418:D:/Work/DeviceTester/amazon-freertos/lib/third_party/tinycbor\cborpretty.c **** 
 419:D:/Work/DeviceTester/amazon-freertos/lib/third_party/tinycbor\cborpretty.c ****         int r = fpclassify(val);
 420:D:/Work/DeviceTester/amazon-freertos/lib/third_party/tinycbor\cborpretty.c ****         if (r == FP_NAN || r == FP_INFINITE)
 421:D:/Work/DeviceTester/amazon-freertos/lib/third_party/tinycbor\cborpretty.c ****             suffix = "";
 422:D:/Work/DeviceTester/amazon-freertos/lib/third_party/tinycbor\cborpretty.c **** 
 423:D:/Work/DeviceTester/amazon-freertos/lib/third_party/tinycbor\cborpretty.c ****         uint64_t ival = (uint64_t)fabs(val);
 424:D:/Work/DeviceTester/amazon-freertos/lib/third_party/tinycbor\cborpretty.c ****         if (ival == fabs(val)) {
 425:D:/Work/DeviceTester/amazon-freertos/lib/third_party/tinycbor\cborpretty.c ****             /* this double value fits in a 64-bit integer, so show it as such
 426:D:/Work/DeviceTester/amazon-freertos/lib/third_party/tinycbor\cborpretty.c ****              * (followed by a floating point suffix, to disambiguate) */
 427:D:/Work/DeviceTester/amazon-freertos/lib/third_party/tinycbor\cborpretty.c ****             r = fprintf(out, "%s%" PRIu64 ".%s", val < 0 ? "-" : "", ival, suffix);
 428:D:/Work/DeviceTester/amazon-freertos/lib/third_party/tinycbor\cborpretty.c ****         } else {
 429:D:/Work/DeviceTester/amazon-freertos/lib/third_party/tinycbor\cborpretty.c ****             /* this number is definitely not a 64-bit integer */
 430:D:/Work/DeviceTester/amazon-freertos/lib/third_party/tinycbor\cborpretty.c ****             r = fprintf(out, "%." DBL_DECIMAL_DIG_STR "g%s", val, suffix);
 431:D:/Work/DeviceTester/amazon-freertos/lib/third_party/tinycbor\cborpretty.c ****         }
 432:D:/Work/DeviceTester/amazon-freertos/lib/third_party/tinycbor\cborpretty.c ****         if (r < 0)
 433:D:/Work/DeviceTester/amazon-freertos/lib/third_party/tinycbor\cborpretty.c ****             return CborErrorIO;
 434:D:/Work/DeviceTester/amazon-freertos/lib/third_party/tinycbor\cborpretty.c ****         break;
 435:D:/Work/DeviceTester/amazon-freertos/lib/third_party/tinycbor\cborpretty.c ****     }
 436:D:/Work/DeviceTester/amazon-freertos/lib/third_party/tinycbor\cborpretty.c **** 
 437:D:/Work/DeviceTester/amazon-freertos/lib/third_party/tinycbor\cborpretty.c ****     case CborInvalidType:
 438:D:/Work/DeviceTester/amazon-freertos/lib/third_party/tinycbor\cborpretty.c ****         if (fprintf(out, "invalid") < 0)
 439:D:/Work/DeviceTester/amazon-freertos/lib/third_party/tinycbor\cborpretty.c ****             return CborErrorIO;
 440:D:/Work/DeviceTester/amazon-freertos/lib/third_party/tinycbor\cborpretty.c ****         return CborErrorUnknownType;
 441:D:/Work/DeviceTester/amazon-freertos/lib/third_party/tinycbor\cborpretty.c ****     }
 442:D:/Work/DeviceTester/amazon-freertos/lib/third_party/tinycbor\cborpretty.c **** 
 443:D:/Work/DeviceTester/amazon-freertos/lib/third_party/tinycbor\cborpretty.c ****     err = cbor_value_advance_fixed(it);
  68              		.loc 1 443 0
  69 0040 0600A0E1 		mov	r0, r6
  70 0044 FEFFFFEB 		bl	cbor_value_advance_fixed
  71              	.LVL3:
  72 0048 0040A0E1 		mov	r4, r0
  73              	.LVL4:
 444:D:/Work/DeviceTester/amazon-freertos/lib/third_party/tinycbor\cborpretty.c ****     return err;
  74              		.loc 1 444 0
  75 004c D90000EA 		b	.L1
  76              	.LVL5:
  77              	.L6:
 273:D:/Work/DeviceTester/amazon-freertos/lib/third_party/tinycbor\cborpretty.c ****     case CborArrayType:
  78              		.loc 1 273 0
  79 0050 A00057E3 		cmp	r7, #160
  80 0054 2000000A 		beq	.L9
  81 0058 C00057E3 		cmp	r7, #192
  82 005c 3E01000A 		beq	.L10
  83 0060 800057E3 		cmp	r7, #128
  84 0064 F5FFFF1A 		bne	.L2
  85              	.LBB85:
 279:D:/Work/DeviceTester/amazon-freertos/lib/third_party/tinycbor\cborpretty.c ****             return CborErrorIO;
  86              		.loc 1 279 0
  87 0068 18179FE5 		ldr	r1, .L140+24
  88              	.LVL6:
  89 006c 1B0000EA 		b	.L19
  90              	.LVL7:
  91              	.L4:
  92              	.LBE85:
 273:D:/Work/DeviceTester/amazon-freertos/lib/third_party/tinycbor\cborpretty.c ****     case CborArrayType:
  93              		.loc 1 273 0
  94 0070 F90057E3 		cmp	r7, #249
  95 0074 8601000A 		beq	.L11
  96 0078 0C00008A 		bhi	.L12
  97 007c F60057E3 		cmp	r7, #246
  98 0080 5201000A 		beq	.L13
  99 0084 F70057E3 		cmp	r7, #247
 100 0088 5201000A 		beq	.L14
 101 008c F50057E3 		cmp	r7, #245
 102 0090 EAFFFF1A 		bne	.L2
 103              	.LVL8:
 104              	.LBB95:
 394:D:/Work/DeviceTester/amazon-freertos/lib/third_party/tinycbor\cborpretty.c ****             return CborErrorIO;
 105              		.loc 1 394 0
 106 0094 BC10D1E1 		ldrh	r1, [r1, #12]
 107              	.LVL9:
 108 0098 EC369FE5 		ldr	r3, .L140+28
 109 009c EC269FE5 		ldr	r2, .L140+32
 110 00a0 000051E3 		cmp	r1, #0
 111 00a4 0310A001 		moveq	r1, r3
 112 00a8 0210A011 		movne	r1, r2
 113 00ac AD0100EA 		b	.L136
 114              	.LVL10:
 115              	.L12:
 116              	.LBE95:
 273:D:/Work/DeviceTester/amazon-freertos/lib/third_party/tinycbor\cborpretty.c ****     case CborArrayType:
 117              		.loc 1 273 0
 118 00b0 FB0057E3 		cmp	r7, #251
 119 00b4 9201000A 		beq	.L16
 120 00b8 4801003A 		bcc	.L17
 121 00bc FF0057E3 		cmp	r7, #255
 122 00c0 DEFFFF1A 		bne	.L2
 438:D:/Work/DeviceTester/amazon-freertos/lib/third_party/tinycbor\cborpretty.c ****             return CborErrorIO;
 123              		.loc 1 438 0
 124 00c4 C8169FE5 		ldr	r1, .L140+36
 125              	.LVL11:
 126 00c8 FEFFFFEB 		bl	fprintf
 127              	.LVL12:
 128 00cc 000050E3 		cmp	r0, #0
 440:D:/Work/DeviceTester/amazon-freertos/lib/third_party/tinycbor\cborpretty.c ****     }
 129              		.loc 1 440 0
 130 00d0 034100A3 		movwge	r4, #259
 438:D:/Work/DeviceTester/amazon-freertos/lib/third_party/tinycbor\cborpretty.c ****             return CborErrorIO;
 131              		.loc 1 438 0
 132 00d4 B70000AA 		bge	.L1
 133 00d8 040000EA 		b	.L134
 134              	.LVL13:
 135              	.L9:
 136              	.LBB96:
 279:D:/Work/DeviceTester/amazon-freertos/lib/third_party/tinycbor\cborpretty.c ****             return CborErrorIO;
 137              		.loc 1 279 0
 138 00dc B4169FE5 		ldr	r1, .L140+40
 139              	.LVL14:
 140              	.L19:
 279:D:/Work/DeviceTester/amazon-freertos/lib/third_party/tinycbor\cborpretty.c ****             return CborErrorIO;
 141              		.loc 1 279 0 is_stmt 0 discriminator 4
 142 00e0 0500A0E1 		mov	r0, r5
 143              	.LVL15:
 144 00e4 FEFFFFEB 		bl	fprintf
 145              	.LVL16:
 146 00e8 000050E3 		cmp	r0, #0
 147 00ec 010000AA 		bge	.L20
 148              	.LVL17:
 149              	.L134:
 150              	.LBE96:
 151              	.LBB97:
 433:D:/Work/DeviceTester/amazon-freertos/lib/third_party/tinycbor\cborpretty.c ****         break;
 152              		.loc 1 433 0 is_stmt 1
 153 00f0 0440A0E3 		mov	r4, #4
 154 00f4 AF0000EA 		b	.L1
 155              	.LVL18:
 156              	.L20:
 157              	.LBE97:
 158              	.LBB120:
 281:D:/Work/DeviceTester/amazon-freertos/lib/third_party/tinycbor\cborpretty.c ****             if (fprintf(out, "_ ") < 0)
 159              		.loc 1 281 0
 160 00f8 0F30D6E5 		ldrb	r3, [r6, #15]	@ zero_extendqisi2
 161 00fc 040013E3 		tst	r3, #4
 162 0100 1900001A 		bne	.L22
 163              	.L26:
 286:D:/Work/DeviceTester/amazon-freertos/lib/third_party/tinycbor\cborpretty.c ****         if (err) {
 164              		.loc 1 286 0
 165 0104 18108DE2 		add	r1, sp, #24
 166 0108 0600A0E1 		mov	r0, r6
 167 010c FEFFFFEB 		bl	cbor_value_enter_container
 168              	.LVL19:
 287:D:/Work/DeviceTester/amazon-freertos/lib/third_party/tinycbor\cborpretty.c ****             it->ptr = recursed.ptr;
 169              		.loc 1 287 0
 170 0110 004050E2 		subs	r4, r0, #0
 171 0114 3200001A 		bne	.L28
 172 0118 7C869FE5 		ldr	r8, .L140+44
 173              	.LBB86:
 174              	.LBB87:
 175              	.LBB88:
 248:D:/Work/DeviceTester/amazon-freertos/lib/third_party/tinycbor\cborpretty.c ****             return CborErrorIO;
 176              		.loc 1 248 0
 177 011c 7C969FE5 		ldr	r9, .L140+48
 178 0120 7CA69FE5 		ldr	r10, .L140+52
 260:D:/Work/DeviceTester/amazon-freertos/lib/third_party/tinycbor\cborpretty.c ****             return CborErrorIO;
 179              		.loc 1 260 0
 180 0124 7CB69FE5 		ldr	fp, .L140+56
 181              	.LVL20:
 182              	.L29:
 183              	.LBE88:
 247:D:/Work/DeviceTester/amazon-freertos/lib/third_party/tinycbor\cborpretty.c ****         if (fprintf(out, "%s", comma) < 0)
 184              		.loc 1 247 0
 185 0128 20309DE5 		ldr	r3, [sp, #32]
 186 012c 000053E3 		cmp	r3, #0
 187 0130 1300001A 		bne	.L31
 188              	.LVL21:
 189              	.LBE87:
 190              	.LBE86:
 296:D:/Work/DeviceTester/amazon-freertos/lib/third_party/tinycbor\cborpretty.c ****         if (err)
 191              		.loc 1 296 0
 192 0134 18108DE2 		add	r1, sp, #24
 193              	.LVL22:
 194 0138 0600A0E1 		mov	r0, r6
 195 013c FEFFFFEB 		bl	cbor_value_leave_container
 196              	.LVL23:
 297:D:/Work/DeviceTester/amazon-freertos/lib/third_party/tinycbor\cborpretty.c ****             return err;       /* parse error */
 197              		.loc 1 297 0
 198 0140 004050E2 		subs	r4, r0, #0
 199 0144 9B00001A 		bne	.L1
 300:D:/Work/DeviceTester/amazon-freertos/lib/third_party/tinycbor\cborpretty.c ****             return CborErrorIO;
 200              		.loc 1 300 0
 201 0148 5C369FE5 		ldr	r3, .L140+60
 202 014c 800057E3 		cmp	r7, #128
 203 0150 58169FE5 		ldr	r1, .L140+64
 204 0154 0310A011 		movne	r1, r3
 205              	.LVL24:
 206              	.L138:
 207              	.LBE120:
 208              	.LBB121:
 368:D:/Work/DeviceTester/amazon-freertos/lib/third_party/tinycbor\cborpretty.c ****             return CborErrorIO;
 209              		.loc 1 368 0
 210 0158 0500A0E1 		mov	r0, r5
 211              	.LVL25:
 212 015c FEFFFFEB 		bl	fprintf
 213              	.LVL26:
 214 0160 000050E3 		cmp	r0, #0
 215 0164 930000AA 		bge	.L1
 216 0168 E0FFFFEA 		b	.L134
 217              	.LVL27:
 218              	.L22:
 219              	.LBE121:
 220              	.LBB128:
 282:D:/Work/DeviceTester/amazon-freertos/lib/third_party/tinycbor\cborpretty.c ****                 return CborErrorIO;
 221              		.loc 1 282 0
 222 016c 40169FE5 		ldr	r1, .L140+68
 223 0170 0500A0E1 		mov	r0, r5
 224 0174 FEFFFFEB 		bl	fprintf
 225              	.LVL28:
 226 0178 000050E3 		cmp	r0, #0
 227 017c E0FFFFAA 		bge	.L26
 228 0180 DAFFFFEA 		b	.L134
 229              	.LVL29:
 230              	.L31:
 231              	.LBB93:
 232              	.LBB91:
 233              	.LBB89:
 248:D:/Work/DeviceTester/amazon-freertos/lib/third_party/tinycbor\cborpretty.c ****             return CborErrorIO;
 234              		.loc 1 248 0
 235 0184 0820A0E1 		mov	r2, r8
 236 0188 0910A0E1 		mov	r1, r9
 237 018c 0500A0E1 		mov	r0, r5
 238 0190 FEFFFFEB 		bl	fprintf
 239              	.LVL30:
 240 0194 000050E3 		cmp	r0, #0
 241 0198 6A0100BA 		blt	.L27
 242              	.LVL31:
 252:D:/Work/DeviceTester/amazon-freertos/lib/third_party/tinycbor\cborpretty.c ****         if (err)
 243              		.loc 1 252 0
 244 019c 18108DE2 		add	r1, sp, #24
 245              	.LVL32:
 246 01a0 0500A0E1 		mov	r0, r5
 247 01a4 95FFFFEB 		bl	value_to_pretty
 248              	.LVL33:
 253:D:/Work/DeviceTester/amazon-freertos/lib/third_party/tinycbor\cborpretty.c ****             return err;
 249              		.loc 1 253 0
 250 01a8 004050E2 		subs	r4, r0, #0
 251 01ac 0C00001A 		bne	.L28
 256:D:/Work/DeviceTester/amazon-freertos/lib/third_party/tinycbor\cborpretty.c ****             continue;
 252              		.loc 1 256 0
 253 01b0 800057E3 		cmp	r7, #128
 254 01b4 0A80A0E1 		mov	r8, r10
 255 01b8 DAFFFF0A 		beq	.L29
 260:D:/Work/DeviceTester/amazon-freertos/lib/third_party/tinycbor\cborpretty.c ****             return CborErrorIO;
 256              		.loc 1 260 0
 257 01bc 0B10A0E1 		mov	r1, fp
 258 01c0 0500A0E1 		mov	r0, r5
 259              	.LVL34:
 260 01c4 FEFFFFEB 		bl	fprintf
 261              	.LVL35:
 262 01c8 000050E3 		cmp	r0, #0
 263 01cc 5D0100BA 		blt	.L27
 262:D:/Work/DeviceTester/amazon-freertos/lib/third_party/tinycbor\cborpretty.c ****         if (err)
 264              		.loc 1 262 0
 265 01d0 18108DE2 		add	r1, sp, #24
 266              	.LVL36:
 267 01d4 0500A0E1 		mov	r0, r5
 268 01d8 88FFFFEB 		bl	value_to_pretty
 269              	.LVL37:
 263:D:/Work/DeviceTester/amazon-freertos/lib/third_party/tinycbor\cborpretty.c ****             return err;
 270              		.loc 1 263 0
 271 01dc 004050E2 		subs	r4, r0, #0
 272 01e0 D0FFFF0A 		beq	.L29
 273              	.LVL38:
 274              	.L28:
 275              	.LBE89:
 276              	.LBE91:
 277              	.LBE93:
 293:D:/Work/DeviceTester/amazon-freertos/lib/third_party/tinycbor\cborpretty.c ****             return err;       /* parse error */
 278              		.loc 1 293 0
 279 01e4 1C309DE5 		ldr	r3, [sp, #28]
 280 01e8 043086E5 		str	r3, [r6, #4]
 294:D:/Work/DeviceTester/amazon-freertos/lib/third_party/tinycbor\cborpretty.c ****         }
 281              		.loc 1 294 0
 282 01ec 710000EA 		b	.L1
 283              	.LVL39:
 284              	.L7:
 285              	.LBE128:
 286              	.LBB129:
 287              	.LBB130:
 288              	.LBB131:
 289              	.LBB132:
 290              	.LBB133:
 291              		.file 2 "D:/Work/DeviceTester/amazon-freertos/lib/third_party/tinycbor/cbor.h"
   1:D:/Work/DeviceTester/amazon-freertos/lib/third_party/tinycbor\cbor.h **** /****************************************************************************
   2:D:/Work/DeviceTester/amazon-freertos/lib/third_party/tinycbor\cbor.h **** **
   3:D:/Work/DeviceTester/amazon-freertos/lib/third_party/tinycbor\cbor.h **** ** Copyright (C) 2015 Intel Corporation
   4:D:/Work/DeviceTester/amazon-freertos/lib/third_party/tinycbor\cbor.h **** **
   5:D:/Work/DeviceTester/amazon-freertos/lib/third_party/tinycbor\cbor.h **** ** Permission is hereby granted, free of charge, to any person obtaining a copy
   6:D:/Work/DeviceTester/amazon-freertos/lib/third_party/tinycbor\cbor.h **** ** of this software and associated documentation files (the "Software"), to deal
   7:D:/Work/DeviceTester/amazon-freertos/lib/third_party/tinycbor\cbor.h **** ** in the Software without restriction, including without limitation the rights
   8:D:/Work/DeviceTester/amazon-freertos/lib/third_party/tinycbor\cbor.h **** ** to use, copy, modify, merge, publish, distribute, sublicense, and/or sell
   9:D:/Work/DeviceTester/amazon-freertos/lib/third_party/tinycbor\cbor.h **** ** copies of the Software, and to permit persons to whom the Software is
  10:D:/Work/DeviceTester/amazon-freertos/lib/third_party/tinycbor\cbor.h **** ** furnished to do so, subject to the following conditions:
  11:D:/Work/DeviceTester/amazon-freertos/lib/third_party/tinycbor\cbor.h **** **
  12:D:/Work/DeviceTester/amazon-freertos/lib/third_party/tinycbor\cbor.h **** ** The above copyright notice and this permission notice shall be included in
  13:D:/Work/DeviceTester/amazon-freertos/lib/third_party/tinycbor\cbor.h **** ** all copies or substantial portions of the Software.
  14:D:/Work/DeviceTester/amazon-freertos/lib/third_party/tinycbor\cbor.h **** **
  15:D:/Work/DeviceTester/amazon-freertos/lib/third_party/tinycbor\cbor.h **** ** THE SOFTWARE IS PROVIDED "AS IS", WITHOUT WARRANTY OF ANY KIND, EXPRESS OR
  16:D:/Work/DeviceTester/amazon-freertos/lib/third_party/tinycbor\cbor.h **** ** IMPLIED, INCLUDING BUT NOT LIMITED TO THE WARRANTIES OF MERCHANTABILITY,
  17:D:/Work/DeviceTester/amazon-freertos/lib/third_party/tinycbor\cbor.h **** ** FITNESS FOR A PARTICULAR PURPOSE AND NONINFRINGEMENT. IN NO EVENT SHALL THE
  18:D:/Work/DeviceTester/amazon-freertos/lib/third_party/tinycbor\cbor.h **** ** AUTHORS OR COPYRIGHT HOLDERS BE LIABLE FOR ANY CLAIM, DAMAGES OR OTHER
  19:D:/Work/DeviceTester/amazon-freertos/lib/third_party/tinycbor\cbor.h **** ** LIABILITY, WHETHER IN AN ACTION OF CONTRACT, TORT OR OTHERWISE, ARISING FROM,
  20:D:/Work/DeviceTester/amazon-freertos/lib/third_party/tinycbor\cbor.h **** ** OUT OF OR IN CONNECTION WITH THE SOFTWARE OR THE USE OR OTHER DEALINGS IN
  21:D:/Work/DeviceTester/amazon-freertos/lib/third_party/tinycbor\cbor.h **** ** THE SOFTWARE.
  22:D:/Work/DeviceTester/amazon-freertos/lib/third_party/tinycbor\cbor.h **** **
  23:D:/Work/DeviceTester/amazon-freertos/lib/third_party/tinycbor\cbor.h **** ****************************************************************************/
  24:D:/Work/DeviceTester/amazon-freertos/lib/third_party/tinycbor\cbor.h **** 
  25:D:/Work/DeviceTester/amazon-freertos/lib/third_party/tinycbor\cbor.h **** #ifndef CBOR_H
  26:D:/Work/DeviceTester/amazon-freertos/lib/third_party/tinycbor\cbor.h **** #define CBOR_H
  27:D:/Work/DeviceTester/amazon-freertos/lib/third_party/tinycbor\cbor.h **** 
  28:D:/Work/DeviceTester/amazon-freertos/lib/third_party/tinycbor\cbor.h **** #include <assert.h>
  29:D:/Work/DeviceTester/amazon-freertos/lib/third_party/tinycbor\cbor.h **** #include <limits.h>
  30:D:/Work/DeviceTester/amazon-freertos/lib/third_party/tinycbor\cbor.h **** #include <stddef.h>
  31:D:/Work/DeviceTester/amazon-freertos/lib/third_party/tinycbor\cbor.h **** #include <stdint.h>
  32:D:/Work/DeviceTester/amazon-freertos/lib/third_party/tinycbor\cbor.h **** #include <string.h>
  33:D:/Work/DeviceTester/amazon-freertos/lib/third_party/tinycbor\cbor.h **** #include <stdio.h>
  34:D:/Work/DeviceTester/amazon-freertos/lib/third_party/tinycbor\cbor.h **** 
  35:D:/Work/DeviceTester/amazon-freertos/lib/third_party/tinycbor\cbor.h **** #include "assert_p.h"       /* Always include last */
  36:D:/Work/DeviceTester/amazon-freertos/lib/third_party/tinycbor\cbor.h **** 
  37:D:/Work/DeviceTester/amazon-freertos/lib/third_party/tinycbor\cbor.h **** #ifdef __cplusplus
  38:D:/Work/DeviceTester/amazon-freertos/lib/third_party/tinycbor\cbor.h **** extern "C" {
  39:D:/Work/DeviceTester/amazon-freertos/lib/third_party/tinycbor\cbor.h **** #else
  40:D:/Work/DeviceTester/amazon-freertos/lib/third_party/tinycbor\cbor.h **** #include <stdbool.h>
  41:D:/Work/DeviceTester/amazon-freertos/lib/third_party/tinycbor\cbor.h **** #endif
  42:D:/Work/DeviceTester/amazon-freertos/lib/third_party/tinycbor\cbor.h **** 
  43:D:/Work/DeviceTester/amazon-freertos/lib/third_party/tinycbor\cbor.h **** #ifndef SIZE_MAX
  44:D:/Work/DeviceTester/amazon-freertos/lib/third_party/tinycbor\cbor.h **** /* Some systems fail to define SIZE_MAX in <stdint.h>, even though C99 requires it...
  45:D:/Work/DeviceTester/amazon-freertos/lib/third_party/tinycbor\cbor.h ****  * Conversion from signed to unsigned is defined in 6.3.1.3 (Signed and unsigned integers) p2,
  46:D:/Work/DeviceTester/amazon-freertos/lib/third_party/tinycbor\cbor.h ****  * which says: "the value is converted by repeatedly adding or subtracting one more than the
  47:D:/Work/DeviceTester/amazon-freertos/lib/third_party/tinycbor\cbor.h ****  * maximum value that can be represented in the new type until the value is in the range of the
  48:D:/Work/DeviceTester/amazon-freertos/lib/third_party/tinycbor\cbor.h ****  * new type."
  49:D:/Work/DeviceTester/amazon-freertos/lib/third_party/tinycbor\cbor.h ****  * So -1 gets converted to size_t by adding SIZE_MAX + 1, which results in SIZE_MAX.
  50:D:/Work/DeviceTester/amazon-freertos/lib/third_party/tinycbor\cbor.h ****  */
  51:D:/Work/DeviceTester/amazon-freertos/lib/third_party/tinycbor\cbor.h **** #  define SIZE_MAX ((size_t)-1)
  52:D:/Work/DeviceTester/amazon-freertos/lib/third_party/tinycbor\cbor.h **** #endif
  53:D:/Work/DeviceTester/amazon-freertos/lib/third_party/tinycbor\cbor.h **** 
  54:D:/Work/DeviceTester/amazon-freertos/lib/third_party/tinycbor\cbor.h **** #ifndef CBOR_API
  55:D:/Work/DeviceTester/amazon-freertos/lib/third_party/tinycbor\cbor.h **** #  define CBOR_API
  56:D:/Work/DeviceTester/amazon-freertos/lib/third_party/tinycbor\cbor.h **** #endif
  57:D:/Work/DeviceTester/amazon-freertos/lib/third_party/tinycbor\cbor.h **** #ifndef CBOR_PRIVATE_API
  58:D:/Work/DeviceTester/amazon-freertos/lib/third_party/tinycbor\cbor.h **** #  define CBOR_PRIVATE_API
  59:D:/Work/DeviceTester/amazon-freertos/lib/third_party/tinycbor\cbor.h **** #endif
  60:D:/Work/DeviceTester/amazon-freertos/lib/third_party/tinycbor\cbor.h **** #ifndef CBOR_INLINE_API
  61:D:/Work/DeviceTester/amazon-freertos/lib/third_party/tinycbor\cbor.h **** #  if defined(__cplusplus)
  62:D:/Work/DeviceTester/amazon-freertos/lib/third_party/tinycbor\cbor.h **** #    define CBOR_INLINE inline
  63:D:/Work/DeviceTester/amazon-freertos/lib/third_party/tinycbor\cbor.h **** #    define CBOR_INLINE_API inline
  64:D:/Work/DeviceTester/amazon-freertos/lib/third_party/tinycbor\cbor.h **** #  else
  65:D:/Work/DeviceTester/amazon-freertos/lib/third_party/tinycbor\cbor.h **** #    define CBOR_INLINE_API static CBOR_INLINE
  66:D:/Work/DeviceTester/amazon-freertos/lib/third_party/tinycbor\cbor.h **** #    if defined(_MSC_VER)
  67:D:/Work/DeviceTester/amazon-freertos/lib/third_party/tinycbor\cbor.h **** #      define CBOR_INLINE __inline
  68:D:/Work/DeviceTester/amazon-freertos/lib/third_party/tinycbor\cbor.h **** #    elif defined(__GNUC__)
  69:D:/Work/DeviceTester/amazon-freertos/lib/third_party/tinycbor\cbor.h **** #      define CBOR_INLINE __inline__
  70:D:/Work/DeviceTester/amazon-freertos/lib/third_party/tinycbor\cbor.h **** #    elif defined(__STDC_VERSION__) && __STDC_VERSION__ >= 199901L
  71:D:/Work/DeviceTester/amazon-freertos/lib/third_party/tinycbor\cbor.h **** #      define CBOR_INLINE inline
  72:D:/Work/DeviceTester/amazon-freertos/lib/third_party/tinycbor\cbor.h **** #    else
  73:D:/Work/DeviceTester/amazon-freertos/lib/third_party/tinycbor\cbor.h **** #      define CBOR_INLINE
  74:D:/Work/DeviceTester/amazon-freertos/lib/third_party/tinycbor\cbor.h **** #    endif
  75:D:/Work/DeviceTester/amazon-freertos/lib/third_party/tinycbor\cbor.h **** #  endif
  76:D:/Work/DeviceTester/amazon-freertos/lib/third_party/tinycbor\cbor.h **** #endif
  77:D:/Work/DeviceTester/amazon-freertos/lib/third_party/tinycbor\cbor.h **** 
  78:D:/Work/DeviceTester/amazon-freertos/lib/third_party/tinycbor\cbor.h **** typedef enum CborType {
  79:D:/Work/DeviceTester/amazon-freertos/lib/third_party/tinycbor\cbor.h ****     CborIntegerType     = 0x00,
  80:D:/Work/DeviceTester/amazon-freertos/lib/third_party/tinycbor\cbor.h ****     CborByteStringType  = 0x40,
  81:D:/Work/DeviceTester/amazon-freertos/lib/third_party/tinycbor\cbor.h ****     CborTextStringType  = 0x60,
  82:D:/Work/DeviceTester/amazon-freertos/lib/third_party/tinycbor\cbor.h ****     CborArrayType       = 0x80,
  83:D:/Work/DeviceTester/amazon-freertos/lib/third_party/tinycbor\cbor.h ****     CborMapType         = 0xa0,
  84:D:/Work/DeviceTester/amazon-freertos/lib/third_party/tinycbor\cbor.h ****     CborTagType         = 0xc0,
  85:D:/Work/DeviceTester/amazon-freertos/lib/third_party/tinycbor\cbor.h ****     CborSimpleType      = 0xe0,
  86:D:/Work/DeviceTester/amazon-freertos/lib/third_party/tinycbor\cbor.h ****     CborBooleanType     = 0xf5,
  87:D:/Work/DeviceTester/amazon-freertos/lib/third_party/tinycbor\cbor.h ****     CborNullType        = 0xf6,
  88:D:/Work/DeviceTester/amazon-freertos/lib/third_party/tinycbor\cbor.h ****     CborUndefinedType   = 0xf7,
  89:D:/Work/DeviceTester/amazon-freertos/lib/third_party/tinycbor\cbor.h ****     CborHalfFloatType   = 0xf9,
  90:D:/Work/DeviceTester/amazon-freertos/lib/third_party/tinycbor\cbor.h ****     CborFloatType       = 0xfa,
  91:D:/Work/DeviceTester/amazon-freertos/lib/third_party/tinycbor\cbor.h ****     CborDoubleType      = 0xfb,
  92:D:/Work/DeviceTester/amazon-freertos/lib/third_party/tinycbor\cbor.h **** 
  93:D:/Work/DeviceTester/amazon-freertos/lib/third_party/tinycbor\cbor.h ****     CborInvalidType     = 0xff              /* equivalent to the break byte, so it will never be us
  94:D:/Work/DeviceTester/amazon-freertos/lib/third_party/tinycbor\cbor.h **** } CborType;
  95:D:/Work/DeviceTester/amazon-freertos/lib/third_party/tinycbor\cbor.h **** 
  96:D:/Work/DeviceTester/amazon-freertos/lib/third_party/tinycbor\cbor.h **** typedef uint64_t CborTag;
  97:D:/Work/DeviceTester/amazon-freertos/lib/third_party/tinycbor\cbor.h **** typedef enum CborKnownTags {
  98:D:/Work/DeviceTester/amazon-freertos/lib/third_party/tinycbor\cbor.h ****     CborDateTimeStringTag          = 0,        /* RFC 3339 format: YYYY-MM-DD hh:mm:ss+zzzz */
  99:D:/Work/DeviceTester/amazon-freertos/lib/third_party/tinycbor\cbor.h ****     CborUnixTime_tTag              = 1,
 100:D:/Work/DeviceTester/amazon-freertos/lib/third_party/tinycbor\cbor.h ****     CborPositiveBignumTag          = 2,
 101:D:/Work/DeviceTester/amazon-freertos/lib/third_party/tinycbor\cbor.h ****     CborNegativeBignumTag          = 3,
 102:D:/Work/DeviceTester/amazon-freertos/lib/third_party/tinycbor\cbor.h ****     CborDecimalTag                 = 4,
 103:D:/Work/DeviceTester/amazon-freertos/lib/third_party/tinycbor\cbor.h ****     CborBigfloatTag                = 5,
 104:D:/Work/DeviceTester/amazon-freertos/lib/third_party/tinycbor\cbor.h ****     CborExpectedBase64urlTag       = 21,
 105:D:/Work/DeviceTester/amazon-freertos/lib/third_party/tinycbor\cbor.h ****     CborExpectedBase64Tag          = 22,
 106:D:/Work/DeviceTester/amazon-freertos/lib/third_party/tinycbor\cbor.h ****     CborExpectedBase16Tag          = 23,
 107:D:/Work/DeviceTester/amazon-freertos/lib/third_party/tinycbor\cbor.h ****     CborUriTag                     = 32,
 108:D:/Work/DeviceTester/amazon-freertos/lib/third_party/tinycbor\cbor.h ****     CborBase64urlTag               = 33,
 109:D:/Work/DeviceTester/amazon-freertos/lib/third_party/tinycbor\cbor.h ****     CborBase64Tag                  = 34,
 110:D:/Work/DeviceTester/amazon-freertos/lib/third_party/tinycbor\cbor.h ****     CborRegularExpressionTag       = 35,
 111:D:/Work/DeviceTester/amazon-freertos/lib/third_party/tinycbor\cbor.h ****     CborMimeMessageTag             = 36,       /* RFC 2045-2047 */
 112:D:/Work/DeviceTester/amazon-freertos/lib/third_party/tinycbor\cbor.h ****     CborSignatureTag               = 55799
 113:D:/Work/DeviceTester/amazon-freertos/lib/third_party/tinycbor\cbor.h **** } CborKnownTags;
 114:D:/Work/DeviceTester/amazon-freertos/lib/third_party/tinycbor\cbor.h **** 
 115:D:/Work/DeviceTester/amazon-freertos/lib/third_party/tinycbor\cbor.h **** /* Error API */
 116:D:/Work/DeviceTester/amazon-freertos/lib/third_party/tinycbor\cbor.h **** 
 117:D:/Work/DeviceTester/amazon-freertos/lib/third_party/tinycbor\cbor.h **** typedef enum CborError {
 118:D:/Work/DeviceTester/amazon-freertos/lib/third_party/tinycbor\cbor.h ****     CborNoError = 0,
 119:D:/Work/DeviceTester/amazon-freertos/lib/third_party/tinycbor\cbor.h **** 
 120:D:/Work/DeviceTester/amazon-freertos/lib/third_party/tinycbor\cbor.h ****     /* errors in all modes */
 121:D:/Work/DeviceTester/amazon-freertos/lib/third_party/tinycbor\cbor.h ****     CborUnknownError,
 122:D:/Work/DeviceTester/amazon-freertos/lib/third_party/tinycbor\cbor.h ****     CborErrorUnknownLength,         /* request for length in array, map, or string with indetermina
 123:D:/Work/DeviceTester/amazon-freertos/lib/third_party/tinycbor\cbor.h ****     CborErrorAdvancePastEOF,
 124:D:/Work/DeviceTester/amazon-freertos/lib/third_party/tinycbor\cbor.h ****     CborErrorIO,
 125:D:/Work/DeviceTester/amazon-freertos/lib/third_party/tinycbor\cbor.h **** 
 126:D:/Work/DeviceTester/amazon-freertos/lib/third_party/tinycbor\cbor.h ****     /* parser errors streaming errors */
 127:D:/Work/DeviceTester/amazon-freertos/lib/third_party/tinycbor\cbor.h ****     CborErrorGarbageAtEnd = 256,
 128:D:/Work/DeviceTester/amazon-freertos/lib/third_party/tinycbor\cbor.h ****     CborErrorUnexpectedEOF,
 129:D:/Work/DeviceTester/amazon-freertos/lib/third_party/tinycbor\cbor.h ****     CborErrorUnexpectedBreak,
 130:D:/Work/DeviceTester/amazon-freertos/lib/third_party/tinycbor\cbor.h ****     CborErrorUnknownType,           /* can only heppen in major type 7 */
 131:D:/Work/DeviceTester/amazon-freertos/lib/third_party/tinycbor\cbor.h ****     CborErrorIllegalType,           /* type not allowed here */
 132:D:/Work/DeviceTester/amazon-freertos/lib/third_party/tinycbor\cbor.h ****     CborErrorIllegalNumber,
 133:D:/Work/DeviceTester/amazon-freertos/lib/third_party/tinycbor\cbor.h ****     CborErrorIllegalSimpleType,     /* types of value less than 32 encoded in two bytes */
 134:D:/Work/DeviceTester/amazon-freertos/lib/third_party/tinycbor\cbor.h **** 
 135:D:/Work/DeviceTester/amazon-freertos/lib/third_party/tinycbor\cbor.h ****     /* parser errors in strict mode parsing only */
 136:D:/Work/DeviceTester/amazon-freertos/lib/third_party/tinycbor\cbor.h ****     CborErrorUnknownSimpleType = 512,
 137:D:/Work/DeviceTester/amazon-freertos/lib/third_party/tinycbor\cbor.h ****     CborErrorUnknownTag,
 138:D:/Work/DeviceTester/amazon-freertos/lib/third_party/tinycbor\cbor.h ****     CborErrorInappropriateTagForType,
 139:D:/Work/DeviceTester/amazon-freertos/lib/third_party/tinycbor\cbor.h ****     CborErrorDuplicateObjectKeys,
 140:D:/Work/DeviceTester/amazon-freertos/lib/third_party/tinycbor\cbor.h ****     CborErrorInvalidUtf8TextString,
 141:D:/Work/DeviceTester/amazon-freertos/lib/third_party/tinycbor\cbor.h **** 
 142:D:/Work/DeviceTester/amazon-freertos/lib/third_party/tinycbor\cbor.h ****     /* encoder errors */
 143:D:/Work/DeviceTester/amazon-freertos/lib/third_party/tinycbor\cbor.h ****     CborErrorTooManyItems = 768,
 144:D:/Work/DeviceTester/amazon-freertos/lib/third_party/tinycbor\cbor.h ****     CborErrorTooFewItems,
 145:D:/Work/DeviceTester/amazon-freertos/lib/third_party/tinycbor\cbor.h **** 
 146:D:/Work/DeviceTester/amazon-freertos/lib/third_party/tinycbor\cbor.h ****     /* internal implementation errors */
 147:D:/Work/DeviceTester/amazon-freertos/lib/third_party/tinycbor\cbor.h ****     CborErrorDataTooLarge = 1024,
 148:D:/Work/DeviceTester/amazon-freertos/lib/third_party/tinycbor\cbor.h ****     CborErrorNestingTooDeep,
 149:D:/Work/DeviceTester/amazon-freertos/lib/third_party/tinycbor\cbor.h ****     CborErrorUnsupportedType,
 150:D:/Work/DeviceTester/amazon-freertos/lib/third_party/tinycbor\cbor.h **** 
 151:D:/Work/DeviceTester/amazon-freertos/lib/third_party/tinycbor\cbor.h ****     /* errors in converting to JSON */
 152:D:/Work/DeviceTester/amazon-freertos/lib/third_party/tinycbor\cbor.h ****     CborErrorJsonObjectKeyIsAggregate,
 153:D:/Work/DeviceTester/amazon-freertos/lib/third_party/tinycbor\cbor.h ****     CborErrorJsonObjectKeyNotString,
 154:D:/Work/DeviceTester/amazon-freertos/lib/third_party/tinycbor\cbor.h ****     CborErrorJsonNotImplemented,
 155:D:/Work/DeviceTester/amazon-freertos/lib/third_party/tinycbor\cbor.h **** 
 156:D:/Work/DeviceTester/amazon-freertos/lib/third_party/tinycbor\cbor.h ****     CborErrorOutOfMemory = (int) (~0U / 2 + 1),
 157:D:/Work/DeviceTester/amazon-freertos/lib/third_party/tinycbor\cbor.h ****     CborErrorInternalError = (int) ~0U
 158:D:/Work/DeviceTester/amazon-freertos/lib/third_party/tinycbor\cbor.h **** } CborError;
 159:D:/Work/DeviceTester/amazon-freertos/lib/third_party/tinycbor\cbor.h **** 
 160:D:/Work/DeviceTester/amazon-freertos/lib/third_party/tinycbor\cbor.h **** CBOR_API const char *cbor_error_string(CborError error);
 161:D:/Work/DeviceTester/amazon-freertos/lib/third_party/tinycbor\cbor.h **** 
 162:D:/Work/DeviceTester/amazon-freertos/lib/third_party/tinycbor\cbor.h **** /* Encoder API */
 163:D:/Work/DeviceTester/amazon-freertos/lib/third_party/tinycbor\cbor.h **** struct CborEncoder
 164:D:/Work/DeviceTester/amazon-freertos/lib/third_party/tinycbor\cbor.h **** {
 165:D:/Work/DeviceTester/amazon-freertos/lib/third_party/tinycbor\cbor.h ****     union {
 166:D:/Work/DeviceTester/amazon-freertos/lib/third_party/tinycbor\cbor.h ****         uint8_t *ptr;
 167:D:/Work/DeviceTester/amazon-freertos/lib/third_party/tinycbor\cbor.h ****         ptrdiff_t bytes_needed;
 168:D:/Work/DeviceTester/amazon-freertos/lib/third_party/tinycbor\cbor.h ****     } data;
 169:D:/Work/DeviceTester/amazon-freertos/lib/third_party/tinycbor\cbor.h ****     const uint8_t *end;
 170:D:/Work/DeviceTester/amazon-freertos/lib/third_party/tinycbor\cbor.h ****     size_t added;
 171:D:/Work/DeviceTester/amazon-freertos/lib/third_party/tinycbor\cbor.h ****     int flags;
 172:D:/Work/DeviceTester/amazon-freertos/lib/third_party/tinycbor\cbor.h **** };
 173:D:/Work/DeviceTester/amazon-freertos/lib/third_party/tinycbor\cbor.h **** typedef struct CborEncoder CborEncoder;
 174:D:/Work/DeviceTester/amazon-freertos/lib/third_party/tinycbor\cbor.h **** 
 175:D:/Work/DeviceTester/amazon-freertos/lib/third_party/tinycbor\cbor.h **** static const size_t CborIndefiniteLength = SIZE_MAX;
 176:D:/Work/DeviceTester/amazon-freertos/lib/third_party/tinycbor\cbor.h **** 
 177:D:/Work/DeviceTester/amazon-freertos/lib/third_party/tinycbor\cbor.h **** CBOR_API void cbor_encoder_init(CborEncoder *encoder, uint8_t *buffer, size_t size, int flags);
 178:D:/Work/DeviceTester/amazon-freertos/lib/third_party/tinycbor\cbor.h **** CBOR_API CborError cbor_encode_uint(CborEncoder *encoder, uint64_t value);
 179:D:/Work/DeviceTester/amazon-freertos/lib/third_party/tinycbor\cbor.h **** CBOR_API CborError cbor_encode_int(CborEncoder *encoder, int64_t value);
 180:D:/Work/DeviceTester/amazon-freertos/lib/third_party/tinycbor\cbor.h **** CBOR_API CborError cbor_encode_negative_int(CborEncoder *encoder, uint64_t absolute_value);
 181:D:/Work/DeviceTester/amazon-freertos/lib/third_party/tinycbor\cbor.h **** CBOR_API CborError cbor_encode_simple_value(CborEncoder *encoder, uint8_t value);
 182:D:/Work/DeviceTester/amazon-freertos/lib/third_party/tinycbor\cbor.h **** CBOR_API CborError cbor_encode_tag(CborEncoder *encoder, CborTag tag);
 183:D:/Work/DeviceTester/amazon-freertos/lib/third_party/tinycbor\cbor.h **** CBOR_API CborError cbor_encode_text_string(CborEncoder *encoder, const char *string, size_t length)
 184:D:/Work/DeviceTester/amazon-freertos/lib/third_party/tinycbor\cbor.h **** CBOR_INLINE_API CborError cbor_encode_text_stringz(CborEncoder *encoder, const char *string)
 185:D:/Work/DeviceTester/amazon-freertos/lib/third_party/tinycbor\cbor.h **** { return cbor_encode_text_string(encoder, string, strlen(string)); }
 186:D:/Work/DeviceTester/amazon-freertos/lib/third_party/tinycbor\cbor.h **** CBOR_API CborError cbor_encode_byte_string(CborEncoder *encoder, const uint8_t *string, size_t leng
 187:D:/Work/DeviceTester/amazon-freertos/lib/third_party/tinycbor\cbor.h **** CBOR_API CborError cbor_encode_floating_point(CborEncoder *encoder, CborType fpType, const void *va
 188:D:/Work/DeviceTester/amazon-freertos/lib/third_party/tinycbor\cbor.h **** 
 189:D:/Work/DeviceTester/amazon-freertos/lib/third_party/tinycbor\cbor.h **** CBOR_INLINE_API CborError cbor_encode_boolean(CborEncoder *encoder, bool value)
 190:D:/Work/DeviceTester/amazon-freertos/lib/third_party/tinycbor\cbor.h **** { return cbor_encode_simple_value(encoder, (int)value - 1 + (CborBooleanType & 0x1f)); }
 191:D:/Work/DeviceTester/amazon-freertos/lib/third_party/tinycbor\cbor.h **** CBOR_INLINE_API CborError cbor_encode_null(CborEncoder *encoder)
 192:D:/Work/DeviceTester/amazon-freertos/lib/third_party/tinycbor\cbor.h **** { return cbor_encode_simple_value(encoder, CborNullType & 0x1f); }
 193:D:/Work/DeviceTester/amazon-freertos/lib/third_party/tinycbor\cbor.h **** CBOR_INLINE_API CborError cbor_encode_undefined(CborEncoder *encoder)
 194:D:/Work/DeviceTester/amazon-freertos/lib/third_party/tinycbor\cbor.h **** { return cbor_encode_simple_value(encoder, CborUndefinedType & 0x1f); }
 195:D:/Work/DeviceTester/amazon-freertos/lib/third_party/tinycbor\cbor.h **** 
 196:D:/Work/DeviceTester/amazon-freertos/lib/third_party/tinycbor\cbor.h **** CBOR_INLINE_API CborError cbor_encode_half_float(CborEncoder *encoder, const void *value)
 197:D:/Work/DeviceTester/amazon-freertos/lib/third_party/tinycbor\cbor.h **** { return cbor_encode_floating_point(encoder, CborHalfFloatType, value); }
 198:D:/Work/DeviceTester/amazon-freertos/lib/third_party/tinycbor\cbor.h **** CBOR_INLINE_API CborError cbor_encode_float(CborEncoder *encoder, float value)
 199:D:/Work/DeviceTester/amazon-freertos/lib/third_party/tinycbor\cbor.h **** { return cbor_encode_floating_point(encoder, CborFloatType, &value); }
 200:D:/Work/DeviceTester/amazon-freertos/lib/third_party/tinycbor\cbor.h **** CBOR_INLINE_API CborError cbor_encode_double(CborEncoder *encoder, double value)
 201:D:/Work/DeviceTester/amazon-freertos/lib/third_party/tinycbor\cbor.h **** { return cbor_encode_floating_point(encoder, CborDoubleType, &value); }
 202:D:/Work/DeviceTester/amazon-freertos/lib/third_party/tinycbor\cbor.h **** 
 203:D:/Work/DeviceTester/amazon-freertos/lib/third_party/tinycbor\cbor.h **** CBOR_API CborError cbor_encoder_create_array(CborEncoder *encoder, CborEncoder *arrayEncoder, size_
 204:D:/Work/DeviceTester/amazon-freertos/lib/third_party/tinycbor\cbor.h **** CBOR_API CborError cbor_encoder_create_map(CborEncoder *encoder, CborEncoder *mapEncoder, size_t le
 205:D:/Work/DeviceTester/amazon-freertos/lib/third_party/tinycbor\cbor.h **** CBOR_API CborError cbor_encoder_close_container(CborEncoder *encoder, const CborEncoder *containerE
 206:D:/Work/DeviceTester/amazon-freertos/lib/third_party/tinycbor\cbor.h **** CBOR_API CborError cbor_encoder_close_container_checked(CborEncoder *encoder, const CborEncoder *co
 207:D:/Work/DeviceTester/amazon-freertos/lib/third_party/tinycbor\cbor.h **** 
 208:D:/Work/DeviceTester/amazon-freertos/lib/third_party/tinycbor\cbor.h **** CBOR_INLINE_API size_t cbor_encoder_get_buffer_size(const CborEncoder *encoder, const uint8_t *buff
 209:D:/Work/DeviceTester/amazon-freertos/lib/third_party/tinycbor\cbor.h **** {
 210:D:/Work/DeviceTester/amazon-freertos/lib/third_party/tinycbor\cbor.h ****     return (size_t)(encoder->data.ptr - buffer);
 211:D:/Work/DeviceTester/amazon-freertos/lib/third_party/tinycbor\cbor.h **** }
 212:D:/Work/DeviceTester/amazon-freertos/lib/third_party/tinycbor\cbor.h **** 
 213:D:/Work/DeviceTester/amazon-freertos/lib/third_party/tinycbor\cbor.h **** CBOR_INLINE_API size_t cbor_encoder_get_extra_bytes_needed(const CborEncoder *encoder)
 214:D:/Work/DeviceTester/amazon-freertos/lib/third_party/tinycbor\cbor.h **** {
 215:D:/Work/DeviceTester/amazon-freertos/lib/third_party/tinycbor\cbor.h ****     return encoder->end ? 0 : (size_t)encoder->data.bytes_needed;
 216:D:/Work/DeviceTester/amazon-freertos/lib/third_party/tinycbor\cbor.h **** }
 217:D:/Work/DeviceTester/amazon-freertos/lib/third_party/tinycbor\cbor.h **** 
 218:D:/Work/DeviceTester/amazon-freertos/lib/third_party/tinycbor\cbor.h **** /* Parser API */
 219:D:/Work/DeviceTester/amazon-freertos/lib/third_party/tinycbor\cbor.h **** 
 220:D:/Work/DeviceTester/amazon-freertos/lib/third_party/tinycbor\cbor.h **** enum CborParserIteratorFlags
 221:D:/Work/DeviceTester/amazon-freertos/lib/third_party/tinycbor\cbor.h **** {
 222:D:/Work/DeviceTester/amazon-freertos/lib/third_party/tinycbor\cbor.h ****     CborIteratorFlag_IntegerValueTooLarge   = 0x01,
 223:D:/Work/DeviceTester/amazon-freertos/lib/third_party/tinycbor\cbor.h ****     CborIteratorFlag_NegativeInteger        = 0x02,
 224:D:/Work/DeviceTester/amazon-freertos/lib/third_party/tinycbor\cbor.h ****     CborIteratorFlag_UnknownLength          = 0x04,
 225:D:/Work/DeviceTester/amazon-freertos/lib/third_party/tinycbor\cbor.h ****     CborIteratorFlag_ContainerIsMap         = 0x20
 226:D:/Work/DeviceTester/amazon-freertos/lib/third_party/tinycbor\cbor.h **** };
 227:D:/Work/DeviceTester/amazon-freertos/lib/third_party/tinycbor\cbor.h **** 
 228:D:/Work/DeviceTester/amazon-freertos/lib/third_party/tinycbor\cbor.h **** struct CborParser
 229:D:/Work/DeviceTester/amazon-freertos/lib/third_party/tinycbor\cbor.h **** {
 230:D:/Work/DeviceTester/amazon-freertos/lib/third_party/tinycbor\cbor.h ****     const uint8_t *end;
 231:D:/Work/DeviceTester/amazon-freertos/lib/third_party/tinycbor\cbor.h ****     int flags;
 232:D:/Work/DeviceTester/amazon-freertos/lib/third_party/tinycbor\cbor.h **** };
 233:D:/Work/DeviceTester/amazon-freertos/lib/third_party/tinycbor\cbor.h **** typedef struct CborParser CborParser;
 234:D:/Work/DeviceTester/amazon-freertos/lib/third_party/tinycbor\cbor.h **** 
 235:D:/Work/DeviceTester/amazon-freertos/lib/third_party/tinycbor\cbor.h **** struct CborValue
 236:D:/Work/DeviceTester/amazon-freertos/lib/third_party/tinycbor\cbor.h **** {
 237:D:/Work/DeviceTester/amazon-freertos/lib/third_party/tinycbor\cbor.h ****     const CborParser *parser;
 238:D:/Work/DeviceTester/amazon-freertos/lib/third_party/tinycbor\cbor.h ****     const uint8_t *ptr;
 239:D:/Work/DeviceTester/amazon-freertos/lib/third_party/tinycbor\cbor.h ****     uint32_t remaining;
 240:D:/Work/DeviceTester/amazon-freertos/lib/third_party/tinycbor\cbor.h ****     uint16_t extra;
 241:D:/Work/DeviceTester/amazon-freertos/lib/third_party/tinycbor\cbor.h ****     uint8_t type;
 242:D:/Work/DeviceTester/amazon-freertos/lib/third_party/tinycbor\cbor.h ****     uint8_t flags;
 243:D:/Work/DeviceTester/amazon-freertos/lib/third_party/tinycbor\cbor.h **** };
 244:D:/Work/DeviceTester/amazon-freertos/lib/third_party/tinycbor\cbor.h **** typedef struct CborValue CborValue;
 245:D:/Work/DeviceTester/amazon-freertos/lib/third_party/tinycbor\cbor.h **** 
 246:D:/Work/DeviceTester/amazon-freertos/lib/third_party/tinycbor\cbor.h **** CBOR_API CborError cbor_parser_init(const uint8_t *buffer, size_t size, int flags, CborParser *pars
 247:D:/Work/DeviceTester/amazon-freertos/lib/third_party/tinycbor\cbor.h **** 
 248:D:/Work/DeviceTester/amazon-freertos/lib/third_party/tinycbor\cbor.h **** CBOR_INLINE_API bool cbor_value_at_end(const CborValue *it)
 249:D:/Work/DeviceTester/amazon-freertos/lib/third_party/tinycbor\cbor.h **** { return it->remaining == 0; }
 250:D:/Work/DeviceTester/amazon-freertos/lib/third_party/tinycbor\cbor.h **** CBOR_INLINE_API const uint8_t *cbor_value_get_next_byte(const CborValue *it)
 251:D:/Work/DeviceTester/amazon-freertos/lib/third_party/tinycbor\cbor.h **** { return it->ptr; }
 252:D:/Work/DeviceTester/amazon-freertos/lib/third_party/tinycbor\cbor.h **** CBOR_API CborError cbor_value_advance_fixed(CborValue *it);
 253:D:/Work/DeviceTester/amazon-freertos/lib/third_party/tinycbor\cbor.h **** CBOR_API CborError cbor_value_advance(CborValue *it);
 254:D:/Work/DeviceTester/amazon-freertos/lib/third_party/tinycbor\cbor.h **** CBOR_INLINE_API bool cbor_value_is_container(const CborValue *it)
 255:D:/Work/DeviceTester/amazon-freertos/lib/third_party/tinycbor\cbor.h **** { return it->type == CborArrayType || it->type == CborMapType; }
 256:D:/Work/DeviceTester/amazon-freertos/lib/third_party/tinycbor\cbor.h **** CBOR_API CborError cbor_value_enter_container(const CborValue *it, CborValue *recursed);
 257:D:/Work/DeviceTester/amazon-freertos/lib/third_party/tinycbor\cbor.h **** CBOR_API CborError cbor_value_leave_container(CborValue *it, const CborValue *recursed);
 258:D:/Work/DeviceTester/amazon-freertos/lib/third_party/tinycbor\cbor.h **** 
 259:D:/Work/DeviceTester/amazon-freertos/lib/third_party/tinycbor\cbor.h **** CBOR_PRIVATE_API uint64_t _cbor_value_decode_int64_internal(const CborValue *value);
 260:D:/Work/DeviceTester/amazon-freertos/lib/third_party/tinycbor\cbor.h **** CBOR_INLINE_API uint64_t _cbor_value_extract_int64_helper(const CborValue *value)
 261:D:/Work/DeviceTester/amazon-freertos/lib/third_party/tinycbor\cbor.h **** {
 262:D:/Work/DeviceTester/amazon-freertos/lib/third_party/tinycbor\cbor.h ****     return value->flags & CborIteratorFlag_IntegerValueTooLarge ?
 263:D:/Work/DeviceTester/amazon-freertos/lib/third_party/tinycbor\cbor.h ****                 _cbor_value_decode_int64_internal(value) : value->extra;
 292              		.loc 2 263 0
 293 01f0 0F30D1E5 		ldrb	r3, [r1, #15]	@ zero_extendqisi2
 294 01f4 010013E3 		tst	r3, #1
 295 01f8 BC20D101 		ldrheq	r2, [r1, #12]
 296 01fc 0030A003 		moveq	r3, #0
 297 0200 0300000A 		beq	.L36
 298              	.LVL40:
 299              	.LBB134:
 300              	.LBB135:
 301 0204 0100A0E1 		mov	r0, r1
 302              	.LVL41:
 303 0208 FEFFFFEB 		bl	_cbor_value_decode_int64_internal
 304              	.LVL42:
 305 020c 0020A0E1 		mov	r2, r0
 306 0210 0130A0E1 		mov	r3, r1
 307              	.LVL43:
 308              	.L36:
 309              	.LBE135:
 310              	.LBE134:
 311              	.LBE133:
 312              	.LBE132:
 313              	.LBE131:
 314              	.LBE130:
 315              	.LBB136:
 316              	.LBB137:
 264:D:/Work/DeviceTester/amazon-freertos/lib/third_party/tinycbor\cbor.h **** }
 265:D:/Work/DeviceTester/amazon-freertos/lib/third_party/tinycbor\cbor.h **** 
 266:D:/Work/DeviceTester/amazon-freertos/lib/third_party/tinycbor\cbor.h **** CBOR_INLINE_API bool cbor_value_is_valid(const CborValue *value)
 267:D:/Work/DeviceTester/amazon-freertos/lib/third_party/tinycbor\cbor.h **** { return value && value->type != CborInvalidType; }
 268:D:/Work/DeviceTester/amazon-freertos/lib/third_party/tinycbor\cbor.h **** CBOR_INLINE_API CborType cbor_value_get_type(const CborValue *value)
 269:D:/Work/DeviceTester/amazon-freertos/lib/third_party/tinycbor\cbor.h **** { return (CborType)value->type; }
 270:D:/Work/DeviceTester/amazon-freertos/lib/third_party/tinycbor\cbor.h **** 
 271:D:/Work/DeviceTester/amazon-freertos/lib/third_party/tinycbor\cbor.h **** /* Null & undefined type */
 272:D:/Work/DeviceTester/amazon-freertos/lib/third_party/tinycbor\cbor.h **** CBOR_INLINE_API bool cbor_value_is_null(const CborValue *value)
 273:D:/Work/DeviceTester/amazon-freertos/lib/third_party/tinycbor\cbor.h **** { return value->type == CborNullType; }
 274:D:/Work/DeviceTester/amazon-freertos/lib/third_party/tinycbor\cbor.h **** CBOR_INLINE_API bool cbor_value_is_undefined(const CborValue *value)
 275:D:/Work/DeviceTester/amazon-freertos/lib/third_party/tinycbor\cbor.h **** { return value->type == CborUndefinedType; }
 276:D:/Work/DeviceTester/amazon-freertos/lib/third_party/tinycbor\cbor.h **** 
 277:D:/Work/DeviceTester/amazon-freertos/lib/third_party/tinycbor\cbor.h **** /* Booleans */
 278:D:/Work/DeviceTester/amazon-freertos/lib/third_party/tinycbor\cbor.h **** CBOR_INLINE_API bool cbor_value_is_boolean(const CborValue *value)
 279:D:/Work/DeviceTester/amazon-freertos/lib/third_party/tinycbor\cbor.h **** { return value->type == CborBooleanType; }
 280:D:/Work/DeviceTester/amazon-freertos/lib/third_party/tinycbor\cbor.h **** CBOR_INLINE_API CborError cbor_value_get_boolean(const CborValue *value, bool *result)
 281:D:/Work/DeviceTester/amazon-freertos/lib/third_party/tinycbor\cbor.h **** {
 282:D:/Work/DeviceTester/amazon-freertos/lib/third_party/tinycbor\cbor.h ****     assert(cbor_value_is_boolean(value));
 283:D:/Work/DeviceTester/amazon-freertos/lib/third_party/tinycbor\cbor.h ****     *result = !!value->extra;
 284:D:/Work/DeviceTester/amazon-freertos/lib/third_party/tinycbor\cbor.h ****     return CborNoError;
 285:D:/Work/DeviceTester/amazon-freertos/lib/third_party/tinycbor\cbor.h **** }
 286:D:/Work/DeviceTester/amazon-freertos/lib/third_party/tinycbor\cbor.h **** 
 287:D:/Work/DeviceTester/amazon-freertos/lib/third_party/tinycbor\cbor.h **** /* Simple types */
 288:D:/Work/DeviceTester/amazon-freertos/lib/third_party/tinycbor\cbor.h **** CBOR_INLINE_API bool cbor_value_is_simple_type(const CborValue *value)
 289:D:/Work/DeviceTester/amazon-freertos/lib/third_party/tinycbor\cbor.h **** { return value->type == CborSimpleType; }
 290:D:/Work/DeviceTester/amazon-freertos/lib/third_party/tinycbor\cbor.h **** CBOR_INLINE_API CborError cbor_value_get_simple_type(const CborValue *value, uint8_t *result)
 291:D:/Work/DeviceTester/amazon-freertos/lib/third_party/tinycbor\cbor.h **** {
 292:D:/Work/DeviceTester/amazon-freertos/lib/third_party/tinycbor\cbor.h ****     assert(cbor_value_is_simple_type(value));
 293:D:/Work/DeviceTester/amazon-freertos/lib/third_party/tinycbor\cbor.h ****     *result = (uint8_t)value->extra;
 294:D:/Work/DeviceTester/amazon-freertos/lib/third_party/tinycbor\cbor.h ****     return CborNoError;
 295:D:/Work/DeviceTester/amazon-freertos/lib/third_party/tinycbor\cbor.h **** }
 296:D:/Work/DeviceTester/amazon-freertos/lib/third_party/tinycbor\cbor.h **** 
 297:D:/Work/DeviceTester/amazon-freertos/lib/third_party/tinycbor\cbor.h **** /* Integers */
 298:D:/Work/DeviceTester/amazon-freertos/lib/third_party/tinycbor\cbor.h **** CBOR_INLINE_API bool cbor_value_is_integer(const CborValue *value)
 299:D:/Work/DeviceTester/amazon-freertos/lib/third_party/tinycbor\cbor.h **** { return value->type == CborIntegerType; }
 300:D:/Work/DeviceTester/amazon-freertos/lib/third_party/tinycbor\cbor.h **** CBOR_INLINE_API bool cbor_value_is_unsigned_integer(const CborValue *value)
 301:D:/Work/DeviceTester/amazon-freertos/lib/third_party/tinycbor\cbor.h **** { return cbor_value_is_integer(value) && (value->flags & CborIteratorFlag_NegativeInteger) == 0; }
 317              		.loc 2 301 0
 318 0214 0E10D6E5 		ldrb	r1, [r6, #14]	@ zero_extendqisi2
 319 0218 000051E3 		cmp	r1, #0
 320 021c 4B01001A 		bne	.L37
 321 0220 0F10D6E5 		ldrb	r1, [r6, #15]	@ zero_extendqisi2
 322 0224 020011E3 		tst	r1, #2
 323 0228 4801001A 		bne	.L37
 324              	.LVL44:
 325              	.LBE137:
 326              	.LBE136:
 310:D:/Work/DeviceTester/amazon-freertos/lib/third_party/tinycbor\cborpretty.c ****                 return CborErrorIO;
 327              		.loc 1 310 0
 328 022c 84159FE5 		ldr	r1, .L140+72
 329 0230 000000EA 		b	.L127
 330              	.L86:
 316:D:/Work/DeviceTester/amazon-freertos/lib/third_party/tinycbor\cborpretty.c ****                     return CborErrorIO;
 331              		.loc 1 316 0
 332 0234 80159FE5 		ldr	r1, .L140+76
 333              	.L127:
 334 0238 0500A0E1 		mov	r0, r5
 335 023c FEFFFFEB 		bl	fprintf
 336              	.LVL45:
 337              	.L82:
 338              	.LBE129:
 339              	.LBB138:
 432:D:/Work/DeviceTester/amazon-freertos/lib/third_party/tinycbor\cborpretty.c ****             return CborErrorIO;
 340              		.loc 1 432 0
 341 0240 000050E3 		cmp	r0, #0
 342 0244 7DFFFFAA 		bge	.L2
 343 0248 A8FFFFEA 		b	.L134
 344              	.LVL46:
 345              	.L8:
 346              	.LBE138:
 347              	.LBB139:
 330:D:/Work/DeviceTester/amazon-freertos/lib/third_party/tinycbor\cborpretty.c ****         uint8_t *buffer;
 348              		.loc 1 330 0
 349 024c 28208DE2 		add	r2, sp, #40
 350 0250 0030A0E3 		mov	r3, #0
 351 0254 143022E5 		str	r3, [r2, #-20]!
 352              	.LVL47:
 353              	.LBB140:
 354              	.LBB141:
 302:D:/Work/DeviceTester/amazon-freertos/lib/third_party/tinycbor\cbor.h **** CBOR_INLINE_API bool cbor_value_is_negative_integer(const CborValue *value)
 303:D:/Work/DeviceTester/amazon-freertos/lib/third_party/tinycbor\cbor.h **** { return cbor_value_is_integer(value) && (value->flags & CborIteratorFlag_NegativeInteger); }
 304:D:/Work/DeviceTester/amazon-freertos/lib/third_party/tinycbor\cbor.h **** 
 305:D:/Work/DeviceTester/amazon-freertos/lib/third_party/tinycbor\cbor.h **** CBOR_INLINE_API CborError cbor_value_get_raw_integer(const CborValue *value, uint64_t *result)
 306:D:/Work/DeviceTester/amazon-freertos/lib/third_party/tinycbor\cbor.h **** {
 307:D:/Work/DeviceTester/amazon-freertos/lib/third_party/tinycbor\cbor.h ****     assert(cbor_value_is_integer(value));
 308:D:/Work/DeviceTester/amazon-freertos/lib/third_party/tinycbor\cbor.h ****     *result = _cbor_value_extract_int64_helper(value);
 309:D:/Work/DeviceTester/amazon-freertos/lib/third_party/tinycbor\cbor.h ****     return CborNoError;
 310:D:/Work/DeviceTester/amazon-freertos/lib/third_party/tinycbor\cbor.h **** }
 311:D:/Work/DeviceTester/amazon-freertos/lib/third_party/tinycbor\cbor.h **** 
 312:D:/Work/DeviceTester/amazon-freertos/lib/third_party/tinycbor\cbor.h **** CBOR_INLINE_API CborError cbor_value_get_uint64(const CborValue *value, uint64_t *result)
 313:D:/Work/DeviceTester/amazon-freertos/lib/third_party/tinycbor\cbor.h **** {
 314:D:/Work/DeviceTester/amazon-freertos/lib/third_party/tinycbor\cbor.h ****     assert(cbor_value_is_unsigned_integer(value));
 315:D:/Work/DeviceTester/amazon-freertos/lib/third_party/tinycbor\cbor.h ****     *result = _cbor_value_extract_int64_helper(value);
 316:D:/Work/DeviceTester/amazon-freertos/lib/third_party/tinycbor\cbor.h ****     return CborNoError;
 317:D:/Work/DeviceTester/amazon-freertos/lib/third_party/tinycbor\cbor.h **** }
 318:D:/Work/DeviceTester/amazon-freertos/lib/third_party/tinycbor\cbor.h **** 
 319:D:/Work/DeviceTester/amazon-freertos/lib/third_party/tinycbor\cbor.h **** CBOR_INLINE_API CborError cbor_value_get_int64(const CborValue *value, int64_t *result)
 320:D:/Work/DeviceTester/amazon-freertos/lib/third_party/tinycbor\cbor.h **** {
 321:D:/Work/DeviceTester/amazon-freertos/lib/third_party/tinycbor\cbor.h ****     assert(cbor_value_is_integer(value));
 322:D:/Work/DeviceTester/amazon-freertos/lib/third_party/tinycbor\cbor.h ****     *result = (int64_t) _cbor_value_extract_int64_helper(value);
 323:D:/Work/DeviceTester/amazon-freertos/lib/third_party/tinycbor\cbor.h ****     if (value->flags & CborIteratorFlag_NegativeInteger)
 324:D:/Work/DeviceTester/amazon-freertos/lib/third_party/tinycbor\cbor.h ****         *result = -*result - 1;
 325:D:/Work/DeviceTester/amazon-freertos/lib/third_party/tinycbor\cbor.h ****     return CborNoError;
 326:D:/Work/DeviceTester/amazon-freertos/lib/third_party/tinycbor\cbor.h **** }
 327:D:/Work/DeviceTester/amazon-freertos/lib/third_party/tinycbor\cbor.h **** 
 328:D:/Work/DeviceTester/amazon-freertos/lib/third_party/tinycbor\cbor.h **** CBOR_INLINE_API CborError cbor_value_get_int(const CborValue *value, int *result)
 329:D:/Work/DeviceTester/amazon-freertos/lib/third_party/tinycbor\cbor.h **** {
 330:D:/Work/DeviceTester/amazon-freertos/lib/third_party/tinycbor\cbor.h ****     assert(cbor_value_is_integer(value));
 331:D:/Work/DeviceTester/amazon-freertos/lib/third_party/tinycbor\cbor.h ****     *result = (int) _cbor_value_extract_int64_helper(value);
 332:D:/Work/DeviceTester/amazon-freertos/lib/third_party/tinycbor\cbor.h ****     if (value->flags & CborIteratorFlag_NegativeInteger)
 333:D:/Work/DeviceTester/amazon-freertos/lib/third_party/tinycbor\cbor.h ****         *result = -*result - 1;
 334:D:/Work/DeviceTester/amazon-freertos/lib/third_party/tinycbor\cbor.h ****     return CborNoError;
 335:D:/Work/DeviceTester/amazon-freertos/lib/third_party/tinycbor\cbor.h **** }
 336:D:/Work/DeviceTester/amazon-freertos/lib/third_party/tinycbor\cbor.h **** 
 337:D:/Work/DeviceTester/amazon-freertos/lib/third_party/tinycbor\cbor.h **** CBOR_API CborError cbor_value_get_int64_checked(const CborValue *value, int64_t *result);
 338:D:/Work/DeviceTester/amazon-freertos/lib/third_party/tinycbor\cbor.h **** CBOR_API CborError cbor_value_get_int_checked(const CborValue *value, int *result);
 339:D:/Work/DeviceTester/amazon-freertos/lib/third_party/tinycbor\cbor.h **** 
 340:D:/Work/DeviceTester/amazon-freertos/lib/third_party/tinycbor\cbor.h **** CBOR_INLINE_API bool cbor_value_is_length_known(const CborValue *value)
 341:D:/Work/DeviceTester/amazon-freertos/lib/third_party/tinycbor\cbor.h **** { return (value->flags & CborIteratorFlag_UnknownLength) == 0; }
 342:D:/Work/DeviceTester/amazon-freertos/lib/third_party/tinycbor\cbor.h **** 
 343:D:/Work/DeviceTester/amazon-freertos/lib/third_party/tinycbor\cbor.h **** /* Tags */
 344:D:/Work/DeviceTester/amazon-freertos/lib/third_party/tinycbor\cbor.h **** CBOR_INLINE_API bool cbor_value_is_tag(const CborValue *value)
 345:D:/Work/DeviceTester/amazon-freertos/lib/third_party/tinycbor\cbor.h **** { return value->type == CborTagType; }
 346:D:/Work/DeviceTester/amazon-freertos/lib/third_party/tinycbor\cbor.h **** CBOR_INLINE_API CborError cbor_value_get_tag(const CborValue *value, CborTag *result)
 347:D:/Work/DeviceTester/amazon-freertos/lib/third_party/tinycbor\cbor.h **** {
 348:D:/Work/DeviceTester/amazon-freertos/lib/third_party/tinycbor\cbor.h ****     assert(cbor_value_is_tag(value));
 349:D:/Work/DeviceTester/amazon-freertos/lib/third_party/tinycbor\cbor.h ****     *result = _cbor_value_extract_int64_helper(value);
 350:D:/Work/DeviceTester/amazon-freertos/lib/third_party/tinycbor\cbor.h ****     return CborNoError;
 351:D:/Work/DeviceTester/amazon-freertos/lib/third_party/tinycbor\cbor.h **** }
 352:D:/Work/DeviceTester/amazon-freertos/lib/third_party/tinycbor\cbor.h **** CBOR_API CborError cbor_value_skip_tag(CborValue *it);
 353:D:/Work/DeviceTester/amazon-freertos/lib/third_party/tinycbor\cbor.h **** 
 354:D:/Work/DeviceTester/amazon-freertos/lib/third_party/tinycbor\cbor.h **** /* Strings */
 355:D:/Work/DeviceTester/amazon-freertos/lib/third_party/tinycbor\cbor.h **** CBOR_INLINE_API bool cbor_value_is_byte_string(const CborValue *value)
 356:D:/Work/DeviceTester/amazon-freertos/lib/third_party/tinycbor\cbor.h **** { return value->type == CborByteStringType; }
 357:D:/Work/DeviceTester/amazon-freertos/lib/third_party/tinycbor\cbor.h **** CBOR_INLINE_API bool cbor_value_is_text_string(const CborValue *value)
 358:D:/Work/DeviceTester/amazon-freertos/lib/third_party/tinycbor\cbor.h **** { return value->type == CborTextStringType; }
 359:D:/Work/DeviceTester/amazon-freertos/lib/third_party/tinycbor\cbor.h **** 
 360:D:/Work/DeviceTester/amazon-freertos/lib/third_party/tinycbor\cbor.h **** CBOR_INLINE_API CborError cbor_value_get_string_length(const CborValue *value, size_t *length)
 361:D:/Work/DeviceTester/amazon-freertos/lib/third_party/tinycbor\cbor.h **** {
 362:D:/Work/DeviceTester/amazon-freertos/lib/third_party/tinycbor\cbor.h ****     assert(cbor_value_is_byte_string(value) || cbor_value_is_text_string(value));
 363:D:/Work/DeviceTester/amazon-freertos/lib/third_party/tinycbor\cbor.h ****     if (!cbor_value_is_length_known(value))
 364:D:/Work/DeviceTester/amazon-freertos/lib/third_party/tinycbor\cbor.h ****         return CborErrorUnknownLength;
 365:D:/Work/DeviceTester/amazon-freertos/lib/third_party/tinycbor\cbor.h ****     uint64_t v = _cbor_value_extract_int64_helper(value);
 366:D:/Work/DeviceTester/amazon-freertos/lib/third_party/tinycbor\cbor.h ****     *length = (size_t)v;
 367:D:/Work/DeviceTester/amazon-freertos/lib/third_party/tinycbor\cbor.h ****     if (*length != v)
 368:D:/Work/DeviceTester/amazon-freertos/lib/third_party/tinycbor\cbor.h ****         return CborErrorDataTooLarge;
 369:D:/Work/DeviceTester/amazon-freertos/lib/third_party/tinycbor\cbor.h ****     return CborNoError;
 370:D:/Work/DeviceTester/amazon-freertos/lib/third_party/tinycbor\cbor.h **** }
 371:D:/Work/DeviceTester/amazon-freertos/lib/third_party/tinycbor\cbor.h **** 
 372:D:/Work/DeviceTester/amazon-freertos/lib/third_party/tinycbor\cbor.h **** CBOR_PRIVATE_API CborError _cbor_value_copy_string(const CborValue *value, void *buffer,
 373:D:/Work/DeviceTester/amazon-freertos/lib/third_party/tinycbor\cbor.h ****                                                    size_t *buflen, CborValue *next);
 374:D:/Work/DeviceTester/amazon-freertos/lib/third_party/tinycbor\cbor.h **** #if !defined(__RX)
 375:D:/Work/DeviceTester/amazon-freertos/lib/third_party/tinycbor\cbor.h **** 
 376:D:/Work/DeviceTester/amazon-freertos/lib/third_party/tinycbor\cbor.h **** CBOR_PRIVATE_API CborError _cbor_value_dup_string(const CborValue *value, void **buffer,
 377:D:/Work/DeviceTester/amazon-freertos/lib/third_party/tinycbor\cbor.h ****                                                   size_t *buflen, CborValue *next);
 378:D:/Work/DeviceTester/amazon-freertos/lib/third_party/tinycbor\cbor.h **** #endif /* __RX check */
 379:D:/Work/DeviceTester/amazon-freertos/lib/third_party/tinycbor\cbor.h **** 
 380:D:/Work/DeviceTester/amazon-freertos/lib/third_party/tinycbor\cbor.h **** CBOR_API CborError cbor_value_calculate_string_length(const CborValue *value, size_t *length);
 381:D:/Work/DeviceTester/amazon-freertos/lib/third_party/tinycbor\cbor.h **** 
 382:D:/Work/DeviceTester/amazon-freertos/lib/third_party/tinycbor\cbor.h **** CBOR_INLINE_API CborError cbor_value_copy_text_string(const CborValue *value, char *buffer,
 383:D:/Work/DeviceTester/amazon-freertos/lib/third_party/tinycbor\cbor.h ****                                                       size_t *buflen, CborValue *next)
 384:D:/Work/DeviceTester/amazon-freertos/lib/third_party/tinycbor\cbor.h **** {
 385:D:/Work/DeviceTester/amazon-freertos/lib/third_party/tinycbor\cbor.h ****     assert(cbor_value_is_text_string(value));
 386:D:/Work/DeviceTester/amazon-freertos/lib/third_party/tinycbor\cbor.h ****     return _cbor_value_copy_string(value, buffer, buflen, next);
 387:D:/Work/DeviceTester/amazon-freertos/lib/third_party/tinycbor\cbor.h **** }
 388:D:/Work/DeviceTester/amazon-freertos/lib/third_party/tinycbor\cbor.h **** CBOR_INLINE_API CborError cbor_value_copy_byte_string(const CborValue *value, uint8_t *buffer,
 389:D:/Work/DeviceTester/amazon-freertos/lib/third_party/tinycbor\cbor.h ****                                                       size_t *buflen, CborValue *next)
 390:D:/Work/DeviceTester/amazon-freertos/lib/third_party/tinycbor\cbor.h **** {
 391:D:/Work/DeviceTester/amazon-freertos/lib/third_party/tinycbor\cbor.h ****     assert(cbor_value_is_byte_string(value));
 392:D:/Work/DeviceTester/amazon-freertos/lib/third_party/tinycbor\cbor.h ****     return _cbor_value_copy_string(value, buffer, buflen, next);
 393:D:/Work/DeviceTester/amazon-freertos/lib/third_party/tinycbor\cbor.h **** }
 394:D:/Work/DeviceTester/amazon-freertos/lib/third_party/tinycbor\cbor.h **** 
 395:D:/Work/DeviceTester/amazon-freertos/lib/third_party/tinycbor\cbor.h **** #if !defined(__RX)
 396:D:/Work/DeviceTester/amazon-freertos/lib/third_party/tinycbor\cbor.h **** 
 397:D:/Work/DeviceTester/amazon-freertos/lib/third_party/tinycbor\cbor.h **** CBOR_INLINE_API CborError cbor_value_dup_text_string(const CborValue *value, char **buffer,
 398:D:/Work/DeviceTester/amazon-freertos/lib/third_party/tinycbor\cbor.h ****                                                      size_t *buflen, CborValue *next)
 399:D:/Work/DeviceTester/amazon-freertos/lib/third_party/tinycbor\cbor.h **** {
 400:D:/Work/DeviceTester/amazon-freertos/lib/third_party/tinycbor\cbor.h ****     assert(cbor_value_is_text_string(value));
 401:D:/Work/DeviceTester/amazon-freertos/lib/third_party/tinycbor\cbor.h ****     return _cbor_value_dup_string(value, (void **)buffer, buflen, next);
 402:D:/Work/DeviceTester/amazon-freertos/lib/third_party/tinycbor\cbor.h **** }
 403:D:/Work/DeviceTester/amazon-freertos/lib/third_party/tinycbor\cbor.h **** CBOR_INLINE_API CborError cbor_value_dup_byte_string(const CborValue *value, uint8_t **buffer,
 404:D:/Work/DeviceTester/amazon-freertos/lib/third_party/tinycbor\cbor.h ****                                                      size_t *buflen, CborValue *next)
 405:D:/Work/DeviceTester/amazon-freertos/lib/third_party/tinycbor\cbor.h **** {
 406:D:/Work/DeviceTester/amazon-freertos/lib/third_party/tinycbor\cbor.h ****     assert(cbor_value_is_byte_string(value));
 407:D:/Work/DeviceTester/amazon-freertos/lib/third_party/tinycbor\cbor.h ****     return _cbor_value_dup_string(value, (void **)buffer, buflen, next);
 355              		.loc 2 407 0
 356 0258 0600A0E1 		mov	r0, r6
 357              	.LVL48:
 358 025c 0130A0E1 		mov	r3, r1
 359 0260 18108DE2 		add	r1, sp, #24
 360              	.LVL49:
 361 0264 FEFFFFEB 		bl	_cbor_value_dup_string
 362              	.LVL50:
 363              	.LBE141:
 364              	.LBE140:
 333:D:/Work/DeviceTester/amazon-freertos/lib/third_party/tinycbor\cborpretty.c ****             return err;
 365              		.loc 1 333 0
 366 0268 004050E2 		subs	r4, r0, #0
 367 026c 5100001A 		bne	.L1
 336:D:/Work/DeviceTester/amazon-freertos/lib/third_party/tinycbor\cborpretty.c ****         free(buffer);
 368              		.loc 1 336 0
 369 0270 48159FE5 		ldr	r1, .L140+80
 370 0274 0500A0E1 		mov	r0, r5
 371 0278 FEFFFFEB 		bl	fprintf
 372              	.LVL51:
 373 027c 000050E3 		cmp	r0, #0
 374 0280 100000BA 		blt	.L42
 336:D:/Work/DeviceTester/amazon-freertos/lib/third_party/tinycbor\cborpretty.c ****         free(buffer);
 375              		.loc 1 336 0 is_stmt 0 discriminator 2
 376 0284 18609DE5 		ldr	r6, [sp, #24]
 377              	.LVL52:
 378 0288 14709DE5 		ldr	r7, [sp, #20]
 379              	.LBB142:
 380              	.LBB143:
 381              	.LBB144:
 118:D:/Work/DeviceTester/amazon-freertos/lib/third_party/tinycbor\cborpretty.c ****         if (r < 0)
 382              		.loc 1 118 0 is_stmt 1 discriminator 2
 383 028c 30859FE5 		ldr	r8, .L140+84
 384 0290 077086E0 		add	r7, r6, r7
 385              	.LVL53:
 386              	.L43:
 387              	.LBE144:
 117:D:/Work/DeviceTester/amazon-freertos/lib/third_party/tinycbor\cborpretty.c ****         int r = fprintf(out, "%02" PRIx8, *buffer++);
 388              		.loc 1 117 0
 389 0294 060057E1 		cmp	r7, r6
 390 0298 0400001A 		bne	.L44
 391              	.LVL54:
 392              	.LBE143:
 393              	.LBE142:
 336:D:/Work/DeviceTester/amazon-freertos/lib/third_party/tinycbor\cborpretty.c ****         free(buffer);
 394              		.loc 1 336 0
 395 029c 0500A0E1 		mov	r0, r5
 396 02a0 20159FE5 		ldr	r1, .L140+88
 397 02a4 FEFFFFEB 		bl	fprintf
 398              	.LVL55:
 399 02a8 A05FA0E1 		lsr	r5, r0, #31
 400              	.LVL56:
 401 02ac 060000EA 		b	.L85
 402              	.LVL57:
 403              	.L44:
 404              	.LBB147:
 405              	.LBB146:
 406              	.LBB145:
 118:D:/Work/DeviceTester/amazon-freertos/lib/third_party/tinycbor\cborpretty.c ****         if (r < 0)
 407              		.loc 1 118 0
 408 02b0 0120D6E4 		ldrb	r2, [r6], #1	@ zero_extendqisi2
 409              	.LVL58:
 410 02b4 0810A0E1 		mov	r1, r8
 411 02b8 0500A0E1 		mov	r0, r5
 412 02bc FEFFFFEB 		bl	fprintf
 413              	.LVL59:
 119:D:/Work/DeviceTester/amazon-freertos/lib/third_party/tinycbor\cborpretty.c ****             return r;
 414              		.loc 1 119 0
 415 02c0 000050E3 		cmp	r0, #0
 416 02c4 F2FFFFAA 		bge	.L43
 417              	.LVL60:
 418              	.L42:
 419              	.LBE145:
 420              	.LBE146:
 421              	.LBE147:
 336:D:/Work/DeviceTester/amazon-freertos/lib/third_party/tinycbor\cborpretty.c ****         free(buffer);
 422              		.loc 1 336 0
 423 02c8 0150A0E3 		mov	r5, #1
 424              	.LVL61:
 425              	.L85:
 337:D:/Work/DeviceTester/amazon-freertos/lib/third_party/tinycbor\cborpretty.c ****         return failed ? CborErrorIO : CborNoError;
 426              		.loc 1 337 0 discriminator 8
 427 02cc 18009DE5 		ldr	r0, [sp, #24]
 428 02d0 FEFFFFEB 		bl	free
 429              	.LVL62:
 430              	.L133:
 431              	.LBE139:
 432              	.LBB148:
 353:D:/Work/DeviceTester/amazon-freertos/lib/third_party/tinycbor\cborpretty.c ****                                     failed ? CborErrorIO : CborNoError;
 433              		.loc 1 353 0 discriminator 1
 434 02d4 000055E3 		cmp	r5, #0
 435 02d8 0440A013 		movne	r4, #4
 436 02dc 350000EA 		b	.L1
 437              	.LVL63:
 438              	.L5:
 342:D:/Work/DeviceTester/amazon-freertos/lib/third_party/tinycbor\cborpretty.c ****         char *buffer;
 439              		.loc 1 342 0
 440 02e0 28208DE2 		add	r2, sp, #40
 441 02e4 0030A0E3 		mov	r3, #0
 442 02e8 143022E5 		str	r3, [r2, #-20]!
 443              	.LVL64:
 444              	.LBB149:
 445              	.LBB150:
 401:D:/Work/DeviceTester/amazon-freertos/lib/third_party/tinycbor\cbor.h **** }
 446              		.loc 2 401 0
 447 02ec 0600A0E1 		mov	r0, r6
 448              	.LVL65:
 449 02f0 0130A0E1 		mov	r3, r1
 450 02f4 18108DE2 		add	r1, sp, #24
 451              	.LVL66:
 452 02f8 FEFFFFEB 		bl	_cbor_value_dup_string
 453              	.LVL67:
 454              	.LBE150:
 455              	.LBE149:
 345:D:/Work/DeviceTester/amazon-freertos/lib/third_party/tinycbor\cborpretty.c ****             return err;
 456              		.loc 1 345 0
 457 02fc 004050E2 		subs	r4, r0, #0
 458 0300 2C00001A 		bne	.L1
 459              	.LVL68:
 349:D:/Work/DeviceTester/amazon-freertos/lib/third_party/tinycbor\cborpretty.c ****                       || (err = utf8EscapedDump(out, buffer, n)) != CborNoError
 460              		.loc 1 349 0
 461 0304 0500A0E1 		mov	r0, r5
 462 0308 BC149FE5 		ldr	r1, .L140+92
 463 030c FEFFFFEB 		bl	fprintf
 464              	.LVL69:
 351:D:/Work/DeviceTester/amazon-freertos/lib/third_party/tinycbor\cborpretty.c ****         free(buffer);
 465              		.loc 1 351 0
 466 0310 000050E3 		cmp	r0, #0
 467 0314 0150A0B3 		movlt	r5, #1
 468              	.LVL70:
 469 0318 220000BA 		blt	.L47
 350:D:/Work/DeviceTester/amazon-freertos/lib/third_party/tinycbor\cborpretty.c ****                       || fprintf(out, "\"") < 0;
 470              		.loc 1 350 0
 471 031c 14009DE5 		ldr	r0, [sp, #20]
 472              	.LVL71:
 473 0320 18609DE5 		ldr	r6, [sp, #24]
 474              	.LVL72:
 475              	.LBB151:
 476              	.LBB152:
 477              	.LBB153:
 236:D:/Work/DeviceTester/amazon-freertos/lib/third_party/tinycbor\cborpretty.c ****                 return CborErrorIO;
 478              		.loc 1 236 0
 479 0324 A4849FE5 		ldr	r8, .L140+96
 223:D:/Work/DeviceTester/amazon-freertos/lib/third_party/tinycbor\cborpretty.c ****             return CborErrorInvalidUtf8TextString;
 480              		.loc 1 223 0
 481 0328 A4949FE5 		ldr	r9, .L140+100
 229:D:/Work/DeviceTester/amazon-freertos/lib/third_party/tinycbor\cborpretty.c ****                         (uc >> 10) + 0xd7c0,    /* high surrogate */
 482              		.loc 1 229 0
 483 032c A4A49FE5 		ldr	r10, .L140+104
 484              	.LVL73:
 485              	.L48:
 486              	.LBE153:
 130:D:/Work/DeviceTester/amazon-freertos/lib/third_party/tinycbor\cborpretty.c ****         uc = (uint8_t)*buffer++;
 487              		.loc 1 130 0
 488 0330 000050E3 		cmp	r0, #0
 489 0334 017040E2 		sub	r7, r0, #1
 490              	.LVL74:
 491 0338 0400001A 		bne	.L67
 492              	.LVL75:
 493              	.LBE152:
 494              	.LBE151:
 351:D:/Work/DeviceTester/amazon-freertos/lib/third_party/tinycbor\cborpretty.c ****         free(buffer);
 495              		.loc 1 351 0
 496 033c 0500A0E1 		mov	r0, r5
 497 0340 84149FE5 		ldr	r1, .L140+92
 498 0344 FEFFFFEB 		bl	fprintf
 499              	.LVL76:
 500 0348 A05FA0E1 		lsr	r5, r0, #31
 501 034c 150000EA 		b	.L47
 502              	.LVL77:
 503              	.L67:
 504              	.LBB167:
 505              	.LBB163:
 506              	.LBB159:
 131:D:/Work/DeviceTester/amazon-freertos/lib/third_party/tinycbor\cborpretty.c ****         if (uc < 0x80) {
 507              		.loc 1 131 0
 508 0350 0020D6E5 		ldrb	r2, [r6]	@ zero_extendqisi2
 132:D:/Work/DeviceTester/amazon-freertos/lib/third_party/tinycbor\cborpretty.c ****             /* single-byte UTF-8 */
 509              		.loc 1 132 0
 510 0354 7F0052E3 		cmp	r2, #127
 131:D:/Work/DeviceTester/amazon-freertos/lib/third_party/tinycbor\cborpretty.c ****         if (uc < 0x80) {
 511              		.loc 1 131 0
 512 0358 0210A0E1 		mov	r1, r2
 513              	.LVL78:
 132:D:/Work/DeviceTester/amazon-freertos/lib/third_party/tinycbor\cborpretty.c ****             /* single-byte UTF-8 */
 514              		.loc 1 132 0
 515 035c 3500008A 		bhi	.L49
 516              	.LBB154:
 134:D:/Work/DeviceTester/amazon-freertos/lib/third_party/tinycbor\cborpretty.c ****                 if (fprintf(out, "%c", (char)uc) < 0)
 517              		.loc 1 134 0
 518 0360 5C0052E3 		cmp	r2, #92
 519 0364 22005213 		cmpne	r2, #34
 520 0368 200042E2 		sub	r0, r2, #32
 521 036c 0130A013 		movne	r3, #1
 522 0370 0030A003 		moveq	r3, #0
 523 0374 5E0050E3 		cmp	r0, #94
 524 0378 0030A083 		movhi	r3, #0
 525 037c 01300392 		andls	r3, r3, #1
 526              	.LBE154:
 131:D:/Work/DeviceTester/amazon-freertos/lib/third_party/tinycbor\cborpretty.c ****         if (uc < 0x80) {
 527              		.loc 1 131 0
 528 0380 016086E2 		add	r6, r6, #1
 529              	.LVL79:
 530              	.LBB155:
 134:D:/Work/DeviceTester/amazon-freertos/lib/third_party/tinycbor\cborpretty.c ****                 if (fprintf(out, "%c", (char)uc) < 0)
 531              		.loc 1 134 0
 532 0384 000053E3 		cmp	r3, #0
 533 0388 0E00000A 		beq	.L50
 135:D:/Work/DeviceTester/amazon-freertos/lib/third_party/tinycbor\cborpretty.c ****                     return CborErrorIO;
 534              		.loc 1 135 0
 535 038c 48149FE5 		ldr	r1, .L140+108
 536              	.LVL80:
 537              	.L128:
 538 0390 0500A0E1 		mov	r0, r5
 539 0394 FEFFFFEB 		bl	fprintf
 540              	.LVL81:
 541              	.L130:
 542 0398 000050E3 		cmp	r0, #0
 543 039c 690000AA 		bge	.L51
 544              	.LBE155:
 545              	.LBE159:
 546              	.LBE163:
 547              	.LBE167:
 351:D:/Work/DeviceTester/amazon-freertos/lib/third_party/tinycbor\cborpretty.c ****         free(buffer);
 548              		.loc 1 351 0
 549 03a0 0150A0E3 		mov	r5, #1
 550              	.LVL82:
 551              	.LBB168:
 552              	.LBB164:
 553              	.LBB160:
 554              	.LBB156:
 136:D:/Work/DeviceTester/amazon-freertos/lib/third_party/tinycbor\cborpretty.c ****                 continue;
 555              		.loc 1 136 0
 556 03a4 0440A0E3 		mov	r4, #4
 557              	.LVL83:
 558              	.L47:
 559              	.LBE156:
 560              	.LBE160:
 561              	.LBE164:
 562              	.LBE168:
 352:D:/Work/DeviceTester/amazon-freertos/lib/third_party/tinycbor\cborpretty.c ****         return err != CborNoError ? err :
 563              		.loc 1 352 0
 564 03a8 18009DE5 		ldr	r0, [sp, #24]
 565 03ac FEFFFFEB 		bl	free
 566              	.LVL84:
 353:D:/Work/DeviceTester/amazon-freertos/lib/third_party/tinycbor\cborpretty.c ****                                     failed ? CborErrorIO : CborNoError;
 567              		.loc 1 353 0
 568 03b0 000054E3 		cmp	r4, #0
 569 03b4 C6FFFF0A 		beq	.L133
 570              	.LVL85:
 571              	.L1:
 572              	.LBE148:
 445:D:/Work/DeviceTester/amazon-freertos/lib/third_party/tinycbor\cborpretty.c **** }
 573              		.loc 1 445 0
 574 03b8 0400A0E1 		mov	r0, r4
 575 03bc 2CD08DE2 		add	sp, sp, #44
 576              		.cfi_remember_state
 577              		.cfi_def_cfa_offset 52
 578              		@ sp needed
 579 03c0 048BBDEC 		vldm	sp!, {d8-d9}
 580              		.cfi_restore 82
 581              		.cfi_restore 83
 582              		.cfi_restore 80
 583              		.cfi_restore 81
 584              		.cfi_def_cfa_offset 36
 585 03c4 F08FBDE8 		pop	{r4, r5, r6, r7, r8, r9, r10, fp, pc}
 586              	.LVL86:
 587              	.L50:
 588              		.cfi_restore_state
 589              	.LBB171:
 590              	.LBB169:
 591              	.LBB165:
 592              	.LBB161:
 593              	.LBB157:
 142:D:/Work/DeviceTester/amazon-freertos/lib/third_party/tinycbor\cborpretty.c ****             case '"':
 594              		.loc 1 142 0
 595 03c8 0C0052E3 		cmp	r2, #12
 596 03cc 1300000A 		beq	.L53
 597 03d0 0800008A 		bhi	.L54
 598 03d4 090052E3 		cmp	r2, #9
 599 03d8 1400000A 		beq	.L55
 600 03dc 0A0052E3 		cmp	r2, #10
 601 03e0 1000000A 		beq	.L56
 602 03e4 080052E3 		cmp	r2, #8
 603 03e8 0900001A 		bne	.L52
 147:D:/Work/DeviceTester/amazon-freertos/lib/third_party/tinycbor\cborpretty.c ****                 break;
 604              		.loc 1 147 0
 605 03ec 6220A0E3 		mov	r2, #98
 606              	.LVL87:
 607              	.L58:
 164:D:/Work/DeviceTester/amazon-freertos/lib/third_party/tinycbor\cborpretty.c ****                 return CborErrorIO;
 608              		.loc 1 164 0
 609 03f0 E8139FE5 		ldr	r1, .L140+112
 610              	.LVL88:
 611 03f4 E5FFFFEA 		b	.L128
 612              	.LVL89:
 613              	.L54:
 142:D:/Work/DeviceTester/amazon-freertos/lib/third_party/tinycbor\cborpretty.c ****             case '"':
 614              		.loc 1 142 0
 615 03f8 220052E3 		cmp	r2, #34
 616 03fc FBFFFF0A 		beq	.L58
 617 0400 5C0052E3 		cmp	r2, #92
 618 0404 F9FFFF0A 		beq	.L58
 619 0408 0D0052E3 		cmp	r2, #13
 156:D:/Work/DeviceTester/amazon-freertos/lib/third_party/tinycbor\cborpretty.c ****                 break;
 620              		.loc 1 156 0
 621 040c 7220A003 		moveq	r2, #114
 622              	.LVL90:
 142:D:/Work/DeviceTester/amazon-freertos/lib/third_party/tinycbor\cborpretty.c ****             case '"':
 623              		.loc 1 142 0
 624 0410 F6FFFF0A 		beq	.L58
 625              	.L52:
 626              	.LBE157:
 236:D:/Work/DeviceTester/amazon-freertos/lib/third_party/tinycbor\cborpretty.c ****                 return CborErrorIO;
 627              		.loc 1 236 0
 628 0414 0120A0E1 		mov	r2, r1
 629 0418 0810A0E1 		mov	r1, r8
 630              	.LVL91:
 631 041c DBFFFFEA 		b	.L128
 632              	.LVL92:
 633              	.L53:
 634              	.LBB158:
 150:D:/Work/DeviceTester/amazon-freertos/lib/third_party/tinycbor\cborpretty.c ****                 break;
 635              		.loc 1 150 0
 636 0420 6620A0E3 		mov	r2, #102
 637 0424 F1FFFFEA 		b	.L58
 638              	.LVL93:
 639              	.L56:
 153:D:/Work/DeviceTester/amazon-freertos/lib/third_party/tinycbor\cborpretty.c ****                 break;
 640              		.loc 1 153 0
 641 0428 6E20A0E3 		mov	r2, #110
 642 042c EFFFFFEA 		b	.L58
 643              	.LVL94:
 644              	.L55:
 159:D:/Work/DeviceTester/amazon-freertos/lib/third_party/tinycbor\cborpretty.c ****                 break;
 645              		.loc 1 159 0
 646 0430 7420A0E3 		mov	r2, #116
 647 0434 EDFFFFEA 		b	.L58
 648              	.LVL95:
 649              	.L49:
 650              	.LBE158:
 172:D:/Work/DeviceTester/amazon-freertos/lib/third_party/tinycbor\cborpretty.c ****             return CborErrorInvalidUtf8TextString;
 651              		.loc 1 172 0
 652 0438 C10052E3 		cmp	r2, #193
 653 043c 4300009A 		bls	.L99
 174:D:/Work/DeviceTester/amazon-freertos/lib/third_party/tinycbor\cborpretty.c ****             /* two-byte UTF-8 */
 654              		.loc 1 174 0
 655 0440 DF0052E3 		cmp	r2, #223
 178:D:/Work/DeviceTester/amazon-freertos/lib/third_party/tinycbor\cborpretty.c ****         } else if (uc < 0xF0) {
 656              		.loc 1 178 0
 657 0444 1F200292 		andls	r2, r2, #31
 658              	.LVL96:
 177:D:/Work/DeviceTester/amazon-freertos/lib/third_party/tinycbor\cborpretty.c ****             uc &= 0x1f;
 659              		.loc 1 177 0
 660 0448 80C0A093 		movls	ip, #128
 176:D:/Work/DeviceTester/amazon-freertos/lib/third_party/tinycbor\cborpretty.c ****             min_uc = 0x80;
 661              		.loc 1 176 0
 662 044c 0230A093 		movls	r3, #2
 174:D:/Work/DeviceTester/amazon-freertos/lib/third_party/tinycbor\cborpretty.c ****             /* two-byte UTF-8 */
 663              		.loc 1 174 0
 664 0450 0900009A 		bls	.L62
 179:D:/Work/DeviceTester/amazon-freertos/lib/third_party/tinycbor\cborpretty.c ****             /* three-byte UTF-8 */
 665              		.loc 1 179 0
 666 0454 EF0052E3 		cmp	r2, #239
 183:D:/Work/DeviceTester/amazon-freertos/lib/third_party/tinycbor\cborpretty.c ****         } else if (uc < 0xF5) {
 667              		.loc 1 183 0
 668 0458 0F200292 		andls	r2, r2, #15
 669              	.LVL97:
 182:D:/Work/DeviceTester/amazon-freertos/lib/third_party/tinycbor\cborpretty.c ****             uc &= 0x0f;
 670              		.loc 1 182 0
 671 045c 02CBA093 		movls	ip, #2048
 181:D:/Work/DeviceTester/amazon-freertos/lib/third_party/tinycbor\cborpretty.c ****             min_uc = 0x800;
 672              		.loc 1 181 0
 673 0460 0330A093 		movls	r3, #3
 179:D:/Work/DeviceTester/amazon-freertos/lib/third_party/tinycbor\cborpretty.c ****             /* three-byte UTF-8 */
 674              		.loc 1 179 0
 675 0464 0400009A 		bls	.L62
 184:D:/Work/DeviceTester/amazon-freertos/lib/third_party/tinycbor\cborpretty.c ****             /* four-byte UTF-8 */
 676              		.loc 1 184 0
 677 0468 F40052E3 		cmp	r2, #244
 678 046c 3700008A 		bhi	.L99
 679              	.LVL98:
 188:D:/Work/DeviceTester/amazon-freertos/lib/third_party/tinycbor\cborpretty.c ****         } else {
 680              		.loc 1 188 0
 681 0470 072002E2 		and	r2, r2, #7
 682              	.LVL99:
 187:D:/Work/DeviceTester/amazon-freertos/lib/third_party/tinycbor\cborpretty.c ****             uc &= 0x07;
 683              		.loc 1 187 0
 684 0474 01C8A0E3 		mov	ip, #65536
 186:D:/Work/DeviceTester/amazon-freertos/lib/third_party/tinycbor\cborpretty.c ****             min_uc = 0x10000;
 685              		.loc 1 186 0
 686 0478 0430A0E3 		mov	r3, #4
 687              	.LVL100:
 688              	.L62:
 193:D:/Work/DeviceTester/amazon-freertos/lib/third_party/tinycbor\cborpretty.c ****             return CborErrorInvalidUtf8TextString;
 689              		.loc 1 193 0
 690 047c 011043E2 		sub	r1, r3, #1
 691 0480 070051E1 		cmp	r1, r7
 692 0484 3100008A 		bhi	.L99
 198:D:/Work/DeviceTester/amazon-freertos/lib/third_party/tinycbor\cborpretty.c ****         if ((b & 0xc0) != 0x80)
 693              		.loc 1 198 0
 694 0488 0110D6E5 		ldrb	r1, [r6, #1]	@ zero_extendqisi2
 195:D:/Work/DeviceTester/amazon-freertos/lib/third_party/tinycbor\cborpretty.c **** 
 695              		.loc 1 195 0
 696 048c 037040E0 		sub	r7, r0, r3
 697              	.LVL101:
 199:D:/Work/DeviceTester/amazon-freertos/lib/third_party/tinycbor\cborpretty.c ****             return CborErrorInvalidUtf8TextString;
 698              		.loc 1 199 0
 699 0490 C00001E2 		and	r0, r1, #192
 700 0494 800050E3 		cmp	r0, #128
 701 0498 2C00001A 		bne	.L99
 702              	.LVL102:
 204:D:/Work/DeviceTester/amazon-freertos/lib/third_party/tinycbor\cborpretty.c ****             /* second continuation character */
 703              		.loc 1 204 0
 704 049c 020053E3 		cmp	r3, #2
 202:D:/Work/DeviceTester/amazon-freertos/lib/third_party/tinycbor\cborpretty.c **** 
 705              		.loc 1 202 0
 706 04a0 3F1001E2 		and	r1, r1, #63
 707              	.LVL103:
 708 04a4 021381E1 		orr	r1, r1, r2, lsl #6
 709              	.LVL104:
 198:D:/Work/DeviceTester/amazon-freertos/lib/third_party/tinycbor\cborpretty.c ****         if ((b & 0xc0) != 0x80)
 710              		.loc 1 198 0
 711 04a8 02608602 		addeq	r6, r6, #2
 712              	.LVL105:
 204:D:/Work/DeviceTester/amazon-freertos/lib/third_party/tinycbor\cborpretty.c ****             /* second continuation character */
 713              		.loc 1 204 0
 714 04ac 1000000A 		beq	.L65
 715              	.LVL106:
 206:D:/Work/DeviceTester/amazon-freertos/lib/third_party/tinycbor\cborpretty.c ****             if ((b & 0xc0) != 0x80)
 716              		.loc 1 206 0
 717 04b0 0220D6E5 		ldrb	r2, [r6, #2]	@ zero_extendqisi2
 718              	.LVL107:
 207:D:/Work/DeviceTester/amazon-freertos/lib/third_party/tinycbor\cborpretty.c ****                 return CborErrorInvalidUtf8TextString;
 719              		.loc 1 207 0
 720 04b4 C00002E2 		and	r0, r2, #192
 721 04b8 800050E3 		cmp	r0, #128
 722 04bc 2300001A 		bne	.L99
 723              	.LVL108:
 212:D:/Work/DeviceTester/amazon-freertos/lib/third_party/tinycbor\cborpretty.c ****                 /* third continuation character */
 724              		.loc 1 212 0
 725 04c0 040053E3 		cmp	r3, #4
 210:D:/Work/DeviceTester/amazon-freertos/lib/third_party/tinycbor\cborpretty.c **** 
 726              		.loc 1 210 0
 727 04c4 3F2002E2 		and	r2, r2, #63
 728              	.LVL109:
 729 04c8 011382E1 		orr	r1, r2, r1, lsl #6
 730              	.LVL110:
 206:D:/Work/DeviceTester/amazon-freertos/lib/third_party/tinycbor\cborpretty.c ****             if ((b & 0xc0) != 0x80)
 731              		.loc 1 206 0
 732 04cc 03608612 		addne	r6, r6, #3
 733              	.LVL111:
 212:D:/Work/DeviceTester/amazon-freertos/lib/third_party/tinycbor\cborpretty.c ****                 /* third continuation character */
 734              		.loc 1 212 0
 735 04d0 0700001A 		bne	.L65
 214:D:/Work/DeviceTester/amazon-freertos/lib/third_party/tinycbor\cborpretty.c ****                 if ((b & 0xc0) != 0x80)
 736              		.loc 1 214 0
 737 04d4 0320D6E5 		ldrb	r2, [r6, #3]	@ zero_extendqisi2
 738 04d8 040086E2 		add	r0, r6, #4
 739              	.LVL112:
 215:D:/Work/DeviceTester/amazon-freertos/lib/third_party/tinycbor\cborpretty.c ****                     return CborErrorInvalidUtf8TextString;
 740              		.loc 1 215 0
 741 04dc C0E002E2 		and	lr, r2, #192
 742 04e0 80005EE3 		cmp	lr, #128
 743 04e4 1900001A 		bne	.L99
 744              	.LVL113:
 218:D:/Work/DeviceTester/amazon-freertos/lib/third_party/tinycbor\cborpretty.c ****             }
 745              		.loc 1 218 0
 746 04e8 3F2002E2 		and	r2, r2, #63
 747              	.LVL114:
 214:D:/Work/DeviceTester/amazon-freertos/lib/third_party/tinycbor\cborpretty.c ****                 if ((b & 0xc0) != 0x80)
 748              		.loc 1 214 0
 749 04ec 0060A0E1 		mov	r6, r0
 750              	.LVL115:
 218:D:/Work/DeviceTester/amazon-freertos/lib/third_party/tinycbor\cborpretty.c ****             }
 751              		.loc 1 218 0
 752 04f0 011382E1 		orr	r1, r2, r1, lsl #6
 753              	.LVL116:
 754              	.L65:
 223:D:/Work/DeviceTester/amazon-freertos/lib/third_party/tinycbor\cborpretty.c ****             return CborErrorInvalidUtf8TextString;
 755              		.loc 1 223 0
 756 04f4 0C0051E1 		cmp	r1, ip
 757 04f8 1400003A 		bcc	.L99
 758 04fc 090051E1 		cmp	r1, r9
 759 0500 362B41E2 		sub	r2, r1, #55296
 760 0504 0000A093 		movls	r0, #0
 761 0508 0100A083 		movhi	r0, #1
 762 050c 020B52E3 		cmp	r2, #2048
 763 0510 0020A021 		movcs	r2, r0
 764 0514 01208033 		orrcc	r2, r0, #1
 765 0518 000052E3 		cmp	r2, #0
 766 051c 0B00001A 		bne	.L99
 227:D:/Work/DeviceTester/amazon-freertos/lib/third_party/tinycbor\cborpretty.c ****             /* needs surrogate pairs */
 767              		.loc 1 227 0
 768 0520 040053E3 		cmp	r3, #4
 769 0524 BAFFFF1A 		bne	.L52
 231:D:/Work/DeviceTester/amazon-freertos/lib/third_party/tinycbor\cborpretty.c ****                 return CborErrorIO;
 770              		.loc 1 231 0
 771 0528 5130E9E7 		ubfx	r3, r1, #0, #10
 772              	.LVL117:
 229:D:/Work/DeviceTester/amazon-freertos/lib/third_party/tinycbor\cborpretty.c ****                         (uc >> 10) + 0xd7c0,    /* high surrogate */
 773              		.loc 1 229 0
 774 052c C0270DE3 		movw	r2, #55232
 775 0530 212582E0 		add	r2, r2, r1, lsr #10
 776 0534 373B83E2 		add	r3, r3, #56320
 777 0538 0A10A0E1 		mov	r1, r10
 778              	.LVL118:
 779 053c 0500A0E1 		mov	r0, r5
 780 0540 FEFFFFEB 		bl	fprintf
 781              	.LVL119:
 782 0544 93FFFFEA 		b	.L130
 783              	.L51:
 214:D:/Work/DeviceTester/amazon-freertos/lib/third_party/tinycbor\cborpretty.c ****                 if ((b & 0xc0) != 0x80)
 784              		.loc 1 214 0
 785 0548 0700A0E1 		mov	r0, r7
 786 054c 77FFFFEA 		b	.L48
 787              	.LVL120:
 788              	.L99:
 789              	.LBE161:
 790              	.LBE165:
 791              	.LBE169:
 351:D:/Work/DeviceTester/amazon-freertos/lib/third_party/tinycbor\cborpretty.c ****         free(buffer);
 792              		.loc 1 351 0
 793 0550 0150A0E3 		mov	r5, #1
 794              	.LVL121:
 795              	.LBB170:
 796              	.LBB166:
 797              	.LBB162:
 173:D:/Work/DeviceTester/amazon-freertos/lib/third_party/tinycbor\cborpretty.c ****         if (uc < 0xE0) {
 798              		.loc 1 173 0
 799 0554 814FA0E3 		mov	r4, #516
 800 0558 92FFFFEA 		b	.L47
 801              	.LVL122:
 802              	.L10:
 803              	.LBE162:
 804              	.LBE166:
 805              	.LBE170:
 806              	.LBE171:
 807              	.LBB172:
 808              	.LBB122:
 809              	.LBB123:
 810              	.LBB124:
 811              	.LBB125:
 263:D:/Work/DeviceTester/amazon-freertos/lib/third_party/tinycbor\cbor.h **** }
 812              		.loc 2 263 0
 813 055c 0F30D1E5 		ldrb	r3, [r1, #15]	@ zero_extendqisi2
 814 0560 010013E3 		tst	r3, #1
 815 0564 BC20D101 		ldrheq	r2, [r1, #12]
 816 0568 0030A003 		moveq	r3, #0
 817 056c 0300000A 		beq	.L70
 818              	.LVL123:
 819              	.LBB126:
 820              	.LBB127:
 821 0570 0100A0E1 		mov	r0, r1
 822              	.LVL124:
 823 0574 FEFFFFEB 		bl	_cbor_value_decode_int64_internal
 824              	.LVL125:
 825 0578 0020A0E1 		mov	r2, r0
 826 057c 0130A0E1 		mov	r3, r1
 827              	.LVL126:
 828              	.L70:
 829              	.LBE127:
 830              	.LBE126:
 831              	.LBE125:
 832              	.LBE124:
 833              	.LBE123:
 834              	.LBE122:
 360:D:/Work/DeviceTester/amazon-freertos/lib/third_party/tinycbor\cborpretty.c ****             return CborErrorIO;
 835              		.loc 1 360 0
 836 0580 5C129FE5 		ldr	r1, .L140+116
 837 0584 0500A0E1 		mov	r0, r5
 838 0588 FEFFFFEB 		bl	fprintf
 839              	.LVL127:
 840 058c 000050E3 		cmp	r0, #0
 841 0590 D6FEFFBA 		blt	.L134
 362:D:/Work/DeviceTester/amazon-freertos/lib/third_party/tinycbor\cborpretty.c ****         if (err)
 842              		.loc 1 362 0
 843 0594 0600A0E1 		mov	r0, r6
 844 0598 FEFFFFEB 		bl	cbor_value_advance_fixed
 845              	.LVL128:
 363:D:/Work/DeviceTester/amazon-freertos/lib/third_party/tinycbor\cborpretty.c ****             return err;
 846              		.loc 1 363 0
 847 059c 004050E2 		subs	r4, r0, #0
 848 05a0 84FFFF1A 		bne	.L1
 365:D:/Work/DeviceTester/amazon-freertos/lib/third_party/tinycbor\cborpretty.c ****         if (err)
 849              		.loc 1 365 0
 850 05a4 0610A0E1 		mov	r1, r6
 851 05a8 0500A0E1 		mov	r0, r5
 852              	.LVL129:
 853 05ac 93FEFFEB 		bl	value_to_pretty
 854              	.LVL130:
 366:D:/Work/DeviceTester/amazon-freertos/lib/third_party/tinycbor\cborpretty.c ****             return err;
 855              		.loc 1 366 0
 856 05b0 004050E2 		subs	r4, r0, #0
 857 05b4 7FFFFF1A 		bne	.L1
 368:D:/Work/DeviceTester/amazon-freertos/lib/third_party/tinycbor\cborpretty.c ****             return CborErrorIO;
 858              		.loc 1 368 0
 859 05b8 28129FE5 		ldr	r1, .L140+120
 860 05bc E5FEFFEA 		b	.L138
 861              	.LVL131:
 862              	.L3:
 863              	.LBE172:
 864              	.LBB173:
 376:D:/Work/DeviceTester/amazon-freertos/lib/third_party/tinycbor\cborpretty.c ****             return CborErrorIO;
 865              		.loc 1 376 0
 866 05c0 0C20D1E5 		ldrb	r2, [r1, #12]	@ zero_extendqisi2
 867 05c4 20129FE5 		ldr	r1, .L140+124
 868              	.LVL132:
 869 05c8 FEFFFFEB 		bl	fprintf
 870              	.LVL133:
 871 05cc 1BFFFFEA 		b	.L82
 872              	.LVL134:
 873              	.L13:
 874              	.LBE173:
 382:D:/Work/DeviceTester/amazon-freertos/lib/third_party/tinycbor\cborpretty.c ****             return CborErrorIO;
 875              		.loc 1 382 0
 876 05d0 18129FE5 		ldr	r1, .L140+128
 877              	.LVL135:
 878 05d4 630000EA 		b	.L136
 879              	.LVL136:
 880              	.L14:
 387:D:/Work/DeviceTester/amazon-freertos/lib/third_party/tinycbor\cborpretty.c ****             return CborErrorIO;
 881              		.loc 1 387 0
 882 05d8 14129FE5 		ldr	r1, .L140+132
 883              	.LVL137:
 884 05dc 610000EA 		b	.L136
 885              	.LVL138:
 886              	.L17:
 887              	.LBB174:
 888              	.LBB98:
 889              	.LBB99:
 890              	.LBB100:
 408:D:/Work/DeviceTester/amazon-freertos/lib/third_party/tinycbor\cbor.h **** }
 409:D:/Work/DeviceTester/amazon-freertos/lib/third_party/tinycbor\cbor.h **** 
 410:D:/Work/DeviceTester/amazon-freertos/lib/third_party/tinycbor\cbor.h **** #endif /* __RX check */
 411:D:/Work/DeviceTester/amazon-freertos/lib/third_party/tinycbor\cbor.h **** 
 412:D:/Work/DeviceTester/amazon-freertos/lib/third_party/tinycbor\cbor.h **** /* ### TBD: partial reading API */
 413:D:/Work/DeviceTester/amazon-freertos/lib/third_party/tinycbor\cbor.h **** 
 414:D:/Work/DeviceTester/amazon-freertos/lib/third_party/tinycbor\cbor.h **** CBOR_API CborError cbor_value_text_string_equals(const CborValue *value, const char *string, bool *
 415:D:/Work/DeviceTester/amazon-freertos/lib/third_party/tinycbor\cbor.h **** 
 416:D:/Work/DeviceTester/amazon-freertos/lib/third_party/tinycbor\cbor.h **** /* Maps and arrays */
 417:D:/Work/DeviceTester/amazon-freertos/lib/third_party/tinycbor\cbor.h **** CBOR_INLINE_API bool cbor_value_is_array(const CborValue *value)
 418:D:/Work/DeviceTester/amazon-freertos/lib/third_party/tinycbor\cbor.h **** { return value->type == CborArrayType; }
 419:D:/Work/DeviceTester/amazon-freertos/lib/third_party/tinycbor\cbor.h **** CBOR_INLINE_API bool cbor_value_is_map(const CborValue *value)
 420:D:/Work/DeviceTester/amazon-freertos/lib/third_party/tinycbor\cbor.h **** { return value->type == CborMapType; }
 421:D:/Work/DeviceTester/amazon-freertos/lib/third_party/tinycbor\cbor.h **** 
 422:D:/Work/DeviceTester/amazon-freertos/lib/third_party/tinycbor\cbor.h **** CBOR_INLINE_API CborError cbor_value_get_array_length(const CborValue *value, size_t *length)
 423:D:/Work/DeviceTester/amazon-freertos/lib/third_party/tinycbor\cbor.h **** {
 424:D:/Work/DeviceTester/amazon-freertos/lib/third_party/tinycbor\cbor.h ****     assert(cbor_value_is_array(value));
 425:D:/Work/DeviceTester/amazon-freertos/lib/third_party/tinycbor\cbor.h ****     if (!cbor_value_is_length_known(value))
 426:D:/Work/DeviceTester/amazon-freertos/lib/third_party/tinycbor\cbor.h ****         return CborErrorUnknownLength;
 427:D:/Work/DeviceTester/amazon-freertos/lib/third_party/tinycbor\cbor.h ****     uint64_t v = _cbor_value_extract_int64_helper(value);
 428:D:/Work/DeviceTester/amazon-freertos/lib/third_party/tinycbor\cbor.h ****     *length = (size_t)v;
 429:D:/Work/DeviceTester/amazon-freertos/lib/third_party/tinycbor\cbor.h ****     if (*length != v)
 430:D:/Work/DeviceTester/amazon-freertos/lib/third_party/tinycbor\cbor.h ****         return CborErrorDataTooLarge;
 431:D:/Work/DeviceTester/amazon-freertos/lib/third_party/tinycbor\cbor.h ****     return CborNoError;
 432:D:/Work/DeviceTester/amazon-freertos/lib/third_party/tinycbor\cbor.h **** }
 433:D:/Work/DeviceTester/amazon-freertos/lib/third_party/tinycbor\cbor.h **** 
 434:D:/Work/DeviceTester/amazon-freertos/lib/third_party/tinycbor\cbor.h **** CBOR_INLINE_API CborError cbor_value_get_map_length(const CborValue *value, size_t *length)
 435:D:/Work/DeviceTester/amazon-freertos/lib/third_party/tinycbor\cbor.h **** {
 436:D:/Work/DeviceTester/amazon-freertos/lib/third_party/tinycbor\cbor.h ****     assert(cbor_value_is_map(value));
 437:D:/Work/DeviceTester/amazon-freertos/lib/third_party/tinycbor\cbor.h ****     if (!cbor_value_is_length_known(value))
 438:D:/Work/DeviceTester/amazon-freertos/lib/third_party/tinycbor\cbor.h ****         return CborErrorUnknownLength;
 439:D:/Work/DeviceTester/amazon-freertos/lib/third_party/tinycbor\cbor.h ****     uint64_t v = _cbor_value_extract_int64_helper(value);
 440:D:/Work/DeviceTester/amazon-freertos/lib/third_party/tinycbor\cbor.h ****     *length = (size_t)v;
 441:D:/Work/DeviceTester/amazon-freertos/lib/third_party/tinycbor\cbor.h ****     if (*length != v)
 442:D:/Work/DeviceTester/amazon-freertos/lib/third_party/tinycbor\cbor.h ****         return CborErrorDataTooLarge;
 443:D:/Work/DeviceTester/amazon-freertos/lib/third_party/tinycbor\cbor.h ****     return CborNoError;
 444:D:/Work/DeviceTester/amazon-freertos/lib/third_party/tinycbor\cbor.h **** }
 445:D:/Work/DeviceTester/amazon-freertos/lib/third_party/tinycbor\cbor.h **** 
 446:D:/Work/DeviceTester/amazon-freertos/lib/third_party/tinycbor\cbor.h **** CBOR_API CborError cbor_value_map_find_value(const CborValue *map, const char *string, CborValue *e
 447:D:/Work/DeviceTester/amazon-freertos/lib/third_party/tinycbor\cbor.h **** 
 448:D:/Work/DeviceTester/amazon-freertos/lib/third_party/tinycbor\cbor.h **** /* Floating point */
 449:D:/Work/DeviceTester/amazon-freertos/lib/third_party/tinycbor\cbor.h **** CBOR_INLINE_API bool cbor_value_is_half_float(const CborValue *value)
 450:D:/Work/DeviceTester/amazon-freertos/lib/third_party/tinycbor\cbor.h **** { return value->type == CborHalfFloatType; }
 451:D:/Work/DeviceTester/amazon-freertos/lib/third_party/tinycbor\cbor.h **** CBOR_API CborError cbor_value_get_half_float(const CborValue *value, void *result);
 452:D:/Work/DeviceTester/amazon-freertos/lib/third_party/tinycbor\cbor.h **** 
 453:D:/Work/DeviceTester/amazon-freertos/lib/third_party/tinycbor\cbor.h **** CBOR_INLINE_API bool cbor_value_is_float(const CborValue *value)
 454:D:/Work/DeviceTester/amazon-freertos/lib/third_party/tinycbor\cbor.h **** { return value->type == CborFloatType; }
 455:D:/Work/DeviceTester/amazon-freertos/lib/third_party/tinycbor\cbor.h **** CBOR_INLINE_API CborError cbor_value_get_float(const CborValue *value, float *result)
 456:D:/Work/DeviceTester/amazon-freertos/lib/third_party/tinycbor\cbor.h **** {
 457:D:/Work/DeviceTester/amazon-freertos/lib/third_party/tinycbor\cbor.h ****     assert(cbor_value_is_float(value));
 458:D:/Work/DeviceTester/amazon-freertos/lib/third_party/tinycbor\cbor.h ****     assert(value->flags & CborIteratorFlag_IntegerValueTooLarge);
 891              		.loc 2 458 0
 892 05e0 0F30D1E5 		ldrb	r3, [r1, #15]	@ zero_extendqisi2
 893 05e4 010013E3 		tst	r3, #1
 894 05e8 0400001A 		bne	.L72
 895 05ec 04329FE5 		ldr	r3, .L140+136
 896 05f0 CA1100E3 		movw	r1, #458
 897              	.LVL139:
 898 05f4 00229FE5 		ldr	r2, .L140+140
 899              	.LVL140:
 900              	.L135:
 901              	.LBE100:
 902              	.LBE99:
 903              	.LBE98:
 904              	.LBB105:
 905              	.LBB106:
 459:D:/Work/DeviceTester/amazon-freertos/lib/third_party/tinycbor\cbor.h ****     uint32_t data = (uint32_t)_cbor_value_decode_int64_internal(value);
 460:D:/Work/DeviceTester/amazon-freertos/lib/third_party/tinycbor\cbor.h ****     memcpy(result, &data, sizeof(*result));
 461:D:/Work/DeviceTester/amazon-freertos/lib/third_party/tinycbor\cbor.h ****     return CborNoError;
 462:D:/Work/DeviceTester/amazon-freertos/lib/third_party/tinycbor\cbor.h **** }
 463:D:/Work/DeviceTester/amazon-freertos/lib/third_party/tinycbor\cbor.h **** 
 464:D:/Work/DeviceTester/amazon-freertos/lib/third_party/tinycbor\cbor.h **** CBOR_INLINE_API bool cbor_value_is_double(const CborValue *value)
 465:D:/Work/DeviceTester/amazon-freertos/lib/third_party/tinycbor\cbor.h **** { return value->type == CborDoubleType; }
 466:D:/Work/DeviceTester/amazon-freertos/lib/third_party/tinycbor\cbor.h **** CBOR_INLINE_API CborError cbor_value_get_double(const CborValue *value, double *result)
 467:D:/Work/DeviceTester/amazon-freertos/lib/third_party/tinycbor\cbor.h **** {
 468:D:/Work/DeviceTester/amazon-freertos/lib/third_party/tinycbor\cbor.h ****     assert(cbor_value_is_double(value));
 469:D:/Work/DeviceTester/amazon-freertos/lib/third_party/tinycbor\cbor.h ****     assert(value->flags & CborIteratorFlag_IntegerValueTooLarge);
 906              		.loc 2 469 0
 907 05f8 00029FE5 		ldr	r0, .L140+144
 908              	.LVL141:
 909 05fc FEFFFFEB 		bl	__assert_func
 910              	.LVL142:
 911              	.L72:
 912              	.LBE106:
 913              	.LBE105:
 914              	.LBB109:
 915              	.LBB103:
 916              	.LBB101:
 459:D:/Work/DeviceTester/amazon-freertos/lib/third_party/tinycbor\cbor.h ****     uint32_t data = (uint32_t)_cbor_value_decode_int64_internal(value);
 917              		.loc 2 459 0
 918 0600 0100A0E1 		mov	r0, r1
 919              	.LVL143:
 920              	.LBE101:
 921              	.LBE103:
 407:D:/Work/DeviceTester/amazon-freertos/lib/third_party/tinycbor\cborpretty.c ****         } else if (false) {
 922              		.loc 1 407 0
 923 0604 F8419FE5 		ldr	r4, .L140+148
 924              	.LBB104:
 925              	.LBB102:
 459:D:/Work/DeviceTester/amazon-freertos/lib/third_party/tinycbor\cbor.h ****     uint32_t data = (uint32_t)_cbor_value_decode_int64_internal(value);
 926              		.loc 2 459 0
 927 0608 FEFFFFEB 		bl	_cbor_value_decode_int64_internal
 928              	.LVL144:
 929              	.LBE102:
 930              	.LBE104:
 406:D:/Work/DeviceTester/amazon-freertos/lib/third_party/tinycbor\cborpretty.c ****             suffix = "f";
 931              		.loc 1 406 0
 932 060c 900A07EE 		vmov	s15, r0
 933 0610 E70AF7EE 		vcvt.f64.f32	d16, s15
 934 0614 060BCDED 		vstr.64	d16, [sp, #24]
 935              	.LVL145:
 936              	.L73:
 937              	.LBE109:
 419:D:/Work/DeviceTester/amazon-freertos/lib/third_party/tinycbor\cborpretty.c ****         if (r == FP_NAN || r == FP_INFINITE)
 938              		.loc 1 419 0
 939 0618 069B9DED 		vldr.64	d9, [sp, #24]
 940 061c C98BB0EE 		vabs.f64	d8, d9
 941 0620 488BB4EE 		vcmp.f64	d8, d8
 942 0624 10FAF1EE 		vmrs	APSR_nzcv, FPSCR
 421:D:/Work/DeviceTester/amazon-freertos/lib/third_party/tinycbor\cborpretty.c **** 
 943              		.loc 1 421 0
 944 0628 6C419F65 		ldrvs	r4, .L140+44
 945              	.LVL146:
 419:D:/Work/DeviceTester/amazon-freertos/lib/third_party/tinycbor\cborpretty.c ****         if (r == FP_NAN || r == FP_INFINITE)
 946              		.loc 1 419 0
 947 062c 0400006A 		bvs	.L79
 419:D:/Work/DeviceTester/amazon-freertos/lib/third_party/tinycbor\cborpretty.c ****         if (r == FP_NAN || r == FP_INFINITE)
 948              		.loc 1 419 0 is_stmt 0 discriminator 1
 949 0630 4E0BDFED 		vldr.64	d16, .L140
 421:D:/Work/DeviceTester/amazon-freertos/lib/third_party/tinycbor\cborpretty.c **** 
 950              		.loc 1 421 0 is_stmt 1 discriminator 1
 951 0634 60319FE5 		ldr	r3, .L140+44
 952 0638 608BB4EE 		vcmp.f64	d8, d16
 953 063c 10FAF1EE 		vmrs	APSR_nzcv, FPSCR
 954 0640 0340A0C1 		movgt	r4, r3
 955              	.L79:
 956              	.LVL147:
 423:D:/Work/DeviceTester/amazon-freertos/lib/third_party/tinycbor\cborpretty.c ****         if (ival == fabs(val)) {
 957              		.loc 1 423 0
 958 0644 180B51EC 		vmov	r0, r1, d8
 959 0648 FEFFFFEB 		bl	__aeabi_d2ulz
 960              	.LVL148:
 961 064c 0080A0E1 		mov	r8, r0
 962 0650 0190A0E1 		mov	r9, r1
 963              	.LVL149:
 424:D:/Work/DeviceTester/amazon-freertos/lib/third_party/tinycbor\cborpretty.c ****             /* this double value fits in a 64-bit integer, so show it as such
 964              		.loc 1 424 0
 965 0654 FEFFFFEB 		bl	__aeabi_ul2d
 966              	.LVL150:
 967 0658 300B41EC 		vmov	d16, r0, r1
 968 065c 608BB4EE 		vcmp.f64	d8, d16
 969 0660 10FAF1EE 		vmrs	APSR_nzcv, FPSCR
 970 0664 3100001A 		bne	.L80
 427:D:/Work/DeviceTester/amazon-freertos/lib/third_party/tinycbor\cborpretty.c ****         } else {
 971              		.loc 1 427 0
 972 0668 2C319FE5 		ldr	r3, .L140+44
 973 066c 0500A0E1 		mov	r0, r5
 974 0670 C09BB5EE 		vcmpe.f64	d9, #0
 975 0674 10FAF1EE 		vmrs	APSR_nzcv, FPSCR
 976 0678 88219FE5 		ldr	r2, .L140+152
 977 067c 0320A051 		movpl	r2, r3
 978 0680 08408DE5 		str	r4, [sp, #8]
 979 0684 F080CDE1 		strd	r8, [sp]
 980 0688 7C119FE5 		ldr	r1, .L140+156
 981 068c FEFFFFEB 		bl	fprintf
 982              	.LVL151:
 983 0690 EAFEFFEA 		b	.L82
 984              	.LVL152:
 985              	.L11:
 986              	.LBB110:
 411:D:/Work/DeviceTester/amazon-freertos/lib/third_party/tinycbor\cborpretty.c ****             val = decode_half(f16);
 987              		.loc 1 411 0
 988 0694 14108DE2 		add	r1, sp, #20
 989              	.LVL153:
 990 0698 0600A0E1 		mov	r0, r6
 991              	.LVL154:
 992 069c FEFFFFEB 		bl	cbor_value_get_half_float
 993              	.LVL155:
 412:D:/Work/DeviceTester/amazon-freertos/lib/third_party/tinycbor\cborpretty.c ****             suffix = "f16";
 994              		.loc 1 412 0
 995 06a0 B441DDE1 		ldrh	r4, [sp, #20]
 996              	.LVL156:
 997 06a4 5405E4E7 		ubfx	r0, r4, #10, #5
 998              	.LVL157:
 999 06a8 5430E9E7 		ubfx	r3, r4, #0, #10
 1000              	.LVL158:
 1001              	.LBB111:
 1002              	.LBB112:
 1003              		.file 3 "D:/Work/DeviceTester/amazon-freertos/lib/third_party/tinycbor/math_support_p.h"
   1:D:/Work/DeviceTester/amazon-freertos/lib/third_party/tinycbor\math_support_p.h **** /****************************************************************************
   2:D:/Work/DeviceTester/amazon-freertos/lib/third_party/tinycbor\math_support_p.h **** **
   3:D:/Work/DeviceTester/amazon-freertos/lib/third_party/tinycbor\math_support_p.h **** ** Copyright (C) 2016 Intel Corporation
   4:D:/Work/DeviceTester/amazon-freertos/lib/third_party/tinycbor\math_support_p.h **** **
   5:D:/Work/DeviceTester/amazon-freertos/lib/third_party/tinycbor\math_support_p.h **** ** Permission is hereby granted, free of charge, to any person obtaining a copy
   6:D:/Work/DeviceTester/amazon-freertos/lib/third_party/tinycbor\math_support_p.h **** ** of this software and associated documentation files (the "Software"), to deal
   7:D:/Work/DeviceTester/amazon-freertos/lib/third_party/tinycbor\math_support_p.h **** ** in the Software without restriction, including without limitation the rights
   8:D:/Work/DeviceTester/amazon-freertos/lib/third_party/tinycbor\math_support_p.h **** ** to use, copy, modify, merge, publish, distribute, sublicense, and/or sell
   9:D:/Work/DeviceTester/amazon-freertos/lib/third_party/tinycbor\math_support_p.h **** ** copies of the Software, and to permit persons to whom the Software is
  10:D:/Work/DeviceTester/amazon-freertos/lib/third_party/tinycbor\math_support_p.h **** ** furnished to do so, subject to the following conditions:
  11:D:/Work/DeviceTester/amazon-freertos/lib/third_party/tinycbor\math_support_p.h **** **
  12:D:/Work/DeviceTester/amazon-freertos/lib/third_party/tinycbor\math_support_p.h **** ** The above copyright notice and this permission notice shall be included in
  13:D:/Work/DeviceTester/amazon-freertos/lib/third_party/tinycbor\math_support_p.h **** ** all copies or substantial portions of the Software.
  14:D:/Work/DeviceTester/amazon-freertos/lib/third_party/tinycbor\math_support_p.h **** **
  15:D:/Work/DeviceTester/amazon-freertos/lib/third_party/tinycbor\math_support_p.h **** ** THE SOFTWARE IS PROVIDED "AS IS", WITHOUT WARRANTY OF ANY KIND, EXPRESS OR
  16:D:/Work/DeviceTester/amazon-freertos/lib/third_party/tinycbor\math_support_p.h **** ** IMPLIED, INCLUDING BUT NOT LIMITED TO THE WARRANTIES OF MERCHANTABILITY,
  17:D:/Work/DeviceTester/amazon-freertos/lib/third_party/tinycbor\math_support_p.h **** ** FITNESS FOR A PARTICULAR PURPOSE AND NONINFRINGEMENT. IN NO EVENT SHALL THE
  18:D:/Work/DeviceTester/amazon-freertos/lib/third_party/tinycbor\math_support_p.h **** ** AUTHORS OR COPYRIGHT HOLDERS BE LIABLE FOR ANY CLAIM, DAMAGES OR OTHER
  19:D:/Work/DeviceTester/amazon-freertos/lib/third_party/tinycbor\math_support_p.h **** ** LIABILITY, WHETHER IN AN ACTION OF CONTRACT, TORT OR OTHERWISE, ARISING FROM,
  20:D:/Work/DeviceTester/amazon-freertos/lib/third_party/tinycbor\math_support_p.h **** ** OUT OF OR IN CONNECTION WITH THE SOFTWARE OR THE USE OR OTHER DEALINGS IN
  21:D:/Work/DeviceTester/amazon-freertos/lib/third_party/tinycbor\math_support_p.h **** ** THE SOFTWARE.
  22:D:/Work/DeviceTester/amazon-freertos/lib/third_party/tinycbor\math_support_p.h **** **
  23:D:/Work/DeviceTester/amazon-freertos/lib/third_party/tinycbor\math_support_p.h **** ****************************************************************************/
  24:D:/Work/DeviceTester/amazon-freertos/lib/third_party/tinycbor\math_support_p.h **** 
  25:D:/Work/DeviceTester/amazon-freertos/lib/third_party/tinycbor\math_support_p.h **** #ifndef MATH_SUPPORT_H
  26:D:/Work/DeviceTester/amazon-freertos/lib/third_party/tinycbor\math_support_p.h **** #define MATH_SUPPORT_H
  27:D:/Work/DeviceTester/amazon-freertos/lib/third_party/tinycbor\math_support_p.h **** 
  28:D:/Work/DeviceTester/amazon-freertos/lib/third_party/tinycbor\math_support_p.h **** #include <math.h>
  29:D:/Work/DeviceTester/amazon-freertos/lib/third_party/tinycbor\math_support_p.h **** 
  30:D:/Work/DeviceTester/amazon-freertos/lib/third_party/tinycbor\math_support_p.h **** /* this function was copied & adapted from RFC 7049 Appendix D */
  31:D:/Work/DeviceTester/amazon-freertos/lib/third_party/tinycbor\math_support_p.h **** static inline double decode_half(unsigned short half)
  32:D:/Work/DeviceTester/amazon-freertos/lib/third_party/tinycbor\math_support_p.h **** {
  33:D:/Work/DeviceTester/amazon-freertos/lib/third_party/tinycbor\math_support_p.h **** #ifdef __F16C__
  34:D:/Work/DeviceTester/amazon-freertos/lib/third_party/tinycbor\math_support_p.h ****     return _cvtsh_ss(half);
  35:D:/Work/DeviceTester/amazon-freertos/lib/third_party/tinycbor\math_support_p.h **** #else
  36:D:/Work/DeviceTester/amazon-freertos/lib/third_party/tinycbor\math_support_p.h ****     int exp = (half >> 10) & 0x1f;
  37:D:/Work/DeviceTester/amazon-freertos/lib/third_party/tinycbor\math_support_p.h ****     int mant = half & 0x3ff;
  38:D:/Work/DeviceTester/amazon-freertos/lib/third_party/tinycbor\math_support_p.h ****     double val;
  39:D:/Work/DeviceTester/amazon-freertos/lib/third_party/tinycbor\math_support_p.h ****     if (exp == 0) val = ldexp(mant, -24);
 1004              		.loc 3 39 0
 1005 06ac 000050E3 		cmp	r0, #0
 1006 06b0 1700E003 		mvneq	r0, #23
 1007              	.LVL159:
 1008 06b4 903A070E 		vmoveq	s15, r3	@ int
 1009 06b8 E70BB80E 		vcvteq.f64.s32	d0, s15
 1010 06bc 0500000A 		beq	.L132
  40:D:/Work/DeviceTester/amazon-freertos/lib/third_party/tinycbor\math_support_p.h ****     else if (exp != 31) val = ldexp(mant + 1024, exp - 25);
 1011              		.loc 3 40 0
 1012 06c0 1F0050E3 		cmp	r0, #31
 1013 06c4 0900000A 		beq	.L76
 1014 06c8 013B83E2 		add	r3, r3, #1024
 1015              	.LVL160:
 1016 06cc 190040E2 		sub	r0, r0, #25
 1017 06d0 103A00EE 		vmov	s0, r3	@ int
 1018 06d4 C00BB8EE 		vcvt.f64.s32	d0, s0
 1019              	.LVL161:
 1020              	.L132:
 1021 06d8 FEFFFFEB 		bl	ldexp
 1022              	.LVL162:
 1023              	.L75:
  41:D:/Work/DeviceTester/amazon-freertos/lib/third_party/tinycbor\math_support_p.h ****     else val = mant == 0 ? INFINITY : NAN;
  42:D:/Work/DeviceTester/amazon-freertos/lib/third_party/tinycbor\math_support_p.h ****     return half & 0x8000 ? -val : val;
 1024              		.loc 3 42 0
 1025 06dc 020914E3 		tst	r4, #32768
 1026              	.LBE112:
 1027              	.LBE111:
 413:D:/Work/DeviceTester/amazon-freertos/lib/third_party/tinycbor\cborpretty.c ****         } else {
 1028              		.loc 1 413 0
 1029 06e0 28419FE5 		ldr	r4, .L140+160
 1030              	.LVL163:
 1031              	.LBB115:
 1032              	.LBB113:
 1033              		.loc 3 42 0
 1034 06e4 400BB11E 		vnegne.f64	d0, d0
 1035              	.LVL164:
 1036              	.LBE113:
 1037              	.LBE115:
 412:D:/Work/DeviceTester/amazon-freertos/lib/third_party/tinycbor\cborpretty.c ****             suffix = "f16";
 1038              		.loc 1 412 0
 1039 06e8 060B8DED 		vstr.64	d0, [sp, #24]
 1040              	.LVL165:
 1041              	.LBE110:
 1042 06ec C9FFFFEA 		b	.L73
 1043              	.LVL166:
 1044              	.L76:
 1045              	.LBB117:
 1046              	.LBB116:
 1047              	.LBB114:
  41:D:/Work/DeviceTester/amazon-freertos/lib/third_party/tinycbor\math_support_p.h ****     else val = mant == 0 ? INFINITY : NAN;
 1048              		.loc 3 41 0
 1049 06f0 200BDFED 		vldr.64	d16, .L140+8
 1050 06f4 000053E3 		cmp	r3, #0
 1051 06f8 200B9FED 		vldr.64	d0, .L140+16
 1052 06fc 600BB00E 		vmoveq.f64	d0, d16
 1053 0700 F5FFFFEA 		b	.L75
 1054              	.LVL167:
 1055              	.L16:
 1056              	.LBE114:
 1057              	.LBE116:
 1058              	.LBE117:
 1059              	.LBB118:
 1060              	.LBB107:
 1061              		.loc 2 469 0
 1062 0704 0F30D1E5 		ldrb	r3, [r1, #15]	@ zero_extendqisi2
 1063 0708 010013E3 		tst	r3, #1
 1064 070c E4309F05 		ldreq	r3, .L140+136
 1065 0710 D5110003 		movweq	r1, #469
 1066              	.LVL168:
 1067 0714 F8209F05 		ldreq	r2, .L140+164
 1068 0718 B6FFFF0A 		beq	.L135
 1069              	.LVL169:
 1070              	.L78:
 470:D:/Work/DeviceTester/amazon-freertos/lib/third_party/tinycbor\cbor.h ****     uint64_t data = _cbor_value_decode_int64_internal(value);
 1071              		.loc 2 470 0
 1072 071c 0100A0E1 		mov	r0, r1
 1073              	.LVL170:
 1074              	.LBE107:
 1075              	.LBE118:
 416:D:/Work/DeviceTester/amazon-freertos/lib/third_party/tinycbor\cborpretty.c ****         }
 1076              		.loc 1 416 0
 1077 0720 74409FE5 		ldr	r4, .L140+44
 1078              	.LBB119:
 1079              	.LBB108:
 1080              		.loc 2 470 0
 1081 0724 FEFFFFEB 		bl	_cbor_value_decode_int64_internal
 1082              	.LVL171:
 471:D:/Work/DeviceTester/amazon-freertos/lib/third_party/tinycbor\cbor.h ****     memcpy(result, &data, sizeof(*result));
 1083              		.loc 2 471 0
 1084 0728 F801CDE1 		strd	r0, [sp, #24]
 1085              	.LVL172:
 1086 072c B9FFFFEA 		b	.L73
 1087              	.LVL173:
 1088              	.L80:
 1089              	.LBE108:
 1090              	.LBE119:
 430:D:/Work/DeviceTester/amazon-freertos/lib/third_party/tinycbor\cborpretty.c ****         }
 1091              		.loc 1 430 0
 1092 0730 00408DE5 		str	r4, [sp]
 1093 0734 0500A0E1 		mov	r0, r5
 1094 0738 192B53EC 		vmov	r2, r3, d9
 1095 073c D4109FE5 		ldr	r1, .L140+168
 1096 0740 FEFFFFEB 		bl	fprintf
 1097              	.LVL174:
 1098 0744 BDFEFFEA 		b	.L82
 1099              	.LVL175:
 1100              	.L27:
 1101              	.LBE174:
 1102              	.LBB175:
 1103              	.LBB94:
 1104              	.LBB92:
 1105              	.LBB90:
 249:D:/Work/DeviceTester/amazon-freertos/lib/third_party/tinycbor\cborpretty.c ****         comma = ", ";
 1106              		.loc 1 249 0
 1107 0748 0440A0E3 		mov	r4, #4
 1108 074c A4FEFFEA 		b	.L28
 1109              	.LVL176:
 1110              	.L37:
 1111              	.LBE90:
 1112              	.LBE92:
 1113              	.LBE94:
 1114              	.LBE175:
 1115              	.LBB176:
 315:D:/Work/DeviceTester/amazon-freertos/lib/third_party/tinycbor\cborpretty.c ****                 if (fprintf(out, "-%" PRIu64, val) < 0)
 1116              		.loc 1 315 0
 1117 0750 012092E2 		adds	r2, r2, #1
 1118              	.LVL177:
 1119 0754 0030A3E2 		adc	r3, r3, #0
 1120              	.LVL178:
 1121 0758 031092E1 		orrs	r1, r2, r3
 1122 075c B4FEFF1A 		bne	.L86
 322:D:/Work/DeviceTester/amazon-freertos/lib/third_party/tinycbor\cborpretty.c ****                     return CborErrorIO;
 1123              		.loc 1 322 0
 1124 0760 B4109FE5 		ldr	r1, .L140+172
 1125 0764 0500A0E1 		mov	r0, r5
 1126              	.LVL179:
 1127              	.L136:
 1128              	.LBE176:
 1129              	.LBB177:
 394:D:/Work/DeviceTester/amazon-freertos/lib/third_party/tinycbor\cborpretty.c ****             return CborErrorIO;
 1130              		.loc 1 394 0
 1131 0768 FEFFFFEB 		bl	fprintf
 1132              	.LVL180:
 1133 076c B3FEFFEA 		b	.L82
 1134              	.L141:
 1135              		.align	3
 1136              	.L140:
 1137 0770 FFFFFFFF 		.word	-1
 1138 0774 FFFFEF7F 		.word	2146435071
 1139 0778 00000000 		.word	0
 1140 077c 0000F07F 		.word	2146435072
 1141 0780 00000000 		.word	0
 1142 0784 0000F87F 		.word	2146959360
 1143 0788 00000000 		.word	.LC0
 1144 078c 0E000000 		.word	.LC6
 1145 0790 09000000 		.word	.LC5
 1146 0794 1E010000 		.word	.LC32
 1147 0798 02000000 		.word	.LC1
 1148 079c 04000000 		.word	.LC2
 1149 07a0 1F000000 		.word	.LC11
 1150 07a4 22000000 		.word	.LC12
 1151 07a8 25000000 		.word	.LC13
 1152 07ac 07000000 		.word	.LC4
 1153 07b0 05000000 		.word	.LC3
 1154 07b4 1C000000 		.word	.LC10
 1155 07b8 28010000 		.word	.LC34
 1156 07bc 28000000 		.word	.LC14
 1157 07c0 44000000 		.word	.LC16
 1158 07c4 47000000 		.word	.LC17
 1159 07c8 26010000 		.word	.LC33
 1160 07cc 4E000000 		.word	.LC18
 1161 07d0 66000000 		.word	.LC22
 1162 07d4 FFFF1000 		.word	1114111
 1163 07d8 57000000 		.word	.LC21
 1164 07dc 50000000 		.word	.LC19
 1165 07e0 53000000 		.word	.LC20
 1166 07e4 6E000000 		.word	.LC23
 1167 07e8 74000000 		.word	.LC24
 1168 07ec 76000000 		.word	.LC25
 1169 07f0 83000000 		.word	.LC26
 1170 07f4 88000000 		.word	.LC27
 1171 07f8 92000000 		.word	.LC28
 1172 07fc 00000000 		.word	.LANCHOR0
 1173 0800 C7000000 		.word	.LC29
 1174 0804 14000000 		.word	.LC7
 1175 0808 1A000000 		.word	.LC9
 1176 080c 0C010000 		.word	.LC30
 1177 0810 16000000 		.word	.LC8
 1178 0814 00000000 		.word	.LANCHOR1
 1179 0818 16010000 		.word	.LC31
 1180 081c 2E000000 		.word	.LC15
 1181              	.LBE177:
 1182              		.cfi_endproc
 1183              	.LFE55:
 1185              		.section	.text.cbor_value_to_pretty_advance,"ax",%progbits
 1186              		.align	2
 1187              		.global	cbor_value_to_pretty_advance
 1188              		.syntax unified
 1189              		.arm
 1190              		.fpu neon
 1192              	cbor_value_to_pretty_advance:
 1193              	.LFB56:
 446:D:/Work/DeviceTester/amazon-freertos/lib/third_party/tinycbor\cborpretty.c **** 
 447:D:/Work/DeviceTester/amazon-freertos/lib/third_party/tinycbor\cborpretty.c **** /**
 448:D:/Work/DeviceTester/amazon-freertos/lib/third_party/tinycbor\cborpretty.c ****  * \fn CborError cbor_value_to_pretty(FILE *out, const CborValue *value)
 449:D:/Work/DeviceTester/amazon-freertos/lib/third_party/tinycbor\cborpretty.c ****  *
 450:D:/Work/DeviceTester/amazon-freertos/lib/third_party/tinycbor\cborpretty.c ****  * Converts the current CBOR type pointed by \a value to its textual
 451:D:/Work/DeviceTester/amazon-freertos/lib/third_party/tinycbor\cborpretty.c ****  * representation and writes it to the \a out stream. If an error occurs, this
 452:D:/Work/DeviceTester/amazon-freertos/lib/third_party/tinycbor\cborpretty.c ****  * function returns an error code similar to CborParsing.
 453:D:/Work/DeviceTester/amazon-freertos/lib/third_party/tinycbor\cborpretty.c ****  *
 454:D:/Work/DeviceTester/amazon-freertos/lib/third_party/tinycbor\cborpretty.c ****  * \sa cbor_value_to_pretty_advance(), cbor_value_to_json_advance()
 455:D:/Work/DeviceTester/amazon-freertos/lib/third_party/tinycbor\cborpretty.c ****  */
 456:D:/Work/DeviceTester/amazon-freertos/lib/third_party/tinycbor\cborpretty.c **** 
 457:D:/Work/DeviceTester/amazon-freertos/lib/third_party/tinycbor\cborpretty.c **** /**
 458:D:/Work/DeviceTester/amazon-freertos/lib/third_party/tinycbor\cborpretty.c ****  * Converts the current CBOR type pointed by \a value to its textual
 459:D:/Work/DeviceTester/amazon-freertos/lib/third_party/tinycbor\cborpretty.c ****  * representation and writes it to the \a out stream. If an error occurs, this
 460:D:/Work/DeviceTester/amazon-freertos/lib/third_party/tinycbor\cborpretty.c ****  * function returns an error code similar to CborParsing.
 461:D:/Work/DeviceTester/amazon-freertos/lib/third_party/tinycbor\cborpretty.c ****  *
 462:D:/Work/DeviceTester/amazon-freertos/lib/third_party/tinycbor\cborpretty.c ****  * If no error ocurred, this function advances \a value to the next element.
 463:D:/Work/DeviceTester/amazon-freertos/lib/third_party/tinycbor\cborpretty.c ****  * Often, concatenating the text representation of multiple elements can be
 464:D:/Work/DeviceTester/amazon-freertos/lib/third_party/tinycbor\cborpretty.c ****  * done by appending a comma to the output stream.
 465:D:/Work/DeviceTester/amazon-freertos/lib/third_party/tinycbor\cborpretty.c ****  *
 466:D:/Work/DeviceTester/amazon-freertos/lib/third_party/tinycbor\cborpretty.c ****  * \sa cbor_value_to_pretty(), cbor_value_to_json_advance()
 467:D:/Work/DeviceTester/amazon-freertos/lib/third_party/tinycbor\cborpretty.c ****  */
 468:D:/Work/DeviceTester/amazon-freertos/lib/third_party/tinycbor\cborpretty.c **** CborError cbor_value_to_pretty_advance(FILE *out, CborValue *value)
 469:D:/Work/DeviceTester/amazon-freertos/lib/third_party/tinycbor\cborpretty.c **** {
 1194              		.loc 1 469 0
 1195              		.cfi_startproc
 1196              		@ args = 0, pretend = 0, frame = 0
 1197              		@ frame_needed = 0, uses_anonymous_args = 0
 1198              		@ link register save eliminated.
 1199              	.LVL181:
 470:D:/Work/DeviceTester/amazon-freertos/lib/third_party/tinycbor\cborpretty.c ****     return value_to_pretty(out, value);
 1200              		.loc 1 470 0
 1201 0000 FEFFFFEA 		b	value_to_pretty
 1202              	.LVL182:
 1203              		.cfi_endproc
 1204              	.LFE56:
 1206              		.section	.rodata.__func__.6835,"a",%progbits
 1207              		.set	.LANCHOR0,. + 0
 1210              	__func__.6835:
 1211 0000 63626F72 		.ascii	"cbor_value_get_float\000"
 1211      5F76616C 
 1211      75655F67 
 1211      65745F66 
 1211      6C6F6174 
 1212              		.section	.rodata.__func__.6844,"a",%progbits
 1213              		.set	.LANCHOR1,. + 0
 1216              	__func__.6844:
 1217 0000 63626F72 		.ascii	"cbor_value_get_double\000"
 1217      5F76616C 
 1217      75655F67 
 1217      65745F64 
 1217      6F75626C 
 1218              		.section	.rodata.value_to_pretty.str1.1,"aMS",%progbits,1
 1219              	.LC0:
 1220 0000 5B00     		.ascii	"[\000"
 1221              	.LC1:
 1222 0002 7B00     		.ascii	"{\000"
 1223              	.LC2:
 1224 0004 00       		.ascii	"\000"
 1225              	.LC3:
 1226 0005 5D00     		.ascii	"]\000"
 1227              	.LC4:
 1228 0007 7D00     		.ascii	"}\000"
 1229              	.LC5:
 1230 0009 74727565 		.ascii	"true\000"
 1230      00
 1231              	.LC6:
 1232 000e 66616C73 		.ascii	"false\000"
 1232      6500
 1233              	.LC7:
 1234 0014 6600     		.ascii	"f\000"
 1235              	.LC8:
 1236 0016 66313600 		.ascii	"f16\000"
 1237              	.LC9:
 1238 001a 2D00     		.ascii	"-\000"
 1239              	.LC10:
 1240 001c 5F2000   		.ascii	"_ \000"
 1241              	.LC11:
 1242 001f 257300   		.ascii	"%s\000"
 1243              	.LC12:
 1244 0022 2C2000   		.ascii	", \000"
 1245              	.LC13:
 1246 0025 3A2000   		.ascii	": \000"
 1247              	.LC14:
 1248 0028 2D256C6C 		.ascii	"-%llu\000"
 1248      7500
 1249              	.LC15:
 1250 002e 2D313834 		.ascii	"-18446744073709551616\000"
 1250      34363734 
 1250      34303733 
 1250      37303935 
 1250      35313631 
 1251              	.LC16:
 1252 0044 682700   		.ascii	"h'\000"
 1253              	.LC17:
 1254 0047 25303268 		.ascii	"%02hhx\000"
 1254      687800
 1255              	.LC18:
 1256 004e 2200     		.ascii	"\"\000"
 1257              	.LC19:
 1258 0050 256300   		.ascii	"%c\000"
 1259              	.LC20:
 1260 0053 5C256300 		.ascii	"\\%c\000"
 1261              	.LC21:
 1262 0057 5C752530 		.ascii	"\\u%04lX\\u%04lX\000"
 1262      346C585C 
 1262      75253034 
 1262      6C5800
 1263              	.LC22:
 1264 0066 5C752530 		.ascii	"\\u%04lX\000"
 1264      346C5800 
 1265              	.LC23:
 1266 006e 256C6C75 		.ascii	"%llu(\000"
 1266      2800
 1267              	.LC24:
 1268 0074 2900     		.ascii	")\000"
 1269              	.LC25:
 1270 0076 73696D70 		.ascii	"simple(%hhu)\000"
 1270      6C652825 
 1270      68687529 
 1270      00
 1271              	.LC26:
 1272 0083 6E756C6C 		.ascii	"null\000"
 1272      00
 1273              	.LC27:
 1274 0088 756E6465 		.ascii	"undefined\000"
 1274      66696E65 
 1274      6400
 1275              	.LC28:
 1276 0092 76616C75 		.ascii	"value->flags & CborIteratorFlag_IntegerValueTooLarg"
 1276      652D3E66 
 1276      6C616773 
 1276      20262043 
 1276      626F7249 
 1277 00c5 6500     		.ascii	"e\000"
 1278              	.LC29:
 1279 00c7 443A2F57 		.ascii	"D:/Work/DeviceTester/amazon-freertos/lib/third_part"
 1279      6F726B2F 
 1279      44657669 
 1279      63655465 
 1279      73746572 
 1280 00fa 792F7469 		.ascii	"y/tinycbor/cbor.h\000"
 1280      6E796362 
 1280      6F722F63 
 1280      626F722E 
 1280      6800
 1281              	.LC30:
 1282 010c 2573256C 		.ascii	"%s%llu.%s\000"
 1282      6C752E25 
 1282      7300
 1283              	.LC31:
 1284 0116 252E3137 		.ascii	"%.17g%s\000"
 1284      67257300 
 1285              	.LC32:
 1286 011e 696E7661 		.ascii	"invalid\000"
 1286      6C696400 
 1287              	.LC33:
 1288 0126 2700     		.ascii	"'\000"
 1289              	.LC34:
 1290 0128 256C6C75 		.ascii	"%llu\000"
 1290      00
 1291              		.text
 1292              	.Letext0:
 1293              		.file 4 "c:\\program files (x86)\\gnu tools arm embedded\\6 2017-q2-update\\arm-none-eabi\\include
 1294              		.file 5 "c:\\program files (x86)\\gnu tools arm embedded\\6 2017-q2-update\\lib\\gcc\\arm-none-eab
 1295              		.file 6 "c:\\program files (x86)\\gnu tools arm embedded\\6 2017-q2-update\\arm-none-eabi\\include
 1296              		.file 7 "c:\\program files (x86)\\gnu tools arm embedded\\6 2017-q2-update\\arm-none-eabi\\include
 1297              		.file 8 "c:\\program files (x86)\\gnu tools arm embedded\\6 2017-q2-update\\arm-none-eabi\\include
 1298              		.file 9 "c:\\program files (x86)\\gnu tools arm embedded\\6 2017-q2-update\\arm-none-eabi\\include
 1299              		.file 10 "c:\\program files (x86)\\gnu tools arm embedded\\6 2017-q2-update\\arm-none-eabi\\includ
 1300              		.file 11 "c:\\program files (x86)\\gnu tools arm embedded\\6 2017-q2-update\\arm-none-eabi\\includ
 1301              		.file 12 "c:\\program files (x86)\\gnu tools arm embedded\\6 2017-q2-update\\arm-none-eabi\\includ
 1302              		.file 13 "c:\\program files (x86)\\gnu tools arm embedded\\6 2017-q2-update\\arm-none-eabi\\includ