   1              		.cpu cortex-a9
   2              		.eabi_attribute 28, 1
   3              		.eabi_attribute 20, 1
   4              		.eabi_attribute 21, 1
   5              		.eabi_attribute 23, 3
   6              		.eabi_attribute 24, 1
   7              		.eabi_attribute 25, 1
   8              		.eabi_attribute 26, 1
   9              		.eabi_attribute 30, 4
  10              		.eabi_attribute 34, 0
  11              		.eabi_attribute 18, 4
  12              		.file	"cborencoder_close_container_checked.c"
  13              		.text
  14              	.Ltext0:
  15              		.cfi_sections	.debug_frame
  16              		.section	.text.cbor_encoder_close_container_checked,"ax",%progbits
  17              		.align	2
  18              		.global	cbor_encoder_close_container_checked
  19              		.syntax unified
  20              		.arm
  21              		.fpu neon
  23              	cbor_encoder_close_container_checked:
  24              	.LFB55:
  25              		.file 1 "D:/Work/DeviceTester/amazon-freertos/lib/third_party/tinycbor/cborencoder_close_container
   1:D:/Work/DeviceTester/amazon-freertos/lib/third_party/tinycbor\cborencoder_close_container_checked.c **** /****************************************************************************
   2:D:/Work/DeviceTester/amazon-freertos/lib/third_party/tinycbor\cborencoder_close_container_checked.c **** **
   3:D:/Work/DeviceTester/amazon-freertos/lib/third_party/tinycbor\cborencoder_close_container_checked.c **** ** Copyright (C) 2015 Intel Corporation
   4:D:/Work/DeviceTester/amazon-freertos/lib/third_party/tinycbor\cborencoder_close_container_checked.c **** **
   5:D:/Work/DeviceTester/amazon-freertos/lib/third_party/tinycbor\cborencoder_close_container_checked.c **** ** Permission is hereby granted, free of charge, to any person obtaining a copy
   6:D:/Work/DeviceTester/amazon-freertos/lib/third_party/tinycbor\cborencoder_close_container_checked.c **** ** of this software and associated documentation files (the "Software"), to deal
   7:D:/Work/DeviceTester/amazon-freertos/lib/third_party/tinycbor\cborencoder_close_container_checked.c **** ** in the Software without restriction, including without limitation the rights
   8:D:/Work/DeviceTester/amazon-freertos/lib/third_party/tinycbor\cborencoder_close_container_checked.c **** ** to use, copy, modify, merge, publish, distribute, sublicense, and/or sell
   9:D:/Work/DeviceTester/amazon-freertos/lib/third_party/tinycbor\cborencoder_close_container_checked.c **** ** copies of the Software, and to permit persons to whom the Software is
  10:D:/Work/DeviceTester/amazon-freertos/lib/third_party/tinycbor\cborencoder_close_container_checked.c **** ** furnished to do so, subject to the following conditions:
  11:D:/Work/DeviceTester/amazon-freertos/lib/third_party/tinycbor\cborencoder_close_container_checked.c **** **
  12:D:/Work/DeviceTester/amazon-freertos/lib/third_party/tinycbor\cborencoder_close_container_checked.c **** ** The above copyright notice and this permission notice shall be included in
  13:D:/Work/DeviceTester/amazon-freertos/lib/third_party/tinycbor\cborencoder_close_container_checked.c **** ** all copies or substantial portions of the Software.
  14:D:/Work/DeviceTester/amazon-freertos/lib/third_party/tinycbor\cborencoder_close_container_checked.c **** **
  15:D:/Work/DeviceTester/amazon-freertos/lib/third_party/tinycbor\cborencoder_close_container_checked.c **** ** THE SOFTWARE IS PROVIDED "AS IS", WITHOUT WARRANTY OF ANY KIND, EXPRESS OR
  16:D:/Work/DeviceTester/amazon-freertos/lib/third_party/tinycbor\cborencoder_close_container_checked.c **** ** IMPLIED, INCLUDING BUT NOT LIMITED TO THE WARRANTIES OF MERCHANTABILITY,
  17:D:/Work/DeviceTester/amazon-freertos/lib/third_party/tinycbor\cborencoder_close_container_checked.c **** ** FITNESS FOR A PARTICULAR PURPOSE AND NONINFRINGEMENT. IN NO EVENT SHALL THE
  18:D:/Work/DeviceTester/amazon-freertos/lib/third_party/tinycbor\cborencoder_close_container_checked.c **** ** AUTHORS OR COPYRIGHT HOLDERS BE LIABLE FOR ANY CLAIM, DAMAGES OR OTHER
  19:D:/Work/DeviceTester/amazon-freertos/lib/third_party/tinycbor\cborencoder_close_container_checked.c **** ** LIABILITY, WHETHER IN AN ACTION OF CONTRACT, TORT OR OTHERWISE, ARISING FROM,
  20:D:/Work/DeviceTester/amazon-freertos/lib/third_party/tinycbor\cborencoder_close_container_checked.c **** ** OUT OF OR IN CONNECTION WITH THE SOFTWARE OR THE USE OR OTHER DEALINGS IN
  21:D:/Work/DeviceTester/amazon-freertos/lib/third_party/tinycbor\cborencoder_close_container_checked.c **** ** THE SOFTWARE.
  22:D:/Work/DeviceTester/amazon-freertos/lib/third_party/tinycbor\cborencoder_close_container_checked.c **** **
  23:D:/Work/DeviceTester/amazon-freertos/lib/third_party/tinycbor\cborencoder_close_container_checked.c **** ****************************************************************************/
  24:D:/Work/DeviceTester/amazon-freertos/lib/third_party/tinycbor\cborencoder_close_container_checked.c **** 
  25:D:/Work/DeviceTester/amazon-freertos/lib/third_party/tinycbor\cborencoder_close_container_checked.c **** #define _BSD_SOURCE 1
  26:D:/Work/DeviceTester/amazon-freertos/lib/third_party/tinycbor\cborencoder_close_container_checked.c **** #define _DEFAULT_SOURCE 1
  27:D:/Work/DeviceTester/amazon-freertos/lib/third_party/tinycbor\cborencoder_close_container_checked.c **** #ifndef __STDC_LIMIT_MACROS
  28:D:/Work/DeviceTester/amazon-freertos/lib/third_party/tinycbor\cborencoder_close_container_checked.c **** #  define __STDC_LIMIT_MACROS 1
  29:D:/Work/DeviceTester/amazon-freertos/lib/third_party/tinycbor\cborencoder_close_container_checked.c **** #endif
  30:D:/Work/DeviceTester/amazon-freertos/lib/third_party/tinycbor\cborencoder_close_container_checked.c **** 
  31:D:/Work/DeviceTester/amazon-freertos/lib/third_party/tinycbor\cborencoder_close_container_checked.c **** #include "cbor.h"
  32:D:/Work/DeviceTester/amazon-freertos/lib/third_party/tinycbor\cborencoder_close_container_checked.c **** #include "cborconstants_p.h"
  33:D:/Work/DeviceTester/amazon-freertos/lib/third_party/tinycbor\cborencoder_close_container_checked.c **** #include "compilersupport_p.h"
  34:D:/Work/DeviceTester/amazon-freertos/lib/third_party/tinycbor\cborencoder_close_container_checked.c **** #include "extract_number_p.h"
  35:D:/Work/DeviceTester/amazon-freertos/lib/third_party/tinycbor\cborencoder_close_container_checked.c **** 
  36:D:/Work/DeviceTester/amazon-freertos/lib/third_party/tinycbor\cborencoder_close_container_checked.c **** #include <assert.h>
  37:D:/Work/DeviceTester/amazon-freertos/lib/third_party/tinycbor\cborencoder_close_container_checked.c **** 
  38:D:/Work/DeviceTester/amazon-freertos/lib/third_party/tinycbor\cborencoder_close_container_checked.c **** #include "assert_p.h"       /* Always include last */
  39:D:/Work/DeviceTester/amazon-freertos/lib/third_party/tinycbor\cborencoder_close_container_checked.c **** 
  40:D:/Work/DeviceTester/amazon-freertos/lib/third_party/tinycbor\cborencoder_close_container_checked.c **** /**
  41:D:/Work/DeviceTester/amazon-freertos/lib/third_party/tinycbor\cborencoder_close_container_checked.c ****  * \addtogroup CborEncoding
  42:D:/Work/DeviceTester/amazon-freertos/lib/third_party/tinycbor\cborencoder_close_container_checked.c ****  * @{
  43:D:/Work/DeviceTester/amazon-freertos/lib/third_party/tinycbor\cborencoder_close_container_checked.c ****  */
  44:D:/Work/DeviceTester/amazon-freertos/lib/third_party/tinycbor\cborencoder_close_container_checked.c **** 
  45:D:/Work/DeviceTester/amazon-freertos/lib/third_party/tinycbor\cborencoder_close_container_checked.c **** /**
  46:D:/Work/DeviceTester/amazon-freertos/lib/third_party/tinycbor\cborencoder_close_container_checked.c ****  *
  47:D:/Work/DeviceTester/amazon-freertos/lib/third_party/tinycbor\cborencoder_close_container_checked.c ****  * Closes the CBOR container (array or map) provided by \a containerEncoder and
  48:D:/Work/DeviceTester/amazon-freertos/lib/third_party/tinycbor\cborencoder_close_container_checked.c ****  * updates the CBOR stream provided by \a encoder. Both parameters must be the
  49:D:/Work/DeviceTester/amazon-freertos/lib/third_party/tinycbor\cborencoder_close_container_checked.c ****  * same as were passed to cbor_encoder_create_array() or
  50:D:/Work/DeviceTester/amazon-freertos/lib/third_party/tinycbor\cborencoder_close_container_checked.c ****  * cbor_encoder_create_map().
  51:D:/Work/DeviceTester/amazon-freertos/lib/third_party/tinycbor\cborencoder_close_container_checked.c ****  *
  52:D:/Work/DeviceTester/amazon-freertos/lib/third_party/tinycbor\cborencoder_close_container_checked.c ****  * Unlike cbor_encoder_close_container(), this function checks that the number
  53:D:/Work/DeviceTester/amazon-freertos/lib/third_party/tinycbor\cborencoder_close_container_checked.c ****  * of items (or pair of items, in the case of a map) was correct. If the number
  54:D:/Work/DeviceTester/amazon-freertos/lib/third_party/tinycbor\cborencoder_close_container_checked.c ****  * of items inserted does not match the length originally passed to
  55:D:/Work/DeviceTester/amazon-freertos/lib/third_party/tinycbor\cborencoder_close_container_checked.c ****  * cbor_encoder_create_array() or cbor_encoder_create_map(), this function
  56:D:/Work/DeviceTester/amazon-freertos/lib/third_party/tinycbor\cborencoder_close_container_checked.c ****  * returns either CborErrorTooFewItems or CborErrorTooManyItems.
  57:D:/Work/DeviceTester/amazon-freertos/lib/third_party/tinycbor\cborencoder_close_container_checked.c ****  *
  58:D:/Work/DeviceTester/amazon-freertos/lib/third_party/tinycbor\cborencoder_close_container_checked.c ****  * \sa cbor_encoder_create_array(), cbor_encoder_create_map()
  59:D:/Work/DeviceTester/amazon-freertos/lib/third_party/tinycbor\cborencoder_close_container_checked.c ****  */
  60:D:/Work/DeviceTester/amazon-freertos/lib/third_party/tinycbor\cborencoder_close_container_checked.c **** CborError cbor_encoder_close_container_checked(CborEncoder *encoder, const CborEncoder *containerEn
  61:D:/Work/DeviceTester/amazon-freertos/lib/third_party/tinycbor\cborencoder_close_container_checked.c **** {
  26              		.loc 1 61 0
  27              		.cfi_startproc
  28              		@ args = 0, pretend = 0, frame = 8
  29              		@ frame_needed = 0, uses_anonymous_args = 0
  30              	.LVL0:
  31 0000 F7402DE9 		push	{r0, r1, r2, r4, r5, r6, r7, lr}
  32              		.cfi_def_cfa_offset 32
  33              		.cfi_offset 4, -20
  34              		.cfi_offset 5, -16
  35              		.cfi_offset 6, -12
  36              		.cfi_offset 7, -8
  37              		.cfi_offset 14, -4
  38              		.loc 1 61 0
  39 0004 0140A0E1 		mov	r4, r1
  40 0008 0070A0E1 		mov	r7, r0
  62:D:/Work/DeviceTester/amazon-freertos/lib/third_party/tinycbor\cborencoder_close_container_checked.c ****     const uint8_t *ptr = encoder->data.ptr;
  41              		.loc 1 62 0
  42 000c 006090E5 		ldr	r6, [r0]
  43              	.LVL1:
  63:D:/Work/DeviceTester/amazon-freertos/lib/third_party/tinycbor\cborencoder_close_container_checked.c ****     CborError err = cbor_encoder_close_container(encoder, containerEncoder);
  44              		.loc 1 63 0
  45 0010 FEFFFFEB 		bl	cbor_encoder_close_container
  46              	.LVL2:
  64:D:/Work/DeviceTester/amazon-freertos/lib/third_party/tinycbor\cborencoder_close_container_checked.c ****     if (containerEncoder->flags & CborIteratorFlag_UnknownLength || encoder->end == NULL)
  47              		.loc 1 64 0
  48 0014 0C5094E5 		ldr	r5, [r4, #12]
  49 0018 040015E3 		tst	r5, #4
  50 001c 3100001A 		bne	.L1
  51              		.loc 1 64 0 is_stmt 0 discriminator 1
  52 0020 043097E5 		ldr	r3, [r7, #4]
  53 0024 000053E3 		cmp	r3, #0
  54 0028 2E00000A 		beq	.L1
  55              	.LVL3:
  56              	.LBB10:
  57              	.LBB11:
  58              		.file 2 "D:/Work/DeviceTester/amazon-freertos/lib/third_party/tinycbor/extract_number_p.h"
   1:D:/Work/DeviceTester/amazon-freertos/lib/third_party/tinycbor\extract_number_p.h **** /****************************************************************************
   2:D:/Work/DeviceTester/amazon-freertos/lib/third_party/tinycbor\extract_number_p.h **** **
   3:D:/Work/DeviceTester/amazon-freertos/lib/third_party/tinycbor\extract_number_p.h **** ** Copyright (C) 2015 Intel Corporation
   4:D:/Work/DeviceTester/amazon-freertos/lib/third_party/tinycbor\extract_number_p.h **** **
   5:D:/Work/DeviceTester/amazon-freertos/lib/third_party/tinycbor\extract_number_p.h **** ** Permission is hereby granted, free of charge, to any person obtaining a copy
   6:D:/Work/DeviceTester/amazon-freertos/lib/third_party/tinycbor\extract_number_p.h **** ** of this software and associated documentation files (the "Software"), to deal
   7:D:/Work/DeviceTester/amazon-freertos/lib/third_party/tinycbor\extract_number_p.h **** ** in the Software without restriction, including without limitation the rights
   8:D:/Work/DeviceTester/amazon-freertos/lib/third_party/tinycbor\extract_number_p.h **** ** to use, copy, modify, merge, publish, distribute, sublicense, and/or sell
   9:D:/Work/DeviceTester/amazon-freertos/lib/third_party/tinycbor\extract_number_p.h **** ** copies of the Software, and to permit persons to whom the Software is
  10:D:/Work/DeviceTester/amazon-freertos/lib/third_party/tinycbor\extract_number_p.h **** ** furnished to do so, subject to the following conditions:
  11:D:/Work/DeviceTester/amazon-freertos/lib/third_party/tinycbor\extract_number_p.h **** **
  12:D:/Work/DeviceTester/amazon-freertos/lib/third_party/tinycbor\extract_number_p.h **** ** The above copyright notice and this permission notice shall be included in
  13:D:/Work/DeviceTester/amazon-freertos/lib/third_party/tinycbor\extract_number_p.h **** ** all copies or substantial portions of the Software.
  14:D:/Work/DeviceTester/amazon-freertos/lib/third_party/tinycbor\extract_number_p.h **** **
  15:D:/Work/DeviceTester/amazon-freertos/lib/third_party/tinycbor\extract_number_p.h **** ** THE SOFTWARE IS PROVIDED "AS IS", WITHOUT WARRANTY OF ANY KIND, EXPRESS OR
  16:D:/Work/DeviceTester/amazon-freertos/lib/third_party/tinycbor\extract_number_p.h **** ** IMPLIED, INCLUDING BUT NOT LIMITED TO THE WARRANTIES OF MERCHANTABILITY,
  17:D:/Work/DeviceTester/amazon-freertos/lib/third_party/tinycbor\extract_number_p.h **** ** FITNESS FOR A PARTICULAR PURPOSE AND NONINFRINGEMENT. IN NO EVENT SHALL THE
  18:D:/Work/DeviceTester/amazon-freertos/lib/third_party/tinycbor\extract_number_p.h **** ** AUTHORS OR COPYRIGHT HOLDERS BE LIABLE FOR ANY CLAIM, DAMAGES OR OTHER
  19:D:/Work/DeviceTester/amazon-freertos/lib/third_party/tinycbor\extract_number_p.h **** ** LIABILITY, WHETHER IN AN ACTION OF CONTRACT, TORT OR OTHERWISE, ARISING FROM,
  20:D:/Work/DeviceTester/amazon-freertos/lib/third_party/tinycbor\extract_number_p.h **** ** OUT OF OR IN CONNECTION WITH THE SOFTWARE OR THE USE OR OTHER DEALINGS IN
  21:D:/Work/DeviceTester/amazon-freertos/lib/third_party/tinycbor\extract_number_p.h **** ** THE SOFTWARE.
  22:D:/Work/DeviceTester/amazon-freertos/lib/third_party/tinycbor\extract_number_p.h **** **
  23:D:/Work/DeviceTester/amazon-freertos/lib/third_party/tinycbor\extract_number_p.h **** ****************************************************************************/
  24:D:/Work/DeviceTester/amazon-freertos/lib/third_party/tinycbor\extract_number_p.h **** 
  25:D:/Work/DeviceTester/amazon-freertos/lib/third_party/tinycbor\extract_number_p.h **** #define _BSD_SOURCE 1
  26:D:/Work/DeviceTester/amazon-freertos/lib/third_party/tinycbor\extract_number_p.h **** #define _DEFAULT_SOURCE 1
  27:D:/Work/DeviceTester/amazon-freertos/lib/third_party/tinycbor\extract_number_p.h **** #include "cbor.h"
  28:D:/Work/DeviceTester/amazon-freertos/lib/third_party/tinycbor\extract_number_p.h **** #include "cborconstants_p.h"
  29:D:/Work/DeviceTester/amazon-freertos/lib/third_party/tinycbor\extract_number_p.h **** #include "compilersupport_p.h"
  30:D:/Work/DeviceTester/amazon-freertos/lib/third_party/tinycbor\extract_number_p.h **** #include <stdlib.h>
  31:D:/Work/DeviceTester/amazon-freertos/lib/third_party/tinycbor\extract_number_p.h **** 
  32:D:/Work/DeviceTester/amazon-freertos/lib/third_party/tinycbor\extract_number_p.h **** static inline uint16_t get16(const uint8_t *ptr)
  33:D:/Work/DeviceTester/amazon-freertos/lib/third_party/tinycbor\extract_number_p.h **** {
  34:D:/Work/DeviceTester/amazon-freertos/lib/third_party/tinycbor\extract_number_p.h ****     uint16_t result;
  35:D:/Work/DeviceTester/amazon-freertos/lib/third_party/tinycbor\extract_number_p.h ****     memcpy(&result, ptr, sizeof(result));
  36:D:/Work/DeviceTester/amazon-freertos/lib/third_party/tinycbor\extract_number_p.h ****     return cbor_ntohs(result);
  37:D:/Work/DeviceTester/amazon-freertos/lib/third_party/tinycbor\extract_number_p.h **** }
  38:D:/Work/DeviceTester/amazon-freertos/lib/third_party/tinycbor\extract_number_p.h **** 
  39:D:/Work/DeviceTester/amazon-freertos/lib/third_party/tinycbor\extract_number_p.h **** static inline uint32_t get32(const uint8_t *ptr)
  40:D:/Work/DeviceTester/amazon-freertos/lib/third_party/tinycbor\extract_number_p.h **** {
  41:D:/Work/DeviceTester/amazon-freertos/lib/third_party/tinycbor\extract_number_p.h ****     uint32_t result;
  42:D:/Work/DeviceTester/amazon-freertos/lib/third_party/tinycbor\extract_number_p.h ****     memcpy(&result, ptr, sizeof(result));
  43:D:/Work/DeviceTester/amazon-freertos/lib/third_party/tinycbor\extract_number_p.h ****     return cbor_ntohl(result);
  44:D:/Work/DeviceTester/amazon-freertos/lib/third_party/tinycbor\extract_number_p.h **** }
  45:D:/Work/DeviceTester/amazon-freertos/lib/third_party/tinycbor\extract_number_p.h **** 
  46:D:/Work/DeviceTester/amazon-freertos/lib/third_party/tinycbor\extract_number_p.h **** static inline uint64_t get64(const uint8_t *ptr)
  47:D:/Work/DeviceTester/amazon-freertos/lib/third_party/tinycbor\extract_number_p.h **** {
  48:D:/Work/DeviceTester/amazon-freertos/lib/third_party/tinycbor\extract_number_p.h ****     uint64_t result;
  49:D:/Work/DeviceTester/amazon-freertos/lib/third_party/tinycbor\extract_number_p.h ****     memcpy(&result, ptr, sizeof(result));
  50:D:/Work/DeviceTester/amazon-freertos/lib/third_party/tinycbor\extract_number_p.h ****     return cbor_ntohll(result);
  51:D:/Work/DeviceTester/amazon-freertos/lib/third_party/tinycbor\extract_number_p.h **** }
  52:D:/Work/DeviceTester/amazon-freertos/lib/third_party/tinycbor\extract_number_p.h **** 
  53:D:/Work/DeviceTester/amazon-freertos/lib/third_party/tinycbor\extract_number_p.h **** static CborError extract_number(const uint8_t **ptr, const uint8_t *end, uint64_t *len)
  54:D:/Work/DeviceTester/amazon-freertos/lib/third_party/tinycbor\extract_number_p.h **** {
  55:D:/Work/DeviceTester/amazon-freertos/lib/third_party/tinycbor\extract_number_p.h ****     uint8_t additional_information = **ptr & SmallValueMask;
  59              		.loc 2 55 0 is_stmt 1
  60 002c 0020D6E5 		ldrb	r2, [r6]	@ zero_extendqisi2
  61 0030 1F2002E2 		and	r2, r2, #31
  62              	.LVL4:
  56:D:/Work/DeviceTester/amazon-freertos/lib/third_party/tinycbor\extract_number_p.h ****     ++*ptr;
  57:D:/Work/DeviceTester/amazon-freertos/lib/third_party/tinycbor\extract_number_p.h ****     if (additional_information < Value8Bit) {
  63              		.loc 2 57 0
  64 0034 170052E3 		cmp	r2, #23
  58:D:/Work/DeviceTester/amazon-freertos/lib/third_party/tinycbor\extract_number_p.h ****         *len = additional_information;
  65              		.loc 2 58 0
  66 0038 7220EF96 		uxtbls	r2, r2
  67              	.LVL5:
  57:D:/Work/DeviceTester/amazon-freertos/lib/third_party/tinycbor\extract_number_p.h ****         *len = additional_information;
  68              		.loc 2 57 0
  69 003c 1600009A 		bls	.L19
  59:D:/Work/DeviceTester/amazon-freertos/lib/third_party/tinycbor\extract_number_p.h ****         return CborNoError;
  60:D:/Work/DeviceTester/amazon-freertos/lib/third_party/tinycbor\extract_number_p.h ****     }
  61:D:/Work/DeviceTester/amazon-freertos/lib/third_party/tinycbor\extract_number_p.h ****     if (unlikely(additional_information > Value64Bit))
  70              		.loc 2 61 0
  71 0040 1B0052E3 		cmp	r2, #27
  62:D:/Work/DeviceTester/amazon-freertos/lib/third_party/tinycbor\extract_number_p.h ****         return CborErrorIllegalNumber;
  72              		.loc 2 62 0
  73 0044 05010083 		movwhi	r0, #261
  74              	.LVL6:
  61:D:/Work/DeviceTester/amazon-freertos/lib/third_party/tinycbor\extract_number_p.h ****         return CborErrorIllegalNumber;
  75              		.loc 2 61 0
  76 0048 2600008A 		bhi	.L1
  63:D:/Work/DeviceTester/amazon-freertos/lib/third_party/tinycbor\extract_number_p.h **** 
  64:D:/Work/DeviceTester/amazon-freertos/lib/third_party/tinycbor\extract_number_p.h ****     size_t bytesNeeded = (size_t)(1 << (additional_information - Value8Bit));
  77              		.loc 2 64 0
  78 004c 183042E2 		sub	r3, r2, #24
  79 0050 0120A0E3 		mov	r2, #1
  80 0054 1223A0E1 		lsl	r2, r2, r3
  81              	.LVL7:
  65:D:/Work/DeviceTester/amazon-freertos/lib/third_party/tinycbor\extract_number_p.h ****     if (unlikely(bytesNeeded > (size_t)(end - *ptr))) {
  82              		.loc 2 65 0
  83 0058 003097E5 		ldr	r3, [r7]
  56:D:/Work/DeviceTester/amazon-freertos/lib/third_party/tinycbor\extract_number_p.h ****     if (additional_information < Value8Bit) {
  84              		.loc 2 56 0
  85 005c 011086E2 		add	r1, r6, #1
  86              	.LVL8:
  87              		.loc 2 65 0
  88 0060 013043E0 		sub	r3, r3, r1
  89 0064 030052E1 		cmp	r2, r3
  66:D:/Work/DeviceTester/amazon-freertos/lib/third_party/tinycbor\extract_number_p.h ****         return CborErrorUnexpectedEOF;
  90              		.loc 2 66 0
  91 0068 01010083 		movwhi	r0, #257
  65:D:/Work/DeviceTester/amazon-freertos/lib/third_party/tinycbor\extract_number_p.h ****     if (unlikely(bytesNeeded > (size_t)(end - *ptr))) {
  92              		.loc 2 65 0
  93 006c 1D00008A 		bhi	.L1
  67:D:/Work/DeviceTester/amazon-freertos/lib/third_party/tinycbor\extract_number_p.h ****     } else if (bytesNeeded == 1) {
  94              		.loc 2 67 0
  95 0070 010052E3 		cmp	r2, #1
  68:D:/Work/DeviceTester/amazon-freertos/lib/third_party/tinycbor\extract_number_p.h ****         *len = (uint8_t)(*ptr)[0];
  96              		.loc 2 68 0
  97 0074 0120D605 		ldrbeq	r2, [r6, #1]	@ zero_extendqisi2
  98              	.LVL9:
  67:D:/Work/DeviceTester/amazon-freertos/lib/third_party/tinycbor\extract_number_p.h ****     } else if (bytesNeeded == 1) {
  99              		.loc 2 67 0
 100 0078 0700000A 		beq	.L19
  69:D:/Work/DeviceTester/amazon-freertos/lib/third_party/tinycbor\extract_number_p.h ****     } else if (bytesNeeded == 2) {
 101              		.loc 2 69 0
 102 007c 020052E3 		cmp	r2, #2
 103 0080 1A00001A 		bne	.L6
 104              	.LVL10:
 105              	.LBB12:
 106              	.LBB13:
  35:D:/Work/DeviceTester/amazon-freertos/lib/third_party/tinycbor\extract_number_p.h ****     return cbor_ntohs(result);
 107              		.loc 2 35 0
 108 0084 0D00A0E1 		mov	r0, sp
 109 0088 FEFFFFEB 		bl	memcpy
 110              	.LVL11:
  36:D:/Work/DeviceTester/amazon-freertos/lib/third_party/tinycbor\extract_number_p.h **** }
 111              		.loc 2 36 0
 112 008c B030DDE1 		ldrh	r3, [sp]
 113              	.LVL12:
 114 0090 0324A0E1 		lsl	r2, r3, #8
 115 0094 232482E1 		orr	r2, r2, r3, lsr #8
 116              	.LBE13:
 117              	.LBE12:
  70:D:/Work/DeviceTester/amazon-freertos/lib/third_party/tinycbor\extract_number_p.h ****         *len = get16(*ptr);
 118              		.loc 2 70 0
 119 0098 7220FFE6 		uxth	r2, r2
 120              	.L19:
 121 009c 0030A0E3 		mov	r3, #0
 122              	.LVL13:
 123              	.L4:
 124              	.LBE11:
 125              	.LBE10:
  65:D:/Work/DeviceTester/amazon-freertos/lib/third_party/tinycbor\cborencoder_close_container_checked.c ****         return err;
  66:D:/Work/DeviceTester/amazon-freertos/lib/third_party/tinycbor\cborencoder_close_container_checked.c **** 
  67:D:/Work/DeviceTester/amazon-freertos/lib/third_party/tinycbor\cborencoder_close_container_checked.c ****     /* check what the original length was */
  68:D:/Work/DeviceTester/amazon-freertos/lib/third_party/tinycbor\cborencoder_close_container_checked.c ****     uint64_t actually_added;
  69:D:/Work/DeviceTester/amazon-freertos/lib/third_party/tinycbor\cborencoder_close_container_checked.c ****     err = extract_number(&ptr, encoder->data.ptr, &actually_added);
  70:D:/Work/DeviceTester/amazon-freertos/lib/third_party/tinycbor\cborencoder_close_container_checked.c ****     if (err)
  71:D:/Work/DeviceTester/amazon-freertos/lib/third_party/tinycbor\cborencoder_close_container_checked.c ****         return err;
  72:D:/Work/DeviceTester/amazon-freertos/lib/third_party/tinycbor\cborencoder_close_container_checked.c **** 
  73:D:/Work/DeviceTester/amazon-freertos/lib/third_party/tinycbor\cborencoder_close_container_checked.c ****     if (containerEncoder->flags & CborIteratorFlag_ContainerIsMap) {
 126              		.loc 1 73 0
 127 00a0 200015E3 		tst	r5, #32
 128 00a4 0700000A 		beq	.L9
  74:D:/Work/DeviceTester/amazon-freertos/lib/third_party/tinycbor\cborencoder_close_container_checked.c ****         if (actually_added > SIZE_MAX / 2)
 129              		.loc 1 74 0
 130 00a8 0010A0E3 		mov	r1, #0
 131 00ac 0201E0E3 		mvn	r0, #-2147483648
 132 00b0 010053E1 		cmp	r3, r1
 133 00b4 00005201 		cmpeq	r2, r0
  75:D:/Work/DeviceTester/amazon-freertos/lib/third_party/tinycbor\cborencoder_close_container_checked.c ****             return CborErrorDataTooLarge;
 134              		.loc 1 75 0
 135 00b8 010BA083 		movhi	r0, #1024
  74:D:/Work/DeviceTester/amazon-freertos/lib/third_party/tinycbor\cborencoder_close_container_checked.c ****         if (actually_added > SIZE_MAX / 2)
 136              		.loc 1 74 0
 137 00bc 0900008A 		bhi	.L1
  76:D:/Work/DeviceTester/amazon-freertos/lib/third_party/tinycbor\cborencoder_close_container_checked.c ****         actually_added *= 2;
 138              		.loc 1 76 0
 139 00c0 022092E0 		adds	r2, r2, r2
 140              	.LVL14:
 141 00c4 0330A3E0 		adc	r3, r3, r3
 142              	.L9:
 143              	.LVL15:
  77:D:/Work/DeviceTester/amazon-freertos/lib/third_party/tinycbor\cborencoder_close_container_checked.c ****     }
  78:D:/Work/DeviceTester/amazon-freertos/lib/third_party/tinycbor\cborencoder_close_container_checked.c ****     return actually_added == containerEncoder->added ? CborNoError :
 144              		.loc 1 78 0
 145 00c8 080094E5 		ldr	r0, [r4, #8]
 146 00cc 0010A0E3 		mov	r1, #0
 147 00d0 030051E1 		cmp	r1, r3
 148 00d4 02005001 		cmpeq	r0, r2
 149 00d8 0000A003 		moveq	r0, #0
 150 00dc 0100000A 		beq	.L1
 151              		.loc 1 78 0 is_stmt 0 discriminator 1
 152 00e0 01030093 		movwls	r0, #769
 153 00e4 030CA083 		movhi	r0, #768
 154              	.LVL16:
 155              	.L1:
  79:D:/Work/DeviceTester/amazon-freertos/lib/third_party/tinycbor\cborencoder_close_container_checked.c ****            actually_added < containerEncoder->added ? CborErrorTooManyItems : CborErrorTooFewItems;
  80:D:/Work/DeviceTester/amazon-freertos/lib/third_party/tinycbor\cborencoder_close_container_checked.c **** }
 156              		.loc 1 80 0 is_stmt 1
 157 00e8 0CD08DE2 		add	sp, sp, #12
 158              		.cfi_remember_state
 159              		.cfi_def_cfa_offset 20
 160              		@ sp needed
 161 00ec F080BDE8 		pop	{r4, r5, r6, r7, pc}
 162              	.LVL17:
 163              	.L6:
 164              		.cfi_restore_state
 165              	.LBB19:
 166              	.LBB18:
  71:D:/Work/DeviceTester/amazon-freertos/lib/third_party/tinycbor\extract_number_p.h ****     } else if (bytesNeeded == 4) {
 167              		.loc 2 71 0
 168 00f0 040052E3 		cmp	r2, #4
 169 00f4 0400001A 		bne	.L7
 170              	.LVL18:
 171              	.LBB14:
 172              	.LBB15:
  42:D:/Work/DeviceTester/amazon-freertos/lib/third_party/tinycbor\extract_number_p.h ****     return cbor_ntohl(result);
 173              		.loc 2 42 0
 174 00f8 0D00A0E1 		mov	r0, sp
 175 00fc FEFFFFEB 		bl	memcpy
 176              	.LVL19:
  43:D:/Work/DeviceTester/amazon-freertos/lib/third_party/tinycbor\extract_number_p.h **** }
 177              		.loc 2 43 0
 178 0100 00209DE5 		ldr	r2, [sp]
 179 0104 322FBFE6 		rev	r2, r2
 180              	.LVL20:
 181 0108 E3FFFFEA 		b	.L19
 182              	.LVL21:
 183              	.L7:
 184              	.LBE15:
 185              	.LBE14:
 186              	.LBB16:
 187              	.LBB17:
  49:D:/Work/DeviceTester/amazon-freertos/lib/third_party/tinycbor\extract_number_p.h ****     return cbor_ntohll(result);
 188              		.loc 2 49 0
 189 010c 0820A0E3 		mov	r2, #8
 190 0110 0D00A0E1 		mov	r0, sp
 191 0114 FEFFFFEB 		bl	memcpy
 192              	.LVL22:
  50:D:/Work/DeviceTester/amazon-freertos/lib/third_party/tinycbor\extract_number_p.h **** }
 193              		.loc 2 50 0
 194 0118 04109DE5 		ldr	r1, [sp, #4]
 195 011c 312FBFE6 		rev	r2, r1
 196 0120 00109DE5 		ldr	r1, [sp]
 197 0124 313FBFE6 		rev	r3, r1
 198              	.LVL23:
 199 0128 DCFFFFEA 		b	.L4
 200              	.LBE17:
 201              	.LBE16:
 202              	.LBE18:
 203              	.LBE19:
 204              		.cfi_endproc
 205              	.LFE55:
 207              		.text
 208              	.Letext0:
 209              		.file 3 "c:\\program files (x86)\\gnu tools arm embedded\\6 2017-q2-update\\arm-none-eabi\\include
 210              		.file 4 "c:\\program files (x86)\\gnu tools arm embedded\\6 2017-q2-update\\lib\\gcc\\arm-none-eab
 211              		.file 5 "c:\\program files (x86)\\gnu tools arm embedded\\6 2017-q2-update\\arm-none-eabi\\include
 212              		.file 6 "c:\\program files (x86)\\gnu tools arm embedded\\6 2017-q2-update\\arm-none-eabi\\include
 213              		.file 7 "c:\\program files (x86)\\gnu tools arm embedded\\6 2017-q2-update\\arm-none-eabi\\include
 214              		.file 8 "c:\\program files (x86)\\gnu tools arm embedded\\6 2017-q2-update\\arm-none-eabi\\include
 215              		.file 9 "D:/Work/DeviceTester/amazon-freertos/lib/third_party/tinycbor/cbor.h"
 216              		.file 10 "c:\\program files (x86)\\gnu tools arm embedded\\6 2017-q2-update\\arm-none-eabi\\includ
 217              		.file 11 "D:/Work/DeviceTester/amazon-freertos/lib/third_party/tinycbor/cborconstants_p.h"