   1              		.cpu cortex-a9
   2              		.eabi_attribute 28, 1
   3              		.eabi_attribute 20, 1
   4              		.eabi_attribute 21, 1
   5              		.eabi_attribute 23, 3
   6              		.eabi_attribute 24, 1
   7              		.eabi_attribute 25, 1
   8              		.eabi_attribute 26, 1
   9              		.eabi_attribute 30, 4
  10              		.eabi_attribute 34, 0
  11              		.eabi_attribute 18, 4
  12              		.file	"phy.c"
  13              		.text
  14              	.Ltext0:
  15              		.cfi_sections	.debug_frame
  16              		.section	.text.phy_trans_zto0,"ax",%progbits
  17              		.align	2
  18              		.syntax unified
  19              		.arm
  20              		.fpu neon
  22              	phy_trans_zto0:
  23              	.LFB11:
  24              		.file 1 "D:/Work/DeviceTester/amazon-freertos/lib/third_party/mcu_vendor/renesas/rz_mcu_boards/cor
   1:D:/Work/DeviceTester/amazon-freertos/lib/third_party/mcu_vendor/renesas/rz_mcu_boards/core_package/generate/sc_drivers/r_ether_gr_mango/src/phy\phy.c **** /**************************************************************************************************
   2:D:/Work/DeviceTester/amazon-freertos/lib/third_party/mcu_vendor/renesas/rz_mcu_boards/core_package/generate/sc_drivers/r_ether_gr_mango/src/phy\phy.c ****  * DISCLAIMER
   3:D:/Work/DeviceTester/amazon-freertos/lib/third_party/mcu_vendor/renesas/rz_mcu_boards/core_package/generate/sc_drivers/r_ether_gr_mango/src/phy\phy.c ****  * This software is supplied by Renesas Electronics Corporation and is only intended for use with R
   4:D:/Work/DeviceTester/amazon-freertos/lib/third_party/mcu_vendor/renesas/rz_mcu_boards/core_package/generate/sc_drivers/r_ether_gr_mango/src/phy\phy.c ****  * other uses are authorized. This software is owned by Renesas Electronics Corporation and is prot
   5:D:/Work/DeviceTester/amazon-freertos/lib/third_party/mcu_vendor/renesas/rz_mcu_boards/core_package/generate/sc_drivers/r_ether_gr_mango/src/phy\phy.c ****  * applicable laws, including copyright laws.
   6:D:/Work/DeviceTester/amazon-freertos/lib/third_party/mcu_vendor/renesas/rz_mcu_boards/core_package/generate/sc_drivers/r_ether_gr_mango/src/phy\phy.c ****  * THIS SOFTWARE IS PROVIDED "AS IS" AND RENESAS MAKES NO WARRANTIES REGARDING
   7:D:/Work/DeviceTester/amazon-freertos/lib/third_party/mcu_vendor/renesas/rz_mcu_boards/core_package/generate/sc_drivers/r_ether_gr_mango/src/phy\phy.c ****  * THIS SOFTWARE, WHETHER EXPRESS, IMPLIED OR STATUTORY, INCLUDING BUT NOT LIMITED TO WARRANTIES OF
   8:D:/Work/DeviceTester/amazon-freertos/lib/third_party/mcu_vendor/renesas/rz_mcu_boards/core_package/generate/sc_drivers/r_ether_gr_mango/src/phy\phy.c ****  * FITNESS FOR A PARTICULAR PURPOSE AND NON-INFRINGEMENT. ALL SUCH WARRANTIES ARE EXPRESSLY DISCLAI
   9:D:/Work/DeviceTester/amazon-freertos/lib/third_party/mcu_vendor/renesas/rz_mcu_boards/core_package/generate/sc_drivers/r_ether_gr_mango/src/phy\phy.c ****  * EXTENT PERMITTED NOT PROHIBITED BY LAW, NEITHER RENESAS ELECTRONICS CORPORATION NOR ANY OF ITS A
  10:D:/Work/DeviceTester/amazon-freertos/lib/third_party/mcu_vendor/renesas/rz_mcu_boards/core_package/generate/sc_drivers/r_ether_gr_mango/src/phy\phy.c ****  * SHALL BE LIABLE FOR ANY DIRECT, INDIRECT, SPECIAL, INCIDENTAL OR CONSEQUENTIAL DAMAGES FOR ANY R
  11:D:/Work/DeviceTester/amazon-freertos/lib/third_party/mcu_vendor/renesas/rz_mcu_boards/core_package/generate/sc_drivers/r_ether_gr_mango/src/phy\phy.c ****  * THIS SOFTWARE, EVEN IF RENESAS OR ITS AFFILIATES HAVE BEEN ADVISED OF THE POSSIBILITY OF SUCH DA
  12:D:/Work/DeviceTester/amazon-freertos/lib/third_party/mcu_vendor/renesas/rz_mcu_boards/core_package/generate/sc_drivers/r_ether_gr_mango/src/phy\phy.c ****  * Renesas reserves the right, without notice, to make changes to this software and to discontinue 
  13:D:/Work/DeviceTester/amazon-freertos/lib/third_party/mcu_vendor/renesas/rz_mcu_boards/core_package/generate/sc_drivers/r_ether_gr_mango/src/phy\phy.c ****  * this software. By using this software, you agree to the additional terms and conditions found by
  14:D:/Work/DeviceTester/amazon-freertos/lib/third_party/mcu_vendor/renesas/rz_mcu_boards/core_package/generate/sc_drivers/r_ether_gr_mango/src/phy\phy.c ****  * following link:
  15:D:/Work/DeviceTester/amazon-freertos/lib/third_party/mcu_vendor/renesas/rz_mcu_boards/core_package/generate/sc_drivers/r_ether_gr_mango/src/phy\phy.c ****  * http://www.renesas.com/disclaimer
  16:D:/Work/DeviceTester/amazon-freertos/lib/third_party/mcu_vendor/renesas/rz_mcu_boards/core_package/generate/sc_drivers/r_ether_gr_mango/src/phy\phy.c ****  *
  17:D:/Work/DeviceTester/amazon-freertos/lib/third_party/mcu_vendor/renesas/rz_mcu_boards/core_package/generate/sc_drivers/r_ether_gr_mango/src/phy\phy.c ****  * Copyright (C) 2019 Renesas Electronics Corporation. All rights reserved.
  18:D:/Work/DeviceTester/amazon-freertos/lib/third_party/mcu_vendor/renesas/rz_mcu_boards/core_package/generate/sc_drivers/r_ether_gr_mango/src/phy\phy.c ****  **************************************************************************************************
  19:D:/Work/DeviceTester/amazon-freertos/lib/third_party/mcu_vendor/renesas/rz_mcu_boards/core_package/generate/sc_drivers/r_ether_gr_mango/src/phy\phy.c **** 
  20:D:/Work/DeviceTester/amazon-freertos/lib/third_party/mcu_vendor/renesas/rz_mcu_boards/core_package/generate/sc_drivers/r_ether_gr_mango/src/phy\phy.c **** 
  21:D:/Work/DeviceTester/amazon-freertos/lib/third_party/mcu_vendor/renesas/rz_mcu_boards/core_package/generate/sc_drivers/r_ether_gr_mango/src/phy\phy.c **** /**************************************************************************************************
  22:D:/Work/DeviceTester/amazon-freertos/lib/third_party/mcu_vendor/renesas/rz_mcu_boards/core_package/generate/sc_drivers/r_ether_gr_mango/src/phy\phy.c ****  * File Name    : phy.c
  23:D:/Work/DeviceTester/amazon-freertos/lib/third_party/mcu_vendor/renesas/rz_mcu_boards/core_package/generate/sc_drivers/r_ether_gr_mango/src/phy\phy.c ****  * Version      : 1.01
  24:D:/Work/DeviceTester/amazon-freertos/lib/third_party/mcu_vendor/renesas/rz_mcu_boards/core_package/generate/sc_drivers/r_ether_gr_mango/src/phy\phy.c ****  * Description  : Ethernet PHY device driver
  25:D:/Work/DeviceTester/amazon-freertos/lib/third_party/mcu_vendor/renesas/rz_mcu_boards/core_package/generate/sc_drivers/r_ether_gr_mango/src/phy\phy.c ****  **************************************************************************************************
  26:D:/Work/DeviceTester/amazon-freertos/lib/third_party/mcu_vendor/renesas/rz_mcu_boards/core_package/generate/sc_drivers/r_ether_gr_mango/src/phy\phy.c **** 
  27:D:/Work/DeviceTester/amazon-freertos/lib/third_party/mcu_vendor/renesas/rz_mcu_boards/core_package/generate/sc_drivers/r_ether_gr_mango/src/phy\phy.c **** /**************************************************************************************************
  28:D:/Work/DeviceTester/amazon-freertos/lib/third_party/mcu_vendor/renesas/rz_mcu_boards/core_package/generate/sc_drivers/r_ether_gr_mango/src/phy\phy.c ****  Includes   <System Includes> , "Project Includes"
  29:D:/Work/DeviceTester/amazon-freertos/lib/third_party/mcu_vendor/renesas/rz_mcu_boards/core_package/generate/sc_drivers/r_ether_gr_mango/src/phy\phy.c ****  **************************************************************************************************
  30:D:/Work/DeviceTester/amazon-freertos/lib/third_party/mcu_vendor/renesas/rz_mcu_boards/core_package/generate/sc_drivers/r_ether_gr_mango/src/phy\phy.c **** #include "iodefine.h"
  31:D:/Work/DeviceTester/amazon-freertos/lib/third_party/mcu_vendor/renesas/rz_mcu_boards/core_package/generate/sc_drivers/r_ether_gr_mango/src/phy\phy.c **** #include "iobitmask.h"
  32:D:/Work/DeviceTester/amazon-freertos/lib/third_party/mcu_vendor/renesas/rz_mcu_boards/core_package/generate/sc_drivers/r_ether_gr_mango/src/phy\phy.c **** 
  33:D:/Work/DeviceTester/amazon-freertos/lib/third_party/mcu_vendor/renesas/rz_mcu_boards/core_package/generate/sc_drivers/r_ether_gr_mango/src/phy\phy.c **** /* Access to peripherals and board defines. */
  34:D:/Work/DeviceTester/amazon-freertos/lib/third_party/mcu_vendor/renesas/rz_mcu_boards/core_package/generate/sc_drivers/r_ether_gr_mango/src/phy\phy.c **** 
  35:D:/Work/DeviceTester/amazon-freertos/lib/third_party/mcu_vendor/renesas/rz_mcu_boards/core_package/generate/sc_drivers/r_ether_gr_mango/src/phy\phy.c **** #include "r_ether_rza2_config.h"
  36:D:/Work/DeviceTester/amazon-freertos/lib/third_party/mcu_vendor/renesas/rz_mcu_boards/core_package/generate/sc_drivers/r_ether_gr_mango/src/phy\phy.c **** #include "r_ether_drv_sc_cfg.h"
  37:D:/Work/DeviceTester/amazon-freertos/lib/third_party/mcu_vendor/renesas/rz_mcu_boards/core_package/generate/sc_drivers/r_ether_gr_mango/src/phy\phy.c **** #include "src/r_ether_rza2_private.h"
  38:D:/Work/DeviceTester/amazon-freertos/lib/third_party/mcu_vendor/renesas/rz_mcu_boards/core_package/generate/sc_drivers/r_ether_gr_mango/src/phy\phy.c **** #include "phy.h"
  39:D:/Work/DeviceTester/amazon-freertos/lib/third_party/mcu_vendor/renesas/rz_mcu_boards/core_package/generate/sc_drivers/r_ether_gr_mango/src/phy\phy.c **** #include "r_gpio_drv_api.h"
  40:D:/Work/DeviceTester/amazon-freertos/lib/third_party/mcu_vendor/renesas/rz_mcu_boards/core_package/generate/sc_drivers/r_ether_gr_mango/src/phy\phy.c **** #include "r_os_abstraction_api.h"
  41:D:/Work/DeviceTester/amazon-freertos/lib/third_party/mcu_vendor/renesas/rz_mcu_boards/core_package/generate/sc_drivers/r_ether_gr_mango/src/phy\phy.c **** 
  42:D:/Work/DeviceTester/amazon-freertos/lib/third_party/mcu_vendor/renesas/rz_mcu_boards/core_package/generate/sc_drivers/r_ether_gr_mango/src/phy\phy.c **** 
  43:D:/Work/DeviceTester/amazon-freertos/lib/third_party/mcu_vendor/renesas/rz_mcu_boards/core_package/generate/sc_drivers/r_ether_gr_mango/src/phy\phy.c **** /**************************************************************************************************
  44:D:/Work/DeviceTester/amazon-freertos/lib/third_party/mcu_vendor/renesas/rz_mcu_boards/core_package/generate/sc_drivers/r_ether_gr_mango/src/phy\phy.c ****  Macro definitions
  45:D:/Work/DeviceTester/amazon-freertos/lib/third_party/mcu_vendor/renesas/rz_mcu_boards/core_package/generate/sc_drivers/r_ether_gr_mango/src/phy\phy.c ****  **************************************************************************************************
  46:D:/Work/DeviceTester/amazon-freertos/lib/third_party/mcu_vendor/renesas/rz_mcu_boards/core_package/generate/sc_drivers/r_ether_gr_mango/src/phy\phy.c **** /* Media Independent Interface */
  47:D:/Work/DeviceTester/amazon-freertos/lib/third_party/mcu_vendor/renesas/rz_mcu_boards/core_package/generate/sc_drivers/r_ether_gr_mango/src/phy\phy.c **** #define PHY_MII_ST                      (1)
  48:D:/Work/DeviceTester/amazon-freertos/lib/third_party/mcu_vendor/renesas/rz_mcu_boards/core_package/generate/sc_drivers/r_ether_gr_mango/src/phy\phy.c **** #define PHY_MII_READ                    (2)
  49:D:/Work/DeviceTester/amazon-freertos/lib/third_party/mcu_vendor/renesas/rz_mcu_boards/core_package/generate/sc_drivers/r_ether_gr_mango/src/phy\phy.c **** #define PHY_MII_WRITE                   (1)
  50:D:/Work/DeviceTester/amazon-freertos/lib/third_party/mcu_vendor/renesas/rz_mcu_boards/core_package/generate/sc_drivers/r_ether_gr_mango/src/phy\phy.c **** 
  51:D:/Work/DeviceTester/amazon-freertos/lib/third_party/mcu_vendor/renesas/rz_mcu_boards/core_package/generate/sc_drivers/r_ether_gr_mango/src/phy\phy.c **** /* Standard PHY Registers */
  52:D:/Work/DeviceTester/amazon-freertos/lib/third_party/mcu_vendor/renesas/rz_mcu_boards/core_package/generate/sc_drivers/r_ether_gr_mango/src/phy\phy.c **** #define PHY_REG_CONTROL                 (0)
  53:D:/Work/DeviceTester/amazon-freertos/lib/third_party/mcu_vendor/renesas/rz_mcu_boards/core_package/generate/sc_drivers/r_ether_gr_mango/src/phy\phy.c **** #define PHY_REG_STATUS                  (1)
  54:D:/Work/DeviceTester/amazon-freertos/lib/third_party/mcu_vendor/renesas/rz_mcu_boards/core_package/generate/sc_drivers/r_ether_gr_mango/src/phy\phy.c **** #define PHY_REG_IDENTIFIER1             (2)
  55:D:/Work/DeviceTester/amazon-freertos/lib/third_party/mcu_vendor/renesas/rz_mcu_boards/core_package/generate/sc_drivers/r_ether_gr_mango/src/phy\phy.c **** #define PHY_REG_IDENTIFIER2             (3)
  56:D:/Work/DeviceTester/amazon-freertos/lib/third_party/mcu_vendor/renesas/rz_mcu_boards/core_package/generate/sc_drivers/r_ether_gr_mango/src/phy\phy.c **** #define PHY_REG_AN_ADVERTISEMENT        (4)
  57:D:/Work/DeviceTester/amazon-freertos/lib/third_party/mcu_vendor/renesas/rz_mcu_boards/core_package/generate/sc_drivers/r_ether_gr_mango/src/phy\phy.c **** #define PHY_REG_AN_LINK_PARTNER         (5)
  58:D:/Work/DeviceTester/amazon-freertos/lib/third_party/mcu_vendor/renesas/rz_mcu_boards/core_package/generate/sc_drivers/r_ether_gr_mango/src/phy\phy.c **** #define PHY_REG_AN_EXPANSION            (6)
  59:D:/Work/DeviceTester/amazon-freertos/lib/third_party/mcu_vendor/renesas/rz_mcu_boards/core_package/generate/sc_drivers/r_ether_gr_mango/src/phy\phy.c **** 
  60:D:/Work/DeviceTester/amazon-freertos/lib/third_party/mcu_vendor/renesas/rz_mcu_boards/core_package/generate/sc_drivers/r_ether_gr_mango/src/phy\phy.c **** /* Vendor Specific PHY Registers */
  61:D:/Work/DeviceTester/amazon-freertos/lib/third_party/mcu_vendor/renesas/rz_mcu_boards/core_package/generate/sc_drivers/r_ether_gr_mango/src/phy\phy.c **** #ifdef ETHER_CFG_USE_PHY_KSZ8041NL
  62:D:/Work/DeviceTester/amazon-freertos/lib/third_party/mcu_vendor/renesas/rz_mcu_boards/core_package/generate/sc_drivers/r_ether_gr_mango/src/phy\phy.c ****     #define PHY_REG_PHY_CONTROL_1           (0x1E)
  63:D:/Work/DeviceTester/amazon-freertos/lib/third_party/mcu_vendor/renesas/rz_mcu_boards/core_package/generate/sc_drivers/r_ether_gr_mango/src/phy\phy.c **** #endif /* MICREL_KSZ8041NL */
  64:D:/Work/DeviceTester/amazon-freertos/lib/third_party/mcu_vendor/renesas/rz_mcu_boards/core_package/generate/sc_drivers/r_ether_gr_mango/src/phy\phy.c **** 
  65:D:/Work/DeviceTester/amazon-freertos/lib/third_party/mcu_vendor/renesas/rz_mcu_boards/core_package/generate/sc_drivers/r_ether_gr_mango/src/phy\phy.c **** /* Basic Mode Control Register Bit Definitions */
  66:D:/Work/DeviceTester/amazon-freertos/lib/third_party/mcu_vendor/renesas/rz_mcu_boards/core_package/generate/sc_drivers/r_ether_gr_mango/src/phy\phy.c **** #define PHY_CONTROL_RESET               (1 << 15)
  67:D:/Work/DeviceTester/amazon-freertos/lib/third_party/mcu_vendor/renesas/rz_mcu_boards/core_package/generate/sc_drivers/r_ether_gr_mango/src/phy\phy.c **** #define PHY_CONTROL_LOOPBACK            (1 << 14)
  68:D:/Work/DeviceTester/amazon-freertos/lib/third_party/mcu_vendor/renesas/rz_mcu_boards/core_package/generate/sc_drivers/r_ether_gr_mango/src/phy\phy.c **** #define PHY_CONTROL_100_MBPS            (1 << 13)
  69:D:/Work/DeviceTester/amazon-freertos/lib/third_party/mcu_vendor/renesas/rz_mcu_boards/core_package/generate/sc_drivers/r_ether_gr_mango/src/phy\phy.c **** #define PHY_CONTROL_AN_ENABLE           (1 << 12)
  70:D:/Work/DeviceTester/amazon-freertos/lib/third_party/mcu_vendor/renesas/rz_mcu_boards/core_package/generate/sc_drivers/r_ether_gr_mango/src/phy\phy.c **** #define PHY_CONTROL_POWER_DOWN          (1 << 11)
  71:D:/Work/DeviceTester/amazon-freertos/lib/third_party/mcu_vendor/renesas/rz_mcu_boards/core_package/generate/sc_drivers/r_ether_gr_mango/src/phy\phy.c **** #define PHY_CONTROL_ISOLATE             (1 << 10)
  72:D:/Work/DeviceTester/amazon-freertos/lib/third_party/mcu_vendor/renesas/rz_mcu_boards/core_package/generate/sc_drivers/r_ether_gr_mango/src/phy\phy.c **** #define PHY_CONTROL_AN_RESTART          (1 << 9)
  73:D:/Work/DeviceTester/amazon-freertos/lib/third_party/mcu_vendor/renesas/rz_mcu_boards/core_package/generate/sc_drivers/r_ether_gr_mango/src/phy\phy.c **** #define PHY_CONTROL_FULL_DUPLEX         (1 << 8)
  74:D:/Work/DeviceTester/amazon-freertos/lib/third_party/mcu_vendor/renesas/rz_mcu_boards/core_package/generate/sc_drivers/r_ether_gr_mango/src/phy\phy.c **** #define PHY_CONTROL_COLLISION           (1 << 7)
  75:D:/Work/DeviceTester/amazon-freertos/lib/third_party/mcu_vendor/renesas/rz_mcu_boards/core_package/generate/sc_drivers/r_ether_gr_mango/src/phy\phy.c **** 
  76:D:/Work/DeviceTester/amazon-freertos/lib/third_party/mcu_vendor/renesas/rz_mcu_boards/core_package/generate/sc_drivers/r_ether_gr_mango/src/phy\phy.c **** /* Basic Mode Status Register Bit Definitions */
  77:D:/Work/DeviceTester/amazon-freertos/lib/third_party/mcu_vendor/renesas/rz_mcu_boards/core_package/generate/sc_drivers/r_ether_gr_mango/src/phy\phy.c **** #define PHY_STATUS_100_T4               (1 << 15)
  78:D:/Work/DeviceTester/amazon-freertos/lib/third_party/mcu_vendor/renesas/rz_mcu_boards/core_package/generate/sc_drivers/r_ether_gr_mango/src/phy\phy.c **** #define PHY_STATUS_100F                 (1 << 14)
  79:D:/Work/DeviceTester/amazon-freertos/lib/third_party/mcu_vendor/renesas/rz_mcu_boards/core_package/generate/sc_drivers/r_ether_gr_mango/src/phy\phy.c **** #define PHY_STATUS_100H                 (1 << 13)
  80:D:/Work/DeviceTester/amazon-freertos/lib/third_party/mcu_vendor/renesas/rz_mcu_boards/core_package/generate/sc_drivers/r_ether_gr_mango/src/phy\phy.c **** #define PHY_STATUS_10F                  (1 << 12)
  81:D:/Work/DeviceTester/amazon-freertos/lib/third_party/mcu_vendor/renesas/rz_mcu_boards/core_package/generate/sc_drivers/r_ether_gr_mango/src/phy\phy.c **** #define PHY_STATUS_10H                  (1 << 11)
  82:D:/Work/DeviceTester/amazon-freertos/lib/third_party/mcu_vendor/renesas/rz_mcu_boards/core_package/generate/sc_drivers/r_ether_gr_mango/src/phy\phy.c **** #define PHY_STATUS_AN_COMPLETE          (1 << 5)
  83:D:/Work/DeviceTester/amazon-freertos/lib/third_party/mcu_vendor/renesas/rz_mcu_boards/core_package/generate/sc_drivers/r_ether_gr_mango/src/phy\phy.c **** #define PHY_STATUS_RM_FAULT             (1 << 4)
  84:D:/Work/DeviceTester/amazon-freertos/lib/third_party/mcu_vendor/renesas/rz_mcu_boards/core_package/generate/sc_drivers/r_ether_gr_mango/src/phy\phy.c **** #define PHY_STATUS_AN_ABILITY           (1 << 3)
  85:D:/Work/DeviceTester/amazon-freertos/lib/third_party/mcu_vendor/renesas/rz_mcu_boards/core_package/generate/sc_drivers/r_ether_gr_mango/src/phy\phy.c **** #define PHY_STATUS_LINK_UP              (1 << 2)
  86:D:/Work/DeviceTester/amazon-freertos/lib/third_party/mcu_vendor/renesas/rz_mcu_boards/core_package/generate/sc_drivers/r_ether_gr_mango/src/phy\phy.c **** #define PHY_STATUS_JABBER               (1 << 1)
  87:D:/Work/DeviceTester/amazon-freertos/lib/third_party/mcu_vendor/renesas/rz_mcu_boards/core_package/generate/sc_drivers/r_ether_gr_mango/src/phy\phy.c **** #define PHY_STATUS_EX_CAPABILITY        (1 << 0)
  88:D:/Work/DeviceTester/amazon-freertos/lib/third_party/mcu_vendor/renesas/rz_mcu_boards/core_package/generate/sc_drivers/r_ether_gr_mango/src/phy\phy.c **** 
  89:D:/Work/DeviceTester/amazon-freertos/lib/third_party/mcu_vendor/renesas/rz_mcu_boards/core_package/generate/sc_drivers/r_ether_gr_mango/src/phy\phy.c **** /* Auto Negotiation Advertisement Bit Definitions */
  90:D:/Work/DeviceTester/amazon-freertos/lib/third_party/mcu_vendor/renesas/rz_mcu_boards/core_package/generate/sc_drivers/r_ether_gr_mango/src/phy\phy.c **** #define PHY_AN_ADVERTISEMENT_NEXT_PAGE  (1 << 15)
  91:D:/Work/DeviceTester/amazon-freertos/lib/third_party/mcu_vendor/renesas/rz_mcu_boards/core_package/generate/sc_drivers/r_ether_gr_mango/src/phy\phy.c **** #define PHY_AN_ADVERTISEMENT_RM_FAULT   (1 << 13)
  92:D:/Work/DeviceTester/amazon-freertos/lib/third_party/mcu_vendor/renesas/rz_mcu_boards/core_package/generate/sc_drivers/r_ether_gr_mango/src/phy\phy.c **** #define PHY_AN_ADVERTISEMENT_ASM_DIR    (1 << 11)
  93:D:/Work/DeviceTester/amazon-freertos/lib/third_party/mcu_vendor/renesas/rz_mcu_boards/core_package/generate/sc_drivers/r_ether_gr_mango/src/phy\phy.c **** #define PHY_AN_ADVERTISEMENT_PAUSE      (1 << 10)
  94:D:/Work/DeviceTester/amazon-freertos/lib/third_party/mcu_vendor/renesas/rz_mcu_boards/core_package/generate/sc_drivers/r_ether_gr_mango/src/phy\phy.c **** #define PHY_AN_ADVERTISEMENT_100_T4     (1 << 9)
  95:D:/Work/DeviceTester/amazon-freertos/lib/third_party/mcu_vendor/renesas/rz_mcu_boards/core_package/generate/sc_drivers/r_ether_gr_mango/src/phy\phy.c **** #define PHY_AN_ADVERTISEMENT_100F       (1 << 8)
  96:D:/Work/DeviceTester/amazon-freertos/lib/third_party/mcu_vendor/renesas/rz_mcu_boards/core_package/generate/sc_drivers/r_ether_gr_mango/src/phy\phy.c **** #define PHY_AN_ADVERTISEMENT_100H       (1 << 7)
  97:D:/Work/DeviceTester/amazon-freertos/lib/third_party/mcu_vendor/renesas/rz_mcu_boards/core_package/generate/sc_drivers/r_ether_gr_mango/src/phy\phy.c **** #define PHY_AN_ADVERTISEMENT_10F        (1 << 6)
  98:D:/Work/DeviceTester/amazon-freertos/lib/third_party/mcu_vendor/renesas/rz_mcu_boards/core_package/generate/sc_drivers/r_ether_gr_mango/src/phy\phy.c **** #define PHY_AN_ADVERTISEMENT_10H        (1 << 5)
  99:D:/Work/DeviceTester/amazon-freertos/lib/third_party/mcu_vendor/renesas/rz_mcu_boards/core_package/generate/sc_drivers/r_ether_gr_mango/src/phy\phy.c **** #define PHY_AN_ADVERTISEMENT_SELECTOR   (1 << 0)
 100:D:/Work/DeviceTester/amazon-freertos/lib/third_party/mcu_vendor/renesas/rz_mcu_boards/core_package/generate/sc_drivers/r_ether_gr_mango/src/phy\phy.c **** 
 101:D:/Work/DeviceTester/amazon-freertos/lib/third_party/mcu_vendor/renesas/rz_mcu_boards/core_package/generate/sc_drivers/r_ether_gr_mango/src/phy\phy.c **** /* Auto Negotiate Link Partner Ability Bit Definitions */
 102:D:/Work/DeviceTester/amazon-freertos/lib/third_party/mcu_vendor/renesas/rz_mcu_boards/core_package/generate/sc_drivers/r_ether_gr_mango/src/phy\phy.c **** #define PHY_AN_LINK_PARTNER_NEXT_PAGE   (1 << 15)
 103:D:/Work/DeviceTester/amazon-freertos/lib/third_party/mcu_vendor/renesas/rz_mcu_boards/core_package/generate/sc_drivers/r_ether_gr_mango/src/phy\phy.c **** #define PHY_AN_LINK_PARTNER_ACK         (1 << 14)
 104:D:/Work/DeviceTester/amazon-freertos/lib/third_party/mcu_vendor/renesas/rz_mcu_boards/core_package/generate/sc_drivers/r_ether_gr_mango/src/phy\phy.c **** #define PHY_AN_LINK_PARTNER_RM_FAULT    (1 << 13)
 105:D:/Work/DeviceTester/amazon-freertos/lib/third_party/mcu_vendor/renesas/rz_mcu_boards/core_package/generate/sc_drivers/r_ether_gr_mango/src/phy\phy.c **** #define PHY_AN_LINK_PARTNER_ASM_DIR     (1 << 11)
 106:D:/Work/DeviceTester/amazon-freertos/lib/third_party/mcu_vendor/renesas/rz_mcu_boards/core_package/generate/sc_drivers/r_ether_gr_mango/src/phy\phy.c **** #define PHY_AN_LINK_PARTNER_PAUSE       (1 << 10)
 107:D:/Work/DeviceTester/amazon-freertos/lib/third_party/mcu_vendor/renesas/rz_mcu_boards/core_package/generate/sc_drivers/r_ether_gr_mango/src/phy\phy.c **** #define PHY_AN_LINK_PARTNER_100_T4      (1 << 9)
 108:D:/Work/DeviceTester/amazon-freertos/lib/third_party/mcu_vendor/renesas/rz_mcu_boards/core_package/generate/sc_drivers/r_ether_gr_mango/src/phy\phy.c **** #define PHY_AN_LINK_PARTNER_100F        (1 << 8)
 109:D:/Work/DeviceTester/amazon-freertos/lib/third_party/mcu_vendor/renesas/rz_mcu_boards/core_package/generate/sc_drivers/r_ether_gr_mango/src/phy\phy.c **** #define PHY_AN_LINK_PARTNER_100H        (1 << 7)
 110:D:/Work/DeviceTester/amazon-freertos/lib/third_party/mcu_vendor/renesas/rz_mcu_boards/core_package/generate/sc_drivers/r_ether_gr_mango/src/phy\phy.c **** #define PHY_AN_LINK_PARTNER_10F         (1 << 6)
 111:D:/Work/DeviceTester/amazon-freertos/lib/third_party/mcu_vendor/renesas/rz_mcu_boards/core_package/generate/sc_drivers/r_ether_gr_mango/src/phy\phy.c **** #define PHY_AN_LINK_PARTNER_10H         (1 << 5)
 112:D:/Work/DeviceTester/amazon-freertos/lib/third_party/mcu_vendor/renesas/rz_mcu_boards/core_package/generate/sc_drivers/r_ether_gr_mango/src/phy\phy.c **** #define PHY_AN_LINK_PARTNER_SELECTOR    (1 << 0)
 113:D:/Work/DeviceTester/amazon-freertos/lib/third_party/mcu_vendor/renesas/rz_mcu_boards/core_package/generate/sc_drivers/r_ether_gr_mango/src/phy\phy.c **** 
 114:D:/Work/DeviceTester/amazon-freertos/lib/third_party/mcu_vendor/renesas/rz_mcu_boards/core_package/generate/sc_drivers/r_ether_gr_mango/src/phy\phy.c **** /**************************************************************************************************
 115:D:/Work/DeviceTester/amazon-freertos/lib/third_party/mcu_vendor/renesas/rz_mcu_boards/core_package/generate/sc_drivers/r_ether_gr_mango/src/phy\phy.c ****  Typedef definitions
 116:D:/Work/DeviceTester/amazon-freertos/lib/third_party/mcu_vendor/renesas/rz_mcu_boards/core_package/generate/sc_drivers/r_ether_gr_mango/src/phy\phy.c ****  **************************************************************************************************
 117:D:/Work/DeviceTester/amazon-freertos/lib/third_party/mcu_vendor/renesas/rz_mcu_boards/core_package/generate/sc_drivers/r_ether_gr_mango/src/phy\phy.c **** 
 118:D:/Work/DeviceTester/amazon-freertos/lib/third_party/mcu_vendor/renesas/rz_mcu_boards/core_package/generate/sc_drivers/r_ether_gr_mango/src/phy\phy.c **** /**************************************************************************************************
 119:D:/Work/DeviceTester/amazon-freertos/lib/third_party/mcu_vendor/renesas/rz_mcu_boards/core_package/generate/sc_drivers/r_ether_gr_mango/src/phy\phy.c ****  Exported global variables (to be accessed by other files)
 120:D:/Work/DeviceTester/amazon-freertos/lib/third_party/mcu_vendor/renesas/rz_mcu_boards/core_package/generate/sc_drivers/r_ether_gr_mango/src/phy\phy.c ****  **************************************************************************************************
 121:D:/Work/DeviceTester/amazon-freertos/lib/third_party/mcu_vendor/renesas/rz_mcu_boards/core_package/generate/sc_drivers/r_ether_gr_mango/src/phy\phy.c **** 
 122:D:/Work/DeviceTester/amazon-freertos/lib/third_party/mcu_vendor/renesas/rz_mcu_boards/core_package/generate/sc_drivers/r_ether_gr_mango/src/phy\phy.c **** /**************************************************************************************************
 123:D:/Work/DeviceTester/amazon-freertos/lib/third_party/mcu_vendor/renesas/rz_mcu_boards/core_package/generate/sc_drivers/r_ether_gr_mango/src/phy\phy.c ****  Private global variables and functions
 124:D:/Work/DeviceTester/amazon-freertos/lib/third_party/mcu_vendor/renesas/rz_mcu_boards/core_package/generate/sc_drivers/r_ether_gr_mango/src/phy\phy.c ****  **************************************************************************************************
 125:D:/Work/DeviceTester/amazon-freertos/lib/third_party/mcu_vendor/renesas/rz_mcu_boards/core_package/generate/sc_drivers/r_ether_gr_mango/src/phy\phy.c **** static uint16_t phy_read (uint32_t ether_channel, uint16_t reg_addr);
 126:D:/Work/DeviceTester/amazon-freertos/lib/third_party/mcu_vendor/renesas/rz_mcu_boards/core_package/generate/sc_drivers/r_ether_gr_mango/src/phy\phy.c **** static void phy_write (uint32_t ether_channel, uint16_t reg_addr, uint16_t data);
 127:D:/Work/DeviceTester/amazon-freertos/lib/third_party/mcu_vendor/renesas/rz_mcu_boards/core_package/generate/sc_drivers/r_ether_gr_mango/src/phy\phy.c **** static void phy_preamble (uint32_t ether_channel);
 128:D:/Work/DeviceTester/amazon-freertos/lib/third_party/mcu_vendor/renesas/rz_mcu_boards/core_package/generate/sc_drivers/r_ether_gr_mango/src/phy\phy.c **** static void phy_reg_set (uint32_t ether_channel, uint16_t reg_addr, int32_t option);
 129:D:/Work/DeviceTester/amazon-freertos/lib/third_party/mcu_vendor/renesas/rz_mcu_boards/core_package/generate/sc_drivers/r_ether_gr_mango/src/phy\phy.c **** static void phy_reg_read (uint32_t ether_channel, uint16_t *pdata);
 130:D:/Work/DeviceTester/amazon-freertos/lib/third_party/mcu_vendor/renesas/rz_mcu_boards/core_package/generate/sc_drivers/r_ether_gr_mango/src/phy\phy.c **** static void phy_reg_write (uint32_t ether_channel, uint16_t data);
 131:D:/Work/DeviceTester/amazon-freertos/lib/third_party/mcu_vendor/renesas/rz_mcu_boards/core_package/generate/sc_drivers/r_ether_gr_mango/src/phy\phy.c **** static void phy_trans_zto0 (uint32_t ether_channel);
 132:D:/Work/DeviceTester/amazon-freertos/lib/third_party/mcu_vendor/renesas/rz_mcu_boards/core_package/generate/sc_drivers/r_ether_gr_mango/src/phy\phy.c **** static void phy_trans_1to0 (uint32_t ether_channel);
 133:D:/Work/DeviceTester/amazon-freertos/lib/third_party/mcu_vendor/renesas/rz_mcu_boards/core_package/generate/sc_drivers/r_ether_gr_mango/src/phy\phy.c **** static void phy_mii_write1 (uint32_t ether_channel);
 134:D:/Work/DeviceTester/amazon-freertos/lib/third_party/mcu_vendor/renesas/rz_mcu_boards/core_package/generate/sc_drivers/r_ether_gr_mango/src/phy\phy.c **** static void phy_mii_write0 (uint32_t ether_channel);
 135:D:/Work/DeviceTester/amazon-freertos/lib/third_party/mcu_vendor/renesas/rz_mcu_boards/core_package/generate/sc_drivers/r_ether_gr_mango/src/phy\phy.c **** static int16_t phy_get_pir_address (uint32_t ether_channel, volatile uint32_t ** pppir_addr);
 136:D:/Work/DeviceTester/amazon-freertos/lib/third_party/mcu_vendor/renesas/rz_mcu_boards/core_package/generate/sc_drivers/r_ether_gr_mango/src/phy\phy.c **** static uint32_t phy_get_ctrl_tbl_idx(uint32_t ether_channel);
 137:D:/Work/DeviceTester/amazon-freertos/lib/third_party/mcu_vendor/renesas/rz_mcu_boards/core_package/generate/sc_drivers/r_ether_gr_mango/src/phy\phy.c **** 
 138:D:/Work/DeviceTester/amazon-freertos/lib/third_party/mcu_vendor/renesas/rz_mcu_boards/core_package/generate/sc_drivers/r_ether_gr_mango/src/phy\phy.c **** static uint16_t local_advertise[ETHER_CHANNEL_MAX]; /* the capabilities of the local link as PHY da
 139:D:/Work/DeviceTester/amazon-freertos/lib/third_party/mcu_vendor/renesas/rz_mcu_boards/core_package/generate/sc_drivers/r_ether_gr_mango/src/phy\phy.c **** 
 140:D:/Work/DeviceTester/amazon-freertos/lib/third_party/mcu_vendor/renesas/rz_mcu_boards/core_package/generate/sc_drivers/r_ether_gr_mango/src/phy\phy.c **** static uint32_t phy_opened = 0;
 141:D:/Work/DeviceTester/amazon-freertos/lib/third_party/mcu_vendor/renesas/rz_mcu_boards/core_package/generate/sc_drivers/r_ether_gr_mango/src/phy\phy.c **** 
 142:D:/Work/DeviceTester/amazon-freertos/lib/third_party/mcu_vendor/renesas/rz_mcu_boards/core_package/generate/sc_drivers/r_ether_gr_mango/src/phy\phy.c **** static int_t s_my_gpio_handle;
 143:D:/Work/DeviceTester/amazon-freertos/lib/third_party/mcu_vendor/renesas/rz_mcu_boards/core_package/generate/sc_drivers/r_ether_gr_mango/src/phy\phy.c **** static st_r_drv_gpio_pin_rw_t s_p60_hi =
 144:D:/Work/DeviceTester/amazon-freertos/lib/third_party/mcu_vendor/renesas/rz_mcu_boards/core_package/generate/sc_drivers/r_ether_gr_mango/src/phy\phy.c **** {
 145:D:/Work/DeviceTester/amazon-freertos/lib/third_party/mcu_vendor/renesas/rz_mcu_boards/core_package/generate/sc_drivers/r_ether_gr_mango/src/phy\phy.c ****     GPIO_PORT_6_PIN_0,
 146:D:/Work/DeviceTester/amazon-freertos/lib/third_party/mcu_vendor/renesas/rz_mcu_boards/core_package/generate/sc_drivers/r_ether_gr_mango/src/phy\phy.c ****     GPIO_LEVEL_HIGH,
 147:D:/Work/DeviceTester/amazon-freertos/lib/third_party/mcu_vendor/renesas/rz_mcu_boards/core_package/generate/sc_drivers/r_ether_gr_mango/src/phy\phy.c ****     GPIO_SUCCESS
 148:D:/Work/DeviceTester/amazon-freertos/lib/third_party/mcu_vendor/renesas/rz_mcu_boards/core_package/generate/sc_drivers/r_ether_gr_mango/src/phy\phy.c **** };
 149:D:/Work/DeviceTester/amazon-freertos/lib/third_party/mcu_vendor/renesas/rz_mcu_boards/core_package/generate/sc_drivers/r_ether_gr_mango/src/phy\phy.c **** static st_r_drv_gpio_pin_rw_t s_p60_lo =
 150:D:/Work/DeviceTester/amazon-freertos/lib/third_party/mcu_vendor/renesas/rz_mcu_boards/core_package/generate/sc_drivers/r_ether_gr_mango/src/phy\phy.c **** {
 151:D:/Work/DeviceTester/amazon-freertos/lib/third_party/mcu_vendor/renesas/rz_mcu_boards/core_package/generate/sc_drivers/r_ether_gr_mango/src/phy\phy.c ****     GPIO_PORT_6_PIN_0,
 152:D:/Work/DeviceTester/amazon-freertos/lib/third_party/mcu_vendor/renesas/rz_mcu_boards/core_package/generate/sc_drivers/r_ether_gr_mango/src/phy\phy.c ****     GPIO_LEVEL_LOW,
 153:D:/Work/DeviceTester/amazon-freertos/lib/third_party/mcu_vendor/renesas/rz_mcu_boards/core_package/generate/sc_drivers/r_ether_gr_mango/src/phy\phy.c ****     GPIO_SUCCESS
 154:D:/Work/DeviceTester/amazon-freertos/lib/third_party/mcu_vendor/renesas/rz_mcu_boards/core_package/generate/sc_drivers/r_ether_gr_mango/src/phy\phy.c **** };
 155:D:/Work/DeviceTester/amazon-freertos/lib/third_party/mcu_vendor/renesas/rz_mcu_boards/core_package/generate/sc_drivers/r_ether_gr_mango/src/phy\phy.c **** static const r_gpio_port_pin_t s_phyrst_pin_list[] =
 156:D:/Work/DeviceTester/amazon-freertos/lib/third_party/mcu_vendor/renesas/rz_mcu_boards/core_package/generate/sc_drivers/r_ether_gr_mango/src/phy\phy.c **** {
 157:D:/Work/DeviceTester/amazon-freertos/lib/third_party/mcu_vendor/renesas/rz_mcu_boards/core_package/generate/sc_drivers/r_ether_gr_mango/src/phy\phy.c ****     GPIO_PORT_6_PIN_0,
 158:D:/Work/DeviceTester/amazon-freertos/lib/third_party/mcu_vendor/renesas/rz_mcu_boards/core_package/generate/sc_drivers/r_ether_gr_mango/src/phy\phy.c **** };
 159:D:/Work/DeviceTester/amazon-freertos/lib/third_party/mcu_vendor/renesas/rz_mcu_boards/core_package/generate/sc_drivers/r_ether_gr_mango/src/phy\phy.c **** 
 160:D:/Work/DeviceTester/amazon-freertos/lib/third_party/mcu_vendor/renesas/rz_mcu_boards/core_package/generate/sc_drivers/r_ether_gr_mango/src/phy\phy.c **** /**
 161:D:/Work/DeviceTester/amazon-freertos/lib/third_party/mcu_vendor/renesas/rz_mcu_boards/core_package/generate/sc_drivers/r_ether_gr_mango/src/phy\phy.c ****  * Public functions
 162:D:/Work/DeviceTester/amazon-freertos/lib/third_party/mcu_vendor/renesas/rz_mcu_boards/core_package/generate/sc_drivers/r_ether_gr_mango/src/phy\phy.c ****  */
 163:D:/Work/DeviceTester/amazon-freertos/lib/third_party/mcu_vendor/renesas/rz_mcu_boards/core_package/generate/sc_drivers/r_ether_gr_mango/src/phy\phy.c **** 
 164:D:/Work/DeviceTester/amazon-freertos/lib/third_party/mcu_vendor/renesas/rz_mcu_boards/core_package/generate/sc_drivers/r_ether_gr_mango/src/phy\phy.c **** /**************************************************************************************************
 165:D:/Work/DeviceTester/amazon-freertos/lib/third_party/mcu_vendor/renesas/rz_mcu_boards/core_package/generate/sc_drivers/r_ether_gr_mango/src/phy\phy.c ****  * Function Name: phy_init
 166:D:/Work/DeviceTester/amazon-freertos/lib/third_party/mcu_vendor/renesas/rz_mcu_boards/core_package/generate/sc_drivers/r_ether_gr_mango/src/phy\phy.c ****  * Description  : Resets Ethernet PHY device
 167:D:/Work/DeviceTester/amazon-freertos/lib/third_party/mcu_vendor/renesas/rz_mcu_boards/core_package/generate/sc_drivers/r_ether_gr_mango/src/phy\phy.c ****  * Arguments    : ether_channel -
 168:D:/Work/DeviceTester/amazon-freertos/lib/third_party/mcu_vendor/renesas/rz_mcu_boards/core_package/generate/sc_drivers/r_ether_gr_mango/src/phy\phy.c ****  *                    Ethernet channel number
 169:D:/Work/DeviceTester/amazon-freertos/lib/third_party/mcu_vendor/renesas/rz_mcu_boards/core_package/generate/sc_drivers/r_ether_gr_mango/src/phy\phy.c ****  * Return Value : R_PHY_OK -
 170:D:/Work/DeviceTester/amazon-freertos/lib/third_party/mcu_vendor/renesas/rz_mcu_boards/core_package/generate/sc_drivers/r_ether_gr_mango/src/phy\phy.c ****  *
 171:D:/Work/DeviceTester/amazon-freertos/lib/third_party/mcu_vendor/renesas/rz_mcu_boards/core_package/generate/sc_drivers/r_ether_gr_mango/src/phy\phy.c ****  *                R_PHY_ERROR -
 172:D:/Work/DeviceTester/amazon-freertos/lib/third_party/mcu_vendor/renesas/rz_mcu_boards/core_package/generate/sc_drivers/r_ether_gr_mango/src/phy\phy.c ****  *
 173:D:/Work/DeviceTester/amazon-freertos/lib/third_party/mcu_vendor/renesas/rz_mcu_boards/core_package/generate/sc_drivers/r_ether_gr_mango/src/phy\phy.c ****  **************************************************************************************************
 174:D:/Work/DeviceTester/amazon-freertos/lib/third_party/mcu_vendor/renesas/rz_mcu_boards/core_package/generate/sc_drivers/r_ether_gr_mango/src/phy\phy.c **** int16_t phy_init (uint32_t ether_channel)
 175:D:/Work/DeviceTester/amazon-freertos/lib/third_party/mcu_vendor/renesas/rz_mcu_boards/core_package/generate/sc_drivers/r_ether_gr_mango/src/phy\phy.c **** {
 176:D:/Work/DeviceTester/amazon-freertos/lib/third_party/mcu_vendor/renesas/rz_mcu_boards/core_package/generate/sc_drivers/r_ether_gr_mango/src/phy\phy.c ****     uint16_t reg;
 177:D:/Work/DeviceTester/amazon-freertos/lib/third_party/mcu_vendor/renesas/rz_mcu_boards/core_package/generate/sc_drivers/r_ether_gr_mango/src/phy\phy.c ****     uint32_t count;
 178:D:/Work/DeviceTester/amazon-freertos/lib/third_party/mcu_vendor/renesas/rz_mcu_boards/core_package/generate/sc_drivers/r_ether_gr_mango/src/phy\phy.c **** 
 179:D:/Work/DeviceTester/amazon-freertos/lib/third_party/mcu_vendor/renesas/rz_mcu_boards/core_package/generate/sc_drivers/r_ether_gr_mango/src/phy\phy.c ****     count = 0;
 180:D:/Work/DeviceTester/amazon-freertos/lib/third_party/mcu_vendor/renesas/rz_mcu_boards/core_package/generate/sc_drivers/r_ether_gr_mango/src/phy\phy.c **** 
 181:D:/Work/DeviceTester/amazon-freertos/lib/third_party/mcu_vendor/renesas/rz_mcu_boards/core_package/generate/sc_drivers/r_ether_gr_mango/src/phy\phy.c **** #if (1)
 182:D:/Work/DeviceTester/amazon-freertos/lib/third_party/mcu_vendor/renesas/rz_mcu_boards/core_package/generate/sc_drivers/r_ether_gr_mango/src/phy\phy.c ****     /* Hardware Reset */
 183:D:/Work/DeviceTester/amazon-freertos/lib/third_party/mcu_vendor/renesas/rz_mcu_boards/core_package/generate/sc_drivers/r_ether_gr_mango/src/phy\phy.c ****     st_r_drv_gpio_pin_list_t pin_rst;
 184:D:/Work/DeviceTester/amazon-freertos/lib/third_party/mcu_vendor/renesas/rz_mcu_boards/core_package/generate/sc_drivers/r_ether_gr_mango/src/phy\phy.c **** 
 185:D:/Work/DeviceTester/amazon-freertos/lib/third_party/mcu_vendor/renesas/rz_mcu_boards/core_package/generate/sc_drivers/r_ether_gr_mango/src/phy\phy.c ****     s_my_gpio_handle = open(DEVICE_INDENTIFIER "gpio", O_RDWR);
 186:D:/Work/DeviceTester/amazon-freertos/lib/third_party/mcu_vendor/renesas/rz_mcu_boards/core_package/generate/sc_drivers/r_ether_gr_mango/src/phy\phy.c ****     pin_rst.p_pin_list = s_phyrst_pin_list;
 187:D:/Work/DeviceTester/amazon-freertos/lib/third_party/mcu_vendor/renesas/rz_mcu_boards/core_package/generate/sc_drivers/r_ether_gr_mango/src/phy\phy.c ****     pin_rst.count = (sizeof(s_phyrst_pin_list)) / (sizeof(s_phyrst_pin_list[0]));
 188:D:/Work/DeviceTester/amazon-freertos/lib/third_party/mcu_vendor/renesas/rz_mcu_boards/core_package/generate/sc_drivers/r_ether_gr_mango/src/phy\phy.c ****     direct_control(s_my_gpio_handle, CTL_GPIO_INIT_BY_PIN_LIST, &pin_rst);
 189:D:/Work/DeviceTester/amazon-freertos/lib/third_party/mcu_vendor/renesas/rz_mcu_boards/core_package/generate/sc_drivers/r_ether_gr_mango/src/phy\phy.c ****     direct_control(s_my_gpio_handle, CTL_GPIO_PIN_WRITE, &s_p60_lo);
 190:D:/Work/DeviceTester/amazon-freertos/lib/third_party/mcu_vendor/renesas/rz_mcu_boards/core_package/generate/sc_drivers/r_ether_gr_mango/src/phy\phy.c ****     
 191:D:/Work/DeviceTester/amazon-freertos/lib/third_party/mcu_vendor/renesas/rz_mcu_boards/core_package/generate/sc_drivers/r_ether_gr_mango/src/phy\phy.c ****     R_OS_TaskSleep(10);
 192:D:/Work/DeviceTester/amazon-freertos/lib/third_party/mcu_vendor/renesas/rz_mcu_boards/core_package/generate/sc_drivers/r_ether_gr_mango/src/phy\phy.c ****     direct_control(s_my_gpio_handle, CTL_GPIO_PIN_WRITE, &s_p60_hi);
 193:D:/Work/DeviceTester/amazon-freertos/lib/third_party/mcu_vendor/renesas/rz_mcu_boards/core_package/generate/sc_drivers/r_ether_gr_mango/src/phy\phy.c ****     
 194:D:/Work/DeviceTester/amazon-freertos/lib/third_party/mcu_vendor/renesas/rz_mcu_boards/core_package/generate/sc_drivers/r_ether_gr_mango/src/phy\phy.c ****     phy_opened = 1;
 195:D:/Work/DeviceTester/amazon-freertos/lib/third_party/mcu_vendor/renesas/rz_mcu_boards/core_package/generate/sc_drivers/r_ether_gr_mango/src/phy\phy.c **** 
 196:D:/Work/DeviceTester/amazon-freertos/lib/third_party/mcu_vendor/renesas/rz_mcu_boards/core_package/generate/sc_drivers/r_ether_gr_mango/src/phy\phy.c ****     /* Reset PHY */
 197:D:/Work/DeviceTester/amazon-freertos/lib/third_party/mcu_vendor/renesas/rz_mcu_boards/core_package/generate/sc_drivers/r_ether_gr_mango/src/phy\phy.c ****     phy_write(ether_channel, PHY_REG_CONTROL, PHY_CONTROL_RESET);
 198:D:/Work/DeviceTester/amazon-freertos/lib/third_party/mcu_vendor/renesas/rz_mcu_boards/core_package/generate/sc_drivers/r_ether_gr_mango/src/phy\phy.c **** 
 199:D:/Work/DeviceTester/amazon-freertos/lib/third_party/mcu_vendor/renesas/rz_mcu_boards/core_package/generate/sc_drivers/r_ether_gr_mango/src/phy\phy.c ****     /* Reset completion waiting */
 200:D:/Work/DeviceTester/amazon-freertos/lib/third_party/mcu_vendor/renesas/rz_mcu_boards/core_package/generate/sc_drivers/r_ether_gr_mango/src/phy\phy.c ****     do
 201:D:/Work/DeviceTester/amazon-freertos/lib/third_party/mcu_vendor/renesas/rz_mcu_boards/core_package/generate/sc_drivers/r_ether_gr_mango/src/phy\phy.c ****     {
 202:D:/Work/DeviceTester/amazon-freertos/lib/third_party/mcu_vendor/renesas/rz_mcu_boards/core_package/generate/sc_drivers/r_ether_gr_mango/src/phy\phy.c ****         reg = phy_read(ether_channel, PHY_REG_CONTROL);
 203:D:/Work/DeviceTester/amazon-freertos/lib/third_party/mcu_vendor/renesas/rz_mcu_boards/core_package/generate/sc_drivers/r_ether_gr_mango/src/phy\phy.c ****         count++;
 204:D:/Work/DeviceTester/amazon-freertos/lib/third_party/mcu_vendor/renesas/rz_mcu_boards/core_package/generate/sc_drivers/r_ether_gr_mango/src/phy\phy.c ****     } while ((reg & PHY_CONTROL_RESET) && (count < g_ether_sc_table[0].config.ether_phy_delay_reset
 205:D:/Work/DeviceTester/amazon-freertos/lib/third_party/mcu_vendor/renesas/rz_mcu_boards/core_package/generate/sc_drivers/r_ether_gr_mango/src/phy\phy.c **** 
 206:D:/Work/DeviceTester/amazon-freertos/lib/third_party/mcu_vendor/renesas/rz_mcu_boards/core_package/generate/sc_drivers/r_ether_gr_mango/src/phy\phy.c **** #else
 207:D:/Work/DeviceTester/amazon-freertos/lib/third_party/mcu_vendor/renesas/rz_mcu_boards/core_package/generate/sc_drivers/r_ether_gr_mango/src/phy\phy.c ****     if (phy_opened == 1)
 208:D:/Work/DeviceTester/amazon-freertos/lib/third_party/mcu_vendor/renesas/rz_mcu_boards/core_package/generate/sc_drivers/r_ether_gr_mango/src/phy\phy.c ****     {
 209:D:/Work/DeviceTester/amazon-freertos/lib/third_party/mcu_vendor/renesas/rz_mcu_boards/core_package/generate/sc_drivers/r_ether_gr_mango/src/phy\phy.c ****         /* Reset PHY */
 210:D:/Work/DeviceTester/amazon-freertos/lib/third_party/mcu_vendor/renesas/rz_mcu_boards/core_package/generate/sc_drivers/r_ether_gr_mango/src/phy\phy.c ****         phy_write(ether_channel, PHY_REG_CONTROL, PHY_CONTROL_RESET);
 211:D:/Work/DeviceTester/amazon-freertos/lib/third_party/mcu_vendor/renesas/rz_mcu_boards/core_package/generate/sc_drivers/r_ether_gr_mango/src/phy\phy.c **** 
 212:D:/Work/DeviceTester/amazon-freertos/lib/third_party/mcu_vendor/renesas/rz_mcu_boards/core_package/generate/sc_drivers/r_ether_gr_mango/src/phy\phy.c ****         /* Reset completion waiting */
 213:D:/Work/DeviceTester/amazon-freertos/lib/third_party/mcu_vendor/renesas/rz_mcu_boards/core_package/generate/sc_drivers/r_ether_gr_mango/src/phy\phy.c ****         do
 214:D:/Work/DeviceTester/amazon-freertos/lib/third_party/mcu_vendor/renesas/rz_mcu_boards/core_package/generate/sc_drivers/r_ether_gr_mango/src/phy\phy.c ****         {
 215:D:/Work/DeviceTester/amazon-freertos/lib/third_party/mcu_vendor/renesas/rz_mcu_boards/core_package/generate/sc_drivers/r_ether_gr_mango/src/phy\phy.c ****             reg = phy_read(ether_channel, PHY_REG_CONTROL);
 216:D:/Work/DeviceTester/amazon-freertos/lib/third_party/mcu_vendor/renesas/rz_mcu_boards/core_package/generate/sc_drivers/r_ether_gr_mango/src/phy\phy.c ****             count++;
 217:D:/Work/DeviceTester/amazon-freertos/lib/third_party/mcu_vendor/renesas/rz_mcu_boards/core_package/generate/sc_drivers/r_ether_gr_mango/src/phy\phy.c ****         } while ((reg & PHY_CONTROL_RESET) && (count < g_ether_sc_table[0].config.ether_phy_delay_r
 218:D:/Work/DeviceTester/amazon-freertos/lib/third_party/mcu_vendor/renesas/rz_mcu_boards/core_package/generate/sc_drivers/r_ether_gr_mango/src/phy\phy.c ****     }
 219:D:/Work/DeviceTester/amazon-freertos/lib/third_party/mcu_vendor/renesas/rz_mcu_boards/core_package/generate/sc_drivers/r_ether_gr_mango/src/phy\phy.c ****     else
 220:D:/Work/DeviceTester/amazon-freertos/lib/third_party/mcu_vendor/renesas/rz_mcu_boards/core_package/generate/sc_drivers/r_ether_gr_mango/src/phy\phy.c ****     {
 221:D:/Work/DeviceTester/amazon-freertos/lib/third_party/mcu_vendor/renesas/rz_mcu_boards/core_package/generate/sc_drivers/r_ether_gr_mango/src/phy\phy.c ****         /* Hardware Reset */
 222:D:/Work/DeviceTester/amazon-freertos/lib/third_party/mcu_vendor/renesas/rz_mcu_boards/core_package/generate/sc_drivers/r_ether_gr_mango/src/phy\phy.c ****         st_r_drv_gpio_pin_list_t pin_rst;
 223:D:/Work/DeviceTester/amazon-freertos/lib/third_party/mcu_vendor/renesas/rz_mcu_boards/core_package/generate/sc_drivers/r_ether_gr_mango/src/phy\phy.c **** 
 224:D:/Work/DeviceTester/amazon-freertos/lib/third_party/mcu_vendor/renesas/rz_mcu_boards/core_package/generate/sc_drivers/r_ether_gr_mango/src/phy\phy.c ****         s_my_gpio_handle = open(DEVICE_INDENTIFIER "gpio", O_RDWR);
 225:D:/Work/DeviceTester/amazon-freertos/lib/third_party/mcu_vendor/renesas/rz_mcu_boards/core_package/generate/sc_drivers/r_ether_gr_mango/src/phy\phy.c ****         pin_rst.p_pin_list = s_phyrst_pin_list;
 226:D:/Work/DeviceTester/amazon-freertos/lib/third_party/mcu_vendor/renesas/rz_mcu_boards/core_package/generate/sc_drivers/r_ether_gr_mango/src/phy\phy.c ****         pin_rst.count = (sizeof(s_phyrst_pin_list)) / (sizeof(s_phyrst_pin_list[0]));
 227:D:/Work/DeviceTester/amazon-freertos/lib/third_party/mcu_vendor/renesas/rz_mcu_boards/core_package/generate/sc_drivers/r_ether_gr_mango/src/phy\phy.c ****         direct_control(s_my_gpio_handle, CTL_GPIO_INIT_BY_PIN_LIST, &pin_rst);
 228:D:/Work/DeviceTester/amazon-freertos/lib/third_party/mcu_vendor/renesas/rz_mcu_boards/core_package/generate/sc_drivers/r_ether_gr_mango/src/phy\phy.c ****         direct_control(s_my_gpio_handle, CTL_GPIO_PIN_WRITE, &s_p60_lo);
 229:D:/Work/DeviceTester/amazon-freertos/lib/third_party/mcu_vendor/renesas/rz_mcu_boards/core_package/generate/sc_drivers/r_ether_gr_mango/src/phy\phy.c ****         
 230:D:/Work/DeviceTester/amazon-freertos/lib/third_party/mcu_vendor/renesas/rz_mcu_boards/core_package/generate/sc_drivers/r_ether_gr_mango/src/phy\phy.c ****         R_OS_TaskSleep(10);
 231:D:/Work/DeviceTester/amazon-freertos/lib/third_party/mcu_vendor/renesas/rz_mcu_boards/core_package/generate/sc_drivers/r_ether_gr_mango/src/phy\phy.c ****         direct_control(s_my_gpio_handle, CTL_GPIO_PIN_WRITE, &s_p60_hi);
 232:D:/Work/DeviceTester/amazon-freertos/lib/third_party/mcu_vendor/renesas/rz_mcu_boards/core_package/generate/sc_drivers/r_ether_gr_mango/src/phy\phy.c ****         
 233:D:/Work/DeviceTester/amazon-freertos/lib/third_party/mcu_vendor/renesas/rz_mcu_boards/core_package/generate/sc_drivers/r_ether_gr_mango/src/phy\phy.c ****         phy_opened = 1;
 234:D:/Work/DeviceTester/amazon-freertos/lib/third_party/mcu_vendor/renesas/rz_mcu_boards/core_package/generate/sc_drivers/r_ether_gr_mango/src/phy\phy.c ****     }
 235:D:/Work/DeviceTester/amazon-freertos/lib/third_party/mcu_vendor/renesas/rz_mcu_boards/core_package/generate/sc_drivers/r_ether_gr_mango/src/phy\phy.c **** #endif
 236:D:/Work/DeviceTester/amazon-freertos/lib/third_party/mcu_vendor/renesas/rz_mcu_boards/core_package/generate/sc_drivers/r_ether_gr_mango/src/phy\phy.c ****     if (count < g_ether_sc_table[0].config.ether_phy_delay_reset)
 237:D:/Work/DeviceTester/amazon-freertos/lib/third_party/mcu_vendor/renesas/rz_mcu_boards/core_package/generate/sc_drivers/r_ether_gr_mango/src/phy\phy.c ****     {
 238:D:/Work/DeviceTester/amazon-freertos/lib/third_party/mcu_vendor/renesas/rz_mcu_boards/core_package/generate/sc_drivers/r_ether_gr_mango/src/phy\phy.c ****         /* PHY wait before access after reset(depends on PHY specification) */
 239:D:/Work/DeviceTester/amazon-freertos/lib/third_party/mcu_vendor/renesas/rz_mcu_boards/core_package/generate/sc_drivers/r_ether_gr_mango/src/phy\phy.c ****         R_OS_TaskSleep(ETHER_CFG_PHY_WAIT);
 240:D:/Work/DeviceTester/amazon-freertos/lib/third_party/mcu_vendor/renesas/rz_mcu_boards/core_package/generate/sc_drivers/r_ether_gr_mango/src/phy\phy.c **** 
 241:D:/Work/DeviceTester/amazon-freertos/lib/third_party/mcu_vendor/renesas/rz_mcu_boards/core_package/generate/sc_drivers/r_ether_gr_mango/src/phy\phy.c ****         /*
 242:D:/Work/DeviceTester/amazon-freertos/lib/third_party/mcu_vendor/renesas/rz_mcu_boards/core_package/generate/sc_drivers/r_ether_gr_mango/src/phy\phy.c ****          * When KSZ8041NL of the Micrel, Inc. is used,
 243:D:/Work/DeviceTester/amazon-freertos/lib/third_party/mcu_vendor/renesas/rz_mcu_boards/core_package/generate/sc_drivers/r_ether_gr_mango/src/phy\phy.c ****          * the pin that outputs the state of LINK is used combinedly with ACTIVITY in default.
 244:D:/Work/DeviceTester/amazon-freertos/lib/third_party/mcu_vendor/renesas/rz_mcu_boards/core_package/generate/sc_drivers/r_ether_gr_mango/src/phy\phy.c ****          * The setting of the pin is changed so that only the state of LINK is output.
 245:D:/Work/DeviceTester/amazon-freertos/lib/third_party/mcu_vendor/renesas/rz_mcu_boards/core_package/generate/sc_drivers/r_ether_gr_mango/src/phy\phy.c ****          */
 246:D:/Work/DeviceTester/amazon-freertos/lib/third_party/mcu_vendor/renesas/rz_mcu_boards/core_package/generate/sc_drivers/r_ether_gr_mango/src/phy\phy.c **** #if ETHER_CFG_USE_PHY_KSZ8041NL != 0
 247:D:/Work/DeviceTester/amazon-freertos/lib/third_party/mcu_vendor/renesas/rz_mcu_boards/core_package/generate/sc_drivers/r_ether_gr_mango/src/phy\phy.c ****         reg = phy_read(ether_channel, PHY_REG_PHY_CONTROL_1);
 248:D:/Work/DeviceTester/amazon-freertos/lib/third_party/mcu_vendor/renesas/rz_mcu_boards/core_package/generate/sc_drivers/r_ether_gr_mango/src/phy\phy.c ****         reg &= ~0x8000;
 249:D:/Work/DeviceTester/amazon-freertos/lib/third_party/mcu_vendor/renesas/rz_mcu_boards/core_package/generate/sc_drivers/r_ether_gr_mango/src/phy\phy.c ****         reg |= 0x4000;
 250:D:/Work/DeviceTester/amazon-freertos/lib/third_party/mcu_vendor/renesas/rz_mcu_boards/core_package/generate/sc_drivers/r_ether_gr_mango/src/phy\phy.c ****         phy_write(ether_channel, PHY_REG_PHY_CONTROL_1, reg);
 251:D:/Work/DeviceTester/amazon-freertos/lib/third_party/mcu_vendor/renesas/rz_mcu_boards/core_package/generate/sc_drivers/r_ether_gr_mango/src/phy\phy.c **** #endif /* ETHER_CFG_USE_PHY_KSZ8041NL != 0 */
 252:D:/Work/DeviceTester/amazon-freertos/lib/third_party/mcu_vendor/renesas/rz_mcu_boards/core_package/generate/sc_drivers/r_ether_gr_mango/src/phy\phy.c **** 
 253:D:/Work/DeviceTester/amazon-freertos/lib/third_party/mcu_vendor/renesas/rz_mcu_boards/core_package/generate/sc_drivers/r_ether_gr_mango/src/phy\phy.c ****         return R_PHY_OK;
 254:D:/Work/DeviceTester/amazon-freertos/lib/third_party/mcu_vendor/renesas/rz_mcu_boards/core_package/generate/sc_drivers/r_ether_gr_mango/src/phy\phy.c ****     }
 255:D:/Work/DeviceTester/amazon-freertos/lib/third_party/mcu_vendor/renesas/rz_mcu_boards/core_package/generate/sc_drivers/r_ether_gr_mango/src/phy\phy.c **** 
 256:D:/Work/DeviceTester/amazon-freertos/lib/third_party/mcu_vendor/renesas/rz_mcu_boards/core_package/generate/sc_drivers/r_ether_gr_mango/src/phy\phy.c ****     return R_PHY_ERROR;
 257:D:/Work/DeviceTester/amazon-freertos/lib/third_party/mcu_vendor/renesas/rz_mcu_boards/core_package/generate/sc_drivers/r_ether_gr_mango/src/phy\phy.c **** } /* End of function phy_init() */
 258:D:/Work/DeviceTester/amazon-freertos/lib/third_party/mcu_vendor/renesas/rz_mcu_boards/core_package/generate/sc_drivers/r_ether_gr_mango/src/phy\phy.c **** 
 259:D:/Work/DeviceTester/amazon-freertos/lib/third_party/mcu_vendor/renesas/rz_mcu_boards/core_package/generate/sc_drivers/r_ether_gr_mango/src/phy\phy.c **** /**************************************************************************************************
 260:D:/Work/DeviceTester/amazon-freertos/lib/third_party/mcu_vendor/renesas/rz_mcu_boards/core_package/generate/sc_drivers/r_ether_gr_mango/src/phy\phy.c ****  * Function Name: phy_start_autonegotiate
 261:D:/Work/DeviceTester/amazon-freertos/lib/third_party/mcu_vendor/renesas/rz_mcu_boards/core_package/generate/sc_drivers/r_ether_gr_mango/src/phy\phy.c ****  * Description  : Starts auto-negotiate
 262:D:/Work/DeviceTester/amazon-freertos/lib/third_party/mcu_vendor/renesas/rz_mcu_boards/core_package/generate/sc_drivers/r_ether_gr_mango/src/phy\phy.c ****  * Arguments    : ether_channel -
 263:D:/Work/DeviceTester/amazon-freertos/lib/third_party/mcu_vendor/renesas/rz_mcu_boards/core_package/generate/sc_drivers/r_ether_gr_mango/src/phy\phy.c ****  *                    Ethernet channel number
 264:D:/Work/DeviceTester/amazon-freertos/lib/third_party/mcu_vendor/renesas/rz_mcu_boards/core_package/generate/sc_drivers/r_ether_gr_mango/src/phy\phy.c ****  *                pause -
 265:D:/Work/DeviceTester/amazon-freertos/lib/third_party/mcu_vendor/renesas/rz_mcu_boards/core_package/generate/sc_drivers/r_ether_gr_mango/src/phy\phy.c ****  *                    Using state of pause frames
 266:D:/Work/DeviceTester/amazon-freertos/lib/third_party/mcu_vendor/renesas/rz_mcu_boards/core_package/generate/sc_drivers/r_ether_gr_mango/src/phy\phy.c ****  * Return Value : none
 267:D:/Work/DeviceTester/amazon-freertos/lib/third_party/mcu_vendor/renesas/rz_mcu_boards/core_package/generate/sc_drivers/r_ether_gr_mango/src/phy\phy.c ****  **************************************************************************************************
 268:D:/Work/DeviceTester/amazon-freertos/lib/third_party/mcu_vendor/renesas/rz_mcu_boards/core_package/generate/sc_drivers/r_ether_gr_mango/src/phy\phy.c **** void phy_start_autonegotiate (uint32_t ether_channel, uint8_t pause)
 269:D:/Work/DeviceTester/amazon-freertos/lib/third_party/mcu_vendor/renesas/rz_mcu_boards/core_package/generate/sc_drivers/r_ether_gr_mango/src/phy\phy.c **** {
 270:D:/Work/DeviceTester/amazon-freertos/lib/third_party/mcu_vendor/renesas/rz_mcu_boards/core_package/generate/sc_drivers/r_ether_gr_mango/src/phy\phy.c ****     volatile uint16_t reg = 0;
 271:D:/Work/DeviceTester/amazon-freertos/lib/third_party/mcu_vendor/renesas/rz_mcu_boards/core_package/generate/sc_drivers/r_ether_gr_mango/src/phy\phy.c ****     uint32_t ether_channel_index = phy_get_ctrl_tbl_idx(ether_channel);
 272:D:/Work/DeviceTester/amazon-freertos/lib/third_party/mcu_vendor/renesas/rz_mcu_boards/core_package/generate/sc_drivers/r_ether_gr_mango/src/phy\phy.c **** 
 273:D:/Work/DeviceTester/amazon-freertos/lib/third_party/mcu_vendor/renesas/rz_mcu_boards/core_package/generate/sc_drivers/r_ether_gr_mango/src/phy\phy.c ****     /* Set local ability */
 274:D:/Work/DeviceTester/amazon-freertos/lib/third_party/mcu_vendor/renesas/rz_mcu_boards/core_package/generate/sc_drivers/r_ether_gr_mango/src/phy\phy.c ****     /* When pause frame is not used */
 275:D:/Work/DeviceTester/amazon-freertos/lib/third_party/mcu_vendor/renesas/rz_mcu_boards/core_package/generate/sc_drivers/r_ether_gr_mango/src/phy\phy.c ****     if (ETHER_FLAG_OFF == pause)
 276:D:/Work/DeviceTester/amazon-freertos/lib/third_party/mcu_vendor/renesas/rz_mcu_boards/core_package/generate/sc_drivers/r_ether_gr_mango/src/phy\phy.c ****     {
 277:D:/Work/DeviceTester/amazon-freertos/lib/third_party/mcu_vendor/renesas/rz_mcu_boards/core_package/generate/sc_drivers/r_ether_gr_mango/src/phy\phy.c ****         local_advertise[ether_channel_index] = ((((PHY_AN_ADVERTISEMENT_100F |
 278:D:/Work/DeviceTester/amazon-freertos/lib/third_party/mcu_vendor/renesas/rz_mcu_boards/core_package/generate/sc_drivers/r_ether_gr_mango/src/phy\phy.c ****         PHY_AN_ADVERTISEMENT_100H) |
 279:D:/Work/DeviceTester/amazon-freertos/lib/third_party/mcu_vendor/renesas/rz_mcu_boards/core_package/generate/sc_drivers/r_ether_gr_mango/src/phy\phy.c ****         PHY_AN_ADVERTISEMENT_10F) |
 280:D:/Work/DeviceTester/amazon-freertos/lib/third_party/mcu_vendor/renesas/rz_mcu_boards/core_package/generate/sc_drivers/r_ether_gr_mango/src/phy\phy.c ****         PHY_AN_ADVERTISEMENT_10H) |
 281:D:/Work/DeviceTester/amazon-freertos/lib/third_party/mcu_vendor/renesas/rz_mcu_boards/core_package/generate/sc_drivers/r_ether_gr_mango/src/phy\phy.c ****         PHY_AN_ADVERTISEMENT_SELECTOR);
 282:D:/Work/DeviceTester/amazon-freertos/lib/third_party/mcu_vendor/renesas/rz_mcu_boards/core_package/generate/sc_drivers/r_ether_gr_mango/src/phy\phy.c **** 
 283:D:/Work/DeviceTester/amazon-freertos/lib/third_party/mcu_vendor/renesas/rz_mcu_boards/core_package/generate/sc_drivers/r_ether_gr_mango/src/phy\phy.c ****     }
 284:D:/Work/DeviceTester/amazon-freertos/lib/third_party/mcu_vendor/renesas/rz_mcu_boards/core_package/generate/sc_drivers/r_ether_gr_mango/src/phy\phy.c **** 
 285:D:/Work/DeviceTester/amazon-freertos/lib/third_party/mcu_vendor/renesas/rz_mcu_boards/core_package/generate/sc_drivers/r_ether_gr_mango/src/phy\phy.c ****     /* When pause frame is used */
 286:D:/Work/DeviceTester/amazon-freertos/lib/third_party/mcu_vendor/renesas/rz_mcu_boards/core_package/generate/sc_drivers/r_ether_gr_mango/src/phy\phy.c ****     else
 287:D:/Work/DeviceTester/amazon-freertos/lib/third_party/mcu_vendor/renesas/rz_mcu_boards/core_package/generate/sc_drivers/r_ether_gr_mango/src/phy\phy.c ****     {
 288:D:/Work/DeviceTester/amazon-freertos/lib/third_party/mcu_vendor/renesas/rz_mcu_boards/core_package/generate/sc_drivers/r_ether_gr_mango/src/phy\phy.c ****         local_advertise[ether_channel_index] = ((((((PHY_AN_ADVERTISEMENT_ASM_DIR |
 289:D:/Work/DeviceTester/amazon-freertos/lib/third_party/mcu_vendor/renesas/rz_mcu_boards/core_package/generate/sc_drivers/r_ether_gr_mango/src/phy\phy.c ****         PHY_AN_ADVERTISEMENT_PAUSE) |
 290:D:/Work/DeviceTester/amazon-freertos/lib/third_party/mcu_vendor/renesas/rz_mcu_boards/core_package/generate/sc_drivers/r_ether_gr_mango/src/phy\phy.c ****         PHY_AN_ADVERTISEMENT_100F) |
 291:D:/Work/DeviceTester/amazon-freertos/lib/third_party/mcu_vendor/renesas/rz_mcu_boards/core_package/generate/sc_drivers/r_ether_gr_mango/src/phy\phy.c ****         PHY_AN_ADVERTISEMENT_100H) |
 292:D:/Work/DeviceTester/amazon-freertos/lib/third_party/mcu_vendor/renesas/rz_mcu_boards/core_package/generate/sc_drivers/r_ether_gr_mango/src/phy\phy.c ****         PHY_AN_ADVERTISEMENT_10F) |
 293:D:/Work/DeviceTester/amazon-freertos/lib/third_party/mcu_vendor/renesas/rz_mcu_boards/core_package/generate/sc_drivers/r_ether_gr_mango/src/phy\phy.c ****         PHY_AN_ADVERTISEMENT_10H) |
 294:D:/Work/DeviceTester/amazon-freertos/lib/third_party/mcu_vendor/renesas/rz_mcu_boards/core_package/generate/sc_drivers/r_ether_gr_mango/src/phy\phy.c ****         PHY_AN_ADVERTISEMENT_SELECTOR);
 295:D:/Work/DeviceTester/amazon-freertos/lib/third_party/mcu_vendor/renesas/rz_mcu_boards/core_package/generate/sc_drivers/r_ether_gr_mango/src/phy\phy.c ****     }
 296:D:/Work/DeviceTester/amazon-freertos/lib/third_party/mcu_vendor/renesas/rz_mcu_boards/core_package/generate/sc_drivers/r_ether_gr_mango/src/phy\phy.c **** 
 297:D:/Work/DeviceTester/amazon-freertos/lib/third_party/mcu_vendor/renesas/rz_mcu_boards/core_package/generate/sc_drivers/r_ether_gr_mango/src/phy\phy.c ****     /* Configure what the PHY and the Ethernet controller on this board supports */
 298:D:/Work/DeviceTester/amazon-freertos/lib/third_party/mcu_vendor/renesas/rz_mcu_boards/core_package/generate/sc_drivers/r_ether_gr_mango/src/phy\phy.c ****     phy_write(ether_channel, PHY_REG_AN_ADVERTISEMENT, local_advertise[ether_channel_index]);
 299:D:/Work/DeviceTester/amazon-freertos/lib/third_party/mcu_vendor/renesas/rz_mcu_boards/core_package/generate/sc_drivers/r_ether_gr_mango/src/phy\phy.c ****     phy_write(ether_channel, PHY_REG_CONTROL, (PHY_CONTROL_AN_ENABLE |
 300:D:/Work/DeviceTester/amazon-freertos/lib/third_party/mcu_vendor/renesas/rz_mcu_boards/core_package/generate/sc_drivers/r_ether_gr_mango/src/phy\phy.c ****     PHY_CONTROL_AN_RESTART));
 301:D:/Work/DeviceTester/amazon-freertos/lib/third_party/mcu_vendor/renesas/rz_mcu_boards/core_package/generate/sc_drivers/r_ether_gr_mango/src/phy\phy.c **** 
 302:D:/Work/DeviceTester/amazon-freertos/lib/third_party/mcu_vendor/renesas/rz_mcu_boards/core_package/generate/sc_drivers/r_ether_gr_mango/src/phy\phy.c ****     reg = phy_read(ether_channel, PHY_REG_AN_ADVERTISEMENT);
 303:D:/Work/DeviceTester/amazon-freertos/lib/third_party/mcu_vendor/renesas/rz_mcu_boards/core_package/generate/sc_drivers/r_ether_gr_mango/src/phy\phy.c **** 
 304:D:/Work/DeviceTester/amazon-freertos/lib/third_party/mcu_vendor/renesas/rz_mcu_boards/core_package/generate/sc_drivers/r_ether_gr_mango/src/phy\phy.c ****     /* dummy read */
 305:D:/Work/DeviceTester/amazon-freertos/lib/third_party/mcu_vendor/renesas/rz_mcu_boards/core_package/generate/sc_drivers/r_ether_gr_mango/src/phy\phy.c ****     (void)reg;
 306:D:/Work/DeviceTester/amazon-freertos/lib/third_party/mcu_vendor/renesas/rz_mcu_boards/core_package/generate/sc_drivers/r_ether_gr_mango/src/phy\phy.c **** 
 307:D:/Work/DeviceTester/amazon-freertos/lib/third_party/mcu_vendor/renesas/rz_mcu_boards/core_package/generate/sc_drivers/r_ether_gr_mango/src/phy\phy.c **** } /* End of function phy_start_autonegotiate() */
 308:D:/Work/DeviceTester/amazon-freertos/lib/third_party/mcu_vendor/renesas/rz_mcu_boards/core_package/generate/sc_drivers/r_ether_gr_mango/src/phy\phy.c **** 
 309:D:/Work/DeviceTester/amazon-freertos/lib/third_party/mcu_vendor/renesas/rz_mcu_boards/core_package/generate/sc_drivers/r_ether_gr_mango/src/phy\phy.c **** /**************************************************************************************************
 310:D:/Work/DeviceTester/amazon-freertos/lib/third_party/mcu_vendor/renesas/rz_mcu_boards/core_package/generate/sc_drivers/r_ether_gr_mango/src/phy\phy.c ****  * Function Name: phy_set_autonegotiate
 311:D:/Work/DeviceTester/amazon-freertos/lib/third_party/mcu_vendor/renesas/rz_mcu_boards/core_package/generate/sc_drivers/r_ether_gr_mango/src/phy\phy.c ****  * Description  : reports the other side's physical capability
 312:D:/Work/DeviceTester/amazon-freertos/lib/third_party/mcu_vendor/renesas/rz_mcu_boards/core_package/generate/sc_drivers/r_ether_gr_mango/src/phy\phy.c ****  * Arguments    : ether_channel -
 313:D:/Work/DeviceTester/amazon-freertos/lib/third_party/mcu_vendor/renesas/rz_mcu_boards/core_package/generate/sc_drivers/r_ether_gr_mango/src/phy\phy.c ****  *                    Ethernet channel number
 314:D:/Work/DeviceTester/amazon-freertos/lib/third_party/mcu_vendor/renesas/rz_mcu_boards/core_package/generate/sc_drivers/r_ether_gr_mango/src/phy\phy.c ****  *              : *pline_speed_duplex -
 315:D:/Work/DeviceTester/amazon-freertos/lib/third_party/mcu_vendor/renesas/rz_mcu_boards/core_package/generate/sc_drivers/r_ether_gr_mango/src/phy\phy.c ****  *                    a pointer to the location of both the line speed and the duplex
 316:D:/Work/DeviceTester/amazon-freertos/lib/third_party/mcu_vendor/renesas/rz_mcu_boards/core_package/generate/sc_drivers/r_ether_gr_mango/src/phy\phy.c ****  *                *plocal_pause -
 317:D:/Work/DeviceTester/amazon-freertos/lib/third_party/mcu_vendor/renesas/rz_mcu_boards/core_package/generate/sc_drivers/r_ether_gr_mango/src/phy\phy.c ****  *                    a pointer to the location to store the local pause bits.
 318:D:/Work/DeviceTester/amazon-freertos/lib/third_party/mcu_vendor/renesas/rz_mcu_boards/core_package/generate/sc_drivers/r_ether_gr_mango/src/phy\phy.c ****  *                *ppartner_pause -
 319:D:/Work/DeviceTester/amazon-freertos/lib/third_party/mcu_vendor/renesas/rz_mcu_boards/core_package/generate/sc_drivers/r_ether_gr_mango/src/phy\phy.c ****  *                    a pointer to the location to store the partner pause bits.
 320:D:/Work/DeviceTester/amazon-freertos/lib/third_party/mcu_vendor/renesas/rz_mcu_boards/core_package/generate/sc_drivers/r_ether_gr_mango/src/phy\phy.c ****  * Return Value : R_PHY_OK -
 321:D:/Work/DeviceTester/amazon-freertos/lib/third_party/mcu_vendor/renesas/rz_mcu_boards/core_package/generate/sc_drivers/r_ether_gr_mango/src/phy\phy.c ****  *
 322:D:/Work/DeviceTester/amazon-freertos/lib/third_party/mcu_vendor/renesas/rz_mcu_boards/core_package/generate/sc_drivers/r_ether_gr_mango/src/phy\phy.c ****  *                R_PHY_ERROR -
 323:D:/Work/DeviceTester/amazon-freertos/lib/third_party/mcu_vendor/renesas/rz_mcu_boards/core_package/generate/sc_drivers/r_ether_gr_mango/src/phy\phy.c ****  *
 324:D:/Work/DeviceTester/amazon-freertos/lib/third_party/mcu_vendor/renesas/rz_mcu_boards/core_package/generate/sc_drivers/r_ether_gr_mango/src/phy\phy.c ****  * Note         : The value returned to local_pause and patner_pause is used
 325:D:/Work/DeviceTester/amazon-freertos/lib/third_party/mcu_vendor/renesas/rz_mcu_boards/core_package/generate/sc_drivers/r_ether_gr_mango/src/phy\phy.c ****  *                as it is as an argument of ether_pause_resolution function.
 326:D:/Work/DeviceTester/amazon-freertos/lib/third_party/mcu_vendor/renesas/rz_mcu_boards/core_package/generate/sc_drivers/r_ether_gr_mango/src/phy\phy.c ****  **************************************************************************************************
 327:D:/Work/DeviceTester/amazon-freertos/lib/third_party/mcu_vendor/renesas/rz_mcu_boards/core_package/generate/sc_drivers/r_ether_gr_mango/src/phy\phy.c **** int16_t phy_set_autonegotiate (uint32_t ether_channel, uint16_t *pline_speed_duplex, uint16_t *ploc
 328:D:/Work/DeviceTester/amazon-freertos/lib/third_party/mcu_vendor/renesas/rz_mcu_boards/core_package/generate/sc_drivers/r_ether_gr_mango/src/phy\phy.c ****         uint16_t *ppartner_pause)
 329:D:/Work/DeviceTester/amazon-freertos/lib/third_party/mcu_vendor/renesas/rz_mcu_boards/core_package/generate/sc_drivers/r_ether_gr_mango/src/phy\phy.c **** {
 330:D:/Work/DeviceTester/amazon-freertos/lib/third_party/mcu_vendor/renesas/rz_mcu_boards/core_package/generate/sc_drivers/r_ether_gr_mango/src/phy\phy.c ****     uint16_t reg;
 331:D:/Work/DeviceTester/amazon-freertos/lib/third_party/mcu_vendor/renesas/rz_mcu_boards/core_package/generate/sc_drivers/r_ether_gr_mango/src/phy\phy.c ****     uint32_t ether_channel_index = phy_get_ctrl_tbl_idx(ether_channel);
 332:D:/Work/DeviceTester/amazon-freertos/lib/third_party/mcu_vendor/renesas/rz_mcu_boards/core_package/generate/sc_drivers/r_ether_gr_mango/src/phy\phy.c **** 
 333:D:/Work/DeviceTester/amazon-freertos/lib/third_party/mcu_vendor/renesas/rz_mcu_boards/core_package/generate/sc_drivers/r_ether_gr_mango/src/phy\phy.c ****     /* Because reading the first time shows the previous state, the Link status bit is read twice. 
 334:D:/Work/DeviceTester/amazon-freertos/lib/third_party/mcu_vendor/renesas/rz_mcu_boards/core_package/generate/sc_drivers/r_ether_gr_mango/src/phy\phy.c ****     reg = phy_read(ether_channel, PHY_REG_STATUS);
 335:D:/Work/DeviceTester/amazon-freertos/lib/third_party/mcu_vendor/renesas/rz_mcu_boards/core_package/generate/sc_drivers/r_ether_gr_mango/src/phy\phy.c ****     reg = phy_read(ether_channel, PHY_REG_STATUS);
 336:D:/Work/DeviceTester/amazon-freertos/lib/third_party/mcu_vendor/renesas/rz_mcu_boards/core_package/generate/sc_drivers/r_ether_gr_mango/src/phy\phy.c **** 
 337:D:/Work/DeviceTester/amazon-freertos/lib/third_party/mcu_vendor/renesas/rz_mcu_boards/core_package/generate/sc_drivers/r_ether_gr_mango/src/phy\phy.c ****     /* When the link isn't up, return error */
 338:D:/Work/DeviceTester/amazon-freertos/lib/third_party/mcu_vendor/renesas/rz_mcu_boards/core_package/generate/sc_drivers/r_ether_gr_mango/src/phy\phy.c ****     if (PHY_STATUS_LINK_UP != (reg & PHY_STATUS_LINK_UP))
 339:D:/Work/DeviceTester/amazon-freertos/lib/third_party/mcu_vendor/renesas/rz_mcu_boards/core_package/generate/sc_drivers/r_ether_gr_mango/src/phy\phy.c ****     {
 340:D:/Work/DeviceTester/amazon-freertos/lib/third_party/mcu_vendor/renesas/rz_mcu_boards/core_package/generate/sc_drivers/r_ether_gr_mango/src/phy\phy.c ****         return R_PHY_ERROR;
 341:D:/Work/DeviceTester/amazon-freertos/lib/third_party/mcu_vendor/renesas/rz_mcu_boards/core_package/generate/sc_drivers/r_ether_gr_mango/src/phy\phy.c ****     }
 342:D:/Work/DeviceTester/amazon-freertos/lib/third_party/mcu_vendor/renesas/rz_mcu_boards/core_package/generate/sc_drivers/r_ether_gr_mango/src/phy\phy.c **** 
 343:D:/Work/DeviceTester/amazon-freertos/lib/third_party/mcu_vendor/renesas/rz_mcu_boards/core_package/generate/sc_drivers/r_ether_gr_mango/src/phy\phy.c ****     /* Establish local pause capability */
 344:D:/Work/DeviceTester/amazon-freertos/lib/third_party/mcu_vendor/renesas/rz_mcu_boards/core_package/generate/sc_drivers/r_ether_gr_mango/src/phy\phy.c ****     if (PHY_AN_ADVERTISEMENT_PAUSE == (local_advertise[ether_channel_index] & PHY_AN_ADVERTISEMENT_
 345:D:/Work/DeviceTester/amazon-freertos/lib/third_party/mcu_vendor/renesas/rz_mcu_boards/core_package/generate/sc_drivers/r_ether_gr_mango/src/phy\phy.c ****     {
 346:D:/Work/DeviceTester/amazon-freertos/lib/third_party/mcu_vendor/renesas/rz_mcu_boards/core_package/generate/sc_drivers/r_ether_gr_mango/src/phy\phy.c ****         (*plocal_pause) |= (1 << 1);
 347:D:/Work/DeviceTester/amazon-freertos/lib/third_party/mcu_vendor/renesas/rz_mcu_boards/core_package/generate/sc_drivers/r_ether_gr_mango/src/phy\phy.c ****     }
 348:D:/Work/DeviceTester/amazon-freertos/lib/third_party/mcu_vendor/renesas/rz_mcu_boards/core_package/generate/sc_drivers/r_ether_gr_mango/src/phy\phy.c **** 
 349:D:/Work/DeviceTester/amazon-freertos/lib/third_party/mcu_vendor/renesas/rz_mcu_boards/core_package/generate/sc_drivers/r_ether_gr_mango/src/phy\phy.c ****     if (PHY_AN_ADVERTISEMENT_ASM_DIR == (local_advertise[ether_channel_index] & PHY_AN_ADVERTISEMEN
 350:D:/Work/DeviceTester/amazon-freertos/lib/third_party/mcu_vendor/renesas/rz_mcu_boards/core_package/generate/sc_drivers/r_ether_gr_mango/src/phy\phy.c ****     {
 351:D:/Work/DeviceTester/amazon-freertos/lib/third_party/mcu_vendor/renesas/rz_mcu_boards/core_package/generate/sc_drivers/r_ether_gr_mango/src/phy\phy.c ****         (*plocal_pause) |= 1;
 352:D:/Work/DeviceTester/amazon-freertos/lib/third_party/mcu_vendor/renesas/rz_mcu_boards/core_package/generate/sc_drivers/r_ether_gr_mango/src/phy\phy.c ****     }
 353:D:/Work/DeviceTester/amazon-freertos/lib/third_party/mcu_vendor/renesas/rz_mcu_boards/core_package/generate/sc_drivers/r_ether_gr_mango/src/phy\phy.c **** 
 354:D:/Work/DeviceTester/amazon-freertos/lib/third_party/mcu_vendor/renesas/rz_mcu_boards/core_package/generate/sc_drivers/r_ether_gr_mango/src/phy\phy.c ****     /* When the auto-negotiation isn't completed, return error */
 355:D:/Work/DeviceTester/amazon-freertos/lib/third_party/mcu_vendor/renesas/rz_mcu_boards/core_package/generate/sc_drivers/r_ether_gr_mango/src/phy\phy.c ****     if (PHY_STATUS_AN_COMPLETE != (reg & PHY_STATUS_AN_COMPLETE))
 356:D:/Work/DeviceTester/amazon-freertos/lib/third_party/mcu_vendor/renesas/rz_mcu_boards/core_package/generate/sc_drivers/r_ether_gr_mango/src/phy\phy.c ****     {
 357:D:/Work/DeviceTester/amazon-freertos/lib/third_party/mcu_vendor/renesas/rz_mcu_boards/core_package/generate/sc_drivers/r_ether_gr_mango/src/phy\phy.c ****         return R_PHY_ERROR;
 358:D:/Work/DeviceTester/amazon-freertos/lib/third_party/mcu_vendor/renesas/rz_mcu_boards/core_package/generate/sc_drivers/r_ether_gr_mango/src/phy\phy.c ****     }
 359:D:/Work/DeviceTester/amazon-freertos/lib/third_party/mcu_vendor/renesas/rz_mcu_boards/core_package/generate/sc_drivers/r_ether_gr_mango/src/phy\phy.c **** 
 360:D:/Work/DeviceTester/amazon-freertos/lib/third_party/mcu_vendor/renesas/rz_mcu_boards/core_package/generate/sc_drivers/r_ether_gr_mango/src/phy\phy.c ****     /* Get the link partner response */
 361:D:/Work/DeviceTester/amazon-freertos/lib/third_party/mcu_vendor/renesas/rz_mcu_boards/core_package/generate/sc_drivers/r_ether_gr_mango/src/phy\phy.c ****     reg = phy_read(ether_channel, PHY_REG_AN_LINK_PARTNER);
 362:D:/Work/DeviceTester/amazon-freertos/lib/third_party/mcu_vendor/renesas/rz_mcu_boards/core_package/generate/sc_drivers/r_ether_gr_mango/src/phy\phy.c **** 
 363:D:/Work/DeviceTester/amazon-freertos/lib/third_party/mcu_vendor/renesas/rz_mcu_boards/core_package/generate/sc_drivers/r_ether_gr_mango/src/phy\phy.c ****     /* Establish partner pause capability */
 364:D:/Work/DeviceTester/amazon-freertos/lib/third_party/mcu_vendor/renesas/rz_mcu_boards/core_package/generate/sc_drivers/r_ether_gr_mango/src/phy\phy.c ****     if (PHY_AN_LINK_PARTNER_PAUSE == (reg & PHY_AN_LINK_PARTNER_PAUSE))
 365:D:/Work/DeviceTester/amazon-freertos/lib/third_party/mcu_vendor/renesas/rz_mcu_boards/core_package/generate/sc_drivers/r_ether_gr_mango/src/phy\phy.c ****     {
 366:D:/Work/DeviceTester/amazon-freertos/lib/third_party/mcu_vendor/renesas/rz_mcu_boards/core_package/generate/sc_drivers/r_ether_gr_mango/src/phy\phy.c ****         (*ppartner_pause) = (1 << 1);
 367:D:/Work/DeviceTester/amazon-freertos/lib/third_party/mcu_vendor/renesas/rz_mcu_boards/core_package/generate/sc_drivers/r_ether_gr_mango/src/phy\phy.c ****     }
 368:D:/Work/DeviceTester/amazon-freertos/lib/third_party/mcu_vendor/renesas/rz_mcu_boards/core_package/generate/sc_drivers/r_ether_gr_mango/src/phy\phy.c **** 
 369:D:/Work/DeviceTester/amazon-freertos/lib/third_party/mcu_vendor/renesas/rz_mcu_boards/core_package/generate/sc_drivers/r_ether_gr_mango/src/phy\phy.c ****     if (PHY_AN_LINK_PARTNER_ASM_DIR == (reg & PHY_AN_LINK_PARTNER_ASM_DIR))
 370:D:/Work/DeviceTester/amazon-freertos/lib/third_party/mcu_vendor/renesas/rz_mcu_boards/core_package/generate/sc_drivers/r_ether_gr_mango/src/phy\phy.c ****     {
 371:D:/Work/DeviceTester/amazon-freertos/lib/third_party/mcu_vendor/renesas/rz_mcu_boards/core_package/generate/sc_drivers/r_ether_gr_mango/src/phy\phy.c ****         (*ppartner_pause) |= 1;
 372:D:/Work/DeviceTester/amazon-freertos/lib/third_party/mcu_vendor/renesas/rz_mcu_boards/core_package/generate/sc_drivers/r_ether_gr_mango/src/phy\phy.c ****     }
 373:D:/Work/DeviceTester/amazon-freertos/lib/third_party/mcu_vendor/renesas/rz_mcu_boards/core_package/generate/sc_drivers/r_ether_gr_mango/src/phy\phy.c **** 
 374:D:/Work/DeviceTester/amazon-freertos/lib/third_party/mcu_vendor/renesas/rz_mcu_boards/core_package/generate/sc_drivers/r_ether_gr_mango/src/phy\phy.c ****     /* Establish the line speed and the duplex */
 375:D:/Work/DeviceTester/amazon-freertos/lib/third_party/mcu_vendor/renesas/rz_mcu_boards/core_package/generate/sc_drivers/r_ether_gr_mango/src/phy\phy.c ****     if (PHY_AN_LINK_PARTNER_10H == (reg & PHY_AN_LINK_PARTNER_10H))
 376:D:/Work/DeviceTester/amazon-freertos/lib/third_party/mcu_vendor/renesas/rz_mcu_boards/core_package/generate/sc_drivers/r_ether_gr_mango/src/phy\phy.c ****     {
 377:D:/Work/DeviceTester/amazon-freertos/lib/third_party/mcu_vendor/renesas/rz_mcu_boards/core_package/generate/sc_drivers/r_ether_gr_mango/src/phy\phy.c ****         (*pline_speed_duplex) = PHY_LINK_10H;
 378:D:/Work/DeviceTester/amazon-freertos/lib/third_party/mcu_vendor/renesas/rz_mcu_boards/core_package/generate/sc_drivers/r_ether_gr_mango/src/phy\phy.c ****     }
 379:D:/Work/DeviceTester/amazon-freertos/lib/third_party/mcu_vendor/renesas/rz_mcu_boards/core_package/generate/sc_drivers/r_ether_gr_mango/src/phy\phy.c **** 
 380:D:/Work/DeviceTester/amazon-freertos/lib/third_party/mcu_vendor/renesas/rz_mcu_boards/core_package/generate/sc_drivers/r_ether_gr_mango/src/phy\phy.c ****     if (PHY_AN_LINK_PARTNER_10F == (reg & PHY_AN_LINK_PARTNER_10F))
 381:D:/Work/DeviceTester/amazon-freertos/lib/third_party/mcu_vendor/renesas/rz_mcu_boards/core_package/generate/sc_drivers/r_ether_gr_mango/src/phy\phy.c ****     {
 382:D:/Work/DeviceTester/amazon-freertos/lib/third_party/mcu_vendor/renesas/rz_mcu_boards/core_package/generate/sc_drivers/r_ether_gr_mango/src/phy\phy.c ****         (*pline_speed_duplex) = PHY_LINK_10F;
 383:D:/Work/DeviceTester/amazon-freertos/lib/third_party/mcu_vendor/renesas/rz_mcu_boards/core_package/generate/sc_drivers/r_ether_gr_mango/src/phy\phy.c ****     }
 384:D:/Work/DeviceTester/amazon-freertos/lib/third_party/mcu_vendor/renesas/rz_mcu_boards/core_package/generate/sc_drivers/r_ether_gr_mango/src/phy\phy.c **** 
 385:D:/Work/DeviceTester/amazon-freertos/lib/third_party/mcu_vendor/renesas/rz_mcu_boards/core_package/generate/sc_drivers/r_ether_gr_mango/src/phy\phy.c ****     if (PHY_AN_LINK_PARTNER_100H == (reg & PHY_AN_LINK_PARTNER_100H))
 386:D:/Work/DeviceTester/amazon-freertos/lib/third_party/mcu_vendor/renesas/rz_mcu_boards/core_package/generate/sc_drivers/r_ether_gr_mango/src/phy\phy.c ****     {
 387:D:/Work/DeviceTester/amazon-freertos/lib/third_party/mcu_vendor/renesas/rz_mcu_boards/core_package/generate/sc_drivers/r_ether_gr_mango/src/phy\phy.c ****         (*pline_speed_duplex) = PHY_LINK_100H;
 388:D:/Work/DeviceTester/amazon-freertos/lib/third_party/mcu_vendor/renesas/rz_mcu_boards/core_package/generate/sc_drivers/r_ether_gr_mango/src/phy\phy.c ****     }
 389:D:/Work/DeviceTester/amazon-freertos/lib/third_party/mcu_vendor/renesas/rz_mcu_boards/core_package/generate/sc_drivers/r_ether_gr_mango/src/phy\phy.c **** 
 390:D:/Work/DeviceTester/amazon-freertos/lib/third_party/mcu_vendor/renesas/rz_mcu_boards/core_package/generate/sc_drivers/r_ether_gr_mango/src/phy\phy.c ****     if (PHY_AN_LINK_PARTNER_100F == (reg & PHY_AN_LINK_PARTNER_100F))
 391:D:/Work/DeviceTester/amazon-freertos/lib/third_party/mcu_vendor/renesas/rz_mcu_boards/core_package/generate/sc_drivers/r_ether_gr_mango/src/phy\phy.c ****     {
 392:D:/Work/DeviceTester/amazon-freertos/lib/third_party/mcu_vendor/renesas/rz_mcu_boards/core_package/generate/sc_drivers/r_ether_gr_mango/src/phy\phy.c ****         (*pline_speed_duplex) = PHY_LINK_100F;
 393:D:/Work/DeviceTester/amazon-freertos/lib/third_party/mcu_vendor/renesas/rz_mcu_boards/core_package/generate/sc_drivers/r_ether_gr_mango/src/phy\phy.c ****     }
 394:D:/Work/DeviceTester/amazon-freertos/lib/third_party/mcu_vendor/renesas/rz_mcu_boards/core_package/generate/sc_drivers/r_ether_gr_mango/src/phy\phy.c **** 
 395:D:/Work/DeviceTester/amazon-freertos/lib/third_party/mcu_vendor/renesas/rz_mcu_boards/core_package/generate/sc_drivers/r_ether_gr_mango/src/phy\phy.c ****     return R_PHY_OK;
 396:D:/Work/DeviceTester/amazon-freertos/lib/third_party/mcu_vendor/renesas/rz_mcu_boards/core_package/generate/sc_drivers/r_ether_gr_mango/src/phy\phy.c **** } /* End of function phy_set_autonegotiate() */
 397:D:/Work/DeviceTester/amazon-freertos/lib/third_party/mcu_vendor/renesas/rz_mcu_boards/core_package/generate/sc_drivers/r_ether_gr_mango/src/phy\phy.c **** 
 398:D:/Work/DeviceTester/amazon-freertos/lib/third_party/mcu_vendor/renesas/rz_mcu_boards/core_package/generate/sc_drivers/r_ether_gr_mango/src/phy\phy.c **** /**************************************************************************************************
 399:D:/Work/DeviceTester/amazon-freertos/lib/third_party/mcu_vendor/renesas/rz_mcu_boards/core_package/generate/sc_drivers/r_ether_gr_mango/src/phy\phy.c ****  * Function Name: phy_get_link_status
 400:D:/Work/DeviceTester/amazon-freertos/lib/third_party/mcu_vendor/renesas/rz_mcu_boards/core_package/generate/sc_drivers/r_ether_gr_mango/src/phy\phy.c ****  * Description  : Returns the status of the physical link
 401:D:/Work/DeviceTester/amazon-freertos/lib/third_party/mcu_vendor/renesas/rz_mcu_boards/core_package/generate/sc_drivers/r_ether_gr_mango/src/phy\phy.c ****  * Arguments    : ether_channel -
 402:D:/Work/DeviceTester/amazon-freertos/lib/third_party/mcu_vendor/renesas/rz_mcu_boards/core_package/generate/sc_drivers/r_ether_gr_mango/src/phy\phy.c ****  *                    Ethernet channel number
 403:D:/Work/DeviceTester/amazon-freertos/lib/third_party/mcu_vendor/renesas/rz_mcu_boards/core_package/generate/sc_drivers/r_ether_gr_mango/src/phy\phy.c ****  * Return Value : -1 if links is down, 0 otherwise
 404:D:/Work/DeviceTester/amazon-freertos/lib/third_party/mcu_vendor/renesas/rz_mcu_boards/core_package/generate/sc_drivers/r_ether_gr_mango/src/phy\phy.c ****  **************************************************************************************************
 405:D:/Work/DeviceTester/amazon-freertos/lib/third_party/mcu_vendor/renesas/rz_mcu_boards/core_package/generate/sc_drivers/r_ether_gr_mango/src/phy\phy.c **** int16_t phy_get_link_status (uint32_t ether_channel)
 406:D:/Work/DeviceTester/amazon-freertos/lib/third_party/mcu_vendor/renesas/rz_mcu_boards/core_package/generate/sc_drivers/r_ether_gr_mango/src/phy\phy.c **** {
 407:D:/Work/DeviceTester/amazon-freertos/lib/third_party/mcu_vendor/renesas/rz_mcu_boards/core_package/generate/sc_drivers/r_ether_gr_mango/src/phy\phy.c ****     uint16_t reg;
 408:D:/Work/DeviceTester/amazon-freertos/lib/third_party/mcu_vendor/renesas/rz_mcu_boards/core_package/generate/sc_drivers/r_ether_gr_mango/src/phy\phy.c **** 
 409:D:/Work/DeviceTester/amazon-freertos/lib/third_party/mcu_vendor/renesas/rz_mcu_boards/core_package/generate/sc_drivers/r_ether_gr_mango/src/phy\phy.c ****     /* Because reading the first time shows the previous state, the Link status bit is read twice. 
 410:D:/Work/DeviceTester/amazon-freertos/lib/third_party/mcu_vendor/renesas/rz_mcu_boards/core_package/generate/sc_drivers/r_ether_gr_mango/src/phy\phy.c ****     reg = phy_read(ether_channel, PHY_REG_STATUS);
 411:D:/Work/DeviceTester/amazon-freertos/lib/third_party/mcu_vendor/renesas/rz_mcu_boards/core_package/generate/sc_drivers/r_ether_gr_mango/src/phy\phy.c ****     reg = phy_read(ether_channel, PHY_REG_STATUS);
 412:D:/Work/DeviceTester/amazon-freertos/lib/third_party/mcu_vendor/renesas/rz_mcu_boards/core_package/generate/sc_drivers/r_ether_gr_mango/src/phy\phy.c **** 
 413:D:/Work/DeviceTester/amazon-freertos/lib/third_party/mcu_vendor/renesas/rz_mcu_boards/core_package/generate/sc_drivers/r_ether_gr_mango/src/phy\phy.c **** 
 414:D:/Work/DeviceTester/amazon-freertos/lib/third_party/mcu_vendor/renesas/rz_mcu_boards/core_package/generate/sc_drivers/r_ether_gr_mango/src/phy\phy.c ****     /* When the link isn't up, return error */
 415:D:/Work/DeviceTester/amazon-freertos/lib/third_party/mcu_vendor/renesas/rz_mcu_boards/core_package/generate/sc_drivers/r_ether_gr_mango/src/phy\phy.c ****     if (PHY_STATUS_LINK_UP != (reg & PHY_STATUS_LINK_UP))
 416:D:/Work/DeviceTester/amazon-freertos/lib/third_party/mcu_vendor/renesas/rz_mcu_boards/core_package/generate/sc_drivers/r_ether_gr_mango/src/phy\phy.c ****     {
 417:D:/Work/DeviceTester/amazon-freertos/lib/third_party/mcu_vendor/renesas/rz_mcu_boards/core_package/generate/sc_drivers/r_ether_gr_mango/src/phy\phy.c ****         /* Link is down */
 418:D:/Work/DeviceTester/amazon-freertos/lib/third_party/mcu_vendor/renesas/rz_mcu_boards/core_package/generate/sc_drivers/r_ether_gr_mango/src/phy\phy.c ****         return R_PHY_ERROR;
 419:D:/Work/DeviceTester/amazon-freertos/lib/third_party/mcu_vendor/renesas/rz_mcu_boards/core_package/generate/sc_drivers/r_ether_gr_mango/src/phy\phy.c ****     }
 420:D:/Work/DeviceTester/amazon-freertos/lib/third_party/mcu_vendor/renesas/rz_mcu_boards/core_package/generate/sc_drivers/r_ether_gr_mango/src/phy\phy.c **** 
 421:D:/Work/DeviceTester/amazon-freertos/lib/third_party/mcu_vendor/renesas/rz_mcu_boards/core_package/generate/sc_drivers/r_ether_gr_mango/src/phy\phy.c ****     /* Link is up */
 422:D:/Work/DeviceTester/amazon-freertos/lib/third_party/mcu_vendor/renesas/rz_mcu_boards/core_package/generate/sc_drivers/r_ether_gr_mango/src/phy\phy.c ****     return R_PHY_OK;
 423:D:/Work/DeviceTester/amazon-freertos/lib/third_party/mcu_vendor/renesas/rz_mcu_boards/core_package/generate/sc_drivers/r_ether_gr_mango/src/phy\phy.c **** } /* End of function phy_get_link_status() */
 424:D:/Work/DeviceTester/amazon-freertos/lib/third_party/mcu_vendor/renesas/rz_mcu_boards/core_package/generate/sc_drivers/r_ether_gr_mango/src/phy\phy.c **** 
 425:D:/Work/DeviceTester/amazon-freertos/lib/third_party/mcu_vendor/renesas/rz_mcu_boards/core_package/generate/sc_drivers/r_ether_gr_mango/src/phy\phy.c **** /**
 426:D:/Work/DeviceTester/amazon-freertos/lib/third_party/mcu_vendor/renesas/rz_mcu_boards/core_package/generate/sc_drivers/r_ether_gr_mango/src/phy\phy.c ****  * Private functions
 427:D:/Work/DeviceTester/amazon-freertos/lib/third_party/mcu_vendor/renesas/rz_mcu_boards/core_package/generate/sc_drivers/r_ether_gr_mango/src/phy\phy.c ****  */
 428:D:/Work/DeviceTester/amazon-freertos/lib/third_party/mcu_vendor/renesas/rz_mcu_boards/core_package/generate/sc_drivers/r_ether_gr_mango/src/phy\phy.c **** 
 429:D:/Work/DeviceTester/amazon-freertos/lib/third_party/mcu_vendor/renesas/rz_mcu_boards/core_package/generate/sc_drivers/r_ether_gr_mango/src/phy\phy.c **** /**************************************************************************************************
 430:D:/Work/DeviceTester/amazon-freertos/lib/third_party/mcu_vendor/renesas/rz_mcu_boards/core_package/generate/sc_drivers/r_ether_gr_mango/src/phy\phy.c ****  * Function Name: phy_read
 431:D:/Work/DeviceTester/amazon-freertos/lib/third_party/mcu_vendor/renesas/rz_mcu_boards/core_package/generate/sc_drivers/r_ether_gr_mango/src/phy\phy.c ****  * Description  : Reads a PHY register
 432:D:/Work/DeviceTester/amazon-freertos/lib/third_party/mcu_vendor/renesas/rz_mcu_boards/core_package/generate/sc_drivers/r_ether_gr_mango/src/phy\phy.c ****  * Arguments    : ether_channel -
 433:D:/Work/DeviceTester/amazon-freertos/lib/third_party/mcu_vendor/renesas/rz_mcu_boards/core_package/generate/sc_drivers/r_ether_gr_mango/src/phy\phy.c ****  *                    Ethernet channel number
 434:D:/Work/DeviceTester/amazon-freertos/lib/third_party/mcu_vendor/renesas/rz_mcu_boards/core_package/generate/sc_drivers/r_ether_gr_mango/src/phy\phy.c ****  *                reg_addr -
 435:D:/Work/DeviceTester/amazon-freertos/lib/third_party/mcu_vendor/renesas/rz_mcu_boards/core_package/generate/sc_drivers/r_ether_gr_mango/src/phy\phy.c ****  *                    address of the PHY register
 436:D:/Work/DeviceTester/amazon-freertos/lib/third_party/mcu_vendor/renesas/rz_mcu_boards/core_package/generate/sc_drivers/r_ether_gr_mango/src/phy\phy.c ****  * Return Value : read value
 437:D:/Work/DeviceTester/amazon-freertos/lib/third_party/mcu_vendor/renesas/rz_mcu_boards/core_package/generate/sc_drivers/r_ether_gr_mango/src/phy\phy.c ****  **************************************************************************************************
 438:D:/Work/DeviceTester/amazon-freertos/lib/third_party/mcu_vendor/renesas/rz_mcu_boards/core_package/generate/sc_drivers/r_ether_gr_mango/src/phy\phy.c **** static uint16_t phy_read (uint32_t ether_channel, uint16_t reg_addr)
 439:D:/Work/DeviceTester/amazon-freertos/lib/third_party/mcu_vendor/renesas/rz_mcu_boards/core_package/generate/sc_drivers/r_ether_gr_mango/src/phy\phy.c **** {
 440:D:/Work/DeviceTester/amazon-freertos/lib/third_party/mcu_vendor/renesas/rz_mcu_boards/core_package/generate/sc_drivers/r_ether_gr_mango/src/phy\phy.c ****     uint16_t data;
 441:D:/Work/DeviceTester/amazon-freertos/lib/third_party/mcu_vendor/renesas/rz_mcu_boards/core_package/generate/sc_drivers/r_ether_gr_mango/src/phy\phy.c **** 
 442:D:/Work/DeviceTester/amazon-freertos/lib/third_party/mcu_vendor/renesas/rz_mcu_boards/core_package/generate/sc_drivers/r_ether_gr_mango/src/phy\phy.c ****     /*
 443:D:/Work/DeviceTester/amazon-freertos/lib/third_party/mcu_vendor/renesas/rz_mcu_boards/core_package/generate/sc_drivers/r_ether_gr_mango/src/phy\phy.c ****      * The value is read from the PHY register by the frame format of MII Management Interface prov
 444:D:/Work/DeviceTester/amazon-freertos/lib/third_party/mcu_vendor/renesas/rz_mcu_boards/core_package/generate/sc_drivers/r_ether_gr_mango/src/phy\phy.c ****      * for by Table 22-12 of 22.2.4.5 of IEEE 802.3-2008_section2.
 445:D:/Work/DeviceTester/amazon-freertos/lib/third_party/mcu_vendor/renesas/rz_mcu_boards/core_package/generate/sc_drivers/r_ether_gr_mango/src/phy\phy.c ****      */
 446:D:/Work/DeviceTester/amazon-freertos/lib/third_party/mcu_vendor/renesas/rz_mcu_boards/core_package/generate/sc_drivers/r_ether_gr_mango/src/phy\phy.c ****     phy_preamble(ether_channel);
 447:D:/Work/DeviceTester/amazon-freertos/lib/third_party/mcu_vendor/renesas/rz_mcu_boards/core_package/generate/sc_drivers/r_ether_gr_mango/src/phy\phy.c ****     phy_reg_set(ether_channel, reg_addr, PHY_MII_READ);
 448:D:/Work/DeviceTester/amazon-freertos/lib/third_party/mcu_vendor/renesas/rz_mcu_boards/core_package/generate/sc_drivers/r_ether_gr_mango/src/phy\phy.c ****     phy_trans_zto0(ether_channel);
 449:D:/Work/DeviceTester/amazon-freertos/lib/third_party/mcu_vendor/renesas/rz_mcu_boards/core_package/generate/sc_drivers/r_ether_gr_mango/src/phy\phy.c ****     phy_reg_read(ether_channel, &data);
 450:D:/Work/DeviceTester/amazon-freertos/lib/third_party/mcu_vendor/renesas/rz_mcu_boards/core_package/generate/sc_drivers/r_ether_gr_mango/src/phy\phy.c ****     phy_trans_zto0(ether_channel);
 451:D:/Work/DeviceTester/amazon-freertos/lib/third_party/mcu_vendor/renesas/rz_mcu_boards/core_package/generate/sc_drivers/r_ether_gr_mango/src/phy\phy.c **** 
 452:D:/Work/DeviceTester/amazon-freertos/lib/third_party/mcu_vendor/renesas/rz_mcu_boards/core_package/generate/sc_drivers/r_ether_gr_mango/src/phy\phy.c ****     return (data);
 453:D:/Work/DeviceTester/amazon-freertos/lib/third_party/mcu_vendor/renesas/rz_mcu_boards/core_package/generate/sc_drivers/r_ether_gr_mango/src/phy\phy.c **** } /* End of function phy_read() */
 454:D:/Work/DeviceTester/amazon-freertos/lib/third_party/mcu_vendor/renesas/rz_mcu_boards/core_package/generate/sc_drivers/r_ether_gr_mango/src/phy\phy.c **** 
 455:D:/Work/DeviceTester/amazon-freertos/lib/third_party/mcu_vendor/renesas/rz_mcu_boards/core_package/generate/sc_drivers/r_ether_gr_mango/src/phy\phy.c **** /**************************************************************************************************
 456:D:/Work/DeviceTester/amazon-freertos/lib/third_party/mcu_vendor/renesas/rz_mcu_boards/core_package/generate/sc_drivers/r_ether_gr_mango/src/phy\phy.c ****  * Function Name: phy_write
 457:D:/Work/DeviceTester/amazon-freertos/lib/third_party/mcu_vendor/renesas/rz_mcu_boards/core_package/generate/sc_drivers/r_ether_gr_mango/src/phy\phy.c ****  * Description  : Writes to a PHY register
 458:D:/Work/DeviceTester/amazon-freertos/lib/third_party/mcu_vendor/renesas/rz_mcu_boards/core_package/generate/sc_drivers/r_ether_gr_mango/src/phy\phy.c ****  * Arguments    : ether_channel -
 459:D:/Work/DeviceTester/amazon-freertos/lib/third_party/mcu_vendor/renesas/rz_mcu_boards/core_package/generate/sc_drivers/r_ether_gr_mango/src/phy\phy.c ****  *                    Ethernet channel number
 460:D:/Work/DeviceTester/amazon-freertos/lib/third_party/mcu_vendor/renesas/rz_mcu_boards/core_package/generate/sc_drivers/r_ether_gr_mango/src/phy\phy.c ****  *                reg_addr -
 461:D:/Work/DeviceTester/amazon-freertos/lib/third_party/mcu_vendor/renesas/rz_mcu_boards/core_package/generate/sc_drivers/r_ether_gr_mango/src/phy\phy.c ****  *                    address of the PHY register
 462:D:/Work/DeviceTester/amazon-freertos/lib/third_party/mcu_vendor/renesas/rz_mcu_boards/core_package/generate/sc_drivers/r_ether_gr_mango/src/phy\phy.c ****  *                data -
 463:D:/Work/DeviceTester/amazon-freertos/lib/third_party/mcu_vendor/renesas/rz_mcu_boards/core_package/generate/sc_drivers/r_ether_gr_mango/src/phy\phy.c ****  *                    value
 464:D:/Work/DeviceTester/amazon-freertos/lib/third_party/mcu_vendor/renesas/rz_mcu_boards/core_package/generate/sc_drivers/r_ether_gr_mango/src/phy\phy.c ****  * Return Value : none
 465:D:/Work/DeviceTester/amazon-freertos/lib/third_party/mcu_vendor/renesas/rz_mcu_boards/core_package/generate/sc_drivers/r_ether_gr_mango/src/phy\phy.c ****  **************************************************************************************************
 466:D:/Work/DeviceTester/amazon-freertos/lib/third_party/mcu_vendor/renesas/rz_mcu_boards/core_package/generate/sc_drivers/r_ether_gr_mango/src/phy\phy.c **** static void phy_write (uint32_t ether_channel, uint16_t reg_addr, uint16_t data)
 467:D:/Work/DeviceTester/amazon-freertos/lib/third_party/mcu_vendor/renesas/rz_mcu_boards/core_package/generate/sc_drivers/r_ether_gr_mango/src/phy\phy.c **** {
 468:D:/Work/DeviceTester/amazon-freertos/lib/third_party/mcu_vendor/renesas/rz_mcu_boards/core_package/generate/sc_drivers/r_ether_gr_mango/src/phy\phy.c ****     /*
 469:D:/Work/DeviceTester/amazon-freertos/lib/third_party/mcu_vendor/renesas/rz_mcu_boards/core_package/generate/sc_drivers/r_ether_gr_mango/src/phy\phy.c ****      * The value is read from the PHY register by the frame format of MII Management Interface prov
 470:D:/Work/DeviceTester/amazon-freertos/lib/third_party/mcu_vendor/renesas/rz_mcu_boards/core_package/generate/sc_drivers/r_ether_gr_mango/src/phy\phy.c ****      * for by Table 22-12 of 22.2.4.5 of IEEE 802.3-2008_section2.
 471:D:/Work/DeviceTester/amazon-freertos/lib/third_party/mcu_vendor/renesas/rz_mcu_boards/core_package/generate/sc_drivers/r_ether_gr_mango/src/phy\phy.c ****      */
 472:D:/Work/DeviceTester/amazon-freertos/lib/third_party/mcu_vendor/renesas/rz_mcu_boards/core_package/generate/sc_drivers/r_ether_gr_mango/src/phy\phy.c ****     phy_preamble(ether_channel);
 473:D:/Work/DeviceTester/amazon-freertos/lib/third_party/mcu_vendor/renesas/rz_mcu_boards/core_package/generate/sc_drivers/r_ether_gr_mango/src/phy\phy.c ****     phy_reg_set(ether_channel, reg_addr, PHY_MII_WRITE);
 474:D:/Work/DeviceTester/amazon-freertos/lib/third_party/mcu_vendor/renesas/rz_mcu_boards/core_package/generate/sc_drivers/r_ether_gr_mango/src/phy\phy.c ****     phy_trans_1to0(ether_channel);
 475:D:/Work/DeviceTester/amazon-freertos/lib/third_party/mcu_vendor/renesas/rz_mcu_boards/core_package/generate/sc_drivers/r_ether_gr_mango/src/phy\phy.c ****     phy_reg_write(ether_channel, data);
 476:D:/Work/DeviceTester/amazon-freertos/lib/third_party/mcu_vendor/renesas/rz_mcu_boards/core_package/generate/sc_drivers/r_ether_gr_mango/src/phy\phy.c ****     phy_trans_zto0(ether_channel);
 477:D:/Work/DeviceTester/amazon-freertos/lib/third_party/mcu_vendor/renesas/rz_mcu_boards/core_package/generate/sc_drivers/r_ether_gr_mango/src/phy\phy.c **** } /* End of function phy_write() */
 478:D:/Work/DeviceTester/amazon-freertos/lib/third_party/mcu_vendor/renesas/rz_mcu_boards/core_package/generate/sc_drivers/r_ether_gr_mango/src/phy\phy.c **** 
 479:D:/Work/DeviceTester/amazon-freertos/lib/third_party/mcu_vendor/renesas/rz_mcu_boards/core_package/generate/sc_drivers/r_ether_gr_mango/src/phy\phy.c **** /**************************************************************************************************
 480:D:/Work/DeviceTester/amazon-freertos/lib/third_party/mcu_vendor/renesas/rz_mcu_boards/core_package/generate/sc_drivers/r_ether_gr_mango/src/phy\phy.c ****  * Function Name: phy_preamble
 481:D:/Work/DeviceTester/amazon-freertos/lib/third_party/mcu_vendor/renesas/rz_mcu_boards/core_package/generate/sc_drivers/r_ether_gr_mango/src/phy\phy.c ****  * Description  : As preliminary preparation for access to the PHY module register,
 482:D:/Work/DeviceTester/amazon-freertos/lib/third_party/mcu_vendor/renesas/rz_mcu_boards/core_package/generate/sc_drivers/r_ether_gr_mango/src/phy\phy.c ****  *                "1" is output via the MII management interface.
 483:D:/Work/DeviceTester/amazon-freertos/lib/third_party/mcu_vendor/renesas/rz_mcu_boards/core_package/generate/sc_drivers/r_ether_gr_mango/src/phy\phy.c ****  * Arguments    : ether_channel -
 484:D:/Work/DeviceTester/amazon-freertos/lib/third_party/mcu_vendor/renesas/rz_mcu_boards/core_package/generate/sc_drivers/r_ether_gr_mango/src/phy\phy.c ****  *                    Ethernet channel number
 485:D:/Work/DeviceTester/amazon-freertos/lib/third_party/mcu_vendor/renesas/rz_mcu_boards/core_package/generate/sc_drivers/r_ether_gr_mango/src/phy\phy.c ****  * Return Value : none
 486:D:/Work/DeviceTester/amazon-freertos/lib/third_party/mcu_vendor/renesas/rz_mcu_boards/core_package/generate/sc_drivers/r_ether_gr_mango/src/phy\phy.c ****  **************************************************************************************************
 487:D:/Work/DeviceTester/amazon-freertos/lib/third_party/mcu_vendor/renesas/rz_mcu_boards/core_package/generate/sc_drivers/r_ether_gr_mango/src/phy\phy.c **** static void phy_preamble (uint32_t ether_channel)
 488:D:/Work/DeviceTester/amazon-freertos/lib/third_party/mcu_vendor/renesas/rz_mcu_boards/core_package/generate/sc_drivers/r_ether_gr_mango/src/phy\phy.c **** {
 489:D:/Work/DeviceTester/amazon-freertos/lib/third_party/mcu_vendor/renesas/rz_mcu_boards/core_package/generate/sc_drivers/r_ether_gr_mango/src/phy\phy.c ****     int16_t i;
 490:D:/Work/DeviceTester/amazon-freertos/lib/third_party/mcu_vendor/renesas/rz_mcu_boards/core_package/generate/sc_drivers/r_ether_gr_mango/src/phy\phy.c **** 
 491:D:/Work/DeviceTester/amazon-freertos/lib/third_party/mcu_vendor/renesas/rz_mcu_boards/core_package/generate/sc_drivers/r_ether_gr_mango/src/phy\phy.c ****     /*
 492:D:/Work/DeviceTester/amazon-freertos/lib/third_party/mcu_vendor/renesas/rz_mcu_boards/core_package/generate/sc_drivers/r_ether_gr_mango/src/phy\phy.c ****      * The processing of PRE (preamble) about the frame format of MII Management Interface which is
 493:D:/Work/DeviceTester/amazon-freertos/lib/third_party/mcu_vendor/renesas/rz_mcu_boards/core_package/generate/sc_drivers/r_ether_gr_mango/src/phy\phy.c ****      * provided by "Table 22-12" of "22.2.4.5" of "IEEE 802.3-2008_section2".
 494:D:/Work/DeviceTester/amazon-freertos/lib/third_party/mcu_vendor/renesas/rz_mcu_boards/core_package/generate/sc_drivers/r_ether_gr_mango/src/phy\phy.c ****      */
 495:D:/Work/DeviceTester/amazon-freertos/lib/third_party/mcu_vendor/renesas/rz_mcu_boards/core_package/generate/sc_drivers/r_ether_gr_mango/src/phy\phy.c ****     i = 32;
 496:D:/Work/DeviceTester/amazon-freertos/lib/third_party/mcu_vendor/renesas/rz_mcu_boards/core_package/generate/sc_drivers/r_ether_gr_mango/src/phy\phy.c ****     while (i > 0)
 497:D:/Work/DeviceTester/amazon-freertos/lib/third_party/mcu_vendor/renesas/rz_mcu_boards/core_package/generate/sc_drivers/r_ether_gr_mango/src/phy\phy.c ****     {
 498:D:/Work/DeviceTester/amazon-freertos/lib/third_party/mcu_vendor/renesas/rz_mcu_boards/core_package/generate/sc_drivers/r_ether_gr_mango/src/phy\phy.c ****         phy_mii_write1(ether_channel);
 499:D:/Work/DeviceTester/amazon-freertos/lib/third_party/mcu_vendor/renesas/rz_mcu_boards/core_package/generate/sc_drivers/r_ether_gr_mango/src/phy\phy.c ****         i--;
 500:D:/Work/DeviceTester/amazon-freertos/lib/third_party/mcu_vendor/renesas/rz_mcu_boards/core_package/generate/sc_drivers/r_ether_gr_mango/src/phy\phy.c ****     }
 501:D:/Work/DeviceTester/amazon-freertos/lib/third_party/mcu_vendor/renesas/rz_mcu_boards/core_package/generate/sc_drivers/r_ether_gr_mango/src/phy\phy.c **** } /* End of function phy_preamble() */
 502:D:/Work/DeviceTester/amazon-freertos/lib/third_party/mcu_vendor/renesas/rz_mcu_boards/core_package/generate/sc_drivers/r_ether_gr_mango/src/phy\phy.c **** 
 503:D:/Work/DeviceTester/amazon-freertos/lib/third_party/mcu_vendor/renesas/rz_mcu_boards/core_package/generate/sc_drivers/r_ether_gr_mango/src/phy\phy.c **** /**************************************************************************************************
 504:D:/Work/DeviceTester/amazon-freertos/lib/third_party/mcu_vendor/renesas/rz_mcu_boards/core_package/generate/sc_drivers/r_ether_gr_mango/src/phy\phy.c ****  * Function Name: phy_reg_set
 505:D:/Work/DeviceTester/amazon-freertos/lib/third_party/mcu_vendor/renesas/rz_mcu_boards/core_package/generate/sc_drivers/r_ether_gr_mango/src/phy\phy.c ****  * Description  : Sets a PHY device to read or write mode
 506:D:/Work/DeviceTester/amazon-freertos/lib/third_party/mcu_vendor/renesas/rz_mcu_boards/core_package/generate/sc_drivers/r_ether_gr_mango/src/phy\phy.c ****  * Arguments    : ether_channel -
 507:D:/Work/DeviceTester/amazon-freertos/lib/third_party/mcu_vendor/renesas/rz_mcu_boards/core_package/generate/sc_drivers/r_ether_gr_mango/src/phy\phy.c ****  *                    Ethernet channel number
 508:D:/Work/DeviceTester/amazon-freertos/lib/third_party/mcu_vendor/renesas/rz_mcu_boards/core_package/generate/sc_drivers/r_ether_gr_mango/src/phy\phy.c ****  *                reg_addr -
 509:D:/Work/DeviceTester/amazon-freertos/lib/third_party/mcu_vendor/renesas/rz_mcu_boards/core_package/generate/sc_drivers/r_ether_gr_mango/src/phy\phy.c ****  *                    address of the PHY register
 510:D:/Work/DeviceTester/amazon-freertos/lib/third_party/mcu_vendor/renesas/rz_mcu_boards/core_package/generate/sc_drivers/r_ether_gr_mango/src/phy\phy.c ****  *                option -
 511:D:/Work/DeviceTester/amazon-freertos/lib/third_party/mcu_vendor/renesas/rz_mcu_boards/core_package/generate/sc_drivers/r_ether_gr_mango/src/phy\phy.c ****  *                    mode
 512:D:/Work/DeviceTester/amazon-freertos/lib/third_party/mcu_vendor/renesas/rz_mcu_boards/core_package/generate/sc_drivers/r_ether_gr_mango/src/phy\phy.c ****  * Return Value : none
 513:D:/Work/DeviceTester/amazon-freertos/lib/third_party/mcu_vendor/renesas/rz_mcu_boards/core_package/generate/sc_drivers/r_ether_gr_mango/src/phy\phy.c ****  **************************************************************************************************
 514:D:/Work/DeviceTester/amazon-freertos/lib/third_party/mcu_vendor/renesas/rz_mcu_boards/core_package/generate/sc_drivers/r_ether_gr_mango/src/phy\phy.c **** static void phy_reg_set (uint32_t ether_channel, uint16_t reg_addr, int32_t option)
 515:D:/Work/DeviceTester/amazon-freertos/lib/third_party/mcu_vendor/renesas/rz_mcu_boards/core_package/generate/sc_drivers/r_ether_gr_mango/src/phy\phy.c **** {
 516:D:/Work/DeviceTester/amazon-freertos/lib/third_party/mcu_vendor/renesas/rz_mcu_boards/core_package/generate/sc_drivers/r_ether_gr_mango/src/phy\phy.c ****     int32_t i;
 517:D:/Work/DeviceTester/amazon-freertos/lib/third_party/mcu_vendor/renesas/rz_mcu_boards/core_package/generate/sc_drivers/r_ether_gr_mango/src/phy\phy.c ****     uint16_t data;
 518:D:/Work/DeviceTester/amazon-freertos/lib/third_party/mcu_vendor/renesas/rz_mcu_boards/core_package/generate/sc_drivers/r_ether_gr_mango/src/phy\phy.c ****     uint32_t ether_channel_index = phy_get_ctrl_tbl_idx(ether_channel);
 519:D:/Work/DeviceTester/amazon-freertos/lib/third_party/mcu_vendor/renesas/rz_mcu_boards/core_package/generate/sc_drivers/r_ether_gr_mango/src/phy\phy.c **** 
 520:D:/Work/DeviceTester/amazon-freertos/lib/third_party/mcu_vendor/renesas/rz_mcu_boards/core_package/generate/sc_drivers/r_ether_gr_mango/src/phy\phy.c ****     /*
 521:D:/Work/DeviceTester/amazon-freertos/lib/third_party/mcu_vendor/renesas/rz_mcu_boards/core_package/generate/sc_drivers/r_ether_gr_mango/src/phy\phy.c ****      * The processing of ST (start of frame),OP (operation code), PHYAD (PHY Address), and
 522:D:/Work/DeviceTester/amazon-freertos/lib/third_party/mcu_vendor/renesas/rz_mcu_boards/core_package/generate/sc_drivers/r_ether_gr_mango/src/phy\phy.c ****      * REGAD (Register Address)  about the frame format of MII Management Interface which is
 523:D:/Work/DeviceTester/amazon-freertos/lib/third_party/mcu_vendor/renesas/rz_mcu_boards/core_package/generate/sc_drivers/r_ether_gr_mango/src/phy\phy.c ****      * provided by "Table 22-12" of "22.2.4.5" of "IEEE 802.3-2008_section2".
 524:D:/Work/DeviceTester/amazon-freertos/lib/third_party/mcu_vendor/renesas/rz_mcu_boards/core_package/generate/sc_drivers/r_ether_gr_mango/src/phy\phy.c ****      */
 525:D:/Work/DeviceTester/amazon-freertos/lib/third_party/mcu_vendor/renesas/rz_mcu_boards/core_package/generate/sc_drivers/r_ether_gr_mango/src/phy\phy.c ****     data = 0;
 526:D:/Work/DeviceTester/amazon-freertos/lib/third_party/mcu_vendor/renesas/rz_mcu_boards/core_package/generate/sc_drivers/r_ether_gr_mango/src/phy\phy.c ****     data = (PHY_MII_ST << 14); /* ST code    */
 527:D:/Work/DeviceTester/amazon-freertos/lib/third_party/mcu_vendor/renesas/rz_mcu_boards/core_package/generate/sc_drivers/r_ether_gr_mango/src/phy\phy.c **** 
 528:D:/Work/DeviceTester/amazon-freertos/lib/third_party/mcu_vendor/renesas/rz_mcu_boards/core_package/generate/sc_drivers/r_ether_gr_mango/src/phy\phy.c ****     if (PHY_MII_READ == option)
 529:D:/Work/DeviceTester/amazon-freertos/lib/third_party/mcu_vendor/renesas/rz_mcu_boards/core_package/generate/sc_drivers/r_ether_gr_mango/src/phy\phy.c ****     {
 530:D:/Work/DeviceTester/amazon-freertos/lib/third_party/mcu_vendor/renesas/rz_mcu_boards/core_package/generate/sc_drivers/r_ether_gr_mango/src/phy\phy.c ****         data |= (PHY_MII_READ << 12); /* OP code(RD)  */
 531:D:/Work/DeviceTester/amazon-freertos/lib/third_party/mcu_vendor/renesas/rz_mcu_boards/core_package/generate/sc_drivers/r_ether_gr_mango/src/phy\phy.c ****     }
 532:D:/Work/DeviceTester/amazon-freertos/lib/third_party/mcu_vendor/renesas/rz_mcu_boards/core_package/generate/sc_drivers/r_ether_gr_mango/src/phy\phy.c ****     else
 533:D:/Work/DeviceTester/amazon-freertos/lib/third_party/mcu_vendor/renesas/rz_mcu_boards/core_package/generate/sc_drivers/r_ether_gr_mango/src/phy\phy.c ****     {
 534:D:/Work/DeviceTester/amazon-freertos/lib/third_party/mcu_vendor/renesas/rz_mcu_boards/core_package/generate/sc_drivers/r_ether_gr_mango/src/phy\phy.c ****         data |= (PHY_MII_WRITE << 12); /* OP code(WT)  */
 535:D:/Work/DeviceTester/amazon-freertos/lib/third_party/mcu_vendor/renesas/rz_mcu_boards/core_package/generate/sc_drivers/r_ether_gr_mango/src/phy\phy.c ****     }
 536:D:/Work/DeviceTester/amazon-freertos/lib/third_party/mcu_vendor/renesas/rz_mcu_boards/core_package/generate/sc_drivers/r_ether_gr_mango/src/phy\phy.c **** 
 537:D:/Work/DeviceTester/amazon-freertos/lib/third_party/mcu_vendor/renesas/rz_mcu_boards/core_package/generate/sc_drivers/r_ether_gr_mango/src/phy\phy.c ****     /* calc address */
 538:D:/Work/DeviceTester/amazon-freertos/lib/third_party/mcu_vendor/renesas/rz_mcu_boards/core_package/generate/sc_drivers/r_ether_gr_mango/src/phy\phy.c ****     data |= (uint16_t) (g_eth_control_ch[ether_channel_index].phy_address << 7); /* PHY Address  */
 539:D:/Work/DeviceTester/amazon-freertos/lib/third_party/mcu_vendor/renesas/rz_mcu_boards/core_package/generate/sc_drivers/r_ether_gr_mango/src/phy\phy.c **** 
 540:D:/Work/DeviceTester/amazon-freertos/lib/third_party/mcu_vendor/renesas/rz_mcu_boards/core_package/generate/sc_drivers/r_ether_gr_mango/src/phy\phy.c ****     data |= (reg_addr << 2); /* Reg Address  */
 541:D:/Work/DeviceTester/amazon-freertos/lib/third_party/mcu_vendor/renesas/rz_mcu_boards/core_package/generate/sc_drivers/r_ether_gr_mango/src/phy\phy.c **** 
 542:D:/Work/DeviceTester/amazon-freertos/lib/third_party/mcu_vendor/renesas/rz_mcu_boards/core_package/generate/sc_drivers/r_ether_gr_mango/src/phy\phy.c ****     i = 14;
 543:D:/Work/DeviceTester/amazon-freertos/lib/third_party/mcu_vendor/renesas/rz_mcu_boards/core_package/generate/sc_drivers/r_ether_gr_mango/src/phy\phy.c ****     while (i > 0)
 544:D:/Work/DeviceTester/amazon-freertos/lib/third_party/mcu_vendor/renesas/rz_mcu_boards/core_package/generate/sc_drivers/r_ether_gr_mango/src/phy\phy.c ****     {
 545:D:/Work/DeviceTester/amazon-freertos/lib/third_party/mcu_vendor/renesas/rz_mcu_boards/core_package/generate/sc_drivers/r_ether_gr_mango/src/phy\phy.c ****         if (0 == (data & 0x8000))
 546:D:/Work/DeviceTester/amazon-freertos/lib/third_party/mcu_vendor/renesas/rz_mcu_boards/core_package/generate/sc_drivers/r_ether_gr_mango/src/phy\phy.c ****         {
 547:D:/Work/DeviceTester/amazon-freertos/lib/third_party/mcu_vendor/renesas/rz_mcu_boards/core_package/generate/sc_drivers/r_ether_gr_mango/src/phy\phy.c ****             phy_mii_write0(ether_channel);
 548:D:/Work/DeviceTester/amazon-freertos/lib/third_party/mcu_vendor/renesas/rz_mcu_boards/core_package/generate/sc_drivers/r_ether_gr_mango/src/phy\phy.c ****         }
 549:D:/Work/DeviceTester/amazon-freertos/lib/third_party/mcu_vendor/renesas/rz_mcu_boards/core_package/generate/sc_drivers/r_ether_gr_mango/src/phy\phy.c ****         else
 550:D:/Work/DeviceTester/amazon-freertos/lib/third_party/mcu_vendor/renesas/rz_mcu_boards/core_package/generate/sc_drivers/r_ether_gr_mango/src/phy\phy.c ****         {
 551:D:/Work/DeviceTester/amazon-freertos/lib/third_party/mcu_vendor/renesas/rz_mcu_boards/core_package/generate/sc_drivers/r_ether_gr_mango/src/phy\phy.c ****             phy_mii_write1(ether_channel);
 552:D:/Work/DeviceTester/amazon-freertos/lib/third_party/mcu_vendor/renesas/rz_mcu_boards/core_package/generate/sc_drivers/r_ether_gr_mango/src/phy\phy.c ****         }
 553:D:/Work/DeviceTester/amazon-freertos/lib/third_party/mcu_vendor/renesas/rz_mcu_boards/core_package/generate/sc_drivers/r_ether_gr_mango/src/phy\phy.c ****         data <<= 1;
 554:D:/Work/DeviceTester/amazon-freertos/lib/third_party/mcu_vendor/renesas/rz_mcu_boards/core_package/generate/sc_drivers/r_ether_gr_mango/src/phy\phy.c ****         i--;
 555:D:/Work/DeviceTester/amazon-freertos/lib/third_party/mcu_vendor/renesas/rz_mcu_boards/core_package/generate/sc_drivers/r_ether_gr_mango/src/phy\phy.c ****     }
 556:D:/Work/DeviceTester/amazon-freertos/lib/third_party/mcu_vendor/renesas/rz_mcu_boards/core_package/generate/sc_drivers/r_ether_gr_mango/src/phy\phy.c **** } /* End of function phy_reg_set() */
 557:D:/Work/DeviceTester/amazon-freertos/lib/third_party/mcu_vendor/renesas/rz_mcu_boards/core_package/generate/sc_drivers/r_ether_gr_mango/src/phy\phy.c **** 
 558:D:/Work/DeviceTester/amazon-freertos/lib/third_party/mcu_vendor/renesas/rz_mcu_boards/core_package/generate/sc_drivers/r_ether_gr_mango/src/phy\phy.c **** /**************************************************************************************************
 559:D:/Work/DeviceTester/amazon-freertos/lib/third_party/mcu_vendor/renesas/rz_mcu_boards/core_package/generate/sc_drivers/r_ether_gr_mango/src/phy\phy.c ****  * Function Name: phy_reg_read
 560:D:/Work/DeviceTester/amazon-freertos/lib/third_party/mcu_vendor/renesas/rz_mcu_boards/core_package/generate/sc_drivers/r_ether_gr_mango/src/phy\phy.c ****  * Description  : Reads PHY register through MII interface
 561:D:/Work/DeviceTester/amazon-freertos/lib/third_party/mcu_vendor/renesas/rz_mcu_boards/core_package/generate/sc_drivers/r_ether_gr_mango/src/phy\phy.c ****  * Arguments    : ether_channel -
 562:D:/Work/DeviceTester/amazon-freertos/lib/third_party/mcu_vendor/renesas/rz_mcu_boards/core_package/generate/sc_drivers/r_ether_gr_mango/src/phy\phy.c ****  *                    Ethernet channel number
 563:D:/Work/DeviceTester/amazon-freertos/lib/third_party/mcu_vendor/renesas/rz_mcu_boards/core_package/generate/sc_drivers/r_ether_gr_mango/src/phy\phy.c ****  *                pdata -
 564:D:/Work/DeviceTester/amazon-freertos/lib/third_party/mcu_vendor/renesas/rz_mcu_boards/core_package/generate/sc_drivers/r_ether_gr_mango/src/phy\phy.c ****  *                    pointer to store the data read
 565:D:/Work/DeviceTester/amazon-freertos/lib/third_party/mcu_vendor/renesas/rz_mcu_boards/core_package/generate/sc_drivers/r_ether_gr_mango/src/phy\phy.c ****  * Return Value : none
 566:D:/Work/DeviceTester/amazon-freertos/lib/third_party/mcu_vendor/renesas/rz_mcu_boards/core_package/generate/sc_drivers/r_ether_gr_mango/src/phy\phy.c ****  **************************************************************************************************
 567:D:/Work/DeviceTester/amazon-freertos/lib/third_party/mcu_vendor/renesas/rz_mcu_boards/core_package/generate/sc_drivers/r_ether_gr_mango/src/phy\phy.c **** static void phy_reg_read (uint32_t ether_channel, uint16_t *pdata)
 568:D:/Work/DeviceTester/amazon-freertos/lib/third_party/mcu_vendor/renesas/rz_mcu_boards/core_package/generate/sc_drivers/r_ether_gr_mango/src/phy\phy.c **** {
 569:D:/Work/DeviceTester/amazon-freertos/lib/third_party/mcu_vendor/renesas/rz_mcu_boards/core_package/generate/sc_drivers/r_ether_gr_mango/src/phy\phy.c ****     int32_t i;
 570:D:/Work/DeviceTester/amazon-freertos/lib/third_party/mcu_vendor/renesas/rz_mcu_boards/core_package/generate/sc_drivers/r_ether_gr_mango/src/phy\phy.c ****     int32_t j;
 571:D:/Work/DeviceTester/amazon-freertos/lib/third_party/mcu_vendor/renesas/rz_mcu_boards/core_package/generate/sc_drivers/r_ether_gr_mango/src/phy\phy.c ****     uint16_t reg_data;
 572:D:/Work/DeviceTester/amazon-freertos/lib/third_party/mcu_vendor/renesas/rz_mcu_boards/core_package/generate/sc_drivers/r_ether_gr_mango/src/phy\phy.c ****     int16_t ret;
 573:D:/Work/DeviceTester/amazon-freertos/lib/third_party/mcu_vendor/renesas/rz_mcu_boards/core_package/generate/sc_drivers/r_ether_gr_mango/src/phy\phy.c ****     volatile uint32_t * p_etherc_pir;
 574:D:/Work/DeviceTester/amazon-freertos/lib/third_party/mcu_vendor/renesas/rz_mcu_boards/core_package/generate/sc_drivers/r_ether_gr_mango/src/phy\phy.c **** 
 575:D:/Work/DeviceTester/amazon-freertos/lib/third_party/mcu_vendor/renesas/rz_mcu_boards/core_package/generate/sc_drivers/r_ether_gr_mango/src/phy\phy.c ****     ret = phy_get_pir_address(ether_channel, &p_etherc_pir);
 576:D:/Work/DeviceTester/amazon-freertos/lib/third_party/mcu_vendor/renesas/rz_mcu_boards/core_package/generate/sc_drivers/r_ether_gr_mango/src/phy\phy.c ****     if (R_PHY_ERROR == ret)
 577:D:/Work/DeviceTester/amazon-freertos/lib/third_party/mcu_vendor/renesas/rz_mcu_boards/core_package/generate/sc_drivers/r_ether_gr_mango/src/phy\phy.c ****     {
 578:D:/Work/DeviceTester/amazon-freertos/lib/third_party/mcu_vendor/renesas/rz_mcu_boards/core_package/generate/sc_drivers/r_ether_gr_mango/src/phy\phy.c ****         return;
 579:D:/Work/DeviceTester/amazon-freertos/lib/third_party/mcu_vendor/renesas/rz_mcu_boards/core_package/generate/sc_drivers/r_ether_gr_mango/src/phy\phy.c ****     }
 580:D:/Work/DeviceTester/amazon-freertos/lib/third_party/mcu_vendor/renesas/rz_mcu_boards/core_package/generate/sc_drivers/r_ether_gr_mango/src/phy\phy.c **** 
 581:D:/Work/DeviceTester/amazon-freertos/lib/third_party/mcu_vendor/renesas/rz_mcu_boards/core_package/generate/sc_drivers/r_ether_gr_mango/src/phy\phy.c ****     /*
 582:D:/Work/DeviceTester/amazon-freertos/lib/third_party/mcu_vendor/renesas/rz_mcu_boards/core_package/generate/sc_drivers/r_ether_gr_mango/src/phy\phy.c ****      * The processing of DATA (data) about reading of the frame format of MII Management Interface 
 583:D:/Work/DeviceTester/amazon-freertos/lib/third_party/mcu_vendor/renesas/rz_mcu_boards/core_package/generate/sc_drivers/r_ether_gr_mango/src/phy\phy.c ****      * provided by "Table 22-12" of "22.2.4.5" of "IEEE 802.3-2008_section2".
 584:D:/Work/DeviceTester/amazon-freertos/lib/third_party/mcu_vendor/renesas/rz_mcu_boards/core_package/generate/sc_drivers/r_ether_gr_mango/src/phy\phy.c ****      */
 585:D:/Work/DeviceTester/amazon-freertos/lib/third_party/mcu_vendor/renesas/rz_mcu_boards/core_package/generate/sc_drivers/r_ether_gr_mango/src/phy\phy.c ****     reg_data = 0;
 586:D:/Work/DeviceTester/amazon-freertos/lib/third_party/mcu_vendor/renesas/rz_mcu_boards/core_package/generate/sc_drivers/r_ether_gr_mango/src/phy\phy.c ****     i = 16;
 587:D:/Work/DeviceTester/amazon-freertos/lib/third_party/mcu_vendor/renesas/rz_mcu_boards/core_package/generate/sc_drivers/r_ether_gr_mango/src/phy\phy.c ****     while (i > 0)
 588:D:/Work/DeviceTester/amazon-freertos/lib/third_party/mcu_vendor/renesas/rz_mcu_boards/core_package/generate/sc_drivers/r_ether_gr_mango/src/phy\phy.c ****     {
 589:D:/Work/DeviceTester/amazon-freertos/lib/third_party/mcu_vendor/renesas/rz_mcu_boards/core_package/generate/sc_drivers/r_ether_gr_mango/src/phy\phy.c ****         for (j = g_ether_sc_table[0].config.ether_phy_mii_wait; j > 0; j--)
 590:D:/Work/DeviceTester/amazon-freertos/lib/third_party/mcu_vendor/renesas/rz_mcu_boards/core_package/generate/sc_drivers/r_ether_gr_mango/src/phy\phy.c ****         {
 591:D:/Work/DeviceTester/amazon-freertos/lib/third_party/mcu_vendor/renesas/rz_mcu_boards/core_package/generate/sc_drivers/r_ether_gr_mango/src/phy\phy.c ****             (*p_etherc_pir) = 0x00000000;
 592:D:/Work/DeviceTester/amazon-freertos/lib/third_party/mcu_vendor/renesas/rz_mcu_boards/core_package/generate/sc_drivers/r_ether_gr_mango/src/phy\phy.c ****         }
 593:D:/Work/DeviceTester/amazon-freertos/lib/third_party/mcu_vendor/renesas/rz_mcu_boards/core_package/generate/sc_drivers/r_ether_gr_mango/src/phy\phy.c **** 
 594:D:/Work/DeviceTester/amazon-freertos/lib/third_party/mcu_vendor/renesas/rz_mcu_boards/core_package/generate/sc_drivers/r_ether_gr_mango/src/phy\phy.c ****         for (j = g_ether_sc_table[0].config.ether_phy_mii_wait; j > 0; j--)
 595:D:/Work/DeviceTester/amazon-freertos/lib/third_party/mcu_vendor/renesas/rz_mcu_boards/core_package/generate/sc_drivers/r_ether_gr_mango/src/phy\phy.c ****         {
 596:D:/Work/DeviceTester/amazon-freertos/lib/third_party/mcu_vendor/renesas/rz_mcu_boards/core_package/generate/sc_drivers/r_ether_gr_mango/src/phy\phy.c ****             (*p_etherc_pir) = 0x00000001;
 597:D:/Work/DeviceTester/amazon-freertos/lib/third_party/mcu_vendor/renesas/rz_mcu_boards/core_package/generate/sc_drivers/r_ether_gr_mango/src/phy\phy.c ****         }
 598:D:/Work/DeviceTester/amazon-freertos/lib/third_party/mcu_vendor/renesas/rz_mcu_boards/core_package/generate/sc_drivers/r_ether_gr_mango/src/phy\phy.c ****         reg_data <<= 1;
 599:D:/Work/DeviceTester/amazon-freertos/lib/third_party/mcu_vendor/renesas/rz_mcu_boards/core_package/generate/sc_drivers/r_ether_gr_mango/src/phy\phy.c **** 
 600:D:/Work/DeviceTester/amazon-freertos/lib/third_party/mcu_vendor/renesas/rz_mcu_boards/core_package/generate/sc_drivers/r_ether_gr_mango/src/phy\phy.c ****         /* calc address */
 601:D:/Work/DeviceTester/amazon-freertos/lib/third_party/mcu_vendor/renesas/rz_mcu_boards/core_package/generate/sc_drivers/r_ether_gr_mango/src/phy\phy.c ****         reg_data |= (uint16_t) (((*p_etherc_pir) & 0x00000008) >> 3); /* MDI read  */
 602:D:/Work/DeviceTester/amazon-freertos/lib/third_party/mcu_vendor/renesas/rz_mcu_boards/core_package/generate/sc_drivers/r_ether_gr_mango/src/phy\phy.c **** 
 603:D:/Work/DeviceTester/amazon-freertos/lib/third_party/mcu_vendor/renesas/rz_mcu_boards/core_package/generate/sc_drivers/r_ether_gr_mango/src/phy\phy.c ****         for (j = g_ether_sc_table[0].config.ether_phy_mii_wait; j > 0; j--)
 604:D:/Work/DeviceTester/amazon-freertos/lib/third_party/mcu_vendor/renesas/rz_mcu_boards/core_package/generate/sc_drivers/r_ether_gr_mango/src/phy\phy.c ****         {
 605:D:/Work/DeviceTester/amazon-freertos/lib/third_party/mcu_vendor/renesas/rz_mcu_boards/core_package/generate/sc_drivers/r_ether_gr_mango/src/phy\phy.c ****             (*p_etherc_pir) = 0x00000001;
 606:D:/Work/DeviceTester/amazon-freertos/lib/third_party/mcu_vendor/renesas/rz_mcu_boards/core_package/generate/sc_drivers/r_ether_gr_mango/src/phy\phy.c ****         }
 607:D:/Work/DeviceTester/amazon-freertos/lib/third_party/mcu_vendor/renesas/rz_mcu_boards/core_package/generate/sc_drivers/r_ether_gr_mango/src/phy\phy.c **** 
 608:D:/Work/DeviceTester/amazon-freertos/lib/third_party/mcu_vendor/renesas/rz_mcu_boards/core_package/generate/sc_drivers/r_ether_gr_mango/src/phy\phy.c ****         for (j = g_ether_sc_table[0].config.ether_phy_mii_wait; j > 0; j--)
 609:D:/Work/DeviceTester/amazon-freertos/lib/third_party/mcu_vendor/renesas/rz_mcu_boards/core_package/generate/sc_drivers/r_ether_gr_mango/src/phy\phy.c ****         {
 610:D:/Work/DeviceTester/amazon-freertos/lib/third_party/mcu_vendor/renesas/rz_mcu_boards/core_package/generate/sc_drivers/r_ether_gr_mango/src/phy\phy.c ****             (*p_etherc_pir) = 0x00000000;
 611:D:/Work/DeviceTester/amazon-freertos/lib/third_party/mcu_vendor/renesas/rz_mcu_boards/core_package/generate/sc_drivers/r_ether_gr_mango/src/phy\phy.c ****         }
 612:D:/Work/DeviceTester/amazon-freertos/lib/third_party/mcu_vendor/renesas/rz_mcu_boards/core_package/generate/sc_drivers/r_ether_gr_mango/src/phy\phy.c **** 
 613:D:/Work/DeviceTester/amazon-freertos/lib/third_party/mcu_vendor/renesas/rz_mcu_boards/core_package/generate/sc_drivers/r_ether_gr_mango/src/phy\phy.c ****         i--;
 614:D:/Work/DeviceTester/amazon-freertos/lib/third_party/mcu_vendor/renesas/rz_mcu_boards/core_package/generate/sc_drivers/r_ether_gr_mango/src/phy\phy.c ****     }
 615:D:/Work/DeviceTester/amazon-freertos/lib/third_party/mcu_vendor/renesas/rz_mcu_boards/core_package/generate/sc_drivers/r_ether_gr_mango/src/phy\phy.c ****     (*pdata) = reg_data;
 616:D:/Work/DeviceTester/amazon-freertos/lib/third_party/mcu_vendor/renesas/rz_mcu_boards/core_package/generate/sc_drivers/r_ether_gr_mango/src/phy\phy.c **** } /* End of function phy_reg_read() */
 617:D:/Work/DeviceTester/amazon-freertos/lib/third_party/mcu_vendor/renesas/rz_mcu_boards/core_package/generate/sc_drivers/r_ether_gr_mango/src/phy\phy.c **** 
 618:D:/Work/DeviceTester/amazon-freertos/lib/third_party/mcu_vendor/renesas/rz_mcu_boards/core_package/generate/sc_drivers/r_ether_gr_mango/src/phy\phy.c **** /**************************************************************************************************
 619:D:/Work/DeviceTester/amazon-freertos/lib/third_party/mcu_vendor/renesas/rz_mcu_boards/core_package/generate/sc_drivers/r_ether_gr_mango/src/phy\phy.c ****  * Function Name: phy_reg_write
 620:D:/Work/DeviceTester/amazon-freertos/lib/third_party/mcu_vendor/renesas/rz_mcu_boards/core_package/generate/sc_drivers/r_ether_gr_mango/src/phy\phy.c ****  * Description  : Writes to PHY register through MII interface
 621:D:/Work/DeviceTester/amazon-freertos/lib/third_party/mcu_vendor/renesas/rz_mcu_boards/core_package/generate/sc_drivers/r_ether_gr_mango/src/phy\phy.c ****  * Arguments    : ether_channel -
 622:D:/Work/DeviceTester/amazon-freertos/lib/third_party/mcu_vendor/renesas/rz_mcu_boards/core_package/generate/sc_drivers/r_ether_gr_mango/src/phy\phy.c ****  *                    Ethernet channel number
 623:D:/Work/DeviceTester/amazon-freertos/lib/third_party/mcu_vendor/renesas/rz_mcu_boards/core_package/generate/sc_drivers/r_ether_gr_mango/src/phy\phy.c ****  *                data -
 624:D:/Work/DeviceTester/amazon-freertos/lib/third_party/mcu_vendor/renesas/rz_mcu_boards/core_package/generate/sc_drivers/r_ether_gr_mango/src/phy\phy.c ****  *                    value to write
 625:D:/Work/DeviceTester/amazon-freertos/lib/third_party/mcu_vendor/renesas/rz_mcu_boards/core_package/generate/sc_drivers/r_ether_gr_mango/src/phy\phy.c ****  * Return Value : none
 626:D:/Work/DeviceTester/amazon-freertos/lib/third_party/mcu_vendor/renesas/rz_mcu_boards/core_package/generate/sc_drivers/r_ether_gr_mango/src/phy\phy.c ****  **************************************************************************************************
 627:D:/Work/DeviceTester/amazon-freertos/lib/third_party/mcu_vendor/renesas/rz_mcu_boards/core_package/generate/sc_drivers/r_ether_gr_mango/src/phy\phy.c **** static void phy_reg_write (uint32_t ether_channel, uint16_t data)
 628:D:/Work/DeviceTester/amazon-freertos/lib/third_party/mcu_vendor/renesas/rz_mcu_boards/core_package/generate/sc_drivers/r_ether_gr_mango/src/phy\phy.c **** {
 629:D:/Work/DeviceTester/amazon-freertos/lib/third_party/mcu_vendor/renesas/rz_mcu_boards/core_package/generate/sc_drivers/r_ether_gr_mango/src/phy\phy.c ****     int32_t i;
 630:D:/Work/DeviceTester/amazon-freertos/lib/third_party/mcu_vendor/renesas/rz_mcu_boards/core_package/generate/sc_drivers/r_ether_gr_mango/src/phy\phy.c **** 
 631:D:/Work/DeviceTester/amazon-freertos/lib/third_party/mcu_vendor/renesas/rz_mcu_boards/core_package/generate/sc_drivers/r_ether_gr_mango/src/phy\phy.c ****     /*
 632:D:/Work/DeviceTester/amazon-freertos/lib/third_party/mcu_vendor/renesas/rz_mcu_boards/core_package/generate/sc_drivers/r_ether_gr_mango/src/phy\phy.c ****      * The processing of DATA (data) about writing of the frame format of MII Management Interface 
 633:D:/Work/DeviceTester/amazon-freertos/lib/third_party/mcu_vendor/renesas/rz_mcu_boards/core_package/generate/sc_drivers/r_ether_gr_mango/src/phy\phy.c ****      * provided by "Table 22-12" of "22.2.4.5" of "IEEE 802.3-2008_section2".
 634:D:/Work/DeviceTester/amazon-freertos/lib/third_party/mcu_vendor/renesas/rz_mcu_boards/core_package/generate/sc_drivers/r_ether_gr_mango/src/phy\phy.c ****      */
 635:D:/Work/DeviceTester/amazon-freertos/lib/third_party/mcu_vendor/renesas/rz_mcu_boards/core_package/generate/sc_drivers/r_ether_gr_mango/src/phy\phy.c ****     i = 16;
 636:D:/Work/DeviceTester/amazon-freertos/lib/third_party/mcu_vendor/renesas/rz_mcu_boards/core_package/generate/sc_drivers/r_ether_gr_mango/src/phy\phy.c ****     while (i > 0)
 637:D:/Work/DeviceTester/amazon-freertos/lib/third_party/mcu_vendor/renesas/rz_mcu_boards/core_package/generate/sc_drivers/r_ether_gr_mango/src/phy\phy.c ****     {
 638:D:/Work/DeviceTester/amazon-freertos/lib/third_party/mcu_vendor/renesas/rz_mcu_boards/core_package/generate/sc_drivers/r_ether_gr_mango/src/phy\phy.c ****         if (0 == (data & 0x8000))
 639:D:/Work/DeviceTester/amazon-freertos/lib/third_party/mcu_vendor/renesas/rz_mcu_boards/core_package/generate/sc_drivers/r_ether_gr_mango/src/phy\phy.c ****         {
 640:D:/Work/DeviceTester/amazon-freertos/lib/third_party/mcu_vendor/renesas/rz_mcu_boards/core_package/generate/sc_drivers/r_ether_gr_mango/src/phy\phy.c ****             phy_mii_write0(ether_channel);
 641:D:/Work/DeviceTester/amazon-freertos/lib/third_party/mcu_vendor/renesas/rz_mcu_boards/core_package/generate/sc_drivers/r_ether_gr_mango/src/phy\phy.c ****         }
 642:D:/Work/DeviceTester/amazon-freertos/lib/third_party/mcu_vendor/renesas/rz_mcu_boards/core_package/generate/sc_drivers/r_ether_gr_mango/src/phy\phy.c ****         else
 643:D:/Work/DeviceTester/amazon-freertos/lib/third_party/mcu_vendor/renesas/rz_mcu_boards/core_package/generate/sc_drivers/r_ether_gr_mango/src/phy\phy.c ****         {
 644:D:/Work/DeviceTester/amazon-freertos/lib/third_party/mcu_vendor/renesas/rz_mcu_boards/core_package/generate/sc_drivers/r_ether_gr_mango/src/phy\phy.c ****             phy_mii_write1(ether_channel);
 645:D:/Work/DeviceTester/amazon-freertos/lib/third_party/mcu_vendor/renesas/rz_mcu_boards/core_package/generate/sc_drivers/r_ether_gr_mango/src/phy\phy.c ****         }
 646:D:/Work/DeviceTester/amazon-freertos/lib/third_party/mcu_vendor/renesas/rz_mcu_boards/core_package/generate/sc_drivers/r_ether_gr_mango/src/phy\phy.c ****         i--;
 647:D:/Work/DeviceTester/amazon-freertos/lib/third_party/mcu_vendor/renesas/rz_mcu_boards/core_package/generate/sc_drivers/r_ether_gr_mango/src/phy\phy.c ****         data <<= 1;
 648:D:/Work/DeviceTester/amazon-freertos/lib/third_party/mcu_vendor/renesas/rz_mcu_boards/core_package/generate/sc_drivers/r_ether_gr_mango/src/phy\phy.c ****     }
 649:D:/Work/DeviceTester/amazon-freertos/lib/third_party/mcu_vendor/renesas/rz_mcu_boards/core_package/generate/sc_drivers/r_ether_gr_mango/src/phy\phy.c **** } /* End of function phy_reg_write() */
 650:D:/Work/DeviceTester/amazon-freertos/lib/third_party/mcu_vendor/renesas/rz_mcu_boards/core_package/generate/sc_drivers/r_ether_gr_mango/src/phy\phy.c **** 
 651:D:/Work/DeviceTester/amazon-freertos/lib/third_party/mcu_vendor/renesas/rz_mcu_boards/core_package/generate/sc_drivers/r_ether_gr_mango/src/phy\phy.c **** /**************************************************************************************************
 652:D:/Work/DeviceTester/amazon-freertos/lib/third_party/mcu_vendor/renesas/rz_mcu_boards/core_package/generate/sc_drivers/r_ether_gr_mango/src/phy\phy.c ****  * Function Name: phy_trans_zto0
 653:D:/Work/DeviceTester/amazon-freertos/lib/third_party/mcu_vendor/renesas/rz_mcu_boards/core_package/generate/sc_drivers/r_ether_gr_mango/src/phy\phy.c ****  * Description  : Performs bus release so that PHY can drive data
 654:D:/Work/DeviceTester/amazon-freertos/lib/third_party/mcu_vendor/renesas/rz_mcu_boards/core_package/generate/sc_drivers/r_ether_gr_mango/src/phy\phy.c ****  *              : for read operation
 655:D:/Work/DeviceTester/amazon-freertos/lib/third_party/mcu_vendor/renesas/rz_mcu_boards/core_package/generate/sc_drivers/r_ether_gr_mango/src/phy\phy.c ****  * Arguments    : ether_channel -
 656:D:/Work/DeviceTester/amazon-freertos/lib/third_party/mcu_vendor/renesas/rz_mcu_boards/core_package/generate/sc_drivers/r_ether_gr_mango/src/phy\phy.c ****  *                    Ethernet channel number
 657:D:/Work/DeviceTester/amazon-freertos/lib/third_party/mcu_vendor/renesas/rz_mcu_boards/core_package/generate/sc_drivers/r_ether_gr_mango/src/phy\phy.c ****  * Return Value : none
 658:D:/Work/DeviceTester/amazon-freertos/lib/third_party/mcu_vendor/renesas/rz_mcu_boards/core_package/generate/sc_drivers/r_ether_gr_mango/src/phy\phy.c ****  **************************************************************************************************
 659:D:/Work/DeviceTester/amazon-freertos/lib/third_party/mcu_vendor/renesas/rz_mcu_boards/core_package/generate/sc_drivers/r_ether_gr_mango/src/phy\phy.c **** static void phy_trans_zto0 (uint32_t ether_channel)
 660:D:/Work/DeviceTester/amazon-freertos/lib/third_party/mcu_vendor/renesas/rz_mcu_boards/core_package/generate/sc_drivers/r_ether_gr_mango/src/phy\phy.c **** {
  25              		.loc 1 660 0
  26              		.cfi_startproc
  27              		@ args = 0, pretend = 0, frame = 0
  28              		@ frame_needed = 0, uses_anonymous_args = 0
  29              		@ link register save eliminated.
  30              	.LVL0:
  31              	.LBB18:
  32              	.LBB19:
 661:D:/Work/DeviceTester/amazon-freertos/lib/third_party/mcu_vendor/renesas/rz_mcu_boards/core_package/generate/sc_drivers/r_ether_gr_mango/src/phy\phy.c ****     int32_t j;
 662:D:/Work/DeviceTester/amazon-freertos/lib/third_party/mcu_vendor/renesas/rz_mcu_boards/core_package/generate/sc_drivers/r_ether_gr_mango/src/phy\phy.c ****     int16_t ret;
 663:D:/Work/DeviceTester/amazon-freertos/lib/third_party/mcu_vendor/renesas/rz_mcu_boards/core_package/generate/sc_drivers/r_ether_gr_mango/src/phy\phy.c ****     volatile uint32_t * p_etherc_pir;
 664:D:/Work/DeviceTester/amazon-freertos/lib/third_party/mcu_vendor/renesas/rz_mcu_boards/core_package/generate/sc_drivers/r_ether_gr_mango/src/phy\phy.c **** 
 665:D:/Work/DeviceTester/amazon-freertos/lib/third_party/mcu_vendor/renesas/rz_mcu_boards/core_package/generate/sc_drivers/r_ether_gr_mango/src/phy\phy.c ****     ret = phy_get_pir_address(ether_channel, &p_etherc_pir);
 666:D:/Work/DeviceTester/amazon-freertos/lib/third_party/mcu_vendor/renesas/rz_mcu_boards/core_package/generate/sc_drivers/r_ether_gr_mango/src/phy\phy.c ****     if (R_PHY_ERROR == ret)
 667:D:/Work/DeviceTester/amazon-freertos/lib/third_party/mcu_vendor/renesas/rz_mcu_boards/core_package/generate/sc_drivers/r_ether_gr_mango/src/phy\phy.c ****     {
 668:D:/Work/DeviceTester/amazon-freertos/lib/third_party/mcu_vendor/renesas/rz_mcu_boards/core_package/generate/sc_drivers/r_ether_gr_mango/src/phy\phy.c ****         return;
 669:D:/Work/DeviceTester/amazon-freertos/lib/third_party/mcu_vendor/renesas/rz_mcu_boards/core_package/generate/sc_drivers/r_ether_gr_mango/src/phy\phy.c ****     }
 670:D:/Work/DeviceTester/amazon-freertos/lib/third_party/mcu_vendor/renesas/rz_mcu_boards/core_package/generate/sc_drivers/r_ether_gr_mango/src/phy\phy.c **** 
 671:D:/Work/DeviceTester/amazon-freertos/lib/third_party/mcu_vendor/renesas/rz_mcu_boards/core_package/generate/sc_drivers/r_ether_gr_mango/src/phy\phy.c ****     /*
 672:D:/Work/DeviceTester/amazon-freertos/lib/third_party/mcu_vendor/renesas/rz_mcu_boards/core_package/generate/sc_drivers/r_ether_gr_mango/src/phy\phy.c ****      * The processing of TA (turnaround) about reading of the frame format of MII Management Interf
 673:D:/Work/DeviceTester/amazon-freertos/lib/third_party/mcu_vendor/renesas/rz_mcu_boards/core_package/generate/sc_drivers/r_ether_gr_mango/src/phy\phy.c ****      * provided by "Table 22-12" of "22.2.4.5" of "IEEE 802.3-2008_section2".
 674:D:/Work/DeviceTester/amazon-freertos/lib/third_party/mcu_vendor/renesas/rz_mcu_boards/core_package/generate/sc_drivers/r_ether_gr_mango/src/phy\phy.c ****      */
 675:D:/Work/DeviceTester/amazon-freertos/lib/third_party/mcu_vendor/renesas/rz_mcu_boards/core_package/generate/sc_drivers/r_ether_gr_mango/src/phy\phy.c ****     for (j = g_ether_sc_table[0].config.ether_phy_mii_wait; j > 0; j--)
 676:D:/Work/DeviceTester/amazon-freertos/lib/third_party/mcu_vendor/renesas/rz_mcu_boards/core_package/generate/sc_drivers/r_ether_gr_mango/src/phy\phy.c ****     {
 677:D:/Work/DeviceTester/amazon-freertos/lib/third_party/mcu_vendor/renesas/rz_mcu_boards/core_package/generate/sc_drivers/r_ether_gr_mango/src/phy\phy.c ****         (*p_etherc_pir) = 0x00000000;
 678:D:/Work/DeviceTester/amazon-freertos/lib/third_party/mcu_vendor/renesas/rz_mcu_boards/core_package/generate/sc_drivers/r_ether_gr_mango/src/phy\phy.c ****     }
 679:D:/Work/DeviceTester/amazon-freertos/lib/third_party/mcu_vendor/renesas/rz_mcu_boards/core_package/generate/sc_drivers/r_ether_gr_mango/src/phy\phy.c **** 
 680:D:/Work/DeviceTester/amazon-freertos/lib/third_party/mcu_vendor/renesas/rz_mcu_boards/core_package/generate/sc_drivers/r_ether_gr_mango/src/phy\phy.c ****     for (j = g_ether_sc_table[0].config.ether_phy_mii_wait; j > 0; j--)
 681:D:/Work/DeviceTester/amazon-freertos/lib/third_party/mcu_vendor/renesas/rz_mcu_boards/core_package/generate/sc_drivers/r_ether_gr_mango/src/phy\phy.c ****     {
 682:D:/Work/DeviceTester/amazon-freertos/lib/third_party/mcu_vendor/renesas/rz_mcu_boards/core_package/generate/sc_drivers/r_ether_gr_mango/src/phy\phy.c ****         (*p_etherc_pir) = 0x00000001;
 683:D:/Work/DeviceTester/amazon-freertos/lib/third_party/mcu_vendor/renesas/rz_mcu_boards/core_package/generate/sc_drivers/r_ether_gr_mango/src/phy\phy.c ****     }
 684:D:/Work/DeviceTester/amazon-freertos/lib/third_party/mcu_vendor/renesas/rz_mcu_boards/core_package/generate/sc_drivers/r_ether_gr_mango/src/phy\phy.c **** 
 685:D:/Work/DeviceTester/amazon-freertos/lib/third_party/mcu_vendor/renesas/rz_mcu_boards/core_package/generate/sc_drivers/r_ether_gr_mango/src/phy\phy.c ****     for (j = g_ether_sc_table[0].config.ether_phy_mii_wait; j > 0; j--)
 686:D:/Work/DeviceTester/amazon-freertos/lib/third_party/mcu_vendor/renesas/rz_mcu_boards/core_package/generate/sc_drivers/r_ether_gr_mango/src/phy\phy.c ****     {
 687:D:/Work/DeviceTester/amazon-freertos/lib/third_party/mcu_vendor/renesas/rz_mcu_boards/core_package/generate/sc_drivers/r_ether_gr_mango/src/phy\phy.c ****         (*p_etherc_pir) = 0x00000001;
 688:D:/Work/DeviceTester/amazon-freertos/lib/third_party/mcu_vendor/renesas/rz_mcu_boards/core_package/generate/sc_drivers/r_ether_gr_mango/src/phy\phy.c ****     }
 689:D:/Work/DeviceTester/amazon-freertos/lib/third_party/mcu_vendor/renesas/rz_mcu_boards/core_package/generate/sc_drivers/r_ether_gr_mango/src/phy\phy.c **** 
 690:D:/Work/DeviceTester/amazon-freertos/lib/third_party/mcu_vendor/renesas/rz_mcu_boards/core_package/generate/sc_drivers/r_ether_gr_mango/src/phy\phy.c ****     for (j = g_ether_sc_table[0].config.ether_phy_mii_wait; j > 0; j--)
 691:D:/Work/DeviceTester/amazon-freertos/lib/third_party/mcu_vendor/renesas/rz_mcu_boards/core_package/generate/sc_drivers/r_ether_gr_mango/src/phy\phy.c ****     {
 692:D:/Work/DeviceTester/amazon-freertos/lib/third_party/mcu_vendor/renesas/rz_mcu_boards/core_package/generate/sc_drivers/r_ether_gr_mango/src/phy\phy.c ****         (*p_etherc_pir) = 0x00000000;
 693:D:/Work/DeviceTester/amazon-freertos/lib/third_party/mcu_vendor/renesas/rz_mcu_boards/core_package/generate/sc_drivers/r_ether_gr_mango/src/phy\phy.c ****     }
 694:D:/Work/DeviceTester/amazon-freertos/lib/third_party/mcu_vendor/renesas/rz_mcu_boards/core_package/generate/sc_drivers/r_ether_gr_mango/src/phy\phy.c **** 
 695:D:/Work/DeviceTester/amazon-freertos/lib/third_party/mcu_vendor/renesas/rz_mcu_boards/core_package/generate/sc_drivers/r_ether_gr_mango/src/phy\phy.c **** } /* End of function phy_trans_zto0() */
 696:D:/Work/DeviceTester/amazon-freertos/lib/third_party/mcu_vendor/renesas/rz_mcu_boards/core_package/generate/sc_drivers/r_ether_gr_mango/src/phy\phy.c **** 
 697:D:/Work/DeviceTester/amazon-freertos/lib/third_party/mcu_vendor/renesas/rz_mcu_boards/core_package/generate/sc_drivers/r_ether_gr_mango/src/phy\phy.c **** /**************************************************************************************************
 698:D:/Work/DeviceTester/amazon-freertos/lib/third_party/mcu_vendor/renesas/rz_mcu_boards/core_package/generate/sc_drivers/r_ether_gr_mango/src/phy\phy.c ****  * Function Name: phy_trans_1to0
 699:D:/Work/DeviceTester/amazon-freertos/lib/third_party/mcu_vendor/renesas/rz_mcu_boards/core_package/generate/sc_drivers/r_ether_gr_mango/src/phy\phy.c ****  * Description  : Switches data bus so MII interface can drive data
 700:D:/Work/DeviceTester/amazon-freertos/lib/third_party/mcu_vendor/renesas/rz_mcu_boards/core_package/generate/sc_drivers/r_ether_gr_mango/src/phy\phy.c ****  *              : for write operation
 701:D:/Work/DeviceTester/amazon-freertos/lib/third_party/mcu_vendor/renesas/rz_mcu_boards/core_package/generate/sc_drivers/r_ether_gr_mango/src/phy\phy.c ****  * Arguments    : ether_channel -
 702:D:/Work/DeviceTester/amazon-freertos/lib/third_party/mcu_vendor/renesas/rz_mcu_boards/core_package/generate/sc_drivers/r_ether_gr_mango/src/phy\phy.c ****  *                    Ethernet channel number
 703:D:/Work/DeviceTester/amazon-freertos/lib/third_party/mcu_vendor/renesas/rz_mcu_boards/core_package/generate/sc_drivers/r_ether_gr_mango/src/phy\phy.c ****  * Return Value : none
 704:D:/Work/DeviceTester/amazon-freertos/lib/third_party/mcu_vendor/renesas/rz_mcu_boards/core_package/generate/sc_drivers/r_ether_gr_mango/src/phy\phy.c ****  **************************************************************************************************
 705:D:/Work/DeviceTester/amazon-freertos/lib/third_party/mcu_vendor/renesas/rz_mcu_boards/core_package/generate/sc_drivers/r_ether_gr_mango/src/phy\phy.c **** static void phy_trans_1to0 (uint32_t ether_channel)
 706:D:/Work/DeviceTester/amazon-freertos/lib/third_party/mcu_vendor/renesas/rz_mcu_boards/core_package/generate/sc_drivers/r_ether_gr_mango/src/phy\phy.c **** {
 707:D:/Work/DeviceTester/amazon-freertos/lib/third_party/mcu_vendor/renesas/rz_mcu_boards/core_package/generate/sc_drivers/r_ether_gr_mango/src/phy\phy.c ****     /*
 708:D:/Work/DeviceTester/amazon-freertos/lib/third_party/mcu_vendor/renesas/rz_mcu_boards/core_package/generate/sc_drivers/r_ether_gr_mango/src/phy\phy.c ****      * The processing of TA (turnaround) about writing of the frame format of MII Management Interf
 709:D:/Work/DeviceTester/amazon-freertos/lib/third_party/mcu_vendor/renesas/rz_mcu_boards/core_package/generate/sc_drivers/r_ether_gr_mango/src/phy\phy.c ****      * provided by "Table 22-12" of "22.2.4.5" of "IEEE 802.3-2008_section2".
 710:D:/Work/DeviceTester/amazon-freertos/lib/third_party/mcu_vendor/renesas/rz_mcu_boards/core_package/generate/sc_drivers/r_ether_gr_mango/src/phy\phy.c ****      */
 711:D:/Work/DeviceTester/amazon-freertos/lib/third_party/mcu_vendor/renesas/rz_mcu_boards/core_package/generate/sc_drivers/r_ether_gr_mango/src/phy\phy.c ****     phy_mii_write1(ether_channel);
 712:D:/Work/DeviceTester/amazon-freertos/lib/third_party/mcu_vendor/renesas/rz_mcu_boards/core_package/generate/sc_drivers/r_ether_gr_mango/src/phy\phy.c ****     phy_mii_write0(ether_channel);
 713:D:/Work/DeviceTester/amazon-freertos/lib/third_party/mcu_vendor/renesas/rz_mcu_boards/core_package/generate/sc_drivers/r_ether_gr_mango/src/phy\phy.c **** } /* End of function phy_trans_1to0() */
 714:D:/Work/DeviceTester/amazon-freertos/lib/third_party/mcu_vendor/renesas/rz_mcu_boards/core_package/generate/sc_drivers/r_ether_gr_mango/src/phy\phy.c **** 
 715:D:/Work/DeviceTester/amazon-freertos/lib/third_party/mcu_vendor/renesas/rz_mcu_boards/core_package/generate/sc_drivers/r_ether_gr_mango/src/phy\phy.c **** /**************************************************************************************************
 716:D:/Work/DeviceTester/amazon-freertos/lib/third_party/mcu_vendor/renesas/rz_mcu_boards/core_package/generate/sc_drivers/r_ether_gr_mango/src/phy\phy.c ****  * Function Name: phy_mii_write1
 717:D:/Work/DeviceTester/amazon-freertos/lib/third_party/mcu_vendor/renesas/rz_mcu_boards/core_package/generate/sc_drivers/r_ether_gr_mango/src/phy\phy.c ****  * Description  : Outputs 1 to the MII interface
 718:D:/Work/DeviceTester/amazon-freertos/lib/third_party/mcu_vendor/renesas/rz_mcu_boards/core_package/generate/sc_drivers/r_ether_gr_mango/src/phy\phy.c ****  * Arguments    : ether_channel -
 719:D:/Work/DeviceTester/amazon-freertos/lib/third_party/mcu_vendor/renesas/rz_mcu_boards/core_package/generate/sc_drivers/r_ether_gr_mango/src/phy\phy.c ****  *                    Ethernet channel number
 720:D:/Work/DeviceTester/amazon-freertos/lib/third_party/mcu_vendor/renesas/rz_mcu_boards/core_package/generate/sc_drivers/r_ether_gr_mango/src/phy\phy.c ****  * Return Value : none
 721:D:/Work/DeviceTester/amazon-freertos/lib/third_party/mcu_vendor/renesas/rz_mcu_boards/core_package/generate/sc_drivers/r_ether_gr_mango/src/phy\phy.c ****  **************************************************************************************************
 722:D:/Work/DeviceTester/amazon-freertos/lib/third_party/mcu_vendor/renesas/rz_mcu_boards/core_package/generate/sc_drivers/r_ether_gr_mango/src/phy\phy.c **** static void phy_mii_write1 (uint32_t ether_channel)
 723:D:/Work/DeviceTester/amazon-freertos/lib/third_party/mcu_vendor/renesas/rz_mcu_boards/core_package/generate/sc_drivers/r_ether_gr_mango/src/phy\phy.c **** {
 724:D:/Work/DeviceTester/amazon-freertos/lib/third_party/mcu_vendor/renesas/rz_mcu_boards/core_package/generate/sc_drivers/r_ether_gr_mango/src/phy\phy.c ****     int32_t j;
 725:D:/Work/DeviceTester/amazon-freertos/lib/third_party/mcu_vendor/renesas/rz_mcu_boards/core_package/generate/sc_drivers/r_ether_gr_mango/src/phy\phy.c ****     int16_t ret;
 726:D:/Work/DeviceTester/amazon-freertos/lib/third_party/mcu_vendor/renesas/rz_mcu_boards/core_package/generate/sc_drivers/r_ether_gr_mango/src/phy\phy.c ****     volatile uint32_t * p_etherc_pir;
 727:D:/Work/DeviceTester/amazon-freertos/lib/third_party/mcu_vendor/renesas/rz_mcu_boards/core_package/generate/sc_drivers/r_ether_gr_mango/src/phy\phy.c **** 
 728:D:/Work/DeviceTester/amazon-freertos/lib/third_party/mcu_vendor/renesas/rz_mcu_boards/core_package/generate/sc_drivers/r_ether_gr_mango/src/phy\phy.c ****     ret = phy_get_pir_address(ether_channel, &p_etherc_pir);
 729:D:/Work/DeviceTester/amazon-freertos/lib/third_party/mcu_vendor/renesas/rz_mcu_boards/core_package/generate/sc_drivers/r_ether_gr_mango/src/phy\phy.c ****     if (R_PHY_ERROR == ret)
 730:D:/Work/DeviceTester/amazon-freertos/lib/third_party/mcu_vendor/renesas/rz_mcu_boards/core_package/generate/sc_drivers/r_ether_gr_mango/src/phy\phy.c ****     {
 731:D:/Work/DeviceTester/amazon-freertos/lib/third_party/mcu_vendor/renesas/rz_mcu_boards/core_package/generate/sc_drivers/r_ether_gr_mango/src/phy\phy.c ****         return;
 732:D:/Work/DeviceTester/amazon-freertos/lib/third_party/mcu_vendor/renesas/rz_mcu_boards/core_package/generate/sc_drivers/r_ether_gr_mango/src/phy\phy.c ****     }
 733:D:/Work/DeviceTester/amazon-freertos/lib/third_party/mcu_vendor/renesas/rz_mcu_boards/core_package/generate/sc_drivers/r_ether_gr_mango/src/phy\phy.c **** 
 734:D:/Work/DeviceTester/amazon-freertos/lib/third_party/mcu_vendor/renesas/rz_mcu_boards/core_package/generate/sc_drivers/r_ether_gr_mango/src/phy\phy.c ****     /*
 735:D:/Work/DeviceTester/amazon-freertos/lib/third_party/mcu_vendor/renesas/rz_mcu_boards/core_package/generate/sc_drivers/r_ether_gr_mango/src/phy\phy.c ****      * The processing of one bit about frame format of MII Management Interface which is
 736:D:/Work/DeviceTester/amazon-freertos/lib/third_party/mcu_vendor/renesas/rz_mcu_boards/core_package/generate/sc_drivers/r_ether_gr_mango/src/phy\phy.c ****      * provided by "Table 22-12" of "22.2.4.5" of "IEEE 802.3-2008_section2".
 737:D:/Work/DeviceTester/amazon-freertos/lib/third_party/mcu_vendor/renesas/rz_mcu_boards/core_package/generate/sc_drivers/r_ether_gr_mango/src/phy\phy.c ****      * The data that 1 is output.
 738:D:/Work/DeviceTester/amazon-freertos/lib/third_party/mcu_vendor/renesas/rz_mcu_boards/core_package/generate/sc_drivers/r_ether_gr_mango/src/phy\phy.c ****      */
 739:D:/Work/DeviceTester/amazon-freertos/lib/third_party/mcu_vendor/renesas/rz_mcu_boards/core_package/generate/sc_drivers/r_ether_gr_mango/src/phy\phy.c ****     for (j = g_ether_sc_table[0].config.ether_phy_mii_wait; j > 0; j--)
 740:D:/Work/DeviceTester/amazon-freertos/lib/third_party/mcu_vendor/renesas/rz_mcu_boards/core_package/generate/sc_drivers/r_ether_gr_mango/src/phy\phy.c ****     {
 741:D:/Work/DeviceTester/amazon-freertos/lib/third_party/mcu_vendor/renesas/rz_mcu_boards/core_package/generate/sc_drivers/r_ether_gr_mango/src/phy\phy.c ****         (*p_etherc_pir) = 0x00000006;
 742:D:/Work/DeviceTester/amazon-freertos/lib/third_party/mcu_vendor/renesas/rz_mcu_boards/core_package/generate/sc_drivers/r_ether_gr_mango/src/phy\phy.c ****     }
 743:D:/Work/DeviceTester/amazon-freertos/lib/third_party/mcu_vendor/renesas/rz_mcu_boards/core_package/generate/sc_drivers/r_ether_gr_mango/src/phy\phy.c **** 
 744:D:/Work/DeviceTester/amazon-freertos/lib/third_party/mcu_vendor/renesas/rz_mcu_boards/core_package/generate/sc_drivers/r_ether_gr_mango/src/phy\phy.c ****     for (j = g_ether_sc_table[0].config.ether_phy_mii_wait; j > 0; j--)
 745:D:/Work/DeviceTester/amazon-freertos/lib/third_party/mcu_vendor/renesas/rz_mcu_boards/core_package/generate/sc_drivers/r_ether_gr_mango/src/phy\phy.c ****     {
 746:D:/Work/DeviceTester/amazon-freertos/lib/third_party/mcu_vendor/renesas/rz_mcu_boards/core_package/generate/sc_drivers/r_ether_gr_mango/src/phy\phy.c ****         (*p_etherc_pir) = 0x00000007;
 747:D:/Work/DeviceTester/amazon-freertos/lib/third_party/mcu_vendor/renesas/rz_mcu_boards/core_package/generate/sc_drivers/r_ether_gr_mango/src/phy\phy.c ****     }
 748:D:/Work/DeviceTester/amazon-freertos/lib/third_party/mcu_vendor/renesas/rz_mcu_boards/core_package/generate/sc_drivers/r_ether_gr_mango/src/phy\phy.c **** 
 749:D:/Work/DeviceTester/amazon-freertos/lib/third_party/mcu_vendor/renesas/rz_mcu_boards/core_package/generate/sc_drivers/r_ether_gr_mango/src/phy\phy.c ****     for (j = g_ether_sc_table[0].config.ether_phy_mii_wait; j > 0; j--)
 750:D:/Work/DeviceTester/amazon-freertos/lib/third_party/mcu_vendor/renesas/rz_mcu_boards/core_package/generate/sc_drivers/r_ether_gr_mango/src/phy\phy.c ****     {
 751:D:/Work/DeviceTester/amazon-freertos/lib/third_party/mcu_vendor/renesas/rz_mcu_boards/core_package/generate/sc_drivers/r_ether_gr_mango/src/phy\phy.c ****         (*p_etherc_pir) = 0x00000007;
 752:D:/Work/DeviceTester/amazon-freertos/lib/third_party/mcu_vendor/renesas/rz_mcu_boards/core_package/generate/sc_drivers/r_ether_gr_mango/src/phy\phy.c ****     }
 753:D:/Work/DeviceTester/amazon-freertos/lib/third_party/mcu_vendor/renesas/rz_mcu_boards/core_package/generate/sc_drivers/r_ether_gr_mango/src/phy\phy.c **** 
 754:D:/Work/DeviceTester/amazon-freertos/lib/third_party/mcu_vendor/renesas/rz_mcu_boards/core_package/generate/sc_drivers/r_ether_gr_mango/src/phy\phy.c ****     for (j = g_ether_sc_table[0].config.ether_phy_mii_wait; j > 0; j--)
 755:D:/Work/DeviceTester/amazon-freertos/lib/third_party/mcu_vendor/renesas/rz_mcu_boards/core_package/generate/sc_drivers/r_ether_gr_mango/src/phy\phy.c ****     {
 756:D:/Work/DeviceTester/amazon-freertos/lib/third_party/mcu_vendor/renesas/rz_mcu_boards/core_package/generate/sc_drivers/r_ether_gr_mango/src/phy\phy.c ****         (*p_etherc_pir) = 0x00000006;
 757:D:/Work/DeviceTester/amazon-freertos/lib/third_party/mcu_vendor/renesas/rz_mcu_boards/core_package/generate/sc_drivers/r_ether_gr_mango/src/phy\phy.c ****     }
 758:D:/Work/DeviceTester/amazon-freertos/lib/third_party/mcu_vendor/renesas/rz_mcu_boards/core_package/generate/sc_drivers/r_ether_gr_mango/src/phy\phy.c **** 
 759:D:/Work/DeviceTester/amazon-freertos/lib/third_party/mcu_vendor/renesas/rz_mcu_boards/core_package/generate/sc_drivers/r_ether_gr_mango/src/phy\phy.c **** } /* End of function phy_mii_write1() */
 760:D:/Work/DeviceTester/amazon-freertos/lib/third_party/mcu_vendor/renesas/rz_mcu_boards/core_package/generate/sc_drivers/r_ether_gr_mango/src/phy\phy.c **** 
 761:D:/Work/DeviceTester/amazon-freertos/lib/third_party/mcu_vendor/renesas/rz_mcu_boards/core_package/generate/sc_drivers/r_ether_gr_mango/src/phy\phy.c **** /**************************************************************************************************
 762:D:/Work/DeviceTester/amazon-freertos/lib/third_party/mcu_vendor/renesas/rz_mcu_boards/core_package/generate/sc_drivers/r_ether_gr_mango/src/phy\phy.c ****  * Function Name: phy_mii_write0
 763:D:/Work/DeviceTester/amazon-freertos/lib/third_party/mcu_vendor/renesas/rz_mcu_boards/core_package/generate/sc_drivers/r_ether_gr_mango/src/phy\phy.c ****  * Description  : Outputs 0 to the MII interface
 764:D:/Work/DeviceTester/amazon-freertos/lib/third_party/mcu_vendor/renesas/rz_mcu_boards/core_package/generate/sc_drivers/r_ether_gr_mango/src/phy\phy.c ****  * Arguments    : ether_channel -
 765:D:/Work/DeviceTester/amazon-freertos/lib/third_party/mcu_vendor/renesas/rz_mcu_boards/core_package/generate/sc_drivers/r_ether_gr_mango/src/phy\phy.c ****  *                    Ethernet channel number
 766:D:/Work/DeviceTester/amazon-freertos/lib/third_party/mcu_vendor/renesas/rz_mcu_boards/core_package/generate/sc_drivers/r_ether_gr_mango/src/phy\phy.c ****  * Return Value : none
 767:D:/Work/DeviceTester/amazon-freertos/lib/third_party/mcu_vendor/renesas/rz_mcu_boards/core_package/generate/sc_drivers/r_ether_gr_mango/src/phy\phy.c ****  **************************************************************************************************
 768:D:/Work/DeviceTester/amazon-freertos/lib/third_party/mcu_vendor/renesas/rz_mcu_boards/core_package/generate/sc_drivers/r_ether_gr_mango/src/phy\phy.c **** static void phy_mii_write0 (uint32_t ether_channel)
 769:D:/Work/DeviceTester/amazon-freertos/lib/third_party/mcu_vendor/renesas/rz_mcu_boards/core_package/generate/sc_drivers/r_ether_gr_mango/src/phy\phy.c **** {
 770:D:/Work/DeviceTester/amazon-freertos/lib/third_party/mcu_vendor/renesas/rz_mcu_boards/core_package/generate/sc_drivers/r_ether_gr_mango/src/phy\phy.c ****     int32_t j;
 771:D:/Work/DeviceTester/amazon-freertos/lib/third_party/mcu_vendor/renesas/rz_mcu_boards/core_package/generate/sc_drivers/r_ether_gr_mango/src/phy\phy.c ****     int16_t ret;
 772:D:/Work/DeviceTester/amazon-freertos/lib/third_party/mcu_vendor/renesas/rz_mcu_boards/core_package/generate/sc_drivers/r_ether_gr_mango/src/phy\phy.c ****     volatile uint32_t * p_etherc_pir;
 773:D:/Work/DeviceTester/amazon-freertos/lib/third_party/mcu_vendor/renesas/rz_mcu_boards/core_package/generate/sc_drivers/r_ether_gr_mango/src/phy\phy.c **** 
 774:D:/Work/DeviceTester/amazon-freertos/lib/third_party/mcu_vendor/renesas/rz_mcu_boards/core_package/generate/sc_drivers/r_ether_gr_mango/src/phy\phy.c ****     ret = phy_get_pir_address(ether_channel, &p_etherc_pir);
 775:D:/Work/DeviceTester/amazon-freertos/lib/third_party/mcu_vendor/renesas/rz_mcu_boards/core_package/generate/sc_drivers/r_ether_gr_mango/src/phy\phy.c ****     if (R_PHY_ERROR == ret)
 776:D:/Work/DeviceTester/amazon-freertos/lib/third_party/mcu_vendor/renesas/rz_mcu_boards/core_package/generate/sc_drivers/r_ether_gr_mango/src/phy\phy.c ****     {
 777:D:/Work/DeviceTester/amazon-freertos/lib/third_party/mcu_vendor/renesas/rz_mcu_boards/core_package/generate/sc_drivers/r_ether_gr_mango/src/phy\phy.c ****         return;
 778:D:/Work/DeviceTester/amazon-freertos/lib/third_party/mcu_vendor/renesas/rz_mcu_boards/core_package/generate/sc_drivers/r_ether_gr_mango/src/phy\phy.c ****     }
 779:D:/Work/DeviceTester/amazon-freertos/lib/third_party/mcu_vendor/renesas/rz_mcu_boards/core_package/generate/sc_drivers/r_ether_gr_mango/src/phy\phy.c **** 
 780:D:/Work/DeviceTester/amazon-freertos/lib/third_party/mcu_vendor/renesas/rz_mcu_boards/core_package/generate/sc_drivers/r_ether_gr_mango/src/phy\phy.c ****     /*
 781:D:/Work/DeviceTester/amazon-freertos/lib/third_party/mcu_vendor/renesas/rz_mcu_boards/core_package/generate/sc_drivers/r_ether_gr_mango/src/phy\phy.c ****      * The processing of one bit about frame format of MII Management Interface which is
 782:D:/Work/DeviceTester/amazon-freertos/lib/third_party/mcu_vendor/renesas/rz_mcu_boards/core_package/generate/sc_drivers/r_ether_gr_mango/src/phy\phy.c ****      * provided by "Table 22-12" of "22.2.4.5" of "IEEE 802.3-2008_section2".
 783:D:/Work/DeviceTester/amazon-freertos/lib/third_party/mcu_vendor/renesas/rz_mcu_boards/core_package/generate/sc_drivers/r_ether_gr_mango/src/phy\phy.c ****      * The data that 0 is output.
 784:D:/Work/DeviceTester/amazon-freertos/lib/third_party/mcu_vendor/renesas/rz_mcu_boards/core_package/generate/sc_drivers/r_ether_gr_mango/src/phy\phy.c ****      */
 785:D:/Work/DeviceTester/amazon-freertos/lib/third_party/mcu_vendor/renesas/rz_mcu_boards/core_package/generate/sc_drivers/r_ether_gr_mango/src/phy\phy.c ****     for (j = g_ether_sc_table[0].config.ether_phy_mii_wait; j > 0; j--)
 786:D:/Work/DeviceTester/amazon-freertos/lib/third_party/mcu_vendor/renesas/rz_mcu_boards/core_package/generate/sc_drivers/r_ether_gr_mango/src/phy\phy.c ****     {
 787:D:/Work/DeviceTester/amazon-freertos/lib/third_party/mcu_vendor/renesas/rz_mcu_boards/core_package/generate/sc_drivers/r_ether_gr_mango/src/phy\phy.c ****         (*p_etherc_pir) = 0x00000002;
 788:D:/Work/DeviceTester/amazon-freertos/lib/third_party/mcu_vendor/renesas/rz_mcu_boards/core_package/generate/sc_drivers/r_ether_gr_mango/src/phy\phy.c ****     }
 789:D:/Work/DeviceTester/amazon-freertos/lib/third_party/mcu_vendor/renesas/rz_mcu_boards/core_package/generate/sc_drivers/r_ether_gr_mango/src/phy\phy.c **** 
 790:D:/Work/DeviceTester/amazon-freertos/lib/third_party/mcu_vendor/renesas/rz_mcu_boards/core_package/generate/sc_drivers/r_ether_gr_mango/src/phy\phy.c ****     for (j = g_ether_sc_table[0].config.ether_phy_mii_wait; j > 0; j--)
 791:D:/Work/DeviceTester/amazon-freertos/lib/third_party/mcu_vendor/renesas/rz_mcu_boards/core_package/generate/sc_drivers/r_ether_gr_mango/src/phy\phy.c ****     {
 792:D:/Work/DeviceTester/amazon-freertos/lib/third_party/mcu_vendor/renesas/rz_mcu_boards/core_package/generate/sc_drivers/r_ether_gr_mango/src/phy\phy.c ****         (*p_etherc_pir) = 0x00000003;
 793:D:/Work/DeviceTester/amazon-freertos/lib/third_party/mcu_vendor/renesas/rz_mcu_boards/core_package/generate/sc_drivers/r_ether_gr_mango/src/phy\phy.c ****     }
 794:D:/Work/DeviceTester/amazon-freertos/lib/third_party/mcu_vendor/renesas/rz_mcu_boards/core_package/generate/sc_drivers/r_ether_gr_mango/src/phy\phy.c **** 
 795:D:/Work/DeviceTester/amazon-freertos/lib/third_party/mcu_vendor/renesas/rz_mcu_boards/core_package/generate/sc_drivers/r_ether_gr_mango/src/phy\phy.c ****     for (j = g_ether_sc_table[0].config.ether_phy_mii_wait; j > 0; j--)
 796:D:/Work/DeviceTester/amazon-freertos/lib/third_party/mcu_vendor/renesas/rz_mcu_boards/core_package/generate/sc_drivers/r_ether_gr_mango/src/phy\phy.c ****     {
 797:D:/Work/DeviceTester/amazon-freertos/lib/third_party/mcu_vendor/renesas/rz_mcu_boards/core_package/generate/sc_drivers/r_ether_gr_mango/src/phy\phy.c ****         (*p_etherc_pir) = 0x00000003;
 798:D:/Work/DeviceTester/amazon-freertos/lib/third_party/mcu_vendor/renesas/rz_mcu_boards/core_package/generate/sc_drivers/r_ether_gr_mango/src/phy\phy.c ****     }
 799:D:/Work/DeviceTester/amazon-freertos/lib/third_party/mcu_vendor/renesas/rz_mcu_boards/core_package/generate/sc_drivers/r_ether_gr_mango/src/phy\phy.c **** 
 800:D:/Work/DeviceTester/amazon-freertos/lib/third_party/mcu_vendor/renesas/rz_mcu_boards/core_package/generate/sc_drivers/r_ether_gr_mango/src/phy\phy.c ****     for (j = g_ether_sc_table[0].config.ether_phy_mii_wait; j > 0; j--)
 801:D:/Work/DeviceTester/amazon-freertos/lib/third_party/mcu_vendor/renesas/rz_mcu_boards/core_package/generate/sc_drivers/r_ether_gr_mango/src/phy\phy.c ****     {
 802:D:/Work/DeviceTester/amazon-freertos/lib/third_party/mcu_vendor/renesas/rz_mcu_boards/core_package/generate/sc_drivers/r_ether_gr_mango/src/phy\phy.c ****         (*p_etherc_pir) = 0x00000002;
 803:D:/Work/DeviceTester/amazon-freertos/lib/third_party/mcu_vendor/renesas/rz_mcu_boards/core_package/generate/sc_drivers/r_ether_gr_mango/src/phy\phy.c ****     }
 804:D:/Work/DeviceTester/amazon-freertos/lib/third_party/mcu_vendor/renesas/rz_mcu_boards/core_package/generate/sc_drivers/r_ether_gr_mango/src/phy\phy.c **** 
 805:D:/Work/DeviceTester/amazon-freertos/lib/third_party/mcu_vendor/renesas/rz_mcu_boards/core_package/generate/sc_drivers/r_ether_gr_mango/src/phy\phy.c **** } /* End of function phy_mii_write0() */
 806:D:/Work/DeviceTester/amazon-freertos/lib/third_party/mcu_vendor/renesas/rz_mcu_boards/core_package/generate/sc_drivers/r_ether_gr_mango/src/phy\phy.c **** 
 807:D:/Work/DeviceTester/amazon-freertos/lib/third_party/mcu_vendor/renesas/rz_mcu_boards/core_package/generate/sc_drivers/r_ether_gr_mango/src/phy\phy.c **** /**************************************************************************************************
 808:D:/Work/DeviceTester/amazon-freertos/lib/third_party/mcu_vendor/renesas/rz_mcu_boards/core_package/generate/sc_drivers/r_ether_gr_mango/src/phy\phy.c ****  * Function Name: phy_get_pir_address
 809:D:/Work/DeviceTester/amazon-freertos/lib/third_party/mcu_vendor/renesas/rz_mcu_boards/core_package/generate/sc_drivers/r_ether_gr_mango/src/phy\phy.c ****  * Description  : Get the address of the PHY interface register.
 810:D:/Work/DeviceTester/amazon-freertos/lib/third_party/mcu_vendor/renesas/rz_mcu_boards/core_package/generate/sc_drivers/r_ether_gr_mango/src/phy\phy.c ****  * Arguments    : ether_channel -
 811:D:/Work/DeviceTester/amazon-freertos/lib/third_party/mcu_vendor/renesas/rz_mcu_boards/core_package/generate/sc_drivers/r_ether_gr_mango/src/phy\phy.c ****  *                    Ethernet channel number
 812:D:/Work/DeviceTester/amazon-freertos/lib/third_party/mcu_vendor/renesas/rz_mcu_boards/core_package/generate/sc_drivers/r_ether_gr_mango/src/phy\phy.c ****  *                pppir_addr -
 813:D:/Work/DeviceTester/amazon-freertos/lib/third_party/mcu_vendor/renesas/rz_mcu_boards/core_package/generate/sc_drivers/r_ether_gr_mango/src/phy\phy.c ****  *                    Pointer of the PHY interface register
 814:D:/Work/DeviceTester/amazon-freertos/lib/third_party/mcu_vendor/renesas/rz_mcu_boards/core_package/generate/sc_drivers/r_ether_gr_mango/src/phy\phy.c ****  * Return Value : none
 815:D:/Work/DeviceTester/amazon-freertos/lib/third_party/mcu_vendor/renesas/rz_mcu_boards/core_package/generate/sc_drivers/r_ether_gr_mango/src/phy\phy.c ****  **************************************************************************************************
 816:D:/Work/DeviceTester/amazon-freertos/lib/third_party/mcu_vendor/renesas/rz_mcu_boards/core_package/generate/sc_drivers/r_ether_gr_mango/src/phy\phy.c **** static int16_t phy_get_pir_address (uint32_t ether_channel, volatile uint32_t ** pppir_addr)
 817:D:/Work/DeviceTester/amazon-freertos/lib/third_party/mcu_vendor/renesas/rz_mcu_boards/core_package/generate/sc_drivers/r_ether_gr_mango/src/phy\phy.c **** {
 818:D:/Work/DeviceTester/amazon-freertos/lib/third_party/mcu_vendor/renesas/rz_mcu_boards/core_package/generate/sc_drivers/r_ether_gr_mango/src/phy\phy.c ****     volatile uint32_t * p_etherc_pir;
 819:D:/Work/DeviceTester/amazon-freertos/lib/third_party/mcu_vendor/renesas/rz_mcu_boards/core_package/generate/sc_drivers/r_ether_gr_mango/src/phy\phy.c ****     uint32_t ether_channel_index = phy_get_ctrl_tbl_idx(ether_channel);
 820:D:/Work/DeviceTester/amazon-freertos/lib/third_party/mcu_vendor/renesas/rz_mcu_boards/core_package/generate/sc_drivers/r_ether_gr_mango/src/phy\phy.c **** 
 821:D:/Work/DeviceTester/amazon-freertos/lib/third_party/mcu_vendor/renesas/rz_mcu_boards/core_package/generate/sc_drivers/r_ether_gr_mango/src/phy\phy.c ****     p_etherc_pir = g_eth_control_ch[ether_channel_index].p_reg_pir;
  33              		.loc 1 821 0
  34 0000 80209FE5 		ldr	r2, .L10
  35 0004 1430A0E3 		mov	r3, #20
  36 0008 932020E0 		mla	r0, r3, r0, r2
  37              	.LVL1:
  38              	.LBE19:
  39              	.LBE18:
 675:D:/Work/DeviceTester/amazon-freertos/lib/third_party/mcu_vendor/renesas/rz_mcu_boards/core_package/generate/sc_drivers/r_ether_gr_mango/src/phy\phy.c ****     {
  40              		.loc 1 675 0
  41 000c 78309FE5 		ldr	r3, .L10+4
  42 0010 143093E5 		ldr	r3, [r3, #20]
  43              	.LBB21:
  44              	.LBB20:
  45              		.loc 1 821 0
  46 0014 082090E5 		ldr	r2, [r0, #8]
  47              	.LVL2:
  48              	.LBE20:
  49              	.LBE21:
 677:D:/Work/DeviceTester/amazon-freertos/lib/third_party/mcu_vendor/renesas/rz_mcu_boards/core_package/generate/sc_drivers/r_ether_gr_mango/src/phy\phy.c ****     }
  50              		.loc 1 677 0
  51 0018 0000A0E3 		mov	r0, #0
 675:D:/Work/DeviceTester/amazon-freertos/lib/third_party/mcu_vendor/renesas/rz_mcu_boards/core_package/generate/sc_drivers/r_ether_gr_mango/src/phy\phy.c ****     {
  52              		.loc 1 675 0
  53 001c 0310A0E1 		mov	r1, r3
  54              	.LVL3:
  55              	.L2:
 675:D:/Work/DeviceTester/amazon-freertos/lib/third_party/mcu_vendor/renesas/rz_mcu_boards/core_package/generate/sc_drivers/r_ether_gr_mango/src/phy\phy.c ****     {
  56              		.loc 1 675 0 is_stmt 0 discriminator 1
  57 0020 000051E3 		cmp	r1, #0
  58 0024 0B0000CA 		bgt	.L3
  59 0028 0310A0E1 		mov	r1, r3
  60              	.LVL4:
 682:D:/Work/DeviceTester/amazon-freertos/lib/third_party/mcu_vendor/renesas/rz_mcu_boards/core_package/generate/sc_drivers/r_ether_gr_mango/src/phy\phy.c ****     }
  61              		.loc 1 682 0 is_stmt 1 discriminator 1
  62 002c 0100A0E3 		mov	r0, #1
  63              	.L4:
  64              	.LVL5:
 680:D:/Work/DeviceTester/amazon-freertos/lib/third_party/mcu_vendor/renesas/rz_mcu_boards/core_package/generate/sc_drivers/r_ether_gr_mango/src/phy\phy.c ****     {
  65              		.loc 1 680 0 discriminator 1
  66 0030 000051E3 		cmp	r1, #0
  67 0034 0A0000CA 		bgt	.L5
  68 0038 0310A0E1 		mov	r1, r3
  69              	.LVL6:
 687:D:/Work/DeviceTester/amazon-freertos/lib/third_party/mcu_vendor/renesas/rz_mcu_boards/core_package/generate/sc_drivers/r_ether_gr_mango/src/phy\phy.c ****     }
  70              		.loc 1 687 0 discriminator 1
  71 003c 0100A0E3 		mov	r0, #1
  72              	.L6:
  73              	.LVL7:
 685:D:/Work/DeviceTester/amazon-freertos/lib/third_party/mcu_vendor/renesas/rz_mcu_boards/core_package/generate/sc_drivers/r_ether_gr_mango/src/phy\phy.c ****     {
  74              		.loc 1 685 0 discriminator 1
  75 0040 000051E3 		cmp	r1, #0
  76 0044 090000CA 		bgt	.L7
 692:D:/Work/DeviceTester/amazon-freertos/lib/third_party/mcu_vendor/renesas/rz_mcu_boards/core_package/generate/sc_drivers/r_ether_gr_mango/src/phy\phy.c ****     }
  77              		.loc 1 692 0 discriminator 1
  78 0048 0010A0E3 		mov	r1, #0
  79              	.LVL8:
  80              	.L8:
 690:D:/Work/DeviceTester/amazon-freertos/lib/third_party/mcu_vendor/renesas/rz_mcu_boards/core_package/generate/sc_drivers/r_ether_gr_mango/src/phy\phy.c ****     {
  81              		.loc 1 690 0 discriminator 1
  82 004c 000053E3 		cmp	r3, #0
  83 0050 090000CA 		bgt	.L9
 695:D:/Work/DeviceTester/amazon-freertos/lib/third_party/mcu_vendor/renesas/rz_mcu_boards/core_package/generate/sc_drivers/r_ether_gr_mango/src/phy\phy.c **** 
  84              		.loc 1 695 0
  85 0054 1EFF2FE1 		bx	lr
  86              	.LVL9:
  87              	.L3:
 677:D:/Work/DeviceTester/amazon-freertos/lib/third_party/mcu_vendor/renesas/rz_mcu_boards/core_package/generate/sc_drivers/r_ether_gr_mango/src/phy\phy.c ****     }
  88              		.loc 1 677 0 discriminator 3
  89 0058 000082E5 		str	r0, [r2]
 675:D:/Work/DeviceTester/amazon-freertos/lib/third_party/mcu_vendor/renesas/rz_mcu_boards/core_package/generate/sc_drivers/r_ether_gr_mango/src/phy\phy.c ****     {
  90              		.loc 1 675 0 discriminator 3
  91 005c 011041E2 		sub	r1, r1, #1
  92              	.LVL10:
  93 0060 EEFFFFEA 		b	.L2
  94              	.L5:
 682:D:/Work/DeviceTester/amazon-freertos/lib/third_party/mcu_vendor/renesas/rz_mcu_boards/core_package/generate/sc_drivers/r_ether_gr_mango/src/phy\phy.c ****     }
  95              		.loc 1 682 0 discriminator 3
  96 0064 000082E5 		str	r0, [r2]
 680:D:/Work/DeviceTester/amazon-freertos/lib/third_party/mcu_vendor/renesas/rz_mcu_boards/core_package/generate/sc_drivers/r_ether_gr_mango/src/phy\phy.c ****     {
  97              		.loc 1 680 0 discriminator 3
  98 0068 011041E2 		sub	r1, r1, #1
  99              	.LVL11:
 100 006c EFFFFFEA 		b	.L4
 101              	.L7:
 687:D:/Work/DeviceTester/amazon-freertos/lib/third_party/mcu_vendor/renesas/rz_mcu_boards/core_package/generate/sc_drivers/r_ether_gr_mango/src/phy\phy.c ****     }
 102              		.loc 1 687 0 discriminator 3
 103 0070 000082E5 		str	r0, [r2]
 685:D:/Work/DeviceTester/amazon-freertos/lib/third_party/mcu_vendor/renesas/rz_mcu_boards/core_package/generate/sc_drivers/r_ether_gr_mango/src/phy\phy.c ****     {
 104              		.loc 1 685 0 discriminator 3
 105 0074 011041E2 		sub	r1, r1, #1
 106              	.LVL12:
 107 0078 F0FFFFEA 		b	.L6
 108              	.LVL13:
 109              	.L9:
 692:D:/Work/DeviceTester/amazon-freertos/lib/third_party/mcu_vendor/renesas/rz_mcu_boards/core_package/generate/sc_drivers/r_ether_gr_mango/src/phy\phy.c ****     }
 110              		.loc 1 692 0 discriminator 3
 111 007c 001082E5 		str	r1, [r2]
 690:D:/Work/DeviceTester/amazon-freertos/lib/third_party/mcu_vendor/renesas/rz_mcu_boards/core_package/generate/sc_drivers/r_ether_gr_mango/src/phy\phy.c ****     {
 112              		.loc 1 690 0 discriminator 3
 113 0080 013043E2 		sub	r3, r3, #1
 114              	.LVL14:
 115 0084 F0FFFFEA 		b	.L8
 116              	.L11:
 117              		.align	2
 118              	.L10:
 119 0088 00000000 		.word	g_eth_control_ch
 120 008c 00000000 		.word	g_ether_sc_table
 121              		.cfi_endproc
 122              	.LFE11:
 124              		.section	.text.phy_mii_write1,"ax",%progbits
 125              		.align	2
 126              		.syntax unified
 127              		.arm
 128              		.fpu neon
 130              	phy_mii_write1:
 131              	.LFB13:
 723:D:/Work/DeviceTester/amazon-freertos/lib/third_party/mcu_vendor/renesas/rz_mcu_boards/core_package/generate/sc_drivers/r_ether_gr_mango/src/phy\phy.c ****     int32_t j;
 132              		.loc 1 723 0
 133              		.cfi_startproc
 134              		@ args = 0, pretend = 0, frame = 0
 135              		@ frame_needed = 0, uses_anonymous_args = 0
 136              		@ link register save eliminated.
 137              	.LVL15:
 138              	.LBB22:
 139              	.LBB23:
 140              		.loc 1 821 0
 141 0000 80209FE5 		ldr	r2, .L21
 142 0004 1430A0E3 		mov	r3, #20
 143 0008 932020E0 		mla	r0, r3, r0, r2
 144              	.LVL16:
 145              	.LBE23:
 146              	.LBE22:
 739:D:/Work/DeviceTester/amazon-freertos/lib/third_party/mcu_vendor/renesas/rz_mcu_boards/core_package/generate/sc_drivers/r_ether_gr_mango/src/phy\phy.c ****     {
 147              		.loc 1 739 0
 148 000c 78309FE5 		ldr	r3, .L21+4
 149 0010 143093E5 		ldr	r3, [r3, #20]
 150              	.LBB25:
 151              	.LBB24:
 152              		.loc 1 821 0
 153 0014 082090E5 		ldr	r2, [r0, #8]
 154              	.LVL17:
 155              	.LBE24:
 156              	.LBE25:
 741:D:/Work/DeviceTester/amazon-freertos/lib/third_party/mcu_vendor/renesas/rz_mcu_boards/core_package/generate/sc_drivers/r_ether_gr_mango/src/phy\phy.c ****     }
 157              		.loc 1 741 0
 158 0018 0600A0E3 		mov	r0, #6
 739:D:/Work/DeviceTester/amazon-freertos/lib/third_party/mcu_vendor/renesas/rz_mcu_boards/core_package/generate/sc_drivers/r_ether_gr_mango/src/phy\phy.c ****     {
 159              		.loc 1 739 0
 160 001c 0310A0E1 		mov	r1, r3
 161              	.LVL18:
 162              	.L13:
 739:D:/Work/DeviceTester/amazon-freertos/lib/third_party/mcu_vendor/renesas/rz_mcu_boards/core_package/generate/sc_drivers/r_ether_gr_mango/src/phy\phy.c ****     {
 163              		.loc 1 739 0 is_stmt 0 discriminator 1
 164 0020 000051E3 		cmp	r1, #0
 165 0024 0B0000CA 		bgt	.L14
 166 0028 0310A0E1 		mov	r1, r3
 167              	.LVL19:
 746:D:/Work/DeviceTester/amazon-freertos/lib/third_party/mcu_vendor/renesas/rz_mcu_boards/core_package/generate/sc_drivers/r_ether_gr_mango/src/phy\phy.c ****     }
 168              		.loc 1 746 0 is_stmt 1 discriminator 1
 169 002c 0700A0E3 		mov	r0, #7
 170              	.L15:
 171              	.LVL20:
 744:D:/Work/DeviceTester/amazon-freertos/lib/third_party/mcu_vendor/renesas/rz_mcu_boards/core_package/generate/sc_drivers/r_ether_gr_mango/src/phy\phy.c ****     {
 172              		.loc 1 744 0 discriminator 1
 173 0030 000051E3 		cmp	r1, #0
 174 0034 0A0000CA 		bgt	.L16
 175 0038 0310A0E1 		mov	r1, r3
 176              	.LVL21:
 751:D:/Work/DeviceTester/amazon-freertos/lib/third_party/mcu_vendor/renesas/rz_mcu_boards/core_package/generate/sc_drivers/r_ether_gr_mango/src/phy\phy.c ****     }
 177              		.loc 1 751 0 discriminator 1
 178 003c 0700A0E3 		mov	r0, #7
 179              	.L17:
 180              	.LVL22:
 749:D:/Work/DeviceTester/amazon-freertos/lib/third_party/mcu_vendor/renesas/rz_mcu_boards/core_package/generate/sc_drivers/r_ether_gr_mango/src/phy\phy.c ****     {
 181              		.loc 1 749 0 discriminator 1
 182 0040 000051E3 		cmp	r1, #0
 183 0044 090000CA 		bgt	.L18
 756:D:/Work/DeviceTester/amazon-freertos/lib/third_party/mcu_vendor/renesas/rz_mcu_boards/core_package/generate/sc_drivers/r_ether_gr_mango/src/phy\phy.c ****     }
 184              		.loc 1 756 0 discriminator 1
 185 0048 0610A0E3 		mov	r1, #6
 186              	.LVL23:
 187              	.L19:
 754:D:/Work/DeviceTester/amazon-freertos/lib/third_party/mcu_vendor/renesas/rz_mcu_boards/core_package/generate/sc_drivers/r_ether_gr_mango/src/phy\phy.c ****     {
 188              		.loc 1 754 0 discriminator 1
 189 004c 000053E3 		cmp	r3, #0
 190 0050 090000CA 		bgt	.L20
 759:D:/Work/DeviceTester/amazon-freertos/lib/third_party/mcu_vendor/renesas/rz_mcu_boards/core_package/generate/sc_drivers/r_ether_gr_mango/src/phy\phy.c **** 
 191              		.loc 1 759 0
 192 0054 1EFF2FE1 		bx	lr
 193              	.LVL24:
 194              	.L14:
 741:D:/Work/DeviceTester/amazon-freertos/lib/third_party/mcu_vendor/renesas/rz_mcu_boards/core_package/generate/sc_drivers/r_ether_gr_mango/src/phy\phy.c ****     }
 195              		.loc 1 741 0 discriminator 3
 196 0058 000082E5 		str	r0, [r2]
 739:D:/Work/DeviceTester/amazon-freertos/lib/third_party/mcu_vendor/renesas/rz_mcu_boards/core_package/generate/sc_drivers/r_ether_gr_mango/src/phy\phy.c ****     {
 197              		.loc 1 739 0 discriminator 3
 198 005c 011041E2 		sub	r1, r1, #1
 199              	.LVL25:
 200 0060 EEFFFFEA 		b	.L13
 201              	.L16:
 746:D:/Work/DeviceTester/amazon-freertos/lib/third_party/mcu_vendor/renesas/rz_mcu_boards/core_package/generate/sc_drivers/r_ether_gr_mango/src/phy\phy.c ****     }
 202              		.loc 1 746 0 discriminator 3
 203 0064 000082E5 		str	r0, [r2]
 744:D:/Work/DeviceTester/amazon-freertos/lib/third_party/mcu_vendor/renesas/rz_mcu_boards/core_package/generate/sc_drivers/r_ether_gr_mango/src/phy\phy.c ****     {
 204              		.loc 1 744 0 discriminator 3
 205 0068 011041E2 		sub	r1, r1, #1
 206              	.LVL26:
 207 006c EFFFFFEA 		b	.L15
 208              	.L18:
 751:D:/Work/DeviceTester/amazon-freertos/lib/third_party/mcu_vendor/renesas/rz_mcu_boards/core_package/generate/sc_drivers/r_ether_gr_mango/src/phy\phy.c ****     }
 209              		.loc 1 751 0 discriminator 3
 210 0070 000082E5 		str	r0, [r2]
 749:D:/Work/DeviceTester/amazon-freertos/lib/third_party/mcu_vendor/renesas/rz_mcu_boards/core_package/generate/sc_drivers/r_ether_gr_mango/src/phy\phy.c ****     {
 211              		.loc 1 749 0 discriminator 3
 212 0074 011041E2 		sub	r1, r1, #1
 213              	.LVL27:
 214 0078 F0FFFFEA 		b	.L17
 215              	.LVL28:
 216              	.L20:
 756:D:/Work/DeviceTester/amazon-freertos/lib/third_party/mcu_vendor/renesas/rz_mcu_boards/core_package/generate/sc_drivers/r_ether_gr_mango/src/phy\phy.c ****     }
 217              		.loc 1 756 0 discriminator 3
 218 007c 001082E5 		str	r1, [r2]
 754:D:/Work/DeviceTester/amazon-freertos/lib/third_party/mcu_vendor/renesas/rz_mcu_boards/core_package/generate/sc_drivers/r_ether_gr_mango/src/phy\phy.c ****     {
 219              		.loc 1 754 0 discriminator 3
 220 0080 013043E2 		sub	r3, r3, #1
 221              	.LVL29:
 222 0084 F0FFFFEA 		b	.L19
 223              	.L22:
 224              		.align	2
 225              	.L21:
 226 0088 00000000 		.word	g_eth_control_ch
 227 008c 00000000 		.word	g_ether_sc_table
 228              		.cfi_endproc
 229              	.LFE13:
 231              		.section	.text.phy_mii_write0,"ax",%progbits
 232              		.align	2
 233              		.syntax unified
 234              		.arm
 235              		.fpu neon
 237              	phy_mii_write0:
 238              	.LFB14:
 769:D:/Work/DeviceTester/amazon-freertos/lib/third_party/mcu_vendor/renesas/rz_mcu_boards/core_package/generate/sc_drivers/r_ether_gr_mango/src/phy\phy.c ****     int32_t j;
 239              		.loc 1 769 0
 240              		.cfi_startproc
 241              		@ args = 0, pretend = 0, frame = 0
 242              		@ frame_needed = 0, uses_anonymous_args = 0
 243              		@ link register save eliminated.
 244              	.LVL30:
 245              	.LBB26:
 246              	.LBB27:
 247              		.loc 1 821 0
 248 0000 80209FE5 		ldr	r2, .L32
 249 0004 1430A0E3 		mov	r3, #20
 250 0008 932020E0 		mla	r0, r3, r0, r2
 251              	.LVL31:
 252              	.LBE27:
 253              	.LBE26:
 785:D:/Work/DeviceTester/amazon-freertos/lib/third_party/mcu_vendor/renesas/rz_mcu_boards/core_package/generate/sc_drivers/r_ether_gr_mango/src/phy\phy.c ****     {
 254              		.loc 1 785 0
 255 000c 78309FE5 		ldr	r3, .L32+4
 256 0010 143093E5 		ldr	r3, [r3, #20]
 257              	.LBB29:
 258              	.LBB28:
 259              		.loc 1 821 0
 260 0014 082090E5 		ldr	r2, [r0, #8]
 261              	.LVL32:
 262              	.LBE28:
 263              	.LBE29:
 787:D:/Work/DeviceTester/amazon-freertos/lib/third_party/mcu_vendor/renesas/rz_mcu_boards/core_package/generate/sc_drivers/r_ether_gr_mango/src/phy\phy.c ****     }
 264              		.loc 1 787 0
 265 0018 0200A0E3 		mov	r0, #2
 785:D:/Work/DeviceTester/amazon-freertos/lib/third_party/mcu_vendor/renesas/rz_mcu_boards/core_package/generate/sc_drivers/r_ether_gr_mango/src/phy\phy.c ****     {
 266              		.loc 1 785 0
 267 001c 0310A0E1 		mov	r1, r3
 268              	.LVL33:
 269              	.L24:
 785:D:/Work/DeviceTester/amazon-freertos/lib/third_party/mcu_vendor/renesas/rz_mcu_boards/core_package/generate/sc_drivers/r_ether_gr_mango/src/phy\phy.c ****     {
 270              		.loc 1 785 0 is_stmt 0 discriminator 1
 271 0020 000051E3 		cmp	r1, #0
 272 0024 0B0000CA 		bgt	.L25
 273 0028 0310A0E1 		mov	r1, r3
 274              	.LVL34:
 792:D:/Work/DeviceTester/amazon-freertos/lib/third_party/mcu_vendor/renesas/rz_mcu_boards/core_package/generate/sc_drivers/r_ether_gr_mango/src/phy\phy.c ****     }
 275              		.loc 1 792 0 is_stmt 1 discriminator 1
 276 002c 0300A0E3 		mov	r0, #3
 277              	.L26:
 278              	.LVL35:
 790:D:/Work/DeviceTester/amazon-freertos/lib/third_party/mcu_vendor/renesas/rz_mcu_boards/core_package/generate/sc_drivers/r_ether_gr_mango/src/phy\phy.c ****     {
 279              		.loc 1 790 0 discriminator 1
 280 0030 000051E3 		cmp	r1, #0
 281 0034 0A0000CA 		bgt	.L27
 282 0038 0310A0E1 		mov	r1, r3
 283              	.LVL36:
 797:D:/Work/DeviceTester/amazon-freertos/lib/third_party/mcu_vendor/renesas/rz_mcu_boards/core_package/generate/sc_drivers/r_ether_gr_mango/src/phy\phy.c ****     }
 284              		.loc 1 797 0 discriminator 1
 285 003c 0300A0E3 		mov	r0, #3
 286              	.L28:
 287              	.LVL37:
 795:D:/Work/DeviceTester/amazon-freertos/lib/third_party/mcu_vendor/renesas/rz_mcu_boards/core_package/generate/sc_drivers/r_ether_gr_mango/src/phy\phy.c ****     {
 288              		.loc 1 795 0 discriminator 1
 289 0040 000051E3 		cmp	r1, #0
 290 0044 090000CA 		bgt	.L29
 802:D:/Work/DeviceTester/amazon-freertos/lib/third_party/mcu_vendor/renesas/rz_mcu_boards/core_package/generate/sc_drivers/r_ether_gr_mango/src/phy\phy.c ****     }
 291              		.loc 1 802 0 discriminator 1
 292 0048 0210A0E3 		mov	r1, #2
 293              	.LVL38:
 294              	.L30:
 800:D:/Work/DeviceTester/amazon-freertos/lib/third_party/mcu_vendor/renesas/rz_mcu_boards/core_package/generate/sc_drivers/r_ether_gr_mango/src/phy\phy.c ****     {
 295              		.loc 1 800 0 discriminator 1
 296 004c 000053E3 		cmp	r3, #0
 297 0050 090000CA 		bgt	.L31
 805:D:/Work/DeviceTester/amazon-freertos/lib/third_party/mcu_vendor/renesas/rz_mcu_boards/core_package/generate/sc_drivers/r_ether_gr_mango/src/phy\phy.c **** 
 298              		.loc 1 805 0
 299 0054 1EFF2FE1 		bx	lr
 300              	.LVL39:
 301              	.L25:
 787:D:/Work/DeviceTester/amazon-freertos/lib/third_party/mcu_vendor/renesas/rz_mcu_boards/core_package/generate/sc_drivers/r_ether_gr_mango/src/phy\phy.c ****     }
 302              		.loc 1 787 0 discriminator 3
 303 0058 000082E5 		str	r0, [r2]
 785:D:/Work/DeviceTester/amazon-freertos/lib/third_party/mcu_vendor/renesas/rz_mcu_boards/core_package/generate/sc_drivers/r_ether_gr_mango/src/phy\phy.c ****     {
 304              		.loc 1 785 0 discriminator 3
 305 005c 011041E2 		sub	r1, r1, #1
 306              	.LVL40:
 307 0060 EEFFFFEA 		b	.L24
 308              	.L27:
 792:D:/Work/DeviceTester/amazon-freertos/lib/third_party/mcu_vendor/renesas/rz_mcu_boards/core_package/generate/sc_drivers/r_ether_gr_mango/src/phy\phy.c ****     }
 309              		.loc 1 792 0 discriminator 3
 310 0064 000082E5 		str	r0, [r2]
 790:D:/Work/DeviceTester/amazon-freertos/lib/third_party/mcu_vendor/renesas/rz_mcu_boards/core_package/generate/sc_drivers/r_ether_gr_mango/src/phy\phy.c ****     {
 311              		.loc 1 790 0 discriminator 3
 312 0068 011041E2 		sub	r1, r1, #1
 313              	.LVL41:
 314 006c EFFFFFEA 		b	.L26
 315              	.L29:
 797:D:/Work/DeviceTester/amazon-freertos/lib/third_party/mcu_vendor/renesas/rz_mcu_boards/core_package/generate/sc_drivers/r_ether_gr_mango/src/phy\phy.c ****     }
 316              		.loc 1 797 0 discriminator 3
 317 0070 000082E5 		str	r0, [r2]
 795:D:/Work/DeviceTester/amazon-freertos/lib/third_party/mcu_vendor/renesas/rz_mcu_boards/core_package/generate/sc_drivers/r_ether_gr_mango/src/phy\phy.c ****     {
 318              		.loc 1 795 0 discriminator 3
 319 0074 011041E2 		sub	r1, r1, #1
 320              	.LVL42:
 321 0078 F0FFFFEA 		b	.L28
 322              	.LVL43:
 323              	.L31:
 802:D:/Work/DeviceTester/amazon-freertos/lib/third_party/mcu_vendor/renesas/rz_mcu_boards/core_package/generate/sc_drivers/r_ether_gr_mango/src/phy\phy.c ****     }
 324              		.loc 1 802 0 discriminator 3
 325 007c 001082E5 		str	r1, [r2]
 800:D:/Work/DeviceTester/amazon-freertos/lib/third_party/mcu_vendor/renesas/rz_mcu_boards/core_package/generate/sc_drivers/r_ether_gr_mango/src/phy\phy.c ****     {
 326              		.loc 1 800 0 discriminator 3
 327 0080 013043E2 		sub	r3, r3, #1
 328              	.LVL44:
 329 0084 F0FFFFEA 		b	.L30
 330              	.L33:
 331              		.align	2
 332              	.L32:
 333 0088 00000000 		.word	g_eth_control_ch
 334 008c 00000000 		.word	g_ether_sc_table
 335              		.cfi_endproc
 336              	.LFE14:
 338              		.section	.text.phy_reg_set,"ax",%progbits
 339              		.align	2
 340              		.syntax unified
 341              		.arm
 342              		.fpu neon
 344              	phy_reg_set:
 345              	.LFB8:
 515:D:/Work/DeviceTester/amazon-freertos/lib/third_party/mcu_vendor/renesas/rz_mcu_boards/core_package/generate/sc_drivers/r_ether_gr_mango/src/phy\phy.c ****     int32_t i;
 346              		.loc 1 515 0
 347              		.cfi_startproc
 348              		@ args = 0, pretend = 0, frame = 0
 349              		@ frame_needed = 0, uses_anonymous_args = 0
 350              	.LVL45:
 534:D:/Work/DeviceTester/amazon-freertos/lib/third_party/mcu_vendor/renesas/rz_mcu_boards/core_package/generate/sc_drivers/r_ether_gr_mango/src/phy\phy.c ****     }
 351              		.loc 1 534 0
 352 0000 020052E3 		cmp	r2, #2
 538:D:/Work/DeviceTester/amazon-freertos/lib/third_party/mcu_vendor/renesas/rz_mcu_boards/core_package/generate/sc_drivers/r_ether_gr_mango/src/phy\phy.c **** 
 353              		.loc 1 538 0
 354 0004 58209FE5 		ldr	r2, .L42
 355              	.LVL46:
 356 0008 1430A0E3 		mov	r3, #20
 515:D:/Work/DeviceTester/amazon-freertos/lib/third_party/mcu_vendor/renesas/rz_mcu_boards/core_package/generate/sc_drivers/r_ether_gr_mango/src/phy\phy.c ****     int32_t i;
 357              		.loc 1 515 0
 358 000c 70402DE9 		push	{r4, r5, r6, lr}
 359              		.cfi_def_cfa_offset 16
 360              		.cfi_offset 4, -16
 361              		.cfi_offset 5, -12
 362              		.cfi_offset 6, -8
 363              		.cfi_offset 14, -4
 534:D:/Work/DeviceTester/amazon-freertos/lib/third_party/mcu_vendor/renesas/rz_mcu_boards/core_package/generate/sc_drivers/r_ether_gr_mango/src/phy\phy.c ****     }
 364              		.loc 1 534 0
 365 0010 064AA003 		moveq	r4, #24576
 366 0014 054AA013 		movne	r4, #20480
 367              	.LVL47:
 515:D:/Work/DeviceTester/amazon-freertos/lib/third_party/mcu_vendor/renesas/rz_mcu_boards/core_package/generate/sc_drivers/r_ether_gr_mango/src/phy\phy.c ****     int32_t i;
 368              		.loc 1 515 0
 369 0018 0060A0E1 		mov	r6, r0
 540:D:/Work/DeviceTester/amazon-freertos/lib/third_party/mcu_vendor/renesas/rz_mcu_boards/core_package/generate/sc_drivers/r_ether_gr_mango/src/phy\phy.c **** 
 370              		.loc 1 540 0
 371 001c 0E50A0E3 		mov	r5, #14
 538:D:/Work/DeviceTester/amazon-freertos/lib/third_party/mcu_vendor/renesas/rz_mcu_boards/core_package/generate/sc_drivers/r_ether_gr_mango/src/phy\phy.c **** 
 372              		.loc 1 538 0
 373 0020 932023E0 		mla	r3, r3, r0, r2
 374 0024 0C3093E5 		ldr	r3, [r3, #12]
 375 0028 834384E1 		orr	r4, r4, r3, lsl #7
 376              	.LVL48:
 540:D:/Work/DeviceTester/amazon-freertos/lib/third_party/mcu_vendor/renesas/rz_mcu_boards/core_package/generate/sc_drivers/r_ether_gr_mango/src/phy\phy.c **** 
 377              		.loc 1 540 0
 378 002c 014184E1 		orr	r4, r4, r1, lsl #2
 379 0030 7440BFE6 		sxth	r4, r4
 380 0034 7440FFE6 		uxth	r4, r4
 381              	.LVL49:
 382              	.L38:
 545:D:/Work/DeviceTester/amazon-freertos/lib/third_party/mcu_vendor/renesas/rz_mcu_boards/core_package/generate/sc_drivers/r_ether_gr_mango/src/phy\phy.c ****         {
 383              		.loc 1 545 0
 384 0038 020914E3 		tst	r4, #32768
 547:D:/Work/DeviceTester/amazon-freertos/lib/third_party/mcu_vendor/renesas/rz_mcu_boards/core_package/generate/sc_drivers/r_ether_gr_mango/src/phy\phy.c ****         }
 385              		.loc 1 547 0
 386 003c 0600A0E1 		mov	r0, r6
 545:D:/Work/DeviceTester/amazon-freertos/lib/third_party/mcu_vendor/renesas/rz_mcu_boards/core_package/generate/sc_drivers/r_ether_gr_mango/src/phy\phy.c ****         {
 387              		.loc 1 545 0
 388 0040 0500001A 		bne	.L36
 389              	.LVL50:
 547:D:/Work/DeviceTester/amazon-freertos/lib/third_party/mcu_vendor/renesas/rz_mcu_boards/core_package/generate/sc_drivers/r_ether_gr_mango/src/phy\phy.c ****         }
 390              		.loc 1 547 0
 391 0044 FEFFFFEB 		bl	phy_mii_write0
 392              	.LVL51:
 393              	.L37:
 553:D:/Work/DeviceTester/amazon-freertos/lib/third_party/mcu_vendor/renesas/rz_mcu_boards/core_package/generate/sc_drivers/r_ether_gr_mango/src/phy\phy.c ****         i--;
 394              		.loc 1 553 0
 395 0048 8440A0E1 		lsl	r4, r4, #1
 396              	.LVL52:
 543:D:/Work/DeviceTester/amazon-freertos/lib/third_party/mcu_vendor/renesas/rz_mcu_boards/core_package/generate/sc_drivers/r_ether_gr_mango/src/phy\phy.c ****     {
 397              		.loc 1 543 0
 398 004c 015055E2 		subs	r5, r5, #1
 399              	.LVL53:
 553:D:/Work/DeviceTester/amazon-freertos/lib/third_party/mcu_vendor/renesas/rz_mcu_boards/core_package/generate/sc_drivers/r_ether_gr_mango/src/phy\phy.c ****         i--;
 400              		.loc 1 553 0
 401 0050 7440FFE6 		uxth	r4, r4
 402              	.LVL54:
 543:D:/Work/DeviceTester/amazon-freertos/lib/third_party/mcu_vendor/renesas/rz_mcu_boards/core_package/generate/sc_drivers/r_ether_gr_mango/src/phy\phy.c ****     {
 403              		.loc 1 543 0
 404 0054 F7FFFF1A 		bne	.L38
 556:D:/Work/DeviceTester/amazon-freertos/lib/third_party/mcu_vendor/renesas/rz_mcu_boards/core_package/generate/sc_drivers/r_ether_gr_mango/src/phy\phy.c **** 
 405              		.loc 1 556 0
 406 0058 7080BDE8 		pop	{r4, r5, r6, pc}
 407              	.LVL55:
 408              	.L36:
 551:D:/Work/DeviceTester/amazon-freertos/lib/third_party/mcu_vendor/renesas/rz_mcu_boards/core_package/generate/sc_drivers/r_ether_gr_mango/src/phy\phy.c ****         }
 409              		.loc 1 551 0
 410 005c FEFFFFEB 		bl	phy_mii_write1
 411              	.LVL56:
 412 0060 F8FFFFEA 		b	.L37
 413              	.L43:
 414              		.align	2
 415              	.L42:
 416 0064 00000000 		.word	g_eth_control_ch
 417              		.cfi_endproc
 418              	.LFE8:
 420              		.section	.text.phy_read,"ax",%progbits
 421              		.align	2
 422              		.syntax unified
 423              		.arm
 424              		.fpu neon
 426              	phy_read:
 427              	.LFB5:
 439:D:/Work/DeviceTester/amazon-freertos/lib/third_party/mcu_vendor/renesas/rz_mcu_boards/core_package/generate/sc_drivers/r_ether_gr_mango/src/phy\phy.c ****     uint16_t data;
 428              		.loc 1 439 0
 429              		.cfi_startproc
 430              		@ args = 0, pretend = 0, frame = 8
 431              		@ frame_needed = 0, uses_anonymous_args = 0
 432              	.LVL57:
 433 0000 73402DE9 		push	{r0, r1, r4, r5, r6, lr}
 434              		.cfi_def_cfa_offset 24
 435              		.cfi_offset 4, -16
 436              		.cfi_offset 5, -12
 437              		.cfi_offset 6, -8
 438              		.cfi_offset 14, -4
 439:D:/Work/DeviceTester/amazon-freertos/lib/third_party/mcu_vendor/renesas/rz_mcu_boards/core_package/generate/sc_drivers/r_ether_gr_mango/src/phy\phy.c ****     uint16_t data;
 439              		.loc 1 439 0
 440 0004 0050A0E1 		mov	r5, r0
 441              	.LVL58:
 442 0008 0160A0E1 		mov	r6, r1
 443 000c 2040A0E3 		mov	r4, #32
 444              	.LVL59:
 445              	.L45:
 446 0010 014044E2 		sub	r4, r4, #1
 447              	.LVL60:
 448              	.LBB36:
 449              	.LBB37:
 498:D:/Work/DeviceTester/amazon-freertos/lib/third_party/mcu_vendor/renesas/rz_mcu_boards/core_package/generate/sc_drivers/r_ether_gr_mango/src/phy\phy.c ****         i--;
 450              		.loc 1 498 0
 451 0014 0500A0E1 		mov	r0, r5
 452 0018 7440FFE6 		uxth	r4, r4
 453 001c FEFFFFEB 		bl	phy_mii_write1
 454              	.LVL61:
 496:D:/Work/DeviceTester/amazon-freertos/lib/third_party/mcu_vendor/renesas/rz_mcu_boards/core_package/generate/sc_drivers/r_ether_gr_mango/src/phy\phy.c ****     {
 455              		.loc 1 496 0
 456 0020 000054E3 		cmp	r4, #0
 457 0024 F9FFFF1A 		bne	.L45
 458              	.LVL62:
 459              	.LBE37:
 460              	.LBE36:
 447:D:/Work/DeviceTester/amazon-freertos/lib/third_party/mcu_vendor/renesas/rz_mcu_boards/core_package/generate/sc_drivers/r_ether_gr_mango/src/phy\phy.c ****     phy_trans_zto0(ether_channel);
 461              		.loc 1 447 0
 462 0028 0220A0E3 		mov	r2, #2
 463 002c 0610A0E1 		mov	r1, r6
 464 0030 0500A0E1 		mov	r0, r5
 465 0034 FEFFFFEB 		bl	phy_reg_set
 466              	.LVL63:
 448:D:/Work/DeviceTester/amazon-freertos/lib/third_party/mcu_vendor/renesas/rz_mcu_boards/core_package/generate/sc_drivers/r_ether_gr_mango/src/phy\phy.c ****     phy_reg_read(ether_channel, &data);
 467              		.loc 1 448 0
 468 0038 0500A0E1 		mov	r0, r5
 469 003c FEFFFFEB 		bl	phy_trans_zto0
 470              	.LVL64:
 471              	.LBB38:
 472              	.LBB39:
 473              	.LBB40:
 474              	.LBB41:
 475              		.loc 1 821 0
 476 0040 B0209FE5 		ldr	r2, .L58
 477 0044 1430A0E3 		mov	r3, #20
 478              	.LBE41:
 479              	.LBE40:
 591:D:/Work/DeviceTester/amazon-freertos/lib/third_party/mcu_vendor/renesas/rz_mcu_boards/core_package/generate/sc_drivers/r_ether_gr_mango/src/phy\phy.c ****         }
 480              		.loc 1 591 0
 481 0048 04C0A0E1 		mov	ip, r4
 596:D:/Work/DeviceTester/amazon-freertos/lib/third_party/mcu_vendor/renesas/rz_mcu_boards/core_package/generate/sc_drivers/r_ether_gr_mango/src/phy\phy.c ****         }
 482              		.loc 1 596 0
 483 004c 0100A0E3 		mov	r0, #1
 484              	.LBB44:
 485              	.LBB42:
 486              		.loc 1 821 0
 487 0050 932523E0 		mla	r3, r3, r5, r2
 488              	.LBE42:
 489              	.LBE44:
 589:D:/Work/DeviceTester/amazon-freertos/lib/third_party/mcu_vendor/renesas/rz_mcu_boards/core_package/generate/sc_drivers/r_ether_gr_mango/src/phy\phy.c ****         {
 490              		.loc 1 589 0
 491 0054 A0209FE5 		ldr	r2, .L58+4
 492 0058 142092E5 		ldr	r2, [r2, #20]
 493              	.LBB45:
 494              	.LBB43:
 495              		.loc 1 821 0
 496 005c 083093E5 		ldr	r3, [r3, #8]
 497              	.LVL65:
 498              	.LBE43:
 499              	.LBE45:
 589:D:/Work/DeviceTester/amazon-freertos/lib/third_party/mcu_vendor/renesas/rz_mcu_boards/core_package/generate/sc_drivers/r_ether_gr_mango/src/phy\phy.c ****         {
 500              		.loc 1 589 0
 501 0060 04208DE5 		str	r2, [sp, #4]
 502 0064 1020A0E3 		mov	r2, #16
 503              	.LVL66:
 504              	.L54:
 505 0068 04109DE5 		ldr	r1, [sp, #4]
 506              	.LVL67:
 507              	.L46:
 508 006c 000051E3 		cmp	r1, #0
 509 0070 140000CA 		bgt	.L47
 510 0074 04109DE5 		ldr	r1, [sp, #4]
 511              	.LVL68:
 512              	.L48:
 594:D:/Work/DeviceTester/amazon-freertos/lib/third_party/mcu_vendor/renesas/rz_mcu_boards/core_package/generate/sc_drivers/r_ether_gr_mango/src/phy\phy.c ****         {
 513              		.loc 1 594 0
 514 0078 000051E3 		cmp	r1, #0
 515 007c 140000CA 		bgt	.L49
 598:D:/Work/DeviceTester/amazon-freertos/lib/third_party/mcu_vendor/renesas/rz_mcu_boards/core_package/generate/sc_drivers/r_ether_gr_mango/src/phy\phy.c **** 
 516              		.loc 1 598 0
 517 0080 8440A0E1 		lsl	r4, r4, #1
 518              	.LVL69:
 601:D:/Work/DeviceTester/amazon-freertos/lib/third_party/mcu_vendor/renesas/rz_mcu_boards/core_package/generate/sc_drivers/r_ether_gr_mango/src/phy\phy.c **** 
 519              		.loc 1 601 0
 520 0084 001093E5 		ldr	r1, [r3]
 521              	.LVL70:
 598:D:/Work/DeviceTester/amazon-freertos/lib/third_party/mcu_vendor/renesas/rz_mcu_boards/core_package/generate/sc_drivers/r_ether_gr_mango/src/phy\phy.c **** 
 522              		.loc 1 598 0
 523 0088 7440FFE6 		uxth	r4, r4
 524              	.LVL71:
 601:D:/Work/DeviceTester/amazon-freertos/lib/third_party/mcu_vendor/renesas/rz_mcu_boards/core_package/generate/sc_drivers/r_ether_gr_mango/src/phy\phy.c **** 
 525              		.loc 1 601 0
 526 008c D111E0E7 		ubfx	r1, r1, #3, #1
 527 0090 014084E1 		orr	r4, r4, r1
 528              	.LVL72:
 603:D:/Work/DeviceTester/amazon-freertos/lib/third_party/mcu_vendor/renesas/rz_mcu_boards/core_package/generate/sc_drivers/r_ether_gr_mango/src/phy\phy.c ****         {
 529              		.loc 1 603 0
 530 0094 04109DE5 		ldr	r1, [sp, #4]
 531              	.LVL73:
 532              	.L50:
 533 0098 000051E3 		cmp	r1, #0
 534 009c 0F0000CA 		bgt	.L51
 535 00a0 04109DE5 		ldr	r1, [sp, #4]
 536              	.LVL74:
 537              	.L52:
 608:D:/Work/DeviceTester/amazon-freertos/lib/third_party/mcu_vendor/renesas/rz_mcu_boards/core_package/generate/sc_drivers/r_ether_gr_mango/src/phy\phy.c ****         {
 538              		.loc 1 608 0
 539 00a4 000051E3 		cmp	r1, #0
 540 00a8 0F0000CA 		bgt	.L53
 541              	.LVL75:
 587:D:/Work/DeviceTester/amazon-freertos/lib/third_party/mcu_vendor/renesas/rz_mcu_boards/core_package/generate/sc_drivers/r_ether_gr_mango/src/phy\phy.c ****     {
 542              		.loc 1 587 0
 543 00ac 012052E2 		subs	r2, r2, #1
 544              	.LVL76:
 545 00b0 ECFFFF1A 		bne	.L54
 546              	.LVL77:
 547              	.LBE39:
 548              	.LBE38:
 450:D:/Work/DeviceTester/amazon-freertos/lib/third_party/mcu_vendor/renesas/rz_mcu_boards/core_package/generate/sc_drivers/r_ether_gr_mango/src/phy\phy.c **** 
 549              		.loc 1 450 0
 550 00b4 0500A0E1 		mov	r0, r5
 551 00b8 FEFFFFEB 		bl	phy_trans_zto0
 552              	.LVL78:
 453:D:/Work/DeviceTester/amazon-freertos/lib/third_party/mcu_vendor/renesas/rz_mcu_boards/core_package/generate/sc_drivers/r_ether_gr_mango/src/phy\phy.c **** 
 553              		.loc 1 453 0
 554 00bc 0400A0E1 		mov	r0, r4
 555 00c0 08D08DE2 		add	sp, sp, #8
 556              		.cfi_remember_state
 557              		.cfi_def_cfa_offset 16
 558              		@ sp needed
 559 00c4 7080BDE8 		pop	{r4, r5, r6, pc}
 560              	.LVL79:
 561              	.L47:
 562              		.cfi_restore_state
 563              	.LBB47:
 564              	.LBB46:
 591:D:/Work/DeviceTester/amazon-freertos/lib/third_party/mcu_vendor/renesas/rz_mcu_boards/core_package/generate/sc_drivers/r_ether_gr_mango/src/phy\phy.c ****         }
 565              		.loc 1 591 0
 566 00c8 00C083E5 		str	ip, [r3]
 589:D:/Work/DeviceTester/amazon-freertos/lib/third_party/mcu_vendor/renesas/rz_mcu_boards/core_package/generate/sc_drivers/r_ether_gr_mango/src/phy\phy.c ****         {
 567              		.loc 1 589 0
 568 00cc 011041E2 		sub	r1, r1, #1
 569              	.LVL80:
 570 00d0 E5FFFFEA 		b	.L46
 571              	.L49:
 596:D:/Work/DeviceTester/amazon-freertos/lib/third_party/mcu_vendor/renesas/rz_mcu_boards/core_package/generate/sc_drivers/r_ether_gr_mango/src/phy\phy.c ****         }
 572              		.loc 1 596 0
 573 00d4 000083E5 		str	r0, [r3]
 594:D:/Work/DeviceTester/amazon-freertos/lib/third_party/mcu_vendor/renesas/rz_mcu_boards/core_package/generate/sc_drivers/r_ether_gr_mango/src/phy\phy.c ****         {
 574              		.loc 1 594 0
 575 00d8 011041E2 		sub	r1, r1, #1
 576              	.LVL81:
 577 00dc E5FFFFEA 		b	.L48
 578              	.L51:
 605:D:/Work/DeviceTester/amazon-freertos/lib/third_party/mcu_vendor/renesas/rz_mcu_boards/core_package/generate/sc_drivers/r_ether_gr_mango/src/phy\phy.c ****         }
 579              		.loc 1 605 0
 580 00e0 000083E5 		str	r0, [r3]
 603:D:/Work/DeviceTester/amazon-freertos/lib/third_party/mcu_vendor/renesas/rz_mcu_boards/core_package/generate/sc_drivers/r_ether_gr_mango/src/phy\phy.c ****         {
 581              		.loc 1 603 0
 582 00e4 011041E2 		sub	r1, r1, #1
 583              	.LVL82:
 584 00e8 EAFFFFEA 		b	.L50
 585              	.L53:
 610:D:/Work/DeviceTester/amazon-freertos/lib/third_party/mcu_vendor/renesas/rz_mcu_boards/core_package/generate/sc_drivers/r_ether_gr_mango/src/phy\phy.c ****         }
 586              		.loc 1 610 0
 587 00ec 00C083E5 		str	ip, [r3]
 608:D:/Work/DeviceTester/amazon-freertos/lib/third_party/mcu_vendor/renesas/rz_mcu_boards/core_package/generate/sc_drivers/r_ether_gr_mango/src/phy\phy.c ****         {
 588              		.loc 1 608 0
 589 00f0 011041E2 		sub	r1, r1, #1
 590              	.LVL83:
 591 00f4 EAFFFFEA 		b	.L52
 592              	.L59:
 593              		.align	2
 594              	.L58:
 595 00f8 00000000 		.word	g_eth_control_ch
 596 00fc 00000000 		.word	g_ether_sc_table
 597              	.LBE46:
 598              	.LBE47:
 599              		.cfi_endproc
 600              	.LFE5:
 602              		.section	.text.phy_write,"ax",%progbits
 603              		.align	2
 604              		.syntax unified
 605              		.arm
 606              		.fpu neon
 608              	phy_write:
 609              	.LFB6:
 467:D:/Work/DeviceTester/amazon-freertos/lib/third_party/mcu_vendor/renesas/rz_mcu_boards/core_package/generate/sc_drivers/r_ether_gr_mango/src/phy\phy.c ****     /*
 610              		.loc 1 467 0
 611              		.cfi_startproc
 612              		@ args = 0, pretend = 0, frame = 0
 613              		@ frame_needed = 0, uses_anonymous_args = 0
 614              	.LVL84:
 615 0000 F0412DE9 		push	{r4, r5, r6, r7, r8, lr}
 616              		.cfi_def_cfa_offset 24
 617              		.cfi_offset 4, -24
 618              		.cfi_offset 5, -20
 619              		.cfi_offset 6, -16
 620              		.cfi_offset 7, -12
 621              		.cfi_offset 8, -8
 622              		.cfi_offset 14, -4
 467:D:/Work/DeviceTester/amazon-freertos/lib/third_party/mcu_vendor/renesas/rz_mcu_boards/core_package/generate/sc_drivers/r_ether_gr_mango/src/phy\phy.c ****     /*
 623              		.loc 1 467 0
 624 0004 0040A0E1 		mov	r4, r0
 625              	.LVL85:
 626 0008 0170A0E1 		mov	r7, r1
 627 000c 0250A0E1 		mov	r5, r2
 628 0010 2060A0E3 		mov	r6, #32
 629              	.LVL86:
 630              	.L61:
 631 0014 016046E2 		sub	r6, r6, #1
 632              	.LVL87:
 633              	.LBB54:
 634              	.LBB55:
 498:D:/Work/DeviceTester/amazon-freertos/lib/third_party/mcu_vendor/renesas/rz_mcu_boards/core_package/generate/sc_drivers/r_ether_gr_mango/src/phy\phy.c ****         i--;
 635              		.loc 1 498 0
 636 0018 0400A0E1 		mov	r0, r4
 637 001c 7660FFE6 		uxth	r6, r6
 638 0020 FEFFFFEB 		bl	phy_mii_write1
 639              	.LVL88:
 496:D:/Work/DeviceTester/amazon-freertos/lib/third_party/mcu_vendor/renesas/rz_mcu_boards/core_package/generate/sc_drivers/r_ether_gr_mango/src/phy\phy.c ****     {
 640              		.loc 1 496 0
 641 0024 000056E3 		cmp	r6, #0
 642 0028 F9FFFF1A 		bne	.L61
 643              	.LVL89:
 644              	.LBE55:
 645              	.LBE54:
 473:D:/Work/DeviceTester/amazon-freertos/lib/third_party/mcu_vendor/renesas/rz_mcu_boards/core_package/generate/sc_drivers/r_ether_gr_mango/src/phy\phy.c ****     phy_trans_1to0(ether_channel);
 646              		.loc 1 473 0
 647 002c 0120A0E3 		mov	r2, #1
 648 0030 0710A0E1 		mov	r1, r7
 649 0034 0400A0E1 		mov	r0, r4
 650              	.LBB56:
 651              	.LBB57:
 712:D:/Work/DeviceTester/amazon-freertos/lib/third_party/mcu_vendor/renesas/rz_mcu_boards/core_package/generate/sc_drivers/r_ether_gr_mango/src/phy\phy.c **** } /* End of function phy_trans_1to0() */
 652              		.loc 1 712 0
 653 0038 1060A0E3 		mov	r6, #16
 654              	.LBE57:
 655              	.LBE56:
 473:D:/Work/DeviceTester/amazon-freertos/lib/third_party/mcu_vendor/renesas/rz_mcu_boards/core_package/generate/sc_drivers/r_ether_gr_mango/src/phy\phy.c ****     phy_trans_1to0(ether_channel);
 656              		.loc 1 473 0
 657 003c FEFFFFEB 		bl	phy_reg_set
 658              	.LVL90:
 659              	.LBB59:
 660              	.LBB58:
 711:D:/Work/DeviceTester/amazon-freertos/lib/third_party/mcu_vendor/renesas/rz_mcu_boards/core_package/generate/sc_drivers/r_ether_gr_mango/src/phy\phy.c ****     phy_mii_write0(ether_channel);
 661              		.loc 1 711 0
 662 0040 0400A0E1 		mov	r0, r4
 663 0044 FEFFFFEB 		bl	phy_mii_write1
 664              	.LVL91:
 712:D:/Work/DeviceTester/amazon-freertos/lib/third_party/mcu_vendor/renesas/rz_mcu_boards/core_package/generate/sc_drivers/r_ether_gr_mango/src/phy\phy.c **** } /* End of function phy_trans_1to0() */
 665              		.loc 1 712 0
 666 0048 0400A0E1 		mov	r0, r4
 667 004c FEFFFFEB 		bl	phy_mii_write0
 668              	.LVL92:
 669              	.L64:
 670              	.LBE58:
 671              	.LBE59:
 672              	.LBB60:
 673              	.LBB61:
 638:D:/Work/DeviceTester/amazon-freertos/lib/third_party/mcu_vendor/renesas/rz_mcu_boards/core_package/generate/sc_drivers/r_ether_gr_mango/src/phy\phy.c ****         {
 674              		.loc 1 638 0
 675 0050 020915E3 		tst	r5, #32768
 640:D:/Work/DeviceTester/amazon-freertos/lib/third_party/mcu_vendor/renesas/rz_mcu_boards/core_package/generate/sc_drivers/r_ether_gr_mango/src/phy\phy.c ****         }
 676              		.loc 1 640 0
 677 0054 0400A0E1 		mov	r0, r4
 638:D:/Work/DeviceTester/amazon-freertos/lib/third_party/mcu_vendor/renesas/rz_mcu_boards/core_package/generate/sc_drivers/r_ether_gr_mango/src/phy\phy.c ****         {
 678              		.loc 1 638 0
 679 0058 0700001A 		bne	.L62
 680              	.LVL93:
 640:D:/Work/DeviceTester/amazon-freertos/lib/third_party/mcu_vendor/renesas/rz_mcu_boards/core_package/generate/sc_drivers/r_ether_gr_mango/src/phy\phy.c ****         }
 681              		.loc 1 640 0
 682 005c FEFFFFEB 		bl	phy_mii_write0
 683              	.LVL94:
 684              	.L63:
 647:D:/Work/DeviceTester/amazon-freertos/lib/third_party/mcu_vendor/renesas/rz_mcu_boards/core_package/generate/sc_drivers/r_ether_gr_mango/src/phy\phy.c ****     }
 685              		.loc 1 647 0
 686 0060 8550A0E1 		lsl	r5, r5, #1
 687              	.LVL95:
 636:D:/Work/DeviceTester/amazon-freertos/lib/third_party/mcu_vendor/renesas/rz_mcu_boards/core_package/generate/sc_drivers/r_ether_gr_mango/src/phy\phy.c ****     {
 688              		.loc 1 636 0
 689 0064 016056E2 		subs	r6, r6, #1
 690              	.LVL96:
 647:D:/Work/DeviceTester/amazon-freertos/lib/third_party/mcu_vendor/renesas/rz_mcu_boards/core_package/generate/sc_drivers/r_ether_gr_mango/src/phy\phy.c ****     }
 691              		.loc 1 647 0
 692 0068 7550FFE6 		uxth	r5, r5
 693              	.LVL97:
 636:D:/Work/DeviceTester/amazon-freertos/lib/third_party/mcu_vendor/renesas/rz_mcu_boards/core_package/generate/sc_drivers/r_ether_gr_mango/src/phy\phy.c ****     {
 694              		.loc 1 636 0
 695 006c F7FFFF1A 		bne	.L64
 696              	.LVL98:
 697              	.LBE61:
 698              	.LBE60:
 476:D:/Work/DeviceTester/amazon-freertos/lib/third_party/mcu_vendor/renesas/rz_mcu_boards/core_package/generate/sc_drivers/r_ether_gr_mango/src/phy\phy.c **** } /* End of function phy_write() */
 699              		.loc 1 476 0
 700 0070 0400A0E1 		mov	r0, r4
 477:D:/Work/DeviceTester/amazon-freertos/lib/third_party/mcu_vendor/renesas/rz_mcu_boards/core_package/generate/sc_drivers/r_ether_gr_mango/src/phy\phy.c **** 
 701              		.loc 1 477 0
 702 0074 F041BDE8 		pop	{r4, r5, r6, r7, r8, lr}
 703              		.cfi_remember_state
 704              		.cfi_restore 14
 705              		.cfi_restore 8
 706              		.cfi_restore 7
 707              		.cfi_restore 6
 708              		.cfi_restore 5
 709              		.cfi_restore 4
 710              		.cfi_def_cfa_offset 0
 711              	.LVL99:
 476:D:/Work/DeviceTester/amazon-freertos/lib/third_party/mcu_vendor/renesas/rz_mcu_boards/core_package/generate/sc_drivers/r_ether_gr_mango/src/phy\phy.c **** } /* End of function phy_write() */
 712              		.loc 1 476 0
 713 0078 FEFFFFEA 		b	phy_trans_zto0
 714              	.LVL100:
 715              	.L62:
 716              		.cfi_restore_state
 717              	.LBB63:
 718              	.LBB62:
 644:D:/Work/DeviceTester/amazon-freertos/lib/third_party/mcu_vendor/renesas/rz_mcu_boards/core_package/generate/sc_drivers/r_ether_gr_mango/src/phy\phy.c ****         }
 719              		.loc 1 644 0
 720 007c FEFFFFEB 		bl	phy_mii_write1
 721              	.LVL101:
 722 0080 F6FFFFEA 		b	.L63
 723              	.LBE62:
 724              	.LBE63:
 725              		.cfi_endproc
 726              	.LFE6:
 728              		.section	.text.phy_init,"ax",%progbits
 729              		.align	2
 730              		.global	phy_init
 731              		.syntax unified
 732              		.arm
 733              		.fpu neon
 735              	phy_init:
 736              	.LFB1:
 175:D:/Work/DeviceTester/amazon-freertos/lib/third_party/mcu_vendor/renesas/rz_mcu_boards/core_package/generate/sc_drivers/r_ether_gr_mango/src/phy\phy.c ****     uint16_t reg;
 737              		.loc 1 175 0
 738              		.cfi_startproc
 739              		@ args = 0, pretend = 0, frame = 16
 740              		@ frame_needed = 0, uses_anonymous_args = 0
 741              	.LVL102:
 742 0000 7F402DE9 		push	{r0, r1, r2, r3, r4, r5, r6, lr}
 743              		.cfi_def_cfa_offset 32
 744              		.cfi_offset 4, -16
 745              		.cfi_offset 5, -12
 746              		.cfi_offset 6, -8
 747              		.cfi_offset 14, -4
 175:D:/Work/DeviceTester/amazon-freertos/lib/third_party/mcu_vendor/renesas/rz_mcu_boards/core_package/generate/sc_drivers/r_ether_gr_mango/src/phy\phy.c ****     uint16_t reg;
 748              		.loc 1 175 0
 749 0004 0060A0E1 		mov	r6, r0
 185:D:/Work/DeviceTester/amazon-freertos/lib/third_party/mcu_vendor/renesas/rz_mcu_boards/core_package/generate/sc_drivers/r_ether_gr_mango/src/phy\phy.c ****     pin_rst.p_pin_list = s_phyrst_pin_list;
 750              		.loc 1 185 0
 751 0008 0210A0E3 		mov	r1, #2
 752 000c B0009FE5 		ldr	r0, .L76
 753              	.LVL103:
 754 0010 FEFFFFEB 		bl	open
 755              	.LVL104:
 186:D:/Work/DeviceTester/amazon-freertos/lib/third_party/mcu_vendor/renesas/rz_mcu_boards/core_package/generate/sc_drivers/r_ether_gr_mango/src/phy\phy.c ****     pin_rst.count = (sizeof(s_phyrst_pin_list)) / (sizeof(s_phyrst_pin_list[0]));
 756              		.loc 1 186 0
 757 0014 AC309FE5 		ldr	r3, .L76+4
 188:D:/Work/DeviceTester/amazon-freertos/lib/third_party/mcu_vendor/renesas/rz_mcu_boards/core_package/generate/sc_drivers/r_ether_gr_mango/src/phy\phy.c ****     direct_control(s_my_gpio_handle, CTL_GPIO_PIN_WRITE, &s_p60_lo);
 758              		.loc 1 188 0
 759 0018 04208DE2 		add	r2, sp, #4
 185:D:/Work/DeviceTester/amazon-freertos/lib/third_party/mcu_vendor/renesas/rz_mcu_boards/core_package/generate/sc_drivers/r_ether_gr_mango/src/phy\phy.c ****     pin_rst.p_pin_list = s_phyrst_pin_list;
 760              		.loc 1 185 0
 761 001c A8409FE5 		ldr	r4, .L76+8
 188:D:/Work/DeviceTester/amazon-freertos/lib/third_party/mcu_vendor/renesas/rz_mcu_boards/core_package/generate/sc_drivers/r_ether_gr_mango/src/phy\phy.c ****     direct_control(s_my_gpio_handle, CTL_GPIO_PIN_WRITE, &s_p60_lo);
 762              		.loc 1 188 0
 763 0020 0210A0E3 		mov	r1, #2
 764 0024 A4509FE5 		ldr	r5, .L76+12
 186:D:/Work/DeviceTester/amazon-freertos/lib/third_party/mcu_vendor/renesas/rz_mcu_boards/core_package/generate/sc_drivers/r_ether_gr_mango/src/phy\phy.c ****     pin_rst.count = (sizeof(s_phyrst_pin_list)) / (sizeof(s_phyrst_pin_list[0]));
 765              		.loc 1 186 0
 766 0028 04308DE5 		str	r3, [sp, #4]
 187:D:/Work/DeviceTester/amazon-freertos/lib/third_party/mcu_vendor/renesas/rz_mcu_boards/core_package/generate/sc_drivers/r_ether_gr_mango/src/phy\phy.c ****     direct_control(s_my_gpio_handle, CTL_GPIO_INIT_BY_PIN_LIST, &pin_rst);
 767              		.loc 1 187 0
 768 002c 0130A0E3 		mov	r3, #1
 769 0030 08308DE5 		str	r3, [sp, #8]
 185:D:/Work/DeviceTester/amazon-freertos/lib/third_party/mcu_vendor/renesas/rz_mcu_boards/core_package/generate/sc_drivers/r_ether_gr_mango/src/phy\phy.c ****     pin_rst.p_pin_list = s_phyrst_pin_list;
 770              		.loc 1 185 0
 771 0034 000084E5 		str	r0, [r4]
 188:D:/Work/DeviceTester/amazon-freertos/lib/third_party/mcu_vendor/renesas/rz_mcu_boards/core_package/generate/sc_drivers/r_ether_gr_mango/src/phy\phy.c ****     direct_control(s_my_gpio_handle, CTL_GPIO_PIN_WRITE, &s_p60_lo);
 772              		.loc 1 188 0
 773 0038 FEFFFFEB 		bl	direct_control
 774              	.LVL105:
 189:D:/Work/DeviceTester/amazon-freertos/lib/third_party/mcu_vendor/renesas/rz_mcu_boards/core_package/generate/sc_drivers/r_ether_gr_mango/src/phy\phy.c ****     
 775              		.loc 1 189 0
 776 003c 90209FE5 		ldr	r2, .L76+16
 777 0040 0810A0E3 		mov	r1, #8
 778 0044 000094E5 		ldr	r0, [r4]
 779 0048 FEFFFFEB 		bl	direct_control
 780              	.LVL106:
 191:D:/Work/DeviceTester/amazon-freertos/lib/third_party/mcu_vendor/renesas/rz_mcu_boards/core_package/generate/sc_drivers/r_ether_gr_mango/src/phy\phy.c ****     direct_control(s_my_gpio_handle, CTL_GPIO_PIN_WRITE, &s_p60_hi);
 781              		.loc 1 191 0
 782 004c 0A00A0E3 		mov	r0, #10
 783 0050 FEFFFFEB 		bl	R_OS_TaskSleep
 784              	.LVL107:
 192:D:/Work/DeviceTester/amazon-freertos/lib/third_party/mcu_vendor/renesas/rz_mcu_boards/core_package/generate/sc_drivers/r_ether_gr_mango/src/phy\phy.c ****     
 785              		.loc 1 192 0
 786 0054 7C209FE5 		ldr	r2, .L76+20
 787 0058 0810A0E3 		mov	r1, #8
 788 005c 000094E5 		ldr	r0, [r4]
 179:D:/Work/DeviceTester/amazon-freertos/lib/third_party/mcu_vendor/renesas/rz_mcu_boards/core_package/generate/sc_drivers/r_ether_gr_mango/src/phy\phy.c **** 
 789              		.loc 1 179 0
 790 0060 0040A0E3 		mov	r4, #0
 192:D:/Work/DeviceTester/amazon-freertos/lib/third_party/mcu_vendor/renesas/rz_mcu_boards/core_package/generate/sc_drivers/r_ether_gr_mango/src/phy\phy.c ****     
 791              		.loc 1 192 0
 792 0064 FEFFFFEB 		bl	direct_control
 793              	.LVL108:
 197:D:/Work/DeviceTester/amazon-freertos/lib/third_party/mcu_vendor/renesas/rz_mcu_boards/core_package/generate/sc_drivers/r_ether_gr_mango/src/phy\phy.c **** 
 794              		.loc 1 197 0
 795 0068 0229A0E3 		mov	r2, #32768
 796 006c 0010A0E3 		mov	r1, #0
 797 0070 0600A0E1 		mov	r0, r6
 798 0074 FEFFFFEB 		bl	phy_write
 799              	.LVL109:
 800              	.L72:
 202:D:/Work/DeviceTester/amazon-freertos/lib/third_party/mcu_vendor/renesas/rz_mcu_boards/core_package/generate/sc_drivers/r_ether_gr_mango/src/phy\phy.c ****         count++;
 801              		.loc 1 202 0 discriminator 2
 802 0078 0010A0E3 		mov	r1, #0
 803 007c 0600A0E1 		mov	r0, r6
 804 0080 FEFFFFEB 		bl	phy_read
 805              	.LVL110:
 204:D:/Work/DeviceTester/amazon-freertos/lib/third_party/mcu_vendor/renesas/rz_mcu_boards/core_package/generate/sc_drivers/r_ether_gr_mango/src/phy\phy.c **** 
 806              		.loc 1 204 0 discriminator 2
 807 0084 020910E3 		tst	r0, #32768
 203:D:/Work/DeviceTester/amazon-freertos/lib/third_party/mcu_vendor/renesas/rz_mcu_boards/core_package/generate/sc_drivers/r_ether_gr_mango/src/phy\phy.c ****     } while ((reg & PHY_CONTROL_RESET) && (count < g_ether_sc_table[0].config.ether_phy_delay_reset
 808              		.loc 1 203 0 discriminator 2
 809 0088 014084E2 		add	r4, r4, #1
 810              	.LVL111:
 204:D:/Work/DeviceTester/amazon-freertos/lib/third_party/mcu_vendor/renesas/rz_mcu_boards/core_package/generate/sc_drivers/r_ether_gr_mango/src/phy\phy.c **** 
 811              		.loc 1 204 0 discriminator 2
 812 008c 0800001A 		bne	.L69
 813              	.L73:
 236:D:/Work/DeviceTester/amazon-freertos/lib/third_party/mcu_vendor/renesas/rz_mcu_boards/core_package/generate/sc_drivers/r_ether_gr_mango/src/phy\phy.c ****     {
 814              		.loc 1 236 0
 815 0090 183095E5 		ldr	r3, [r5, #24]
 816 0094 030054E1 		cmp	r4, r3
 256:D:/Work/DeviceTester/amazon-freertos/lib/third_party/mcu_vendor/renesas/rz_mcu_boards/core_package/generate/sc_drivers/r_ether_gr_mango/src/phy\phy.c **** } /* End of function phy_init() */
 817              		.loc 1 256 0
 818 0098 0000E023 		mvncs	r0, #0
 819              	.LVL112:
 236:D:/Work/DeviceTester/amazon-freertos/lib/third_party/mcu_vendor/renesas/rz_mcu_boards/core_package/generate/sc_drivers/r_ether_gr_mango/src/phy\phy.c ****     {
 820              		.loc 1 236 0
 821 009c 0200002A 		bcs	.L71
 239:D:/Work/DeviceTester/amazon-freertos/lib/third_party/mcu_vendor/renesas/rz_mcu_boards/core_package/generate/sc_drivers/r_ether_gr_mango/src/phy\phy.c **** 
 822              		.loc 1 239 0
 823 00a0 9600A0E3 		mov	r0, #150
 824 00a4 FEFFFFEB 		bl	R_OS_TaskSleep
 825              	.LVL113:
 253:D:/Work/DeviceTester/amazon-freertos/lib/third_party/mcu_vendor/renesas/rz_mcu_boards/core_package/generate/sc_drivers/r_ether_gr_mango/src/phy\phy.c ****     }
 826              		.loc 1 253 0
 827 00a8 0000A0E3 		mov	r0, #0
 828              	.L71:
 257:D:/Work/DeviceTester/amazon-freertos/lib/third_party/mcu_vendor/renesas/rz_mcu_boards/core_package/generate/sc_drivers/r_ether_gr_mango/src/phy\phy.c **** 
 829              		.loc 1 257 0
 830 00ac 10D08DE2 		add	sp, sp, #16
 831              		.cfi_remember_state
 832              		.cfi_def_cfa_offset 16
 833              		@ sp needed
 834 00b0 7080BDE8 		pop	{r4, r5, r6, pc}
 835              	.LVL114:
 836              	.L69:
 837              		.cfi_restore_state
 204:D:/Work/DeviceTester/amazon-freertos/lib/third_party/mcu_vendor/renesas/rz_mcu_boards/core_package/generate/sc_drivers/r_ether_gr_mango/src/phy\phy.c **** 
 838              		.loc 1 204 0 discriminator 1
 839 00b4 183095E5 		ldr	r3, [r5, #24]
 840 00b8 030054E1 		cmp	r4, r3
 841 00bc EDFFFF3A 		bcc	.L72
 842 00c0 F2FFFFEA 		b	.L73
 843              	.L77:
 844              		.align	2
 845              	.L76:
 846 00c4 00000000 		.word	.LC0
 847 00c8 00000000 		.word	.LANCHOR1
 848 00cc 00000000 		.word	.LANCHOR0
 849 00d0 00000000 		.word	g_ether_sc_table
 850 00d4 00000000 		.word	.LANCHOR2
 851 00d8 00000000 		.word	.LANCHOR3
 852              		.cfi_endproc
 853              	.LFE1:
 855              		.section	.text.phy_start_autonegotiate,"ax",%progbits
 856              		.align	2
 857              		.global	phy_start_autonegotiate
 858              		.syntax unified
 859              		.arm
 860              		.fpu neon
 862              	phy_start_autonegotiate:
 863              	.LFB2:
 269:D:/Work/DeviceTester/amazon-freertos/lib/third_party/mcu_vendor/renesas/rz_mcu_boards/core_package/generate/sc_drivers/r_ether_gr_mango/src/phy\phy.c ****     volatile uint16_t reg = 0;
 864              		.loc 1 269 0
 865              		.cfi_startproc
 866              		@ args = 0, pretend = 0, frame = 8
 867              		@ frame_needed = 0, uses_anonymous_args = 0
 868              	.LVL115:
 270:D:/Work/DeviceTester/amazon-freertos/lib/third_party/mcu_vendor/renesas/rz_mcu_boards/core_package/generate/sc_drivers/r_ether_gr_mango/src/phy\phy.c ****     uint32_t ether_channel_index = phy_get_ctrl_tbl_idx(ether_channel);
 869              		.loc 1 270 0
 870 0000 0030A0E3 		mov	r3, #0
 871 0004 54209FE5 		ldr	r2, .L83
 269:D:/Work/DeviceTester/amazon-freertos/lib/third_party/mcu_vendor/renesas/rz_mcu_boards/core_package/generate/sc_drivers/r_ether_gr_mango/src/phy\phy.c ****     volatile uint16_t reg = 0;
 872              		.loc 1 269 0
 873 0008 13402DE9 		push	{r0, r1, r4, lr}
 874              		.cfi_def_cfa_offset 16
 875              		.cfi_offset 4, -8
 876              		.cfi_offset 14, -4
 275:D:/Work/DeviceTester/amazon-freertos/lib/third_party/mcu_vendor/renesas/rz_mcu_boards/core_package/generate/sc_drivers/r_ether_gr_mango/src/phy\phy.c ****     {
 877              		.loc 1 275 0
 878 000c 030051E1 		cmp	r1, r3
 270:D:/Work/DeviceTester/amazon-freertos/lib/third_party/mcu_vendor/renesas/rz_mcu_boards/core_package/generate/sc_drivers/r_ether_gr_mango/src/phy\phy.c ****     uint32_t ether_channel_index = phy_get_ctrl_tbl_idx(ether_channel);
 879              		.loc 1 270 0
 880 0010 B630CDE1 		strh	r3, [sp, #6]	@ movhi
 881 0014 8030A0E1 		lsl	r3, r0, #1
 277:D:/Work/DeviceTester/amazon-freertos/lib/third_party/mcu_vendor/renesas/rz_mcu_boards/core_package/generate/sc_drivers/r_ether_gr_mango/src/phy\phy.c ****         PHY_AN_ADVERTISEMENT_100H) |
 882              		.loc 1 277 0
 883 0018 E1110003 		movweq	r1, #481
 884              	.LVL116:
 288:D:/Work/DeviceTester/amazon-freertos/lib/third_party/mcu_vendor/renesas/rz_mcu_boards/core_package/generate/sc_drivers/r_ether_gr_mango/src/phy\phy.c ****         PHY_AN_ADVERTISEMENT_PAUSE) |
 885              		.loc 1 288 0
 886 001c E11D0013 		movwne	r1, #3553
 269:D:/Work/DeviceTester/amazon-freertos/lib/third_party/mcu_vendor/renesas/rz_mcu_boards/core_package/generate/sc_drivers/r_ether_gr_mango/src/phy\phy.c ****     volatile uint16_t reg = 0;
 887              		.loc 1 269 0
 888 0020 0040A0E1 		mov	r4, r0
 288:D:/Work/DeviceTester/amazon-freertos/lib/third_party/mcu_vendor/renesas/rz_mcu_boards/core_package/generate/sc_drivers/r_ether_gr_mango/src/phy\phy.c ****         PHY_AN_ADVERTISEMENT_PAUSE) |
 889              		.loc 1 288 0
 890 0024 B31082E1 		strh	r1, [r2, r3]	@ movhi
 298:D:/Work/DeviceTester/amazon-freertos/lib/third_party/mcu_vendor/renesas/rz_mcu_boards/core_package/generate/sc_drivers/r_ether_gr_mango/src/phy\phy.c ****     phy_write(ether_channel, PHY_REG_CONTROL, (PHY_CONTROL_AN_ENABLE |
 891              		.loc 1 298 0
 892 0028 0410A0E3 		mov	r1, #4
 893 002c B32092E1 		ldrh	r2, [r2, r3]
 894 0030 FEFFFFEB 		bl	phy_write
 895              	.LVL117:
 299:D:/Work/DeviceTester/amazon-freertos/lib/third_party/mcu_vendor/renesas/rz_mcu_boards/core_package/generate/sc_drivers/r_ether_gr_mango/src/phy\phy.c ****     PHY_CONTROL_AN_RESTART));
 896              		.loc 1 299 0
 897 0034 122CA0E3 		mov	r2, #4608
 898 0038 0400A0E1 		mov	r0, r4
 899 003c 0010A0E3 		mov	r1, #0
 900 0040 FEFFFFEB 		bl	phy_write
 901              	.LVL118:
 302:D:/Work/DeviceTester/amazon-freertos/lib/third_party/mcu_vendor/renesas/rz_mcu_boards/core_package/generate/sc_drivers/r_ether_gr_mango/src/phy\phy.c **** 
 902              		.loc 1 302 0
 903 0044 0410A0E3 		mov	r1, #4
 904 0048 0400A0E1 		mov	r0, r4
 905 004c FEFFFFEB 		bl	phy_read
 906              	.LVL119:
 907 0050 B600CDE1 		strh	r0, [sp, #6]	@ movhi
 305:D:/Work/DeviceTester/amazon-freertos/lib/third_party/mcu_vendor/renesas/rz_mcu_boards/core_package/generate/sc_drivers/r_ether_gr_mango/src/phy\phy.c **** 
 908              		.loc 1 305 0
 909 0054 B630DDE1 		ldrh	r3, [sp, #6]
 307:D:/Work/DeviceTester/amazon-freertos/lib/third_party/mcu_vendor/renesas/rz_mcu_boards/core_package/generate/sc_drivers/r_ether_gr_mango/src/phy\phy.c **** 
 910              		.loc 1 307 0
 911 0058 08D08DE2 		add	sp, sp, #8
 912              		.cfi_def_cfa_offset 8
 913              		@ sp needed
 914 005c 1080BDE8 		pop	{r4, pc}
 915              	.LVL120:
 916              	.L84:
 917              		.align	2
 918              	.L83:
 919 0060 00000000 		.word	.LANCHOR4
 920              		.cfi_endproc
 921              	.LFE2:
 923              		.section	.text.phy_set_autonegotiate,"ax",%progbits
 924              		.align	2
 925              		.global	phy_set_autonegotiate
 926              		.syntax unified
 927              		.arm
 928              		.fpu neon
 930              	phy_set_autonegotiate:
 931              	.LFB3:
 329:D:/Work/DeviceTester/amazon-freertos/lib/third_party/mcu_vendor/renesas/rz_mcu_boards/core_package/generate/sc_drivers/r_ether_gr_mango/src/phy\phy.c ****     uint16_t reg;
 932              		.loc 1 329 0
 933              		.cfi_startproc
 934              		@ args = 0, pretend = 0, frame = 0
 935              		@ frame_needed = 0, uses_anonymous_args = 0
 936              	.LVL121:
 937 0000 F0412DE9 		push	{r4, r5, r6, r7, r8, lr}
 938              		.cfi_def_cfa_offset 24
 939              		.cfi_offset 4, -24
 940              		.cfi_offset 5, -20
 941              		.cfi_offset 6, -16
 942              		.cfi_offset 7, -12
 943              		.cfi_offset 8, -8
 944              		.cfi_offset 14, -4
 329:D:/Work/DeviceTester/amazon-freertos/lib/third_party/mcu_vendor/renesas/rz_mcu_boards/core_package/generate/sc_drivers/r_ether_gr_mango/src/phy\phy.c ****     uint16_t reg;
 945              		.loc 1 329 0
 946 0004 0070A0E1 		mov	r7, r0
 947 0008 0140A0E1 		mov	r4, r1
 334:D:/Work/DeviceTester/amazon-freertos/lib/third_party/mcu_vendor/renesas/rz_mcu_boards/core_package/generate/sc_drivers/r_ether_gr_mango/src/phy\phy.c ****     reg = phy_read(ether_channel, PHY_REG_STATUS);
 948              		.loc 1 334 0
 949 000c 0110A0E3 		mov	r1, #1
 950              	.LVL122:
 329:D:/Work/DeviceTester/amazon-freertos/lib/third_party/mcu_vendor/renesas/rz_mcu_boards/core_package/generate/sc_drivers/r_ether_gr_mango/src/phy\phy.c ****     uint16_t reg;
 951              		.loc 1 329 0
 952 0010 0250A0E1 		mov	r5, r2
 953 0014 0360A0E1 		mov	r6, r3
 334:D:/Work/DeviceTester/amazon-freertos/lib/third_party/mcu_vendor/renesas/rz_mcu_boards/core_package/generate/sc_drivers/r_ether_gr_mango/src/phy\phy.c ****     reg = phy_read(ether_channel, PHY_REG_STATUS);
 954              		.loc 1 334 0
 955 0018 FEFFFFEB 		bl	phy_read
 956              	.LVL123:
 335:D:/Work/DeviceTester/amazon-freertos/lib/third_party/mcu_vendor/renesas/rz_mcu_boards/core_package/generate/sc_drivers/r_ether_gr_mango/src/phy\phy.c **** 
 957              		.loc 1 335 0
 958 001c 0110A0E3 		mov	r1, #1
 959 0020 0700A0E1 		mov	r0, r7
 960 0024 FEFFFFEB 		bl	phy_read
 961              	.LVL124:
 338:D:/Work/DeviceTester/amazon-freertos/lib/third_party/mcu_vendor/renesas/rz_mcu_boards/core_package/generate/sc_drivers/r_ether_gr_mango/src/phy\phy.c ****     {
 962              		.loc 1 338 0
 963 0028 040010E3 		tst	r0, #4
 964 002c 0100001A 		bne	.L86
 965              	.L90:
 340:D:/Work/DeviceTester/amazon-freertos/lib/third_party/mcu_vendor/renesas/rz_mcu_boards/core_package/generate/sc_drivers/r_ether_gr_mango/src/phy\phy.c ****     }
 966              		.loc 1 340 0
 967 0030 0000E0E3 		mvn	r0, #0
 968              	.LVL125:
 969 0034 F081BDE8 		pop	{r4, r5, r6, r7, r8, pc}
 970              	.LVL126:
 971              	.L86:
 344:D:/Work/DeviceTester/amazon-freertos/lib/third_party/mcu_vendor/renesas/rz_mcu_boards/core_package/generate/sc_drivers/r_ether_gr_mango/src/phy\phy.c ****     {
 972              		.loc 1 344 0
 973 0038 8C209FE5 		ldr	r2, .L122
 974 003c 8730A0E1 		lsl	r3, r7, #1
 975 0040 B32092E1 		ldrh	r2, [r2, r3]
 976 0044 010B12E3 		tst	r2, #1024
 346:D:/Work/DeviceTester/amazon-freertos/lib/third_party/mcu_vendor/renesas/rz_mcu_boards/core_package/generate/sc_drivers/r_ether_gr_mango/src/phy\phy.c ****     }
 977              		.loc 1 346 0
 978 0048 B030D511 		ldrhne	r3, [r5]
 979 004c 02308313 		orrne	r3, r3, #2
 980 0050 B030C511 		strhne	r3, [r5]	@ movhi
 349:D:/Work/DeviceTester/amazon-freertos/lib/third_party/mcu_vendor/renesas/rz_mcu_boards/core_package/generate/sc_drivers/r_ether_gr_mango/src/phy\phy.c ****     {
 981              		.loc 1 349 0
 982 0054 020B12E3 		tst	r2, #2048
 351:D:/Work/DeviceTester/amazon-freertos/lib/third_party/mcu_vendor/renesas/rz_mcu_boards/core_package/generate/sc_drivers/r_ether_gr_mango/src/phy\phy.c ****     }
 983              		.loc 1 351 0
 984 0058 B030D511 		ldrhne	r3, [r5]
 985 005c 01308313 		orrne	r3, r3, #1
 986 0060 B030C511 		strhne	r3, [r5]	@ movhi
 355:D:/Work/DeviceTester/amazon-freertos/lib/third_party/mcu_vendor/renesas/rz_mcu_boards/core_package/generate/sc_drivers/r_ether_gr_mango/src/phy\phy.c ****     {
 987              		.loc 1 355 0
 988 0064 200010E3 		tst	r0, #32
 989 0068 F0FFFF0A 		beq	.L90
 361:D:/Work/DeviceTester/amazon-freertos/lib/third_party/mcu_vendor/renesas/rz_mcu_boards/core_package/generate/sc_drivers/r_ether_gr_mango/src/phy\phy.c **** 
 990              		.loc 1 361 0
 991 006c 0510A0E3 		mov	r1, #5
 992 0070 0700A0E1 		mov	r0, r7
 993              	.LVL127:
 994 0074 FEFFFFEB 		bl	phy_read
 995              	.LVL128:
 364:D:/Work/DeviceTester/amazon-freertos/lib/third_party/mcu_vendor/renesas/rz_mcu_boards/core_package/generate/sc_drivers/r_ether_gr_mango/src/phy\phy.c ****     {
 996              		.loc 1 364 0
 997 0078 010B10E3 		tst	r0, #1024
 366:D:/Work/DeviceTester/amazon-freertos/lib/third_party/mcu_vendor/renesas/rz_mcu_boards/core_package/generate/sc_drivers/r_ether_gr_mango/src/phy\phy.c ****     }
 998              		.loc 1 366 0
 999 007c 0230A013 		movne	r3, #2
 1000 0080 B030C611 		strhne	r3, [r6]	@ movhi
 369:D:/Work/DeviceTester/amazon-freertos/lib/third_party/mcu_vendor/renesas/rz_mcu_boards/core_package/generate/sc_drivers/r_ether_gr_mango/src/phy\phy.c ****     {
 1001              		.loc 1 369 0
 1002 0084 020B10E3 		tst	r0, #2048
 371:D:/Work/DeviceTester/amazon-freertos/lib/third_party/mcu_vendor/renesas/rz_mcu_boards/core_package/generate/sc_drivers/r_ether_gr_mango/src/phy\phy.c ****     }
 1003              		.loc 1 371 0
 1004 0088 B030D611 		ldrhne	r3, [r6]
 1005 008c 01308313 		orrne	r3, r3, #1
 1006 0090 B030C611 		strhne	r3, [r6]	@ movhi
 375:D:/Work/DeviceTester/amazon-freertos/lib/third_party/mcu_vendor/renesas/rz_mcu_boards/core_package/generate/sc_drivers/r_ether_gr_mango/src/phy\phy.c ****     {
 1007              		.loc 1 375 0
 1008 0094 200010E3 		tst	r0, #32
 377:D:/Work/DeviceTester/amazon-freertos/lib/third_party/mcu_vendor/renesas/rz_mcu_boards/core_package/generate/sc_drivers/r_ether_gr_mango/src/phy\phy.c ****     }
 1009              		.loc 1 377 0
 1010 0098 0130A013 		movne	r3, #1
 1011 009c B030C411 		strhne	r3, [r4]	@ movhi
 380:D:/Work/DeviceTester/amazon-freertos/lib/third_party/mcu_vendor/renesas/rz_mcu_boards/core_package/generate/sc_drivers/r_ether_gr_mango/src/phy\phy.c ****     {
 1012              		.loc 1 380 0
 1013 00a0 400010E3 		tst	r0, #64
 382:D:/Work/DeviceTester/amazon-freertos/lib/third_party/mcu_vendor/renesas/rz_mcu_boards/core_package/generate/sc_drivers/r_ether_gr_mango/src/phy\phy.c ****     }
 1014              		.loc 1 382 0
 1015 00a4 0230A013 		movne	r3, #2
 1016 00a8 B030C411 		strhne	r3, [r4]	@ movhi
 385:D:/Work/DeviceTester/amazon-freertos/lib/third_party/mcu_vendor/renesas/rz_mcu_boards/core_package/generate/sc_drivers/r_ether_gr_mango/src/phy\phy.c ****     {
 1017              		.loc 1 385 0
 1018 00ac 800010E3 		tst	r0, #128
 387:D:/Work/DeviceTester/amazon-freertos/lib/third_party/mcu_vendor/renesas/rz_mcu_boards/core_package/generate/sc_drivers/r_ether_gr_mango/src/phy\phy.c ****     }
 1019              		.loc 1 387 0
 1020 00b0 0330A013 		movne	r3, #3
 1021 00b4 B030C411 		strhne	r3, [r4]	@ movhi
 390:D:/Work/DeviceTester/amazon-freertos/lib/third_party/mcu_vendor/renesas/rz_mcu_boards/core_package/generate/sc_drivers/r_ether_gr_mango/src/phy\phy.c ****     {
 1022              		.loc 1 390 0
 1023 00b8 010C10E2 		ands	r0, r0, #256
 1024              	.LVL129:
 392:D:/Work/DeviceTester/amazon-freertos/lib/third_party/mcu_vendor/renesas/rz_mcu_boards/core_package/generate/sc_drivers/r_ether_gr_mango/src/phy\phy.c ****     }
 1025              		.loc 1 392 0
 1026 00bc 0430A013 		movne	r3, #4
 395:D:/Work/DeviceTester/amazon-freertos/lib/third_party/mcu_vendor/renesas/rz_mcu_boards/core_package/generate/sc_drivers/r_ether_gr_mango/src/phy\phy.c **** } /* End of function phy_set_autonegotiate() */
 1027              		.loc 1 395 0
 1028 00c0 0000A013 		movne	r0, #0
 392:D:/Work/DeviceTester/amazon-freertos/lib/third_party/mcu_vendor/renesas/rz_mcu_boards/core_package/generate/sc_drivers/r_ether_gr_mango/src/phy\phy.c ****     }
 1029              		.loc 1 392 0
 1030 00c4 B030C411 		strhne	r3, [r4]	@ movhi
 396:D:/Work/DeviceTester/amazon-freertos/lib/third_party/mcu_vendor/renesas/rz_mcu_boards/core_package/generate/sc_drivers/r_ether_gr_mango/src/phy\phy.c **** 
 1031              		.loc 1 396 0
 1032 00c8 F081BDE8 		pop	{r4, r5, r6, r7, r8, pc}
 1033              	.L123:
 1034              		.align	2
 1035              	.L122:
 1036 00cc 00000000 		.word	.LANCHOR4
 1037              		.cfi_endproc
 1038              	.LFE3:
 1040              		.section	.text.phy_get_link_status,"ax",%progbits
 1041              		.align	2
 1042              		.global	phy_get_link_status
 1043              		.syntax unified
 1044              		.arm
 1045              		.fpu neon
 1047              	phy_get_link_status:
 1048              	.LFB4:
 406:D:/Work/DeviceTester/amazon-freertos/lib/third_party/mcu_vendor/renesas/rz_mcu_boards/core_package/generate/sc_drivers/r_ether_gr_mango/src/phy\phy.c ****     uint16_t reg;
 1049              		.loc 1 406 0
 1050              		.cfi_startproc
 1051              		@ args = 0, pretend = 0, frame = 0
 1052              		@ frame_needed = 0, uses_anonymous_args = 0
 1053              	.LVL130:
 1054 0000 10402DE9 		push	{r4, lr}
 1055              		.cfi_def_cfa_offset 8
 1056              		.cfi_offset 4, -8
 1057              		.cfi_offset 14, -4
 410:D:/Work/DeviceTester/amazon-freertos/lib/third_party/mcu_vendor/renesas/rz_mcu_boards/core_package/generate/sc_drivers/r_ether_gr_mango/src/phy\phy.c ****     reg = phy_read(ether_channel, PHY_REG_STATUS);
 1058              		.loc 1 410 0
 1059 0004 0110A0E3 		mov	r1, #1
 406:D:/Work/DeviceTester/amazon-freertos/lib/third_party/mcu_vendor/renesas/rz_mcu_boards/core_package/generate/sc_drivers/r_ether_gr_mango/src/phy\phy.c ****     uint16_t reg;
 1060              		.loc 1 406 0
 1061 0008 0040A0E1 		mov	r4, r0
 410:D:/Work/DeviceTester/amazon-freertos/lib/third_party/mcu_vendor/renesas/rz_mcu_boards/core_package/generate/sc_drivers/r_ether_gr_mango/src/phy\phy.c ****     reg = phy_read(ether_channel, PHY_REG_STATUS);
 1062              		.loc 1 410 0
 1063 000c FEFFFFEB 		bl	phy_read
 1064              	.LVL131:
 411:D:/Work/DeviceTester/amazon-freertos/lib/third_party/mcu_vendor/renesas/rz_mcu_boards/core_package/generate/sc_drivers/r_ether_gr_mango/src/phy\phy.c **** 
 1065              		.loc 1 411 0
 1066 0010 0110A0E3 		mov	r1, #1
 1067 0014 0400A0E1 		mov	r0, r4
 1068 0018 FEFFFFEB 		bl	phy_read
 1069              	.LVL132:
 415:D:/Work/DeviceTester/amazon-freertos/lib/third_party/mcu_vendor/renesas/rz_mcu_boards/core_package/generate/sc_drivers/r_ether_gr_mango/src/phy\phy.c ****     {
 1070              		.loc 1 415 0
 1071 001c 040020E2 		eor	r0, r0, #4
 1072              	.LVL133:
 423:D:/Work/DeviceTester/amazon-freertos/lib/third_party/mcu_vendor/renesas/rz_mcu_boards/core_package/generate/sc_drivers/r_ether_gr_mango/src/phy\phy.c **** 
 1073              		.loc 1 423 0
 1074 0020 5001A0E7 		sbfx	r0, r0, #2, #1
 1075 0024 1080BDE8 		pop	{r4, pc}
 1076              		.cfi_endproc
 1077              	.LFE4:
 1079              		.section	.bss.local_advertise,"aw",%nobits
 1080              		.align	1
 1081              		.set	.LANCHOR4,. + 0
 1084              	local_advertise:
 1085 0000 00000000 		.space	4
 1086              		.section	.bss.s_my_gpio_handle,"aw",%nobits
 1087              		.align	2
 1088              		.set	.LANCHOR0,. + 0
 1091              	s_my_gpio_handle:
 1092 0000 00000000 		.space	4
 1093              		.section	.data.s_p60_hi,"aw",%progbits
 1094              		.align	1
 1095              		.set	.LANCHOR3,. + 0
 1098              	s_p60_hi:
 1099 0000 0006     		.short	1536
 1100 0002 02       		.byte	2
 1101 0003 00       		.byte	0
 1102              		.section	.data.s_p60_lo,"aw",%progbits
 1103              		.align	1
 1104              		.set	.LANCHOR2,. + 0
 1107              	s_p60_lo:
 1108 0000 0006     		.short	1536
 1109 0002 01       		.byte	1
 1110 0003 00       		.byte	0
 1111              		.section	.rodata.phy_init.str1.1,"aMS",%progbits,1
 1112              	.LC0:
 1113 0000 5C5C2E5C 		.ascii	"\\\\.\\gpio\000"
 1113      6770696F 
 1113      00
 1114              		.section	.rodata.s_phyrst_pin_list,"a",%progbits
 1115              		.align	1
 1116              		.set	.LANCHOR1,. + 0
 1119              	s_phyrst_pin_list:
 1120 0000 0006     		.short	1536
 1121              		.text
 1122              	.Letext0:
 1123              		.file 2 "D:\\Work\\DeviceTester\\amazon-freertos\\lib\\third_party\\mcu_vendor\\renesas\\rz_mcu_bo
 1124              		.file 3 "D:\\Work\\DeviceTester\\amazon-freertos\\lib\\third_party\\mcu_vendor\\renesas\\rz_mcu_bo
 1125              		.file 4 "c:\\program files (x86)\\gnu tools arm embedded\\6 2017-q2-update\\arm-none-eabi\\include
 1126              		.file 5 "c:\\program files (x86)\\gnu tools arm embedded\\6 2017-q2-update\\arm-none-eabi\\include
 1127              		.file 6 "c:\\program files (x86)\\gnu tools arm embedded\\6 2017-q2-update\\arm-none-eabi\\include
 1128              		.file 7 "c:\\program files (x86)\\gnu tools arm embedded\\6 2017-q2-update\\arm-none-eabi\\include
 1129              		.file 8 "c:\\program files (x86)\\gnu tools arm embedded\\6 2017-q2-update\\lib\\gcc\\arm-none-eab
 1130              		.file 9 "c:\\program files (x86)\\gnu tools arm embedded\\6 2017-q2-update\\arm-none-eabi\\include
 1131              		.file 10 "c:\\program files (x86)\\gnu tools arm embedded\\6 2017-q2-update\\arm-none-eabi\\includ
 1132              		.file 11 "D:\\Work\\DeviceTester\\amazon-freertos\\lib\\third_party\\mcu_vendor\\renesas\\rz_mcu_b
 1133              		.file 12 "c:\\program files (x86)\\gnu tools arm embedded\\6 2017-q2-update\\arm-none-eabi\\includ
 1134              		.file 13 "c:\\program files (x86)\\gnu tools arm embedded\\6 2017-q2-update\\arm-none-eabi\\includ
 1135              		.file 14 "D:\\Work\\DeviceTester\\amazon-freertos\\lib\\third_party\\mcu_vendor\\renesas\\rz_mcu_b
 1136              		.file 15 "D:\\Work\\DeviceTester\\amazon-freertos\\lib\\third_party\\mcu_vendor\\renesas\\rz_mcu_b
 1137              		.file 16 "D:\\Work\\DeviceTester\\amazon-freertos\\lib\\third_party\\mcu_vendor\\renesas\\rz_mcu_b
 1138              		.file 17 "D:\\Work\\DeviceTester\\amazon-freertos\\lib\\third_party\\mcu_vendor\\renesas\\rz_mcu_b
 1139              		.file 18 "D:\\Work\\DeviceTester\\amazon-freertos\\lib\\third_party\\mcu_vendor\\renesas\\rz_mcu_b
 1140              		.file 19 "D:\\Work\\DeviceTester\\amazon-freertos\\lib\\third_party\\mcu_vendor\\renesas\\rz_mcu_b
 1141              		.file 20 "D:\\Work\\DeviceTester\\amazon-freertos\\lib\\third_party\\mcu_vendor\\renesas\\rz_mcu_b
 1142              		.file 21 "D:\\Work\\DeviceTester\\amazon-freertos\\lib\\third_party\\mcu_vendor\\renesas\\rz_mcu_b
 1143              		.file 22 "c:\\program files (x86)\\gnu tools arm embedded\\6 2017-q2-update\\arm-none-eabi\\includ
 1144              		.file 23 "D:\\Work\\DeviceTester\\amazon-freertos\\lib\\third_party\\mcu_vendor\\renesas\\rz_mcu_b
 1145              		.file 24 "D:\\Work\\DeviceTester\\amazon-freertos\\lib\\third_party\\mcu_vendor\\renesas\\rz_mcu_b
DEFINED SYMBOLS
                            *ABS*:00000000 phy.c
C:\Users\a5089698\AppData\Local\Temp\ccYHb3xx.s:17     .text.phy_trans_zto0:00000000 $a
C:\Users\a5089698\AppData\Local\Temp\ccYHb3xx.s:22     .text.phy_trans_zto0:00000000 phy_trans_zto0
C:\Users\a5089698\AppData\Local\Temp\ccYHb3xx.s:119    .text.phy_trans_zto0:00000088 $d
C:\Users\a5089698\AppData\Local\Temp\ccYHb3xx.s:125    .text.phy_mii_write1:00000000 $a
C:\Users\a5089698\AppData\Local\Temp\ccYHb3xx.s:130    .text.phy_mii_write1:00000000 phy_mii_write1
C:\Users\a5089698\AppData\Local\Temp\ccYHb3xx.s:226    .text.phy_mii_write1:00000088 $d
C:\Users\a5089698\AppData\Local\Temp\ccYHb3xx.s:232    .text.phy_mii_write0:00000000 $a
C:\Users\a5089698\AppData\Local\Temp\ccYHb3xx.s:237    .text.phy_mii_write0:00000000 phy_mii_write0
C:\Users\a5089698\AppData\Local\Temp\ccYHb3xx.s:333    .text.phy_mii_write0:00000088 $d
C:\Users\a5089698\AppData\Local\Temp\ccYHb3xx.s:339    .text.phy_reg_set:00000000 $a
C:\Users\a5089698\AppData\Local\Temp\ccYHb3xx.s:344    .text.phy_reg_set:00000000 phy_reg_set
C:\Users\a5089698\AppData\Local\Temp\ccYHb3xx.s:416    .text.phy_reg_set:00000064 $d
C:\Users\a5089698\AppData\Local\Temp\ccYHb3xx.s:421    .text.phy_read:00000000 $a
C:\Users\a5089698\AppData\Local\Temp\ccYHb3xx.s:426    .text.phy_read:00000000 phy_read
C:\Users\a5089698\AppData\Local\Temp\ccYHb3xx.s:595    .text.phy_read:000000f8 $d
C:\Users\a5089698\AppData\Local\Temp\ccYHb3xx.s:603    .text.phy_write:00000000 $a
C:\Users\a5089698\AppData\Local\Temp\ccYHb3xx.s:608    .text.phy_write:00000000 phy_write
C:\Users\a5089698\AppData\Local\Temp\ccYHb3xx.s:729    .text.phy_init:00000000 $a
C:\Users\a5089698\AppData\Local\Temp\ccYHb3xx.s:735    .text.phy_init:00000000 phy_init
C:\Users\a5089698\AppData\Local\Temp\ccYHb3xx.s:846    .text.phy_init:000000c4 $d
C:\Users\a5089698\AppData\Local\Temp\ccYHb3xx.s:856    .text.phy_start_autonegotiate:00000000 $a
C:\Users\a5089698\AppData\Local\Temp\ccYHb3xx.s:862    .text.phy_start_autonegotiate:00000000 phy_start_autonegotiate
C:\Users\a5089698\AppData\Local\Temp\ccYHb3xx.s:919    .text.phy_start_autonegotiate:00000060 $d
C:\Users\a5089698\AppData\Local\Temp\ccYHb3xx.s:924    .text.phy_set_autonegotiate:00000000 $a
C:\Users\a5089698\AppData\Local\Temp\ccYHb3xx.s:930    .text.phy_set_autonegotiate:00000000 phy_set_autonegotiate
C:\Users\a5089698\AppData\Local\Temp\ccYHb3xx.s:1036   .text.phy_set_autonegotiate:000000cc $d
C:\Users\a5089698\AppData\Local\Temp\ccYHb3xx.s:1041   .text.phy_get_link_status:00000000 $a
C:\Users\a5089698\AppData\Local\Temp\ccYHb3xx.s:1047   .text.phy_get_link_status:00000000 phy_get_link_status
C:\Users\a5089698\AppData\Local\Temp\ccYHb3xx.s:1080   .bss.local_advertise:00000000 $d
C:\Users\a5089698\AppData\Local\Temp\ccYHb3xx.s:1084   .bss.local_advertise:00000000 local_advertise
C:\Users\a5089698\AppData\Local\Temp\ccYHb3xx.s:1087   .bss.s_my_gpio_handle:00000000 $d
C:\Users\a5089698\AppData\Local\Temp\ccYHb3xx.s:1091   .bss.s_my_gpio_handle:00000000 s_my_gpio_handle
C:\Users\a5089698\AppData\Local\Temp\ccYHb3xx.s:1094   .data.s_p60_hi:00000000 $d
C:\Users\a5089698\AppData\Local\Temp\ccYHb3xx.s:1098   .data.s_p60_hi:00000000 s_p60_hi
C:\Users\a5089698\AppData\Local\Temp\ccYHb3xx.s:1103   .data.s_p60_lo:00000000 $d
C:\Users\a5089698\AppData\Local\Temp\ccYHb3xx.s:1107   .data.s_p60_lo:00000000 s_p60_lo
C:\Users\a5089698\AppData\Local\Temp\ccYHb3xx.s:1115   .rodata.s_phyrst_pin_list:00000000 $d
C:\Users\a5089698\AppData\Local\Temp\ccYHb3xx.s:1119   .rodata.s_phyrst_pin_list:00000000 s_phyrst_pin_list
                     .debug_frame:00000010 $d

UNDEFINED SYMBOLS
g_eth_control_ch
g_ether_sc_table
open
direct_control
R_OS_TaskSleep
